; Listing generated by Microsoft (R) Optimizing Compiler Version 16.00.40219.01 

	TITLE	D:\Projects\ExTeam6.3\Source\GameServer\GameServer\ObjAttack.cpp
	.686P
	.XMM
	include listing.inc
	.model	flat

INCLUDELIB LIBCMT
INCLUDELIB OLDNAMES

_DATA	SEGMENT
_g_sttBLOODCASTLE_LEVEL DD 0fH
	DD	050H
	DD	0aH
	DD	03cH
	DD	051H
	DD	082H
	DD	03dH
	DD	06eH
	DD	083H
	DD	0b4H
	DD	06fH
	DD	0a0H
	DD	0b5H
	DD	0e6H
	DD	0a1H
	DD	0d2H
	DD	0e7H
	DD	0118H
	DD	0d3H
	DD	0104H
	DD	0119H
	DD	014aH
	DD	0105H
	DD	0136H
	DD	014bH
	DD	0190H
	DD	0137H
	DD	0190H
	DD	0fH
	DD	0257H
	DD	0aH
	DD	0257H
_g_sttCHAOSCASTLE_LEVEL DD 0fH
	DD	031H
	DD	0fH
	DD	01dH
	DD	032H
	DD	077H
	DD	01eH
	DD	063H
	DD	078H
	DD	0b3H
	DD	064H
	DD	09fH
	DD	0b4H
	DD	0efH
	DD	0a0H
	DD	0dbH
	DD	0f0H
	DD	012bH
	DD	0dcH
	DD	0117H
	DD	012cH
	DD	0190H
	DD	0118H
	DD	0190H
	DD	0190H
	DD	0257H
	DD	0190H
	DD	0257H
_g_iChaosCastle_BlowOutDistance DD 03H
	DD	04H
	DD	03H
	DD	04H
	DD	02H
	DD	03H
	DD	00H
	DD	01H
_g_iChaosCastle_BlowOutDamage DD 0fH
	DD	0fH
	DD	0aH
	DD	05H
_g_iChaosCastle_EnterCost DD 061a8H
	DD	013880H
	DD	0249f0H
	DD	03d090H
	DD	061a80H
	DD	09eb10H
	DD	0f4240H
_g_iChaosCastle_GuardSetValue DD 09c4H
	DD	09c4H
	DD	09c4H
	DD	09c4H
	DD	09c4H
	DD	09c4H
	DD	09c4H
_g_iChaosCastle_MonsterItems DD 01c0dH
	DD	01H
	DD	01c0eH
	DD	02H
	DD	01c0dH
	DD	01H
	DD	01c0eH
	DD	03H
	DD	01c0dH
	DD	01H
	DD	01c0eH
	DD	03H
	DD	01c0dH
	DD	02H
	DD	01c0eH
	DD	02H
	DD	01c0dH
	DD	02H
	DD	01c0eH
	DD	03H
	DD	01c0dH
	DD	02H
	DD	01c0eH
	DD	03H
	DD	01c0dH
	DD	02H
	DD	01c0eH
	DD	04H
_g_iChaosCastle_MonsterItemsNewServer DD 00H
	DD	00H
	DD	01c0eH
	DD	02H
	DD	01c0dH
	DD	01H
	DD	01c0eH
	DD	01H
	DD	01c0dH
	DD	01H
	DD	01c0eH
	DD	02H
	DD	01c0dH
	DD	01H
	DD	01c0eH
	DD	02H
	DD	01c0dH
	DD	02H
	DD	01c0eH
	DD	01H
	DD	01c0dH
	DD	02H
	DD	01c0eH
	DD	02H
	DD	01c0dH
	DD	02H
	DD	01c0eH
	DD	03H
_g_iChaosCastle_GroundAxis DD 017H
	DD	04bH
	DD	02cH
	DD	06cH
_g_iChaosCastle_DamageAxis DD 017H
	DD	04bH
	DD	02cH
	DD	06cH
	DD	019H
	DD	04dH
	DD	02aH
	DD	06aH
	DD	01bH
	DD	04fH
	DD	028H
	DD	068H
	DD	01dH
	DD	051H
	DD	026H
	DD	066H
_g_iChaosCastle_MapHollowZone DD 017H
	DD	04bH
	DD	02cH
	DD	04cH
	DD	02bH
	DD	04dH
	DD	02cH
	DD	06cH
	DD	017H
	DD	06bH
	DD	02aH
	DD	06cH
	DD	017H
	DD	04dH
	DD	018H
	DD	06aH
	DD	017H
	DD	04bH
	DD	02cH
	DD	04cH
	DD	02bH
	DD	04dH
	DD	02cH
	DD	06cH
	DD	017H
	DD	06bH
	DD	02aH
	DD	06cH
	DD	017H
	DD	04dH
	DD	018H
	DD	06aH
	DD	019H
	DD	04dH
	DD	02aH
	DD	04eH
	DD	029H
	DD	04fH
	DD	02aH
	DD	06aH
	DD	019H
	DD	069H
	DD	028H
	DD	06aH
	DD	019H
	DD	04fH
	DD	01aH
	DD	068H
	DD	01bH
	DD	04fH
	DD	028H
	DD	050H
	DD	027H
	DD	051H
	DD	028H
	DD	068H
	DD	01bH
	DD	067H
	DD	026H
	DD	068H
	DD	01bH
	DD	051H
	DD	01cH
	DD	066H
_g_iNpcUpDfLevel_CGATE DD 01H
	DD	02H
	DD	02dc6c0H
	DD	02H
	DD	03H
	DD	02dc6c0H
	DD	03H
	DD	04H
	DD	02dc6c0H
_g_iNpcUpDfLevel_CSTATUE DD 01H
	DD	03H
	DD	02dc6c0H
	DD	02H
	DD	05H
	DD	02dc6c0H
	DD	03H
	DD	07H
	DD	02dc6c0H
_g_iNpcUpMaxHP_CGATE DD 02625a0H
	DD	02H
	DD	0f4240H
	DD	03567e0H
	DD	03H
	DD	0f4240H
	DD	04f5880H
	DD	04H
	DD	0f4240H
_g_iNpcUpMaxHP_CSTATUE DD 02191c0H
	DD	03H
	DD	0f4240H
	DD	033e140H
	DD	05H
	DD	0f4240H
	DD	04c4b40H
	DD	07H
	DD	0f4240H
_g_iNpcUpRgLevel_CSTATUE DD 01H
	DD	03H
	DD	04c4b40H
	DD	02H
	DD	05H
	DD	04c4b40H
	DD	03H
	DD	07H
	DD	04c4b40H
_g_iCsUserReSpawnArea DD 023H
	DD	011H
	DD	090H
	DD	030H
	DD	04aH
	DD	090H
	DD	073H
	DD	09aH
	DD	023H
	DD	011H
	DD	090H
	DD	030H
_g_iNpcDefense_CGATE DD 064H
	DD	0b4H
	DD	012cH
	DD	0208H
_g_iNpcDefense_CSTATUE DD 050H
	DD	0b4H
	DD	0154H
	DD	0226H
_g_iCastleWallStepAxisY DD 071H
	DD	0a0H
	DD	0cbH
_DATA	ENDS
PUBLIC	??_H@YGXPAXIHP6EPAX0@Z@Z			; `vector constructor iterator'
; Function compile flags: /Odtp /ZI
;	COMDAT ??_H@YGXPAXIHP6EPAX0@Z@Z
_TEXT	SEGMENT
___t$ = 8						; size = 4
___s$ = 12						; size = 4
___n$ = 16						; size = 4
___f$ = 20						; size = 4
??_H@YGXPAXIHP6EPAX0@Z@Z PROC				; `vector constructor iterator', COMDAT
  00000	55		 push	 ebp
  00001	8b ec		 mov	 ebp, esp
  00003	83 ec 40	 sub	 esp, 64			; 00000040H
  00006	53		 push	 ebx
  00007	56		 push	 esi
  00008	57		 push	 edi
$LN2@vector:
  00009	8b 45 10	 mov	 eax, DWORD PTR ___n$[ebp]
  0000c	83 e8 01	 sub	 eax, 1
  0000f	89 45 10	 mov	 DWORD PTR ___n$[ebp], eax
  00012	78 11		 js	 SHORT $LN3@vector
  00014	8b 4d 08	 mov	 ecx, DWORD PTR ___t$[ebp]
  00017	ff 55 14	 call	 DWORD PTR ___f$[ebp]
  0001a	8b 45 08	 mov	 eax, DWORD PTR ___t$[ebp]
  0001d	03 45 0c	 add	 eax, DWORD PTR ___s$[ebp]
  00020	89 45 08	 mov	 DWORD PTR ___t$[ebp], eax
  00023	eb e4		 jmp	 SHORT $LN2@vector
$LN3@vector:
  00025	5f		 pop	 edi
  00026	5e		 pop	 esi
  00027	5b		 pop	 ebx
  00028	8b e5		 mov	 esp, ebp
  0002a	5d		 pop	 ebp
  0002b	c2 10 00	 ret	 16			; 00000010H
??_H@YGXPAXIHP6EPAX0@Z@Z ENDP				; `vector constructor iterator'
_TEXT	ENDS
PUBLIC	??_7CObjAttack@@6B@				; CObjAttack::`vftable'
PUBLIC	??0CObjAttack@@QAE@XZ				; CObjAttack::CObjAttack
PUBLIC	??_R4CObjAttack@@6B@				; CObjAttack::`RTTI Complete Object Locator'
PUBLIC	??_R0?AVCObjAttack@@@8				; CObjAttack `RTTI Type Descriptor'
PUBLIC	??_R3CObjAttack@@8				; CObjAttack::`RTTI Class Hierarchy Descriptor'
PUBLIC	??_R2CObjAttack@@8				; CObjAttack::`RTTI Base Class Array'
PUBLIC	??_R1A@?0A@EA@CObjAttack@@8			; CObjAttack::`RTTI Base Class Descriptor at (0,-1,0,64)'
PUBLIC	??_R1A@?0A@EA@CObjBaseAttack@@8			; CObjBaseAttack::`RTTI Base Class Descriptor at (0,-1,0,64)'
PUBLIC	??_R0?AVCObjBaseAttack@@@8			; CObjBaseAttack `RTTI Type Descriptor'
PUBLIC	??_R3CObjBaseAttack@@8				; CObjBaseAttack::`RTTI Class Hierarchy Descriptor'
PUBLIC	??_R2CObjBaseAttack@@8				; CObjBaseAttack::`RTTI Base Class Array'
EXTRN	??0CObjBaseAttack@@QAE@XZ:PROC			; CObjBaseAttack::CObjBaseAttack
EXTRN	??_7type_info@@6B@:QWORD			; type_info::`vftable'
EXTRN	??_ECObjAttack@@UAEPAXI@Z:PROC			; CObjAttack::`vector deleting destructor'
EXTRN	?MissCheck@CObjBaseAttack@@UAEHPAUOBJECTSTRUCT@@0HHHAAHE@Z:PROC ; CObjBaseAttack::MissCheck
;	COMDAT ??_R2CObjBaseAttack@@8
; File d:\projects\exteam6.3\source\gameserver\gameserver\objattack.cpp
rdata$r	SEGMENT
??_R2CObjBaseAttack@@8 DD FLAT:??_R1A@?0A@EA@CObjBaseAttack@@8 ; CObjBaseAttack::`RTTI Base Class Array'
rdata$r	ENDS
;	COMDAT ??_R3CObjBaseAttack@@8
rdata$r	SEGMENT
??_R3CObjBaseAttack@@8 DD 00H				; CObjBaseAttack::`RTTI Class Hierarchy Descriptor'
	DD	00H
	DD	01H
	DD	FLAT:??_R2CObjBaseAttack@@8
rdata$r	ENDS
;	COMDAT ??_R0?AVCObjBaseAttack@@@8
_DATA	SEGMENT
??_R0?AVCObjBaseAttack@@@8 DD FLAT:??_7type_info@@6B@	; CObjBaseAttack `RTTI Type Descriptor'
	DD	00H
	DB	'.?AVCObjBaseAttack@@', 00H
_DATA	ENDS
;	COMDAT ??_R1A@?0A@EA@CObjBaseAttack@@8
rdata$r	SEGMENT
??_R1A@?0A@EA@CObjBaseAttack@@8 DD FLAT:??_R0?AVCObjBaseAttack@@@8 ; CObjBaseAttack::`RTTI Base Class Descriptor at (0,-1,0,64)'
	DD	00H
	DD	00H
	DD	0ffffffffH
	DD	00H
	DD	040H
	DD	FLAT:??_R3CObjBaseAttack@@8
rdata$r	ENDS
;	COMDAT ??_R1A@?0A@EA@CObjAttack@@8
rdata$r	SEGMENT
??_R1A@?0A@EA@CObjAttack@@8 DD FLAT:??_R0?AVCObjAttack@@@8 ; CObjAttack::`RTTI Base Class Descriptor at (0,-1,0,64)'
	DD	01H
	DD	00H
	DD	0ffffffffH
	DD	00H
	DD	040H
	DD	FLAT:??_R3CObjAttack@@8
rdata$r	ENDS
;	COMDAT ??_R2CObjAttack@@8
rdata$r	SEGMENT
??_R2CObjAttack@@8 DD FLAT:??_R1A@?0A@EA@CObjAttack@@8	; CObjAttack::`RTTI Base Class Array'
	DD	FLAT:??_R1A@?0A@EA@CObjBaseAttack@@8
rdata$r	ENDS
;	COMDAT ??_R3CObjAttack@@8
rdata$r	SEGMENT
??_R3CObjAttack@@8 DD 00H				; CObjAttack::`RTTI Class Hierarchy Descriptor'
	DD	00H
	DD	02H
	DD	FLAT:??_R2CObjAttack@@8
rdata$r	ENDS
;	COMDAT ??_R0?AVCObjAttack@@@8
_DATA	SEGMENT
??_R0?AVCObjAttack@@@8 DD FLAT:??_7type_info@@6B@	; CObjAttack `RTTI Type Descriptor'
	DD	00H
	DB	'.?AVCObjAttack@@', 00H
_DATA	ENDS
;	COMDAT ??_R4CObjAttack@@6B@
rdata$r	SEGMENT
??_R4CObjAttack@@6B@ DD 00H				; CObjAttack::`RTTI Complete Object Locator'
	DD	00H
	DD	00H
	DD	FLAT:??_R0?AVCObjAttack@@@8
	DD	FLAT:??_R3CObjAttack@@8
rdata$r	ENDS
;	COMDAT ??_7CObjAttack@@6B@
CONST	SEGMENT
??_7CObjAttack@@6B@ DD FLAT:??_R4CObjAttack@@6B@	; CObjAttack::`vftable'
	DD	FLAT:??_ECObjAttack@@UAEPAXI@Z
	DD	FLAT:?MissCheck@CObjBaseAttack@@UAEHPAUOBJECTSTRUCT@@0HHHAAHE@Z
; Function compile flags: /Odtp /ZI
CONST	ENDS
_TEXT	SEGMENT
_this$ = -4						; size = 4
??0CObjAttack@@QAE@XZ PROC				; CObjAttack::CObjAttack
; _this$ = ecx

; 47   : {

  00000	55		 push	 ebp
  00001	8b ec		 mov	 ebp, esp
  00003	83 ec 44	 sub	 esp, 68			; 00000044H
  00006	53		 push	 ebx
  00007	56		 push	 esi
  00008	57		 push	 edi
  00009	89 4d fc	 mov	 DWORD PTR _this$[ebp], ecx
  0000c	8b 4d fc	 mov	 ecx, DWORD PTR _this$[ebp]
  0000f	e8 00 00 00 00	 call	 ??0CObjBaseAttack@@QAE@XZ ; CObjBaseAttack::CObjBaseAttack
  00014	8b 45 fc	 mov	 eax, DWORD PTR _this$[ebp]
  00017	c7 00 00 00 00
	00		 mov	 DWORD PTR [eax], OFFSET ??_7CObjAttack@@6B@

; 48   : 
; 49   : }

  0001d	8b 45 fc	 mov	 eax, DWORD PTR _this$[ebp]
  00020	5f		 pop	 edi
  00021	5e		 pop	 esi
  00022	5b		 pop	 ebx
  00023	8b e5		 mov	 esp, ebp
  00025	5d		 pop	 ebp
  00026	c3		 ret	 0
??0CObjAttack@@QAE@XZ ENDP				; CObjAttack::CObjAttack
_TEXT	ENDS
PUBLIC	??1CObjAttack@@UAE@XZ				; CObjAttack::~CObjAttack
EXTRN	??3@YAXPAX@Z:PROC				; operator delete
; Function compile flags: /Odtp /ZI
;	COMDAT ??_GCObjAttack@@UAEPAXI@Z
_TEXT	SEGMENT
_this$ = -4						; size = 4
___flags$ = 8						; size = 4
??_GCObjAttack@@UAEPAXI@Z PROC				; CObjAttack::`scalar deleting destructor', COMDAT
; _this$ = ecx
  00000	55		 push	 ebp
  00001	8b ec		 mov	 ebp, esp
  00003	83 ec 44	 sub	 esp, 68			; 00000044H
  00006	53		 push	 ebx
  00007	56		 push	 esi
  00008	57		 push	 edi
  00009	89 4d fc	 mov	 DWORD PTR _this$[ebp], ecx
  0000c	8b 4d fc	 mov	 ecx, DWORD PTR _this$[ebp]
  0000f	e8 00 00 00 00	 call	 ??1CObjAttack@@UAE@XZ	; CObjAttack::~CObjAttack
  00014	8b 45 08	 mov	 eax, DWORD PTR ___flags$[ebp]
  00017	83 e0 01	 and	 eax, 1
  0001a	74 0c		 je	 SHORT $LN1@scalar
  0001c	8b 45 fc	 mov	 eax, DWORD PTR _this$[ebp]
  0001f	50		 push	 eax
  00020	e8 00 00 00 00	 call	 ??3@YAXPAX@Z		; operator delete
  00025	83 c4 04	 add	 esp, 4
$LN1@scalar:
  00028	8b 45 fc	 mov	 eax, DWORD PTR _this$[ebp]
  0002b	5f		 pop	 edi
  0002c	5e		 pop	 esi
  0002d	5b		 pop	 ebx
  0002e	8b e5		 mov	 esp, ebp
  00030	5d		 pop	 ebp
  00031	c2 04 00	 ret	 4
??_GCObjAttack@@UAEPAXI@Z ENDP				; CObjAttack::`scalar deleting destructor'
_TEXT	ENDS
EXTRN	??1CObjBaseAttack@@UAE@XZ:PROC			; CObjBaseAttack::~CObjBaseAttack
; Function compile flags: /Odtp /ZI
_TEXT	SEGMENT
_this$ = -4						; size = 4
??1CObjAttack@@UAE@XZ PROC				; CObjAttack::~CObjAttack
; _this$ = ecx

; 52   : {

  00030	55		 push	 ebp
  00031	8b ec		 mov	 ebp, esp
  00033	83 ec 44	 sub	 esp, 68			; 00000044H
  00036	53		 push	 ebx
  00037	56		 push	 esi
  00038	57		 push	 edi
  00039	89 4d fc	 mov	 DWORD PTR _this$[ebp], ecx
  0003c	8b 45 fc	 mov	 eax, DWORD PTR _this$[ebp]
  0003f	c7 00 00 00 00
	00		 mov	 DWORD PTR [eax], OFFSET ??_7CObjAttack@@6B@

; 53   : 
; 54   : }

  00045	8b 4d fc	 mov	 ecx, DWORD PTR _this$[ebp]
  00048	e8 00 00 00 00	 call	 ??1CObjBaseAttack@@UAE@XZ ; CObjBaseAttack::~CObjBaseAttack
  0004d	5f		 pop	 edi
  0004e	5e		 pop	 esi
  0004f	5b		 pop	 ebx
  00050	8b e5		 mov	 esp, ebp
  00052	5d		 pop	 ebp
  00053	c3		 ret	 0
??1CObjAttack@@UAE@XZ ENDP				; CObjAttack::~CObjAttack
_TEXT	ENDS
PUBLIC	??_C@_0FB@HEJCKECH@?$FLPvP?5System?$FN?5Victim?3?$FL?$CFs?$FN?$FL?$CFs?$FN?0?5At@ ; `string'
PUBLIC	??_C@_0DB@MDAHJJLM@error?9Level1?5?3?5?$FL?$CFs?$FN?$FL?$CFs?$FN?5Str?3?$CFd?5?$CF@ ; `string'
PUBLIC	__real@3f800000
PUBLIC	__real@4014000000000000
PUBLIC	?GetShieldDamage@CObjAttack@@QAEHPAUOBJECTSTRUCT@@0H@Z ; CObjAttack::GetShieldDamage
PUBLIC	?gObjFenrir@@YAHPAUOBJECTSTRUCT@@@Z		; gObjFenrir
PUBLIC	__real@408f400000000000
PUBLIC	__real@4002666666666666
PUBLIC	__real@400199999999999a
PUBLIC	__real@404e000000000000
PUBLIC	__real@4004000000000000
PUBLIC	?gObjDarkHorse@@YAHPAUOBJECTSTRUCT@@@Z		; gObjDarkHorse
PUBLIC	?gObjDenorantSprite@@YAHPAUOBJECTSTRUCT@@@Z	; gObjDenorantSprite
PUBLIC	__real@3ff0000000000000
PUBLIC	__real@4024000000000000
PUBLIC	__real@00000000
PUBLIC	__real@0000000000000000
PUBLIC	__real@4008000000000000
PUBLIC	__real@4000000000000000
PUBLIC	__real@4059000000000000
PUBLIC	__real@4010000000000000
PUBLIC	??_C@_0BH@NMKEOPCM@?$CFs?5AttackDamage?3?5?$CFd?5?$CFd?$AA@ ; `string'
PUBLIC	??_C@_09PBMNMIBJ@EXCELLENT?$AA@			; `string'
PUBLIC	??_C@_08FOLAHAHG@CRITICAL?$AA@			; `string'
PUBLIC	?GetAttackDamageSummoner@CObjAttack@@QAEHPAUOBJECTSTRUCT@@HPAVCMagicInf@@AAEH@Z ; CObjAttack::GetAttackDamageSummoner
PUBLIC	?GetAttackDamageWizard@CObjAttack@@QAEHPAUOBJECTSTRUCT@@HPAVCMagicInf@@AAEH@Z ; CObjAttack::GetAttackDamageWizard
PUBLIC	?GetAttackDamage@CObjAttack@@QAEHPAUOBJECTSTRUCT@@HAAEHPAVCMagicInf@@@Z ; CObjAttack::GetAttackDamage
PUBLIC	?GetCastleState@CCastleSiege@@QAEHXZ		; CCastleSiege::GetCastleState
PUBLIC	?GetCrywolfState@CCrywolf@@QAEHXZ		; CCrywolf::GetCrywolfState
PUBLIC	__$ArrayPad$
PUBLIC	?Attack@CObjAttack@@QAEHPAUOBJECTSTRUCT@@0PAVCMagicInf@@HEHHEE@Z ; CObjAttack::Attack
EXTRN	?GCDamageTable@ÑExUser@@QAEXH@Z:PROC		; ÑExUser::GCDamageTable
EXTRN	?SpecificSkillAdditionTreat@CObjUseSkill@@QAEXPAUOBJECTSTRUCT@@0PAVCMagicInf@@H@Z:PROC ; CObjUseSkill::SpecificSkillAdditionTreat
EXTRN	?LogAddTD@@3P6AXPADZZA:DWORD			; LogAddTD
EXTRN	?gObjLifeCheck@@YAXPAUOBJECTSTRUCT@@0HHHHGH@Z:PROC ; gObjLifeCheck
EXTRN	?FireScreamExplosionAttack@CObjUseSkill@@QAEHPAUOBJECTSTRUCT@@0H@Z:PROC ; CObjUseSkill::FireScreamExplosionAttack
EXTRN	?LogAdd@@3P6AXPADZZA:DWORD			; LogAdd
EXTRN	?GCManaSend@@YAXHHEEH@Z:PROC			; GCManaSend
EXTRN	?gObjUniriaSprite@@YAHPAUOBJECTSTRUCT@@@Z:PROC	; gObjUniriaSprite
EXTRN	?GCActionSend@@YAXPAUOBJECTSTRUCT@@EHH@Z:PROC	; GCActionSend
EXTRN	?gObjCheckSelfDefense@@YAXPAUOBJECTSTRUCT@@H@Z:PROC ; gObjCheckSelfDefense
EXTRN	?GetPkLevel@PartyClass@@QAEDH@Z:PROC		; PartyClass::GetPkLevel
EXTRN	?gParty@@3VPartyClass@@A:BYTE			; gParty
EXTRN	?gObjTargetGuildWarCheck@@YAHPAUOBJECTSTRUCT@@0@Z:PROC ; gObjTargetGuildWarCheck
EXTRN	?gObjRemoveBuffEffect@@YAEPAUOBJECTSTRUCT@@H@Z:PROC ; gObjRemoveBuffEffect
EXTRN	?GCMagicCancelSend@@YAXPAUOBJECTSTRUCT@@G@Z:PROC ; GCMagicCancelSend
EXTRN	?gObjUpdateSpecificBuffEffectDuration@@YAEPAUOBJECTSTRUCT@@HH@Z:PROC ; gObjUpdateSpecificBuffEffectDuration
EXTRN	?gObjArmorRandomDurDown@@YAXPAUOBJECTSTRUCT@@0@Z:PROC ; gObjArmorRandomDurDown
EXTRN	?gObjGetRelationShip@@YAHPAUOBJECTSTRUCT@@0@Z:PROC ; gObjGetRelationShip
EXTRN	?IncAgro@TMonsterAIAgro@@QAEHHH@Z:PROC		; TMonsterAIAgro::IncAgro
EXTRN	?GCItemDurSend@@YAXHEEE@Z:PROC			; GCItemDurSend
EXTRN	?IsLuckyItemEquipment@LuckyItemManager@@QAEHH@Z:PROC ; LuckyItemManager::IsLuckyItemEquipment
EXTRN	?g_LuckyItemManager@@3ULuckyItemManager@@A:BYTE	; g_LuckyItemManager
EXTRN	?AttackDamageRG@cSystemOfRage@@QAEXPAUOBJECTSTRUCT@@0AAH_N@Z:PROC ; cSystemOfRage::AttackDamageRG
EXTRN	?gSystemOfRage@@3VcSystemOfRage@@A:BYTE		; gSystemOfRage
EXTRN	?IsFenrirDecLastAttackDamage@CItem@@QAEHXZ:PROC	; CItem::IsFenrirDecLastAttackDamage
EXTRN	?IsFenrirIncLastAttackDamage@CItem@@QAEHXZ:PROC	; CItem::IsFenrirIncLastAttackDamage
EXTRN	?gObjWeaponDurDownInCastle@@YAXPAUOBJECTSTRUCT@@0H@Z:PROC ; gObjWeaponDurDownInCastle
EXTRN	?GetAltarUserIndex@CCrywolfAltar@@QAEHH@Z:PROC	; CCrywolfAltar::GetAltarUserIndex
EXTRN	?g_CrywolfNPC_Altar@@3VCCrywolfAltar@@A:BYTE	; g_CrywolfNPC_Altar
EXTRN	?Main@cBalanceSystem@@QAEXPAUOBJECTSTRUCT@@0AAH@Z:PROC ; cBalanceSystem::Main
EXTRN	?gBalanceSystem@@3VcBalanceSystem@@A:BYTE	; gBalanceSystem
EXTRN	?gObjBackSpring2@@YAHPAUOBJECTSTRUCT@@0H@Z:PROC	; gObjBackSpring2
EXTRN	?GetSkillAttr@CMagicDamage@@QAEHH@Z:PROC	; CMagicDamage::GetSkillAttr
EXTRN	?GetDetailItemType@CItem@@QAEHXZ:PROC		; CItem::GetDetailItemType
EXTRN	?GetBaseMasterLevelSkill@CMasterLevelSkillTreeSystem@@QAEHH@Z:PROC ; CMasterLevelSkillTreeSystem::GetBaseMasterLevelSkill
EXTRN	?GetMasterSkillValue@CMasterLevelSkillTreeSystem@@QAEMHH@Z:PROC ; CMasterLevelSkillTreeSystem::GetMasterSkillValue
EXTRN	?SkillGet@CMagicDamage@@QAEHH@Z:PROC		; CMagicDamage::SkillGet
EXTRN	?MagicDamageC@@3VCMagicDamage@@A:BYTE		; MagicDamageC
EXTRN	?CheckRequireStatus@CMasterLevelSkillTreeSystem@@QAEHH@Z:PROC ; CMasterLevelSkillTreeSystem::CheckRequireStatus
EXTRN	?g_MasterSkillSystem@@3VCMasterLevelSkillTreeSystem@@A:BYTE ; g_MasterSkillSystem
EXTRN	?g_UserConfig@@3VCUserConfig@@A:BYTE		; g_UserConfig
EXTRN	?gObjBackSpring@@YAHPAUOBJECTSTRUCT@@0@Z:PROC	; gObjBackSpring
EXTRN	?gObjCheckBuffEffectValue@@YAEPAUOBJECTSTRUCT@@HHH@Z:PROC ; gObjCheckBuffEffectValue
EXTRN	?SkillEletrictSurgeProc@CObjUseSkill@@QAEHPAUOBJECTSTRUCT@@0HHHH@Z:PROC ; CObjUseSkill::SkillEletrictSurgeProc
EXTRN	?ExConfig@@3VcExConfigs@@A:BYTE			; ExConfig
EXTRN	?SetCharHorseAttack@cWingsDamage@@QAEXHHHAAH@Z:PROC ; cWingsDamage::SetCharHorseAttack
EXTRN	?IsDinorantReduceAttackDamaege@CItem@@QAEHXZ:PROC ; CItem::IsDinorantReduceAttackDamaege
EXTRN	?SetCharWingAbsurd@cWingsDamage@@QAEXHHHAAH@Z:PROC ; cWingsDamage::SetCharWingAbsurd
EXTRN	?Defence@cWingsDamage@@QAEXHAAH@Z:PROC		; cWingsDamage::Defence
EXTRN	?gObjAddMsgSendDelay@@YAXPAUOBJECTSTRUCT@@HHHH@Z:PROC ; gObjAddMsgSendDelay
EXTRN	?SetCharWingAttack@cWingsDamage@@QAEXHHHAAH@Z:PROC ; cWingsDamage::SetCharWingAttack
EXTRN	?Attack@cWingsDamage@@QAEXHAAH@Z:PROC		; cWingsDamage::Attack
EXTRN	?gWingsDamage@@3VcWingsDamage@@A:BYTE		; gWingsDamage
EXTRN	?gObjWingSprite@@YAHPAUOBJECTSTRUCT@@@Z:PROC	; gObjWingSprite
EXTRN	?IsItem@CItem@@QAEHXZ:PROC			; CItem::IsItem
EXTRN	?gObjSpiritGuardianSprite@@YAHPAUOBJECTSTRUCT@@@Z:PROC ; gObjSpiritGuardianSprite
EXTRN	?gObjSkeletonSprite@@YAHPAUOBJECTSTRUCT@@@Z:PROC ; gObjSkeletonSprite
EXTRN	?gObjDemonSprite@@YAHPAUOBJECTSTRUCT@@@Z:PROC	; gObjDemonSprite
EXTRN	?gObjAngelSprite@@YAHPAUOBJECTSTRUCT@@@Z:PROC	; gObjAngelSprite
EXTRN	?GCReFillSend@@YAXHHEEH@Z:PROC			; GCReFillSend
EXTRN	?gObjSatanSprite@@YAHPAUOBJECTSTRUCT@@@Z:PROC	; gObjSatanSprite
EXTRN	?gObjSpriteDamage@@YAXPAUOBJECTSTRUCT@@H@Z:PROC	; gObjSpriteDamage
EXTRN	?GCServerMsgStringSend@@YAXPADHE@Z:PROC		; GCServerMsgStringSend
EXTRN	_sprintf:PROC
EXTRN	?g_bAbilityDebug@@3HA:DWORD			; g_bAbilityDebug
EXTRN	?AttackMonster@MonsterEx@@QAEXHHAAH@Z:PROC	; MonsterEx::AttackMonster
EXTRN	?g_MonsterEx@@3VMonsterEx@@A:BYTE		; g_MonsterEx
EXTRN	?gObjWeaponDurDown@@YAXPAUOBJECTSTRUCT@@0H@Z:PROC ; gObjWeaponDurDown
EXTRN	?gObjUpdateAppliedBuffEffect@@YAEPAUOBJECTSTRUCT@@HPAH1@Z:PROC ; gObjUpdateAppliedBuffEffect
EXTRN	?g_SkillAdditionInfo@@3VCSkillAdditionInfo@@A:BYTE ; g_SkillAdditionInfo
EXTRN	?gObjGetActiveEffect@@YAHPAUOBJECTSTRUCT@@H@Z:PROC ; gObjGetActiveEffect
EXTRN	?GetTargetDefense@CObjBaseAttack@@QAEHPAUOBJECTSTRUCT@@0AAE@Z:PROC ; CObjBaseAttack::GetTargetDefense
EXTRN	?gObjSetPosition@@YAXHHH@Z:PROC			; gObjSetPosition
EXTRN	?gObjApplyBuffEffectDuration@@YAEPAUOBJECTSTRUCT@@HEHEHH@Z:PROC ; gObjApplyBuffEffectDuration
EXTRN	?MissCheckPvP@CObjBaseAttack@@QAEHPAUOBJECTSTRUCT@@0HHHAAHE@Z:PROC ; CObjBaseAttack::MissCheckPvP
EXTRN	?g_ShieldSystemOn@@3HA:DWORD			; g_ShieldSystemOn
EXTRN	?RemoveCloakingEffect@CObjUseSkill@@QAEHH@Z:PROC ; CObjUseSkill::RemoveCloakingEffect
EXTRN	?gObjUseSkill@@3VCObjUseSkill@@A:DWORD		; gObjUseSkill
EXTRN	?ResistanceCheck@CObjBaseAttack@@QAEHPAUOBJECTSTRUCT@@0H@Z:PROC ; CObjBaseAttack::ResistanceCheck
EXTRN	?DefMagicInf@@3PAVCMagicInf@@A:BYTE		; DefMagicInf
EXTRN	_rand:PROC
EXTRN	?gObjDuelCheck@@YAHPAUOBJECTSTRUCT@@0@Z:PROC	; gObjDuelCheck
EXTRN	?PkCheck@CObjBaseAttack@@QAEHPAUOBJECTSTRUCT@@0@Z:PROC ; CObjBaseAttack::PkCheck
EXTRN	?gObj@@3PAUOBJECTSTRUCT@@A:DWORD		; gObj
EXTRN	?CheckAttackArea@CObjBaseAttack@@QAEHPAUOBJECTSTRUCT@@0@Z:PROC ; CObjBaseAttack::CheckAttackArea
EXTRN	?DecreaseArrow@CObjBaseAttack@@QAEHPAUOBJECTSTRUCT@@@Z:PROC ; CObjBaseAttack::DecreaseArrow
EXTRN	?gObjCallMonsterSetEnemy@@YAHPAUOBJECTSTRUCT@@H@Z:PROC ; gObjCallMonsterSetEnemy
EXTRN	?gObjAttackQ@@YAHPAUOBJECTSTRUCT@@@Z:PROC	; gObjAttackQ
EXTRN	?SetTarget@CDarkSpirit@@QAEXH@Z:PROC		; CDarkSpirit::SetTarget
EXTRN	?gDarkSpirit@@3PAVCDarkSpirit@@A:BYTE		; gDarkSpirit
EXTRN	?gObjIsConnected@@YAHPAUOBJECTSTRUCT@@@Z:PROC	; gObjIsConnected
EXTRN	?GCDamageSend@@YAXHHHHHH@Z:PROC			; GCDamageSend
EXTRN	?gObjCheckAttackTypeMagic@@YAHHH@Z:PROC		; gObjCheckAttackTypeMagic
EXTRN	?GCMagicAttackNumberSend@@YAXPAUOBJECTSTRUCT@@GHE@Z:PROC ; GCMagicAttackNumberSend
EXTRN	?gObjMonsterStateProc@@YAXPAUOBJECTSTRUCT@@HHH@Z:PROC ; gObjMonsterStateProc
EXTRN	?GetBattleSoccerGoalMove@@YAHH@Z:PROC		; GetBattleSoccerGoalMove
EXTRN	?CheckUser@CExLicense@@QAE_NH@Z:PROC		; CExLicense::CheckUser
EXTRN	__imp__GetTickCount@0:PROC
EXTRN	?g_iCharacterRecuperationMaxLevel@@3HA:DWORD	; g_iCharacterRecuperationMaxLevel
EXTRN	?g_iUseCharacterAutoRecuperationSystem@@3HA:DWORD ; g_iUseCharacterAutoRecuperationSystem
EXTRN	?CheckAlliancePlayer@ÑExUser@@QAE_NHH@Z:PROC	; ÑExUser::CheckAlliancePlayer
EXTRN	?g_ExUser@@3VÑExUser@@A:BYTE			; g_ExUser
EXTRN	?g_CastleSiege@@3VCCastleSiege@@A:BYTE		; g_CastleSiege
EXTRN	?g_Crywolf@@3VCCrywolf@@A:BYTE			; g_Crywolf
EXTRN	?GateAttack@CImperial@@QAE_NH@Z:PROC		; CImperial::GateAttack
EXTRN	?g_Imperial@@3VCImperial@@A:BYTE		; g_Imperial
EXTRN	?PlayerWaitAttack@CDungeonSiege@@QAE_NHH@Z:PROC	; CDungeonSiege::PlayerWaitAttack
EXTRN	?g_DungeonSiege@@3VCDungeonSiege@@A:BYTE	; g_DungeonSiege
EXTRN	?CheckAttackMap@cPvPMapSystem@@QAE_NPAUOBJECTSTRUCT@@0@Z:PROC ; cPvPMapSystem::CheckAttackMap
EXTRN	?PvPMapSystem@@3VcPvPMapSystem@@A:BYTE		; PvPMapSystem
EXTRN	?AllyKillCheck@cTvTEvent@@QAE_NPAUOBJECTSTRUCT@@0@Z:PROC ; cTvTEvent::AllyKillCheck
EXTRN	?TvT@@3VcTvTEvent@@A:BYTE			; TvT
EXTRN	?g_ExLicense@@3VCExLicense@@A:BYTE		; g_ExLicense
EXTRN	?AttackCheck@CTeamVsTeam@@QAE_NHH@Z:PROC	; CTeamVsTeam::AttackCheck
EXTRN	?g_TeamVsTeam@@3VCTeamVsTeam@@A:BYTE		; g_TeamVsTeam
EXTRN	?GetGensInfluence@GensSystem@@QAEHPAUOBJECTSTRUCT@@@Z:PROC ; GensSystem::GetGensInfluence
EXTRN	?IsMapBattleZone@GensSystem@@QAEHH@Z:PROC	; GensSystem::IsMapBattleZone
EXTRN	?gGensSystem@@3VGensSystem@@A:BYTE		; gGensSystem
EXTRN	?gGENS@@3HA:DWORD				; gGENS
EXTRN	?gObjSearchActiveEffect@@YAEPAUOBJECTSTRUCT@@H@Z:PROC ; gObjSearchActiveEffect
EXTRN	___security_cookie:DWORD
EXTRN	__fltused:DWORD
EXTRN	@__security_check_cookie@4:PROC
EXTRN	__ftol2_sse:PROC
;	COMDAT ??_C@_0FB@HEJCKECH@?$FLPvP?5System?$FN?5Victim?3?$FL?$CFs?$FN?$FL?$CFs?$FN?0?5At@
CONST	SEGMENT
??_C@_0FB@HEJCKECH@?$FLPvP?5System?$FN?5Victim?3?$FL?$CFs?$FN?$FL?$CFs?$FN?0?5At@ DB '['
	DB	'PvP System] Victim:[%s][%s], Attacker:[%s][%s] - SD[%d] HP[%f'
	DB	'] -> SD[%d] HP[%f]', 00H			; `string'
CONST	ENDS
;	COMDAT ??_C@_0DB@MDAHJJLM@error?9Level1?5?3?5?$FL?$CFs?$FN?$FL?$CFs?$FN?5Str?3?$CFd?5?$CF@
CONST	SEGMENT
??_C@_0DB@MDAHJJLM@error?9Level1?5?3?5?$FL?$CFs?$FN?$FL?$CFs?$FN?5Str?3?$CFd?5?$CF@ DB 'e'
	DB	'rror-Level1 : [%s][%s] Str:%d %d %d %d %d %d %d', 00H ; `string'
CONST	ENDS
;	COMDAT __real@3f800000
CONST	SEGMENT
__real@3f800000 DD 03f800000r			; 1
CONST	ENDS
;	COMDAT __real@4014000000000000
CONST	SEGMENT
__real@4014000000000000 DQ 04014000000000000r	; 5
CONST	ENDS
;	COMDAT __real@408f400000000000
CONST	SEGMENT
__real@408f400000000000 DQ 0408f400000000000r	; 1000
CONST	ENDS
;	COMDAT __real@4002666666666666
CONST	SEGMENT
__real@4002666666666666 DQ 04002666666666666r	; 2.3
CONST	ENDS
;	COMDAT __real@400199999999999a
CONST	SEGMENT
__real@400199999999999a DQ 0400199999999999ar	; 2.2
CONST	ENDS
;	COMDAT __real@404e000000000000
CONST	SEGMENT
__real@404e000000000000 DQ 0404e000000000000r	; 60
CONST	ENDS
;	COMDAT __real@4004000000000000
CONST	SEGMENT
__real@4004000000000000 DQ 04004000000000000r	; 2.5
CONST	ENDS
;	COMDAT __real@3ff0000000000000
CONST	SEGMENT
__real@3ff0000000000000 DQ 03ff0000000000000r	; 1
CONST	ENDS
;	COMDAT __real@4024000000000000
CONST	SEGMENT
__real@4024000000000000 DQ 04024000000000000r	; 10
CONST	ENDS
;	COMDAT __real@00000000
CONST	SEGMENT
__real@00000000 DD 000000000r			; 0
CONST	ENDS
;	COMDAT __real@0000000000000000
CONST	SEGMENT
__real@0000000000000000 DQ 00000000000000000r	; 0
CONST	ENDS
;	COMDAT __real@4008000000000000
CONST	SEGMENT
__real@4008000000000000 DQ 04008000000000000r	; 3
CONST	ENDS
;	COMDAT __real@4000000000000000
CONST	SEGMENT
__real@4000000000000000 DQ 04000000000000000r	; 2
CONST	ENDS
;	COMDAT __real@4059000000000000
CONST	SEGMENT
__real@4059000000000000 DQ 04059000000000000r	; 100
CONST	ENDS
;	COMDAT __real@4010000000000000
CONST	SEGMENT
__real@4010000000000000 DQ 04010000000000000r	; 4
CONST	ENDS
;	COMDAT ??_C@_0BH@NMKEOPCM@?$CFs?5AttackDamage?3?5?$CFd?5?$CFd?$AA@
CONST	SEGMENT
??_C@_0BH@NMKEOPCM@?$CFs?5AttackDamage?3?5?$CFd?5?$CFd?$AA@ DB '%s Attack'
	DB	'Damage: %d %d', 00H				; `string'
CONST	ENDS
;	COMDAT ??_C@_09PBMNMIBJ@EXCELLENT?$AA@
CONST	SEGMENT
??_C@_09PBMNMIBJ@EXCELLENT?$AA@ DB 'EXCELLENT', 00H	; `string'
CONST	ENDS
;	COMDAT ??_C@_08FOLAHAHG@CRITICAL?$AA@
CONST	SEGMENT
??_C@_08FOLAHAHG@CRITICAL?$AA@ DB 'CRITICAL', 00H	; `string'
; Function compile flags: /Odtp /ZI
CONST	ENDS
_TEXT	SEGMENT
tv7690 = -832						; size = 4
tv7332 = -832						; size = 4
tv6899 = -832						; size = 4
tv7688 = -828						; size = 4
tv7330 = -828						; size = 4
tv6897 = -828						; size = 4
tv6114 = -828						; size = 4
tv4562 = -828						; size = 4
tv4549 = -828						; size = 4
tv3951 = -828						; size = 4
tv3938 = -828						; size = 4
tv3269 = -828						; size = 4
tv3256 = -828						; size = 4
tv277 = -828						; size = 4
tv8089 = -824						; size = 4
tv8062 = -824						; size = 4
tv7955 = -824						; size = 4
tv7935 = -824						; size = 4
tv7924 = -824						; size = 4
tv7901 = -824						; size = 4
tv7809 = -824						; size = 4
tv7649 = -824						; size = 4
tv7624 = -824						; size = 4
tv7529 = -824						; size = 4
tv7404 = -824						; size = 4
tv7089 = -824						; size = 4
tv7057 = -824						; size = 4
tv7017 = -824						; size = 4
tv7002 = -824						; size = 4
tv6975 = -824						; size = 4
tv6960 = -824						; size = 4
tv6895 = -824						; size = 4
tv6749 = -824						; size = 4
tv6724 = -824						; size = 4
tv6702 = -824						; size = 4
tv6696 = -824						; size = 4
tv6690 = -824						; size = 4
tv6684 = -824						; size = 4
tv6677 = -824						; size = 4
tv6630 = -824						; size = 4
tv6619 = -824						; size = 4
tv6608 = -824						; size = 4
tv6597 = -824						; size = 4
tv6586 = -824						; size = 4
tv6574 = -824						; size = 4
tv6563 = -824						; size = 4
tv6551 = -824						; size = 4
tv6540 = -824						; size = 4
tv6528 = -824						; size = 4
tv6515 = -824						; size = 4
tv6508 = -824						; size = 4
tv6501 = -824						; size = 4
tv6112 = -824						; size = 4
tv5888 = -824						; size = 4
tv5877 = -824						; size = 4
tv5865 = -824						; size = 4
tv5839 = -824						; size = 4
tv5810 = -824						; size = 4
tv5781 = -824						; size = 4
tv5752 = -824						; size = 4
tv5741 = -824						; size = 4
tv5711 = -824						; size = 4
tv5700 = -824						; size = 4
tv5471 = -824						; size = 4
tv5444 = -824						; size = 4
tv5135 = -824						; size = 4
tv5119 = -824						; size = 4
tv4563 = -824						; size = 4
tv4550 = -824						; size = 4
tv4366 = -824						; size = 4
tv4357 = -824						; size = 4
tv4348 = -824						; size = 4
tv4339 = -824						; size = 4
tv4208 = -824						; size = 4
tv3970 = -824						; size = 4
tv3961 = -824						; size = 4
tv3952 = -824						; size = 4
tv3939 = -824						; size = 4
tv3270 = -824						; size = 4
tv3257 = -824						; size = 4
tv2921 = -824						; size = 4
tv2685 = -824						; size = 4
tv2012 = -824						; size = 4
tv1835 = -824						; size = 4
tv1631 = -824						; size = 4
tv1590 = -824						; size = 4
tv1549 = -824						; size = 4
tv1495 = -824						; size = 4
tv1298 = -824						; size = 4
tv1283 = -824						; size = 4
tv1268 = -824						; size = 4
tv1253 = -824						; size = 4
tv1011 = -824						; size = 4
tv955 = -824						; size = 4
tv278 = -824						; size = 4
tv178 = -824						; size = 4
tv7685 = -822						; size = 2
tv7327 = -822						; size = 2
_fPercent$240860 = -756					; size = 4
_fSpringValue$240858 = -752				; size = 4
_fPercent$240854 = -748					; size = 4
_Left$ = -744						; size = 4
_Right$ = -740						; size = 4
_fRate$240822 = -736					; size = 4
_iComboDamage$240814 = -732				; size = 4
_WingOption$240807 = -725				; size = 1
_Wing$240803 = -724					; size = 4
_atd_reflect$240793 = -720				; size = 4
_partynum$240771 = -716					; size = 4
_number$240770 = -712					; size = 4
_iDurEquipment$240756 = -708				; size = 4
_damagemin$240755 = -704				; size = 4
_iDurDecValue$240752 = -700				; size = 4
_lpEquipment$240750 = -696				; size = 4
_iEquipmentPos$240749 = -692				; size = 4
_item_num$240748 = -688					; size = 20
_fDurDownRate$240744 = -668				; size = 4
_selfdefense$ = -664					; size = 4
_iAltarIndex$240699 = -660				; size = 4
_i$240695 = -656					; size = 4
_iDurEquipment$240661 = -652				; size = 4
_value$240658 = -648					; size = 4
_lpEquipment$240656 = -644				; size = 4
_iEquipmentPos$240655 = -640				; size = 4
_iDecPercent$240644 = -636				; size = 4
_iIncPercent$240639 = -632				; size = 4
_iAltarIndex$240612 = -628				; size = 4
_i$240608 = -624					; size = 4
_decattackdamage$240595 = -620				; size = 4
_replacemana$240591 = -616				; size = 4
_iWizardSkillTime$240590 = -612				; size = 4
_iWizardSkillDefense$240589 = -608			; size = 4
_fPercent$240583 = -604					; size = 4
_fPercent$240576 = -600					; size = 4
_tmpLife$240559 = -596					; size = 4
_nAddHP$240554 = -592					; size = 4
_SleepTime$240533 = -588				; size = 4
_Rate$240524 = -584					; size = 4
_fPercent$240512 = -580					; size = 4
_fPercent$240507 = -576					; size = 4
_iMasterSkillDMGPercentDL$240484 = -572			; size = 4
_iMasterSkillDMGPercentDK$240483 = -568			; size = 4
_iMLSBase$240482 = -564					; size = 4
_fPrevValue$240481 = -560				; size = 4
_iSkillValue$240480 = -556				; size = 4
_MaxEnergy$240432 = -552				; size = 4
_MaxEnergy$240424 = -548				; size = 4
_DecTime$240422 = -544					; size = 4
_DecValue$240421 = -540					; size = 4
_Rate$240416 = -536					; size = 4
_MaxEnergy$240405 = -532				; size = 4
_MaxEnergy$240397 = -528				; size = 4
_DecTime$240395 = -524					; size = 4
_DecValue$240394 = -520					; size = 4
_Rate$240389 = -516					; size = 4
_SleepTime$240378 = -512				; size = 4
_Rate$240369 = -508					; size = 4
_value$240367 = -504					; size = 4
_value$240363 = -500					; size = 4
_CurrentLife$240348 = -496				; size = 4
_iRecvLife$240343 = -492				; size = 4
_iDamageInc$240339 = -488				; size = 4
_iSkillDMGPercentDL$240334 = -484			; size = 4
_iSkillDMGPercent$240319 = -480				; size = 4
_decdamage$240303 = -476				; size = 4
_Darkhorse$240302 = -472				; size = 4
_dinorantdecdamage$240298 = -468			; size = 4
_Dinorant$240297 = -464					; size = 4
_damage$240290 = -460					; size = 4
_damage$240286 = -456					; size = 4
_damage$240281 = -452					; size = 4
_WingOption$240275 = -445				; size = 1
_damage$240271 = -444					; size = 4
_WingOption$240266 = -437				; size = 1
_damage$240262 = -436					; size = 4
_WingOption$240257 = -429				; size = 1
_damage$240253 = -428					; size = 4
_WingOption$240248 = -421				; size = 1
_damage$240244 = -420					; size = 4
_damage$240240 = -416					; size = 4
_WingOption$240234 = -409				; size = 1
_damage$240230 = -408					; size = 4
_damage$240226 = -404					; size = 4
_Wing$240219 = -400					; size = 4
_Wing$240168 = -396					; size = 4
_damage$240162 = -392					; size = 4
_damage$240154 = -388					; size = 4
_tlevel$240132 = -384					; size = 4
_beforeDamage$240130 = -380				; size = 4
_szTemp$240124 = -376					; size = 256
_iCShopScrollBuffDmgBefore$240119 = -120		; size = 4
_iCShopScrollBuffDmgValue$240118 = -116			; size = 4
_iCShopScrollBuffID$240110 = -112			; size = 4
_iCriticalDamageValue$240094 = -108			; size = 4
_iFenrirAttackDmg$240064 = -104				; size = 4
_iInnovationValue$240057 = -100				; size = 4
_fValue$240055 = -96					; size = 4
_fValue$240050 = -92					; size = 4
_targetdefense$240048 = -88				; size = 4
_bDamageReflect$ = -84					; size = 4
_bAllMiss$ = -80					; size = 4
_skillIceArrowSuccess$ = -76				; size = 4
_bIsOnDuel$ = -72					; size = 4
_Energy$ = -68						; size = 4
_Vitality$ = -64					; size = 4
_Dexterity$ = -60					; size = 4
_Strength$ = -56					; size = 4
_MSBDamage$240001 = -52					; size = 4
_bCheckAttackIsMagicType$239996 = -48			; size = 4
_bCheckAttackIsMagicType$239993 = -44			; size = 4
_skill$ = -40						; size = 4
_iTotalShieldDamage$ = -36				; size = 4
_iTempShieldDamage$ = -32				; size = 4
_ManaChange$ = -28					; size = 4
_MsgDamage$ = -21					; size = 1
_lpCallTargetObj$ = -20					; size = 4
_lpCallObj$ = -16					; size = 4
_skillSuccess$ = -12					; size = 4
_this$ = -8						; size = 4
__$ArrayPad$ = -4					; size = 4
_lpObj$ = 8						; size = 4
_lpTargetObj$ = 12					; size = 4
_lpMagic$ = 16						; size = 4
_magicsend$ = 20					; size = 4
_MSBFlag$ = 24						; size = 1
_AttackDamage$ = 28					; size = 4
_bCombo$ = 32						; size = 4
_byBarrageCount$ = 36					; size = 1
_byReflect$ = 40					; size = 1
?Attack@CObjAttack@@QAEHPAUOBJECTSTRUCT@@0PAVCMagicInf@@HEHHEE@Z PROC ; CObjAttack::Attack
; _this$ = ecx

; 58   : {

  00060	55		 push	 ebp
  00061	8b ec		 mov	 ebp, esp
  00063	81 ec 40 03 00
	00		 sub	 esp, 832		; 00000340H
  00069	a1 00 00 00 00	 mov	 eax, DWORD PTR ___security_cookie
  0006e	33 c5		 xor	 eax, ebp
  00070	89 45 fc	 mov	 DWORD PTR __$ArrayPad$[ebp], eax
  00073	53		 push	 ebx
  00074	56		 push	 esi
  00075	57		 push	 edi
  00076	89 4d f8	 mov	 DWORD PTR _this$[ebp], ecx

; 59   : //#if(FIX_REF_ON_REF == TRUE)
; 60   : //	if(byReflect)
; 61   : //	{
; 62   : //		LogAddC(2, "[%s] vs [%s] :: [%d][%d]", lpObj->Name, lpTargetObj->Name, byReflect, lpObj->FixRefOnRef);
; 63   : //		if(lpObj->FixRefOnRef == true)
; 64   : //		{
; 65   : //			return false;
; 66   : //		}
; 67   : //		lpObj->FixRefOnRef = true;
; 68   : //	}
; 69   : //	else
; 70   : //	{
; 71   : //		lpObj->FixRefOnRef = false;
; 72   : //	}
; 73   : //#endif
; 74   : 
; 75   : #if(FIX_REF2==TRUE)
; 76   : 	//if(byReflect)
; 77   : 	//{
; 78   : 	//	if(lpObj->FixRef2 == true)
; 79   : 	//	{
; 80   : 	//		return false;
; 81   : 	//	}
; 82   : 	//}
; 83   : #endif
; 84   : 
; 85   : 	int skillSuccess = 0;

  00079	c7 45 f4 00 00
	00 00		 mov	 DWORD PTR _skillSuccess$[ebp], 0

; 86   : 	LPOBJ lpCallObj;
; 87   : 	LPOBJ lpCallTargetObj;
; 88   : 	BYTE MsgDamage = 0;

  00080	c6 45 eb 00	 mov	 BYTE PTR _MsgDamage$[ebp], 0

; 89   : 	int ManaChange = 0;

  00084	c7 45 e4 00 00
	00 00		 mov	 DWORD PTR _ManaChange$[ebp], 0

; 90   : 	int iTempShieldDamage = 0;

  0008b	c7 45 e0 00 00
	00 00		 mov	 DWORD PTR _iTempShieldDamage$[ebp], 0

; 91   : 	int iTotalShieldDamage = 0;

  00092	c7 45 dc 00 00
	00 00		 mov	 DWORD PTR _iTotalShieldDamage$[ebp], 0

; 92   : 
; 93   : 	if ( (lpTargetObj->Authority&2) == 2 )

  00099	8b 45 0c	 mov	 eax, DWORD PTR _lpTargetObj$[ebp]
  0009c	8b 88 0c 02 00
	00		 mov	 ecx, DWORD PTR [eax+524]
  000a2	83 e1 02	 and	 ecx, 2
  000a5	74 07		 je	 SHORT $LN740@Attack

; 94   : 	{
; 95   : 		return FALSE;

  000a7	33 c0		 xor	 eax, eax
  000a9	e9 49 69 00 00	 jmp	 $LN741@Attack
$LN740@Attack:

; 96   : 	}
; 97   : 
; 98   : 	if ( (lpObj->Authority&2) == 2 ) //s4 add-on

  000ae	8b 45 08	 mov	 eax, DWORD PTR _lpObj$[ebp]
  000b1	8b 88 0c 02 00
	00		 mov	 ecx, DWORD PTR [eax+524]
  000b7	83 e1 02	 and	 ecx, 2
  000ba	74 07		 je	 SHORT $LN739@Attack

; 99   : 	{
; 100  : 		return FALSE;

  000bc	33 c0		 xor	 eax, eax
  000be	e9 34 69 00 00	 jmp	 $LN741@Attack
$LN739@Attack:

; 101  : 	}
; 102  : 
; 103  : 	if ( (lpObj->Authority&32) == 32 || (lpTargetObj->Authority&32) == 32) //s4 add-on

  000c3	8b 45 08	 mov	 eax, DWORD PTR _lpObj$[ebp]
  000c6	8b 88 0c 02 00
	00		 mov	 ecx, DWORD PTR [eax+524]
  000cc	83 e1 20	 and	 ecx, 32			; 00000020H
  000cf	75 0e		 jne	 SHORT $LN737@Attack
  000d1	8b 45 0c	 mov	 eax, DWORD PTR _lpTargetObj$[ebp]
  000d4	8b 88 0c 02 00
	00		 mov	 ecx, DWORD PTR [eax+524]
  000da	83 e1 20	 and	 ecx, 32			; 00000020H
  000dd	74 1d		 je	 SHORT $LN736@Attack
$LN737@Attack:

; 104  : 	{
; 105  : 		if(gObjSearchActiveEffect(lpObj, AT_INVISIBILITY) == 1)

  000df	6a 12		 push	 18			; 00000012H
  000e1	8b 45 08	 mov	 eax, DWORD PTR _lpObj$[ebp]
  000e4	50		 push	 eax
  000e5	e8 00 00 00 00	 call	 ?gObjSearchActiveEffect@@YAEPAUOBJECTSTRUCT@@H@Z ; gObjSearchActiveEffect
  000ea	83 c4 08	 add	 esp, 8
  000ed	0f b6 c8	 movzx	 ecx, al
  000f0	83 f9 01	 cmp	 ecx, 1
  000f3	75 07		 jne	 SHORT $LN736@Attack

; 106  : 		{
; 107  : 			return FALSE;

  000f5	33 c0		 xor	 eax, eax
  000f7	e9 fb 68 00 00	 jmp	 $LN741@Attack
$LN736@Attack:

; 108  : 		}
; 109  : 	}
; 110  : 
; 111  : 	if(gGENS)	//-> Need check

  000fc	83 3d 00 00 00
	00 00		 cmp	 DWORD PTR ?gGENS@@3HA, 0 ; gGENS
  00103	74 65		 je	 SHORT $LN732@Attack

; 112  : 	{
; 113  : 		//if( lpObj->Type == OBJ_USER && lpTargetObj->Type == OBJ_USER && !gGensSystem.IsPkEnable(lpObj, lpTargetObj) )
; 114  : 		//{
; 115  : 		//	return false;
; 116  : 		//}
; 117  : 
; 118  : 	#if(DEBUG_CODE)
; 119  : 		LogAddC(2,"[DEBUG_GENS] %d %d",gGensSystem.GetGensInfluence(lpObj),gGensSystem.GetGensInfluence(lpTargetObj));
; 120  : 	#endif
; 121  : 
; 122  : 		if( lpObj->Type == OBJ_USER && lpTargetObj->Type == OBJ_USER )

  00105	8b 45 08	 mov	 eax, DWORD PTR _lpObj$[ebp]
  00108	0f b7 48 68	 movzx	 ecx, WORD PTR [eax+104]
  0010c	83 f9 01	 cmp	 ecx, 1
  0010f	75 59		 jne	 SHORT $LN732@Attack
  00111	8b 45 0c	 mov	 eax, DWORD PTR _lpTargetObj$[ebp]
  00114	0f b7 48 68	 movzx	 ecx, WORD PTR [eax+104]
  00118	83 f9 01	 cmp	 ecx, 1
  0011b	75 4d		 jne	 SHORT $LN732@Attack

; 123  : 		{
; 124  : 			if( gGensSystem.IsMapBattleZone(lpObj->MapNumber) )

  0011d	8b 45 08	 mov	 eax, DWORD PTR _lpObj$[ebp]
  00120	0f b6 88 49 01
	00 00		 movzx	 ecx, BYTE PTR [eax+329]
  00127	51		 push	 ecx
  00128	b9 00 00 00 00	 mov	 ecx, OFFSET ?gGensSystem@@3VGensSystem@@A ; gGensSystem
  0012d	e8 00 00 00 00	 call	 ?IsMapBattleZone@GensSystem@@QAEHH@Z ; GensSystem::IsMapBattleZone
  00132	85 c0		 test	 eax, eax
  00134	74 34		 je	 SHORT $LN732@Attack

; 125  : 			{
; 126  : 				if( gGensSystem.GetGensInfluence(lpObj) == gGensSystem.GetGensInfluence(lpTargetObj) && !gGensSystem.AllowPK )

  00136	8b 45 08	 mov	 eax, DWORD PTR _lpObj$[ebp]
  00139	50		 push	 eax
  0013a	b9 00 00 00 00	 mov	 ecx, OFFSET ?gGensSystem@@3VGensSystem@@A ; gGensSystem
  0013f	e8 00 00 00 00	 call	 ?GetGensInfluence@GensSystem@@QAEHPAUOBJECTSTRUCT@@@Z ; GensSystem::GetGensInfluence
  00144	8b f0		 mov	 esi, eax
  00146	8b 4d 0c	 mov	 ecx, DWORD PTR _lpTargetObj$[ebp]
  00149	51		 push	 ecx
  0014a	b9 00 00 00 00	 mov	 ecx, OFFSET ?gGensSystem@@3VGensSystem@@A ; gGensSystem
  0014f	e8 00 00 00 00	 call	 ?GetGensInfluence@GensSystem@@QAEHPAUOBJECTSTRUCT@@@Z ; GensSystem::GetGensInfluence
  00154	3b f0		 cmp	 esi, eax
  00156	75 12		 jne	 SHORT $LN732@Attack
  00158	0f b6 05 b0 00
	00 00		 movzx	 eax, BYTE PTR ?gGensSystem@@3VGensSystem@@A+176
  0015f	85 c0		 test	 eax, eax
  00161	75 07		 jne	 SHORT $LN732@Attack

; 127  : 				{
; 128  : 					return false;

  00163	33 c0		 xor	 eax, eax
  00165	e9 8d 68 00 00	 jmp	 $LN741@Attack
$LN732@Attack:

; 129  : 				}
; 130  : 			}
; 131  : 		}
; 132  : 	}
; 133  : 
; 134  : 	if ( lpObj->MapNumber != lpTargetObj->MapNumber )

  0016a	8b 45 08	 mov	 eax, DWORD PTR _lpObj$[ebp]
  0016d	0f b6 88 49 01
	00 00		 movzx	 ecx, BYTE PTR [eax+329]
  00174	8b 55 0c	 mov	 edx, DWORD PTR _lpTargetObj$[ebp]
  00177	0f b6 82 49 01
	00 00		 movzx	 eax, BYTE PTR [edx+329]
  0017e	3b c8		 cmp	 ecx, eax
  00180	74 07		 je	 SHORT $LN731@Attack

; 135  : 	{
; 136  : 		return FALSE;

  00182	33 c0		 xor	 eax, eax
  00184	e9 6e 68 00 00	 jmp	 $LN741@Attack
$LN731@Attack:

; 137  : 	}
; 138  : 
; 139  : #if(EVENT_TEAM_VS_TEAM)
; 140  : 	if(!g_TeamVsTeam.AttackCheck(lpObj->m_Index, lpTargetObj->m_Index))

  00189	8b 45 0c	 mov	 eax, DWORD PTR _lpTargetObj$[ebp]
  0018c	8b 08		 mov	 ecx, DWORD PTR [eax]
  0018e	51		 push	 ecx
  0018f	8b 55 08	 mov	 edx, DWORD PTR _lpObj$[ebp]
  00192	8b 02		 mov	 eax, DWORD PTR [edx]
  00194	50		 push	 eax
  00195	b9 00 00 00 00	 mov	 ecx, OFFSET ?g_TeamVsTeam@@3VCTeamVsTeam@@A ; g_TeamVsTeam
  0019a	e8 00 00 00 00	 call	 ?AttackCheck@CTeamVsTeam@@QAE_NHH@Z ; CTeamVsTeam::AttackCheck
  0019f	0f b6 c8	 movzx	 ecx, al
  001a2	85 c9		 test	 ecx, ecx
  001a4	75 07		 jne	 SHORT $LN730@Attack

; 141  : 	{
; 142  : 		return false;

  001a6	33 c0		 xor	 eax, eax
  001a8	e9 4a 68 00 00	 jmp	 $LN741@Attack
$LN730@Attack:

; 143  : 	}
; 144  : #endif
; 145  : 
; 146  : #if(DEV_COMBO_CUSTOM==TRUE)
; 147  : 	if(g_ExLicense.user.ComboCustom)

  001ad	0f b6 05 d8 00
	00 00		 movzx	 eax, BYTE PTR ?g_ExLicense@@3VCExLicense@@A+216
  001b4	85 c0		 test	 eax, eax
  001b6	74 13		 je	 SHORT $LN728@Attack

; 148  : 	{
; 149  : 		if(!bCombo)

  001b8	83 7d 20 00	 cmp	 DWORD PTR _bCombo$[ebp], 0
  001bc	75 0d		 jne	 SHORT $LN728@Attack

; 150  : 		{
; 151  : 			bCombo = lpObj->NewCombo;

  001be	8b 45 08	 mov	 eax, DWORD PTR _lpObj$[ebp]
  001c1	0f b6 88 80 28
	00 00		 movzx	 ecx, BYTE PTR [eax+10368]
  001c8	89 4d 20	 mov	 DWORD PTR _bCombo$[ebp], ecx
$LN728@Attack:

; 152  : 		}
; 153  : 	}
; 154  : #endif
; 155  : 
; 156  : 	if(g_ExLicense.user.TvTEvent)

  001cb	0f b6 05 cd 00
	00 00		 movzx	 eax, BYTE PTR ?g_ExLicense@@3VCExLicense@@A+205
  001d2	85 c0		 test	 eax, eax
  001d4	74 20		 je	 SHORT $LN726@Attack

; 157  : 	{
; 158  : 		if(!TvT.AllyKillCheck(lpObj,lpTargetObj))return false;

  001d6	8b 45 0c	 mov	 eax, DWORD PTR _lpTargetObj$[ebp]
  001d9	50		 push	 eax
  001da	8b 4d 08	 mov	 ecx, DWORD PTR _lpObj$[ebp]
  001dd	51		 push	 ecx
  001de	b9 00 00 00 00	 mov	 ecx, OFFSET ?TvT@@3VcTvTEvent@@A ; TvT
  001e3	e8 00 00 00 00	 call	 ?AllyKillCheck@cTvTEvent@@QAE_NPAUOBJECTSTRUCT@@0@Z ; cTvTEvent::AllyKillCheck
  001e8	0f b6 d0	 movzx	 edx, al
  001eb	85 d2		 test	 edx, edx
  001ed	75 07		 jne	 SHORT $LN726@Attack
  001ef	33 c0		 xor	 eax, eax
  001f1	e9 01 68 00 00	 jmp	 $LN741@Attack
$LN726@Attack:

; 159  : 	}
; 160  : 
; 161  : 	if(!PvPMapSystem.CheckAttackMap(lpObj,lpTargetObj)) return false;

  001f6	8b 45 0c	 mov	 eax, DWORD PTR _lpTargetObj$[ebp]
  001f9	50		 push	 eax
  001fa	8b 4d 08	 mov	 ecx, DWORD PTR _lpObj$[ebp]
  001fd	51		 push	 ecx
  001fe	b9 00 00 00 00	 mov	 ecx, OFFSET ?PvPMapSystem@@3VcPvPMapSystem@@A ; PvPMapSystem
  00203	e8 00 00 00 00	 call	 ?CheckAttackMap@cPvPMapSystem@@QAE_NPAUOBJECTSTRUCT@@0@Z ; cPvPMapSystem::CheckAttackMap
  00208	0f b6 d0	 movzx	 edx, al
  0020b	85 d2		 test	 edx, edx
  0020d	75 07		 jne	 SHORT $LN725@Attack
  0020f	33 c0		 xor	 eax, eax
  00211	e9 e1 67 00 00	 jmp	 $LN741@Attack
$LN725@Attack:

; 162  : 
; 163  : #if(EVENT_DUNGEON_SIEGE)
; 164  : 	if(!g_DungeonSiege.PlayerWaitAttack(lpObj->m_Index, lpTargetObj->m_Index))

  00216	8b 45 0c	 mov	 eax, DWORD PTR _lpTargetObj$[ebp]
  00219	8b 08		 mov	 ecx, DWORD PTR [eax]
  0021b	51		 push	 ecx
  0021c	8b 55 08	 mov	 edx, DWORD PTR _lpObj$[ebp]
  0021f	8b 02		 mov	 eax, DWORD PTR [edx]
  00221	50		 push	 eax
  00222	b9 00 00 00 00	 mov	 ecx, OFFSET ?g_DungeonSiege@@3VCDungeonSiege@@A ; g_DungeonSiege
  00227	e8 00 00 00 00	 call	 ?PlayerWaitAttack@CDungeonSiege@@QAE_NHH@Z ; CDungeonSiege::PlayerWaitAttack
  0022c	0f b6 c8	 movzx	 ecx, al
  0022f	85 c9		 test	 ecx, ecx
  00231	75 07		 jne	 SHORT $LN724@Attack

; 165  : 	{
; 166  : 		return false;

  00233	33 c0		 xor	 eax, eax
  00235	e9 bd 67 00 00	 jmp	 $LN741@Attack
$LN724@Attack:

; 167  : 	}
; 168  : #endif
; 169  : 
; 170  : #ifdef IMPERIAL_CONFLICT_OLD
; 171  : 	if(IMPERIAL_MAP_RANGE(lpObj->MapNumber))	//Season 5 ImperialFort

  0023a	8b 45 08	 mov	 eax, DWORD PTR _lpObj$[ebp]
  0023d	0f b6 88 49 01
	00 00		 movzx	 ecx, BYTE PTR [eax+329]
  00244	83 f9 45	 cmp	 ecx, 69			; 00000045H
  00247	7d 0c		 jge	 SHORT $LN743@Attack
  00249	c7 85 c8 fc ff
	ff 00 00 00 00	 mov	 DWORD PTR tv178[ebp], 0
  00253	eb 18		 jmp	 SHORT $LN744@Attack
$LN743@Attack:
  00255	8b 55 08	 mov	 edx, DWORD PTR _lpObj$[ebp]
  00258	0f b6 82 49 01
	00 00		 movzx	 eax, BYTE PTR [edx+329]
  0025f	33 c9		 xor	 ecx, ecx
  00261	83 f8 48	 cmp	 eax, 72			; 00000048H
  00264	0f 9e c1	 setle	 cl
  00267	89 8d c8 fc ff
	ff		 mov	 DWORD PTR tv178[ebp], ecx
$LN744@Attack:
  0026d	83 bd c8 fc ff
	ff 00		 cmp	 DWORD PTR tv178[ebp], 0
  00274	74 23		 je	 SHORT $LN722@Attack

; 172  : 	{
; 173  : 		if(!g_Imperial.GateAttack(lpTargetObj->Class)) 

  00276	8b 45 0c	 mov	 eax, DWORD PTR _lpTargetObj$[ebp]
  00279	0f b7 88 b8 00
	00 00		 movzx	 ecx, WORD PTR [eax+184]
  00280	51		 push	 ecx
  00281	b9 00 00 00 00	 mov	 ecx, OFFSET ?g_Imperial@@3VCImperial@@A ; g_Imperial
  00286	e8 00 00 00 00	 call	 ?GateAttack@CImperial@@QAE_NH@Z ; CImperial::GateAttack
  0028b	0f b6 d0	 movzx	 edx, al
  0028e	85 d2		 test	 edx, edx
  00290	75 07		 jne	 SHORT $LN722@Attack

; 174  : 		{	
; 175  : 			return false;

  00292	33 c0		 xor	 eax, eax
  00294	e9 5e 67 00 00	 jmp	 $LN741@Attack
$LN722@Attack:

; 176  : 		}
; 177  : 	}
; 178  : #endif
; 179  : //#if(GS_CASTLE==1)
; 180  : 	if( g_Crywolf.GetCrywolfState() == 3 || g_Crywolf.GetCrywolfState() == 5 )

  00299	b9 00 00 00 00	 mov	 ecx, OFFSET ?g_Crywolf@@3VCCrywolf@@A ; g_Crywolf
  0029e	e8 00 00 00 00	 call	 ?GetCrywolfState@CCrywolf@@QAEHXZ ; CCrywolf::GetCrywolfState
  002a3	83 f8 03	 cmp	 eax, 3
  002a6	74 0f		 je	 SHORT $LN720@Attack
  002a8	b9 00 00 00 00	 mov	 ecx, OFFSET ?g_Crywolf@@3VCCrywolf@@A ; g_Crywolf
  002ad	e8 00 00 00 00	 call	 ?GetCrywolfState@CCrywolf@@QAEHXZ ; CCrywolf::GetCrywolfState
  002b2	83 f8 05	 cmp	 eax, 5
  002b5	75 29		 jne	 SHORT $LN718@Attack
$LN720@Attack:

; 181  : 	{
; 182  : 		if(CRYWOLF_MAP_RANGE(lpTargetObj->MapNumber))

  002b7	8b 45 0c	 mov	 eax, DWORD PTR _lpTargetObj$[ebp]
  002ba	0f b6 88 49 01
	00 00		 movzx	 ecx, BYTE PTR [eax+329]
  002c1	33 d2		 xor	 edx, edx
  002c3	83 f9 22	 cmp	 ecx, 34			; 00000022H
  002c6	0f 94 c2	 sete	 dl
  002c9	85 d2		 test	 edx, edx
  002cb	74 13		 je	 SHORT $LN718@Attack

; 183  : 		{
; 184  : 			if(lpTargetObj->Type == OBJ_MONSTER)

  002cd	8b 45 0c	 mov	 eax, DWORD PTR _lpTargetObj$[ebp]
  002d0	0f b7 48 68	 movzx	 ecx, WORD PTR [eax+104]
  002d4	83 f9 02	 cmp	 ecx, 2
  002d7	75 07		 jne	 SHORT $LN718@Attack

; 185  : 				return FALSE;

  002d9	33 c0		 xor	 eax, eax
  002db	e9 17 67 00 00	 jmp	 $LN741@Attack
$LN718@Attack:

; 186  : 		}
; 187  : 	}
; 188  : //#endif
; 189  : 
; 190  : #if(ADD_CTRL_KEY)
; 191  : 	if(!lpObj->CtrlKey)

  002e0	8b 45 08	 mov	 eax, DWORD PTR _lpObj$[ebp]
  002e3	0f b6 88 1c 2b
	00 00		 movzx	 ecx, BYTE PTR [eax+11036]
  002ea	85 c9		 test	 ecx, ecx
  002ec	75 69		 jne	 SHORT $LN713@Attack

; 192  : 	{
; 193  : 		if ( g_CastleSiege.GetCastleState() == CASTLESIEGE_STATE_STARTSIEGE)

  002ee	b9 00 00 00 00	 mov	 ecx, OFFSET ?g_CastleSiege@@3VCCastleSiege@@A ; g_CastleSiege
  002f3	e8 00 00 00 00	 call	 ?GetCastleState@CCastleSiege@@QAEHXZ ; CCastleSiege::GetCastleState
  002f8	83 f8 07	 cmp	 eax, 7
  002fb	75 5a		 jne	 SHORT $LN713@Attack

; 194  : 		{
; 195  : 			if ( lpObj->Type == OBJ_USER && lpTargetObj->Type == OBJ_USER )

  002fd	8b 45 08	 mov	 eax, DWORD PTR _lpObj$[ebp]
  00300	0f b7 48 68	 movzx	 ecx, WORD PTR [eax+104]
  00304	83 f9 01	 cmp	 ecx, 1
  00307	75 4e		 jne	 SHORT $LN713@Attack
  00309	8b 45 0c	 mov	 eax, DWORD PTR _lpTargetObj$[ebp]
  0030c	0f b7 48 68	 movzx	 ecx, WORD PTR [eax+104]
  00310	83 f9 01	 cmp	 ecx, 1
  00313	75 42		 jne	 SHORT $LN713@Attack

; 196  : 			{
; 197  : 				if ( lpObj->MapNumber == MAP_INDEX_CASTLESIEGE && lpTargetObj->MapNumber == MAP_INDEX_CASTLESIEGE )

  00315	8b 45 08	 mov	 eax, DWORD PTR _lpObj$[ebp]
  00318	0f b6 88 49 01
	00 00		 movzx	 ecx, BYTE PTR [eax+329]
  0031f	83 f9 1e	 cmp	 ecx, 30			; 0000001eH
  00322	75 33		 jne	 SHORT $LN713@Attack
  00324	8b 45 0c	 mov	 eax, DWORD PTR _lpTargetObj$[ebp]
  00327	0f b6 88 49 01
	00 00		 movzx	 ecx, BYTE PTR [eax+329]
  0032e	83 f9 1e	 cmp	 ecx, 30			; 0000001eH
  00331	75 24		 jne	 SHORT $LN713@Attack

; 198  : 				{
; 199  : 					if(g_ExUser.CheckAlliancePlayer(lpObj->m_Index, lpTargetObj->m_Index))

  00333	8b 45 0c	 mov	 eax, DWORD PTR _lpTargetObj$[ebp]
  00336	8b 08		 mov	 ecx, DWORD PTR [eax]
  00338	51		 push	 ecx
  00339	8b 55 08	 mov	 edx, DWORD PTR _lpObj$[ebp]
  0033c	8b 02		 mov	 eax, DWORD PTR [edx]
  0033e	50		 push	 eax
  0033f	b9 00 00 00 00	 mov	 ecx, OFFSET ?g_ExUser@@3VÑExUser@@A ; g_ExUser
  00344	e8 00 00 00 00	 call	 ?CheckAlliancePlayer@ÑExUser@@QAE_NHH@Z ; ÑExUser::CheckAlliancePlayer
  00349	0f b6 c8	 movzx	 ecx, al
  0034c	85 c9		 test	 ecx, ecx
  0034e	74 07		 je	 SHORT $LN713@Attack

; 200  : 					{
; 201  : 						return false;

  00350	33 c0		 xor	 eax, eax
  00352	e9 a0 66 00 00	 jmp	 $LN741@Attack
$LN713@Attack:

; 202  : 					}
; 203  : 				}
; 204  : 			}
; 205  : 		}
; 206  : 	}
; 207  : #endif
; 208  : 
; 209  : 	if ( g_iUseCharacterAutoRecuperationSystem && lpObj->Level <= g_iCharacterRecuperationMaxLevel )

  00357	83 3d 00 00 00
	00 00		 cmp	 DWORD PTR ?g_iUseCharacterAutoRecuperationSystem@@3HA, 0 ; g_iUseCharacterAutoRecuperationSystem
  0035e	74 6c		 je	 SHORT $LN708@Attack
  00360	8b 45 08	 mov	 eax, DWORD PTR _lpObj$[ebp]
  00363	0f bf 88 be 00
	00 00		 movsx	 ecx, WORD PTR [eax+190]
  0036a	3b 0d 00 00 00
	00		 cmp	 ecx, DWORD PTR ?g_iCharacterRecuperationMaxLevel@@3HA ; g_iCharacterRecuperationMaxLevel
  00370	7f 5a		 jg	 SHORT $LN708@Attack

; 210  : 	{
; 211  : 		if ( lpObj->Type == OBJ_USER )

  00372	8b 45 08	 mov	 eax, DWORD PTR _lpObj$[ebp]
  00375	0f b7 48 68	 movzx	 ecx, WORD PTR [eax+104]
  00379	83 f9 01	 cmp	 ecx, 1
  0037c	75 21		 jne	 SHORT $LN710@Attack

; 212  : 		{
; 213  : 			if ( lpObj->Level <= g_iCharacterRecuperationMaxLevel )

  0037e	8b 45 08	 mov	 eax, DWORD PTR _lpObj$[ebp]
  00381	0f bf 88 be 00
	00 00		 movsx	 ecx, WORD PTR [eax+190]
  00388	3b 0d 00 00 00
	00		 cmp	 ecx, DWORD PTR ?g_iCharacterRecuperationMaxLevel@@3HA ; g_iCharacterRecuperationMaxLevel
  0038e	7f 0f		 jg	 SHORT $LN710@Attack

; 214  : 			{
; 215  : 				lpObj->m_iAutoRecuperationTime = GetTickCount();

  00390	ff 15 00 00 00
	00		 call	 DWORD PTR __imp__GetTickCount@0
  00396	8b 4d 08	 mov	 ecx, DWORD PTR _lpObj$[ebp]
  00399	89 81 cc 1f 00
	00		 mov	 DWORD PTR [ecx+8140], eax
$LN710@Attack:

; 216  : 			}
; 217  : 		}
; 218  : 
; 219  : 		if ( lpTargetObj->Type == OBJ_USER )

  0039f	8b 45 0c	 mov	 eax, DWORD PTR _lpTargetObj$[ebp]
  003a2	0f b7 48 68	 movzx	 ecx, WORD PTR [eax+104]
  003a6	83 f9 01	 cmp	 ecx, 1
  003a9	75 21		 jne	 SHORT $LN708@Attack

; 220  : 		{
; 221  : 			if ( lpTargetObj->Level <= g_iCharacterRecuperationMaxLevel )

  003ab	8b 45 0c	 mov	 eax, DWORD PTR _lpTargetObj$[ebp]
  003ae	0f bf 88 be 00
	00 00		 movsx	 ecx, WORD PTR [eax+190]
  003b5	3b 0d 00 00 00
	00		 cmp	 ecx, DWORD PTR ?g_iCharacterRecuperationMaxLevel@@3HA ; g_iCharacterRecuperationMaxLevel
  003bb	7f 0f		 jg	 SHORT $LN708@Attack

; 222  : 			{
; 223  : 				lpTargetObj->m_iAutoRecuperationTime = GetTickCount();

  003bd	ff 15 00 00 00
	00		 call	 DWORD PTR __imp__GetTickCount@0
  003c3	8b 4d 0c	 mov	 ecx, DWORD PTR _lpTargetObj$[ebp]
  003c6	89 81 cc 1f 00
	00		 mov	 DWORD PTR [ecx+8140], eax
$LN708@Attack:

; 224  : 			}
; 225  : 		}
; 226  : 	}
; 227  : 
; 228  : 	if ( lpObj->Type == OBJ_USER )

  003cc	8b 45 08	 mov	 eax, DWORD PTR _lpObj$[ebp]
  003cf	0f b7 48 68	 movzx	 ecx, WORD PTR [eax+104]
  003d3	83 f9 01	 cmp	 ecx, 1
  003d6	75 0f		 jne	 SHORT $LN707@Attack

; 229  : 	{
; 230  : 		lpObj->dwShieldAutoRefillTimer = GetTickCount();

  003d8	ff 15 00 00 00
	00		 call	 DWORD PTR __imp__GetTickCount@0
  003de	8b 4d 08	 mov	 ecx, DWORD PTR _lpObj$[ebp]
  003e1	89 81 6c 01 00
	00		 mov	 DWORD PTR [ecx+364], eax
$LN707@Attack:

; 231  : 	}
; 232  : 
; 233  : 	if ( lpTargetObj->Type == OBJ_USER )

  003e7	8b 45 0c	 mov	 eax, DWORD PTR _lpTargetObj$[ebp]
  003ea	0f b7 48 68	 movzx	 ecx, WORD PTR [eax+104]
  003ee	83 f9 01	 cmp	 ecx, 1
  003f1	75 0f		 jne	 SHORT $LN706@Attack

; 234  : 	{
; 235  : 		lpTargetObj->dwShieldAutoRefillTimer = GetTickCount();

  003f3	ff 15 00 00 00
	00		 call	 DWORD PTR __imp__GetTickCount@0
  003f9	8b 4d 0c	 mov	 ecx, DWORD PTR _lpTargetObj$[ebp]
  003fc	89 81 6c 01 00
	00		 mov	 DWORD PTR [ecx+364], eax
$LN706@Attack:

; 236  : 	}
; 237  : 
; 238  : 	int skill = 0;

  00402	c7 45 d8 00 00
	00 00		 mov	 DWORD PTR _skill$[ebp], 0

; 239  : 	
; 240  : 	if ( lpMagic )

  00409	83 7d 10 00	 cmp	 DWORD PTR _lpMagic$[ebp], 0
  0040d	74 09		 je	 SHORT $LN705@Attack

; 241  : 	{
; 242  : 		skill = lpMagic->m_Skill;

  0040f	8b 45 10	 mov	 eax, DWORD PTR _lpMagic$[ebp]
  00412	8b 48 08	 mov	 ecx, DWORD PTR [eax+8]
  00415	89 4d d8	 mov	 DWORD PTR _skill$[ebp], ecx
$LN705@Attack:

; 243  : 	}
; 244  : 
; 245  : #ifdef DEBUG_CODE
; 246  : 	LogAddC(3,"Test skill: %d",skill);
; 247  : #endif
; 248  : 
; 249  : 	if(g_ExLicense.CheckUser(eExUB::SILVER1) || g_ExLicense.CheckUser(eExUB::SILVER2))

  00418	6a 07		 push	 7
  0041a	b9 00 00 00 00	 mov	 ecx, OFFSET ?g_ExLicense@@3VCExLicense@@A ; g_ExLicense
  0041f	e8 00 00 00 00	 call	 ?CheckUser@CExLicense@@QAE_NH@Z ; CExLicense::CheckUser
  00424	0f b6 c0	 movzx	 eax, al
  00427	85 c0		 test	 eax, eax
  00429	75 13		 jne	 SHORT $LN703@Attack
  0042b	6a 08		 push	 8
  0042d	b9 00 00 00 00	 mov	 ecx, OFFSET ?g_ExLicense@@3VCExLicense@@A ; g_ExLicense
  00432	e8 00 00 00 00	 call	 ?CheckUser@CExLicense@@QAE_NH@Z ; CExLicense::CheckUser
  00437	0f b6 c0	 movzx	 eax, al
  0043a	85 c0		 test	 eax, eax
  0043c	74 79		 je	 SHORT $LN701@Attack
$LN703@Attack:

; 250  : 	{
; 251  : 		if(BC_MAP_RANGE(lpObj->MapNumber) == TRUE)

  0043e	8b 45 08	 mov	 eax, DWORD PTR _lpObj$[ebp]
  00441	0f b6 88 49 01
	00 00		 movzx	 ecx, BYTE PTR [eax+329]
  00448	83 f9 34	 cmp	 ecx, 52			; 00000034H
  0044b	75 0c		 jne	 SHORT $LN747@Attack
  0044d	c7 85 c8 fc ff
	ff 01 00 00 00	 mov	 DWORD PTR tv278[ebp], 1
  00457	eb 3f		 jmp	 SHORT $LN748@Attack
$LN747@Attack:
  00459	8b 55 08	 mov	 edx, DWORD PTR _lpObj$[ebp]
  0045c	0f b6 82 49 01
	00 00		 movzx	 eax, BYTE PTR [edx+329]
  00463	83 f8 0b	 cmp	 eax, 11			; 0000000bH
  00466	7d 0c		 jge	 SHORT $LN745@Attack
  00468	c7 85 c4 fc ff
	ff 00 00 00 00	 mov	 DWORD PTR tv277[ebp], 0
  00472	eb 18		 jmp	 SHORT $LN746@Attack
$LN745@Attack:
  00474	8b 4d 08	 mov	 ecx, DWORD PTR _lpObj$[ebp]
  00477	0f b6 91 49 01
	00 00		 movzx	 edx, BYTE PTR [ecx+329]
  0047e	33 c0		 xor	 eax, eax
  00480	83 fa 11	 cmp	 edx, 17			; 00000011H
  00483	0f 9e c0	 setle	 al
  00486	89 85 c4 fc ff
	ff		 mov	 DWORD PTR tv277[ebp], eax
$LN746@Attack:
  0048c	8b 8d c4 fc ff
	ff		 mov	 ecx, DWORD PTR tv277[ebp]
  00492	89 8d c8 fc ff
	ff		 mov	 DWORD PTR tv278[ebp], ecx
$LN748@Attack:
  00498	83 bd c8 fc ff
	ff 01		 cmp	 DWORD PTR tv278[ebp], 1
  0049f	75 16		 jne	 SHORT $LN701@Attack

; 252  : 		{
; 253  : 			if ( skill == 52 || skill == 238 )

  004a1	83 7d d8 34	 cmp	 DWORD PTR _skill$[ebp], 52 ; 00000034H
  004a5	74 09		 je	 SHORT $LN700@Attack
  004a7	81 7d d8 ee 00
	00 00		 cmp	 DWORD PTR _skill$[ebp], 238 ; 000000eeH
  004ae	75 07		 jne	 SHORT $LN701@Attack
$LN700@Attack:

; 254  : 			{
; 255  : 				return false;

  004b0	33 c0		 xor	 eax, eax
  004b2	e9 40 65 00 00	 jmp	 $LN741@Attack
$LN701@Attack:

; 256  : 			}
; 257  : 		}
; 258  : 	}
; 259  : 
; 260  : 	if ( lpObj->Class == 77 )

  004b7	8b 45 08	 mov	 eax, DWORD PTR _lpObj$[ebp]
  004ba	0f b7 88 b8 00
	00 00		 movzx	 ecx, WORD PTR [eax+184]
  004c1	83 f9 4d	 cmp	 ecx, 77			; 0000004dH
  004c4	75 19		 jne	 SHORT $LN698@Attack

; 261  : 	{
; 262  : 		if ( lpObj->m_SkyBossMonSheild && skill == 17 )

  004c6	8b 45 08	 mov	 eax, DWORD PTR _lpObj$[ebp]
  004c9	83 b8 c4 10 00
	00 00		 cmp	 DWORD PTR [eax+4292], 0
  004d0	74 0d		 je	 SHORT $LN698@Attack
  004d2	83 7d d8 11	 cmp	 DWORD PTR _skill$[ebp], 17 ; 00000011H
  004d6	75 07		 jne	 SHORT $LN698@Attack

; 263  : 		{
; 264  : 			skill = 3;

  004d8	c7 45 d8 03 00
	00 00		 mov	 DWORD PTR _skill$[ebp], 3
$LN698@Attack:

; 265  : 		}
; 266  : 	}
; 267  : 
; 268  : 	skillSuccess = TRUE; //28

  004df	c7 45 f4 01 00
	00 00		 mov	 DWORD PTR _skillSuccess$[ebp], 1

; 269  : 
; 270  : 	if ( lpObj->GuildNumber > 0 )

  004e6	8b 45 08	 mov	 eax, DWORD PTR _lpObj$[ebp]
  004e9	83 b8 34 04 00
	00 00		 cmp	 DWORD PTR [eax+1076], 0
  004f0	0f 8e 8b 00 00
	00		 jle	 $LN690@Attack

; 271  : 	{
; 272  : 		if ( lpObj->lpGuild )

  004f6	8b 45 08	 mov	 eax, DWORD PTR _lpObj$[ebp]
  004f9	83 b8 38 04 00
	00 00		 cmp	 DWORD PTR [eax+1080], 0
  00500	74 7f		 je	 SHORT $LN690@Attack

; 273  : 		{
; 274  : 			if ( lpObj->lpGuild->WarState )

  00502	8b 45 08	 mov	 eax, DWORD PTR _lpObj$[ebp]
  00505	8b 88 38 04 00
	00		 mov	 ecx, DWORD PTR [eax+1080]
  0050b	0f b6 91 91 05
	00 00		 movzx	 edx, BYTE PTR [ecx+1425]
  00512	85 d2		 test	 edx, edx
  00514	74 2d		 je	 SHORT $LN693@Attack

; 275  : 			{
; 276  : 				if ( lpObj->lpGuild->WarType == 1 )

  00516	8b 45 08	 mov	 eax, DWORD PTR _lpObj$[ebp]
  00519	8b 88 38 04 00
	00		 mov	 ecx, DWORD PTR [eax+1080]
  0051f	0f b6 91 92 05
	00 00		 movzx	 edx, BYTE PTR [ecx+1426]
  00526	83 fa 01	 cmp	 edx, 1
  00529	75 18		 jne	 SHORT $LN693@Attack

; 277  : 				{
; 278  : 					if ( !GetBattleSoccerGoalMove(0) )

  0052b	6a 00		 push	 0
  0052d	e8 00 00 00 00	 call	 ?GetBattleSoccerGoalMove@@YAHH@Z ; GetBattleSoccerGoalMove
  00532	83 c4 04	 add	 esp, 4
  00535	85 c0		 test	 eax, eax
  00537	75 0a		 jne	 SHORT $LN693@Attack

; 279  : 					{
; 280  : 						return TRUE;

  00539	b8 01 00 00 00	 mov	 eax, 1
  0053e	e9 b4 64 00 00	 jmp	 $LN741@Attack
$LN693@Attack:

; 281  : 					}
; 282  : 				}
; 283  : 			}
; 284  : 
; 285  : 			if ( lpObj->lpGuild->WarState )

  00543	8b 45 08	 mov	 eax, DWORD PTR _lpObj$[ebp]
  00546	8b 88 38 04 00
	00		 mov	 ecx, DWORD PTR [eax+1080]
  0054c	0f b6 91 91 05
	00 00		 movzx	 edx, BYTE PTR [ecx+1425]
  00553	85 d2		 test	 edx, edx
  00555	74 2a		 je	 SHORT $LN690@Attack

; 286  : 			{
; 287  : 				if ( lpObj->lpGuild->WarType == 0 )

  00557	8b 45 08	 mov	 eax, DWORD PTR _lpObj$[ebp]
  0055a	8b 88 38 04 00
	00		 mov	 ecx, DWORD PTR [eax+1080]
  00560	0f b6 91 92 05
	00 00		 movzx	 edx, BYTE PTR [ecx+1426]
  00567	85 d2		 test	 edx, edx
  00569	75 16		 jne	 SHORT $LN690@Attack

; 288  : 				{
; 289  : 					if ( lpTargetObj->Type == OBJ_MONSTER )

  0056b	8b 45 0c	 mov	 eax, DWORD PTR _lpTargetObj$[ebp]
  0056e	0f b7 48 68	 movzx	 ecx, WORD PTR [eax+104]
  00572	83 f9 02	 cmp	 ecx, 2
  00575	75 0a		 jne	 SHORT $LN690@Attack

; 290  : 					{
; 291  : 						return TRUE;

  00577	b8 01 00 00 00	 mov	 eax, 1
  0057c	e9 76 64 00 00	 jmp	 $LN741@Attack
$LN690@Attack:

; 292  : 					}
; 293  : 				}
; 294  : 			}
; 295  : 		}
; 296  : 	}
; 297  : 
; 298  : 	if ( lpTargetObj->Type == OBJ_MONSTER )

  00581	8b 45 0c	 mov	 eax, DWORD PTR _lpTargetObj$[ebp]
  00584	0f b7 48 68	 movzx	 ecx, WORD PTR [eax+104]
  00588	83 f9 02	 cmp	 ecx, 2
  0058b	0f 85 9e 01 00
	00		 jne	 $LN677@Attack

; 299  : 	{
; 300  : 		if ( lpTargetObj->m_iMonsterBattleDelay > 0 )

  00591	8b 45 0c	 mov	 eax, DWORD PTR _lpTargetObj$[ebp]
  00594	0f be 88 c9 03
	00 00		 movsx	 ecx, BYTE PTR [eax+969]
  0059b	85 c9		 test	 ecx, ecx
  0059d	7e 0a		 jle	 SHORT $LN688@Attack

; 301  : 		{
; 302  : 			return TRUE;

  0059f	b8 01 00 00 00	 mov	 eax, 1
  005a4	e9 4e 64 00 00	 jmp	 $LN741@Attack
$LN688@Attack:

; 303  : 		}
; 304  : 		
; 305  : 		if ( lpTargetObj->Class == 200 )

  005a9	8b 45 0c	 mov	 eax, DWORD PTR _lpTargetObj$[ebp]
  005ac	0f b7 88 b8 00
	00 00		 movzx	 ecx, WORD PTR [eax+184]
  005b3	81 f9 c8 00 00
	00		 cmp	 ecx, 200		; 000000c8H
  005b9	75 60		 jne	 SHORT $LN687@Attack

; 306  : 		{
; 307  : 			if ( skill )

  005bb	83 7d d8 00	 cmp	 DWORD PTR _skill$[ebp], 0
  005bf	74 18		 je	 SHORT $LN686@Attack

; 308  : 			{
; 309  : 				gObjMonsterStateProc(lpTargetObj, 7, lpObj->m_Index, 0);

  005c1	6a 00		 push	 0
  005c3	8b 45 08	 mov	 eax, DWORD PTR _lpObj$[ebp]
  005c6	8b 08		 mov	 ecx, DWORD PTR [eax]
  005c8	51		 push	 ecx
  005c9	6a 07		 push	 7
  005cb	8b 55 0c	 mov	 edx, DWORD PTR _lpTargetObj$[ebp]
  005ce	52		 push	 edx
  005cf	e8 00 00 00 00	 call	 ?gObjMonsterStateProc@@YAXPAUOBJECTSTRUCT@@HHH@Z ; gObjMonsterStateProc
  005d4	83 c4 10	 add	 esp, 16			; 00000010H

; 310  : 			}
; 311  : 			else

  005d7	eb 16		 jmp	 SHORT $LN685@Attack
$LN686@Attack:

; 312  : 			{
; 313  : 				gObjMonsterStateProc(lpTargetObj, 6, lpObj->m_Index, 0);

  005d9	6a 00		 push	 0
  005db	8b 45 08	 mov	 eax, DWORD PTR _lpObj$[ebp]
  005de	8b 08		 mov	 ecx, DWORD PTR [eax]
  005e0	51		 push	 ecx
  005e1	6a 06		 push	 6
  005e3	8b 55 0c	 mov	 edx, DWORD PTR _lpTargetObj$[ebp]
  005e6	52		 push	 edx
  005e7	e8 00 00 00 00	 call	 ?gObjMonsterStateProc@@YAXPAUOBJECTSTRUCT@@HHH@Z ; gObjMonsterStateProc
  005ec	83 c4 10	 add	 esp, 16			; 00000010H
$LN685@Attack:

; 314  : 			}
; 315  : 
; 316  : 			if ( magicsend )

  005ef	83 7d 14 00	 cmp	 DWORD PTR _magicsend$[ebp], 0
  005f3	74 1c		 je	 SHORT $LN684@Attack

; 317  : 			{
; 318  : 				GCMagicAttackNumberSend(lpObj, skill, lpTargetObj->m_Index, skillSuccess);

  005f5	0f b6 45 f4	 movzx	 eax, BYTE PTR _skillSuccess$[ebp]
  005f9	50		 push	 eax
  005fa	8b 4d 0c	 mov	 ecx, DWORD PTR _lpTargetObj$[ebp]
  005fd	8b 11		 mov	 edx, DWORD PTR [ecx]
  005ff	52		 push	 edx
  00600	0f b7 45 d8	 movzx	 eax, WORD PTR _skill$[ebp]
  00604	50		 push	 eax
  00605	8b 4d 08	 mov	 ecx, DWORD PTR _lpObj$[ebp]
  00608	51		 push	 ecx
  00609	e8 00 00 00 00	 call	 ?GCMagicAttackNumberSend@@YAXPAUOBJECTSTRUCT@@GHE@Z ; GCMagicAttackNumberSend
  0060e	83 c4 10	 add	 esp, 16			; 00000010H
$LN684@Attack:

; 319  : 			}
; 320  : 
; 321  : 			return TRUE;

  00611	b8 01 00 00 00	 mov	 eax, 1
  00616	e9 dc 63 00 00	 jmp	 $LN741@Attack
$LN687@Attack:

; 322  : 		}
; 323  : 
; 324  : 		if(gObjSearchActiveEffect(lpTargetObj, AT_IMMUNE_MAGIC) == 1)

  0061b	6a 3f		 push	 63			; 0000003fH
  0061d	8b 45 0c	 mov	 eax, DWORD PTR _lpTargetObj$[ebp]
  00620	50		 push	 eax
  00621	e8 00 00 00 00	 call	 ?gObjSearchActiveEffect@@YAEPAUOBJECTSTRUCT@@H@Z ; gObjSearchActiveEffect
  00626	83 c4 08	 add	 esp, 8
  00629	0f b6 c8	 movzx	 ecx, al
  0062c	83 f9 01	 cmp	 ecx, 1
  0062f	75 43		 jne	 SHORT $LN682@Attack

; 325  : 		{
; 326  : 			BOOL bCheckAttackIsMagicType = gObjCheckAttackTypeMagic(lpObj->Class, skill);

  00631	8b 45 d8	 mov	 eax, DWORD PTR _skill$[ebp]
  00634	50		 push	 eax
  00635	8b 4d 08	 mov	 ecx, DWORD PTR _lpObj$[ebp]
  00638	0f b7 91 b8 00
	00 00		 movzx	 edx, WORD PTR [ecx+184]
  0063f	52		 push	 edx
  00640	e8 00 00 00 00	 call	 ?gObjCheckAttackTypeMagic@@YAHHH@Z ; gObjCheckAttackTypeMagic
  00645	83 c4 08	 add	 esp, 8
  00648	89 45 d4	 mov	 DWORD PTR _bCheckAttackIsMagicType$239993[ebp], eax

; 327  : 
; 328  : 			if ( bCheckAttackIsMagicType == TRUE )

  0064b	83 7d d4 01	 cmp	 DWORD PTR _bCheckAttackIsMagicType$239993[ebp], 1
  0064f	75 23		 jne	 SHORT $LN682@Attack

; 329  : 			{
; 330  : 				GCMagicAttackNumberSend(lpObj, skill, lpTargetObj->m_Index, 0);

  00651	6a 00		 push	 0
  00653	8b 45 0c	 mov	 eax, DWORD PTR _lpTargetObj$[ebp]
  00656	8b 08		 mov	 ecx, DWORD PTR [eax]
  00658	51		 push	 ecx
  00659	0f b7 55 d8	 movzx	 edx, WORD PTR _skill$[ebp]
  0065d	52		 push	 edx
  0065e	8b 45 08	 mov	 eax, DWORD PTR _lpObj$[ebp]
  00661	50		 push	 eax
  00662	e8 00 00 00 00	 call	 ?GCMagicAttackNumberSend@@YAXPAUOBJECTSTRUCT@@GHE@Z ; GCMagicAttackNumberSend
  00667	83 c4 10	 add	 esp, 16			; 00000010H

; 331  : 				return TRUE;

  0066a	b8 01 00 00 00	 mov	 eax, 1
  0066f	e9 83 63 00 00	 jmp	 $LN741@Attack
$LN682@Attack:

; 332  : 			}
; 333  : 		}
; 334  : 
; 335  : 		if(gObjSearchActiveEffect(lpTargetObj, AT_IMMUNE_HARM) == 1)

  00674	6a 40		 push	 64			; 00000040H
  00676	8b 45 0c	 mov	 eax, DWORD PTR _lpTargetObj$[ebp]
  00679	50		 push	 eax
  0067a	e8 00 00 00 00	 call	 ?gObjSearchActiveEffect@@YAEPAUOBJECTSTRUCT@@H@Z ; gObjSearchActiveEffect
  0067f	83 c4 08	 add	 esp, 8
  00682	0f b6 c8	 movzx	 ecx, al
  00685	83 f9 01	 cmp	 ecx, 1
  00688	75 46		 jne	 SHORT $LN680@Attack

; 336  : 		{
; 337  : 			BOOL bCheckAttackIsMagicType = gObjCheckAttackTypeMagic(lpObj->Class, skill); //loc11

  0068a	8b 45 d8	 mov	 eax, DWORD PTR _skill$[ebp]
  0068d	50		 push	 eax
  0068e	8b 4d 08	 mov	 ecx, DWORD PTR _lpObj$[ebp]
  00691	0f b7 91 b8 00
	00 00		 movzx	 edx, WORD PTR [ecx+184]
  00698	52		 push	 edx
  00699	e8 00 00 00 00	 call	 ?gObjCheckAttackTypeMagic@@YAHHH@Z ; gObjCheckAttackTypeMagic
  0069e	83 c4 08	 add	 esp, 8
  006a1	89 45 d0	 mov	 DWORD PTR _bCheckAttackIsMagicType$239996[ebp], eax

; 338  : 
; 339  : 			if ( bCheckAttackIsMagicType == FALSE )

  006a4	83 7d d0 00	 cmp	 DWORD PTR _bCheckAttackIsMagicType$239996[ebp], 0
  006a8	75 26		 jne	 SHORT $LN680@Attack

; 340  : 			{
; 341  : 				GCDamageSend(lpObj->m_Index, lpTargetObj->m_Index, 0, 0, 0, 0);

  006aa	6a 00		 push	 0
  006ac	6a 00		 push	 0
  006ae	6a 00		 push	 0
  006b0	6a 00		 push	 0
  006b2	8b 45 0c	 mov	 eax, DWORD PTR _lpTargetObj$[ebp]
  006b5	8b 08		 mov	 ecx, DWORD PTR [eax]
  006b7	51		 push	 ecx
  006b8	8b 55 08	 mov	 edx, DWORD PTR _lpObj$[ebp]
  006bb	8b 02		 mov	 eax, DWORD PTR [edx]
  006bd	50		 push	 eax
  006be	e8 00 00 00 00	 call	 ?GCDamageSend@@YAXHHHHHH@Z ; GCDamageSend
  006c3	83 c4 18	 add	 esp, 24			; 00000018H

; 342  : 				return TRUE;

  006c6	b8 01 00 00 00	 mov	 eax, 1
  006cb	e9 27 63 00 00	 jmp	 $LN741@Attack
$LN680@Attack:

; 343  : 			}
; 344  : 		}
; 345  : 		if ( lpTargetObj->m_MonsterSkillElementInfo.m_iSkillElementImmuneTime > 0 )

  006d0	8b 45 0c	 mov	 eax, DWORD PTR _lpTargetObj$[ebp]
  006d3	83 b8 58 1c 00
	00 00		 cmp	 DWORD PTR [eax+7256], 0
  006da	7e 18		 jle	 SHORT $LN678@Attack

; 346  : 		{
; 347  : 			if ( lpTargetObj->m_MonsterSkillElementInfo.m_iSkillElementImmuneNumber == skill )

  006dc	8b 45 0c	 mov	 eax, DWORD PTR _lpTargetObj$[ebp]
  006df	8b 88 54 1c 00
	00		 mov	 ecx, DWORD PTR [eax+7252]
  006e5	3b 4d d8	 cmp	 ecx, DWORD PTR _skill$[ebp]
  006e8	75 0a		 jne	 SHORT $LN678@Attack

; 348  : 			{
; 349  : 				return TRUE;

  006ea	b8 01 00 00 00	 mov	 eax, 1
  006ef	e9 03 63 00 00	 jmp	 $LN741@Attack
$LN678@Attack:

; 350  : 			}
; 351  : 		}
; 352  : 		if ( lpTargetObj->m_MonsterSkillElementInfo.m_iSkillElementBerserkTime > 0 ) //season4

  006f4	8b 45 0c	 mov	 eax, DWORD PTR _lpTargetObj$[ebp]
  006f7	83 b8 70 1c 00
	00 00		 cmp	 DWORD PTR [eax+7280], 0
  006fe	7e 2f		 jle	 SHORT $LN677@Attack

; 353  : 		{
; 354  : 			int MSBDamage = 32;

  00700	c7 45 cc 20 00
	00 00		 mov	 DWORD PTR _MSBDamage$240001[ebp], 32 ; 00000020H

; 355  : 			GCDamageSend(lpObj->m_Index, lpTargetObj->m_Index, 0, 0, MSBDamage, 0);

  00707	6a 00		 push	 0
  00709	8b 45 cc	 mov	 eax, DWORD PTR _MSBDamage$240001[ebp]
  0070c	50		 push	 eax
  0070d	6a 00		 push	 0
  0070f	6a 00		 push	 0
  00711	8b 4d 0c	 mov	 ecx, DWORD PTR _lpTargetObj$[ebp]
  00714	8b 11		 mov	 edx, DWORD PTR [ecx]
  00716	52		 push	 edx
  00717	8b 45 08	 mov	 eax, DWORD PTR _lpObj$[ebp]
  0071a	8b 08		 mov	 ecx, DWORD PTR [eax]
  0071c	51		 push	 ecx
  0071d	e8 00 00 00 00	 call	 ?GCDamageSend@@YAXHHHHHH@Z ; GCDamageSend
  00722	83 c4 18	 add	 esp, 24			; 00000018H

; 356  : 			return TRUE;

  00725	b8 01 00 00 00	 mov	 eax, 1
  0072a	e9 c8 62 00 00	 jmp	 $LN741@Attack
$LN677@Attack:

; 357  : 		}
; 358  : 	}
; 359  : 
; 360  : #ifdef IMPERIAL_CONFLICT_NEW
; 361  : 
; 362  : 	if ( lpTargetObj->Class == 523 )
; 363  : 		return TRUE;
; 364  : 
; 365  : 	if ( lpTargetObj->Class >= 524 && lpTargetObj->Class <= 528 
; 366  : 		&& lpTargetObj->Class != 526
; 367  : 		&& !g_ImperialGuardian.IsAttackAbleMonster(lpTargetObj->m_Index) )
; 368  : 	{
; 369  : 		return TRUE;
; 370  : 	}
; 371  : #endif
; 372  : 
; 373  : 	if ( lpObj->Type == OBJ_USER )

  0072f	8b 45 08	 mov	 eax, DWORD PTR _lpObj$[ebp]
  00732	0f b7 48 68	 movzx	 ecx, WORD PTR [eax+104]
  00736	83 f9 01	 cmp	 ecx, 1
  00739	75 30		 jne	 SHORT $LN676@Attack

; 374  : 	{
; 375  : 		if ( !gObjIsConnected(lpObj) )

  0073b	8b 45 08	 mov	 eax, DWORD PTR _lpObj$[ebp]
  0073e	50		 push	 eax
  0073f	e8 00 00 00 00	 call	 ?gObjIsConnected@@YAHPAUOBJECTSTRUCT@@@Z ; gObjIsConnected
  00744	83 c4 04	 add	 esp, 4
  00747	85 c0		 test	 eax, eax
  00749	75 07		 jne	 SHORT $LN675@Attack

; 376  : 		{
; 377  : 			return FALSE;

  0074b	33 c0		 xor	 eax, eax
  0074d	e9 a5 62 00 00	 jmp	 $LN741@Attack
$LN675@Attack:

; 378  : 		}
; 379  : 
; 380  : 		/*if ( lpObj->m_Change == 8 )
; 381  : 		{
; 382  : 			skill = 1;
; 383  : 			lpMagic = &DefMagicInf[1];
; 384  : 			magicsend = 1;
; 385  : 		}*/
; 386  : 
; 387  : 		gDarkSpirit[lpObj->m_Index].SetTarget(lpTargetObj->m_Index);

  00752	8b 45 0c	 mov	 eax, DWORD PTR _lpTargetObj$[ebp]
  00755	8b 08		 mov	 ecx, DWORD PTR [eax]
  00757	51		 push	 ecx
  00758	8b 55 08	 mov	 edx, DWORD PTR _lpObj$[ebp]
  0075b	8b 0a		 mov	 ecx, DWORD PTR [edx]
  0075d	6b c9 28	 imul	 ecx, 40			; 00000028H
  00760	81 c1 00 00 00
	00		 add	 ecx, OFFSET ?gDarkSpirit@@3PAVCDarkSpirit@@A ; gDarkSpirit
  00766	e8 00 00 00 00	 call	 ?SetTarget@CDarkSpirit@@QAEXH@Z ; CDarkSpirit::SetTarget
$LN676@Attack:

; 388  : 	}
; 389  : 
; 390  : 	if ( lpTargetObj->Type == OBJ_USER )

  0076b	8b 45 0c	 mov	 eax, DWORD PTR _lpTargetObj$[ebp]
  0076e	0f b7 48 68	 movzx	 ecx, WORD PTR [eax+104]
  00772	83 f9 01	 cmp	 ecx, 1
  00775	75 17		 jne	 SHORT $LN673@Attack

; 391  : 	{
; 392  : 		if ( !gObjIsConnected(lpTargetObj))

  00777	8b 45 0c	 mov	 eax, DWORD PTR _lpTargetObj$[ebp]
  0077a	50		 push	 eax
  0077b	e8 00 00 00 00	 call	 ?gObjIsConnected@@YAHPAUOBJECTSTRUCT@@@Z ; gObjIsConnected
  00780	83 c4 04	 add	 esp, 4
  00783	85 c0		 test	 eax, eax
  00785	75 07		 jne	 SHORT $LN673@Attack

; 393  : 		{
; 394  : 			return FALSE;

  00787	33 c0		 xor	 eax, eax
  00789	e9 69 62 00 00	 jmp	 $LN741@Attack
$LN673@Attack:

; 395  : 		}
; 396  : 	}
; 397  : 
; 398  : 	if ( lpObj->Type == OBJ_USER && lpTargetObj->Type == OBJ_MONSTER )

  0078e	8b 45 08	 mov	 eax, DWORD PTR _lpObj$[ebp]
  00791	0f b7 48 68	 movzx	 ecx, WORD PTR [eax+104]
  00795	83 f9 01	 cmp	 ecx, 1
  00798	75 2f		 jne	 SHORT $LN670@Attack
  0079a	8b 45 0c	 mov	 eax, DWORD PTR _lpTargetObj$[ebp]
  0079d	0f b7 48 68	 movzx	 ecx, WORD PTR [eax+104]
  007a1	83 f9 02	 cmp	 ecx, 2
  007a4	75 23		 jne	 SHORT $LN670@Attack

; 399  : 	{
; 400  : 		if ( lpObj->m_RecallMon >= 0 )

  007a6	8b 45 08	 mov	 eax, DWORD PTR _lpObj$[ebp]
  007a9	83 b8 50 04 00
	00 00		 cmp	 DWORD PTR [eax+1104], 0
  007b0	7c 17		 jl	 SHORT $LN670@Attack

; 401  : 		{
; 402  : 			if ( lpObj->m_RecallMon == lpTargetObj->m_Index )

  007b2	8b 45 08	 mov	 eax, DWORD PTR _lpObj$[ebp]
  007b5	8b 4d 0c	 mov	 ecx, DWORD PTR _lpTargetObj$[ebp]
  007b8	8b 90 50 04 00
	00		 mov	 edx, DWORD PTR [eax+1104]
  007be	3b 11		 cmp	 edx, DWORD PTR [ecx]
  007c0	75 07		 jne	 SHORT $LN670@Attack

; 403  : 			{
; 404  : 				return FALSE;

  007c2	33 c0		 xor	 eax, eax
  007c4	e9 2e 62 00 00	 jmp	 $LN741@Attack
$LN670@Attack:

; 405  : 			}
; 406  : 		}
; 407  : 	}
; 408  : 
; 409  : 	if ( !gObjAttackQ(lpTargetObj))

  007c9	8b 45 0c	 mov	 eax, DWORD PTR _lpTargetObj$[ebp]
  007cc	50		 push	 eax
  007cd	e8 00 00 00 00	 call	 ?gObjAttackQ@@YAHPAUOBJECTSTRUCT@@@Z ; gObjAttackQ
  007d2	83 c4 04	 add	 esp, 4
  007d5	85 c0		 test	 eax, eax
  007d7	75 07		 jne	 SHORT $LN669@Attack

; 410  : 	{
; 411  : 		return FALSE;

  007d9	33 c0		 xor	 eax, eax
  007db	e9 17 62 00 00	 jmp	 $LN741@Attack
$LN669@Attack:

; 412  : 	}
; 413  : 
; 414  : 	if ( lpObj->m_RecallMon >= 0 )

  007e0	8b 45 08	 mov	 eax, DWORD PTR _lpObj$[ebp]
  007e3	83 b8 50 04 00
	00 00		 cmp	 DWORD PTR [eax+1104], 0
  007ea	7c 12		 jl	 SHORT $LN668@Attack

; 415  : 	{
; 416  : 		gObjCallMonsterSetEnemy(lpObj, lpTargetObj->m_Index);

  007ec	8b 45 0c	 mov	 eax, DWORD PTR _lpTargetObj$[ebp]
  007ef	8b 08		 mov	 ecx, DWORD PTR [eax]
  007f1	51		 push	 ecx
  007f2	8b 55 08	 mov	 edx, DWORD PTR _lpObj$[ebp]
  007f5	52		 push	 edx
  007f6	e8 00 00 00 00	 call	 ?gObjCallMonsterSetEnemy@@YAHPAUOBJECTSTRUCT@@H@Z ; gObjCallMonsterSetEnemy
  007fb	83 c4 08	 add	 esp, 8
$LN668@Attack:

; 417  : 	}
; 418  : 
; 419  : 	lpObj->m_TotalAttackCount++;

  007fe	8b 45 08	 mov	 eax, DWORD PTR _lpObj$[ebp]
  00801	8b 88 98 03 00
	00		 mov	 ecx, DWORD PTR [eax+920]
  00807	83 c1 01	 add	 ecx, 1
  0080a	8b 55 08	 mov	 edx, DWORD PTR _lpObj$[ebp]
  0080d	89 8a 98 03 00
	00		 mov	 DWORD PTR [edx+920], ecx

; 420  : 
; 421  : 	if ( AttackDamage == 0 )

  00813	83 7d 1c 00	 cmp	 DWORD PTR _AttackDamage$[ebp], 0
  00817	75 4a		 jne	 SHORT $LN664@Attack

; 422  : 	{
; 423  : 		if ( skill != 76 )

  00819	83 7d d8 4c	 cmp	 DWORD PTR _skill$[ebp], 76 ; 0000004cH
  0081d	74 44		 je	 SHORT $LN664@Attack

; 424  : 		{
; 425  : 			if(!gObjSearchActiveEffect(lpObj, AT_INFINITY_ARROW) &&
; 426  : 			   !gObjSearchActiveEffect(lpObj,BUFF_INFINITY_ARROW2))

  0081f	6a 06		 push	 6
  00821	8b 45 08	 mov	 eax, DWORD PTR _lpObj$[ebp]
  00824	50		 push	 eax
  00825	e8 00 00 00 00	 call	 ?gObjSearchActiveEffect@@YAEPAUOBJECTSTRUCT@@H@Z ; gObjSearchActiveEffect
  0082a	83 c4 08	 add	 esp, 8
  0082d	0f b6 c8	 movzx	 ecx, al
  00830	85 c9		 test	 ecx, ecx
  00832	75 2f		 jne	 SHORT $LN664@Attack
  00834	68 8f 00 00 00	 push	 143			; 0000008fH
  00839	8b 45 08	 mov	 eax, DWORD PTR _lpObj$[ebp]
  0083c	50		 push	 eax
  0083d	e8 00 00 00 00	 call	 ?gObjSearchActiveEffect@@YAEPAUOBJECTSTRUCT@@H@Z ; gObjSearchActiveEffect
  00842	83 c4 08	 add	 esp, 8
  00845	0f b6 c8	 movzx	 ecx, al
  00848	85 c9		 test	 ecx, ecx
  0084a	75 17		 jne	 SHORT $LN664@Attack

; 427  : 			{
; 428  : 				if ( !this->DecreaseArrow(lpObj) )

  0084c	8b 45 08	 mov	 eax, DWORD PTR _lpObj$[ebp]
  0084f	50		 push	 eax
  00850	8b 4d f8	 mov	 ecx, DWORD PTR _this$[ebp]
  00853	e8 00 00 00 00	 call	 ?DecreaseArrow@CObjBaseAttack@@QAEHPAUOBJECTSTRUCT@@@Z ; CObjBaseAttack::DecreaseArrow
  00858	85 c0		 test	 eax, eax
  0085a	75 07		 jne	 SHORT $LN664@Attack

; 429  : 				{
; 430  : 					return FALSE;

  0085c	33 c0		 xor	 eax, eax
  0085e	e9 94 61 00 00	 jmp	 $LN741@Attack
$LN664@Attack:

; 431  : 				}
; 432  : 			}
; 433  : 		}
; 434  : 	}
; 435  : 
; 436  : 	if ( this->CheckAttackArea(lpObj, lpTargetObj) == FALSE )

  00863	8b 45 0c	 mov	 eax, DWORD PTR _lpTargetObj$[ebp]
  00866	50		 push	 eax
  00867	8b 4d 08	 mov	 ecx, DWORD PTR _lpObj$[ebp]
  0086a	51		 push	 ecx
  0086b	8b 4d f8	 mov	 ecx, DWORD PTR _this$[ebp]
  0086e	e8 00 00 00 00	 call	 ?CheckAttackArea@CObjBaseAttack@@QAEHPAUOBJECTSTRUCT@@0@Z ; CObjBaseAttack::CheckAttackArea
  00873	85 c0		 test	 eax, eax
  00875	75 07		 jne	 SHORT $LN663@Attack

; 437  : 	{
; 438  : 		return FALSE;

  00877	33 c0		 xor	 eax, eax
  00879	e9 79 61 00 00	 jmp	 $LN741@Attack
$LN663@Attack:

; 439  : 	}
; 440  : 
; 441  : 	lpCallObj = lpObj;

  0087e	8b 45 08	 mov	 eax, DWORD PTR _lpObj$[ebp]
  00881	89 45 f0	 mov	 DWORD PTR _lpCallObj$[ebp], eax

; 442  : 
; 443  : 	if ( lpObj->Type == OBJ_MONSTER )

  00884	8b 45 08	 mov	 eax, DWORD PTR _lpObj$[ebp]
  00887	0f b7 48 68	 movzx	 ecx, WORD PTR [eax+104]
  0088b	83 f9 02	 cmp	 ecx, 2
  0088e	75 24		 jne	 SHORT $LN661@Attack

; 444  : 	{
; 445  : 		if ( lpObj->m_RecallMon >= 0 )

  00890	8b 45 08	 mov	 eax, DWORD PTR _lpObj$[ebp]
  00893	83 b8 50 04 00
	00 00		 cmp	 DWORD PTR [eax+1104], 0
  0089a	7c 18		 jl	 SHORT $LN661@Attack

; 446  : 		{
; 447  : 			lpCallObj = &gObj[lpObj->m_RecallMon];

  0089c	8b 45 08	 mov	 eax, DWORD PTR _lpObj$[ebp]
  0089f	8b 88 50 04 00
	00		 mov	 ecx, DWORD PTR [eax+1104]
  008a5	69 c9 38 2b 00
	00		 imul	 ecx, 11064		; 00002b38H
  008ab	03 0d 00 00 00
	00		 add	 ecx, DWORD PTR ?gObj@@3PAUOBJECTSTRUCT@@A ; gObj
  008b1	89 4d f0	 mov	 DWORD PTR _lpCallObj$[ebp], ecx
$LN661@Attack:

; 448  : 		}
; 449  : 	}
; 450  : 
; 451  : 	lpCallTargetObj = lpTargetObj;

  008b4	8b 45 0c	 mov	 eax, DWORD PTR _lpTargetObj$[ebp]
  008b7	89 45 ec	 mov	 DWORD PTR _lpCallTargetObj$[ebp], eax

; 452  : 
; 453  : 	if ( lpTargetObj->Type == OBJ_MONSTER )

  008ba	8b 45 0c	 mov	 eax, DWORD PTR _lpTargetObj$[ebp]
  008bd	0f b7 48 68	 movzx	 ecx, WORD PTR [eax+104]
  008c1	83 f9 02	 cmp	 ecx, 2
  008c4	75 24		 jne	 SHORT $LN659@Attack

; 454  : 	{
; 455  : 		if ( lpTargetObj->m_RecallMon >= 0 )

  008c6	8b 45 0c	 mov	 eax, DWORD PTR _lpTargetObj$[ebp]
  008c9	83 b8 50 04 00
	00 00		 cmp	 DWORD PTR [eax+1104], 0
  008d0	7c 18		 jl	 SHORT $LN659@Attack

; 456  : 		{
; 457  : 			lpCallTargetObj = &gObj[lpTargetObj->m_RecallMon];

  008d2	8b 45 0c	 mov	 eax, DWORD PTR _lpTargetObj$[ebp]
  008d5	8b 88 50 04 00
	00		 mov	 ecx, DWORD PTR [eax+1104]
  008db	69 c9 38 2b 00
	00		 imul	 ecx, 11064		; 00002b38H
  008e1	03 0d 00 00 00
	00		 add	 ecx, DWORD PTR ?gObj@@3PAUOBJECTSTRUCT@@A ; gObj
  008e7	89 4d ec	 mov	 DWORD PTR _lpCallTargetObj$[ebp], ecx
$LN659@Attack:

; 458  : 		}
; 459  : 	}
; 460  : 
; 461  : 	if ( this->PkCheck(lpCallObj, lpTargetObj) == FALSE )

  008ea	8b 45 0c	 mov	 eax, DWORD PTR _lpTargetObj$[ebp]
  008ed	50		 push	 eax
  008ee	8b 4d f0	 mov	 ecx, DWORD PTR _lpCallObj$[ebp]
  008f1	51		 push	 ecx
  008f2	8b 4d f8	 mov	 ecx, DWORD PTR _this$[ebp]
  008f5	e8 00 00 00 00	 call	 ?PkCheck@CObjBaseAttack@@QAEHPAUOBJECTSTRUCT@@0@Z ; CObjBaseAttack::PkCheck
  008fa	85 c0		 test	 eax, eax
  008fc	75 07		 jne	 SHORT $LN658@Attack

; 462  : 	{
; 463  : 		return FALSE;

  008fe	33 c0		 xor	 eax, eax
  00900	e9 f2 60 00 00	 jmp	 $LN741@Attack
$LN658@Attack:

; 464  : 	}
; 465  : 
; 466  : 	int Strength = lpObj->Strength + lpObj->AddStrength; //

  00905	8b 45 08	 mov	 eax, DWORD PTR _lpObj$[ebp]
  00908	0f b7 88 f4 00
	00 00		 movzx	 ecx, WORD PTR [eax+244]
  0090f	8b 55 08	 mov	 edx, DWORD PTR _lpObj$[ebp]
  00912	0f bf 82 20 01
	00 00		 movsx	 eax, WORD PTR [edx+288]
  00919	03 c8		 add	 ecx, eax
  0091b	89 4d c8	 mov	 DWORD PTR _Strength$[ebp], ecx

; 467  : 	int Dexterity = lpObj->Dexterity + lpObj->AddDexterity; //

  0091e	8b 45 08	 mov	 eax, DWORD PTR _lpObj$[ebp]
  00921	0f b7 88 f6 00
	00 00		 movzx	 ecx, WORD PTR [eax+246]
  00928	8b 55 08	 mov	 edx, DWORD PTR _lpObj$[ebp]
  0092b	0f bf 82 22 01
	00 00		 movsx	 eax, WORD PTR [edx+290]
  00932	03 c8		 add	 ecx, eax
  00934	89 4d c4	 mov	 DWORD PTR _Dexterity$[ebp], ecx

; 468  : 	int Vitality = lpObj->Vitality + lpObj->AddVitality; //loc12

  00937	8b 45 08	 mov	 eax, DWORD PTR _lpObj$[ebp]
  0093a	0f b7 88 f8 00
	00 00		 movzx	 ecx, WORD PTR [eax+248]
  00941	8b 55 08	 mov	 edx, DWORD PTR _lpObj$[ebp]
  00944	0f bf 82 24 01
	00 00		 movsx	 eax, WORD PTR [edx+292]
  0094b	03 c8		 add	 ecx, eax
  0094d	89 4d c0	 mov	 DWORD PTR _Vitality$[ebp], ecx

; 469  : 	int Energy = lpObj->Energy + lpObj->AddEnergy; //3c

  00950	8b 45 08	 mov	 eax, DWORD PTR _lpObj$[ebp]
  00953	0f b7 88 fa 00
	00 00		 movzx	 ecx, WORD PTR [eax+250]
  0095a	8b 55 08	 mov	 edx, DWORD PTR _lpObj$[ebp]
  0095d	0f bf 82 26 01
	00 00		 movsx	 eax, WORD PTR [edx+294]
  00964	03 c8		 add	 ecx, eax
  00966	89 4d bc	 mov	 DWORD PTR _Energy$[ebp], ecx

; 470  : 	BOOL bIsOnDuel = gObjDuelCheck(lpObj, lpTargetObj); //30

  00969	8b 45 0c	 mov	 eax, DWORD PTR _lpTargetObj$[ebp]
  0096c	50		 push	 eax
  0096d	8b 4d 08	 mov	 ecx, DWORD PTR _lpObj$[ebp]
  00970	51		 push	 ecx
  00971	e8 00 00 00 00	 call	 ?gObjDuelCheck@@YAHPAUOBJECTSTRUCT@@0@Z ; gObjDuelCheck
  00976	83 c4 08	 add	 esp, 8
  00979	89 45 b8	 mov	 DWORD PTR _bIsOnDuel$[ebp], eax

; 471  : 
; 472  : 	if ( bIsOnDuel )

  0097c	83 7d b8 00	 cmp	 DWORD PTR _bIsOnDuel$[ebp], 0
  00980	74 1e		 je	 SHORT $LN657@Attack

; 473  : 	{
; 474  : 		lpObj->m_iDuelTickCount = GetTickCount();

  00982	ff 15 00 00 00
	00		 call	 DWORD PTR __imp__GetTickCount@0
  00988	8b 4d 08	 mov	 ecx, DWORD PTR _lpObj$[ebp]
  0098b	89 81 c0 0e 00
	00		 mov	 DWORD PTR [ecx+3776], eax

; 475  : 		lpTargetObj->m_iDuelTickCount = GetTickCount();

  00991	ff 15 00 00 00
	00		 call	 DWORD PTR __imp__GetTickCount@0
  00997	8b 4d 0c	 mov	 ecx, DWORD PTR _lpTargetObj$[ebp]
  0099a	89 81 c0 0e 00
	00		 mov	 DWORD PTR [ecx+3776], eax
$LN657@Attack:

; 476  : 	}
; 477  : 
; 478  : 	if ( lpObj->pInventory[0].m_Type == ITEMGET(2,5) && lpObj->pInventory[0].m_IsValidItem != false )	// Crystal Sword

  009a0	8b 45 08	 mov	 eax, DWORD PTR _lpObj$[ebp]
  009a3	8b 88 24 0e 00
	00		 mov	 ecx, DWORD PTR [eax+3620]
  009a9	0f bf 51 06	 movsx	 edx, WORD PTR [ecx+6]
  009ad	81 fa 05 04 00
	00		 cmp	 edx, 1029		; 00000405H
  009b3	75 3c		 jne	 SHORT $LN656@Attack
  009b5	8b 45 08	 mov	 eax, DWORD PTR _lpObj$[ebp]
  009b8	8b 88 24 0e 00
	00		 mov	 ecx, DWORD PTR [eax+3620]
  009be	0f b6 91 b0 00
	00 00		 movzx	 edx, BYTE PTR [ecx+176]
  009c5	85 d2		 test	 edx, edx
  009c7	74 28		 je	 SHORT $LN656@Attack

; 479  : 	{
; 480  : 		if ( (rand()%20) == 0 )

  009c9	e8 00 00 00 00	 call	 _rand
  009ce	99		 cdq
  009cf	b9 14 00 00 00	 mov	 ecx, 20			; 00000014H
  009d4	f7 f9		 idiv	 ecx
  009d6	85 d2		 test	 edx, edx
  009d8	75 15		 jne	 SHORT $LN655@Attack

; 481  : 		{
; 482  : 			skill = 7;

  009da	c7 45 d8 07 00
	00 00		 mov	 DWORD PTR _skill$[ebp], 7

; 483  : 			lpMagic = &DefMagicInf[7];

  009e1	c7 45 10 a8 00
	00 00		 mov	 DWORD PTR _lpMagic$[ebp], OFFSET ?DefMagicInf@@3PAVCMagicInf@@A+168

; 484  : 			magicsend = 1;

  009e8	c7 45 14 01 00
	00 00		 mov	 DWORD PTR _magicsend$[ebp], 1
$LN655@Attack:

; 485  : 		}
; 486  : 	}

  009ef	eb 52		 jmp	 SHORT $LN652@Attack
$LN656@Attack:

; 487  : 	else if ( lpObj->pInventory[1].m_Type == ITEMGET(2,5) && lpObj->pInventory[1].m_IsValidItem != false )	// Crystal Sword

  009f1	8b 45 08	 mov	 eax, DWORD PTR _lpObj$[ebp]
  009f4	8b 88 24 0e 00
	00		 mov	 ecx, DWORD PTR [eax+3620]
  009fa	0f bf 91 da 00
	00 00		 movsx	 edx, WORD PTR [ecx+218]
  00a01	81 fa 05 04 00
	00		 cmp	 edx, 1029		; 00000405H
  00a07	75 3a		 jne	 SHORT $LN652@Attack
  00a09	8b 45 08	 mov	 eax, DWORD PTR _lpObj$[ebp]
  00a0c	8b 88 24 0e 00
	00		 mov	 ecx, DWORD PTR [eax+3620]
  00a12	0f b6 91 84 01
	00 00		 movzx	 edx, BYTE PTR [ecx+388]
  00a19	85 d2		 test	 edx, edx
  00a1b	74 26		 je	 SHORT $LN652@Attack

; 488  : 	{
; 489  : 		if ( (rand()%20) == 0 )

  00a1d	e8 00 00 00 00	 call	 _rand
  00a22	99		 cdq
  00a23	b9 14 00 00 00	 mov	 ecx, 20			; 00000014H
  00a28	f7 f9		 idiv	 ecx
  00a2a	85 d2		 test	 edx, edx
  00a2c	75 15		 jne	 SHORT $LN652@Attack

; 490  : 		{
; 491  : 			skill = 7;

  00a2e	c7 45 d8 07 00
	00 00		 mov	 DWORD PTR _skill$[ebp], 7

; 492  : 			lpMagic = &DefMagicInf[7];

  00a35	c7 45 10 a8 00
	00 00		 mov	 DWORD PTR _lpMagic$[ebp], OFFSET ?DefMagicInf@@3PAVCMagicInf@@A+168

; 493  : 			magicsend = 1;

  00a3c	c7 45 14 01 00
	00 00		 mov	 DWORD PTR _magicsend$[ebp], 1
$LN652@Attack:

; 494  : 		}
; 495  : 	}
; 496  : 
; 497  : 	MSBFlag = 0;

  00a43	c6 45 18 00	 mov	 BYTE PTR _MSBFlag$[ebp], 0

; 498  : 	MsgDamage = 0;

  00a47	c6 45 eb 00	 mov	 BYTE PTR _MsgDamage$[ebp], 0

; 499  : 	skillSuccess = this->ResistanceCheck(lpObj, lpTargetObj, skill);

  00a4b	8b 45 d8	 mov	 eax, DWORD PTR _skill$[ebp]
  00a4e	50		 push	 eax
  00a4f	8b 4d 0c	 mov	 ecx, DWORD PTR _lpTargetObj$[ebp]
  00a52	51		 push	 ecx
  00a53	8b 55 08	 mov	 edx, DWORD PTR _lpObj$[ebp]
  00a56	52		 push	 edx
  00a57	8b 4d f8	 mov	 ecx, DWORD PTR _this$[ebp]
  00a5a	e8 00 00 00 00	 call	 ?ResistanceCheck@CObjBaseAttack@@QAEHPAUOBJECTSTRUCT@@0H@Z ; CObjBaseAttack::ResistanceCheck
  00a5f	89 45 f4	 mov	 DWORD PTR _skillSuccess$[ebp], eax

; 500  : 	BOOL skillIceArrowSuccess = skillSuccess;

  00a62	8b 45 f4	 mov	 eax, DWORD PTR _skillSuccess$[ebp]
  00a65	89 45 b4	 mov	 DWORD PTR _skillIceArrowSuccess$[ebp], eax

; 501  : 
; 502  : 	if ( skill == 51 || skill == 424 )

  00a68	83 7d d8 33	 cmp	 DWORD PTR _skill$[ebp], 51 ; 00000033H
  00a6c	74 09		 je	 SHORT $LN650@Attack
  00a6e	81 7d d8 a8 01
	00 00		 cmp	 DWORD PTR _skill$[ebp], 424 ; 000001a8H
  00a75	75 07		 jne	 SHORT $LN651@Attack
$LN650@Attack:

; 503  : 	{
; 504  : 		skillSuccess = 0;

  00a77	c7 45 f4 00 00
	00 00		 mov	 DWORD PTR _skillSuccess$[ebp], 0
$LN651@Attack:

; 505  : 	}
; 506  : 
; 507  : 	BOOL bAllMiss = FALSE;

  00a7e	c7 45 b0 00 00
	00 00		 mov	 DWORD PTR _bAllMiss$[ebp], 0

; 508  : 	
; 509  : 	if(gObjSearchActiveEffect(lpObj, AT_INVISIBILITY) == 1 && (lpObj->Authority&32) != 32)

  00a85	6a 12		 push	 18			; 00000012H
  00a87	8b 45 08	 mov	 eax, DWORD PTR _lpObj$[ebp]
  00a8a	50		 push	 eax
  00a8b	e8 00 00 00 00	 call	 ?gObjSearchActiveEffect@@YAEPAUOBJECTSTRUCT@@H@Z ; gObjSearchActiveEffect
  00a90	83 c4 08	 add	 esp, 8
  00a93	0f b6 c8	 movzx	 ecx, al
  00a96	83 f9 01	 cmp	 ecx, 1
  00a99	75 1e		 jne	 SHORT $LN649@Attack
  00a9b	8b 45 08	 mov	 eax, DWORD PTR _lpObj$[ebp]
  00a9e	8b 88 0c 02 00
	00		 mov	 ecx, DWORD PTR [eax+524]
  00aa4	83 e1 20	 and	 ecx, 32			; 00000020H
  00aa7	75 10		 jne	 SHORT $LN649@Attack

; 510  : 	{
; 511  : 		gObjUseSkill.RemoveCloakingEffect(lpObj->m_Index);

  00aa9	8b 45 08	 mov	 eax, DWORD PTR _lpObj$[ebp]
  00aac	8b 08		 mov	 ecx, DWORD PTR [eax]
  00aae	51		 push	 ecx
  00aaf	b9 00 00 00 00	 mov	 ecx, OFFSET ?gObjUseSkill@@3VCObjUseSkill@@A ; gObjUseSkill
  00ab4	e8 00 00 00 00	 call	 ?RemoveCloakingEffect@CObjUseSkill@@QAEHH@Z ; CObjUseSkill::RemoveCloakingEffect
$LN649@Attack:

; 512  : 	}
; 513  : 
; 514  : 	BOOL bDamageReflect = FALSE;

  00ab9	c7 45 ac 00 00
	00 00		 mov	 DWORD PTR _bDamageReflect$[ebp], 0

; 515  : 	
; 516  : 	if ( AttackDamage == 0 )

  00ac0	83 7d 1c 00	 cmp	 DWORD PTR _AttackDamage$[ebp], 0
  00ac4	0f 85 10 47 00
	00		 jne	 $LN648@Attack

; 517  : 	{
; 518  : 		if ( g_ShieldSystemOn == TRUE )

  00aca	83 3d 00 00 00
	00 01		 cmp	 DWORD PTR ?g_ShieldSystemOn@@3HA, 1 ; g_ShieldSystemOn
  00ad1	0f 85 81 00 00
	00		 jne	 $LN647@Attack

; 519  : 		{
; 520  : 			if ( lpObj->Type == OBJ_USER && lpTargetObj->Type == OBJ_USER )

  00ad7	8b 45 08	 mov	 eax, DWORD PTR _lpObj$[ebp]
  00ada	0f b7 48 68	 movzx	 ecx, WORD PTR [eax+104]
  00ade	83 f9 01	 cmp	 ecx, 1
  00ae1	75 3e		 jne	 SHORT $LN646@Attack
  00ae3	8b 45 0c	 mov	 eax, DWORD PTR _lpTargetObj$[ebp]
  00ae6	0f b7 48 68	 movzx	 ecx, WORD PTR [eax+104]
  00aea	83 f9 01	 cmp	 ecx, 1
  00aed	75 32		 jne	 SHORT $LN646@Attack

; 521  : 			{
; 522  : 				if ( !this->MissCheckPvP(lpObj, lpTargetObj, skill, skillSuccess, magicsend, bAllMiss,byBarrageCount) )

  00aef	0f b6 45 24	 movzx	 eax, BYTE PTR _byBarrageCount$[ebp]
  00af3	50		 push	 eax
  00af4	8d 4d b0	 lea	 ecx, DWORD PTR _bAllMiss$[ebp]
  00af7	51		 push	 ecx
  00af8	8b 55 14	 mov	 edx, DWORD PTR _magicsend$[ebp]
  00afb	52		 push	 edx
  00afc	8b 45 f4	 mov	 eax, DWORD PTR _skillSuccess$[ebp]
  00aff	50		 push	 eax
  00b00	8b 4d d8	 mov	 ecx, DWORD PTR _skill$[ebp]
  00b03	51		 push	 ecx
  00b04	8b 55 0c	 mov	 edx, DWORD PTR _lpTargetObj$[ebp]
  00b07	52		 push	 edx
  00b08	8b 45 08	 mov	 eax, DWORD PTR _lpObj$[ebp]
  00b0b	50		 push	 eax
  00b0c	8b 4d f8	 mov	 ecx, DWORD PTR _this$[ebp]
  00b0f	e8 00 00 00 00	 call	 ?MissCheckPvP@CObjBaseAttack@@QAEHPAUOBJECTSTRUCT@@0HHHAAHE@Z ; CObjBaseAttack::MissCheckPvP
  00b14	85 c0		 test	 eax, eax
  00b16	75 07		 jne	 SHORT $LN645@Attack

; 523  : 				{
; 524  : 					return FALSE;

  00b18	33 c0		 xor	 eax, eax
  00b1a	e9 d8 5e 00 00	 jmp	 $LN741@Attack
$LN645@Attack:

; 525  : 				}
; 526  : 			}

  00b1f	eb 35		 jmp	 SHORT $LN643@Attack
$LN646@Attack:

; 527  : 			else if ( !this->MissCheck(lpObj, lpTargetObj, skill, skillSuccess, magicsend, bAllMiss,byBarrageCount) )

  00b21	0f b6 45 24	 movzx	 eax, BYTE PTR _byBarrageCount$[ebp]
  00b25	50		 push	 eax
  00b26	8d 4d b0	 lea	 ecx, DWORD PTR _bAllMiss$[ebp]
  00b29	51		 push	 ecx
  00b2a	8b 55 14	 mov	 edx, DWORD PTR _magicsend$[ebp]
  00b2d	52		 push	 edx
  00b2e	8b 45 f4	 mov	 eax, DWORD PTR _skillSuccess$[ebp]
  00b31	50		 push	 eax
  00b32	8b 4d d8	 mov	 ecx, DWORD PTR _skill$[ebp]
  00b35	51		 push	 ecx
  00b36	8b 55 0c	 mov	 edx, DWORD PTR _lpTargetObj$[ebp]
  00b39	52		 push	 edx
  00b3a	8b 45 08	 mov	 eax, DWORD PTR _lpObj$[ebp]
  00b3d	50		 push	 eax
  00b3e	8b 4d f8	 mov	 ecx, DWORD PTR _this$[ebp]
  00b41	8b 11		 mov	 edx, DWORD PTR [ecx]
  00b43	8b 4d f8	 mov	 ecx, DWORD PTR _this$[ebp]
  00b46	8b 42 04	 mov	 eax, DWORD PTR [edx+4]
  00b49	ff d0		 call	 eax
  00b4b	85 c0		 test	 eax, eax
  00b4d	75 07		 jne	 SHORT $LN643@Attack

; 528  : 			{
; 529  : 				return FALSE;

  00b4f	33 c0		 xor	 eax, eax
  00b51	e9 a1 5e 00 00	 jmp	 $LN741@Attack
$LN643@Attack:

; 530  : 			}
; 531  : 
; 532  : 		}

  00b56	eb 35		 jmp	 SHORT $LN641@Attack
$LN647@Attack:

; 533  : 		else if ( !this->MissCheck(lpObj, lpTargetObj, skill, skillSuccess, magicsend, bAllMiss,byBarrageCount) )

  00b58	0f b6 45 24	 movzx	 eax, BYTE PTR _byBarrageCount$[ebp]
  00b5c	50		 push	 eax
  00b5d	8d 4d b0	 lea	 ecx, DWORD PTR _bAllMiss$[ebp]
  00b60	51		 push	 ecx
  00b61	8b 55 14	 mov	 edx, DWORD PTR _magicsend$[ebp]
  00b64	52		 push	 edx
  00b65	8b 45 f4	 mov	 eax, DWORD PTR _skillSuccess$[ebp]
  00b68	50		 push	 eax
  00b69	8b 4d d8	 mov	 ecx, DWORD PTR _skill$[ebp]
  00b6c	51		 push	 ecx
  00b6d	8b 55 0c	 mov	 edx, DWORD PTR _lpTargetObj$[ebp]
  00b70	52		 push	 edx
  00b71	8b 45 08	 mov	 eax, DWORD PTR _lpObj$[ebp]
  00b74	50		 push	 eax
  00b75	8b 4d f8	 mov	 ecx, DWORD PTR _this$[ebp]
  00b78	8b 11		 mov	 edx, DWORD PTR [ecx]
  00b7a	8b 4d f8	 mov	 ecx, DWORD PTR _this$[ebp]
  00b7d	8b 42 04	 mov	 eax, DWORD PTR [edx+4]
  00b80	ff d0		 call	 eax
  00b82	85 c0		 test	 eax, eax
  00b84	75 07		 jne	 SHORT $LN641@Attack

; 534  : 		{
; 535  : 			return FALSE;

  00b86	33 c0		 xor	 eax, eax
  00b88	e9 6a 5e 00 00	 jmp	 $LN741@Attack
$LN641@Attack:

; 536  : 		}
; 537  : 
; 538  : 		if ( ( skill == 51 || skill == 424 ) &&
; 539  : 			skillIceArrowSuccess == TRUE )

  00b8d	83 7d d8 33	 cmp	 DWORD PTR _skill$[ebp], 51 ; 00000033H
  00b91	74 0d		 je	 SHORT $LN639@Attack
  00b93	81 7d d8 a8 01
	00 00		 cmp	 DWORD PTR _skill$[ebp], 424 ; 000001a8H
  00b9a	0f 85 8e 00 00
	00		 jne	 $LN640@Attack
$LN639@Attack:
  00ba0	83 7d b4 01	 cmp	 DWORD PTR _skillIceArrowSuccess$[ebp], 1
  00ba4	0f 85 84 00 00
	00		 jne	 $LN640@Attack

; 540  : 		{
; 541  : 			gObjApplyBuffEffectDuration(lpTargetObj, AT_ICE_ARROW, 0, 0, 0, 0, 7);

  00baa	6a 07		 push	 7
  00bac	6a 00		 push	 0
  00bae	6a 00		 push	 0
  00bb0	6a 00		 push	 0
  00bb2	6a 00		 push	 0
  00bb4	6a 39		 push	 57			; 00000039H
  00bb6	8b 45 0c	 mov	 eax, DWORD PTR _lpTargetObj$[ebp]
  00bb9	50		 push	 eax
  00bba	e8 00 00 00 00	 call	 ?gObjApplyBuffEffectDuration@@YAEPAUOBJECTSTRUCT@@HEHEHH@Z ; gObjApplyBuffEffectDuration
  00bbf	83 c4 1c	 add	 esp, 28			; 0000001cH

; 542  : 			lpTargetObj->lpAttackObj = lpObj;

  00bc2	8b 45 0c	 mov	 eax, DWORD PTR _lpTargetObj$[ebp]
  00bc5	8b 4d 08	 mov	 ecx, DWORD PTR _lpObj$[ebp]
  00bc8	89 88 d4 03 00
	00		 mov	 DWORD PTR [eax+980], ecx

; 543  : 			lpTargetObj->PathCount = 0;

  00bce	8b 45 0c	 mov	 eax, DWORD PTR _lpTargetObj$[ebp]
  00bd1	c7 80 84 01 00
	00 00 00 00 00	 mov	 DWORD PTR [eax+388], 0

; 544  : 			lpTargetObj->PathStartEnd = 0;

  00bdb	8b 45 0c	 mov	 eax, DWORD PTR _lpTargetObj$[ebp]
  00bde	c6 80 8c 01 00
	00 00		 mov	 BYTE PTR [eax+396], 0

; 545  : 			skillSuccess = TRUE;

  00be5	c7 45 f4 01 00
	00 00		 mov	 DWORD PTR _skillSuccess$[ebp], 1

; 546  : 
; 547  : 			//double :|
; 548  : 			lpTargetObj->PathCount = 0;

  00bec	8b 45 0c	 mov	 eax, DWORD PTR _lpTargetObj$[ebp]
  00bef	c7 80 84 01 00
	00 00 00 00 00	 mov	 DWORD PTR [eax+388], 0

; 549  : 			lpTargetObj->PathStartEnd = 0;

  00bf9	8b 45 0c	 mov	 eax, DWORD PTR _lpTargetObj$[ebp]
  00bfc	c6 80 8c 01 00
	00 00		 mov	 BYTE PTR [eax+396], 0

; 550  : 			skillSuccess = TRUE;

  00c03	c7 45 f4 01 00
	00 00		 mov	 DWORD PTR _skillSuccess$[ebp], 1

; 551  : 
; 552  : 			gObjSetPosition(lpTargetObj->m_Index, lpTargetObj->X, lpTargetObj->Y);

  00c0a	8b 45 0c	 mov	 eax, DWORD PTR _lpTargetObj$[ebp]
  00c0d	0f bf 88 46 01
	00 00		 movsx	 ecx, WORD PTR [eax+326]
  00c14	51		 push	 ecx
  00c15	8b 55 0c	 mov	 edx, DWORD PTR _lpTargetObj$[ebp]
  00c18	0f bf 82 44 01
	00 00		 movsx	 eax, WORD PTR [edx+324]
  00c1f	50		 push	 eax
  00c20	8b 4d 0c	 mov	 ecx, DWORD PTR _lpTargetObj$[ebp]
  00c23	8b 11		 mov	 edx, DWORD PTR [ecx]
  00c25	52		 push	 edx
  00c26	e8 00 00 00 00	 call	 ?gObjSetPosition@@YAXHHH@Z ; gObjSetPosition
  00c2b	83 c4 0c	 add	 esp, 12			; 0000000cH
$LN640@Attack:

; 553  : 		}
; 554  : 
; 555  : 		int targetdefense = this->GetTargetDefense(lpObj, lpTargetObj, MsgDamage);

  00c2e	8d 45 eb	 lea	 eax, DWORD PTR _MsgDamage$[ebp]
  00c31	50		 push	 eax
  00c32	8b 4d 0c	 mov	 ecx, DWORD PTR _lpTargetObj$[ebp]
  00c35	51		 push	 ecx
  00c36	8b 55 08	 mov	 edx, DWORD PTR _lpObj$[ebp]
  00c39	52		 push	 edx
  00c3a	8b 4d f8	 mov	 ecx, DWORD PTR _this$[ebp]
  00c3d	e8 00 00 00 00	 call	 ?GetTargetDefense@CObjBaseAttack@@QAEHPAUOBJECTSTRUCT@@0AAE@Z ; CObjBaseAttack::GetTargetDefense
  00c42	89 45 a8	 mov	 DWORD PTR _targetdefense$240048[ebp], eax

; 556  : 
; 557  : 		//Season4 berserker add-on
; 558  : 		//if(gObjSearchActiveEffect(lpTargetObj, AT_BERSERKER) == 1)
; 559  : 		//{
; 560  : 
; 561  : 		//	//float BerserkerDex = (float)((lpTargetObj->Dexterity + lpTargetObj->AddDexterity) / 3);
; 562  : 		//	float BerserkerEffect = (float)gObjGetActiveEffect(lpTargetObj, 32);
; 563  : 
; 564  : 		//	//float loc24 = (((float)(40.0f) - (float)(BerserkerEffect))/100.0f);
; 565  : 
; 566  : 		//	//loc24 = (0.1f > loc24)?0.1f:loc24;
; 567  : 		//	//targetdefense -= (int)(BerserkerDex * loc24);
; 568  : 		//	//float fDefense = (lpTargetObj->Dexterity+lpTargetObj->AddDexterity)/3;
; 569  : 		//	//float fValue = (float)gObjGetTotalValueOfEffect(lpTargetObj, 32);
; 570  : 		//	//float fPercent = (40- (fValue+lpObj->m_MPSkillOpt.MpsBerserkInc1))/100;
; 571  : 
; 572  : 
; 573  : 		//	targetdefense -= ( targetdefense * ExConfig.Skills.Ex_BerserkerDex ) / 100;
; 574  : 		//}
; 575  : 
; 576  : 		if( gObjSearchActiveEffect(lpTargetObj,AT_BERSERKER) == TRUE)

  00c45	6a 51		 push	 81			; 00000051H
  00c47	8b 45 0c	 mov	 eax, DWORD PTR _lpTargetObj$[ebp]
  00c4a	50		 push	 eax
  00c4b	e8 00 00 00 00	 call	 ?gObjSearchActiveEffect@@YAEPAUOBJECTSTRUCT@@H@Z ; gObjSearchActiveEffect
  00c50	83 c4 08	 add	 esp, 8
  00c53	0f b6 c8	 movzx	 ecx, al
  00c56	83 f9 01	 cmp	 ecx, 1
  00c59	75 3d		 jne	 SHORT $LN638@Attack

; 577  : 		{
; 578  : 			//if(g_SkillAdditionInfo.BerserkerDefenceDivProcent)
; 579  : 			//float fDefense = (lpTargetObj->Dexterity+lpTargetObj->AddDexterity)/3;
; 580  : 			float fValue = (float)gObjGetActiveEffect(lpTargetObj, 32);

  00c5b	6a 20		 push	 32			; 00000020H
  00c5d	8b 45 0c	 mov	 eax, DWORD PTR _lpTargetObj$[ebp]
  00c60	50		 push	 eax
  00c61	e8 00 00 00 00	 call	 ?gObjGetActiveEffect@@YAHPAUOBJECTSTRUCT@@H@Z ; gObjGetActiveEffect
  00c66	83 c4 08	 add	 esp, 8
  00c69	89 85 c8 fc ff
	ff		 mov	 DWORD PTR tv5119[ebp], eax
  00c6f	db 85 c8 fc ff
	ff		 fild	 DWORD PTR tv5119[ebp]
  00c75	d9 5d a4	 fstp	 DWORD PTR _fValue$240050[ebp]

; 581  : 			//float fPercent = (40- (fValue+lpObj->m_MPSkillOpt.MpsBerserkInc1))/100;
; 582  : 			//fPercent = (0.1f > fPercent) ? 0.1f : fPercent;
; 583  : 			targetdefense -= ( targetdefense * g_SkillAdditionInfo.BerserkerDefenceDivProcent ) / 100;

  00c78	0f b7 05 ba 0b
	00 00		 movzx	 eax, WORD PTR ?g_SkillAdditionInfo@@3VCSkillAdditionInfo@@A+3002
  00c7f	0f af 45 a8	 imul	 eax, DWORD PTR _targetdefense$240048[ebp]
  00c83	99		 cdq
  00c84	b9 64 00 00 00	 mov	 ecx, 100		; 00000064H
  00c89	f7 f9		 idiv	 ecx
  00c8b	8b 55 a8	 mov	 edx, DWORD PTR _targetdefense$240048[ebp]
  00c8e	2b d0		 sub	 edx, eax
  00c90	89 55 a8	 mov	 DWORD PTR _targetdefense$240048[ebp], edx

; 584  : 		}
; 585  : 		else if (	gObjSearchActiveEffect(lpTargetObj,150) == TRUE ||

  00c93	e9 83 00 00 00	 jmp	 $LN636@Attack
$LN638@Attack:

; 586  : 					gObjSearchActiveEffect(lpTargetObj,151) == TRUE ||
; 587  : 					gObjSearchActiveEffect(lpTargetObj,152) == TRUE)

  00c98	68 96 00 00 00	 push	 150			; 00000096H
  00c9d	8b 45 0c	 mov	 eax, DWORD PTR _lpTargetObj$[ebp]
  00ca0	50		 push	 eax
  00ca1	e8 00 00 00 00	 call	 ?gObjSearchActiveEffect@@YAEPAUOBJECTSTRUCT@@H@Z ; gObjSearchActiveEffect
  00ca6	83 c4 08	 add	 esp, 8
  00ca9	0f b6 c8	 movzx	 ecx, al
  00cac	83 f9 01	 cmp	 ecx, 1
  00caf	74 32		 je	 SHORT $LN635@Attack
  00cb1	68 97 00 00 00	 push	 151			; 00000097H
  00cb6	8b 45 0c	 mov	 eax, DWORD PTR _lpTargetObj$[ebp]
  00cb9	50		 push	 eax
  00cba	e8 00 00 00 00	 call	 ?gObjSearchActiveEffect@@YAEPAUOBJECTSTRUCT@@H@Z ; gObjSearchActiveEffect
  00cbf	83 c4 08	 add	 esp, 8
  00cc2	0f b6 c8	 movzx	 ecx, al
  00cc5	83 f9 01	 cmp	 ecx, 1
  00cc8	74 19		 je	 SHORT $LN635@Attack
  00cca	68 98 00 00 00	 push	 152			; 00000098H
  00ccf	8b 45 0c	 mov	 eax, DWORD PTR _lpTargetObj$[ebp]
  00cd2	50		 push	 eax
  00cd3	e8 00 00 00 00	 call	 ?gObjSearchActiveEffect@@YAEPAUOBJECTSTRUCT@@H@Z ; gObjSearchActiveEffect
  00cd8	83 c4 08	 add	 esp, 8
  00cdb	0f b6 c8	 movzx	 ecx, al
  00cde	83 f9 01	 cmp	 ecx, 1
  00ce1	75 38		 jne	 SHORT $LN636@Attack
$LN635@Attack:

; 588  : 		{
; 589  : 			//float fDefense = (lpTargetObj->Dexterity+lpTargetObj->AddDexterity)/3;
; 590  : 			float fValue = (float)gObjGetActiveEffect(lpTargetObj, 32);

  00ce3	6a 20		 push	 32			; 00000020H
  00ce5	8b 45 0c	 mov	 eax, DWORD PTR _lpTargetObj$[ebp]
  00ce8	50		 push	 eax
  00ce9	e8 00 00 00 00	 call	 ?gObjGetActiveEffect@@YAHPAUOBJECTSTRUCT@@H@Z ; gObjGetActiveEffect
  00cee	83 c4 08	 add	 esp, 8
  00cf1	89 85 c8 fc ff
	ff		 mov	 DWORD PTR tv5135[ebp], eax
  00cf7	db 85 c8 fc ff
	ff		 fild	 DWORD PTR tv5135[ebp]
  00cfd	d9 5d a0	 fstp	 DWORD PTR _fValue$240055[ebp]

; 591  : 			//float fPercent = (40- (fValue+lpObj->m_MPSkillOpt.MpsBerserkInc1))/100;
; 592  : 			//fPercent = (0.1f > fPercent) ? 0.1f : fPercent;
; 593  : 			targetdefense -= ( targetdefense * g_SkillAdditionInfo.m_BerserkerDefenceDivProcent ) / 100;

  00d00	0f b7 05 c2 0c
	00 00		 movzx	 eax, WORD PTR ?g_SkillAdditionInfo@@3VCSkillAdditionInfo@@A+3266
  00d07	0f af 45 a8	 imul	 eax, DWORD PTR _targetdefense$240048[ebp]
  00d0b	99		 cdq
  00d0c	b9 64 00 00 00	 mov	 ecx, 100		; 00000064H
  00d11	f7 f9		 idiv	 ecx
  00d13	8b 55 a8	 mov	 edx, DWORD PTR _targetdefense$240048[ebp]
  00d16	2b d0		 sub	 edx, eax
  00d18	89 55 a8	 mov	 DWORD PTR _targetdefense$240048[ebp], edx
$LN636@Attack:

; 594  : 		}
; 595  : 
; 596  : 		int iInnovationValue = 0; //Reduce Target Defense

  00d1b	c7 45 9c 00 00
	00 00		 mov	 DWORD PTR _iInnovationValue$240057[ebp], 0

; 597  : 
; 598  : 		gObjUpdateAppliedBuffEffect(lpTargetObj, AT_INNOVATION, &iInnovationValue, 0);

  00d22	6a 00		 push	 0
  00d24	8d 45 9c	 lea	 eax, DWORD PTR _iInnovationValue$240057[ebp]
  00d27	50		 push	 eax
  00d28	6a 4d		 push	 77			; 0000004dH
  00d2a	8b 4d 0c	 mov	 ecx, DWORD PTR _lpTargetObj$[ebp]
  00d2d	51		 push	 ecx
  00d2e	e8 00 00 00 00	 call	 ?gObjUpdateAppliedBuffEffect@@YAEPAUOBJECTSTRUCT@@HPAH1@Z ; gObjUpdateAppliedBuffEffect
  00d33	83 c4 10	 add	 esp, 16			; 00000010H

; 599  : 
; 600  : 		if(iInnovationValue != 0)

  00d36	83 7d 9c 00	 cmp	 DWORD PTR _iInnovationValue$240057[ebp], 0
  00d3a	74 1b		 je	 SHORT $LN634@Attack

; 601  : 		{
; 602  : 			//int Ex_InnovationPower = GetPrivateProfileInt("Summoner","InnovationPower",30,"..\\Data\\ExData\\Skills.ini");
; 603  : 			targetdefense -= ( targetdefense * g_SkillAdditionInfo.InnovationMaxPower ) / 100;

  00d3c	0f b7 05 3a 0c
	00 00		 movzx	 eax, WORD PTR ?g_SkillAdditionInfo@@3VCSkillAdditionInfo@@A+3130
  00d43	0f af 45 a8	 imul	 eax, DWORD PTR _targetdefense$240048[ebp]
  00d47	99		 cdq
  00d48	b9 64 00 00 00	 mov	 ecx, 100		; 00000064H
  00d4d	f7 f9		 idiv	 ecx
  00d4f	8b 55 a8	 mov	 edx, DWORD PTR _targetdefense$240048[ebp]
  00d52	2b d0		 sub	 edx, eax
  00d54	89 55 a8	 mov	 DWORD PTR _targetdefense$240048[ebp], edx
$LN634@Attack:

; 604  : 		}
; 605  : 
; 606  : 		if ( skill == 19
; 607  : 			|| skill == 20
; 608  : 			|| skill == 21
; 609  : 			|| skill == 22
; 610  : 			|| skill == 23
; 611  : 			|| skill == 56
; 612  : 			|| skill == 41
; 613  : 			|| skill == 47
; 614  : 			|| skill == 42
; 615  : 			|| skill == 49
; 616  : 			|| skill == 43
; 617  : 			|| skill == 55
; 618  : 			|| skill == 44
; 619  : 			|| skill == 57
; 620  : 			|| skill == 74
; 621  : 			|| skill == 235
; 622  : 			|| skill == 232
; 623  : 			|| skill == 236
; 624  : 			|| skill == 238
; 625  : 			|| skill == 326
; 626  : 			|| skill == 327
; 627  : 			|| skill == 328
; 628  : 			|| skill == 329
; 629  : 			|| skill == 330
; 630  : 			|| skill == 331
; 631  : 			|| skill == 332
; 632  : 			|| skill == 333
; 633  : 			|| skill == 336
; 634  : 			|| skill == 339
; 635  : 			|| skill == 342
; 636  : 			|| skill == 337
; 637  : 			//case AT_MSKILL_DK_DESTRUCTION2:
; 638  : 			//case AT_MSKILL_DK_DESTRUCTION3:
; 639  : 			|| skill == 344
; 640  : 			|| skill == 346
; 641  : 			|| skill == 411
; 642  : 			|| skill == 431
; 643  : 			|| skill == 479
; 644  : 			|| skill == 481
; 645  : 			|| skill == 493
; 646  : 			//case AT_MSKILL_MG_FIRESLASH2:
; 647  : 			|| skill == 482
; 648  : 			|| skill == 492
; 649  : 			|| skill == 494
; 650  : 			)

  00d57	83 7d d8 13	 cmp	 DWORD PTR _skill$[ebp], 19 ; 00000013H
  00d5b	0f 84 a2 01 00
	00		 je	 $LN632@Attack
  00d61	83 7d d8 14	 cmp	 DWORD PTR _skill$[ebp], 20 ; 00000014H
  00d65	0f 84 98 01 00
	00		 je	 $LN632@Attack
  00d6b	83 7d d8 15	 cmp	 DWORD PTR _skill$[ebp], 21 ; 00000015H
  00d6f	0f 84 8e 01 00
	00		 je	 $LN632@Attack
  00d75	83 7d d8 16	 cmp	 DWORD PTR _skill$[ebp], 22 ; 00000016H
  00d79	0f 84 84 01 00
	00		 je	 $LN632@Attack
  00d7f	83 7d d8 17	 cmp	 DWORD PTR _skill$[ebp], 23 ; 00000017H
  00d83	0f 84 7a 01 00
	00		 je	 $LN632@Attack
  00d89	83 7d d8 38	 cmp	 DWORD PTR _skill$[ebp], 56 ; 00000038H
  00d8d	0f 84 70 01 00
	00		 je	 $LN632@Attack
  00d93	83 7d d8 29	 cmp	 DWORD PTR _skill$[ebp], 41 ; 00000029H
  00d97	0f 84 66 01 00
	00		 je	 $LN632@Attack
  00d9d	83 7d d8 2f	 cmp	 DWORD PTR _skill$[ebp], 47 ; 0000002fH
  00da1	0f 84 5c 01 00
	00		 je	 $LN632@Attack
  00da7	83 7d d8 2a	 cmp	 DWORD PTR _skill$[ebp], 42 ; 0000002aH
  00dab	0f 84 52 01 00
	00		 je	 $LN632@Attack
  00db1	83 7d d8 31	 cmp	 DWORD PTR _skill$[ebp], 49 ; 00000031H
  00db5	0f 84 48 01 00
	00		 je	 $LN632@Attack
  00dbb	83 7d d8 2b	 cmp	 DWORD PTR _skill$[ebp], 43 ; 0000002bH
  00dbf	0f 84 3e 01 00
	00		 je	 $LN632@Attack
  00dc5	83 7d d8 37	 cmp	 DWORD PTR _skill$[ebp], 55 ; 00000037H
  00dc9	0f 84 34 01 00
	00		 je	 $LN632@Attack
  00dcf	83 7d d8 2c	 cmp	 DWORD PTR _skill$[ebp], 44 ; 0000002cH
  00dd3	0f 84 2a 01 00
	00		 je	 $LN632@Attack
  00dd9	83 7d d8 39	 cmp	 DWORD PTR _skill$[ebp], 57 ; 00000039H
  00ddd	0f 84 20 01 00
	00		 je	 $LN632@Attack
  00de3	83 7d d8 4a	 cmp	 DWORD PTR _skill$[ebp], 74 ; 0000004aH
  00de7	0f 84 16 01 00
	00		 je	 $LN632@Attack
  00ded	81 7d d8 eb 00
	00 00		 cmp	 DWORD PTR _skill$[ebp], 235 ; 000000ebH
  00df4	0f 84 09 01 00
	00		 je	 $LN632@Attack
  00dfa	81 7d d8 e8 00
	00 00		 cmp	 DWORD PTR _skill$[ebp], 232 ; 000000e8H
  00e01	0f 84 fc 00 00
	00		 je	 $LN632@Attack
  00e07	81 7d d8 ec 00
	00 00		 cmp	 DWORD PTR _skill$[ebp], 236 ; 000000ecH
  00e0e	0f 84 ef 00 00
	00		 je	 $LN632@Attack
  00e14	81 7d d8 ee 00
	00 00		 cmp	 DWORD PTR _skill$[ebp], 238 ; 000000eeH
  00e1b	0f 84 e2 00 00
	00		 je	 $LN632@Attack
  00e21	81 7d d8 46 01
	00 00		 cmp	 DWORD PTR _skill$[ebp], 326 ; 00000146H
  00e28	0f 84 d5 00 00
	00		 je	 $LN632@Attack
  00e2e	81 7d d8 47 01
	00 00		 cmp	 DWORD PTR _skill$[ebp], 327 ; 00000147H
  00e35	0f 84 c8 00 00
	00		 je	 $LN632@Attack
  00e3b	81 7d d8 48 01
	00 00		 cmp	 DWORD PTR _skill$[ebp], 328 ; 00000148H
  00e42	0f 84 bb 00 00
	00		 je	 $LN632@Attack
  00e48	81 7d d8 49 01
	00 00		 cmp	 DWORD PTR _skill$[ebp], 329 ; 00000149H
  00e4f	0f 84 ae 00 00
	00		 je	 $LN632@Attack
  00e55	81 7d d8 4a 01
	00 00		 cmp	 DWORD PTR _skill$[ebp], 330 ; 0000014aH
  00e5c	0f 84 a1 00 00
	00		 je	 $LN632@Attack
  00e62	81 7d d8 4b 01
	00 00		 cmp	 DWORD PTR _skill$[ebp], 331 ; 0000014bH
  00e69	0f 84 94 00 00
	00		 je	 $LN632@Attack
  00e6f	81 7d d8 4c 01
	00 00		 cmp	 DWORD PTR _skill$[ebp], 332 ; 0000014cH
  00e76	0f 84 87 00 00
	00		 je	 $LN632@Attack
  00e7c	81 7d d8 4d 01
	00 00		 cmp	 DWORD PTR _skill$[ebp], 333 ; 0000014dH
  00e83	74 7e		 je	 SHORT $LN632@Attack
  00e85	81 7d d8 50 01
	00 00		 cmp	 DWORD PTR _skill$[ebp], 336 ; 00000150H
  00e8c	74 75		 je	 SHORT $LN632@Attack
  00e8e	81 7d d8 53 01
	00 00		 cmp	 DWORD PTR _skill$[ebp], 339 ; 00000153H
  00e95	74 6c		 je	 SHORT $LN632@Attack
  00e97	81 7d d8 56 01
	00 00		 cmp	 DWORD PTR _skill$[ebp], 342 ; 00000156H
  00e9e	74 63		 je	 SHORT $LN632@Attack
  00ea0	81 7d d8 51 01
	00 00		 cmp	 DWORD PTR _skill$[ebp], 337 ; 00000151H
  00ea7	74 5a		 je	 SHORT $LN632@Attack
  00ea9	81 7d d8 58 01
	00 00		 cmp	 DWORD PTR _skill$[ebp], 344 ; 00000158H
  00eb0	74 51		 je	 SHORT $LN632@Attack
  00eb2	81 7d d8 5a 01
	00 00		 cmp	 DWORD PTR _skill$[ebp], 346 ; 0000015aH
  00eb9	74 48		 je	 SHORT $LN632@Attack
  00ebb	81 7d d8 9b 01
	00 00		 cmp	 DWORD PTR _skill$[ebp], 411 ; 0000019bH
  00ec2	74 3f		 je	 SHORT $LN632@Attack
  00ec4	81 7d d8 af 01
	00 00		 cmp	 DWORD PTR _skill$[ebp], 431 ; 000001afH
  00ecb	74 36		 je	 SHORT $LN632@Attack
  00ecd	81 7d d8 df 01
	00 00		 cmp	 DWORD PTR _skill$[ebp], 479 ; 000001dfH
  00ed4	74 2d		 je	 SHORT $LN632@Attack
  00ed6	81 7d d8 e1 01
	00 00		 cmp	 DWORD PTR _skill$[ebp], 481 ; 000001e1H
  00edd	74 24		 je	 SHORT $LN632@Attack
  00edf	81 7d d8 ed 01
	00 00		 cmp	 DWORD PTR _skill$[ebp], 493 ; 000001edH
  00ee6	74 1b		 je	 SHORT $LN632@Attack
  00ee8	81 7d d8 e2 01
	00 00		 cmp	 DWORD PTR _skill$[ebp], 482 ; 000001e2H
  00eef	74 12		 je	 SHORT $LN632@Attack
  00ef1	81 7d d8 ec 01
	00 00		 cmp	 DWORD PTR _skill$[ebp], 492 ; 000001ecH
  00ef8	74 09		 je	 SHORT $LN632@Attack
  00efa	81 7d d8 ee 01
	00 00		 cmp	 DWORD PTR _skill$[ebp], 494 ; 000001eeH
  00f01	75 3c		 jne	 SHORT $LN633@Attack
$LN632@Attack:

; 651  : 		{
; 652  : 			AttackDamage = this->GetAttackDamage(lpObj, targetdefense, MsgDamage, bIsOnDuel, lpMagic);

  00f03	8b 45 10	 mov	 eax, DWORD PTR _lpMagic$[ebp]
  00f06	50		 push	 eax
  00f07	8b 4d b8	 mov	 ecx, DWORD PTR _bIsOnDuel$[ebp]
  00f0a	51		 push	 ecx
  00f0b	8d 55 eb	 lea	 edx, DWORD PTR _MsgDamage$[ebp]
  00f0e	52		 push	 edx
  00f0f	8b 45 a8	 mov	 eax, DWORD PTR _targetdefense$240048[ebp]
  00f12	50		 push	 eax
  00f13	8b 4d 08	 mov	 ecx, DWORD PTR _lpObj$[ebp]
  00f16	51		 push	 ecx
  00f17	8b 4d f8	 mov	 ecx, DWORD PTR _this$[ebp]
  00f1a	e8 00 00 00 00	 call	 ?GetAttackDamage@CObjAttack@@QAEHPAUOBJECTSTRUCT@@HAAEHPAVCMagicInf@@@Z ; CObjAttack::GetAttackDamage
  00f1f	89 45 1c	 mov	 DWORD PTR _AttackDamage$[ebp], eax

; 653  : 
; 654  : 			if ( AttackDamage > 0 )

  00f22	83 7d 1c 00	 cmp	 DWORD PTR _AttackDamage$[ebp], 0
  00f26	7e 12		 jle	 SHORT $LN631@Attack

; 655  : 			{
; 656  : 				gObjWeaponDurDown(lpObj, lpTargetObj, 0);

  00f28	6a 00		 push	 0
  00f2a	8b 45 0c	 mov	 eax, DWORD PTR _lpTargetObj$[ebp]
  00f2d	50		 push	 eax
  00f2e	8b 4d 08	 mov	 ecx, DWORD PTR _lpObj$[ebp]
  00f31	51		 push	 ecx
  00f32	e8 00 00 00 00	 call	 ?gObjWeaponDurDown@@YAXPAUOBJECTSTRUCT@@0H@Z ; gObjWeaponDurDown
  00f37	83 c4 0c	 add	 esp, 12			; 0000000cH
$LN631@Attack:

; 657  : 			}
; 658  : 		}

  00f3a	e9 36 04 00 00	 jmp	 $LN612@Attack
$LN633@Attack:

; 659  : 		else if ( skill == 76 )	// pluzzmanton

  00f3f	83 7d d8 4c	 cmp	 DWORD PTR _skill$[ebp], 76 ; 0000004cH
  00f43	0f 85 e6 02 00
	00		 jne	 $LN629@Attack

; 660  : 		{
; 661  : 			int iFenrirAttackDmg = 0;

  00f49	c7 45 98 00 00
	00 00		 mov	 DWORD PTR _iFenrirAttackDmg$240064[ebp], 0

; 662  : 
; 663  : 			if ( lpObj->Class == CLASS_KNIGHT || lpObj->Class == CLASS_MAGUMSA )

  00f50	8b 45 08	 mov	 eax, DWORD PTR _lpObj$[ebp]
  00f53	0f b7 88 b8 00
	00 00		 movzx	 ecx, WORD PTR [eax+184]
  00f5a	83 f9 01	 cmp	 ecx, 1
  00f5d	74 0f		 je	 SHORT $LN627@Attack
  00f5f	8b 45 08	 mov	 eax, DWORD PTR _lpObj$[ebp]
  00f62	0f b7 88 b8 00
	00 00		 movzx	 ecx, WORD PTR [eax+184]
  00f69	83 f9 03	 cmp	 ecx, 3
  00f6c	75 58		 jne	 SHORT $LN628@Attack
$LN627@Attack:

; 664  : 			{
; 665  : 				iFenrirAttackDmg = lpObj->Strength / 3 + lpObj->Dexterity / 5 + lpObj->Vitality / 5 + lpObj->Energy / 7;	// #formula

  00f6e	8b 45 08	 mov	 eax, DWORD PTR _lpObj$[ebp]
  00f71	0f b7 80 f4 00
	00 00		 movzx	 eax, WORD PTR [eax+244]
  00f78	99		 cdq
  00f79	b9 03 00 00 00	 mov	 ecx, 3
  00f7e	f7 f9		 idiv	 ecx
  00f80	8b c8		 mov	 ecx, eax
  00f82	8b 55 08	 mov	 edx, DWORD PTR _lpObj$[ebp]
  00f85	0f b7 82 f6 00
	00 00		 movzx	 eax, WORD PTR [edx+246]
  00f8c	99		 cdq
  00f8d	be 05 00 00 00	 mov	 esi, 5
  00f92	f7 fe		 idiv	 esi
  00f94	03 c8		 add	 ecx, eax
  00f96	8b 45 08	 mov	 eax, DWORD PTR _lpObj$[ebp]
  00f99	0f b7 80 f8 00
	00 00		 movzx	 eax, WORD PTR [eax+248]
  00fa0	99		 cdq
  00fa1	be 05 00 00 00	 mov	 esi, 5
  00fa6	f7 fe		 idiv	 esi
  00fa8	03 c8		 add	 ecx, eax
  00faa	8b 55 08	 mov	 edx, DWORD PTR _lpObj$[ebp]
  00fad	0f b7 82 fa 00
	00 00		 movzx	 eax, WORD PTR [edx+250]
  00fb4	99		 cdq
  00fb5	be 07 00 00 00	 mov	 esi, 7
  00fba	f7 fe		 idiv	 esi
  00fbc	03 c8		 add	 ecx, eax
  00fbe	89 4d 98	 mov	 DWORD PTR _iFenrirAttackDmg$240064[ebp], ecx
  00fc1	e9 31 01 00 00	 jmp	 $LN622@Attack
$LN628@Attack:

; 666  : 			}
; 667  : 			else if ( lpObj->Class == CLASS_WIZARD )

  00fc6	8b 45 08	 mov	 eax, DWORD PTR _lpObj$[ebp]
  00fc9	0f b7 88 b8 00
	00 00		 movzx	 ecx, WORD PTR [eax+184]
  00fd0	85 c9		 test	 ecx, ecx
  00fd2	75 58		 jne	 SHORT $LN625@Attack

; 668  : 			{
; 669  : 				iFenrirAttackDmg = lpObj->Strength / 5 + lpObj->Dexterity / 5 + lpObj->Vitality / 7 + lpObj->Energy / 3;	// #formula

  00fd4	8b 45 08	 mov	 eax, DWORD PTR _lpObj$[ebp]
  00fd7	0f b7 80 f4 00
	00 00		 movzx	 eax, WORD PTR [eax+244]
  00fde	99		 cdq
  00fdf	b9 05 00 00 00	 mov	 ecx, 5
  00fe4	f7 f9		 idiv	 ecx
  00fe6	8b c8		 mov	 ecx, eax
  00fe8	8b 55 08	 mov	 edx, DWORD PTR _lpObj$[ebp]
  00feb	0f b7 82 f6 00
	00 00		 movzx	 eax, WORD PTR [edx+246]
  00ff2	99		 cdq
  00ff3	be 05 00 00 00	 mov	 esi, 5
  00ff8	f7 fe		 idiv	 esi
  00ffa	03 c8		 add	 ecx, eax
  00ffc	8b 45 08	 mov	 eax, DWORD PTR _lpObj$[ebp]
  00fff	0f b7 80 f8 00
	00 00		 movzx	 eax, WORD PTR [eax+248]
  01006	99		 cdq
  01007	be 07 00 00 00	 mov	 esi, 7
  0100c	f7 fe		 idiv	 esi
  0100e	03 c8		 add	 ecx, eax
  01010	8b 55 08	 mov	 edx, DWORD PTR _lpObj$[ebp]
  01013	0f b7 82 fa 00
	00 00		 movzx	 eax, WORD PTR [edx+250]
  0101a	99		 cdq
  0101b	be 03 00 00 00	 mov	 esi, 3
  01020	f7 fe		 idiv	 esi
  01022	03 c8		 add	 ecx, eax
  01024	89 4d 98	 mov	 DWORD PTR _iFenrirAttackDmg$240064[ebp], ecx
  01027	e9 cb 00 00 00	 jmp	 $LN622@Attack
$LN625@Attack:

; 670  : 			}
; 671  : 			else if ( lpObj->Class == CLASS_ELF )

  0102c	8b 45 08	 mov	 eax, DWORD PTR _lpObj$[ebp]
  0102f	0f b7 88 b8 00
	00 00		 movzx	 ecx, WORD PTR [eax+184]
  01036	83 f9 02	 cmp	 ecx, 2
  01039	75 55		 jne	 SHORT $LN623@Attack

; 672  : 			{
; 673  : 				iFenrirAttackDmg = lpObj->Strength / 5 + lpObj->Dexterity / 3 + lpObj->Vitality / 7 + lpObj->Energy / 5;	// #formula

  0103b	8b 45 08	 mov	 eax, DWORD PTR _lpObj$[ebp]
  0103e	0f b7 80 f4 00
	00 00		 movzx	 eax, WORD PTR [eax+244]
  01045	99		 cdq
  01046	b9 05 00 00 00	 mov	 ecx, 5
  0104b	f7 f9		 idiv	 ecx
  0104d	8b c8		 mov	 ecx, eax
  0104f	8b 55 08	 mov	 edx, DWORD PTR _lpObj$[ebp]
  01052	0f b7 82 f6 00
	00 00		 movzx	 eax, WORD PTR [edx+246]
  01059	99		 cdq
  0105a	be 03 00 00 00	 mov	 esi, 3
  0105f	f7 fe		 idiv	 esi
  01061	03 c8		 add	 ecx, eax
  01063	8b 45 08	 mov	 eax, DWORD PTR _lpObj$[ebp]
  01066	0f b7 80 f8 00
	00 00		 movzx	 eax, WORD PTR [eax+248]
  0106d	99		 cdq
  0106e	be 07 00 00 00	 mov	 esi, 7
  01073	f7 fe		 idiv	 esi
  01075	03 c8		 add	 ecx, eax
  01077	8b 55 08	 mov	 edx, DWORD PTR _lpObj$[ebp]
  0107a	0f b7 82 fa 00
	00 00		 movzx	 eax, WORD PTR [edx+250]
  01081	99		 cdq
  01082	be 05 00 00 00	 mov	 esi, 5
  01087	f7 fe		 idiv	 esi
  01089	03 c8		 add	 ecx, eax
  0108b	89 4d 98	 mov	 DWORD PTR _iFenrirAttackDmg$240064[ebp], ecx

; 674  : 			}
; 675  : 			else	// Dark Lord

  0108e	eb 67		 jmp	 SHORT $LN622@Attack
$LN623@Attack:

; 676  : 			{
; 677  : 				iFenrirAttackDmg = lpObj->Strength / 5 + lpObj->Dexterity / 5 + lpObj->Vitality / 7 + lpObj->Energy / 3 + lpObj->Leadership / 3;	// #formula

  01090	8b 45 08	 mov	 eax, DWORD PTR _lpObj$[ebp]
  01093	0f b7 80 f4 00
	00 00		 movzx	 eax, WORD PTR [eax+244]
  0109a	99		 cdq
  0109b	b9 05 00 00 00	 mov	 ecx, 5
  010a0	f7 f9		 idiv	 ecx
  010a2	8b c8		 mov	 ecx, eax
  010a4	8b 55 08	 mov	 edx, DWORD PTR _lpObj$[ebp]
  010a7	0f b7 82 f6 00
	00 00		 movzx	 eax, WORD PTR [edx+246]
  010ae	99		 cdq
  010af	be 05 00 00 00	 mov	 esi, 5
  010b4	f7 fe		 idiv	 esi
  010b6	03 c8		 add	 ecx, eax
  010b8	8b 45 08	 mov	 eax, DWORD PTR _lpObj$[ebp]
  010bb	0f b7 80 f8 00
	00 00		 movzx	 eax, WORD PTR [eax+248]
  010c2	99		 cdq
  010c3	be 07 00 00 00	 mov	 esi, 7
  010c8	f7 fe		 idiv	 esi
  010ca	03 c8		 add	 ecx, eax
  010cc	8b 55 08	 mov	 edx, DWORD PTR _lpObj$[ebp]
  010cf	0f b7 82 fa 00
	00 00		 movzx	 eax, WORD PTR [edx+250]
  010d6	99		 cdq
  010d7	be 03 00 00 00	 mov	 esi, 3
  010dc	f7 fe		 idiv	 esi
  010de	03 c8		 add	 ecx, eax
  010e0	8b 45 08	 mov	 eax, DWORD PTR _lpObj$[ebp]
  010e3	0f b7 80 18 01
	00 00		 movzx	 eax, WORD PTR [eax+280]
  010ea	99		 cdq
  010eb	be 03 00 00 00	 mov	 esi, 3
  010f0	f7 fe		 idiv	 esi
  010f2	03 c8		 add	 ecx, eax
  010f4	89 4d 98	 mov	 DWORD PTR _iFenrirAttackDmg$240064[ebp], ecx
$LN622@Attack:

; 678  : 			}
; 679  : 
; 680  : 			if ( iFenrirAttackDmg < 0 )

  010f7	83 7d 98 00	 cmp	 DWORD PTR _iFenrirAttackDmg$240064[ebp], 0
  010fb	7d 07		 jge	 SHORT $LN621@Attack

; 681  : 			{
; 682  : 				iFenrirAttackDmg = 0;

  010fd	c7 45 98 00 00
	00 00		 mov	 DWORD PTR _iFenrirAttackDmg$240064[ebp], 0
$LN621@Attack:

; 683  : 			}
; 684  : 
; 685  : 			if ( lpObj->m_CriticalDamage > 0 )

  01104	8b 45 08	 mov	 eax, DWORD PTR _lpObj$[ebp]
  01107	83 b8 bc 04 00
	00 00		 cmp	 DWORD PTR [eax+1212], 0
  0110e	7e 1c		 jle	 SHORT $LN619@Attack

; 686  : 			{
; 687  : 				if ( (rand()%100) < lpObj->m_CriticalDamage )

  01110	e8 00 00 00 00	 call	 _rand
  01115	99		 cdq
  01116	b9 64 00 00 00	 mov	 ecx, 100		; 00000064H
  0111b	f7 f9		 idiv	 ecx
  0111d	8b 45 08	 mov	 eax, DWORD PTR _lpObj$[ebp]
  01120	3b 90 bc 04 00
	00		 cmp	 edx, DWORD PTR [eax+1212]
  01126	7d 04		 jge	 SHORT $LN619@Attack

; 688  : 				{
; 689  : 					MsgDamage = 3;

  01128	c6 45 eb 03	 mov	 BYTE PTR _MsgDamage$[ebp], 3
$LN619@Attack:

; 690  : 				}
; 691  : 			}
; 692  : 
; 693  : 			if ( lpObj->m_ExcelentDamage > 0 )

  0112c	8b 45 08	 mov	 eax, DWORD PTR _lpObj$[ebp]
  0112f	83 b8 c0 04 00
	00 00		 cmp	 DWORD PTR [eax+1216], 0
  01136	7e 1c		 jle	 SHORT $LN617@Attack

; 694  : 			{
; 695  : 				if ( (rand()%100) < lpObj->m_ExcelentDamage )

  01138	e8 00 00 00 00	 call	 _rand
  0113d	99		 cdq
  0113e	b9 64 00 00 00	 mov	 ecx, 100		; 00000064H
  01143	f7 f9		 idiv	 ecx
  01145	8b 45 08	 mov	 eax, DWORD PTR _lpObj$[ebp]
  01148	3b 90 c0 04 00
	00		 cmp	 edx, DWORD PTR [eax+1216]
  0114e	7d 04		 jge	 SHORT $LN617@Attack

; 696  : 				{
; 697  : 					MsgDamage = 2;

  01150	c6 45 eb 02	 mov	 BYTE PTR _MsgDamage$[ebp], 2
$LN617@Attack:

; 698  : 				}
; 699  : 			}
; 700  : 
; 701  : 			if ( MsgDamage == 3 )	// Critical Damage

  01154	0f b6 45 eb	 movzx	 eax, BYTE PTR _MsgDamage$[ebp]
  01158	83 f8 03	 cmp	 eax, 3
  0115b	75 5b		 jne	 SHORT $LN616@Attack

; 702  : 			{
; 703  : 				AttackDamage =  iFenrirAttackDmg + lpMagic->m_DamageMax;

  0115d	8b 45 10	 mov	 eax, DWORD PTR _lpMagic$[ebp]
  01160	8b 4d 98	 mov	 ecx, DWORD PTR _iFenrirAttackDmg$240064[ebp]
  01163	03 48 10	 add	 ecx, DWORD PTR [eax+16]
  01166	89 4d 1c	 mov	 DWORD PTR _AttackDamage$[ebp], ecx

; 704  : 				AttackDamage += lpObj->SetOpAddCriticalDamage;

  01169	8b 45 08	 mov	 eax, DWORD PTR _lpObj$[ebp]
  0116c	0f bf 88 2a 11
	00 00		 movsx	 ecx, WORD PTR [eax+4394]
  01173	03 4d 1c	 add	 ecx, DWORD PTR _AttackDamage$[ebp]
  01176	89 4d 1c	 mov	 DWORD PTR _AttackDamage$[ebp], ecx

; 705  : 
; 706  : 				int iCriticalDamageValue = 0;

  01179	c7 45 94 00 00
	00 00		 mov	 DWORD PTR _iCriticalDamageValue$240094[ebp], 0

; 707  : 				gObjUpdateAppliedBuffEffect(lpObj, AT_INCREASE_CRITICAL_DMG, &iCriticalDamageValue, 0);

  01180	6a 00		 push	 0
  01182	8d 45 94	 lea	 eax, DWORD PTR _iCriticalDamageValue$240094[ebp]
  01185	50		 push	 eax
  01186	6a 05		 push	 5
  01188	8b 4d 08	 mov	 ecx, DWORD PTR _lpObj$[ebp]
  0118b	51		 push	 ecx
  0118c	e8 00 00 00 00	 call	 ?gObjUpdateAppliedBuffEffect@@YAEPAUOBJECTSTRUCT@@HPAH1@Z ; gObjUpdateAppliedBuffEffect
  01191	83 c4 10	 add	 esp, 16			; 00000010H

; 708  : 
; 709  : 				AttackDamage += iCriticalDamageValue;

  01194	8b 45 1c	 mov	 eax, DWORD PTR _AttackDamage$[ebp]
  01197	03 45 94	 add	 eax, DWORD PTR _iCriticalDamageValue$240094[ebp]
  0119a	89 45 1c	 mov	 DWORD PTR _AttackDamage$[ebp], eax

; 710  : 				AttackDamage += lpObj->m_JewelOfHarmonyEffect.HJOpAddCriticalDamage;

  0119d	8b 45 08	 mov	 eax, DWORD PTR _lpObj$[ebp]
  011a0	0f bf 88 e2 1f
	00 00		 movsx	 ecx, WORD PTR [eax+8162]
  011a7	03 4d 1c	 add	 ecx, DWORD PTR _AttackDamage$[ebp]
  011aa	89 4d 1c	 mov	 DWORD PTR _AttackDamage$[ebp], ecx

; 711  : 				AttackDamage -= targetdefense;

  011ad	8b 45 1c	 mov	 eax, DWORD PTR _AttackDamage$[ebp]
  011b0	2b 45 a8	 sub	 eax, DWORD PTR _targetdefense$240048[ebp]
  011b3	89 45 1c	 mov	 DWORD PTR _AttackDamage$[ebp], eax
  011b6	eb 72		 jmp	 SHORT $LN613@Attack
$LN616@Attack:

; 712  : 			}
; 713  : 			else if ( MsgDamage == 2 )	// Excellent

  011b8	0f b6 45 eb	 movzx	 eax, BYTE PTR _MsgDamage$[ebp]
  011bc	83 f8 02	 cmp	 eax, 2
  011bf	75 3b		 jne	 SHORT $LN614@Attack

; 714  : 			{
; 715  : 				AttackDamage = iFenrirAttackDmg + lpMagic->m_DamageMax;

  011c1	8b 45 10	 mov	 eax, DWORD PTR _lpMagic$[ebp]
  011c4	8b 4d 98	 mov	 ecx, DWORD PTR _iFenrirAttackDmg$240064[ebp]
  011c7	03 48 10	 add	 ecx, DWORD PTR [eax+16]
  011ca	89 4d 1c	 mov	 DWORD PTR _AttackDamage$[ebp], ecx

; 716  : 				AttackDamage += AttackDamage * 20 / 100;

  011cd	8b 45 1c	 mov	 eax, DWORD PTR _AttackDamage$[ebp]
  011d0	6b c0 14	 imul	 eax, 20			; 00000014H
  011d3	99		 cdq
  011d4	b9 64 00 00 00	 mov	 ecx, 100		; 00000064H
  011d9	f7 f9		 idiv	 ecx
  011db	03 45 1c	 add	 eax, DWORD PTR _AttackDamage$[ebp]
  011de	89 45 1c	 mov	 DWORD PTR _AttackDamage$[ebp], eax

; 717  : 				AttackDamage += lpObj->SetOpAddExDamage;

  011e1	8b 45 08	 mov	 eax, DWORD PTR _lpObj$[ebp]
  011e4	0f bf 88 26 11
	00 00		 movsx	 ecx, WORD PTR [eax+4390]
  011eb	03 4d 1c	 add	 ecx, DWORD PTR _AttackDamage$[ebp]
  011ee	89 4d 1c	 mov	 DWORD PTR _AttackDamage$[ebp], ecx

; 718  : 				AttackDamage -= targetdefense;

  011f1	8b 45 1c	 mov	 eax, DWORD PTR _AttackDamage$[ebp]
  011f4	2b 45 a8	 sub	 eax, DWORD PTR _targetdefense$240048[ebp]
  011f7	89 45 1c	 mov	 DWORD PTR _AttackDamage$[ebp], eax

; 719  : 			}
; 720  : 			else

  011fa	eb 2e		 jmp	 SHORT $LN613@Attack
$LN614@Attack:

; 721  : 			{
; 722  : 				AttackDamage = (iFenrirAttackDmg + lpMagic->m_DamageMin) + (rand()%(lpMagic->m_DamageMax - lpMagic->m_DamageMin + 1));

  011fc	8b 45 10	 mov	 eax, DWORD PTR _lpMagic$[ebp]
  011ff	8b 75 98	 mov	 esi, DWORD PTR _iFenrirAttackDmg$240064[ebp]
  01202	03 70 0c	 add	 esi, DWORD PTR [eax+12]
  01205	e8 00 00 00 00	 call	 _rand
  0120a	8b 4d 10	 mov	 ecx, DWORD PTR _lpMagic$[ebp]
  0120d	8b 55 10	 mov	 edx, DWORD PTR _lpMagic$[ebp]
  01210	8b 49 10	 mov	 ecx, DWORD PTR [ecx+16]
  01213	2b 4a 0c	 sub	 ecx, DWORD PTR [edx+12]
  01216	83 c1 01	 add	 ecx, 1
  01219	99		 cdq
  0121a	f7 f9		 idiv	 ecx
  0121c	03 f2		 add	 esi, edx
  0121e	89 75 1c	 mov	 DWORD PTR _AttackDamage$[ebp], esi

; 723  : 				AttackDamage -= targetdefense;

  01221	8b 45 1c	 mov	 eax, DWORD PTR _AttackDamage$[ebp]
  01224	2b 45 a8	 sub	 eax, DWORD PTR _targetdefense$240048[ebp]
  01227	89 45 1c	 mov	 DWORD PTR _AttackDamage$[ebp], eax
$LN613@Attack:

; 724  : 			}
; 725  : 		}
; 726  : 		else

  0122a	e9 46 01 00 00	 jmp	 $LN612@Attack
$LN629@Attack:

; 727  : 		{
; 728  : 			
; 729  : 			if ( ( lpObj->Class == CLASS_WIZARD || lpObj->Class == CLASS_MAGUMSA ) && skill )

  0122f	8b 45 08	 mov	 eax, DWORD PTR _lpObj$[ebp]
  01232	0f b7 88 b8 00
	00 00		 movzx	 ecx, WORD PTR [eax+184]
  01239	85 c9		 test	 ecx, ecx
  0123b	74 0f		 je	 SHORT $LN610@Attack
  0123d	8b 45 08	 mov	 eax, DWORD PTR _lpObj$[ebp]
  01240	0f b7 88 b8 00
	00 00		 movzx	 ecx, WORD PTR [eax+184]
  01247	83 f9 03	 cmp	 ecx, 3
  0124a	75 42		 jne	 SHORT $LN611@Attack
$LN610@Attack:
  0124c	83 7d d8 00	 cmp	 DWORD PTR _skill$[ebp], 0
  01250	74 3c		 je	 SHORT $LN611@Attack

; 730  : 			{
; 731  : 				AttackDamage = this->GetAttackDamageWizard(lpObj, targetdefense, lpMagic, MsgDamage, bIsOnDuel);

  01252	8b 45 b8	 mov	 eax, DWORD PTR _bIsOnDuel$[ebp]
  01255	50		 push	 eax
  01256	8d 4d eb	 lea	 ecx, DWORD PTR _MsgDamage$[ebp]
  01259	51		 push	 ecx
  0125a	8b 55 10	 mov	 edx, DWORD PTR _lpMagic$[ebp]
  0125d	52		 push	 edx
  0125e	8b 45 a8	 mov	 eax, DWORD PTR _targetdefense$240048[ebp]
  01261	50		 push	 eax
  01262	8b 4d 08	 mov	 ecx, DWORD PTR _lpObj$[ebp]
  01265	51		 push	 ecx
  01266	8b 4d f8	 mov	 ecx, DWORD PTR _this$[ebp]
  01269	e8 00 00 00 00	 call	 ?GetAttackDamageWizard@CObjAttack@@QAEHPAUOBJECTSTRUCT@@HPAVCMagicInf@@AAEH@Z ; CObjAttack::GetAttackDamageWizard
  0126e	89 45 1c	 mov	 DWORD PTR _AttackDamage$[ebp], eax

; 732  : 
; 733  : 				if ( AttackDamage > 0 )

  01271	83 7d 1c 00	 cmp	 DWORD PTR _AttackDamage$[ebp], 0
  01275	7e 12		 jle	 SHORT $LN609@Attack

; 734  : 				{
; 735  : 					gObjWeaponDurDown(lpObj, lpTargetObj, 1);

  01277	6a 01		 push	 1
  01279	8b 45 0c	 mov	 eax, DWORD PTR _lpTargetObj$[ebp]
  0127c	50		 push	 eax
  0127d	8b 4d 08	 mov	 ecx, DWORD PTR _lpObj$[ebp]
  01280	51		 push	 ecx
  01281	e8 00 00 00 00	 call	 ?gObjWeaponDurDown@@YAXPAUOBJECTSTRUCT@@0H@Z ; gObjWeaponDurDown
  01286	83 c4 0c	 add	 esp, 12			; 0000000cH
$LN609@Attack:

; 736  : 				}
; 737  : 			}

  01289	e9 cd 00 00 00	 jmp	 $LN601@Attack
$LN611@Attack:

; 738  : 			else if ( lpObj->Class == CLASS_SUMMONER && skill ) //Summoner

  0128e	8b 45 08	 mov	 eax, DWORD PTR _lpObj$[ebp]
  01291	0f b7 88 b8 00
	00 00		 movzx	 ecx, WORD PTR [eax+184]
  01298	83 f9 05	 cmp	 ecx, 5
  0129b	75 3f		 jne	 SHORT $LN607@Attack
  0129d	83 7d d8 00	 cmp	 DWORD PTR _skill$[ebp], 0
  012a1	74 39		 je	 SHORT $LN607@Attack

; 739  : 			{
; 740  : 				AttackDamage = this->GetAttackDamageSummoner(lpObj, targetdefense, lpMagic, MsgDamage, bIsOnDuel);

  012a3	8b 45 b8	 mov	 eax, DWORD PTR _bIsOnDuel$[ebp]
  012a6	50		 push	 eax
  012a7	8d 4d eb	 lea	 ecx, DWORD PTR _MsgDamage$[ebp]
  012aa	51		 push	 ecx
  012ab	8b 55 10	 mov	 edx, DWORD PTR _lpMagic$[ebp]
  012ae	52		 push	 edx
  012af	8b 45 a8	 mov	 eax, DWORD PTR _targetdefense$240048[ebp]
  012b2	50		 push	 eax
  012b3	8b 4d 08	 mov	 ecx, DWORD PTR _lpObj$[ebp]
  012b6	51		 push	 ecx
  012b7	8b 4d f8	 mov	 ecx, DWORD PTR _this$[ebp]
  012ba	e8 00 00 00 00	 call	 ?GetAttackDamageSummoner@CObjAttack@@QAEHPAUOBJECTSTRUCT@@HPAVCMagicInf@@AAEH@Z ; CObjAttack::GetAttackDamageSummoner
  012bf	89 45 1c	 mov	 DWORD PTR _AttackDamage$[ebp], eax

; 741  : 
; 742  : 				if ( AttackDamage > 0 )

  012c2	83 7d 1c 00	 cmp	 DWORD PTR _AttackDamage$[ebp], 0
  012c6	7e 12		 jle	 SHORT $LN606@Attack

; 743  : 				{
; 744  : 					gObjWeaponDurDown(lpObj, lpTargetObj, 1);

  012c8	6a 01		 push	 1
  012ca	8b 45 0c	 mov	 eax, DWORD PTR _lpTargetObj$[ebp]
  012cd	50		 push	 eax
  012ce	8b 4d 08	 mov	 ecx, DWORD PTR _lpObj$[ebp]
  012d1	51		 push	 ecx
  012d2	e8 00 00 00 00	 call	 ?gObjWeaponDurDown@@YAXPAUOBJECTSTRUCT@@0H@Z ; gObjWeaponDurDown
  012d7	83 c4 0c	 add	 esp, 12			; 0000000cH
$LN606@Attack:

; 745  : 				}
; 746  : 			}

  012da	eb 7f		 jmp	 SHORT $LN601@Attack
$LN607@Attack:

; 747  : #ifdef MONK
; 748  : 			else if( lpObj->Class == CLASS_MONK )

  012dc	8b 45 08	 mov	 eax, DWORD PTR _lpObj$[ebp]
  012df	0f b7 88 b8 00
	00 00		 movzx	 ecx, WORD PTR [eax+184]
  012e6	83 f9 06	 cmp	 ecx, 6
  012e9	75 39		 jne	 SHORT $LN604@Attack

; 749  : 			{
; 750  : 				AttackDamage = GetAttackDamage(lpObj, targetdefense, MsgDamage, bIsOnDuel, lpMagic);

  012eb	8b 45 10	 mov	 eax, DWORD PTR _lpMagic$[ebp]
  012ee	50		 push	 eax
  012ef	8b 4d b8	 mov	 ecx, DWORD PTR _bIsOnDuel$[ebp]
  012f2	51		 push	 ecx
  012f3	8d 55 eb	 lea	 edx, DWORD PTR _MsgDamage$[ebp]
  012f6	52		 push	 edx
  012f7	8b 45 a8	 mov	 eax, DWORD PTR _targetdefense$240048[ebp]
  012fa	50		 push	 eax
  012fb	8b 4d 08	 mov	 ecx, DWORD PTR _lpObj$[ebp]
  012fe	51		 push	 ecx
  012ff	8b 4d f8	 mov	 ecx, DWORD PTR _this$[ebp]
  01302	e8 00 00 00 00	 call	 ?GetAttackDamage@CObjAttack@@QAEHPAUOBJECTSTRUCT@@HAAEHPAVCMagicInf@@@Z ; CObjAttack::GetAttackDamage
  01307	89 45 1c	 mov	 DWORD PTR _AttackDamage$[ebp], eax

; 751  : 	
; 752  : 				if ( AttackDamage > 0 )

  0130a	83 7d 1c 00	 cmp	 DWORD PTR _AttackDamage$[ebp], 0
  0130e	7e 12		 jle	 SHORT $LN603@Attack

; 753  : 				{
; 754  : 					gObjWeaponDurDown(lpObj, lpTargetObj, 0);

  01310	6a 00		 push	 0
  01312	8b 45 0c	 mov	 eax, DWORD PTR _lpTargetObj$[ebp]
  01315	50		 push	 eax
  01316	8b 4d 08	 mov	 ecx, DWORD PTR _lpObj$[ebp]
  01319	51		 push	 ecx
  0131a	e8 00 00 00 00	 call	 ?gObjWeaponDurDown@@YAXPAUOBJECTSTRUCT@@0H@Z ; gObjWeaponDurDown
  0131f	83 c4 0c	 add	 esp, 12			; 0000000cH
$LN603@Attack:

; 755  : 				}
; 756  : 			}
; 757  : #endif
; 758  : 			else

  01322	eb 37		 jmp	 SHORT $LN601@Attack
$LN604@Attack:

; 759  : 			{
; 760  : 				AttackDamage = this->GetAttackDamage(lpObj, targetdefense, MsgDamage, bIsOnDuel, lpMagic);

  01324	8b 45 10	 mov	 eax, DWORD PTR _lpMagic$[ebp]
  01327	50		 push	 eax
  01328	8b 4d b8	 mov	 ecx, DWORD PTR _bIsOnDuel$[ebp]
  0132b	51		 push	 ecx
  0132c	8d 55 eb	 lea	 edx, DWORD PTR _MsgDamage$[ebp]
  0132f	52		 push	 edx
  01330	8b 45 a8	 mov	 eax, DWORD PTR _targetdefense$240048[ebp]
  01333	50		 push	 eax
  01334	8b 4d 08	 mov	 ecx, DWORD PTR _lpObj$[ebp]
  01337	51		 push	 ecx
  01338	8b 4d f8	 mov	 ecx, DWORD PTR _this$[ebp]
  0133b	e8 00 00 00 00	 call	 ?GetAttackDamage@CObjAttack@@QAEHPAUOBJECTSTRUCT@@HAAEHPAVCMagicInf@@@Z ; CObjAttack::GetAttackDamage
  01340	89 45 1c	 mov	 DWORD PTR _AttackDamage$[ebp], eax

; 761  : 
; 762  : 				if ( AttackDamage > 0 )

  01343	83 7d 1c 00	 cmp	 DWORD PTR _AttackDamage$[ebp], 0
  01347	7e 12		 jle	 SHORT $LN601@Attack

; 763  : 				{
; 764  : 					gObjWeaponDurDown(lpObj, lpTargetObj, 0);

  01349	6a 00		 push	 0
  0134b	8b 45 0c	 mov	 eax, DWORD PTR _lpTargetObj$[ebp]
  0134e	50		 push	 eax
  0134f	8b 4d 08	 mov	 ecx, DWORD PTR _lpObj$[ebp]
  01352	51		 push	 ecx
  01353	e8 00 00 00 00	 call	 ?gObjWeaponDurDown@@YAXPAUOBJECTSTRUCT@@0H@Z ; gObjWeaponDurDown
  01358	83 c4 0c	 add	 esp, 12			; 0000000cH
$LN601@Attack:

; 765  : 				}
; 766  : 			}
; 767  : #if(CUSTOM_MONSTER_EX==TRUE)
; 768  : 			g_MonsterEx.AttackMonster(lpTargetObj->m_Index, lpObj->m_Index, AttackDamage);

  0135b	8d 45 1c	 lea	 eax, DWORD PTR _AttackDamage$[ebp]
  0135e	50		 push	 eax
  0135f	8b 4d 08	 mov	 ecx, DWORD PTR _lpObj$[ebp]
  01362	8b 11		 mov	 edx, DWORD PTR [ecx]
  01364	52		 push	 edx
  01365	8b 45 0c	 mov	 eax, DWORD PTR _lpTargetObj$[ebp]
  01368	8b 08		 mov	 ecx, DWORD PTR [eax]
  0136a	51		 push	 ecx
  0136b	b9 00 00 00 00	 mov	 ecx, OFFSET ?g_MonsterEx@@3VMonsterEx@@A ; g_MonsterEx
  01370	e8 00 00 00 00	 call	 ?AttackMonster@MonsterEx@@QAEXHHAAH@Z ; MonsterEx::AttackMonster
$LN612@Attack:

; 769  : #endif
; 770  : 		}
; 771  : 
; 772  : 		int iCShopScrollBuffID = -1;

  01375	c7 45 90 ff ff
	ff ff		 mov	 DWORD PTR _iCShopScrollBuffID$240110[ebp], -1

; 773  : 	
; 774  : 		switch(MsgDamage)

  0137c	8a 45 eb	 mov	 al, BYTE PTR _MsgDamage$[ebp]
  0137f	88 85 c8 fc ff
	ff		 mov	 BYTE PTR tv955[ebp], al
  01385	80 bd c8 fc ff
	ff 02		 cmp	 BYTE PTR tv955[ebp], 2
  0138c	74 14		 je	 SHORT $LN597@Attack
  0138e	80 bd c8 fc ff
	ff 03		 cmp	 BYTE PTR tv955[ebp], 3
  01395	74 02		 je	 SHORT $LN598@Attack
  01397	eb 12		 jmp	 SHORT $LN596@Attack
$LN598@Attack:

; 775  : 		{
; 776  : 		case 3:		iCShopScrollBuffID = 89;	break; //CashShop Scroll of Battle

  01399	c7 45 90 59 00
	00 00		 mov	 DWORD PTR _iCShopScrollBuffID$240110[ebp], 89 ; 00000059H
  013a0	eb 10		 jmp	 SHORT $LN599@Attack
$LN597@Attack:

; 777  : 		case 2:		iCShopScrollBuffID = 90;	break; //CashShop Scroll of Strengthener

  013a2	c7 45 90 5a 00
	00 00		 mov	 DWORD PTR _iCShopScrollBuffID$240110[ebp], 90 ; 0000005aH
  013a9	eb 07		 jmp	 SHORT $LN599@Attack
$LN596@Attack:

; 778  : 		default:	iCShopScrollBuffID = -1;	break; //CashShop Scroll Disabled

  013ab	c7 45 90 ff ff
	ff ff		 mov	 DWORD PTR _iCShopScrollBuffID$240110[ebp], -1
$LN599@Attack:

; 779  : 		}
; 780  : 		
; 781  : 		int iCShopScrollBuffDmgValue = 0;

  013b2	c7 45 8c 00 00
	00 00		 mov	 DWORD PTR _iCShopScrollBuffDmgValue$240118[ebp], 0

; 782  : 		int iCShopScrollBuffDmgBefore = AttackDamage;

  013b9	8b 45 1c	 mov	 eax, DWORD PTR _AttackDamage$[ebp]
  013bc	89 45 88	 mov	 DWORD PTR _iCShopScrollBuffDmgBefore$240119[ebp], eax

; 783  : 
; 784  : 		if(iCShopScrollBuffID > -1)

  013bf	83 7d 90 ff	 cmp	 DWORD PTR _iCShopScrollBuffID$240110[ebp], -1
  013c3	7e 31		 jle	 SHORT $LN594@Attack

; 785  : 		{
; 786  : 			gObjUpdateAppliedBuffEffect(lpObj, iCShopScrollBuffID, &iCShopScrollBuffDmgValue, 0); //CashShop Scroll of Battle and Strengthener

  013c5	6a 00		 push	 0
  013c7	8d 45 8c	 lea	 eax, DWORD PTR _iCShopScrollBuffDmgValue$240118[ebp]
  013ca	50		 push	 eax
  013cb	8b 4d 90	 mov	 ecx, DWORD PTR _iCShopScrollBuffID$240110[ebp]
  013ce	51		 push	 ecx
  013cf	8b 55 08	 mov	 edx, DWORD PTR _lpObj$[ebp]
  013d2	52		 push	 edx
  013d3	e8 00 00 00 00	 call	 ?gObjUpdateAppliedBuffEffect@@YAEPAUOBJECTSTRUCT@@HPAH1@Z ; gObjUpdateAppliedBuffEffect
  013d8	83 c4 10	 add	 esp, 16			; 00000010H

; 787  : 
; 788  : 			if(iCShopScrollBuffDmgValue > 0)

  013db	83 7d 8c 00	 cmp	 DWORD PTR _iCShopScrollBuffDmgValue$240118[ebp], 0
  013df	7e 15		 jle	 SHORT $LN594@Attack

; 789  : 			{
; 790  : 				AttackDamage += AttackDamage * iCShopScrollBuffDmgValue / 100;

  013e1	8b 45 1c	 mov	 eax, DWORD PTR _AttackDamage$[ebp]
  013e4	0f af 45 8c	 imul	 eax, DWORD PTR _iCShopScrollBuffDmgValue$240118[ebp]
  013e8	99		 cdq
  013e9	b9 64 00 00 00	 mov	 ecx, 100		; 00000064H
  013ee	f7 f9		 idiv	 ecx
  013f0	03 45 1c	 add	 eax, DWORD PTR _AttackDamage$[ebp]
  013f3	89 45 1c	 mov	 DWORD PTR _AttackDamage$[ebp], eax
$LN594@Attack:

; 791  : 			}
; 792  : 		}
; 793  : 		
; 794  : 		if(g_bAbilityDebug == 1 && (MsgDamage == 3 || MsgDamage == 2)) //Season 3 Add-on for Ability Debug

  013f6	83 3d 00 00 00
	00 01		 cmp	 DWORD PTR ?g_bAbilityDebug@@3HA, 1 ; g_bAbilityDebug
  013fd	75 6b		 jne	 SHORT $LN593@Attack
  013ff	0f b6 45 eb	 movzx	 eax, BYTE PTR _MsgDamage$[ebp]
  01403	83 f8 03	 cmp	 eax, 3
  01406	74 09		 je	 SHORT $LN592@Attack
  01408	0f b6 45 eb	 movzx	 eax, BYTE PTR _MsgDamage$[ebp]
  0140c	83 f8 02	 cmp	 eax, 2
  0140f	75 59		 jne	 SHORT $LN593@Attack
$LN592@Attack:

; 795  : 		{
; 796  : 			char szTemp[256];
; 797  : 			sprintf(szTemp, "%s AttackDamage: %d %d", (MsgDamage == 3) ? "CRITICAL" : "EXCELLENT", iCShopScrollBuffDmgBefore, AttackDamage);

  01411	0f b6 45 eb	 movzx	 eax, BYTE PTR _MsgDamage$[ebp]
  01415	83 f8 03	 cmp	 eax, 3
  01418	75 0c		 jne	 SHORT $LN749@Attack
  0141a	c7 85 c8 fc ff
	ff 00 00 00 00	 mov	 DWORD PTR tv1011[ebp], OFFSET ??_C@_08FOLAHAHG@CRITICAL?$AA@
  01424	eb 0a		 jmp	 SHORT $LN750@Attack
$LN749@Attack:
  01426	c7 85 c8 fc ff
	ff 00 00 00 00	 mov	 DWORD PTR tv1011[ebp], OFFSET ??_C@_09PBMNMIBJ@EXCELLENT?$AA@
$LN750@Attack:
  01430	8b 4d 1c	 mov	 ecx, DWORD PTR _AttackDamage$[ebp]
  01433	51		 push	 ecx
  01434	8b 55 88	 mov	 edx, DWORD PTR _iCShopScrollBuffDmgBefore$240119[ebp]
  01437	52		 push	 edx
  01438	8b 85 c8 fc ff
	ff		 mov	 eax, DWORD PTR tv1011[ebp]
  0143e	50		 push	 eax
  0143f	68 00 00 00 00	 push	 OFFSET ??_C@_0BH@NMKEOPCM@?$CFs?5AttackDamage?3?5?$CFd?5?$CFd?$AA@
  01444	8d 8d 88 fe ff
	ff		 lea	 ecx, DWORD PTR _szTemp$240124[ebp]
  0144a	51		 push	 ecx
  0144b	e8 00 00 00 00	 call	 _sprintf
  01450	83 c4 14	 add	 esp, 20			; 00000014H

; 798  : 			GCServerMsgStringSend(szTemp, lpObj->m_Index, 1);

  01453	6a 01		 push	 1
  01455	8b 45 08	 mov	 eax, DWORD PTR _lpObj$[ebp]
  01458	8b 08		 mov	 ecx, DWORD PTR [eax]
  0145a	51		 push	 ecx
  0145b	8d 95 88 fe ff
	ff		 lea	 edx, DWORD PTR _szTemp$240124[ebp]
  01461	52		 push	 edx
  01462	e8 00 00 00 00	 call	 ?GCServerMsgStringSend@@YAXPADHE@Z ; GCServerMsgStringSend
  01467	83 c4 0c	 add	 esp, 12			; 0000000cH
$LN593@Attack:

; 799  : 		}
; 800  : 
; 801  : 		if ( bAllMiss )

  0146a	83 7d b0 00	 cmp	 DWORD PTR _bAllMiss$[ebp], 0
  0146e	74 11		 je	 SHORT $LN591@Attack

; 802  : 		{
; 803  : 			AttackDamage = ( AttackDamage * 30 ) / 100;

  01470	8b 45 1c	 mov	 eax, DWORD PTR _AttackDamage$[ebp]
  01473	6b c0 1e	 imul	 eax, 30			; 0000001eH
  01476	99		 cdq
  01477	b9 64 00 00 00	 mov	 ecx, 100		; 00000064H
  0147c	f7 f9		 idiv	 ecx
  0147e	89 45 1c	 mov	 DWORD PTR _AttackDamage$[ebp], eax
$LN591@Attack:

; 804  : 		}
; 805  : 
; 806  : 		if ( lpTargetObj->DamageMinus )

  01481	8b 45 0c	 mov	 eax, DWORD PTR _lpTargetObj$[ebp]
  01484	0f b6 88 70 01
	00 00		 movzx	 ecx, BYTE PTR [eax+368]
  0148b	85 c9		 test	 ecx, ecx
  0148d	74 29		 je	 SHORT $LN590@Attack

; 807  : 		{
; 808  : 			int beforeDamage = AttackDamage;

  0148f	8b 45 1c	 mov	 eax, DWORD PTR _AttackDamage$[ebp]
  01492	89 85 84 fe ff
	ff		 mov	 DWORD PTR _beforeDamage$240130[ebp], eax

; 809  : 			AttackDamage -= ( ( AttackDamage * (int)lpTargetObj->DamageMinus) / 100 );

  01498	8b 45 0c	 mov	 eax, DWORD PTR _lpTargetObj$[ebp]
  0149b	0f b6 88 70 01
	00 00		 movzx	 ecx, BYTE PTR [eax+368]
  014a2	8b c1		 mov	 eax, ecx
  014a4	0f af 45 1c	 imul	 eax, DWORD PTR _AttackDamage$[ebp]
  014a8	99		 cdq
  014a9	b9 64 00 00 00	 mov	 ecx, 100		; 00000064H
  014ae	f7 f9		 idiv	 ecx
  014b0	8b 55 1c	 mov	 edx, DWORD PTR _AttackDamage$[ebp]
  014b3	2b d0		 sub	 edx, eax
  014b5	89 55 1c	 mov	 DWORD PTR _AttackDamage$[ebp], edx
$LN590@Attack:

; 810  : 		}
; 811  : 
; 812  : 		int tlevel = (lpObj->Level + lpObj->MLevel) / 10; //s3 addon

  014b8	8b 45 08	 mov	 eax, DWORD PTR _lpObj$[ebp]
  014bb	0f bf 80 be 00
	00 00		 movsx	 eax, WORD PTR [eax+190]
  014c2	8b 4d 08	 mov	 ecx, DWORD PTR _lpObj$[ebp]
  014c5	0f bf 91 d0 00
	00 00		 movsx	 edx, WORD PTR [ecx+208]
  014cc	03 c2		 add	 eax, edx
  014ce	99		 cdq
  014cf	b9 0a 00 00 00	 mov	 ecx, 10			; 0000000aH
  014d4	f7 f9		 idiv	 ecx
  014d6	89 85 80 fe ff
	ff		 mov	 DWORD PTR _tlevel$240132[ebp], eax

; 813  : 
; 814  : 		if ( AttackDamage < tlevel )

  014dc	8b 45 1c	 mov	 eax, DWORD PTR _AttackDamage$[ebp]
  014df	3b 85 80 fe ff
	ff		 cmp	 eax, DWORD PTR _tlevel$240132[ebp]
  014e5	7d 1c		 jge	 SHORT $LN589@Attack

; 815  : 		{
; 816  : 			if ( tlevel < 1 )

  014e7	83 bd 80 fe ff
	ff 01		 cmp	 DWORD PTR _tlevel$240132[ebp], 1
  014ee	7d 0a		 jge	 SHORT $LN588@Attack

; 817  : 			{
; 818  : 				tlevel = 1;

  014f0	c7 85 80 fe ff
	ff 01 00 00 00	 mov	 DWORD PTR _tlevel$240132[ebp], 1
$LN588@Attack:

; 819  : 			}
; 820  : 
; 821  : 			AttackDamage = tlevel;

  014fa	8b 85 80 fe ff
	ff		 mov	 eax, DWORD PTR _tlevel$240132[ebp]
  01500	89 45 1c	 mov	 DWORD PTR _AttackDamage$[ebp], eax
$LN589@Attack:

; 822  : 		}
; 823  : 
; 824  : 		if ( lpTargetObj->m_SkillNumber == 18 )

  01503	8b 45 0c	 mov	 eax, DWORD PTR _lpTargetObj$[ebp]
  01506	0f bf 88 d8 03
	00 00		 movsx	 ecx, WORD PTR [eax+984]
  0150d	83 f9 12	 cmp	 ecx, 18			; 00000012H
  01510	75 0e		 jne	 SHORT $LN586@Attack

; 825  : 		{
; 826  : 			if ( AttackDamage > 1 )

  01512	83 7d 1c 01	 cmp	 DWORD PTR _AttackDamage$[ebp], 1
  01516	7e 08		 jle	 SHORT $LN586@Attack

; 827  : 			{
; 828  : 				AttackDamage >>= 1;

  01518	8b 45 1c	 mov	 eax, DWORD PTR _AttackDamage$[ebp]
  0151b	d1 f8		 sar	 eax, 1
  0151d	89 45 1c	 mov	 DWORD PTR _AttackDamage$[ebp], eax
$LN586@Attack:

; 829  : 			}
; 830  : 		}
; 831  : 
; 832  : 		gObjSpriteDamage(lpTargetObj, AttackDamage);

  01520	8b 45 1c	 mov	 eax, DWORD PTR _AttackDamage$[ebp]
  01523	50		 push	 eax
  01524	8b 4d 0c	 mov	 ecx, DWORD PTR _lpTargetObj$[ebp]
  01527	51		 push	 ecx
  01528	e8 00 00 00 00	 call	 ?gObjSpriteDamage@@YAXPAUOBJECTSTRUCT@@H@Z ; gObjSpriteDamage
  0152d	83 c4 08	 add	 esp, 8

; 833  : 
; 834  : 		if ( gObjSatanSprite(lpObj) == TRUE )

  01530	8b 45 08	 mov	 eax, DWORD PTR _lpObj$[ebp]
  01533	50		 push	 eax
  01534	e8 00 00 00 00	 call	 ?gObjSatanSprite@@YAHPAUOBJECTSTRUCT@@@Z ; gObjSatanSprite
  01539	83 c4 04	 add	 esp, 4
  0153c	83 f8 01	 cmp	 eax, 1
  0153f	0f 85 5a 01 00
	00		 jne	 $LN585@Attack

; 835  : 		{
; 836  : #ifdef MONK
; 837  : 			if( lpObj->Class == CLASS_MONK )

  01545	8b 45 08	 mov	 eax, DWORD PTR _lpObj$[ebp]
  01548	0f b7 88 b8 00
	00 00		 movzx	 ecx, WORD PTR [eax+184]
  0154f	83 f9 06	 cmp	 ecx, 6
  01552	0f 85 cd 00 00
	00		 jne	 $LN584@Attack

; 838  : 			{
; 839  : 				if( skill == 263 ||
; 840  : 					skill == 269 ||
; 841  : 					skill == 262 )

  01558	81 7d d8 07 01
	00 00		 cmp	 DWORD PTR _skill$[ebp], 263 ; 00000107H
  0155f	74 12		 je	 SHORT $LN582@Attack
  01561	81 7d d8 0d 01
	00 00		 cmp	 DWORD PTR _skill$[ebp], 269 ; 0000010dH
  01568	74 09		 je	 SHORT $LN582@Attack
  0156a	81 7d d8 06 01
	00 00		 cmp	 DWORD PTR _skill$[ebp], 262 ; 00000106H
  01571	75 1d		 jne	 SHORT $LN583@Attack
$LN582@Attack:

; 842  : 				{
; 843  : 					lpObj->Life -= 4.0f;

  01573	8b 45 08	 mov	 eax, DWORD PTR _lpObj$[ebp]
  01576	d9 80 fc 00 00
	00		 fld	 DWORD PTR [eax+252]
  0157c	dc 25 00 00 00
	00		 fsub	 QWORD PTR __real@4010000000000000
  01582	8b 4d 08	 mov	 ecx, DWORD PTR _lpObj$[ebp]
  01585	d9 99 fc 00 00
	00		 fstp	 DWORD PTR [ecx+252]
  0158b	e9 93 00 00 00	 jmp	 $LN574@Attack
$LN583@Attack:

; 844  : 				}
; 845  : 				else if( skill == 265 )

  01590	81 7d d8 09 01
	00 00		 cmp	 DWORD PTR _skill$[ebp], 265 ; 00000109H
  01597	75 1a		 jne	 SHORT $LN580@Attack

; 846  : 				{
; 847  : 					lpObj->Life -= 100.0f;

  01599	8b 45 08	 mov	 eax, DWORD PTR _lpObj$[ebp]
  0159c	d9 80 fc 00 00
	00		 fld	 DWORD PTR [eax+252]
  015a2	dc 25 00 00 00
	00		 fsub	 QWORD PTR __real@4059000000000000
  015a8	8b 4d 08	 mov	 ecx, DWORD PTR _lpObj$[ebp]
  015ab	d9 99 fc 00 00
	00		 fstp	 DWORD PTR [ecx+252]

; 848  : 				}
; 849  : 				else if( skill == 260 ||

  015b1	eb 70		 jmp	 SHORT $LN574@Attack
$LN580@Attack:

; 850  : 					skill == 261 ||
; 851  : 					skill == 264 )

  015b3	81 7d d8 04 01
	00 00		 cmp	 DWORD PTR _skill$[ebp], 260 ; 00000104H
  015ba	74 12		 je	 SHORT $LN577@Attack
  015bc	81 7d d8 05 01
	00 00		 cmp	 DWORD PTR _skill$[ebp], 261 ; 00000105H
  015c3	74 09		 je	 SHORT $LN577@Attack
  015c5	81 7d d8 08 01
	00 00		 cmp	 DWORD PTR _skill$[ebp], 264 ; 00000108H
  015cc	75 1a		 jne	 SHORT $LN578@Attack
$LN577@Attack:

; 852  : 				{
; 853  : 					lpObj->Life -= 2.0f;

  015ce	8b 45 08	 mov	 eax, DWORD PTR _lpObj$[ebp]
  015d1	d9 80 fc 00 00
	00		 fld	 DWORD PTR [eax+252]
  015d7	dc 25 00 00 00
	00		 fsub	 QWORD PTR __real@4000000000000000
  015dd	8b 4d 08	 mov	 ecx, DWORD PTR _lpObj$[ebp]
  015e0	d9 99 fc 00 00
	00		 fstp	 DWORD PTR [ecx+252]
  015e6	eb 3b		 jmp	 SHORT $LN574@Attack
$LN578@Attack:

; 854  : 				}
; 855  : 				else if( skill == 270 )

  015e8	81 7d d8 0e 01
	00 00		 cmp	 DWORD PTR _skill$[ebp], 270 ; 0000010eH
  015ef	75 1a		 jne	 SHORT $LN575@Attack

; 856  : 				{
; 857  : 					lpObj->Life -= 2.0f;

  015f1	8b 45 08	 mov	 eax, DWORD PTR _lpObj$[ebp]
  015f4	d9 80 fc 00 00
	00		 fld	 DWORD PTR [eax+252]
  015fa	dc 25 00 00 00
	00		 fsub	 QWORD PTR __real@4000000000000000
  01600	8b 4d 08	 mov	 ecx, DWORD PTR _lpObj$[ebp]
  01603	d9 99 fc 00 00
	00		 fstp	 DWORD PTR [ecx+252]

; 858  : 				}
; 859  : 				else

  01609	eb 18		 jmp	 SHORT $LN574@Attack
$LN575@Attack:

; 860  : 				{
; 861  : 					lpObj->Life -= 3.0f;

  0160b	8b 45 08	 mov	 eax, DWORD PTR _lpObj$[ebp]
  0160e	d9 80 fc 00 00
	00		 fld	 DWORD PTR [eax+252]
  01614	dc 25 00 00 00
	00		 fsub	 QWORD PTR __real@4008000000000000
  0161a	8b 4d 08	 mov	 ecx, DWORD PTR _lpObj$[ebp]
  0161d	d9 99 fc 00 00
	00		 fstp	 DWORD PTR [ecx+252]
$LN574@Attack:

; 862  : 				}
; 863  : 			}
; 864  : 			else

  01623	eb 18		 jmp	 SHORT $LN573@Attack
$LN584@Attack:

; 865  : 			{
; 866  : 				lpObj->Life -= 3.0f;

  01625	8b 45 08	 mov	 eax, DWORD PTR _lpObj$[ebp]
  01628	d9 80 fc 00 00
	00		 fld	 DWORD PTR [eax+252]
  0162e	dc 25 00 00 00
	00		 fsub	 QWORD PTR __real@4008000000000000
  01634	8b 4d 08	 mov	 ecx, DWORD PTR _lpObj$[ebp]
  01637	d9 99 fc 00 00
	00		 fstp	 DWORD PTR [ecx+252]
$LN573@Attack:

; 867  : 			}
; 868  : #else
; 869  : 			lpObj->Life -= 3.0f;
; 870  : #endif
; 871  : 
; 872  : 			if ( lpObj->Life < 0.0f )

  0163d	8b 45 08	 mov	 eax, DWORD PTR _lpObj$[ebp]
  01640	d9 80 fc 00 00
	00		 fld	 DWORD PTR [eax+252]
  01646	dc 1d 00 00 00
	00		 fcomp	 QWORD PTR __real@0000000000000000
  0164c	df e0		 fnstsw	 ax
  0164e	f6 c4 05	 test	 ah, 5
  01651	7a 0d		 jp	 SHORT $LN572@Attack

; 873  : 			{
; 874  : 				lpObj->Life = 0.0f;

  01653	8b 45 08	 mov	 eax, DWORD PTR _lpObj$[ebp]
  01656	d9 ee		 fldz
  01658	d9 98 fc 00 00
	00		 fstp	 DWORD PTR [eax+252]

; 875  : 			}
; 876  : 			else

  0165e	eb 11		 jmp	 SHORT $LN571@Attack
$LN572@Attack:

; 877  : 			{
; 878  : 				AttackDamage = AttackDamage * 13 / 10;

  01660	8b 45 1c	 mov	 eax, DWORD PTR _AttackDamage$[ebp]
  01663	6b c0 0d	 imul	 eax, 13			; 0000000dH
  01666	99		 cdq
  01667	b9 0a 00 00 00	 mov	 ecx, 10			; 0000000aH
  0166c	f7 f9		 idiv	 ecx
  0166e	89 45 1c	 mov	 DWORD PTR _AttackDamage$[ebp], eax
$LN571@Attack:

; 879  : 			}
; 880  : 
; 881  : 			GCReFillSend(lpObj->m_Index, lpObj->Life, 0xFF, 0, lpObj->iShield);

  01671	8b 45 08	 mov	 eax, DWORD PTR _lpObj$[ebp]
  01674	8b 88 54 01 00
	00		 mov	 ecx, DWORD PTR [eax+340]
  0167a	51		 push	 ecx
  0167b	6a 00		 push	 0
  0167d	68 ff 00 00 00	 push	 255			; 000000ffH
  01682	8b 55 08	 mov	 edx, DWORD PTR _lpObj$[ebp]
  01685	d9 82 fc 00 00
	00		 fld	 DWORD PTR [edx+252]
  0168b	e8 00 00 00 00	 call	 __ftol2_sse
  01690	50		 push	 eax
  01691	8b 45 08	 mov	 eax, DWORD PTR _lpObj$[ebp]
  01694	8b 08		 mov	 ecx, DWORD PTR [eax]
  01696	51		 push	 ecx
  01697	e8 00 00 00 00	 call	 ?GCReFillSend@@YAXHHEEH@Z ; GCReFillSend
  0169c	83 c4 14	 add	 esp, 20			; 00000014H
$LN585@Attack:

; 882  : 		}
; 883  : 
; 884  : 		if ( gObjAngelSprite(lpTargetObj) == TRUE )

  0169f	8b 45 0c	 mov	 eax, DWORD PTR _lpTargetObj$[ebp]
  016a2	50		 push	 eax
  016a3	e8 00 00 00 00	 call	 ?gObjAngelSprite@@YAHPAUOBJECTSTRUCT@@@Z ; gObjAngelSprite
  016a8	83 c4 04	 add	 esp, 4
  016ab	83 f8 01	 cmp	 eax, 1
  016ae	75 32		 jne	 SHORT $LN569@Attack

; 885  : 		{
; 886  : 			if ( AttackDamage > 1 )

  016b0	83 7d 1c 01	 cmp	 DWORD PTR _AttackDamage$[ebp], 1
  016b4	7e 2c		 jle	 SHORT $LN569@Attack

; 887  : 			{
; 888  : 				float  damage = (AttackDamage * 8) / 10.0f;

  016b6	8b 45 1c	 mov	 eax, DWORD PTR _AttackDamage$[ebp]
  016b9	c1 e0 03	 shl	 eax, 3
  016bc	89 85 c8 fc ff
	ff		 mov	 DWORD PTR tv5444[ebp], eax
  016c2	db 85 c8 fc ff
	ff		 fild	 DWORD PTR tv5444[ebp]
  016c8	dc 35 00 00 00
	00		 fdiv	 QWORD PTR __real@4024000000000000
  016ce	d9 9d 7c fe ff
	ff		 fstp	 DWORD PTR _damage$240154[ebp]

; 889  : 				AttackDamage = (int)damage;

  016d4	d9 85 7c fe ff
	ff		 fld	 DWORD PTR _damage$240154[ebp]
  016da	e8 00 00 00 00	 call	 __ftol2_sse
  016df	89 45 1c	 mov	 DWORD PTR _AttackDamage$[ebp], eax
$LN569@Attack:

; 890  : 			}
; 891  : 		}
; 892  : 
; 893  : 		if ( gObjDemonSprite(lpObj) == TRUE ) //season4 add-on (fix from 3.5)

  016e2	8b 45 08	 mov	 eax, DWORD PTR _lpObj$[ebp]
  016e5	50		 push	 eax
  016e6	e8 00 00 00 00	 call	 ?gObjDemonSprite@@YAHPAUOBJECTSTRUCT@@@Z ; gObjDemonSprite
  016eb	83 c4 04	 add	 esp, 4
  016ee	83 f8 01	 cmp	 eax, 1
  016f1	75 17		 jne	 SHORT $LN567@Attack

; 894  : 		{
; 895  : 			if ( AttackDamage > 1 )

  016f3	83 7d 1c 01	 cmp	 DWORD PTR _AttackDamage$[ebp], 1
  016f7	7e 11		 jle	 SHORT $LN567@Attack

; 896  : 			{
; 897  : 				AttackDamage = (AttackDamage * 14) / 10;

  016f9	8b 45 1c	 mov	 eax, DWORD PTR _AttackDamage$[ebp]
  016fc	6b c0 0e	 imul	 eax, 14			; 0000000eH
  016ff	99		 cdq
  01700	b9 0a 00 00 00	 mov	 ecx, 10			; 0000000aH
  01705	f7 f9		 idiv	 ecx
  01707	89 45 1c	 mov	 DWORD PTR _AttackDamage$[ebp], eax
$LN567@Attack:

; 898  : 			}
; 899  : 		}
; 900  : 
; 901  : 		if ( gObjSkeletonSprite(lpObj) == TRUE ) //Season 5 Skeleton Pet

  0170a	8b 45 08	 mov	 eax, DWORD PTR _lpObj$[ebp]
  0170d	50		 push	 eax
  0170e	e8 00 00 00 00	 call	 ?gObjSkeletonSprite@@YAHPAUOBJECTSTRUCT@@@Z ; gObjSkeletonSprite
  01713	83 c4 04	 add	 esp, 4
  01716	83 f8 01	 cmp	 eax, 1
  01719	75 1a		 jne	 SHORT $LN565@Attack

; 902  : 		{
; 903  : 			if ( AttackDamage > 1 )

  0171b	83 7d 1c 01	 cmp	 DWORD PTR _AttackDamage$[ebp], 1
  0171f	7e 14		 jle	 SHORT $LN565@Attack

; 904  : 			{
; 905  : 				AttackDamage += (AttackDamage * 20) / 100;

  01721	8b 45 1c	 mov	 eax, DWORD PTR _AttackDamage$[ebp]
  01724	6b c0 14	 imul	 eax, 20			; 00000014H
  01727	99		 cdq
  01728	b9 64 00 00 00	 mov	 ecx, 100		; 00000064H
  0172d	f7 f9		 idiv	 ecx
  0172f	03 45 1c	 add	 eax, DWORD PTR _AttackDamage$[ebp]
  01732	89 45 1c	 mov	 DWORD PTR _AttackDamage$[ebp], eax
$LN565@Attack:

; 906  : 			}
; 907  : 		}
; 908  : 
; 909  : 		if ( gObjSpiritGuardianSprite(lpTargetObj) == TRUE )

  01735	8b 45 0c	 mov	 eax, DWORD PTR _lpTargetObj$[ebp]
  01738	50		 push	 eax
  01739	e8 00 00 00 00	 call	 ?gObjSpiritGuardianSprite@@YAHPAUOBJECTSTRUCT@@@Z ; gObjSpiritGuardianSprite
  0173e	83 c4 04	 add	 esp, 4
  01741	83 f8 01	 cmp	 eax, 1
  01744	75 32		 jne	 SHORT $LN563@Attack

; 910  : 		{
; 911  : 			if ( AttackDamage > 1 )

  01746	83 7d 1c 01	 cmp	 DWORD PTR _AttackDamage$[ebp], 1
  0174a	7e 2c		 jle	 SHORT $LN563@Attack

; 912  : 			{
; 913  : 				float  damage = (AttackDamage * 7) / 10.0f;

  0174c	8b 45 1c	 mov	 eax, DWORD PTR _AttackDamage$[ebp]
  0174f	6b c0 07	 imul	 eax, 7
  01752	89 85 c8 fc ff
	ff		 mov	 DWORD PTR tv5471[ebp], eax
  01758	db 85 c8 fc ff
	ff		 fild	 DWORD PTR tv5471[ebp]
  0175e	dc 35 00 00 00
	00		 fdiv	 QWORD PTR __real@4024000000000000
  01764	d9 9d 78 fe ff
	ff		 fstp	 DWORD PTR _damage$240162[ebp]

; 914  : 				AttackDamage = (int)damage;

  0176a	d9 85 78 fe ff
	ff		 fld	 DWORD PTR _damage$240162[ebp]
  01770	e8 00 00 00 00	 call	 __ftol2_sse
  01775	89 45 1c	 mov	 DWORD PTR _AttackDamage$[ebp], eax
$LN563@Attack:

; 915  : 			}
; 916  : 		}
; 917  : 
; 918  : 		if ( (lpObj->pInventory[10].IsItem() &&
; 919  : 			 lpObj->pInventory[10].m_Type == ITEMGET(13,76) &&
; 920  : 			 lpObj->pInventory[10].m_Durability > 0.0f) || 
; 921  : 
; 922  : 			 (lpObj->pInventory[11].IsItem() &&
; 923  : 			 lpObj->pInventory[11].m_Type == ITEMGET(13,76) &&
; 924  : 			 lpObj->pInventory[11].m_Durability > 0.0f) )

  01778	8b 45 08	 mov	 eax, DWORD PTR _lpObj$[ebp]
  0177b	8b 88 24 0e 00
	00		 mov	 ecx, DWORD PTR [eax+3620]
  01781	81 c1 48 08 00
	00		 add	 ecx, 2120		; 00000848H
  01787	e8 00 00 00 00	 call	 ?IsItem@CItem@@QAEHXZ	; CItem::IsItem
  0178c	85 c0		 test	 eax, eax
  0178e	74 34		 je	 SHORT $LN560@Attack
  01790	8b 45 08	 mov	 eax, DWORD PTR _lpObj$[ebp]
  01793	8b 88 24 0e 00
	00		 mov	 ecx, DWORD PTR [eax+3620]
  01799	0f bf 91 4e 08
	00 00		 movsx	 edx, WORD PTR [ecx+2126]
  017a0	81 fa 4c 1a 00
	00		 cmp	 edx, 6732		; 00001a4cH
  017a6	75 1c		 jne	 SHORT $LN560@Attack
  017a8	8b 45 08	 mov	 eax, DWORD PTR _lpObj$[ebp]
  017ab	8b 88 24 0e 00
	00		 mov	 ecx, DWORD PTR [eax+3620]
  017b1	d9 81 6c 08 00
	00		 fld	 DWORD PTR [ecx+2156]
  017b7	dc 1d 00 00 00
	00		 fcomp	 QWORD PTR __real@0000000000000000
  017bd	df e0		 fnstsw	 ax
  017bf	f6 c4 41	 test	 ah, 65			; 00000041H
  017c2	74 4c		 je	 SHORT $LN561@Attack
$LN560@Attack:
  017c4	8b 45 08	 mov	 eax, DWORD PTR _lpObj$[ebp]
  017c7	8b 88 24 0e 00
	00		 mov	 ecx, DWORD PTR [eax+3620]
  017cd	81 c1 1c 09 00
	00		 add	 ecx, 2332		; 0000091cH
  017d3	e8 00 00 00 00	 call	 ?IsItem@CItem@@QAEHXZ	; CItem::IsItem
  017d8	85 c0		 test	 eax, eax
  017da	74 3d		 je	 SHORT $LN562@Attack
  017dc	8b 45 08	 mov	 eax, DWORD PTR _lpObj$[ebp]
  017df	8b 88 24 0e 00
	00		 mov	 ecx, DWORD PTR [eax+3620]
  017e5	0f bf 91 22 09
	00 00		 movsx	 edx, WORD PTR [ecx+2338]
  017ec	81 fa 4c 1a 00
	00		 cmp	 edx, 6732		; 00001a4cH
  017f2	75 25		 jne	 SHORT $LN562@Attack
  017f4	8b 45 08	 mov	 eax, DWORD PTR _lpObj$[ebp]
  017f7	8b 88 24 0e 00
	00		 mov	 ecx, DWORD PTR [eax+3620]
  017fd	d9 81 40 09 00
	00		 fld	 DWORD PTR [ecx+2368]
  01803	dc 1d 00 00 00
	00		 fcomp	 QWORD PTR __real@0000000000000000
  01809	df e0		 fnstsw	 ax
  0180b	f6 c4 41	 test	 ah, 65			; 00000041H
  0180e	75 09		 jne	 SHORT $LN562@Attack
$LN561@Attack:

; 925  : 		{
; 926  : 			AttackDamage += 30;

  01810	8b 45 1c	 mov	 eax, DWORD PTR _AttackDamage$[ebp]
  01813	83 c0 1e	 add	 eax, 30			; 0000001eH
  01816	89 45 1c	 mov	 DWORD PTR _AttackDamage$[ebp], eax
$LN562@Attack:

; 927  : 		}
; 928  : 
; 929  : 		if ( gObjWingSprite(lpObj) == TRUE )

  01819	8b 45 08	 mov	 eax, DWORD PTR _lpObj$[ebp]
  0181c	50		 push	 eax
  0181d	e8 00 00 00 00	 call	 ?gObjWingSprite@@YAHPAUOBJECTSTRUCT@@@Z ; gObjWingSprite
  01822	83 c4 04	 add	 esp, 4
  01825	83 f8 01	 cmp	 eax, 1
  01828	0f 85 46 06 00
	00		 jne	 $LN559@Attack

; 930  : 		{
; 931  : 			CItem * Wing = &lpObj->pInventory[7];

  0182e	8b 45 08	 mov	 eax, DWORD PTR _lpObj$[ebp]
  01831	8b 88 24 0e 00
	00		 mov	 ecx, DWORD PTR [eax+3620]
  01837	81 c1 cc 05 00
	00		 add	 ecx, 1484		; 000005ccH
  0183d	89 8d 74 fe ff
	ff		 mov	 DWORD PTR _Wing$240168[ebp], ecx

; 932  : 
; 933  : 			if ( lpObj->Class == CLASS_WIZARD || lpObj->Class == CLASS_ELF )

  01843	8b 45 08	 mov	 eax, DWORD PTR _lpObj$[ebp]
  01846	0f b7 88 b8 00
	00 00		 movzx	 ecx, WORD PTR [eax+184]
  0184d	85 c9		 test	 ecx, ecx
  0184f	74 0f		 je	 SHORT $LN557@Attack
  01851	8b 45 08	 mov	 eax, DWORD PTR _lpObj$[ebp]
  01854	0f b7 88 b8 00
	00 00		 movzx	 ecx, WORD PTR [eax+184]
  0185b	83 f9 02	 cmp	 ecx, 2
  0185e	75 1d		 jne	 SHORT $LN558@Attack
$LN557@Attack:

; 934  : 			{
; 935  : 				lpObj->Life -= 1.0f;

  01860	8b 45 08	 mov	 eax, DWORD PTR _lpObj$[ebp]
  01863	d9 80 fc 00 00
	00		 fld	 DWORD PTR [eax+252]
  01869	dc 25 00 00 00
	00		 fsub	 QWORD PTR __real@3ff0000000000000
  0186f	8b 4d 08	 mov	 ecx, DWORD PTR _lpObj$[ebp]
  01872	d9 99 fc 00 00
	00		 fstp	 DWORD PTR [ecx+252]
  01878	e9 24 01 00 00	 jmp	 $LN542@Attack
$LN558@Attack:

; 936  : 			}
; 937  : 			else if ( lpObj->Class == CLASS_SUMMONER ) //summoner

  0187d	8b 45 08	 mov	 eax, DWORD PTR _lpObj$[ebp]
  01880	0f b7 88 b8 00
	00 00		 movzx	 ecx, WORD PTR [eax+184]
  01887	83 f9 05	 cmp	 ecx, 5
  0188a	75 1d		 jne	 SHORT $LN555@Attack

; 938  : 			{
; 939  : 				lpObj->Life -= 1.0f;

  0188c	8b 45 08	 mov	 eax, DWORD PTR _lpObj$[ebp]
  0188f	d9 80 fc 00 00
	00		 fld	 DWORD PTR [eax+252]
  01895	dc 25 00 00 00
	00		 fsub	 QWORD PTR __real@3ff0000000000000
  0189b	8b 4d 08	 mov	 ecx, DWORD PTR _lpObj$[ebp]
  0189e	d9 99 fc 00 00
	00		 fstp	 DWORD PTR [ecx+252]
  018a4	e9 f8 00 00 00	 jmp	 $LN542@Attack
$LN555@Attack:

; 940  : 			}
; 941  : #ifdef MONK
; 942  : 			else if( lpObj->Class == CLASS_MONK )

  018a9	8b 45 08	 mov	 eax, DWORD PTR _lpObj$[ebp]
  018ac	0f b7 88 b8 00
	00 00		 movzx	 ecx, WORD PTR [eax+184]
  018b3	83 f9 06	 cmp	 ecx, 6
  018b6	0f 85 cd 00 00
	00		 jne	 $LN553@Attack

; 943  : 			{
; 944  : 				if( skill == 263 ||
; 945  : 					skill == 269 ||
; 946  : 					skill == 262 )

  018bc	81 7d d8 07 01
	00 00		 cmp	 DWORD PTR _skill$[ebp], 263 ; 00000107H
  018c3	74 12		 je	 SHORT $LN551@Attack
  018c5	81 7d d8 0d 01
	00 00		 cmp	 DWORD PTR _skill$[ebp], 269 ; 0000010dH
  018cc	74 09		 je	 SHORT $LN551@Attack
  018ce	81 7d d8 06 01
	00 00		 cmp	 DWORD PTR _skill$[ebp], 262 ; 00000106H
  018d5	75 1d		 jne	 SHORT $LN552@Attack
$LN551@Attack:

; 947  : 				{
; 948  : 					lpObj->Life -= 4.0f;

  018d7	8b 45 08	 mov	 eax, DWORD PTR _lpObj$[ebp]
  018da	d9 80 fc 00 00
	00		 fld	 DWORD PTR [eax+252]
  018e0	dc 25 00 00 00
	00		 fsub	 QWORD PTR __real@4010000000000000
  018e6	8b 4d 08	 mov	 ecx, DWORD PTR _lpObj$[ebp]
  018e9	d9 99 fc 00 00
	00		 fstp	 DWORD PTR [ecx+252]
  018ef	e9 93 00 00 00	 jmp	 $LN543@Attack
$LN552@Attack:

; 949  : 				}
; 950  : 				else if( skill == 265 )

  018f4	81 7d d8 09 01
	00 00		 cmp	 DWORD PTR _skill$[ebp], 265 ; 00000109H
  018fb	75 1a		 jne	 SHORT $LN549@Attack

; 951  : 				{
; 952  : 					lpObj->Life -= 100.0f;

  018fd	8b 45 08	 mov	 eax, DWORD PTR _lpObj$[ebp]
  01900	d9 80 fc 00 00
	00		 fld	 DWORD PTR [eax+252]
  01906	dc 25 00 00 00
	00		 fsub	 QWORD PTR __real@4059000000000000
  0190c	8b 4d 08	 mov	 ecx, DWORD PTR _lpObj$[ebp]
  0190f	d9 99 fc 00 00
	00		 fstp	 DWORD PTR [ecx+252]

; 953  : 				}
; 954  : 				else if( skill == 260 ||

  01915	eb 70		 jmp	 SHORT $LN543@Attack
$LN549@Attack:

; 955  : 					skill == 261 ||
; 956  : 					skill == 264 )

  01917	81 7d d8 04 01
	00 00		 cmp	 DWORD PTR _skill$[ebp], 260 ; 00000104H
  0191e	74 12		 je	 SHORT $LN546@Attack
  01920	81 7d d8 05 01
	00 00		 cmp	 DWORD PTR _skill$[ebp], 261 ; 00000105H
  01927	74 09		 je	 SHORT $LN546@Attack
  01929	81 7d d8 08 01
	00 00		 cmp	 DWORD PTR _skill$[ebp], 264 ; 00000108H
  01930	75 1a		 jne	 SHORT $LN547@Attack
$LN546@Attack:

; 957  : 				{
; 958  : 					lpObj->Life -= 2.0f;

  01932	8b 45 08	 mov	 eax, DWORD PTR _lpObj$[ebp]
  01935	d9 80 fc 00 00
	00		 fld	 DWORD PTR [eax+252]
  0193b	dc 25 00 00 00
	00		 fsub	 QWORD PTR __real@4000000000000000
  01941	8b 4d 08	 mov	 ecx, DWORD PTR _lpObj$[ebp]
  01944	d9 99 fc 00 00
	00		 fstp	 DWORD PTR [ecx+252]
  0194a	eb 3b		 jmp	 SHORT $LN543@Attack
$LN547@Attack:

; 959  : 				}
; 960  : 				else if( skill == 270 )

  0194c	81 7d d8 0e 01
	00 00		 cmp	 DWORD PTR _skill$[ebp], 270 ; 0000010eH
  01953	75 1a		 jne	 SHORT $LN544@Attack

; 961  : 				{
; 962  : 					lpObj->Life -= 2.0f;

  01955	8b 45 08	 mov	 eax, DWORD PTR _lpObj$[ebp]
  01958	d9 80 fc 00 00
	00		 fld	 DWORD PTR [eax+252]
  0195e	dc 25 00 00 00
	00		 fsub	 QWORD PTR __real@4000000000000000
  01964	8b 4d 08	 mov	 ecx, DWORD PTR _lpObj$[ebp]
  01967	d9 99 fc 00 00
	00		 fstp	 DWORD PTR [ecx+252]

; 963  : 				}
; 964  : 				else

  0196d	eb 18		 jmp	 SHORT $LN543@Attack
$LN544@Attack:

; 965  : 				{
; 966  : 					lpObj->Life -= 3.0f;

  0196f	8b 45 08	 mov	 eax, DWORD PTR _lpObj$[ebp]
  01972	d9 80 fc 00 00
	00		 fld	 DWORD PTR [eax+252]
  01978	dc 25 00 00 00
	00		 fsub	 QWORD PTR __real@4008000000000000
  0197e	8b 4d 08	 mov	 ecx, DWORD PTR _lpObj$[ebp]
  01981	d9 99 fc 00 00
	00		 fstp	 DWORD PTR [ecx+252]
$LN543@Attack:

; 967  : 				}
; 968  : 			}
; 969  : #endif
; 970  : 			else

  01987	eb 18		 jmp	 SHORT $LN542@Attack
$LN553@Attack:

; 971  : 			{
; 972  : 				lpObj->Life -= 3.0f;

  01989	8b 45 08	 mov	 eax, DWORD PTR _lpObj$[ebp]
  0198c	d9 80 fc 00 00
	00		 fld	 DWORD PTR [eax+252]
  01992	dc 25 00 00 00
	00		 fsub	 QWORD PTR __real@4008000000000000
  01998	8b 4d 08	 mov	 ecx, DWORD PTR _lpObj$[ebp]
  0199b	d9 99 fc 00 00
	00		 fstp	 DWORD PTR [ecx+252]
$LN542@Attack:

; 973  : 			}
; 974  : 
; 975  : 			if ( lpObj->Life < 0.0f )

  019a1	8b 45 08	 mov	 eax, DWORD PTR _lpObj$[ebp]
  019a4	d9 80 fc 00 00
	00		 fld	 DWORD PTR [eax+252]
  019aa	dc 1d 00 00 00
	00		 fcomp	 QWORD PTR __real@0000000000000000
  019b0	df e0		 fnstsw	 ax
  019b2	f6 c4 05	 test	 ah, 5
  019b5	7a 10		 jp	 SHORT $LN541@Attack

; 976  : 			{
; 977  : 				lpObj->Life = 0.0f;

  019b7	8b 45 08	 mov	 eax, DWORD PTR _lpObj$[ebp]
  019ba	d9 ee		 fldz
  019bc	d9 98 fc 00 00
	00		 fstp	 DWORD PTR [eax+252]

; 978  : 			}
; 979  : 			else

  019c2	e9 7f 04 00 00	 jmp	 $LN540@Attack
$LN541@Attack:

; 980  : 			{
; 981  : 				if ( Wing->m_Type >= ITEMGET(12,36) && Wing->m_Type <= ITEMGET(12,40) ) //season 2.5 add-on

  019c7	8b 85 74 fe ff
	ff		 mov	 eax, DWORD PTR _Wing$240168[ebp]
  019cd	0f bf 48 06	 movsx	 ecx, WORD PTR [eax+6]
  019d1	81 f9 24 18 00
	00		 cmp	 ecx, 6180		; 00001824H
  019d7	7c 39		 jl	 SHORT $LN539@Attack
  019d9	8b 85 74 fe ff
	ff		 mov	 eax, DWORD PTR _Wing$240168[ebp]
  019df	0f bf 48 06	 movsx	 ecx, WORD PTR [eax+6]
  019e3	81 f9 28 18 00
	00		 cmp	 ecx, 6184		; 00001828H
  019e9	7f 27		 jg	 SHORT $LN539@Attack

; 982  : 				{
; 983  : 					AttackDamage = AttackDamage * (Wing->m_Level * 2 + 139) / 100;	// #formula

  019eb	8b 85 74 fe ff
	ff		 mov	 eax, DWORD PTR _Wing$240168[ebp]
  019f1	0f bf 48 08	 movsx	 ecx, WORD PTR [eax+8]
  019f5	8d 94 09 8b 00
	00 00		 lea	 edx, DWORD PTR [ecx+ecx+139]
  019fc	8b c2		 mov	 eax, edx
  019fe	0f af 45 1c	 imul	 eax, DWORD PTR _AttackDamage$[ebp]
  01a02	99		 cdq
  01a03	b9 64 00 00 00	 mov	 ecx, 100		; 00000064H
  01a08	f7 f9		 idiv	 ecx
  01a0a	89 45 1c	 mov	 DWORD PTR _AttackDamage$[ebp], eax
  01a0d	e9 f1 03 00 00	 jmp	 $LN510@Attack
$LN539@Attack:

; 984  : 				}
; 985  : #ifdef NEWWINGS_6
; 986  : 				else if ( IS_NEWWINGS_6(Wing->m_Type) )

  01a12	8b 85 74 fe ff
	ff		 mov	 eax, DWORD PTR _Wing$240168[ebp]
  01a18	0f bf 48 06	 movsx	 ecx, WORD PTR [eax+6]
  01a1c	81 f9 c3 18 00
	00		 cmp	 ecx, 6339		; 000018c3H
  01a22	7d 0c		 jge	 SHORT $LN751@Attack
  01a24	c7 85 c8 fc ff
	ff 00 00 00 00	 mov	 DWORD PTR tv1253[ebp], 0
  01a2e	eb 1a		 jmp	 SHORT $LN752@Attack
$LN751@Attack:
  01a30	8b 95 74 fe ff
	ff		 mov	 edx, DWORD PTR _Wing$240168[ebp]
  01a36	0f bf 42 06	 movsx	 eax, WORD PTR [edx+6]
  01a3a	33 c9		 xor	 ecx, ecx
  01a3c	3d dc 18 00 00	 cmp	 eax, 6364		; 000018dcH
  01a41	0f 9e c1	 setle	 cl
  01a44	89 8d c8 fc ff
	ff		 mov	 DWORD PTR tv1253[ebp], ecx
$LN752@Attack:
  01a4a	83 bd c8 fc ff
	ff 00		 cmp	 DWORD PTR tv1253[ebp], 0
  01a51	74 27		 je	 SHORT $LN537@Attack

; 987  : 				{
; 988  : 					
; 989  : 					AttackDamage = AttackDamage * (Wing->m_Level * 2 + 150/*150*/) / 100;	// #formula   // Fix Damage wings 5lvl in Pvp

  01a53	8b 85 74 fe ff
	ff		 mov	 eax, DWORD PTR _Wing$240168[ebp]
  01a59	0f bf 48 08	 movsx	 ecx, WORD PTR [eax+8]
  01a5d	8d 94 09 96 00
	00 00		 lea	 edx, DWORD PTR [ecx+ecx+150]
  01a64	8b c2		 mov	 eax, edx
  01a66	0f af 45 1c	 imul	 eax, DWORD PTR _AttackDamage$[ebp]
  01a6a	99		 cdq
  01a6b	b9 64 00 00 00	 mov	 ecx, 100		; 00000064H
  01a70	f7 f9		 idiv	 ecx
  01a72	89 45 1c	 mov	 DWORD PTR _AttackDamage$[ebp], eax
  01a75	e9 89 03 00 00	 jmp	 $LN510@Attack
$LN537@Attack:

; 990  : 				}
; 991  : #endif
; 992  : #ifdef NEWWINGS_5
; 993  : 				else if ( IS_NEWWINGS_5(Wing->m_Type) )

  01a7a	8b 85 74 fe ff
	ff		 mov	 eax, DWORD PTR _Wing$240168[ebp]
  01a80	0f bf 48 06	 movsx	 ecx, WORD PTR [eax+6]
  01a84	81 f9 bd 18 00
	00		 cmp	 ecx, 6333		; 000018bdH
  01a8a	7d 0c		 jge	 SHORT $LN753@Attack
  01a8c	c7 85 c8 fc ff
	ff 00 00 00 00	 mov	 DWORD PTR tv1268[ebp], 0
  01a96	eb 1a		 jmp	 SHORT $LN754@Attack
$LN753@Attack:
  01a98	8b 95 74 fe ff
	ff		 mov	 edx, DWORD PTR _Wing$240168[ebp]
  01a9e	0f bf 42 06	 movsx	 eax, WORD PTR [edx+6]
  01aa2	33 c9		 xor	 ecx, ecx
  01aa4	3d c2 18 00 00	 cmp	 eax, 6338		; 000018c2H
  01aa9	0f 9e c1	 setle	 cl
  01aac	89 8d c8 fc ff
	ff		 mov	 DWORD PTR tv1268[ebp], ecx
$LN754@Attack:
  01ab2	83 bd c8 fc ff
	ff 00		 cmp	 DWORD PTR tv1268[ebp], 0
  01ab9	74 27		 je	 SHORT $LN535@Attack

; 994  : 				{
; 995  : 					//int ABXCONF5 = 150;
; 996  : 					AttackDamage = AttackDamage * (Wing->m_Level * 2 + 150/*150*/) / 100;	// #formula   // Fix Damage wings 5lvl in Pvp	

  01abb	8b 85 74 fe ff
	ff		 mov	 eax, DWORD PTR _Wing$240168[ebp]
  01ac1	0f bf 48 08	 movsx	 ecx, WORD PTR [eax+8]
  01ac5	8d 94 09 96 00
	00 00		 lea	 edx, DWORD PTR [ecx+ecx+150]
  01acc	8b c2		 mov	 eax, edx
  01ace	0f af 45 1c	 imul	 eax, DWORD PTR _AttackDamage$[ebp]
  01ad2	99		 cdq
  01ad3	b9 64 00 00 00	 mov	 ecx, 100		; 00000064H
  01ad8	f7 f9		 idiv	 ecx
  01ada	89 45 1c	 mov	 DWORD PTR _AttackDamage$[ebp], eax
  01add	e9 21 03 00 00	 jmp	 $LN510@Attack
$LN535@Attack:

; 997  : 				}
; 998  : #endif
; 999  : #ifdef NEWWINGS_4
; 1000 : 				else if ( IS_NEWWINGS_4(Wing->m_Type) )

  01ae2	8b 85 74 fe ff
	ff		 mov	 eax, DWORD PTR _Wing$240168[ebp]
  01ae8	0f bf 48 06	 movsx	 ecx, WORD PTR [eax+6]
  01aec	81 f9 b4 18 00
	00		 cmp	 ecx, 6324		; 000018b4H
  01af2	7d 0c		 jge	 SHORT $LN755@Attack
  01af4	c7 85 c8 fc ff
	ff 00 00 00 00	 mov	 DWORD PTR tv1283[ebp], 0
  01afe	eb 1a		 jmp	 SHORT $LN756@Attack
$LN755@Attack:
  01b00	8b 95 74 fe ff
	ff		 mov	 edx, DWORD PTR _Wing$240168[ebp]
  01b06	0f bf 42 06	 movsx	 eax, WORD PTR [edx+6]
  01b0a	33 c9		 xor	 ecx, ecx
  01b0c	3d b9 18 00 00	 cmp	 eax, 6329		; 000018b9H
  01b11	0f 9e c1	 setle	 cl
  01b14	89 8d c8 fc ff
	ff		 mov	 DWORD PTR tv1283[ebp], ecx
$LN756@Attack:
  01b1a	83 bd c8 fc ff
	ff 00		 cmp	 DWORD PTR tv1283[ebp], 0
  01b21	74 27		 je	 SHORT $LN533@Attack

; 1001 : 				{
; 1002 : 					//damage atack
; 1003 : 					//int ABXCONF4 = 145;
; 1004 : 					AttackDamage = AttackDamage * (Wing->m_Level * 2 + 145) / 100;	// #formula

  01b23	8b 85 74 fe ff
	ff		 mov	 eax, DWORD PTR _Wing$240168[ebp]
  01b29	0f bf 48 08	 movsx	 ecx, WORD PTR [eax+8]
  01b2d	8d 94 09 91 00
	00 00		 lea	 edx, DWORD PTR [ecx+ecx+145]
  01b34	8b c2		 mov	 eax, edx
  01b36	0f af 45 1c	 imul	 eax, DWORD PTR _AttackDamage$[ebp]
  01b3a	99		 cdq
  01b3b	b9 64 00 00 00	 mov	 ecx, 100		; 00000064H
  01b40	f7 f9		 idiv	 ecx
  01b42	89 45 1c	 mov	 DWORD PTR _AttackDamage$[ebp], eax
  01b45	e9 b9 02 00 00	 jmp	 $LN510@Attack
$LN533@Attack:

; 1005 : 				}
; 1006 : #endif
; 1007 : #ifdef NEWWINGS_2_5
; 1008 : 				else if ( IS_NEWWINGS_2_5(Wing->m_Type) )

  01b4a	8b 85 74 fe ff
	ff		 mov	 eax, DWORD PTR _Wing$240168[ebp]
  01b50	0f bf 48 06	 movsx	 ecx, WORD PTR [eax+6]
  01b54	81 f9 ba 18 00
	00		 cmp	 ecx, 6330		; 000018baH
  01b5a	7d 0c		 jge	 SHORT $LN757@Attack
  01b5c	c7 85 c8 fc ff
	ff 00 00 00 00	 mov	 DWORD PTR tv1298[ebp], 0
  01b66	eb 1a		 jmp	 SHORT $LN758@Attack
$LN757@Attack:
  01b68	8b 95 74 fe ff
	ff		 mov	 edx, DWORD PTR _Wing$240168[ebp]
  01b6e	0f bf 42 06	 movsx	 eax, WORD PTR [edx+6]
  01b72	33 c9		 xor	 ecx, ecx
  01b74	3d bc 18 00 00	 cmp	 eax, 6332		; 000018bcH
  01b79	0f 9e c1	 setle	 cl
  01b7c	89 8d c8 fc ff
	ff		 mov	 DWORD PTR tv1298[ebp], ecx
$LN758@Attack:
  01b82	83 bd c8 fc ff
	ff 00		 cmp	 DWORD PTR tv1298[ebp], 0
  01b89	74 27		 je	 SHORT $LN531@Attack

; 1009 : 				{
; 1010 : 					AttackDamage = AttackDamage * (Wing->m_Level * 2 + 135) / 100;	// #formula	

  01b8b	8b 85 74 fe ff
	ff		 mov	 eax, DWORD PTR _Wing$240168[ebp]
  01b91	0f bf 48 08	 movsx	 ecx, WORD PTR [eax+8]
  01b95	8d 94 09 87 00
	00 00		 lea	 edx, DWORD PTR [ecx+ecx+135]
  01b9c	8b c2		 mov	 eax, edx
  01b9e	0f af 45 1c	 imul	 eax, DWORD PTR _AttackDamage$[ebp]
  01ba2	99		 cdq
  01ba3	b9 64 00 00 00	 mov	 ecx, 100		; 00000064H
  01ba8	f7 f9		 idiv	 ecx
  01baa	89 45 1c	 mov	 DWORD PTR _AttackDamage$[ebp], eax
  01bad	e9 51 02 00 00	 jmp	 $LN510@Attack
$LN531@Attack:

; 1011 : 				}
; 1012 : #endif
; 1013 : 				else if ( Wing->m_Type == ITEMGET(13,30) )	// Cape Of Lord

  01bb2	8b 85 74 fe ff
	ff		 mov	 eax, DWORD PTR _Wing$240168[ebp]
  01bb8	0f bf 48 06	 movsx	 ecx, WORD PTR [eax+6]
  01bbc	81 f9 1e 1a 00
	00		 cmp	 ecx, 6686		; 00001a1eH
  01bc2	75 24		 jne	 SHORT $LN529@Attack

; 1014 : 				{
; 1015 : 					AttackDamage = AttackDamage * (Wing->m_Level * 2 + 120) / 100;	// #formula

  01bc4	8b 85 74 fe ff
	ff		 mov	 eax, DWORD PTR _Wing$240168[ebp]
  01bca	0f bf 48 08	 movsx	 ecx, WORD PTR [eax+8]
  01bce	8d 54 09 78	 lea	 edx, DWORD PTR [ecx+ecx+120]
  01bd2	8b c2		 mov	 eax, edx
  01bd4	0f af 45 1c	 imul	 eax, DWORD PTR _AttackDamage$[ebp]
  01bd8	99		 cdq
  01bd9	b9 64 00 00 00	 mov	 ecx, 100		; 00000064H
  01bde	f7 f9		 idiv	 ecx
  01be0	89 45 1c	 mov	 DWORD PTR _AttackDamage$[ebp], eax
  01be3	e9 1b 02 00 00	 jmp	 $LN510@Attack
$LN529@Attack:

; 1016 : 				}
; 1017 : 				else if ( Wing->m_Type == ITEMGET(12,41) )	//

  01be8	8b 85 74 fe ff
	ff		 mov	 eax, DWORD PTR _Wing$240168[ebp]
  01bee	0f bf 48 06	 movsx	 ecx, WORD PTR [eax+6]
  01bf2	81 f9 29 18 00
	00		 cmp	 ecx, 6185		; 00001829H
  01bf8	75 24		 jne	 SHORT $LN527@Attack

; 1018 : 				{
; 1019 : 					AttackDamage = AttackDamage * (Wing->m_Level * 2 + 112) / 100;	// #formula

  01bfa	8b 85 74 fe ff
	ff		 mov	 eax, DWORD PTR _Wing$240168[ebp]
  01c00	0f bf 48 08	 movsx	 ecx, WORD PTR [eax+8]
  01c04	8d 54 09 70	 lea	 edx, DWORD PTR [ecx+ecx+112]
  01c08	8b c2		 mov	 eax, edx
  01c0a	0f af 45 1c	 imul	 eax, DWORD PTR _AttackDamage$[ebp]
  01c0e	99		 cdq
  01c0f	b9 64 00 00 00	 mov	 ecx, 100		; 00000064H
  01c14	f7 f9		 idiv	 ecx
  01c16	89 45 1c	 mov	 DWORD PTR _AttackDamage$[ebp], eax
  01c19	e9 e5 01 00 00	 jmp	 $LN510@Attack
$LN527@Attack:

; 1020 : 				}
; 1021 : 				else if ( Wing->m_Type == ITEMGET(12,42) )	//

  01c1e	8b 85 74 fe ff
	ff		 mov	 eax, DWORD PTR _Wing$240168[ebp]
  01c24	0f bf 48 06	 movsx	 ecx, WORD PTR [eax+6]
  01c28	81 f9 2a 18 00
	00		 cmp	 ecx, 6186		; 0000182aH
  01c2e	75 26		 jne	 SHORT $LN525@Attack

; 1022 : 				{
; 1023 : 					AttackDamage = AttackDamage * (Wing->m_Level + 132) / 100;	// #formula

  01c30	8b 85 74 fe ff
	ff		 mov	 eax, DWORD PTR _Wing$240168[ebp]
  01c36	0f bf 48 08	 movsx	 ecx, WORD PTR [eax+8]
  01c3a	81 c1 84 00 00
	00		 add	 ecx, 132		; 00000084H
  01c40	8b c1		 mov	 eax, ecx
  01c42	0f af 45 1c	 imul	 eax, DWORD PTR _AttackDamage$[ebp]
  01c46	99		 cdq
  01c47	b9 64 00 00 00	 mov	 ecx, 100		; 00000064H
  01c4c	f7 f9		 idiv	 ecx
  01c4e	89 45 1c	 mov	 DWORD PTR _AttackDamage$[ebp], eax
  01c51	e9 ad 01 00 00	 jmp	 $LN510@Attack
$LN525@Attack:

; 1024 : 				}
; 1025 : 				else if ( Wing->m_Type == ITEMGET(12,43) )	//

  01c56	8b 85 74 fe ff
	ff		 mov	 eax, DWORD PTR _Wing$240168[ebp]
  01c5c	0f bf 48 06	 movsx	 ecx, WORD PTR [eax+6]
  01c60	81 f9 2b 18 00
	00		 cmp	 ecx, 6187		; 0000182bH
  01c66	75 27		 jne	 SHORT $LN523@Attack

; 1026 : 				{
; 1027 : 					AttackDamage = AttackDamage * (Wing->m_Level * 2 + 139) / 100;	// #formula

  01c68	8b 85 74 fe ff
	ff		 mov	 eax, DWORD PTR _Wing$240168[ebp]
  01c6e	0f bf 48 08	 movsx	 ecx, WORD PTR [eax+8]
  01c72	8d 94 09 8b 00
	00 00		 lea	 edx, DWORD PTR [ecx+ecx+139]
  01c79	8b c2		 mov	 eax, edx
  01c7b	0f af 45 1c	 imul	 eax, DWORD PTR _AttackDamage$[ebp]
  01c7f	99		 cdq
  01c80	b9 64 00 00 00	 mov	 ecx, 100		; 00000064H
  01c85	f7 f9		 idiv	 ecx
  01c87	89 45 1c	 mov	 DWORD PTR _AttackDamage$[ebp], eax
  01c8a	e9 74 01 00 00	 jmp	 $LN510@Attack
$LN523@Attack:

; 1028 : 				}
; 1029 : 				else if ( Wing->m_Type == ITEMGET(12,49) ) //season 6.0 add-on

  01c8f	8b 85 74 fe ff
	ff		 mov	 eax, DWORD PTR _Wing$240168[ebp]
  01c95	0f bf 48 06	 movsx	 ecx, WORD PTR [eax+6]
  01c99	81 f9 31 18 00
	00		 cmp	 ecx, 6193		; 00001831H
  01c9f	75 24		 jne	 SHORT $LN521@Attack

; 1030 : 				{
; 1031 : 					AttackDamage = AttackDamage * (Wing->m_Level * 2 + 120) / 100;	// #formula

  01ca1	8b 85 74 fe ff
	ff		 mov	 eax, DWORD PTR _Wing$240168[ebp]
  01ca7	0f bf 48 08	 movsx	 ecx, WORD PTR [eax+8]
  01cab	8d 54 09 78	 lea	 edx, DWORD PTR [ecx+ecx+120]
  01caf	8b c2		 mov	 eax, edx
  01cb1	0f af 45 1c	 imul	 eax, DWORD PTR _AttackDamage$[ebp]
  01cb5	99		 cdq
  01cb6	b9 64 00 00 00	 mov	 ecx, 100		; 00000064H
  01cbb	f7 f9		 idiv	 ecx
  01cbd	89 45 1c	 mov	 DWORD PTR _AttackDamage$[ebp], eax
  01cc0	e9 3e 01 00 00	 jmp	 $LN510@Attack
$LN521@Attack:

; 1032 : 				}
; 1033 : 				else if ( Wing->m_Type == ITEMGET(12,50) ) //season 6.0 add-on

  01cc5	8b 85 74 fe ff
	ff		 mov	 eax, DWORD PTR _Wing$240168[ebp]
  01ccb	0f bf 48 06	 movsx	 ecx, WORD PTR [eax+6]
  01ccf	81 f9 32 18 00
	00		 cmp	 ecx, 6194		; 00001832H
  01cd5	75 27		 jne	 SHORT $LN519@Attack

; 1034 : 				{
; 1035 : 					AttackDamage = AttackDamage * (Wing->m_Level * 2 + 139) / 100;	// #formula

  01cd7	8b 85 74 fe ff
	ff		 mov	 eax, DWORD PTR _Wing$240168[ebp]
  01cdd	0f bf 48 08	 movsx	 ecx, WORD PTR [eax+8]
  01ce1	8d 94 09 8b 00
	00 00		 lea	 edx, DWORD PTR [ecx+ecx+139]
  01ce8	8b c2		 mov	 eax, edx
  01cea	0f af 45 1c	 imul	 eax, DWORD PTR _AttackDamage$[ebp]
  01cee	99		 cdq
  01cef	b9 64 00 00 00	 mov	 ecx, 100		; 00000064H
  01cf4	f7 f9		 idiv	 ecx
  01cf6	89 45 1c	 mov	 DWORD PTR _AttackDamage$[ebp], eax
  01cf9	e9 05 01 00 00	 jmp	 $LN510@Attack
$LN519@Attack:

; 1036 : 				}
; 1037 : 				else if ( Wing->m_Type == ITEMGET(12,130) ) //season 6.0 add-on

  01cfe	8b 85 74 fe ff
	ff		 mov	 eax, DWORD PTR _Wing$240168[ebp]
  01d04	0f bf 48 06	 movsx	 ecx, WORD PTR [eax+6]
  01d08	81 f9 82 18 00
	00		 cmp	 ecx, 6274		; 00001882H
  01d0e	75 24		 jne	 SHORT $LN517@Attack

; 1038 : 				{
; 1039 : 					AttackDamage = AttackDamage * (Wing->m_Level * 2 + 120) / 100;	// #formula

  01d10	8b 85 74 fe ff
	ff		 mov	 eax, DWORD PTR _Wing$240168[ebp]
  01d16	0f bf 48 08	 movsx	 ecx, WORD PTR [eax+8]
  01d1a	8d 54 09 78	 lea	 edx, DWORD PTR [ecx+ecx+120]
  01d1e	8b c2		 mov	 eax, edx
  01d20	0f af 45 1c	 imul	 eax, DWORD PTR _AttackDamage$[ebp]
  01d24	99		 cdq
  01d25	b9 64 00 00 00	 mov	 ecx, 100		; 00000064H
  01d2a	f7 f9		 idiv	 ecx
  01d2c	89 45 1c	 mov	 DWORD PTR _AttackDamage$[ebp], eax
  01d2f	e9 cf 00 00 00	 jmp	 $LN510@Attack
$LN517@Attack:

; 1040 : 				}
; 1041 : 				else if ( Wing->m_Type >= ITEMGET(12,131) &&  Wing->m_Type <= ITEMGET(12,134)) //season 6.0 add-on

  01d34	8b 85 74 fe ff
	ff		 mov	 eax, DWORD PTR _Wing$240168[ebp]
  01d3a	0f bf 48 06	 movsx	 ecx, WORD PTR [eax+6]
  01d3e	81 f9 83 18 00
	00		 cmp	 ecx, 6275		; 00001883H
  01d44	7c 36		 jl	 SHORT $LN515@Attack
  01d46	8b 85 74 fe ff
	ff		 mov	 eax, DWORD PTR _Wing$240168[ebp]
  01d4c	0f bf 48 06	 movsx	 ecx, WORD PTR [eax+6]
  01d50	81 f9 86 18 00
	00		 cmp	 ecx, 6278		; 00001886H
  01d56	7f 24		 jg	 SHORT $LN515@Attack

; 1042 : 				{
; 1043 : 					AttackDamage = AttackDamage * (Wing->m_Level * 2 + 112) / 100;	// #formula

  01d58	8b 85 74 fe ff
	ff		 mov	 eax, DWORD PTR _Wing$240168[ebp]
  01d5e	0f bf 48 08	 movsx	 ecx, WORD PTR [eax+8]
  01d62	8d 54 09 70	 lea	 edx, DWORD PTR [ecx+ecx+112]
  01d66	8b c2		 mov	 eax, edx
  01d68	0f af 45 1c	 imul	 eax, DWORD PTR _AttackDamage$[ebp]
  01d6c	99		 cdq
  01d6d	b9 64 00 00 00	 mov	 ecx, 100		; 00000064H
  01d72	f7 f9		 idiv	 ecx
  01d74	89 45 1c	 mov	 DWORD PTR _AttackDamage$[ebp], eax
  01d77	e9 87 00 00 00	 jmp	 $LN510@Attack
$LN515@Attack:

; 1044 : 				}
; 1045 : 				else if ( Wing->m_Type == ITEMGET(12,135) ) //season 6.0 add-on

  01d7c	8b 85 74 fe ff
	ff		 mov	 eax, DWORD PTR _Wing$240168[ebp]
  01d82	0f bf 48 06	 movsx	 ecx, WORD PTR [eax+6]
  01d86	81 f9 87 18 00
	00		 cmp	 ecx, 6279		; 00001887H
  01d8c	75 21		 jne	 SHORT $LN513@Attack

; 1046 : 				{
; 1047 : 					AttackDamage = AttackDamage * (Wing->m_Level * 2 + 120) / 100;	// #formula

  01d8e	8b 85 74 fe ff
	ff		 mov	 eax, DWORD PTR _Wing$240168[ebp]
  01d94	0f bf 48 08	 movsx	 ecx, WORD PTR [eax+8]
  01d98	8d 54 09 78	 lea	 edx, DWORD PTR [ecx+ecx+120]
  01d9c	8b c2		 mov	 eax, edx
  01d9e	0f af 45 1c	 imul	 eax, DWORD PTR _AttackDamage$[ebp]
  01da2	99		 cdq
  01da3	b9 64 00 00 00	 mov	 ecx, 100		; 00000064H
  01da8	f7 f9		 idiv	 ecx
  01daa	89 45 1c	 mov	 DWORD PTR _AttackDamage$[ebp], eax
  01dad	eb 54		 jmp	 SHORT $LN510@Attack
$LN513@Attack:

; 1048 : 				}
; 1049 : 				else if ( Wing->m_Type > ITEMGET(12,2) )

  01daf	8b 85 74 fe ff
	ff		 mov	 eax, DWORD PTR _Wing$240168[ebp]
  01db5	0f bf 48 06	 movsx	 ecx, WORD PTR [eax+6]
  01db9	81 f9 02 18 00
	00		 cmp	 ecx, 6146		; 00001802H
  01dbf	7e 23		 jle	 SHORT $LN511@Attack

; 1050 : 				{
; 1051 : 					AttackDamage = AttackDamage * (Wing->m_Level + 132) / 100 ;	// #formula

  01dc1	8b 85 74 fe ff
	ff		 mov	 eax, DWORD PTR _Wing$240168[ebp]
  01dc7	0f bf 48 08	 movsx	 ecx, WORD PTR [eax+8]
  01dcb	81 c1 84 00 00
	00		 add	 ecx, 132		; 00000084H
  01dd1	8b c1		 mov	 eax, ecx
  01dd3	0f af 45 1c	 imul	 eax, DWORD PTR _AttackDamage$[ebp]
  01dd7	99		 cdq
  01dd8	b9 64 00 00 00	 mov	 ecx, 100		; 00000064H
  01ddd	f7 f9		 idiv	 ecx
  01ddf	89 45 1c	 mov	 DWORD PTR _AttackDamage$[ebp], eax

; 1052 : 				}
; 1053 : 				else

  01de2	eb 1f		 jmp	 SHORT $LN510@Attack
$LN511@Attack:

; 1054 : 				{
; 1055 : 					AttackDamage = AttackDamage * (Wing->m_Level * 2 + 112) / 100;	// #formula

  01de4	8b 85 74 fe ff
	ff		 mov	 eax, DWORD PTR _Wing$240168[ebp]
  01dea	0f bf 48 08	 movsx	 ecx, WORD PTR [eax+8]
  01dee	8d 54 09 70	 lea	 edx, DWORD PTR [ecx+ecx+112]
  01df2	8b c2		 mov	 eax, edx
  01df4	0f af 45 1c	 imul	 eax, DWORD PTR _AttackDamage$[ebp]
  01df8	99		 cdq
  01df9	b9 64 00 00 00	 mov	 ecx, 100		; 00000064H
  01dfe	f7 f9		 idiv	 ecx
  01e00	89 45 1c	 mov	 DWORD PTR _AttackDamage$[ebp], eax
$LN510@Attack:

; 1056 : 				}
; 1057 : #ifdef _WINGS_DAMAGE_
; 1058 : 				gWingsDamage.Attack(Wing->m_Type, AttackDamage);

  01e03	8d 45 1c	 lea	 eax, DWORD PTR _AttackDamage$[ebp]
  01e06	50		 push	 eax
  01e07	8b 8d 74 fe ff
	ff		 mov	 ecx, DWORD PTR _Wing$240168[ebp]
  01e0d	0f bf 51 06	 movsx	 edx, WORD PTR [ecx+6]
  01e11	52		 push	 edx
  01e12	b9 00 00 00 00	 mov	 ecx, OFFSET ?gWingsDamage@@3VcWingsDamage@@A ; gWingsDamage
  01e17	e8 00 00 00 00	 call	 ?Attack@cWingsDamage@@QAEXHAAH@Z ; cWingsDamage::Attack

; 1059 : 				gWingsDamage.SetCharWingAttack(lpObj->m_Index, Wing->m_Type, Wing->m_Level, AttackDamage);

  01e1c	8d 45 1c	 lea	 eax, DWORD PTR _AttackDamage$[ebp]
  01e1f	50		 push	 eax
  01e20	8b 8d 74 fe ff
	ff		 mov	 ecx, DWORD PTR _Wing$240168[ebp]
  01e26	0f bf 51 08	 movsx	 edx, WORD PTR [ecx+8]
  01e2a	52		 push	 edx
  01e2b	8b 85 74 fe ff
	ff		 mov	 eax, DWORD PTR _Wing$240168[ebp]
  01e31	0f bf 48 06	 movsx	 ecx, WORD PTR [eax+6]
  01e35	51		 push	 ecx
  01e36	8b 55 08	 mov	 edx, DWORD PTR _lpObj$[ebp]
  01e39	8b 02		 mov	 eax, DWORD PTR [edx]
  01e3b	50		 push	 eax
  01e3c	b9 00 00 00 00	 mov	 ecx, OFFSET ?gWingsDamage@@3VcWingsDamage@@A ; gWingsDamage
  01e41	e8 00 00 00 00	 call	 ?SetCharWingAttack@cWingsDamage@@QAEXHHHAAH@Z ; cWingsDamage::SetCharWingAttack
$LN540@Attack:

; 1060 : #endif // _WINGS_DAMAGE_
; 1061 : 
; 1062 : 			}
; 1063 : 
; 1064 : 			GCReFillSend(lpObj->m_Index, lpObj->Life, 0xFF, 0, lpObj->iShield);

  01e46	8b 45 08	 mov	 eax, DWORD PTR _lpObj$[ebp]
  01e49	8b 88 54 01 00
	00		 mov	 ecx, DWORD PTR [eax+340]
  01e4f	51		 push	 ecx
  01e50	6a 00		 push	 0
  01e52	68 ff 00 00 00	 push	 255			; 000000ffH
  01e57	8b 55 08	 mov	 edx, DWORD PTR _lpObj$[ebp]
  01e5a	d9 82 fc 00 00
	00		 fld	 DWORD PTR [edx+252]
  01e60	e8 00 00 00 00	 call	 __ftol2_sse
  01e65	50		 push	 eax
  01e66	8b 45 08	 mov	 eax, DWORD PTR _lpObj$[ebp]
  01e69	8b 08		 mov	 ecx, DWORD PTR [eax]
  01e6b	51		 push	 ecx
  01e6c	e8 00 00 00 00	 call	 ?GCReFillSend@@YAXHHEEH@Z ; GCReFillSend
  01e71	83 c4 14	 add	 esp, 20			; 00000014H
$LN559@Attack:

; 1065 : 		}
; 1066 : 
; 1067 : 		if ( gObjWingSprite(lpTargetObj) == TRUE )

  01e74	8b 45 0c	 mov	 eax, DWORD PTR _lpTargetObj$[ebp]
  01e77	50		 push	 eax
  01e78	e8 00 00 00 00	 call	 ?gObjWingSprite@@YAHPAUOBJECTSTRUCT@@@Z ; gObjWingSprite
  01e7d	83 c4 04	 add	 esp, 4
  01e80	83 f8 01	 cmp	 eax, 1
  01e83	0f 85 b5 06 00
	00		 jne	 $LN507@Attack

; 1068 : 		{
; 1069 : 			CItem * Wing = &lpTargetObj->pInventory[7];

  01e89	8b 45 0c	 mov	 eax, DWORD PTR _lpTargetObj$[ebp]
  01e8c	8b 88 24 0e 00
	00		 mov	 ecx, DWORD PTR [eax+3620]
  01e92	81 c1 cc 05 00
	00		 add	 ecx, 1484		; 000005ccH
  01e98	89 8d 70 fe ff
	ff		 mov	 DWORD PTR _Wing$240219[ebp], ecx

; 1070 : 
; 1071 : 			if ( Wing->m_Type != ITEMGET(13,30) ) // Cape Of Lord

  01e9e	8b 85 70 fe ff
	ff		 mov	 eax, DWORD PTR _Wing$240219[ebp]
  01ea4	0f bf 48 06	 movsx	 ecx, WORD PTR [eax+6]
  01ea8	81 f9 1e 1a 00
	00		 cmp	 ecx, 6686		; 00001a1eH
  01eae	0f 84 8a 06 00
	00		 je	 $LN507@Attack

; 1072 : 			{
; 1073 : 				if ( AttackDamage > 1 )

  01eb4	83 7d 1c 01	 cmp	 DWORD PTR _AttackDamage$[ebp], 1
  01eb8	0f 8e 80 06 00
	00		 jle	 $LN507@Attack

; 1074 : 				{
; 1075 : 					if ( Wing->m_Type >= ITEMGET(12, 36) && Wing->m_Type <= ITEMGET(12, 40) || Wing->m_Type == ITEMGET(12, 43)) //season 2.5 add-on

  01ebe	8b 85 70 fe ff
	ff		 mov	 eax, DWORD PTR _Wing$240219[ebp]
  01ec4	0f bf 48 06	 movsx	 ecx, WORD PTR [eax+6]
  01ec8	81 f9 24 18 00
	00		 cmp	 ecx, 6180		; 00001824H
  01ece	7c 12		 jl	 SHORT $LN504@Attack
  01ed0	8b 85 70 fe ff
	ff		 mov	 eax, DWORD PTR _Wing$240219[ebp]
  01ed6	0f bf 48 06	 movsx	 ecx, WORD PTR [eax+6]
  01eda	81 f9 28 18 00
	00		 cmp	 ecx, 6184		; 00001828H
  01ee0	7e 16		 jle	 SHORT $LN505@Attack
$LN504@Attack:
  01ee2	8b 85 70 fe ff
	ff		 mov	 eax, DWORD PTR _Wing$240219[ebp]
  01ee8	0f bf 48 06	 movsx	 ecx, WORD PTR [eax+6]
  01eec	81 f9 2b 18 00
	00		 cmp	 ecx, 6187		; 0000182bH
  01ef2	0f 85 ff 00 00
	00		 jne	 $LN498@Attack
$LN505@Attack:

; 1076 : 					{
; 1077 : 						if(Wing->m_Type == ITEMGET(12,40))

  01ef8	8b 85 70 fe ff
	ff		 mov	 eax, DWORD PTR _Wing$240219[ebp]
  01efe	0f bf 48 06	 movsx	 ecx, WORD PTR [eax+6]
  01f02	81 f9 28 18 00
	00		 cmp	 ecx, 6184		; 00001828H
  01f08	75 3f		 jne	 SHORT $LN503@Attack

; 1078 : 						{
; 1079 : 							float damage = (float)(AttackDamage * (76 - (Wing->m_Level*2))) / 100.0f;

  01f0a	8b 85 70 fe ff
	ff		 mov	 eax, DWORD PTR _Wing$240219[ebp]
  01f10	0f bf 48 08	 movsx	 ecx, WORD PTR [eax+8]
  01f14	d1 e1		 shl	 ecx, 1
  01f16	ba 4c 00 00 00	 mov	 edx, 76			; 0000004cH
  01f1b	2b d1		 sub	 edx, ecx
  01f1d	0f af 55 1c	 imul	 edx, DWORD PTR _AttackDamage$[ebp]
  01f21	89 95 c8 fc ff
	ff		 mov	 DWORD PTR tv5700[ebp], edx
  01f27	db 85 c8 fc ff
	ff		 fild	 DWORD PTR tv5700[ebp]
  01f2d	dc 35 00 00 00
	00		 fdiv	 QWORD PTR __real@4059000000000000
  01f33	d9 9d 6c fe ff
	ff		 fstp	 DWORD PTR _damage$240226[ebp]

; 1080 : 							AttackDamage = (int)(damage);	//  #formula

  01f39	d9 85 6c fe ff
	ff		 fld	 DWORD PTR _damage$240226[ebp]
  01f3f	e8 00 00 00 00	 call	 __ftol2_sse
  01f44	89 45 1c	 mov	 DWORD PTR _AttackDamage$[ebp], eax

; 1081 : 						}
; 1082 : 						else

  01f47	eb 3d		 jmp	 SHORT $LN502@Attack
$LN503@Attack:

; 1083 : 						{
; 1084 : 							
; 1085 : 							float damage = (float)(AttackDamage * (61 - (Wing->m_Level*2))) / 100.0f;

  01f49	8b 85 70 fe ff
	ff		 mov	 eax, DWORD PTR _Wing$240219[ebp]
  01f4f	0f bf 48 08	 movsx	 ecx, WORD PTR [eax+8]
  01f53	d1 e1		 shl	 ecx, 1
  01f55	ba 3d 00 00 00	 mov	 edx, 61			; 0000003dH
  01f5a	2b d1		 sub	 edx, ecx
  01f5c	0f af 55 1c	 imul	 edx, DWORD PTR _AttackDamage$[ebp]
  01f60	89 95 c8 fc ff
	ff		 mov	 DWORD PTR tv5711[ebp], edx
  01f66	db 85 c8 fc ff
	ff		 fild	 DWORD PTR tv5711[ebp]
  01f6c	dc 35 00 00 00
	00		 fdiv	 QWORD PTR __real@4059000000000000
  01f72	d9 9d 68 fe ff
	ff		 fstp	 DWORD PTR _damage$240230[ebp]

; 1086 : 							AttackDamage = (int)(damage);	//  #formula

  01f78	d9 85 68 fe ff
	ff		 fld	 DWORD PTR _damage$240230[ebp]
  01f7e	e8 00 00 00 00	 call	 __ftol2_sse
  01f83	89 45 1c	 mov	 DWORD PTR _AttackDamage$[ebp], eax
$LN502@Attack:

; 1087 : 						}
; 1088 : 
; 1089 : 						if((rand()%100)< 5)

  01f86	e8 00 00 00 00	 call	 _rand
  01f8b	99		 cdq
  01f8c	b9 64 00 00 00	 mov	 ecx, 100		; 00000064H
  01f91	f7 f9		 idiv	 ecx
  01f93	83 fa 05	 cmp	 edx, 5
  01f96	7d 5f		 jge	 SHORT $LN498@Attack

; 1090 : 						{
; 1091 : 							BYTE WingOption = lpTargetObj->pInventory[7].m_NewOption;

  01f98	8b 45 0c	 mov	 eax, DWORD PTR _lpTargetObj$[ebp]
  01f9b	8b 88 24 0e 00
	00		 mov	 ecx, DWORD PTR [eax+3620]
  01fa1	8a 91 63 06 00
	00		 mov	 dl, BYTE PTR [ecx+1635]
  01fa7	88 95 67 fe ff
	ff		 mov	 BYTE PTR _WingOption$240234[ebp], dl

; 1092 : 							
; 1093 : 							if((WingOption&4) == 4) // 5% Chance of Recover Full Life

  01fad	0f b6 85 67 fe
	ff ff		 movzx	 eax, BYTE PTR _WingOption$240234[ebp]
  01fb4	83 e0 04	 and	 eax, 4
  01fb7	74 1a		 je	 SHORT $LN500@Attack

; 1094 : 							{
; 1095 : 								gObjAddMsgSendDelay(lpTargetObj,13,lpObj->m_Index,100,0);

  01fb9	6a 00		 push	 0
  01fbb	6a 64		 push	 100			; 00000064H
  01fbd	8b 45 08	 mov	 eax, DWORD PTR _lpObj$[ebp]
  01fc0	8b 08		 mov	 ecx, DWORD PTR [eax]
  01fc2	51		 push	 ecx
  01fc3	6a 0d		 push	 13			; 0000000dH
  01fc5	8b 55 0c	 mov	 edx, DWORD PTR _lpTargetObj$[ebp]
  01fc8	52		 push	 edx
  01fc9	e8 00 00 00 00	 call	 ?gObjAddMsgSendDelay@@YAXPAUOBJECTSTRUCT@@HHHH@Z ; gObjAddMsgSendDelay
  01fce	83 c4 14	 add	 esp, 20			; 00000014H

; 1096 : 							}
; 1097 : 							else

  01fd1	eb 24		 jmp	 SHORT $LN498@Attack
$LN500@Attack:

; 1098 : 							{
; 1099 : 								if((WingOption&8) == 8) // 5% Chance of Recover Full Mana

  01fd3	0f b6 85 67 fe
	ff ff		 movzx	 eax, BYTE PTR _WingOption$240234[ebp]
  01fda	83 e0 08	 and	 eax, 8
  01fdd	74 18		 je	 SHORT $LN498@Attack

; 1100 : 								{
; 1101 : 									gObjAddMsgSendDelay(lpTargetObj,14,lpObj->m_Index,100,0);

  01fdf	6a 00		 push	 0
  01fe1	6a 64		 push	 100			; 00000064H
  01fe3	8b 45 08	 mov	 eax, DWORD PTR _lpObj$[ebp]
  01fe6	8b 08		 mov	 ecx, DWORD PTR [eax]
  01fe8	51		 push	 ecx
  01fe9	6a 0e		 push	 14			; 0000000eH
  01feb	8b 55 0c	 mov	 edx, DWORD PTR _lpTargetObj$[ebp]
  01fee	52		 push	 edx
  01fef	e8 00 00 00 00	 call	 ?gObjAddMsgSendDelay@@YAXPAUOBJECTSTRUCT@@HHHH@Z ; gObjAddMsgSendDelay
  01ff4	83 c4 14	 add	 esp, 20			; 00000014H
$LN498@Attack:

; 1102 : 								}
; 1103 : 							}
; 1104 : 						}
; 1105 : 					}
; 1106 : #ifdef NEWWINGS_4
; 1107 : 					if ( IS_NEWWINGS_4(Wing->m_Type) ) //season 2.5 add-on

  01ff7	8b 85 70 fe ff
	ff		 mov	 eax, DWORD PTR _Wing$240219[ebp]
  01ffd	0f bf 48 06	 movsx	 ecx, WORD PTR [eax+6]
  02001	81 f9 b4 18 00
	00		 cmp	 ecx, 6324		; 000018b4H
  02007	7d 0c		 jge	 SHORT $LN759@Attack
  02009	c7 85 c8 fc ff
	ff 00 00 00 00	 mov	 DWORD PTR tv1495[ebp], 0
  02013	eb 1a		 jmp	 SHORT $LN760@Attack
$LN759@Attack:
  02015	8b 95 70 fe ff
	ff		 mov	 edx, DWORD PTR _Wing$240219[ebp]
  0201b	0f bf 42 06	 movsx	 eax, WORD PTR [edx+6]
  0201f	33 c9		 xor	 ecx, ecx
  02021	3d b9 18 00 00	 cmp	 eax, 6329		; 000018b9H
  02026	0f 9e c1	 setle	 cl
  02029	89 8d c8 fc ff
	ff		 mov	 DWORD PTR tv1495[ebp], ecx
$LN760@Attack:
  0202f	83 bd c8 fc ff
	ff 00		 cmp	 DWORD PTR tv1495[ebp], 0
  02036	0f 84 ff 00 00
	00		 je	 $LN491@Attack

; 1108 : 					{
; 1109 : 						if(Wing->m_Type == ITEMGET(12,184))

  0203c	8b 85 70 fe ff
	ff		 mov	 eax, DWORD PTR _Wing$240219[ebp]
  02042	0f bf 48 06	 movsx	 ecx, WORD PTR [eax+6]
  02046	81 f9 b8 18 00
	00		 cmp	 ecx, 6328		; 000018b8H
  0204c	75 3f		 jne	 SHORT $LN496@Attack

; 1110 : 						{
; 1111 : 							float damage = (float)(AttackDamage * (70 - (Wing->m_Level*2))) / 100.0f;

  0204e	8b 85 70 fe ff
	ff		 mov	 eax, DWORD PTR _Wing$240219[ebp]
  02054	0f bf 48 08	 movsx	 ecx, WORD PTR [eax+8]
  02058	d1 e1		 shl	 ecx, 1
  0205a	ba 46 00 00 00	 mov	 edx, 70			; 00000046H
  0205f	2b d1		 sub	 edx, ecx
  02061	0f af 55 1c	 imul	 edx, DWORD PTR _AttackDamage$[ebp]
  02065	89 95 c8 fc ff
	ff		 mov	 DWORD PTR tv5741[ebp], edx
  0206b	db 85 c8 fc ff
	ff		 fild	 DWORD PTR tv5741[ebp]
  02071	dc 35 00 00 00
	00		 fdiv	 QWORD PTR __real@4059000000000000
  02077	d9 9d 60 fe ff
	ff		 fstp	 DWORD PTR _damage$240240[ebp]

; 1112 : 						AttackDamage = (int)(damage);	//  #formula

  0207d	d9 85 60 fe ff
	ff		 fld	 DWORD PTR _damage$240240[ebp]
  02083	e8 00 00 00 00	 call	 __ftol2_sse
  02088	89 45 1c	 mov	 DWORD PTR _AttackDamage$[ebp], eax

; 1113 : 						}
; 1114 : 						else

  0208b	eb 3d		 jmp	 SHORT $LN495@Attack
$LN496@Attack:

; 1115 : 						{
; 1116 : 							//int ABXCON4 = 55;
; 1117 : 							float damage = (float)(AttackDamage * (55/*55*/ - (Wing->m_Level*2))) / 100.0f;

  0208d	8b 85 70 fe ff
	ff		 mov	 eax, DWORD PTR _Wing$240219[ebp]
  02093	0f bf 48 08	 movsx	 ecx, WORD PTR [eax+8]
  02097	d1 e1		 shl	 ecx, 1
  02099	ba 37 00 00 00	 mov	 edx, 55			; 00000037H
  0209e	2b d1		 sub	 edx, ecx
  020a0	0f af 55 1c	 imul	 edx, DWORD PTR _AttackDamage$[ebp]
  020a4	89 95 c8 fc ff
	ff		 mov	 DWORD PTR tv5752[ebp], edx
  020aa	db 85 c8 fc ff
	ff		 fild	 DWORD PTR tv5752[ebp]
  020b0	dc 35 00 00 00
	00		 fdiv	 QWORD PTR __real@4059000000000000
  020b6	d9 9d 5c fe ff
	ff		 fstp	 DWORD PTR _damage$240244[ebp]

; 1118 : 							AttackDamage = (int)(damage);	//  #formula

  020bc	d9 85 5c fe ff
	ff		 fld	 DWORD PTR _damage$240244[ebp]
  020c2	e8 00 00 00 00	 call	 __ftol2_sse
  020c7	89 45 1c	 mov	 DWORD PTR _AttackDamage$[ebp], eax
$LN495@Attack:

; 1119 : 						}
; 1120 : 
; 1121 : 						if((rand()%100)< 5)

  020ca	e8 00 00 00 00	 call	 _rand
  020cf	99		 cdq
  020d0	b9 64 00 00 00	 mov	 ecx, 100		; 00000064H
  020d5	f7 f9		 idiv	 ecx
  020d7	83 fa 05	 cmp	 edx, 5
  020da	7d 5f		 jge	 SHORT $LN491@Attack

; 1122 : 						{
; 1123 : 							BYTE WingOption = lpTargetObj->pInventory[7].m_NewOption;

  020dc	8b 45 0c	 mov	 eax, DWORD PTR _lpTargetObj$[ebp]
  020df	8b 88 24 0e 00
	00		 mov	 ecx, DWORD PTR [eax+3620]
  020e5	8a 91 63 06 00
	00		 mov	 dl, BYTE PTR [ecx+1635]
  020eb	88 95 5b fe ff
	ff		 mov	 BYTE PTR _WingOption$240248[ebp], dl

; 1124 : 							
; 1125 : 							if((WingOption&4) == 4) // 5% Chance of Recover Full Life

  020f1	0f b6 85 5b fe
	ff ff		 movzx	 eax, BYTE PTR _WingOption$240248[ebp]
  020f8	83 e0 04	 and	 eax, 4
  020fb	74 1a		 je	 SHORT $LN493@Attack

; 1126 : 							{
; 1127 : 								gObjAddMsgSendDelay(lpTargetObj,13,lpObj->m_Index,100,0);

  020fd	6a 00		 push	 0
  020ff	6a 64		 push	 100			; 00000064H
  02101	8b 45 08	 mov	 eax, DWORD PTR _lpObj$[ebp]
  02104	8b 08		 mov	 ecx, DWORD PTR [eax]
  02106	51		 push	 ecx
  02107	6a 0d		 push	 13			; 0000000dH
  02109	8b 55 0c	 mov	 edx, DWORD PTR _lpTargetObj$[ebp]
  0210c	52		 push	 edx
  0210d	e8 00 00 00 00	 call	 ?gObjAddMsgSendDelay@@YAXPAUOBJECTSTRUCT@@HHHH@Z ; gObjAddMsgSendDelay
  02112	83 c4 14	 add	 esp, 20			; 00000014H

; 1128 : 							}
; 1129 : 							else

  02115	eb 24		 jmp	 SHORT $LN491@Attack
$LN493@Attack:

; 1130 : 							{
; 1131 : 								if((WingOption&8) == 8) // 5% Chance of Recover Full Mana

  02117	0f b6 85 5b fe
	ff ff		 movzx	 eax, BYTE PTR _WingOption$240248[ebp]
  0211e	83 e0 08	 and	 eax, 8
  02121	74 18		 je	 SHORT $LN491@Attack

; 1132 : 								{
; 1133 : 									gObjAddMsgSendDelay(lpTargetObj,14,lpObj->m_Index,100,0);

  02123	6a 00		 push	 0
  02125	6a 64		 push	 100			; 00000064H
  02127	8b 45 08	 mov	 eax, DWORD PTR _lpObj$[ebp]
  0212a	8b 08		 mov	 ecx, DWORD PTR [eax]
  0212c	51		 push	 ecx
  0212d	6a 0e		 push	 14			; 0000000eH
  0212f	8b 55 0c	 mov	 edx, DWORD PTR _lpTargetObj$[ebp]
  02132	52		 push	 edx
  02133	e8 00 00 00 00	 call	 ?gObjAddMsgSendDelay@@YAXPAUOBJECTSTRUCT@@HHHH@Z ; gObjAddMsgSendDelay
  02138	83 c4 14	 add	 esp, 20			; 00000014H
$LN491@Attack:

; 1134 : 								}
; 1135 : 							}
; 1136 : 						}
; 1137 : 					}
; 1138 : #endif
; 1139 : #ifdef NEWWINGS_2_5
; 1140 : 					if ( IS_NEWWINGS_2_5(Wing->m_Type) ) //season 2.5 add-on

  0213b	8b 85 70 fe ff
	ff		 mov	 eax, DWORD PTR _Wing$240219[ebp]
  02141	0f bf 48 06	 movsx	 ecx, WORD PTR [eax+6]
  02145	81 f9 ba 18 00
	00		 cmp	 ecx, 6330		; 000018baH
  0214b	7d 0c		 jge	 SHORT $LN761@Attack
  0214d	c7 85 c8 fc ff
	ff 00 00 00 00	 mov	 DWORD PTR tv1549[ebp], 0
  02157	eb 1a		 jmp	 SHORT $LN762@Attack
$LN761@Attack:
  02159	8b 95 70 fe ff
	ff		 mov	 edx, DWORD PTR _Wing$240219[ebp]
  0215f	0f bf 42 06	 movsx	 eax, WORD PTR [edx+6]
  02163	33 c9		 xor	 ecx, ecx
  02165	3d bc 18 00 00	 cmp	 eax, 6332		; 000018bcH
  0216a	0f 9e c1	 setle	 cl
  0216d	89 8d c8 fc ff
	ff		 mov	 DWORD PTR tv1549[ebp], ecx
$LN762@Attack:
  02173	83 bd c8 fc ff
	ff 00		 cmp	 DWORD PTR tv1549[ebp], 0
  0217a	0f 84 ae 00 00
	00		 je	 $LN486@Attack

; 1141 : 					{
; 1142 : 						float damage = (float)(AttackDamage * (65 - (Wing->m_Level*2))) / 100.0f;

  02180	8b 85 70 fe ff
	ff		 mov	 eax, DWORD PTR _Wing$240219[ebp]
  02186	0f bf 48 08	 movsx	 ecx, WORD PTR [eax+8]
  0218a	d1 e1		 shl	 ecx, 1
  0218c	ba 41 00 00 00	 mov	 edx, 65			; 00000041H
  02191	2b d1		 sub	 edx, ecx
  02193	0f af 55 1c	 imul	 edx, DWORD PTR _AttackDamage$[ebp]
  02197	89 95 c8 fc ff
	ff		 mov	 DWORD PTR tv5781[ebp], edx
  0219d	db 85 c8 fc ff
	ff		 fild	 DWORD PTR tv5781[ebp]
  021a3	dc 35 00 00 00
	00		 fdiv	 QWORD PTR __real@4059000000000000
  021a9	d9 9d 54 fe ff
	ff		 fstp	 DWORD PTR _damage$240253[ebp]

; 1143 : 						AttackDamage = (int)(damage);	//  #formula

  021af	d9 85 54 fe ff
	ff		 fld	 DWORD PTR _damage$240253[ebp]
  021b5	e8 00 00 00 00	 call	 __ftol2_sse
  021ba	89 45 1c	 mov	 DWORD PTR _AttackDamage$[ebp], eax

; 1144 : 
; 1145 : 
; 1146 : 						if((rand()%100)< 5)

  021bd	e8 00 00 00 00	 call	 _rand
  021c2	99		 cdq
  021c3	b9 64 00 00 00	 mov	 ecx, 100		; 00000064H
  021c8	f7 f9		 idiv	 ecx
  021ca	83 fa 05	 cmp	 edx, 5
  021cd	7d 5f		 jge	 SHORT $LN486@Attack

; 1147 : 						{
; 1148 : 							BYTE WingOption = lpTargetObj->pInventory[7].m_NewOption;

  021cf	8b 45 0c	 mov	 eax, DWORD PTR _lpTargetObj$[ebp]
  021d2	8b 88 24 0e 00
	00		 mov	 ecx, DWORD PTR [eax+3620]
  021d8	8a 91 63 06 00
	00		 mov	 dl, BYTE PTR [ecx+1635]
  021de	88 95 53 fe ff
	ff		 mov	 BYTE PTR _WingOption$240257[ebp], dl

; 1149 : 							
; 1150 : 							if((WingOption&4) == 4) // 5% Chance of Recover Full Life

  021e4	0f b6 85 53 fe
	ff ff		 movzx	 eax, BYTE PTR _WingOption$240257[ebp]
  021eb	83 e0 04	 and	 eax, 4
  021ee	74 1a		 je	 SHORT $LN488@Attack

; 1151 : 							{
; 1152 : 								gObjAddMsgSendDelay(lpTargetObj,13,lpObj->m_Index,100,0);

  021f0	6a 00		 push	 0
  021f2	6a 64		 push	 100			; 00000064H
  021f4	8b 45 08	 mov	 eax, DWORD PTR _lpObj$[ebp]
  021f7	8b 08		 mov	 ecx, DWORD PTR [eax]
  021f9	51		 push	 ecx
  021fa	6a 0d		 push	 13			; 0000000dH
  021fc	8b 55 0c	 mov	 edx, DWORD PTR _lpTargetObj$[ebp]
  021ff	52		 push	 edx
  02200	e8 00 00 00 00	 call	 ?gObjAddMsgSendDelay@@YAXPAUOBJECTSTRUCT@@HHHH@Z ; gObjAddMsgSendDelay
  02205	83 c4 14	 add	 esp, 20			; 00000014H

; 1153 : 							}
; 1154 : 							else

  02208	eb 24		 jmp	 SHORT $LN486@Attack
$LN488@Attack:

; 1155 : 							{
; 1156 : 								if((WingOption&8) == 8) // 5% Chance of Recover Full Mana

  0220a	0f b6 85 53 fe
	ff ff		 movzx	 eax, BYTE PTR _WingOption$240257[ebp]
  02211	83 e0 08	 and	 eax, 8
  02214	74 18		 je	 SHORT $LN486@Attack

; 1157 : 								{
; 1158 : 									gObjAddMsgSendDelay(lpTargetObj,14,lpObj->m_Index,100,0);

  02216	6a 00		 push	 0
  02218	6a 64		 push	 100			; 00000064H
  0221a	8b 45 08	 mov	 eax, DWORD PTR _lpObj$[ebp]
  0221d	8b 08		 mov	 ecx, DWORD PTR [eax]
  0221f	51		 push	 ecx
  02220	6a 0e		 push	 14			; 0000000eH
  02222	8b 55 0c	 mov	 edx, DWORD PTR _lpTargetObj$[ebp]
  02225	52		 push	 edx
  02226	e8 00 00 00 00	 call	 ?gObjAddMsgSendDelay@@YAXPAUOBJECTSTRUCT@@HHHH@Z ; gObjAddMsgSendDelay
  0222b	83 c4 14	 add	 esp, 20			; 00000014H
$LN486@Attack:

; 1159 : 								}
; 1160 : 							}
; 1161 : 						}
; 1162 : 					}
; 1163 : #endif
; 1164 : #ifdef NEWWINGS_5
; 1165 : 					if ( IS_NEWWINGS_5(Wing->m_Type) ) //season 2.5 add-on

  0222e	8b 85 70 fe ff
	ff		 mov	 eax, DWORD PTR _Wing$240219[ebp]
  02234	0f bf 48 06	 movsx	 ecx, WORD PTR [eax+6]
  02238	81 f9 bd 18 00
	00		 cmp	 ecx, 6333		; 000018bdH
  0223e	7d 0c		 jge	 SHORT $LN763@Attack
  02240	c7 85 c8 fc ff
	ff 00 00 00 00	 mov	 DWORD PTR tv1590[ebp], 0
  0224a	eb 1a		 jmp	 SHORT $LN764@Attack
$LN763@Attack:
  0224c	8b 95 70 fe ff
	ff		 mov	 edx, DWORD PTR _Wing$240219[ebp]
  02252	0f bf 42 06	 movsx	 eax, WORD PTR [edx+6]
  02256	33 c9		 xor	 ecx, ecx
  02258	3d c2 18 00 00	 cmp	 eax, 6338		; 000018c2H
  0225d	0f 9e c1	 setle	 cl
  02260	89 8d c8 fc ff
	ff		 mov	 DWORD PTR tv1590[ebp], ecx
$LN764@Attack:
  02266	83 bd c8 fc ff
	ff 00		 cmp	 DWORD PTR tv1590[ebp], 0
  0226d	0f 84 ae 00 00
	00		 je	 $LN481@Attack

; 1166 : 					{
; 1167 : 							//int ABXCON5 = 35;
; 1168 : 						float damage = (float)(AttackDamage * (50/**//*100*/ - (Wing->m_Level*2))) / 100.0f;   // Fix Damage wings 5lvl in Pvp

  02273	8b 85 70 fe ff
	ff		 mov	 eax, DWORD PTR _Wing$240219[ebp]
  02279	0f bf 48 08	 movsx	 ecx, WORD PTR [eax+8]
  0227d	d1 e1		 shl	 ecx, 1
  0227f	ba 32 00 00 00	 mov	 edx, 50			; 00000032H
  02284	2b d1		 sub	 edx, ecx
  02286	0f af 55 1c	 imul	 edx, DWORD PTR _AttackDamage$[ebp]
  0228a	89 95 c8 fc ff
	ff		 mov	 DWORD PTR tv5810[ebp], edx
  02290	db 85 c8 fc ff
	ff		 fild	 DWORD PTR tv5810[ebp]
  02296	dc 35 00 00 00
	00		 fdiv	 QWORD PTR __real@4059000000000000
  0229c	d9 9d 4c fe ff
	ff		 fstp	 DWORD PTR _damage$240262[ebp]

; 1169 : 						AttackDamage = (int)(damage);	//  #formula

  022a2	d9 85 4c fe ff
	ff		 fld	 DWORD PTR _damage$240262[ebp]
  022a8	e8 00 00 00 00	 call	 __ftol2_sse
  022ad	89 45 1c	 mov	 DWORD PTR _AttackDamage$[ebp], eax

; 1170 : 							
; 1171 : 
; 1172 : 
; 1173 : 						if((rand()%100)< 5)

  022b0	e8 00 00 00 00	 call	 _rand
  022b5	99		 cdq
  022b6	b9 64 00 00 00	 mov	 ecx, 100		; 00000064H
  022bb	f7 f9		 idiv	 ecx
  022bd	83 fa 05	 cmp	 edx, 5
  022c0	7d 5f		 jge	 SHORT $LN481@Attack

; 1174 : 						{
; 1175 : 							BYTE WingOption = lpTargetObj->pInventory[7].m_NewOption;

  022c2	8b 45 0c	 mov	 eax, DWORD PTR _lpTargetObj$[ebp]
  022c5	8b 88 24 0e 00
	00		 mov	 ecx, DWORD PTR [eax+3620]
  022cb	8a 91 63 06 00
	00		 mov	 dl, BYTE PTR [ecx+1635]
  022d1	88 95 4b fe ff
	ff		 mov	 BYTE PTR _WingOption$240266[ebp], dl

; 1176 : 							
; 1177 : 							if((WingOption&4) == 4) // 5% Chance of Recover Full Life

  022d7	0f b6 85 4b fe
	ff ff		 movzx	 eax, BYTE PTR _WingOption$240266[ebp]
  022de	83 e0 04	 and	 eax, 4
  022e1	74 1a		 je	 SHORT $LN483@Attack

; 1178 : 							{
; 1179 : 								gObjAddMsgSendDelay(lpTargetObj,13,lpObj->m_Index,100,0);

  022e3	6a 00		 push	 0
  022e5	6a 64		 push	 100			; 00000064H
  022e7	8b 45 08	 mov	 eax, DWORD PTR _lpObj$[ebp]
  022ea	8b 08		 mov	 ecx, DWORD PTR [eax]
  022ec	51		 push	 ecx
  022ed	6a 0d		 push	 13			; 0000000dH
  022ef	8b 55 0c	 mov	 edx, DWORD PTR _lpTargetObj$[ebp]
  022f2	52		 push	 edx
  022f3	e8 00 00 00 00	 call	 ?gObjAddMsgSendDelay@@YAXPAUOBJECTSTRUCT@@HHHH@Z ; gObjAddMsgSendDelay
  022f8	83 c4 14	 add	 esp, 20			; 00000014H

; 1180 : 							}
; 1181 : 							else

  022fb	eb 24		 jmp	 SHORT $LN481@Attack
$LN483@Attack:

; 1182 : 							{
; 1183 : 								if((WingOption&8) == 8) // 5% Chance of Recover Full Mana

  022fd	0f b6 85 4b fe
	ff ff		 movzx	 eax, BYTE PTR _WingOption$240266[ebp]
  02304	83 e0 08	 and	 eax, 8
  02307	74 18		 je	 SHORT $LN481@Attack

; 1184 : 								{
; 1185 : 									gObjAddMsgSendDelay(lpTargetObj,14,lpObj->m_Index,100,0);

  02309	6a 00		 push	 0
  0230b	6a 64		 push	 100			; 00000064H
  0230d	8b 45 08	 mov	 eax, DWORD PTR _lpObj$[ebp]
  02310	8b 08		 mov	 ecx, DWORD PTR [eax]
  02312	51		 push	 ecx
  02313	6a 0e		 push	 14			; 0000000eH
  02315	8b 55 0c	 mov	 edx, DWORD PTR _lpTargetObj$[ebp]
  02318	52		 push	 edx
  02319	e8 00 00 00 00	 call	 ?gObjAddMsgSendDelay@@YAXPAUOBJECTSTRUCT@@HHHH@Z ; gObjAddMsgSendDelay
  0231e	83 c4 14	 add	 esp, 20			; 00000014H
$LN481@Attack:

; 1186 : 								}
; 1187 : 							}
; 1188 : 						}
; 1189 : 					}
; 1190 : #endif
; 1191 : #ifdef NEWWINGS_6
; 1192 : 					if ( IS_NEWWINGS_6(Wing->m_Type) ) //season 2.5 add-on

  02321	8b 85 70 fe ff
	ff		 mov	 eax, DWORD PTR _Wing$240219[ebp]
  02327	0f bf 48 06	 movsx	 ecx, WORD PTR [eax+6]
  0232b	81 f9 c3 18 00
	00		 cmp	 ecx, 6339		; 000018c3H
  02331	7d 0c		 jge	 SHORT $LN765@Attack
  02333	c7 85 c8 fc ff
	ff 00 00 00 00	 mov	 DWORD PTR tv1631[ebp], 0
  0233d	eb 1a		 jmp	 SHORT $LN766@Attack
$LN765@Attack:
  0233f	8b 95 70 fe ff
	ff		 mov	 edx, DWORD PTR _Wing$240219[ebp]
  02345	0f bf 42 06	 movsx	 eax, WORD PTR [edx+6]
  02349	33 c9		 xor	 ecx, ecx
  0234b	3d dc 18 00 00	 cmp	 eax, 6364		; 000018dcH
  02350	0f 9e c1	 setle	 cl
  02353	89 8d c8 fc ff
	ff		 mov	 DWORD PTR tv1631[ebp], ecx
$LN766@Attack:
  02359	83 bd c8 fc ff
	ff 00		 cmp	 DWORD PTR tv1631[ebp], 0
  02360	0f 84 b3 00 00
	00		 je	 $LN480@Attack

; 1193 : 					{
; 1194 : 						//if(g_ExLicense.CheckUser(eExUB::PrideMuLocal || eExUB::PrideMu || eExUB::Local3 || eExUB::Local2)){
; 1195 : 			
; 1196 : 						float damage = (float)(AttackDamage * (40/*100*/ - (Wing->m_Level*2))) / 100.0f;   // Fix Damage wings 5lvl in Pvp

  02366	8b 85 70 fe ff
	ff		 mov	 eax, DWORD PTR _Wing$240219[ebp]
  0236c	0f bf 48 08	 movsx	 ecx, WORD PTR [eax+8]
  02370	d1 e1		 shl	 ecx, 1
  02372	ba 28 00 00 00	 mov	 edx, 40			; 00000028H
  02377	2b d1		 sub	 edx, ecx
  02379	0f af 55 1c	 imul	 edx, DWORD PTR _AttackDamage$[ebp]
  0237d	89 95 c8 fc ff
	ff		 mov	 DWORD PTR tv5839[ebp], edx
  02383	db 85 c8 fc ff
	ff		 fild	 DWORD PTR tv5839[ebp]
  02389	dc 35 00 00 00
	00		 fdiv	 QWORD PTR __real@4059000000000000
  0238f	d9 9d 44 fe ff
	ff		 fstp	 DWORD PTR _damage$240271[ebp]

; 1197 : 						AttackDamage = (int)(damage);	//  #formula

  02395	d9 85 44 fe ff
	ff		 fld	 DWORD PTR _damage$240271[ebp]
  0239b	e8 00 00 00 00	 call	 __ftol2_sse
  023a0	89 45 1c	 mov	 DWORD PTR _AttackDamage$[ebp], eax

; 1198 : 
; 1199 : 
; 1200 : 						if((rand()%100)< 5)

  023a3	e8 00 00 00 00	 call	 _rand
  023a8	99		 cdq
  023a9	b9 64 00 00 00	 mov	 ecx, 100		; 00000064H
  023ae	f7 f9		 idiv	 ecx
  023b0	83 fa 05	 cmp	 edx, 5
  023b3	7d 5f		 jge	 SHORT $LN476@Attack

; 1201 : 						{
; 1202 : 							BYTE WingOption = lpTargetObj->pInventory[7].m_NewOption;

  023b5	8b 45 0c	 mov	 eax, DWORD PTR _lpTargetObj$[ebp]
  023b8	8b 88 24 0e 00
	00		 mov	 ecx, DWORD PTR [eax+3620]
  023be	8a 91 63 06 00
	00		 mov	 dl, BYTE PTR [ecx+1635]
  023c4	88 95 43 fe ff
	ff		 mov	 BYTE PTR _WingOption$240275[ebp], dl

; 1203 : 							
; 1204 : 							if((WingOption&4) == 4) // 5% Chance of Recover Full Life

  023ca	0f b6 85 43 fe
	ff ff		 movzx	 eax, BYTE PTR _WingOption$240275[ebp]
  023d1	83 e0 04	 and	 eax, 4
  023d4	74 1a		 je	 SHORT $LN478@Attack

; 1205 : 							{
; 1206 : 								gObjAddMsgSendDelay(lpTargetObj,13,lpObj->m_Index,100,0);

  023d6	6a 00		 push	 0
  023d8	6a 64		 push	 100			; 00000064H
  023da	8b 45 08	 mov	 eax, DWORD PTR _lpObj$[ebp]
  023dd	8b 08		 mov	 ecx, DWORD PTR [eax]
  023df	51		 push	 ecx
  023e0	6a 0d		 push	 13			; 0000000dH
  023e2	8b 55 0c	 mov	 edx, DWORD PTR _lpTargetObj$[ebp]
  023e5	52		 push	 edx
  023e6	e8 00 00 00 00	 call	 ?gObjAddMsgSendDelay@@YAXPAUOBJECTSTRUCT@@HHHH@Z ; gObjAddMsgSendDelay
  023eb	83 c4 14	 add	 esp, 20			; 00000014H

; 1207 : 							}
; 1208 : 							else

  023ee	eb 24		 jmp	 SHORT $LN476@Attack
$LN478@Attack:

; 1209 : 							{
; 1210 : 								if((WingOption&8) == 8) // 5% Chance of Recover Full Mana

  023f0	0f b6 85 43 fe
	ff ff		 movzx	 eax, BYTE PTR _WingOption$240275[ebp]
  023f7	83 e0 08	 and	 eax, 8
  023fa	74 18		 je	 SHORT $LN476@Attack

; 1211 : 								{
; 1212 : 									gObjAddMsgSendDelay(lpTargetObj,14,lpObj->m_Index,100,0);

  023fc	6a 00		 push	 0
  023fe	6a 64		 push	 100			; 00000064H
  02400	8b 45 08	 mov	 eax, DWORD PTR _lpObj$[ebp]
  02403	8b 08		 mov	 ecx, DWORD PTR [eax]
  02405	51		 push	 ecx
  02406	6a 0e		 push	 14			; 0000000eH
  02408	8b 55 0c	 mov	 edx, DWORD PTR _lpTargetObj$[ebp]
  0240b	52		 push	 edx
  0240c	e8 00 00 00 00	 call	 ?gObjAddMsgSendDelay@@YAXPAUOBJECTSTRUCT@@HHHH@Z ; gObjAddMsgSendDelay
  02411	83 c4 14	 add	 esp, 20			; 00000014H
$LN476@Attack:

; 1213 : 								}
; 1214 : 							}
; 1215 : 						  }
; 1216 : 						//}
; 1217 : 					}

  02414	e9 e2 00 00 00	 jmp	 $LN471@Attack
$LN480@Attack:

; 1218 : #endif
; 1219 : 					else if ( Wing->m_Type == ITEMGET(12,49) )

  02419	8b 85 70 fe ff
	ff		 mov	 eax, DWORD PTR _Wing$240219[ebp]
  0241f	0f bf 48 06	 movsx	 ecx, WORD PTR [eax+6]
  02423	81 f9 31 18 00
	00		 cmp	 ecx, 6193		; 00001831H
  02429	75 42		 jne	 SHORT $LN474@Attack

; 1220 : 					{
; 1221 : 						float damage = (float)(AttackDamage * (90 - (Wing->m_Level*2))) / 100.0f;

  0242b	8b 85 70 fe ff
	ff		 mov	 eax, DWORD PTR _Wing$240219[ebp]
  02431	0f bf 48 08	 movsx	 ecx, WORD PTR [eax+8]
  02435	d1 e1		 shl	 ecx, 1
  02437	ba 5a 00 00 00	 mov	 edx, 90			; 0000005aH
  0243c	2b d1		 sub	 edx, ecx
  0243e	0f af 55 1c	 imul	 edx, DWORD PTR _AttackDamage$[ebp]
  02442	89 95 c8 fc ff
	ff		 mov	 DWORD PTR tv5865[ebp], edx
  02448	db 85 c8 fc ff
	ff		 fild	 DWORD PTR tv5865[ebp]
  0244e	dc 35 00 00 00
	00		 fdiv	 QWORD PTR __real@4059000000000000
  02454	d9 9d 3c fe ff
	ff		 fstp	 DWORD PTR _damage$240281[ebp]

; 1222 : 						AttackDamage = (int)(damage);	//  #formula

  0245a	d9 85 3c fe ff
	ff		 fld	 DWORD PTR _damage$240281[ebp]
  02460	e8 00 00 00 00	 call	 __ftol2_sse
  02465	89 45 1c	 mov	 DWORD PTR _AttackDamage$[ebp], eax
  02468	e9 8e 00 00 00	 jmp	 $LN471@Attack
$LN474@Attack:

; 1223 : 					}
; 1224 : 					else if ( Wing->m_Type > ITEMGET(12, 2) )

  0246d	8b 85 70 fe ff
	ff		 mov	 eax, DWORD PTR _Wing$240219[ebp]
  02473	0f bf 48 06	 movsx	 ecx, WORD PTR [eax+6]
  02477	81 f9 02 18 00
	00		 cmp	 ecx, 6146		; 00001802H
  0247d	7e 3f		 jle	 SHORT $LN472@Attack

; 1225 : 					{
; 1226 : 						float damage = (float)(AttackDamage * (75 - (Wing->m_Level*2))) / 100.0f;

  0247f	8b 85 70 fe ff
	ff		 mov	 eax, DWORD PTR _Wing$240219[ebp]
  02485	0f bf 48 08	 movsx	 ecx, WORD PTR [eax+8]
  02489	d1 e1		 shl	 ecx, 1
  0248b	ba 4b 00 00 00	 mov	 edx, 75			; 0000004bH
  02490	2b d1		 sub	 edx, ecx
  02492	0f af 55 1c	 imul	 edx, DWORD PTR _AttackDamage$[ebp]
  02496	89 95 c8 fc ff
	ff		 mov	 DWORD PTR tv5877[ebp], edx
  0249c	db 85 c8 fc ff
	ff		 fild	 DWORD PTR tv5877[ebp]
  024a2	dc 35 00 00 00
	00		 fdiv	 QWORD PTR __real@4059000000000000
  024a8	d9 9d 38 fe ff
	ff		 fstp	 DWORD PTR _damage$240286[ebp]

; 1227 : 						AttackDamage = (int)(damage);	//  #formula

  024ae	d9 85 38 fe ff
	ff		 fld	 DWORD PTR _damage$240286[ebp]
  024b4	e8 00 00 00 00	 call	 __ftol2_sse
  024b9	89 45 1c	 mov	 DWORD PTR _AttackDamage$[ebp], eax

; 1228 : 						
; 1229 : 					}
; 1230 : 					else

  024bc	eb 3d		 jmp	 SHORT $LN471@Attack
$LN472@Attack:

; 1231 : 					{
; 1232 : 						float damage = (float)(AttackDamage * (88 - (Wing->m_Level*2))) / 100.0f;

  024be	8b 85 70 fe ff
	ff		 mov	 eax, DWORD PTR _Wing$240219[ebp]
  024c4	0f bf 48 08	 movsx	 ecx, WORD PTR [eax+8]
  024c8	d1 e1		 shl	 ecx, 1
  024ca	ba 58 00 00 00	 mov	 edx, 88			; 00000058H
  024cf	2b d1		 sub	 edx, ecx
  024d1	0f af 55 1c	 imul	 edx, DWORD PTR _AttackDamage$[ebp]
  024d5	89 95 c8 fc ff
	ff		 mov	 DWORD PTR tv5888[ebp], edx
  024db	db 85 c8 fc ff
	ff		 fild	 DWORD PTR tv5888[ebp]
  024e1	dc 35 00 00 00
	00		 fdiv	 QWORD PTR __real@4059000000000000
  024e7	d9 9d 34 fe ff
	ff		 fstp	 DWORD PTR _damage$240290[ebp]

; 1233 : 						AttackDamage = (int)(damage);	//  #formula

  024ed	d9 85 34 fe ff
	ff		 fld	 DWORD PTR _damage$240290[ebp]
  024f3	e8 00 00 00 00	 call	 __ftol2_sse
  024f8	89 45 1c	 mov	 DWORD PTR _AttackDamage$[ebp], eax
$LN471@Attack:

; 1234 : 					}
; 1235 : #ifdef _WINGS_DAMAGE_
; 1236 : 					gWingsDamage.Defence(Wing->m_Type, AttackDamage);

  024fb	8d 45 1c	 lea	 eax, DWORD PTR _AttackDamage$[ebp]
  024fe	50		 push	 eax
  024ff	8b 8d 70 fe ff
	ff		 mov	 ecx, DWORD PTR _Wing$240219[ebp]
  02505	0f bf 51 06	 movsx	 edx, WORD PTR [ecx+6]
  02509	52		 push	 edx
  0250a	b9 00 00 00 00	 mov	 ecx, OFFSET ?gWingsDamage@@3VcWingsDamage@@A ; gWingsDamage
  0250f	e8 00 00 00 00	 call	 ?Defence@cWingsDamage@@QAEXHAAH@Z ; cWingsDamage::Defence

; 1237 : 					gWingsDamage.SetCharWingAbsurd(lpObj->m_Index, Wing->m_Type, Wing->m_Level, AttackDamage);

  02514	8d 45 1c	 lea	 eax, DWORD PTR _AttackDamage$[ebp]
  02517	50		 push	 eax
  02518	8b 8d 70 fe ff
	ff		 mov	 ecx, DWORD PTR _Wing$240219[ebp]
  0251e	0f bf 51 08	 movsx	 edx, WORD PTR [ecx+8]
  02522	52		 push	 edx
  02523	8b 85 70 fe ff
	ff		 mov	 eax, DWORD PTR _Wing$240219[ebp]
  02529	0f bf 48 06	 movsx	 ecx, WORD PTR [eax+6]
  0252d	51		 push	 ecx
  0252e	8b 55 08	 mov	 edx, DWORD PTR _lpObj$[ebp]
  02531	8b 02		 mov	 eax, DWORD PTR [edx]
  02533	50		 push	 eax
  02534	b9 00 00 00 00	 mov	 ecx, OFFSET ?gWingsDamage@@3VcWingsDamage@@A ; gWingsDamage
  02539	e8 00 00 00 00	 call	 ?SetCharWingAbsurd@cWingsDamage@@QAEXHHHAAH@Z ; cWingsDamage::SetCharWingAbsurd
$LN507@Attack:

; 1238 : #endif // _WINGS_DAMAGE_
; 1239 : 				}
; 1240 : 			}
; 1241 : 		}
; 1242 : 
; 1243 : 
; 1244 : 		if ( gObjDenorantSprite(lpObj ) )

  0253e	8b 45 08	 mov	 eax, DWORD PTR _lpObj$[ebp]
  02541	50		 push	 eax
  02542	e8 00 00 00 00	 call	 ?gObjDenorantSprite@@YAHPAUOBJECTSTRUCT@@@Z ; gObjDenorantSprite
  02547	83 c4 04	 add	 esp, 4
  0254a	85 c0		 test	 eax, eax
  0254c	74 7a		 je	 SHORT $LN470@Attack

; 1245 : 		{
; 1246 : 			lpObj->Life -= 1.0f;

  0254e	8b 45 08	 mov	 eax, DWORD PTR _lpObj$[ebp]
  02551	d9 80 fc 00 00
	00		 fld	 DWORD PTR [eax+252]
  02557	dc 25 00 00 00
	00		 fsub	 QWORD PTR __real@3ff0000000000000
  0255d	8b 4d 08	 mov	 ecx, DWORD PTR _lpObj$[ebp]
  02560	d9 99 fc 00 00
	00		 fstp	 DWORD PTR [ecx+252]

; 1247 : 
; 1248 : 			if ( lpObj->Life < 0.0f )

  02566	8b 45 08	 mov	 eax, DWORD PTR _lpObj$[ebp]
  02569	d9 80 fc 00 00
	00		 fld	 DWORD PTR [eax+252]
  0256f	dc 1d 00 00 00
	00		 fcomp	 QWORD PTR __real@0000000000000000
  02575	df e0		 fnstsw	 ax
  02577	f6 c4 05	 test	 ah, 5
  0257a	7a 0d		 jp	 SHORT $LN469@Attack

; 1249 : 			{
; 1250 : 				lpObj->Life = 0.0f;

  0257c	8b 45 08	 mov	 eax, DWORD PTR _lpObj$[ebp]
  0257f	d9 ee		 fldz
  02581	d9 98 fc 00 00
	00		 fstp	 DWORD PTR [eax+252]

; 1251 : 			}
; 1252 : 			else

  02587	eb 11		 jmp	 SHORT $LN468@Attack
$LN469@Attack:

; 1253 : 			{
; 1254 : 				AttackDamage = AttackDamage * 115 / 100;

  02589	8b 45 1c	 mov	 eax, DWORD PTR _AttackDamage$[ebp]
  0258c	6b c0 73	 imul	 eax, 115		; 00000073H
  0258f	99		 cdq
  02590	b9 64 00 00 00	 mov	 ecx, 100		; 00000064H
  02595	f7 f9		 idiv	 ecx
  02597	89 45 1c	 mov	 DWORD PTR _AttackDamage$[ebp], eax
$LN468@Attack:

; 1255 : 			}
; 1256 : 
; 1257 : 			GCReFillSend(lpObj->m_Index, lpObj->Life, 0xFF, 0, lpObj->iShield);

  0259a	8b 45 08	 mov	 eax, DWORD PTR _lpObj$[ebp]
  0259d	8b 88 54 01 00
	00		 mov	 ecx, DWORD PTR [eax+340]
  025a3	51		 push	 ecx
  025a4	6a 00		 push	 0
  025a6	68 ff 00 00 00	 push	 255			; 000000ffH
  025ab	8b 55 08	 mov	 edx, DWORD PTR _lpObj$[ebp]
  025ae	d9 82 fc 00 00
	00		 fld	 DWORD PTR [edx+252]
  025b4	e8 00 00 00 00	 call	 __ftol2_sse
  025b9	50		 push	 eax
  025ba	8b 45 08	 mov	 eax, DWORD PTR _lpObj$[ebp]
  025bd	8b 08		 mov	 ecx, DWORD PTR [eax]
  025bf	51		 push	 ecx
  025c0	e8 00 00 00 00	 call	 ?GCReFillSend@@YAXHHEEH@Z ; GCReFillSend
  025c5	83 c4 14	 add	 esp, 20			; 00000014H
$LN470@Attack:

; 1258 : 		}
; 1259 : 
; 1260 : 		if ( gObjDenorantSprite(lpTargetObj ) )

  025c8	8b 45 0c	 mov	 eax, DWORD PTR _lpTargetObj$[ebp]
  025cb	50		 push	 eax
  025cc	e8 00 00 00 00	 call	 ?gObjDenorantSprite@@YAHPAUOBJECTSTRUCT@@@Z ; gObjDenorantSprite
  025d1	83 c4 04	 add	 esp, 4
  025d4	85 c0		 test	 eax, eax
  025d6	0f 84 ab 00 00
	00		 je	 $LN467@Attack

; 1261 : 		{
; 1262 : 			CItem * Dinorant = &lpTargetObj->pInventory[8];

  025dc	8b 45 0c	 mov	 eax, DWORD PTR _lpTargetObj$[ebp]
  025df	8b 88 24 0e 00
	00		 mov	 ecx, DWORD PTR [eax+3620]
  025e5	81 c1 a0 06 00
	00		 add	 ecx, 1696		; 000006a0H
  025eb	89 8d 30 fe ff
	ff		 mov	 DWORD PTR _Dinorant$240297[ebp], ecx

; 1263 : 
; 1264 : 			int dinorantdecdamage = 90 - Dinorant->IsDinorantReduceAttackDamaege();

  025f1	8b 8d 30 fe ff
	ff		 mov	 ecx, DWORD PTR _Dinorant$240297[ebp]
  025f7	e8 00 00 00 00	 call	 ?IsDinorantReduceAttackDamaege@CItem@@QAEHXZ ; CItem::IsDinorantReduceAttackDamaege
  025fc	b9 5a 00 00 00	 mov	 ecx, 90			; 0000005aH
  02601	2b c8		 sub	 ecx, eax
  02603	89 8d 2c fe ff
	ff		 mov	 DWORD PTR _dinorantdecdamage$240298[ebp], ecx

; 1265 : 			lpObj->Life -= 1.0f;

  02609	8b 45 08	 mov	 eax, DWORD PTR _lpObj$[ebp]
  0260c	d9 80 fc 00 00
	00		 fld	 DWORD PTR [eax+252]
  02612	dc 25 00 00 00
	00		 fsub	 QWORD PTR __real@3ff0000000000000
  02618	8b 4d 08	 mov	 ecx, DWORD PTR _lpObj$[ebp]
  0261b	d9 99 fc 00 00
	00		 fstp	 DWORD PTR [ecx+252]

; 1266 : 
; 1267 : 			if ( lpObj->Life < 0.0f )

  02621	8b 45 08	 mov	 eax, DWORD PTR _lpObj$[ebp]
  02624	d9 80 fc 00 00
	00		 fld	 DWORD PTR [eax+252]
  0262a	dc 1d 00 00 00
	00		 fcomp	 QWORD PTR __real@0000000000000000
  02630	df e0		 fnstsw	 ax
  02632	f6 c4 05	 test	 ah, 5
  02635	7a 0d		 jp	 SHORT $LN466@Attack

; 1268 : 			{
; 1269 : 				lpObj->Life = 0.0f;

  02637	8b 45 08	 mov	 eax, DWORD PTR _lpObj$[ebp]
  0263a	d9 ee		 fldz
  0263c	d9 98 fc 00 00
	00		 fstp	 DWORD PTR [eax+252]

; 1270 : 			}
; 1271 : 			else

  02642	eb 15		 jmp	 SHORT $LN465@Attack
$LN466@Attack:

; 1272 : 			{
; 1273 : 				AttackDamage = AttackDamage * dinorantdecdamage / 100;

  02644	8b 45 1c	 mov	 eax, DWORD PTR _AttackDamage$[ebp]
  02647	0f af 85 2c fe
	ff ff		 imul	 eax, DWORD PTR _dinorantdecdamage$240298[ebp]
  0264e	99		 cdq
  0264f	b9 64 00 00 00	 mov	 ecx, 100		; 00000064H
  02654	f7 f9		 idiv	 ecx
  02656	89 45 1c	 mov	 DWORD PTR _AttackDamage$[ebp], eax
$LN465@Attack:

; 1274 : 			}
; 1275 : 
; 1276 : 			GCReFillSend(lpObj->m_Index, lpObj->Life, 0xFF, 0, lpObj->iShield);

  02659	8b 45 08	 mov	 eax, DWORD PTR _lpObj$[ebp]
  0265c	8b 88 54 01 00
	00		 mov	 ecx, DWORD PTR [eax+340]
  02662	51		 push	 ecx
  02663	6a 00		 push	 0
  02665	68 ff 00 00 00	 push	 255			; 000000ffH
  0266a	8b 55 08	 mov	 edx, DWORD PTR _lpObj$[ebp]
  0266d	d9 82 fc 00 00
	00		 fld	 DWORD PTR [edx+252]
  02673	e8 00 00 00 00	 call	 __ftol2_sse
  02678	50		 push	 eax
  02679	8b 45 08	 mov	 eax, DWORD PTR _lpObj$[ebp]
  0267c	8b 08		 mov	 ecx, DWORD PTR [eax]
  0267e	51		 push	 ecx
  0267f	e8 00 00 00 00	 call	 ?GCReFillSend@@YAXHHEEH@Z ; GCReFillSend
  02684	83 c4 14	 add	 esp, 20			; 00000014H
$LN467@Attack:

; 1277 : 		}
; 1278 : 
; 1279 : 		if ( gObjDarkHorse(lpTargetObj ) )

  02687	8b 45 0c	 mov	 eax, DWORD PTR _lpTargetObj$[ebp]
  0268a	50		 push	 eax
  0268b	e8 00 00 00 00	 call	 ?gObjDarkHorse@@YAHPAUOBJECTSTRUCT@@@Z ; gObjDarkHorse
  02690	83 c4 04	 add	 esp, 4
  02693	85 c0		 test	 eax, eax
  02695	0f 84 e3 00 00
	00		 je	 $LN464@Attack

; 1280 : 		{
; 1281 : 			CItem * Darkhorse = &lpTargetObj->pInventory[8];

  0269b	8b 45 0c	 mov	 eax, DWORD PTR _lpTargetObj$[ebp]
  0269e	8b 88 24 0e 00
	00		 mov	 ecx, DWORD PTR [eax+3620]
  026a4	81 c1 a0 06 00
	00		 add	 ecx, 1696		; 000006a0H
  026aa	89 8d 28 fe ff
	ff		 mov	 DWORD PTR _Darkhorse$240302[ebp], ecx

; 1282 : 
; 1283 : 			int decdamage = 100 - ((Darkhorse->m_PetItem_Level + 30) / 2 );

  026b0	8b 85 28 fe ff
	ff		 mov	 eax, DWORD PTR _Darkhorse$240302[ebp]
  026b6	8b 80 bc 00 00
	00		 mov	 eax, DWORD PTR [eax+188]
  026bc	83 c0 1e	 add	 eax, 30			; 0000001eH
  026bf	99		 cdq
  026c0	2b c2		 sub	 eax, edx
  026c2	d1 f8		 sar	 eax, 1
  026c4	b9 64 00 00 00	 mov	 ecx, 100		; 00000064H
  026c9	2b c8		 sub	 ecx, eax
  026cb	89 8d 24 fe ff
	ff		 mov	 DWORD PTR _decdamage$240303[ebp], ecx

; 1284 : #ifdef _WINGS_DAMAGE_
; 1285 : 			gWingsDamage.SetCharHorseAttack(lpTargetObj->m_Index, Darkhorse->m_Type, Darkhorse->m_PetItem_Level, decdamage);

  026d1	8d 85 24 fe ff
	ff		 lea	 eax, DWORD PTR _decdamage$240303[ebp]
  026d7	50		 push	 eax
  026d8	8b 8d 28 fe ff
	ff		 mov	 ecx, DWORD PTR _Darkhorse$240302[ebp]
  026de	8b 91 bc 00 00
	00		 mov	 edx, DWORD PTR [ecx+188]
  026e4	52		 push	 edx
  026e5	8b 85 28 fe ff
	ff		 mov	 eax, DWORD PTR _Darkhorse$240302[ebp]
  026eb	0f bf 48 06	 movsx	 ecx, WORD PTR [eax+6]
  026ef	51		 push	 ecx
  026f0	8b 55 0c	 mov	 edx, DWORD PTR _lpTargetObj$[ebp]
  026f3	8b 02		 mov	 eax, DWORD PTR [edx]
  026f5	50		 push	 eax
  026f6	b9 00 00 00 00	 mov	 ecx, OFFSET ?gWingsDamage@@3VcWingsDamage@@A ; gWingsDamage
  026fb	e8 00 00 00 00	 call	 ?SetCharHorseAttack@cWingsDamage@@QAEXHHHAAH@Z ; cWingsDamage::SetCharHorseAttack

; 1286 : #endif
; 1287 : 			lpTargetObj->Life -= 1.0f;

  02700	8b 45 0c	 mov	 eax, DWORD PTR _lpTargetObj$[ebp]
  02703	d9 80 fc 00 00
	00		 fld	 DWORD PTR [eax+252]
  02709	dc 25 00 00 00
	00		 fsub	 QWORD PTR __real@3ff0000000000000
  0270f	8b 4d 0c	 mov	 ecx, DWORD PTR _lpTargetObj$[ebp]
  02712	d9 99 fc 00 00
	00		 fstp	 DWORD PTR [ecx+252]

; 1288 : 
; 1289 : 			if ( lpTargetObj->Life < 0.0f )

  02718	8b 45 0c	 mov	 eax, DWORD PTR _lpTargetObj$[ebp]
  0271b	d9 80 fc 00 00
	00		 fld	 DWORD PTR [eax+252]
  02721	dc 1d 00 00 00
	00		 fcomp	 QWORD PTR __real@0000000000000000
  02727	df e0		 fnstsw	 ax
  02729	f6 c4 05	 test	 ah, 5
  0272c	7a 0d		 jp	 SHORT $LN463@Attack

; 1290 : 			{
; 1291 : 				lpTargetObj->Life = 0.0f;

  0272e	8b 45 0c	 mov	 eax, DWORD PTR _lpTargetObj$[ebp]
  02731	d9 ee		 fldz
  02733	d9 98 fc 00 00
	00		 fstp	 DWORD PTR [eax+252]

; 1292 : 			}
; 1293 : 			else

  02739	eb 15		 jmp	 SHORT $LN462@Attack
$LN463@Attack:

; 1294 : 			{
; 1295 : 				AttackDamage = AttackDamage * decdamage / 100;

  0273b	8b 45 1c	 mov	 eax, DWORD PTR _AttackDamage$[ebp]
  0273e	0f af 85 24 fe
	ff ff		 imul	 eax, DWORD PTR _decdamage$240303[ebp]
  02745	99		 cdq
  02746	b9 64 00 00 00	 mov	 ecx, 100		; 00000064H
  0274b	f7 f9		 idiv	 ecx
  0274d	89 45 1c	 mov	 DWORD PTR _AttackDamage$[ebp], eax
$LN462@Attack:

; 1296 : 			}
; 1297 : 
; 1298 : 			GCReFillSend(lpTargetObj->m_Index, lpTargetObj->Life, 0xFF, 0, lpTargetObj->iShield);

  02750	8b 45 0c	 mov	 eax, DWORD PTR _lpTargetObj$[ebp]
  02753	8b 88 54 01 00
	00		 mov	 ecx, DWORD PTR [eax+340]
  02759	51		 push	 ecx
  0275a	6a 00		 push	 0
  0275c	68 ff 00 00 00	 push	 255			; 000000ffH
  02761	8b 55 0c	 mov	 edx, DWORD PTR _lpTargetObj$[ebp]
  02764	d9 82 fc 00 00
	00		 fld	 DWORD PTR [edx+252]
  0276a	e8 00 00 00 00	 call	 __ftol2_sse
  0276f	50		 push	 eax
  02770	8b 45 0c	 mov	 eax, DWORD PTR _lpTargetObj$[ebp]
  02773	8b 08		 mov	 ecx, DWORD PTR [eax]
  02775	51		 push	 ecx
  02776	e8 00 00 00 00	 call	 ?GCReFillSend@@YAXHHEEH@Z ; GCReFillSend
  0277b	83 c4 14	 add	 esp, 20			; 00000014H
$LN464@Attack:

; 1299 : 		}
; 1300 : 
; 1301 : 		if ( lpTargetObj->Live )

  0277e	8b 45 0c	 mov	 eax, DWORD PTR _lpTargetObj$[ebp]
  02781	0f b6 48 6a	 movzx	 ecx, BYTE PTR [eax+106]
  02785	85 c9		 test	 ecx, ecx
  02787	0f 84 48 2a 00
	00		 je	 $LN162@Attack

; 1302 : 		{
; 1303 : 
; 1304 : #ifdef DEBUG_CODE
; 1305 : 			LogAddC(3,"skill:%d",skill);
; 1306 : #endif
; 1307 : 
; 1308 : 			switch ( skill )

  0278d	8b 45 d8	 mov	 eax, DWORD PTR _skill$[ebp]
  02790	89 85 c8 fc ff
	ff		 mov	 DWORD PTR tv1835[ebp], eax
  02796	8b 8d c8 fc ff
	ff		 mov	 ecx, DWORD PTR tv1835[ebp]
  0279c	83 e9 13	 sub	 ecx, 19			; 00000013H
  0279f	89 8d c8 fc ff
	ff		 mov	 DWORD PTR tv1835[ebp], ecx
  027a5	81 bd c8 fc ff
	ff fb 00 00 00	 cmp	 DWORD PTR tv1835[ebp], 251 ; 000000fbH
  027af	0f 87 98 12 00
	00		 ja	 $LN459@Attack
  027b5	8b 95 c8 fc ff
	ff		 mov	 edx, DWORD PTR tv1835[ebp]
  027bb	0f b6 82 00 00
	00 00		 movzx	 eax, BYTE PTR $LN805@Attack[edx]
  027c2	ff 24 85 00 00
	00 00		 jmp	 DWORD PTR $LN810@Attack[eax*4]
$LN458@Attack:

; 1309 : 			{
; 1310 : 				case 19:
; 1311 : 				case 20:
; 1312 : 				case 21:
; 1313 : 				case 22:
; 1314 : 				case 23:
; 1315 : 				case 41:
; 1316 : 				case 42:
; 1317 : 				case 43:
; 1318 : 				case 44:
; 1319 : 				case 49:
; 1320 : 				case 55:
; 1321 : 				case 57:
; 1322 : 					if ( lpObj->Class == CLASS_DARKLORD || lpObj->Class == CLASS_MAGUMSA )

  027c9	8b 45 08	 mov	 eax, DWORD PTR _lpObj$[ebp]
  027cc	0f b7 88 b8 00
	00 00		 movzx	 ecx, WORD PTR [eax+184]
  027d3	83 f9 04	 cmp	 ecx, 4
  027d6	74 0f		 je	 SHORT $LN456@Attack
  027d8	8b 45 08	 mov	 eax, DWORD PTR _lpObj$[ebp]
  027db	0f b7 88 b8 00
	00 00		 movzx	 ecx, WORD PTR [eax+184]
  027e2	83 f9 03	 cmp	 ecx, 3
  027e5	75 0d		 jne	 SHORT $LN457@Attack
$LN456@Attack:

; 1323 : 					{
; 1324 : 						AttackDamage *= 2;

  027e7	8b 45 1c	 mov	 eax, DWORD PTR _AttackDamage$[ebp]
  027ea	d1 e0		 shl	 eax, 1
  027ec	89 45 1c	 mov	 DWORD PTR _AttackDamage$[ebp], eax
  027ef	e9 c3 00 00 00	 jmp	 $LN448@Attack
$LN457@Attack:

; 1325 : 					}
; 1326 : #ifdef MONK
; 1327 : 					else if( lpObj->Class == CLASS_MONK )

  027f4	8b 45 08	 mov	 eax, DWORD PTR _lpObj$[ebp]
  027f7	0f b7 88 b8 00
	00 00		 movzx	 ecx, WORD PTR [eax+184]
  027fe	83 f9 06	 cmp	 ecx, 6
  02801	75 0d		 jne	 SHORT $LN454@Attack

; 1328 : 					{
; 1329 : 						AttackDamage *= 2;

  02803	8b 45 1c	 mov	 eax, DWORD PTR _AttackDamage$[ebp]
  02806	d1 e0		 shl	 eax, 1
  02808	89 45 1c	 mov	 DWORD PTR _AttackDamage$[ebp], eax

; 1330 : 					}
; 1331 : #endif
; 1332 : 					else

  0280b	e9 a7 00 00 00	 jmp	 $LN448@Attack
$LN454@Attack:

; 1333 : 					{
; 1334 : 						if(g_ExLicense.CheckUser(eExUB::Local) || g_ExLicense.CheckUser(eExUB::Artem) || g_ExLicense.CheckUser(eExUB::Artem2))

  02810	6a 00		 push	 0
  02812	b9 00 00 00 00	 mov	 ecx, OFFSET ?g_ExLicense@@3VCExLicense@@A ; g_ExLicense
  02817	e8 00 00 00 00	 call	 ?CheckUser@CExLicense@@QAE_NH@Z ; CExLicense::CheckUser
  0281c	0f b6 c0	 movzx	 eax, al
  0281f	85 c0		 test	 eax, eax
  02821	75 26		 jne	 SHORT $LN451@Attack
  02823	6a 30		 push	 48			; 00000030H
  02825	b9 00 00 00 00	 mov	 ecx, OFFSET ?g_ExLicense@@3VCExLicense@@A ; g_ExLicense
  0282a	e8 00 00 00 00	 call	 ?CheckUser@CExLicense@@QAE_NH@Z ; CExLicense::CheckUser
  0282f	0f b6 c0	 movzx	 eax, al
  02832	85 c0		 test	 eax, eax
  02834	75 13		 jne	 SHORT $LN451@Attack
  02836	6a 31		 push	 49			; 00000031H
  02838	b9 00 00 00 00	 mov	 ecx, OFFSET ?g_ExLicense@@3VCExLicense@@A ; g_ExLicense
  0283d	e8 00 00 00 00	 call	 ?CheckUser@CExLicense@@QAE_NH@Z ; CExLicense::CheckUser
  02842	0f b6 c0	 movzx	 eax, al
  02845	85 c0		 test	 eax, eax
  02847	74 4f		 je	 SHORT $LN452@Attack
$LN451@Attack:

; 1335 : 						{
; 1336 : 							int iSkillDMGPercent = ( 200 + ( Energy / 10 ) );

  02849	8b 45 bc	 mov	 eax, DWORD PTR _Energy$[ebp]
  0284c	99		 cdq
  0284d	b9 0a 00 00 00	 mov	 ecx, 10			; 0000000aH
  02852	f7 f9		 idiv	 ecx
  02854	05 c8 00 00 00	 add	 eax, 200		; 000000c8H
  02859	89 85 20 fe ff
	ff		 mov	 DWORD PTR _iSkillDMGPercent$240319[ebp], eax

; 1337 : 
; 1338 : 							if(ExConfig.Character.DKSkillDMGPercentMax > 0)

  0285f	83 3d 88 02 00
	00 00		 cmp	 DWORD PTR ?ExConfig@@3VcExConfigs@@A+648, 0
  02866	7e 19		 jle	 SHORT $LN449@Attack

; 1339 : 							{
; 1340 : 								if(iSkillDMGPercent > ExConfig.Character.DKSkillDMGPercentMax)

  02868	8b 85 20 fe ff
	ff		 mov	 eax, DWORD PTR _iSkillDMGPercent$240319[ebp]
  0286e	3b 05 88 02 00
	00		 cmp	 eax, DWORD PTR ?ExConfig@@3VcExConfigs@@A+648
  02874	7e 0b		 jle	 SHORT $LN449@Attack

; 1341 : 								{
; 1342 : 									iSkillDMGPercent = ExConfig.Character.DKSkillDMGPercentMax;

  02876	a1 88 02 00 00	 mov	 eax, DWORD PTR ?ExConfig@@3VcExConfigs@@A+648
  0287b	89 85 20 fe ff
	ff		 mov	 DWORD PTR _iSkillDMGPercent$240319[ebp], eax
$LN449@Attack:

; 1343 : 								}
; 1344 : 							}
; 1345 : 
; 1346 : 							AttackDamage = ( AttackDamage * iSkillDMGPercent ) / 100;

  02881	8b 45 1c	 mov	 eax, DWORD PTR _AttackDamage$[ebp]
  02884	0f af 85 20 fe
	ff ff		 imul	 eax, DWORD PTR _iSkillDMGPercent$240319[ebp]
  0288b	99		 cdq
  0288c	b9 64 00 00 00	 mov	 ecx, 100		; 00000064H
  02891	f7 f9		 idiv	 ecx
  02893	89 45 1c	 mov	 DWORD PTR _AttackDamage$[ebp], eax

; 1347 : 						}
; 1348 : 						else

  02896	eb 1f		 jmp	 SHORT $LN448@Attack
$LN452@Attack:

; 1349 : 						{
; 1350 : 							AttackDamage = ( AttackDamage * ( 200 + ( Energy / 10 ) ) ) / 100;

  02898	8b 45 bc	 mov	 eax, DWORD PTR _Energy$[ebp]
  0289b	99		 cdq
  0289c	b9 0a 00 00 00	 mov	 ecx, 10			; 0000000aH
  028a1	f7 f9		 idiv	 ecx
  028a3	05 c8 00 00 00	 add	 eax, 200		; 000000c8H
  028a8	0f af 45 1c	 imul	 eax, DWORD PTR _AttackDamage$[ebp]
  028ac	99		 cdq
  028ad	b9 64 00 00 00	 mov	 ecx, 100		; 00000064H
  028b2	f7 f9		 idiv	 ecx
  028b4	89 45 1c	 mov	 DWORD PTR _AttackDamage$[ebp], eax
$LN448@Attack:

; 1351 : 						}
; 1352 : 						
; 1353 : 					}
; 1354 : 					break;

  028b7	e9 91 11 00 00	 jmp	 $LN459@Attack
$LN447@Attack:

; 1355 : 
; 1356 : 				case 47:
; 1357 : 					if ( lpObj->pInventory[8].m_Type == ITEMGET(13,3) ||
; 1358 : 						 lpObj->pInventory[8].m_Type == ITEMGET(13,2) ||
; 1359 : 						 lpObj->pInventory[8].m_Type == ITEMGET(13,37) )

  028bc	8b 45 08	 mov	 eax, DWORD PTR _lpObj$[ebp]
  028bf	8b 88 24 0e 00
	00		 mov	 ecx, DWORD PTR [eax+3620]
  028c5	0f bf 91 a6 06
	00 00		 movsx	 edx, WORD PTR [ecx+1702]
  028cc	81 fa 03 1a 00
	00		 cmp	 edx, 6659		; 00001a03H
  028d2	74 30		 je	 SHORT $LN445@Attack
  028d4	8b 45 08	 mov	 eax, DWORD PTR _lpObj$[ebp]
  028d7	8b 88 24 0e 00
	00		 mov	 ecx, DWORD PTR [eax+3620]
  028dd	0f bf 91 a6 06
	00 00		 movsx	 edx, WORD PTR [ecx+1702]
  028e4	81 fa 02 1a 00
	00		 cmp	 edx, 6658		; 00001a02H
  028ea	74 18		 je	 SHORT $LN445@Attack
  028ec	8b 45 08	 mov	 eax, DWORD PTR _lpObj$[ebp]
  028ef	8b 88 24 0e 00
	00		 mov	 ecx, DWORD PTR [eax+3620]
  028f5	0f bf 91 a6 06
	00 00		 movsx	 edx, WORD PTR [ecx+1702]
  028fc	81 fa 25 1a 00
	00		 cmp	 edx, 6693		; 00001a25H
  02902	75 47		 jne	 SHORT $LN442@Attack
$LN445@Attack:

; 1360 : 					{
; 1361 : #ifdef FENRIR_CONFIG
; 1362 : #endif
; 1363 : 						if ( lpObj->Class == CLASS_DARKLORD || lpObj->Class == CLASS_MAGUMSA )

  02904	8b 45 08	 mov	 eax, DWORD PTR _lpObj$[ebp]
  02907	0f b7 88 b8 00
	00 00		 movzx	 ecx, WORD PTR [eax+184]
  0290e	83 f9 04	 cmp	 ecx, 4
  02911	74 0f		 je	 SHORT $LN443@Attack
  02913	8b 45 08	 mov	 eax, DWORD PTR _lpObj$[ebp]
  02916	0f b7 88 b8 00
	00 00		 movzx	 ecx, WORD PTR [eax+184]
  0291d	83 f9 03	 cmp	 ecx, 3
  02920	75 0a		 jne	 SHORT $LN444@Attack
$LN443@Attack:

; 1364 : 						{
; 1365 : 							AttackDamage *= 2;

  02922	8b 45 1c	 mov	 eax, DWORD PTR _AttackDamage$[ebp]
  02925	d1 e0		 shl	 eax, 1
  02927	89 45 1c	 mov	 DWORD PTR _AttackDamage$[ebp], eax

; 1366 : 						}
; 1367 : 						else

  0292a	eb 1f		 jmp	 SHORT $LN442@Attack
$LN444@Attack:

; 1368 : 						{
; 1369 : 							AttackDamage = ( AttackDamage * ( Energy / 10 + 200 )  ) / 100;

  0292c	8b 45 bc	 mov	 eax, DWORD PTR _Energy$[ebp]
  0292f	99		 cdq
  02930	b9 0a 00 00 00	 mov	 ecx, 10			; 0000000aH
  02935	f7 f9		 idiv	 ecx
  02937	05 c8 00 00 00	 add	 eax, 200		; 000000c8H
  0293c	0f af 45 1c	 imul	 eax, DWORD PTR _AttackDamage$[ebp]
  02940	99		 cdq
  02941	b9 64 00 00 00	 mov	 ecx, 100		; 00000064H
  02946	f7 f9		 idiv	 ecx
  02948	89 45 1c	 mov	 DWORD PTR _AttackDamage$[ebp], eax
$LN442@Attack:

; 1370 : 						}
; 1371 : 					}
; 1372 : 					break;

  0294b	e9 fd 10 00 00	 jmp	 $LN459@Attack
$LN441@Attack:

; 1373 : 
; 1374 : 				case 56:
; 1375 : 					AttackDamage *= 2;

  02950	8b 45 1c	 mov	 eax, DWORD PTR _AttackDamage$[ebp]
  02953	d1 e0		 shl	 eax, 1
  02955	89 45 1c	 mov	 DWORD PTR _AttackDamage$[ebp], eax

; 1376 : 					break;

  02958	e9 f0 10 00 00	 jmp	 $LN459@Attack
$LN440@Attack:

; 1377 : 
; 1378 : 				case 46:
; 1379 : 				case 51:
; 1380 : 				case 52:
; 1381 : 					AttackDamage *= 2;

  0295d	8b 45 1c	 mov	 eax, DWORD PTR _AttackDamage$[ebp]
  02960	d1 e0		 shl	 eax, 1
  02962	89 45 1c	 mov	 DWORD PTR _AttackDamage$[ebp], eax

; 1382 : 					break;

  02965	e9 e3 10 00 00	 jmp	 $LN459@Attack
$LN439@Attack:

; 1383 : 
; 1384 : 				case 60:
; 1385 : 				case 61:
; 1386 : 				case 62:
; 1387 : 				case 65:
; 1388 : 				case 74:
; 1389 : 				case 78:
; 1390 : 					{
; 1391 : 						if(g_ExLicense.CheckUser(eExUB::Local) || g_ExLicense.CheckUser(eExUB::Artem) || g_ExLicense.CheckUser(eExUB::Artem2))

  0296a	6a 00		 push	 0
  0296c	b9 00 00 00 00	 mov	 ecx, OFFSET ?g_ExLicense@@3VCExLicense@@A ; g_ExLicense
  02971	e8 00 00 00 00	 call	 ?CheckUser@CExLicense@@QAE_NH@Z ; CExLicense::CheckUser
  02976	0f b6 c0	 movzx	 eax, al
  02979	85 c0		 test	 eax, eax
  0297b	75 26		 jne	 SHORT $LN437@Attack
  0297d	6a 30		 push	 48			; 00000030H
  0297f	b9 00 00 00 00	 mov	 ecx, OFFSET ?g_ExLicense@@3VCExLicense@@A ; g_ExLicense
  02984	e8 00 00 00 00	 call	 ?CheckUser@CExLicense@@QAE_NH@Z ; CExLicense::CheckUser
  02989	0f b6 c0	 movzx	 eax, al
  0298c	85 c0		 test	 eax, eax
  0298e	75 13		 jne	 SHORT $LN437@Attack
  02990	6a 31		 push	 49			; 00000031H
  02992	b9 00 00 00 00	 mov	 ecx, OFFSET ?g_ExLicense@@3VCExLicense@@A ; g_ExLicense
  02997	e8 00 00 00 00	 call	 ?CheckUser@CExLicense@@QAE_NH@Z ; CExLicense::CheckUser
  0299c	0f b6 c0	 movzx	 eax, al
  0299f	85 c0		 test	 eax, eax
  029a1	74 62		 je	 SHORT $LN438@Attack
$LN437@Attack:

; 1392 : 						{
; 1393 : 							int iSkillDMGPercentDL = ( ( ( lpObj->Energy + lpObj->AddEnergy ) / 20 + 200 ) );

  029a3	8b 45 08	 mov	 eax, DWORD PTR _lpObj$[ebp]
  029a6	0f b7 80 fa 00
	00 00		 movzx	 eax, WORD PTR [eax+250]
  029ad	8b 4d 08	 mov	 ecx, DWORD PTR _lpObj$[ebp]
  029b0	0f bf 91 26 01
	00 00		 movsx	 edx, WORD PTR [ecx+294]
  029b7	03 c2		 add	 eax, edx
  029b9	99		 cdq
  029ba	b9 14 00 00 00	 mov	 ecx, 20			; 00000014H
  029bf	f7 f9		 idiv	 ecx
  029c1	05 c8 00 00 00	 add	 eax, 200		; 000000c8H
  029c6	89 85 1c fe ff
	ff		 mov	 DWORD PTR _iSkillDMGPercentDL$240334[ebp], eax

; 1394 : 
; 1395 : 							if(ExConfig.Character.DLSkillDMGPercentMax > 0)

  029cc	83 3d 8c 02 00
	00 00		 cmp	 DWORD PTR ?ExConfig@@3VcExConfigs@@A+652, 0
  029d3	7e 19		 jle	 SHORT $LN435@Attack

; 1396 : 							{
; 1397 : 								if(iSkillDMGPercentDL > ExConfig.Character.DLSkillDMGPercentMax)

  029d5	8b 85 1c fe ff
	ff		 mov	 eax, DWORD PTR _iSkillDMGPercentDL$240334[ebp]
  029db	3b 05 8c 02 00
	00		 cmp	 eax, DWORD PTR ?ExConfig@@3VcExConfigs@@A+652
  029e1	7e 0b		 jle	 SHORT $LN435@Attack

; 1398 : 								{
; 1399 : 									iSkillDMGPercentDL = ExConfig.Character.DLSkillDMGPercentMax;

  029e3	a1 8c 02 00 00	 mov	 eax, DWORD PTR ?ExConfig@@3VcExConfigs@@A+652
  029e8	89 85 1c fe ff
	ff		 mov	 DWORD PTR _iSkillDMGPercentDL$240334[ebp], eax
$LN435@Attack:

; 1400 : 								}
; 1401 : 							}
; 1402 : 
; 1403 : 							AttackDamage = ( AttackDamage * iSkillDMGPercentDL ) / 100;

  029ee	8b 45 1c	 mov	 eax, DWORD PTR _AttackDamage$[ebp]
  029f1	0f af 85 1c fe
	ff ff		 imul	 eax, DWORD PTR _iSkillDMGPercentDL$240334[ebp]
  029f8	99		 cdq
  029f9	b9 64 00 00 00	 mov	 ecx, 100		; 00000064H
  029fe	f7 f9		 idiv	 ecx
  02a00	89 45 1c	 mov	 DWORD PTR _AttackDamage$[ebp], eax

; 1404 : 						}
; 1405 : 						else

  02a03	eb 32		 jmp	 SHORT $LN434@Attack
$LN438@Attack:

; 1406 : 						{
; 1407 : 							AttackDamage = ( AttackDamage * ( ( ( lpObj->Energy + lpObj->AddEnergy ) / 20 + 200 ) ) ) / 100;

  02a05	8b 45 08	 mov	 eax, DWORD PTR _lpObj$[ebp]
  02a08	0f b7 80 fa 00
	00 00		 movzx	 eax, WORD PTR [eax+250]
  02a0f	8b 4d 08	 mov	 ecx, DWORD PTR _lpObj$[ebp]
  02a12	0f bf 91 26 01
	00 00		 movsx	 edx, WORD PTR [ecx+294]
  02a19	03 c2		 add	 eax, edx
  02a1b	99		 cdq
  02a1c	b9 14 00 00 00	 mov	 ecx, 20			; 00000014H
  02a21	f7 f9		 idiv	 ecx
  02a23	05 c8 00 00 00	 add	 eax, 200		; 000000c8H
  02a28	0f af 45 1c	 imul	 eax, DWORD PTR _AttackDamage$[ebp]
  02a2c	99		 cdq
  02a2d	b9 64 00 00 00	 mov	 ecx, 100		; 00000064H
  02a32	f7 f9		 idiv	 ecx
  02a34	89 45 1c	 mov	 DWORD PTR _AttackDamage$[ebp], eax
$LN434@Attack:

; 1408 : 						}
; 1409 : 
; 1410 : 					}
; 1411 : 					break;

  02a37	e9 11 10 00 00	 jmp	 $LN459@Attack
$LN433@Attack:

; 1412 : 
; 1413 : 				case 76:
; 1414 : 					{
; 1415 : 						int iDamageInc = lpObj->Level - 300;

  02a3c	8b 45 08	 mov	 eax, DWORD PTR _lpObj$[ebp]
  02a3f	0f bf 88 be 00
	00 00		 movsx	 ecx, WORD PTR [eax+190]
  02a46	81 e9 2c 01 00
	00		 sub	 ecx, 300		; 0000012cH
  02a4c	89 8d 18 fe ff
	ff		 mov	 DWORD PTR _iDamageInc$240339[ebp], ecx

; 1416 : 
; 1417 : 						iDamageInc += lpObj->MLevel;

  02a52	8b 45 08	 mov	 eax, DWORD PTR _lpObj$[ebp]
  02a55	0f bf 88 d0 00
	00 00		 movsx	 ecx, WORD PTR [eax+208]
  02a5c	03 8d 18 fe ff
	ff		 add	 ecx, DWORD PTR _iDamageInc$240339[ebp]
  02a62	89 8d 18 fe ff
	ff		 mov	 DWORD PTR _iDamageInc$240339[ebp], ecx

; 1418 : 
; 1419 : 						if ( iDamageInc < 0 )

  02a68	79 0a		 jns	 SHORT $LN432@Attack

; 1420 : 						{
; 1421 : 							iDamageInc = 0;

  02a6a	c7 85 18 fe ff
	ff 00 00 00 00	 mov	 DWORD PTR _iDamageInc$240339[ebp], 0
$LN432@Attack:

; 1422 : 						}
; 1423 : 
; 1424 : 						iDamageInc /= 5;

  02a74	8b 85 18 fe ff
	ff		 mov	 eax, DWORD PTR _iDamageInc$240339[ebp]
  02a7a	99		 cdq
  02a7b	b9 05 00 00 00	 mov	 ecx, 5
  02a80	f7 f9		 idiv	 ecx
  02a82	89 85 18 fe ff
	ff		 mov	 DWORD PTR _iDamageInc$240339[ebp], eax

; 1425 : 						AttackDamage = ( AttackDamage * ( iDamageInc + 200 ) ) / 100;

  02a88	8b 85 18 fe ff
	ff		 mov	 eax, DWORD PTR _iDamageInc$240339[ebp]
  02a8e	05 c8 00 00 00	 add	 eax, 200		; 000000c8H
  02a93	0f af 45 1c	 imul	 eax, DWORD PTR _AttackDamage$[ebp]
  02a97	99		 cdq
  02a98	b9 64 00 00 00	 mov	 ecx, 100		; 00000064H
  02a9d	f7 f9		 idiv	 ecx
  02a9f	89 45 1c	 mov	 DWORD PTR _AttackDamage$[ebp], eax

; 1426 : 					}
; 1427 : 					break;

  02aa2	e9 a6 0f 00 00	 jmp	 $LN459@Attack
$LN431@Attack:

; 1428 : 				case 216:
; 1429 : 					gObjUseSkill.SkillEletrictSurgeProc(lpObj, lpTargetObj, 216, AttackDamage, 1, 50);

  02aa7	6a 32		 push	 50			; 00000032H
  02aa9	6a 01		 push	 1
  02aab	8b 45 1c	 mov	 eax, DWORD PTR _AttackDamage$[ebp]
  02aae	50		 push	 eax
  02aaf	68 d8 00 00 00	 push	 216			; 000000d8H
  02ab4	8b 4d 0c	 mov	 ecx, DWORD PTR _lpTargetObj$[ebp]
  02ab7	51		 push	 ecx
  02ab8	8b 55 08	 mov	 edx, DWORD PTR _lpObj$[ebp]
  02abb	52		 push	 edx
  02abc	b9 00 00 00 00	 mov	 ecx, OFFSET ?gObjUseSkill@@3VCObjUseSkill@@A ; gObjUseSkill
  02ac1	e8 00 00 00 00	 call	 ?SkillEletrictSurgeProc@CObjUseSkill@@QAEHPAUOBJECTSTRUCT@@0HHHH@Z ; CObjUseSkill::SkillEletrictSurgeProc

; 1430 : 					break;

  02ac6	e9 82 0f 00 00	 jmp	 $LN459@Attack
$LN430@Attack:

; 1431 : 				case 214: //Drain Life
; 1432 : #if(S5E4)
; 1433 : 				case 550:
; 1434 : 				case 551:
; 1435 : 				case 552:
; 1436 : 				case 553:
; 1437 : 				case 554:
; 1438 : #endif
; 1439 : 					{
; 1440 : 						int iRecvLife = 0;

  02acb	c7 85 14 fe ff
	ff 00 00 00 00	 mov	 DWORD PTR _iRecvLife$240343[ebp], 0

; 1441 : 
; 1442 : 						if(lpTargetObj->Type == OBJ_MONSTER)

  02ad5	8b 45 0c	 mov	 eax, DWORD PTR _lpTargetObj$[ebp]
  02ad8	0f b7 48 68	 movzx	 ecx, WORD PTR [eax+104]
  02adc	83 f9 02	 cmp	 ecx, 2
  02adf	75 49		 jne	 SHORT $LN429@Attack

; 1443 : 						{
; 1444 : 							iRecvLife = (int)((lpObj->Energy / 15) + (lpTargetObj->Level / 2.5));

  02ae1	8b 45 08	 mov	 eax, DWORD PTR _lpObj$[ebp]
  02ae4	0f b7 80 fa 00
	00 00		 movzx	 eax, WORD PTR [eax+250]
  02aeb	99		 cdq
  02aec	b9 0f 00 00 00	 mov	 ecx, 15			; 0000000fH
  02af1	f7 f9		 idiv	 ecx
  02af3	89 85 c8 fc ff
	ff		 mov	 DWORD PTR tv6112[ebp], eax
  02af9	db 85 c8 fc ff
	ff		 fild	 DWORD PTR tv6112[ebp]
  02aff	8b 55 0c	 mov	 edx, DWORD PTR _lpTargetObj$[ebp]
  02b02	0f bf 82 be 00
	00 00		 movsx	 eax, WORD PTR [edx+190]
  02b09	89 85 c4 fc ff
	ff		 mov	 DWORD PTR tv6114[ebp], eax
  02b0f	db 85 c4 fc ff
	ff		 fild	 DWORD PTR tv6114[ebp]
  02b15	dc 35 00 00 00
	00		 fdiv	 QWORD PTR __real@4004000000000000
  02b1b	de c1		 faddp	 ST(1), ST(0)
  02b1d	e8 00 00 00 00	 call	 __ftol2_sse
  02b22	89 85 14 fe ff
	ff		 mov	 DWORD PTR _iRecvLife$240343[ebp], eax
  02b28	eb 36		 jmp	 SHORT $LN427@Attack
$LN429@Attack:

; 1445 : 						}
; 1446 : 						else if(lpTargetObj->Type == OBJ_USER)

  02b2a	8b 45 0c	 mov	 eax, DWORD PTR _lpTargetObj$[ebp]
  02b2d	0f b7 48 68	 movzx	 ecx, WORD PTR [eax+104]
  02b31	83 f9 01	 cmp	 ecx, 1
  02b34	75 2a		 jne	 SHORT $LN427@Attack

; 1447 : 						{
; 1448 : 							iRecvLife = ((AttackDamage * 10) / 100) + (lpObj->Energy / 23);

  02b36	8b 45 1c	 mov	 eax, DWORD PTR _AttackDamage$[ebp]
  02b39	6b c0 0a	 imul	 eax, 10			; 0000000aH
  02b3c	99		 cdq
  02b3d	b9 64 00 00 00	 mov	 ecx, 100		; 00000064H
  02b42	f7 f9		 idiv	 ecx
  02b44	8b c8		 mov	 ecx, eax
  02b46	8b 55 08	 mov	 edx, DWORD PTR _lpObj$[ebp]
  02b49	0f b7 82 fa 00
	00 00		 movzx	 eax, WORD PTR [edx+250]
  02b50	99		 cdq
  02b51	be 17 00 00 00	 mov	 esi, 23			; 00000017H
  02b56	f7 fe		 idiv	 esi
  02b58	03 c8		 add	 ecx, eax
  02b5a	89 8d 14 fe ff
	ff		 mov	 DWORD PTR _iRecvLife$240343[ebp], ecx
$LN427@Attack:

; 1449 : 						}
; 1450 : 
; 1451 : 						int CurrentLife = (int)(iRecvLife + lpObj->Life);

  02b60	db 85 14 fe ff
	ff		 fild	 DWORD PTR _iRecvLife$240343[ebp]
  02b66	8b 45 08	 mov	 eax, DWORD PTR _lpObj$[ebp]
  02b69	d8 80 fc 00 00
	00		 fadd	 DWORD PTR [eax+252]
  02b6f	e8 00 00 00 00	 call	 __ftol2_sse
  02b74	89 85 10 fe ff
	ff		 mov	 DWORD PTR _CurrentLife$240348[ebp], eax

; 1452 : 
; 1453 : 						if(CurrentLife > (lpObj->AddLife + lpObj->MaxLife))

  02b7a	db 85 10 fe ff
	ff		 fild	 DWORD PTR _CurrentLife$240348[ebp]
  02b80	8b 45 08	 mov	 eax, DWORD PTR _lpObj$[ebp]
  02b83	db 80 4c 01 00
	00		 fild	 DWORD PTR [eax+332]
  02b89	8b 4d 08	 mov	 ecx, DWORD PTR _lpObj$[ebp]
  02b8c	d8 81 00 01 00
	00		 fadd	 DWORD PTR [ecx+256]
  02b92	de d9		 fcompp
  02b94	df e0		 fnstsw	 ax
  02b96	f6 c4 05	 test	 ah, 5
  02b99	7a 1d		 jp	 SHORT $LN426@Attack

; 1454 : 						{
; 1455 : 							lpObj->Life = lpObj->AddLife + lpObj->MaxLife;

  02b9b	8b 45 08	 mov	 eax, DWORD PTR _lpObj$[ebp]
  02b9e	db 80 4c 01 00
	00		 fild	 DWORD PTR [eax+332]
  02ba4	8b 4d 08	 mov	 ecx, DWORD PTR _lpObj$[ebp]
  02ba7	d8 81 00 01 00
	00		 fadd	 DWORD PTR [ecx+256]
  02bad	8b 55 08	 mov	 edx, DWORD PTR _lpObj$[ebp]
  02bb0	d9 9a fc 00 00
	00		 fstp	 DWORD PTR [edx+252]

; 1456 : 						}
; 1457 : 						else

  02bb6	eb 0f		 jmp	 SHORT $LN425@Attack
$LN426@Attack:

; 1458 : 						{
; 1459 : 							lpObj->Life = (float)CurrentLife;

  02bb8	db 85 10 fe ff
	ff		 fild	 DWORD PTR _CurrentLife$240348[ebp]
  02bbe	8b 45 08	 mov	 eax, DWORD PTR _lpObj$[ebp]
  02bc1	d9 98 fc 00 00
	00		 fstp	 DWORD PTR [eax+252]
$LN425@Attack:

; 1460 : 						}
; 1461 : 
; 1462 : 						GCReFillSend(lpObj->m_Index,lpObj->Life, -1, 0, lpObj->iShield);

  02bc7	8b 45 08	 mov	 eax, DWORD PTR _lpObj$[ebp]
  02bca	8b 88 54 01 00
	00		 mov	 ecx, DWORD PTR [eax+340]
  02bd0	51		 push	 ecx
  02bd1	6a 00		 push	 0
  02bd3	68 ff 00 00 00	 push	 255			; 000000ffH
  02bd8	8b 55 08	 mov	 edx, DWORD PTR _lpObj$[ebp]
  02bdb	d9 82 fc 00 00
	00		 fld	 DWORD PTR [edx+252]
  02be1	e8 00 00 00 00	 call	 __ftol2_sse
  02be6	50		 push	 eax
  02be7	8b 45 08	 mov	 eax, DWORD PTR _lpObj$[ebp]
  02bea	8b 08		 mov	 ecx, DWORD PTR [eax]
  02bec	51		 push	 ecx
  02bed	e8 00 00 00 00	 call	 ?GCReFillSend@@YAXHHEEH@Z ; GCReFillSend
  02bf2	83 c4 14	 add	 esp, 20			; 00000014H

; 1463 : 					}
; 1464 : 					break;

  02bf5	e9 53 0e 00 00	 jmp	 $LN459@Attack
$LN424@Attack:

; 1465 : 				case 215: //Chain Lightning Skill
; 1466 : #if(S5E4)
; 1467 : 				case 540:
; 1468 : 				case 541:
; 1469 : 				case 542:
; 1470 : 				case 543:
; 1471 : 				case 544:
; 1472 : #endif
; 1473 : 					{
; 1474 : 						switch(bCombo) //LOOL!!

  02bfa	8b 45 20	 mov	 eax, DWORD PTR _bCombo$[ebp]
  02bfd	89 85 c8 fc ff
	ff		 mov	 DWORD PTR tv2012[ebp], eax
  02c03	83 bd c8 fc ff
	ff 01		 cmp	 DWORD PTR tv2012[ebp], 1
  02c0a	74 14		 je	 SHORT $LN421@Attack
  02c0c	83 bd c8 fc ff
	ff 02		 cmp	 DWORD PTR tv2012[ebp], 2
  02c13	74 0d		 je	 SHORT $LN420@Attack
  02c15	83 bd c8 fc ff
	ff 03		 cmp	 DWORD PTR tv2012[ebp], 3
  02c1c	74 17		 je	 SHORT $LN419@Attack
  02c1e	eb 28		 jmp	 SHORT $LN418@Attack
$LN421@Attack:

; 1475 : 						{
; 1476 : 						case 1:
; 1477 : 							break;

  02c20	eb 2d		 jmp	 SHORT $LN422@Attack
$LN420@Attack:

; 1478 : 						case 2:
; 1479 : 							AttackDamage = AttackDamage * 70/ 100;

  02c22	8b 45 1c	 mov	 eax, DWORD PTR _AttackDamage$[ebp]
  02c25	6b c0 46	 imul	 eax, 70			; 00000046H
  02c28	99		 cdq
  02c29	b9 64 00 00 00	 mov	 ecx, 100		; 00000064H
  02c2e	f7 f9		 idiv	 ecx
  02c30	89 45 1c	 mov	 DWORD PTR _AttackDamage$[ebp], eax

; 1480 : 							break;

  02c33	eb 1a		 jmp	 SHORT $LN422@Attack
$LN419@Attack:

; 1481 : 						case 3:
; 1482 : 							AttackDamage = AttackDamage * 50/ 100;

  02c35	8b 45 1c	 mov	 eax, DWORD PTR _AttackDamage$[ebp]
  02c38	6b c0 32	 imul	 eax, 50			; 00000032H
  02c3b	99		 cdq
  02c3c	b9 64 00 00 00	 mov	 ecx, 100		; 00000064H
  02c41	f7 f9		 idiv	 ecx
  02c43	89 45 1c	 mov	 DWORD PTR _AttackDamage$[ebp], eax

; 1483 : 							break;

  02c46	eb 07		 jmp	 SHORT $LN422@Attack
$LN418@Attack:

; 1484 : 						default:
; 1485 : 							return FALSE;

  02c48	33 c0		 xor	 eax, eax
  02c4a	e9 a8 3d 00 00	 jmp	 $LN741@Attack
$LN422@Attack:

; 1486 : 						}
; 1487 : 						bCombo = 0; 

  02c4f	c7 45 20 00 00
	00 00		 mov	 DWORD PTR _bCombo$[ebp], 0

; 1488 : 					}
; 1489 : 					break;

  02c56	e9 f2 0d 00 00	 jmp	 $LN459@Attack
$LN417@Attack:

; 1490 : 
; 1491 : 				case 223: //Book of Sahamutt
; 1492 : 					{
; 1493 : 						int value;
; 1494 : 
; 1495 : 						if( lpObj->m_MPSkillOpt.MpsFireTomeMastery > 0 )

  02c5b	8b 45 08	 mov	 eax, DWORD PTR _lpObj$[ebp]
  02c5e	d9 80 dc 26 00
	00		 fld	 DWORD PTR [eax+9948]
  02c64	dc 1d 00 00 00
	00		 fcomp	 QWORD PTR __real@0000000000000000
  02c6a	df e0		 fnstsw	 ax
  02c6c	f6 c4 41	 test	 ah, 65			; 00000041H
  02c6f	75 27		 jne	 SHORT $LN416@Attack

; 1496 : 						{
; 1497 : 							value = AttackDamage * (60.0f+lpObj->m_MPSkillOpt.MpsFireTomeMastery) / 100.0f;

  02c71	db 45 1c	 fild	 DWORD PTR _AttackDamage$[ebp]
  02c74	8b 45 08	 mov	 eax, DWORD PTR _lpObj$[ebp]
  02c77	d9 80 dc 26 00
	00		 fld	 DWORD PTR [eax+9948]
  02c7d	dc 05 00 00 00
	00		 fadd	 QWORD PTR __real@404e000000000000
  02c83	de c9		 fmulp	 ST(1), ST(0)
  02c85	dc 35 00 00 00
	00		 fdiv	 QWORD PTR __real@4059000000000000
  02c8b	e8 00 00 00 00	 call	 __ftol2_sse
  02c90	89 85 0c fe ff
	ff		 mov	 DWORD PTR _value$240363[ebp], eax

; 1498 : 						}
; 1499 : 						else

  02c96	eb 14		 jmp	 SHORT $LN415@Attack
$LN416@Attack:

; 1500 : 						{
; 1501 : 							value = AttackDamage * 60 / 100;

  02c98	8b 45 1c	 mov	 eax, DWORD PTR _AttackDamage$[ebp]
  02c9b	6b c0 3c	 imul	 eax, 60			; 0000003cH
  02c9e	99		 cdq
  02c9f	b9 64 00 00 00	 mov	 ecx, 100		; 00000064H
  02ca4	f7 f9		 idiv	 ecx
  02ca6	89 85 0c fe ff
	ff		 mov	 DWORD PTR _value$240363[ebp], eax
$LN415@Attack:

; 1502 : 						}
; 1503 : 						
; 1504 : 						gObjApplyBuffEffectDuration(lpTargetObj, AT_EXPLOSION, 18, value, 0, 0, 5);

  02cac	6a 05		 push	 5
  02cae	6a 00		 push	 0
  02cb0	6a 00		 push	 0
  02cb2	8b 85 0c fe ff
	ff		 mov	 eax, DWORD PTR _value$240363[ebp]
  02cb8	50		 push	 eax
  02cb9	6a 12		 push	 18			; 00000012H
  02cbb	6a 4b		 push	 75			; 0000004bH
  02cbd	8b 4d 0c	 mov	 ecx, DWORD PTR _lpTargetObj$[ebp]
  02cc0	51		 push	 ecx
  02cc1	e8 00 00 00 00	 call	 ?gObjApplyBuffEffectDuration@@YAEPAUOBJECTSTRUCT@@HEHEHH@Z ; gObjApplyBuffEffectDuration
  02cc6	83 c4 1c	 add	 esp, 28			; 0000001cH

; 1505 : 					}
; 1506 : 					break;

  02cc9	e9 7f 0d 00 00	 jmp	 $LN459@Attack
$LN414@Attack:

; 1507 : 				case 224: //Book of Neil
; 1508 : 					{
; 1509 : 						int value = AttackDamage * 60 / 100;

  02cce	8b 45 1c	 mov	 eax, DWORD PTR _AttackDamage$[ebp]
  02cd1	6b c0 3c	 imul	 eax, 60			; 0000003cH
  02cd4	99		 cdq
  02cd5	b9 64 00 00 00	 mov	 ecx, 100		; 00000064H
  02cda	f7 f9		 idiv	 ecx
  02cdc	89 85 08 fe ff
	ff		 mov	 DWORD PTR _value$240367[ebp], eax

; 1510 : 						gObjApplyBuffEffectDuration(lpTargetObj, AT_REQUIEM, 18, value, 0, 0, 5);

  02ce2	6a 05		 push	 5
  02ce4	6a 00		 push	 0
  02ce6	6a 00		 push	 0
  02ce8	8b 85 08 fe ff
	ff		 mov	 eax, DWORD PTR _value$240367[ebp]
  02cee	50		 push	 eax
  02cef	6a 12		 push	 18			; 00000012H
  02cf1	6a 4a		 push	 74			; 0000004aH
  02cf3	8b 4d 0c	 mov	 ecx, DWORD PTR _lpTargetObj$[ebp]
  02cf6	51		 push	 ecx
  02cf7	e8 00 00 00 00	 call	 ?gObjApplyBuffEffectDuration@@YAEPAUOBJECTSTRUCT@@HEHEHH@Z ; gObjApplyBuffEffectDuration
  02cfc	83 c4 1c	 add	 esp, 28			; 0000001cH

; 1511 : 					}
; 1512 : 					break;

  02cff	e9 49 0d 00 00	 jmp	 $LN459@Attack
$LN413@Attack:

; 1513 : 				case 219: //Sleep Skill
; 1514 : 					{
; 1515 : 						//int value = 0;
; 1516 : 
; 1517 : 						//if(lpTargetObj->Type == OBJ_MONSTER)
; 1518 : 						//{
; 1519 : 						//	value = ((lpObj->Energy / 30) + (lpObj->m_iSummonerBookSpell / 6) + 20);
; 1520 : 						//}
; 1521 : 						//else if(lpTargetObj->Type == OBJ_USER)
; 1522 : 						//{
; 1523 : 						//	value = ((lpObj->Energy / 37) + (lpObj->m_iSummonerBookSpell / 6) + 15);
; 1524 : 						//}
; 1525 : 
; 1526 : 						//if(value < rand()%100)
; 1527 : 						//{
; 1528 : 						//	GCDamageSend(lpObj->m_Index, lpTargetObj->m_Index, 0, 0, 0, 0);
; 1529 : 						//	return FALSE;
; 1530 : 						//}
; 1531 : 
; 1532 : 						//int value2 = 0;
; 1533 : 
; 1534 : 						//if(lpTargetObj->Type == OBJ_MONSTER)
; 1535 : 						//{
; 1536 : 						//	value2 = ((lpObj->Energy / 100) + 5) - (lpTargetObj->Level / 20);
; 1537 : 						//}
; 1538 : 						//else if(lpTargetObj->Type == OBJ_USER)
; 1539 : 						//{
; 1540 : 						//	value2 = ((lpObj->Energy / 250) + ((lpObj->Level - lpTargetObj->Level) / 100) + 4);
; 1541 : 						//}
; 1542 : 
; 1543 : 						//if(value2 < 1)
; 1544 : 						//{
; 1545 : 						//	GCDamageSend(lpObj->m_Index, lpTargetObj->m_Index, 0, 0, 0, 0);
; 1546 : 						//	return FALSE;
; 1547 : 						//}
; 1548 : 
; 1549 : 						//if(gObjCheckBuffEffectValue(lpTargetObj, AT_SLEEP, value2, 0) == 1)
; 1550 : 						//{
; 1551 : 						//	GCMagicAttackNumberSend(lpObj, 219, lpTargetObj->m_Index, 0);
; 1552 : 						//	return FALSE;
; 1553 : 						//}
; 1554 : 
; 1555 : 						//gObjApplyBuffEffectDuration(lpTargetObj, AT_SLEEP, 25, value2, 0, 0, value2);
; 1556 : 						//return TRUE;
; 1557 : 
; 1558 : 						int Rate = 0;

  02d04	c7 85 04 fe ff
	ff 00 00 00 00	 mov	 DWORD PTR _Rate$240369[ebp], 0

; 1559 : 
; 1560 : 						if( lpTargetObj->Type == OBJ_MONSTER )

  02d0e	8b 45 0c	 mov	 eax, DWORD PTR _lpTargetObj$[ebp]
  02d11	0f b7 48 68	 movzx	 ecx, WORD PTR [eax+104]
  02d15	83 f9 02	 cmp	 ecx, 2
  02d18	75 5f		 jne	 SHORT $LN412@Attack

; 1561 : 						{
; 1562 : 							Rate = g_SkillAdditionInfo.SleepRateStartVsMob + lpObj->Energy / g_SkillAdditionInfo.SleepRateDivVsMob + lpObj->m_iSummonerBookSpell / 6;

  02d1a	0f b7 0d 3c 0c
	00 00		 movzx	 ecx, WORD PTR ?g_SkillAdditionInfo@@3VCSkillAdditionInfo@@A+3132
  02d21	8b 55 08	 mov	 edx, DWORD PTR _lpObj$[ebp]
  02d24	0f b7 82 fa 00
	00 00		 movzx	 eax, WORD PTR [edx+250]
  02d2b	0f b7 35 3e 0c
	00 00		 movzx	 esi, WORD PTR ?g_SkillAdditionInfo@@3VCSkillAdditionInfo@@A+3134
  02d32	99		 cdq
  02d33	f7 fe		 idiv	 esi
  02d35	03 c8		 add	 ecx, eax
  02d37	8b 45 08	 mov	 eax, DWORD PTR _lpObj$[ebp]
  02d3a	8b 80 a0 04 00
	00		 mov	 eax, DWORD PTR [eax+1184]
  02d40	99		 cdq
  02d41	be 06 00 00 00	 mov	 esi, 6
  02d46	f7 fe		 idiv	 esi
  02d48	03 c8		 add	 ecx, eax
  02d4a	89 8d 04 fe ff
	ff		 mov	 DWORD PTR _Rate$240369[ebp], ecx

; 1563 : 
; 1564 : 							if(g_SkillAdditionInfo.SleepRateMaxVsMob	!= 0)

  02d50	0f b7 05 40 0c
	00 00		 movzx	 eax, WORD PTR ?g_SkillAdditionInfo@@3VCSkillAdditionInfo@@A+3136
  02d57	85 c0		 test	 eax, eax
  02d59	74 1c		 je	 SHORT $LN410@Attack

; 1565 : 							{
; 1566 : 								if(Rate > g_SkillAdditionInfo.SleepRateMaxVsMob)

  02d5b	0f b7 05 40 0c
	00 00		 movzx	 eax, WORD PTR ?g_SkillAdditionInfo@@3VCSkillAdditionInfo@@A+3136
  02d62	39 85 04 fe ff
	ff		 cmp	 DWORD PTR _Rate$240369[ebp], eax
  02d68	7e 0d		 jle	 SHORT $LN410@Attack

; 1567 : 								{
; 1568 : 									Rate = g_SkillAdditionInfo.SleepRateMaxVsMob;

  02d6a	0f b7 05 40 0c
	00 00		 movzx	 eax, WORD PTR ?g_SkillAdditionInfo@@3VCSkillAdditionInfo@@A+3136
  02d71	89 85 04 fe ff
	ff		 mov	 DWORD PTR _Rate$240369[ebp], eax
$LN410@Attack:

; 1569 : 								}
; 1570 : 							}
; 1571 : 						}

  02d77	eb 69		 jmp	 SHORT $LN406@Attack
$LN412@Attack:

; 1572 : 						else if( lpTargetObj->Type == OBJ_USER )

  02d79	8b 45 0c	 mov	 eax, DWORD PTR _lpTargetObj$[ebp]
  02d7c	0f b7 48 68	 movzx	 ecx, WORD PTR [eax+104]
  02d80	83 f9 01	 cmp	 ecx, 1
  02d83	75 5d		 jne	 SHORT $LN406@Attack

; 1573 : 						{
; 1574 : 							Rate = g_SkillAdditionInfo.SleepRateStartVsUser + lpObj->Energy / g_SkillAdditionInfo.SleepRateDivVsUser + lpObj->m_iSummonerBookSpell / 6;

  02d85	0f b7 0d 48 0c
	00 00		 movzx	 ecx, WORD PTR ?g_SkillAdditionInfo@@3VCSkillAdditionInfo@@A+3144
  02d8c	8b 55 08	 mov	 edx, DWORD PTR _lpObj$[ebp]
  02d8f	0f b7 82 fa 00
	00 00		 movzx	 eax, WORD PTR [edx+250]
  02d96	0f b7 35 4a 0c
	00 00		 movzx	 esi, WORD PTR ?g_SkillAdditionInfo@@3VCSkillAdditionInfo@@A+3146
  02d9d	99		 cdq
  02d9e	f7 fe		 idiv	 esi
  02da0	03 c8		 add	 ecx, eax
  02da2	8b 45 08	 mov	 eax, DWORD PTR _lpObj$[ebp]
  02da5	8b 80 a0 04 00
	00		 mov	 eax, DWORD PTR [eax+1184]
  02dab	99		 cdq
  02dac	be 06 00 00 00	 mov	 esi, 6
  02db1	f7 fe		 idiv	 esi
  02db3	03 c8		 add	 ecx, eax
  02db5	89 8d 04 fe ff
	ff		 mov	 DWORD PTR _Rate$240369[ebp], ecx

; 1575 : 
; 1576 : 							if(g_SkillAdditionInfo.SleepRateMaxVsUser	!= 0)

  02dbb	0f b7 05 4c 0c
	00 00		 movzx	 eax, WORD PTR ?g_SkillAdditionInfo@@3VCSkillAdditionInfo@@A+3148
  02dc2	85 c0		 test	 eax, eax
  02dc4	74 1c		 je	 SHORT $LN406@Attack

; 1577 : 							{
; 1578 : 								if(Rate > g_SkillAdditionInfo.SleepRateMaxVsUser)

  02dc6	0f b7 05 4c 0c
	00 00		 movzx	 eax, WORD PTR ?g_SkillAdditionInfo@@3VCSkillAdditionInfo@@A+3148
  02dcd	39 85 04 fe ff
	ff		 cmp	 DWORD PTR _Rate$240369[ebp], eax
  02dd3	7e 0d		 jle	 SHORT $LN406@Attack

; 1579 : 								{
; 1580 : 									Rate = g_SkillAdditionInfo.SleepRateMaxVsUser;

  02dd5	0f b7 05 4c 0c
	00 00		 movzx	 eax, WORD PTR ?g_SkillAdditionInfo@@3VCSkillAdditionInfo@@A+3148
  02ddc	89 85 04 fe ff
	ff		 mov	 DWORD PTR _Rate$240369[ebp], eax
$LN406@Attack:

; 1581 : 								}
; 1582 : 							}
; 1583 : 						}
; 1584 : 
; 1585 : 						if( Rate < rand()%100)

  02de2	e8 00 00 00 00	 call	 _rand
  02de7	99		 cdq
  02de8	b9 64 00 00 00	 mov	 ecx, 100		; 00000064H
  02ded	f7 f9		 idiv	 ecx
  02def	39 95 04 fe ff
	ff		 cmp	 DWORD PTR _Rate$240369[ebp], edx
  02df5	7d 23		 jge	 SHORT $LN405@Attack

; 1586 : 						{
; 1587 : 							GCDamageSend(lpObj->m_Index,lpTargetObj->m_Index,0,0,0,0);

  02df7	6a 00		 push	 0
  02df9	6a 00		 push	 0
  02dfb	6a 00		 push	 0
  02dfd	6a 00		 push	 0
  02dff	8b 45 0c	 mov	 eax, DWORD PTR _lpTargetObj$[ebp]
  02e02	8b 08		 mov	 ecx, DWORD PTR [eax]
  02e04	51		 push	 ecx
  02e05	8b 55 08	 mov	 edx, DWORD PTR _lpObj$[ebp]
  02e08	8b 02		 mov	 eax, DWORD PTR [edx]
  02e0a	50		 push	 eax
  02e0b	e8 00 00 00 00	 call	 ?GCDamageSend@@YAXHHHHHH@Z ; GCDamageSend
  02e10	83 c4 18	 add	 esp, 24			; 00000018H

; 1588 : 							return FALSE;

  02e13	33 c0		 xor	 eax, eax
  02e15	e9 dd 3b 00 00	 jmp	 $LN741@Attack
$LN405@Attack:

; 1589 : 						}
; 1590 : 
; 1591 : 						int SleepTime = 0;

  02e1a	c7 85 00 fe ff
	ff 00 00 00 00	 mov	 DWORD PTR _SleepTime$240378[ebp], 0

; 1592 : 
; 1593 : 						if( lpTargetObj->Type == OBJ_MONSTER )

  02e24	8b 45 0c	 mov	 eax, DWORD PTR _lpTargetObj$[ebp]
  02e27	0f b7 48 68	 movzx	 ecx, WORD PTR [eax+104]
  02e2b	83 f9 02	 cmp	 ecx, 2
  02e2e	75 60		 jne	 SHORT $LN404@Attack

; 1594 : 						{
; 1595 : 							SleepTime = (g_SkillAdditionInfo.SleepTimeStartVsMob + lpObj->Energy /g_SkillAdditionInfo.SleepTimeDivVsMob) - lpTargetObj->Level / 20;

  02e30	0f b7 0d 42 0c
	00 00		 movzx	 ecx, WORD PTR ?g_SkillAdditionInfo@@3VCSkillAdditionInfo@@A+3138
  02e37	8b 55 08	 mov	 edx, DWORD PTR _lpObj$[ebp]
  02e3a	0f b7 82 fa 00
	00 00		 movzx	 eax, WORD PTR [edx+250]
  02e41	0f b7 35 44 0c
	00 00		 movzx	 esi, WORD PTR ?g_SkillAdditionInfo@@3VCSkillAdditionInfo@@A+3140
  02e48	99		 cdq
  02e49	f7 fe		 idiv	 esi
  02e4b	03 c8		 add	 ecx, eax
  02e4d	8b 45 0c	 mov	 eax, DWORD PTR _lpTargetObj$[ebp]
  02e50	0f bf 80 be 00
	00 00		 movsx	 eax, WORD PTR [eax+190]
  02e57	99		 cdq
  02e58	be 14 00 00 00	 mov	 esi, 20			; 00000014H
  02e5d	f7 fe		 idiv	 esi
  02e5f	2b c8		 sub	 ecx, eax
  02e61	89 8d 00 fe ff
	ff		 mov	 DWORD PTR _SleepTime$240378[ebp], ecx

; 1596 : 
; 1597 : 							if(g_SkillAdditionInfo.SleepTimeMaxVsMob != 0)

  02e67	0f b7 05 46 0c
	00 00		 movzx	 eax, WORD PTR ?g_SkillAdditionInfo@@3VCSkillAdditionInfo@@A+3142
  02e6e	85 c0		 test	 eax, eax
  02e70	74 1c		 je	 SHORT $LN402@Attack

; 1598 : 							{
; 1599 : 								if(SleepTime > g_SkillAdditionInfo.SleepTimeMaxVsMob)

  02e72	0f b7 05 46 0c
	00 00		 movzx	 eax, WORD PTR ?g_SkillAdditionInfo@@3VCSkillAdditionInfo@@A+3142
  02e79	39 85 00 fe ff
	ff		 cmp	 DWORD PTR _SleepTime$240378[ebp], eax
  02e7f	7e 0d		 jle	 SHORT $LN402@Attack

; 1600 : 								{
; 1601 : 									SleepTime = g_SkillAdditionInfo.SleepTimeMaxVsMob;

  02e81	0f b7 05 46 0c
	00 00		 movzx	 eax, WORD PTR ?g_SkillAdditionInfo@@3VCSkillAdditionInfo@@A+3142
  02e88	89 85 00 fe ff
	ff		 mov	 DWORD PTR _SleepTime$240378[ebp], eax
$LN402@Attack:

; 1602 : 								}
; 1603 : 							}
; 1604 : 						}

  02e8e	eb 78		 jmp	 SHORT $LN398@Attack
$LN404@Attack:

; 1605 : 						else if( lpTargetObj->Type == OBJ_USER )

  02e90	8b 45 0c	 mov	 eax, DWORD PTR _lpTargetObj$[ebp]
  02e93	0f b7 48 68	 movzx	 ecx, WORD PTR [eax+104]
  02e97	83 f9 01	 cmp	 ecx, 1
  02e9a	75 6c		 jne	 SHORT $LN398@Attack

; 1606 : 						{
; 1607 : 							SleepTime = g_SkillAdditionInfo.SleepTimeStartVsUser + ((lpObj->Energy /g_SkillAdditionInfo.SleepTimeDivVsUser) + (lpObj->Level - lpTargetObj->Level) / 100);

  02e9c	0f b7 0d 4e 0c
	00 00		 movzx	 ecx, WORD PTR ?g_SkillAdditionInfo@@3VCSkillAdditionInfo@@A+3150
  02ea3	8b 55 08	 mov	 edx, DWORD PTR _lpObj$[ebp]
  02ea6	0f b7 82 fa 00
	00 00		 movzx	 eax, WORD PTR [edx+250]
  02ead	0f b7 35 50 0c
	00 00		 movzx	 esi, WORD PTR ?g_SkillAdditionInfo@@3VCSkillAdditionInfo@@A+3152
  02eb4	99		 cdq
  02eb5	f7 fe		 idiv	 esi
  02eb7	8b f0		 mov	 esi, eax
  02eb9	8b 45 08	 mov	 eax, DWORD PTR _lpObj$[ebp]
  02ebc	0f bf 80 be 00
	00 00		 movsx	 eax, WORD PTR [eax+190]
  02ec3	8b 55 0c	 mov	 edx, DWORD PTR _lpTargetObj$[ebp]
  02ec6	0f bf 92 be 00
	00 00		 movsx	 edx, WORD PTR [edx+190]
  02ecd	2b c2		 sub	 eax, edx
  02ecf	99		 cdq
  02ed0	bf 64 00 00 00	 mov	 edi, 100		; 00000064H
  02ed5	f7 ff		 idiv	 edi
  02ed7	03 f0		 add	 esi, eax
  02ed9	03 ce		 add	 ecx, esi
  02edb	89 8d 00 fe ff
	ff		 mov	 DWORD PTR _SleepTime$240378[ebp], ecx

; 1608 : 
; 1609 : 							if(g_SkillAdditionInfo.SleepTimeMaxVsUser != 0)

  02ee1	0f b7 05 52 0c
	00 00		 movzx	 eax, WORD PTR ?g_SkillAdditionInfo@@3VCSkillAdditionInfo@@A+3154
  02ee8	85 c0		 test	 eax, eax
  02eea	74 1c		 je	 SHORT $LN398@Attack

; 1610 : 							{
; 1611 : 								if(SleepTime > g_SkillAdditionInfo.SleepTimeMaxVsUser)

  02eec	0f b7 05 52 0c
	00 00		 movzx	 eax, WORD PTR ?g_SkillAdditionInfo@@3VCSkillAdditionInfo@@A+3154
  02ef3	39 85 00 fe ff
	ff		 cmp	 DWORD PTR _SleepTime$240378[ebp], eax
  02ef9	7e 0d		 jle	 SHORT $LN398@Attack

; 1612 : 								{
; 1613 : 									SleepTime = g_SkillAdditionInfo.SleepTimeMaxVsUser;

  02efb	0f b7 05 52 0c
	00 00		 movzx	 eax, WORD PTR ?g_SkillAdditionInfo@@3VCSkillAdditionInfo@@A+3154
  02f02	89 85 00 fe ff
	ff		 mov	 DWORD PTR _SleepTime$240378[ebp], eax
$LN398@Attack:

; 1614 : 								}
; 1615 : 							}
; 1616 : 						}
; 1617 : 
; 1618 : 						if( SleepTime < 1 )

  02f08	83 bd 00 fe ff
	ff 01		 cmp	 DWORD PTR _SleepTime$240378[ebp], 1
  02f0f	7d 23		 jge	 SHORT $LN397@Attack

; 1619 : 						{
; 1620 : 							GCDamageSend(lpObj->m_Index,lpTargetObj->m_Index,0,0,0,0);

  02f11	6a 00		 push	 0
  02f13	6a 00		 push	 0
  02f15	6a 00		 push	 0
  02f17	6a 00		 push	 0
  02f19	8b 45 0c	 mov	 eax, DWORD PTR _lpTargetObj$[ebp]
  02f1c	8b 08		 mov	 ecx, DWORD PTR [eax]
  02f1e	51		 push	 ecx
  02f1f	8b 55 08	 mov	 edx, DWORD PTR _lpObj$[ebp]
  02f22	8b 02		 mov	 eax, DWORD PTR [edx]
  02f24	50		 push	 eax
  02f25	e8 00 00 00 00	 call	 ?GCDamageSend@@YAXHHHHHH@Z ; GCDamageSend
  02f2a	83 c4 18	 add	 esp, 24			; 00000018H

; 1621 : 							return FALSE;

  02f2d	33 c0		 xor	 eax, eax
  02f2f	e9 c3 3a 00 00	 jmp	 $LN741@Attack
$LN397@Attack:

; 1622 : 						}
; 1623 : 
; 1624 : 						if( gObjCheckBuffEffectValue(lpTargetObj,0x48,SleepTime,0) == TRUE )

  02f34	6a 00		 push	 0
  02f36	8b 85 00 fe ff
	ff		 mov	 eax, DWORD PTR _SleepTime$240378[ebp]
  02f3c	50		 push	 eax
  02f3d	6a 48		 push	 72			; 00000048H
  02f3f	8b 4d 0c	 mov	 ecx, DWORD PTR _lpTargetObj$[ebp]
  02f42	51		 push	 ecx
  02f43	e8 00 00 00 00	 call	 ?gObjCheckBuffEffectValue@@YAEPAUOBJECTSTRUCT@@HHH@Z ; gObjCheckBuffEffectValue
  02f48	83 c4 10	 add	 esp, 16			; 00000010H
  02f4b	0f b6 d0	 movzx	 edx, al
  02f4e	83 fa 01	 cmp	 edx, 1
  02f51	75 20		 jne	 SHORT $LN396@Attack

; 1625 : 						{
; 1626 : 							GCMagicAttackNumberSend(lpObj,219,lpTargetObj->m_Index,0);

  02f53	6a 00		 push	 0
  02f55	8b 45 0c	 mov	 eax, DWORD PTR _lpTargetObj$[ebp]
  02f58	8b 08		 mov	 ecx, DWORD PTR [eax]
  02f5a	51		 push	 ecx
  02f5b	68 db 00 00 00	 push	 219			; 000000dbH
  02f60	8b 55 08	 mov	 edx, DWORD PTR _lpObj$[ebp]
  02f63	52		 push	 edx
  02f64	e8 00 00 00 00	 call	 ?GCMagicAttackNumberSend@@YAXPAUOBJECTSTRUCT@@GHE@Z ; GCMagicAttackNumberSend
  02f69	83 c4 10	 add	 esp, 16			; 00000010H

; 1627 : 							return FALSE;

  02f6c	33 c0		 xor	 eax, eax
  02f6e	e9 84 3a 00 00	 jmp	 $LN741@Attack
$LN396@Attack:

; 1628 : 						}
; 1629 : 
; 1630 : 						gObjApplyBuffEffectDuration(lpTargetObj,72,25,SleepTime,0,0,SleepTime);

  02f73	8b 85 00 fe ff
	ff		 mov	 eax, DWORD PTR _SleepTime$240378[ebp]
  02f79	50		 push	 eax
  02f7a	6a 00		 push	 0
  02f7c	6a 00		 push	 0
  02f7e	8b 8d 00 fe ff
	ff		 mov	 ecx, DWORD PTR _SleepTime$240378[ebp]
  02f84	51		 push	 ecx
  02f85	6a 19		 push	 25			; 00000019H
  02f87	6a 48		 push	 72			; 00000048H
  02f89	8b 55 0c	 mov	 edx, DWORD PTR _lpTargetObj$[ebp]
  02f8c	52		 push	 edx
  02f8d	e8 00 00 00 00	 call	 ?gObjApplyBuffEffectDuration@@YAEPAUOBJECTSTRUCT@@HEHEHH@Z ; gObjApplyBuffEffectDuration
  02f92	83 c4 1c	 add	 esp, 28			; 0000001cH

; 1631 : 						return TRUE;

  02f95	b8 01 00 00 00	 mov	 eax, 1
  02f9a	e9 58 3a 00 00	 jmp	 $LN741@Attack

; 1632 : 					}
; 1633 : 					break;

  02f9f	e9 a9 0a 00 00	 jmp	 $LN459@Attack
$LN395@Attack:

; 1634 : 				case 221: //Weakness
; 1635 : 					{
; 1636 : 						//int value = 0;
; 1637 : 
; 1638 : 						//if(lpTargetObj->Type == OBJ_MONSTER)
; 1639 : 						//{
; 1640 : 						//	value = ((lpObj->Energy / 50) + (lpObj->m_iSummonerBookSpell / 6) + 32);
; 1641 : 						//}
; 1642 : 						//else if(lpTargetObj->Type == OBJ_USER)
; 1643 : 						//{
; 1644 : 						//	value = ((lpObj->Energy / 50) + (lpObj->m_iSummonerBookSpell / 6) + 17);
; 1645 : 						//}
; 1646 : 
; 1647 : 						//if(value >= rand()%100)
; 1648 : 						//{
; 1649 : 						//	int value1 = 0;
; 1650 : 						//	int value2 = 0;
; 1651 : 
; 1652 : 						//	if(lpTargetObj->Type == OBJ_MONSTER)
; 1653 : 						//	{
; 1654 : 						//		int MaxEnergy = 0;
; 1655 : 
; 1656 : 						//		if(lpObj->Energy > 4000)
; 1657 : 						//		{
; 1658 : 						//			MaxEnergy = 4000;
; 1659 : 						//		}
; 1660 : 
; 1661 : 						//		value1 = lpObj->Energy / 58 + 4;
; 1662 : 						//		value2 = ((lpObj->Energy / 100) + 4) - (lpTargetObj->Level / 20);
; 1663 : 						//	}
; 1664 : 						//	else if(lpTargetObj->Type == OBJ_USER)
; 1665 : 						//	{
; 1666 : 						//		int MaxEnergy = 0;
; 1667 : 
; 1668 : 						//		if(lpObj->Energy > 4000)
; 1669 : 						//		{
; 1670 : 						//			MaxEnergy = 4000;
; 1671 : 						//		}
; 1672 : 
; 1673 : 						//		value1 = lpObj->Energy / 93 + 3;
; 1674 : 						//		value2 = ((lpObj->Energy / 300) + ((lpObj->Level - lpTargetObj->Level) / 150) + 5);
; 1675 : 						//	}
; 1676 : 
; 1677 : 						//	if(value2 < 1)
; 1678 : 						//	{
; 1679 : 						//		GCDamageSend(lpObj->m_Index, lpTargetObj->m_Index, 0, 0, 0, 0);
; 1680 : 						//		return FALSE;
; 1681 : 						//	}
; 1682 : 
; 1683 : 						//	if(gObjCheckBuffEffectValue(lpTargetObj, AT_WEAKNESS, value1, 0) == 1)
; 1684 : 						//	{
; 1685 : 						//		GCMagicAttackNumberSend(lpObj, 221, lpTargetObj->m_Index, 0);
; 1686 : 						//		return FALSE;
; 1687 : 						//	}
; 1688 : 
; 1689 : 						//	gObjApplyBuffEffectDuration(lpTargetObj, AT_WEAKNESS, 29, value1, 0, 0, value2);
; 1690 : 						//	return TRUE;
; 1691 : 						//}
; 1692 : 						//GCDamageSend(lpObj->m_Index, lpTargetObj->m_Index, 0, 0, 0, 0);
; 1693 : 						//return FALSE;
; 1694 : 
; 1695 : 						int Rate = 0;

  02fa4	c7 85 fc fd ff
	ff 00 00 00 00	 mov	 DWORD PTR _Rate$240389[ebp], 0

; 1696 : 
; 1697 : 						if( lpTargetObj->Type == OBJ_MONSTER )

  02fae	8b 45 0c	 mov	 eax, DWORD PTR _lpTargetObj$[ebp]
  02fb1	0f b7 48 68	 movzx	 ecx, WORD PTR [eax+104]
  02fb5	83 f9 02	 cmp	 ecx, 2
  02fb8	75 31		 jne	 SHORT $LN394@Attack

; 1698 : 						{
; 1699 : 							Rate = 32 + lpObj->Energy / 50 + lpObj->m_iSummonerBookSpell / 6;

  02fba	8b 45 08	 mov	 eax, DWORD PTR _lpObj$[ebp]
  02fbd	0f b7 80 fa 00
	00 00		 movzx	 eax, WORD PTR [eax+250]
  02fc4	99		 cdq
  02fc5	b9 32 00 00 00	 mov	 ecx, 50			; 00000032H
  02fca	f7 f9		 idiv	 ecx
  02fcc	8b c8		 mov	 ecx, eax
  02fce	8b 55 08	 mov	 edx, DWORD PTR _lpObj$[ebp]
  02fd1	8b 82 a0 04 00
	00		 mov	 eax, DWORD PTR [edx+1184]
  02fd7	99		 cdq
  02fd8	be 06 00 00 00	 mov	 esi, 6
  02fdd	f7 fe		 idiv	 esi
  02fdf	8d 44 01 20	 lea	 eax, DWORD PTR [ecx+eax+32]
  02fe3	89 85 fc fd ff
	ff		 mov	 DWORD PTR _Rate$240389[ebp], eax
  02fe9	eb 3b		 jmp	 SHORT $LN392@Attack
$LN394@Attack:

; 1700 : 						}
; 1701 : 						else if( lpTargetObj->Type == OBJ_USER )

  02feb	8b 45 0c	 mov	 eax, DWORD PTR _lpTargetObj$[ebp]
  02fee	0f b7 48 68	 movzx	 ecx, WORD PTR [eax+104]
  02ff2	83 f9 01	 cmp	 ecx, 1
  02ff5	75 2f		 jne	 SHORT $LN392@Attack

; 1702 : 						{
; 1703 : 							Rate = 17 + lpObj->Energy / 50 + lpObj->m_iSummonerBookSpell / 6;

  02ff7	8b 45 08	 mov	 eax, DWORD PTR _lpObj$[ebp]
  02ffa	0f b7 80 fa 00
	00 00		 movzx	 eax, WORD PTR [eax+250]
  03001	99		 cdq
  03002	b9 32 00 00 00	 mov	 ecx, 50			; 00000032H
  03007	f7 f9		 idiv	 ecx
  03009	8b c8		 mov	 ecx, eax
  0300b	8b 55 08	 mov	 edx, DWORD PTR _lpObj$[ebp]
  0300e	8b 82 a0 04 00
	00		 mov	 eax, DWORD PTR [edx+1184]
  03014	99		 cdq
  03015	be 06 00 00 00	 mov	 esi, 6
  0301a	f7 fe		 idiv	 esi
  0301c	8d 44 01 11	 lea	 eax, DWORD PTR [ecx+eax+17]
  03020	89 85 fc fd ff
	ff		 mov	 DWORD PTR _Rate$240389[ebp], eax
$LN392@Attack:

; 1704 : 						}
; 1705 : 
; 1706 : 						if( Rate >= rand() % 100 )

  03026	e8 00 00 00 00	 call	 _rand
  0302b	99		 cdq
  0302c	b9 64 00 00 00	 mov	 ecx, 100		; 00000064H
  03031	f7 f9		 idiv	 ecx
  03033	39 95 fc fd ff
	ff		 cmp	 DWORD PTR _Rate$240389[ebp], edx
  03039	0f 8c 89 02 00
	00		 jl	 $LN391@Attack

; 1707 : 						{
; 1708 : 							int DecValue = 0;

  0303f	c7 85 f8 fd ff
	ff 00 00 00 00	 mov	 DWORD PTR _DecValue$240394[ebp], 0

; 1709 : 							int DecTime = 0;

  03049	c7 85 f4 fd ff
	ff 00 00 00 00	 mov	 DWORD PTR _DecTime$240395[ebp], 0

; 1710 : 
; 1711 : 							if( lpTargetObj->Type == OBJ_MONSTER )

  03053	8b 45 0c	 mov	 eax, DWORD PTR _lpTargetObj$[ebp]
  03056	0f b7 48 68	 movzx	 ecx, WORD PTR [eax+104]
  0305a	83 f9 02	 cmp	 ecx, 2
  0305d	0f 85 d1 00 00
	00		 jne	 $LN390@Attack

; 1712 : 							{
; 1713 : 								int MaxEnergy = lpObj->Energy;

  03063	8b 45 08	 mov	 eax, DWORD PTR _lpObj$[ebp]
  03066	0f b7 88 fa 00
	00 00		 movzx	 ecx, WORD PTR [eax+250]
  0306d	89 8d f0 fd ff
	ff		 mov	 DWORD PTR _MaxEnergy$240397[ebp], ecx

; 1714 : 
; 1715 : 								if( lpObj->Energy > 4000 )

  03073	8b 45 08	 mov	 eax, DWORD PTR _lpObj$[ebp]
  03076	0f b7 88 fa 00
	00 00		 movzx	 ecx, WORD PTR [eax+250]
  0307d	81 f9 a0 0f 00
	00		 cmp	 ecx, 4000		; 00000fa0H
  03083	7e 0a		 jle	 SHORT $LN389@Attack

; 1716 : 								{
; 1717 : 									MaxEnergy = 4000;

  03085	c7 85 f0 fd ff
	ff a0 0f 00 00	 mov	 DWORD PTR _MaxEnergy$240397[ebp], 4000 ; 00000fa0H
$LN389@Attack:

; 1718 : 								}
; 1719 : 
; 1720 : 								DecValue = g_SkillAdditionInfo.WeaknessEffectStartVsMob + MaxEnergy / g_SkillAdditionInfo.WeaknessEffectDivVsMob;

  0308f	0f b7 0d 08 0c
	00 00		 movzx	 ecx, WORD PTR ?g_SkillAdditionInfo@@3VCSkillAdditionInfo@@A+3080
  03096	0f b7 35 0a 0c
	00 00		 movzx	 esi, WORD PTR ?g_SkillAdditionInfo@@3VCSkillAdditionInfo@@A+3082
  0309d	8b 85 f0 fd ff
	ff		 mov	 eax, DWORD PTR _MaxEnergy$240397[ebp]
  030a3	99		 cdq
  030a4	f7 fe		 idiv	 esi
  030a6	03 c8		 add	 ecx, eax
  030a8	89 8d f8 fd ff
	ff		 mov	 DWORD PTR _DecValue$240394[ebp], ecx

; 1721 : 
; 1722 : 								if(g_SkillAdditionInfo.WeaknessEffectMaxVsMob != 0)

  030ae	0f b7 05 0c 0c
	00 00		 movzx	 eax, WORD PTR ?g_SkillAdditionInfo@@3VCSkillAdditionInfo@@A+3084
  030b5	85 c0		 test	 eax, eax
  030b7	74 1c		 je	 SHORT $LN387@Attack

; 1723 : 								{
; 1724 : 									if(DecValue > g_SkillAdditionInfo.WeaknessEffectMaxVsMob)

  030b9	0f b7 05 0c 0c
	00 00		 movzx	 eax, WORD PTR ?g_SkillAdditionInfo@@3VCSkillAdditionInfo@@A+3084
  030c0	39 85 f8 fd ff
	ff		 cmp	 DWORD PTR _DecValue$240394[ebp], eax
  030c6	7e 0d		 jle	 SHORT $LN387@Attack

; 1725 : 									{
; 1726 : 										DecValue = g_SkillAdditionInfo.WeaknessEffectMaxVsMob;

  030c8	0f b7 05 0c 0c
	00 00		 movzx	 eax, WORD PTR ?g_SkillAdditionInfo@@3VCSkillAdditionInfo@@A+3084
  030cf	89 85 f8 fd ff
	ff		 mov	 DWORD PTR _DecValue$240394[ebp], eax
$LN387@Attack:

; 1727 : 									}
; 1728 : 								}
; 1729 : 
; 1730 : 								DecTime = g_SkillAdditionInfo.WeaknessTimeStartVsMob + MaxEnergy / g_SkillAdditionInfo.WeaknessTimeDivVsMob - lpTargetObj->Level / 20;

  030d5	0f b7 0d 0e 0c
	00 00		 movzx	 ecx, WORD PTR ?g_SkillAdditionInfo@@3VCSkillAdditionInfo@@A+3086
  030dc	0f b7 35 10 0c
	00 00		 movzx	 esi, WORD PTR ?g_SkillAdditionInfo@@3VCSkillAdditionInfo@@A+3088
  030e3	8b 85 f0 fd ff
	ff		 mov	 eax, DWORD PTR _MaxEnergy$240397[ebp]
  030e9	99		 cdq
  030ea	f7 fe		 idiv	 esi
  030ec	03 c8		 add	 ecx, eax
  030ee	8b 55 0c	 mov	 edx, DWORD PTR _lpTargetObj$[ebp]
  030f1	0f bf 82 be 00
	00 00		 movsx	 eax, WORD PTR [edx+190]
  030f8	99		 cdq
  030f9	be 14 00 00 00	 mov	 esi, 20			; 00000014H
  030fe	f7 fe		 idiv	 esi
  03100	2b c8		 sub	 ecx, eax
  03102	89 8d f4 fd ff
	ff		 mov	 DWORD PTR _DecTime$240395[ebp], ecx

; 1731 : 
; 1732 : 								if(g_SkillAdditionInfo.WeaknessTimeMaxVsMob != 0)

  03108	0f b7 05 12 0c
	00 00		 movzx	 eax, WORD PTR ?g_SkillAdditionInfo@@3VCSkillAdditionInfo@@A+3090
  0310f	85 c0		 test	 eax, eax
  03111	74 1c		 je	 SHORT $LN385@Attack

; 1733 : 								{
; 1734 : 									if(DecTime > g_SkillAdditionInfo.WeaknessTimeMaxVsMob)

  03113	0f b7 05 12 0c
	00 00		 movzx	 eax, WORD PTR ?g_SkillAdditionInfo@@3VCSkillAdditionInfo@@A+3090
  0311a	39 85 f4 fd ff
	ff		 cmp	 DWORD PTR _DecTime$240395[ebp], eax
  03120	7e 0d		 jle	 SHORT $LN385@Attack

; 1735 : 									{
; 1736 : 										DecTime = g_SkillAdditionInfo.WeaknessTimeMaxVsMob;

  03122	0f b7 05 12 0c
	00 00		 movzx	 eax, WORD PTR ?g_SkillAdditionInfo@@3VCSkillAdditionInfo@@A+3090
  03129	89 85 f4 fd ff
	ff		 mov	 DWORD PTR _DecTime$240395[ebp], eax
$LN385@Attack:

; 1737 : 									}
; 1738 : 								}
; 1739 : 							}

  0312f	e9 e8 00 00 00	 jmp	 $LN378@Attack
$LN390@Attack:

; 1740 : 							else if( lpTargetObj->Type == OBJ_USER )

  03134	8b 45 0c	 mov	 eax, DWORD PTR _lpTargetObj$[ebp]
  03137	0f b7 48 68	 movzx	 ecx, WORD PTR [eax+104]
  0313b	83 f9 01	 cmp	 ecx, 1
  0313e	0f 85 d8 00 00
	00		 jne	 $LN378@Attack

; 1741 : 							{
; 1742 : 								int MaxEnergy = lpObj->Energy;

  03144	8b 45 08	 mov	 eax, DWORD PTR _lpObj$[ebp]
  03147	0f b7 88 fa 00
	00 00		 movzx	 ecx, WORD PTR [eax+250]
  0314e	89 8d ec fd ff
	ff		 mov	 DWORD PTR _MaxEnergy$240405[ebp], ecx

; 1743 : 
; 1744 : 								if( lpObj->Energy > 4000 )

  03154	8b 45 08	 mov	 eax, DWORD PTR _lpObj$[ebp]
  03157	0f b7 88 fa 00
	00 00		 movzx	 ecx, WORD PTR [eax+250]
  0315e	81 f9 a0 0f 00
	00		 cmp	 ecx, 4000		; 00000fa0H
  03164	7e 0a		 jle	 SHORT $LN382@Attack

; 1745 : 								{
; 1746 : 									MaxEnergy = 4000;

  03166	c7 85 ec fd ff
	ff a0 0f 00 00	 mov	 DWORD PTR _MaxEnergy$240405[ebp], 4000 ; 00000fa0H
$LN382@Attack:

; 1747 : 								}
; 1748 : 
; 1749 : 								DecValue = g_SkillAdditionInfo.WeaknessEffectStartVsUser + MaxEnergy / g_SkillAdditionInfo.WeaknessEffectDivVsUser;

  03170	0f b7 0d 14 0c
	00 00		 movzx	 ecx, WORD PTR ?g_SkillAdditionInfo@@3VCSkillAdditionInfo@@A+3092
  03177	0f b7 35 16 0c
	00 00		 movzx	 esi, WORD PTR ?g_SkillAdditionInfo@@3VCSkillAdditionInfo@@A+3094
  0317e	8b 85 ec fd ff
	ff		 mov	 eax, DWORD PTR _MaxEnergy$240405[ebp]
  03184	99		 cdq
  03185	f7 fe		 idiv	 esi
  03187	03 c8		 add	 ecx, eax
  03189	89 8d f8 fd ff
	ff		 mov	 DWORD PTR _DecValue$240394[ebp], ecx

; 1750 : 
; 1751 : 								if(g_SkillAdditionInfo.WeaknessEffectMaxVsUser != 0)

  0318f	0f b7 05 18 0c
	00 00		 movzx	 eax, WORD PTR ?g_SkillAdditionInfo@@3VCSkillAdditionInfo@@A+3096
  03196	85 c0		 test	 eax, eax
  03198	74 1c		 je	 SHORT $LN380@Attack

; 1752 : 								{
; 1753 : 									if(DecValue > g_SkillAdditionInfo.WeaknessEffectMaxVsUser)

  0319a	0f b7 05 18 0c
	00 00		 movzx	 eax, WORD PTR ?g_SkillAdditionInfo@@3VCSkillAdditionInfo@@A+3096
  031a1	39 85 f8 fd ff
	ff		 cmp	 DWORD PTR _DecValue$240394[ebp], eax
  031a7	7e 0d		 jle	 SHORT $LN380@Attack

; 1754 : 									{
; 1755 : 										DecValue = g_SkillAdditionInfo.WeaknessEffectMaxVsUser;

  031a9	0f b7 05 18 0c
	00 00		 movzx	 eax, WORD PTR ?g_SkillAdditionInfo@@3VCSkillAdditionInfo@@A+3096
  031b0	89 85 f8 fd ff
	ff		 mov	 DWORD PTR _DecValue$240394[ebp], eax
$LN380@Attack:

; 1756 : 									}
; 1757 : 								}
; 1758 : 
; 1759 : 								DecTime = g_SkillAdditionInfo.WeaknessTimeStartVsUser + MaxEnergy / g_SkillAdditionInfo.WeaknessTimeDivVsUser + (lpObj->Level - lpTargetObj->Level) / 150;

  031b6	0f b7 0d 1a 0c
	00 00		 movzx	 ecx, WORD PTR ?g_SkillAdditionInfo@@3VCSkillAdditionInfo@@A+3098
  031bd	0f b7 35 1c 0c
	00 00		 movzx	 esi, WORD PTR ?g_SkillAdditionInfo@@3VCSkillAdditionInfo@@A+3100
  031c4	8b 85 ec fd ff
	ff		 mov	 eax, DWORD PTR _MaxEnergy$240405[ebp]
  031ca	99		 cdq
  031cb	f7 fe		 idiv	 esi
  031cd	03 c8		 add	 ecx, eax
  031cf	8b 55 08	 mov	 edx, DWORD PTR _lpObj$[ebp]
  031d2	0f bf 82 be 00
	00 00		 movsx	 eax, WORD PTR [edx+190]
  031d9	8b 55 0c	 mov	 edx, DWORD PTR _lpTargetObj$[ebp]
  031dc	0f bf 92 be 00
	00 00		 movsx	 edx, WORD PTR [edx+190]
  031e3	2b c2		 sub	 eax, edx
  031e5	99		 cdq
  031e6	be 96 00 00 00	 mov	 esi, 150		; 00000096H
  031eb	f7 fe		 idiv	 esi
  031ed	03 c8		 add	 ecx, eax
  031ef	89 8d f4 fd ff
	ff		 mov	 DWORD PTR _DecTime$240395[ebp], ecx

; 1760 : 
; 1761 : 								if(g_SkillAdditionInfo.WeaknessTimeMaxVsUser != 0)

  031f5	0f b7 05 1e 0c
	00 00		 movzx	 eax, WORD PTR ?g_SkillAdditionInfo@@3VCSkillAdditionInfo@@A+3102
  031fc	85 c0		 test	 eax, eax
  031fe	74 1c		 je	 SHORT $LN378@Attack

; 1762 : 								{
; 1763 : 									if(DecTime > g_SkillAdditionInfo.WeaknessTimeMaxVsUser)

  03200	0f b7 05 1e 0c
	00 00		 movzx	 eax, WORD PTR ?g_SkillAdditionInfo@@3VCSkillAdditionInfo@@A+3102
  03207	39 85 f4 fd ff
	ff		 cmp	 DWORD PTR _DecTime$240395[ebp], eax
  0320d	7e 0d		 jle	 SHORT $LN378@Attack

; 1764 : 									{
; 1765 : 										DecTime = g_SkillAdditionInfo.WeaknessTimeMaxVsUser;

  0320f	0f b7 05 1e 0c
	00 00		 movzx	 eax, WORD PTR ?g_SkillAdditionInfo@@3VCSkillAdditionInfo@@A+3102
  03216	89 85 f4 fd ff
	ff		 mov	 DWORD PTR _DecTime$240395[ebp], eax
$LN378@Attack:

; 1766 : 									}
; 1767 : 								}
; 1768 : 							}
; 1769 : 
; 1770 : 							if( DecValue > 100 )

  0321c	83 bd f8 fd ff
	ff 64		 cmp	 DWORD PTR _DecValue$240394[ebp], 100 ; 00000064H
  03223	7e 0a		 jle	 SHORT $LN377@Attack

; 1771 : 								DecValue = 100;

  03225	c7 85 f8 fd ff
	ff 64 00 00 00	 mov	 DWORD PTR _DecValue$240394[ebp], 100 ; 00000064H
$LN377@Attack:

; 1772 : 
; 1773 : 							if( DecTime < 1 )

  0322f	83 bd f4 fd ff
	ff 01		 cmp	 DWORD PTR _DecTime$240395[ebp], 1
  03236	7d 23		 jge	 SHORT $LN376@Attack

; 1774 : 							{
; 1775 : 								GCDamageSend(lpObj->m_Index,lpTargetObj->m_Index,0,0,0,0);

  03238	6a 00		 push	 0
  0323a	6a 00		 push	 0
  0323c	6a 00		 push	 0
  0323e	6a 00		 push	 0
  03240	8b 45 0c	 mov	 eax, DWORD PTR _lpTargetObj$[ebp]
  03243	8b 08		 mov	 ecx, DWORD PTR [eax]
  03245	51		 push	 ecx
  03246	8b 55 08	 mov	 edx, DWORD PTR _lpObj$[ebp]
  03249	8b 02		 mov	 eax, DWORD PTR [edx]
  0324b	50		 push	 eax
  0324c	e8 00 00 00 00	 call	 ?GCDamageSend@@YAXHHHHHH@Z ; GCDamageSend
  03251	83 c4 18	 add	 esp, 24			; 00000018H

; 1776 : 								return FALSE;

  03254	33 c0		 xor	 eax, eax
  03256	e9 9c 37 00 00	 jmp	 $LN741@Attack
$LN376@Attack:

; 1777 : 							}
; 1778 : 
; 1779 : 							if( gObjCheckBuffEffectValue(lpObj,AT_WEAKNESS,DecValue,0) == TRUE )

  0325b	6a 00		 push	 0
  0325d	8b 85 f8 fd ff
	ff		 mov	 eax, DWORD PTR _DecValue$240394[ebp]
  03263	50		 push	 eax
  03264	6a 4c		 push	 76			; 0000004cH
  03266	8b 4d 08	 mov	 ecx, DWORD PTR _lpObj$[ebp]
  03269	51		 push	 ecx
  0326a	e8 00 00 00 00	 call	 ?gObjCheckBuffEffectValue@@YAEPAUOBJECTSTRUCT@@HHH@Z ; gObjCheckBuffEffectValue
  0326f	83 c4 10	 add	 esp, 16			; 00000010H
  03272	0f b6 d0	 movzx	 edx, al
  03275	83 fa 01	 cmp	 edx, 1
  03278	75 20		 jne	 SHORT $LN375@Attack

; 1780 : 							{
; 1781 : 								GCMagicAttackNumberSend(lpObj,skill,lpTargetObj->m_Index,0);

  0327a	6a 00		 push	 0
  0327c	8b 45 0c	 mov	 eax, DWORD PTR _lpTargetObj$[ebp]
  0327f	8b 08		 mov	 ecx, DWORD PTR [eax]
  03281	51		 push	 ecx
  03282	0f b7 55 d8	 movzx	 edx, WORD PTR _skill$[ebp]
  03286	52		 push	 edx
  03287	8b 45 08	 mov	 eax, DWORD PTR _lpObj$[ebp]
  0328a	50		 push	 eax
  0328b	e8 00 00 00 00	 call	 ?GCMagicAttackNumberSend@@YAXPAUOBJECTSTRUCT@@GHE@Z ; GCMagicAttackNumberSend
  03290	83 c4 10	 add	 esp, 16			; 00000010H

; 1782 : 								return FALSE;

  03293	33 c0		 xor	 eax, eax
  03295	e9 5d 37 00 00	 jmp	 $LN741@Attack
$LN375@Attack:

; 1783 : 							}
; 1784 : 
; 1785 : 							gObjApplyBuffEffectDuration(lpTargetObj,AT_WEAKNESS,29,DecValue,0,0,DecTime);

  0329a	8b 85 f4 fd ff
	ff		 mov	 eax, DWORD PTR _DecTime$240395[ebp]
  032a0	50		 push	 eax
  032a1	6a 00		 push	 0
  032a3	6a 00		 push	 0
  032a5	8b 8d f8 fd ff
	ff		 mov	 ecx, DWORD PTR _DecValue$240394[ebp]
  032ab	51		 push	 ecx
  032ac	6a 1d		 push	 29			; 0000001dH
  032ae	6a 4c		 push	 76			; 0000004cH
  032b0	8b 55 0c	 mov	 edx, DWORD PTR _lpTargetObj$[ebp]
  032b3	52		 push	 edx
  032b4	e8 00 00 00 00	 call	 ?gObjApplyBuffEffectDuration@@YAEPAUOBJECTSTRUCT@@HEHEHH@Z ; gObjApplyBuffEffectDuration
  032b9	83 c4 1c	 add	 esp, 28			; 0000001cH

; 1786 : 							return TRUE;

  032bc	b8 01 00 00 00	 mov	 eax, 1
  032c1	e9 31 37 00 00	 jmp	 $LN741@Attack

; 1787 : 						}
; 1788 : 						else

  032c6	eb 23		 jmp	 SHORT $LN374@Attack
$LN391@Attack:

; 1789 : 						{
; 1790 : 							GCDamageSend(lpObj->m_Index,lpTargetObj->m_Index,0,0,0,0);

  032c8	6a 00		 push	 0
  032ca	6a 00		 push	 0
  032cc	6a 00		 push	 0
  032ce	6a 00		 push	 0
  032d0	8b 45 0c	 mov	 eax, DWORD PTR _lpTargetObj$[ebp]
  032d3	8b 08		 mov	 ecx, DWORD PTR [eax]
  032d5	51		 push	 ecx
  032d6	8b 55 08	 mov	 edx, DWORD PTR _lpObj$[ebp]
  032d9	8b 02		 mov	 eax, DWORD PTR [edx]
  032db	50		 push	 eax
  032dc	e8 00 00 00 00	 call	 ?GCDamageSend@@YAXHHHHHH@Z ; GCDamageSend
  032e1	83 c4 18	 add	 esp, 24			; 00000018H

; 1791 : 							return FALSE;

  032e4	33 c0		 xor	 eax, eax
  032e6	e9 0c 37 00 00	 jmp	 $LN741@Attack
$LN374@Attack:

; 1792 : 						}
; 1793 : 					}
; 1794 : 					break;

  032eb	e9 5d 07 00 00	 jmp	 $LN459@Attack
$LN373@Attack:

; 1795 : 				case 222: //Innovation
; 1796 : 					{
; 1797 : 						//int value = 0;
; 1798 : 
; 1799 : 						//if(lpTargetObj->Type == OBJ_MONSTER)
; 1800 : 						//{
; 1801 : 						//	value = ((lpObj->Energy / 50) + (lpObj->m_iSummonerBookSpell / 6) + 32);
; 1802 : 						//}
; 1803 : 						//else if(lpTargetObj->Type == OBJ_USER)
; 1804 : 						//{
; 1805 : 						//	value = ((lpObj->Energy / 50) + (lpObj->m_iSummonerBookSpell / 6) + 17);
; 1806 : 						//}
; 1807 : 
; 1808 : 						//if(value >= rand()%100)
; 1809 : 						//{
; 1810 : 						//	int value1 = 0;
; 1811 : 						//	int value2 = 0;
; 1812 : 
; 1813 : 						//	if(lpTargetObj->Type == OBJ_MONSTER)
; 1814 : 						//	{
; 1815 : 						//		int MaxEnergy = 0;
; 1816 : 
; 1817 : 						//		if(lpObj->Energy > 4000)
; 1818 : 						//		{
; 1819 : 						//			MaxEnergy = 4000;
; 1820 : 						//		}
; 1821 : 
; 1822 : 						//		value1 = lpObj->Energy / 90 + 20;
; 1823 : 						//		value2 = ((lpObj->Energy / 100) + 4) - (lpTargetObj->Level / 20);
; 1824 : 						//	}
; 1825 : 						//	else if(lpTargetObj->Type == OBJ_USER)
; 1826 : 						//	{
; 1827 : 						//		int MaxEnergy = 0;
; 1828 : 
; 1829 : 						//		if(lpObj->Energy > 4000)
; 1830 : 						//		{
; 1831 : 						//			MaxEnergy = 4000;
; 1832 : 						//		}
; 1833 : 
; 1834 : 						//		value1 = lpObj->Energy / 110 + 12;
; 1835 : 						//		value2 = ((lpObj->Energy / 300) + ((lpObj->Level - lpTargetObj->Level) / 150) + 5);
; 1836 : 						//	}
; 1837 : 
; 1838 : 						//	if(value2 < 1)
; 1839 : 						//	{
; 1840 : 						//		GCDamageSend(lpObj->m_Index, lpTargetObj->m_Index, 0, 0, 0, 0);
; 1841 : 						//		return FALSE;
; 1842 : 						//	}
; 1843 : 
; 1844 : 						//	if(gObjCheckBuffEffectValue(lpTargetObj, AT_INNOVATION, value1, 0) == 1)
; 1845 : 						//	{
; 1846 : 						//		GCMagicAttackNumberSend(lpObj, 222, lpTargetObj->m_Index, 0);
; 1847 : 						//		return FALSE;
; 1848 : 						//	}
; 1849 : 
; 1850 : 						//	gObjApplyBuffEffectDuration(lpTargetObj, AT_INNOVATION, 30, value1, 0, 0, value2);
; 1851 : 						//	return TRUE;
; 1852 : 						//}
; 1853 : 						//GCDamageSend(lpObj->m_Index, lpTargetObj->m_Index, 0, 0, 0, 0);
; 1854 : 						//return FALSE;
; 1855 : 
; 1856 : 						int Rate = 0;

  032f0	c7 85 e8 fd ff
	ff 00 00 00 00	 mov	 DWORD PTR _Rate$240416[ebp], 0

; 1857 : 
; 1858 : 						if( lpTargetObj->Type == OBJ_MONSTER )

  032fa	8b 45 0c	 mov	 eax, DWORD PTR _lpTargetObj$[ebp]
  032fd	0f b7 48 68	 movzx	 ecx, WORD PTR [eax+104]
  03301	83 f9 02	 cmp	 ecx, 2
  03304	75 31		 jne	 SHORT $LN372@Attack

; 1859 : 						{
; 1860 : 							Rate = 32 + lpObj->Energy / 50 + lpObj->m_iSummonerBookSpell / 6;

  03306	8b 45 08	 mov	 eax, DWORD PTR _lpObj$[ebp]
  03309	0f b7 80 fa 00
	00 00		 movzx	 eax, WORD PTR [eax+250]
  03310	99		 cdq
  03311	b9 32 00 00 00	 mov	 ecx, 50			; 00000032H
  03316	f7 f9		 idiv	 ecx
  03318	8b c8		 mov	 ecx, eax
  0331a	8b 55 08	 mov	 edx, DWORD PTR _lpObj$[ebp]
  0331d	8b 82 a0 04 00
	00		 mov	 eax, DWORD PTR [edx+1184]
  03323	99		 cdq
  03324	be 06 00 00 00	 mov	 esi, 6
  03329	f7 fe		 idiv	 esi
  0332b	8d 44 01 20	 lea	 eax, DWORD PTR [ecx+eax+32]
  0332f	89 85 e8 fd ff
	ff		 mov	 DWORD PTR _Rate$240416[ebp], eax
  03335	eb 3b		 jmp	 SHORT $LN370@Attack
$LN372@Attack:

; 1861 : 						}
; 1862 : 						else if( lpTargetObj->Type == OBJ_USER )

  03337	8b 45 0c	 mov	 eax, DWORD PTR _lpTargetObj$[ebp]
  0333a	0f b7 48 68	 movzx	 ecx, WORD PTR [eax+104]
  0333e	83 f9 01	 cmp	 ecx, 1
  03341	75 2f		 jne	 SHORT $LN370@Attack

; 1863 : 						{
; 1864 : 							Rate = 17 + lpObj->Energy / 50 + lpObj->m_iSummonerBookSpell / 6;

  03343	8b 45 08	 mov	 eax, DWORD PTR _lpObj$[ebp]
  03346	0f b7 80 fa 00
	00 00		 movzx	 eax, WORD PTR [eax+250]
  0334d	99		 cdq
  0334e	b9 32 00 00 00	 mov	 ecx, 50			; 00000032H
  03353	f7 f9		 idiv	 ecx
  03355	8b c8		 mov	 ecx, eax
  03357	8b 55 08	 mov	 edx, DWORD PTR _lpObj$[ebp]
  0335a	8b 82 a0 04 00
	00		 mov	 eax, DWORD PTR [edx+1184]
  03360	99		 cdq
  03361	be 06 00 00 00	 mov	 esi, 6
  03366	f7 fe		 idiv	 esi
  03368	8d 44 01 11	 lea	 eax, DWORD PTR [ecx+eax+17]
  0336c	89 85 e8 fd ff
	ff		 mov	 DWORD PTR _Rate$240416[ebp], eax
$LN370@Attack:

; 1865 : 						}
; 1866 : 
; 1867 : 						if( Rate >= rand()%100 )

  03372	e8 00 00 00 00	 call	 _rand
  03377	99		 cdq
  03378	b9 64 00 00 00	 mov	 ecx, 100		; 00000064H
  0337d	f7 f9		 idiv	 ecx
  0337f	39 95 e8 fd ff
	ff		 cmp	 DWORD PTR _Rate$240416[ebp], edx
  03385	0f 8c 94 02 00
	00		 jl	 $LN369@Attack

; 1868 : 						{
; 1869 : 							int DecValue = 0;

  0338b	c7 85 e4 fd ff
	ff 00 00 00 00	 mov	 DWORD PTR _DecValue$240421[ebp], 0

; 1870 : 							int DecTime = 0;

  03395	c7 85 e0 fd ff
	ff 00 00 00 00	 mov	 DWORD PTR _DecTime$240422[ebp], 0

; 1871 : 
; 1872 : 							if( lpTargetObj->Type == OBJ_MONSTER )

  0339f	8b 45 0c	 mov	 eax, DWORD PTR _lpTargetObj$[ebp]
  033a2	0f b7 48 68	 movzx	 ecx, WORD PTR [eax+104]
  033a6	83 f9 02	 cmp	 ecx, 2
  033a9	0f 85 d1 00 00
	00		 jne	 $LN368@Attack

; 1873 : 							{
; 1874 : 								int MaxEnergy = lpObj->Energy;

  033af	8b 45 08	 mov	 eax, DWORD PTR _lpObj$[ebp]
  033b2	0f b7 88 fa 00
	00 00		 movzx	 ecx, WORD PTR [eax+250]
  033b9	89 8d dc fd ff
	ff		 mov	 DWORD PTR _MaxEnergy$240424[ebp], ecx

; 1875 : 
; 1876 : 								if( lpObj->Energy > 4000 )

  033bf	8b 45 08	 mov	 eax, DWORD PTR _lpObj$[ebp]
  033c2	0f b7 88 fa 00
	00 00		 movzx	 ecx, WORD PTR [eax+250]
  033c9	81 f9 a0 0f 00
	00		 cmp	 ecx, 4000		; 00000fa0H
  033cf	7e 0a		 jle	 SHORT $LN367@Attack

; 1877 : 								{
; 1878 : 									MaxEnergy = 4000;

  033d1	c7 85 dc fd ff
	ff a0 0f 00 00	 mov	 DWORD PTR _MaxEnergy$240424[ebp], 4000 ; 00000fa0H
$LN367@Attack:

; 1879 : 								}
; 1880 : 
; 1881 : 								DecValue = g_SkillAdditionInfo.InnovationEffectStartVsMob + MaxEnergy / g_SkillAdditionInfo.InnovationEffectDivVsMob;

  033db	0f b7 0d 22 0c
	00 00		 movzx	 ecx, WORD PTR ?g_SkillAdditionInfo@@3VCSkillAdditionInfo@@A+3106
  033e2	0f b7 35 24 0c
	00 00		 movzx	 esi, WORD PTR ?g_SkillAdditionInfo@@3VCSkillAdditionInfo@@A+3108
  033e9	8b 85 dc fd ff
	ff		 mov	 eax, DWORD PTR _MaxEnergy$240424[ebp]
  033ef	99		 cdq
  033f0	f7 fe		 idiv	 esi
  033f2	03 c8		 add	 ecx, eax
  033f4	89 8d e4 fd ff
	ff		 mov	 DWORD PTR _DecValue$240421[ebp], ecx

; 1882 : 
; 1883 : 								if(g_SkillAdditionInfo.InnovationEffectMaxVsMob != 0)

  033fa	0f b7 05 26 0c
	00 00		 movzx	 eax, WORD PTR ?g_SkillAdditionInfo@@3VCSkillAdditionInfo@@A+3110
  03401	85 c0		 test	 eax, eax
  03403	74 1c		 je	 SHORT $LN365@Attack

; 1884 : 								{
; 1885 : 									if(DecValue > g_SkillAdditionInfo.InnovationEffectMaxVsMob)

  03405	0f b7 05 26 0c
	00 00		 movzx	 eax, WORD PTR ?g_SkillAdditionInfo@@3VCSkillAdditionInfo@@A+3110
  0340c	39 85 e4 fd ff
	ff		 cmp	 DWORD PTR _DecValue$240421[ebp], eax
  03412	7e 0d		 jle	 SHORT $LN365@Attack

; 1886 : 									{
; 1887 : 										DecValue = g_SkillAdditionInfo.InnovationEffectMaxVsMob;

  03414	0f b7 05 26 0c
	00 00		 movzx	 eax, WORD PTR ?g_SkillAdditionInfo@@3VCSkillAdditionInfo@@A+3110
  0341b	89 85 e4 fd ff
	ff		 mov	 DWORD PTR _DecValue$240421[ebp], eax
$LN365@Attack:

; 1888 : 									}
; 1889 : 								}
; 1890 : 
; 1891 : 								DecTime = g_SkillAdditionInfo.InnovationTimeStartVsMob + MaxEnergy / g_SkillAdditionInfo.InnovationTimeDivVsMob - lpTargetObj->Level / 20;

  03421	0f b7 0d 28 0c
	00 00		 movzx	 ecx, WORD PTR ?g_SkillAdditionInfo@@3VCSkillAdditionInfo@@A+3112
  03428	0f b7 35 2a 0c
	00 00		 movzx	 esi, WORD PTR ?g_SkillAdditionInfo@@3VCSkillAdditionInfo@@A+3114
  0342f	8b 85 dc fd ff
	ff		 mov	 eax, DWORD PTR _MaxEnergy$240424[ebp]
  03435	99		 cdq
  03436	f7 fe		 idiv	 esi
  03438	03 c8		 add	 ecx, eax
  0343a	8b 55 0c	 mov	 edx, DWORD PTR _lpTargetObj$[ebp]
  0343d	0f bf 82 be 00
	00 00		 movsx	 eax, WORD PTR [edx+190]
  03444	99		 cdq
  03445	be 14 00 00 00	 mov	 esi, 20			; 00000014H
  0344a	f7 fe		 idiv	 esi
  0344c	2b c8		 sub	 ecx, eax
  0344e	89 8d e0 fd ff
	ff		 mov	 DWORD PTR _DecTime$240422[ebp], ecx

; 1892 : 
; 1893 : 								if(g_SkillAdditionInfo.InnovationTimeMaxVsMob != 0)

  03454	0f b7 05 2c 0c
	00 00		 movzx	 eax, WORD PTR ?g_SkillAdditionInfo@@3VCSkillAdditionInfo@@A+3116
  0345b	85 c0		 test	 eax, eax
  0345d	74 1c		 je	 SHORT $LN363@Attack

; 1894 : 								{
; 1895 : 									if(DecTime > g_SkillAdditionInfo.InnovationTimeMaxVsMob)

  0345f	0f b7 05 2c 0c
	00 00		 movzx	 eax, WORD PTR ?g_SkillAdditionInfo@@3VCSkillAdditionInfo@@A+3116
  03466	39 85 e0 fd ff
	ff		 cmp	 DWORD PTR _DecTime$240422[ebp], eax
  0346c	7e 0d		 jle	 SHORT $LN363@Attack

; 1896 : 									{
; 1897 : 										DecTime = g_SkillAdditionInfo.InnovationTimeMaxVsMob;

  0346e	0f b7 05 2c 0c
	00 00		 movzx	 eax, WORD PTR ?g_SkillAdditionInfo@@3VCSkillAdditionInfo@@A+3116
  03475	89 85 e0 fd ff
	ff		 mov	 DWORD PTR _DecTime$240422[ebp], eax
$LN363@Attack:

; 1898 : 									}
; 1899 : 								}
; 1900 : 							}

  0347b	e9 f3 00 00 00	 jmp	 $LN356@Attack
$LN368@Attack:

; 1901 : 							else if( lpTargetObj->Type == OBJ_USER )

  03480	8b 45 0c	 mov	 eax, DWORD PTR _lpTargetObj$[ebp]
  03483	0f b7 48 68	 movzx	 ecx, WORD PTR [eax+104]
  03487	83 f9 01	 cmp	 ecx, 1
  0348a	0f 85 e3 00 00
	00		 jne	 $LN356@Attack

; 1902 : 							{
; 1903 : 								int MaxEnergy = lpObj->Energy;

  03490	8b 45 08	 mov	 eax, DWORD PTR _lpObj$[ebp]
  03493	0f b7 88 fa 00
	00 00		 movzx	 ecx, WORD PTR [eax+250]
  0349a	89 8d d8 fd ff
	ff		 mov	 DWORD PTR _MaxEnergy$240432[ebp], ecx

; 1904 : 
; 1905 : 								if( lpObj->Energy > 4000 )

  034a0	8b 45 08	 mov	 eax, DWORD PTR _lpObj$[ebp]
  034a3	0f b7 88 fa 00
	00 00		 movzx	 ecx, WORD PTR [eax+250]
  034aa	81 f9 a0 0f 00
	00		 cmp	 ecx, 4000		; 00000fa0H
  034b0	7e 0a		 jle	 SHORT $LN360@Attack

; 1906 : 								{
; 1907 : 									MaxEnergy = 4000;

  034b2	c7 85 d8 fd ff
	ff a0 0f 00 00	 mov	 DWORD PTR _MaxEnergy$240432[ebp], 4000 ; 00000fa0H
$LN360@Attack:

; 1908 : 								}
; 1909 : 
; 1910 : 								DecValue = g_SkillAdditionInfo.InnovationEffectStartVsUser + MaxEnergy / g_SkillAdditionInfo.InnovationEffectDivVsUser;

  034bc	0f b7 0d 2e 0c
	00 00		 movzx	 ecx, WORD PTR ?g_SkillAdditionInfo@@3VCSkillAdditionInfo@@A+3118
  034c3	0f b7 35 30 0c
	00 00		 movzx	 esi, WORD PTR ?g_SkillAdditionInfo@@3VCSkillAdditionInfo@@A+3120
  034ca	8b 85 d8 fd ff
	ff		 mov	 eax, DWORD PTR _MaxEnergy$240432[ebp]
  034d0	99		 cdq
  034d1	f7 fe		 idiv	 esi
  034d3	03 c8		 add	 ecx, eax
  034d5	89 8d e4 fd ff
	ff		 mov	 DWORD PTR _DecValue$240421[ebp], ecx

; 1911 : 
; 1912 : 								if(g_SkillAdditionInfo.InnovationEffectMaxVsUser	=! 0)

  034db	b8 01 00 00 00	 mov	 eax, 1
  034e0	66 a3 32 0c 00
	00		 mov	 WORD PTR ?g_SkillAdditionInfo@@3VCSkillAdditionInfo@@A+3122, ax
  034e6	0f b7 0d 32 0c
	00 00		 movzx	 ecx, WORD PTR ?g_SkillAdditionInfo@@3VCSkillAdditionInfo@@A+3122
  034ed	85 c9		 test	 ecx, ecx
  034ef	74 1c		 je	 SHORT $LN358@Attack

; 1913 : 								{
; 1914 : 									if(DecValue > g_SkillAdditionInfo.InnovationEffectMaxVsUser)

  034f1	0f b7 05 32 0c
	00 00		 movzx	 eax, WORD PTR ?g_SkillAdditionInfo@@3VCSkillAdditionInfo@@A+3122
  034f8	39 85 e4 fd ff
	ff		 cmp	 DWORD PTR _DecValue$240421[ebp], eax
  034fe	7e 0d		 jle	 SHORT $LN358@Attack

; 1915 : 									{
; 1916 : 										DecValue = g_SkillAdditionInfo.InnovationEffectMaxVsUser;

  03500	0f b7 05 32 0c
	00 00		 movzx	 eax, WORD PTR ?g_SkillAdditionInfo@@3VCSkillAdditionInfo@@A+3122
  03507	89 85 e4 fd ff
	ff		 mov	 DWORD PTR _DecValue$240421[ebp], eax
$LN358@Attack:

; 1917 : 									}
; 1918 : 								}
; 1919 : 
; 1920 : 								DecTime = g_SkillAdditionInfo.InnovationTimeStartVsUser + MaxEnergy / g_SkillAdditionInfo.InnovationTimeDivVsUser + (lpObj->Level - lpTargetObj->Level) / 150;

  0350d	0f b7 0d 34 0c
	00 00		 movzx	 ecx, WORD PTR ?g_SkillAdditionInfo@@3VCSkillAdditionInfo@@A+3124
  03514	0f b7 35 36 0c
	00 00		 movzx	 esi, WORD PTR ?g_SkillAdditionInfo@@3VCSkillAdditionInfo@@A+3126
  0351b	8b 85 d8 fd ff
	ff		 mov	 eax, DWORD PTR _MaxEnergy$240432[ebp]
  03521	99		 cdq
  03522	f7 fe		 idiv	 esi
  03524	03 c8		 add	 ecx, eax
  03526	8b 55 08	 mov	 edx, DWORD PTR _lpObj$[ebp]
  03529	0f bf 82 be 00
	00 00		 movsx	 eax, WORD PTR [edx+190]
  03530	8b 55 0c	 mov	 edx, DWORD PTR _lpTargetObj$[ebp]
  03533	0f bf 92 be 00
	00 00		 movsx	 edx, WORD PTR [edx+190]
  0353a	2b c2		 sub	 eax, edx
  0353c	99		 cdq
  0353d	be 96 00 00 00	 mov	 esi, 150		; 00000096H
  03542	f7 fe		 idiv	 esi
  03544	03 c8		 add	 ecx, eax
  03546	89 8d e0 fd ff
	ff		 mov	 DWORD PTR _DecTime$240422[ebp], ecx

; 1921 : 
; 1922 : 								if(g_SkillAdditionInfo.InnovationTimeMaxVsUser != 0)

  0354c	0f b7 05 38 0c
	00 00		 movzx	 eax, WORD PTR ?g_SkillAdditionInfo@@3VCSkillAdditionInfo@@A+3128
  03553	85 c0		 test	 eax, eax
  03555	74 1c		 je	 SHORT $LN356@Attack

; 1923 : 								{
; 1924 : 									if(DecTime > g_SkillAdditionInfo.InnovationTimeMaxVsUser)

  03557	0f b7 05 38 0c
	00 00		 movzx	 eax, WORD PTR ?g_SkillAdditionInfo@@3VCSkillAdditionInfo@@A+3128
  0355e	39 85 e0 fd ff
	ff		 cmp	 DWORD PTR _DecTime$240422[ebp], eax
  03564	7e 0d		 jle	 SHORT $LN356@Attack

; 1925 : 									{
; 1926 : 										DecTime = g_SkillAdditionInfo.InnovationTimeMaxVsUser;

  03566	0f b7 05 38 0c
	00 00		 movzx	 eax, WORD PTR ?g_SkillAdditionInfo@@3VCSkillAdditionInfo@@A+3128
  0356d	89 85 e0 fd ff
	ff		 mov	 DWORD PTR _DecTime$240422[ebp], eax
$LN356@Attack:

; 1927 : 									}
; 1928 : 								}
; 1929 : 							}
; 1930 : 
; 1931 : 							if( DecValue > 100 )

  03573	83 bd e4 fd ff
	ff 64		 cmp	 DWORD PTR _DecValue$240421[ebp], 100 ; 00000064H
  0357a	7e 0a		 jle	 SHORT $LN355@Attack

; 1932 : 								DecValue = 0;

  0357c	c7 85 e4 fd ff
	ff 00 00 00 00	 mov	 DWORD PTR _DecValue$240421[ebp], 0
$LN355@Attack:

; 1933 : 
; 1934 : 							if( DecTime < 1 )

  03586	83 bd e0 fd ff
	ff 01		 cmp	 DWORD PTR _DecTime$240422[ebp], 1
  0358d	7d 23		 jge	 SHORT $LN354@Attack

; 1935 : 							{
; 1936 : 								GCDamageSend(lpObj->m_Index,lpTargetObj->m_Index,0,0,0,0);

  0358f	6a 00		 push	 0
  03591	6a 00		 push	 0
  03593	6a 00		 push	 0
  03595	6a 00		 push	 0
  03597	8b 45 0c	 mov	 eax, DWORD PTR _lpTargetObj$[ebp]
  0359a	8b 08		 mov	 ecx, DWORD PTR [eax]
  0359c	51		 push	 ecx
  0359d	8b 55 08	 mov	 edx, DWORD PTR _lpObj$[ebp]
  035a0	8b 02		 mov	 eax, DWORD PTR [edx]
  035a2	50		 push	 eax
  035a3	e8 00 00 00 00	 call	 ?GCDamageSend@@YAXHHHHHH@Z ; GCDamageSend
  035a8	83 c4 18	 add	 esp, 24			; 00000018H

; 1937 : 								return FALSE;

  035ab	33 c0		 xor	 eax, eax
  035ad	e9 45 34 00 00	 jmp	 $LN741@Attack
$LN354@Attack:

; 1938 : 							}
; 1939 : 
; 1940 : 							if( gObjCheckBuffEffectValue(lpObj,AT_INNOVATION,DecValue,0) == TRUE )

  035b2	6a 00		 push	 0
  035b4	8b 85 e4 fd ff
	ff		 mov	 eax, DWORD PTR _DecValue$240421[ebp]
  035ba	50		 push	 eax
  035bb	6a 4d		 push	 77			; 0000004dH
  035bd	8b 4d 08	 mov	 ecx, DWORD PTR _lpObj$[ebp]
  035c0	51		 push	 ecx
  035c1	e8 00 00 00 00	 call	 ?gObjCheckBuffEffectValue@@YAEPAUOBJECTSTRUCT@@HHH@Z ; gObjCheckBuffEffectValue
  035c6	83 c4 10	 add	 esp, 16			; 00000010H
  035c9	0f b6 d0	 movzx	 edx, al
  035cc	83 fa 01	 cmp	 edx, 1
  035cf	75 20		 jne	 SHORT $LN353@Attack

; 1941 : 							{
; 1942 : 								GCMagicAttackNumberSend(lpObj,skill,lpTargetObj->m_Index,0);

  035d1	6a 00		 push	 0
  035d3	8b 45 0c	 mov	 eax, DWORD PTR _lpTargetObj$[ebp]
  035d6	8b 08		 mov	 ecx, DWORD PTR [eax]
  035d8	51		 push	 ecx
  035d9	0f b7 55 d8	 movzx	 edx, WORD PTR _skill$[ebp]
  035dd	52		 push	 edx
  035de	8b 45 08	 mov	 eax, DWORD PTR _lpObj$[ebp]
  035e1	50		 push	 eax
  035e2	e8 00 00 00 00	 call	 ?GCMagicAttackNumberSend@@YAXPAUOBJECTSTRUCT@@GHE@Z ; GCMagicAttackNumberSend
  035e7	83 c4 10	 add	 esp, 16			; 00000010H

; 1943 : 								return FALSE;

  035ea	33 c0		 xor	 eax, eax
  035ec	e9 06 34 00 00	 jmp	 $LN741@Attack
$LN353@Attack:

; 1944 : 							}
; 1945 : 
; 1946 : 							gObjApplyBuffEffectDuration(lpTargetObj,AT_INNOVATION,30,DecValue,0,0,DecTime);

  035f1	8b 85 e0 fd ff
	ff		 mov	 eax, DWORD PTR _DecTime$240422[ebp]
  035f7	50		 push	 eax
  035f8	6a 00		 push	 0
  035fa	6a 00		 push	 0
  035fc	8b 8d e4 fd ff
	ff		 mov	 ecx, DWORD PTR _DecValue$240421[ebp]
  03602	51		 push	 ecx
  03603	6a 1e		 push	 30			; 0000001eH
  03605	6a 4d		 push	 77			; 0000004dH
  03607	8b 55 0c	 mov	 edx, DWORD PTR _lpTargetObj$[ebp]
  0360a	52		 push	 edx
  0360b	e8 00 00 00 00	 call	 ?gObjApplyBuffEffectDuration@@YAEPAUOBJECTSTRUCT@@HEHEHH@Z ; gObjApplyBuffEffectDuration
  03610	83 c4 1c	 add	 esp, 28			; 0000001cH

; 1947 : 							return TRUE;

  03613	b8 01 00 00 00	 mov	 eax, 1
  03618	e9 da 33 00 00	 jmp	 $LN741@Attack

; 1948 : 						}
; 1949 : 						else

  0361d	eb 23		 jmp	 SHORT $LN352@Attack
$LN369@Attack:

; 1950 : 						{
; 1951 : 							GCDamageSend(lpObj->m_Index,lpTargetObj->m_Index,0,0,0,0);

  0361f	6a 00		 push	 0
  03621	6a 00		 push	 0
  03623	6a 00		 push	 0
  03625	6a 00		 push	 0
  03627	8b 45 0c	 mov	 eax, DWORD PTR _lpTargetObj$[ebp]
  0362a	8b 08		 mov	 ecx, DWORD PTR [eax]
  0362c	51		 push	 ecx
  0362d	8b 55 08	 mov	 edx, DWORD PTR _lpObj$[ebp]
  03630	8b 02		 mov	 eax, DWORD PTR [edx]
  03632	50		 push	 eax
  03633	e8 00 00 00 00	 call	 ?GCDamageSend@@YAXHHHHHH@Z ; GCDamageSend
  03638	83 c4 18	 add	 esp, 24			; 00000018H

; 1952 : 							return FALSE;

  0363b	33 c0		 xor	 eax, eax
  0363d	e9 b5 33 00 00	 jmp	 $LN741@Attack
$LN352@Attack:

; 1953 : 						}
; 1954 : 					}
; 1955 : 					break;

  03642	e9 06 04 00 00	 jmp	 $LN459@Attack
$LN351@Attack:

; 1956 : 				case 225: //Pollution (Season4) add-on
; 1957 : 					{
; 1958 : 						if(gObjSearchActiveEffect(lpTargetObj, AT_ICE) == 0)

  03647	6a 38		 push	 56			; 00000038H
  03649	8b 45 0c	 mov	 eax, DWORD PTR _lpTargetObj$[ebp]
  0364c	50		 push	 eax
  0364d	e8 00 00 00 00	 call	 ?gObjSearchActiveEffect@@YAEPAUOBJECTSTRUCT@@H@Z ; gObjSearchActiveEffect
  03652	83 c4 08	 add	 esp, 8
  03655	0f b6 c8	 movzx	 ecx, al
  03658	85 c9		 test	 ecx, ecx
  0365a	75 3b		 jne	 SHORT $LN350@Attack

; 1959 : 						{
; 1960 : 							lpTargetObj->lpAttackObj = lpObj;

  0365c	8b 45 0c	 mov	 eax, DWORD PTR _lpTargetObj$[ebp]
  0365f	8b 4d 08	 mov	 ecx, DWORD PTR _lpObj$[ebp]
  03662	89 88 d4 03 00
	00		 mov	 DWORD PTR [eax+980], ecx

; 1961 : 							lpTargetObj->DelayActionTime = 1000;

  03668	8b 45 0c	 mov	 eax, DWORD PTR _lpTargetObj$[ebp]
  0366b	c7 80 c0 03 00
	00 e8 03 00 00	 mov	 DWORD PTR [eax+960], 1000 ; 000003e8H

; 1962 : 							lpTargetObj->DelayLevel = 1;

  03675	8b 45 0c	 mov	 eax, DWORD PTR _lpTargetObj$[ebp]
  03678	c6 80 c4 03 00
	00 01		 mov	 BYTE PTR [eax+964], 1

; 1963 : 
; 1964 : 							gObjApplyBuffEffectDuration(lpTargetObj, AT_ICE, 20, 0, 0, 0, 2);

  0367f	6a 02		 push	 2
  03681	6a 00		 push	 0
  03683	6a 00		 push	 0
  03685	6a 00		 push	 0
  03687	6a 14		 push	 20			; 00000014H
  03689	6a 38		 push	 56			; 00000038H
  0368b	8b 45 0c	 mov	 eax, DWORD PTR _lpTargetObj$[ebp]
  0368e	50		 push	 eax
  0368f	e8 00 00 00 00	 call	 ?gObjApplyBuffEffectDuration@@YAEPAUOBJECTSTRUCT@@HEHEHH@Z ; gObjApplyBuffEffectDuration
  03694	83 c4 1c	 add	 esp, 28			; 0000001cH
$LN350@Attack:

; 1965 : 						}
; 1966 : 					}
; 1967 : 					break;

  03697	e9 b1 03 00 00	 jmp	 $LN459@Attack
$LN349@Attack:

; 1968 : 				case 230: //Lightning Shock (Season4) add-on
; 1969 : #if(S5E4)
; 1970 : 				case 545:
; 1971 : 				case 546:
; 1972 : 				case 547:
; 1973 : 				case 548:
; 1974 : 				case 549:
; 1975 : #endif
; 1976 : 					{
; 1977 : 						gObjApplyBuffEffectDuration(lpTargetObj, AT_LIGHTNING_SHOCK, 0, 0, 0, 0, 1);

  0369c	6a 01		 push	 1
  0369e	6a 00		 push	 0
  036a0	6a 00		 push	 0
  036a2	6a 00		 push	 0
  036a4	6a 00		 push	 0
  036a6	6a 55		 push	 85			; 00000055H
  036a8	8b 45 0c	 mov	 eax, DWORD PTR _lpTargetObj$[ebp]
  036ab	50		 push	 eax
  036ac	e8 00 00 00 00	 call	 ?gObjApplyBuffEffectDuration@@YAEPAUOBJECTSTRUCT@@HEHEHH@Z ; gObjApplyBuffEffectDuration
  036b1	83 c4 1c	 add	 esp, 28			; 0000001cH

; 1978 : 					}
; 1979 : 					break;

  036b4	e9 94 03 00 00	 jmp	 $LN459@Attack
$LN348@Attack:

; 1980 : 				case 232: //Strike of Destruction (Season4) add-on
; 1981 : 					{
; 1982 : 						lpTargetObj->lpAttackObj = lpObj;

  036b9	8b 45 0c	 mov	 eax, DWORD PTR _lpTargetObj$[ebp]
  036bc	8b 4d 08	 mov	 ecx, DWORD PTR _lpObj$[ebp]
  036bf	89 88 d4 03 00
	00		 mov	 DWORD PTR [eax+980], ecx

; 1983 : 						lpTargetObj->DelayActionTime = 1000;

  036c5	8b 45 0c	 mov	 eax, DWORD PTR _lpTargetObj$[ebp]
  036c8	c7 80 c0 03 00
	00 e8 03 00 00	 mov	 DWORD PTR [eax+960], 1000 ; 000003e8H

; 1984 : 						lpTargetObj->DelayLevel = 1;

  036d2	8b 45 0c	 mov	 eax, DWORD PTR _lpTargetObj$[ebp]
  036d5	c6 80 c4 03 00
	00 01		 mov	 BYTE PTR [eax+964], 1

; 1985 : 						
; 1986 : 						gObjApplyBuffEffectDuration(lpTargetObj, AT_DESTRUCTION, 20, 0, 0, 0, 10);

  036dc	6a 0a		 push	 10			; 0000000aH
  036de	6a 00		 push	 0
  036e0	6a 00		 push	 0
  036e2	6a 00		 push	 0
  036e4	6a 14		 push	 20			; 00000014H
  036e6	6a 56		 push	 86			; 00000056H
  036e8	8b 45 0c	 mov	 eax, DWORD PTR _lpTargetObj$[ebp]
  036eb	50		 push	 eax
  036ec	e8 00 00 00 00	 call	 ?gObjApplyBuffEffectDuration@@YAEPAUOBJECTSTRUCT@@HEHEHH@Z ; gObjApplyBuffEffectDuration
  036f1	83 c4 1c	 add	 esp, 28			; 0000001cH

; 1987 : 
; 1988 : 						AttackDamage = ( AttackDamage * ( (Energy/10) + 200 ) ) / 100;

  036f4	8b 45 bc	 mov	 eax, DWORD PTR _Energy$[ebp]
  036f7	99		 cdq
  036f8	b9 0a 00 00 00	 mov	 ecx, 10			; 0000000aH
  036fd	f7 f9		 idiv	 ecx
  036ff	05 c8 00 00 00	 add	 eax, 200		; 000000c8H
  03704	0f af 45 1c	 imul	 eax, DWORD PTR _AttackDamage$[ebp]
  03708	99		 cdq
  03709	b9 64 00 00 00	 mov	 ecx, 100		; 00000064H
  0370e	f7 f9		 idiv	 ecx
  03710	89 45 1c	 mov	 DWORD PTR _AttackDamage$[ebp], eax

; 1989 : 					}
; 1990 : 					break;

  03713	e9 35 03 00 00	 jmp	 $LN459@Attack
$LN347@Attack:

; 1991 : 				case 236: //Flame Strike (Season4) add-on
; 1992 : 					{
; 1993 : 						AttackDamage *= 2;

  03718	8b 45 1c	 mov	 eax, DWORD PTR _AttackDamage$[ebp]
  0371b	d1 e0		 shl	 eax, 1
  0371d	89 45 1c	 mov	 DWORD PTR _AttackDamage$[ebp], eax

; 1994 : 						
; 1995 : 						gObjApplyBuffEffectDuration(lpTargetObj, AT_FLAME_STRIKE, 0, 0, 0, 0, 1);

  03720	6a 01		 push	 1
  03722	6a 00		 push	 0
  03724	6a 00		 push	 0
  03726	6a 00		 push	 0
  03728	6a 00		 push	 0
  0372a	6a 53		 push	 83			; 00000053H
  0372c	8b 45 0c	 mov	 eax, DWORD PTR _lpTargetObj$[ebp]
  0372f	50		 push	 eax
  03730	e8 00 00 00 00	 call	 ?gObjApplyBuffEffectDuration@@YAEPAUOBJECTSTRUCT@@HEHEHH@Z ; gObjApplyBuffEffectDuration
  03735	83 c4 1c	 add	 esp, 28			; 0000001cH

; 1996 : 					}
; 1997 : 					break;

  03738	e9 10 03 00 00	 jmp	 $LN459@Attack
$LN346@Attack:

; 1998 : 				case 237: //Gigantic Storm (Season4) add-on
; 1999 : 					{						
; 2000 : 						gObjApplyBuffEffectDuration(lpTargetObj, AT_GIGANTIC_STORM, 0, 0, 0, 0, 1);

  0373d	6a 01		 push	 1
  0373f	6a 00		 push	 0
  03741	6a 00		 push	 0
  03743	6a 00		 push	 0
  03745	6a 00		 push	 0
  03747	6a 54		 push	 84			; 00000054H
  03749	8b 45 0c	 mov	 eax, DWORD PTR _lpTargetObj$[ebp]
  0374c	50		 push	 eax
  0374d	e8 00 00 00 00	 call	 ?gObjApplyBuffEffectDuration@@YAEPAUOBJECTSTRUCT@@HEHEHH@Z ; gObjApplyBuffEffectDuration
  03752	83 c4 1c	 add	 esp, 28			; 0000001cH

; 2001 : 					}
; 2002 : 					break;

  03755	e9 f3 02 00 00	 jmp	 $LN459@Attack
$LN345@Attack:

; 2003 : 				case 238: //Chaotic Diseier (Season4) add-on
; 2004 : 					{						
; 2005 : 						AttackDamage = ( AttackDamage * ( (Energy/25) + 200 ) ) / 100;

  0375a	8b 45 bc	 mov	 eax, DWORD PTR _Energy$[ebp]
  0375d	99		 cdq
  0375e	b9 19 00 00 00	 mov	 ecx, 25			; 00000019H
  03763	f7 f9		 idiv	 ecx
  03765	05 c8 00 00 00	 add	 eax, 200		; 000000c8H
  0376a	0f af 45 1c	 imul	 eax, DWORD PTR _AttackDamage$[ebp]
  0376e	99		 cdq
  0376f	b9 64 00 00 00	 mov	 ecx, 100		; 00000064H
  03774	f7 f9		 idiv	 ecx
  03776	89 45 1c	 mov	 DWORD PTR _AttackDamage$[ebp], eax

; 2006 : 					}
; 2007 : 					break;

  03779	e9 cf 02 00 00	 jmp	 $LN459@Attack
$LN344@Attack:

; 2008 : 				case 250: //Unknown Skill ID (Season4) add-on
; 2009 : 					{						
; 2010 : 						AttackDamage *= 2;

  0377e	8b 45 1c	 mov	 eax, DWORD PTR _AttackDamage$[ebp]
  03781	d1 e0		 shl	 eax, 1
  03783	89 45 1c	 mov	 DWORD PTR _AttackDamage$[ebp], eax

; 2011 : 					}
; 2012 : 					break;

  03786	e9 c2 02 00 00	 jmp	 $LN459@Attack
$LN343@Attack:

; 2013 : 				case 251: //Unknown Skill ID (Season4) add-on
; 2014 : 					{	
; 2015 : 						AttackDamage = (int)((float)((float)AttackDamage * 2.2));

  0378b	db 45 1c	 fild	 DWORD PTR _AttackDamage$[ebp]
  0378e	dc 0d 00 00 00
	00		 fmul	 QWORD PTR __real@400199999999999a
  03794	d9 9d c8 fc ff
	ff		 fstp	 DWORD PTR tv6501[ebp]
  0379a	d9 85 c8 fc ff
	ff		 fld	 DWORD PTR tv6501[ebp]
  037a0	e8 00 00 00 00	 call	 __ftol2_sse
  037a5	89 45 1c	 mov	 DWORD PTR _AttackDamage$[ebp], eax

; 2016 : 					}
; 2017 : 					break;

  037a8	e9 a0 02 00 00	 jmp	 $LN459@Attack
$LN342@Attack:

; 2018 : 				case 252: //Unknown Skill ID (Season4) add-on
; 2019 : 					{						
; 2020 : 						AttackDamage = (int)((float)((float)AttackDamage * 2.3));

  037ad	db 45 1c	 fild	 DWORD PTR _AttackDamage$[ebp]
  037b0	dc 0d 00 00 00
	00		 fmul	 QWORD PTR __real@4002666666666666
  037b6	d9 9d c8 fc ff
	ff		 fstp	 DWORD PTR tv6508[ebp]
  037bc	d9 85 c8 fc ff
	ff		 fld	 DWORD PTR tv6508[ebp]
  037c2	e8 00 00 00 00	 call	 __ftol2_sse
  037c7	89 45 1c	 mov	 DWORD PTR _AttackDamage$[ebp], eax

; 2021 : 					}
; 2022 : 					break;

  037ca	e9 7e 02 00 00	 jmp	 $LN459@Attack
$LN341@Attack:

; 2023 : 				case 253: //Unknown Skill ID (Season4) add-on
; 2024 : 					{						
; 2025 : 						AttackDamage = (int)((float)((float)AttackDamage * 2.5));

  037cf	db 45 1c	 fild	 DWORD PTR _AttackDamage$[ebp]
  037d2	dc 0d 00 00 00
	00		 fmul	 QWORD PTR __real@4004000000000000
  037d8	d9 9d c8 fc ff
	ff		 fstp	 DWORD PTR tv6515[ebp]
  037de	d9 85 c8 fc ff
	ff		 fld	 DWORD PTR tv6515[ebp]
  037e4	e8 00 00 00 00	 call	 __ftol2_sse
  037e9	89 45 1c	 mov	 DWORD PTR _AttackDamage$[ebp], eax

; 2026 : 					}
; 2027 : 					break;

  037ec	e9 5c 02 00 00	 jmp	 $LN459@Attack
$LN340@Attack:

; 2028 : 
; 2029 : 				case 239:
; 2030 : 					gObjBackSpring(lpTargetObj,lpObj);

  037f1	8b 45 08	 mov	 eax, DWORD PTR _lpObj$[ebp]
  037f4	50		 push	 eax
  037f5	8b 4d 0c	 mov	 ecx, DWORD PTR _lpTargetObj$[ebp]
  037f8	51		 push	 ecx
  037f9	e8 00 00 00 00	 call	 ?gObjBackSpring@@YAHPAUOBJECTSTRUCT@@0@Z ; gObjBackSpring
  037fe	83 c4 08	 add	 esp, 8

; 2031 : 					break;

  03801	e9 47 02 00 00	 jmp	 $LN459@Attack
$LN339@Attack:

; 2032 : 				case 260:
; 2033 : 				case 261:
; 2034 : #ifdef _FIX_
; 2035 : 					AttackDamage = AttackDamage*(50 + (Dexterity / 10)) / 100.0f;

  03806	8b 45 c4	 mov	 eax, DWORD PTR _Dexterity$[ebp]
  03809	99		 cdq
  0380a	b9 0a 00 00 00	 mov	 ecx, 10			; 0000000aH
  0380f	f7 f9		 idiv	 ecx
  03811	83 c0 32	 add	 eax, 50			; 00000032H
  03814	0f af 45 1c	 imul	 eax, DWORD PTR _AttackDamage$[ebp]
  03818	89 85 c8 fc ff
	ff		 mov	 DWORD PTR tv6528[ebp], eax
  0381e	db 85 c8 fc ff
	ff		 fild	 DWORD PTR tv6528[ebp]
  03824	dc 35 00 00 00
	00		 fdiv	 QWORD PTR __real@4059000000000000
  0382a	e8 00 00 00 00	 call	 __ftol2_sse
  0382f	89 45 1c	 mov	 DWORD PTR _AttackDamage$[ebp], eax

; 2036 : #else
; 2037 : 					AttackDamage = AttackDamage*(50 + (Vitality / 10)) / 100.0f;
; 2038 : #endif
; 2039 : 					break;

  03832	e9 16 02 00 00	 jmp	 $LN459@Attack
$LN338@Attack:

; 2040 : 				case 262:	// -> Chain Drive
; 2041 : 					{
; 2042 : #ifdef _FIX_
; 2043 : 						if(g_ExLicense.CheckUser(eExUB::ulasevich) || g_ExLicense.CheckUser(eExUB::ulasevich2))

  03837	6a 17		 push	 23			; 00000017H
  03839	b9 00 00 00 00	 mov	 ecx, OFFSET ?g_ExLicense@@3VCExLicense@@A ; g_ExLicense
  0383e	e8 00 00 00 00	 call	 ?CheckUser@CExLicense@@QAE_NH@Z ; CExLicense::CheckUser
  03843	0f b6 c0	 movzx	 eax, al
  03846	85 c0		 test	 eax, eax
  03848	75 13		 jne	 SHORT $LN336@Attack
  0384a	6a 24		 push	 36			; 00000024H
  0384c	b9 00 00 00 00	 mov	 ecx, OFFSET ?g_ExLicense@@3VCExLicense@@A ; g_ExLicense
  03851	e8 00 00 00 00	 call	 ?CheckUser@CExLicense@@QAE_NH@Z ; CExLicense::CheckUser
  03856	0f b6 c0	 movzx	 eax, al
  03859	85 c0		 test	 eax, eax
  0385b	74 2d		 je	 SHORT $LN337@Attack
$LN336@Attack:

; 2044 : 						{
; 2045 : 							AttackDamage = (AttackDamage)*(50+(Vitality/g_UserConfig.m_Usilevich.ChainDriveVitality))/100.0f;

  0385d	8b 45 c0	 mov	 eax, DWORD PTR _Vitality$[ebp]
  03860	99		 cdq
  03861	f7 3d 04 00 00
	00		 idiv	 DWORD PTR ?g_UserConfig@@3VCUserConfig@@A+4
  03867	83 c0 32	 add	 eax, 50			; 00000032H
  0386a	0f af 45 1c	 imul	 eax, DWORD PTR _AttackDamage$[ebp]
  0386e	89 85 c8 fc ff
	ff		 mov	 DWORD PTR tv6540[ebp], eax
  03874	db 85 c8 fc ff
	ff		 fild	 DWORD PTR tv6540[ebp]
  0387a	dc 35 00 00 00
	00		 fdiv	 QWORD PTR __real@4059000000000000
  03880	e8 00 00 00 00	 call	 __ftol2_sse
  03885	89 45 1c	 mov	 DWORD PTR _AttackDamage$[ebp], eax

; 2046 : 						}
; 2047 : 						else

  03888	eb 2c		 jmp	 SHORT $LN335@Attack
$LN337@Attack:

; 2048 : 						{
; 2049 : 							AttackDamage = (AttackDamage)*(50+(Dexterity/10))/100.0f;

  0388a	8b 45 c4	 mov	 eax, DWORD PTR _Dexterity$[ebp]
  0388d	99		 cdq
  0388e	b9 0a 00 00 00	 mov	 ecx, 10			; 0000000aH
  03893	f7 f9		 idiv	 ecx
  03895	83 c0 32	 add	 eax, 50			; 00000032H
  03898	0f af 45 1c	 imul	 eax, DWORD PTR _AttackDamage$[ebp]
  0389c	89 85 c8 fc ff
	ff		 mov	 DWORD PTR tv6551[ebp], eax
  038a2	db 85 c8 fc ff
	ff		 fild	 DWORD PTR tv6551[ebp]
  038a8	dc 35 00 00 00
	00		 fdiv	 QWORD PTR __real@4059000000000000
  038ae	e8 00 00 00 00	 call	 __ftol2_sse
  038b3	89 45 1c	 mov	 DWORD PTR _AttackDamage$[ebp], eax
$LN335@Attack:

; 2050 : 						}
; 2051 : #else
; 2052 : 						AttackDamage = (AttackDamage)*(50+(Vitality/10))/100.0f;
; 2053 : #endif
; 2054 : 					}
; 2055 : 					break;

  038b6	e9 92 01 00 00	 jmp	 $LN459@Attack
$LN334@Attack:

; 2056 : 				case 263:	// -> Dark Side
; 2057 : 					{
; 2058 : 						if(g_ExLicense.CheckUser(eExUB::ulasevich) || g_ExLicense.CheckUser(eExUB::ulasevich2))

  038bb	6a 17		 push	 23			; 00000017H
  038bd	b9 00 00 00 00	 mov	 ecx, OFFSET ?g_ExLicense@@3VCExLicense@@A ; g_ExLicense
  038c2	e8 00 00 00 00	 call	 ?CheckUser@CExLicense@@QAE_NH@Z ; CExLicense::CheckUser
  038c7	0f b6 c0	 movzx	 eax, al
  038ca	85 c0		 test	 eax, eax
  038cc	75 13		 jne	 SHORT $LN332@Attack
  038ce	6a 24		 push	 36			; 00000024H
  038d0	b9 00 00 00 00	 mov	 ecx, OFFSET ?g_ExLicense@@3VCExLicense@@A ; g_ExLicense
  038d5	e8 00 00 00 00	 call	 ?CheckUser@CExLicense@@QAE_NH@Z ; CExLicense::CheckUser
  038da	0f b6 c0	 movzx	 eax, al
  038dd	85 c0		 test	 eax, eax
  038df	74 2d		 je	 SHORT $LN333@Attack
$LN332@Attack:

; 2059 : 						{
; 2060 : 							AttackDamage = (AttackDamage)*(50 + (Dexterity/g_UserConfig.m_Usilevich.DarkSideAgility))/100.0f;

  038e1	8b 45 c4	 mov	 eax, DWORD PTR _Dexterity$[ebp]
  038e4	99		 cdq
  038e5	f7 3d 00 00 00
	00		 idiv	 DWORD PTR ?g_UserConfig@@3VCUserConfig@@A
  038eb	83 c0 32	 add	 eax, 50			; 00000032H
  038ee	0f af 45 1c	 imul	 eax, DWORD PTR _AttackDamage$[ebp]
  038f2	89 85 c8 fc ff
	ff		 mov	 DWORD PTR tv6563[ebp], eax
  038f8	db 85 c8 fc ff
	ff		 fild	 DWORD PTR tv6563[ebp]
  038fe	dc 35 00 00 00
	00		 fdiv	 QWORD PTR __real@4059000000000000
  03904	e8 00 00 00 00	 call	 __ftol2_sse
  03909	89 45 1c	 mov	 DWORD PTR _AttackDamage$[ebp], eax

; 2061 : 						}
; 2062 : 						else

  0390c	eb 2c		 jmp	 SHORT $LN331@Attack
$LN333@Attack:

; 2063 : 						{
; 2064 : 							AttackDamage = (AttackDamage)*(/*100*/50 + /*(Dexterity/8) +*/ (Energy/10))/100.0f;

  0390e	8b 45 bc	 mov	 eax, DWORD PTR _Energy$[ebp]
  03911	99		 cdq
  03912	b9 0a 00 00 00	 mov	 ecx, 10			; 0000000aH
  03917	f7 f9		 idiv	 ecx
  03919	83 c0 32	 add	 eax, 50			; 00000032H
  0391c	0f af 45 1c	 imul	 eax, DWORD PTR _AttackDamage$[ebp]
  03920	89 85 c8 fc ff
	ff		 mov	 DWORD PTR tv6574[ebp], eax
  03926	db 85 c8 fc ff
	ff		 fild	 DWORD PTR tv6574[ebp]
  0392c	dc 35 00 00 00
	00		 fdiv	 QWORD PTR __real@4059000000000000
  03932	e8 00 00 00 00	 call	 __ftol2_sse
  03937	89 45 1c	 mov	 DWORD PTR _AttackDamage$[ebp], eax
$LN331@Attack:

; 2065 : 						}
; 2066 : 					}
; 2067 : 					break;

  0393a	e9 0e 01 00 00	 jmp	 $LN459@Attack
$LN330@Attack:

; 2068 : 				case 264:	// -> Dragon Roar
; 2069 : 					{
; 2070 : 						if(g_ExLicense.CheckUser(eExUB::ulasevich) || g_ExLicense.CheckUser(eExUB::ulasevich2))

  0393f	6a 17		 push	 23			; 00000017H
  03941	b9 00 00 00 00	 mov	 ecx, OFFSET ?g_ExLicense@@3VCExLicense@@A ; g_ExLicense
  03946	e8 00 00 00 00	 call	 ?CheckUser@CExLicense@@QAE_NH@Z ; CExLicense::CheckUser
  0394b	0f b6 c0	 movzx	 eax, al
  0394e	85 c0		 test	 eax, eax
  03950	75 13		 jne	 SHORT $LN328@Attack
  03952	6a 24		 push	 36			; 00000024H
  03954	b9 00 00 00 00	 mov	 ecx, OFFSET ?g_ExLicense@@3VCExLicense@@A ; g_ExLicense
  03959	e8 00 00 00 00	 call	 ?CheckUser@CExLicense@@QAE_NH@Z ; CExLicense::CheckUser
  0395e	0f b6 c0	 movzx	 eax, al
  03961	85 c0		 test	 eax, eax
  03963	74 2d		 je	 SHORT $LN329@Attack
$LN328@Attack:

; 2071 : 						{
; 2072 : 							AttackDamage = (AttackDamage)*(50 + (Energy/g_UserConfig.m_Usilevich.DragonRoarEnergy))/100.0f;

  03965	8b 45 bc	 mov	 eax, DWORD PTR _Energy$[ebp]
  03968	99		 cdq
  03969	f7 3d 08 00 00
	00		 idiv	 DWORD PTR ?g_UserConfig@@3VCUserConfig@@A+8
  0396f	83 c0 32	 add	 eax, 50			; 00000032H
  03972	0f af 45 1c	 imul	 eax, DWORD PTR _AttackDamage$[ebp]
  03976	89 85 c8 fc ff
	ff		 mov	 DWORD PTR tv6586[ebp], eax
  0397c	db 85 c8 fc ff
	ff		 fild	 DWORD PTR tv6586[ebp]
  03982	dc 35 00 00 00
	00		 fdiv	 QWORD PTR __real@4059000000000000
  03988	e8 00 00 00 00	 call	 __ftol2_sse
  0398d	89 45 1c	 mov	 DWORD PTR _AttackDamage$[ebp], eax

; 2073 : 						}
; 2074 : 						else

  03990	eb 2c		 jmp	 SHORT $LN327@Attack
$LN329@Attack:

; 2075 : 						{
; 2076 : 							AttackDamage = (AttackDamage)*(50 + (Energy/10))/100.0f;

  03992	8b 45 bc	 mov	 eax, DWORD PTR _Energy$[ebp]
  03995	99		 cdq
  03996	b9 0a 00 00 00	 mov	 ecx, 10			; 0000000aH
  0399b	f7 f9		 idiv	 ecx
  0399d	83 c0 32	 add	 eax, 50			; 00000032H
  039a0	0f af 45 1c	 imul	 eax, DWORD PTR _AttackDamage$[ebp]
  039a4	89 85 c8 fc ff
	ff		 mov	 DWORD PTR tv6597[ebp], eax
  039aa	db 85 c8 fc ff
	ff		 fild	 DWORD PTR tv6597[ebp]
  039b0	dc 35 00 00 00
	00		 fdiv	 QWORD PTR __real@4059000000000000
  039b6	e8 00 00 00 00	 call	 __ftol2_sse
  039bb	89 45 1c	 mov	 DWORD PTR _AttackDamage$[ebp], eax
$LN327@Attack:

; 2077 : 						}
; 2078 : 					}
; 2079 : 					break;

  039be	e9 8a 00 00 00	 jmp	 $LN459@Attack
$LN326@Attack:

; 2080 : 				case 265:
; 2081 : 					//if( lpTargetObj->Type == OBJ_USER )
; 2082 : 					//{
; 2083 : 						AttackDamage = AttackDamage * (50 + (Energy/10)) / 100.0f;

  039c3	8b 45 bc	 mov	 eax, DWORD PTR _Energy$[ebp]
  039c6	99		 cdq
  039c7	b9 0a 00 00 00	 mov	 ecx, 10			; 0000000aH
  039cc	f7 f9		 idiv	 ecx
  039ce	83 c0 32	 add	 eax, 50			; 00000032H
  039d1	0f af 45 1c	 imul	 eax, DWORD PTR _AttackDamage$[ebp]
  039d5	89 85 c8 fc ff
	ff		 mov	 DWORD PTR tv6608[ebp], eax
  039db	db 85 c8 fc ff
	ff		 fild	 DWORD PTR tv6608[ebp]
  039e1	dc 35 00 00 00
	00		 fdiv	 QWORD PTR __real@4059000000000000
  039e7	e8 00 00 00 00	 call	 __ftol2_sse
  039ec	89 45 1c	 mov	 DWORD PTR _AttackDamage$[ebp], eax

; 2084 : 					//}
; 2085 : 					//else
; 2086 : 					//{
; 2087 : 					//	AttackDamage = ((AttackDamage * (50 + (Energy/10)) / 100.0f) + 100.0f)*3.0f;
; 2088 : 					//}
; 2089 : 					break;

  039ef	eb 5c		 jmp	 SHORT $LN459@Attack
$LN325@Attack:

; 2090 : 				case 269:
; 2091 : #ifdef _FIX_
; 2092 : 					AttackDamage = AttackDamage*(50 + (Dexterity / 10)) / 100.0f;

  039f1	8b 45 c4	 mov	 eax, DWORD PTR _Dexterity$[ebp]
  039f4	99		 cdq
  039f5	b9 0a 00 00 00	 mov	 ecx, 10			; 0000000aH
  039fa	f7 f9		 idiv	 ecx
  039fc	83 c0 32	 add	 eax, 50			; 00000032H
  039ff	0f af 45 1c	 imul	 eax, DWORD PTR _AttackDamage$[ebp]
  03a03	89 85 c8 fc ff
	ff		 mov	 DWORD PTR tv6619[ebp], eax
  03a09	db 85 c8 fc ff
	ff		 fild	 DWORD PTR tv6619[ebp]
  03a0f	dc 35 00 00 00
	00		 fdiv	 QWORD PTR __real@4059000000000000
  03a15	e8 00 00 00 00	 call	 __ftol2_sse
  03a1a	89 45 1c	 mov	 DWORD PTR _AttackDamage$[ebp], eax

; 2093 : #else
; 2094 : 					AttackDamage = AttackDamage*(50 + (Vitality / 10)) / 100.0f;
; 2095 : #endif
; 2096 : 					break;

  03a1d	eb 2e		 jmp	 SHORT $LN459@Attack
$LN324@Attack:

; 2097 : 				case 270:
; 2098 : #ifdef _FIX_
; 2099 : 					AttackDamage = AttackDamage*( 200 + (Dexterity/10) ) / 100.0f;

  03a1f	8b 45 c4	 mov	 eax, DWORD PTR _Dexterity$[ebp]
  03a22	99		 cdq
  03a23	b9 0a 00 00 00	 mov	 ecx, 10			; 0000000aH
  03a28	f7 f9		 idiv	 ecx
  03a2a	05 c8 00 00 00	 add	 eax, 200		; 000000c8H
  03a2f	0f af 45 1c	 imul	 eax, DWORD PTR _AttackDamage$[ebp]
  03a33	89 85 c8 fc ff
	ff		 mov	 DWORD PTR tv6630[ebp], eax
  03a39	db 85 c8 fc ff
	ff		 fild	 DWORD PTR tv6630[ebp]
  03a3f	dc 35 00 00 00
	00		 fdiv	 QWORD PTR __real@4059000000000000
  03a45	e8 00 00 00 00	 call	 __ftol2_sse
  03a4a	89 45 1c	 mov	 DWORD PTR _AttackDamage$[ebp], eax
$LN459@Attack:

; 2100 : #else
; 2101 : 					AttackDamage = AttackDamage*( 200 + (Vitality/10) ) / 100.0f;
; 2102 : #endif
; 2103 : 					break;
; 2104 : 
; 2105 : 			}
; 2106 : 
; 2107 : 			if( g_MasterSkillSystem.CheckRequireStatus(skill) )

  03a4d	8b 45 d8	 mov	 eax, DWORD PTR _skill$[ebp]
  03a50	50		 push	 eax
  03a51	b9 00 00 00 00	 mov	 ecx, OFFSET ?g_MasterSkillSystem@@3VCMasterLevelSkillTreeSystem@@A ; g_MasterSkillSystem
  03a56	e8 00 00 00 00	 call	 ?CheckRequireStatus@CMasterLevelSkillTreeSystem@@QAEHH@Z ; CMasterLevelSkillTreeSystem::CheckRequireStatus
  03a5b	85 c0		 test	 eax, eax
  03a5d	0f 84 08 0a 00
	00		 je	 $LN315@Attack

; 2108 : 			{
; 2109 : 				float iSkillValue = g_MasterSkillSystem.GetMasterSkillValue(MagicDamageC.SkillGet(lpMagic->m_Skill),lpMagic->m_Level);

  03a63	8b 45 10	 mov	 eax, DWORD PTR _lpMagic$[ebp]
  03a66	0f b6 48 04	 movzx	 ecx, BYTE PTR [eax+4]
  03a6a	51		 push	 ecx
  03a6b	8b 55 10	 mov	 edx, DWORD PTR _lpMagic$[ebp]
  03a6e	8b 42 08	 mov	 eax, DWORD PTR [edx+8]
  03a71	50		 push	 eax
  03a72	b9 00 00 00 00	 mov	 ecx, OFFSET ?MagicDamageC@@3VCMagicDamage@@A ; MagicDamageC
  03a77	e8 00 00 00 00	 call	 ?SkillGet@CMagicDamage@@QAEHH@Z ; CMagicDamage::SkillGet
  03a7c	50		 push	 eax
  03a7d	b9 00 00 00 00	 mov	 ecx, OFFSET ?g_MasterSkillSystem@@3VCMasterLevelSkillTreeSystem@@A ; g_MasterSkillSystem
  03a82	e8 00 00 00 00	 call	 ?GetMasterSkillValue@CMasterLevelSkillTreeSystem@@QAEMHH@Z ; CMasterLevelSkillTreeSystem::GetMasterSkillValue
  03a87	d9 9d d4 fd ff
	ff		 fstp	 DWORD PTR _iSkillValue$240480[ebp]

; 2110 : 				float fPrevValue = 0;

  03a8d	d9 ee		 fldz
  03a8f	d9 9d d0 fd ff
	ff		 fstp	 DWORD PTR _fPrevValue$240481[ebp]

; 2111 : 
; 2112 : 				int iMLSBase = g_MasterSkillSystem.GetBaseMasterLevelSkill(skill);

  03a95	8b 45 d8	 mov	 eax, DWORD PTR _skill$[ebp]
  03a98	50		 push	 eax
  03a99	b9 00 00 00 00	 mov	 ecx, OFFSET ?g_MasterSkillSystem@@3VCMasterLevelSkillTreeSystem@@A ; g_MasterSkillSystem
  03a9e	e8 00 00 00 00	 call	 ?GetBaseMasterLevelSkill@CMasterLevelSkillTreeSystem@@QAEHH@Z ; CMasterLevelSkillTreeSystem::GetBaseMasterLevelSkill
  03aa3	89 85 cc fd ff
	ff		 mov	 DWORD PTR _iMLSBase$240482[ebp], eax

; 2113 : 
; 2114 : 				int iMasterSkillDMGPercentDK = ( 200 + ( Energy / 10 ) );

  03aa9	8b 45 bc	 mov	 eax, DWORD PTR _Energy$[ebp]
  03aac	99		 cdq
  03aad	b9 0a 00 00 00	 mov	 ecx, 10			; 0000000aH
  03ab2	f7 f9		 idiv	 ecx
  03ab4	05 c8 00 00 00	 add	 eax, 200		; 000000c8H
  03ab9	89 85 c8 fd ff
	ff		 mov	 DWORD PTR _iMasterSkillDMGPercentDK$240483[ebp], eax

; 2115 : 				int iMasterSkillDMGPercentDL = ( ( ( lpObj->Energy + lpObj->AddEnergy ) / 20 + 200 ) );

  03abf	8b 45 08	 mov	 eax, DWORD PTR _lpObj$[ebp]
  03ac2	0f b7 80 fa 00
	00 00		 movzx	 eax, WORD PTR [eax+250]
  03ac9	8b 4d 08	 mov	 ecx, DWORD PTR _lpObj$[ebp]
  03acc	0f bf 91 26 01
	00 00		 movsx	 edx, WORD PTR [ecx+294]
  03ad3	03 c2		 add	 eax, edx
  03ad5	99		 cdq
  03ad6	b9 14 00 00 00	 mov	 ecx, 20			; 00000014H
  03adb	f7 f9		 idiv	 ecx
  03add	05 c8 00 00 00	 add	 eax, 200		; 000000c8H
  03ae2	89 85 c4 fd ff
	ff		 mov	 DWORD PTR _iMasterSkillDMGPercentDL$240484[ebp], eax

; 2116 : 
; 2117 : 				if(g_ExLicense.CheckUser(eExUB::Local) || g_ExLicense.CheckUser(eExUB::Artem) || g_ExLicense.CheckUser(eExUB::Artem2))

  03ae8	6a 00		 push	 0
  03aea	b9 00 00 00 00	 mov	 ecx, OFFSET ?g_ExLicense@@3VCExLicense@@A ; g_ExLicense
  03aef	e8 00 00 00 00	 call	 ?CheckUser@CExLicense@@QAE_NH@Z ; CExLicense::CheckUser
  03af4	0f b6 c0	 movzx	 eax, al
  03af7	85 c0		 test	 eax, eax
  03af9	75 26		 jne	 SHORT $LN321@Attack
  03afb	6a 30		 push	 48			; 00000030H
  03afd	b9 00 00 00 00	 mov	 ecx, OFFSET ?g_ExLicense@@3VCExLicense@@A ; g_ExLicense
  03b02	e8 00 00 00 00	 call	 ?CheckUser@CExLicense@@QAE_NH@Z ; CExLicense::CheckUser
  03b07	0f b6 c0	 movzx	 eax, al
  03b0a	85 c0		 test	 eax, eax
  03b0c	75 13		 jne	 SHORT $LN321@Attack
  03b0e	6a 31		 push	 49			; 00000031H
  03b10	b9 00 00 00 00	 mov	 ecx, OFFSET ?g_ExLicense@@3VCExLicense@@A ; g_ExLicense
  03b15	e8 00 00 00 00	 call	 ?CheckUser@CExLicense@@QAE_NH@Z ; CExLicense::CheckUser
  03b1a	0f b6 c0	 movzx	 eax, al
  03b1d	85 c0		 test	 eax, eax
  03b1f	74 44		 je	 SHORT $LN317@Attack
$LN321@Attack:

; 2118 : 				{
; 2119 : 					if(ExConfig.Character.DKSkillDMGPercentMax > 0)

  03b21	83 3d 88 02 00
	00 00		 cmp	 DWORD PTR ?ExConfig@@3VcExConfigs@@A+648, 0
  03b28	7e 19		 jle	 SHORT $LN319@Attack

; 2120 : 					{
; 2121 : 						if(iMasterSkillDMGPercentDK > ExConfig.Character.DKSkillDMGPercentMax)

  03b2a	8b 85 c8 fd ff
	ff		 mov	 eax, DWORD PTR _iMasterSkillDMGPercentDK$240483[ebp]
  03b30	3b 05 88 02 00
	00		 cmp	 eax, DWORD PTR ?ExConfig@@3VcExConfigs@@A+648
  03b36	7e 0b		 jle	 SHORT $LN319@Attack

; 2122 : 						{
; 2123 : 							iMasterSkillDMGPercentDK = ExConfig.Character.DKSkillDMGPercentMax;

  03b38	a1 88 02 00 00	 mov	 eax, DWORD PTR ?ExConfig@@3VcExConfigs@@A+648
  03b3d	89 85 c8 fd ff
	ff		 mov	 DWORD PTR _iMasterSkillDMGPercentDK$240483[ebp], eax
$LN319@Attack:

; 2124 : 						}
; 2125 : 					}					
; 2126 : 
; 2127 : 					if(ExConfig.Character.DLSkillDMGPercentMax > 0)

  03b43	83 3d 8c 02 00
	00 00		 cmp	 DWORD PTR ?ExConfig@@3VcExConfigs@@A+652, 0
  03b4a	7e 19		 jle	 SHORT $LN317@Attack

; 2128 : 					{
; 2129 : 						if(iMasterSkillDMGPercentDL > ExConfig.Character.DLSkillDMGPercentMax)

  03b4c	8b 85 c4 fd ff
	ff		 mov	 eax, DWORD PTR _iMasterSkillDMGPercentDL$240484[ebp]
  03b52	3b 05 8c 02 00
	00		 cmp	 eax, DWORD PTR ?ExConfig@@3VcExConfigs@@A+652
  03b58	7e 0b		 jle	 SHORT $LN317@Attack

; 2130 : 						{
; 2131 : 							iMasterSkillDMGPercentDL = ExConfig.Character.DLSkillDMGPercentMax;

  03b5a	a1 8c 02 00 00	 mov	 eax, DWORD PTR ?ExConfig@@3VcExConfigs@@A+652
  03b5f	89 85 c4 fd ff
	ff		 mov	 DWORD PTR _iMasterSkillDMGPercentDL$240484[ebp], eax
$LN317@Attack:

; 2132 : 						}
; 2133 : 					}
; 2134 : 				}
; 2135 : 							
; 2136 : 				switch( iMLSBase )

  03b65	8b 85 cc fd ff
	ff		 mov	 eax, DWORD PTR _iMLSBase$240482[ebp]
  03b6b	89 85 c8 fc ff
	ff		 mov	 DWORD PTR tv2685[ebp], eax
  03b71	8b 8d c8 fc ff
	ff		 mov	 ecx, DWORD PTR tv2685[ebp]
  03b77	81 e9 46 01 00
	00		 sub	 ecx, 326		; 00000146H
  03b7d	89 8d c8 fc ff
	ff		 mov	 DWORD PTR tv2685[ebp], ecx
  03b83	81 bd c8 fc ff
	ff ea 00 00 00	 cmp	 DWORD PTR tv2685[ebp], 234 ; 000000eaH
  03b8d	0f 87 d8 08 00
	00		 ja	 $LN315@Attack
  03b93	8b 95 c8 fc ff
	ff		 mov	 edx, DWORD PTR tv2685[ebp]
  03b99	0f b6 82 00 00
	00 00		 movzx	 eax, BYTE PTR $LN806@Attack[edx]
  03ba0	ff 24 85 00 00
	00 00		 jmp	 DWORD PTR $LN811@Attack[eax*4]
$LN314@Attack:

; 2137 : 				{
; 2138 : 				case 330:
; 2139 : 				case 332:
; 2140 : 					AttackDamage = ( AttackDamage * iMasterSkillDMGPercentDK ) / 100;

  03ba7	8b 45 1c	 mov	 eax, DWORD PTR _AttackDamage$[ebp]
  03baa	0f af 85 c8 fd
	ff ff		 imul	 eax, DWORD PTR _iMasterSkillDMGPercentDK$240483[ebp]
  03bb1	99		 cdq
  03bb2	b9 64 00 00 00	 mov	 ecx, 100		; 00000064H
  03bb7	f7 f9		 idiv	 ecx
  03bb9	89 45 1c	 mov	 DWORD PTR _AttackDamage$[ebp], eax

; 2141 : 					break;

  03bbc	e9 aa 08 00 00	 jmp	 $LN315@Attack
$LN313@Attack:

; 2142 : 				case 481:
; 2143 : 					AttackDamage *= 2;

  03bc1	8b 45 1c	 mov	 eax, DWORD PTR _AttackDamage$[ebp]
  03bc4	d1 e0		 shl	 eax, 1
  03bc6	89 45 1c	 mov	 DWORD PTR _AttackDamage$[ebp], eax

; 2144 : 					break;

  03bc9	e9 9d 08 00 00	 jmp	 $LN315@Attack
$LN312@Attack:

; 2145 : 				case 326:
; 2146 : 					AttackDamage = ( AttackDamage * iMasterSkillDMGPercentDK ) / 100.0f;

  03bce	8b 45 1c	 mov	 eax, DWORD PTR _AttackDamage$[ebp]
  03bd1	0f af 85 c8 fd
	ff ff		 imul	 eax, DWORD PTR _iMasterSkillDMGPercentDK$240483[ebp]
  03bd8	89 85 c8 fc ff
	ff		 mov	 DWORD PTR tv6677[ebp], eax
  03bde	db 85 c8 fc ff
	ff		 fild	 DWORD PTR tv6677[ebp]
  03be4	dc 35 00 00 00
	00		 fdiv	 QWORD PTR __real@4059000000000000
  03bea	e8 00 00 00 00	 call	 __ftol2_sse
  03bef	89 45 1c	 mov	 DWORD PTR _AttackDamage$[ebp], eax

; 2147 : 					break;

  03bf2	e9 74 08 00 00	 jmp	 $LN315@Attack
$LN311@Attack:

; 2148 : 				case 479:
; 2149 : 					AttackDamage *= 2;

  03bf7	8b 45 1c	 mov	 eax, DWORD PTR _AttackDamage$[ebp]
  03bfa	d1 e0		 shl	 eax, 1
  03bfc	89 45 1c	 mov	 DWORD PTR _AttackDamage$[ebp], eax

; 2150 : 					break;

  03bff	e9 67 08 00 00	 jmp	 $LN315@Attack
$LN310@Attack:

; 2151 : 				case 327:
; 2152 : 					AttackDamage = ( AttackDamage * iMasterSkillDMGPercentDK ) / 100.0f;

  03c04	8b 45 1c	 mov	 eax, DWORD PTR _AttackDamage$[ebp]
  03c07	0f af 85 c8 fd
	ff ff		 imul	 eax, DWORD PTR _iMasterSkillDMGPercentDK$240483[ebp]
  03c0e	89 85 c8 fc ff
	ff		 mov	 DWORD PTR tv6684[ebp], eax
  03c14	db 85 c8 fc ff
	ff		 fild	 DWORD PTR tv6684[ebp]
  03c1a	dc 35 00 00 00
	00		 fdiv	 QWORD PTR __real@4059000000000000
  03c20	e8 00 00 00 00	 call	 __ftol2_sse
  03c25	89 45 1c	 mov	 DWORD PTR _AttackDamage$[ebp], eax

; 2153 : 					break;

  03c28	e9 3e 08 00 00	 jmp	 $LN315@Attack
$LN309@Attack:

; 2154 : 				case 328:
; 2155 : 					AttackDamage = ( AttackDamage * iMasterSkillDMGPercentDK ) / 100.0f;

  03c2d	8b 45 1c	 mov	 eax, DWORD PTR _AttackDamage$[ebp]
  03c30	0f af 85 c8 fd
	ff ff		 imul	 eax, DWORD PTR _iMasterSkillDMGPercentDK$240483[ebp]
  03c37	89 85 c8 fc ff
	ff		 mov	 DWORD PTR tv6690[ebp], eax
  03c3d	db 85 c8 fc ff
	ff		 fild	 DWORD PTR tv6690[ebp]
  03c43	dc 35 00 00 00
	00		 fdiv	 QWORD PTR __real@4059000000000000
  03c49	e8 00 00 00 00	 call	 __ftol2_sse
  03c4e	89 45 1c	 mov	 DWORD PTR _AttackDamage$[ebp], eax

; 2156 : 					break;

  03c51	e9 15 08 00 00	 jmp	 $LN315@Attack
$LN308@Attack:

; 2157 : 				case 329:
; 2158 : 					AttackDamage = ( AttackDamage * iMasterSkillDMGPercentDK ) / 100.0f;

  03c56	8b 45 1c	 mov	 eax, DWORD PTR _AttackDamage$[ebp]
  03c59	0f af 85 c8 fd
	ff ff		 imul	 eax, DWORD PTR _iMasterSkillDMGPercentDK$240483[ebp]
  03c60	89 85 c8 fc ff
	ff		 mov	 DWORD PTR tv6696[ebp], eax
  03c66	db 85 c8 fc ff
	ff		 fild	 DWORD PTR tv6696[ebp]
  03c6c	dc 35 00 00 00
	00		 fdiv	 QWORD PTR __real@4059000000000000
  03c72	e8 00 00 00 00	 call	 __ftol2_sse
  03c77	89 45 1c	 mov	 DWORD PTR _AttackDamage$[ebp], eax

; 2159 : 					break;

  03c7a	e9 ec 07 00 00	 jmp	 $LN315@Attack
$LN307@Attack:

; 2160 : 				case 337:
; 2161 : 					AttackDamage = ( AttackDamage * iMasterSkillDMGPercentDK ) / 100.0f;

  03c7f	8b 45 1c	 mov	 eax, DWORD PTR _AttackDamage$[ebp]
  03c82	0f af 85 c8 fd
	ff ff		 imul	 eax, DWORD PTR _iMasterSkillDMGPercentDK$240483[ebp]
  03c89	89 85 c8 fc ff
	ff		 mov	 DWORD PTR tv6702[ebp], eax
  03c8f	db 85 c8 fc ff
	ff		 fild	 DWORD PTR tv6702[ebp]
  03c95	dc 35 00 00 00
	00		 fdiv	 QWORD PTR __real@4059000000000000
  03c9b	e8 00 00 00 00	 call	 __ftol2_sse
  03ca0	89 45 1c	 mov	 DWORD PTR _AttackDamage$[ebp], eax

; 2162 : 					break;

  03ca3	e9 c3 07 00 00	 jmp	 $LN315@Attack
$LN306@Attack:

; 2163 : 				case 416:
; 2164 : 					AttackDamage *= 2;

  03ca8	8b 45 1c	 mov	 eax, DWORD PTR _AttackDamage$[ebp]
  03cab	d1 e0		 shl	 eax, 1
  03cad	89 45 1c	 mov	 DWORD PTR _AttackDamage$[ebp], eax

; 2165 : 					break;

  03cb0	e9 b6 07 00 00	 jmp	 $LN315@Attack
$LN305@Attack:

; 2166 : 				case 424:
; 2167 : 					AttackDamage *= 2;

  03cb5	8b 45 1c	 mov	 eax, DWORD PTR _AttackDamage$[ebp]
  03cb8	d1 e0		 shl	 eax, 1
  03cba	89 45 1c	 mov	 DWORD PTR _AttackDamage$[ebp], eax

; 2168 : 					break;

  03cbd	e9 a9 07 00 00	 jmp	 $LN315@Attack
$LN304@Attack:

; 2169 : 				case 516:
; 2170 : 					AttackDamage = ( AttackDamage * iMasterSkillDMGPercentDL ) / 100;

  03cc2	8b 45 1c	 mov	 eax, DWORD PTR _AttackDamage$[ebp]
  03cc5	0f af 85 c4 fd
	ff ff		 imul	 eax, DWORD PTR _iMasterSkillDMGPercentDL$240484[ebp]
  03ccc	99		 cdq
  03ccd	b9 64 00 00 00	 mov	 ecx, 100		; 00000064H
  03cd2	f7 f9		 idiv	 ecx
  03cd4	89 45 1c	 mov	 DWORD PTR _AttackDamage$[ebp], eax

; 2171 : 
; 2172 : 					if( iSkillValue > 0 )

  03cd7	d9 85 d4 fd ff
	ff		 fld	 DWORD PTR _iSkillValue$240480[ebp]
  03cdd	dc 1d 00 00 00
	00		 fcomp	 QWORD PTR __real@0000000000000000
  03ce3	df e0		 fnstsw	 ax
  03ce5	f6 c4 41	 test	 ah, 65			; 00000041H
  03ce8	0f 85 83 00 00
	00		 jne	 $LN302@Attack

; 2173 : 					{
; 2174 : 						float fPercent = rand()%100;

  03cee	e8 00 00 00 00	 call	 _rand
  03cf3	99		 cdq
  03cf4	b9 64 00 00 00	 mov	 ecx, 100		; 00000064H
  03cf9	f7 f9		 idiv	 ecx
  03cfb	89 95 c8 fc ff
	ff		 mov	 DWORD PTR tv6724[ebp], edx
  03d01	db 85 c8 fc ff
	ff		 fild	 DWORD PTR tv6724[ebp]
  03d07	d9 9d c0 fd ff
	ff		 fstp	 DWORD PTR _fPercent$240507[ebp]

; 2175 : 
; 2176 : 						if( iSkillValue < fPercent )

  03d0d	d9 85 d4 fd ff
	ff		 fld	 DWORD PTR _iSkillValue$240480[ebp]
  03d13	d9 85 c0 fd ff
	ff		 fld	 DWORD PTR _fPercent$240507[ebp]
  03d19	de d9		 fcompp
  03d1b	df e0		 fnstsw	 ax
  03d1d	f6 c4 41	 test	 ah, 65			; 00000041H
  03d20	75 4f		 jne	 SHORT $LN302@Attack

; 2177 : 						{
; 2178 : 							if(!g_ExLicense.CheckUser(eExUB::Stone))

  03d22	6a 37		 push	 55			; 00000037H
  03d24	b9 00 00 00 00	 mov	 ecx, OFFSET ?g_ExLicense@@3VCExLicense@@A ; g_ExLicense
  03d29	e8 00 00 00 00	 call	 ?CheckUser@CExLicense@@QAE_NH@Z ; CExLicense::CheckUser
  03d2e	0f b6 c0	 movzx	 eax, al
  03d31	85 c0		 test	 eax, eax
  03d33	75 18		 jne	 SHORT $LN301@Attack

; 2179 : 							{
; 2180 : 								gObjApplyBuffEffectDuration(lpTargetObj,AT_STUN,0,0,0,0,2);

  03d35	6a 02		 push	 2
  03d37	6a 00		 push	 0
  03d39	6a 00		 push	 0
  03d3b	6a 00		 push	 0
  03d3d	6a 00		 push	 0
  03d3f	6a 3d		 push	 61			; 0000003dH
  03d41	8b 45 0c	 mov	 eax, DWORD PTR _lpTargetObj$[ebp]
  03d44	50		 push	 eax
  03d45	e8 00 00 00 00	 call	 ?gObjApplyBuffEffectDuration@@YAEPAUOBJECTSTRUCT@@HEHEHH@Z ; gObjApplyBuffEffectDuration
  03d4a	83 c4 1c	 add	 esp, 28			; 0000001cH
$LN301@Attack:

; 2181 : 							}
; 2182 : 							gObjSetPosition(lpTargetObj->m_Index,lpTargetObj->X,lpTargetObj->Y);

  03d4d	8b 45 0c	 mov	 eax, DWORD PTR _lpTargetObj$[ebp]
  03d50	0f bf 88 46 01
	00 00		 movsx	 ecx, WORD PTR [eax+326]
  03d57	51		 push	 ecx
  03d58	8b 55 0c	 mov	 edx, DWORD PTR _lpTargetObj$[ebp]
  03d5b	0f bf 82 44 01
	00 00		 movsx	 eax, WORD PTR [edx+324]
  03d62	50		 push	 eax
  03d63	8b 4d 0c	 mov	 ecx, DWORD PTR _lpTargetObj$[ebp]
  03d66	8b 11		 mov	 edx, DWORD PTR [ecx]
  03d68	52		 push	 edx
  03d69	e8 00 00 00 00	 call	 ?gObjSetPosition@@YAXHHH@Z ; gObjSetPosition
  03d6e	83 c4 0c	 add	 esp, 12			; 0000000cH
$LN302@Attack:

; 2183 : 						}
; 2184 : 					}
; 2185 : 					break;

  03d71	e9 f5 06 00 00	 jmp	 $LN315@Attack
$LN300@Attack:

; 2186 : 				case 514:
; 2187 : 					AttackDamage = ( AttackDamage * iMasterSkillDMGPercentDL ) / 100;

  03d76	8b 45 1c	 mov	 eax, DWORD PTR _AttackDamage$[ebp]
  03d79	0f af 85 c4 fd
	ff ff		 imul	 eax, DWORD PTR _iMasterSkillDMGPercentDL$240484[ebp]
  03d80	99		 cdq
  03d81	b9 64 00 00 00	 mov	 ecx, 100		; 00000064H
  03d86	f7 f9		 idiv	 ecx
  03d88	89 45 1c	 mov	 DWORD PTR _AttackDamage$[ebp], eax

; 2188 : 
; 2189 : 					if( iSkillValue > 0 )

  03d8b	d9 85 d4 fd ff
	ff		 fld	 DWORD PTR _iSkillValue$240480[ebp]
  03d91	dc 1d 00 00 00
	00		 fcomp	 QWORD PTR __real@0000000000000000
  03d97	df e0		 fnstsw	 ax
  03d99	f6 c4 41	 test	 ah, 65			; 00000041H
  03d9c	0f 85 83 00 00
	00		 jne	 $LN298@Attack

; 2190 : 					{
; 2191 : 						float fPercent = rand()%100;

  03da2	e8 00 00 00 00	 call	 _rand
  03da7	99		 cdq
  03da8	b9 64 00 00 00	 mov	 ecx, 100		; 00000064H
  03dad	f7 f9		 idiv	 ecx
  03daf	89 95 c8 fc ff
	ff		 mov	 DWORD PTR tv6749[ebp], edx
  03db5	db 85 c8 fc ff
	ff		 fild	 DWORD PTR tv6749[ebp]
  03dbb	d9 9d bc fd ff
	ff		 fstp	 DWORD PTR _fPercent$240512[ebp]

; 2192 : 
; 2193 : 						if( fPercent < iSkillValue )

  03dc1	d9 85 bc fd ff
	ff		 fld	 DWORD PTR _fPercent$240512[ebp]
  03dc7	d9 85 d4 fd ff
	ff		 fld	 DWORD PTR _iSkillValue$240480[ebp]
  03dcd	de d9		 fcompp
  03dcf	df e0		 fnstsw	 ax
  03dd1	f6 c4 41	 test	 ah, 65			; 00000041H
  03dd4	75 4f		 jne	 SHORT $LN298@Attack

; 2194 : 						{
; 2195 : 							if(!g_ExLicense.CheckUser(eExUB::Stone))

  03dd6	6a 37		 push	 55			; 00000037H
  03dd8	b9 00 00 00 00	 mov	 ecx, OFFSET ?g_ExLicense@@3VCExLicense@@A ; g_ExLicense
  03ddd	e8 00 00 00 00	 call	 ?CheckUser@CExLicense@@QAE_NH@Z ; CExLicense::CheckUser
  03de2	0f b6 c0	 movzx	 eax, al
  03de5	85 c0		 test	 eax, eax
  03de7	75 18		 jne	 SHORT $LN297@Attack

; 2196 : 							{
; 2197 : 								gObjApplyBuffEffectDuration(lpTargetObj,AT_STUN,0,0,0,0,2);

  03de9	6a 02		 push	 2
  03deb	6a 00		 push	 0
  03ded	6a 00		 push	 0
  03def	6a 00		 push	 0
  03df1	6a 00		 push	 0
  03df3	6a 3d		 push	 61			; 0000003dH
  03df5	8b 45 0c	 mov	 eax, DWORD PTR _lpTargetObj$[ebp]
  03df8	50		 push	 eax
  03df9	e8 00 00 00 00	 call	 ?gObjApplyBuffEffectDuration@@YAEPAUOBJECTSTRUCT@@HEHEHH@Z ; gObjApplyBuffEffectDuration
  03dfe	83 c4 1c	 add	 esp, 28			; 0000001cH
$LN297@Attack:

; 2198 : 							}
; 2199 : 							gObjSetPosition(lpTargetObj->m_Index,lpTargetObj->X,lpTargetObj->Y);

  03e01	8b 45 0c	 mov	 eax, DWORD PTR _lpTargetObj$[ebp]
  03e04	0f bf 88 46 01
	00 00		 movsx	 ecx, WORD PTR [eax+326]
  03e0b	51		 push	 ecx
  03e0c	8b 55 0c	 mov	 edx, DWORD PTR _lpTargetObj$[ebp]
  03e0f	0f bf 82 44 01
	00 00		 movsx	 eax, WORD PTR [edx+324]
  03e16	50		 push	 eax
  03e17	8b 4d 0c	 mov	 ecx, DWORD PTR _lpTargetObj$[ebp]
  03e1a	8b 11		 mov	 edx, DWORD PTR [ecx]
  03e1c	52		 push	 edx
  03e1d	e8 00 00 00 00	 call	 ?gObjSetPosition@@YAXHHH@Z ; gObjSetPosition
  03e22	83 c4 0c	 add	 esp, 12			; 0000000cH
$LN298@Attack:

; 2200 : 						}
; 2201 : 					}
; 2202 : 					break;

  03e25	e9 41 06 00 00	 jmp	 $LN315@Attack
$LN296@Attack:

; 2203 : 				case 509:
; 2204 : 					AttackDamage = ( AttackDamage * iMasterSkillDMGPercentDL ) / 100;

  03e2a	8b 45 1c	 mov	 eax, DWORD PTR _AttackDamage$[ebp]
  03e2d	0f af 85 c4 fd
	ff ff		 imul	 eax, DWORD PTR _iMasterSkillDMGPercentDL$240484[ebp]
  03e34	99		 cdq
  03e35	b9 64 00 00 00	 mov	 ecx, 100		; 00000064H
  03e3a	f7 f9		 idiv	 ecx
  03e3c	89 45 1c	 mov	 DWORD PTR _AttackDamage$[ebp], eax

; 2205 : 					break;

  03e3f	e9 27 06 00 00	 jmp	 $LN315@Attack
$LN295@Attack:

; 2206 : 				case 512:
; 2207 : 					AttackDamage = ( AttackDamage * iMasterSkillDMGPercentDL ) / 100;

  03e44	8b 45 1c	 mov	 eax, DWORD PTR _AttackDamage$[ebp]
  03e47	0f af 85 c4 fd
	ff ff		 imul	 eax, DWORD PTR _iMasterSkillDMGPercentDL$240484[ebp]
  03e4e	99		 cdq
  03e4f	b9 64 00 00 00	 mov	 ecx, 100		; 00000064H
  03e54	f7 f9		 idiv	 ecx
  03e56	89 45 1c	 mov	 DWORD PTR _AttackDamage$[ebp], eax

; 2208 : 					break;

  03e59	e9 0d 06 00 00	 jmp	 $LN315@Attack
$LN294@Attack:

; 2209 : 				case 508:
; 2210 : 					AttackDamage = ( AttackDamage * iMasterSkillDMGPercentDL ) / 100;

  03e5e	8b 45 1c	 mov	 eax, DWORD PTR _AttackDamage$[ebp]
  03e61	0f af 85 c4 fd
	ff ff		 imul	 eax, DWORD PTR _iMasterSkillDMGPercentDL$240484[ebp]
  03e68	99		 cdq
  03e69	b9 64 00 00 00	 mov	 ecx, 100		; 00000064H
  03e6e	f7 f9		 idiv	 ecx
  03e70	89 45 1c	 mov	 DWORD PTR _AttackDamage$[ebp], eax

; 2211 : 					break;

  03e73	e9 f3 05 00 00	 jmp	 $LN315@Attack
$LN293@Attack:

; 2212 : 				case 336:
; 2213 : 					AttackDamage = ( AttackDamage * iMasterSkillDMGPercentDK ) / 100;

  03e78	8b 45 1c	 mov	 eax, DWORD PTR _AttackDamage$[ebp]
  03e7b	0f af 85 c8 fd
	ff ff		 imul	 eax, DWORD PTR _iMasterSkillDMGPercentDK$240483[ebp]
  03e82	99		 cdq
  03e83	b9 64 00 00 00	 mov	 ecx, 100		; 00000064H
  03e88	f7 f9		 idiv	 ecx
  03e8a	89 45 1c	 mov	 DWORD PTR _AttackDamage$[ebp], eax

; 2214 : 					break;

  03e8d	e9 d9 05 00 00	 jmp	 $LN315@Attack
$LN292@Attack:

; 2215 : 				case 331:
; 2216 : 					AttackDamage = ( AttackDamage * iMasterSkillDMGPercentDK ) / 100;

  03e92	8b 45 1c	 mov	 eax, DWORD PTR _AttackDamage$[ebp]
  03e95	0f af 85 c8 fd
	ff ff		 imul	 eax, DWORD PTR _iMasterSkillDMGPercentDK$240483[ebp]
  03e9c	99		 cdq
  03e9d	b9 64 00 00 00	 mov	 ecx, 100		; 00000064H
  03ea2	f7 f9		 idiv	 ecx
  03ea4	89 45 1c	 mov	 DWORD PTR _AttackDamage$[ebp], eax

; 2217 : 					break;

  03ea7	e9 bf 05 00 00	 jmp	 $LN315@Attack
$LN291@Attack:

; 2218 : 				case 493:
; 2219 : 					AttackDamage *= 2;

  03eac	8b 45 1c	 mov	 eax, DWORD PTR _AttackDamage$[ebp]
  03eaf	d1 e0		 shl	 eax, 1
  03eb1	89 45 1c	 mov	 DWORD PTR _AttackDamage$[ebp], eax

; 2220 : 					break;

  03eb4	e9 b2 05 00 00	 jmp	 $LN315@Attack
$LN290@Attack:

; 2221 : 				case 482:
; 2222 : 					AttackDamage *= 2;

  03eb9	8b 45 1c	 mov	 eax, DWORD PTR _AttackDamage$[ebp]
  03ebc	d1 e0		 shl	 eax, 1
  03ebe	89 45 1c	 mov	 DWORD PTR _AttackDamage$[ebp], eax

; 2223 : 					break;

  03ec1	e9 a5 05 00 00	 jmp	 $LN315@Attack
$LN289@Attack:

; 2224 : 				case 518:
; 2225 : 					AttackDamage = ( AttackDamage * iMasterSkillDMGPercentDL ) / 100;

  03ec6	8b 45 1c	 mov	 eax, DWORD PTR _AttackDamage$[ebp]
  03ec9	0f af 85 c4 fd
	ff ff		 imul	 eax, DWORD PTR _iMasterSkillDMGPercentDL$240484[ebp]
  03ed0	99		 cdq
  03ed1	b9 64 00 00 00	 mov	 ecx, 100		; 00000064H
  03ed6	f7 f9		 idiv	 ecx
  03ed8	89 45 1c	 mov	 DWORD PTR _AttackDamage$[ebp], eax

; 2226 : 					break;

  03edb	e9 8b 05 00 00	 jmp	 $LN315@Attack
$LN288@Attack:

; 2227 : 				case 454:
; 2228 : 					{
; 2229 : 						//int skillSuccessRate = 0;
; 2230 : 
; 2231 : 						//if( lpTargetObj->Type == OBJ_MONSTER )
; 2232 : 						//{
; 2233 : 						//	skillSuccessRate = 20 + lpObj->Energy/30 + lpObj->m_iSummonerBookSpell/6;
; 2234 : 						//}
; 2235 : 						//else if( lpTargetObj->Type == OBJ_USER )
; 2236 : 						//{
; 2237 : 						//	skillSuccessRate = 15 + lpObj->Energy/37 + lpObj->m_iSummonerBookSpell/6;
; 2238 : 						//}
; 2239 : 
; 2240 : 						//skillSuccessRate += iSkillValue;
; 2241 : 
; 2242 : 						//if( skillSuccessRate < rand()%100 )
; 2243 : 						//{
; 2244 : 						//	GCDamageSend(lpObj->m_Index,lpTargetObj->m_Index,0,0,0,0);
; 2245 : 						//	return 0;
; 2246 : 						//}
; 2247 : 
; 2248 : 						//int nEffectTime = 0;
; 2249 : 
; 2250 : 						//if( lpTargetObj->Type == OBJ_MONSTER )
; 2251 : 						//{
; 2252 : 						//	nEffectTime = (5 + lpObj->Energy /100) - lpTargetObj->Level / 20;
; 2253 : 						//}
; 2254 : 						//else if( lpTargetObj->Type == OBJ_USER )
; 2255 : 						//{
; 2256 : 						//	nEffectTime = 4 + ((lpObj->Energy /250) + (lpObj->Level - lpTargetObj->Level) / 100);
; 2257 : 						//}
; 2258 : 
; 2259 : 						//if( nEffectTime < 1 )
; 2260 : 						//{
; 2261 : 						//	GCDamageSend(lpObj->m_Index,lpTargetObj->m_Index,0,0,0,0);
; 2262 : 						//	return FALSE;
; 2263 : 						//}
; 2264 : 
; 2265 : 						//if( gObjCheckBuffEffectValue(lpTargetObj,72,nEffectTime,0) == TRUE )
; 2266 : 						//{
; 2267 : 						//	GCMagicAttackNumberSend(lpObj,219,lpTargetObj->m_Index,0);
; 2268 : 						//	return FALSE;
; 2269 : 						//}
; 2270 : 
; 2271 : 						//gObjApplyBuffEffectDuration(lpTargetObj,72,25,nEffectTime,0,0,nEffectTime);
; 2272 : 						//return TRUE;
; 2273 : 
; 2274 : 						int Rate = 0;

  03ee0	c7 85 b8 fd ff
	ff 00 00 00 00	 mov	 DWORD PTR _Rate$240524[ebp], 0

; 2275 : 
; 2276 : 						if( lpTargetObj->Type == OBJ_MONSTER )

  03eea	8b 45 0c	 mov	 eax, DWORD PTR _lpTargetObj$[ebp]
  03eed	0f b7 48 68	 movzx	 ecx, WORD PTR [eax+104]
  03ef1	83 f9 02	 cmp	 ecx, 2
  03ef4	75 5f		 jne	 SHORT $LN287@Attack

; 2277 : 						{
; 2278 : 							Rate = g_SkillAdditionInfo.m_SleepRateStartVsMob + lpObj->Energy / g_SkillAdditionInfo.m_SleepRateDivVsMob + lpObj->m_iSummonerBookSpell / 6;

  03ef6	0f b7 0d 10 0d
	00 00		 movzx	 ecx, WORD PTR ?g_SkillAdditionInfo@@3VCSkillAdditionInfo@@A+3344
  03efd	8b 55 08	 mov	 edx, DWORD PTR _lpObj$[ebp]
  03f00	0f b7 82 fa 00
	00 00		 movzx	 eax, WORD PTR [edx+250]
  03f07	0f b7 35 12 0d
	00 00		 movzx	 esi, WORD PTR ?g_SkillAdditionInfo@@3VCSkillAdditionInfo@@A+3346
  03f0e	99		 cdq
  03f0f	f7 fe		 idiv	 esi
  03f11	03 c8		 add	 ecx, eax
  03f13	8b 45 08	 mov	 eax, DWORD PTR _lpObj$[ebp]
  03f16	8b 80 a0 04 00
	00		 mov	 eax, DWORD PTR [eax+1184]
  03f1c	99		 cdq
  03f1d	be 06 00 00 00	 mov	 esi, 6
  03f22	f7 fe		 idiv	 esi
  03f24	03 c8		 add	 ecx, eax
  03f26	89 8d b8 fd ff
	ff		 mov	 DWORD PTR _Rate$240524[ebp], ecx

; 2279 : 
; 2280 : 							if(g_SkillAdditionInfo.m_SleepRateMaxVsMob	!= 0)

  03f2c	0f b7 05 14 0d
	00 00		 movzx	 eax, WORD PTR ?g_SkillAdditionInfo@@3VCSkillAdditionInfo@@A+3348
  03f33	85 c0		 test	 eax, eax
  03f35	74 1c		 je	 SHORT $LN285@Attack

; 2281 : 							{
; 2282 : 								if(Rate > g_SkillAdditionInfo.m_SleepRateMaxVsMob)

  03f37	0f b7 05 14 0d
	00 00		 movzx	 eax, WORD PTR ?g_SkillAdditionInfo@@3VCSkillAdditionInfo@@A+3348
  03f3e	39 85 b8 fd ff
	ff		 cmp	 DWORD PTR _Rate$240524[ebp], eax
  03f44	7e 0d		 jle	 SHORT $LN285@Attack

; 2283 : 								{
; 2284 : 									Rate = g_SkillAdditionInfo.m_SleepRateMaxVsMob;

  03f46	0f b7 05 14 0d
	00 00		 movzx	 eax, WORD PTR ?g_SkillAdditionInfo@@3VCSkillAdditionInfo@@A+3348
  03f4d	89 85 b8 fd ff
	ff		 mov	 DWORD PTR _Rate$240524[ebp], eax
$LN285@Attack:

; 2285 : 								}
; 2286 : 							}
; 2287 : 						}

  03f53	eb 69		 jmp	 SHORT $LN281@Attack
$LN287@Attack:

; 2288 : 						else if( lpTargetObj->Type == OBJ_USER )

  03f55	8b 45 0c	 mov	 eax, DWORD PTR _lpTargetObj$[ebp]
  03f58	0f b7 48 68	 movzx	 ecx, WORD PTR [eax+104]
  03f5c	83 f9 01	 cmp	 ecx, 1
  03f5f	75 5d		 jne	 SHORT $LN281@Attack

; 2289 : 						{
; 2290 : 							Rate = g_SkillAdditionInfo.m_SleepRateStartVsUser + lpObj->Energy / g_SkillAdditionInfo.m_SleepRateDivVsUser + lpObj->m_iSummonerBookSpell / 6;

  03f61	0f b7 0d 1c 0d
	00 00		 movzx	 ecx, WORD PTR ?g_SkillAdditionInfo@@3VCSkillAdditionInfo@@A+3356
  03f68	8b 55 08	 mov	 edx, DWORD PTR _lpObj$[ebp]
  03f6b	0f b7 82 fa 00
	00 00		 movzx	 eax, WORD PTR [edx+250]
  03f72	0f b7 35 1e 0d
	00 00		 movzx	 esi, WORD PTR ?g_SkillAdditionInfo@@3VCSkillAdditionInfo@@A+3358
  03f79	99		 cdq
  03f7a	f7 fe		 idiv	 esi
  03f7c	03 c8		 add	 ecx, eax
  03f7e	8b 45 08	 mov	 eax, DWORD PTR _lpObj$[ebp]
  03f81	8b 80 a0 04 00
	00		 mov	 eax, DWORD PTR [eax+1184]
  03f87	99		 cdq
  03f88	be 06 00 00 00	 mov	 esi, 6
  03f8d	f7 fe		 idiv	 esi
  03f8f	03 c8		 add	 ecx, eax
  03f91	89 8d b8 fd ff
	ff		 mov	 DWORD PTR _Rate$240524[ebp], ecx

; 2291 : 
; 2292 : 							if(g_SkillAdditionInfo.m_SleepRateMaxVsUser	!= 0)

  03f97	0f b7 05 20 0d
	00 00		 movzx	 eax, WORD PTR ?g_SkillAdditionInfo@@3VCSkillAdditionInfo@@A+3360
  03f9e	85 c0		 test	 eax, eax
  03fa0	74 1c		 je	 SHORT $LN281@Attack

; 2293 : 							{
; 2294 : 								if(Rate > g_SkillAdditionInfo.m_SleepRateMaxVsUser)

  03fa2	0f b7 05 20 0d
	00 00		 movzx	 eax, WORD PTR ?g_SkillAdditionInfo@@3VCSkillAdditionInfo@@A+3360
  03fa9	39 85 b8 fd ff
	ff		 cmp	 DWORD PTR _Rate$240524[ebp], eax
  03faf	7e 0d		 jle	 SHORT $LN281@Attack

; 2295 : 								{
; 2296 : 									Rate = g_SkillAdditionInfo.m_SleepRateMaxVsUser;

  03fb1	0f b7 05 20 0d
	00 00		 movzx	 eax, WORD PTR ?g_SkillAdditionInfo@@3VCSkillAdditionInfo@@A+3360
  03fb8	89 85 b8 fd ff
	ff		 mov	 DWORD PTR _Rate$240524[ebp], eax
$LN281@Attack:

; 2297 : 								}
; 2298 : 							}
; 2299 : 						}
; 2300 : 
; 2301 : 						if( Rate < rand()%100)

  03fbe	e8 00 00 00 00	 call	 _rand
  03fc3	99		 cdq
  03fc4	b9 64 00 00 00	 mov	 ecx, 100		; 00000064H
  03fc9	f7 f9		 idiv	 ecx
  03fcb	39 95 b8 fd ff
	ff		 cmp	 DWORD PTR _Rate$240524[ebp], edx
  03fd1	7d 23		 jge	 SHORT $LN280@Attack

; 2302 : 						{
; 2303 : 							GCDamageSend(lpObj->m_Index,lpTargetObj->m_Index,0,0,0,0);

  03fd3	6a 00		 push	 0
  03fd5	6a 00		 push	 0
  03fd7	6a 00		 push	 0
  03fd9	6a 00		 push	 0
  03fdb	8b 45 0c	 mov	 eax, DWORD PTR _lpTargetObj$[ebp]
  03fde	8b 08		 mov	 ecx, DWORD PTR [eax]
  03fe0	51		 push	 ecx
  03fe1	8b 55 08	 mov	 edx, DWORD PTR _lpObj$[ebp]
  03fe4	8b 02		 mov	 eax, DWORD PTR [edx]
  03fe6	50		 push	 eax
  03fe7	e8 00 00 00 00	 call	 ?GCDamageSend@@YAXHHHHHH@Z ; GCDamageSend
  03fec	83 c4 18	 add	 esp, 24			; 00000018H

; 2304 : 							return FALSE;

  03fef	33 c0		 xor	 eax, eax
  03ff1	e9 01 2a 00 00	 jmp	 $LN741@Attack
$LN280@Attack:

; 2305 : 						}
; 2306 : 
; 2307 : 						int SleepTime = 0;

  03ff6	c7 85 b4 fd ff
	ff 00 00 00 00	 mov	 DWORD PTR _SleepTime$240533[ebp], 0

; 2308 : 
; 2309 : 						if( lpTargetObj->Type == OBJ_MONSTER )

  04000	8b 45 0c	 mov	 eax, DWORD PTR _lpTargetObj$[ebp]
  04003	0f b7 48 68	 movzx	 ecx, WORD PTR [eax+104]
  04007	83 f9 02	 cmp	 ecx, 2
  0400a	75 60		 jne	 SHORT $LN279@Attack

; 2310 : 						{
; 2311 : 							SleepTime = (g_SkillAdditionInfo.m_SleepTimeStartVsMob + lpObj->Energy /g_SkillAdditionInfo.m_SleepTimeDivVsMob) - lpTargetObj->Level / 20;

  0400c	0f b7 0d 16 0d
	00 00		 movzx	 ecx, WORD PTR ?g_SkillAdditionInfo@@3VCSkillAdditionInfo@@A+3350
  04013	8b 55 08	 mov	 edx, DWORD PTR _lpObj$[ebp]
  04016	0f b7 82 fa 00
	00 00		 movzx	 eax, WORD PTR [edx+250]
  0401d	0f b7 35 18 0d
	00 00		 movzx	 esi, WORD PTR ?g_SkillAdditionInfo@@3VCSkillAdditionInfo@@A+3352
  04024	99		 cdq
  04025	f7 fe		 idiv	 esi
  04027	03 c8		 add	 ecx, eax
  04029	8b 45 0c	 mov	 eax, DWORD PTR _lpTargetObj$[ebp]
  0402c	0f bf 80 be 00
	00 00		 movsx	 eax, WORD PTR [eax+190]
  04033	99		 cdq
  04034	be 14 00 00 00	 mov	 esi, 20			; 00000014H
  04039	f7 fe		 idiv	 esi
  0403b	2b c8		 sub	 ecx, eax
  0403d	89 8d b4 fd ff
	ff		 mov	 DWORD PTR _SleepTime$240533[ebp], ecx

; 2312 : 
; 2313 : 							if(g_SkillAdditionInfo.m_SleepTimeMaxVsMob != 0)

  04043	0f b7 05 1a 0d
	00 00		 movzx	 eax, WORD PTR ?g_SkillAdditionInfo@@3VCSkillAdditionInfo@@A+3354
  0404a	85 c0		 test	 eax, eax
  0404c	74 1c		 je	 SHORT $LN277@Attack

; 2314 : 							{
; 2315 : 								if(SleepTime > g_SkillAdditionInfo.m_SleepTimeMaxVsMob)

  0404e	0f b7 05 1a 0d
	00 00		 movzx	 eax, WORD PTR ?g_SkillAdditionInfo@@3VCSkillAdditionInfo@@A+3354
  04055	39 85 b4 fd ff
	ff		 cmp	 DWORD PTR _SleepTime$240533[ebp], eax
  0405b	7e 0d		 jle	 SHORT $LN277@Attack

; 2316 : 								{
; 2317 : 									SleepTime = g_SkillAdditionInfo.m_SleepTimeMaxVsMob;

  0405d	0f b7 05 1a 0d
	00 00		 movzx	 eax, WORD PTR ?g_SkillAdditionInfo@@3VCSkillAdditionInfo@@A+3354
  04064	89 85 b4 fd ff
	ff		 mov	 DWORD PTR _SleepTime$240533[ebp], eax
$LN277@Attack:

; 2318 : 								}
; 2319 : 							}
; 2320 : 						}

  0406a	eb 78		 jmp	 SHORT $LN273@Attack
$LN279@Attack:

; 2321 : 						else if( lpTargetObj->Type == OBJ_USER )

  0406c	8b 45 0c	 mov	 eax, DWORD PTR _lpTargetObj$[ebp]
  0406f	0f b7 48 68	 movzx	 ecx, WORD PTR [eax+104]
  04073	83 f9 01	 cmp	 ecx, 1
  04076	75 6c		 jne	 SHORT $LN273@Attack

; 2322 : 						{
; 2323 : 							SleepTime = g_SkillAdditionInfo.m_SleepTimeStartVsUser + ((lpObj->Energy /g_SkillAdditionInfo.m_SleepTimeDivVsUser) + (lpObj->Level - lpTargetObj->Level) / 100);

  04078	0f b7 0d 22 0d
	00 00		 movzx	 ecx, WORD PTR ?g_SkillAdditionInfo@@3VCSkillAdditionInfo@@A+3362
  0407f	8b 55 08	 mov	 edx, DWORD PTR _lpObj$[ebp]
  04082	0f b7 82 fa 00
	00 00		 movzx	 eax, WORD PTR [edx+250]
  04089	0f b7 35 24 0d
	00 00		 movzx	 esi, WORD PTR ?g_SkillAdditionInfo@@3VCSkillAdditionInfo@@A+3364
  04090	99		 cdq
  04091	f7 fe		 idiv	 esi
  04093	8b f0		 mov	 esi, eax
  04095	8b 45 08	 mov	 eax, DWORD PTR _lpObj$[ebp]
  04098	0f bf 80 be 00
	00 00		 movsx	 eax, WORD PTR [eax+190]
  0409f	8b 55 0c	 mov	 edx, DWORD PTR _lpTargetObj$[ebp]
  040a2	0f bf 92 be 00
	00 00		 movsx	 edx, WORD PTR [edx+190]
  040a9	2b c2		 sub	 eax, edx
  040ab	99		 cdq
  040ac	bf 64 00 00 00	 mov	 edi, 100		; 00000064H
  040b1	f7 ff		 idiv	 edi
  040b3	03 f0		 add	 esi, eax
  040b5	03 ce		 add	 ecx, esi
  040b7	89 8d b4 fd ff
	ff		 mov	 DWORD PTR _SleepTime$240533[ebp], ecx

; 2324 : 
; 2325 : 							if(g_SkillAdditionInfo.m_SleepTimeMaxVsUser != 0)

  040bd	0f b7 05 26 0d
	00 00		 movzx	 eax, WORD PTR ?g_SkillAdditionInfo@@3VCSkillAdditionInfo@@A+3366
  040c4	85 c0		 test	 eax, eax
  040c6	74 1c		 je	 SHORT $LN273@Attack

; 2326 : 							{
; 2327 : 								if(SleepTime > g_SkillAdditionInfo.m_SleepTimeMaxVsUser)

  040c8	0f b7 05 26 0d
	00 00		 movzx	 eax, WORD PTR ?g_SkillAdditionInfo@@3VCSkillAdditionInfo@@A+3366
  040cf	39 85 b4 fd ff
	ff		 cmp	 DWORD PTR _SleepTime$240533[ebp], eax
  040d5	7e 0d		 jle	 SHORT $LN273@Attack

; 2328 : 								{
; 2329 : 									SleepTime = g_SkillAdditionInfo.m_SleepTimeMaxVsUser;

  040d7	0f b7 05 26 0d
	00 00		 movzx	 eax, WORD PTR ?g_SkillAdditionInfo@@3VCSkillAdditionInfo@@A+3366
  040de	89 85 b4 fd ff
	ff		 mov	 DWORD PTR _SleepTime$240533[ebp], eax
$LN273@Attack:

; 2330 : 								}
; 2331 : 							}
; 2332 : 						}
; 2333 : 
; 2334 : 						if( SleepTime < 1 )

  040e4	83 bd b4 fd ff
	ff 01		 cmp	 DWORD PTR _SleepTime$240533[ebp], 1
  040eb	7d 23		 jge	 SHORT $LN272@Attack

; 2335 : 						{
; 2336 : 							GCDamageSend(lpObj->m_Index,lpTargetObj->m_Index,0,0,0,0);

  040ed	6a 00		 push	 0
  040ef	6a 00		 push	 0
  040f1	6a 00		 push	 0
  040f3	6a 00		 push	 0
  040f5	8b 45 0c	 mov	 eax, DWORD PTR _lpTargetObj$[ebp]
  040f8	8b 08		 mov	 ecx, DWORD PTR [eax]
  040fa	51		 push	 ecx
  040fb	8b 55 08	 mov	 edx, DWORD PTR _lpObj$[ebp]
  040fe	8b 02		 mov	 eax, DWORD PTR [edx]
  04100	50		 push	 eax
  04101	e8 00 00 00 00	 call	 ?GCDamageSend@@YAXHHHHHH@Z ; GCDamageSend
  04106	83 c4 18	 add	 esp, 24			; 00000018H

; 2337 : 							return FALSE;

  04109	33 c0		 xor	 eax, eax
  0410b	e9 e7 28 00 00	 jmp	 $LN741@Attack
$LN272@Attack:

; 2338 : 						}
; 2339 : 
; 2340 : 						if( gObjCheckBuffEffectValue(lpTargetObj,0x48,SleepTime,0) == TRUE )

  04110	6a 00		 push	 0
  04112	8b 85 b4 fd ff
	ff		 mov	 eax, DWORD PTR _SleepTime$240533[ebp]
  04118	50		 push	 eax
  04119	6a 48		 push	 72			; 00000048H
  0411b	8b 4d 0c	 mov	 ecx, DWORD PTR _lpTargetObj$[ebp]
  0411e	51		 push	 ecx
  0411f	e8 00 00 00 00	 call	 ?gObjCheckBuffEffectValue@@YAEPAUOBJECTSTRUCT@@HHH@Z ; gObjCheckBuffEffectValue
  04124	83 c4 10	 add	 esp, 16			; 00000010H
  04127	0f b6 d0	 movzx	 edx, al
  0412a	83 fa 01	 cmp	 edx, 1
  0412d	75 20		 jne	 SHORT $LN271@Attack

; 2341 : 						{
; 2342 : 							GCMagicAttackNumberSend(lpObj,219,lpTargetObj->m_Index,0);

  0412f	6a 00		 push	 0
  04131	8b 45 0c	 mov	 eax, DWORD PTR _lpTargetObj$[ebp]
  04134	8b 08		 mov	 ecx, DWORD PTR [eax]
  04136	51		 push	 ecx
  04137	68 db 00 00 00	 push	 219			; 000000dbH
  0413c	8b 55 08	 mov	 edx, DWORD PTR _lpObj$[ebp]
  0413f	52		 push	 edx
  04140	e8 00 00 00 00	 call	 ?GCMagicAttackNumberSend@@YAXPAUOBJECTSTRUCT@@GHE@Z ; GCMagicAttackNumberSend
  04145	83 c4 10	 add	 esp, 16			; 00000010H

; 2343 : 							return FALSE;

  04148	33 c0		 xor	 eax, eax
  0414a	e9 a8 28 00 00	 jmp	 $LN741@Attack
$LN271@Attack:

; 2344 : 						}
; 2345 : 
; 2346 : 						gObjApplyBuffEffectDuration(lpTargetObj,72,25,SleepTime,0,0,SleepTime);

  0414f	8b 85 b4 fd ff
	ff		 mov	 eax, DWORD PTR _SleepTime$240533[ebp]
  04155	50		 push	 eax
  04156	6a 00		 push	 0
  04158	6a 00		 push	 0
  0415a	8b 8d b4 fd ff
	ff		 mov	 ecx, DWORD PTR _SleepTime$240533[ebp]
  04160	51		 push	 ecx
  04161	6a 19		 push	 25			; 00000019H
  04163	6a 48		 push	 72			; 00000048H
  04165	8b 55 0c	 mov	 edx, DWORD PTR _lpTargetObj$[ebp]
  04168	52		 push	 edx
  04169	e8 00 00 00 00	 call	 ?gObjApplyBuffEffectDuration@@YAEPAUOBJECTSTRUCT@@HEHEHH@Z ; gObjApplyBuffEffectDuration
  0416e	83 c4 1c	 add	 esp, 28			; 0000001cH

; 2347 : 						return TRUE;

  04171	b8 01 00 00 00	 mov	 eax, 1
  04176	e9 7c 28 00 00	 jmp	 $LN741@Attack

; 2348 : 					}
; 2349 : 					break;

  0417b	e9 eb 02 00 00	 jmp	 $LN315@Attack
$LN270@Attack:

; 2350 : 				case 455:
; 2351 : 					switch( bCombo )

  04180	8b 45 20	 mov	 eax, DWORD PTR _bCombo$[ebp]
  04183	89 85 c8 fc ff
	ff		 mov	 DWORD PTR tv2921[ebp], eax
  04189	83 bd c8 fc ff
	ff 01		 cmp	 DWORD PTR tv2921[ebp], 1
  04190	74 14		 je	 SHORT $LN267@Attack
  04192	83 bd c8 fc ff
	ff 02		 cmp	 DWORD PTR tv2921[ebp], 2
  04199	74 0d		 je	 SHORT $LN266@Attack
  0419b	83 bd c8 fc ff
	ff 03		 cmp	 DWORD PTR tv2921[ebp], 3
  041a2	74 17		 je	 SHORT $LN265@Attack
  041a4	eb 28		 jmp	 SHORT $LN264@Attack
$LN267@Attack:

; 2352 : 					{
; 2353 : 					case 1:
; 2354 : 						break;

  041a6	eb 2d		 jmp	 SHORT $LN268@Attack
$LN266@Attack:

; 2355 : 					case 2:
; 2356 : 						AttackDamage = AttackDamage * 70 / 100;

  041a8	8b 45 1c	 mov	 eax, DWORD PTR _AttackDamage$[ebp]
  041ab	6b c0 46	 imul	 eax, 70			; 00000046H
  041ae	99		 cdq
  041af	b9 64 00 00 00	 mov	 ecx, 100		; 00000064H
  041b4	f7 f9		 idiv	 ecx
  041b6	89 45 1c	 mov	 DWORD PTR _AttackDamage$[ebp], eax

; 2357 : 						break;

  041b9	eb 1a		 jmp	 SHORT $LN268@Attack
$LN265@Attack:

; 2358 : 					case 3:
; 2359 : 						AttackDamage = AttackDamage * 50 / 100;

  041bb	8b 45 1c	 mov	 eax, DWORD PTR _AttackDamage$[ebp]
  041be	6b c0 32	 imul	 eax, 50			; 00000032H
  041c1	99		 cdq
  041c2	b9 64 00 00 00	 mov	 ecx, 100		; 00000064H
  041c7	f7 f9		 idiv	 ecx
  041c9	89 45 1c	 mov	 DWORD PTR _AttackDamage$[ebp], eax

; 2360 : 						break;

  041cc	eb 07		 jmp	 SHORT $LN268@Attack
$LN264@Attack:

; 2361 : 					default:
; 2362 : 						return FALSE;

  041ce	33 c0		 xor	 eax, eax
  041d0	e9 22 28 00 00	 jmp	 $LN741@Attack
$LN268@Attack:

; 2363 : 					}
; 2364 : 
; 2365 : 					bCombo = FALSE;

  041d5	c7 45 20 00 00
	00 00		 mov	 DWORD PTR _bCombo$[ebp], 0

; 2366 : 					break;

  041dc	e9 8a 02 00 00	 jmp	 $LN315@Attack
$LN263@Attack:

; 2367 : 				case 456:
; 2368 : 					gObjApplyBuffEffectDuration(lpTargetObj,85,0,0,0,0,1);

  041e1	6a 01		 push	 1
  041e3	6a 00		 push	 0
  041e5	6a 00		 push	 0
  041e7	6a 00		 push	 0
  041e9	6a 00		 push	 0
  041eb	6a 55		 push	 85			; 00000055H
  041ed	8b 45 0c	 mov	 eax, DWORD PTR _lpTargetObj$[ebp]
  041f0	50		 push	 eax
  041f1	e8 00 00 00 00	 call	 ?gObjApplyBuffEffectDuration@@YAEPAUOBJECTSTRUCT@@HEHEHH@Z ; gObjApplyBuffEffectDuration
  041f6	83 c4 1c	 add	 esp, 28			; 0000001cH

; 2369 : 					break;

  041f9	e9 6d 02 00 00	 jmp	 $LN315@Attack
$LN262@Attack:

; 2370 : 				case 458:
; 2371 : 					{
; 2372 : 						int nAddHP = 0;

  041fe	c7 85 b0 fd ff
	ff 00 00 00 00	 mov	 DWORD PTR _nAddHP$240554[ebp], 0

; 2373 : 
; 2374 : 						if( lpTargetObj->Type == OBJ_MONSTER )

  04208	8b 45 0c	 mov	 eax, DWORD PTR _lpTargetObj$[ebp]
  0420b	0f b7 48 68	 movzx	 ecx, WORD PTR [eax+104]
  0420f	83 f9 02	 cmp	 ecx, 2
  04212	75 6a		 jne	 SHORT $LN261@Attack

; 2375 : 						{
; 2376 : 							nAddHP = (int)(float(lpObj->Energy / 15) + float(lpTargetObj->Level / 2.5f));

  04214	8b 45 08	 mov	 eax, DWORD PTR _lpObj$[ebp]
  04217	0f b7 80 fa 00
	00 00		 movzx	 eax, WORD PTR [eax+250]
  0421e	99		 cdq
  0421f	b9 0f 00 00 00	 mov	 ecx, 15			; 0000000fH
  04224	f7 f9		 idiv	 ecx
  04226	89 85 c8 fc ff
	ff		 mov	 DWORD PTR tv6895[ebp], eax
  0422c	db 85 c8 fc ff
	ff		 fild	 DWORD PTR tv6895[ebp]
  04232	8b 55 0c	 mov	 edx, DWORD PTR _lpTargetObj$[ebp]
  04235	0f bf 82 be 00
	00 00		 movsx	 eax, WORD PTR [edx+190]
  0423c	89 85 c4 fc ff
	ff		 mov	 DWORD PTR tv6897[ebp], eax
  04242	db 85 c4 fc ff
	ff		 fild	 DWORD PTR tv6897[ebp]
  04248	dc 35 00 00 00
	00		 fdiv	 QWORD PTR __real@4004000000000000
  0424e	d9 9d c0 fc ff
	ff		 fstp	 DWORD PTR tv6899[ebp]
  04254	d8 85 c0 fc ff
	ff		 fadd	 DWORD PTR tv6899[ebp]
  0425a	e8 00 00 00 00	 call	 __ftol2_sse
  0425f	89 85 b0 fd ff
	ff		 mov	 DWORD PTR _nAddHP$240554[ebp], eax

; 2377 : 							nAddHP += iSkillValue;

  04265	db 85 b0 fd ff
	ff		 fild	 DWORD PTR _nAddHP$240554[ebp]
  0426b	d8 85 d4 fd ff
	ff		 fadd	 DWORD PTR _iSkillValue$240480[ebp]
  04271	e8 00 00 00 00	 call	 __ftol2_sse
  04276	89 85 b0 fd ff
	ff		 mov	 DWORD PTR _nAddHP$240554[ebp], eax
  0427c	eb 4d		 jmp	 SHORT $LN259@Attack
$LN261@Attack:

; 2378 : 						}
; 2379 : 						else if( lpTargetObj->Type == OBJ_USER )

  0427e	8b 45 0c	 mov	 eax, DWORD PTR _lpTargetObj$[ebp]
  04281	0f b7 48 68	 movzx	 ecx, WORD PTR [eax+104]
  04285	83 f9 01	 cmp	 ecx, 1
  04288	75 41		 jne	 SHORT $LN259@Attack

; 2380 : 						{
; 2381 : 							nAddHP = AttackDamage * 10 / 100 + lpObj->Energy / 23;

  0428a	8b 45 1c	 mov	 eax, DWORD PTR _AttackDamage$[ebp]
  0428d	6b c0 0a	 imul	 eax, 10			; 0000000aH
  04290	99		 cdq
  04291	b9 64 00 00 00	 mov	 ecx, 100		; 00000064H
  04296	f7 f9		 idiv	 ecx
  04298	8b c8		 mov	 ecx, eax
  0429a	8b 55 08	 mov	 edx, DWORD PTR _lpObj$[ebp]
  0429d	0f b7 82 fa 00
	00 00		 movzx	 eax, WORD PTR [edx+250]
  042a4	99		 cdq
  042a5	be 17 00 00 00	 mov	 esi, 23			; 00000017H
  042aa	f7 fe		 idiv	 esi
  042ac	03 c8		 add	 ecx, eax
  042ae	89 8d b0 fd ff
	ff		 mov	 DWORD PTR _nAddHP$240554[ebp], ecx

; 2382 : 							nAddHP += iSkillValue;

  042b4	db 85 b0 fd ff
	ff		 fild	 DWORD PTR _nAddHP$240554[ebp]
  042ba	d8 85 d4 fd ff
	ff		 fadd	 DWORD PTR _iSkillValue$240480[ebp]
  042c0	e8 00 00 00 00	 call	 __ftol2_sse
  042c5	89 85 b0 fd ff
	ff		 mov	 DWORD PTR _nAddHP$240554[ebp], eax
$LN259@Attack:

; 2383 : 						}
; 2384 : 	
; 2385 : 						int tmpLife = (int)(lpObj->Life + nAddHP);

  042cb	db 85 b0 fd ff
	ff		 fild	 DWORD PTR _nAddHP$240554[ebp]
  042d1	8b 45 08	 mov	 eax, DWORD PTR _lpObj$[ebp]
  042d4	d8 80 fc 00 00
	00		 fadd	 DWORD PTR [eax+252]
  042da	e8 00 00 00 00	 call	 __ftol2_sse
  042df	89 85 ac fd ff
	ff		 mov	 DWORD PTR _tmpLife$240559[ebp], eax

; 2386 : 	
; 2387 : 						if( tmpLife > lpObj->MaxLife + lpObj->AddLife )

  042e5	db 85 ac fd ff
	ff		 fild	 DWORD PTR _tmpLife$240559[ebp]
  042eb	8b 45 08	 mov	 eax, DWORD PTR _lpObj$[ebp]
  042ee	db 80 4c 01 00
	00		 fild	 DWORD PTR [eax+332]
  042f4	8b 4d 08	 mov	 ecx, DWORD PTR _lpObj$[ebp]
  042f7	d8 81 00 01 00
	00		 fadd	 DWORD PTR [ecx+256]
  042fd	de d9		 fcompp
  042ff	df e0		 fnstsw	 ax
  04301	f6 c4 05	 test	 ah, 5
  04304	7a 1d		 jp	 SHORT $LN258@Attack

; 2388 : 						{
; 2389 : 							lpObj->Life = lpObj->MaxLife + lpObj->AddLife;

  04306	8b 45 08	 mov	 eax, DWORD PTR _lpObj$[ebp]
  04309	db 80 4c 01 00
	00		 fild	 DWORD PTR [eax+332]
  0430f	8b 4d 08	 mov	 ecx, DWORD PTR _lpObj$[ebp]
  04312	d8 81 00 01 00
	00		 fadd	 DWORD PTR [ecx+256]
  04318	8b 55 08	 mov	 edx, DWORD PTR _lpObj$[ebp]
  0431b	d9 9a fc 00 00
	00		 fstp	 DWORD PTR [edx+252]

; 2390 : 						}
; 2391 : 						else	

  04321	eb 0f		 jmp	 SHORT $LN257@Attack
$LN258@Attack:

; 2392 : 						{
; 2393 : 							lpObj->Life = (float)tmpLife;

  04323	db 85 ac fd ff
	ff		 fild	 DWORD PTR _tmpLife$240559[ebp]
  04329	8b 45 08	 mov	 eax, DWORD PTR _lpObj$[ebp]
  0432c	d9 98 fc 00 00
	00		 fstp	 DWORD PTR [eax+252]
$LN257@Attack:

; 2394 : 						}
; 2395 : 	
; 2396 : 						GCReFillSend(lpObj->m_Index,(int)lpObj->Life,0xFF,0,lpObj->iShield);

  04332	8b 45 08	 mov	 eax, DWORD PTR _lpObj$[ebp]
  04335	8b 88 54 01 00
	00		 mov	 ecx, DWORD PTR [eax+340]
  0433b	51		 push	 ecx
  0433c	6a 00		 push	 0
  0433e	68 ff 00 00 00	 push	 255			; 000000ffH
  04343	8b 55 08	 mov	 edx, DWORD PTR _lpObj$[ebp]
  04346	d9 82 fc 00 00
	00		 fld	 DWORD PTR [edx+252]
  0434c	e8 00 00 00 00	 call	 __ftol2_sse
  04351	50		 push	 eax
  04352	8b 45 08	 mov	 eax, DWORD PTR _lpObj$[ebp]
  04355	8b 08		 mov	 ecx, DWORD PTR [eax]
  04357	51		 push	 ecx
  04358	e8 00 00 00 00	 call	 ?GCReFillSend@@YAXHHEEH@Z ; GCReFillSend
  0435d	83 c4 14	 add	 esp, 20			; 00000014H

; 2397 : 					}
; 2398 : 					break;

  04360	e9 06 01 00 00	 jmp	 $LN315@Attack
$LN256@Attack:

; 2399 : 
; 2400 : 				case 551:
; 2401 : 				case 554:
; 2402 : 				case 552:
; 2403 : 				case 555:
; 2404 : #ifdef _FIX_
; 2405 : 					AttackDamage = AttackDamage*(50 + (Dexterity / 10)) / 100.0f;

  04365	8b 45 c4	 mov	 eax, DWORD PTR _Dexterity$[ebp]
  04368	99		 cdq
  04369	b9 0a 00 00 00	 mov	 ecx, 10			; 0000000aH
  0436e	f7 f9		 idiv	 ecx
  04370	83 c0 32	 add	 eax, 50			; 00000032H
  04373	0f af 45 1c	 imul	 eax, DWORD PTR _AttackDamage$[ebp]
  04377	89 85 c8 fc ff
	ff		 mov	 DWORD PTR tv6960[ebp], eax
  0437d	db 85 c8 fc ff
	ff		 fild	 DWORD PTR tv6960[ebp]
  04383	dc 35 00 00 00
	00		 fdiv	 QWORD PTR __real@4059000000000000
  04389	e8 00 00 00 00	 call	 __ftol2_sse
  0438e	89 45 1c	 mov	 DWORD PTR _AttackDamage$[ebp], eax

; 2406 : #else
; 2407 : 					AttackDamage = AttackDamage*(50 + (Vitality / 10)) / 100.0f;
; 2408 : #endif
; 2409 : 					break;

  04391	e9 d5 00 00 00	 jmp	 $LN315@Attack
$LN255@Attack:

; 2410 : 				case 558:
; 2411 : #ifdef _FIX_
; 2412 : 					AttackDamage = (AttackDamage+(Dexterity/10))*(50+(Dexterity/10))/100.0f;

  04396	8b 45 c4	 mov	 eax, DWORD PTR _Dexterity$[ebp]
  04399	99		 cdq
  0439a	b9 0a 00 00 00	 mov	 ecx, 10			; 0000000aH
  0439f	f7 f9		 idiv	 ecx
  043a1	8b c8		 mov	 ecx, eax
  043a3	03 4d 1c	 add	 ecx, DWORD PTR _AttackDamage$[ebp]
  043a6	8b 45 c4	 mov	 eax, DWORD PTR _Dexterity$[ebp]
  043a9	99		 cdq
  043aa	be 0a 00 00 00	 mov	 esi, 10			; 0000000aH
  043af	f7 fe		 idiv	 esi
  043b1	83 c0 32	 add	 eax, 50			; 00000032H
  043b4	0f af c8	 imul	 ecx, eax
  043b7	89 8d c8 fc ff
	ff		 mov	 DWORD PTR tv6975[ebp], ecx
  043bd	db 85 c8 fc ff
	ff		 fild	 DWORD PTR tv6975[ebp]
  043c3	dc 35 00 00 00
	00		 fdiv	 QWORD PTR __real@4059000000000000
  043c9	e8 00 00 00 00	 call	 __ftol2_sse
  043ce	89 45 1c	 mov	 DWORD PTR _AttackDamage$[ebp], eax

; 2413 : #else
; 2414 : 					AttackDamage = (AttackDamage+(Vitality/10))*(50+(Vitality/10))/100.0f;
; 2415 : #endif
; 2416 : 					break;

  043d1	e9 95 00 00 00	 jmp	 $LN315@Attack
$LN254@Attack:

; 2417 : 				case 559:
; 2418 : #ifdef _FIX_
; 2419 : 					AttackDamage = (AttackDamage+(Dexterity/8)+(Energy/10))*(100 + (Dexterity/8) + (Energy/10))/100.0f;

  043d6	8b 45 c4	 mov	 eax, DWORD PTR _Dexterity$[ebp]
  043d9	99		 cdq
  043da	83 e2 07	 and	 edx, 7
  043dd	03 c2		 add	 eax, edx
  043df	8b c8		 mov	 ecx, eax
  043e1	c1 f9 03	 sar	 ecx, 3
  043e4	03 4d 1c	 add	 ecx, DWORD PTR _AttackDamage$[ebp]
  043e7	8b 45 bc	 mov	 eax, DWORD PTR _Energy$[ebp]
  043ea	99		 cdq
  043eb	be 0a 00 00 00	 mov	 esi, 10			; 0000000aH
  043f0	f7 fe		 idiv	 esi
  043f2	03 c8		 add	 ecx, eax
  043f4	8b 45 c4	 mov	 eax, DWORD PTR _Dexterity$[ebp]
  043f7	99		 cdq
  043f8	83 e2 07	 and	 edx, 7
  043fb	03 c2		 add	 eax, edx
  043fd	8b f0		 mov	 esi, eax
  043ff	c1 fe 03	 sar	 esi, 3
  04402	8b 45 bc	 mov	 eax, DWORD PTR _Energy$[ebp]
  04405	99		 cdq
  04406	bf 0a 00 00 00	 mov	 edi, 10			; 0000000aH
  0440b	f7 ff		 idiv	 edi
  0440d	8d 54 06 64	 lea	 edx, DWORD PTR [esi+eax+100]
  04411	0f af ca	 imul	 ecx, edx
  04414	89 8d c8 fc ff
	ff		 mov	 DWORD PTR tv7002[ebp], ecx
  0441a	db 85 c8 fc ff
	ff		 fild	 DWORD PTR tv7002[ebp]
  04420	dc 35 00 00 00
	00		 fdiv	 QWORD PTR __real@4059000000000000
  04426	e8 00 00 00 00	 call	 __ftol2_sse
  0442b	89 45 1c	 mov	 DWORD PTR _AttackDamage$[ebp], eax

; 2420 : #else
; 2421 : 					AttackDamage = (AttackDamage+(Vitality/8)+(Energy/10))*(100 + (Vitality/8) + (Energy/10))/100.0f;
; 2422 : #endif
; 2423 : 					break;

  0442e	eb 3b		 jmp	 SHORT $LN315@Attack
$LN253@Attack:

; 2424 : 				case 560:
; 2425 : 					AttackDamage = (AttackDamage+(Energy/10))*(50 + (Energy/10))/100.0f;

  04430	8b 45 bc	 mov	 eax, DWORD PTR _Energy$[ebp]
  04433	99		 cdq
  04434	b9 0a 00 00 00	 mov	 ecx, 10			; 0000000aH
  04439	f7 f9		 idiv	 ecx
  0443b	8b c8		 mov	 ecx, eax
  0443d	03 4d 1c	 add	 ecx, DWORD PTR _AttackDamage$[ebp]
  04440	8b 45 bc	 mov	 eax, DWORD PTR _Energy$[ebp]
  04443	99		 cdq
  04444	be 0a 00 00 00	 mov	 esi, 10			; 0000000aH
  04449	f7 fe		 idiv	 esi
  0444b	83 c0 32	 add	 eax, 50			; 00000032H
  0444e	0f af c8	 imul	 ecx, eax
  04451	89 8d c8 fc ff
	ff		 mov	 DWORD PTR tv7017[ebp], ecx
  04457	db 85 c8 fc ff
	ff		 fild	 DWORD PTR tv7017[ebp]
  0445d	dc 35 00 00 00
	00		 fdiv	 QWORD PTR __real@4059000000000000
  04463	e8 00 00 00 00	 call	 __ftol2_sse
  04468	89 45 1c	 mov	 DWORD PTR _AttackDamage$[ebp], eax
$LN315@Attack:

; 2426 : 					break;
; 2427 : 				}
; 2428 : 			}
; 2429 : 
; 2430 : 			if ( lpObj->pInventory[1].GetDetailItemType() == 10 &&
; 2431 : 				 lpObj->pInventory[1].m_Special[0] == skill )

  0446b	8b 45 08	 mov	 eax, DWORD PTR _lpObj$[ebp]
  0446e	8b 88 24 0e 00
	00		 mov	 ecx, DWORD PTR [eax+3620]
  04474	81 c1 d4 00 00
	00		 add	 ecx, 212		; 000000d4H
  0447a	e8 00 00 00 00	 call	 ?GetDetailItemType@CItem@@QAEHXZ ; CItem::GetDetailItemType
  0447f	83 f8 0a	 cmp	 eax, 10			; 0000000aH
  04482	0f 85 e1 01 00
	00		 jne	 $LN239@Attack
  04488	8b 45 08	 mov	 eax, DWORD PTR _lpObj$[ebp]
  0448b	8b 88 24 0e 00
	00		 mov	 ecx, DWORD PTR [eax+3620]
  04491	0f b7 91 06 01
	00 00		 movzx	 edx, WORD PTR [ecx+262]
  04498	3b 55 d8	 cmp	 edx, DWORD PTR _skill$[ebp]
  0449b	0f 85 c8 01 00
	00		 jne	 $LN239@Attack

; 2432 : 			{
; 2433 : 				if( MagicDamageC.GetSkillAttr(skill) == R_FIRE )

  044a1	8b 45 d8	 mov	 eax, DWORD PTR _skill$[ebp]
  044a4	50		 push	 eax
  044a5	b9 00 00 00 00	 mov	 ecx, OFFSET ?MagicDamageC@@3VCMagicDamage@@A ; MagicDamageC
  044aa	e8 00 00 00 00	 call	 ?GetSkillAttr@CMagicDamage@@QAEHH@Z ; CMagicDamage::GetSkillAttr
  044af	83 f8 03	 cmp	 eax, 3
  044b2	75 2f		 jne	 SHORT $LN251@Attack

; 2434 : 				{
; 2435 : 					if( lpObj->m_MPSkillOpt.MpsFireTomeStrength > 0.0f )

  044b4	8b 45 08	 mov	 eax, DWORD PTR _lpObj$[ebp]
  044b7	d9 80 d0 26 00
	00		 fld	 DWORD PTR [eax+9936]
  044bd	dc 1d 00 00 00
	00		 fcomp	 QWORD PTR __real@0000000000000000
  044c3	df e0		 fnstsw	 ax
  044c5	f6 c4 41	 test	 ah, 65			; 00000041H
  044c8	75 14		 jne	 SHORT $LN250@Attack

; 2436 : 					{
; 2437 : 						AttackDamage += lpObj->m_MPSkillOpt.MpsFireTomeStrength;

  044ca	db 45 1c	 fild	 DWORD PTR _AttackDamage$[ebp]
  044cd	8b 45 08	 mov	 eax, DWORD PTR _lpObj$[ebp]
  044d0	d8 80 d0 26 00
	00		 fadd	 DWORD PTR [eax+9936]
  044d6	e8 00 00 00 00	 call	 __ftol2_sse
  044db	89 45 1c	 mov	 DWORD PTR _AttackDamage$[ebp], eax
$LN250@Attack:

; 2438 : 					}
; 2439 : 				}

  044de	e9 86 01 00 00	 jmp	 $LN239@Attack
$LN251@Attack:

; 2440 : 				else if( MagicDamageC.GetSkillAttr(skill) == R_WIND )

  044e3	8b 45 d8	 mov	 eax, DWORD PTR _skill$[ebp]
  044e6	50		 push	 eax
  044e7	b9 00 00 00 00	 mov	 ecx, OFFSET ?MagicDamageC@@3VCMagicDamage@@A ; MagicDamageC
  044ec	e8 00 00 00 00	 call	 ?GetSkillAttr@CMagicDamage@@QAEHH@Z ; CMagicDamage::GetSkillAttr
  044f1	83 f8 05	 cmp	 eax, 5
  044f4	0f 85 cf 00 00
	00		 jne	 $LN248@Attack

; 2441 : 				{
; 2442 : 					if( lpObj->m_MPSkillOpt.MpsWindTomeStrength > 0.0f )

  044fa	8b 45 08	 mov	 eax, DWORD PTR _lpObj$[ebp]
  044fd	d9 80 d4 26 00
	00		 fld	 DWORD PTR [eax+9940]
  04503	dc 1d 00 00 00
	00		 fcomp	 QWORD PTR __real@0000000000000000
  04509	df e0		 fnstsw	 ax
  0450b	f6 c4 41	 test	 ah, 65			; 00000041H
  0450e	75 14		 jne	 SHORT $LN247@Attack

; 2443 : 					{
; 2444 : 						AttackDamage += lpObj->m_MPSkillOpt.MpsWindTomeStrength;

  04510	db 45 1c	 fild	 DWORD PTR _AttackDamage$[ebp]
  04513	8b 45 08	 mov	 eax, DWORD PTR _lpObj$[ebp]
  04516	d8 80 d4 26 00
	00		 fadd	 DWORD PTR [eax+9940]
  0451c	e8 00 00 00 00	 call	 __ftol2_sse
  04521	89 45 1c	 mov	 DWORD PTR _AttackDamage$[ebp], eax
$LN247@Attack:

; 2445 : 					}
; 2446 : 
; 2447 : 					if( lpObj->m_MPSkillOpt.MpsWindTomeMastery > 0.0f )

  04524	8b 45 08	 mov	 eax, DWORD PTR _lpObj$[ebp]
  04527	d9 80 e0 26 00
	00		 fld	 DWORD PTR [eax+9952]
  0452d	dc 1d 00 00 00
	00		 fcomp	 QWORD PTR __real@0000000000000000
  04533	df e0		 fnstsw	 ax
  04535	f6 c4 41	 test	 ah, 65			; 00000041H
  04538	0f 85 86 00 00
	00		 jne	 $LN245@Attack

; 2448 : 					{
; 2449 : 						float fPercent = rand()%100;

  0453e	e8 00 00 00 00	 call	 _rand
  04543	99		 cdq
  04544	b9 64 00 00 00	 mov	 ecx, 100		; 00000064H
  04549	f7 f9		 idiv	 ecx
  0454b	89 95 c8 fc ff
	ff		 mov	 DWORD PTR tv7057[ebp], edx
  04551	db 85 c8 fc ff
	ff		 fild	 DWORD PTR tv7057[ebp]
  04557	d9 9d a8 fd ff
	ff		 fstp	 DWORD PTR _fPercent$240576[ebp]

; 2450 : 
; 2451 : 						if( fPercent < lpObj->m_MPSkillOpt.MpsWindTomeMastery )

  0455d	d9 85 a8 fd ff
	ff		 fld	 DWORD PTR _fPercent$240576[ebp]
  04563	8b 45 08	 mov	 eax, DWORD PTR _lpObj$[ebp]
  04566	d9 80 e0 26 00
	00		 fld	 DWORD PTR [eax+9952]
  0456c	de d9		 fcompp
  0456e	df e0		 fnstsw	 ax
  04570	f6 c4 41	 test	 ah, 65			; 00000041H
  04573	75 4f		 jne	 SHORT $LN245@Attack

; 2452 : 						{
; 2453 : 							if(!g_ExLicense.CheckUser(eExUB::Stone))

  04575	6a 37		 push	 55			; 00000037H
  04577	b9 00 00 00 00	 mov	 ecx, OFFSET ?g_ExLicense@@3VCExLicense@@A ; g_ExLicense
  0457c	e8 00 00 00 00	 call	 ?CheckUser@CExLicense@@QAE_NH@Z ; CExLicense::CheckUser
  04581	0f b6 c0	 movzx	 eax, al
  04584	85 c0		 test	 eax, eax
  04586	75 18		 jne	 SHORT $LN244@Attack

; 2454 : 							{
; 2455 : 								gObjApplyBuffEffectDuration(lpTargetObj,AT_STUN,0,0,0,0,3);

  04588	6a 03		 push	 3
  0458a	6a 00		 push	 0
  0458c	6a 00		 push	 0
  0458e	6a 00		 push	 0
  04590	6a 00		 push	 0
  04592	6a 3d		 push	 61			; 0000003dH
  04594	8b 45 0c	 mov	 eax, DWORD PTR _lpTargetObj$[ebp]
  04597	50		 push	 eax
  04598	e8 00 00 00 00	 call	 ?gObjApplyBuffEffectDuration@@YAEPAUOBJECTSTRUCT@@HEHEHH@Z ; gObjApplyBuffEffectDuration
  0459d	83 c4 1c	 add	 esp, 28			; 0000001cH
$LN244@Attack:

; 2456 : 							}
; 2457 : 							gObjSetPosition(lpTargetObj->m_Index,lpTargetObj->X,lpTargetObj->Y);

  045a0	8b 45 0c	 mov	 eax, DWORD PTR _lpTargetObj$[ebp]
  045a3	0f bf 88 46 01
	00 00		 movsx	 ecx, WORD PTR [eax+326]
  045aa	51		 push	 ecx
  045ab	8b 55 0c	 mov	 edx, DWORD PTR _lpTargetObj$[ebp]
  045ae	0f bf 82 44 01
	00 00		 movsx	 eax, WORD PTR [edx+324]
  045b5	50		 push	 eax
  045b6	8b 4d 0c	 mov	 ecx, DWORD PTR _lpTargetObj$[ebp]
  045b9	8b 11		 mov	 edx, DWORD PTR [ecx]
  045bb	52		 push	 edx
  045bc	e8 00 00 00 00	 call	 ?gObjSetPosition@@YAXHHH@Z ; gObjSetPosition
  045c1	83 c4 0c	 add	 esp, 12			; 0000000cH
$LN245@Attack:

; 2458 : 						}
; 2459 : 					}
; 2460 : 				}

  045c4	e9 a0 00 00 00	 jmp	 $LN239@Attack
$LN248@Attack:

; 2461 : 				else if( MagicDamageC.GetSkillAttr(skill) == R_LIGHTNING )

  045c9	8b 45 d8	 mov	 eax, DWORD PTR _skill$[ebp]
  045cc	50		 push	 eax
  045cd	b9 00 00 00 00	 mov	 ecx, OFFSET ?MagicDamageC@@3VCMagicDamage@@A ; MagicDamageC
  045d2	e8 00 00 00 00	 call	 ?GetSkillAttr@CMagicDamage@@QAEHH@Z ; CMagicDamage::GetSkillAttr
  045d7	83 f8 02	 cmp	 eax, 2
  045da	0f 85 89 00 00
	00		 jne	 $LN239@Attack

; 2462 : 				{
; 2463 : 					if( lpObj->m_MPSkillOpt.MpsLightTomeStrength > 0.0f )

  045e0	8b 45 08	 mov	 eax, DWORD PTR _lpObj$[ebp]
  045e3	d9 80 d8 26 00
	00		 fld	 DWORD PTR [eax+9944]
  045e9	dc 1d 00 00 00
	00		 fcomp	 QWORD PTR __real@0000000000000000
  045ef	df e0		 fnstsw	 ax
  045f1	f6 c4 41	 test	 ah, 65			; 00000041H
  045f4	75 14		 jne	 SHORT $LN241@Attack

; 2464 : 					{
; 2465 : 						AttackDamage += lpObj->m_MPSkillOpt.MpsLightTomeStrength;

  045f6	db 45 1c	 fild	 DWORD PTR _AttackDamage$[ebp]
  045f9	8b 45 08	 mov	 eax, DWORD PTR _lpObj$[ebp]
  045fc	d8 80 d8 26 00
	00		 fadd	 DWORD PTR [eax+9944]
  04602	e8 00 00 00 00	 call	 __ftol2_sse
  04607	89 45 1c	 mov	 DWORD PTR _AttackDamage$[ebp], eax
$LN241@Attack:

; 2466 : 					}
; 2467 : 
; 2468 : 					if( lpObj->m_MPSkillOpt.MpsLightTomeMastery > 0.0f )

  0460a	8b 45 08	 mov	 eax, DWORD PTR _lpObj$[ebp]
  0460d	d9 80 e4 26 00
	00		 fld	 DWORD PTR [eax+9956]
  04613	dc 1d 00 00 00
	00		 fcomp	 QWORD PTR __real@0000000000000000
  04619	df e0		 fnstsw	 ax
  0461b	f6 c4 41	 test	 ah, 65			; 00000041H
  0461e	75 49		 jne	 SHORT $LN239@Attack

; 2469 : 					{
; 2470 : 						float fPercent = rand()%100;

  04620	e8 00 00 00 00	 call	 _rand
  04625	99		 cdq
  04626	b9 64 00 00 00	 mov	 ecx, 100		; 00000064H
  0462b	f7 f9		 idiv	 ecx
  0462d	89 95 c8 fc ff
	ff		 mov	 DWORD PTR tv7089[ebp], edx
  04633	db 85 c8 fc ff
	ff		 fild	 DWORD PTR tv7089[ebp]
  04639	d9 9d a4 fd ff
	ff		 fstp	 DWORD PTR _fPercent$240583[ebp]

; 2471 : 
; 2472 : 						if( fPercent < lpObj->m_MPSkillOpt.MpsLightTomeMastery )

  0463f	d9 85 a4 fd ff
	ff		 fld	 DWORD PTR _fPercent$240583[ebp]
  04645	8b 45 08	 mov	 eax, DWORD PTR _lpObj$[ebp]
  04648	d9 80 e4 26 00
	00		 fld	 DWORD PTR [eax+9956]
  0464e	de d9		 fcompp
  04650	df e0		 fnstsw	 ax
  04652	f6 c4 41	 test	 ah, 65			; 00000041H
  04655	75 12		 jne	 SHORT $LN239@Attack

; 2473 : 						{
; 2474 : 							gObjBackSpring2(lpTargetObj,lpObj,2);

  04657	6a 02		 push	 2
  04659	8b 45 08	 mov	 eax, DWORD PTR _lpObj$[ebp]
  0465c	50		 push	 eax
  0465d	8b 4d 0c	 mov	 ecx, DWORD PTR _lpTargetObj$[ebp]
  04660	51		 push	 ecx
  04661	e8 00 00 00 00	 call	 ?gObjBackSpring2@@YAHPAUOBJECTSTRUCT@@0H@Z ; gObjBackSpring2
  04666	83 c4 0c	 add	 esp, 12			; 0000000cH
$LN239@Attack:

; 2475 : 						}
; 2476 : 					}
; 2477 : 				}
; 2478 : 			}
; 2479 : 
; 2480 : 			if ( skill == 0 )

  04669	83 7d d8 00	 cmp	 DWORD PTR _skill$[ebp], 0
  0466d	75 2c		 jne	 SHORT $LN237@Attack

; 2481 : 			{
; 2482 : 				if ( lpObj->pInventory[8].m_Type == ITEMGET(13, 3) )

  0466f	8b 45 08	 mov	 eax, DWORD PTR _lpObj$[ebp]
  04672	8b 88 24 0e 00
	00		 mov	 ecx, DWORD PTR [eax+3620]
  04678	0f bf 91 a6 06
	00 00		 movsx	 edx, WORD PTR [ecx+1702]
  0467f	81 fa 03 1a 00
	00		 cmp	 edx, 6659		; 00001a03H
  04685	75 14		 jne	 SHORT $LN237@Attack

; 2483 : 				{
; 2484 : 					AttackDamage = AttackDamage * 130 / 100;

  04687	8b 45 1c	 mov	 eax, DWORD PTR _AttackDamage$[ebp]
  0468a	69 c0 82 00 00
	00		 imul	 eax, 130		; 00000082H
  04690	99		 cdq
  04691	b9 64 00 00 00	 mov	 ecx, 100		; 00000064H
  04696	f7 f9		 idiv	 ecx
  04698	89 45 1c	 mov	 DWORD PTR _AttackDamage$[ebp], eax
$LN237@Attack:

; 2485 : 				}
; 2486 : 			}
; 2487 : 
; 2488 : 			if(ExConfig.Character.SoulBarrierAttackManaDown)

  0469b	0f b6 05 64 01
	00 00		 movzx	 eax, BYTE PTR ?ExConfig@@3VcExConfigs@@A+356
  046a2	85 c0		 test	 eax, eax
  046a4	0f 84 13 01 00
	00		 je	 $LN232@Attack

; 2489 : 			{
; 2490 : 				if(gObjSearchActiveEffect(lpTargetObj, AT_WIZARD_DEFENSE) == 1 && AttackDamage > 0)

  046aa	6a 04		 push	 4
  046ac	8b 45 0c	 mov	 eax, DWORD PTR _lpTargetObj$[ebp]
  046af	50		 push	 eax
  046b0	e8 00 00 00 00	 call	 ?gObjSearchActiveEffect@@YAEPAUOBJECTSTRUCT@@H@Z ; gObjSearchActiveEffect
  046b5	83 c4 08	 add	 esp, 8
  046b8	0f b6 c8	 movzx	 ecx, al
  046bb	83 f9 01	 cmp	 ecx, 1
  046be	0f 85 f9 00 00
	00		 jne	 $LN232@Attack
  046c4	83 7d 1c 00	 cmp	 DWORD PTR _AttackDamage$[ebp], 0
  046c8	0f 8e ef 00 00
	00		 jle	 $LN232@Attack

; 2491 : 				{
; 2492 : 					int iWizardSkillDefense = 0; //1f4

  046ce	c7 85 a0 fd ff
	ff 00 00 00 00	 mov	 DWORD PTR _iWizardSkillDefense$240589[ebp], 0

; 2493 : 					int iWizardSkillTime = 0; //1f8

  046d8	c7 85 9c fd ff
	ff 00 00 00 00	 mov	 DWORD PTR _iWizardSkillTime$240590[ebp], 0

; 2494 : 
; 2495 : 					gObjUpdateAppliedBuffEffect(lpTargetObj, AT_WIZARD_DEFENSE, &iWizardSkillDefense, &iWizardSkillTime);

  046e2	8d 85 9c fd ff
	ff		 lea	 eax, DWORD PTR _iWizardSkillTime$240590[ebp]
  046e8	50		 push	 eax
  046e9	8d 8d a0 fd ff
	ff		 lea	 ecx, DWORD PTR _iWizardSkillDefense$240589[ebp]
  046ef	51		 push	 ecx
  046f0	6a 04		 push	 4
  046f2	8b 55 0c	 mov	 edx, DWORD PTR _lpTargetObj$[ebp]
  046f5	52		 push	 edx
  046f6	e8 00 00 00 00	 call	 ?gObjUpdateAppliedBuffEffect@@YAEPAUOBJECTSTRUCT@@HPAH1@Z ; gObjUpdateAppliedBuffEffect
  046fb	83 c4 10	 add	 esp, 16			; 00000010H

; 2496 : 
; 2497 : 					int replacemana = 0;

  046fe	c7 85 98 fd ff
	ff 00 00 00 00	 mov	 DWORD PTR _replacemana$240591[ebp], 0

; 2498 : 
; 2499 : 					if(iWizardSkillTime > 0)

  04708	83 bd 9c fd ff
	ff 00		 cmp	 DWORD PTR _iWizardSkillTime$240590[ebp], 0
  0470f	7e 22		 jle	 SHORT $LN234@Attack

; 2500 : 					{
; 2501 : 						replacemana = lpTargetObj->Mana * iWizardSkillTime / 1000;

  04711	db 85 9c fd ff
	ff		 fild	 DWORD PTR _iWizardSkillTime$240590[ebp]
  04717	8b 45 0c	 mov	 eax, DWORD PTR _lpTargetObj$[ebp]
  0471a	d8 88 10 01 00
	00		 fmul	 DWORD PTR [eax+272]
  04720	dc 35 00 00 00
	00		 fdiv	 QWORD PTR __real@408f400000000000
  04726	e8 00 00 00 00	 call	 __ftol2_sse
  0472b	89 85 98 fd ff
	ff		 mov	 DWORD PTR _replacemana$240591[ebp], eax

; 2502 : 					}
; 2503 : 					else

  04731	eb 1c		 jmp	 SHORT $LN233@Attack
$LN234@Attack:

; 2504 : 					{
; 2505 : 						replacemana = lpTargetObj->Mana * 2 / 100;

  04733	8b 45 0c	 mov	 eax, DWORD PTR _lpTargetObj$[ebp]
  04736	d9 80 10 01 00
	00		 fld	 DWORD PTR [eax+272]
  0473c	dc c0		 fadd	 ST(0), ST(0)
  0473e	dc 35 00 00 00
	00		 fdiv	 QWORD PTR __real@4059000000000000
  04744	e8 00 00 00 00	 call	 __ftol2_sse
  04749	89 85 98 fd ff
	ff		 mov	 DWORD PTR _replacemana$240591[ebp], eax
$LN233@Attack:

; 2506 : 					}
; 2507 : 
; 2508 : 					if ( replacemana < lpTargetObj->Mana )

  0474f	db 85 98 fd ff
	ff		 fild	 DWORD PTR _replacemana$240591[ebp]
  04755	8b 45 0c	 mov	 eax, DWORD PTR _lpTargetObj$[ebp]
  04758	d9 80 10 01 00
	00		 fld	 DWORD PTR [eax+272]
  0475e	de d9		 fcompp
  04760	df e0		 fnstsw	 ax
  04762	f6 c4 41	 test	 ah, 65			; 00000041H
  04765	75 56		 jne	 SHORT $LN232@Attack

; 2509 : 					{
; 2510 : 						lpTargetObj->Mana -= replacemana;

  04767	db 85 98 fd ff
	ff		 fild	 DWORD PTR _replacemana$240591[ebp]
  0476d	8b 45 0c	 mov	 eax, DWORD PTR _lpTargetObj$[ebp]
  04770	d8 a8 10 01 00
	00		 fsubr	 DWORD PTR [eax+272]
  04776	8b 4d 0c	 mov	 ecx, DWORD PTR _lpTargetObj$[ebp]
  04779	d9 99 10 01 00
	00		 fstp	 DWORD PTR [ecx+272]

; 2511 : 
; 2512 : 						int decattackdamage = 0; //200

  0477f	c7 85 94 fd ff
	ff 00 00 00 00	 mov	 DWORD PTR _decattackdamage$240595[ebp], 0

; 2513 : 
; 2514 : 						if(iWizardSkillDefense > 0)

  04789	83 bd a0 fd ff
	ff 00		 cmp	 DWORD PTR _iWizardSkillDefense$240589[ebp], 0
  04790	7e 18		 jle	 SHORT $LN231@Attack

; 2515 : 						{
; 2516 : 							decattackdamage = AttackDamage * iWizardSkillDefense / 100;

  04792	8b 45 1c	 mov	 eax, DWORD PTR _AttackDamage$[ebp]
  04795	0f af 85 a0 fd
	ff ff		 imul	 eax, DWORD PTR _iWizardSkillDefense$240589[ebp]
  0479c	99		 cdq
  0479d	b9 64 00 00 00	 mov	 ecx, 100		; 00000064H
  047a2	f7 f9		 idiv	 ecx
  047a4	89 85 94 fd ff
	ff		 mov	 DWORD PTR _decattackdamage$240595[ebp], eax
$LN231@Attack:

; 2517 : 						}
; 2518 : 
; 2519 : 						AttackDamage -= decattackdamage;

  047aa	8b 45 1c	 mov	 eax, DWORD PTR _AttackDamage$[ebp]
  047ad	2b 85 94 fd ff
	ff		 sub	 eax, DWORD PTR _decattackdamage$240595[ebp]
  047b3	89 45 1c	 mov	 DWORD PTR _AttackDamage$[ebp], eax

; 2520 : 						ManaChange = TRUE;

  047b6	c7 45 e4 01 00
	00 00		 mov	 DWORD PTR _ManaChange$[ebp], 1
$LN232@Attack:

; 2521 : 					}
; 2522 : 				}
; 2523 : 			}
; 2524 : 
; 2525 : 			AttackDamage += lpObj->SetOpAddDamage;

  047bd	8b 45 08	 mov	 eax, DWORD PTR _lpObj$[ebp]
  047c0	0f bf 88 30 11
	00 00		 movsx	 ecx, WORD PTR [eax+4400]
  047c7	03 4d 1c	 add	 ecx, DWORD PTR _AttackDamage$[ebp]
  047ca	89 4d 1c	 mov	 DWORD PTR _AttackDamage$[ebp], ecx

; 2526 : 
; 2527 : 			if ( lpObj->Type == OBJ_USER && lpTargetObj->Type == OBJ_USER )

  047cd	8b 45 08	 mov	 eax, DWORD PTR _lpObj$[ebp]
  047d0	0f b7 48 68	 movzx	 ecx, WORD PTR [eax+104]
  047d4	83 f9 01	 cmp	 ecx, 1
  047d7	75 1c		 jne	 SHORT $LN230@Attack
  047d9	8b 45 0c	 mov	 eax, DWORD PTR _lpTargetObj$[ebp]
  047dc	0f b7 48 68	 movzx	 ecx, WORD PTR [eax+104]
  047e0	83 f9 01	 cmp	 ecx, 1
  047e3	75 10		 jne	 SHORT $LN230@Attack

; 2528 : 			{
; 2529 : 				AttackDamage += lpObj->m_ItemOptionExFor380.OpAddDamage;

  047e5	8b 45 08	 mov	 eax, DWORD PTR _lpObj$[ebp]
  047e8	0f bf 88 00 20
	00 00		 movsx	 ecx, WORD PTR [eax+8192]
  047ef	03 4d 1c	 add	 ecx, DWORD PTR _AttackDamage$[ebp]
  047f2	89 4d 1c	 mov	 DWORD PTR _AttackDamage$[ebp], ecx
$LN230@Attack:

; 2530 : 			}
; 2531 : 
; 2532 : 			if ( lpObj->Type == OBJ_USER && lpTargetObj->Type == OBJ_USER )

  047f5	8b 45 08	 mov	 eax, DWORD PTR _lpObj$[ebp]
  047f8	0f b7 48 68	 movzx	 ecx, WORD PTR [eax+104]
  047fc	83 f9 01	 cmp	 ecx, 1
  047ff	0f 85 e7 00 00
	00		 jne	 $LN228@Attack
  04805	8b 45 0c	 mov	 eax, DWORD PTR _lpTargetObj$[ebp]
  04808	0f b7 48 68	 movzx	 ecx, WORD PTR [eax+104]
  0480c	83 f9 01	 cmp	 ecx, 1
  0480f	0f 85 d7 00 00
	00		 jne	 $LN228@Attack

; 2533 : 			{
; 2534 : 				if ( CC_MAP_RANGE(lpObj->MapNumber ) && CC_MAP_RANGE(lpTargetObj->MapNumber) )

  04815	8b 45 08	 mov	 eax, DWORD PTR _lpObj$[ebp]
  04818	0f b6 88 49 01
	00 00		 movzx	 ecx, BYTE PTR [eax+329]
  0481f	83 f9 35	 cmp	 ecx, 53			; 00000035H
  04822	75 0c		 jne	 SHORT $LN769@Attack
  04824	c7 85 c8 fc ff
	ff 01 00 00 00	 mov	 DWORD PTR tv3257[ebp], 1
  0482e	eb 3f		 jmp	 SHORT $LN770@Attack
$LN769@Attack:
  04830	8b 55 08	 mov	 edx, DWORD PTR _lpObj$[ebp]
  04833	0f b6 82 49 01
	00 00		 movzx	 eax, BYTE PTR [edx+329]
  0483a	83 f8 12	 cmp	 eax, 18			; 00000012H
  0483d	7d 0c		 jge	 SHORT $LN767@Attack
  0483f	c7 85 c4 fc ff
	ff 00 00 00 00	 mov	 DWORD PTR tv3256[ebp], 0
  04849	eb 18		 jmp	 SHORT $LN768@Attack
$LN767@Attack:
  0484b	8b 4d 08	 mov	 ecx, DWORD PTR _lpObj$[ebp]
  0484e	0f b6 91 49 01
	00 00		 movzx	 edx, BYTE PTR [ecx+329]
  04855	33 c0		 xor	 eax, eax
  04857	83 fa 17	 cmp	 edx, 23			; 00000017H
  0485a	0f 9e c0	 setle	 al
  0485d	89 85 c4 fc ff
	ff		 mov	 DWORD PTR tv3256[ebp], eax
$LN768@Attack:
  04863	8b 8d c4 fc ff
	ff		 mov	 ecx, DWORD PTR tv3256[ebp]
  04869	89 8d c8 fc ff
	ff		 mov	 DWORD PTR tv3257[ebp], ecx
$LN770@Attack:
  0486f	83 bd c8 fc ff
	ff 00		 cmp	 DWORD PTR tv3257[ebp], 0
  04876	74 74		 je	 SHORT $LN228@Attack
  04878	8b 45 0c	 mov	 eax, DWORD PTR _lpTargetObj$[ebp]
  0487b	0f b6 88 49 01
	00 00		 movzx	 ecx, BYTE PTR [eax+329]
  04882	83 f9 35	 cmp	 ecx, 53			; 00000035H
  04885	75 0c		 jne	 SHORT $LN773@Attack
  04887	c7 85 c8 fc ff
	ff 01 00 00 00	 mov	 DWORD PTR tv3270[ebp], 1
  04891	eb 3f		 jmp	 SHORT $LN774@Attack
$LN773@Attack:
  04893	8b 55 0c	 mov	 edx, DWORD PTR _lpTargetObj$[ebp]
  04896	0f b6 82 49 01
	00 00		 movzx	 eax, BYTE PTR [edx+329]
  0489d	83 f8 12	 cmp	 eax, 18			; 00000012H
  048a0	7d 0c		 jge	 SHORT $LN771@Attack
  048a2	c7 85 c4 fc ff
	ff 00 00 00 00	 mov	 DWORD PTR tv3269[ebp], 0
  048ac	eb 18		 jmp	 SHORT $LN772@Attack
$LN771@Attack:
  048ae	8b 4d 0c	 mov	 ecx, DWORD PTR _lpTargetObj$[ebp]
  048b1	0f b6 91 49 01
	00 00		 movzx	 edx, BYTE PTR [ecx+329]
  048b8	33 c0		 xor	 eax, eax
  048ba	83 fa 17	 cmp	 edx, 23			; 00000017H
  048bd	0f 9e c0	 setle	 al
  048c0	89 85 c4 fc ff
	ff		 mov	 DWORD PTR tv3269[ebp], eax
$LN772@Attack:
  048c6	8b 8d c4 fc ff
	ff		 mov	 ecx, DWORD PTR tv3269[ebp]
  048cc	89 8d c8 fc ff
	ff		 mov	 DWORD PTR tv3270[ebp], ecx
$LN774@Attack:
  048d2	83 bd c8 fc ff
	ff 00		 cmp	 DWORD PTR tv3270[ebp], 0
  048d9	74 11		 je	 SHORT $LN228@Attack

; 2535 : 				{
; 2536 : 					AttackDamage = AttackDamage * 50 / 100;

  048db	8b 45 1c	 mov	 eax, DWORD PTR _AttackDamage$[ebp]
  048de	6b c0 32	 imul	 eax, 50			; 00000032H
  048e1	99		 cdq
  048e2	b9 64 00 00 00	 mov	 ecx, 100		; 00000064H
  048e7	f7 f9		 idiv	 ecx
  048e9	89 45 1c	 mov	 DWORD PTR _AttackDamage$[ebp], eax
$LN228@Attack:

; 2537 : 				}
; 2538 : 			}
; 2539 : #ifdef _BALANS_SYSTEM_
; 2540 : 			if(byReflect == 0)

  048ec	0f b6 45 28	 movzx	 eax, BYTE PTR _byReflect$[ebp]
  048f0	85 c0		 test	 eax, eax
  048f2	75 16		 jne	 SHORT $LN227@Attack

; 2541 : 			{
; 2542 : 				gBalanceSystem.Main(lpObj,lpTargetObj,AttackDamage);

  048f4	8d 45 1c	 lea	 eax, DWORD PTR _AttackDamage$[ebp]
  048f7	50		 push	 eax
  048f8	8b 4d 0c	 mov	 ecx, DWORD PTR _lpTargetObj$[ebp]
  048fb	51		 push	 ecx
  048fc	8b 55 08	 mov	 edx, DWORD PTR _lpObj$[ebp]
  048ff	52		 push	 edx
  04900	b9 00 00 00 00	 mov	 ecx, OFFSET ?gBalanceSystem@@3VcBalanceSystem@@A ; gBalanceSystem
  04905	e8 00 00 00 00	 call	 ?Main@cBalanceSystem@@QAEXPAUOBJECTSTRUCT@@0AAH@Z ; cBalanceSystem::Main
$LN227@Attack:

; 2543 : 			}
; 2544 : 			else
; 2545 : 			{
; 2546 : 				//gBalanceSystem.Refflect(lpObj,AttackDamage);
; 2547 : 			}
; 2548 : #endif
; 2549 : #if(CUSTOM_CW_ALTERELFDMG)
; 2550 : 			if(byReflect == 0)

  0490a	0f b6 45 28	 movzx	 eax, BYTE PTR _byReflect$[ebp]
  0490e	85 c0		 test	 eax, eax
  04910	0f 85 d2 00 00
	00		 jne	 $LN217@Attack

; 2551 : 			{
; 2552 : 				if(g_ExLicense.CheckUser(eExUB::Gredy) || g_ExLicense.CheckUser(eExUB::GredyLocal) || g_ExLicense.CheckUser(eExUB::Gredy2))

  04916	6a 20		 push	 32			; 00000020H
  04918	b9 00 00 00 00	 mov	 ecx, OFFSET ?g_ExLicense@@3VCExLicense@@A ; g_ExLicense
  0491d	e8 00 00 00 00	 call	 ?CheckUser@CExLicense@@QAE_NH@Z ; CExLicense::CheckUser
  04922	0f b6 c0	 movzx	 eax, al
  04925	85 c0		 test	 eax, eax
  04927	75 2a		 jne	 SHORT $LN223@Attack
  04929	6a 21		 push	 33			; 00000021H
  0492b	b9 00 00 00 00	 mov	 ecx, OFFSET ?g_ExLicense@@3VCExLicense@@A ; g_ExLicense
  04930	e8 00 00 00 00	 call	 ?CheckUser@CExLicense@@QAE_NH@Z ; CExLicense::CheckUser
  04935	0f b6 c0	 movzx	 eax, al
  04938	85 c0		 test	 eax, eax
  0493a	75 17		 jne	 SHORT $LN223@Attack
  0493c	6a 22		 push	 34			; 00000022H
  0493e	b9 00 00 00 00	 mov	 ecx, OFFSET ?g_ExLicense@@3VCExLicense@@A ; g_ExLicense
  04943	e8 00 00 00 00	 call	 ?CheckUser@CExLicense@@QAE_NH@Z ; CExLicense::CheckUser
  04948	0f b6 c0	 movzx	 eax, al
  0494b	85 c0		 test	 eax, eax
  0494d	0f 84 95 00 00
	00		 je	 $LN217@Attack
$LN223@Attack:

; 2553 : 				{
; 2554 : 					if(g_Crywolf.GetCrywolfState() == 4 || g_Crywolf.GetCrywolfState() == 3)

  04953	b9 00 00 00 00	 mov	 ecx, OFFSET ?g_Crywolf@@3VCCrywolf@@A ; g_Crywolf
  04958	e8 00 00 00 00	 call	 ?GetCrywolfState@CCrywolf@@QAEHXZ ; CCrywolf::GetCrywolfState
  0495d	83 f8 04	 cmp	 eax, 4
  04960	74 0f		 je	 SHORT $LN221@Attack
  04962	b9 00 00 00 00	 mov	 ecx, OFFSET ?g_Crywolf@@3VCCrywolf@@A ; g_Crywolf
  04967	e8 00 00 00 00	 call	 ?GetCrywolfState@CCrywolf@@QAEHXZ ; CCrywolf::GetCrywolfState
  0496c	83 f8 03	 cmp	 eax, 3
  0496f	75 77		 jne	 SHORT $LN217@Attack
$LN221@Attack:

; 2555 : 					{
; 2556 : 						if(lpObj->Type == OBJ_USER)

  04971	8b 45 08	 mov	 eax, DWORD PTR _lpObj$[ebp]
  04974	0f b7 48 68	 movzx	 ecx, WORD PTR [eax+104]
  04978	83 f9 01	 cmp	 ecx, 1
  0497b	75 6b		 jne	 SHORT $LN217@Attack

; 2557 : 						{
; 2558 : 							for(int i=205;i<=209;i++)

  0497d	c7 85 90 fd ff
	ff cd 00 00 00	 mov	 DWORD PTR _i$240608[ebp], 205 ; 000000cdH
  04987	eb 0f		 jmp	 SHORT $LN219@Attack
$LN218@Attack:
  04989	8b 85 90 fd ff
	ff		 mov	 eax, DWORD PTR _i$240608[ebp]
  0498f	83 c0 01	 add	 eax, 1
  04992	89 85 90 fd ff
	ff		 mov	 DWORD PTR _i$240608[ebp], eax
$LN219@Attack:
  04998	81 bd 90 fd ff
	ff d1 00 00 00	 cmp	 DWORD PTR _i$240608[ebp], 209 ; 000000d1H
  049a2	7f 44		 jg	 SHORT $LN217@Attack

; 2559 : 							{
; 2560 : 								int iAltarIndex = g_CrywolfNPC_Altar.GetAltarUserIndex(i);

  049a4	8b 85 90 fd ff
	ff		 mov	 eax, DWORD PTR _i$240608[ebp]
  049aa	50		 push	 eax
  049ab	b9 00 00 00 00	 mov	 ecx, OFFSET ?g_CrywolfNPC_Altar@@3VCCrywolfAltar@@A ; g_CrywolfNPC_Altar
  049b0	e8 00 00 00 00	 call	 ?GetAltarUserIndex@CCrywolfAltar@@QAEHH@Z ; CCrywolfAltar::GetAltarUserIndex
  049b5	89 85 8c fd ff
	ff		 mov	 DWORD PTR _iAltarIndex$240612[ebp], eax

; 2561 : 				
; 2562 : 								if(iAltarIndex != -1)

  049bb	83 bd 8c fd ff
	ff ff		 cmp	 DWORD PTR _iAltarIndex$240612[ebp], -1
  049c2	74 22		 je	 SHORT $LN215@Attack

; 2563 : 								{
; 2564 : 									if(iAltarIndex == lpObj->m_Index)

  049c4	8b 45 08	 mov	 eax, DWORD PTR _lpObj$[ebp]
  049c7	8b 8d 8c fd ff
	ff		 mov	 ecx, DWORD PTR _iAltarIndex$240612[ebp]
  049cd	3b 08		 cmp	 ecx, DWORD PTR [eax]
  049cf	75 15		 jne	 SHORT $LN215@Attack

; 2565 : 									{
; 2566 : 										AttackDamage = ( AttackDamage * ExConfig.Character.CWElfAlterDMGPercent ) / 100; 

  049d1	8b 45 1c	 mov	 eax, DWORD PTR _AttackDamage$[ebp]
  049d4	0f af 05 5c 01
	00 00		 imul	 eax, DWORD PTR ?ExConfig@@3VcExConfigs@@A+348
  049db	99		 cdq
  049dc	b9 64 00 00 00	 mov	 ecx, 100		; 00000064H
  049e1	f7 f9		 idiv	 ecx
  049e3	89 45 1c	 mov	 DWORD PTR _AttackDamage$[ebp], eax
$LN215@Attack:

; 2567 : 									}
; 2568 : 								}
; 2569 : 							}

  049e6	eb a1		 jmp	 SHORT $LN218@Attack
$LN217@Attack:

; 2570 : 						}
; 2571 : 					}
; 2572 : 				}
; 2573 : 			}
; 2574 : #endif
; 2575 : //#if(GS_CASTLE==1)
; 2576 : 			if ( g_CastleSiege.GetCastleState() == CASTLESIEGE_STATE_STARTSIEGE)

  049e8	b9 00 00 00 00	 mov	 ecx, OFFSET ?g_CastleSiege@@3VCCastleSiege@@A ; g_CastleSiege
  049ed	e8 00 00 00 00	 call	 ?GetCastleState@CCastleSiege@@QAEHXZ ; CCastleSiege::GetCastleState
  049f2	83 f8 07	 cmp	 eax, 7
  049f5	0f 85 f5 00 00
	00		 jne	 $LN207@Attack

; 2577 : 			{
; 2578 : 				if ( lpObj->Type == OBJ_USER && lpTargetObj->Type == OBJ_USER )

  049fb	8b 45 08	 mov	 eax, DWORD PTR _lpObj$[ebp]
  049fe	0f b7 48 68	 movzx	 ecx, WORD PTR [eax+104]
  04a02	83 f9 01	 cmp	 ecx, 1
  04a05	0f 85 e5 00 00
	00		 jne	 $LN207@Attack
  04a0b	8b 45 0c	 mov	 eax, DWORD PTR _lpTargetObj$[ebp]
  04a0e	0f b7 48 68	 movzx	 ecx, WORD PTR [eax+104]
  04a12	83 f9 01	 cmp	 ecx, 1
  04a15	0f 85 d5 00 00
	00		 jne	 $LN207@Attack

; 2579 : 				{
; 2580 : 					if ( lpObj->MapNumber == MAP_INDEX_CASTLESIEGE && lpTargetObj->MapNumber == MAP_INDEX_CASTLESIEGE )

  04a1b	8b 45 08	 mov	 eax, DWORD PTR _lpObj$[ebp]
  04a1e	0f b6 88 49 01
	00 00		 movzx	 ecx, BYTE PTR [eax+329]
  04a25	83 f9 1e	 cmp	 ecx, 30			; 0000001eH
  04a28	0f 85 c2 00 00
	00		 jne	 $LN207@Attack
  04a2e	8b 45 0c	 mov	 eax, DWORD PTR _lpTargetObj$[ebp]
  04a31	0f b6 88 49 01
	00 00		 movzx	 ecx, BYTE PTR [eax+329]
  04a38	83 f9 1e	 cmp	 ecx, 30			; 0000001eH
  04a3b	0f 85 af 00 00
	00		 jne	 $LN207@Attack

; 2581 : 					{
; 2582 : 						if( lpObj->m_btCsJoinSide == lpTargetObj->m_btCsJoinSide)

  04a41	8b 45 08	 mov	 eax, DWORD PTR _lpObj$[ebp]
  04a44	0f b6 88 02 1c
	00 00		 movzx	 ecx, BYTE PTR [eax+7170]
  04a4b	8b 55 0c	 mov	 edx, DWORD PTR _lpTargetObj$[ebp]
  04a4e	0f b6 82 02 1c
	00 00		 movzx	 eax, BYTE PTR [edx+7170]
  04a55	3b c8		 cmp	 ecx, eax
  04a57	75 17		 jne	 SHORT $LN211@Attack

; 2583 : 						{
; 2584 : 							//int AttackByNPC = GetPrivateProfileInt("CastleSiege","AttackByNPC",20,"..\\Data\\ExData\\Skills.ini");
; 2585 : 							AttackDamage =  ( AttackDamage * ExConfig.Character.CastleAttackByPlayer ) / 100;		//AttackDamage = AttackDamage * 20 / 100;	CastleAttackByPlayer

  04a59	8b 45 1c	 mov	 eax, DWORD PTR _AttackDamage$[ebp]
  04a5c	0f af 05 44 01
	00 00		 imul	 eax, DWORD PTR ?ExConfig@@3VcExConfigs@@A+324
  04a63	99		 cdq
  04a64	b9 64 00 00 00	 mov	 ecx, 100		; 00000064H
  04a69	f7 f9		 idiv	 ecx
  04a6b	89 45 1c	 mov	 DWORD PTR _AttackDamage$[ebp], eax

; 2586 : 						}
; 2587 : 						else

  04a6e	eb 15		 jmp	 SHORT $LN210@Attack
$LN211@Attack:

; 2588 : 						{
; 2589 : 							//int AttackByPlayer = GetPrivateProfileInt("CastleSiege","AttackByPlayer",40,"..\\Data\\ExData\\Skills.ini");
; 2590 : 							AttackDamage = ( AttackDamage * ExConfig.Character.CastleAttackByNPC ) / 100;		//AttackDamage = AttackDamage * 40 / 100;

  04a70	8b 45 1c	 mov	 eax, DWORD PTR _AttackDamage$[ebp]
  04a73	0f af 05 40 01
	00 00		 imul	 eax, DWORD PTR ?ExConfig@@3VcExConfigs@@A+320
  04a7a	99		 cdq
  04a7b	b9 64 00 00 00	 mov	 ecx, 100		; 00000064H
  04a80	f7 f9		 idiv	 ecx
  04a82	89 45 1c	 mov	 DWORD PTR _AttackDamage$[ebp], eax
$LN210@Attack:

; 2591 : 						}
; 2592 : 						// ----
; 2593 : 						if(g_ExLicense.CheckUser(eExUB::Gredy) || g_ExLicense.CheckUser(eExUB::Gredy2) || g_ExLicense.CheckUser(eExUB::GredyLocal))

  04a85	6a 20		 push	 32			; 00000020H
  04a87	b9 00 00 00 00	 mov	 ecx, OFFSET ?g_ExLicense@@3VCExLicense@@A ; g_ExLicense
  04a8c	e8 00 00 00 00	 call	 ?CheckUser@CExLicense@@QAE_NH@Z ; CExLicense::CheckUser
  04a91	0f b6 c0	 movzx	 eax, al
  04a94	85 c0		 test	 eax, eax
  04a96	75 26		 jne	 SHORT $LN208@Attack
  04a98	6a 22		 push	 34			; 00000022H
  04a9a	b9 00 00 00 00	 mov	 ecx, OFFSET ?g_ExLicense@@3VCExLicense@@A ; g_ExLicense
  04a9f	e8 00 00 00 00	 call	 ?CheckUser@CExLicense@@QAE_NH@Z ; CExLicense::CheckUser
  04aa4	0f b6 c0	 movzx	 eax, al
  04aa7	85 c0		 test	 eax, eax
  04aa9	75 13		 jne	 SHORT $LN208@Attack
  04aab	6a 21		 push	 33			; 00000021H
  04aad	b9 00 00 00 00	 mov	 ecx, OFFSET ?g_ExLicense@@3VCExLicense@@A ; g_ExLicense
  04ab2	e8 00 00 00 00	 call	 ?CheckUser@CExLicense@@QAE_NH@Z ; CExLicense::CheckUser
  04ab7	0f b6 c0	 movzx	 eax, al
  04aba	85 c0		 test	 eax, eax
  04abc	74 32		 je	 SHORT $LN207@Attack
$LN208@Attack:

; 2594 : 						{
; 2595 : 							if(g_ExUser.CheckAlliancePlayer(lpObj->m_Index, lpTargetObj->m_Index))

  04abe	8b 45 0c	 mov	 eax, DWORD PTR _lpTargetObj$[ebp]
  04ac1	8b 08		 mov	 ecx, DWORD PTR [eax]
  04ac3	51		 push	 ecx
  04ac4	8b 55 08	 mov	 edx, DWORD PTR _lpObj$[ebp]
  04ac7	8b 02		 mov	 eax, DWORD PTR [edx]
  04ac9	50		 push	 eax
  04aca	b9 00 00 00 00	 mov	 ecx, OFFSET ?g_ExUser@@3VÑExUser@@A ; g_ExUser
  04acf	e8 00 00 00 00	 call	 ?CheckAlliancePlayer@ÑExUser@@QAE_NHH@Z ; ÑExUser::CheckAlliancePlayer
  04ad4	0f b6 c8	 movzx	 ecx, al
  04ad7	85 c9		 test	 ecx, ecx
  04ad9	74 15		 je	 SHORT $LN207@Attack

; 2596 : 							{
; 2597 : 								AttackDamage = ( AttackDamage * ExConfig.Character.CastleDamageByAlliance ) / 100;

  04adb	8b 45 1c	 mov	 eax, DWORD PTR _AttackDamage$[ebp]
  04ade	0f af 05 54 01
	00 00		 imul	 eax, DWORD PTR ?ExConfig@@3VcExConfigs@@A+340
  04ae5	99		 cdq
  04ae6	b9 64 00 00 00	 mov	 ecx, 100		; 00000064H
  04aeb	f7 f9		 idiv	 ecx
  04aed	89 45 1c	 mov	 DWORD PTR _AttackDamage$[ebp], eax
$LN207@Attack:

; 2598 : 							}
; 2599 : 						}
; 2600 : 					}
; 2601 : 				}
; 2602 : 			}
; 2603 : //#endif
; 2604 : 
; 2605 : 			if ( lpObj->Type == OBJ_USER && lpTargetObj->Type == OBJ_MONSTER )

  04af0	8b 45 08	 mov	 eax, DWORD PTR _lpObj$[ebp]
  04af3	0f b7 48 68	 movzx	 ecx, WORD PTR [eax+104]
  04af7	83 f9 01	 cmp	 ecx, 1
  04afa	0f 85 5a 01 00
	00		 jne	 $LN194@Attack
  04b00	8b 45 0c	 mov	 eax, DWORD PTR _lpTargetObj$[ebp]
  04b03	0f b7 48 68	 movzx	 ecx, WORD PTR [eax+104]
  04b07	83 f9 02	 cmp	 ecx, 2
  04b0a	0f 85 4a 01 00
	00		 jne	 $LN194@Attack

; 2606 : 			{
; 2607 : 				if ( lpTargetObj->Class == 283 )

  04b10	8b 45 0c	 mov	 eax, DWORD PTR _lpTargetObj$[ebp]
  04b13	0f b7 88 b8 00
	00 00		 movzx	 ecx, WORD PTR [eax+184]
  04b1a	81 f9 1b 01 00
	00		 cmp	 ecx, 283		; 0000011bH
  04b20	0f 85 8f 00 00
	00		 jne	 $LN201@Attack

; 2608 : 				{
; 2609 : 					if(gObjSearchActiveEffect(lpObj, AT_POTION_OF_BLESS) == 1)

  04b26	6a 0a		 push	 10			; 0000000aH
  04b28	8b 45 08	 mov	 eax, DWORD PTR _lpObj$[ebp]
  04b2b	50		 push	 eax
  04b2c	e8 00 00 00 00	 call	 ?gObjSearchActiveEffect@@YAEPAUOBJECTSTRUCT@@H@Z ; gObjSearchActiveEffect
  04b31	83 c4 08	 add	 esp, 8
  04b34	0f b6 c8	 movzx	 ecx, al
  04b37	83 f9 01	 cmp	 ecx, 1
  04b3a	75 08		 jne	 SHORT $LN204@Attack

; 2610 : 					{
; 2611 : 						AttackDamage = AttackDamage;

  04b3c	8b 45 1c	 mov	 eax, DWORD PTR _AttackDamage$[ebp]
  04b3f	89 45 1c	 mov	 DWORD PTR _AttackDamage$[ebp], eax
  04b42	eb 71		 jmp	 SHORT $LN201@Attack
$LN204@Attack:

; 2612 : 					}
; 2613 : 					else if(gObjSearchActiveEffect(lpObj, AT_POTION_OF_SOUL) == 1)

  04b44	6a 0b		 push	 11			; 0000000bH
  04b46	8b 45 08	 mov	 eax, DWORD PTR _lpObj$[ebp]
  04b49	50		 push	 eax
  04b4a	e8 00 00 00 00	 call	 ?gObjSearchActiveEffect@@YAEPAUOBJECTSTRUCT@@H@Z ; gObjSearchActiveEffect
  04b4f	83 c4 08	 add	 esp, 8
  04b52	0f b6 c8	 movzx	 ecx, al
  04b55	83 f9 01	 cmp	 ecx, 1
  04b58	75 08		 jne	 SHORT $LN202@Attack

; 2614 : 					{
; 2615 : 						AttackDamage = AttackDamage;

  04b5a	8b 45 1c	 mov	 eax, DWORD PTR _AttackDamage$[ebp]
  04b5d	89 45 1c	 mov	 DWORD PTR _AttackDamage$[ebp], eax

; 2616 : 					}
; 2617 : 					else

  04b60	eb 53		 jmp	 SHORT $LN201@Attack
$LN202@Attack:

; 2618 : 					{
; 2619 : 						if ( lpObj->m_iAccumulatedDamage > 100 )

  04b62	8b 45 08	 mov	 eax, DWORD PTR _lpObj$[ebp]
  04b65	83 b8 10 1c 00
	00 64		 cmp	 DWORD PTR [eax+7184], 100 ; 00000064H
  04b6c	7e 21		 jle	 SHORT $LN200@Attack

; 2620 : 						{
; 2621 : 							gObjWeaponDurDownInCastle(lpObj, lpTargetObj, 1);

  04b6e	6a 01		 push	 1
  04b70	8b 45 0c	 mov	 eax, DWORD PTR _lpTargetObj$[ebp]
  04b73	50		 push	 eax
  04b74	8b 4d 08	 mov	 ecx, DWORD PTR _lpObj$[ebp]
  04b77	51		 push	 ecx
  04b78	e8 00 00 00 00	 call	 ?gObjWeaponDurDownInCastle@@YAXPAUOBJECTSTRUCT@@0H@Z ; gObjWeaponDurDownInCastle
  04b7d	83 c4 0c	 add	 esp, 12			; 0000000cH

; 2622 : 							lpObj->m_iAccumulatedDamage = 0;

  04b80	8b 45 08	 mov	 eax, DWORD PTR _lpObj$[ebp]
  04b83	c7 80 10 1c 00
	00 00 00 00 00	 mov	 DWORD PTR [eax+7184], 0

; 2623 : 						}
; 2624 : 						else

  04b8d	eb 15		 jmp	 SHORT $LN199@Attack
$LN200@Attack:

; 2625 : 						{
; 2626 : 							lpObj->m_iAccumulatedDamage += AttackDamage;

  04b8f	8b 45 08	 mov	 eax, DWORD PTR _lpObj$[ebp]
  04b92	8b 88 10 1c 00
	00		 mov	 ecx, DWORD PTR [eax+7184]
  04b98	03 4d 1c	 add	 ecx, DWORD PTR _AttackDamage$[ebp]
  04b9b	8b 55 08	 mov	 edx, DWORD PTR _lpObj$[ebp]
  04b9e	89 8a 10 1c 00
	00		 mov	 DWORD PTR [edx+7184], ecx
$LN199@Attack:

; 2627 : 						}
; 2628 : 
; 2629 : 						AttackDamage = AttackDamage * 5 / 100;

  04ba4	8b 45 1c	 mov	 eax, DWORD PTR _AttackDamage$[ebp]
  04ba7	6b c0 05	 imul	 eax, 5
  04baa	99		 cdq
  04bab	b9 64 00 00 00	 mov	 ecx, 100		; 00000064H
  04bb0	f7 f9		 idiv	 ecx
  04bb2	89 45 1c	 mov	 DWORD PTR _AttackDamage$[ebp], eax
$LN201@Attack:

; 2630 : 					}
; 2631 : 				}
; 2632 : 
; 2633 : 				if ( lpTargetObj->Class == 277 )

  04bb5	8b 45 0c	 mov	 eax, DWORD PTR _lpTargetObj$[ebp]
  04bb8	0f b7 88 b8 00
	00 00		 movzx	 ecx, WORD PTR [eax+184]
  04bbf	81 f9 15 01 00
	00		 cmp	 ecx, 277		; 00000115H
  04bc5	0f 85 8f 00 00
	00		 jne	 $LN194@Attack

; 2634 : 				{
; 2635 : 					if(gObjSearchActiveEffect(lpObj, AT_POTION_OF_BLESS) == 1)

  04bcb	6a 0a		 push	 10			; 0000000aH
  04bcd	8b 45 08	 mov	 eax, DWORD PTR _lpObj$[ebp]
  04bd0	50		 push	 eax
  04bd1	e8 00 00 00 00	 call	 ?gObjSearchActiveEffect@@YAEPAUOBJECTSTRUCT@@H@Z ; gObjSearchActiveEffect
  04bd6	83 c4 08	 add	 esp, 8
  04bd9	0f b6 c8	 movzx	 ecx, al
  04bdc	83 f9 01	 cmp	 ecx, 1
  04bdf	75 08		 jne	 SHORT $LN197@Attack

; 2636 : 					{
; 2637 : 						AttackDamage = AttackDamage;

  04be1	8b 45 1c	 mov	 eax, DWORD PTR _AttackDamage$[ebp]
  04be4	89 45 1c	 mov	 DWORD PTR _AttackDamage$[ebp], eax
  04be7	eb 71		 jmp	 SHORT $LN194@Attack
$LN197@Attack:

; 2638 : 					}
; 2639 : 					else if(gObjSearchActiveEffect(lpObj, AT_POTION_OF_SOUL) == 1)

  04be9	6a 0b		 push	 11			; 0000000bH
  04beb	8b 45 08	 mov	 eax, DWORD PTR _lpObj$[ebp]
  04bee	50		 push	 eax
  04bef	e8 00 00 00 00	 call	 ?gObjSearchActiveEffect@@YAEPAUOBJECTSTRUCT@@H@Z ; gObjSearchActiveEffect
  04bf4	83 c4 08	 add	 esp, 8
  04bf7	0f b6 c8	 movzx	 ecx, al
  04bfa	83 f9 01	 cmp	 ecx, 1
  04bfd	75 08		 jne	 SHORT $LN195@Attack

; 2640 : 					{
; 2641 : 						AttackDamage = AttackDamage;

  04bff	8b 45 1c	 mov	 eax, DWORD PTR _AttackDamage$[ebp]
  04c02	89 45 1c	 mov	 DWORD PTR _AttackDamage$[ebp], eax

; 2642 : 					}
; 2643 : 					else

  04c05	eb 53		 jmp	 SHORT $LN194@Attack
$LN195@Attack:

; 2644 : 					{					
; 2645 : 						if ( lpObj->m_iAccumulatedDamage > 100 )

  04c07	8b 45 08	 mov	 eax, DWORD PTR _lpObj$[ebp]
  04c0a	83 b8 10 1c 00
	00 64		 cmp	 DWORD PTR [eax+7184], 100 ; 00000064H
  04c11	7e 21		 jle	 SHORT $LN193@Attack

; 2646 : 						{
; 2647 : 							gObjWeaponDurDownInCastle(lpObj, lpTargetObj, 1);

  04c13	6a 01		 push	 1
  04c15	8b 45 0c	 mov	 eax, DWORD PTR _lpTargetObj$[ebp]
  04c18	50		 push	 eax
  04c19	8b 4d 08	 mov	 ecx, DWORD PTR _lpObj$[ebp]
  04c1c	51		 push	 ecx
  04c1d	e8 00 00 00 00	 call	 ?gObjWeaponDurDownInCastle@@YAXPAUOBJECTSTRUCT@@0H@Z ; gObjWeaponDurDownInCastle
  04c22	83 c4 0c	 add	 esp, 12			; 0000000cH

; 2648 : 							lpObj->m_iAccumulatedDamage = 0;

  04c25	8b 45 08	 mov	 eax, DWORD PTR _lpObj$[ebp]
  04c28	c7 80 10 1c 00
	00 00 00 00 00	 mov	 DWORD PTR [eax+7184], 0

; 2649 : 						}
; 2650 : 						else

  04c32	eb 15		 jmp	 SHORT $LN192@Attack
$LN193@Attack:

; 2651 : 						{
; 2652 : 							lpObj->m_iAccumulatedDamage += AttackDamage;

  04c34	8b 45 08	 mov	 eax, DWORD PTR _lpObj$[ebp]
  04c37	8b 88 10 1c 00
	00		 mov	 ecx, DWORD PTR [eax+7184]
  04c3d	03 4d 1c	 add	 ecx, DWORD PTR _AttackDamage$[ebp]
  04c40	8b 55 08	 mov	 edx, DWORD PTR _lpObj$[ebp]
  04c43	89 8a 10 1c 00
	00		 mov	 DWORD PTR [edx+7184], ecx
$LN192@Attack:

; 2653 : 						}
; 2654 : 
; 2655 : 						AttackDamage = AttackDamage * 5 / 100;

  04c49	8b 45 1c	 mov	 eax, DWORD PTR _AttackDamage$[ebp]
  04c4c	6b c0 05	 imul	 eax, 5
  04c4f	99		 cdq
  04c50	b9 64 00 00 00	 mov	 ecx, 100		; 00000064H
  04c55	f7 f9		 idiv	 ecx
  04c57	89 45 1c	 mov	 DWORD PTR _AttackDamage$[ebp], eax
$LN194@Attack:

; 2656 : 					}
; 2657 : 				}
; 2658 : 			}
; 2659 : 
; 2660 : 			if ( gObjFenrir( lpObj ) )

  04c5a	8b 45 08	 mov	 eax, DWORD PTR _lpObj$[ebp]
  04c5d	50		 push	 eax
  04c5e	e8 00 00 00 00	 call	 ?gObjFenrir@@YAHPAUOBJECTSTRUCT@@@Z ; gObjFenrir
  04c63	83 c4 04	 add	 esp, 4
  04c66	85 c0		 test	 eax, eax
  04c68	0f 84 99 00 00
	00		 je	 $LN188@Attack

; 2661 : 			{
; 2662 : 				int iIncPercent = lpObj->pInventory[8].IsFenrirIncLastAttackDamage();

  04c6e	8b 45 08	 mov	 eax, DWORD PTR _lpObj$[ebp]
  04c71	8b 88 24 0e 00
	00		 mov	 ecx, DWORD PTR [eax+3620]
  04c77	81 c1 a0 06 00
	00		 add	 ecx, 1696		; 000006a0H
  04c7d	e8 00 00 00 00	 call	 ?IsFenrirIncLastAttackDamage@CItem@@QAEHXZ ; CItem::IsFenrirIncLastAttackDamage
  04c82	89 85 88 fd ff
	ff		 mov	 DWORD PTR _iIncPercent$240639[ebp], eax

; 2663 : #ifdef FENRIR_CONFIG
; 2664 : 				
; 2665 : 
; 2666 : 				if(g_ExLicense.CheckUser(eExUB::PrideMuLocal) || g_ExLicense.CheckUser(eExUB::PrideMu) || g_ExLicense.CheckUser(eExUB::Local3) || g_ExLicense.CheckUser(eExUB::Local))

  04c88	6a 1a		 push	 26			; 0000001aH
  04c8a	b9 00 00 00 00	 mov	 ecx, OFFSET ?g_ExLicense@@3VCExLicense@@A ; g_ExLicense
  04c8f	e8 00 00 00 00	 call	 ?CheckUser@CExLicense@@QAE_NH@Z ; CExLicense::CheckUser
  04c94	0f b6 c0	 movzx	 eax, al
  04c97	85 c0		 test	 eax, eax
  04c99	75 39		 jne	 SHORT $LN189@Attack
  04c9b	6a 11		 push	 17			; 00000011H
  04c9d	b9 00 00 00 00	 mov	 ecx, OFFSET ?g_ExLicense@@3VCExLicense@@A ; g_ExLicense
  04ca2	e8 00 00 00 00	 call	 ?CheckUser@CExLicense@@QAE_NH@Z ; CExLicense::CheckUser
  04ca7	0f b6 c0	 movzx	 eax, al
  04caa	85 c0		 test	 eax, eax
  04cac	75 26		 jne	 SHORT $LN189@Attack
  04cae	6a 1c		 push	 28			; 0000001cH
  04cb0	b9 00 00 00 00	 mov	 ecx, OFFSET ?g_ExLicense@@3VCExLicense@@A ; g_ExLicense
  04cb5	e8 00 00 00 00	 call	 ?CheckUser@CExLicense@@QAE_NH@Z ; CExLicense::CheckUser
  04cba	0f b6 c0	 movzx	 eax, al
  04cbd	85 c0		 test	 eax, eax
  04cbf	75 13		 jne	 SHORT $LN189@Attack
  04cc1	6a 00		 push	 0
  04cc3	b9 00 00 00 00	 mov	 ecx, OFFSET ?g_ExLicense@@3VCExLicense@@A ; g_ExLicense
  04cc8	e8 00 00 00 00	 call	 ?CheckUser@CExLicense@@QAE_NH@Z ; CExLicense::CheckUser
  04ccd	0f b6 c0	 movzx	 eax, al
  04cd0	85 c0		 test	 eax, eax
  04cd2	74 12		 je	 SHORT $LN190@Attack
$LN189@Attack:

; 2667 : 				{
; 2668 : 					iIncPercent += ExConfig.PrideMu.IncPercent;

  04cd4	8b 85 88 fd ff
	ff		 mov	 eax, DWORD PTR _iIncPercent$240639[ebp]
  04cda	03 05 60 0b 00
	00		 add	 eax, DWORD PTR ?ExConfig@@3VcExConfigs@@A+2912
  04ce0	89 85 88 fd ff
	ff		 mov	 DWORD PTR _iIncPercent$240639[ebp], eax
$LN190@Attack:

; 2669 : 				}
; 2670 : #endif
; 2671 : 				if ( iIncPercent > 0 )

  04ce6	83 bd 88 fd ff
	ff 00		 cmp	 DWORD PTR _iIncPercent$240639[ebp], 0
  04ced	7e 18		 jle	 SHORT $LN188@Attack

; 2672 : 				{
; 2673 : 					AttackDamage += AttackDamage * iIncPercent / 100;

  04cef	8b 45 1c	 mov	 eax, DWORD PTR _AttackDamage$[ebp]
  04cf2	0f af 85 88 fd
	ff ff		 imul	 eax, DWORD PTR _iIncPercent$240639[ebp]
  04cf9	99		 cdq
  04cfa	b9 64 00 00 00	 mov	 ecx, 100		; 00000064H
  04cff	f7 f9		 idiv	 ecx
  04d01	03 45 1c	 add	 eax, DWORD PTR _AttackDamage$[ebp]
  04d04	89 45 1c	 mov	 DWORD PTR _AttackDamage$[ebp], eax
$LN188@Attack:

; 2674 : 				}
; 2675 : 			}
; 2676 : 
; 2677 : 			if ( gObjFenrir( lpTargetObj ) )

  04d07	8b 45 0c	 mov	 eax, DWORD PTR _lpTargetObj$[ebp]
  04d0a	50		 push	 eax
  04d0b	e8 00 00 00 00	 call	 ?gObjFenrir@@YAHPAUOBJECTSTRUCT@@@Z ; gObjFenrir
  04d10	83 c4 04	 add	 esp, 4
  04d13	85 c0		 test	 eax, eax
  04d15	0f 84 9b 00 00
	00		 je	 $LN184@Attack

; 2678 : 			{
; 2679 : 				int iDecPercent = lpTargetObj->pInventory[8].IsFenrirDecLastAttackDamage();

  04d1b	8b 45 0c	 mov	 eax, DWORD PTR _lpTargetObj$[ebp]
  04d1e	8b 88 24 0e 00
	00		 mov	 ecx, DWORD PTR [eax+3620]
  04d24	81 c1 a0 06 00
	00		 add	 ecx, 1696		; 000006a0H
  04d2a	e8 00 00 00 00	 call	 ?IsFenrirDecLastAttackDamage@CItem@@QAEHXZ ; CItem::IsFenrirDecLastAttackDamage
  04d2f	89 85 84 fd ff
	ff		 mov	 DWORD PTR _iDecPercent$240644[ebp], eax

; 2680 : #ifdef FENRIR_CONFIG
; 2681 : 				if(g_ExLicense.CheckUser(eExUB::PrideMuLocal) || g_ExLicense.CheckUser(eExUB::PrideMu) || g_ExLicense.CheckUser(eExUB::Local3) || g_ExLicense.CheckUser(eExUB::Local))

  04d35	6a 1a		 push	 26			; 0000001aH
  04d37	b9 00 00 00 00	 mov	 ecx, OFFSET ?g_ExLicense@@3VCExLicense@@A ; g_ExLicense
  04d3c	e8 00 00 00 00	 call	 ?CheckUser@CExLicense@@QAE_NH@Z ; CExLicense::CheckUser
  04d41	0f b6 c0	 movzx	 eax, al
  04d44	85 c0		 test	 eax, eax
  04d46	75 39		 jne	 SHORT $LN185@Attack
  04d48	6a 11		 push	 17			; 00000011H
  04d4a	b9 00 00 00 00	 mov	 ecx, OFFSET ?g_ExLicense@@3VCExLicense@@A ; g_ExLicense
  04d4f	e8 00 00 00 00	 call	 ?CheckUser@CExLicense@@QAE_NH@Z ; CExLicense::CheckUser
  04d54	0f b6 c0	 movzx	 eax, al
  04d57	85 c0		 test	 eax, eax
  04d59	75 26		 jne	 SHORT $LN185@Attack
  04d5b	6a 1c		 push	 28			; 0000001cH
  04d5d	b9 00 00 00 00	 mov	 ecx, OFFSET ?g_ExLicense@@3VCExLicense@@A ; g_ExLicense
  04d62	e8 00 00 00 00	 call	 ?CheckUser@CExLicense@@QAE_NH@Z ; CExLicense::CheckUser
  04d67	0f b6 c0	 movzx	 eax, al
  04d6a	85 c0		 test	 eax, eax
  04d6c	75 13		 jne	 SHORT $LN185@Attack
  04d6e	6a 00		 push	 0
  04d70	b9 00 00 00 00	 mov	 ecx, OFFSET ?g_ExLicense@@3VCExLicense@@A ; g_ExLicense
  04d75	e8 00 00 00 00	 call	 ?CheckUser@CExLicense@@QAE_NH@Z ; CExLicense::CheckUser
  04d7a	0f b6 c0	 movzx	 eax, al
  04d7d	85 c0		 test	 eax, eax
  04d7f	74 12		 je	 SHORT $LN186@Attack
$LN185@Attack:

; 2682 : 				{
; 2683 : 					iDecPercent += ExConfig.PrideMu.DecPercent;

  04d81	8b 85 84 fd ff
	ff		 mov	 eax, DWORD PTR _iDecPercent$240644[ebp]
  04d87	03 05 5c 0b 00
	00		 add	 eax, DWORD PTR ?ExConfig@@3VcExConfigs@@A+2908
  04d8d	89 85 84 fd ff
	ff		 mov	 DWORD PTR _iDecPercent$240644[ebp], eax
$LN186@Attack:

; 2684 : 				}
; 2685 : #endif
; 2686 : 				if ( iDecPercent > 0 )

  04d93	83 bd 84 fd ff
	ff 00		 cmp	 DWORD PTR _iDecPercent$240644[ebp], 0
  04d9a	7e 1a		 jle	 SHORT $LN184@Attack

; 2687 : 				{
; 2688 : 					//
; 2689 : 					AttackDamage -= AttackDamage * iDecPercent / 100;

  04d9c	8b 45 1c	 mov	 eax, DWORD PTR _AttackDamage$[ebp]
  04d9f	0f af 85 84 fd
	ff ff		 imul	 eax, DWORD PTR _iDecPercent$240644[ebp]
  04da6	99		 cdq
  04da7	b9 64 00 00 00	 mov	 ecx, 100		; 00000064H
  04dac	f7 f9		 idiv	 ecx
  04dae	8b 55 1c	 mov	 edx, DWORD PTR _AttackDamage$[ebp]
  04db1	2b d0		 sub	 edx, eax
  04db3	89 55 1c	 mov	 DWORD PTR _AttackDamage$[ebp], edx
$LN184@Attack:

; 2690 : 				}
; 2691 : 			}
; 2692 : 
; 2693 : 			if(g_ExLicense.user.Rage)

  04db6	0f b6 05 c9 00
	00 00		 movzx	 eax, BYTE PTR ?g_ExLicense@@3VCExLicense@@A+201
  04dbd	85 c0		 test	 eax, eax
  04dbf	74 21		 je	 SHORT $LN183@Attack

; 2694 : 			{
; 2695 : 				gSystemOfRage.AttackDamageRG(lpObj, lpTargetObj, AttackDamage, bDamageReflect);

  04dc1	83 7d ac 00	 cmp	 DWORD PTR _bDamageReflect$[ebp], 0
  04dc5	0f 95 c0	 setne	 al
  04dc8	0f b6 c8	 movzx	 ecx, al
  04dcb	51		 push	 ecx
  04dcc	8d 55 1c	 lea	 edx, DWORD PTR _AttackDamage$[ebp]
  04dcf	52		 push	 edx
  04dd0	8b 45 0c	 mov	 eax, DWORD PTR _lpTargetObj$[ebp]
  04dd3	50		 push	 eax
  04dd4	8b 4d 08	 mov	 ecx, DWORD PTR _lpObj$[ebp]
  04dd7	51		 push	 ecx
  04dd8	b9 00 00 00 00	 mov	 ecx, OFFSET ?gSystemOfRage@@3VcSystemOfRage@@A ; gSystemOfRage
  04ddd	e8 00 00 00 00	 call	 ?AttackDamageRG@cSystemOfRage@@QAEXPAUOBJECTSTRUCT@@0AAH_N@Z ; cSystemOfRage::AttackDamageRG
$LN183@Attack:

; 2696 : 			}
; 2697 : 
; 2698 : 
; 2699 : 			if ( AttackDamage < 0 )

  04de2	83 7d 1c 00	 cmp	 DWORD PTR _AttackDamage$[ebp], 0
  04de6	7d 07		 jge	 SHORT $LN182@Attack

; 2700 : 			{
; 2701 : 				AttackDamage = 0;

  04de8	c7 45 1c 00 00
	00 00		 mov	 DWORD PTR _AttackDamage$[ebp], 0
$LN182@Attack:

; 2702 : 			}
; 2703 : 
; 2704 : 			if ( skill == 76 )

  04def	83 7d d8 4c	 cmp	 DWORD PTR _skill$[ebp], 76 ; 0000004cH
  04df3	0f 85 b8 01 00
	00		 jne	 $LN176@Attack

; 2705 : 			{
; 2706 : 				if ( lpObj->Type == OBJ_USER && lpTargetObj->Type == OBJ_USER )

  04df9	8b 45 08	 mov	 eax, DWORD PTR _lpObj$[ebp]
  04dfc	0f b7 48 68	 movzx	 ecx, WORD PTR [eax+104]
  04e00	83 f9 01	 cmp	 ecx, 1
  04e03	0f 85 a8 01 00
	00		 jne	 $LN176@Attack
  04e09	8b 45 0c	 mov	 eax, DWORD PTR _lpTargetObj$[ebp]
  04e0c	0f b7 48 68	 movzx	 ecx, WORD PTR [eax+104]
  04e10	83 f9 01	 cmp	 ecx, 1
  04e13	0f 85 98 01 00
	00		 jne	 $LN176@Attack

; 2707 : 				{
; 2708 : 					if ( AttackDamage > 0 )

  04e19	83 7d 1c 00	 cmp	 DWORD PTR _AttackDamage$[ebp], 0
  04e1d	0f 8e 8e 01 00
	00		 jle	 $LN176@Attack

; 2709 : 					{
; 2710 : //#if(GS_CASTLE==1)
; 2711 : 						if(lpObj->m_btCsJoinSide == FALSE || (lpObj->m_btCsJoinSide != lpTargetObj->m_btCsJoinSide))

  04e23	8b 45 08	 mov	 eax, DWORD PTR _lpObj$[ebp]
  04e26	0f b6 88 02 1c
	00 00		 movzx	 ecx, BYTE PTR [eax+7170]
  04e2d	85 c9		 test	 ecx, ecx
  04e2f	74 1c		 je	 SHORT $LN177@Attack
  04e31	8b 45 08	 mov	 eax, DWORD PTR _lpObj$[ebp]
  04e34	0f b6 88 02 1c
	00 00		 movzx	 ecx, BYTE PTR [eax+7170]
  04e3b	8b 55 0c	 mov	 edx, DWORD PTR _lpTargetObj$[ebp]
  04e3e	0f b6 82 02 1c
	00 00		 movzx	 eax, BYTE PTR [edx+7170]
  04e45	3b c8		 cmp	 ecx, eax
  04e47	0f 84 64 01 00
	00		 je	 $LN176@Attack
$LN177@Attack:

; 2712 : //#endif
; 2713 : 						{
; 2714 : 							int iEquipmentPos = rand()%5 + 2;

  04e4d	e8 00 00 00 00	 call	 _rand
  04e52	99		 cdq
  04e53	b9 05 00 00 00	 mov	 ecx, 5
  04e58	f7 f9		 idiv	 ecx
  04e5a	83 c2 02	 add	 edx, 2
  04e5d	89 95 80 fd ff
	ff		 mov	 DWORD PTR _iEquipmentPos$240655[ebp], edx

; 2715 : 							CItem * lpEquipment = &lpTargetObj->pInventory[iEquipmentPos];

  04e63	8b 85 80 fd ff
	ff		 mov	 eax, DWORD PTR _iEquipmentPos$240655[ebp]
  04e69	69 c0 d4 00 00
	00		 imul	 eax, 212		; 000000d4H
  04e6f	8b 4d 0c	 mov	 ecx, DWORD PTR _lpTargetObj$[ebp]
  04e72	03 81 24 0e 00
	00		 add	 eax, DWORD PTR [ecx+3620]
  04e78	89 85 7c fd ff
	ff		 mov	 DWORD PTR _lpEquipment$240656[ebp], eax

; 2716 : 
; 2717 : 							if ( lpEquipment && lpEquipment->IsItem() )

  04e7e	0f 84 2d 01 00
	00		 je	 $LN176@Attack
  04e84	8b 8d 7c fd ff
	ff		 mov	 ecx, DWORD PTR _lpEquipment$240656[ebp]
  04e8a	e8 00 00 00 00	 call	 ?IsItem@CItem@@QAEHXZ	; CItem::IsItem
  04e8f	85 c0		 test	 eax, eax
  04e91	0f 84 1a 01 00
	00		 je	 $LN176@Attack

; 2718 : 							{
; 2719 : 								int value = 50;

  04e97	c7 85 78 fd ff
	ff 32 00 00 00	 mov	 DWORD PTR _value$240658[ebp], 50 ; 00000032H

; 2720 : #if(S4E6||S5E3||S5E4)
; 2721 : 								if(lpTargetObj->m_MLPassiveSkill.m_iML_DurationReduction1 > 0)
; 2722 : 								{
; 2723 : 									value += 7 * lpTargetObj->m_MLPassiveSkill.m_btML_DurationReduction1;
; 2724 : 								}
; 2725 : #else
; 2726 : 								if( lpObj->m_MPSkillOpt.MpsDownDur1 != 0.0f )

  04ea1	8b 45 08	 mov	 eax, DWORD PTR _lpObj$[ebp]
  04ea4	d9 80 44 26 00
	00		 fld	 DWORD PTR [eax+9796]
  04eaa	d9 ee		 fldz
  04eac	da e9		 fucompp
  04eae	df e0		 fnstsw	 ax
  04eb0	f6 c4 44	 test	 ah, 68			; 00000044H
  04eb3	7b 19		 jnp	 SHORT $LN175@Attack

; 2727 : 								{
; 2728 : 									value += lpObj->m_MPSkillOpt.btMpsDownDur1Level*7;

  04eb5	8b 45 08	 mov	 eax, DWORD PTR _lpObj$[ebp]
  04eb8	0f b6 88 48 26
	00 00		 movzx	 ecx, BYTE PTR [eax+9800]
  04ebf	6b c9 07	 imul	 ecx, 7
  04ec2	03 8d 78 fd ff
	ff		 add	 ecx, DWORD PTR _value$240658[ebp]
  04ec8	89 8d 78 fd ff
	ff		 mov	 DWORD PTR _value$240658[ebp], ecx
$LN175@Attack:

; 2729 : 								}
; 2730 : #endif
; 2731 : 
; 2732 : 								if(value < 0)

  04ece	83 bd 78 fd ff
	ff 00		 cmp	 DWORD PTR _value$240658[ebp], 0
  04ed5	7d 0a		 jge	 SHORT $LN174@Attack

; 2733 : 								{
; 2734 : 									value = 1;

  04ed7	c7 85 78 fd ff
	ff 01 00 00 00	 mov	 DWORD PTR _value$240658[ebp], 1
$LN174@Attack:

; 2735 : 								}
; 2736 : 								
; 2737 : 								int iDurEquipment = (int)(lpEquipment->m_Durability * value / 100.0f);

  04ee1	db 85 78 fd ff
	ff		 fild	 DWORD PTR _value$240658[ebp]
  04ee7	8b 85 7c fd ff
	ff		 mov	 eax, DWORD PTR _lpEquipment$240656[ebp]
  04eed	d8 48 24	 fmul	 DWORD PTR [eax+36]
  04ef0	dc 35 00 00 00
	00		 fdiv	 QWORD PTR __real@4059000000000000
  04ef6	e8 00 00 00 00	 call	 __ftol2_sse
  04efb	89 85 74 fd ff
	ff		 mov	 DWORD PTR _iDurEquipment$240661[ebp], eax

; 2738 : 
; 2739 : #ifdef LUCKYITEM
; 2740 : 								if( g_LuckyItemManager.IsLuckyItemEquipment(lpEquipment->m_Type) )

  04f01	8b 85 7c fd ff
	ff		 mov	 eax, DWORD PTR _lpEquipment$240656[ebp]
  04f07	0f bf 48 06	 movsx	 ecx, WORD PTR [eax+6]
  04f0b	51		 push	 ecx
  04f0c	b9 00 00 00 00	 mov	 ecx, OFFSET ?g_LuckyItemManager@@3ULuckyItemManager@@A ; g_LuckyItemManager
  04f11	e8 00 00 00 00	 call	 ?IsLuckyItemEquipment@LuckyItemManager@@QAEHH@Z ; LuckyItemManager::IsLuckyItemEquipment
  04f16	85 c0		 test	 eax, eax
  04f18	74 14		 je	 SHORT $LN173@Attack

; 2741 : 								{
; 2742 : 									iDurEquipment = lpEquipment->m_Durability;

  04f1a	8b 85 7c fd ff
	ff		 mov	 eax, DWORD PTR _lpEquipment$240656[ebp]
  04f20	d9 40 24	 fld	 DWORD PTR [eax+36]
  04f23	e8 00 00 00 00	 call	 __ftol2_sse
  04f28	89 85 74 fd ff
	ff		 mov	 DWORD PTR _iDurEquipment$240661[ebp], eax
$LN173@Attack:

; 2743 : 								}
; 2744 : #endif
; 2745 : 								lpEquipment->m_Durability = (float)iDurEquipment;

  04f2e	db 85 74 fd ff
	ff		 fild	 DWORD PTR _iDurEquipment$240661[ebp]
  04f34	8b 85 7c fd ff
	ff		 mov	 eax, DWORD PTR _lpEquipment$240656[ebp]
  04f3a	d9 58 24	 fstp	 DWORD PTR [eax+36]

; 2746 : 
; 2747 : 								if ( lpEquipment->m_Durability < 0.0f )

  04f3d	8b 85 7c fd ff
	ff		 mov	 eax, DWORD PTR _lpEquipment$240656[ebp]
  04f43	d9 40 24	 fld	 DWORD PTR [eax+36]
  04f46	dc 1d 00 00 00
	00		 fcomp	 QWORD PTR __real@0000000000000000
  04f4c	df e0		 fnstsw	 ax
  04f4e	f6 c4 05	 test	 ah, 5
  04f51	7a 0b		 jp	 SHORT $LN172@Attack

; 2748 : 								{
; 2749 : 									lpEquipment->m_Durability = 0.0f;

  04f53	8b 85 7c fd ff
	ff		 mov	 eax, DWORD PTR _lpEquipment$240656[ebp]
  04f59	d9 ee		 fldz
  04f5b	d9 58 24	 fstp	 DWORD PTR [eax+36]
$LN172@Attack:

; 2750 : 								}
; 2751 : 
; 2752 : 								GCItemDurSend(lpTargetObj->m_Index, (BYTE)iEquipmentPos, (BYTE)lpEquipment->m_Durability, 0);

  04f5e	6a 00		 push	 0
  04f60	8b 85 7c fd ff
	ff		 mov	 eax, DWORD PTR _lpEquipment$240656[ebp]
  04f66	d9 40 24	 fld	 DWORD PTR [eax+36]
  04f69	d9 bd ca fc ff
	ff		 fnstcw	 WORD PTR tv7327[ebp]
  04f6f	0f b7 85 ca fc
	ff ff		 movzx	 eax, WORD PTR tv7327[ebp]
  04f76	0d 00 0c 00 00	 or	 eax, 3072		; 00000c00H
  04f7b	89 85 c4 fc ff
	ff		 mov	 DWORD PTR tv7330[ebp], eax
  04f81	d9 ad c4 fc ff
	ff		 fldcw	 WORD PTR tv7330[ebp]
  04f87	db 9d c0 fc ff
	ff		 fistp	 DWORD PTR tv7332[ebp]
  04f8d	d9 ad ca fc ff
	ff		 fldcw	 WORD PTR tv7327[ebp]
  04f93	0f b6 8d c0 fc
	ff ff		 movzx	 ecx, BYTE PTR tv7332[ebp]
  04f9a	51		 push	 ecx
  04f9b	0f b6 95 80 fd
	ff ff		 movzx	 edx, BYTE PTR _iEquipmentPos$240655[ebp]
  04fa2	52		 push	 edx
  04fa3	8b 45 0c	 mov	 eax, DWORD PTR _lpTargetObj$[ebp]
  04fa6	8b 08		 mov	 ecx, DWORD PTR [eax]
  04fa8	51		 push	 ecx
  04fa9	e8 00 00 00 00	 call	 ?GCItemDurSend@@YAXHEEE@Z ; GCItemDurSend
  04fae	83 c4 10	 add	 esp, 16			; 00000010H
$LN176@Attack:

; 2753 : 							}
; 2754 : 						}
; 2755 : 					}
; 2756 : 				}
; 2757 : 			}
; 2758 : 
; 2759 : 			if ( !byReflect )

  04fb1	0f b6 45 28	 movzx	 eax, BYTE PTR _byReflect$[ebp]
  04fb5	85 c0		 test	 eax, eax
  04fb7	0f 85 4a 01 00
	00		 jne	 $LN166@Attack

; 2760 : 			{
; 2761 : 				if( lpObj->m_MPSkillOpt.MpsTwoHandSwordMastery > 0.0f &&
; 2762 : 					lpObj->Type == OBJ_USER &&
; 2763 : 					lpTargetObj->Type == OBJ_USER )

  04fbd	8b 45 08	 mov	 eax, DWORD PTR _lpObj$[ebp]
  04fc0	d9 80 80 26 00
	00		 fld	 DWORD PTR [eax+9856]
  04fc6	dc 1d 00 00 00
	00		 fcomp	 QWORD PTR __real@0000000000000000
  04fcc	df e0		 fnstsw	 ax
  04fce	f6 c4 41	 test	 ah, 65			; 00000041H
  04fd1	75 2c		 jne	 SHORT $LN170@Attack
  04fd3	8b 45 08	 mov	 eax, DWORD PTR _lpObj$[ebp]
  04fd6	0f b7 48 68	 movzx	 ecx, WORD PTR [eax+104]
  04fda	83 f9 01	 cmp	 ecx, 1
  04fdd	75 20		 jne	 SHORT $LN170@Attack
  04fdf	8b 45 0c	 mov	 eax, DWORD PTR _lpTargetObj$[ebp]
  04fe2	0f b7 48 68	 movzx	 ecx, WORD PTR [eax+104]
  04fe6	83 f9 01	 cmp	 ecx, 1
  04fe9	75 14		 jne	 SHORT $LN170@Attack

; 2764 : 				{
; 2765 : 					AttackDamage += lpObj->m_MPSkillOpt.MpsTwoHandSwordMastery;

  04feb	db 45 1c	 fild	 DWORD PTR _AttackDamage$[ebp]
  04fee	8b 45 08	 mov	 eax, DWORD PTR _lpObj$[ebp]
  04ff1	d8 80 80 26 00
	00		 fadd	 DWORD PTR [eax+9856]
  04ff7	e8 00 00 00 00	 call	 __ftol2_sse
  04ffc	89 45 1c	 mov	 DWORD PTR _AttackDamage$[ebp], eax
$LN170@Attack:

; 2766 : 				}
; 2767 : 
; 2768 : 				if( lpObj->m_MPSkillOpt.MpsTwoHandStaffMastery > 0.0f &&
; 2769 : 					lpObj->Type == OBJ_USER &&
; 2770 : 					lpTargetObj->Type == OBJ_USER )

  04fff	8b 45 08	 mov	 eax, DWORD PTR _lpObj$[ebp]
  05002	d9 80 a4 26 00
	00		 fld	 DWORD PTR [eax+9892]
  05008	dc 1d 00 00 00
	00		 fcomp	 QWORD PTR __real@0000000000000000
  0500e	df e0		 fnstsw	 ax
  05010	f6 c4 41	 test	 ah, 65			; 00000041H
  05013	75 2c		 jne	 SHORT $LN169@Attack
  05015	8b 45 08	 mov	 eax, DWORD PTR _lpObj$[ebp]
  05018	0f b7 48 68	 movzx	 ecx, WORD PTR [eax+104]
  0501c	83 f9 01	 cmp	 ecx, 1
  0501f	75 20		 jne	 SHORT $LN169@Attack
  05021	8b 45 0c	 mov	 eax, DWORD PTR _lpTargetObj$[ebp]
  05024	0f b7 48 68	 movzx	 ecx, WORD PTR [eax+104]
  05028	83 f9 01	 cmp	 ecx, 1
  0502b	75 14		 jne	 SHORT $LN169@Attack

; 2771 : 				{
; 2772 : 					AttackDamage += lpObj->m_MPSkillOpt.MpsTwoHandStaffMastery;

  0502d	db 45 1c	 fild	 DWORD PTR _AttackDamage$[ebp]
  05030	8b 45 08	 mov	 eax, DWORD PTR _lpObj$[ebp]
  05033	d8 80 a4 26 00
	00		 fadd	 DWORD PTR [eax+9892]
  05039	e8 00 00 00 00	 call	 __ftol2_sse
  0503e	89 45 1c	 mov	 DWORD PTR _AttackDamage$[ebp], eax
$LN169@Attack:

; 2773 : 				}
; 2774 : 
; 2775 : 				if( lpObj->m_MPSkillOpt.MpsCrossbowMastery > 0.0f &&
; 2776 : 					lpObj->Type == OBJ_USER &&
; 2777 : 					lpTargetObj->Type == OBJ_USER )

  05041	8b 45 08	 mov	 eax, DWORD PTR _lpObj$[ebp]
  05044	d9 80 b8 26 00
	00		 fld	 DWORD PTR [eax+9912]
  0504a	dc 1d 00 00 00
	00		 fcomp	 QWORD PTR __real@0000000000000000
  05050	df e0		 fnstsw	 ax
  05052	f6 c4 41	 test	 ah, 65			; 00000041H
  05055	75 2c		 jne	 SHORT $LN168@Attack
  05057	8b 45 08	 mov	 eax, DWORD PTR _lpObj$[ebp]
  0505a	0f b7 48 68	 movzx	 ecx, WORD PTR [eax+104]
  0505e	83 f9 01	 cmp	 ecx, 1
  05061	75 20		 jne	 SHORT $LN168@Attack
  05063	8b 45 0c	 mov	 eax, DWORD PTR _lpTargetObj$[ebp]
  05066	0f b7 48 68	 movzx	 ecx, WORD PTR [eax+104]
  0506a	83 f9 01	 cmp	 ecx, 1
  0506d	75 14		 jne	 SHORT $LN168@Attack

; 2778 : 				{
; 2779 : 					AttackDamage += lpObj->m_MPSkillOpt.MpsCrossbowMastery;

  0506f	db 45 1c	 fild	 DWORD PTR _AttackDamage$[ebp]
  05072	8b 45 08	 mov	 eax, DWORD PTR _lpObj$[ebp]
  05075	d8 80 b8 26 00
	00		 fadd	 DWORD PTR [eax+9912]
  0507b	e8 00 00 00 00	 call	 __ftol2_sse
  05080	89 45 1c	 mov	 DWORD PTR _AttackDamage$[ebp], eax
$LN168@Attack:

; 2780 : 				}
; 2781 : 
; 2782 : 				if( lpObj->m_MPSkillOpt.MpsStickMastery > 0.0f &&
; 2783 : 					lpObj->Type == OBJ_USER &&
; 2784 : 					lpTargetObj->Type == OBJ_USER )

  05083	8b 45 08	 mov	 eax, DWORD PTR _lpObj$[ebp]
  05086	d9 80 f0 26 00
	00		 fld	 DWORD PTR [eax+9968]
  0508c	dc 1d 00 00 00
	00		 fcomp	 QWORD PTR __real@0000000000000000
  05092	df e0		 fnstsw	 ax
  05094	f6 c4 41	 test	 ah, 65			; 00000041H
  05097	75 2c		 jne	 SHORT $LN167@Attack
  05099	8b 45 08	 mov	 eax, DWORD PTR _lpObj$[ebp]
  0509c	0f b7 48 68	 movzx	 ecx, WORD PTR [eax+104]
  050a0	83 f9 01	 cmp	 ecx, 1
  050a3	75 20		 jne	 SHORT $LN167@Attack
  050a5	8b 45 0c	 mov	 eax, DWORD PTR _lpTargetObj$[ebp]
  050a8	0f b7 48 68	 movzx	 ecx, WORD PTR [eax+104]
  050ac	83 f9 01	 cmp	 ecx, 1
  050af	75 14		 jne	 SHORT $LN167@Attack

; 2785 : 				{
; 2786 : 					AttackDamage += lpObj->m_MPSkillOpt.MpsStickMastery;

  050b1	db 45 1c	 fild	 DWORD PTR _AttackDamage$[ebp]
  050b4	8b 45 08	 mov	 eax, DWORD PTR _lpObj$[ebp]
  050b7	d8 80 f0 26 00
	00		 fadd	 DWORD PTR [eax+9968]
  050bd	e8 00 00 00 00	 call	 __ftol2_sse
  050c2	89 45 1c	 mov	 DWORD PTR _AttackDamage$[ebp], eax
$LN167@Attack:

; 2787 : 				}
; 2788 : 
; 2789 : 				if( lpObj->m_MPSkillOpt.MpsScepterMastery > 0.0f &&
; 2790 : 					lpObj->Type == OBJ_USER &&
; 2791 : 					lpTargetObj->Type == OBJ_USER )

  050c5	8b 45 08	 mov	 eax, DWORD PTR _lpObj$[ebp]
  050c8	d9 80 14 27 00
	00		 fld	 DWORD PTR [eax+10004]
  050ce	dc 1d 00 00 00
	00		 fcomp	 QWORD PTR __real@0000000000000000
  050d4	df e0		 fnstsw	 ax
  050d6	f6 c4 41	 test	 ah, 65			; 00000041H
  050d9	75 2c		 jne	 SHORT $LN166@Attack
  050db	8b 45 08	 mov	 eax, DWORD PTR _lpObj$[ebp]
  050de	0f b7 48 68	 movzx	 ecx, WORD PTR [eax+104]
  050e2	83 f9 01	 cmp	 ecx, 1
  050e5	75 20		 jne	 SHORT $LN166@Attack
  050e7	8b 45 0c	 mov	 eax, DWORD PTR _lpTargetObj$[ebp]
  050ea	0f b7 48 68	 movzx	 ecx, WORD PTR [eax+104]
  050ee	83 f9 01	 cmp	 ecx, 1
  050f1	75 14		 jne	 SHORT $LN166@Attack

; 2792 : 				{
; 2793 : 					AttackDamage += lpObj->m_MPSkillOpt.MpsScepterMastery;

  050f3	db 45 1c	 fild	 DWORD PTR _AttackDamage$[ebp]
  050f6	8b 45 08	 mov	 eax, DWORD PTR _lpObj$[ebp]
  050f9	d8 80 14 27 00
	00		 fadd	 DWORD PTR [eax+10004]
  050ff	e8 00 00 00 00	 call	 __ftol2_sse
  05104	89 45 1c	 mov	 DWORD PTR _AttackDamage$[ebp], eax
$LN166@Attack:

; 2794 : 				}
; 2795 : 			}
; 2796 : 
; 2797 : 
; 2798 : 			if ( lpObj->Type == OBJ_USER && lpTargetObj->Type == OBJ_USER )

  05107	8b 45 08	 mov	 eax, DWORD PTR _lpObj$[ebp]
  0510a	0f b7 48 68	 movzx	 ecx, WORD PTR [eax+104]
  0510e	83 f9 01	 cmp	 ecx, 1
  05111	0f 85 88 00 00
	00		 jne	 $LN165@Attack
  05117	8b 45 0c	 mov	 eax, DWORD PTR _lpTargetObj$[ebp]
  0511a	0f b7 48 68	 movzx	 ecx, WORD PTR [eax+104]
  0511e	83 f9 01	 cmp	 ecx, 1
  05121	75 7c		 jne	 SHORT $LN165@Attack

; 2799 : 			{
; 2800 : 				iTempShieldDamage = this->GetShieldDamage(lpObj, lpTargetObj, AttackDamage);

  05123	8b 45 1c	 mov	 eax, DWORD PTR _AttackDamage$[ebp]
  05126	50		 push	 eax
  05127	8b 4d 0c	 mov	 ecx, DWORD PTR _lpTargetObj$[ebp]
  0512a	51		 push	 ecx
  0512b	8b 55 08	 mov	 edx, DWORD PTR _lpObj$[ebp]
  0512e	52		 push	 edx
  0512f	8b 4d f8	 mov	 ecx, DWORD PTR _this$[ebp]
  05132	e8 00 00 00 00	 call	 ?GetShieldDamage@CObjAttack@@QAEHPAUOBJECTSTRUCT@@0H@Z ; CObjAttack::GetShieldDamage
  05137	89 45 e0	 mov	 DWORD PTR _iTempShieldDamage$[ebp], eax

; 2801 : 				lpTargetObj->iShield -= iTempShieldDamage;

  0513a	8b 45 0c	 mov	 eax, DWORD PTR _lpTargetObj$[ebp]
  0513d	8b 88 54 01 00
	00		 mov	 ecx, DWORD PTR [eax+340]
  05143	2b 4d e0	 sub	 ecx, DWORD PTR _iTempShieldDamage$[ebp]
  05146	8b 55 0c	 mov	 edx, DWORD PTR _lpTargetObj$[ebp]
  05149	89 8a 54 01 00
	00		 mov	 DWORD PTR [edx+340], ecx

; 2802 : 				lpTargetObj->Life -= AttackDamage - iTempShieldDamage;

  0514f	8b 45 1c	 mov	 eax, DWORD PTR _AttackDamage$[ebp]
  05152	2b 45 e0	 sub	 eax, DWORD PTR _iTempShieldDamage$[ebp]
  05155	89 85 c8 fc ff
	ff		 mov	 DWORD PTR tv7404[ebp], eax
  0515b	db 85 c8 fc ff
	ff		 fild	 DWORD PTR tv7404[ebp]
  05161	8b 4d 0c	 mov	 ecx, DWORD PTR _lpTargetObj$[ebp]
  05164	d8 a9 fc 00 00
	00		 fsubr	 DWORD PTR [ecx+252]
  0516a	8b 55 0c	 mov	 edx, DWORD PTR _lpTargetObj$[ebp]
  0516d	d9 9a fc 00 00
	00		 fstp	 DWORD PTR [edx+252]

; 2803 : 				iTotalShieldDamage += iTempShieldDamage;

  05173	8b 45 dc	 mov	 eax, DWORD PTR _iTotalShieldDamage$[ebp]
  05176	03 45 e0	 add	 eax, DWORD PTR _iTempShieldDamage$[ebp]
  05179	89 45 dc	 mov	 DWORD PTR _iTotalShieldDamage$[ebp], eax

; 2804 : 
; 2805 : 				if ( lpTargetObj->Life < 0.0f )

  0517c	8b 45 0c	 mov	 eax, DWORD PTR _lpTargetObj$[ebp]
  0517f	d9 80 fc 00 00
	00		 fld	 DWORD PTR [eax+252]
  05185	dc 1d 00 00 00
	00		 fcomp	 QWORD PTR __real@0000000000000000
  0518b	df e0		 fnstsw	 ax
  0518d	f6 c4 05	 test	 ah, 5
  05190	7a 0b		 jp	 SHORT $LN164@Attack

; 2806 : 				{
; 2807 : 					lpTargetObj->Life = 0.0f;

  05192	8b 45 0c	 mov	 eax, DWORD PTR _lpTargetObj$[ebp]
  05195	d9 ee		 fldz
  05197	d9 98 fc 00 00
	00		 fstp	 DWORD PTR [eax+252]
$LN164@Attack:

; 2808 : 				}
; 2809 : 			}
; 2810 : 			else

  0519d	eb 36		 jmp	 SHORT $LN162@Attack
$LN165@Attack:

; 2811 : 			{
; 2812 : 				lpTargetObj->Life -= AttackDamage;

  0519f	db 45 1c	 fild	 DWORD PTR _AttackDamage$[ebp]
  051a2	8b 45 0c	 mov	 eax, DWORD PTR _lpTargetObj$[ebp]
  051a5	d8 a8 fc 00 00
	00		 fsubr	 DWORD PTR [eax+252]
  051ab	8b 4d 0c	 mov	 ecx, DWORD PTR _lpTargetObj$[ebp]
  051ae	d9 99 fc 00 00
	00		 fstp	 DWORD PTR [ecx+252]

; 2813 : 
; 2814 : 				if ( lpTargetObj->Life < 0.0f )

  051b4	8b 45 0c	 mov	 eax, DWORD PTR _lpTargetObj$[ebp]
  051b7	d9 80 fc 00 00
	00		 fld	 DWORD PTR [eax+252]
  051bd	dc 1d 00 00 00
	00		 fcomp	 QWORD PTR __real@0000000000000000
  051c3	df e0		 fnstsw	 ax
  051c5	f6 c4 05	 test	 ah, 5
  051c8	7a 0b		 jp	 SHORT $LN162@Attack

; 2815 : 				{
; 2816 : 					lpTargetObj->Life = 0.0f;

  051ca	8b 45 0c	 mov	 eax, DWORD PTR _lpTargetObj$[ebp]
  051cd	d9 ee		 fldz
  051cf	d9 98 fc 00 00
	00		 fstp	 DWORD PTR [eax+252]
$LN162@Attack:

; 2817 : 				}
; 2818 : 			}
; 2819 : 		}
; 2820 : 	}	
; 2821 : 	else

  051d5	e9 f1 03 00 00	 jmp	 $LN125@Attack
$LN648@Attack:

; 2822 : 	{
; 2823 : 		if ( skill == 216 ) //summoner skill

  051da	81 7d d8 d8 00
	00 00		 cmp	 DWORD PTR _skill$[ebp], 216 ; 000000d8H
  051e1	0f 85 c3 00 00
	00		 jne	 $LN153@Attack

; 2824 : 		{
; 2825 : 			if ( g_ShieldSystemOn == TRUE )

  051e7	83 3d 00 00 00
	00 01		 cmp	 DWORD PTR ?g_ShieldSystemOn@@3HA, 1 ; g_ShieldSystemOn
  051ee	0f 85 81 00 00
	00		 jne	 $LN159@Attack

; 2826 : 			{
; 2827 : 				if ( lpObj->Type == OBJ_USER && lpTargetObj->Type == OBJ_USER )

  051f4	8b 45 08	 mov	 eax, DWORD PTR _lpObj$[ebp]
  051f7	0f b7 48 68	 movzx	 ecx, WORD PTR [eax+104]
  051fb	83 f9 01	 cmp	 ecx, 1
  051fe	75 3e		 jne	 SHORT $LN158@Attack
  05200	8b 45 0c	 mov	 eax, DWORD PTR _lpTargetObj$[ebp]
  05203	0f b7 48 68	 movzx	 ecx, WORD PTR [eax+104]
  05207	83 f9 01	 cmp	 ecx, 1
  0520a	75 32		 jne	 SHORT $LN158@Attack

; 2828 : 				{
; 2829 : 					if ( !this->MissCheckPvP(lpObj, lpTargetObj, skill, skillSuccess, magicsend, bAllMiss,byBarrageCount) )

  0520c	0f b6 45 24	 movzx	 eax, BYTE PTR _byBarrageCount$[ebp]
  05210	50		 push	 eax
  05211	8d 4d b0	 lea	 ecx, DWORD PTR _bAllMiss$[ebp]
  05214	51		 push	 ecx
  05215	8b 55 14	 mov	 edx, DWORD PTR _magicsend$[ebp]
  05218	52		 push	 edx
  05219	8b 45 f4	 mov	 eax, DWORD PTR _skillSuccess$[ebp]
  0521c	50		 push	 eax
  0521d	8b 4d d8	 mov	 ecx, DWORD PTR _skill$[ebp]
  05220	51		 push	 ecx
  05221	8b 55 0c	 mov	 edx, DWORD PTR _lpTargetObj$[ebp]
  05224	52		 push	 edx
  05225	8b 45 08	 mov	 eax, DWORD PTR _lpObj$[ebp]
  05228	50		 push	 eax
  05229	8b 4d f8	 mov	 ecx, DWORD PTR _this$[ebp]
  0522c	e8 00 00 00 00	 call	 ?MissCheckPvP@CObjBaseAttack@@QAEHPAUOBJECTSTRUCT@@0HHHAAHE@Z ; CObjBaseAttack::MissCheckPvP
  05231	85 c0		 test	 eax, eax
  05233	75 07		 jne	 SHORT $LN157@Attack

; 2830 : 					{
; 2831 : 						return FALSE;

  05235	33 c0		 xor	 eax, eax
  05237	e9 bb 17 00 00	 jmp	 $LN741@Attack
$LN157@Attack:

; 2832 : 					}
; 2833 : 				}

  0523c	eb 35		 jmp	 SHORT $LN155@Attack
$LN158@Attack:

; 2834 : 				else if ( !this->MissCheck(lpObj, lpTargetObj, skill, skillSuccess, magicsend, bAllMiss, byBarrageCount) )

  0523e	0f b6 45 24	 movzx	 eax, BYTE PTR _byBarrageCount$[ebp]
  05242	50		 push	 eax
  05243	8d 4d b0	 lea	 ecx, DWORD PTR _bAllMiss$[ebp]
  05246	51		 push	 ecx
  05247	8b 55 14	 mov	 edx, DWORD PTR _magicsend$[ebp]
  0524a	52		 push	 edx
  0524b	8b 45 f4	 mov	 eax, DWORD PTR _skillSuccess$[ebp]
  0524e	50		 push	 eax
  0524f	8b 4d d8	 mov	 ecx, DWORD PTR _skill$[ebp]
  05252	51		 push	 ecx
  05253	8b 55 0c	 mov	 edx, DWORD PTR _lpTargetObj$[ebp]
  05256	52		 push	 edx
  05257	8b 45 08	 mov	 eax, DWORD PTR _lpObj$[ebp]
  0525a	50		 push	 eax
  0525b	8b 4d f8	 mov	 ecx, DWORD PTR _this$[ebp]
  0525e	8b 11		 mov	 edx, DWORD PTR [ecx]
  05260	8b 4d f8	 mov	 ecx, DWORD PTR _this$[ebp]
  05263	8b 42 04	 mov	 eax, DWORD PTR [edx+4]
  05266	ff d0		 call	 eax
  05268	85 c0		 test	 eax, eax
  0526a	75 07		 jne	 SHORT $LN155@Attack

; 2835 : 				{
; 2836 : 					return FALSE;

  0526c	33 c0		 xor	 eax, eax
  0526e	e9 84 17 00 00	 jmp	 $LN741@Attack
$LN155@Attack:

; 2837 : 				}
; 2838 : 			}

  05273	eb 35		 jmp	 SHORT $LN153@Attack
$LN159@Attack:

; 2839 : 			else if ( !this->MissCheck(lpObj, lpTargetObj, skill, skillSuccess, magicsend, bAllMiss, byBarrageCount) )

  05275	0f b6 45 24	 movzx	 eax, BYTE PTR _byBarrageCount$[ebp]
  05279	50		 push	 eax
  0527a	8d 4d b0	 lea	 ecx, DWORD PTR _bAllMiss$[ebp]
  0527d	51		 push	 ecx
  0527e	8b 55 14	 mov	 edx, DWORD PTR _magicsend$[ebp]
  05281	52		 push	 edx
  05282	8b 45 f4	 mov	 eax, DWORD PTR _skillSuccess$[ebp]
  05285	50		 push	 eax
  05286	8b 4d d8	 mov	 ecx, DWORD PTR _skill$[ebp]
  05289	51		 push	 ecx
  0528a	8b 55 0c	 mov	 edx, DWORD PTR _lpTargetObj$[ebp]
  0528d	52		 push	 edx
  0528e	8b 45 08	 mov	 eax, DWORD PTR _lpObj$[ebp]
  05291	50		 push	 eax
  05292	8b 4d f8	 mov	 ecx, DWORD PTR _this$[ebp]
  05295	8b 11		 mov	 edx, DWORD PTR [ecx]
  05297	8b 4d f8	 mov	 ecx, DWORD PTR _this$[ebp]
  0529a	8b 42 04	 mov	 eax, DWORD PTR [edx+4]
  0529d	ff d0		 call	 eax
  0529f	85 c0		 test	 eax, eax
  052a1	75 07		 jne	 SHORT $LN153@Attack

; 2840 : 			{
; 2841 : 				return FALSE;

  052a3	33 c0		 xor	 eax, eax
  052a5	e9 4d 17 00 00	 jmp	 $LN741@Attack
$LN153@Attack:

; 2842 : 			}
; 2843 : 		}
; 2844 : 
; 2845 : 
; 2846 : #ifdef _BALANS_SYSTEM_
; 2847 : 		if(byReflect == 0)

  052aa	0f b6 45 28	 movzx	 eax, BYTE PTR _byReflect$[ebp]
  052ae	85 c0		 test	 eax, eax
  052b0	75 16		 jne	 SHORT $LN152@Attack

; 2848 : 		{
; 2849 : 			gBalanceSystem.Main(lpObj,lpTargetObj,AttackDamage);

  052b2	8d 45 1c	 lea	 eax, DWORD PTR _AttackDamage$[ebp]
  052b5	50		 push	 eax
  052b6	8b 4d 0c	 mov	 ecx, DWORD PTR _lpTargetObj$[ebp]
  052b9	51		 push	 ecx
  052ba	8b 55 08	 mov	 edx, DWORD PTR _lpObj$[ebp]
  052bd	52		 push	 edx
  052be	b9 00 00 00 00	 mov	 ecx, OFFSET ?gBalanceSystem@@3VcBalanceSystem@@A ; gBalanceSystem
  052c3	e8 00 00 00 00	 call	 ?Main@cBalanceSystem@@QAEXPAUOBJECTSTRUCT@@0AAH@Z ; cBalanceSystem::Main
$LN152@Attack:

; 2850 : 		}
; 2851 : 		else
; 2852 : 		{
; 2853 : 			//gBalanceSystem.Refflect(lpObj,AttackDamage);
; 2854 : 		}
; 2855 : #endif
; 2856 : #if(CUSTOM_CW_ALTERELFDMG)
; 2857 : 		if(byReflect == 0)

  052c8	0f b6 45 28	 movzx	 eax, BYTE PTR _byReflect$[ebp]
  052cc	85 c0		 test	 eax, eax
  052ce	0f 85 d2 00 00
	00		 jne	 $LN142@Attack

; 2858 : 		{
; 2859 : 			if(g_ExLicense.CheckUser(eExUB::Gredy) || g_ExLicense.CheckUser(eExUB::GredyLocal) || g_ExLicense.CheckUser(eExUB::Gredy2))

  052d4	6a 20		 push	 32			; 00000020H
  052d6	b9 00 00 00 00	 mov	 ecx, OFFSET ?g_ExLicense@@3VCExLicense@@A ; g_ExLicense
  052db	e8 00 00 00 00	 call	 ?CheckUser@CExLicense@@QAE_NH@Z ; CExLicense::CheckUser
  052e0	0f b6 c0	 movzx	 eax, al
  052e3	85 c0		 test	 eax, eax
  052e5	75 2a		 jne	 SHORT $LN148@Attack
  052e7	6a 21		 push	 33			; 00000021H
  052e9	b9 00 00 00 00	 mov	 ecx, OFFSET ?g_ExLicense@@3VCExLicense@@A ; g_ExLicense
  052ee	e8 00 00 00 00	 call	 ?CheckUser@CExLicense@@QAE_NH@Z ; CExLicense::CheckUser
  052f3	0f b6 c0	 movzx	 eax, al
  052f6	85 c0		 test	 eax, eax
  052f8	75 17		 jne	 SHORT $LN148@Attack
  052fa	6a 22		 push	 34			; 00000022H
  052fc	b9 00 00 00 00	 mov	 ecx, OFFSET ?g_ExLicense@@3VCExLicense@@A ; g_ExLicense
  05301	e8 00 00 00 00	 call	 ?CheckUser@CExLicense@@QAE_NH@Z ; CExLicense::CheckUser
  05306	0f b6 c0	 movzx	 eax, al
  05309	85 c0		 test	 eax, eax
  0530b	0f 84 95 00 00
	00		 je	 $LN142@Attack
$LN148@Attack:

; 2860 : 			{
; 2861 : 				if(g_Crywolf.GetCrywolfState() == 4 || g_Crywolf.GetCrywolfState() == 3)

  05311	b9 00 00 00 00	 mov	 ecx, OFFSET ?g_Crywolf@@3VCCrywolf@@A ; g_Crywolf
  05316	e8 00 00 00 00	 call	 ?GetCrywolfState@CCrywolf@@QAEHXZ ; CCrywolf::GetCrywolfState
  0531b	83 f8 04	 cmp	 eax, 4
  0531e	74 0f		 je	 SHORT $LN146@Attack
  05320	b9 00 00 00 00	 mov	 ecx, OFFSET ?g_Crywolf@@3VCCrywolf@@A ; g_Crywolf
  05325	e8 00 00 00 00	 call	 ?GetCrywolfState@CCrywolf@@QAEHXZ ; CCrywolf::GetCrywolfState
  0532a	83 f8 03	 cmp	 eax, 3
  0532d	75 77		 jne	 SHORT $LN142@Attack
$LN146@Attack:

; 2862 : 				{
; 2863 : 					if(lpObj->Type == OBJ_USER)

  0532f	8b 45 08	 mov	 eax, DWORD PTR _lpObj$[ebp]
  05332	0f b7 48 68	 movzx	 ecx, WORD PTR [eax+104]
  05336	83 f9 01	 cmp	 ecx, 1
  05339	75 6b		 jne	 SHORT $LN142@Attack

; 2864 : 					{
; 2865 : 						for(int i=205;i<=209;i++)

  0533b	c7 85 70 fd ff
	ff cd 00 00 00	 mov	 DWORD PTR _i$240695[ebp], 205 ; 000000cdH
  05345	eb 0f		 jmp	 SHORT $LN144@Attack
$LN143@Attack:
  05347	8b 85 70 fd ff
	ff		 mov	 eax, DWORD PTR _i$240695[ebp]
  0534d	83 c0 01	 add	 eax, 1
  05350	89 85 70 fd ff
	ff		 mov	 DWORD PTR _i$240695[ebp], eax
$LN144@Attack:
  05356	81 bd 70 fd ff
	ff d1 00 00 00	 cmp	 DWORD PTR _i$240695[ebp], 209 ; 000000d1H
  05360	7f 44		 jg	 SHORT $LN142@Attack

; 2866 : 						{
; 2867 : 							int iAltarIndex = g_CrywolfNPC_Altar.GetAltarUserIndex(i);

  05362	8b 85 70 fd ff
	ff		 mov	 eax, DWORD PTR _i$240695[ebp]
  05368	50		 push	 eax
  05369	b9 00 00 00 00	 mov	 ecx, OFFSET ?g_CrywolfNPC_Altar@@3VCCrywolfAltar@@A ; g_CrywolfNPC_Altar
  0536e	e8 00 00 00 00	 call	 ?GetAltarUserIndex@CCrywolfAltar@@QAEHH@Z ; CCrywolfAltar::GetAltarUserIndex
  05373	89 85 6c fd ff
	ff		 mov	 DWORD PTR _iAltarIndex$240699[ebp], eax

; 2868 : 				
; 2869 : 							if(iAltarIndex != -1)

  05379	83 bd 6c fd ff
	ff ff		 cmp	 DWORD PTR _iAltarIndex$240699[ebp], -1
  05380	74 22		 je	 SHORT $LN140@Attack

; 2870 : 							{
; 2871 : 								if(iAltarIndex == lpObj->m_Index)

  05382	8b 45 08	 mov	 eax, DWORD PTR _lpObj$[ebp]
  05385	8b 8d 6c fd ff
	ff		 mov	 ecx, DWORD PTR _iAltarIndex$240699[ebp]
  0538b	3b 08		 cmp	 ecx, DWORD PTR [eax]
  0538d	75 15		 jne	 SHORT $LN140@Attack

; 2872 : 								{
; 2873 : 									AttackDamage = ( AttackDamage * ExConfig.Character.CWElfAlterDMGPercent ) / 100; 

  0538f	8b 45 1c	 mov	 eax, DWORD PTR _AttackDamage$[ebp]
  05392	0f af 05 5c 01
	00 00		 imul	 eax, DWORD PTR ?ExConfig@@3VcExConfigs@@A+348
  05399	99		 cdq
  0539a	b9 64 00 00 00	 mov	 ecx, 100		; 00000064H
  0539f	f7 f9		 idiv	 ecx
  053a1	89 45 1c	 mov	 DWORD PTR _AttackDamage$[ebp], eax
$LN140@Attack:

; 2874 : 								}
; 2875 : 							}
; 2876 : 						}

  053a4	eb a1		 jmp	 SHORT $LN143@Attack
$LN142@Attack:

; 2877 : 					}
; 2878 : 				}
; 2879 : 			}
; 2880 : 		}
; 2881 : #endif
; 2882 : //#if(GS_CASTLE==1)
; 2883 : 		if ( g_CastleSiege.GetCastleState() == CASTLESIEGE_STATE_STARTSIEGE)

  053a6	b9 00 00 00 00	 mov	 ecx, OFFSET ?g_CastleSiege@@3VCCastleSiege@@A ; g_CastleSiege
  053ab	e8 00 00 00 00	 call	 ?GetCastleState@CCastleSiege@@QAEHXZ ; CCastleSiege::GetCastleState
  053b0	83 f8 07	 cmp	 eax, 7
  053b3	0f 85 fe 00 00
	00		 jne	 $LN131@Attack

; 2884 : 		{
; 2885 : 			if ( lpObj->Type == OBJ_USER && lpTargetObj->Type == OBJ_USER )

  053b9	8b 45 08	 mov	 eax, DWORD PTR _lpObj$[ebp]
  053bc	0f b7 48 68	 movzx	 ecx, WORD PTR [eax+104]
  053c0	83 f9 01	 cmp	 ecx, 1
  053c3	0f 85 ee 00 00
	00		 jne	 $LN131@Attack
  053c9	8b 45 0c	 mov	 eax, DWORD PTR _lpTargetObj$[ebp]
  053cc	0f b7 48 68	 movzx	 ecx, WORD PTR [eax+104]
  053d0	83 f9 01	 cmp	 ecx, 1
  053d3	0f 85 de 00 00
	00		 jne	 $LN131@Attack

; 2886 : 			{
; 2887 : 				if ( lpObj->MapNumber == MAP_INDEX_CASTLESIEGE && lpTargetObj->MapNumber == MAP_INDEX_CASTLESIEGE )

  053d9	8b 45 08	 mov	 eax, DWORD PTR _lpObj$[ebp]
  053dc	0f b6 88 49 01
	00 00		 movzx	 ecx, BYTE PTR [eax+329]
  053e3	83 f9 1e	 cmp	 ecx, 30			; 0000001eH
  053e6	0f 85 cb 00 00
	00		 jne	 $LN131@Attack
  053ec	8b 45 0c	 mov	 eax, DWORD PTR _lpTargetObj$[ebp]
  053ef	0f b6 88 49 01
	00 00		 movzx	 ecx, BYTE PTR [eax+329]
  053f6	83 f9 1e	 cmp	 ecx, 30			; 0000001eH
  053f9	0f 85 b8 00 00
	00		 jne	 $LN131@Attack

; 2888 : 				{
; 2889 : 					if( lpObj->m_btCsJoinSide == lpTargetObj->m_btCsJoinSide)

  053ff	8b 45 08	 mov	 eax, DWORD PTR _lpObj$[ebp]
  05402	0f b6 88 02 1c
	00 00		 movzx	 ecx, BYTE PTR [eax+7170]
  05409	8b 55 0c	 mov	 edx, DWORD PTR _lpTargetObj$[ebp]
  0540c	0f b6 82 02 1c
	00 00		 movzx	 eax, BYTE PTR [edx+7170]
  05413	3b c8		 cmp	 ecx, eax
  05415	75 17		 jne	 SHORT $LN136@Attack

; 2890 : 					{
; 2891 : 						//int AttackByNPC2 = GetPrivateProfileInt("CastleSiege","AttackByNPC",20,"..\\Data\\ExData\\Skills.ini");
; 2892 : 						AttackDamage = AttackDamage * ExConfig.Character.CastleAttackByPlayer / 100;		//AttackDamage = AttackDamage * 20 / 100;

  05417	8b 45 1c	 mov	 eax, DWORD PTR _AttackDamage$[ebp]
  0541a	0f af 05 44 01
	00 00		 imul	 eax, DWORD PTR ?ExConfig@@3VcExConfigs@@A+324
  05421	99		 cdq
  05422	b9 64 00 00 00	 mov	 ecx, 100		; 00000064H
  05427	f7 f9		 idiv	 ecx
  05429	89 45 1c	 mov	 DWORD PTR _AttackDamage$[ebp], eax
  0542c	eb 1e		 jmp	 SHORT $LN134@Attack
$LN136@Attack:

; 2893 : 					}
; 2894 : 					else if(g_ShieldSystemOn == 0)

  0542e	83 3d 00 00 00
	00 00		 cmp	 DWORD PTR ?g_ShieldSystemOn@@3HA, 0 ; g_ShieldSystemOn
  05435	75 15		 jne	 SHORT $LN134@Attack

; 2895 : 					{
; 2896 : 						//int AttackByPlayer2 = GetPrivateProfileInt("CastleSiege","AttackByPlayer",40,"..\\Data\\ExData\\Skills.ini");
; 2897 : 						AttackDamage = AttackDamage * ExConfig.Character.CastleAttackByPlayer / 100;		//AttackDamage = AttackDamage * 40 / 100;

  05437	8b 45 1c	 mov	 eax, DWORD PTR _AttackDamage$[ebp]
  0543a	0f af 05 44 01
	00 00		 imul	 eax, DWORD PTR ?ExConfig@@3VcExConfigs@@A+324
  05441	99		 cdq
  05442	b9 64 00 00 00	 mov	 ecx, 100		; 00000064H
  05447	f7 f9		 idiv	 ecx
  05449	89 45 1c	 mov	 DWORD PTR _AttackDamage$[ebp], eax
$LN134@Attack:

; 2898 : 					}
; 2899 : 					// ----
; 2900 : 					if(g_ExLicense.CheckUser(eExUB::Gredy) || g_ExLicense.CheckUser(eExUB::Gredy2) || g_ExLicense.CheckUser(eExUB::GredyLocal))

  0544c	6a 20		 push	 32			; 00000020H
  0544e	b9 00 00 00 00	 mov	 ecx, OFFSET ?g_ExLicense@@3VCExLicense@@A ; g_ExLicense
  05453	e8 00 00 00 00	 call	 ?CheckUser@CExLicense@@QAE_NH@Z ; CExLicense::CheckUser
  05458	0f b6 c0	 movzx	 eax, al
  0545b	85 c0		 test	 eax, eax
  0545d	75 26		 jne	 SHORT $LN132@Attack
  0545f	6a 22		 push	 34			; 00000022H
  05461	b9 00 00 00 00	 mov	 ecx, OFFSET ?g_ExLicense@@3VCExLicense@@A ; g_ExLicense
  05466	e8 00 00 00 00	 call	 ?CheckUser@CExLicense@@QAE_NH@Z ; CExLicense::CheckUser
  0546b	0f b6 c0	 movzx	 eax, al
  0546e	85 c0		 test	 eax, eax
  05470	75 13		 jne	 SHORT $LN132@Attack
  05472	6a 21		 push	 33			; 00000021H
  05474	b9 00 00 00 00	 mov	 ecx, OFFSET ?g_ExLicense@@3VCExLicense@@A ; g_ExLicense
  05479	e8 00 00 00 00	 call	 ?CheckUser@CExLicense@@QAE_NH@Z ; CExLicense::CheckUser
  0547e	0f b6 c0	 movzx	 eax, al
  05481	85 c0		 test	 eax, eax
  05483	74 32		 je	 SHORT $LN131@Attack
$LN132@Attack:

; 2901 : 					{
; 2902 : 						if(g_ExUser.CheckAlliancePlayer(lpObj->m_Index, lpTargetObj->m_Index))

  05485	8b 45 0c	 mov	 eax, DWORD PTR _lpTargetObj$[ebp]
  05488	8b 08		 mov	 ecx, DWORD PTR [eax]
  0548a	51		 push	 ecx
  0548b	8b 55 08	 mov	 edx, DWORD PTR _lpObj$[ebp]
  0548e	8b 02		 mov	 eax, DWORD PTR [edx]
  05490	50		 push	 eax
  05491	b9 00 00 00 00	 mov	 ecx, OFFSET ?g_ExUser@@3VÑExUser@@A ; g_ExUser
  05496	e8 00 00 00 00	 call	 ?CheckAlliancePlayer@ÑExUser@@QAE_NHH@Z ; ÑExUser::CheckAlliancePlayer
  0549b	0f b6 c8	 movzx	 ecx, al
  0549e	85 c9		 test	 ecx, ecx
  054a0	74 15		 je	 SHORT $LN131@Attack

; 2903 : 						{
; 2904 : 							AttackDamage = ( AttackDamage * ExConfig.Character.CastleDamageByAlliance ) / 100;

  054a2	8b 45 1c	 mov	 eax, DWORD PTR _AttackDamage$[ebp]
  054a5	0f af 05 54 01
	00 00		 imul	 eax, DWORD PTR ?ExConfig@@3VcExConfigs@@A+340
  054ac	99		 cdq
  054ad	b9 64 00 00 00	 mov	 ecx, 100		; 00000064H
  054b2	f7 f9		 idiv	 ecx
  054b4	89 45 1c	 mov	 DWORD PTR _AttackDamage$[ebp], eax
$LN131@Attack:

; 2905 : 						}
; 2906 : 					}
; 2907 : 				}
; 2908 : 			}
; 2909 : 		}
; 2910 : //#endif
; 2911 : 
; 2912 : 		if(g_ExLicense.user.Rage)

  054b7	0f b6 05 c9 00
	00 00		 movzx	 eax, BYTE PTR ?g_ExLicense@@3VCExLicense@@A+201
  054be	85 c0		 test	 eax, eax
  054c0	74 21		 je	 SHORT $LN130@Attack

; 2913 : 		{
; 2914 : 			gSystemOfRage.AttackDamageRG(lpObj, lpTargetObj, AttackDamage, bDamageReflect);

  054c2	83 7d ac 00	 cmp	 DWORD PTR _bDamageReflect$[ebp], 0
  054c6	0f 95 c0	 setne	 al
  054c9	0f b6 c8	 movzx	 ecx, al
  054cc	51		 push	 ecx
  054cd	8d 55 1c	 lea	 edx, DWORD PTR _AttackDamage$[ebp]
  054d0	52		 push	 edx
  054d1	8b 45 0c	 mov	 eax, DWORD PTR _lpTargetObj$[ebp]
  054d4	50		 push	 eax
  054d5	8b 4d 08	 mov	 ecx, DWORD PTR _lpObj$[ebp]
  054d8	51		 push	 ecx
  054d9	b9 00 00 00 00	 mov	 ecx, OFFSET ?gSystemOfRage@@3VcSystemOfRage@@A ; gSystemOfRage
  054de	e8 00 00 00 00	 call	 ?AttackDamageRG@cSystemOfRage@@QAEXPAUOBJECTSTRUCT@@0AAH_N@Z ; cSystemOfRage::AttackDamageRG
$LN130@Attack:

; 2915 : 		}
; 2916 : 
; 2917 : 
; 2918 : 		//AttackDamage
; 2919 : 
; 2920 : 		if ( skill != 79 && skill != 216)

  054e3	83 7d d8 4f	 cmp	 DWORD PTR _skill$[ebp], 79 ; 0000004fH
  054e7	74 14		 je	 SHORT $LN129@Attack
  054e9	81 7d d8 d8 00
	00 00		 cmp	 DWORD PTR _skill$[ebp], 216 ; 000000d8H
  054f0	74 0b		 je	 SHORT $LN129@Attack

; 2921 : 		{
; 2922 : 			bDamageReflect = TRUE;

  054f2	c7 45 ac 01 00
	00 00		 mov	 DWORD PTR _bDamageReflect$[ebp], 1

; 2923 : 			MsgDamage = 4;

  054f9	c6 45 eb 04	 mov	 BYTE PTR _MsgDamage$[ebp], 4
$LN129@Attack:

; 2924 : 		}
; 2925 : 
; 2926 : 		if ( lpObj->Type == OBJ_USER && lpTargetObj->Type == OBJ_USER )

  054fd	8b 45 08	 mov	 eax, DWORD PTR _lpObj$[ebp]
  05500	0f b7 48 68	 movzx	 ecx, WORD PTR [eax+104]
  05504	83 f9 01	 cmp	 ecx, 1
  05507	0f 85 88 00 00
	00		 jne	 $LN128@Attack
  0550d	8b 45 0c	 mov	 eax, DWORD PTR _lpTargetObj$[ebp]
  05510	0f b7 48 68	 movzx	 ecx, WORD PTR [eax+104]
  05514	83 f9 01	 cmp	 ecx, 1
  05517	75 7c		 jne	 SHORT $LN128@Attack

; 2927 : 		{
; 2928 : 			iTempShieldDamage = this->GetShieldDamage(lpObj, lpTargetObj, AttackDamage);

  05519	8b 45 1c	 mov	 eax, DWORD PTR _AttackDamage$[ebp]
  0551c	50		 push	 eax
  0551d	8b 4d 0c	 mov	 ecx, DWORD PTR _lpTargetObj$[ebp]
  05520	51		 push	 ecx
  05521	8b 55 08	 mov	 edx, DWORD PTR _lpObj$[ebp]
  05524	52		 push	 edx
  05525	8b 4d f8	 mov	 ecx, DWORD PTR _this$[ebp]
  05528	e8 00 00 00 00	 call	 ?GetShieldDamage@CObjAttack@@QAEHPAUOBJECTSTRUCT@@0H@Z ; CObjAttack::GetShieldDamage
  0552d	89 45 e0	 mov	 DWORD PTR _iTempShieldDamage$[ebp], eax

; 2929 : 			lpTargetObj->iShield -= iTempShieldDamage;

  05530	8b 45 0c	 mov	 eax, DWORD PTR _lpTargetObj$[ebp]
  05533	8b 88 54 01 00
	00		 mov	 ecx, DWORD PTR [eax+340]
  05539	2b 4d e0	 sub	 ecx, DWORD PTR _iTempShieldDamage$[ebp]
  0553c	8b 55 0c	 mov	 edx, DWORD PTR _lpTargetObj$[ebp]
  0553f	89 8a 54 01 00
	00		 mov	 DWORD PTR [edx+340], ecx

; 2930 : 			lpTargetObj->Life -= AttackDamage - iTempShieldDamage;

  05545	8b 45 1c	 mov	 eax, DWORD PTR _AttackDamage$[ebp]
  05548	2b 45 e0	 sub	 eax, DWORD PTR _iTempShieldDamage$[ebp]
  0554b	89 85 c8 fc ff
	ff		 mov	 DWORD PTR tv7529[ebp], eax
  05551	db 85 c8 fc ff
	ff		 fild	 DWORD PTR tv7529[ebp]
  05557	8b 4d 0c	 mov	 ecx, DWORD PTR _lpTargetObj$[ebp]
  0555a	d8 a9 fc 00 00
	00		 fsubr	 DWORD PTR [ecx+252]
  05560	8b 55 0c	 mov	 edx, DWORD PTR _lpTargetObj$[ebp]
  05563	d9 9a fc 00 00
	00		 fstp	 DWORD PTR [edx+252]

; 2931 : 			iTotalShieldDamage += iTempShieldDamage;

  05569	8b 45 dc	 mov	 eax, DWORD PTR _iTotalShieldDamage$[ebp]
  0556c	03 45 e0	 add	 eax, DWORD PTR _iTempShieldDamage$[ebp]
  0556f	89 45 dc	 mov	 DWORD PTR _iTotalShieldDamage$[ebp], eax

; 2932 : 
; 2933 : 			if ( lpTargetObj->Life < 0.0f )

  05572	8b 45 0c	 mov	 eax, DWORD PTR _lpTargetObj$[ebp]
  05575	d9 80 fc 00 00
	00		 fld	 DWORD PTR [eax+252]
  0557b	dc 1d 00 00 00
	00		 fcomp	 QWORD PTR __real@0000000000000000
  05581	df e0		 fnstsw	 ax
  05583	f6 c4 05	 test	 ah, 5
  05586	7a 0b		 jp	 SHORT $LN127@Attack

; 2934 : 			{
; 2935 : 				lpTargetObj->Life = 0.0f;

  05588	8b 45 0c	 mov	 eax, DWORD PTR _lpTargetObj$[ebp]
  0558b	d9 ee		 fldz
  0558d	d9 98 fc 00 00
	00		 fstp	 DWORD PTR [eax+252]
$LN127@Attack:

; 2936 : 			}
; 2937 : 		}
; 2938 : 		else

  05593	eb 36		 jmp	 SHORT $LN125@Attack
$LN128@Attack:

; 2939 : 		{
; 2940 : 			lpTargetObj->Life -= AttackDamage;

  05595	db 45 1c	 fild	 DWORD PTR _AttackDamage$[ebp]
  05598	8b 45 0c	 mov	 eax, DWORD PTR _lpTargetObj$[ebp]
  0559b	d8 a8 fc 00 00
	00		 fsubr	 DWORD PTR [eax+252]
  055a1	8b 4d 0c	 mov	 ecx, DWORD PTR _lpTargetObj$[ebp]
  055a4	d9 99 fc 00 00
	00		 fstp	 DWORD PTR [ecx+252]

; 2941 : 
; 2942 : 			if ( lpTargetObj->Life < 0.0f )

  055aa	8b 45 0c	 mov	 eax, DWORD PTR _lpTargetObj$[ebp]
  055ad	d9 80 fc 00 00
	00		 fld	 DWORD PTR [eax+252]
  055b3	dc 1d 00 00 00
	00		 fcomp	 QWORD PTR __real@0000000000000000
  055b9	df e0		 fnstsw	 ax
  055bb	f6 c4 05	 test	 ah, 5
  055be	7a 0b		 jp	 SHORT $LN125@Attack

; 2943 : 			{
; 2944 : 				lpTargetObj->Life = 0.0f;

  055c0	8b 45 0c	 mov	 eax, DWORD PTR _lpTargetObj$[ebp]
  055c3	d9 ee		 fldz
  055c5	d9 98 fc 00 00
	00		 fstp	 DWORD PTR [eax+252]
$LN125@Attack:

; 2945 : 			}
; 2946 : 		}
; 2947 : 	}
; 2948 : 
; 2949 : 	if ( lpTargetObj->Type == OBJ_MONSTER )

  055cb	8b 45 0c	 mov	 eax, DWORD PTR _lpTargetObj$[ebp]
  055ce	0f b7 48 68	 movzx	 ecx, WORD PTR [eax+104]
  055d2	83 f9 02	 cmp	 ecx, 2
  055d5	75 54		 jne	 SHORT $LN123@Attack

; 2950 : 	{
; 2951 : 		gObjAddMsgSendDelay(lpTargetObj, 0, lpObj->m_Index, 100, 0);

  055d7	6a 00		 push	 0
  055d9	6a 64		 push	 100			; 00000064H
  055db	8b 45 08	 mov	 eax, DWORD PTR _lpObj$[ebp]
  055de	8b 08		 mov	 ecx, DWORD PTR [eax]
  055e0	51		 push	 ecx
  055e1	6a 00		 push	 0
  055e3	8b 55 0c	 mov	 edx, DWORD PTR _lpTargetObj$[ebp]
  055e6	52		 push	 edx
  055e7	e8 00 00 00 00	 call	 ?gObjAddMsgSendDelay@@YAXPAUOBJECTSTRUCT@@HHHH@Z ; gObjAddMsgSendDelay
  055ec	83 c4 14	 add	 esp, 20			; 00000014H

; 2952 : 		lpTargetObj->LastAttackerID = lpObj->m_Index;

  055ef	8b 45 0c	 mov	 eax, DWORD PTR _lpTargetObj$[ebp]
  055f2	8b 4d 08	 mov	 ecx, DWORD PTR _lpObj$[ebp]
  055f5	66 8b 11	 mov	 dx, WORD PTR [ecx]
  055f8	66 89 90 5e 04
	00 00		 mov	 WORD PTR [eax+1118], dx

; 2953 : 
; 2954 : 		if ( lpTargetObj->m_iCurrentAI )

  055ff	8b 45 0c	 mov	 eax, DWORD PTR _lpTargetObj$[ebp]
  05602	83 b8 78 1c 00
	00 00		 cmp	 DWORD PTR [eax+7288], 0
  05609	74 20		 je	 SHORT $LN123@Attack

; 2955 : 		{
; 2956 : 			lpTargetObj->m_Agro.IncAgro(lpObj->m_Index, AttackDamage / 50);

  0560b	8b 45 1c	 mov	 eax, DWORD PTR _AttackDamage$[ebp]
  0560e	99		 cdq
  0560f	b9 32 00 00 00	 mov	 ecx, 50			; 00000032H
  05614	f7 f9		 idiv	 ecx
  05616	50		 push	 eax
  05617	8b 55 08	 mov	 edx, DWORD PTR _lpObj$[ebp]
  0561a	8b 02		 mov	 eax, DWORD PTR [edx]
  0561c	50		 push	 eax
  0561d	8b 4d 0c	 mov	 ecx, DWORD PTR _lpTargetObj$[ebp]
  05620	81 c1 94 1c 00
	00		 add	 ecx, 7316		; 00001c94H
  05626	e8 00 00 00 00	 call	 ?IncAgro@TMonsterAIAgro@@QAEHHH@Z ; TMonsterAIAgro::IncAgro
$LN123@Attack:

; 2957 : 		}
; 2958 : 	}
; 2959 : 
; 2960 : 	BOOL selfdefense = FALSE;

  0562b	c7 85 68 fd ff
	ff 00 00 00 00	 mov	 DWORD PTR _selfdefense$[ebp], 0

; 2961 : 	lpCallObj = lpTargetObj;

  05635	8b 45 0c	 mov	 eax, DWORD PTR _lpTargetObj$[ebp]
  05638	89 45 f0	 mov	 DWORD PTR _lpCallObj$[ebp], eax

; 2962 : 	
; 2963 : 	if ( lpTargetObj->Type == OBJ_MONSTER )

  0563b	8b 45 0c	 mov	 eax, DWORD PTR _lpTargetObj$[ebp]
  0563e	0f b7 48 68	 movzx	 ecx, WORD PTR [eax+104]
  05642	83 f9 02	 cmp	 ecx, 2
  05645	75 24		 jne	 SHORT $LN121@Attack

; 2964 : 	{
; 2965 : 		if ( lpTargetObj->m_RecallMon >= 0 )

  05647	8b 45 0c	 mov	 eax, DWORD PTR _lpTargetObj$[ebp]
  0564a	83 b8 50 04 00
	00 00		 cmp	 DWORD PTR [eax+1104], 0
  05651	7c 18		 jl	 SHORT $LN121@Attack

; 2966 : 		{
; 2967 : 			lpCallObj = &gObj[lpTargetObj->m_RecallMon];

  05653	8b 45 0c	 mov	 eax, DWORD PTR _lpTargetObj$[ebp]
  05656	8b 88 50 04 00
	00		 mov	 ecx, DWORD PTR [eax+1104]
  0565c	69 c9 38 2b 00
	00		 imul	 ecx, 11064		; 00002b38H
  05662	03 0d 00 00 00
	00		 add	 ecx, DWORD PTR ?gObj@@3PAUOBJECTSTRUCT@@A ; gObj
  05668	89 4d f0	 mov	 DWORD PTR _lpCallObj$[ebp], ecx
$LN121@Attack:

; 2968 : 		}
; 2969 : 	}
; 2970 : 
; 2971 : 	if ( AttackDamage >= 1 )

  0566b	83 7d 1c 01	 cmp	 DWORD PTR _AttackDamage$[ebp], 1
  0566f	0f 8c 4c 05 00
	00		 jl	 $LN88@Attack

; 2972 : 	{
; 2973 : 		if ( lpObj->Type == OBJ_USER && lpTargetObj->Type == OBJ_USER )

  05675	8b 45 08	 mov	 eax, DWORD PTR _lpObj$[ebp]
  05678	0f b7 48 68	 movzx	 ecx, WORD PTR [eax+104]
  0567c	83 f9 01	 cmp	 ecx, 1
  0567f	0f 85 25 02 00
	00		 jne	 $LN119@Attack
  05685	8b 45 0c	 mov	 eax, DWORD PTR _lpTargetObj$[ebp]
  05688	0f b7 48 68	 movzx	 ecx, WORD PTR [eax+104]
  0568c	83 f9 01	 cmp	 ecx, 1
  0568f	0f 85 15 02 00
	00		 jne	 $LN119@Attack

; 2974 : 		{
; 2975 : 			if ( gObjDuelCheck(lpObj, lpTargetObj) )

  05695	8b 45 0c	 mov	 eax, DWORD PTR _lpTargetObj$[ebp]
  05698	50		 push	 eax
  05699	8b 4d 08	 mov	 ecx, DWORD PTR _lpObj$[ebp]
  0569c	51		 push	 ecx
  0569d	e8 00 00 00 00	 call	 ?gObjDuelCheck@@YAHPAUOBJECTSTRUCT@@0@Z ; gObjDuelCheck
  056a2	83 c4 08	 add	 esp, 8
  056a5	85 c0		 test	 eax, eax
  056a7	74 0f		 je	 SHORT $LN118@Attack

; 2976 : 			{
; 2977 : 				selfdefense = 0;

  056a9	c7 85 68 fd ff
	ff 00 00 00 00	 mov	 DWORD PTR _selfdefense$[ebp], 0
  056b3	e9 aa 01 00 00	 jmp	 $LN107@Attack
$LN118@Attack:

; 2978 : 			}
; 2979 : 			else if ( CC_MAP_RANGE(lpObj->MapNumber) || CC_MAP_RANGE(lpTargetObj->MapNumber) )

  056b8	8b 45 08	 mov	 eax, DWORD PTR _lpObj$[ebp]
  056bb	0f b6 88 49 01
	00 00		 movzx	 ecx, BYTE PTR [eax+329]
  056c2	83 f9 35	 cmp	 ecx, 53			; 00000035H
  056c5	75 0c		 jne	 SHORT $LN777@Attack
  056c7	c7 85 c8 fc ff
	ff 01 00 00 00	 mov	 DWORD PTR tv3939[ebp], 1
  056d1	eb 3f		 jmp	 SHORT $LN778@Attack
$LN777@Attack:
  056d3	8b 55 08	 mov	 edx, DWORD PTR _lpObj$[ebp]
  056d6	0f b6 82 49 01
	00 00		 movzx	 eax, BYTE PTR [edx+329]
  056dd	83 f8 12	 cmp	 eax, 18			; 00000012H
  056e0	7d 0c		 jge	 SHORT $LN775@Attack
  056e2	c7 85 c4 fc ff
	ff 00 00 00 00	 mov	 DWORD PTR tv3938[ebp], 0
  056ec	eb 18		 jmp	 SHORT $LN776@Attack
$LN775@Attack:
  056ee	8b 4d 08	 mov	 ecx, DWORD PTR _lpObj$[ebp]
  056f1	0f b6 91 49 01
	00 00		 movzx	 edx, BYTE PTR [ecx+329]
  056f8	33 c0		 xor	 eax, eax
  056fa	83 fa 17	 cmp	 edx, 23			; 00000017H
  056fd	0f 9e c0	 setle	 al
  05700	89 85 c4 fc ff
	ff		 mov	 DWORD PTR tv3938[ebp], eax
$LN776@Attack:
  05706	8b 8d c4 fc ff
	ff		 mov	 ecx, DWORD PTR tv3938[ebp]
  0570c	89 8d c8 fc ff
	ff		 mov	 DWORD PTR tv3939[ebp], ecx
$LN778@Attack:
  05712	83 bd c8 fc ff
	ff 00		 cmp	 DWORD PTR tv3939[ebp], 0
  05719	75 63		 jne	 SHORT $LN115@Attack
  0571b	8b 45 0c	 mov	 eax, DWORD PTR _lpTargetObj$[ebp]
  0571e	0f b6 88 49 01
	00 00		 movzx	 ecx, BYTE PTR [eax+329]
  05725	83 f9 35	 cmp	 ecx, 53			; 00000035H
  05728	75 0c		 jne	 SHORT $LN781@Attack
  0572a	c7 85 c8 fc ff
	ff 01 00 00 00	 mov	 DWORD PTR tv3952[ebp], 1
  05734	eb 3f		 jmp	 SHORT $LN782@Attack
$LN781@Attack:
  05736	8b 55 0c	 mov	 edx, DWORD PTR _lpTargetObj$[ebp]
  05739	0f b6 82 49 01
	00 00		 movzx	 eax, BYTE PTR [edx+329]
  05740	83 f8 12	 cmp	 eax, 18			; 00000012H
  05743	7d 0c		 jge	 SHORT $LN779@Attack
  05745	c7 85 c4 fc ff
	ff 00 00 00 00	 mov	 DWORD PTR tv3951[ebp], 0
  0574f	eb 18		 jmp	 SHORT $LN780@Attack
$LN779@Attack:
  05751	8b 4d 0c	 mov	 ecx, DWORD PTR _lpTargetObj$[ebp]
  05754	0f b6 91 49 01
	00 00		 movzx	 edx, BYTE PTR [ecx+329]
  0575b	33 c0		 xor	 eax, eax
  0575d	83 fa 17	 cmp	 edx, 23			; 00000017H
  05760	0f 9e c0	 setle	 al
  05763	89 85 c4 fc ff
	ff		 mov	 DWORD PTR tv3951[ebp], eax
$LN780@Attack:
  05769	8b 8d c4 fc ff
	ff		 mov	 ecx, DWORD PTR tv3951[ebp]
  0576f	89 8d c8 fc ff
	ff		 mov	 DWORD PTR tv3952[ebp], ecx
$LN782@Attack:
  05775	83 bd c8 fc ff
	ff 00		 cmp	 DWORD PTR tv3952[ebp], 0
  0577c	74 0f		 je	 SHORT $LN116@Attack
$LN115@Attack:

; 2980 : 			{
; 2981 : 				selfdefense = 0;

  0577e	c7 85 68 fd ff
	ff 00 00 00 00	 mov	 DWORD PTR _selfdefense$[ebp], 0
  05788	e9 d5 00 00 00	 jmp	 $LN107@Attack
$LN116@Attack:

; 2982 : 			}
; 2983 : 			else if ( IT_MAP_RANGE(lpObj->MapNumber) || IT_MAP_RANGE(lpTargetObj->MapNumber) ) //season 2.5 add-on

  0578d	8b 45 08	 mov	 eax, DWORD PTR _lpObj$[ebp]
  05790	0f b6 88 49 01
	00 00		 movzx	 ecx, BYTE PTR [eax+329]
  05797	83 f9 2d	 cmp	 ecx, 45			; 0000002dH
  0579a	7d 0c		 jge	 SHORT $LN783@Attack
  0579c	c7 85 c8 fc ff
	ff 00 00 00 00	 mov	 DWORD PTR tv3961[ebp], 0
  057a6	eb 18		 jmp	 SHORT $LN784@Attack
$LN783@Attack:
  057a8	8b 55 08	 mov	 edx, DWORD PTR _lpObj$[ebp]
  057ab	0f b6 82 49 01
	00 00		 movzx	 eax, BYTE PTR [edx+329]
  057b2	33 c9		 xor	 ecx, ecx
  057b4	83 f8 32	 cmp	 eax, 50			; 00000032H
  057b7	0f 9e c1	 setle	 cl
  057ba	89 8d c8 fc ff
	ff		 mov	 DWORD PTR tv3961[ebp], ecx
$LN784@Attack:
  057c0	83 bd c8 fc ff
	ff 00		 cmp	 DWORD PTR tv3961[ebp], 0
  057c7	75 3c		 jne	 SHORT $LN112@Attack
  057c9	8b 45 0c	 mov	 eax, DWORD PTR _lpTargetObj$[ebp]
  057cc	0f b6 88 49 01
	00 00		 movzx	 ecx, BYTE PTR [eax+329]
  057d3	83 f9 2d	 cmp	 ecx, 45			; 0000002dH
  057d6	7d 0c		 jge	 SHORT $LN785@Attack
  057d8	c7 85 c8 fc ff
	ff 00 00 00 00	 mov	 DWORD PTR tv3970[ebp], 0
  057e2	eb 18		 jmp	 SHORT $LN786@Attack
$LN785@Attack:
  057e4	8b 55 0c	 mov	 edx, DWORD PTR _lpTargetObj$[ebp]
  057e7	0f b6 82 49 01
	00 00		 movzx	 eax, BYTE PTR [edx+329]
  057ee	33 c9		 xor	 ecx, ecx
  057f0	83 f8 32	 cmp	 eax, 50			; 00000032H
  057f3	0f 9e c1	 setle	 cl
  057f6	89 8d c8 fc ff
	ff		 mov	 DWORD PTR tv3970[ebp], ecx
$LN786@Attack:
  057fc	83 bd c8 fc ff
	ff 00		 cmp	 DWORD PTR tv3970[ebp], 0
  05803	74 0c		 je	 SHORT $LN113@Attack
$LN112@Attack:

; 2984 : 			{
; 2985 : 				selfdefense = 0;

  05805	c7 85 68 fd ff
	ff 00 00 00 00	 mov	 DWORD PTR _selfdefense$[ebp], 0
  0580f	eb 51		 jmp	 SHORT $LN107@Attack
$LN113@Attack:

; 2986 : 			}
; 2987 : 			else if( gGENS && gGensSystem.IsMapBattleZone(lpObj->MapNumber) || gGensSystem.IsMapBattleZone(lpTargetObj->MapNumber) )

  05811	83 3d 00 00 00
	00 00		 cmp	 DWORD PTR ?gGENS@@3HA, 0 ; gGENS
  05818	74 19		 je	 SHORT $LN108@Attack
  0581a	8b 45 08	 mov	 eax, DWORD PTR _lpObj$[ebp]
  0581d	0f b6 88 49 01
	00 00		 movzx	 ecx, BYTE PTR [eax+329]
  05824	51		 push	 ecx
  05825	b9 00 00 00 00	 mov	 ecx, OFFSET ?gGensSystem@@3VGensSystem@@A ; gGensSystem
  0582a	e8 00 00 00 00	 call	 ?IsMapBattleZone@GensSystem@@QAEHH@Z ; GensSystem::IsMapBattleZone
  0582f	85 c0		 test	 eax, eax
  05831	75 19		 jne	 SHORT $LN109@Attack
$LN108@Attack:
  05833	8b 45 0c	 mov	 eax, DWORD PTR _lpTargetObj$[ebp]
  05836	0f b6 88 49 01
	00 00		 movzx	 ecx, BYTE PTR [eax+329]
  0583d	51		 push	 ecx
  0583e	b9 00 00 00 00	 mov	 ecx, OFFSET ?gGensSystem@@3VGensSystem@@A ; gGensSystem
  05843	e8 00 00 00 00	 call	 ?IsMapBattleZone@GensSystem@@QAEHH@Z ; GensSystem::IsMapBattleZone
  05848	85 c0		 test	 eax, eax
  0584a	74 0c		 je	 SHORT $LN110@Attack
$LN109@Attack:

; 2988 : 			{
; 2989 : 				selfdefense = 0;

  0584c	c7 85 68 fd ff
	ff 00 00 00 00	 mov	 DWORD PTR _selfdefense$[ebp], 0

; 2990 : 			}
; 2991 : 			else

  05856	eb 0a		 jmp	 SHORT $LN107@Attack
$LN110@Attack:

; 2992 : 			{
; 2993 : 				selfdefense = 1;

  05858	c7 85 68 fd ff
	ff 01 00 00 00	 mov	 DWORD PTR _selfdefense$[ebp], 1
$LN107@Attack:

; 2994 : 			}
; 2995 : 			if ( gObjGetRelationShip(lpObj, lpTargetObj) == 2 )

  05862	8b 45 0c	 mov	 eax, DWORD PTR _lpTargetObj$[ebp]
  05865	50		 push	 eax
  05866	8b 4d 08	 mov	 ecx, DWORD PTR _lpObj$[ebp]
  05869	51		 push	 ecx
  0586a	e8 00 00 00 00	 call	 ?gObjGetRelationShip@@YAHPAUOBJECTSTRUCT@@0@Z ; gObjGetRelationShip
  0586f	83 c4 08	 add	 esp, 8
  05872	83 f8 02	 cmp	 eax, 2
  05875	75 0a		 jne	 SHORT $LN106@Attack

; 2996 : 			{
; 2997 : 				selfdefense = FALSE;

  05877	c7 85 68 fd ff
	ff 00 00 00 00	 mov	 DWORD PTR _selfdefense$[ebp], 0
$LN106@Attack:

; 2998 : 			}
; 2999 : //#if(GS_CASTLE==1)
; 3000 : 			if ( g_CastleSiege.GetCastleState() == CASTLESIEGE_STATE_STARTSIEGE)

  05881	b9 00 00 00 00	 mov	 ecx, OFFSET ?g_CastleSiege@@3VCCastleSiege@@A ; g_CastleSiege
  05886	e8 00 00 00 00	 call	 ?GetCastleState@CCastleSiege@@QAEHXZ ; CCastleSiege::GetCastleState
  0588b	83 f8 07	 cmp	 eax, 7
  0588e	75 18		 jne	 SHORT $LN104@Attack

; 3001 : 			{
; 3002 : 				if( lpObj->m_btCsJoinSide > 0 )

  05890	8b 45 08	 mov	 eax, DWORD PTR _lpObj$[ebp]
  05893	0f b6 88 02 1c
	00 00		 movzx	 ecx, BYTE PTR [eax+7170]
  0589a	85 c9		 test	 ecx, ecx
  0589c	7e 0a		 jle	 SHORT $LN104@Attack

; 3003 : 				{
; 3004 : 					selfdefense = FALSE;

  0589e	c7 85 68 fd ff
	ff 00 00 00 00	 mov	 DWORD PTR _selfdefense$[ebp], 0
$LN104@Attack:

; 3005 : 				}
; 3006 : 			}
; 3007 : //#endif
; 3008 : 		}

  058a8	eb 2e		 jmp	 SHORT $LN101@Attack
$LN119@Attack:

; 3009 : 		else if ( lpTargetObj->Type == OBJ_MONSTER && lpObj->Type == OBJ_USER )

  058aa	8b 45 0c	 mov	 eax, DWORD PTR _lpTargetObj$[ebp]
  058ad	0f b7 48 68	 movzx	 ecx, WORD PTR [eax+104]
  058b1	83 f9 02	 cmp	 ecx, 2
  058b4	75 22		 jne	 SHORT $LN101@Attack
  058b6	8b 45 08	 mov	 eax, DWORD PTR _lpObj$[ebp]
  058b9	0f b7 48 68	 movzx	 ecx, WORD PTR [eax+104]
  058bd	83 f9 01	 cmp	 ecx, 1
  058c0	75 16		 jne	 SHORT $LN101@Attack

; 3010 : 		{
; 3011 : 			if ( lpTargetObj->m_RecallMon >= 0 )

  058c2	8b 45 0c	 mov	 eax, DWORD PTR _lpTargetObj$[ebp]
  058c5	83 b8 50 04 00
	00 00		 cmp	 DWORD PTR [eax+1104], 0
  058cc	7c 0a		 jl	 SHORT $LN101@Attack

; 3012 : 			{
; 3013 : 				selfdefense = TRUE;

  058ce	c7 85 68 fd ff
	ff 01 00 00 00	 mov	 DWORD PTR _selfdefense$[ebp], 1
$LN101@Attack:

; 3014 : 			}
; 3015 : 		}
; 3016 : 
; 3017 : 		if ( lpTargetObj->Type == OBJ_USER )

  058d8	8b 45 0c	 mov	 eax, DWORD PTR _lpTargetObj$[ebp]
  058db	0f b7 48 68	 movzx	 ecx, WORD PTR [eax+104]
  058df	83 f9 01	 cmp	 ecx, 1
  058e2	0f 85 6c 02 00
	00		 jne	 $LN95@Attack

; 3018 : 		{
; 3019 : 			gObjArmorRandomDurDown(lpTargetObj, lpObj);

  058e8	8b 45 08	 mov	 eax, DWORD PTR _lpObj$[ebp]
  058eb	50		 push	 eax
  058ec	8b 4d 0c	 mov	 ecx, DWORD PTR _lpTargetObj$[ebp]
  058ef	51		 push	 ecx
  058f0	e8 00 00 00 00	 call	 ?gObjArmorRandomDurDown@@YAXPAUOBJECTSTRUCT@@0@Z ; gObjArmorRandomDurDown
  058f5	83 c4 08	 add	 esp, 8

; 3020 : 
; 3021 : 			if( skill == 333 )

  058f8	81 7d d8 4d 01
	00 00		 cmp	 DWORD PTR _skill$[ebp], 333 ; 0000014dH
  058ff	0f 85 4f 02 00
	00		 jne	 $LN95@Attack

; 3022 : 			{
; 3023 : 				float fDurDownRate = g_MasterSkillSystem.GetMasterSkillValue(MagicDamageC.SkillGet(lpMagic->m_Skill),lpMagic->m_Level);

  05905	8b 45 10	 mov	 eax, DWORD PTR _lpMagic$[ebp]
  05908	0f b6 48 04	 movzx	 ecx, BYTE PTR [eax+4]
  0590c	51		 push	 ecx
  0590d	8b 55 10	 mov	 edx, DWORD PTR _lpMagic$[ebp]
  05910	8b 42 08	 mov	 eax, DWORD PTR [edx+8]
  05913	50		 push	 eax
  05914	b9 00 00 00 00	 mov	 ecx, OFFSET ?MagicDamageC@@3VCMagicDamage@@A ; MagicDamageC
  05919	e8 00 00 00 00	 call	 ?SkillGet@CMagicDamage@@QAEHH@Z ; CMagicDamage::SkillGet
  0591e	50		 push	 eax
  0591f	b9 00 00 00 00	 mov	 ecx, OFFSET ?g_MasterSkillSystem@@3VCMasterLevelSkillTreeSystem@@A ; g_MasterSkillSystem
  05924	e8 00 00 00 00	 call	 ?GetMasterSkillValue@CMasterLevelSkillTreeSystem@@QAEMHH@Z ; CMasterLevelSkillTreeSystem::GetMasterSkillValue
  05929	d9 9d 64 fd ff
	ff		 fstp	 DWORD PTR _fDurDownRate$240744[ebp]

; 3024 : 
; 3025 : 				if( rand()%100 < fDurDownRate )

  0592f	e8 00 00 00 00	 call	 _rand
  05934	99		 cdq
  05935	b9 64 00 00 00	 mov	 ecx, 100		; 00000064H
  0593a	f7 f9		 idiv	 ecx
  0593c	89 95 c8 fc ff
	ff		 mov	 DWORD PTR tv7624[ebp], edx
  05942	db 85 c8 fc ff
	ff		 fild	 DWORD PTR tv7624[ebp]
  05948	d9 85 64 fd ff
	ff		 fld	 DWORD PTR _fDurDownRate$240744[ebp]
  0594e	de d9		 fcompp
  05950	df e0		 fnstsw	 ax
  05952	f6 c4 41	 test	 ah, 65			; 00000041H
  05955	0f 85 f9 01 00
	00		 jne	 $LN95@Attack

; 3026 : 				{
; 3027 : 					if(lpObj->m_btCsJoinSide == 0 || lpObj->m_btCsJoinSide != lpTargetObj->m_btCsJoinSide)

  0595b	8b 45 08	 mov	 eax, DWORD PTR _lpObj$[ebp]
  0595e	0f b6 88 02 1c
	00 00		 movzx	 ecx, BYTE PTR [eax+7170]
  05965	85 c9		 test	 ecx, ecx
  05967	74 1c		 je	 SHORT $LN96@Attack
  05969	8b 45 08	 mov	 eax, DWORD PTR _lpObj$[ebp]
  0596c	0f b6 88 02 1c
	00 00		 movzx	 ecx, BYTE PTR [eax+7170]
  05973	8b 55 0c	 mov	 edx, DWORD PTR _lpTargetObj$[ebp]
  05976	0f b6 82 02 1c
	00 00		 movzx	 eax, BYTE PTR [edx+7170]
  0597d	3b c8		 cmp	 ecx, eax
  0597f	0f 84 cf 01 00
	00		 je	 $LN95@Attack
$LN96@Attack:

; 3028 : 					{
; 3029 : 						int item_num[5];
; 3030 : 						item_num[0] = 2;

  05985	c7 85 50 fd ff
	ff 02 00 00 00	 mov	 DWORD PTR _item_num$240748[ebp], 2

; 3031 : 						item_num[1] = 3;

  0598f	c7 85 54 fd ff
	ff 03 00 00 00	 mov	 DWORD PTR _item_num$240748[ebp+4], 3

; 3032 : 						item_num[2] = 4;

  05999	c7 85 58 fd ff
	ff 04 00 00 00	 mov	 DWORD PTR _item_num$240748[ebp+8], 4

; 3033 : 						item_num[3] = 5;

  059a3	c7 85 5c fd ff
	ff 05 00 00 00	 mov	 DWORD PTR _item_num$240748[ebp+12], 5

; 3034 : 						item_num[4] = 6;

  059ad	c7 85 60 fd ff
	ff 06 00 00 00	 mov	 DWORD PTR _item_num$240748[ebp+16], 6

; 3035 : 						int iEquipmentPos = rand()%5;	// Select and Armor

  059b7	e8 00 00 00 00	 call	 _rand
  059bc	99		 cdq
  059bd	b9 05 00 00 00	 mov	 ecx, 5
  059c2	f7 f9		 idiv	 ecx
  059c4	89 95 4c fd ff
	ff		 mov	 DWORD PTR _iEquipmentPos$240749[ebp], edx

; 3036 : 						CItem * lpEquipment = &lpTargetObj->pInventory[item_num[iEquipmentPos]];

  059ca	8b 85 4c fd ff
	ff		 mov	 eax, DWORD PTR _iEquipmentPos$240749[ebp]
  059d0	8b 8c 85 50 fd
	ff ff		 mov	 ecx, DWORD PTR _item_num$240748[ebp+eax*4]
  059d7	69 c9 d4 00 00
	00		 imul	 ecx, 212		; 000000d4H
  059dd	8b 55 0c	 mov	 edx, DWORD PTR _lpTargetObj$[ebp]
  059e0	03 8a 24 0e 00
	00		 add	 ecx, DWORD PTR [edx+3620]
  059e6	89 8d 48 fd ff
	ff		 mov	 DWORD PTR _lpEquipment$240750[ebp], ecx

; 3037 : 
; 3038 : 						if ( lpEquipment && lpEquipment->IsItem() )

  059ec	0f 84 62 01 00
	00		 je	 $LN95@Attack
  059f2	8b 8d 48 fd ff
	ff		 mov	 ecx, DWORD PTR _lpEquipment$240750[ebp]
  059f8	e8 00 00 00 00	 call	 ?IsItem@CItem@@QAEHXZ	; CItem::IsItem
  059fd	85 c0		 test	 eax, eax
  059ff	0f 84 4f 01 00
	00		 je	 $LN95@Attack

; 3039 : 						{
; 3040 : 							float iDurDecValue = 0;

  05a05	d9 ee		 fldz
  05a07	d9 9d 44 fd ff
	ff		 fstp	 DWORD PTR _iDurDecValue$240752[ebp]

; 3041 : 
; 3042 : 							if( lpObj->m_MPSkillOpt.MpsDownDur1 != 0.0f )

  05a0d	8b 45 08	 mov	 eax, DWORD PTR _lpObj$[ebp]
  05a10	d9 80 44 26 00
	00		 fld	 DWORD PTR [eax+9796]
  05a16	d9 ee		 fldz
  05a18	da e9		 fucompp
  05a1a	df e0		 fnstsw	 ax
  05a1c	f6 c4 44	 test	 ah, 68			; 00000044H
  05a1f	7b 28		 jnp	 SHORT $LN94@Attack

; 3043 : 							{
; 3044 : 								iDurDecValue += lpObj->m_MPSkillOpt.btMpsDownDur1Level/5.0f;

  05a21	8b 45 08	 mov	 eax, DWORD PTR _lpObj$[ebp]
  05a24	0f b6 88 48 26
	00 00		 movzx	 ecx, BYTE PTR [eax+9800]
  05a2b	89 8d c8 fc ff
	ff		 mov	 DWORD PTR tv7649[ebp], ecx
  05a31	db 85 c8 fc ff
	ff		 fild	 DWORD PTR tv7649[ebp]
  05a37	dc 35 00 00 00
	00		 fdiv	 QWORD PTR __real@4014000000000000
  05a3d	d8 85 44 fd ff
	ff		 fadd	 DWORD PTR _iDurDecValue$240752[ebp]
  05a43	d9 9d 44 fd ff
	ff		 fstp	 DWORD PTR _iDurDecValue$240752[ebp]
$LN94@Attack:

; 3045 : 							}
; 3046 : 
; 3047 : 							if( iDurDecValue == 0.0f )

  05a49	d9 85 44 fd ff
	ff		 fld	 DWORD PTR _iDurDecValue$240752[ebp]
  05a4f	d9 ee		 fldz
  05a51	da e9		 fucompp
  05a53	df e0		 fnstsw	 ax
  05a55	f6 c4 44	 test	 ah, 68			; 00000044H
  05a58	7a 08		 jp	 SHORT $LN93@Attack

; 3048 : 								iDurDecValue = 1.0f;

  05a5a	d9 e8		 fld1
  05a5c	d9 9d 44 fd ff
	ff		 fstp	 DWORD PTR _iDurDecValue$240752[ebp]
$LN93@Attack:

; 3049 : 
; 3050 : 							int damagemin = lpEquipment->m_BaseDurability/100.0f*(10-iDurDecValue);

  05a62	8b 85 48 fd ff
	ff		 mov	 eax, DWORD PTR _lpEquipment$240750[ebp]
  05a68	d9 40 2c	 fld	 DWORD PTR [eax+44]
  05a6b	dc 35 00 00 00
	00		 fdiv	 QWORD PTR __real@4059000000000000
  05a71	d9 85 44 fd ff
	ff		 fld	 DWORD PTR _iDurDecValue$240752[ebp]
  05a77	dc 2d 00 00 00
	00		 fsubr	 QWORD PTR __real@4024000000000000
  05a7d	de c9		 fmulp	 ST(1), ST(0)
  05a7f	e8 00 00 00 00	 call	 __ftol2_sse
  05a84	89 85 40 fd ff
	ff		 mov	 DWORD PTR _damagemin$240755[ebp], eax

; 3051 : 
; 3052 : 							int iDurEquipment = lpEquipment->m_Durability - damagemin;

  05a8a	db 85 40 fd ff
	ff		 fild	 DWORD PTR _damagemin$240755[ebp]
  05a90	8b 85 48 fd ff
	ff		 mov	 eax, DWORD PTR _lpEquipment$240750[ebp]
  05a96	d8 68 24	 fsubr	 DWORD PTR [eax+36]
  05a99	e8 00 00 00 00	 call	 __ftol2_sse
  05a9e	89 85 3c fd ff
	ff		 mov	 DWORD PTR _iDurEquipment$240756[ebp], eax

; 3053 : 
; 3054 : 							/*for(int iBuffIndex = 0; iBuffIndex < lpObj->btEffectCount; iBuffIndex++)
; 3055 : 							{
; 3056 : 								if( lpObj->pEffectInfo[iBuffIndex].btEffectNum == BUFF_TALISMAN_ITEMPROTECT )
; 3057 : 								{
; 3058 : 									iDurEquipment = lpEquipment->m_Durability;
; 3059 : 									break;
; 3060 : 								}
; 3061 : 							}*/
; 3062 : 
; 3063 : #ifdef LUCKYITEM
; 3064 : 							if( g_LuckyItemManager.IsLuckyItemEquipment(lpEquipment->m_Type) )

  05aa4	8b 85 48 fd ff
	ff		 mov	 eax, DWORD PTR _lpEquipment$240750[ebp]
  05aaa	0f bf 48 06	 movsx	 ecx, WORD PTR [eax+6]
  05aae	51		 push	 ecx
  05aaf	b9 00 00 00 00	 mov	 ecx, OFFSET ?g_LuckyItemManager@@3ULuckyItemManager@@A ; g_LuckyItemManager
  05ab4	e8 00 00 00 00	 call	 ?IsLuckyItemEquipment@LuckyItemManager@@QAEHH@Z ; LuckyItemManager::IsLuckyItemEquipment
  05ab9	85 c0		 test	 eax, eax
  05abb	74 14		 je	 SHORT $LN92@Attack

; 3065 : 							{
; 3066 : 								iDurEquipment = lpEquipment->m_Durability;

  05abd	8b 85 48 fd ff
	ff		 mov	 eax, DWORD PTR _lpEquipment$240750[ebp]
  05ac3	d9 40 24	 fld	 DWORD PTR [eax+36]
  05ac6	e8 00 00 00 00	 call	 __ftol2_sse
  05acb	89 85 3c fd ff
	ff		 mov	 DWORD PTR _iDurEquipment$240756[ebp], eax
$LN92@Attack:

; 3067 : 							}
; 3068 : #endif
; 3069 : 
; 3070 : 							lpEquipment->m_Durability = (float)iDurEquipment;

  05ad1	db 85 3c fd ff
	ff		 fild	 DWORD PTR _iDurEquipment$240756[ebp]
  05ad7	8b 85 48 fd ff
	ff		 mov	 eax, DWORD PTR _lpEquipment$240750[ebp]
  05add	d9 58 24	 fstp	 DWORD PTR [eax+36]

; 3071 : 
; 3072 : 							if ( lpEquipment->m_Durability < 0.0f )

  05ae0	8b 85 48 fd ff
	ff		 mov	 eax, DWORD PTR _lpEquipment$240750[ebp]
  05ae6	d9 40 24	 fld	 DWORD PTR [eax+36]
  05ae9	dc 1d 00 00 00
	00		 fcomp	 QWORD PTR __real@0000000000000000
  05aef	df e0		 fnstsw	 ax
  05af1	f6 c4 05	 test	 ah, 5
  05af4	7a 0b		 jp	 SHORT $LN91@Attack

; 3073 : 							{
; 3074 : 								lpEquipment->m_Durability = 0.0f;

  05af6	8b 85 48 fd ff
	ff		 mov	 eax, DWORD PTR _lpEquipment$240750[ebp]
  05afc	d9 ee		 fldz
  05afe	d9 58 24	 fstp	 DWORD PTR [eax+36]
$LN91@Attack:

; 3075 : 							}
; 3076 : 
; 3077 : 							GCItemDurSend(lpTargetObj->m_Index, iEquipmentPos, (BYTE)lpEquipment->m_Durability, 0);

  05b01	6a 00		 push	 0
  05b03	8b 85 48 fd ff
	ff		 mov	 eax, DWORD PTR _lpEquipment$240750[ebp]
  05b09	d9 40 24	 fld	 DWORD PTR [eax+36]
  05b0c	d9 bd ca fc ff
	ff		 fnstcw	 WORD PTR tv7685[ebp]
  05b12	0f b7 85 ca fc
	ff ff		 movzx	 eax, WORD PTR tv7685[ebp]
  05b19	0d 00 0c 00 00	 or	 eax, 3072		; 00000c00H
  05b1e	89 85 c4 fc ff
	ff		 mov	 DWORD PTR tv7688[ebp], eax
  05b24	d9 ad c4 fc ff
	ff		 fldcw	 WORD PTR tv7688[ebp]
  05b2a	db 9d c0 fc ff
	ff		 fistp	 DWORD PTR tv7690[ebp]
  05b30	d9 ad ca fc ff
	ff		 fldcw	 WORD PTR tv7685[ebp]
  05b36	0f b6 8d c0 fc
	ff ff		 movzx	 ecx, BYTE PTR tv7690[ebp]
  05b3d	51		 push	 ecx
  05b3e	0f b6 95 4c fd
	ff ff		 movzx	 edx, BYTE PTR _iEquipmentPos$240749[ebp]
  05b45	52		 push	 edx
  05b46	8b 45 0c	 mov	 eax, DWORD PTR _lpTargetObj$[ebp]
  05b49	8b 08		 mov	 ecx, DWORD PTR [eax]
  05b4b	51		 push	 ecx
  05b4c	e8 00 00 00 00	 call	 ?GCItemDurSend@@YAXHEEE@Z ; GCItemDurSend
  05b51	83 c4 10	 add	 esp, 16			; 00000010H
$LN95@Attack:

; 3078 : 						}
; 3079 : 					}
; 3080 : 				}
; 3081 : 			}
; 3082 : 
; 3083 : 		}
; 3084 : 
; 3085 : 		if(gObjSearchActiveEffect(lpTargetObj, AT_ICE_ARROW) == 1)

  05b54	6a 39		 push	 57			; 00000039H
  05b56	8b 45 0c	 mov	 eax, DWORD PTR _lpTargetObj$[ebp]
  05b59	50		 push	 eax
  05b5a	e8 00 00 00 00	 call	 ?gObjSearchActiveEffect@@YAEPAUOBJECTSTRUCT@@H@Z ; gObjSearchActiveEffect
  05b5f	83 c4 08	 add	 esp, 8
  05b62	0f b6 c8	 movzx	 ecx, al
  05b65	83 f9 01	 cmp	 ecx, 1
  05b68	75 33		 jne	 SHORT $LN89@Attack

; 3086 : 		{
; 3087 : 			gObjUpdateSpecificBuffEffectDuration(lpTargetObj, AT_ICE_ARROW, -1);

  05b6a	6a ff		 push	 -1
  05b6c	6a 39		 push	 57			; 00000039H
  05b6e	8b 45 0c	 mov	 eax, DWORD PTR _lpTargetObj$[ebp]
  05b71	50		 push	 eax
  05b72	e8 00 00 00 00	 call	 ?gObjUpdateSpecificBuffEffectDuration@@YAEPAUOBJECTSTRUCT@@HH@Z ; gObjUpdateSpecificBuffEffectDuration
  05b77	83 c4 0c	 add	 esp, 12			; 0000000cH

; 3088 : 
; 3089 : 			if(gObjSearchActiveEffect(lpTargetObj, AT_ICE_ARROW) == 0)

  05b7a	6a 39		 push	 57			; 00000039H
  05b7c	8b 45 0c	 mov	 eax, DWORD PTR _lpTargetObj$[ebp]
  05b7f	50		 push	 eax
  05b80	e8 00 00 00 00	 call	 ?gObjSearchActiveEffect@@YAEPAUOBJECTSTRUCT@@H@Z ; gObjSearchActiveEffect
  05b85	83 c4 08	 add	 esp, 8
  05b88	0f b6 c8	 movzx	 ecx, al
  05b8b	85 c9		 test	 ecx, ecx
  05b8d	75 0e		 jne	 SHORT $LN89@Attack

; 3090 : 			{
; 3091 : 				GCMagicCancelSend(lpTargetObj, 51);

  05b8f	6a 33		 push	 51			; 00000033H
  05b91	8b 45 0c	 mov	 eax, DWORD PTR _lpTargetObj$[ebp]
  05b94	50		 push	 eax
  05b95	e8 00 00 00 00	 call	 ?GCMagicCancelSend@@YAXPAUOBJECTSTRUCT@@G@Z ; GCMagicCancelSend
  05b9a	83 c4 08	 add	 esp, 8
$LN89@Attack:

; 3092 : 			}
; 3093 : 		}
; 3094 : 
; 3095 : 		if(gObjSearchActiveEffect(lpTargetObj, AT_SLEEP) == 1)

  05b9d	6a 48		 push	 72			; 00000048H
  05b9f	8b 45 0c	 mov	 eax, DWORD PTR _lpTargetObj$[ebp]
  05ba2	50		 push	 eax
  05ba3	e8 00 00 00 00	 call	 ?gObjSearchActiveEffect@@YAEPAUOBJECTSTRUCT@@H@Z ; gObjSearchActiveEffect
  05ba8	83 c4 08	 add	 esp, 8
  05bab	0f b6 c8	 movzx	 ecx, al
  05bae	83 f9 01	 cmp	 ecx, 1
  05bb1	75 0e		 jne	 SHORT $LN88@Attack

; 3096 : 		{
; 3097 : 			gObjRemoveBuffEffect(lpTargetObj, AT_SLEEP);

  05bb3	6a 48		 push	 72			; 00000048H
  05bb5	8b 45 0c	 mov	 eax, DWORD PTR _lpTargetObj$[ebp]
  05bb8	50		 push	 eax
  05bb9	e8 00 00 00 00	 call	 ?gObjRemoveBuffEffect@@YAEPAUOBJECTSTRUCT@@H@Z ; gObjRemoveBuffEffect
  05bbe	83 c4 08	 add	 esp, 8
$LN88@Attack:

; 3098 : 		}
; 3099 : 	}
; 3100 : 
; 3101 : 	if(lpObj->PartyNumber >= 0) //Season 2.5 add-on

  05bc1	8b 45 08	 mov	 eax, DWORD PTR _lpObj$[ebp]
  05bc4	83 b8 2c 04 00
	00 00		 cmp	 DWORD PTR [eax+1068], 0
  05bcb	7c 2a		 jl	 SHORT $LN85@Attack

; 3102 : 	{
; 3103 : 		if(lpCallObj->PartyNumber >= 0)

  05bcd	8b 45 f0	 mov	 eax, DWORD PTR _lpCallObj$[ebp]
  05bd0	83 b8 2c 04 00
	00 00		 cmp	 DWORD PTR [eax+1068], 0
  05bd7	7c 1e		 jl	 SHORT $LN85@Attack

; 3104 : 		{
; 3105 : 			if(lpObj->PartyNumber == lpCallObj->PartyNumber)

  05bd9	8b 45 08	 mov	 eax, DWORD PTR _lpObj$[ebp]
  05bdc	8b 4d f0	 mov	 ecx, DWORD PTR _lpCallObj$[ebp]
  05bdf	8b 90 2c 04 00
	00		 mov	 edx, DWORD PTR [eax+1068]
  05be5	3b 91 2c 04 00
	00		 cmp	 edx, DWORD PTR [ecx+1068]
  05beb	75 0a		 jne	 SHORT $LN85@Attack

; 3106 : 			{
; 3107 : 				selfdefense = FALSE;

  05bed	c7 85 68 fd ff
	ff 00 00 00 00	 mov	 DWORD PTR _selfdefense$[ebp], 0
$LN85@Attack:

; 3108 : 			}
; 3109 : 		}
; 3110 : 
; 3111 : 	}
; 3112 : 
; 3113 : 	if ( selfdefense == TRUE && bDamageReflect == FALSE )

  05bf7	83 bd 68 fd ff
	ff 01		 cmp	 DWORD PTR _selfdefense$[ebp], 1
  05bfe	0f 85 8b 00 00
	00		 jne	 $LN80@Attack
  05c04	83 7d ac 00	 cmp	 DWORD PTR _bDamageReflect$[ebp], 0
  05c08	0f 85 81 00 00
	00		 jne	 $LN80@Attack

; 3114 : 	{
; 3115 : 		if ( !gObjTargetGuildWarCheck(lpObj, lpCallObj) )

  05c0e	8b 45 f0	 mov	 eax, DWORD PTR _lpCallObj$[ebp]
  05c11	50		 push	 eax
  05c12	8b 4d 08	 mov	 ecx, DWORD PTR _lpObj$[ebp]
  05c15	51		 push	 ecx
  05c16	e8 00 00 00 00	 call	 ?gObjTargetGuildWarCheck@@YAHPAUOBJECTSTRUCT@@0@Z ; gObjTargetGuildWarCheck
  05c1b	83 c4 08	 add	 esp, 8
  05c1e	85 c0		 test	 eax, eax
  05c20	75 6d		 jne	 SHORT $LN80@Attack

; 3116 : 		{
; 3117 : 			if(ExConfig.PvP.ExPkPartySystem && lpCallObj->PartyNumber >= 0) //Season 2.5 add-on

  05c22	83 3d d4 08 00
	00 00		 cmp	 DWORD PTR ?ExConfig@@3VcExConfigs@@A+2260, 0
  05c29	74 52		 je	 SHORT $LN82@Attack
  05c2b	8b 45 f0	 mov	 eax, DWORD PTR _lpCallObj$[ebp]
  05c2e	83 b8 2c 04 00
	00 00		 cmp	 DWORD PTR [eax+1068], 0
  05c35	7c 46		 jl	 SHORT $LN82@Attack

; 3118 : 			{
; 3119 : 				int number = 0;

  05c37	c7 85 38 fd ff
	ff 00 00 00 00	 mov	 DWORD PTR _number$240770[ebp], 0

; 3120 : 				int partynum = lpCallObj->PartyNumber;

  05c41	8b 45 f0	 mov	 eax, DWORD PTR _lpCallObj$[ebp]
  05c44	8b 88 2c 04 00
	00		 mov	 ecx, DWORD PTR [eax+1068]
  05c4a	89 8d 34 fd ff
	ff		 mov	 DWORD PTR _partynum$240771[ebp], ecx

; 3121 : 
; 3122 : 				if( (gParty.GetPkLevel(partynum)) < 5)

  05c50	8b 85 34 fd ff
	ff		 mov	 eax, DWORD PTR _partynum$240771[ebp]
  05c56	50		 push	 eax
  05c57	b9 00 00 00 00	 mov	 ecx, OFFSET ?gParty@@3VPartyClass@@A ; gParty
  05c5c	e8 00 00 00 00	 call	 ?GetPkLevel@PartyClass@@QAEDH@Z ; PartyClass::GetPkLevel
  05c61	0f be c8	 movsx	 ecx, al
  05c64	83 f9 05	 cmp	 ecx, 5
  05c67	7d 12		 jge	 SHORT $LN81@Attack

; 3123 : 				{
; 3124 : 					gObjCheckSelfDefense(lpObj, lpCallObj->m_Index);

  05c69	8b 45 f0	 mov	 eax, DWORD PTR _lpCallObj$[ebp]
  05c6c	8b 08		 mov	 ecx, DWORD PTR [eax]
  05c6e	51		 push	 ecx
  05c6f	8b 55 08	 mov	 edx, DWORD PTR _lpObj$[ebp]
  05c72	52		 push	 edx
  05c73	e8 00 00 00 00	 call	 ?gObjCheckSelfDefense@@YAXPAUOBJECTSTRUCT@@H@Z ; gObjCheckSelfDefense
  05c78	83 c4 08	 add	 esp, 8
$LN81@Attack:

; 3125 : 				}
; 3126 : 			}
; 3127 : 			else

  05c7b	eb 12		 jmp	 SHORT $LN80@Attack
$LN82@Attack:

; 3128 : 			{
; 3129 : 				gObjCheckSelfDefense(lpObj, lpCallObj->m_Index);

  05c7d	8b 45 f0	 mov	 eax, DWORD PTR _lpCallObj$[ebp]
  05c80	8b 08		 mov	 ecx, DWORD PTR [eax]
  05c82	51		 push	 ecx
  05c83	8b 55 08	 mov	 edx, DWORD PTR _lpObj$[ebp]
  05c86	52		 push	 edx
  05c87	e8 00 00 00 00	 call	 ?gObjCheckSelfDefense@@YAXPAUOBJECTSTRUCT@@H@Z ; gObjCheckSelfDefense
  05c8c	83 c4 08	 add	 esp, 8
$LN80@Attack:

; 3130 : 			}
; 3131 : 		}
; 3132 : 	}
; 3133 : 
; 3134 : 	if ( lpTargetObj->Class == 275 )

  05c8f	8b 45 0c	 mov	 eax, DWORD PTR _lpTargetObj$[ebp]
  05c92	0f b7 88 b8 00
	00 00		 movzx	 ecx, WORD PTR [eax+184]
  05c99	81 f9 13 01 00
	00		 cmp	 ecx, 275		; 00000113H
  05c9f	75 5c		 jne	 SHORT $LN77@Attack

; 3135 : 	{
; 3136 : 		if ( lpTargetObj->m_iMonsterBattleDelay <= 0 )

  05ca1	8b 45 0c	 mov	 eax, DWORD PTR _lpTargetObj$[ebp]
  05ca4	0f be 88 c9 03
	00 00		 movsx	 ecx, BYTE PTR [eax+969]
  05cab	85 c9		 test	 ecx, ecx
  05cad	7f 4e		 jg	 SHORT $LN77@Attack

; 3137 : 		{
; 3138 : 			if ( (rand()%15) < 1 )

  05caf	e8 00 00 00 00	 call	 _rand
  05cb4	99		 cdq
  05cb5	b9 0f 00 00 00	 mov	 ecx, 15			; 0000000fH
  05cba	f7 f9		 idiv	 ecx
  05cbc	83 fa 01	 cmp	 edx, 1
  05cbf	7d 3c		 jge	 SHORT $LN77@Attack

; 3139 : 			{
; 3140 : 				gObjAddMsgSendDelay(lpTargetObj, 4, lpObj->m_Index, 100, 0);

  05cc1	6a 00		 push	 0
  05cc3	6a 64		 push	 100			; 00000064H
  05cc5	8b 45 08	 mov	 eax, DWORD PTR _lpObj$[ebp]
  05cc8	8b 08		 mov	 ecx, DWORD PTR [eax]
  05cca	51		 push	 ecx
  05ccb	6a 04		 push	 4
  05ccd	8b 55 0c	 mov	 edx, DWORD PTR _lpTargetObj$[ebp]
  05cd0	52		 push	 edx
  05cd1	e8 00 00 00 00	 call	 ?gObjAddMsgSendDelay@@YAXPAUOBJECTSTRUCT@@HHHH@Z ; gObjAddMsgSendDelay
  05cd6	83 c4 14	 add	 esp, 20			; 00000014H

; 3141 : 				lpTargetObj->m_iMonsterBattleDelay = 10;

  05cd9	8b 45 0c	 mov	 eax, DWORD PTR _lpTargetObj$[ebp]
  05cdc	c6 80 c9 03 00
	00 0a		 mov	 BYTE PTR [eax+969], 10	; 0000000aH

; 3142 : 				GCActionSend(lpTargetObj, 126, lpTargetObj->m_Index, lpObj->m_Index);

  05ce3	8b 45 08	 mov	 eax, DWORD PTR _lpObj$[ebp]
  05ce6	8b 08		 mov	 ecx, DWORD PTR [eax]
  05ce8	51		 push	 ecx
  05ce9	8b 55 0c	 mov	 edx, DWORD PTR _lpTargetObj$[ebp]
  05cec	8b 02		 mov	 eax, DWORD PTR [edx]
  05cee	50		 push	 eax
  05cef	6a 7e		 push	 126			; 0000007eH
  05cf1	8b 4d 0c	 mov	 ecx, DWORD PTR _lpTargetObj$[ebp]
  05cf4	51		 push	 ecx
  05cf5	e8 00 00 00 00	 call	 ?GCActionSend@@YAXPAUOBJECTSTRUCT@@EHH@Z ; GCActionSend
  05cfa	83 c4 10	 add	 esp, 16			; 00000010H
$LN77@Attack:

; 3143 : 			}
; 3144 : 		}
; 3145 : 	}
; 3146 : 
; 3147 : 	if ( lpTargetObj->Class == 131 || BC_STATUE_RANGE(lpTargetObj->Class-132) )

  05cfd	8b 45 0c	 mov	 eax, DWORD PTR _lpTargetObj$[ebp]
  05d00	0f b7 88 b8 00
	00 00		 movzx	 ecx, WORD PTR [eax+184]
  05d07	81 f9 83 00 00
	00		 cmp	 ecx, 131		; 00000083H
  05d0d	74 44		 je	 SHORT $LN75@Attack
  05d0f	8b 45 0c	 mov	 eax, DWORD PTR _lpTargetObj$[ebp]
  05d12	0f b7 88 b8 00
	00 00		 movzx	 ecx, WORD PTR [eax+184]
  05d19	81 e9 84 00 00
	00		 sub	 ecx, 132		; 00000084H
  05d1f	79 0c		 jns	 SHORT $LN787@Attack
  05d21	c7 85 c8 fc ff
	ff 00 00 00 00	 mov	 DWORD PTR tv4208[ebp], 0
  05d2b	eb 1d		 jmp	 SHORT $LN788@Attack
$LN787@Attack:
  05d2d	8b 55 0c	 mov	 edx, DWORD PTR _lpTargetObj$[ebp]
  05d30	0f b7 82 b8 00
	00 00		 movzx	 eax, WORD PTR [edx+184]
  05d37	2d 84 00 00 00	 sub	 eax, 132		; 00000084H
  05d3c	33 c9		 xor	 ecx, ecx
  05d3e	83 f8 02	 cmp	 eax, 2
  05d41	0f 9e c1	 setle	 cl
  05d44	89 8d c8 fc ff
	ff		 mov	 DWORD PTR tv4208[ebp], ecx
$LN788@Attack:
  05d4a	83 bd c8 fc ff
	ff 00		 cmp	 DWORD PTR tv4208[ebp], 0
  05d51	74 3e		 je	 SHORT $LN76@Attack
$LN75@Attack:

; 3148 : 	{
; 3149 : 		gObjAddMsgSendDelay(lpTargetObj, 4, lpObj->m_Index, 100, 0);

  05d53	6a 00		 push	 0
  05d55	6a 64		 push	 100			; 00000064H
  05d57	8b 45 08	 mov	 eax, DWORD PTR _lpObj$[ebp]
  05d5a	8b 08		 mov	 ecx, DWORD PTR [eax]
  05d5c	51		 push	 ecx
  05d5d	6a 04		 push	 4
  05d5f	8b 55 0c	 mov	 edx, DWORD PTR _lpTargetObj$[ebp]
  05d62	52		 push	 edx
  05d63	e8 00 00 00 00	 call	 ?gObjAddMsgSendDelay@@YAXPAUOBJECTSTRUCT@@HHHH@Z ; gObjAddMsgSendDelay
  05d68	83 c4 14	 add	 esp, 20			; 00000014H

; 3150 : 		gObjSetPosition(lpTargetObj->m_Index, lpTargetObj->X, lpTargetObj->Y);

  05d6b	8b 45 0c	 mov	 eax, DWORD PTR _lpTargetObj$[ebp]
  05d6e	0f bf 88 46 01
	00 00		 movsx	 ecx, WORD PTR [eax+326]
  05d75	51		 push	 ecx
  05d76	8b 55 0c	 mov	 edx, DWORD PTR _lpTargetObj$[ebp]
  05d79	0f bf 82 44 01
	00 00		 movsx	 eax, WORD PTR [edx+324]
  05d80	50		 push	 eax
  05d81	8b 4d 0c	 mov	 ecx, DWORD PTR _lpTargetObj$[ebp]
  05d84	8b 11		 mov	 edx, DWORD PTR [ecx]
  05d86	52		 push	 edx
  05d87	e8 00 00 00 00	 call	 ?gObjSetPosition@@YAXHHH@Z ; gObjSetPosition
  05d8c	83 c4 0c	 add	 esp, 12			; 0000000cH
  05d8f	eb 66		 jmp	 SHORT $LN68@Attack
$LN76@Attack:

; 3151 : 	}
; 3152 : 	else if ( AttackDamage >= 5 )

  05d91	83 7d 1c 05	 cmp	 DWORD PTR _AttackDamage$[ebp], 5
  05d95	7c 60		 jl	 SHORT $LN68@Attack

; 3153 : 	{
; 3154 : 		if ( lpTargetObj->Type == OBJ_MONSTER )

  05d97	8b 45 0c	 mov	 eax, DWORD PTR _lpTargetObj$[ebp]
  05d9a	0f b7 48 68	 movzx	 ecx, WORD PTR [eax+104]
  05d9e	83 f9 02	 cmp	 ecx, 2
  05da1	75 2b		 jne	 SHORT $LN72@Attack

; 3155 : 		{
; 3156 : 			if ( (rand()%26) == 0 )

  05da3	e8 00 00 00 00	 call	 _rand
  05da8	99		 cdq
  05da9	b9 1a 00 00 00	 mov	 ecx, 26			; 0000001aH
  05dae	f7 f9		 idiv	 ecx
  05db0	85 d2		 test	 edx, edx
  05db2	75 18		 jne	 SHORT $LN71@Attack

; 3157 : 			{
; 3158 : 				gObjAddMsgSendDelay(lpTargetObj,4, lpObj->m_Index, 100, 0);

  05db4	6a 00		 push	 0
  05db6	6a 64		 push	 100			; 00000064H
  05db8	8b 45 08	 mov	 eax, DWORD PTR _lpObj$[ebp]
  05dbb	8b 08		 mov	 ecx, DWORD PTR [eax]
  05dbd	51		 push	 ecx
  05dbe	6a 04		 push	 4
  05dc0	8b 55 0c	 mov	 edx, DWORD PTR _lpTargetObj$[ebp]
  05dc3	52		 push	 edx
  05dc4	e8 00 00 00 00	 call	 ?gObjAddMsgSendDelay@@YAXPAUOBJECTSTRUCT@@HHHH@Z ; gObjAddMsgSendDelay
  05dc9	83 c4 14	 add	 esp, 20			; 00000014H
$LN71@Attack:

; 3159 : 			}
; 3160 : 		}

  05dcc	eb 29		 jmp	 SHORT $LN68@Attack
$LN72@Attack:

; 3161 : 		else if ( (rand()%4) == 0 )

  05dce	e8 00 00 00 00	 call	 _rand
  05dd3	25 03 00 00 80	 and	 eax, -2147483645	; 80000003H
  05dd8	79 05		 jns	 SHORT $LN807@Attack
  05dda	48		 dec	 eax
  05ddb	83 c8 fc	 or	 eax, -4			; fffffffcH
  05dde	40		 inc	 eax
$LN807@Attack:
  05ddf	85 c0		 test	 eax, eax
  05de1	75 14		 jne	 SHORT $LN68@Attack

; 3162 : 		{
; 3163 : 			if ( !gObjUniriaSprite(lpTargetObj) )

  05de3	8b 45 0c	 mov	 eax, DWORD PTR _lpTargetObj$[ebp]
  05de6	50		 push	 eax
  05de7	e8 00 00 00 00	 call	 ?gObjUniriaSprite@@YAHPAUOBJECTSTRUCT@@@Z ; gObjUniriaSprite
  05dec	83 c4 04	 add	 esp, 4
  05def	85 c0		 test	 eax, eax
  05df1	75 04		 jne	 SHORT $LN68@Attack

; 3164 : 			{
; 3165 : 				MSBFlag = 1;

  05df3	c6 45 18 01	 mov	 BYTE PTR _MSBFlag$[ebp], 1
$LN68@Attack:

; 3166 : 			}
; 3167 : 		}
; 3168 : 	}
; 3169 : 
; 3170 : 	if(ManaChange)

  05df7	83 7d e4 00	 cmp	 DWORD PTR _ManaChange$[ebp], 0
  05dfb	74 2e		 je	 SHORT $LN67@Attack

; 3171 : 	{
; 3172 : 		GCManaSend(lpTargetObj->m_Index, lpTargetObj->Mana, 0xFF, 0, lpTargetObj->BP);

  05dfd	8b 45 0c	 mov	 eax, DWORD PTR _lpTargetObj$[ebp]
  05e00	8b 88 28 01 00
	00		 mov	 ecx, DWORD PTR [eax+296]
  05e06	51		 push	 ecx
  05e07	6a 00		 push	 0
  05e09	68 ff 00 00 00	 push	 255			; 000000ffH
  05e0e	8b 55 0c	 mov	 edx, DWORD PTR _lpTargetObj$[ebp]
  05e11	d9 82 10 01 00
	00		 fld	 DWORD PTR [edx+272]
  05e17	e8 00 00 00 00	 call	 __ftol2_sse
  05e1c	50		 push	 eax
  05e1d	8b 45 0c	 mov	 eax, DWORD PTR _lpTargetObj$[ebp]
  05e20	8b 08		 mov	 ecx, DWORD PTR [eax]
  05e22	51		 push	 ecx
  05e23	e8 00 00 00 00	 call	 ?GCManaSend@@YAXHHEEH@Z	; GCManaSend
  05e28	83 c4 14	 add	 esp, 20			; 00000014H
$LN67@Attack:

; 3173 : 	}
; 3174 : 
; 3175 : 	if ( magicsend )

  05e2b	83 7d 14 00	 cmp	 DWORD PTR _magicsend$[ebp], 0
  05e2f	74 1c		 je	 SHORT $LN66@Attack

; 3176 : 	{
; 3177 : 		GCMagicAttackNumberSend(lpObj, skill, lpTargetObj->m_Index, skillSuccess);

  05e31	0f b6 45 f4	 movzx	 eax, BYTE PTR _skillSuccess$[ebp]
  05e35	50		 push	 eax
  05e36	8b 4d 0c	 mov	 ecx, DWORD PTR _lpTargetObj$[ebp]
  05e39	8b 11		 mov	 edx, DWORD PTR [ecx]
  05e3b	52		 push	 edx
  05e3c	0f b7 45 d8	 movzx	 eax, WORD PTR _skill$[ebp]
  05e40	50		 push	 eax
  05e41	8b 4d 08	 mov	 ecx, DWORD PTR _lpObj$[ebp]
  05e44	51		 push	 ecx
  05e45	e8 00 00 00 00	 call	 ?GCMagicAttackNumberSend@@YAXPAUOBJECTSTRUCT@@GHE@Z ; GCMagicAttackNumberSend
  05e4a	83 c4 10	 add	 esp, 16			; 00000010H
$LN66@Attack:

; 3178 : 	}
; 3179 : 
; 3180 : 	if ( lpObj->Type == OBJ_USER )

  05e4d	8b 45 08	 mov	 eax, DWORD PTR _lpObj$[ebp]
  05e50	0f b7 48 68	 movzx	 ecx, WORD PTR [eax+104]
  05e54	83 f9 01	 cmp	 ecx, 1
  05e57	75 22		 jne	 SHORT $LN64@Attack

; 3181 : 	{
; 3182 : 		if ( lpObj->m_Change == 9 )

  05e59	8b 45 08	 mov	 eax, DWORD PTR _lpObj$[ebp]
  05e5c	83 b8 54 04 00
	00 09		 cmp	 DWORD PTR [eax+1108], 9
  05e63	75 16		 jne	 SHORT $LN64@Attack

; 3183 : 		{
; 3184 : 			GCMagicAttackNumberSend(lpObj, 3, lpTargetObj->m_Index, 1);

  05e65	6a 01		 push	 1
  05e67	8b 45 0c	 mov	 eax, DWORD PTR _lpTargetObj$[ebp]
  05e6a	8b 08		 mov	 ecx, DWORD PTR [eax]
  05e6c	51		 push	 ecx
  05e6d	6a 03		 push	 3
  05e6f	8b 55 08	 mov	 edx, DWORD PTR _lpObj$[ebp]
  05e72	52		 push	 edx
  05e73	e8 00 00 00 00	 call	 ?GCMagicAttackNumberSend@@YAXPAUOBJECTSTRUCT@@GHE@Z ; GCMagicAttackNumberSend
  05e78	83 c4 10	 add	 esp, 16			; 00000010H
$LN64@Attack:

; 3185 : 		}
; 3186 : 	}
; 3187 : 
; 3188 : 	if ( lpObj->Class == CLASS_ELF && lpObj->Level == 1 && AttackDamage > 10 )

  05e7b	8b 45 08	 mov	 eax, DWORD PTR _lpObj$[ebp]
  05e7e	0f b7 88 b8 00
	00 00		 movzx	 ecx, WORD PTR [eax+184]
  05e85	83 f9 02	 cmp	 ecx, 2
  05e88	75 78		 jne	 SHORT $LN63@Attack
  05e8a	8b 45 08	 mov	 eax, DWORD PTR _lpObj$[ebp]
  05e8d	0f bf 88 be 00
	00 00		 movsx	 ecx, WORD PTR [eax+190]
  05e94	83 f9 01	 cmp	 ecx, 1
  05e97	75 69		 jne	 SHORT $LN63@Attack
  05e99	83 7d 1c 0a	 cmp	 DWORD PTR _AttackDamage$[ebp], 10 ; 0000000aH
  05e9d	7e 63		 jle	 SHORT $LN63@Attack

; 3189 : 	{
; 3190 : 		LogAdd("error-Level1 : [%s][%s] Str:%d %d %d %d %d %d %d", lpObj->AccountID, lpObj->Name, lpObj->Strength, lpObj->m_AttackDamageMinRight, lpObj->m_AttackDamageMaxRight, lpObj->m_AttackDamageMinLeft, lpObj->m_AttackDamageMaxLeft, lpObj->m_AttackDamageMax, lpObj->m_AttackDamageMin);

  05e9f	8b 45 08	 mov	 eax, DWORD PTR _lpObj$[ebp]
  05ea2	8b 88 60 04 00
	00		 mov	 ecx, DWORD PTR [eax+1120]
  05ea8	51		 push	 ecx
  05ea9	8b 55 08	 mov	 edx, DWORD PTR _lpObj$[ebp]
  05eac	8b 82 64 04 00
	00		 mov	 eax, DWORD PTR [edx+1124]
  05eb2	50		 push	 eax
  05eb3	8b 4d 08	 mov	 ecx, DWORD PTR _lpObj$[ebp]
  05eb6	8b 91 78 04 00
	00		 mov	 edx, DWORD PTR [ecx+1144]
  05ebc	52		 push	 edx
  05ebd	8b 45 08	 mov	 eax, DWORD PTR _lpObj$[ebp]
  05ec0	8b 88 7c 04 00
	00		 mov	 ecx, DWORD PTR [eax+1148]
  05ec6	51		 push	 ecx
  05ec7	8b 55 08	 mov	 edx, DWORD PTR _lpObj$[ebp]
  05eca	8b 82 80 04 00
	00		 mov	 eax, DWORD PTR [edx+1152]
  05ed0	50		 push	 eax
  05ed1	8b 4d 08	 mov	 ecx, DWORD PTR _lpObj$[ebp]
  05ed4	8b 91 84 04 00
	00		 mov	 edx, DWORD PTR [ecx+1156]
  05eda	52		 push	 edx
  05edb	8b 45 08	 mov	 eax, DWORD PTR _lpObj$[ebp]
  05ede	0f b7 88 f4 00
	00 00		 movzx	 ecx, WORD PTR [eax+244]
  05ee5	51		 push	 ecx
  05ee6	8b 55 08	 mov	 edx, DWORD PTR _lpObj$[ebp]
  05ee9	83 c2 77	 add	 edx, 119		; 00000077H
  05eec	52		 push	 edx
  05eed	8b 45 08	 mov	 eax, DWORD PTR _lpObj$[ebp]
  05ef0	83 c0 6c	 add	 eax, 108		; 0000006cH
  05ef3	50		 push	 eax
  05ef4	68 00 00 00 00	 push	 OFFSET ??_C@_0DB@MDAHJJLM@error?9Level1?5?3?5?$FL?$CFs?$FN?$FL?$CFs?$FN?5Str?3?$CFd?5?$CF@
  05ef9	ff 15 00 00 00
	00		 call	 DWORD PTR ?LogAdd@@3P6AXPADZZA ; LogAdd
  05eff	83 c4 28	 add	 esp, 40			; 00000028H
$LN63@Attack:

; 3191 : 	}
; 3192 : 
; 3193 : 	lpObj->m_Rest = 0;

  05f02	8b 45 08	 mov	 eax, DWORD PTR _lpObj$[ebp]
  05f05	c6 80 25 02 00
	00 00		 mov	 BYTE PTR [eax+549], 0

; 3194 : 	
; 3195 : 	if ( AttackDamage > 0 )

  05f0c	83 7d 1c 00	 cmp	 DWORD PTR _AttackDamage$[ebp], 0
  05f10	0f 8e 05 08 00
	00		 jle	 $LN62@Attack

; 3196 : 	{
; 3197 : 
; 3198 : 			int atd_reflect = (int)((float)AttackDamage * lpTargetObj->DamageReflect / 100.0f);

  05f16	db 45 1c	 fild	 DWORD PTR _AttackDamage$[ebp]
  05f19	8b 45 0c	 mov	 eax, DWORD PTR _lpTargetObj$[ebp]
  05f1c	0f b6 88 71 01
	00 00		 movzx	 ecx, BYTE PTR [eax+369]
  05f23	89 8d c8 fc ff
	ff		 mov	 DWORD PTR tv7809[ebp], ecx
  05f29	da 8d c8 fc ff
	ff		 fimul	 DWORD PTR tv7809[ebp]
  05f2f	dc 35 00 00 00
	00		 fdiv	 QWORD PTR __real@4059000000000000
  05f35	e8 00 00 00 00	 call	 __ftol2_sse
  05f3a	89 85 30 fd ff
	ff		 mov	 DWORD PTR _atd_reflect$240793[ebp], eax

; 3199 : 
; 3200 : #if(FIX_REF2)
; 3201 : 			if(!ExConfig.Character.bReflectToReflect)

  05f40	0f b6 05 58 01
	00 00		 movzx	 eax, BYTE PTR ?ExConfig@@3VcExConfigs@@A+344
  05f47	85 c0		 test	 eax, eax
  05f49	75 30		 jne	 SHORT $LN61@Attack

; 3202 : 			{
; 3203 : 				if(!byReflect)

  05f4b	0f b6 45 28	 movzx	 eax, BYTE PTR _byReflect$[ebp]
  05f4f	85 c0		 test	 eax, eax
  05f51	75 26		 jne	 SHORT $LN59@Attack

; 3204 : 				{
; 3205 : 					if ( atd_reflect )

  05f53	83 bd 30 fd ff
	ff 00		 cmp	 DWORD PTR _atd_reflect$240793[ebp], 0
  05f5a	74 1d		 je	 SHORT $LN59@Attack

; 3206 : 					{
; 3207 : 						gObjAddMsgSendDelay(lpTargetObj, 10, lpObj->m_Index, 10, atd_reflect);

  05f5c	8b 85 30 fd ff
	ff		 mov	 eax, DWORD PTR _atd_reflect$240793[ebp]
  05f62	50		 push	 eax
  05f63	6a 0a		 push	 10			; 0000000aH
  05f65	8b 4d 08	 mov	 ecx, DWORD PTR _lpObj$[ebp]
  05f68	8b 11		 mov	 edx, DWORD PTR [ecx]
  05f6a	52		 push	 edx
  05f6b	6a 0a		 push	 10			; 0000000aH
  05f6d	8b 45 0c	 mov	 eax, DWORD PTR _lpTargetObj$[ebp]
  05f70	50		 push	 eax
  05f71	e8 00 00 00 00	 call	 ?gObjAddMsgSendDelay@@YAXPAUOBJECTSTRUCT@@HHHH@Z ; gObjAddMsgSendDelay
  05f76	83 c4 14	 add	 esp, 20			; 00000014H
$LN59@Attack:

; 3208 : 					}
; 3209 : 				}
; 3210 : 			}
; 3211 : 			else

  05f79	eb 26		 jmp	 SHORT $LN57@Attack
$LN61@Attack:

; 3212 : 			{
; 3213 : 				if ( atd_reflect )

  05f7b	83 bd 30 fd ff
	ff 00		 cmp	 DWORD PTR _atd_reflect$240793[ebp], 0
  05f82	74 1d		 je	 SHORT $LN57@Attack

; 3214 : 				{
; 3215 : 					gObjAddMsgSendDelay(lpTargetObj, 10, lpObj->m_Index, 10, atd_reflect);

  05f84	8b 85 30 fd ff
	ff		 mov	 eax, DWORD PTR _atd_reflect$240793[ebp]
  05f8a	50		 push	 eax
  05f8b	6a 0a		 push	 10			; 0000000aH
  05f8d	8b 4d 08	 mov	 ecx, DWORD PTR _lpObj$[ebp]
  05f90	8b 11		 mov	 edx, DWORD PTR [ecx]
  05f92	52		 push	 edx
  05f93	6a 0a		 push	 10			; 0000000aH
  05f95	8b 45 0c	 mov	 eax, DWORD PTR _lpTargetObj$[ebp]
  05f98	50		 push	 eax
  05f99	e8 00 00 00 00	 call	 ?gObjAddMsgSendDelay@@YAXPAUOBJECTSTRUCT@@HHHH@Z ; gObjAddMsgSendDelay
  05f9e	83 c4 14	 add	 esp, 20			; 00000014H
$LN57@Attack:

; 3216 : 				}
; 3217 : 			}
; 3218 : #else
; 3219 : 			if ( atd_reflect )
; 3220 : 			{
; 3221 : 				gObjAddMsgSendDelay(lpTargetObj, 10, lpObj->m_Index, 10, atd_reflect);
; 3222 : 			}
; 3223 : 
; 3224 : 			if ( (rand()%100) < lpObj->SetOpReflectionDamage )
; 3225 : 			{
; 3226 : 				gObjAddMsgSendDelay(lpTargetObj, 10, lpObj->m_Index, 10, AttackDamage);
; 3227 : 			}
; 3228 : #endif
; 3229 : 		
; 3230 : 
; 3231 : 		if ( (rand()%100) < 5 ) //season 2.5 add-on

  05fa1	e8 00 00 00 00	 call	 _rand
  05fa6	99		 cdq
  05fa7	b9 64 00 00 00	 mov	 ecx, 100		; 00000064H
  05fac	f7 f9		 idiv	 ecx
  05fae	83 fa 05	 cmp	 edx, 5
  05fb1	0f 8d ed 01 00
	00		 jge	 $LN47@Attack

; 3232 : 		{
; 3233 : 			if(gObjWingSprite(lpTargetObj) == TRUE)

  05fb7	8b 45 0c	 mov	 eax, DWORD PTR _lpTargetObj$[ebp]
  05fba	50		 push	 eax
  05fbb	e8 00 00 00 00	 call	 ?gObjWingSprite@@YAHPAUOBJECTSTRUCT@@@Z ; gObjWingSprite
  05fc0	83 c4 04	 add	 esp, 4
  05fc3	83 f8 01	 cmp	 eax, 1
  05fc6	0f 85 d8 01 00
	00		 jne	 $LN47@Attack

; 3234 : 			{
; 3235 : 				CItem * Wing = &lpTargetObj->pInventory[7];

  05fcc	8b 45 0c	 mov	 eax, DWORD PTR _lpTargetObj$[ebp]
  05fcf	8b 88 24 0e 00
	00		 mov	 ecx, DWORD PTR [eax+3620]
  05fd5	81 c1 cc 05 00
	00		 add	 ecx, 1484		; 000005ccH
  05fdb	89 8d 2c fd ff
	ff		 mov	 DWORD PTR _Wing$240803[ebp], ecx

; 3236 : 				if(Wing->m_Type >= ITEMGET(12, 36) && Wing->m_Type <= ITEMGET(12, 40) || 
; 3237 : #ifdef NEWWINGS_2_5
; 3238 : 					IS_NEWWINGS_2_5(Wing->m_Type) || 
; 3239 : #endif
; 3240 : #ifdef NEWWINGS_4
; 3241 : 					IS_NEWWINGS_4(Wing->m_Type) || 
; 3242 : #endif
; 3243 : #ifdef NEWWINGS_5
; 3244 : 					IS_NEWWINGS_5(Wing->m_Type) || 
; 3245 : #endif
; 3246 : #ifdef NEWWINGS_6
; 3247 : 					IS_NEWWINGS_6(Wing->m_Type) || 
; 3248 : #endif
; 3249 : 					Wing->m_Type == ITEMGET(12, 43))			

  05fe1	8b 85 2c fd ff
	ff		 mov	 eax, DWORD PTR _Wing$240803[ebp]
  05fe7	0f bf 48 06	 movsx	 ecx, WORD PTR [eax+6]
  05feb	81 f9 24 18 00
	00		 cmp	 ecx, 6180		; 00001824H
  05ff1	7c 16		 jl	 SHORT $LN52@Attack
  05ff3	8b 85 2c fd ff
	ff		 mov	 eax, DWORD PTR _Wing$240803[ebp]
  05ff9	0f bf 48 06	 movsx	 ecx, WORD PTR [eax+6]
  05ffd	81 f9 28 18 00
	00		 cmp	 ecx, 6184		; 00001828H
  06003	0f 8e 1e 01 00
	00		 jle	 $LN53@Attack
$LN52@Attack:
  06009	8b 85 2c fd ff
	ff		 mov	 eax, DWORD PTR _Wing$240803[ebp]
  0600f	0f bf 48 06	 movsx	 ecx, WORD PTR [eax+6]
  06013	81 f9 ba 18 00
	00		 cmp	 ecx, 6330		; 000018baH
  06019	7d 0c		 jge	 SHORT $LN789@Attack
  0601b	c7 85 c8 fc ff
	ff 00 00 00 00	 mov	 DWORD PTR tv4339[ebp], 0
  06025	eb 1a		 jmp	 SHORT $LN790@Attack
$LN789@Attack:
  06027	8b 95 2c fd ff
	ff		 mov	 edx, DWORD PTR _Wing$240803[ebp]
  0602d	0f bf 42 06	 movsx	 eax, WORD PTR [edx+6]
  06031	33 c9		 xor	 ecx, ecx
  06033	3d bc 18 00 00	 cmp	 eax, 6332		; 000018bcH
  06038	0f 9e c1	 setle	 cl
  0603b	89 8d c8 fc ff
	ff		 mov	 DWORD PTR tv4339[ebp], ecx
$LN790@Attack:
  06041	83 bd c8 fc ff
	ff 00		 cmp	 DWORD PTR tv4339[ebp], 0
  06048	0f 85 d9 00 00
	00		 jne	 $LN53@Attack
  0604e	8b 85 2c fd ff
	ff		 mov	 eax, DWORD PTR _Wing$240803[ebp]
  06054	0f bf 48 06	 movsx	 ecx, WORD PTR [eax+6]
  06058	81 f9 b4 18 00
	00		 cmp	 ecx, 6324		; 000018b4H
  0605e	7d 0c		 jge	 SHORT $LN791@Attack
  06060	c7 85 c8 fc ff
	ff 00 00 00 00	 mov	 DWORD PTR tv4348[ebp], 0
  0606a	eb 1a		 jmp	 SHORT $LN792@Attack
$LN791@Attack:
  0606c	8b 95 2c fd ff
	ff		 mov	 edx, DWORD PTR _Wing$240803[ebp]
  06072	0f bf 42 06	 movsx	 eax, WORD PTR [edx+6]
  06076	33 c9		 xor	 ecx, ecx
  06078	3d b9 18 00 00	 cmp	 eax, 6329		; 000018b9H
  0607d	0f 9e c1	 setle	 cl
  06080	89 8d c8 fc ff
	ff		 mov	 DWORD PTR tv4348[ebp], ecx
$LN792@Attack:
  06086	83 bd c8 fc ff
	ff 00		 cmp	 DWORD PTR tv4348[ebp], 0
  0608d	0f 85 94 00 00
	00		 jne	 $LN53@Attack
  06093	8b 85 2c fd ff
	ff		 mov	 eax, DWORD PTR _Wing$240803[ebp]
  06099	0f bf 48 06	 movsx	 ecx, WORD PTR [eax+6]
  0609d	81 f9 bd 18 00
	00		 cmp	 ecx, 6333		; 000018bdH
  060a3	7d 0c		 jge	 SHORT $LN793@Attack
  060a5	c7 85 c8 fc ff
	ff 00 00 00 00	 mov	 DWORD PTR tv4357[ebp], 0
  060af	eb 1a		 jmp	 SHORT $LN794@Attack
$LN793@Attack:
  060b1	8b 95 2c fd ff
	ff		 mov	 edx, DWORD PTR _Wing$240803[ebp]
  060b7	0f bf 42 06	 movsx	 eax, WORD PTR [edx+6]
  060bb	33 c9		 xor	 ecx, ecx
  060bd	3d c2 18 00 00	 cmp	 eax, 6338		; 000018c2H
  060c2	0f 9e c1	 setle	 cl
  060c5	89 8d c8 fc ff
	ff		 mov	 DWORD PTR tv4357[ebp], ecx
$LN794@Attack:
  060cb	83 bd c8 fc ff
	ff 00		 cmp	 DWORD PTR tv4357[ebp], 0
  060d2	75 53		 jne	 SHORT $LN53@Attack
  060d4	8b 85 2c fd ff
	ff		 mov	 eax, DWORD PTR _Wing$240803[ebp]
  060da	0f bf 48 06	 movsx	 ecx, WORD PTR [eax+6]
  060de	81 f9 c3 18 00
	00		 cmp	 ecx, 6339		; 000018c3H
  060e4	7d 0c		 jge	 SHORT $LN795@Attack
  060e6	c7 85 c8 fc ff
	ff 00 00 00 00	 mov	 DWORD PTR tv4366[ebp], 0
  060f0	eb 1a		 jmp	 SHORT $LN796@Attack
$LN795@Attack:
  060f2	8b 95 2c fd ff
	ff		 mov	 edx, DWORD PTR _Wing$240803[ebp]
  060f8	0f bf 42 06	 movsx	 eax, WORD PTR [edx+6]
  060fc	33 c9		 xor	 ecx, ecx
  060fe	3d dc 18 00 00	 cmp	 eax, 6364		; 000018dcH
  06103	0f 9e c1	 setle	 cl
  06106	89 8d c8 fc ff
	ff		 mov	 DWORD PTR tv4366[ebp], ecx
$LN796@Attack:
  0610c	83 bd c8 fc ff
	ff 00		 cmp	 DWORD PTR tv4366[ebp], 0
  06113	75 12		 jne	 SHORT $LN53@Attack
  06115	8b 85 2c fd ff
	ff		 mov	 eax, DWORD PTR _Wing$240803[ebp]
  0611b	0f bf 48 06	 movsx	 ecx, WORD PTR [eax+6]
  0611f	81 f9 2b 18 00
	00		 cmp	 ecx, 6187		; 0000182bH
  06125	75 7d		 jne	 SHORT $LN47@Attack
$LN53@Attack:

; 3250 : 				{
; 3251 : 					BYTE WingOption = lpTargetObj->pInventory[7].m_NewOption;

  06127	8b 45 0c	 mov	 eax, DWORD PTR _lpTargetObj$[ebp]
  0612a	8b 88 24 0e 00
	00		 mov	 ecx, DWORD PTR [eax+3620]
  06130	8a 91 63 06 00
	00		 mov	 dl, BYTE PTR [ecx+1635]
  06136	88 95 2b fd ff
	ff		 mov	 BYTE PTR _WingOption$240807[ebp], dl

; 3252 : 
; 3253 : 					if((WingOption&2) == 2) // 5% Chance of Return Damage

  0613c	0f b6 85 2b fd
	ff ff		 movzx	 eax, BYTE PTR _WingOption$240807[ebp]
  06143	83 e0 02	 and	 eax, 2
  06146	74 5c		 je	 SHORT $LN47@Attack

; 3254 : 					{
; 3255 : 						if(!byReflect)

  06148	0f b6 45 28	 movzx	 eax, BYTE PTR _byReflect$[ebp]
  0614c	85 c0		 test	 eax, eax
  0614e	75 54		 jne	 SHORT $LN47@Attack

; 3256 : 						{
; 3257 : 							if(lpObj->Type == OBJ_MONSTER)

  06150	8b 45 08	 mov	 eax, DWORD PTR _lpObj$[ebp]
  06153	0f b7 48 68	 movzx	 ecx, WORD PTR [eax+104]
  06157	83 f9 02	 cmp	 ecx, 2
  0615a	75 22		 jne	 SHORT $LN49@Attack

; 3258 : 							{
; 3259 : 								gObjAddMsgSendDelay(lpTargetObj, 12, lpObj->m_Index, 10, lpObj->m_AttackDamageMax);

  0615c	8b 45 08	 mov	 eax, DWORD PTR _lpObj$[ebp]
  0615f	8b 88 64 04 00
	00		 mov	 ecx, DWORD PTR [eax+1124]
  06165	51		 push	 ecx
  06166	6a 0a		 push	 10			; 0000000aH
  06168	8b 55 08	 mov	 edx, DWORD PTR _lpObj$[ebp]
  0616b	8b 02		 mov	 eax, DWORD PTR [edx]
  0616d	50		 push	 eax
  0616e	6a 0c		 push	 12			; 0000000cH
  06170	8b 4d 0c	 mov	 ecx, DWORD PTR _lpTargetObj$[ebp]
  06173	51		 push	 ecx
  06174	e8 00 00 00 00	 call	 ?gObjAddMsgSendDelay@@YAXPAUOBJECTSTRUCT@@HHHH@Z ; gObjAddMsgSendDelay
  06179	83 c4 14	 add	 esp, 20			; 00000014H
  0617c	eb 26		 jmp	 SHORT $LN47@Attack
$LN49@Attack:

; 3260 : 							}
; 3261 : 							else if(lpObj->Type == OBJ_USER)

  0617e	8b 45 08	 mov	 eax, DWORD PTR _lpObj$[ebp]
  06181	0f b7 48 68	 movzx	 ecx, WORD PTR [eax+104]
  06185	83 f9 01	 cmp	 ecx, 1
  06188	75 1a		 jne	 SHORT $LN47@Attack

; 3262 : 							{
; 3263 : 								gObjAddMsgSendDelay(lpTargetObj, 12, lpObj->m_Index, 10, AttackDamage);

  0618a	8b 45 1c	 mov	 eax, DWORD PTR _AttackDamage$[ebp]
  0618d	50		 push	 eax
  0618e	6a 0a		 push	 10			; 0000000aH
  06190	8b 4d 08	 mov	 ecx, DWORD PTR _lpObj$[ebp]
  06193	8b 11		 mov	 edx, DWORD PTR [ecx]
  06195	52		 push	 edx
  06196	6a 0c		 push	 12			; 0000000cH
  06198	8b 45 0c	 mov	 eax, DWORD PTR _lpTargetObj$[ebp]
  0619b	50		 push	 eax
  0619c	e8 00 00 00 00	 call	 ?gObjAddMsgSendDelay@@YAXPAUOBJECTSTRUCT@@HHHH@Z ; gObjAddMsgSendDelay
  061a1	83 c4 14	 add	 esp, 20			; 00000014H
$LN47@Attack:

; 3264 : 							}
; 3265 : 						}
; 3266 : 					}
; 3267 : 				}
; 3268 : 			}
; 3269 : 		}
; 3270 : 
; 3271 : 		if ( bCombo )

  061a4	83 7d 20 00	 cmp	 DWORD PTR _bCombo$[ebp], 0
  061a8	0f 84 7f 01 00
	00		 je	 $LN46@Attack

; 3272 : 		{
; 3273 : #ifdef PRIDEMU_CONFIG
; 3274 : 			int iComboDamage;
; 3275 : 			if(g_ExLicense.CheckUser(eExUB::PrideMuLocal) || g_ExLicense.CheckUser(eExUB::PrideMu) /*|| g_ExLicense.CheckUser(eExUB::Local3) || g_ExLicense.CheckUser(eExUB::Local)*/)

  061ae	6a 1a		 push	 26			; 0000001aH
  061b0	b9 00 00 00 00	 mov	 ecx, OFFSET ?g_ExLicense@@3VCExLicense@@A ; g_ExLicense
  061b5	e8 00 00 00 00	 call	 ?CheckUser@CExLicense@@QAE_NH@Z ; CExLicense::CheckUser
  061ba	0f b6 c0	 movzx	 eax, al
  061bd	85 c0		 test	 eax, eax
  061bf	75 13		 jne	 SHORT $LN44@Attack
  061c1	6a 11		 push	 17			; 00000011H
  061c3	b9 00 00 00 00	 mov	 ecx, OFFSET ?g_ExLicense@@3VCExLicense@@A ; g_ExLicense
  061c8	e8 00 00 00 00	 call	 ?CheckUser@CExLicense@@QAE_NH@Z ; CExLicense::CheckUser
  061cd	0f b6 c0	 movzx	 eax, al
  061d0	85 c0		 test	 eax, eax
  061d2	74 30		 je	 SHORT $LN45@Attack
$LN44@Attack:

; 3276 : 			{
; 3277 : 				iComboDamage = ( Strength + Dexterity + Energy ) / 2;

  061d4	8b 45 c8	 mov	 eax, DWORD PTR _Strength$[ebp]
  061d7	03 45 c4	 add	 eax, DWORD PTR _Dexterity$[ebp]
  061da	03 45 bc	 add	 eax, DWORD PTR _Energy$[ebp]
  061dd	99		 cdq
  061de	2b c2		 sub	 eax, edx
  061e0	d1 f8		 sar	 eax, 1
  061e2	89 85 24 fd ff
	ff		 mov	 DWORD PTR _iComboDamage$240814[ebp], eax

; 3278 : 				iComboDamage *= ExConfig.PrideMu.ComboBase / 100;

  061e8	a1 68 0b 00 00	 mov	 eax, DWORD PTR ?ExConfig@@3VcExConfigs@@A+2920
  061ed	99		 cdq
  061ee	b9 64 00 00 00	 mov	 ecx, 100		; 00000064H
  061f3	f7 f9		 idiv	 ecx
  061f5	0f af 85 24 fd
	ff ff		 imul	 eax, DWORD PTR _iComboDamage$240814[ebp]
  061fc	89 85 24 fd ff
	ff		 mov	 DWORD PTR _iComboDamage$240814[ebp], eax

; 3279 : 			}
; 3280 : 			else

  06202	eb 14		 jmp	 SHORT $LN43@Attack
$LN45@Attack:

; 3281 : 			{
; 3282 : 				iComboDamage = ( Strength + Dexterity + Energy ) / 2;

  06204	8b 45 c8	 mov	 eax, DWORD PTR _Strength$[ebp]
  06207	03 45 c4	 add	 eax, DWORD PTR _Dexterity$[ebp]
  0620a	03 45 bc	 add	 eax, DWORD PTR _Energy$[ebp]
  0620d	99		 cdq
  0620e	2b c2		 sub	 eax, edx
  06210	d1 f8		 sar	 eax, 1
  06212	89 85 24 fd ff
	ff		 mov	 DWORD PTR _iComboDamage$240814[ebp], eax
$LN43@Attack:

; 3283 : 			}
; 3284 : #else
; 3285 : 			int iComboDamage = ( Strength + Dexterity + Energy ) / 2;
; 3286 : #endif
; 3287 : 
; 3288 : 			iComboDamage = ( iComboDamage * ExConfig.Character.ComboDamagePercent ) / 100;

  06218	8b 85 24 fd ff
	ff		 mov	 eax, DWORD PTR _iComboDamage$240814[ebp]
  0621e	0f af 05 60 01
	00 00		 imul	 eax, DWORD PTR ?ExConfig@@3VcExConfigs@@A+352
  06225	99		 cdq
  06226	b9 64 00 00 00	 mov	 ecx, 100		; 00000064H
  0622b	f7 f9		 idiv	 ecx
  0622d	89 85 24 fd ff
	ff		 mov	 DWORD PTR _iComboDamage$240814[ebp], eax

; 3289 : 
; 3290 : 			AttackDamage += iComboDamage;

  06233	8b 45 1c	 mov	 eax, DWORD PTR _AttackDamage$[ebp]
  06236	03 85 24 fd ff
	ff		 add	 eax, DWORD PTR _iComboDamage$240814[ebp]
  0623c	89 45 1c	 mov	 DWORD PTR _AttackDamage$[ebp], eax

; 3291 : 
; 3292 : 			if ( lpObj->Type == OBJ_USER && lpTargetObj->Type == OBJ_USER )

  0623f	8b 45 08	 mov	 eax, DWORD PTR _lpObj$[ebp]
  06242	0f b7 48 68	 movzx	 ecx, WORD PTR [eax+104]
  06246	83 f9 01	 cmp	 ecx, 1
  06249	0f 85 92 00 00
	00		 jne	 $LN42@Attack
  0624f	8b 45 0c	 mov	 eax, DWORD PTR _lpTargetObj$[ebp]
  06252	0f b7 48 68	 movzx	 ecx, WORD PTR [eax+104]
  06256	83 f9 01	 cmp	 ecx, 1
  06259	0f 85 82 00 00
	00		 jne	 $LN42@Attack

; 3293 : 			{
; 3294 : 				iTempShieldDamage = this->GetShieldDamage(lpObj, lpTargetObj, iComboDamage);

  0625f	8b 85 24 fd ff
	ff		 mov	 eax, DWORD PTR _iComboDamage$240814[ebp]
  06265	50		 push	 eax
  06266	8b 4d 0c	 mov	 ecx, DWORD PTR _lpTargetObj$[ebp]
  06269	51		 push	 ecx
  0626a	8b 55 08	 mov	 edx, DWORD PTR _lpObj$[ebp]
  0626d	52		 push	 edx
  0626e	8b 4d f8	 mov	 ecx, DWORD PTR _this$[ebp]
  06271	e8 00 00 00 00	 call	 ?GetShieldDamage@CObjAttack@@QAEHPAUOBJECTSTRUCT@@0H@Z ; CObjAttack::GetShieldDamage
  06276	89 45 e0	 mov	 DWORD PTR _iTempShieldDamage$[ebp], eax

; 3295 : 				lpTargetObj->iShield -= iTempShieldDamage;

  06279	8b 45 0c	 mov	 eax, DWORD PTR _lpTargetObj$[ebp]
  0627c	8b 88 54 01 00
	00		 mov	 ecx, DWORD PTR [eax+340]
  06282	2b 4d e0	 sub	 ecx, DWORD PTR _iTempShieldDamage$[ebp]
  06285	8b 55 0c	 mov	 edx, DWORD PTR _lpTargetObj$[ebp]
  06288	89 8a 54 01 00
	00		 mov	 DWORD PTR [edx+340], ecx

; 3296 : 				lpTargetObj->Life -= iComboDamage - iTempShieldDamage;

  0628e	8b 85 24 fd ff
	ff		 mov	 eax, DWORD PTR _iComboDamage$240814[ebp]
  06294	2b 45 e0	 sub	 eax, DWORD PTR _iTempShieldDamage$[ebp]
  06297	89 85 c8 fc ff
	ff		 mov	 DWORD PTR tv7901[ebp], eax
  0629d	db 85 c8 fc ff
	ff		 fild	 DWORD PTR tv7901[ebp]
  062a3	8b 4d 0c	 mov	 ecx, DWORD PTR _lpTargetObj$[ebp]
  062a6	d8 a9 fc 00 00
	00		 fsubr	 DWORD PTR [ecx+252]
  062ac	8b 55 0c	 mov	 edx, DWORD PTR _lpTargetObj$[ebp]
  062af	d9 9a fc 00 00
	00		 fstp	 DWORD PTR [edx+252]

; 3297 : 				iTotalShieldDamage += iTempShieldDamage;

  062b5	8b 45 dc	 mov	 eax, DWORD PTR _iTotalShieldDamage$[ebp]
  062b8	03 45 e0	 add	 eax, DWORD PTR _iTempShieldDamage$[ebp]
  062bb	89 45 dc	 mov	 DWORD PTR _iTotalShieldDamage$[ebp], eax

; 3298 : 
; 3299 : 				if ( lpTargetObj->Life < 0.0f )

  062be	8b 45 0c	 mov	 eax, DWORD PTR _lpTargetObj$[ebp]
  062c1	d9 80 fc 00 00
	00		 fld	 DWORD PTR [eax+252]
  062c7	dc 1d 00 00 00
	00		 fcomp	 QWORD PTR __real@0000000000000000
  062cd	df e0		 fnstsw	 ax
  062cf	f6 c4 05	 test	 ah, 5
  062d2	7a 0b		 jp	 SHORT $LN41@Attack

; 3300 : 				{
; 3301 : 					lpTargetObj->Life = 0.0f;

  062d4	8b 45 0c	 mov	 eax, DWORD PTR _lpTargetObj$[ebp]
  062d7	d9 ee		 fldz
  062d9	d9 98 fc 00 00
	00		 fstp	 DWORD PTR [eax+252]
$LN41@Attack:

; 3302 : 				}
; 3303 : 			}
; 3304 : 			else

  062df	eb 39		 jmp	 SHORT $LN39@Attack
$LN42@Attack:

; 3305 : 			{
; 3306 : 				lpTargetObj->Life -= iComboDamage;

  062e1	db 85 24 fd ff
	ff		 fild	 DWORD PTR _iComboDamage$240814[ebp]
  062e7	8b 45 0c	 mov	 eax, DWORD PTR _lpTargetObj$[ebp]
  062ea	d8 a8 fc 00 00
	00		 fsubr	 DWORD PTR [eax+252]
  062f0	8b 4d 0c	 mov	 ecx, DWORD PTR _lpTargetObj$[ebp]
  062f3	d9 99 fc 00 00
	00		 fstp	 DWORD PTR [ecx+252]

; 3307 : 
; 3308 : 				if ( lpTargetObj->Life < 0.0f )

  062f9	8b 45 0c	 mov	 eax, DWORD PTR _lpTargetObj$[ebp]
  062fc	d9 80 fc 00 00
	00		 fld	 DWORD PTR [eax+252]
  06302	dc 1d 00 00 00
	00		 fcomp	 QWORD PTR __real@0000000000000000
  06308	df e0		 fnstsw	 ax
  0630a	f6 c4 05	 test	 ah, 5
  0630d	7a 0b		 jp	 SHORT $LN39@Attack

; 3309 : 				{
; 3310 : 					lpTargetObj->Life = 0.0f;

  0630f	8b 45 0c	 mov	 eax, DWORD PTR _lpTargetObj$[ebp]
  06312	d9 ee		 fldz
  06314	d9 98 fc 00 00
	00		 fstp	 DWORD PTR [eax+252]
$LN39@Attack:

; 3311 : 				}
; 3312 : 			}
; 3313 : 
; 3314 : 			MsgDamage |= 0x80;

  0631a	0f b6 45 eb	 movzx	 eax, BYTE PTR _MsgDamage$[ebp]
  0631e	0d 80 00 00 00	 or	 eax, 128		; 00000080H
  06323	88 45 eb	 mov	 BYTE PTR _MsgDamage$[ebp], al

; 3315 : 			skill = 59;

  06326	c7 45 d8 3b 00
	00 00		 mov	 DWORD PTR _skill$[ebp], 59 ; 0000003bH
$LN46@Attack:

; 3316 : 		}
; 3317 : 
; 3318 : 		float fRate = lpObj->SetOpDoubleDamage + lpObj->m_MPSkillOpt.MpsSpearMastery + lpObj->m_MPSkillOpt.MpsFistMastery;

  0632d	8b 45 08	 mov	 eax, DWORD PTR _lpObj$[ebp]
  06330	0f b6 88 3f 11
	00 00		 movzx	 ecx, BYTE PTR [eax+4415]
  06337	89 8d c8 fc ff
	ff		 mov	 DWORD PTR tv7924[ebp], ecx
  0633d	db 85 c8 fc ff
	ff		 fild	 DWORD PTR tv7924[ebp]
  06343	8b 55 08	 mov	 edx, DWORD PTR _lpObj$[ebp]
  06346	d8 82 88 26 00
	00		 fadd	 DWORD PTR [edx+9864]
  0634c	8b 45 08	 mov	 eax, DWORD PTR _lpObj$[ebp]
  0634f	d8 80 98 27 00
	00		 fadd	 DWORD PTR [eax+10136]
  06355	d9 9d 20 fd ff
	ff		 fstp	 DWORD PTR _fRate$240822[ebp]

; 3319 : 
; 3320 : 		if ( (rand()%100) < fRate )

  0635b	e8 00 00 00 00	 call	 _rand
  06360	99		 cdq
  06361	b9 64 00 00 00	 mov	 ecx, 100		; 00000064H
  06366	f7 f9		 idiv	 ecx
  06368	89 95 c8 fc ff
	ff		 mov	 DWORD PTR tv7935[ebp], edx
  0636e	db 85 c8 fc ff
	ff		 fild	 DWORD PTR tv7935[ebp]
  06374	d9 85 20 fd ff
	ff		 fld	 DWORD PTR _fRate$240822[ebp]
  0637a	de d9		 fcompp
  0637c	df e0		 fnstsw	 ax
  0637e	f6 c4 41	 test	 ah, 65			; 00000041H
  06381	0f 85 1f 01 00
	00		 jne	 $LN38@Attack

; 3321 : 		{
; 3322 : 			if ( skill == 78 || (g_MasterSkillSystem.GetBaseMasterLevelSkill(skill) == 525) )

  06387	83 7d d8 4e	 cmp	 DWORD PTR _skill$[ebp], 78 ; 0000004eH
  0638b	74 15		 je	 SHORT $LN36@Attack
  0638d	8b 45 d8	 mov	 eax, DWORD PTR _skill$[ebp]
  06390	50		 push	 eax
  06391	b9 00 00 00 00	 mov	 ecx, OFFSET ?g_MasterSkillSystem@@3VCMasterLevelSkillTreeSystem@@A ; g_MasterSkillSystem
  06396	e8 00 00 00 00	 call	 ?GetBaseMasterLevelSkill@CMasterLevelSkillTreeSystem@@QAEHH@Z ; CMasterLevelSkillTreeSystem::GetBaseMasterLevelSkill
  0639b	3d 0d 02 00 00	 cmp	 eax, 525		; 0000020dH
  063a0	75 16		 jne	 SHORT $LN37@Attack
$LN36@Attack:

; 3323 : 			{
; 3324 : 				gObjUseSkill.FireScreamExplosionAttack(lpObj, lpTargetObj, AttackDamage);

  063a2	8b 45 1c	 mov	 eax, DWORD PTR _AttackDamage$[ebp]
  063a5	50		 push	 eax
  063a6	8b 4d 0c	 mov	 ecx, DWORD PTR _lpTargetObj$[ebp]
  063a9	51		 push	 ecx
  063aa	8b 55 08	 mov	 edx, DWORD PTR _lpObj$[ebp]
  063ad	52		 push	 edx
  063ae	b9 00 00 00 00	 mov	 ecx, OFFSET ?gObjUseSkill@@3VCObjUseSkill@@A ; gObjUseSkill
  063b3	e8 00 00 00 00	 call	 ?FireScreamExplosionAttack@CObjUseSkill@@QAEHPAUOBJECTSTRUCT@@0H@Z ; CObjUseSkill::FireScreamExplosionAttack
$LN37@Attack:

; 3325 : 			}
; 3326 : 
; 3327 : 			if ( lpObj->Type == OBJ_USER && lpTargetObj->Type == OBJ_USER )

  063b8	8b 45 08	 mov	 eax, DWORD PTR _lpObj$[ebp]
  063bb	0f b7 48 68	 movzx	 ecx, WORD PTR [eax+104]
  063bf	83 f9 01	 cmp	 ecx, 1
  063c2	0f 85 95 00 00
	00		 jne	 $LN35@Attack
  063c8	8b 45 0c	 mov	 eax, DWORD PTR _lpTargetObj$[ebp]
  063cb	0f b7 48 68	 movzx	 ecx, WORD PTR [eax+104]
  063cf	83 f9 01	 cmp	 ecx, 1
  063d2	0f 85 85 00 00
	00		 jne	 $LN35@Attack

; 3328 : 			{
; 3329 : 				iTempShieldDamage = this->GetShieldDamage(lpObj, lpTargetObj, AttackDamage);

  063d8	8b 45 1c	 mov	 eax, DWORD PTR _AttackDamage$[ebp]
  063db	50		 push	 eax
  063dc	8b 4d 0c	 mov	 ecx, DWORD PTR _lpTargetObj$[ebp]
  063df	51		 push	 ecx
  063e0	8b 55 08	 mov	 edx, DWORD PTR _lpObj$[ebp]
  063e3	52		 push	 edx
  063e4	8b 4d f8	 mov	 ecx, DWORD PTR _this$[ebp]
  063e7	e8 00 00 00 00	 call	 ?GetShieldDamage@CObjAttack@@QAEHPAUOBJECTSTRUCT@@0H@Z ; CObjAttack::GetShieldDamage
  063ec	89 45 e0	 mov	 DWORD PTR _iTempShieldDamage$[ebp], eax

; 3330 : 				lpTargetObj->iShield -= iTempShieldDamage;

  063ef	8b 45 0c	 mov	 eax, DWORD PTR _lpTargetObj$[ebp]
  063f2	8b 88 54 01 00
	00		 mov	 ecx, DWORD PTR [eax+340]
  063f8	2b 4d e0	 sub	 ecx, DWORD PTR _iTempShieldDamage$[ebp]
  063fb	8b 55 0c	 mov	 edx, DWORD PTR _lpTargetObj$[ebp]
  063fe	89 8a 54 01 00
	00		 mov	 DWORD PTR [edx+340], ecx

; 3331 : 				lpTargetObj->Life -= AttackDamage - iTempShieldDamage;

  06404	8b 45 1c	 mov	 eax, DWORD PTR _AttackDamage$[ebp]
  06407	2b 45 e0	 sub	 eax, DWORD PTR _iTempShieldDamage$[ebp]
  0640a	89 85 c8 fc ff
	ff		 mov	 DWORD PTR tv7955[ebp], eax
  06410	db 85 c8 fc ff
	ff		 fild	 DWORD PTR tv7955[ebp]
  06416	8b 4d 0c	 mov	 ecx, DWORD PTR _lpTargetObj$[ebp]
  06419	d8 a9 fc 00 00
	00		 fsubr	 DWORD PTR [ecx+252]
  0641f	8b 55 0c	 mov	 edx, DWORD PTR _lpTargetObj$[ebp]
  06422	d9 9a fc 00 00
	00		 fstp	 DWORD PTR [edx+252]

; 3332 : 				iTotalShieldDamage += iTempShieldDamage;

  06428	8b 45 dc	 mov	 eax, DWORD PTR _iTotalShieldDamage$[ebp]
  0642b	03 45 e0	 add	 eax, DWORD PTR _iTempShieldDamage$[ebp]
  0642e	89 45 dc	 mov	 DWORD PTR _iTotalShieldDamage$[ebp], eax

; 3333 : 				AttackDamage += AttackDamage;

  06431	8b 45 1c	 mov	 eax, DWORD PTR _AttackDamage$[ebp]
  06434	03 45 1c	 add	 eax, DWORD PTR _AttackDamage$[ebp]
  06437	89 45 1c	 mov	 DWORD PTR _AttackDamage$[ebp], eax

; 3334 : 
; 3335 : 				if ( lpTargetObj->Life < 0.0f )

  0643a	8b 45 0c	 mov	 eax, DWORD PTR _lpTargetObj$[ebp]
  0643d	d9 80 fc 00 00
	00		 fld	 DWORD PTR [eax+252]
  06443	dc 1d 00 00 00
	00		 fcomp	 QWORD PTR __real@0000000000000000
  06449	df e0		 fnstsw	 ax
  0644b	f6 c4 05	 test	 ah, 5
  0644e	7a 0b		 jp	 SHORT $LN34@Attack

; 3336 : 				{
; 3337 : 					lpTargetObj->Life = 0.0f;

  06450	8b 45 0c	 mov	 eax, DWORD PTR _lpTargetObj$[ebp]
  06453	d9 ee		 fldz
  06455	d9 98 fc 00 00
	00		 fstp	 DWORD PTR [eax+252]
$LN34@Attack:

; 3338 : 				}
; 3339 : 			}
; 3340 : 			else

  0645b	eb 3f		 jmp	 SHORT $LN32@Attack
$LN35@Attack:

; 3341 : 			{
; 3342 : 				lpTargetObj->Life -= AttackDamage;

  0645d	db 45 1c	 fild	 DWORD PTR _AttackDamage$[ebp]
  06460	8b 45 0c	 mov	 eax, DWORD PTR _lpTargetObj$[ebp]
  06463	d8 a8 fc 00 00
	00		 fsubr	 DWORD PTR [eax+252]
  06469	8b 4d 0c	 mov	 ecx, DWORD PTR _lpTargetObj$[ebp]
  0646c	d9 99 fc 00 00
	00		 fstp	 DWORD PTR [ecx+252]

; 3343 : 				AttackDamage += AttackDamage;

  06472	8b 45 1c	 mov	 eax, DWORD PTR _AttackDamage$[ebp]
  06475	03 45 1c	 add	 eax, DWORD PTR _AttackDamage$[ebp]
  06478	89 45 1c	 mov	 DWORD PTR _AttackDamage$[ebp], eax

; 3344 : 
; 3345 : 				if ( lpTargetObj->Life < 0.0f )

  0647b	8b 45 0c	 mov	 eax, DWORD PTR _lpTargetObj$[ebp]
  0647e	d9 80 fc 00 00
	00		 fld	 DWORD PTR [eax+252]
  06484	dc 1d 00 00 00
	00		 fcomp	 QWORD PTR __real@0000000000000000
  0648a	df e0		 fnstsw	 ax
  0648c	f6 c4 05	 test	 ah, 5
  0648f	7a 0b		 jp	 SHORT $LN32@Attack

; 3346 : 				{
; 3347 : 					lpTargetObj->Life = 0.0f;

  06491	8b 45 0c	 mov	 eax, DWORD PTR _lpTargetObj$[ebp]
  06494	d9 ee		 fldz
  06496	d9 98 fc 00 00
	00		 fstp	 DWORD PTR [eax+252]
$LN32@Attack:

; 3348 : 				}
; 3349 : 			}
; 3350 : 
; 3351 : 			MsgDamage |= 0x40;

  0649c	0f b6 45 eb	 movzx	 eax, BYTE PTR _MsgDamage$[ebp]
  064a0	83 c8 40	 or	 eax, 64			; 00000040H
  064a3	88 45 eb	 mov	 BYTE PTR _MsgDamage$[ebp], al
$LN38@Attack:

; 3352 : 		}
; 3353 : 
; 3354 : 		if ( g_ShieldSystemOn == TRUE )

  064a6	83 3d 00 00 00
	00 01		 cmp	 DWORD PTR ?g_ShieldSystemOn@@3HA, 1 ; g_ShieldSystemOn
  064ad	75 09		 jne	 SHORT $LN31@Attack

; 3355 : 		{
; 3356 : 			AttackDamage -= iTotalShieldDamage;

  064af	8b 45 1c	 mov	 eax, DWORD PTR _AttackDamage$[ebp]
  064b2	2b 45 dc	 sub	 eax, DWORD PTR _iTotalShieldDamage$[ebp]
  064b5	89 45 1c	 mov	 DWORD PTR _AttackDamage$[ebp], eax
$LN31@Attack:

; 3357 : 		}
; 3358 : 
; 3359 : 		if ( g_ShieldSystemOn == FALSE )

  064b8	83 3d 00 00 00
	00 00		 cmp	 DWORD PTR ?g_ShieldSystemOn@@3HA, 0 ; g_ShieldSystemOn
  064bf	0f 85 f7 00 00
	00		 jne	 $LN28@Attack

; 3360 : 		{
; 3361 : 			if ( lpObj->Type == OBJ_USER && lpTargetObj->Type == OBJ_USER )

  064c5	8b 45 08	 mov	 eax, DWORD PTR _lpObj$[ebp]
  064c8	0f b7 48 68	 movzx	 ecx, WORD PTR [eax+104]
  064cc	83 f9 01	 cmp	 ecx, 1
  064cf	0f 85 e7 00 00
	00		 jne	 $LN28@Attack
  064d5	8b 45 0c	 mov	 eax, DWORD PTR _lpTargetObj$[ebp]
  064d8	0f b7 48 68	 movzx	 ecx, WORD PTR [eax+104]
  064dc	83 f9 01	 cmp	 ecx, 1
  064df	0f 85 d7 00 00
	00		 jne	 $LN28@Attack

; 3362 : 			{
; 3363 : 				if ( CC_MAP_RANGE(lpObj->MapNumber) && CC_MAP_RANGE(lpTargetObj->MapNumber) )

  064e5	8b 45 08	 mov	 eax, DWORD PTR _lpObj$[ebp]
  064e8	0f b6 88 49 01
	00 00		 movzx	 ecx, BYTE PTR [eax+329]
  064ef	83 f9 35	 cmp	 ecx, 53			; 00000035H
  064f2	75 0c		 jne	 SHORT $LN799@Attack
  064f4	c7 85 c8 fc ff
	ff 01 00 00 00	 mov	 DWORD PTR tv4550[ebp], 1
  064fe	eb 3f		 jmp	 SHORT $LN800@Attack
$LN799@Attack:
  06500	8b 55 08	 mov	 edx, DWORD PTR _lpObj$[ebp]
  06503	0f b6 82 49 01
	00 00		 movzx	 eax, BYTE PTR [edx+329]
  0650a	83 f8 12	 cmp	 eax, 18			; 00000012H
  0650d	7d 0c		 jge	 SHORT $LN797@Attack
  0650f	c7 85 c4 fc ff
	ff 00 00 00 00	 mov	 DWORD PTR tv4549[ebp], 0
  06519	eb 18		 jmp	 SHORT $LN798@Attack
$LN797@Attack:
  0651b	8b 4d 08	 mov	 ecx, DWORD PTR _lpObj$[ebp]
  0651e	0f b6 91 49 01
	00 00		 movzx	 edx, BYTE PTR [ecx+329]
  06525	33 c0		 xor	 eax, eax
  06527	83 fa 17	 cmp	 edx, 23			; 00000017H
  0652a	0f 9e c0	 setle	 al
  0652d	89 85 c4 fc ff
	ff		 mov	 DWORD PTR tv4549[ebp], eax
$LN798@Attack:
  06533	8b 8d c4 fc ff
	ff		 mov	 ecx, DWORD PTR tv4549[ebp]
  06539	89 8d c8 fc ff
	ff		 mov	 DWORD PTR tv4550[ebp], ecx
$LN800@Attack:
  0653f	83 bd c8 fc ff
	ff 00		 cmp	 DWORD PTR tv4550[ebp], 0
  06546	74 74		 je	 SHORT $LN28@Attack
  06548	8b 45 0c	 mov	 eax, DWORD PTR _lpTargetObj$[ebp]
  0654b	0f b6 88 49 01
	00 00		 movzx	 ecx, BYTE PTR [eax+329]
  06552	83 f9 35	 cmp	 ecx, 53			; 00000035H
  06555	75 0c		 jne	 SHORT $LN803@Attack
  06557	c7 85 c8 fc ff
	ff 01 00 00 00	 mov	 DWORD PTR tv4563[ebp], 1
  06561	eb 3f		 jmp	 SHORT $LN804@Attack
$LN803@Attack:
  06563	8b 55 0c	 mov	 edx, DWORD PTR _lpTargetObj$[ebp]
  06566	0f b6 82 49 01
	00 00		 movzx	 eax, BYTE PTR [edx+329]
  0656d	83 f8 12	 cmp	 eax, 18			; 00000012H
  06570	7d 0c		 jge	 SHORT $LN801@Attack
  06572	c7 85 c4 fc ff
	ff 00 00 00 00	 mov	 DWORD PTR tv4562[ebp], 0
  0657c	eb 18		 jmp	 SHORT $LN802@Attack
$LN801@Attack:
  0657e	8b 4d 0c	 mov	 ecx, DWORD PTR _lpTargetObj$[ebp]
  06581	0f b6 91 49 01
	00 00		 movzx	 edx, BYTE PTR [ecx+329]
  06588	33 c0		 xor	 eax, eax
  0658a	83 fa 17	 cmp	 edx, 23			; 00000017H
  0658d	0f 9e c0	 setle	 al
  06590	89 85 c4 fc ff
	ff		 mov	 DWORD PTR tv4562[ebp], eax
$LN802@Attack:
  06596	8b 8d c4 fc ff
	ff		 mov	 ecx, DWORD PTR tv4562[ebp]
  0659c	89 8d c8 fc ff
	ff		 mov	 DWORD PTR tv4563[ebp], ecx
$LN804@Attack:
  065a2	83 bd c8 fc ff
	ff 00		 cmp	 DWORD PTR tv4563[ebp], 0
  065a9	74 11		 je	 SHORT $LN28@Attack

; 3364 : 				{
; 3365 : 					AttackDamage = AttackDamage * 50 / 100;

  065ab	8b 45 1c	 mov	 eax, DWORD PTR _AttackDamage$[ebp]
  065ae	6b c0 32	 imul	 eax, 50			; 00000032H
  065b1	99		 cdq
  065b2	b9 64 00 00 00	 mov	 ecx, 100		; 00000064H
  065b7	f7 f9		 idiv	 ecx
  065b9	89 45 1c	 mov	 DWORD PTR _AttackDamage$[ebp], eax
$LN28@Attack:

; 3366 : 				}
; 3367 : 			}
; 3368 : 		}
; 3369 : 
; 3370 : #ifdef MONK
; 3371 : 		if( lpObj->Class == CLASS_MONK && byBarrageCount )

  065bc	8b 45 08	 mov	 eax, DWORD PTR _lpObj$[ebp]
  065bf	0f b7 88 b8 00
	00 00		 movzx	 ecx, WORD PTR [eax+184]
  065c6	83 f9 06	 cmp	 ecx, 6
  065c9	0f 85 b9 00 00
	00		 jne	 $LN20@Attack
  065cf	0f b6 45 24	 movzx	 eax, BYTE PTR _byBarrageCount$[ebp]
  065d3	85 c0		 test	 eax, eax
  065d5	0f 84 ad 00 00
	00		 je	 $LN20@Attack

; 3372 : 		{
; 3373 : 			if( lpMagic->m_Skill == 261 ||
; 3374 : 				lpMagic->m_Skill == 263 ||
; 3375 : 				g_MasterSkillSystem.GetBaseMasterLevelSkill(skill) == 552 ||
; 3376 : 				g_MasterSkillSystem.GetBaseMasterLevelSkill(skill) == 555 ||
; 3377 : 				g_MasterSkillSystem.GetBaseMasterLevelSkill(skill) == 559 )

  065db	8b 45 10	 mov	 eax, DWORD PTR _lpMagic$[ebp]
  065de	81 78 08 05 01
	00 00		 cmp	 DWORD PTR [eax+8], 261	; 00000105H
  065e5	74 4b		 je	 SHORT $LN25@Attack
  065e7	8b 45 10	 mov	 eax, DWORD PTR _lpMagic$[ebp]
  065ea	81 78 08 07 01
	00 00		 cmp	 DWORD PTR [eax+8], 263	; 00000107H
  065f1	74 3f		 je	 SHORT $LN25@Attack
  065f3	8b 45 d8	 mov	 eax, DWORD PTR _skill$[ebp]
  065f6	50		 push	 eax
  065f7	b9 00 00 00 00	 mov	 ecx, OFFSET ?g_MasterSkillSystem@@3VCMasterLevelSkillTreeSystem@@A ; g_MasterSkillSystem
  065fc	e8 00 00 00 00	 call	 ?GetBaseMasterLevelSkill@CMasterLevelSkillTreeSystem@@QAEHH@Z ; CMasterLevelSkillTreeSystem::GetBaseMasterLevelSkill
  06601	3d 28 02 00 00	 cmp	 eax, 552		; 00000228H
  06606	74 2a		 je	 SHORT $LN25@Attack
  06608	8b 45 d8	 mov	 eax, DWORD PTR _skill$[ebp]
  0660b	50		 push	 eax
  0660c	b9 00 00 00 00	 mov	 ecx, OFFSET ?g_MasterSkillSystem@@3VCMasterLevelSkillTreeSystem@@A ; g_MasterSkillSystem
  06611	e8 00 00 00 00	 call	 ?GetBaseMasterLevelSkill@CMasterLevelSkillTreeSystem@@QAEHH@Z ; CMasterLevelSkillTreeSystem::GetBaseMasterLevelSkill
  06616	3d 2b 02 00 00	 cmp	 eax, 555		; 0000022bH
  0661b	74 15		 je	 SHORT $LN25@Attack
  0661d	8b 45 d8	 mov	 eax, DWORD PTR _skill$[ebp]
  06620	50		 push	 eax
  06621	b9 00 00 00 00	 mov	 ecx, OFFSET ?g_MasterSkillSystem@@3VCMasterLevelSkillTreeSystem@@A ; g_MasterSkillSystem
  06626	e8 00 00 00 00	 call	 ?GetBaseMasterLevelSkill@CMasterLevelSkillTreeSystem@@QAEHH@Z ; CMasterLevelSkillTreeSystem::GetBaseMasterLevelSkill
  0662b	3d 2f 02 00 00	 cmp	 eax, 559		; 0000022fH
  06630	75 2c		 jne	 SHORT $LN26@Attack
$LN25@Attack:

; 3378 : 			{
; 3379 : 				if( (byBarrageCount%2) == 0 )

  06632	0f b6 45 24	 movzx	 eax, BYTE PTR _byBarrageCount$[ebp]
  06636	25 01 00 00 80	 and	 eax, -2147483647	; 80000001H
  0663b	79 05		 jns	 SHORT $LN808@Attack
  0663d	48		 dec	 eax
  0663e	83 c8 fe	 or	 eax, -2			; fffffffeH
  06641	40		 inc	 eax
$LN808@Attack:
  06642	85 c0		 test	 eax, eax
  06644	75 0c		 jne	 SHORT $LN24@Attack

; 3380 : 				{
; 3381 : 					MsgDamage |= 0x20;

  06646	0f b6 45 eb	 movzx	 eax, BYTE PTR _MsgDamage$[ebp]
  0664a	83 c8 20	 or	 eax, 32			; 00000020H
  0664d	88 45 eb	 mov	 BYTE PTR _MsgDamage$[ebp], al

; 3382 : 				}
; 3383 : 				else

  06650	eb 0a		 jmp	 SHORT $LN23@Attack
$LN24@Attack:

; 3384 : 				{
; 3385 : 					MsgDamage |= 0x10;

  06652	0f b6 45 eb	 movzx	 eax, BYTE PTR _MsgDamage$[ebp]
  06656	83 c8 10	 or	 eax, 16			; 00000010H
  06659	88 45 eb	 mov	 BYTE PTR _MsgDamage$[ebp], al
$LN23@Attack:

; 3386 : 				}
; 3387 : 			}
; 3388 : 			else

  0665c	eb 2a		 jmp	 SHORT $LN20@Attack
$LN26@Attack:

; 3389 : 			{
; 3390 : 				if( (byBarrageCount%4) == 0 )

  0665e	0f b6 45 24	 movzx	 eax, BYTE PTR _byBarrageCount$[ebp]
  06662	25 03 00 00 80	 and	 eax, -2147483645	; 80000003H
  06667	79 05		 jns	 SHORT $LN809@Attack
  06669	48		 dec	 eax
  0666a	83 c8 fc	 or	 eax, -4			; fffffffcH
  0666d	40		 inc	 eax
$LN809@Attack:
  0666e	85 c0		 test	 eax, eax
  06670	75 0c		 jne	 SHORT $LN21@Attack

; 3391 : 				{
; 3392 : 					MsgDamage |= 0x20;

  06672	0f b6 45 eb	 movzx	 eax, BYTE PTR _MsgDamage$[ebp]
  06676	83 c8 20	 or	 eax, 32			; 00000020H
  06679	88 45 eb	 mov	 BYTE PTR _MsgDamage$[ebp], al

; 3393 : 				}
; 3394 : 				else

  0667c	eb 0a		 jmp	 SHORT $LN20@Attack
$LN21@Attack:

; 3395 : 				{
; 3396 : 					MsgDamage |= 0x10;

  0667e	0f b6 45 eb	 movzx	 eax, BYTE PTR _MsgDamage$[ebp]
  06682	83 c8 10	 or	 eax, 16			; 00000010H
  06685	88 45 eb	 mov	 BYTE PTR _MsgDamage$[ebp], al
$LN20@Attack:

; 3397 : 				}
; 3398 : 			}
; 3399 : 		}
; 3400 : #endif
; 3401 : 
; 3402 : 		gObjLifeCheck(lpTargetObj, lpObj, AttackDamage, 0, MSBFlag, MsgDamage, skill, iTotalShieldDamage);

  06688	8b 45 dc	 mov	 eax, DWORD PTR _iTotalShieldDamage$[ebp]
  0668b	50		 push	 eax
  0668c	0f b7 4d d8	 movzx	 ecx, WORD PTR _skill$[ebp]
  06690	51		 push	 ecx
  06691	0f b6 55 eb	 movzx	 edx, BYTE PTR _MsgDamage$[ebp]
  06695	52		 push	 edx
  06696	0f b6 45 18	 movzx	 eax, BYTE PTR _MSBFlag$[ebp]
  0669a	50		 push	 eax
  0669b	6a 00		 push	 0
  0669d	8b 4d 1c	 mov	 ecx, DWORD PTR _AttackDamage$[ebp]
  066a0	51		 push	 ecx
  066a1	8b 55 08	 mov	 edx, DWORD PTR _lpObj$[ebp]
  066a4	52		 push	 edx
  066a5	8b 45 0c	 mov	 eax, DWORD PTR _lpTargetObj$[ebp]
  066a8	50		 push	 eax
  066a9	e8 00 00 00 00	 call	 ?gObjLifeCheck@@YAXPAUOBJECTSTRUCT@@0HHHHGH@Z ; gObjLifeCheck
  066ae	83 c4 20	 add	 esp, 32			; 00000020H

; 3403 : 
; 3404 : 		if ( iTotalShieldDamage > 0 )

  066b1	83 7d dc 00	 cmp	 DWORD PTR _iTotalShieldDamage$[ebp], 0
  066b5	7e 62		 jle	 SHORT $LN19@Attack

; 3405 : 		{
; 3406 : 			LogAddTD("[PvP System] Victim:[%s][%s], Attacker:[%s][%s] - SD[%d] HP[%f] -> SD[%d] HP[%f]", lpTargetObj->AccountID, lpTargetObj->Name, lpObj->AccountID, lpObj->Name, lpTargetObj->iShield + iTotalShieldDamage, lpTargetObj->Life + AttackDamage, lpTargetObj->iShield, lpTargetObj->Life);

  066b7	8b 45 0c	 mov	 eax, DWORD PTR _lpTargetObj$[ebp]
  066ba	d9 80 fc 00 00
	00		 fld	 DWORD PTR [eax+252]
  066c0	83 ec 08	 sub	 esp, 8
  066c3	dd 1c 24	 fstp	 QWORD PTR [esp]
  066c6	8b 4d 0c	 mov	 ecx, DWORD PTR _lpTargetObj$[ebp]
  066c9	8b 91 54 01 00
	00		 mov	 edx, DWORD PTR [ecx+340]
  066cf	52		 push	 edx
  066d0	db 45 1c	 fild	 DWORD PTR _AttackDamage$[ebp]
  066d3	8b 45 0c	 mov	 eax, DWORD PTR _lpTargetObj$[ebp]
  066d6	d8 80 fc 00 00
	00		 fadd	 DWORD PTR [eax+252]
  066dc	83 ec 08	 sub	 esp, 8
  066df	dd 1c 24	 fstp	 QWORD PTR [esp]
  066e2	8b 4d 0c	 mov	 ecx, DWORD PTR _lpTargetObj$[ebp]
  066e5	8b 91 54 01 00
	00		 mov	 edx, DWORD PTR [ecx+340]
  066eb	03 55 dc	 add	 edx, DWORD PTR _iTotalShieldDamage$[ebp]
  066ee	52		 push	 edx
  066ef	8b 45 08	 mov	 eax, DWORD PTR _lpObj$[ebp]
  066f2	83 c0 77	 add	 eax, 119		; 00000077H
  066f5	50		 push	 eax
  066f6	8b 4d 08	 mov	 ecx, DWORD PTR _lpObj$[ebp]
  066f9	83 c1 6c	 add	 ecx, 108		; 0000006cH
  066fc	51		 push	 ecx
  066fd	8b 55 0c	 mov	 edx, DWORD PTR _lpTargetObj$[ebp]
  06700	83 c2 77	 add	 edx, 119		; 00000077H
  06703	52		 push	 edx
  06704	8b 45 0c	 mov	 eax, DWORD PTR _lpTargetObj$[ebp]
  06707	83 c0 6c	 add	 eax, 108		; 0000006cH
  0670a	50		 push	 eax
  0670b	68 00 00 00 00	 push	 OFFSET ??_C@_0FB@HEJCKECH@?$FLPvP?5System?$FN?5Victim?3?$FL?$CFs?$FN?$FL?$CFs?$FN?0?5At@
  06710	ff 15 00 00 00
	00		 call	 DWORD PTR ?LogAddTD@@3P6AXPADZZA ; LogAddTD
  06716	83 c4 2c	 add	 esp, 44			; 0000002cH
$LN19@Attack:

; 3407 : 		}
; 3408 : 	}
; 3409 : 	else

  06719	eb 1f		 jmp	 SHORT $LN18@Attack
$LN62@Attack:

; 3410 : 	{
; 3411 : 		GCDamageSend(lpObj->m_Index, lpTargetObj->m_Index, 0, 0, MsgDamage, 0);

  0671b	6a 00		 push	 0
  0671d	0f b6 45 eb	 movzx	 eax, BYTE PTR _MsgDamage$[ebp]
  06721	50		 push	 eax
  06722	6a 00		 push	 0
  06724	6a 00		 push	 0
  06726	8b 4d 0c	 mov	 ecx, DWORD PTR _lpTargetObj$[ebp]
  06729	8b 11		 mov	 edx, DWORD PTR [ecx]
  0672b	52		 push	 edx
  0672c	8b 45 08	 mov	 eax, DWORD PTR _lpObj$[ebp]
  0672f	8b 08		 mov	 ecx, DWORD PTR [eax]
  06731	51		 push	 ecx
  06732	e8 00 00 00 00	 call	 ?GCDamageSend@@YAXHHHHHH@Z ; GCDamageSend
  06737	83 c4 18	 add	 esp, 24			; 00000018H
$LN18@Attack:

; 3412 : 	}
; 3413 : 
; 3414 : 	if ( lpObj->Life <= 0.0f && lpObj->Type == OBJ_USER )

  0673a	8b 45 08	 mov	 eax, DWORD PTR _lpObj$[ebp]
  0673d	d9 80 fc 00 00
	00		 fld	 DWORD PTR [eax+252]
  06743	dc 1d 00 00 00
	00		 fcomp	 QWORD PTR __real@0000000000000000
  06749	df e0		 fnstsw	 ax
  0674b	f6 c4 41	 test	 ah, 65			; 00000041H
  0674e	7a 53		 jp	 SHORT $LN16@Attack
  06750	8b 45 08	 mov	 eax, DWORD PTR _lpObj$[ebp]
  06753	0f b7 48 68	 movzx	 ecx, WORD PTR [eax+104]
  06757	83 f9 01	 cmp	 ecx, 1
  0675a	75 47		 jne	 SHORT $LN16@Attack

; 3415 : 	{
; 3416 : 		if ( lpObj->m_CheckLifeTime <= 0 )

  0675c	8b 45 08	 mov	 eax, DWORD PTR _lpObj$[ebp]
  0675f	83 b8 d4 10 00
	00 00		 cmp	 DWORD PTR [eax+4308], 0
  06766	7f 3b		 jg	 SHORT $LN16@Attack

; 3417 : 		{
; 3418 : 			lpObj->lpAttackObj = lpTargetObj;

  06768	8b 45 08	 mov	 eax, DWORD PTR _lpObj$[ebp]
  0676b	8b 4d 0c	 mov	 ecx, DWORD PTR _lpTargetObj$[ebp]
  0676e	89 88 d4 03 00
	00		 mov	 DWORD PTR [eax+980], ecx

; 3419 : 
; 3420 : 			if ( lpTargetObj->Type == OBJ_USER )

  06774	8b 45 0c	 mov	 eax, DWORD PTR _lpTargetObj$[ebp]
  06777	0f b7 48 68	 movzx	 ecx, WORD PTR [eax+104]
  0677b	83 f9 01	 cmp	 ecx, 1
  0677e	75 0c		 jne	 SHORT $LN15@Attack

; 3421 : 			{
; 3422 : 				lpObj->m_bAttackerKilled = true;

  06780	8b 45 08	 mov	 eax, DWORD PTR _lpObj$[ebp]
  06783	c6 80 e0 03 00
	00 01		 mov	 BYTE PTR [eax+992], 1

; 3423 : 			}
; 3424 : 			else

  0678a	eb 0a		 jmp	 SHORT $LN14@Attack
$LN15@Attack:

; 3425 : 			{
; 3426 : 				lpObj->m_bAttackerKilled = false;

  0678c	8b 45 08	 mov	 eax, DWORD PTR _lpObj$[ebp]
  0678f	c6 80 e0 03 00
	00 00		 mov	 BYTE PTR [eax+992], 0
$LN14@Attack:

; 3427 : 			}
; 3428 : 
; 3429 : 			lpObj->m_CheckLifeTime = 3;

  06796	8b 45 08	 mov	 eax, DWORD PTR _lpObj$[ebp]
  06799	c7 80 d4 10 00
	00 03 00 00 00	 mov	 DWORD PTR [eax+4308], 3
$LN16@Attack:

; 3430 : 		}
; 3431 : 	}
; 3432 : 
; 3433 : 
; 3434 : 	CItem* Right = &lpObj->pInventory[0];

  067a3	8b 45 08	 mov	 eax, DWORD PTR _lpObj$[ebp]
  067a6	8b 88 24 0e 00
	00		 mov	 ecx, DWORD PTR [eax+3620]
  067ac	89 8d 1c fd ff
	ff		 mov	 DWORD PTR _Right$[ebp], ecx

; 3435 : 	CItem* Left = &lpObj->pInventory[1];

  067b2	8b 45 08	 mov	 eax, DWORD PTR _lpObj$[ebp]
  067b5	8b 88 24 0e 00
	00		 mov	 ecx, DWORD PTR [eax+3620]
  067bb	81 c1 d4 00 00
	00		 add	 ecx, 212		; 000000d4H
  067c1	89 8d 18 fd ff
	ff		 mov	 DWORD PTR _Left$[ebp], ecx

; 3436 : 
; 3437 : 	if( Right->GetDetailItemType() == 2 ||
; 3438 : 		Left->GetDetailItemType() == 2 )

  067c7	8b 8d 1c fd ff
	ff		 mov	 ecx, DWORD PTR _Right$[ebp]
  067cd	e8 00 00 00 00	 call	 ?GetDetailItemType@CItem@@QAEHXZ ; CItem::GetDetailItemType
  067d2	83 f8 02	 cmp	 eax, 2
  067d5	74 14		 je	 SHORT $LN12@Attack
  067d7	8b 8d 18 fd ff
	ff		 mov	 ecx, DWORD PTR _Left$[ebp]
  067dd	e8 00 00 00 00	 call	 ?GetDetailItemType@CItem@@QAEHXZ ; CItem::GetDetailItemType
  067e2	83 f8 02	 cmp	 eax, 2
  067e5	0f 85 a0 00 00
	00		 jne	 $LN10@Attack
$LN12@Attack:

; 3439 : 	{
; 3440 : 		if( lpObj->m_MPSkillOpt.MpsMaceMastery > 0.0f )

  067eb	8b 45 08	 mov	 eax, DWORD PTR _lpObj$[ebp]
  067ee	d9 80 8c 26 00
	00		 fld	 DWORD PTR [eax+9868]
  067f4	dc 1d 00 00 00
	00		 fcomp	 QWORD PTR __real@0000000000000000
  067fa	df e0		 fnstsw	 ax
  067fc	f6 c4 41	 test	 ah, 65			; 00000041H
  067ff	0f 85 86 00 00
	00		 jne	 $LN10@Attack

; 3441 : 		{
; 3442 : 			float fPercent = rand()%100;

  06805	e8 00 00 00 00	 call	 _rand
  0680a	99		 cdq
  0680b	b9 64 00 00 00	 mov	 ecx, 100		; 00000064H
  06810	f7 f9		 idiv	 ecx
  06812	89 95 c8 fc ff
	ff		 mov	 DWORD PTR tv8062[ebp], edx
  06818	db 85 c8 fc ff
	ff		 fild	 DWORD PTR tv8062[ebp]
  0681e	d9 9d 14 fd ff
	ff		 fstp	 DWORD PTR _fPercent$240854[ebp]

; 3443 : 
; 3444 : 			if( fPercent < lpObj->m_MPSkillOpt.MpsMaceMastery )

  06824	d9 85 14 fd ff
	ff		 fld	 DWORD PTR _fPercent$240854[ebp]
  0682a	8b 45 08	 mov	 eax, DWORD PTR _lpObj$[ebp]
  0682d	d9 80 8c 26 00
	00		 fld	 DWORD PTR [eax+9868]
  06833	de d9		 fcompp
  06835	df e0		 fnstsw	 ax
  06837	f6 c4 41	 test	 ah, 65			; 00000041H
  0683a	75 4f		 jne	 SHORT $LN10@Attack

; 3445 : 			{
; 3446 : 				if(!g_ExLicense.CheckUser(eExUB::Stone))

  0683c	6a 37		 push	 55			; 00000037H
  0683e	b9 00 00 00 00	 mov	 ecx, OFFSET ?g_ExLicense@@3VCExLicense@@A ; g_ExLicense
  06843	e8 00 00 00 00	 call	 ?CheckUser@CExLicense@@QAE_NH@Z ; CExLicense::CheckUser
  06848	0f b6 c0	 movzx	 eax, al
  0684b	85 c0		 test	 eax, eax
  0684d	75 18		 jne	 SHORT $LN9@Attack

; 3447 : 				{
; 3448 : 					gObjApplyBuffEffectDuration(lpTargetObj,AT_STUN,0,0,0,0,2);

  0684f	6a 02		 push	 2
  06851	6a 00		 push	 0
  06853	6a 00		 push	 0
  06855	6a 00		 push	 0
  06857	6a 00		 push	 0
  06859	6a 3d		 push	 61			; 0000003dH
  0685b	8b 45 0c	 mov	 eax, DWORD PTR _lpTargetObj$[ebp]
  0685e	50		 push	 eax
  0685f	e8 00 00 00 00	 call	 ?gObjApplyBuffEffectDuration@@YAEPAUOBJECTSTRUCT@@HEHEHH@Z ; gObjApplyBuffEffectDuration
  06864	83 c4 1c	 add	 esp, 28			; 0000001cH
$LN9@Attack:

; 3449 : 				}
; 3450 : 				gObjSetPosition(lpTargetObj->m_Index,lpTargetObj->X,lpTargetObj->Y);

  06867	8b 45 0c	 mov	 eax, DWORD PTR _lpTargetObj$[ebp]
  0686a	0f bf 88 46 01
	00 00		 movsx	 ecx, WORD PTR [eax+326]
  06871	51		 push	 ecx
  06872	8b 55 0c	 mov	 edx, DWORD PTR _lpTargetObj$[ebp]
  06875	0f bf 82 44 01
	00 00		 movsx	 eax, WORD PTR [edx+324]
  0687c	50		 push	 eax
  0687d	8b 4d 0c	 mov	 ecx, DWORD PTR _lpTargetObj$[ebp]
  06880	8b 11		 mov	 edx, DWORD PTR [ecx]
  06882	52		 push	 edx
  06883	e8 00 00 00 00	 call	 ?gObjSetPosition@@YAXHHH@Z ; gObjSetPosition
  06888	83 c4 0c	 add	 esp, 12			; 0000000cH
$LN10@Attack:

; 3451 : 			}
; 3452 : 		}
; 3453 : 	}
; 3454 : 
; 3455 : 	if ( lpMagic && lpMagic->m_Skill == 332 )

  0688b	83 7d 10 00	 cmp	 DWORD PTR _lpMagic$[ebp], 0
  0688f	0f 84 93 00 00
	00		 je	 $LN6@Attack
  06895	8b 45 10	 mov	 eax, DWORD PTR _lpMagic$[ebp]
  06898	81 78 08 4c 01
	00 00		 cmp	 DWORD PTR [eax+8], 332	; 0000014cH
  0689f	0f 85 83 00 00
	00		 jne	 $LN6@Attack

; 3456 : 	{
; 3457 : 		float fSpringValue = g_MasterSkillSystem.GetMasterSkillValue(MagicDamageC.SkillGet(lpMagic->m_Skill),lpMagic->m_Level);

  068a5	8b 45 10	 mov	 eax, DWORD PTR _lpMagic$[ebp]
  068a8	0f b6 48 04	 movzx	 ecx, BYTE PTR [eax+4]
  068ac	51		 push	 ecx
  068ad	8b 55 10	 mov	 edx, DWORD PTR _lpMagic$[ebp]
  068b0	8b 42 08	 mov	 eax, DWORD PTR [edx+8]
  068b3	50		 push	 eax
  068b4	b9 00 00 00 00	 mov	 ecx, OFFSET ?MagicDamageC@@3VCMagicDamage@@A ; MagicDamageC
  068b9	e8 00 00 00 00	 call	 ?SkillGet@CMagicDamage@@QAEHH@Z ; CMagicDamage::SkillGet
  068be	50		 push	 eax
  068bf	b9 00 00 00 00	 mov	 ecx, OFFSET ?g_MasterSkillSystem@@3VCMasterLevelSkillTreeSystem@@A ; g_MasterSkillSystem
  068c4	e8 00 00 00 00	 call	 ?GetMasterSkillValue@CMasterLevelSkillTreeSystem@@QAEMHH@Z ; CMasterLevelSkillTreeSystem::GetMasterSkillValue
  068c9	d9 9d 10 fd ff
	ff		 fstp	 DWORD PTR _fSpringValue$240858[ebp]

; 3458 : 
; 3459 : 		if( fSpringValue > 0.0f )

  068cf	d9 85 10 fd ff
	ff		 fld	 DWORD PTR _fSpringValue$240858[ebp]
  068d5	dc 1d 00 00 00
	00		 fcomp	 QWORD PTR __real@0000000000000000
  068db	df e0		 fnstsw	 ax
  068dd	f6 c4 41	 test	 ah, 65			; 00000041H
  068e0	75 46		 jne	 SHORT $LN6@Attack

; 3460 : 		{
; 3461 : 			float fPercent = rand()%100;

  068e2	e8 00 00 00 00	 call	 _rand
  068e7	99		 cdq
  068e8	b9 64 00 00 00	 mov	 ecx, 100		; 00000064H
  068ed	f7 f9		 idiv	 ecx
  068ef	89 95 c8 fc ff
	ff		 mov	 DWORD PTR tv8089[ebp], edx
  068f5	db 85 c8 fc ff
	ff		 fild	 DWORD PTR tv8089[ebp]
  068fb	d9 9d 0c fd ff
	ff		 fstp	 DWORD PTR _fPercent$240860[ebp]

; 3462 : 
; 3463 : 			if( fPercent < fSpringValue )

  06901	d9 85 0c fd ff
	ff		 fld	 DWORD PTR _fPercent$240860[ebp]
  06907	d9 85 10 fd ff
	ff		 fld	 DWORD PTR _fSpringValue$240858[ebp]
  0690d	de d9		 fcompp
  0690f	df e0		 fnstsw	 ax
  06911	f6 c4 41	 test	 ah, 65			; 00000041H
  06914	75 12		 jne	 SHORT $LN6@Attack

; 3464 : 			{
; 3465 : 				gObjBackSpring2(lpTargetObj,lpObj,2);

  06916	6a 02		 push	 2
  06918	8b 45 08	 mov	 eax, DWORD PTR _lpObj$[ebp]
  0691b	50		 push	 eax
  0691c	8b 4d 0c	 mov	 ecx, DWORD PTR _lpTargetObj$[ebp]
  0691f	51		 push	 ecx
  06920	e8 00 00 00 00	 call	 ?gObjBackSpring2@@YAHPAUOBJECTSTRUCT@@0H@Z ; gObjBackSpring2
  06925	83 c4 0c	 add	 esp, 12			; 0000000cH
$LN6@Attack:

; 3466 : 			}
; 3467 : 		}
; 3468 : 	}
; 3469 : 
; 3470 : 
; 3471 : 	if ( lpMagic )

  06928	83 7d 10 00	 cmp	 DWORD PTR _lpMagic$[ebp], 0
  0692c	74 1a		 je	 SHORT $LN5@Attack

; 3472 : 	{
; 3473 : 		gObjUseSkill.SpecificSkillAdditionTreat(lpObj, lpTargetObj, lpMagic, AttackDamage);

  0692e	8b 45 1c	 mov	 eax, DWORD PTR _AttackDamage$[ebp]
  06931	50		 push	 eax
  06932	8b 4d 10	 mov	 ecx, DWORD PTR _lpMagic$[ebp]
  06935	51		 push	 ecx
  06936	8b 55 0c	 mov	 edx, DWORD PTR _lpTargetObj$[ebp]
  06939	52		 push	 edx
  0693a	8b 45 08	 mov	 eax, DWORD PTR _lpObj$[ebp]
  0693d	50		 push	 eax
  0693e	b9 00 00 00 00	 mov	 ecx, OFFSET ?gObjUseSkill@@3VCObjUseSkill@@A ; gObjUseSkill
  06943	e8 00 00 00 00	 call	 ?SpecificSkillAdditionTreat@CObjUseSkill@@QAEXPAUOBJECTSTRUCT@@0PAVCMagicInf@@H@Z ; CObjUseSkill::SpecificSkillAdditionTreat
$LN5@Attack:

; 3474 : 	}
; 3475 : 
; 3476 : #if(DEV_COMBO_CUSTOM==TRUE)
; 3477 : 	if ( bCombo && lpObj->Class != CLASS_KNIGHT)

  06948	83 7d 20 00	 cmp	 DWORD PTR _bCombo$[ebp], 0
  0694c	74 25		 je	 SHORT $LN4@Attack
  0694e	8b 45 08	 mov	 eax, DWORD PTR _lpObj$[ebp]
  06951	0f b7 88 b8 00
	00 00		 movzx	 ecx, WORD PTR [eax+184]
  06958	83 f9 01	 cmp	 ecx, 1
  0695b	74 16		 je	 SHORT $LN4@Attack

; 3478 : 	{
; 3479 : 		GCMagicAttackNumberSend(lpObj,AT_SKILL_COMBO,lpTargetObj->m_Index,1);

  0695d	6a 01		 push	 1
  0695f	8b 45 0c	 mov	 eax, DWORD PTR _lpTargetObj$[ebp]
  06962	8b 08		 mov	 ecx, DWORD PTR [eax]
  06964	51		 push	 ecx
  06965	6a 3b		 push	 59			; 0000003bH
  06967	8b 55 08	 mov	 edx, DWORD PTR _lpObj$[ebp]
  0696a	52		 push	 edx
  0696b	e8 00 00 00 00	 call	 ?GCMagicAttackNumberSend@@YAXPAUOBJECTSTRUCT@@GHE@Z ; GCMagicAttackNumberSend
  06970	83 c4 10	 add	 esp, 16			; 00000010H
$LN4@Attack:

; 3480 : 	}
; 3481 : #endif
; 3482 : 
; 3483 : 	#if(DEV_DAMAGE_TABLE)
; 3484 : 	if(AttackDamage > 0)

  06973	83 7d 1c 00	 cmp	 DWORD PTR _AttackDamage$[ebp], 0
  06977	7e 79		 jle	 SHORT $LN1@Attack

; 3485 : 	{
; 3486 : 		if(byReflect)

  06979	0f b6 45 28	 movzx	 eax, BYTE PTR _byReflect$[ebp]
  0697d	85 c0		 test	 eax, eax
  0697f	74 27		 je	 SHORT $LN2@Attack

; 3487 : 		{
; 3488 : 			lpObj->m_SecondReflect += AttackDamage;

  06981	8b 45 08	 mov	 eax, DWORD PTR _lpObj$[ebp]
  06984	8b 88 30 2b 00
	00		 mov	 ecx, DWORD PTR [eax+11056]
  0698a	03 4d 1c	 add	 ecx, DWORD PTR _AttackDamage$[ebp]
  0698d	8b 55 08	 mov	 edx, DWORD PTR _lpObj$[ebp]
  06990	89 8a 30 2b 00
	00		 mov	 DWORD PTR [edx+11056], ecx

; 3489 : 			g_ExUser.GCDamageTable(lpObj->m_Index);

  06996	8b 45 08	 mov	 eax, DWORD PTR _lpObj$[ebp]
  06999	8b 08		 mov	 ecx, DWORD PTR [eax]
  0699b	51		 push	 ecx
  0699c	b9 00 00 00 00	 mov	 ecx, OFFSET ?g_ExUser@@3VÑExUser@@A ; g_ExUser
  069a1	e8 00 00 00 00	 call	 ?GCDamageTable@ÑExUser@@QAEXH@Z ; ÑExUser::GCDamageTable

; 3490 : 		}
; 3491 : 		else

  069a6	eb 4a		 jmp	 SHORT $LN1@Attack
$LN2@Attack:

; 3492 : 		{
; 3493 : 			lpObj->m_SecondDamage += AttackDamage;

  069a8	8b 45 08	 mov	 eax, DWORD PTR _lpObj$[ebp]
  069ab	8b 88 28 2b 00
	00		 mov	 ecx, DWORD PTR [eax+11048]
  069b1	03 4d 1c	 add	 ecx, DWORD PTR _AttackDamage$[ebp]
  069b4	8b 55 08	 mov	 edx, DWORD PTR _lpObj$[ebp]
  069b7	89 8a 28 2b 00
	00		 mov	 DWORD PTR [edx+11048], ecx

; 3494 : 			lpTargetObj->m_SecondDefence += AttackDamage;

  069bd	8b 45 0c	 mov	 eax, DWORD PTR _lpTargetObj$[ebp]
  069c0	8b 88 2c 2b 00
	00		 mov	 ecx, DWORD PTR [eax+11052]
  069c6	03 4d 1c	 add	 ecx, DWORD PTR _AttackDamage$[ebp]
  069c9	8b 55 0c	 mov	 edx, DWORD PTR _lpTargetObj$[ebp]
  069cc	89 8a 2c 2b 00
	00		 mov	 DWORD PTR [edx+11052], ecx

; 3495 : 			g_ExUser.GCDamageTable(lpObj->m_Index);

  069d2	8b 45 08	 mov	 eax, DWORD PTR _lpObj$[ebp]
  069d5	8b 08		 mov	 ecx, DWORD PTR [eax]
  069d7	51		 push	 ecx
  069d8	b9 00 00 00 00	 mov	 ecx, OFFSET ?g_ExUser@@3VÑExUser@@A ; g_ExUser
  069dd	e8 00 00 00 00	 call	 ?GCDamageTable@ÑExUser@@QAEXH@Z ; ÑExUser::GCDamageTable

; 3496 : 			g_ExUser.GCDamageTable(lpTargetObj->m_Index);

  069e2	8b 45 0c	 mov	 eax, DWORD PTR _lpTargetObj$[ebp]
  069e5	8b 08		 mov	 ecx, DWORD PTR [eax]
  069e7	51		 push	 ecx
  069e8	b9 00 00 00 00	 mov	 ecx, OFFSET ?g_ExUser@@3VÑExUser@@A ; g_ExUser
  069ed	e8 00 00 00 00	 call	 ?GCDamageTable@ÑExUser@@QAEXH@Z ; ÑExUser::GCDamageTable
$LN1@Attack:

; 3497 : 		}
; 3498 : 
; 3499 : 		
; 3500 : 	}
; 3501 : 	#endif
; 3502 : 
; 3503 : 	return TRUE;

  069f2	b8 01 00 00 00	 mov	 eax, 1
$LN741@Attack:

; 3504 : }

  069f7	5f		 pop	 edi
  069f8	5e		 pop	 esi
  069f9	5b		 pop	 ebx
  069fa	8b 4d fc	 mov	 ecx, DWORD PTR __$ArrayPad$[ebp]
  069fd	33 cd		 xor	 ecx, ebp
  069ff	e8 00 00 00 00	 call	 @__security_check_cookie@4
  06a04	8b e5		 mov	 esp, ebp
  06a06	5d		 pop	 ebp
  06a07	c2 24 00	 ret	 36			; 00000024H
  06a0a	8b ff		 npad	 2
$LN810@Attack:
  06a0c	00 00 00 00	 DD	 $LN458@Attack
  06a10	00 00 00 00	 DD	 $LN440@Attack
  06a14	00 00 00 00	 DD	 $LN447@Attack
  06a18	00 00 00 00	 DD	 $LN441@Attack
  06a1c	00 00 00 00	 DD	 $LN439@Attack
  06a20	00 00 00 00	 DD	 $LN433@Attack
  06a24	00 00 00 00	 DD	 $LN430@Attack
  06a28	00 00 00 00	 DD	 $LN424@Attack
  06a2c	00 00 00 00	 DD	 $LN431@Attack
  06a30	00 00 00 00	 DD	 $LN413@Attack
  06a34	00 00 00 00	 DD	 $LN395@Attack
  06a38	00 00 00 00	 DD	 $LN373@Attack
  06a3c	00 00 00 00	 DD	 $LN417@Attack
  06a40	00 00 00 00	 DD	 $LN414@Attack
  06a44	00 00 00 00	 DD	 $LN351@Attack
  06a48	00 00 00 00	 DD	 $LN349@Attack
  06a4c	00 00 00 00	 DD	 $LN348@Attack
  06a50	00 00 00 00	 DD	 $LN347@Attack
  06a54	00 00 00 00	 DD	 $LN346@Attack
  06a58	00 00 00 00	 DD	 $LN345@Attack
  06a5c	00 00 00 00	 DD	 $LN340@Attack
  06a60	00 00 00 00	 DD	 $LN344@Attack
  06a64	00 00 00 00	 DD	 $LN343@Attack
  06a68	00 00 00 00	 DD	 $LN342@Attack
  06a6c	00 00 00 00	 DD	 $LN341@Attack
  06a70	00 00 00 00	 DD	 $LN339@Attack
  06a74	00 00 00 00	 DD	 $LN338@Attack
  06a78	00 00 00 00	 DD	 $LN334@Attack
  06a7c	00 00 00 00	 DD	 $LN330@Attack
  06a80	00 00 00 00	 DD	 $LN326@Attack
  06a84	00 00 00 00	 DD	 $LN325@Attack
  06a88	00 00 00 00	 DD	 $LN324@Attack
  06a8c	00 00 00 00	 DD	 $LN459@Attack
$LN805@Attack:
  06a90	00		 DB	 0
  06a91	00		 DB	 0
  06a92	00		 DB	 0
  06a93	00		 DB	 0
  06a94	00		 DB	 0
  06a95	20		 DB	 32			; 00000020H
  06a96	20		 DB	 32			; 00000020H
  06a97	20		 DB	 32			; 00000020H
  06a98	20		 DB	 32			; 00000020H
  06a99	20		 DB	 32			; 00000020H
  06a9a	20		 DB	 32			; 00000020H
  06a9b	20		 DB	 32			; 00000020H
  06a9c	20		 DB	 32			; 00000020H
  06a9d	20		 DB	 32			; 00000020H
  06a9e	20		 DB	 32			; 00000020H
  06a9f	20		 DB	 32			; 00000020H
  06aa0	20		 DB	 32			; 00000020H
  06aa1	20		 DB	 32			; 00000020H
  06aa2	20		 DB	 32			; 00000020H
  06aa3	20		 DB	 32			; 00000020H
  06aa4	20		 DB	 32			; 00000020H
  06aa5	20		 DB	 32			; 00000020H
  06aa6	00		 DB	 0
  06aa7	00		 DB	 0
  06aa8	00		 DB	 0
  06aa9	00		 DB	 0
  06aaa	20		 DB	 32			; 00000020H
  06aab	01		 DB	 1
  06aac	02		 DB	 2
  06aad	20		 DB	 32			; 00000020H
  06aae	00		 DB	 0
  06aaf	20		 DB	 32			; 00000020H
  06ab0	01		 DB	 1
  06ab1	01		 DB	 1
  06ab2	20		 DB	 32			; 00000020H
  06ab3	20		 DB	 32			; 00000020H
  06ab4	00		 DB	 0
  06ab5	03		 DB	 3
  06ab6	00		 DB	 0
  06ab7	20		 DB	 32			; 00000020H
  06ab8	20		 DB	 32			; 00000020H
  06ab9	04		 DB	 4
  06aba	04		 DB	 4
  06abb	04		 DB	 4
  06abc	20		 DB	 32			; 00000020H
  06abd	20		 DB	 32			; 00000020H
  06abe	04		 DB	 4
  06abf	20		 DB	 32			; 00000020H
  06ac0	20		 DB	 32			; 00000020H
  06ac1	20		 DB	 32			; 00000020H
  06ac2	20		 DB	 32			; 00000020H
  06ac3	20		 DB	 32			; 00000020H
  06ac4	20		 DB	 32			; 00000020H
  06ac5	20		 DB	 32			; 00000020H
  06ac6	20		 DB	 32			; 00000020H
  06ac7	04		 DB	 4
  06ac8	20		 DB	 32			; 00000020H
  06ac9	05		 DB	 5
  06aca	20		 DB	 32			; 00000020H
  06acb	04		 DB	 4
  06acc	20		 DB	 32			; 00000020H
  06acd	20		 DB	 32			; 00000020H
  06ace	20		 DB	 32			; 00000020H
  06acf	20		 DB	 32			; 00000020H
  06ad0	20		 DB	 32			; 00000020H
  06ad1	20		 DB	 32			; 00000020H
  06ad2	20		 DB	 32			; 00000020H
  06ad3	20		 DB	 32			; 00000020H
  06ad4	20		 DB	 32			; 00000020H
  06ad5	20		 DB	 32			; 00000020H
  06ad6	20		 DB	 32			; 00000020H
  06ad7	20		 DB	 32			; 00000020H
  06ad8	20		 DB	 32			; 00000020H
  06ad9	20		 DB	 32			; 00000020H
  06ada	20		 DB	 32			; 00000020H
  06adb	20		 DB	 32			; 00000020H
  06adc	20		 DB	 32			; 00000020H
  06add	20		 DB	 32			; 00000020H
  06ade	20		 DB	 32			; 00000020H
  06adf	20		 DB	 32			; 00000020H
  06ae0	20		 DB	 32			; 00000020H
  06ae1	20		 DB	 32			; 00000020H
  06ae2	20		 DB	 32			; 00000020H
  06ae3	20		 DB	 32			; 00000020H
  06ae4	20		 DB	 32			; 00000020H
  06ae5	20		 DB	 32			; 00000020H
  06ae6	20		 DB	 32			; 00000020H
  06ae7	20		 DB	 32			; 00000020H
  06ae8	20		 DB	 32			; 00000020H
  06ae9	20		 DB	 32			; 00000020H
  06aea	20		 DB	 32			; 00000020H
  06aeb	20		 DB	 32			; 00000020H
  06aec	20		 DB	 32			; 00000020H
  06aed	20		 DB	 32			; 00000020H
  06aee	20		 DB	 32			; 00000020H
  06aef	20		 DB	 32			; 00000020H
  06af0	20		 DB	 32			; 00000020H
  06af1	20		 DB	 32			; 00000020H
  06af2	20		 DB	 32			; 00000020H
  06af3	20		 DB	 32			; 00000020H
  06af4	20		 DB	 32			; 00000020H
  06af5	20		 DB	 32			; 00000020H
  06af6	20		 DB	 32			; 00000020H
  06af7	20		 DB	 32			; 00000020H
  06af8	20		 DB	 32			; 00000020H
  06af9	20		 DB	 32			; 00000020H
  06afa	20		 DB	 32			; 00000020H
  06afb	20		 DB	 32			; 00000020H
  06afc	20		 DB	 32			; 00000020H
  06afd	20		 DB	 32			; 00000020H
  06afe	20		 DB	 32			; 00000020H
  06aff	20		 DB	 32			; 00000020H
  06b00	20		 DB	 32			; 00000020H
  06b01	20		 DB	 32			; 00000020H
  06b02	20		 DB	 32			; 00000020H
  06b03	20		 DB	 32			; 00000020H
  06b04	20		 DB	 32			; 00000020H
  06b05	20		 DB	 32			; 00000020H
  06b06	20		 DB	 32			; 00000020H
  06b07	20		 DB	 32			; 00000020H
  06b08	20		 DB	 32			; 00000020H
  06b09	20		 DB	 32			; 00000020H
  06b0a	20		 DB	 32			; 00000020H
  06b0b	20		 DB	 32			; 00000020H
  06b0c	20		 DB	 32			; 00000020H
  06b0d	20		 DB	 32			; 00000020H
  06b0e	20		 DB	 32			; 00000020H
  06b0f	20		 DB	 32			; 00000020H
  06b10	20		 DB	 32			; 00000020H
  06b11	20		 DB	 32			; 00000020H
  06b12	20		 DB	 32			; 00000020H
  06b13	20		 DB	 32			; 00000020H
  06b14	20		 DB	 32			; 00000020H
  06b15	20		 DB	 32			; 00000020H
  06b16	20		 DB	 32			; 00000020H
  06b17	20		 DB	 32			; 00000020H
  06b18	20		 DB	 32			; 00000020H
  06b19	20		 DB	 32			; 00000020H
  06b1a	20		 DB	 32			; 00000020H
  06b1b	20		 DB	 32			; 00000020H
  06b1c	20		 DB	 32			; 00000020H
  06b1d	20		 DB	 32			; 00000020H
  06b1e	20		 DB	 32			; 00000020H
  06b1f	20		 DB	 32			; 00000020H
  06b20	20		 DB	 32			; 00000020H
  06b21	20		 DB	 32			; 00000020H
  06b22	20		 DB	 32			; 00000020H
  06b23	20		 DB	 32			; 00000020H
  06b24	20		 DB	 32			; 00000020H
  06b25	20		 DB	 32			; 00000020H
  06b26	20		 DB	 32			; 00000020H
  06b27	20		 DB	 32			; 00000020H
  06b28	20		 DB	 32			; 00000020H
  06b29	20		 DB	 32			; 00000020H
  06b2a	20		 DB	 32			; 00000020H
  06b2b	20		 DB	 32			; 00000020H
  06b2c	20		 DB	 32			; 00000020H
  06b2d	20		 DB	 32			; 00000020H
  06b2e	20		 DB	 32			; 00000020H
  06b2f	20		 DB	 32			; 00000020H
  06b30	20		 DB	 32			; 00000020H
  06b31	20		 DB	 32			; 00000020H
  06b32	20		 DB	 32			; 00000020H
  06b33	20		 DB	 32			; 00000020H
  06b34	20		 DB	 32			; 00000020H
  06b35	20		 DB	 32			; 00000020H
  06b36	20		 DB	 32			; 00000020H
  06b37	20		 DB	 32			; 00000020H
  06b38	20		 DB	 32			; 00000020H
  06b39	20		 DB	 32			; 00000020H
  06b3a	20		 DB	 32			; 00000020H
  06b3b	20		 DB	 32			; 00000020H
  06b3c	20		 DB	 32			; 00000020H
  06b3d	20		 DB	 32			; 00000020H
  06b3e	20		 DB	 32			; 00000020H
  06b3f	20		 DB	 32			; 00000020H
  06b40	20		 DB	 32			; 00000020H
  06b41	20		 DB	 32			; 00000020H
  06b42	20		 DB	 32			; 00000020H
  06b43	20		 DB	 32			; 00000020H
  06b44	20		 DB	 32			; 00000020H
  06b45	20		 DB	 32			; 00000020H
  06b46	20		 DB	 32			; 00000020H
  06b47	20		 DB	 32			; 00000020H
  06b48	20		 DB	 32			; 00000020H
  06b49	20		 DB	 32			; 00000020H
  06b4a	20		 DB	 32			; 00000020H
  06b4b	20		 DB	 32			; 00000020H
  06b4c	20		 DB	 32			; 00000020H
  06b4d	20		 DB	 32			; 00000020H
  06b4e	20		 DB	 32			; 00000020H
  06b4f	20		 DB	 32			; 00000020H
  06b50	20		 DB	 32			; 00000020H
  06b51	20		 DB	 32			; 00000020H
  06b52	20		 DB	 32			; 00000020H
  06b53	06		 DB	 6
  06b54	07		 DB	 7
  06b55	08		 DB	 8
  06b56	20		 DB	 32			; 00000020H
  06b57	20		 DB	 32			; 00000020H
  06b58	09		 DB	 9
  06b59	20		 DB	 32			; 00000020H
  06b5a	0a		 DB	 10			; 0000000aH
  06b5b	0b		 DB	 11			; 0000000bH
  06b5c	0c		 DB	 12			; 0000000cH
  06b5d	0d		 DB	 13			; 0000000dH
  06b5e	0e		 DB	 14			; 0000000eH
  06b5f	20		 DB	 32			; 00000020H
  06b60	20		 DB	 32			; 00000020H
  06b61	20		 DB	 32			; 00000020H
  06b62	20		 DB	 32			; 00000020H
  06b63	0f		 DB	 15			; 0000000fH
  06b64	20		 DB	 32			; 00000020H
  06b65	10		 DB	 16			; 00000010H
  06b66	20		 DB	 32			; 00000020H
  06b67	20		 DB	 32			; 00000020H
  06b68	20		 DB	 32			; 00000020H
  06b69	11		 DB	 17			; 00000011H
  06b6a	12		 DB	 18			; 00000012H
  06b6b	13		 DB	 19			; 00000013H
  06b6c	14		 DB	 20			; 00000014H
  06b6d	20		 DB	 32			; 00000020H
  06b6e	20		 DB	 32			; 00000020H
  06b6f	20		 DB	 32			; 00000020H
  06b70	20		 DB	 32			; 00000020H
  06b71	20		 DB	 32			; 00000020H
  06b72	20		 DB	 32			; 00000020H
  06b73	20		 DB	 32			; 00000020H
  06b74	20		 DB	 32			; 00000020H
  06b75	20		 DB	 32			; 00000020H
  06b76	20		 DB	 32			; 00000020H
  06b77	15		 DB	 21			; 00000015H
  06b78	16		 DB	 22			; 00000016H
  06b79	17		 DB	 23			; 00000017H
  06b7a	18		 DB	 24			; 00000018H
  06b7b	20		 DB	 32			; 00000020H
  06b7c	20		 DB	 32			; 00000020H
  06b7d	20		 DB	 32			; 00000020H
  06b7e	20		 DB	 32			; 00000020H
  06b7f	20		 DB	 32			; 00000020H
  06b80	20		 DB	 32			; 00000020H
  06b81	19		 DB	 25			; 00000019H
  06b82	19		 DB	 25			; 00000019H
  06b83	1a		 DB	 26			; 0000001aH
  06b84	1b		 DB	 27			; 0000001bH
  06b85	1c		 DB	 28			; 0000001cH
  06b86	1d		 DB	 29			; 0000001dH
  06b87	20		 DB	 32			; 00000020H
  06b88	20		 DB	 32			; 00000020H
  06b89	20		 DB	 32			; 00000020H
  06b8a	1e		 DB	 30			; 0000001eH
  06b8b	1f		 DB	 31			; 0000001fH
$LN811@Attack:
  06b8c	00 00 00 00	 DD	 $LN312@Attack
  06b90	00 00 00 00	 DD	 $LN310@Attack
  06b94	00 00 00 00	 DD	 $LN309@Attack
  06b98	00 00 00 00	 DD	 $LN308@Attack
  06b9c	00 00 00 00	 DD	 $LN314@Attack
  06ba0	00 00 00 00	 DD	 $LN292@Attack
  06ba4	00 00 00 00	 DD	 $LN293@Attack
  06ba8	00 00 00 00	 DD	 $LN307@Attack
  06bac	00 00 00 00	 DD	 $LN306@Attack
  06bb0	00 00 00 00	 DD	 $LN305@Attack
  06bb4	00 00 00 00	 DD	 $LN288@Attack
  06bb8	00 00 00 00	 DD	 $LN270@Attack
  06bbc	00 00 00 00	 DD	 $LN263@Attack
  06bc0	00 00 00 00	 DD	 $LN262@Attack
  06bc4	00 00 00 00	 DD	 $LN311@Attack
  06bc8	00 00 00 00	 DD	 $LN313@Attack
  06bcc	00 00 00 00	 DD	 $LN290@Attack
  06bd0	00 00 00 00	 DD	 $LN291@Attack
  06bd4	00 00 00 00	 DD	 $LN294@Attack
  06bd8	00 00 00 00	 DD	 $LN296@Attack
  06bdc	00 00 00 00	 DD	 $LN295@Attack
  06be0	00 00 00 00	 DD	 $LN300@Attack
  06be4	00 00 00 00	 DD	 $LN304@Attack
  06be8	00 00 00 00	 DD	 $LN289@Attack
  06bec	00 00 00 00	 DD	 $LN256@Attack
  06bf0	00 00 00 00	 DD	 $LN255@Attack
  06bf4	00 00 00 00	 DD	 $LN254@Attack
  06bf8	00 00 00 00	 DD	 $LN253@Attack
  06bfc	00 00 00 00	 DD	 $LN315@Attack
$LN806@Attack:
  06c00	00		 DB	 0
  06c01	01		 DB	 1
  06c02	02		 DB	 2
  06c03	03		 DB	 3
  06c04	04		 DB	 4
  06c05	05		 DB	 5
  06c06	04		 DB	 4
  06c07	1c		 DB	 28			; 0000001cH
  06c08	1c		 DB	 28			; 0000001cH
  06c09	1c		 DB	 28			; 0000001cH
  06c0a	06		 DB	 6
  06c0b	07		 DB	 7
  06c0c	1c		 DB	 28			; 0000001cH
  06c0d	1c		 DB	 28			; 0000001cH
  06c0e	1c		 DB	 28			; 0000001cH
  06c0f	1c		 DB	 28			; 0000001cH
  06c10	1c		 DB	 28			; 0000001cH
  06c11	1c		 DB	 28			; 0000001cH
  06c12	1c		 DB	 28			; 0000001cH
  06c13	1c		 DB	 28			; 0000001cH
  06c14	1c		 DB	 28			; 0000001cH
  06c15	1c		 DB	 28			; 0000001cH
  06c16	1c		 DB	 28			; 0000001cH
  06c17	1c		 DB	 28			; 0000001cH
  06c18	1c		 DB	 28			; 0000001cH
  06c19	1c		 DB	 28			; 0000001cH
  06c1a	1c		 DB	 28			; 0000001cH
  06c1b	1c		 DB	 28			; 0000001cH
  06c1c	1c		 DB	 28			; 0000001cH
  06c1d	1c		 DB	 28			; 0000001cH
  06c1e	1c		 DB	 28			; 0000001cH
  06c1f	1c		 DB	 28			; 0000001cH
  06c20	1c		 DB	 28			; 0000001cH
  06c21	1c		 DB	 28			; 0000001cH
  06c22	1c		 DB	 28			; 0000001cH
  06c23	1c		 DB	 28			; 0000001cH
  06c24	1c		 DB	 28			; 0000001cH
  06c25	1c		 DB	 28			; 0000001cH
  06c26	1c		 DB	 28			; 0000001cH
  06c27	1c		 DB	 28			; 0000001cH
  06c28	1c		 DB	 28			; 0000001cH
  06c29	1c		 DB	 28			; 0000001cH
  06c2a	1c		 DB	 28			; 0000001cH
  06c2b	1c		 DB	 28			; 0000001cH
  06c2c	1c		 DB	 28			; 0000001cH
  06c2d	1c		 DB	 28			; 0000001cH
  06c2e	1c		 DB	 28			; 0000001cH
  06c2f	1c		 DB	 28			; 0000001cH
  06c30	1c		 DB	 28			; 0000001cH
  06c31	1c		 DB	 28			; 0000001cH
  06c32	1c		 DB	 28			; 0000001cH
  06c33	1c		 DB	 28			; 0000001cH
  06c34	1c		 DB	 28			; 0000001cH
  06c35	1c		 DB	 28			; 0000001cH
  06c36	1c		 DB	 28			; 0000001cH
  06c37	1c		 DB	 28			; 0000001cH
  06c38	1c		 DB	 28			; 0000001cH
  06c39	1c		 DB	 28			; 0000001cH
  06c3a	1c		 DB	 28			; 0000001cH
  06c3b	1c		 DB	 28			; 0000001cH
  06c3c	1c		 DB	 28			; 0000001cH
  06c3d	1c		 DB	 28			; 0000001cH
  06c3e	1c		 DB	 28			; 0000001cH
  06c3f	1c		 DB	 28			; 0000001cH
  06c40	1c		 DB	 28			; 0000001cH
  06c41	1c		 DB	 28			; 0000001cH
  06c42	1c		 DB	 28			; 0000001cH
  06c43	1c		 DB	 28			; 0000001cH
  06c44	1c		 DB	 28			; 0000001cH
  06c45	1c		 DB	 28			; 0000001cH
  06c46	1c		 DB	 28			; 0000001cH
  06c47	1c		 DB	 28			; 0000001cH
  06c48	1c		 DB	 28			; 0000001cH
  06c49	1c		 DB	 28			; 0000001cH
  06c4a	1c		 DB	 28			; 0000001cH
  06c4b	1c		 DB	 28			; 0000001cH
  06c4c	1c		 DB	 28			; 0000001cH
  06c4d	1c		 DB	 28			; 0000001cH
  06c4e	1c		 DB	 28			; 0000001cH
  06c4f	1c		 DB	 28			; 0000001cH
  06c50	1c		 DB	 28			; 0000001cH
  06c51	1c		 DB	 28			; 0000001cH
  06c52	1c		 DB	 28			; 0000001cH
  06c53	1c		 DB	 28			; 0000001cH
  06c54	1c		 DB	 28			; 0000001cH
  06c55	1c		 DB	 28			; 0000001cH
  06c56	1c		 DB	 28			; 0000001cH
  06c57	1c		 DB	 28			; 0000001cH
  06c58	1c		 DB	 28			; 0000001cH
  06c59	1c		 DB	 28			; 0000001cH
  06c5a	08		 DB	 8
  06c5b	1c		 DB	 28			; 0000001cH
  06c5c	1c		 DB	 28			; 0000001cH
  06c5d	1c		 DB	 28			; 0000001cH
  06c5e	1c		 DB	 28			; 0000001cH
  06c5f	1c		 DB	 28			; 0000001cH
  06c60	1c		 DB	 28			; 0000001cH
  06c61	1c		 DB	 28			; 0000001cH
  06c62	09		 DB	 9
  06c63	1c		 DB	 28			; 0000001cH
  06c64	1c		 DB	 28			; 0000001cH
  06c65	1c		 DB	 28			; 0000001cH
  06c66	1c		 DB	 28			; 0000001cH
  06c67	1c		 DB	 28			; 0000001cH
  06c68	1c		 DB	 28			; 0000001cH
  06c69	1c		 DB	 28			; 0000001cH
  06c6a	1c		 DB	 28			; 0000001cH
  06c6b	1c		 DB	 28			; 0000001cH
  06c6c	1c		 DB	 28			; 0000001cH
  06c6d	1c		 DB	 28			; 0000001cH
  06c6e	1c		 DB	 28			; 0000001cH
  06c6f	1c		 DB	 28			; 0000001cH
  06c70	1c		 DB	 28			; 0000001cH
  06c71	1c		 DB	 28			; 0000001cH
  06c72	1c		 DB	 28			; 0000001cH
  06c73	1c		 DB	 28			; 0000001cH
  06c74	1c		 DB	 28			; 0000001cH
  06c75	1c		 DB	 28			; 0000001cH
  06c76	1c		 DB	 28			; 0000001cH
  06c77	1c		 DB	 28			; 0000001cH
  06c78	1c		 DB	 28			; 0000001cH
  06c79	1c		 DB	 28			; 0000001cH
  06c7a	1c		 DB	 28			; 0000001cH
  06c7b	1c		 DB	 28			; 0000001cH
  06c7c	1c		 DB	 28			; 0000001cH
  06c7d	1c		 DB	 28			; 0000001cH
  06c7e	1c		 DB	 28			; 0000001cH
  06c7f	1c		 DB	 28			; 0000001cH
  06c80	0a		 DB	 10			; 0000000aH
  06c81	0b		 DB	 11			; 0000000bH
  06c82	0c		 DB	 12			; 0000000cH
  06c83	1c		 DB	 28			; 0000001cH
  06c84	0d		 DB	 13			; 0000000dH
  06c85	1c		 DB	 28			; 0000001cH
  06c86	1c		 DB	 28			; 0000001cH
  06c87	1c		 DB	 28			; 0000001cH
  06c88	1c		 DB	 28			; 0000001cH
  06c89	1c		 DB	 28			; 0000001cH
  06c8a	1c		 DB	 28			; 0000001cH
  06c8b	1c		 DB	 28			; 0000001cH
  06c8c	1c		 DB	 28			; 0000001cH
  06c8d	1c		 DB	 28			; 0000001cH
  06c8e	1c		 DB	 28			; 0000001cH
  06c8f	1c		 DB	 28			; 0000001cH
  06c90	1c		 DB	 28			; 0000001cH
  06c91	1c		 DB	 28			; 0000001cH
  06c92	1c		 DB	 28			; 0000001cH
  06c93	1c		 DB	 28			; 0000001cH
  06c94	1c		 DB	 28			; 0000001cH
  06c95	1c		 DB	 28			; 0000001cH
  06c96	1c		 DB	 28			; 0000001cH
  06c97	1c		 DB	 28			; 0000001cH
  06c98	1c		 DB	 28			; 0000001cH
  06c99	0e		 DB	 14			; 0000000eH
  06c9a	1c		 DB	 28			; 0000001cH
  06c9b	0f		 DB	 15			; 0000000fH
  06c9c	10		 DB	 16			; 00000010H
  06c9d	1c		 DB	 28			; 0000001cH
  06c9e	1c		 DB	 28			; 0000001cH
  06c9f	1c		 DB	 28			; 0000001cH
  06ca0	1c		 DB	 28			; 0000001cH
  06ca1	1c		 DB	 28			; 0000001cH
  06ca2	1c		 DB	 28			; 0000001cH
  06ca3	1c		 DB	 28			; 0000001cH
  06ca4	1c		 DB	 28			; 0000001cH
  06ca5	1c		 DB	 28			; 0000001cH
  06ca6	1c		 DB	 28			; 0000001cH
  06ca7	11		 DB	 17			; 00000011H
  06ca8	1c		 DB	 28			; 0000001cH
  06ca9	1c		 DB	 28			; 0000001cH
  06caa	1c		 DB	 28			; 0000001cH
  06cab	1c		 DB	 28			; 0000001cH
  06cac	1c		 DB	 28			; 0000001cH
  06cad	1c		 DB	 28			; 0000001cH
  06cae	1c		 DB	 28			; 0000001cH
  06caf	1c		 DB	 28			; 0000001cH
  06cb0	1c		 DB	 28			; 0000001cH
  06cb1	1c		 DB	 28			; 0000001cH
  06cb2	1c		 DB	 28			; 0000001cH
  06cb3	1c		 DB	 28			; 0000001cH
  06cb4	1c		 DB	 28			; 0000001cH
  06cb5	1c		 DB	 28			; 0000001cH
  06cb6	12		 DB	 18			; 00000012H
  06cb7	13		 DB	 19			; 00000013H
  06cb8	1c		 DB	 28			; 0000001cH
  06cb9	1c		 DB	 28			; 0000001cH
  06cba	14		 DB	 20			; 00000014H
  06cbb	1c		 DB	 28			; 0000001cH
  06cbc	15		 DB	 21			; 00000015H
  06cbd	1c		 DB	 28			; 0000001cH
  06cbe	16		 DB	 22			; 00000016H
  06cbf	1c		 DB	 28			; 0000001cH
  06cc0	17		 DB	 23			; 00000017H
  06cc1	1c		 DB	 28			; 0000001cH
  06cc2	1c		 DB	 28			; 0000001cH
  06cc3	1c		 DB	 28			; 0000001cH
  06cc4	1c		 DB	 28			; 0000001cH
  06cc5	1c		 DB	 28			; 0000001cH
  06cc6	1c		 DB	 28			; 0000001cH
  06cc7	1c		 DB	 28			; 0000001cH
  06cc8	1c		 DB	 28			; 0000001cH
  06cc9	1c		 DB	 28			; 0000001cH
  06cca	1c		 DB	 28			; 0000001cH
  06ccb	1c		 DB	 28			; 0000001cH
  06ccc	1c		 DB	 28			; 0000001cH
  06ccd	1c		 DB	 28			; 0000001cH
  06cce	1c		 DB	 28			; 0000001cH
  06ccf	1c		 DB	 28			; 0000001cH
  06cd0	1c		 DB	 28			; 0000001cH
  06cd1	1c		 DB	 28			; 0000001cH
  06cd2	1c		 DB	 28			; 0000001cH
  06cd3	1c		 DB	 28			; 0000001cH
  06cd4	1c		 DB	 28			; 0000001cH
  06cd5	1c		 DB	 28			; 0000001cH
  06cd6	1c		 DB	 28			; 0000001cH
  06cd7	1c		 DB	 28			; 0000001cH
  06cd8	1c		 DB	 28			; 0000001cH
  06cd9	1c		 DB	 28			; 0000001cH
  06cda	1c		 DB	 28			; 0000001cH
  06cdb	1c		 DB	 28			; 0000001cH
  06cdc	1c		 DB	 28			; 0000001cH
  06cdd	1c		 DB	 28			; 0000001cH
  06cde	1c		 DB	 28			; 0000001cH
  06cdf	1c		 DB	 28			; 0000001cH
  06ce0	1c		 DB	 28			; 0000001cH
  06ce1	18		 DB	 24			; 00000018H
  06ce2	18		 DB	 24			; 00000018H
  06ce3	1c		 DB	 28			; 0000001cH
  06ce4	18		 DB	 24			; 00000018H
  06ce5	18		 DB	 24			; 00000018H
  06ce6	1c		 DB	 28			; 0000001cH
  06ce7	1c		 DB	 28			; 0000001cH
  06ce8	19		 DB	 25			; 00000019H
  06ce9	1a		 DB	 26			; 0000001aH
  06cea	1b		 DB	 27			; 0000001bH
?Attack@CObjAttack@@QAEHPAUOBJECTSTRUCT@@0PAVCMagicInf@@HEHHEE@Z ENDP ; CObjAttack::Attack
; Function compile flags: /Odtp /ZI
; File d:\projects\exteam6.3\source\gameserver\gameserver\castlesiege.h
_TEXT	ENDS
;	COMDAT ?GetCastleState@CCastleSiege@@QAEHXZ
_TEXT	SEGMENT
_this$ = -4						; size = 4
?GetCastleState@CCastleSiege@@QAEHXZ PROC		; CCastleSiege::GetCastleState, COMDAT
; _this$ = ecx

; 314  : 	int GetCastleState(){return m_iCastleSiegeState;}

  00000	55		 push	 ebp
  00001	8b ec		 mov	 ebp, esp
  00003	83 ec 44	 sub	 esp, 68			; 00000044H
  00006	53		 push	 ebx
  00007	56		 push	 esi
  00008	57		 push	 edi
  00009	89 4d fc	 mov	 DWORD PTR _this$[ebp], ecx
  0000c	8b 45 fc	 mov	 eax, DWORD PTR _this$[ebp]
  0000f	8b 40 28	 mov	 eax, DWORD PTR [eax+40]
  00012	5f		 pop	 edi
  00013	5e		 pop	 esi
  00014	5b		 pop	 ebx
  00015	8b e5		 mov	 esp, ebp
  00017	5d		 pop	 ebp
  00018	c3		 ret	 0
?GetCastleState@CCastleSiege@@QAEHXZ ENDP		; CCastleSiege::GetCastleState
; Function compile flags: /Odtp /ZI
; File d:\projects\exteam6.3\source\gameserver\gameserver\crywolf.h
_TEXT	ENDS
;	COMDAT ?GetCrywolfState@CCrywolf@@QAEHXZ
_TEXT	SEGMENT
_this$ = -4						; size = 4
?GetCrywolfState@CCrywolf@@QAEHXZ PROC			; CCrywolf::GetCrywolfState, COMDAT
; _this$ = ecx

; 91   : 	int GetCrywolfState(){return this->m_iCrywolfState;}

  00000	55		 push	 ebp
  00001	8b ec		 mov	 ebp, esp
  00003	83 ec 44	 sub	 esp, 68			; 00000044H
  00006	53		 push	 ebx
  00007	56		 push	 esi
  00008	57		 push	 edi
  00009	89 4d fc	 mov	 DWORD PTR _this$[ebp], ecx
  0000c	8b 45 fc	 mov	 eax, DWORD PTR _this$[ebp]
  0000f	8b 80 3c b9 0f
	00		 mov	 eax, DWORD PTR [eax+1030460]
  00015	5f		 pop	 edi
  00016	5e		 pop	 esi
  00017	5b		 pop	 ebx
  00018	8b e5		 mov	 esp, ebp
  0001a	5d		 pop	 ebp
  0001b	c3		 ret	 0
?GetCrywolfState@CCrywolf@@QAEHXZ ENDP			; CCrywolf::GetCrywolfState
_TEXT	ENDS
PUBLIC	__real@3fe0000000000000
PUBLIC	?GetBerserkerSkillAttackDamage@CObjAttack@@QAEEPAUOBJECTSTRUCT@@AAH1@Z ; CObjAttack::GetBerserkerSkillAttackDamage
EXTRN	?GetPartyMemberCount@CObjBaseAttack@@QAEHPAUOBJECTSTRUCT@@@Z:PROC ; CObjBaseAttack::GetPartyMemberCount
EXTRN	__except_handler4:PROC
;	COMDAT __real@3fe0000000000000
; File d:\projects\exteam6.3\source\gameserver\gameserver\objattack.cpp
CONST	SEGMENT
__real@3fe0000000000000 DQ 03fe0000000000000r	; 0.5
CONST	ENDS
xdata$x	SEGMENT
__sehtable$?GetAttackDamage@CObjAttack@@QAEHPAUOBJECTSTRUCT@@HAAEHPAVCMagicInf@@@Z DD 0fffffffeH
	DD	00H
	DD	0ffffff2cH
	DD	00H
	DD	0fffffffeH
	DD	FLAT:$LN109@GetAttackD
	DD	FLAT:$LN110@GetAttackD
	DD	0fffffffeH
	DD	FLAT:$LN113@GetAttackD
	DD	FLAT:$LN114@GetAttackD
; Function compile flags: /Odtp /ZI
xdata$x	ENDS
_TEXT	SEGMENT
tv1336 = -196						; size = 4
tv665 = -196						; size = 4
tv610 = -196						; size = 4
_nAddAttack$241016 = -128				; size = 4
_nAddAttackDamageRight$ = -124				; size = 4
_nAddAttackDamageLeft$ = -120				; size = 4
_SkillWeakness$ = -116					; size = 4
_SkillAttack$ = -112					; size = 4
_SkillAddCriticalDamage$240937 = -108			; size = 4
_iValue2$240932 = -104					; size = 4
_iValue1$240931 = -100					; size = 4
_iadddamage$240925 = -96				; size = 4
_iadddamage$240922 = -92				; size = 4
_addskilldamage$240919 = -88				; size = 4
_addskilldamage$240914 = -84				; size = 4
_iPartyCount$240913 = -80				; size = 4
_SkillAttr$240899 = -76					; size = 4
_cDamage$240890 = -72					; size = 4
_AttackMin$240888 = -68					; size = 4
_bTwoHandWeapon$ = -64					; size = 4
_Left$ = -60						; size = 4
_Right$ = -56						; size = 4
_SkillLeftMinDamage$ = -52				; size = 4
_SkillLeftMaxDamage$ = -48				; size = 4
_SkillRightMinDamage$ = -44				; size = 4
_SkillRightMaxDamage$ = -40				; size = 4
_sub$ = -36						; size = 4
_ad$ = -32						; size = 4
_this$ = -28						; size = 4
__$SEHRec$ = -24					; size = 24
_lpObj$ = 8						; size = 4
_targetDefense$ = 12					; size = 4
_effect$ = 16						; size = 4
_bIsOnDuel$ = 20					; size = 4
_lpMagic$ = 24						; size = 4
?GetAttackDamage@CObjAttack@@QAEHPAUOBJECTSTRUCT@@HAAEHPAVCMagicInf@@@Z PROC ; CObjAttack::GetAttackDamage
; _this$ = ecx

; 3507 : {

  06cf0	55		 push	 ebp
  06cf1	8b ec		 mov	 ebp, esp
  06cf3	6a fe		 push	 -2			; fffffffeH
  06cf5	68 00 00 00 00	 push	 OFFSET __sehtable$?GetAttackDamage@CObjAttack@@QAEHPAUOBJECTSTRUCT@@HAAEHPAVCMagicInf@@@Z
  06cfa	68 00 00 00 00	 push	 OFFSET __except_handler4
  06cff	64 a1 00 00 00
	00		 mov	 eax, DWORD PTR fs:0
  06d05	50		 push	 eax
  06d06	81 c4 4c ff ff
	ff		 add	 esp, -180		; ffffff4cH
  06d0c	53		 push	 ebx
  06d0d	56		 push	 esi
  06d0e	57		 push	 edi
  06d0f	a1 00 00 00 00	 mov	 eax, DWORD PTR ___security_cookie
  06d14	31 45 f8	 xor	 DWORD PTR __$SEHRec$[ebp+16], eax
  06d17	33 c5		 xor	 eax, ebp
  06d19	50		 push	 eax
  06d1a	8d 45 f0	 lea	 eax, DWORD PTR __$SEHRec$[ebp+8]
  06d1d	64 a3 00 00 00
	00		 mov	 DWORD PTR fs:0, eax
  06d23	89 65 e8	 mov	 DWORD PTR __$SEHRec$[ebp], esp
  06d26	89 4d e4	 mov	 DWORD PTR _this$[ebp], ecx

; 3508 : 	if ( g_ShieldSystemOn == TRUE )

  06d29	83 3d 00 00 00
	00 01		 cmp	 DWORD PTR ?g_ShieldSystemOn@@3HA, 1 ; g_ShieldSystemOn
  06d30	75 0d		 jne	 SHORT $LN104@GetAttackD

; 3509 : 	{
; 3510 : 		if ( bIsOnDuel == TRUE )

  06d32	83 7d 14 01	 cmp	 DWORD PTR _bIsOnDuel$[ebp], 1
  06d36	75 07		 jne	 SHORT $LN104@GetAttackD

; 3511 : 		{
; 3512 : 			bIsOnDuel = FALSE;

  06d38	c7 45 14 00 00
	00 00		 mov	 DWORD PTR _bIsOnDuel$[ebp], 0
$LN104@GetAttackD:

; 3513 : 		}
; 3514 : 	}
; 3515 : 
; 3516 : 	int ad;
; 3517 : 	int sub;
; 3518 : 	int SkillRightMaxDamage =0;

  06d3f	c7 45 d8 00 00
	00 00		 mov	 DWORD PTR _SkillRightMaxDamage$[ebp], 0

; 3519 : 	int SkillRightMinDamage =0;

  06d46	c7 45 d4 00 00
	00 00		 mov	 DWORD PTR _SkillRightMinDamage$[ebp], 0

; 3520 : 	int SkillLeftMaxDamage =0;

  06d4d	c7 45 d0 00 00
	00 00		 mov	 DWORD PTR _SkillLeftMaxDamage$[ebp], 0

; 3521 : 	int SkillLeftMinDamage =0;

  06d54	c7 45 cc 00 00
	00 00		 mov	 DWORD PTR _SkillLeftMinDamage$[ebp], 0

; 3522 : 	CItem * Right = &lpObj->pInventory[0];

  06d5b	8b 45 08	 mov	 eax, DWORD PTR _lpObj$[ebp]
  06d5e	8b 88 24 0e 00
	00		 mov	 ecx, DWORD PTR [eax+3620]
  06d64	89 4d c8	 mov	 DWORD PTR _Right$[ebp], ecx

; 3523 : 	CItem * Left = &lpObj->pInventory[1];

  06d67	8b 45 08	 mov	 eax, DWORD PTR _lpObj$[ebp]
  06d6a	8b 88 24 0e 00
	00		 mov	 ecx, DWORD PTR [eax+3620]
  06d70	81 c1 d4 00 00
	00		 add	 ecx, 212		; 000000d4H
  06d76	89 4d c4	 mov	 DWORD PTR _Left$[ebp], ecx

; 3524 : 	BOOL bTwoHandWeapon = FALSE;

  06d79	c7 45 c0 00 00
	00 00		 mov	 DWORD PTR _bTwoHandWeapon$[ebp], 0

; 3525 : 
; 3526 : 	if ( lpObj->Type == OBJ_MONSTER || lpObj->Type == OBJ_NPC )

  06d80	8b 45 08	 mov	 eax, DWORD PTR _lpObj$[ebp]
  06d83	0f b7 48 68	 movzx	 ecx, WORD PTR [eax+104]
  06d87	83 f9 02	 cmp	 ecx, 2
  06d8a	74 0c		 je	 SHORT $LN102@GetAttackD
  06d8c	8b 45 08	 mov	 eax, DWORD PTR _lpObj$[ebp]
  06d8f	0f b7 48 68	 movzx	 ecx, WORD PTR [eax+104]
  06d93	83 f9 03	 cmp	 ecx, 3
  06d96	75 53		 jne	 SHORT $LN103@GetAttackD
$LN102@GetAttackD:

; 3527 : 	{
; 3528 : 		int AttackMin = 0;

  06d98	c7 45 bc 00 00
	00 00		 mov	 DWORD PTR _AttackMin$240888[ebp], 0

; 3529 : 		sub = lpObj->m_AttackDamageMax - lpObj->m_AttackDamageMin;

  06d9f	8b 45 08	 mov	 eax, DWORD PTR _lpObj$[ebp]
  06da2	8b 4d 08	 mov	 ecx, DWORD PTR _lpObj$[ebp]
  06da5	8b 90 64 04 00
	00		 mov	 edx, DWORD PTR [eax+1124]
  06dab	2b 91 60 04 00
	00		 sub	 edx, DWORD PTR [ecx+1120]
  06db1	89 55 dc	 mov	 DWORD PTR _sub$[ebp], edx

; 3530 : 		AttackMin = lpObj->m_AttackDamageMin + (rand()%(sub+1));

  06db4	e8 00 00 00 00	 call	 _rand
  06db9	8b 4d dc	 mov	 ecx, DWORD PTR _sub$[ebp]
  06dbc	83 c1 01	 add	 ecx, 1
  06dbf	99		 cdq
  06dc0	f7 f9		 idiv	 ecx
  06dc2	8b 45 08	 mov	 eax, DWORD PTR _lpObj$[ebp]
  06dc5	03 90 60 04 00
	00		 add	 edx, DWORD PTR [eax+1120]
  06dcb	89 55 bc	 mov	 DWORD PTR _AttackMin$240888[ebp], edx

; 3531 : 		lpObj->m_AttackDamageRight = AttackMin;

  06dce	8b 45 08	 mov	 eax, DWORD PTR _lpObj$[ebp]
  06dd1	8b 4d bc	 mov	 ecx, DWORD PTR _AttackMin$240888[ebp]
  06dd4	89 88 74 04 00
	00		 mov	 DWORD PTR [eax+1140], ecx

; 3532 : 		lpObj->m_AttackDamageLeft = AttackMin;

  06dda	8b 45 08	 mov	 eax, DWORD PTR _lpObj$[ebp]
  06ddd	8b 4d bc	 mov	 ecx, DWORD PTR _AttackMin$240888[ebp]
  06de0	89 88 70 04 00
	00		 mov	 DWORD PTR [eax+1136], ecx

; 3533 : 	}
; 3534 : 	else

  06de6	e9 af 07 00 00	 jmp	 $LN70@GetAttackD
$LN103@GetAttackD:

; 3535 : 	{
; 3536 : 		int cDamage=0;

  06deb	c7 45 b8 00 00
	00 00		 mov	 DWORD PTR _cDamage$240890[ebp], 0

; 3537 : 
; 3538 : 		if ( lpObj->Class == CLASS_DARKLORD ||
; 3539 : 			 lpObj->Class == CLASS_KNIGHT   ||
; 3540 : #ifdef MONK
; 3541 : 			 lpObj->Class == CLASS_MONK ||
; 3542 : #endif
; 3543 : 			 lpObj->Class == CLASS_MAGUMSA )

  06df2	8b 45 08	 mov	 eax, DWORD PTR _lpObj$[ebp]
  06df5	0f b7 88 b8 00
	00 00		 movzx	 ecx, WORD PTR [eax+184]
  06dfc	83 f9 04	 cmp	 ecx, 4
  06dff	74 2d		 je	 SHORT $LN99@GetAttackD
  06e01	8b 45 08	 mov	 eax, DWORD PTR _lpObj$[ebp]
  06e04	0f b7 88 b8 00
	00 00		 movzx	 ecx, WORD PTR [eax+184]
  06e0b	83 f9 01	 cmp	 ecx, 1
  06e0e	74 1e		 je	 SHORT $LN99@GetAttackD
  06e10	8b 45 08	 mov	 eax, DWORD PTR _lpObj$[ebp]
  06e13	0f b7 88 b8 00
	00 00		 movzx	 ecx, WORD PTR [eax+184]
  06e1a	83 f9 06	 cmp	 ecx, 6
  06e1d	74 0f		 je	 SHORT $LN99@GetAttackD
  06e1f	8b 45 08	 mov	 eax, DWORD PTR _lpObj$[ebp]
  06e22	0f b7 88 b8 00
	00 00		 movzx	 ecx, WORD PTR [eax+184]
  06e29	83 f9 03	 cmp	 ecx, 3
  06e2c	75 57		 jne	 SHORT $LN97@GetAttackD
$LN99@GetAttackD:

; 3544 : 		{
; 3545 : 			if ( Right->m_Type >= ITEMGET(0,0) && Right->m_Type < ITEMGET(4,0) &&
; 3546 : 				 Left->m_Type >= ITEMGET(0,0) && Left->m_Type < ITEMGET(4,0) )

  06e2e	8b 45 c8	 mov	 eax, DWORD PTR _Right$[ebp]
  06e31	0f bf 48 06	 movsx	 ecx, WORD PTR [eax+6]
  06e35	85 c9		 test	 ecx, ecx
  06e37	7c 4c		 jl	 SHORT $LN97@GetAttackD
  06e39	8b 45 c8	 mov	 eax, DWORD PTR _Right$[ebp]
  06e3c	0f bf 48 06	 movsx	 ecx, WORD PTR [eax+6]
  06e40	81 f9 00 08 00
	00		 cmp	 ecx, 2048		; 00000800H
  06e46	7d 3d		 jge	 SHORT $LN97@GetAttackD
  06e48	8b 45 c4	 mov	 eax, DWORD PTR _Left$[ebp]
  06e4b	0f bf 48 06	 movsx	 ecx, WORD PTR [eax+6]
  06e4f	85 c9		 test	 ecx, ecx
  06e51	7c 32		 jl	 SHORT $LN97@GetAttackD
  06e53	8b 45 c4	 mov	 eax, DWORD PTR _Left$[ebp]
  06e56	0f bf 48 06	 movsx	 ecx, WORD PTR [eax+6]
  06e5a	81 f9 00 08 00
	00		 cmp	 ecx, 2048		; 00000800H
  06e60	7d 23		 jge	 SHORT $LN97@GetAttackD

; 3547 : 			{
; 3548 : 				if ( Right->m_IsValidItem && Left->m_IsValidItem )

  06e62	8b 45 c8	 mov	 eax, DWORD PTR _Right$[ebp]
  06e65	0f b6 88 b0 00
	00 00		 movzx	 ecx, BYTE PTR [eax+176]
  06e6c	85 c9		 test	 ecx, ecx
  06e6e	74 15		 je	 SHORT $LN97@GetAttackD
  06e70	8b 45 c4	 mov	 eax, DWORD PTR _Left$[ebp]
  06e73	0f b6 88 b0 00
	00 00		 movzx	 ecx, BYTE PTR [eax+176]
  06e7a	85 c9		 test	 ecx, ecx
  06e7c	74 07		 je	 SHORT $LN97@GetAttackD

; 3549 : 				{
; 3550 : 					bTwoHandWeapon = TRUE;

  06e7e	c7 45 c0 01 00
	00 00		 mov	 DWORD PTR _bTwoHandWeapon$[ebp], 1
$LN97@GetAttackD:

; 3551 : 				}
; 3552 : 			}
; 3553 : 		}
; 3554 : 
; 3555 : 		if ( lpMagic )

  06e85	83 7d 18 00	 cmp	 DWORD PTR _lpMagic$[ebp], 0
  06e89	0f 84 01 04 00
	00		 je	 $LN79@GetAttackD

; 3556 : 		{
; 3557 : 			if ( lpMagic ->m_Skill == 60 && lpObj->SkillLongSpearChange )

  06e8f	8b 45 18	 mov	 eax, DWORD PTR _lpMagic$[ebp]
  06e92	83 78 08 3c	 cmp	 DWORD PTR [eax+8], 60	; 0000003cH
  06e96	75 20		 jne	 SHORT $LN95@GetAttackD
  06e98	8b 45 08	 mov	 eax, DWORD PTR _lpObj$[ebp]
  06e9b	0f b6 88 7a 12
	00 00		 movzx	 ecx, BYTE PTR [eax+4730]
  06ea2	85 c9		 test	 ecx, ecx
  06ea4	74 12		 je	 SHORT $LN95@GetAttackD

; 3558 : 			{
; 3559 : 				SkillRightMaxDamage = DefMagicInf[66].m_DamageMax;

  06ea6	a1 40 06 00 00	 mov	 eax, DWORD PTR ?DefMagicInf@@3PAVCMagicInf@@A+1600
  06eab	89 45 d8	 mov	 DWORD PTR _SkillRightMaxDamage$[ebp], eax

; 3560 : 				SkillRightMinDamage = DefMagicInf[66].m_DamageMin;

  06eae	a1 3c 06 00 00	 mov	 eax, DWORD PTR ?DefMagicInf@@3PAVCMagicInf@@A+1596
  06eb3	89 45 d4	 mov	 DWORD PTR _SkillRightMinDamage$[ebp], eax

; 3561 : 			}
; 3562 : 			else

  06eb6	eb 12		 jmp	 SHORT $LN94@GetAttackD
$LN95@GetAttackD:

; 3563 : 			{
; 3564 : 				SkillRightMaxDamage = lpMagic->m_DamageMax;

  06eb8	8b 45 18	 mov	 eax, DWORD PTR _lpMagic$[ebp]
  06ebb	8b 48 10	 mov	 ecx, DWORD PTR [eax+16]
  06ebe	89 4d d8	 mov	 DWORD PTR _SkillRightMaxDamage$[ebp], ecx

; 3565 : 				SkillRightMinDamage = lpMagic->m_DamageMin;

  06ec1	8b 45 18	 mov	 eax, DWORD PTR _lpMagic$[ebp]
  06ec4	8b 48 0c	 mov	 ecx, DWORD PTR [eax+12]
  06ec7	89 4d d4	 mov	 DWORD PTR _SkillRightMinDamage$[ebp], ecx
$LN94@GetAttackD:

; 3566 : 			}
; 3567 : 
; 3568 : 			if ( bTwoHandWeapon == FALSE )

  06eca	83 7d c0 00	 cmp	 DWORD PTR _bTwoHandWeapon$[ebp], 0
  06ece	75 0c		 jne	 SHORT $LN93@GetAttackD

; 3569 : 			{
; 3570 : 				SkillLeftMaxDamage = SkillRightMaxDamage;

  06ed0	8b 45 d8	 mov	 eax, DWORD PTR _SkillRightMaxDamage$[ebp]
  06ed3	89 45 d0	 mov	 DWORD PTR _SkillLeftMaxDamage$[ebp], eax

; 3571 : 				SkillLeftMinDamage = SkillRightMinDamage;

  06ed6	8b 45 d4	 mov	 eax, DWORD PTR _SkillRightMinDamage$[ebp]
  06ed9	89 45 cc	 mov	 DWORD PTR _SkillLeftMinDamage$[ebp], eax
$LN93@GetAttackD:

; 3572 : 			}
; 3573 : 
; 3574 : 			SkillRightMaxDamage += lpObj->SetOpAddSkillAttack;

  06edc	8b 45 08	 mov	 eax, DWORD PTR _lpObj$[ebp]
  06edf	0f bf 88 24 11
	00 00		 movsx	 ecx, WORD PTR [eax+4388]
  06ee6	03 4d d8	 add	 ecx, DWORD PTR _SkillRightMaxDamage$[ebp]
  06ee9	89 4d d8	 mov	 DWORD PTR _SkillRightMaxDamage$[ebp], ecx

; 3575 : 			SkillRightMinDamage += lpObj->SetOpAddSkillAttack;

  06eec	8b 45 08	 mov	 eax, DWORD PTR _lpObj$[ebp]
  06eef	0f bf 88 24 11
	00 00		 movsx	 ecx, WORD PTR [eax+4388]
  06ef6	03 4d d4	 add	 ecx, DWORD PTR _SkillRightMinDamage$[ebp]
  06ef9	89 4d d4	 mov	 DWORD PTR _SkillRightMinDamage$[ebp], ecx

; 3576 : 			SkillLeftMaxDamage += lpObj->SetOpAddSkillAttack;

  06efc	8b 45 08	 mov	 eax, DWORD PTR _lpObj$[ebp]
  06eff	0f bf 88 24 11
	00 00		 movsx	 ecx, WORD PTR [eax+4388]
  06f06	03 4d d0	 add	 ecx, DWORD PTR _SkillLeftMaxDamage$[ebp]
  06f09	89 4d d0	 mov	 DWORD PTR _SkillLeftMaxDamage$[ebp], ecx

; 3577 : 			SkillLeftMinDamage += lpObj->SetOpAddSkillAttack;

  06f0c	8b 45 08	 mov	 eax, DWORD PTR _lpObj$[ebp]
  06f0f	0f bf 88 24 11
	00 00		 movsx	 ecx, WORD PTR [eax+4388]
  06f16	03 4d cc	 add	 ecx, DWORD PTR _SkillLeftMinDamage$[ebp]
  06f19	89 4d cc	 mov	 DWORD PTR _SkillLeftMinDamage$[ebp], ecx

; 3578 : 
; 3579 : 			int SkillAttr = MagicDamageC.GetSkillAttr(lpMagic->m_Skill);

  06f1c	8b 45 18	 mov	 eax, DWORD PTR _lpMagic$[ebp]
  06f1f	8b 48 08	 mov	 ecx, DWORD PTR [eax+8]
  06f22	51		 push	 ecx
  06f23	b9 00 00 00 00	 mov	 ecx, OFFSET ?MagicDamageC@@3VCMagicDamage@@A ; MagicDamageC
  06f28	e8 00 00 00 00	 call	 ?GetSkillAttr@CMagicDamage@@QAEHH@Z ; CMagicDamage::GetSkillAttr
  06f2d	89 45 b4	 mov	 DWORD PTR _SkillAttr$240899[ebp], eax

; 3580 : 
; 3581 : 			if ( SkillAttr != -1 )

  06f30	83 7d b4 ff	 cmp	 DWORD PTR _SkillAttr$240899[ebp], -1
  06f34	0f 84 b8 00 00
	00		 je	 $LN89@GetAttackD

; 3582 : 			{
; 3583 : 				if((lpObj->Authority&32) == 32 && (lpObj->pInventory[10].m_Type == ITEMGET(13,42) || lpObj->pInventory[11].m_Type == ITEMGET(13,42))) //season 2.5 add-on

  06f3a	8b 45 08	 mov	 eax, DWORD PTR _lpObj$[ebp]
  06f3d	8b 88 0c 02 00
	00		 mov	 ecx, DWORD PTR [eax+524]
  06f43	83 e1 20	 and	 ecx, 32			; 00000020H
  06f46	74 5e		 je	 SHORT $LN91@GetAttackD
  06f48	8b 45 08	 mov	 eax, DWORD PTR _lpObj$[ebp]
  06f4b	8b 88 24 0e 00
	00		 mov	 ecx, DWORD PTR [eax+3620]
  06f51	0f bf 91 4e 08
	00 00		 movsx	 edx, WORD PTR [ecx+2126]
  06f58	81 fa 2a 1a 00
	00		 cmp	 edx, 6698		; 00001a2aH
  06f5e	74 18		 je	 SHORT $LN90@GetAttackD
  06f60	8b 45 08	 mov	 eax, DWORD PTR _lpObj$[ebp]
  06f63	8b 88 24 0e 00
	00		 mov	 ecx, DWORD PTR [eax+3620]
  06f69	0f bf 91 22 09
	00 00		 movsx	 edx, WORD PTR [ecx+2338]
  06f70	81 fa 2a 1a 00
	00		 cmp	 edx, 6698		; 00001a2aH
  06f76	75 2e		 jne	 SHORT $LN91@GetAttackD
$LN90@GetAttackD:

; 3584 : 				{
; 3585 : 					SkillRightMaxDamage += (BYTE)255;

  06f78	8b 45 d8	 mov	 eax, DWORD PTR _SkillRightMaxDamage$[ebp]
  06f7b	05 ff 00 00 00	 add	 eax, 255		; 000000ffH
  06f80	89 45 d8	 mov	 DWORD PTR _SkillRightMaxDamage$[ebp], eax

; 3586 : 					SkillRightMinDamage += (BYTE)255;

  06f83	8b 45 d4	 mov	 eax, DWORD PTR _SkillRightMinDamage$[ebp]
  06f86	05 ff 00 00 00	 add	 eax, 255		; 000000ffH
  06f8b	89 45 d4	 mov	 DWORD PTR _SkillRightMinDamage$[ebp], eax

; 3587 : 					SkillLeftMaxDamage  += (BYTE)255;

  06f8e	8b 45 d0	 mov	 eax, DWORD PTR _SkillLeftMaxDamage$[ebp]
  06f91	05 ff 00 00 00	 add	 eax, 255		; 000000ffH
  06f96	89 45 d0	 mov	 DWORD PTR _SkillLeftMaxDamage$[ebp], eax

; 3588 : 					SkillLeftMinDamage  += (BYTE)255;

  06f99	8b 45 cc	 mov	 eax, DWORD PTR _SkillLeftMinDamage$[ebp]
  06f9c	05 ff 00 00 00	 add	 eax, 255		; 000000ffH
  06fa1	89 45 cc	 mov	 DWORD PTR _SkillLeftMinDamage$[ebp], eax

; 3589 : 				}
; 3590 : 				else

  06fa4	eb 4c		 jmp	 SHORT $LN89@GetAttackD
$LN91@GetAttackD:

; 3591 : 				{
; 3592 : 					SkillRightMaxDamage += (BYTE)lpObj->m_AddResistance[SkillAttr];

  06fa6	8b 45 08	 mov	 eax, DWORD PTR _lpObj$[ebp]
  06fa9	03 45 b4	 add	 eax, DWORD PTR _SkillAttr$240899[ebp]
  06fac	0f b6 88 ff 04
	00 00		 movzx	 ecx, BYTE PTR [eax+1279]
  06fb3	03 4d d8	 add	 ecx, DWORD PTR _SkillRightMaxDamage$[ebp]
  06fb6	89 4d d8	 mov	 DWORD PTR _SkillRightMaxDamage$[ebp], ecx

; 3593 : 					SkillRightMinDamage += (BYTE)lpObj->m_AddResistance[SkillAttr];

  06fb9	8b 45 08	 mov	 eax, DWORD PTR _lpObj$[ebp]
  06fbc	03 45 b4	 add	 eax, DWORD PTR _SkillAttr$240899[ebp]
  06fbf	0f b6 88 ff 04
	00 00		 movzx	 ecx, BYTE PTR [eax+1279]
  06fc6	03 4d d4	 add	 ecx, DWORD PTR _SkillRightMinDamage$[ebp]
  06fc9	89 4d d4	 mov	 DWORD PTR _SkillRightMinDamage$[ebp], ecx

; 3594 : 					SkillLeftMaxDamage  += (BYTE)lpObj->m_AddResistance[SkillAttr];

  06fcc	8b 45 08	 mov	 eax, DWORD PTR _lpObj$[ebp]
  06fcf	03 45 b4	 add	 eax, DWORD PTR _SkillAttr$240899[ebp]
  06fd2	0f b6 88 ff 04
	00 00		 movzx	 ecx, BYTE PTR [eax+1279]
  06fd9	03 4d d0	 add	 ecx, DWORD PTR _SkillLeftMaxDamage$[ebp]
  06fdc	89 4d d0	 mov	 DWORD PTR _SkillLeftMaxDamage$[ebp], ecx

; 3595 : 					SkillLeftMinDamage  += (BYTE)lpObj->m_AddResistance[SkillAttr];

  06fdf	8b 45 08	 mov	 eax, DWORD PTR _lpObj$[ebp]
  06fe2	03 45 b4	 add	 eax, DWORD PTR _SkillAttr$240899[ebp]
  06fe5	0f b6 88 ff 04
	00 00		 movzx	 ecx, BYTE PTR [eax+1279]
  06fec	03 4d cc	 add	 ecx, DWORD PTR _SkillLeftMinDamage$[ebp]
  06fef	89 4d cc	 mov	 DWORD PTR _SkillLeftMinDamage$[ebp], ecx
$LN89@GetAttackD:

; 3596 : 				}
; 3597 : 			}
; 3598 : 
; 3599 : 			SkillRightMaxDamage += lpObj->m_JewelOfHarmonyEffect.HJOpAddSkillAttack;

  06ff2	8b 45 08	 mov	 eax, DWORD PTR _lpObj$[ebp]
  06ff5	0f bf 88 e4 1f
	00 00		 movsx	 ecx, WORD PTR [eax+8164]
  06ffc	03 4d d8	 add	 ecx, DWORD PTR _SkillRightMaxDamage$[ebp]
  06fff	89 4d d8	 mov	 DWORD PTR _SkillRightMaxDamage$[ebp], ecx

; 3600 : 			SkillRightMinDamage += lpObj->m_JewelOfHarmonyEffect.HJOpAddSkillAttack;

  07002	8b 45 08	 mov	 eax, DWORD PTR _lpObj$[ebp]
  07005	0f bf 88 e4 1f
	00 00		 movsx	 ecx, WORD PTR [eax+8164]
  0700c	03 4d d4	 add	 ecx, DWORD PTR _SkillRightMinDamage$[ebp]
  0700f	89 4d d4	 mov	 DWORD PTR _SkillRightMinDamage$[ebp], ecx

; 3601 : 			SkillLeftMaxDamage += lpObj->m_JewelOfHarmonyEffect.HJOpAddSkillAttack;

  07012	8b 45 08	 mov	 eax, DWORD PTR _lpObj$[ebp]
  07015	0f bf 88 e4 1f
	00 00		 movsx	 ecx, WORD PTR [eax+8164]
  0701c	03 4d d0	 add	 ecx, DWORD PTR _SkillLeftMaxDamage$[ebp]
  0701f	89 4d d0	 mov	 DWORD PTR _SkillLeftMaxDamage$[ebp], ecx

; 3602 : 			SkillLeftMinDamage += lpObj->m_JewelOfHarmonyEffect.HJOpAddSkillAttack;

  07022	8b 45 08	 mov	 eax, DWORD PTR _lpObj$[ebp]
  07025	0f bf 88 e4 1f
	00 00		 movsx	 ecx, WORD PTR [eax+8164]
  0702c	03 4d cc	 add	 ecx, DWORD PTR _SkillLeftMinDamage$[ebp]
  0702f	89 4d cc	 mov	 DWORD PTR _SkillLeftMinDamage$[ebp], ecx

; 3603 : 
; 3604 : 			if ( lpMagic->m_Skill == 65 )

  07032	8b 45 18	 mov	 eax, DWORD PTR _lpMagic$[ebp]
  07035	83 78 08 41	 cmp	 DWORD PTR [eax+8], 65	; 00000041H
  07039	75 61		 jne	 SHORT $LN88@GetAttackD

; 3605 : 			{
; 3606 : 				int iPartyCount = this->GetPartyMemberCount(lpObj);

  0703b	8b 45 08	 mov	 eax, DWORD PTR _lpObj$[ebp]
  0703e	50		 push	 eax
  0703f	8b 4d e4	 mov	 ecx, DWORD PTR _this$[ebp]
  07042	e8 00 00 00 00	 call	 ?GetPartyMemberCount@CObjBaseAttack@@QAEHPAUOBJECTSTRUCT@@@Z ; CObjBaseAttack::GetPartyMemberCount
  07047	89 45 b0	 mov	 DWORD PTR _iPartyCount$240913[ebp], eax

; 3607 : 				int addskilldamage = ( lpObj->Leadership + lpObj->AddLeadership ) / 10 + ( iPartyCount * 50 );

  0704a	8b 45 08	 mov	 eax, DWORD PTR _lpObj$[ebp]
  0704d	0f b7 80 18 01
	00 00		 movzx	 eax, WORD PTR [eax+280]
  07054	8b 4d 08	 mov	 ecx, DWORD PTR _lpObj$[ebp]
  07057	0f b7 91 1a 01
	00 00		 movzx	 edx, WORD PTR [ecx+282]
  0705e	03 c2		 add	 eax, edx
  07060	99		 cdq
  07061	b9 0a 00 00 00	 mov	 ecx, 10			; 0000000aH
  07066	f7 f9		 idiv	 ecx
  07068	8b 55 b0	 mov	 edx, DWORD PTR _iPartyCount$240913[ebp]
  0706b	6b d2 32	 imul	 edx, 50			; 00000032H
  0706e	03 c2		 add	 eax, edx
  07070	89 45 ac	 mov	 DWORD PTR _addskilldamage$240914[ebp], eax

; 3608 : 
; 3609 : 				SkillRightMaxDamage += addskilldamage;

  07073	8b 45 d8	 mov	 eax, DWORD PTR _SkillRightMaxDamage$[ebp]
  07076	03 45 ac	 add	 eax, DWORD PTR _addskilldamage$240914[ebp]
  07079	89 45 d8	 mov	 DWORD PTR _SkillRightMaxDamage$[ebp], eax

; 3610 : 				SkillRightMinDamage += addskilldamage;

  0707c	8b 45 d4	 mov	 eax, DWORD PTR _SkillRightMinDamage$[ebp]
  0707f	03 45 ac	 add	 eax, DWORD PTR _addskilldamage$240914[ebp]
  07082	89 45 d4	 mov	 DWORD PTR _SkillRightMinDamage$[ebp], eax

; 3611 : 				SkillLeftMaxDamage += addskilldamage;

  07085	8b 45 d0	 mov	 eax, DWORD PTR _SkillLeftMaxDamage$[ebp]
  07088	03 45 ac	 add	 eax, DWORD PTR _addskilldamage$240914[ebp]
  0708b	89 45 d0	 mov	 DWORD PTR _SkillLeftMaxDamage$[ebp], eax

; 3612 : 				SkillLeftMinDamage += addskilldamage;

  0708e	8b 45 cc	 mov	 eax, DWORD PTR _SkillLeftMinDamage$[ebp]
  07091	03 45 ac	 add	 eax, DWORD PTR _addskilldamage$240914[ebp]
  07094	89 45 cc	 mov	 DWORD PTR _SkillLeftMinDamage$[ebp], eax
  07097	e9 b7 01 00 00	 jmp	 $LN80@GetAttackD
$LN88@GetAttackD:

; 3613 : 			}
; 3614 : 			else if( lpMagic->m_Skill == 62 || g_MasterSkillSystem.GetBaseMasterLevelSkill(lpMagic->m_Skill) == 515) //season3 add-on

  0709c	8b 45 18	 mov	 eax, DWORD PTR _lpMagic$[ebp]
  0709f	83 78 08 3e	 cmp	 DWORD PTR [eax+8], 62	; 0000003eH
  070a3	74 1c		 je	 SHORT $LN85@GetAttackD
  070a5	8b 45 18	 mov	 eax, DWORD PTR _lpMagic$[ebp]
  070a8	8b 48 08	 mov	 ecx, DWORD PTR [eax+8]
  070ab	51		 push	 ecx
  070ac	b9 00 00 00 00	 mov	 ecx, OFFSET ?g_MasterSkillSystem@@3VCMasterLevelSkillTreeSystem@@A ; g_MasterSkillSystem
  070b1	e8 00 00 00 00	 call	 ?GetBaseMasterLevelSkill@CMasterLevelSkillTreeSystem@@QAEHH@Z ; CMasterLevelSkillTreeSystem::GetBaseMasterLevelSkill
  070b6	3d 03 02 00 00	 cmp	 eax, 515		; 00000203H
  070bb	0f 85 98 00 00
	00		 jne	 $LN86@GetAttackD
$LN85@GetAttackD:

; 3615 : 			{
; 3616 : 				if ( lpObj->pInventory[8].m_Type == ITEMGET(13,4) )

  070c1	8b 45 08	 mov	 eax, DWORD PTR _lpObj$[ebp]
  070c4	8b 88 24 0e 00
	00		 mov	 ecx, DWORD PTR [eax+3620]
  070ca	0f bf 91 a6 06
	00 00		 movsx	 edx, WORD PTR [ecx+1702]
  070d1	81 fa 04 1a 00
	00		 cmp	 edx, 6660		; 00001a04H
  070d7	75 7b		 jne	 SHORT $LN84@GetAttackD

; 3617 : 				{
; 3618 : 					int addskilldamage = ( lpObj->Strength + lpObj->AddStrength ) / 10 + ( lpObj->Leadership + lpObj->AddLeadership ) / 5 + lpObj->pInventory[8].m_PetItem_Level * 10;

  070d9	8b 45 08	 mov	 eax, DWORD PTR _lpObj$[ebp]
  070dc	0f b7 80 f4 00
	00 00		 movzx	 eax, WORD PTR [eax+244]
  070e3	8b 4d 08	 mov	 ecx, DWORD PTR _lpObj$[ebp]
  070e6	0f bf 91 20 01
	00 00		 movsx	 edx, WORD PTR [ecx+288]
  070ed	03 c2		 add	 eax, edx
  070ef	99		 cdq
  070f0	b9 0a 00 00 00	 mov	 ecx, 10			; 0000000aH
  070f5	f7 f9		 idiv	 ecx
  070f7	8b c8		 mov	 ecx, eax
  070f9	8b 55 08	 mov	 edx, DWORD PTR _lpObj$[ebp]
  070fc	0f b7 82 18 01
	00 00		 movzx	 eax, WORD PTR [edx+280]
  07103	8b 55 08	 mov	 edx, DWORD PTR _lpObj$[ebp]
  07106	0f b7 92 1a 01
	00 00		 movzx	 edx, WORD PTR [edx+282]
  0710d	03 c2		 add	 eax, edx
  0710f	99		 cdq
  07110	be 05 00 00 00	 mov	 esi, 5
  07115	f7 fe		 idiv	 esi
  07117	03 c8		 add	 ecx, eax
  07119	8b 45 08	 mov	 eax, DWORD PTR _lpObj$[ebp]
  0711c	8b 90 24 0e 00
	00		 mov	 edx, DWORD PTR [eax+3620]
  07122	8b 82 5c 07 00
	00		 mov	 eax, DWORD PTR [edx+1884]
  07128	6b c0 0a	 imul	 eax, 10			; 0000000aH
  0712b	03 c8		 add	 ecx, eax
  0712d	89 4d a8	 mov	 DWORD PTR _addskilldamage$240919[ebp], ecx

; 3619 : 
; 3620 : 					SkillRightMaxDamage += addskilldamage;

  07130	8b 45 d8	 mov	 eax, DWORD PTR _SkillRightMaxDamage$[ebp]
  07133	03 45 a8	 add	 eax, DWORD PTR _addskilldamage$240919[ebp]
  07136	89 45 d8	 mov	 DWORD PTR _SkillRightMaxDamage$[ebp], eax

; 3621 : 					SkillRightMinDamage += addskilldamage;

  07139	8b 45 d4	 mov	 eax, DWORD PTR _SkillRightMinDamage$[ebp]
  0713c	03 45 a8	 add	 eax, DWORD PTR _addskilldamage$240919[ebp]
  0713f	89 45 d4	 mov	 DWORD PTR _SkillRightMinDamage$[ebp], eax

; 3622 : 					SkillLeftMaxDamage += addskilldamage;

  07142	8b 45 d0	 mov	 eax, DWORD PTR _SkillLeftMaxDamage$[ebp]
  07145	03 45 a8	 add	 eax, DWORD PTR _addskilldamage$240919[ebp]
  07148	89 45 d0	 mov	 DWORD PTR _SkillLeftMaxDamage$[ebp], eax

; 3623 : 					SkillLeftMinDamage += addskilldamage;

  0714b	8b 45 cc	 mov	 eax, DWORD PTR _SkillLeftMinDamage$[ebp]
  0714e	03 45 a8	 add	 eax, DWORD PTR _addskilldamage$240919[ebp]
  07151	89 45 cc	 mov	 DWORD PTR _SkillLeftMinDamage$[ebp], eax
$LN84@GetAttackD:

; 3624 : 				}
; 3625 : 			}

  07154	e9 fa 00 00 00	 jmp	 $LN80@GetAttackD
$LN86@GetAttackD:

; 3626 : 			else if ( lpObj->Class == CLASS_DARKLORD && lpMagic->m_Skill == 238) //season4 add-on

  07159	8b 45 08	 mov	 eax, DWORD PTR _lpObj$[ebp]
  0715c	0f b7 88 b8 00
	00 00		 movzx	 ecx, WORD PTR [eax+184]
  07163	83 f9 04	 cmp	 ecx, 4
  07166	75 75		 jne	 SHORT $LN82@GetAttackD
  07168	8b 45 18	 mov	 eax, DWORD PTR _lpMagic$[ebp]
  0716b	81 78 08 ee 00
	00 00		 cmp	 DWORD PTR [eax+8], 238	; 000000eeH
  07172	75 69		 jne	 SHORT $LN82@GetAttackD

; 3627 : 			{
; 3628 : 				int iadddamage = ( lpObj->Strength + lpObj->AddStrength ) / 30 + ( lpObj->Energy + lpObj->AddEnergy ) / 55;	// #formula

  07174	8b 45 08	 mov	 eax, DWORD PTR _lpObj$[ebp]
  07177	0f b7 80 f4 00
	00 00		 movzx	 eax, WORD PTR [eax+244]
  0717e	8b 4d 08	 mov	 ecx, DWORD PTR _lpObj$[ebp]
  07181	0f bf 91 20 01
	00 00		 movsx	 edx, WORD PTR [ecx+288]
  07188	03 c2		 add	 eax, edx
  0718a	99		 cdq
  0718b	b9 1e 00 00 00	 mov	 ecx, 30			; 0000001eH
  07190	f7 f9		 idiv	 ecx
  07192	8b c8		 mov	 ecx, eax
  07194	8b 55 08	 mov	 edx, DWORD PTR _lpObj$[ebp]
  07197	0f b7 82 fa 00
	00 00		 movzx	 eax, WORD PTR [edx+250]
  0719e	8b 55 08	 mov	 edx, DWORD PTR _lpObj$[ebp]
  071a1	0f bf 92 26 01
	00 00		 movsx	 edx, WORD PTR [edx+294]
  071a8	03 c2		 add	 eax, edx
  071aa	99		 cdq
  071ab	be 37 00 00 00	 mov	 esi, 55			; 00000037H
  071b0	f7 fe		 idiv	 esi
  071b2	03 c8		 add	 ecx, eax
  071b4	89 4d a4	 mov	 DWORD PTR _iadddamage$240922[ebp], ecx

; 3629 : 
; 3630 : 				SkillRightMaxDamage += iadddamage;

  071b7	8b 45 d8	 mov	 eax, DWORD PTR _SkillRightMaxDamage$[ebp]
  071ba	03 45 a4	 add	 eax, DWORD PTR _iadddamage$240922[ebp]
  071bd	89 45 d8	 mov	 DWORD PTR _SkillRightMaxDamage$[ebp], eax

; 3631 : 				SkillRightMinDamage += iadddamage;

  071c0	8b 45 d4	 mov	 eax, DWORD PTR _SkillRightMinDamage$[ebp]
  071c3	03 45 a4	 add	 eax, DWORD PTR _iadddamage$240922[ebp]
  071c6	89 45 d4	 mov	 DWORD PTR _SkillRightMinDamage$[ebp], eax

; 3632 : 				SkillLeftMaxDamage += iadddamage;

  071c9	8b 45 d0	 mov	 eax, DWORD PTR _SkillLeftMaxDamage$[ebp]
  071cc	03 45 a4	 add	 eax, DWORD PTR _iadddamage$240922[ebp]
  071cf	89 45 d0	 mov	 DWORD PTR _SkillLeftMaxDamage$[ebp], eax

; 3633 : 				SkillLeftMinDamage += iadddamage;

  071d2	8b 45 cc	 mov	 eax, DWORD PTR _SkillLeftMinDamage$[ebp]
  071d5	03 45 a4	 add	 eax, DWORD PTR _iadddamage$240922[ebp]
  071d8	89 45 cc	 mov	 DWORD PTR _SkillLeftMinDamage$[ebp], eax
  071db	eb 76		 jmp	 SHORT $LN80@GetAttackD
$LN82@GetAttackD:

; 3634 : 			}
; 3635 : 			else if ( lpObj->Class == CLASS_DARKLORD )

  071dd	8b 45 08	 mov	 eax, DWORD PTR _lpObj$[ebp]
  071e0	0f b7 88 b8 00
	00 00		 movzx	 ecx, WORD PTR [eax+184]
  071e7	83 f9 04	 cmp	 ecx, 4
  071ea	75 67		 jne	 SHORT $LN80@GetAttackD

; 3636 : 			{
; 3637 : 				int iadddamage = ( lpObj->Strength + lpObj->AddStrength ) / 25 + ( lpObj->Energy + lpObj->AddEnergy ) / 50;	// #formula

  071ec	8b 45 08	 mov	 eax, DWORD PTR _lpObj$[ebp]
  071ef	0f b7 80 f4 00
	00 00		 movzx	 eax, WORD PTR [eax+244]
  071f6	8b 4d 08	 mov	 ecx, DWORD PTR _lpObj$[ebp]
  071f9	0f bf 91 20 01
	00 00		 movsx	 edx, WORD PTR [ecx+288]
  07200	03 c2		 add	 eax, edx
  07202	99		 cdq
  07203	b9 19 00 00 00	 mov	 ecx, 25			; 00000019H
  07208	f7 f9		 idiv	 ecx
  0720a	8b c8		 mov	 ecx, eax
  0720c	8b 55 08	 mov	 edx, DWORD PTR _lpObj$[ebp]
  0720f	0f b7 82 fa 00
	00 00		 movzx	 eax, WORD PTR [edx+250]
  07216	8b 55 08	 mov	 edx, DWORD PTR _lpObj$[ebp]
  07219	0f bf 92 26 01
	00 00		 movsx	 edx, WORD PTR [edx+294]
  07220	03 c2		 add	 eax, edx
  07222	99		 cdq
  07223	be 32 00 00 00	 mov	 esi, 50			; 00000032H
  07228	f7 fe		 idiv	 esi
  0722a	03 c8		 add	 ecx, eax
  0722c	89 4d a0	 mov	 DWORD PTR _iadddamage$240925[ebp], ecx

; 3638 : 
; 3639 : 				SkillRightMaxDamage += iadddamage;

  0722f	8b 45 d8	 mov	 eax, DWORD PTR _SkillRightMaxDamage$[ebp]
  07232	03 45 a0	 add	 eax, DWORD PTR _iadddamage$240925[ebp]
  07235	89 45 d8	 mov	 DWORD PTR _SkillRightMaxDamage$[ebp], eax

; 3640 : 				SkillRightMinDamage += iadddamage;

  07238	8b 45 d4	 mov	 eax, DWORD PTR _SkillRightMinDamage$[ebp]
  0723b	03 45 a0	 add	 eax, DWORD PTR _iadddamage$240925[ebp]
  0723e	89 45 d4	 mov	 DWORD PTR _SkillRightMinDamage$[ebp], eax

; 3641 : 				SkillLeftMaxDamage += iadddamage;

  07241	8b 45 d0	 mov	 eax, DWORD PTR _SkillLeftMaxDamage$[ebp]
  07244	03 45 a0	 add	 eax, DWORD PTR _iadddamage$240925[ebp]
  07247	89 45 d0	 mov	 DWORD PTR _SkillLeftMaxDamage$[ebp], eax

; 3642 : 				SkillLeftMinDamage += iadddamage;

  0724a	8b 45 cc	 mov	 eax, DWORD PTR _SkillLeftMinDamage$[ebp]
  0724d	03 45 a0	 add	 eax, DWORD PTR _iadddamage$240925[ebp]
  07250	89 45 cc	 mov	 DWORD PTR _SkillLeftMinDamage$[ebp], eax
$LN80@GetAttackD:

; 3643 : 			}
; 3644 : 			
; 3645 : 			if ( lpObj->Class == CLASS_ELF && lpMagic->m_Skill == 235 ) //season4 add-on

  07253	8b 45 08	 mov	 eax, DWORD PTR _lpObj$[ebp]
  07256	0f b7 88 b8 00
	00 00		 movzx	 ecx, WORD PTR [eax+184]
  0725d	83 f9 02	 cmp	 ecx, 2
  07260	75 2e		 jne	 SHORT $LN79@GetAttackD
  07262	8b 45 18	 mov	 eax, DWORD PTR _lpMagic$[ebp]
  07265	81 78 08 eb 00
	00 00		 cmp	 DWORD PTR [eax+8], 235	; 000000ebH
  0726c	75 22		 jne	 SHORT $LN79@GetAttackD

; 3646 : 			{
; 3647 : 				SkillLeftMaxDamage = SkillLeftMaxDamage * 80 / 100;

  0726e	8b 45 d0	 mov	 eax, DWORD PTR _SkillLeftMaxDamage$[ebp]
  07271	6b c0 50	 imul	 eax, 80			; 00000050H
  07274	99		 cdq
  07275	b9 64 00 00 00	 mov	 ecx, 100		; 00000064H
  0727a	f7 f9		 idiv	 ecx
  0727c	89 45 d0	 mov	 DWORD PTR _SkillLeftMaxDamage$[ebp], eax

; 3648 : 				SkillLeftMinDamage = SkillLeftMinDamage * 80 / 100;

  0727f	8b 45 cc	 mov	 eax, DWORD PTR _SkillLeftMinDamage$[ebp]
  07282	6b c0 50	 imul	 eax, 80			; 00000050H
  07285	99		 cdq
  07286	b9 64 00 00 00	 mov	 ecx, 100		; 00000064H
  0728b	f7 f9		 idiv	 ecx
  0728d	89 45 cc	 mov	 DWORD PTR _SkillLeftMinDamage$[ebp], eax
$LN79@GetAttackD:

; 3649 : 			}
; 3650 : 		}
; 3651 : 
; 3652 : 		if ( lpObj->m_CriticalDamage > 0 )

  07290	8b 45 08	 mov	 eax, DWORD PTR _lpObj$[ebp]
  07293	83 b8 bc 04 00
	00 00		 cmp	 DWORD PTR [eax+1212], 0
  0729a	7e 25		 jle	 SHORT $LN77@GetAttackD

; 3653 : 		{
; 3654 : 			if ( (rand()%100) < lpObj->m_CriticalDamage )

  0729c	e8 00 00 00 00	 call	 _rand
  072a1	99		 cdq
  072a2	b9 64 00 00 00	 mov	 ecx, 100		; 00000064H
  072a7	f7 f9		 idiv	 ecx
  072a9	8b 45 08	 mov	 eax, DWORD PTR _lpObj$[ebp]
  072ac	3b 90 bc 04 00
	00		 cmp	 edx, DWORD PTR [eax+1212]
  072b2	7d 0d		 jge	 SHORT $LN77@GetAttackD

; 3655 : 			{
; 3656 : 				cDamage = TRUE;

  072b4	c7 45 b8 01 00
	00 00		 mov	 DWORD PTR _cDamage$240890[ebp], 1

; 3657 : 				effect = 3;

  072bb	8b 45 10	 mov	 eax, DWORD PTR _effect$[ebp]
  072be	c6 00 03	 mov	 BYTE PTR [eax], 3
$LN77@GetAttackD:

; 3658 : 			}
; 3659 : 		}
; 3660 : 
; 3661 : 		if ( lpObj->m_ExcelentDamage > 0 )

  072c1	8b 45 08	 mov	 eax, DWORD PTR _lpObj$[ebp]
  072c4	83 b8 c0 04 00
	00 00		 cmp	 DWORD PTR [eax+1216], 0
  072cb	7e 25		 jle	 SHORT $LN75@GetAttackD

; 3662 : 		{
; 3663 : 			if ( (rand()%100) < lpObj->m_ExcelentDamage )

  072cd	e8 00 00 00 00	 call	 _rand
  072d2	99		 cdq
  072d3	b9 64 00 00 00	 mov	 ecx, 100		; 00000064H
  072d8	f7 f9		 idiv	 ecx
  072da	8b 45 08	 mov	 eax, DWORD PTR _lpObj$[ebp]
  072dd	3b 90 c0 04 00
	00		 cmp	 edx, DWORD PTR [eax+1216]
  072e3	7d 0d		 jge	 SHORT $LN75@GetAttackD

; 3664 : 			{
; 3665 : 				cDamage = TRUE;

  072e5	c7 45 b8 01 00
	00 00		 mov	 DWORD PTR _cDamage$240890[ebp], 1

; 3666 : 				effect = 2;

  072ec	8b 45 10	 mov	 eax, DWORD PTR _effect$[ebp]
  072ef	c6 00 02	 mov	 BYTE PTR [eax], 2
$LN75@GetAttackD:

; 3667 : 			}
; 3668 : 		}
; 3669 : 
; 3670 : 		int iValue1 = 0; //season4 add-on

  072f2	c7 45 9c 00 00
	00 00		 mov	 DWORD PTR _iValue1$240931[ebp], 0

; 3671 : 		int iValue2 = 0; //season4 add-on

  072f9	c7 45 98 00 00
	00 00		 mov	 DWORD PTR _iValue2$240932[ebp], 0

; 3672 : 
; 3673 : 		if(gObjSearchActiveEffect(lpObj, AT_BERSERKER) == 1) //season4 add-on

  07300	6a 51		 push	 81			; 00000051H
  07302	8b 45 08	 mov	 eax, DWORD PTR _lpObj$[ebp]
  07305	50		 push	 eax
  07306	e8 00 00 00 00	 call	 ?gObjSearchActiveEffect@@YAEPAUOBJECTSTRUCT@@H@Z ; gObjSearchActiveEffect
  0730b	83 c4 08	 add	 esp, 8
  0730e	0f b6 c8	 movzx	 ecx, al
  07311	83 f9 01	 cmp	 ecx, 1
  07314	75 14		 jne	 SHORT $LN74@GetAttackD

; 3674 : 		{
; 3675 : 			this->GetBerserkerSkillAttackDamage(lpObj, iValue1, iValue2); 

  07316	8d 45 98	 lea	 eax, DWORD PTR _iValue2$240932[ebp]
  07319	50		 push	 eax
  0731a	8d 4d 9c	 lea	 ecx, DWORD PTR _iValue1$240931[ebp]
  0731d	51		 push	 ecx
  0731e	8b 55 08	 mov	 edx, DWORD PTR _lpObj$[ebp]
  07321	52		 push	 edx
  07322	8b 4d e4	 mov	 ecx, DWORD PTR _this$[ebp]
  07325	e8 00 00 00 00	 call	 ?GetBerserkerSkillAttackDamage@CObjAttack@@QAEEPAUOBJECTSTRUCT@@AAH1@Z ; CObjAttack::GetBerserkerSkillAttackDamage
$LN74@GetAttackD:

; 3676 : 		}
; 3677 : 
; 3678 : 		__try

  0732a	9b		 fwait
  0732b	c7 45 fc 00 00
	00 00		 mov	 DWORD PTR __$SEHRec$[ebp+20], 0

; 3679 : 		{
; 3680 : 			sub = ( lpObj->m_AttackDamageMaxRight + SkillRightMaxDamage + iValue2) - ( lpObj->m_AttackDamageMinRight + SkillRightMinDamage + iValue1); //season4 changed

  07332	8b 45 08	 mov	 eax, DWORD PTR _lpObj$[ebp]
  07335	8b 88 80 04 00
	00		 mov	 ecx, DWORD PTR [eax+1152]
  0733b	03 4d d8	 add	 ecx, DWORD PTR _SkillRightMaxDamage$[ebp]
  0733e	03 4d 98	 add	 ecx, DWORD PTR _iValue2$240932[ebp]
  07341	8b 55 08	 mov	 edx, DWORD PTR _lpObj$[ebp]
  07344	8b 82 84 04 00
	00		 mov	 eax, DWORD PTR [edx+1156]
  0734a	03 45 d4	 add	 eax, DWORD PTR _SkillRightMinDamage$[ebp]
  0734d	03 45 9c	 add	 eax, DWORD PTR _iValue1$240931[ebp]
  07350	2b c8		 sub	 ecx, eax
  07352	89 4d dc	 mov	 DWORD PTR _sub$[ebp], ecx

; 3681 : 			lpObj->m_AttackDamageRight = ( lpObj->m_AttackDamageMinRight + SkillRightMinDamage + iValue1) + (rand()%(sub+1)); //season4 changed

  07355	8b 45 08	 mov	 eax, DWORD PTR _lpObj$[ebp]
  07358	8b b0 84 04 00
	00		 mov	 esi, DWORD PTR [eax+1156]
  0735e	03 75 d4	 add	 esi, DWORD PTR _SkillRightMinDamage$[ebp]
  07361	03 75 9c	 add	 esi, DWORD PTR _iValue1$240931[ebp]
  07364	e8 00 00 00 00	 call	 _rand
  07369	8b 4d dc	 mov	 ecx, DWORD PTR _sub$[ebp]
  0736c	83 c1 01	 add	 ecx, 1
  0736f	99		 cdq
  07370	f7 f9		 idiv	 ecx
  07372	03 f2		 add	 esi, edx
  07374	8b 55 08	 mov	 edx, DWORD PTR _lpObj$[ebp]
  07377	89 b2 74 04 00
	00		 mov	 DWORD PTR [edx+1140], esi

; 3682 : 		}

  0737d	9b		 fwait
  0737e	c7 45 fc fe ff
	ff ff		 mov	 DWORD PTR __$SEHRec$[ebp+20], -2 ; fffffffeH
  07385	eb 17		 jmp	 SHORT $LN112@GetAttackD
$LN109@GetAttackD:
$LN123@GetAttackD:

; 3683 : 		__except ( sub=1, 1 )

  07387	c7 45 dc 01 00
	00 00		 mov	 DWORD PTR _sub$[ebp], 1
  0738e	b8 01 00 00 00	 mov	 eax, 1
$LN111@GetAttackD:
$LN119@GetAttackD:
  07393	c3		 ret	 0
$LN110@GetAttackD:
  07394	8b 65 e8	 mov	 esp, DWORD PTR __$SEHRec$[ebp]

; 3684 : 		{
; 3685 : 
; 3686 : 		}

  07397	c7 45 fc fe ff
	ff ff		 mov	 DWORD PTR __$SEHRec$[ebp+20], -2 ; fffffffeH
$LN112@GetAttackD:

; 3687 : 
; 3688 : 		__try

  0739e	9b		 fwait
  0739f	c7 45 fc 01 00
	00 00		 mov	 DWORD PTR __$SEHRec$[ebp+20], 1

; 3689 : 		{
; 3690 : 			sub = ( lpObj->m_AttackDamageMaxLeft + SkillLeftMaxDamage + iValue2) - ( lpObj->m_AttackDamageMinLeft + SkillLeftMinDamage + iValue1); //season4 changed

  073a6	8b 45 08	 mov	 eax, DWORD PTR _lpObj$[ebp]
  073a9	8b 88 78 04 00
	00		 mov	 ecx, DWORD PTR [eax+1144]
  073af	03 4d d0	 add	 ecx, DWORD PTR _SkillLeftMaxDamage$[ebp]
  073b2	03 4d 98	 add	 ecx, DWORD PTR _iValue2$240932[ebp]
  073b5	8b 55 08	 mov	 edx, DWORD PTR _lpObj$[ebp]
  073b8	8b 82 7c 04 00
	00		 mov	 eax, DWORD PTR [edx+1148]
  073be	03 45 cc	 add	 eax, DWORD PTR _SkillLeftMinDamage$[ebp]
  073c1	03 45 9c	 add	 eax, DWORD PTR _iValue1$240931[ebp]
  073c4	2b c8		 sub	 ecx, eax
  073c6	89 4d dc	 mov	 DWORD PTR _sub$[ebp], ecx

; 3691 : 			lpObj->m_AttackDamageLeft = ( lpObj->m_AttackDamageMinLeft + SkillLeftMinDamage + iValue1) + (rand()%(sub+1)); //season4 changed

  073c9	8b 45 08	 mov	 eax, DWORD PTR _lpObj$[ebp]
  073cc	8b b0 7c 04 00
	00		 mov	 esi, DWORD PTR [eax+1148]
  073d2	03 75 cc	 add	 esi, DWORD PTR _SkillLeftMinDamage$[ebp]
  073d5	03 75 9c	 add	 esi, DWORD PTR _iValue1$240931[ebp]
  073d8	e8 00 00 00 00	 call	 _rand
  073dd	8b 4d dc	 mov	 ecx, DWORD PTR _sub$[ebp]
  073e0	83 c1 01	 add	 ecx, 1
  073e3	99		 cdq
  073e4	f7 f9		 idiv	 ecx
  073e6	03 f2		 add	 esi, edx
  073e8	8b 55 08	 mov	 edx, DWORD PTR _lpObj$[ebp]
  073eb	89 b2 70 04 00
	00		 mov	 DWORD PTR [edx+1136], esi

; 3692 : 		}

  073f1	9b		 fwait
  073f2	c7 45 fc fe ff
	ff ff		 mov	 DWORD PTR __$SEHRec$[ebp+20], -2 ; fffffffeH
  073f9	eb 17		 jmp	 SHORT $LN116@GetAttackD
$LN113@GetAttackD:
$LN124@GetAttackD:

; 3693 : 		__except ( sub=1, 1 )

  073fb	c7 45 dc 01 00
	00 00		 mov	 DWORD PTR _sub$[ebp], 1
  07402	b8 01 00 00 00	 mov	 eax, 1
$LN115@GetAttackD:
$LN120@GetAttackD:
  07407	c3		 ret	 0
$LN114@GetAttackD:
  07408	8b 65 e8	 mov	 esp, DWORD PTR __$SEHRec$[ebp]

; 3694 : 		{
; 3695 : 
; 3696 : 		}

  0740b	c7 45 fc fe ff
	ff ff		 mov	 DWORD PTR __$SEHRec$[ebp+20], -2 ; fffffffeH
$LN116@GetAttackD:

; 3697 : 
; 3698 : 		if ( cDamage )

  07412	83 7d b8 00	 cmp	 DWORD PTR _cDamage$240890[ebp], 0
  07416	0f 84 7e 01 00
	00		 je	 $LN70@GetAttackD

; 3699 : 		{
; 3700 : 			lpObj->m_AttackDamageRight = lpObj->m_AttackDamageMaxRight + SkillRightMaxDamage + iValue2; //season4 changed

  0741c	8b 45 08	 mov	 eax, DWORD PTR _lpObj$[ebp]
  0741f	8b 88 80 04 00
	00		 mov	 ecx, DWORD PTR [eax+1152]
  07425	03 4d d8	 add	 ecx, DWORD PTR _SkillRightMaxDamage$[ebp]
  07428	03 4d 98	 add	 ecx, DWORD PTR _iValue2$240932[ebp]
  0742b	8b 55 08	 mov	 edx, DWORD PTR _lpObj$[ebp]
  0742e	89 8a 74 04 00
	00		 mov	 DWORD PTR [edx+1140], ecx

; 3701 : 			lpObj->m_AttackDamageLeft = lpObj->m_AttackDamageMaxLeft + SkillLeftMaxDamage + iValue2; //season4 changed

  07434	8b 45 08	 mov	 eax, DWORD PTR _lpObj$[ebp]
  07437	8b 88 78 04 00
	00		 mov	 ecx, DWORD PTR [eax+1144]
  0743d	03 4d d0	 add	 ecx, DWORD PTR _SkillLeftMaxDamage$[ebp]
  07440	03 4d 98	 add	 ecx, DWORD PTR _iValue2$240932[ebp]
  07443	8b 55 08	 mov	 edx, DWORD PTR _lpObj$[ebp]
  07446	89 8a 70 04 00
	00		 mov	 DWORD PTR [edx+1136], ecx

; 3702 : 
; 3703 : 			lpObj->m_AttackDamageRight += lpObj->SetOpAddCriticalDamage;

  0744c	8b 45 08	 mov	 eax, DWORD PTR _lpObj$[ebp]
  0744f	0f bf 88 2a 11
	00 00		 movsx	 ecx, WORD PTR [eax+4394]
  07456	8b 55 08	 mov	 edx, DWORD PTR _lpObj$[ebp]
  07459	03 8a 74 04 00
	00		 add	 ecx, DWORD PTR [edx+1140]
  0745f	8b 45 08	 mov	 eax, DWORD PTR _lpObj$[ebp]
  07462	89 88 74 04 00
	00		 mov	 DWORD PTR [eax+1140], ecx

; 3704 : 			lpObj->m_AttackDamageLeft += lpObj->SetOpAddCriticalDamage;

  07468	8b 45 08	 mov	 eax, DWORD PTR _lpObj$[ebp]
  0746b	0f bf 88 2a 11
	00 00		 movsx	 ecx, WORD PTR [eax+4394]
  07472	8b 55 08	 mov	 edx, DWORD PTR _lpObj$[ebp]
  07475	03 8a 70 04 00
	00		 add	 ecx, DWORD PTR [edx+1136]
  0747b	8b 45 08	 mov	 eax, DWORD PTR _lpObj$[ebp]
  0747e	89 88 70 04 00
	00		 mov	 DWORD PTR [eax+1136], ecx

; 3705 : 
; 3706 : 			lpObj->m_AttackDamageRight += lpObj->m_JewelOfHarmonyEffect.HJOpAddCriticalDamage;

  07484	8b 45 08	 mov	 eax, DWORD PTR _lpObj$[ebp]
  07487	0f bf 88 e2 1f
	00 00		 movsx	 ecx, WORD PTR [eax+8162]
  0748e	8b 55 08	 mov	 edx, DWORD PTR _lpObj$[ebp]
  07491	03 8a 74 04 00
	00		 add	 ecx, DWORD PTR [edx+1140]
  07497	8b 45 08	 mov	 eax, DWORD PTR _lpObj$[ebp]
  0749a	89 88 74 04 00
	00		 mov	 DWORD PTR [eax+1140], ecx

; 3707 : 			lpObj->m_AttackDamageLeft += lpObj->m_JewelOfHarmonyEffect.HJOpAddCriticalDamage;

  074a0	8b 45 08	 mov	 eax, DWORD PTR _lpObj$[ebp]
  074a3	0f bf 88 e2 1f
	00 00		 movsx	 ecx, WORD PTR [eax+8162]
  074aa	8b 55 08	 mov	 edx, DWORD PTR _lpObj$[ebp]
  074ad	03 8a 70 04 00
	00		 add	 ecx, DWORD PTR [edx+1136]
  074b3	8b 45 08	 mov	 eax, DWORD PTR _lpObj$[ebp]
  074b6	89 88 70 04 00
	00		 mov	 DWORD PTR [eax+1136], ecx

; 3708 : 
; 3709 : 			int SkillAddCriticalDamage = 0;

  074bc	c7 45 94 00 00
	00 00		 mov	 DWORD PTR _SkillAddCriticalDamage$240937[ebp], 0

; 3710 : 			gObjUpdateAppliedBuffEffect(lpObj, AT_INCREASE_CRITICAL_DMG, &SkillAddCriticalDamage, 0);

  074c3	6a 00		 push	 0
  074c5	8d 45 94	 lea	 eax, DWORD PTR _SkillAddCriticalDamage$240937[ebp]
  074c8	50		 push	 eax
  074c9	6a 05		 push	 5
  074cb	8b 4d 08	 mov	 ecx, DWORD PTR _lpObj$[ebp]
  074ce	51		 push	 ecx
  074cf	e8 00 00 00 00	 call	 ?gObjUpdateAppliedBuffEffect@@YAEPAUOBJECTSTRUCT@@HPAH1@Z ; gObjUpdateAppliedBuffEffect
  074d4	83 c4 10	 add	 esp, 16			; 00000010H

; 3711 : 
; 3712 : 			lpObj->m_AttackDamageRight += SkillAddCriticalDamage;

  074d7	8b 45 08	 mov	 eax, DWORD PTR _lpObj$[ebp]
  074da	8b 88 74 04 00
	00		 mov	 ecx, DWORD PTR [eax+1140]
  074e0	03 4d 94	 add	 ecx, DWORD PTR _SkillAddCriticalDamage$240937[ebp]
  074e3	8b 55 08	 mov	 edx, DWORD PTR _lpObj$[ebp]
  074e6	89 8a 74 04 00
	00		 mov	 DWORD PTR [edx+1140], ecx

; 3713 : 			lpObj->m_AttackDamageLeft += SkillAddCriticalDamage;

  074ec	8b 45 08	 mov	 eax, DWORD PTR _lpObj$[ebp]
  074ef	8b 88 70 04 00
	00		 mov	 ecx, DWORD PTR [eax+1136]
  074f5	03 4d 94	 add	 ecx, DWORD PTR _SkillAddCriticalDamage$240937[ebp]
  074f8	8b 55 08	 mov	 edx, DWORD PTR _lpObj$[ebp]
  074fb	89 8a 70 04 00
	00		 mov	 DWORD PTR [edx+1136], ecx

; 3714 : 
; 3715 : 			if ( effect == 2 )

  07501	8b 45 10	 mov	 eax, DWORD PTR _effect$[ebp]
  07504	0f b6 08	 movzx	 ecx, BYTE PTR [eax]
  07507	83 f9 02	 cmp	 ecx, 2
  0750a	0f 85 8a 00 00
	00		 jne	 $LN70@GetAttackD

; 3716 : 			{
; 3717 : 				lpObj->m_AttackDamageRight += ( lpObj->m_AttackDamageMaxRight + SkillRightMaxDamage ) * 20 / 100;

  07510	8b 45 08	 mov	 eax, DWORD PTR _lpObj$[ebp]
  07513	8b 80 80 04 00
	00		 mov	 eax, DWORD PTR [eax+1152]
  07519	03 45 d8	 add	 eax, DWORD PTR _SkillRightMaxDamage$[ebp]
  0751c	6b c0 14	 imul	 eax, 20			; 00000014H
  0751f	99		 cdq
  07520	b9 64 00 00 00	 mov	 ecx, 100		; 00000064H
  07525	f7 f9		 idiv	 ecx
  07527	8b 55 08	 mov	 edx, DWORD PTR _lpObj$[ebp]
  0752a	03 82 74 04 00
	00		 add	 eax, DWORD PTR [edx+1140]
  07530	8b 4d 08	 mov	 ecx, DWORD PTR _lpObj$[ebp]
  07533	89 81 74 04 00
	00		 mov	 DWORD PTR [ecx+1140], eax

; 3718 : 				lpObj->m_AttackDamageLeft += ( lpObj->m_AttackDamageMaxLeft + SkillLeftMaxDamage ) * 20 / 100;

  07539	8b 45 08	 mov	 eax, DWORD PTR _lpObj$[ebp]
  0753c	8b 80 78 04 00
	00		 mov	 eax, DWORD PTR [eax+1144]
  07542	03 45 d0	 add	 eax, DWORD PTR _SkillLeftMaxDamage$[ebp]
  07545	6b c0 14	 imul	 eax, 20			; 00000014H
  07548	99		 cdq
  07549	b9 64 00 00 00	 mov	 ecx, 100		; 00000064H
  0754e	f7 f9		 idiv	 ecx
  07550	8b 55 08	 mov	 edx, DWORD PTR _lpObj$[ebp]
  07553	03 82 70 04 00
	00		 add	 eax, DWORD PTR [edx+1136]
  07559	8b 4d 08	 mov	 ecx, DWORD PTR _lpObj$[ebp]
  0755c	89 81 70 04 00
	00		 mov	 DWORD PTR [ecx+1136], eax

; 3719 : 
; 3720 : 				lpObj->m_AttackDamageRight += lpObj->SetOpAddExDamage;

  07562	8b 45 08	 mov	 eax, DWORD PTR _lpObj$[ebp]
  07565	0f bf 88 26 11
	00 00		 movsx	 ecx, WORD PTR [eax+4390]
  0756c	8b 55 08	 mov	 edx, DWORD PTR _lpObj$[ebp]
  0756f	03 8a 74 04 00
	00		 add	 ecx, DWORD PTR [edx+1140]
  07575	8b 45 08	 mov	 eax, DWORD PTR _lpObj$[ebp]
  07578	89 88 74 04 00
	00		 mov	 DWORD PTR [eax+1140], ecx

; 3721 : 				lpObj->m_AttackDamageLeft += lpObj->SetOpAddExDamage;

  0757e	8b 45 08	 mov	 eax, DWORD PTR _lpObj$[ebp]
  07581	0f bf 88 26 11
	00 00		 movsx	 ecx, WORD PTR [eax+4390]
  07588	8b 55 08	 mov	 edx, DWORD PTR _lpObj$[ebp]
  0758b	03 8a 70 04 00
	00		 add	 ecx, DWORD PTR [edx+1136]
  07591	8b 45 08	 mov	 eax, DWORD PTR _lpObj$[ebp]
  07594	89 88 70 04 00
	00		 mov	 DWORD PTR [eax+1136], ecx
$LN70@GetAttackD:

; 3722 : 			}
; 3723 : 		}
; 3724 : 	}
; 3725 : 
; 3726 : 	if ( bTwoHandWeapon )

  0759a	83 7d c0 00	 cmp	 DWORD PTR _bTwoHandWeapon$[ebp], 0
  0759e	74 5a		 je	 SHORT $LN69@GetAttackD

; 3727 : 	{
; 3728 : 		if ( bIsOnDuel )

  075a0	83 7d 14 00	 cmp	 DWORD PTR _bIsOnDuel$[ebp], 0
  075a4	74 25		 je	 SHORT $LN68@GetAttackD

; 3729 : 		{
; 3730 : 			ad = ( lpObj->m_AttackDamageRight + lpObj->m_AttackDamageLeft ) * 60 / 100 - targetDefense;

  075a6	8b 45 08	 mov	 eax, DWORD PTR _lpObj$[ebp]
  075a9	8b 80 74 04 00
	00		 mov	 eax, DWORD PTR [eax+1140]
  075af	8b 4d 08	 mov	 ecx, DWORD PTR _lpObj$[ebp]
  075b2	03 81 70 04 00
	00		 add	 eax, DWORD PTR [ecx+1136]
  075b8	6b c0 3c	 imul	 eax, 60			; 0000003cH
  075bb	99		 cdq
  075bc	b9 64 00 00 00	 mov	 ecx, 100		; 00000064H
  075c1	f7 f9		 idiv	 ecx
  075c3	2b 45 0c	 sub	 eax, DWORD PTR _targetDefense$[ebp]
  075c6	89 45 e0	 mov	 DWORD PTR _ad$[ebp], eax

; 3731 : 		}
; 3732 : 		else

  075c9	eb 18		 jmp	 SHORT $LN67@GetAttackD
$LN68@GetAttackD:

; 3733 : 		{
; 3734 : 			ad = ( lpObj->m_AttackDamageRight + lpObj->m_AttackDamageLeft ) - targetDefense;

  075cb	8b 45 08	 mov	 eax, DWORD PTR _lpObj$[ebp]
  075ce	8b 88 74 04 00
	00		 mov	 ecx, DWORD PTR [eax+1140]
  075d4	8b 55 08	 mov	 edx, DWORD PTR _lpObj$[ebp]
  075d7	03 8a 70 04 00
	00		 add	 ecx, DWORD PTR [edx+1136]
  075dd	2b 4d 0c	 sub	 ecx, DWORD PTR _targetDefense$[ebp]
  075e0	89 4d e0	 mov	 DWORD PTR _ad$[ebp], ecx
$LN67@GetAttackD:

; 3735 : 		}
; 3736 : 		ad -= lpObj->SetOpAddCriticalDamage; //season4 add-on

  075e3	8b 45 08	 mov	 eax, DWORD PTR _lpObj$[ebp]
  075e6	0f bf 88 2a 11
	00 00		 movsx	 ecx, WORD PTR [eax+4394]
  075ed	8b 55 e0	 mov	 edx, DWORD PTR _ad$[ebp]
  075f0	2b d1		 sub	 edx, ecx
  075f2	89 55 e0	 mov	 DWORD PTR _ad$[ebp], edx

; 3737 : 	}
; 3738 : 	else if ( (Left->m_Type >= ITEMGET(4, 0) && Left->m_Type < ITEMGET(4, 7)) ||

  075f5	e9 52 02 00 00	 jmp	 $LN41@GetAttackD
$LN69@GetAttackD:

; 3739 : 			 Left->m_Type == ITEMGET(4,20) || Left->m_Type == ITEMGET(4,21)  ||
; 3740 : 			 Left->m_Type == ITEMGET(4,22) ||
; 3741 : 			 Left->m_Type == ITEMGET(4,23)) //season4 add-on

  075fa	8b 45 c4	 mov	 eax, DWORD PTR _Left$[ebp]
  075fd	0f bf 48 06	 movsx	 ecx, WORD PTR [eax+6]
  07601	81 f9 00 08 00
	00		 cmp	 ecx, 2048		; 00000800H
  07607	7c 0f		 jl	 SHORT $LN63@GetAttackD
  07609	8b 45 c4	 mov	 eax, DWORD PTR _Left$[ebp]
  0760c	0f bf 48 06	 movsx	 ecx, WORD PTR [eax+6]
  07610	81 f9 07 08 00
	00		 cmp	 ecx, 2055		; 00000807H
  07616	7c 3c		 jl	 SHORT $LN64@GetAttackD
$LN63@GetAttackD:
  07618	8b 45 c4	 mov	 eax, DWORD PTR _Left$[ebp]
  0761b	0f bf 48 06	 movsx	 ecx, WORD PTR [eax+6]
  0761f	81 f9 14 08 00
	00		 cmp	 ecx, 2068		; 00000814H
  07625	74 2d		 je	 SHORT $LN64@GetAttackD
  07627	8b 45 c4	 mov	 eax, DWORD PTR _Left$[ebp]
  0762a	0f bf 48 06	 movsx	 ecx, WORD PTR [eax+6]
  0762e	81 f9 15 08 00
	00		 cmp	 ecx, 2069		; 00000815H
  07634	74 1e		 je	 SHORT $LN64@GetAttackD
  07636	8b 45 c4	 mov	 eax, DWORD PTR _Left$[ebp]
  07639	0f bf 48 06	 movsx	 ecx, WORD PTR [eax+6]
  0763d	81 f9 16 08 00
	00		 cmp	 ecx, 2070		; 00000816H
  07643	74 0f		 je	 SHORT $LN64@GetAttackD
  07645	8b 45 c4	 mov	 eax, DWORD PTR _Left$[ebp]
  07648	0f bf 48 06	 movsx	 ecx, WORD PTR [eax+6]
  0764c	81 f9 17 08 00
	00		 cmp	 ecx, 2071		; 00000817H
  07652	75 60		 jne	 SHORT $LN65@GetAttackD
$LN64@GetAttackD:

; 3742 : 	{
; 3743 : 		if ( bIsOnDuel )

  07654	83 7d 14 00	 cmp	 DWORD PTR _bIsOnDuel$[ebp], 0
  07658	74 1c		 je	 SHORT $LN62@GetAttackD

; 3744 : 		{
; 3745 : 			ad = ( lpObj->m_AttackDamageLeft ) * 60 / 100 - targetDefense;

  0765a	8b 45 08	 mov	 eax, DWORD PTR _lpObj$[ebp]
  0765d	8b 80 70 04 00
	00		 mov	 eax, DWORD PTR [eax+1136]
  07663	6b c0 3c	 imul	 eax, 60			; 0000003cH
  07666	99		 cdq
  07667	b9 64 00 00 00	 mov	 ecx, 100		; 00000064H
  0766c	f7 f9		 idiv	 ecx
  0766e	2b 45 0c	 sub	 eax, DWORD PTR _targetDefense$[ebp]
  07671	89 45 e0	 mov	 DWORD PTR _ad$[ebp], eax

; 3746 : 		}
; 3747 : 		else

  07674	eb 0f		 jmp	 SHORT $LN61@GetAttackD
$LN62@GetAttackD:

; 3748 : 		{
; 3749 : 			ad = lpObj->m_AttackDamageLeft - targetDefense;

  07676	8b 45 08	 mov	 eax, DWORD PTR _lpObj$[ebp]
  07679	8b 88 70 04 00
	00		 mov	 ecx, DWORD PTR [eax+1136]
  0767f	2b 4d 0c	 sub	 ecx, DWORD PTR _targetDefense$[ebp]
  07682	89 4d e0	 mov	 DWORD PTR _ad$[ebp], ecx
$LN61@GetAttackD:

; 3750 : 		}
; 3751 : 
; 3752 : 		if( lpObj->m_MPSkillOpt.MpsBowStrength > 0.0f )

  07685	8b 45 08	 mov	 eax, DWORD PTR _lpObj$[ebp]
  07688	d9 80 ac 26 00
	00		 fld	 DWORD PTR [eax+9900]
  0768e	dc 1d 00 00 00
	00		 fcomp	 QWORD PTR __real@0000000000000000
  07694	df e0		 fnstsw	 ax
  07696	f6 c4 41	 test	 ah, 65			; 00000041H
  07699	75 14		 jne	 SHORT $LN60@GetAttackD

; 3753 : 		{
; 3754 : 			ad += lpObj->m_MPSkillOpt.MpsBowStrength;

  0769b	db 45 e0	 fild	 DWORD PTR _ad$[ebp]
  0769e	8b 45 08	 mov	 eax, DWORD PTR _lpObj$[ebp]
  076a1	d8 80 ac 26 00
	00		 fadd	 DWORD PTR [eax+9900]
  076a7	e8 00 00 00 00	 call	 __ftol2_sse
  076ac	89 45 e0	 mov	 DWORD PTR _ad$[ebp], eax
$LN60@GetAttackD:

; 3755 : 		}
; 3756 : 
; 3757 : 	}
; 3758 : 	else if ( (Right->m_Type >= ITEMGET(4, 8) && Right->m_Type < ITEMGET(4, 15)) ||

  076af	e9 98 01 00 00	 jmp	 $LN41@GetAttackD
$LN65@GetAttackD:

; 3759 : 			  ( Right->m_Type >= ITEMGET(4,16) && Right->m_Type < ITEMGET(5,0) )  )

  076b4	8b 45 c8	 mov	 eax, DWORD PTR _Right$[ebp]
  076b7	0f bf 48 06	 movsx	 ecx, WORD PTR [eax+6]
  076bb	81 f9 08 08 00
	00		 cmp	 ecx, 2056		; 00000808H
  076c1	7c 0f		 jl	 SHORT $LN56@GetAttackD
  076c3	8b 45 c8	 mov	 eax, DWORD PTR _Right$[ebp]
  076c6	0f bf 48 06	 movsx	 ecx, WORD PTR [eax+6]
  076ca	81 f9 0f 08 00
	00		 cmp	 ecx, 2063		; 0000080fH
  076d0	7c 1e		 jl	 SHORT $LN57@GetAttackD
$LN56@GetAttackD:
  076d2	8b 45 c8	 mov	 eax, DWORD PTR _Right$[ebp]
  076d5	0f bf 48 06	 movsx	 ecx, WORD PTR [eax+6]
  076d9	81 f9 10 08 00
	00		 cmp	 ecx, 2064		; 00000810H
  076df	7c 6f		 jl	 SHORT $LN58@GetAttackD
  076e1	8b 45 c8	 mov	 eax, DWORD PTR _Right$[ebp]
  076e4	0f bf 48 06	 movsx	 ecx, WORD PTR [eax+6]
  076e8	81 f9 00 0a 00
	00		 cmp	 ecx, 2560		; 00000a00H
  076ee	7d 60		 jge	 SHORT $LN58@GetAttackD
$LN57@GetAttackD:

; 3760 : 	{
; 3761 : 		if ( bIsOnDuel )

  076f0	83 7d 14 00	 cmp	 DWORD PTR _bIsOnDuel$[ebp], 0
  076f4	74 1c		 je	 SHORT $LN55@GetAttackD

; 3762 : 		{
; 3763 : 			ad = ( lpObj->m_AttackDamageRight ) * 60 / 100 - targetDefense;

  076f6	8b 45 08	 mov	 eax, DWORD PTR _lpObj$[ebp]
  076f9	8b 80 74 04 00
	00		 mov	 eax, DWORD PTR [eax+1140]
  076ff	6b c0 3c	 imul	 eax, 60			; 0000003cH
  07702	99		 cdq
  07703	b9 64 00 00 00	 mov	 ecx, 100		; 00000064H
  07708	f7 f9		 idiv	 ecx
  0770a	2b 45 0c	 sub	 eax, DWORD PTR _targetDefense$[ebp]
  0770d	89 45 e0	 mov	 DWORD PTR _ad$[ebp], eax

; 3764 : 		}
; 3765 : 		else

  07710	eb 0f		 jmp	 SHORT $LN54@GetAttackD
$LN55@GetAttackD:

; 3766 : 		{
; 3767 : 			ad = lpObj->m_AttackDamageRight - targetDefense;

  07712	8b 45 08	 mov	 eax, DWORD PTR _lpObj$[ebp]
  07715	8b 88 74 04 00
	00		 mov	 ecx, DWORD PTR [eax+1140]
  0771b	2b 4d 0c	 sub	 ecx, DWORD PTR _targetDefense$[ebp]
  0771e	89 4d e0	 mov	 DWORD PTR _ad$[ebp], ecx
$LN54@GetAttackD:

; 3768 : 		}
; 3769 : 
; 3770 : 		if( lpObj->m_MPSkillOpt.MpsCrossbowStrength > 0.0f )

  07721	8b 45 08	 mov	 eax, DWORD PTR _lpObj$[ebp]
  07724	d9 80 b4 26 00
	00		 fld	 DWORD PTR [eax+9908]
  0772a	dc 1d 00 00 00
	00		 fcomp	 QWORD PTR __real@0000000000000000
  07730	df e0		 fnstsw	 ax
  07732	f6 c4 41	 test	 ah, 65			; 00000041H
  07735	75 14		 jne	 SHORT $LN53@GetAttackD

; 3771 : 		{
; 3772 : 			ad += lpObj->m_MPSkillOpt.MpsCrossbowStrength;

  07737	db 45 e0	 fild	 DWORD PTR _ad$[ebp]
  0773a	8b 45 08	 mov	 eax, DWORD PTR _lpObj$[ebp]
  0773d	d8 80 b4 26 00
	00		 fadd	 DWORD PTR [eax+9908]
  07743	e8 00 00 00 00	 call	 __ftol2_sse
  07748	89 45 e0	 mov	 DWORD PTR _ad$[ebp], eax
$LN53@GetAttackD:

; 3773 : 		}
; 3774 : 
; 3775 : 	}

  0774b	e9 fc 00 00 00	 jmp	 $LN41@GetAttackD
$LN58@GetAttackD:

; 3776 : 	else if ( Right->m_Type >= ITEMGET(0,0) && Right->m_Type < ITEMGET(4,0) )

  07750	8b 45 c8	 mov	 eax, DWORD PTR _Right$[ebp]
  07753	0f bf 48 06	 movsx	 ecx, WORD PTR [eax+6]
  07757	85 c9		 test	 ecx, ecx
  07759	7c 6f		 jl	 SHORT $LN51@GetAttackD
  0775b	8b 45 c8	 mov	 eax, DWORD PTR _Right$[ebp]
  0775e	0f bf 48 06	 movsx	 ecx, WORD PTR [eax+6]
  07762	81 f9 00 08 00
	00		 cmp	 ecx, 2048		; 00000800H
  07768	7d 60		 jge	 SHORT $LN51@GetAttackD

; 3777 : 	{
; 3778 : 		if ( bIsOnDuel )

  0776a	83 7d 14 00	 cmp	 DWORD PTR _bIsOnDuel$[ebp], 0
  0776e	74 1c		 je	 SHORT $LN50@GetAttackD

; 3779 : 		{
; 3780 : 			ad = ( lpObj->m_AttackDamageRight ) * 60 / 100 - targetDefense;

  07770	8b 45 08	 mov	 eax, DWORD PTR _lpObj$[ebp]
  07773	8b 80 74 04 00
	00		 mov	 eax, DWORD PTR [eax+1140]
  07779	6b c0 3c	 imul	 eax, 60			; 0000003cH
  0777c	99		 cdq
  0777d	b9 64 00 00 00	 mov	 ecx, 100		; 00000064H
  07782	f7 f9		 idiv	 ecx
  07784	2b 45 0c	 sub	 eax, DWORD PTR _targetDefense$[ebp]
  07787	89 45 e0	 mov	 DWORD PTR _ad$[ebp], eax

; 3781 : 		}
; 3782 : 		else

  0778a	eb 0f		 jmp	 SHORT $LN49@GetAttackD
$LN50@GetAttackD:

; 3783 : 		{
; 3784 : 			ad = lpObj->m_AttackDamageRight - targetDefense;

  0778c	8b 45 08	 mov	 eax, DWORD PTR _lpObj$[ebp]
  0778f	8b 88 74 04 00
	00		 mov	 ecx, DWORD PTR [eax+1140]
  07795	2b 4d 0c	 sub	 ecx, DWORD PTR _targetDefense$[ebp]
  07798	89 4d e0	 mov	 DWORD PTR _ad$[ebp], ecx
$LN49@GetAttackD:

; 3785 : 		}
; 3786 : 
; 3787 : 		if( lpObj->m_MPSkillOpt.MpsTwoHandSwordStrength > 0.0f )

  0779b	8b 45 08	 mov	 eax, DWORD PTR _lpObj$[ebp]
  0779e	d9 80 70 26 00
	00		 fld	 DWORD PTR [eax+9840]
  077a4	dc 1d 00 00 00
	00		 fcomp	 QWORD PTR __real@0000000000000000
  077aa	df e0		 fnstsw	 ax
  077ac	f6 c4 41	 test	 ah, 65			; 00000041H
  077af	75 14		 jne	 SHORT $LN48@GetAttackD

; 3788 : 		{
; 3789 : 			ad += lpObj->m_MPSkillOpt.MpsTwoHandSwordStrength;

  077b1	db 45 e0	 fild	 DWORD PTR _ad$[ebp]
  077b4	8b 45 08	 mov	 eax, DWORD PTR _lpObj$[ebp]
  077b7	d8 80 70 26 00
	00		 fadd	 DWORD PTR [eax+9840]
  077bd	e8 00 00 00 00	 call	 __ftol2_sse
  077c2	89 45 e0	 mov	 DWORD PTR _ad$[ebp], eax
$LN48@GetAttackD:

; 3790 : 		}
; 3791 : 
; 3792 : 	}

  077c5	e9 82 00 00 00	 jmp	 $LN41@GetAttackD
$LN51@GetAttackD:

; 3793 : 	else if ( Right->m_Type >= ITEMGET(5,0) && Right->m_Type < ITEMGET(6,0) )

  077ca	8b 45 c8	 mov	 eax, DWORD PTR _Right$[ebp]
  077cd	0f bf 48 06	 movsx	 ecx, WORD PTR [eax+6]
  077d1	81 f9 00 0a 00
	00		 cmp	 ecx, 2560		; 00000a00H
  077d7	7c 42		 jl	 SHORT $LN46@GetAttackD
  077d9	8b 45 c8	 mov	 eax, DWORD PTR _Right$[ebp]
  077dc	0f bf 48 06	 movsx	 ecx, WORD PTR [eax+6]
  077e0	81 f9 00 0c 00
	00		 cmp	 ecx, 3072		; 00000c00H
  077e6	7d 33		 jge	 SHORT $LN46@GetAttackD

; 3794 : 	{
; 3795 : 		if ( bIsOnDuel )

  077e8	83 7d 14 00	 cmp	 DWORD PTR _bIsOnDuel$[ebp], 0
  077ec	74 1c		 je	 SHORT $LN45@GetAttackD

; 3796 : 		{
; 3797 : 			ad = ( lpObj->m_AttackDamageRight ) * 60 / 100 - targetDefense;

  077ee	8b 45 08	 mov	 eax, DWORD PTR _lpObj$[ebp]
  077f1	8b 80 74 04 00
	00		 mov	 eax, DWORD PTR [eax+1140]
  077f7	6b c0 3c	 imul	 eax, 60			; 0000003cH
  077fa	99		 cdq
  077fb	b9 64 00 00 00	 mov	 ecx, 100		; 00000064H
  07800	f7 f9		 idiv	 ecx
  07802	2b 45 0c	 sub	 eax, DWORD PTR _targetDefense$[ebp]
  07805	89 45 e0	 mov	 DWORD PTR _ad$[ebp], eax

; 3798 : 		}
; 3799 : 		else

  07808	eb 0f		 jmp	 SHORT $LN44@GetAttackD
$LN45@GetAttackD:

; 3800 : 		{
; 3801 : 			ad = lpObj->m_AttackDamageRight - targetDefense;

  0780a	8b 45 08	 mov	 eax, DWORD PTR _lpObj$[ebp]
  0780d	8b 88 74 04 00
	00		 mov	 ecx, DWORD PTR [eax+1140]
  07813	2b 4d 0c	 sub	 ecx, DWORD PTR _targetDefense$[ebp]
  07816	89 4d e0	 mov	 DWORD PTR _ad$[ebp], ecx
$LN44@GetAttackD:

; 3802 : 		}

  07819	eb 31		 jmp	 SHORT $LN41@GetAttackD
$LN46@GetAttackD:

; 3803 : 	}
; 3804 : 	else if ( bIsOnDuel )

  0781b	83 7d 14 00	 cmp	 DWORD PTR _bIsOnDuel$[ebp], 0
  0781f	74 1c		 je	 SHORT $LN42@GetAttackD

; 3805 : 	{
; 3806 : 		ad = ( lpObj->m_AttackDamageLeft ) * 60 / 100 - targetDefense;

  07821	8b 45 08	 mov	 eax, DWORD PTR _lpObj$[ebp]
  07824	8b 80 70 04 00
	00		 mov	 eax, DWORD PTR [eax+1136]
  0782a	6b c0 3c	 imul	 eax, 60			; 0000003cH
  0782d	99		 cdq
  0782e	b9 64 00 00 00	 mov	 ecx, 100		; 00000064H
  07833	f7 f9		 idiv	 ecx
  07835	2b 45 0c	 sub	 eax, DWORD PTR _targetDefense$[ebp]
  07838	89 45 e0	 mov	 DWORD PTR _ad$[ebp], eax

; 3807 : 	}
; 3808 : 	else

  0783b	eb 0f		 jmp	 SHORT $LN41@GetAttackD
$LN42@GetAttackD:

; 3809 : 	{
; 3810 : 		ad = lpObj->m_AttackDamageLeft - targetDefense;

  0783d	8b 45 08	 mov	 eax, DWORD PTR _lpObj$[ebp]
  07840	8b 88 70 04 00
	00		 mov	 ecx, DWORD PTR [eax+1136]
  07846	2b 4d 0c	 sub	 ecx, DWORD PTR _targetDefense$[ebp]
  07849	89 4d e0	 mov	 DWORD PTR _ad$[ebp], ecx
$LN41@GetAttackD:

; 3811 : 	}
; 3812 : 
; 3813 : 	if ( lpObj->SetOpTwoHandSwordImproveDamage )

  0784c	8b 45 08	 mov	 eax, DWORD PTR _lpObj$[ebp]
  0784f	0f b6 88 40 11
	00 00		 movzx	 ecx, BYTE PTR [eax+4416]
  07856	85 c9		 test	 ecx, ecx
  07858	74 1e		 je	 SHORT $LN40@GetAttackD

; 3814 : 	{
; 3815 : 		ad += ad * lpObj->SetOpTwoHandSwordImproveDamage  / 100;

  0785a	8b 45 08	 mov	 eax, DWORD PTR _lpObj$[ebp]
  0785d	0f b6 88 40 11
	00 00		 movzx	 ecx, BYTE PTR [eax+4416]
  07864	8b c1		 mov	 eax, ecx
  07866	0f af 45 e0	 imul	 eax, DWORD PTR _ad$[ebp]
  0786a	99		 cdq
  0786b	b9 64 00 00 00	 mov	 ecx, 100		; 00000064H
  07870	f7 f9		 idiv	 ecx
  07872	03 45 e0	 add	 eax, DWORD PTR _ad$[ebp]
  07875	89 45 e0	 mov	 DWORD PTR _ad$[ebp], eax
$LN40@GetAttackD:

; 3816 : 	}
; 3817 : 
; 3818 : 	int SkillAttack = 0;

  07878	c7 45 90 00 00
	00 00		 mov	 DWORD PTR _SkillAttack$[ebp], 0

; 3819 : 
; 3820 : 	SkillAttack = gObjGetActiveEffect(lpObj, ADD_OPTION_ATTACK_DAMAGE);

  0787f	6a 02		 push	 2
  07881	8b 45 08	 mov	 eax, DWORD PTR _lpObj$[ebp]
  07884	50		 push	 eax
  07885	e8 00 00 00 00	 call	 ?gObjGetActiveEffect@@YAHPAUOBJECTSTRUCT@@H@Z ; gObjGetActiveEffect
  0788a	83 c4 08	 add	 esp, 8
  0788d	89 45 90	 mov	 DWORD PTR _SkillAttack$[ebp], eax

; 3821 : 	SkillAttack += gObjGetActiveEffect(lpObj, ADD_OPTION_WRATH);

  07890	6a 0e		 push	 14			; 0000000eH
  07892	8b 45 08	 mov	 eax, DWORD PTR _lpObj$[ebp]
  07895	50		 push	 eax
  07896	e8 00 00 00 00	 call	 ?gObjGetActiveEffect@@YAHPAUOBJECTSTRUCT@@H@Z ; gObjGetActiveEffect
  0789b	83 c4 08	 add	 esp, 8
  0789e	03 45 90	 add	 eax, DWORD PTR _SkillAttack$[ebp]
  078a1	89 45 90	 mov	 DWORD PTR _SkillAttack$[ebp], eax

; 3822 : 
; 3823 : 	ad += SkillAttack;

  078a4	8b 45 e0	 mov	 eax, DWORD PTR _ad$[ebp]
  078a7	03 45 90	 add	 eax, DWORD PTR _SkillAttack$[ebp]
  078aa	89 45 e0	 mov	 DWORD PTR _ad$[ebp], eax

; 3824 : 	
; 3825 : 	if ( lpObj->m_SkillAttack )

  078ad	8b 45 08	 mov	 eax, DWORD PTR _lpObj$[ebp]
  078b0	83 b8 24 04 00
	00 00		 cmp	 DWORD PTR [eax+1060], 0
  078b7	74 09		 je	 SHORT $LN39@GetAttackD

; 3826 : 	{
; 3827 : 		ad += 15;

  078b9	8b 45 e0	 mov	 eax, DWORD PTR _ad$[ebp]
  078bc	83 c0 0f	 add	 eax, 15			; 0000000fH
  078bf	89 45 e0	 mov	 DWORD PTR _ad$[ebp], eax
$LN39@GetAttackD:

; 3828 : 	}
; 3829 : 
; 3830 : 	if ( lpObj->m_MonsterSkillElementInfo.m_iSkillElementAttackTime > 0 )

  078c2	8b 45 08	 mov	 eax, DWORD PTR _lpObj$[ebp]
  078c5	83 b8 2c 1c 00
	00 00		 cmp	 DWORD PTR [eax+7212], 0
  078cc	7e 18		 jle	 SHORT $LN37@GetAttackD

; 3831 : 	{
; 3832 : 		ad += lpObj->m_MonsterSkillElementInfo.m_iSkillElementAttack;

  078ce	8b 45 08	 mov	 eax, DWORD PTR _lpObj$[ebp]
  078d1	8b 4d e0	 mov	 ecx, DWORD PTR _ad$[ebp]
  078d4	03 88 28 1c 00
	00		 add	 ecx, DWORD PTR [eax+7208]
  078da	89 4d e0	 mov	 DWORD PTR _ad$[ebp], ecx

; 3833 : 
; 3834 : 		if ( ad < 0 )

  078dd	79 07		 jns	 SHORT $LN37@GetAttackD

; 3835 : 		{
; 3836 : 			ad = 0;

  078df	c7 45 e0 00 00
	00 00		 mov	 DWORD PTR _ad$[ebp], 0
$LN37@GetAttackD:

; 3837 : 		}
; 3838 : 	}
; 3839 : 
; 3840 : 	int SkillWeakness = 0;

  078e6	c7 45 8c 00 00
	00 00		 mov	 DWORD PTR _SkillWeakness$[ebp], 0

; 3841 : 
; 3842 : 	gObjUpdateAppliedBuffEffect(lpObj, AT_WEAKNESS, &SkillWeakness, 0);

  078ed	6a 00		 push	 0
  078ef	8d 45 8c	 lea	 eax, DWORD PTR _SkillWeakness$[ebp]
  078f2	50		 push	 eax
  078f3	6a 4c		 push	 76			; 0000004cH
  078f5	8b 4d 08	 mov	 ecx, DWORD PTR _lpObj$[ebp]
  078f8	51		 push	 ecx
  078f9	e8 00 00 00 00	 call	 ?gObjUpdateAppliedBuffEffect@@YAEPAUOBJECTSTRUCT@@HPAH1@Z ; gObjUpdateAppliedBuffEffect
  078fe	83 c4 10	 add	 esp, 16			; 00000010H

; 3843 : 
; 3844 : 	if(SkillWeakness != 0)

  07901	83 7d 8c 00	 cmp	 DWORD PTR _SkillWeakness$[ebp], 0
  07905	74 32		 je	 SHORT $LN35@GetAttackD

; 3845 : 	{
; 3846 : 		//int Ex_WeaknessPower = GetPrivateProfileInt("Summoner","WeaknessPower",30,"..\\Data\\ExData\\Skills.ini");
; 3847 : 		if(g_SkillAdditionInfo.WeaknessMaxPower > 0 && g_SkillAdditionInfo.WeaknessMaxPower < 100)

  07907	0f b7 05 20 0c
	00 00		 movzx	 eax, WORD PTR ?g_SkillAdditionInfo@@3VCSkillAdditionInfo@@A+3104
  0790e	85 c0		 test	 eax, eax
  07910	7e 27		 jle	 SHORT $LN35@GetAttackD
  07912	0f b7 05 20 0c
	00 00		 movzx	 eax, WORD PTR ?g_SkillAdditionInfo@@3VCSkillAdditionInfo@@A+3104
  07919	83 f8 64	 cmp	 eax, 100		; 00000064H
  0791c	7d 1b		 jge	 SHORT $LN35@GetAttackD

; 3848 : 		{
; 3849 : 			ad -= ( ad * g_SkillAdditionInfo.WeaknessMaxPower ) / 100;	//SkillWeakness

  0791e	0f b7 05 20 0c
	00 00		 movzx	 eax, WORD PTR ?g_SkillAdditionInfo@@3VCSkillAdditionInfo@@A+3104
  07925	0f af 45 e0	 imul	 eax, DWORD PTR _ad$[ebp]
  07929	99		 cdq
  0792a	b9 64 00 00 00	 mov	 ecx, 100		; 00000064H
  0792f	f7 f9		 idiv	 ecx
  07931	8b 55 e0	 mov	 edx, DWORD PTR _ad$[ebp]
  07934	2b d0		 sub	 edx, eax
  07936	89 55 e0	 mov	 DWORD PTR _ad$[ebp], edx
$LN35@GetAttackD:

; 3850 : 		}
; 3851 : 		
; 3852 : 	}
; 3853 : 
; 3854 : 
; 3855 : 	float nAddAttackDamageLeft	= 0;

  07939	d9 ee		 fldz
  0793b	d9 5d 88	 fstp	 DWORD PTR _nAddAttackDamageLeft$[ebp]

; 3856 : 	float nAddAttackDamageRight = 0;

  0793e	d9 ee		 fldz
  07940	d9 5d 84	 fstp	 DWORD PTR _nAddAttackDamageRight$[ebp]

; 3857 : 	switch(Left->GetDetailItemType())

  07943	8b 4d c4	 mov	 ecx, DWORD PTR _Left$[ebp]
  07946	e8 00 00 00 00	 call	 ?GetDetailItemType@CItem@@QAEHXZ ; CItem::GetDetailItemType
  0794b	89 85 3c ff ff
	ff		 mov	 DWORD PTR tv610[ebp], eax
  07951	8b 85 3c ff ff
	ff		 mov	 eax, DWORD PTR tv610[ebp]
  07957	83 e8 01	 sub	 eax, 1
  0795a	89 85 3c ff ff
	ff		 mov	 DWORD PTR tv610[ebp], eax
  07960	83 bd 3c ff ff
	ff 0b		 cmp	 DWORD PTR tv610[ebp], 11 ; 0000000bH
  07967	0f 87 d8 00 00
	00		 ja	 $LN33@GetAttackD
  0796d	8b 8d 3c ff ff
	ff		 mov	 ecx, DWORD PTR tv610[ebp]
  07973	0f b6 91 00 00
	00 00		 movzx	 edx, BYTE PTR $LN117@GetAttackD[ecx]
  0797a	ff 24 95 00 00
	00 00		 jmp	 DWORD PTR $LN121@GetAttackD[edx*4]
$LN32@GetAttackD:

; 3858 : 	{
; 3859 : 	case 1:
; 3860 : 		{
; 3861 : 			if( lpObj->m_MPSkillOpt.MpsOneHandSwordStrength > 0.0f )

  07981	8b 45 08	 mov	 eax, DWORD PTR _lpObj$[ebp]
  07984	d9 80 74 26 00
	00		 fld	 DWORD PTR [eax+9844]
  0798a	dc 1d 00 00 00
	00		 fcomp	 QWORD PTR __real@0000000000000000
  07990	df e0		 fnstsw	 ax
  07992	f6 c4 41	 test	 ah, 65			; 00000041H
  07995	75 0f		 jne	 SHORT $LN31@GetAttackD

; 3862 : 			{
; 3863 : 				nAddAttackDamageLeft += lpObj->m_MPSkillOpt.MpsOneHandSwordStrength;

  07997	d9 45 88	 fld	 DWORD PTR _nAddAttackDamageLeft$[ebp]
  0799a	8b 45 08	 mov	 eax, DWORD PTR _lpObj$[ebp]
  0799d	d8 80 74 26 00
	00		 fadd	 DWORD PTR [eax+9844]
  079a3	d9 5d 88	 fstp	 DWORD PTR _nAddAttackDamageLeft$[ebp]
$LN31@GetAttackD:

; 3864 : 			}
; 3865 : 		}
; 3866 : 		break;

  079a6	e9 9a 00 00 00	 jmp	 $LN33@GetAttackD
$LN30@GetAttackD:

; 3867 : 	case 2:
; 3868 : 		{
; 3869 : 			if( lpObj->m_MPSkillOpt.MpsMaceStrength > 0.0f )

  079ab	8b 45 08	 mov	 eax, DWORD PTR _lpObj$[ebp]
  079ae	d9 80 78 26 00
	00		 fld	 DWORD PTR [eax+9848]
  079b4	dc 1d 00 00 00
	00		 fcomp	 QWORD PTR __real@0000000000000000
  079ba	df e0		 fnstsw	 ax
  079bc	f6 c4 41	 test	 ah, 65			; 00000041H
  079bf	75 0f		 jne	 SHORT $LN29@GetAttackD

; 3870 : 			{
; 3871 : 				nAddAttackDamageLeft += lpObj->m_MPSkillOpt.MpsMaceStrength;

  079c1	d9 45 88	 fld	 DWORD PTR _nAddAttackDamageLeft$[ebp]
  079c4	8b 45 08	 mov	 eax, DWORD PTR _lpObj$[ebp]
  079c7	d8 80 78 26 00
	00		 fadd	 DWORD PTR [eax+9848]
  079cd	d9 5d 88	 fstp	 DWORD PTR _nAddAttackDamageLeft$[ebp]
$LN29@GetAttackD:

; 3872 : 			}
; 3873 : 		}
; 3874 : 		break;

  079d0	eb 73		 jmp	 SHORT $LN33@GetAttackD
$LN28@GetAttackD:

; 3875 : 	case 3:
; 3876 : 		{
; 3877 : 			if( lpObj->m_MPSkillOpt.MpsSpearStrength > 0.0f )

  079d2	8b 45 08	 mov	 eax, DWORD PTR _lpObj$[ebp]
  079d5	d9 80 7c 26 00
	00		 fld	 DWORD PTR [eax+9852]
  079db	dc 1d 00 00 00
	00		 fcomp	 QWORD PTR __real@0000000000000000
  079e1	df e0		 fnstsw	 ax
  079e3	f6 c4 41	 test	 ah, 65			; 00000041H
  079e6	75 0f		 jne	 SHORT $LN27@GetAttackD

; 3878 : 			{
; 3879 : 				nAddAttackDamageLeft += lpObj->m_MPSkillOpt.MpsSpearStrength;

  079e8	d9 45 88	 fld	 DWORD PTR _nAddAttackDamageLeft$[ebp]
  079eb	8b 45 08	 mov	 eax, DWORD PTR _lpObj$[ebp]
  079ee	d8 80 7c 26 00
	00		 fadd	 DWORD PTR [eax+9852]
  079f4	d9 5d 88	 fstp	 DWORD PTR _nAddAttackDamageLeft$[ebp]
$LN27@GetAttackD:

; 3880 : 			}
; 3881 : 		}
; 3882 : 		break;

  079f7	eb 4c		 jmp	 SHORT $LN33@GetAttackD
$LN26@GetAttackD:

; 3883 : 	case 11:
; 3884 : 		{
; 3885 : 			if( lpObj->m_MPSkillOpt.MpsScepterStrength > 0.0f )

  079f9	8b 45 08	 mov	 eax, DWORD PTR _lpObj$[ebp]
  079fc	d9 80 10 27 00
	00		 fld	 DWORD PTR [eax+10000]
  07a02	dc 1d 00 00 00
	00		 fcomp	 QWORD PTR __real@0000000000000000
  07a08	df e0		 fnstsw	 ax
  07a0a	f6 c4 41	 test	 ah, 65			; 00000041H
  07a0d	75 0f		 jne	 SHORT $LN25@GetAttackD

; 3886 : 			{
; 3887 : 				nAddAttackDamageLeft += lpObj->m_MPSkillOpt.MpsScepterStrength;

  07a0f	d9 45 88	 fld	 DWORD PTR _nAddAttackDamageLeft$[ebp]
  07a12	8b 45 08	 mov	 eax, DWORD PTR _lpObj$[ebp]
  07a15	d8 80 10 27 00
	00		 fadd	 DWORD PTR [eax+10000]
  07a1b	d9 5d 88	 fstp	 DWORD PTR _nAddAttackDamageLeft$[ebp]
$LN25@GetAttackD:

; 3888 : 			}
; 3889 : 		}
; 3890 : 		break;

  07a1e	eb 25		 jmp	 SHORT $LN33@GetAttackD
$LN24@GetAttackD:

; 3891 : 	case 12:
; 3892 : 		{
; 3893 : 			if( lpObj->m_MPSkillOpt.MpsFistStrength > 0.0f )

  07a20	8b 45 08	 mov	 eax, DWORD PTR _lpObj$[ebp]
  07a23	d9 80 94 27 00
	00		 fld	 DWORD PTR [eax+10132]
  07a29	dc 1d 00 00 00
	00		 fcomp	 QWORD PTR __real@0000000000000000
  07a2f	df e0		 fnstsw	 ax
  07a31	f6 c4 41	 test	 ah, 65			; 00000041H
  07a34	75 0f		 jne	 SHORT $LN23@GetAttackD

; 3894 : 			{
; 3895 : 				nAddAttackDamageLeft += lpObj->m_MPSkillOpt.MpsFistStrength;

  07a36	d9 45 88	 fld	 DWORD PTR _nAddAttackDamageLeft$[ebp]
  07a39	8b 45 08	 mov	 eax, DWORD PTR _lpObj$[ebp]
  07a3c	d8 80 94 27 00
	00		 fadd	 DWORD PTR [eax+10132]
  07a42	d9 5d 88	 fstp	 DWORD PTR _nAddAttackDamageLeft$[ebp]
$LN23@GetAttackD:
$LN33@GetAttackD:

; 3896 : 			}
; 3897 : 		}
; 3898 : 		break;
; 3899 : 	}
; 3900 : 
; 3901 : 	switch(Right->GetDetailItemType())

  07a45	8b 4d c8	 mov	 ecx, DWORD PTR _Right$[ebp]
  07a48	e8 00 00 00 00	 call	 ?GetDetailItemType@CItem@@QAEHXZ ; CItem::GetDetailItemType
  07a4d	89 85 3c ff ff
	ff		 mov	 DWORD PTR tv665[ebp], eax
  07a53	8b 85 3c ff ff
	ff		 mov	 eax, DWORD PTR tv665[ebp]
  07a59	83 e8 01	 sub	 eax, 1
  07a5c	89 85 3c ff ff
	ff		 mov	 DWORD PTR tv665[ebp], eax
  07a62	83 bd 3c ff ff
	ff 0b		 cmp	 DWORD PTR tv665[ebp], 11 ; 0000000bH
  07a69	0f 87 d8 00 00
	00		 ja	 $LN21@GetAttackD
  07a6f	8b 8d 3c ff ff
	ff		 mov	 ecx, DWORD PTR tv665[ebp]
  07a75	0f b6 91 00 00
	00 00		 movzx	 edx, BYTE PTR $LN118@GetAttackD[ecx]
  07a7c	ff 24 95 00 00
	00 00		 jmp	 DWORD PTR $LN122@GetAttackD[edx*4]
$LN20@GetAttackD:

; 3902 : 	{
; 3903 : 	case 1:
; 3904 : 		{
; 3905 : 			if( lpObj->m_MPSkillOpt.MpsOneHandSwordStrength > 0.0f )

  07a83	8b 45 08	 mov	 eax, DWORD PTR _lpObj$[ebp]
  07a86	d9 80 74 26 00
	00		 fld	 DWORD PTR [eax+9844]
  07a8c	dc 1d 00 00 00
	00		 fcomp	 QWORD PTR __real@0000000000000000
  07a92	df e0		 fnstsw	 ax
  07a94	f6 c4 41	 test	 ah, 65			; 00000041H
  07a97	75 0f		 jne	 SHORT $LN19@GetAttackD

; 3906 : 			{
; 3907 : 				nAddAttackDamageRight += lpObj->m_MPSkillOpt.MpsOneHandSwordStrength;

  07a99	d9 45 84	 fld	 DWORD PTR _nAddAttackDamageRight$[ebp]
  07a9c	8b 45 08	 mov	 eax, DWORD PTR _lpObj$[ebp]
  07a9f	d8 80 74 26 00
	00		 fadd	 DWORD PTR [eax+9844]
  07aa5	d9 5d 84	 fstp	 DWORD PTR _nAddAttackDamageRight$[ebp]
$LN19@GetAttackD:

; 3908 : 			}
; 3909 : 		}
; 3910 : 		break;

  07aa8	e9 9a 00 00 00	 jmp	 $LN21@GetAttackD
$LN18@GetAttackD:

; 3911 : 	case 2:
; 3912 : 		{
; 3913 : 			if( lpObj->m_MPSkillOpt.MpsMaceStrength > 0.0f )

  07aad	8b 45 08	 mov	 eax, DWORD PTR _lpObj$[ebp]
  07ab0	d9 80 78 26 00
	00		 fld	 DWORD PTR [eax+9848]
  07ab6	dc 1d 00 00 00
	00		 fcomp	 QWORD PTR __real@0000000000000000
  07abc	df e0		 fnstsw	 ax
  07abe	f6 c4 41	 test	 ah, 65			; 00000041H
  07ac1	75 0f		 jne	 SHORT $LN17@GetAttackD

; 3914 : 			{
; 3915 : 				nAddAttackDamageRight += lpObj->m_MPSkillOpt.MpsMaceStrength;

  07ac3	d9 45 84	 fld	 DWORD PTR _nAddAttackDamageRight$[ebp]
  07ac6	8b 45 08	 mov	 eax, DWORD PTR _lpObj$[ebp]
  07ac9	d8 80 78 26 00
	00		 fadd	 DWORD PTR [eax+9848]
  07acf	d9 5d 84	 fstp	 DWORD PTR _nAddAttackDamageRight$[ebp]
$LN17@GetAttackD:

; 3916 : 			}
; 3917 : 		}
; 3918 : 		break;

  07ad2	eb 73		 jmp	 SHORT $LN21@GetAttackD
$LN16@GetAttackD:

; 3919 : 	case 3:
; 3920 : 		{
; 3921 : 			if( lpObj->m_MPSkillOpt.MpsSpearStrength > 0.0f )

  07ad4	8b 45 08	 mov	 eax, DWORD PTR _lpObj$[ebp]
  07ad7	d9 80 7c 26 00
	00		 fld	 DWORD PTR [eax+9852]
  07add	dc 1d 00 00 00
	00		 fcomp	 QWORD PTR __real@0000000000000000
  07ae3	df e0		 fnstsw	 ax
  07ae5	f6 c4 41	 test	 ah, 65			; 00000041H
  07ae8	75 0f		 jne	 SHORT $LN15@GetAttackD

; 3922 : 			{
; 3923 : 				nAddAttackDamageRight += lpObj->m_MPSkillOpt.MpsSpearStrength;

  07aea	d9 45 84	 fld	 DWORD PTR _nAddAttackDamageRight$[ebp]
  07aed	8b 45 08	 mov	 eax, DWORD PTR _lpObj$[ebp]
  07af0	d8 80 7c 26 00
	00		 fadd	 DWORD PTR [eax+9852]
  07af6	d9 5d 84	 fstp	 DWORD PTR _nAddAttackDamageRight$[ebp]
$LN15@GetAttackD:

; 3924 : 			}
; 3925 : 		}
; 3926 : 		break;

  07af9	eb 4c		 jmp	 SHORT $LN21@GetAttackD
$LN14@GetAttackD:

; 3927 : 	case 11:
; 3928 : 		{
; 3929 : 			if( lpObj->m_MPSkillOpt.MpsScepterStrength > 0.0f )

  07afb	8b 45 08	 mov	 eax, DWORD PTR _lpObj$[ebp]
  07afe	d9 80 10 27 00
	00		 fld	 DWORD PTR [eax+10000]
  07b04	dc 1d 00 00 00
	00		 fcomp	 QWORD PTR __real@0000000000000000
  07b0a	df e0		 fnstsw	 ax
  07b0c	f6 c4 41	 test	 ah, 65			; 00000041H
  07b0f	75 0f		 jne	 SHORT $LN13@GetAttackD

; 3930 : 			{
; 3931 : 				nAddAttackDamageRight += lpObj->m_MPSkillOpt.MpsScepterStrength;

  07b11	d9 45 84	 fld	 DWORD PTR _nAddAttackDamageRight$[ebp]
  07b14	8b 45 08	 mov	 eax, DWORD PTR _lpObj$[ebp]
  07b17	d8 80 10 27 00
	00		 fadd	 DWORD PTR [eax+10000]
  07b1d	d9 5d 84	 fstp	 DWORD PTR _nAddAttackDamageRight$[ebp]
$LN13@GetAttackD:

; 3932 : 			}
; 3933 : 		}
; 3934 : 		break;

  07b20	eb 25		 jmp	 SHORT $LN21@GetAttackD
$LN12@GetAttackD:

; 3935 : 	case 12:
; 3936 : 		{
; 3937 : 			if( lpObj->m_MPSkillOpt.MpsFistStrength > 0.0f )

  07b22	8b 45 08	 mov	 eax, DWORD PTR _lpObj$[ebp]
  07b25	d9 80 94 27 00
	00		 fld	 DWORD PTR [eax+10132]
  07b2b	dc 1d 00 00 00
	00		 fcomp	 QWORD PTR __real@0000000000000000
  07b31	df e0		 fnstsw	 ax
  07b33	f6 c4 41	 test	 ah, 65			; 00000041H
  07b36	75 0f		 jne	 SHORT $LN11@GetAttackD

; 3938 : 			{
; 3939 : 				nAddAttackDamageRight += lpObj->m_MPSkillOpt.MpsFistStrength;

  07b38	d9 45 84	 fld	 DWORD PTR _nAddAttackDamageRight$[ebp]
  07b3b	8b 45 08	 mov	 eax, DWORD PTR _lpObj$[ebp]
  07b3e	d8 80 94 27 00
	00		 fadd	 DWORD PTR [eax+10132]
  07b44	d9 5d 84	 fstp	 DWORD PTR _nAddAttackDamageRight$[ebp]
$LN11@GetAttackD:
$LN21@GetAttackD:

; 3940 : 			}
; 3941 : 		}
; 3942 : 		break;
; 3943 : 	}
; 3944 : 
; 3945 : 	if( bTwoHandWeapon )

  07b47	83 7d c0 00	 cmp	 DWORD PTR _bTwoHandWeapon$[ebp], 0
  07b4b	74 21		 je	 SHORT $LN10@GetAttackD

; 3946 : 	{
; 3947 : 		ad += nAddAttackDamageRight * 0.5f + nAddAttackDamageLeft * 0.5f;

  07b4d	d9 45 84	 fld	 DWORD PTR _nAddAttackDamageRight$[ebp]
  07b50	dc 0d 00 00 00
	00		 fmul	 QWORD PTR __real@3fe0000000000000
  07b56	d9 45 88	 fld	 DWORD PTR _nAddAttackDamageLeft$[ebp]
  07b59	dc 0d 00 00 00
	00		 fmul	 QWORD PTR __real@3fe0000000000000
  07b5f	de c1		 faddp	 ST(1), ST(0)
  07b61	da 45 e0	 fiadd	 DWORD PTR _ad$[ebp]
  07b64	e8 00 00 00 00	 call	 __ftol2_sse
  07b69	89 45 e0	 mov	 DWORD PTR _ad$[ebp], eax

; 3948 : 	}
; 3949 : 	else

  07b6c	eb 11		 jmp	 SHORT $LN9@GetAttackD
$LN10@GetAttackD:

; 3950 : 	{
; 3951 : 		ad += nAddAttackDamageRight + nAddAttackDamageLeft;

  07b6e	d9 45 84	 fld	 DWORD PTR _nAddAttackDamageRight$[ebp]
  07b71	d8 45 88	 fadd	 DWORD PTR _nAddAttackDamageLeft$[ebp]
  07b74	da 45 e0	 fiadd	 DWORD PTR _ad$[ebp]
  07b77	e8 00 00 00 00	 call	 __ftol2_sse
  07b7c	89 45 e0	 mov	 DWORD PTR _ad$[ebp], eax
$LN9@GetAttackD:

; 3952 : 	}
; 3953 : 
; 3954 : 	if( lpObj->Class == CLASS_KNIGHT 
; 3955 : 		|| lpObj->Class == CLASS_MAGUMSA 
; 3956 : 		|| lpObj->Class == CLASS_DARKLORD 
; 3957 : #ifdef MONK
; 3958 : 		|| lpObj->Class == CLASS_MONK 
; 3959 : #endif
; 3960 : 		)

  07b7f	8b 45 08	 mov	 eax, DWORD PTR _lpObj$[ebp]
  07b82	0f b7 88 b8 00
	00 00		 movzx	 ecx, WORD PTR [eax+184]
  07b89	83 f9 01	 cmp	 ecx, 1
  07b8c	74 2d		 je	 SHORT $LN7@GetAttackD
  07b8e	8b 45 08	 mov	 eax, DWORD PTR _lpObj$[ebp]
  07b91	0f b7 88 b8 00
	00 00		 movzx	 ecx, WORD PTR [eax+184]
  07b98	83 f9 03	 cmp	 ecx, 3
  07b9b	74 1e		 je	 SHORT $LN7@GetAttackD
  07b9d	8b 45 08	 mov	 eax, DWORD PTR _lpObj$[ebp]
  07ba0	0f b7 88 b8 00
	00 00		 movzx	 ecx, WORD PTR [eax+184]
  07ba7	83 f9 04	 cmp	 ecx, 4
  07baa	74 0f		 je	 SHORT $LN7@GetAttackD
  07bac	8b 45 08	 mov	 eax, DWORD PTR _lpObj$[ebp]
  07baf	0f b7 88 b8 00
	00 00		 movzx	 ecx, WORD PTR [eax+184]
  07bb6	83 f9 06	 cmp	 ecx, 6
  07bb9	75 2a		 jne	 SHORT $LN6@GetAttackD
$LN7@GetAttackD:

; 3961 : 	{
; 3962 : 		if( lpObj->m_MPSkillOpt.MpsWeaponMastery > 0.0f )

  07bbb	8b 45 08	 mov	 eax, DWORD PTR _lpObj$[ebp]
  07bbe	d9 80 6c 26 00
	00		 fld	 DWORD PTR [eax+9836]
  07bc4	dc 1d 00 00 00
	00		 fcomp	 QWORD PTR __real@0000000000000000
  07bca	df e0		 fnstsw	 ax
  07bcc	f6 c4 41	 test	 ah, 65			; 00000041H
  07bcf	75 14		 jne	 SHORT $LN6@GetAttackD

; 3963 : 		{
; 3964 : 			ad += lpObj->m_MPSkillOpt.MpsWeaponMastery;

  07bd1	db 45 e0	 fild	 DWORD PTR _ad$[ebp]
  07bd4	8b 45 08	 mov	 eax, DWORD PTR _lpObj$[ebp]
  07bd7	d8 80 6c 26 00
	00		 fadd	 DWORD PTR [eax+9836]
  07bdd	e8 00 00 00 00	 call	 __ftol2_sse
  07be2	89 45 e0	 mov	 DWORD PTR _ad$[ebp], eax
$LN6@GetAttackD:

; 3965 : 		}
; 3966 : 	}
; 3967 : 
; 3968 : 	if( lpObj->Class == CLASS_ELF )

  07be5	8b 45 08	 mov	 eax, DWORD PTR _lpObj$[ebp]
  07be8	0f b7 88 b8 00
	00 00		 movzx	 ecx, WORD PTR [eax+184]
  07bef	83 f9 02	 cmp	 ecx, 2
  07bf2	75 2a		 jne	 SHORT $LN4@GetAttackD

; 3969 : 	{
; 3970 : 		if( lpObj->m_MPSkillOpt.MpsWeaponMastery2 > 0.0f )

  07bf4	8b 45 08	 mov	 eax, DWORD PTR _lpObj$[ebp]
  07bf7	d9 80 bc 26 00
	00		 fld	 DWORD PTR [eax+9916]
  07bfd	dc 1d 00 00 00
	00		 fcomp	 QWORD PTR __real@0000000000000000
  07c03	df e0		 fnstsw	 ax
  07c05	f6 c4 41	 test	 ah, 65			; 00000041H
  07c08	75 14		 jne	 SHORT $LN4@GetAttackD

; 3971 : 		{
; 3972 : 			ad += lpObj->m_MPSkillOpt.MpsWeaponMastery2;

  07c0a	db 45 e0	 fild	 DWORD PTR _ad$[ebp]
  07c0d	8b 45 08	 mov	 eax, DWORD PTR _lpObj$[ebp]
  07c10	d8 80 bc 26 00
	00		 fadd	 DWORD PTR [eax+9916]
  07c16	e8 00 00 00 00	 call	 __ftol2_sse
  07c1b	89 45 e0	 mov	 DWORD PTR _ad$[ebp], eax
$LN4@GetAttackD:

; 3973 : 		}
; 3974 : 	}
; 3975 : 
; 3976 : 	if( lpObj->m_MPSkillOpt.MpsCommandAttackInc > 0.0f )

  07c1e	8b 45 08	 mov	 eax, DWORD PTR _lpObj$[ebp]
  07c21	d9 80 24 27 00
	00		 fld	 DWORD PTR [eax+10020]
  07c27	dc 1d 00 00 00
	00		 fcomp	 QWORD PTR __real@0000000000000000
  07c2d	df e0		 fnstsw	 ax
  07c2f	f6 c4 41	 test	 ah, 65			; 00000041H
  07c32	75 68		 jne	 SHORT $LN2@GetAttackD

; 3977 : 	{
; 3978 : 		if( lpObj->pInventory[0].GetDetailItemType() == 11 || lpObj->pInventory[1].GetDetailItemType() == 11 )

  07c34	8b 45 08	 mov	 eax, DWORD PTR _lpObj$[ebp]
  07c37	8b 88 24 0e 00
	00		 mov	 ecx, DWORD PTR [eax+3620]
  07c3d	e8 00 00 00 00	 call	 ?GetDetailItemType@CItem@@QAEHXZ ; CItem::GetDetailItemType
  07c42	83 f8 0b	 cmp	 eax, 11			; 0000000bH
  07c45	74 19		 je	 SHORT $LN1@GetAttackD
  07c47	8b 45 08	 mov	 eax, DWORD PTR _lpObj$[ebp]
  07c4a	8b 88 24 0e 00
	00		 mov	 ecx, DWORD PTR [eax+3620]
  07c50	81 c1 d4 00 00
	00		 add	 ecx, 212		; 000000d4H
  07c56	e8 00 00 00 00	 call	 ?GetDetailItemType@CItem@@QAEHXZ ; CItem::GetDetailItemType
  07c5b	83 f8 0b	 cmp	 eax, 11			; 0000000bH
  07c5e	75 3c		 jne	 SHORT $LN2@GetAttackD
$LN1@GetAttackD:

; 3979 : 		{
; 3980 : 			int nAddAttack = (lpObj->AddLeadership + lpObj->Leadership) / lpObj->m_MPSkillOpt.MpsCommandAttackInc;

  07c60	8b 45 08	 mov	 eax, DWORD PTR _lpObj$[ebp]
  07c63	0f b7 88 1a 01
	00 00		 movzx	 ecx, WORD PTR [eax+282]
  07c6a	8b 55 08	 mov	 edx, DWORD PTR _lpObj$[ebp]
  07c6d	0f b7 82 18 01
	00 00		 movzx	 eax, WORD PTR [edx+280]
  07c74	03 c8		 add	 ecx, eax
  07c76	89 8d 3c ff ff
	ff		 mov	 DWORD PTR tv1336[ebp], ecx
  07c7c	db 85 3c ff ff
	ff		 fild	 DWORD PTR tv1336[ebp]
  07c82	8b 4d 08	 mov	 ecx, DWORD PTR _lpObj$[ebp]
  07c85	d8 b1 24 27 00
	00		 fdiv	 DWORD PTR [ecx+10020]
  07c8b	e8 00 00 00 00	 call	 __ftol2_sse
  07c90	89 45 80	 mov	 DWORD PTR _nAddAttack$241016[ebp], eax

; 3981 : 			ad += nAddAttack;

  07c93	8b 45 e0	 mov	 eax, DWORD PTR _ad$[ebp]
  07c96	03 45 80	 add	 eax, DWORD PTR _nAddAttack$241016[ebp]
  07c99	89 45 e0	 mov	 DWORD PTR _ad$[ebp], eax
$LN2@GetAttackD:

; 3982 : 		}
; 3983 : 	}
; 3984 : 
; 3985 : 	return ad;

  07c9c	8b 45 e0	 mov	 eax, DWORD PTR _ad$[ebp]
$LN106@GetAttackD:

; 3986 : }

  07c9f	8b 4d f0	 mov	 ecx, DWORD PTR __$SEHRec$[ebp+8]
  07ca2	64 89 0d 00 00
	00 00		 mov	 DWORD PTR fs:0, ecx
  07ca9	59		 pop	 ecx
  07caa	5f		 pop	 edi
  07cab	5e		 pop	 esi
  07cac	5b		 pop	 ebx
  07cad	8b e5		 mov	 esp, ebp
  07caf	5d		 pop	 ebp
  07cb0	c2 14 00	 ret	 20			; 00000014H
  07cb3	90		 npad	 1
$LN121@GetAttackD:
  07cb4	00 00 00 00	 DD	 $LN32@GetAttackD
  07cb8	00 00 00 00	 DD	 $LN30@GetAttackD
  07cbc	00 00 00 00	 DD	 $LN28@GetAttackD
  07cc0	00 00 00 00	 DD	 $LN26@GetAttackD
  07cc4	00 00 00 00	 DD	 $LN24@GetAttackD
  07cc8	00 00 00 00	 DD	 $LN33@GetAttackD
$LN117@GetAttackD:
  07ccc	00		 DB	 0
  07ccd	01		 DB	 1
  07cce	02		 DB	 2
  07ccf	05		 DB	 5
  07cd0	05		 DB	 5
  07cd1	05		 DB	 5
  07cd2	05		 DB	 5
  07cd3	05		 DB	 5
  07cd4	05		 DB	 5
  07cd5	05		 DB	 5
  07cd6	03		 DB	 3
  07cd7	04		 DB	 4
$LN122@GetAttackD:
  07cd8	00 00 00 00	 DD	 $LN20@GetAttackD
  07cdc	00 00 00 00	 DD	 $LN18@GetAttackD
  07ce0	00 00 00 00	 DD	 $LN16@GetAttackD
  07ce4	00 00 00 00	 DD	 $LN14@GetAttackD
  07ce8	00 00 00 00	 DD	 $LN12@GetAttackD
  07cec	00 00 00 00	 DD	 $LN21@GetAttackD
$LN118@GetAttackD:
  07cf0	00		 DB	 0
  07cf1	01		 DB	 1
  07cf2	02		 DB	 2
  07cf3	05		 DB	 5
  07cf4	05		 DB	 5
  07cf5	05		 DB	 5
  07cf6	05		 DB	 5
  07cf7	05		 DB	 5
  07cf8	05		 DB	 5
  07cf9	05		 DB	 5
  07cfa	03		 DB	 3
  07cfb	04		 DB	 4
?GetAttackDamage@CObjAttack@@QAEHPAUOBJECTSTRUCT@@HAAEHPAVCMagicInf@@@Z ENDP ; CObjAttack::GetAttackDamage
_TEXT	ENDS
PUBLIC	__$ArrayPad$
EXTRN	?ExlCritDamage@cSystemOfRage@@QAEXHHAAH@Z:PROC	; cSystemOfRage::ExlCritDamage
EXTRN	?GetDamage@CMagicInf@@QAEHXZ:PROC		; CMagicInf::GetDamage
xdata$x	SEGMENT
__sehtable$?GetAttackDamageWizard@CObjAttack@@QAEHPAUOBJECTSTRUCT@@HPAVCMagicInf@@AAEH@Z DD 0ffffffe4H
	DD	00H
	DD	0ffffff1cH
	DD	00H
	DD	0fffffffeH
	DD	FLAT:$LN37@GetAttackD@2
	DD	FLAT:$LN38@GetAttackD@2
; Function compile flags: /Odtp /ZI
xdata$x	ENDS
_TEXT	SEGMENT
tv452 = -212						; size = 4
tv450 = -208						; size = 4
tv447 = -202						; size = 2
_SkillAttack$ = -136					; size = 4
_SkillAddCriticalDamage$241068 = -132			; size = 4
_fValue$241063 = -128					; size = 4
_nCritical$241061 = -124				; size = 4
_subd$ = -120						; size = 4
_damage$241055 = -116					; size = 4
_Right$ = -112						; size = 4
_SkillAttr$241043 = -108				; size = 4
_SkillAttr$241036 = -104				; size = 4
_CountDamage$241033 = -100				; size = 4
_SkillHellFire2CountDamageTable$241032 = -96		; size = 52
_ad$ = -44						; size = 4
_damagemax$ = -40					; size = 4
_damagemin$ = -36					; size = 4
_this$ = -32						; size = 4
__$ArrayPad$ = -28					; size = 4
__$SEHRec$ = -24					; size = 24
_lpObj$ = 8						; size = 4
_targetDefense$ = 12					; size = 4
_lpMagic$ = 16						; size = 4
_effect$ = 20						; size = 4
_bIsOnDuel$ = 24					; size = 4
?GetAttackDamageWizard@CObjAttack@@QAEHPAUOBJECTSTRUCT@@HPAVCMagicInf@@AAEH@Z PROC ; CObjAttack::GetAttackDamageWizard
; _this$ = ecx

; 3989 : {

  07d00	55		 push	 ebp
  07d01	8b ec		 mov	 ebp, esp
  07d03	6a fe		 push	 -2			; fffffffeH
  07d05	68 00 00 00 00	 push	 OFFSET __sehtable$?GetAttackDamageWizard@CObjAttack@@QAEHPAUOBJECTSTRUCT@@HPAVCMagicInf@@AAEH@Z
  07d0a	68 00 00 00 00	 push	 OFFSET __except_handler4
  07d0f	64 a1 00 00 00
	00		 mov	 eax, DWORD PTR fs:0
  07d15	50		 push	 eax
  07d16	81 c4 3c ff ff
	ff		 add	 esp, -196		; ffffff3cH
  07d1c	a1 00 00 00 00	 mov	 eax, DWORD PTR ___security_cookie
  07d21	31 45 f8	 xor	 DWORD PTR __$SEHRec$[ebp+16], eax
  07d24	33 c5		 xor	 eax, ebp
  07d26	89 45 e4	 mov	 DWORD PTR __$ArrayPad$[ebp], eax
  07d29	53		 push	 ebx
  07d2a	56		 push	 esi
  07d2b	57		 push	 edi
  07d2c	50		 push	 eax
  07d2d	8d 45 f0	 lea	 eax, DWORD PTR __$SEHRec$[ebp+8]
  07d30	64 a3 00 00 00
	00		 mov	 DWORD PTR fs:0, eax
  07d36	89 65 e8	 mov	 DWORD PTR __$SEHRec$[ebp], esp
  07d39	89 4d e0	 mov	 DWORD PTR _this$[ebp], ecx

; 3990 : 	if ( g_ShieldSystemOn == TRUE )

  07d3c	83 3d 00 00 00
	00 01		 cmp	 DWORD PTR ?g_ShieldSystemOn@@3HA, 1 ; g_ShieldSystemOn
  07d43	75 0d		 jne	 SHORT $LN32@GetAttackD@2

; 3991 : 	{
; 3992 : 		if ( bIsOnDuel == TRUE )

  07d45	83 7d 18 01	 cmp	 DWORD PTR _bIsOnDuel$[ebp], 1
  07d49	75 07		 jne	 SHORT $LN32@GetAttackD@2

; 3993 : 		{
; 3994 : 			bIsOnDuel = FALSE;

  07d4b	c7 45 18 00 00
	00 00		 mov	 DWORD PTR _bIsOnDuel$[ebp], 0
$LN32@GetAttackD@2:

; 3995 : 		}
; 3996 : 	}
; 3997 : 
; 3998 : 	int damagemin;
; 3999 : 	int damagemax;
; 4000 : 	int ad;
; 4001 : 
; 4002 : 	if ( lpMagic->m_Skill == 40 )

  07d52	8b 45 10	 mov	 eax, DWORD PTR _lpMagic$[ebp]
  07d55	83 78 08 28	 cmp	 DWORD PTR [eax+8], 40	; 00000028H
  07d59	0f 85 88 01 00
	00		 jne	 $LN31@GetAttackD@2

; 4003 : 	{
; 4004 : 		if ( lpObj->SkillHellFire2Count >= 0 )

  07d5f	8b 45 08	 mov	 eax, DWORD PTR _lpObj$[ebp]
  07d62	0f b6 88 15 11
	00 00		 movzx	 ecx, BYTE PTR [eax+4373]
  07d69	85 c9		 test	 ecx, ecx
  07d6b	0f 8c 71 01 00
	00		 jl	 $LN30@GetAttackD@2

; 4005 : 		{
; 4006 : 			int SkillHellFire2CountDamageTable[13] =
; 4007 : 			{
; 4008 : 				0,	20,	50,	99,	160,

  07d71	c7 45 a0 00 00
	00 00		 mov	 DWORD PTR _SkillHellFire2CountDamageTable$241032[ebp], 0
  07d78	c7 45 a4 14 00
	00 00		 mov	 DWORD PTR _SkillHellFire2CountDamageTable$241032[ebp+4], 20 ; 00000014H
  07d7f	c7 45 a8 32 00
	00 00		 mov	 DWORD PTR _SkillHellFire2CountDamageTable$241032[ebp+8], 50 ; 00000032H
  07d86	c7 45 ac 63 00
	00 00		 mov	 DWORD PTR _SkillHellFire2CountDamageTable$241032[ebp+12], 99 ; 00000063H
  07d8d	c7 45 b0 a0 00
	00 00		 mov	 DWORD PTR _SkillHellFire2CountDamageTable$241032[ebp+16], 160 ; 000000a0H

; 4009 : 				225,	325,	425,	550,	700,

  07d94	c7 45 b4 e1 00
	00 00		 mov	 DWORD PTR _SkillHellFire2CountDamageTable$241032[ebp+20], 225 ; 000000e1H
  07d9b	c7 45 b8 45 01
	00 00		 mov	 DWORD PTR _SkillHellFire2CountDamageTable$241032[ebp+24], 325 ; 00000145H
  07da2	c7 45 bc a9 01
	00 00		 mov	 DWORD PTR _SkillHellFire2CountDamageTable$241032[ebp+28], 425 ; 000001a9H
  07da9	c7 45 c0 26 02
	00 00		 mov	 DWORD PTR _SkillHellFire2CountDamageTable$241032[ebp+32], 550 ; 00000226H
  07db0	c7 45 c4 bc 02
	00 00		 mov	 DWORD PTR _SkillHellFire2CountDamageTable$241032[ebp+36], 700 ; 000002bcH

; 4010 : 				880,	1090,	1320

  07db7	c7 45 c8 70 03
	00 00		 mov	 DWORD PTR _SkillHellFire2CountDamageTable$241032[ebp+40], 880 ; 00000370H
  07dbe	c7 45 cc 42 04
	00 00		 mov	 DWORD PTR _SkillHellFire2CountDamageTable$241032[ebp+44], 1090 ; 00000442H

; 4011 : 			};

  07dc5	c7 45 d0 28 05
	00 00		 mov	 DWORD PTR _SkillHellFire2CountDamageTable$241032[ebp+48], 1320 ; 00000528H

; 4012 : 			int CountDamage;
; 4013 : 
; 4014 : 			if ( lpObj->SkillHellFire2Count > 12 )

  07dcc	8b 45 08	 mov	 eax, DWORD PTR _lpObj$[ebp]
  07dcf	0f b6 88 15 11
	00 00		 movzx	 ecx, BYTE PTR [eax+4373]
  07dd6	83 f9 0c	 cmp	 ecx, 12			; 0000000cH
  07dd9	7e 09		 jle	 SHORT $LN29@GetAttackD@2

; 4015 : 			{
; 4016 : 				CountDamage = 0;

  07ddb	c7 45 9c 00 00
	00 00		 mov	 DWORD PTR _CountDamage$241033[ebp], 0

; 4017 : 			}
; 4018 : 			else

  07de2	eb 11		 jmp	 SHORT $LN28@GetAttackD@2
$LN29@GetAttackD@2:

; 4019 : 			{
; 4020 : 				CountDamage = SkillHellFire2CountDamageTable[lpObj->SkillHellFire2Count];

  07de4	8b 45 08	 mov	 eax, DWORD PTR _lpObj$[ebp]
  07de7	0f b6 88 15 11
	00 00		 movzx	 ecx, BYTE PTR [eax+4373]
  07dee	8b 54 8d a0	 mov	 edx, DWORD PTR _SkillHellFire2CountDamageTable$241032[ebp+ecx*4]
  07df2	89 55 9c	 mov	 DWORD PTR _CountDamage$241033[ebp], edx
$LN28@GetAttackD@2:

; 4021 : 			}
; 4022 : 
; 4023 : 			ad = ( lpObj->Strength + lpObj->AddStrength ) / 2 + CountDamage;

  07df5	8b 45 08	 mov	 eax, DWORD PTR _lpObj$[ebp]
  07df8	0f b7 80 f4 00
	00 00		 movzx	 eax, WORD PTR [eax+244]
  07dff	8b 4d 08	 mov	 ecx, DWORD PTR _lpObj$[ebp]
  07e02	0f bf 91 20 01
	00 00		 movsx	 edx, WORD PTR [ecx+288]
  07e09	03 c2		 add	 eax, edx
  07e0b	99		 cdq
  07e0c	2b c2		 sub	 eax, edx
  07e0e	d1 f8		 sar	 eax, 1
  07e10	03 45 9c	 add	 eax, DWORD PTR _CountDamage$241033[ebp]
  07e13	89 45 d4	 mov	 DWORD PTR _ad$[ebp], eax

; 4024 : 			damagemin = ad + lpObj->m_MagicDamageMin;

  07e16	8b 45 08	 mov	 eax, DWORD PTR _lpObj$[ebp]
  07e19	8b 4d d4	 mov	 ecx, DWORD PTR _ad$[ebp]
  07e1c	03 88 68 04 00
	00		 add	 ecx, DWORD PTR [eax+1128]
  07e22	89 4d dc	 mov	 DWORD PTR _damagemin$[ebp], ecx

; 4025 : 			damagemax = ad + lpObj->m_MagicDamageMax;

  07e25	8b 45 08	 mov	 eax, DWORD PTR _lpObj$[ebp]
  07e28	8b 4d d4	 mov	 ecx, DWORD PTR _ad$[ebp]
  07e2b	03 88 6c 04 00
	00		 add	 ecx, DWORD PTR [eax+1132]
  07e31	89 4d d8	 mov	 DWORD PTR _damagemax$[ebp], ecx

; 4026 : 
; 4027 : 			damagemin += lpObj->SetOpAddSkillAttack;

  07e34	8b 45 08	 mov	 eax, DWORD PTR _lpObj$[ebp]
  07e37	0f bf 88 24 11
	00 00		 movsx	 ecx, WORD PTR [eax+4388]
  07e3e	03 4d dc	 add	 ecx, DWORD PTR _damagemin$[ebp]
  07e41	89 4d dc	 mov	 DWORD PTR _damagemin$[ebp], ecx

; 4028 : 			damagemax += lpObj->SetOpAddSkillAttack;

  07e44	8b 45 08	 mov	 eax, DWORD PTR _lpObj$[ebp]
  07e47	0f bf 88 24 11
	00 00		 movsx	 ecx, WORD PTR [eax+4388]
  07e4e	03 4d d8	 add	 ecx, DWORD PTR _damagemax$[ebp]
  07e51	89 4d d8	 mov	 DWORD PTR _damagemax$[ebp], ecx

; 4029 : 
; 4030 : 			int SkillAttr = MagicDamageC.GetSkillAttr(lpMagic->m_Skill);

  07e54	8b 45 10	 mov	 eax, DWORD PTR _lpMagic$[ebp]
  07e57	8b 48 08	 mov	 ecx, DWORD PTR [eax+8]
  07e5a	51		 push	 ecx
  07e5b	b9 00 00 00 00	 mov	 ecx, OFFSET ?MagicDamageC@@3VCMagicDamage@@A ; MagicDamageC
  07e60	e8 00 00 00 00	 call	 ?GetSkillAttr@CMagicDamage@@QAEHH@Z ; CMagicDamage::GetSkillAttr
  07e65	89 45 98	 mov	 DWORD PTR _SkillAttr$241036[ebp], eax

; 4031 : 
; 4032 : 			if ( SkillAttr != -1 )

  07e68	83 7d 98 ff	 cmp	 DWORD PTR _SkillAttr$241036[ebp], -1
  07e6c	74 54		 je	 SHORT $LN26@GetAttackD@2

; 4033 : 			{
; 4034 : 				if((lpObj->Authority&32) == 32 && (lpObj->pInventory[10].m_Type == ITEMGET(13,42) || lpObj->pInventory[11].m_Type == ITEMGET(13,42))) //season 2.5 add-on

  07e6e	8b 45 08	 mov	 eax, DWORD PTR _lpObj$[ebp]
  07e71	8b 88 0c 02 00
	00		 mov	 ecx, DWORD PTR [eax+524]
  07e77	83 e1 20	 and	 ecx, 32			; 00000020H
  07e7a	74 46		 je	 SHORT $LN26@GetAttackD@2
  07e7c	8b 45 08	 mov	 eax, DWORD PTR _lpObj$[ebp]
  07e7f	8b 88 24 0e 00
	00		 mov	 ecx, DWORD PTR [eax+3620]
  07e85	0f bf 91 4e 08
	00 00		 movsx	 edx, WORD PTR [ecx+2126]
  07e8c	81 fa 2a 1a 00
	00		 cmp	 edx, 6698		; 00001a2aH
  07e92	74 18		 je	 SHORT $LN25@GetAttackD@2
  07e94	8b 45 08	 mov	 eax, DWORD PTR _lpObj$[ebp]
  07e97	8b 88 24 0e 00
	00		 mov	 ecx, DWORD PTR [eax+3620]
  07e9d	0f bf 91 22 09
	00 00		 movsx	 edx, WORD PTR [ecx+2338]
  07ea4	81 fa 2a 1a 00
	00		 cmp	 edx, 6698		; 00001a2aH
  07eaa	75 16		 jne	 SHORT $LN26@GetAttackD@2
$LN25@GetAttackD@2:

; 4035 : 				{
; 4036 : 					damagemin += (BYTE)255;

  07eac	8b 45 dc	 mov	 eax, DWORD PTR _damagemin$[ebp]
  07eaf	05 ff 00 00 00	 add	 eax, 255		; 000000ffH
  07eb4	89 45 dc	 mov	 DWORD PTR _damagemin$[ebp], eax

; 4037 : 					damagemax += (BYTE)255;

  07eb7	8b 45 d8	 mov	 eax, DWORD PTR _damagemax$[ebp]
  07eba	05 ff 00 00 00	 add	 eax, 255		; 000000ffH
  07ebf	89 45 d8	 mov	 DWORD PTR _damagemax$[ebp], eax
$LN26@GetAttackD@2:

; 4038 : 				}
; 4039 : 			}
; 4040 : 
; 4041 : 			damagemin += lpObj->m_JewelOfHarmonyEffect.HJOpAddSkillAttack;

  07ec2	8b 45 08	 mov	 eax, DWORD PTR _lpObj$[ebp]
  07ec5	0f bf 88 e4 1f
	00 00		 movsx	 ecx, WORD PTR [eax+8164]
  07ecc	03 4d dc	 add	 ecx, DWORD PTR _damagemin$[ebp]
  07ecf	89 4d dc	 mov	 DWORD PTR _damagemin$[ebp], ecx

; 4042 : 			damagemax += lpObj->m_JewelOfHarmonyEffect.HJOpAddSkillAttack;

  07ed2	8b 45 08	 mov	 eax, DWORD PTR _lpObj$[ebp]
  07ed5	0f bf 88 e4 1f
	00 00		 movsx	 ecx, WORD PTR [eax+8164]
  07edc	03 4d d8	 add	 ecx, DWORD PTR _damagemax$[ebp]
  07edf	89 4d d8	 mov	 DWORD PTR _damagemax$[ebp], ecx
$LN30@GetAttackD@2:

; 4043 : 		}
; 4044 : 	}
; 4045 : 	else

  07ee2	e9 dd 00 00 00	 jmp	 $LN24@GetAttackD@2
$LN31@GetAttackD@2:

; 4046 : 	{
; 4047 : 		ad = lpMagic->GetDamage();

  07ee7	8b 4d 10	 mov	 ecx, DWORD PTR _lpMagic$[ebp]
  07eea	e8 00 00 00 00	 call	 ?GetDamage@CMagicInf@@QAEHXZ ; CMagicInf::GetDamage
  07eef	89 45 d4	 mov	 DWORD PTR _ad$[ebp], eax

; 4048 : 
; 4049 : 		damagemin = lpMagic->m_DamageMin + lpObj->m_MagicDamageMin;

  07ef2	8b 45 10	 mov	 eax, DWORD PTR _lpMagic$[ebp]
  07ef5	8b 48 0c	 mov	 ecx, DWORD PTR [eax+12]
  07ef8	8b 55 08	 mov	 edx, DWORD PTR _lpObj$[ebp]
  07efb	03 8a 68 04 00
	00		 add	 ecx, DWORD PTR [edx+1128]
  07f01	89 4d dc	 mov	 DWORD PTR _damagemin$[ebp], ecx

; 4050 : 		damagemax = lpMagic->m_DamageMax + lpObj->m_MagicDamageMax;

  07f04	8b 45 10	 mov	 eax, DWORD PTR _lpMagic$[ebp]
  07f07	8b 48 10	 mov	 ecx, DWORD PTR [eax+16]
  07f0a	8b 55 08	 mov	 edx, DWORD PTR _lpObj$[ebp]
  07f0d	03 8a 6c 04 00
	00		 add	 ecx, DWORD PTR [edx+1132]
  07f13	89 4d d8	 mov	 DWORD PTR _damagemax$[ebp], ecx

; 4051 : 
; 4052 : 		damagemin += lpObj->SetOpAddSkillAttack;

  07f16	8b 45 08	 mov	 eax, DWORD PTR _lpObj$[ebp]
  07f19	0f bf 88 24 11
	00 00		 movsx	 ecx, WORD PTR [eax+4388]
  07f20	03 4d dc	 add	 ecx, DWORD PTR _damagemin$[ebp]
  07f23	89 4d dc	 mov	 DWORD PTR _damagemin$[ebp], ecx

; 4053 : 		damagemax += lpObj->SetOpAddSkillAttack;

  07f26	8b 45 08	 mov	 eax, DWORD PTR _lpObj$[ebp]
  07f29	0f bf 88 24 11
	00 00		 movsx	 ecx, WORD PTR [eax+4388]
  07f30	03 4d d8	 add	 ecx, DWORD PTR _damagemax$[ebp]
  07f33	89 4d d8	 mov	 DWORD PTR _damagemax$[ebp], ecx

; 4054 : 
; 4055 : 		int SkillAttr = MagicDamageC.GetSkillAttr(lpMagic->m_Skill);

  07f36	8b 45 10	 mov	 eax, DWORD PTR _lpMagic$[ebp]
  07f39	8b 48 08	 mov	 ecx, DWORD PTR [eax+8]
  07f3c	51		 push	 ecx
  07f3d	b9 00 00 00 00	 mov	 ecx, OFFSET ?MagicDamageC@@3VCMagicDamage@@A ; MagicDamageC
  07f42	e8 00 00 00 00	 call	 ?GetSkillAttr@CMagicDamage@@QAEHH@Z ; CMagicDamage::GetSkillAttr
  07f47	89 45 94	 mov	 DWORD PTR _SkillAttr$241043[ebp], eax

; 4056 : 
; 4057 : 		if ( SkillAttr != -1 )

  07f4a	83 7d 94 ff	 cmp	 DWORD PTR _SkillAttr$241043[ebp], -1
  07f4e	74 54		 je	 SHORT $LN22@GetAttackD@2

; 4058 : 		{
; 4059 : 			if((lpObj->Authority&32) == 32 && (lpObj->pInventory[10].m_Type == ITEMGET(13,42) || lpObj->pInventory[11].m_Type == ITEMGET(13,42))) //season 2.5 add-on

  07f50	8b 45 08	 mov	 eax, DWORD PTR _lpObj$[ebp]
  07f53	8b 88 0c 02 00
	00		 mov	 ecx, DWORD PTR [eax+524]
  07f59	83 e1 20	 and	 ecx, 32			; 00000020H
  07f5c	74 46		 je	 SHORT $LN22@GetAttackD@2
  07f5e	8b 45 08	 mov	 eax, DWORD PTR _lpObj$[ebp]
  07f61	8b 88 24 0e 00
	00		 mov	 ecx, DWORD PTR [eax+3620]
  07f67	0f bf 91 4e 08
	00 00		 movsx	 edx, WORD PTR [ecx+2126]
  07f6e	81 fa 2a 1a 00
	00		 cmp	 edx, 6698		; 00001a2aH
  07f74	74 18		 je	 SHORT $LN21@GetAttackD@2
  07f76	8b 45 08	 mov	 eax, DWORD PTR _lpObj$[ebp]
  07f79	8b 88 24 0e 00
	00		 mov	 ecx, DWORD PTR [eax+3620]
  07f7f	0f bf 91 22 09
	00 00		 movsx	 edx, WORD PTR [ecx+2338]
  07f86	81 fa 2a 1a 00
	00		 cmp	 edx, 6698		; 00001a2aH
  07f8c	75 16		 jne	 SHORT $LN22@GetAttackD@2
$LN21@GetAttackD@2:

; 4060 : 			{
; 4061 : 				damagemin += (BYTE)255;

  07f8e	8b 45 dc	 mov	 eax, DWORD PTR _damagemin$[ebp]
  07f91	05 ff 00 00 00	 add	 eax, 255		; 000000ffH
  07f96	89 45 dc	 mov	 DWORD PTR _damagemin$[ebp], eax

; 4062 : 				damagemax += (BYTE)255;

  07f99	8b 45 d8	 mov	 eax, DWORD PTR _damagemax$[ebp]
  07f9c	05 ff 00 00 00	 add	 eax, 255		; 000000ffH
  07fa1	89 45 d8	 mov	 DWORD PTR _damagemax$[ebp], eax
$LN22@GetAttackD@2:

; 4063 : 			}
; 4064 : 		}
; 4065 : 
; 4066 : 		damagemin += lpObj->m_JewelOfHarmonyEffect.HJOpAddSkillAttack;

  07fa4	8b 45 08	 mov	 eax, DWORD PTR _lpObj$[ebp]
  07fa7	0f bf 88 e4 1f
	00 00		 movsx	 ecx, WORD PTR [eax+8164]
  07fae	03 4d dc	 add	 ecx, DWORD PTR _damagemin$[ebp]
  07fb1	89 4d dc	 mov	 DWORD PTR _damagemin$[ebp], ecx

; 4067 : 		damagemax += lpObj->m_JewelOfHarmonyEffect.HJOpAddSkillAttack;

  07fb4	8b 45 08	 mov	 eax, DWORD PTR _lpObj$[ebp]
  07fb7	0f bf 88 e4 1f
	00 00		 movsx	 ecx, WORD PTR [eax+8164]
  07fbe	03 4d d8	 add	 ecx, DWORD PTR _damagemax$[ebp]
  07fc1	89 4d d8	 mov	 DWORD PTR _damagemax$[ebp], ecx
$LN24@GetAttackD@2:

; 4068 : 	}
; 4069 : 
; 4070 : 	CItem * Right = &lpObj->pInventory[0];

  07fc4	8b 45 08	 mov	 eax, DWORD PTR _lpObj$[ebp]
  07fc7	8b 88 24 0e 00
	00		 mov	 ecx, DWORD PTR [eax+3620]
  07fcd	89 4d 90	 mov	 DWORD PTR _Right$[ebp], ecx

; 4071 : 
; 4072 : 	if ( Right->IsItem() )

  07fd0	8b 4d 90	 mov	 ecx, DWORD PTR _Right$[ebp]
  07fd3	e8 00 00 00 00	 call	 ?IsItem@CItem@@QAEHXZ	; CItem::IsItem
  07fd8	85 c0		 test	 eax, eax
  07fda	0f 84 f8 00 00
	00		 je	 $LN16@GetAttackD@2

; 4073 : 	{
; 4074 : 		if ((Right->m_Type >= ITEMGET(5,0) && Right->m_Type < ITEMGET(6,0) ) ||
; 4075 : 			 Right->m_Type == ITEMGET(0,31) ||
; 4076 : 			 Right->m_Type == ITEMGET(0,21) ||
; 4077 : 			 Right->m_Type == ITEMGET(0,23) ||
; 4078 : 			 Right->m_Type == ITEMGET(0,25) ||
; 4079 : 			 Right->m_Type == ITEMGET(0,28)) //season4 add-on

  07fe0	8b 45 90	 mov	 eax, DWORD PTR _Right$[ebp]
  07fe3	0f bf 48 06	 movsx	 ecx, WORD PTR [eax+6]
  07fe7	81 f9 00 0a 00
	00		 cmp	 ecx, 2560		; 00000a00H
  07fed	7c 0f		 jl	 SHORT $LN17@GetAttackD@2
  07fef	8b 45 90	 mov	 eax, DWORD PTR _Right$[ebp]
  07ff2	0f bf 48 06	 movsx	 ecx, WORD PTR [eax+6]
  07ff6	81 f9 00 0c 00
	00		 cmp	 ecx, 3072		; 00000c00H
  07ffc	7c 40		 jl	 SHORT $LN18@GetAttackD@2
$LN17@GetAttackD@2:
  07ffe	8b 45 90	 mov	 eax, DWORD PTR _Right$[ebp]
  08001	0f bf 48 06	 movsx	 ecx, WORD PTR [eax+6]
  08005	83 f9 1f	 cmp	 ecx, 31			; 0000001fH
  08008	74 34		 je	 SHORT $LN18@GetAttackD@2
  0800a	8b 45 90	 mov	 eax, DWORD PTR _Right$[ebp]
  0800d	0f bf 48 06	 movsx	 ecx, WORD PTR [eax+6]
  08011	83 f9 15	 cmp	 ecx, 21			; 00000015H
  08014	74 28		 je	 SHORT $LN18@GetAttackD@2
  08016	8b 45 90	 mov	 eax, DWORD PTR _Right$[ebp]
  08019	0f bf 48 06	 movsx	 ecx, WORD PTR [eax+6]
  0801d	83 f9 17	 cmp	 ecx, 23			; 00000017H
  08020	74 1c		 je	 SHORT $LN18@GetAttackD@2
  08022	8b 45 90	 mov	 eax, DWORD PTR _Right$[ebp]
  08025	0f bf 48 06	 movsx	 ecx, WORD PTR [eax+6]
  08029	83 f9 19	 cmp	 ecx, 25			; 00000019H
  0802c	74 10		 je	 SHORT $LN18@GetAttackD@2
  0802e	8b 45 90	 mov	 eax, DWORD PTR _Right$[ebp]
  08031	0f bf 48 06	 movsx	 ecx, WORD PTR [eax+6]
  08035	83 f9 1c	 cmp	 ecx, 28			; 0000001cH
  08038	0f 85 9a 00 00
	00		 jne	 $LN16@GetAttackD@2
$LN18@GetAttackD@2:

; 4080 : 		{
; 4081 : 			if ( Right->m_IsValidItem  )

  0803e	8b 45 90	 mov	 eax, DWORD PTR _Right$[ebp]
  08041	0f b6 88 b0 00
	00 00		 movzx	 ecx, BYTE PTR [eax+176]
  08048	85 c9		 test	 ecx, ecx
  0804a	0f 84 88 00 00
	00		 je	 $LN16@GetAttackD@2

; 4082 : 			{
; 4083 : 				int damage = Right->m_Magic / 2 + Right->m_Level * 2;

  08050	8b 45 90	 mov	 eax, DWORD PTR _Right$[ebp]
  08053	0f b7 40 20	 movzx	 eax, WORD PTR [eax+32]
  08057	99		 cdq
  08058	2b c2		 sub	 eax, edx
  0805a	d1 f8		 sar	 eax, 1
  0805c	8b 4d 90	 mov	 ecx, DWORD PTR _Right$[ebp]
  0805f	0f bf 51 08	 movsx	 edx, WORD PTR [ecx+8]
  08063	8d 04 50	 lea	 eax, DWORD PTR [eax+edx*2]
  08066	89 45 8c	 mov	 DWORD PTR _damage$241055[ebp], eax

; 4084 : 				damage -= (WORD)(Right->m_CurrentDurabilityState * damage);

  08069	db 45 8c	 fild	 DWORD PTR _damage$241055[ebp]
  0806c	8b 45 90	 mov	 eax, DWORD PTR _Right$[ebp]
  0806f	d8 88 a8 00 00
	00		 fmul	 DWORD PTR [eax+168]
  08075	d9 bd 36 ff ff
	ff		 fnstcw	 WORD PTR tv447[ebp]
  0807b	0f b7 85 36 ff
	ff ff		 movzx	 eax, WORD PTR tv447[ebp]
  08082	0d 00 0c 00 00	 or	 eax, 3072		; 00000c00H
  08087	89 85 30 ff ff
	ff		 mov	 DWORD PTR tv450[ebp], eax
  0808d	d9 ad 30 ff ff
	ff		 fldcw	 WORD PTR tv450[ebp]
  08093	db 9d 2c ff ff
	ff		 fistp	 DWORD PTR tv452[ebp]
  08099	d9 ad 36 ff ff
	ff		 fldcw	 WORD PTR tv447[ebp]
  0809f	0f b7 8d 2c ff
	ff ff		 movzx	 ecx, WORD PTR tv452[ebp]
  080a6	8b 55 8c	 mov	 edx, DWORD PTR _damage$241055[ebp]
  080a9	2b d1		 sub	 edx, ecx
  080ab	89 55 8c	 mov	 DWORD PTR _damage$241055[ebp], edx

; 4085 : 
; 4086 : 				damagemin += damagemin * damage / 100;

  080ae	8b 45 dc	 mov	 eax, DWORD PTR _damagemin$[ebp]
  080b1	0f af 45 8c	 imul	 eax, DWORD PTR _damage$241055[ebp]
  080b5	99		 cdq
  080b6	b9 64 00 00 00	 mov	 ecx, 100		; 00000064H
  080bb	f7 f9		 idiv	 ecx
  080bd	03 45 dc	 add	 eax, DWORD PTR _damagemin$[ebp]
  080c0	89 45 dc	 mov	 DWORD PTR _damagemin$[ebp], eax

; 4087 : 				damagemax += damagemax * damage / 100;

  080c3	8b 45 d8	 mov	 eax, DWORD PTR _damagemax$[ebp]
  080c6	0f af 45 8c	 imul	 eax, DWORD PTR _damage$241055[ebp]
  080ca	99		 cdq
  080cb	b9 64 00 00 00	 mov	 ecx, 100		; 00000064H
  080d0	f7 f9		 idiv	 ecx
  080d2	03 45 d8	 add	 eax, DWORD PTR _damagemax$[ebp]
  080d5	89 45 d8	 mov	 DWORD PTR _damagemax$[ebp], eax
$LN16@GetAttackD@2:

; 4088 : 			}
; 4089 : 		}
; 4090 : 	}
; 4091 : 
; 4092 : 	int subd = damagemax - damagemin;

  080d8	8b 45 d8	 mov	 eax, DWORD PTR _damagemax$[ebp]
  080db	2b 45 dc	 sub	 eax, DWORD PTR _damagemin$[ebp]
  080de	89 45 88	 mov	 DWORD PTR _subd$[ebp], eax

; 4093 : 
; 4094 : 	__try

  080e1	9b		 fwait
  080e2	c7 45 fc 00 00
	00 00		 mov	 DWORD PTR __$SEHRec$[ebp+20], 0

; 4095 : 	{
; 4096 : 		if ( bIsOnDuel )

  080e9	83 7d 18 00	 cmp	 DWORD PTR _bIsOnDuel$[ebp], 0
  080ed	74 26		 je	 SHORT $LN14@GetAttackD@2

; 4097 : 		{
; 4098 : 			ad = ( damagemin + (rand()%(subd+1)) ) * 60 / 100 - targetDefense;

  080ef	e8 00 00 00 00	 call	 _rand
  080f4	8b 4d 88	 mov	 ecx, DWORD PTR _subd$[ebp]
  080f7	83 c1 01	 add	 ecx, 1
  080fa	99		 cdq
  080fb	f7 f9		 idiv	 ecx
  080fd	03 55 dc	 add	 edx, DWORD PTR _damagemin$[ebp]
  08100	6b d2 3c	 imul	 edx, 60			; 0000003cH
  08103	8b c2		 mov	 eax, edx
  08105	99		 cdq
  08106	b9 64 00 00 00	 mov	 ecx, 100		; 00000064H
  0810b	f7 f9		 idiv	 ecx
  0810d	2b 45 0c	 sub	 eax, DWORD PTR _targetDefense$[ebp]
  08110	89 45 d4	 mov	 DWORD PTR _ad$[ebp], eax

; 4099 : 		}
; 4100 : 		else

  08113	eb 17		 jmp	 SHORT $LN13@GetAttackD@2
$LN14@GetAttackD@2:

; 4101 : 		{
; 4102 : 			ad = ( damagemin + (rand()%(subd+1)) ) - targetDefense;

  08115	e8 00 00 00 00	 call	 _rand
  0811a	8b 4d 88	 mov	 ecx, DWORD PTR _subd$[ebp]
  0811d	83 c1 01	 add	 ecx, 1
  08120	99		 cdq
  08121	f7 f9		 idiv	 ecx
  08123	03 55 dc	 add	 edx, DWORD PTR _damagemin$[ebp]
  08126	2b 55 0c	 sub	 edx, DWORD PTR _targetDefense$[ebp]
  08129	89 55 d4	 mov	 DWORD PTR _ad$[ebp], edx
$LN13@GetAttackD@2:

; 4103 : 		}
; 4104 : 
; 4105 : 		int nCritical = lpObj->m_CriticalDamage;

  0812c	8b 45 08	 mov	 eax, DWORD PTR _lpObj$[ebp]
  0812f	8b 88 bc 04 00
	00		 mov	 ecx, DWORD PTR [eax+1212]
  08135	89 4d 84	 mov	 DWORD PTR _nCritical$241061[ebp], ecx

; 4106 : 		// ----
; 4107 : 
; 4108 : 		if( gObjSearchActiveEffect(lpObj, 139) )

  08138	68 8b 00 00 00	 push	 139			; 0000008bH
  0813d	8b 45 08	 mov	 eax, DWORD PTR _lpObj$[ebp]
  08140	50		 push	 eax
  08141	e8 00 00 00 00	 call	 ?gObjSearchActiveEffect@@YAEPAUOBJECTSTRUCT@@H@Z ; gObjSearchActiveEffect
  08146	83 c4 08	 add	 esp, 8
  08149	0f b6 c8	 movzx	 ecx, al
  0814c	85 c9		 test	 ecx, ecx
  0814e	74 1a		 je	 SHORT $LN12@GetAttackD@2

; 4109 : 		{
; 4110 : 			float fValue = lpObj->m_MPSkillOpt.ukn_11C;

  08150	8b 45 08	 mov	 eax, DWORD PTR _lpObj$[ebp]
  08153	d9 80 30 27 00
	00		 fld	 DWORD PTR [eax+10032]
  08159	d9 5d 80	 fstp	 DWORD PTR _fValue$241063[ebp]

; 4111 : 			nCritical += fValue;

  0815c	db 45 84	 fild	 DWORD PTR _nCritical$241061[ebp]
  0815f	d8 45 80	 fadd	 DWORD PTR _fValue$241063[ebp]
  08162	e8 00 00 00 00	 call	 __ftol2_sse
  08167	89 45 84	 mov	 DWORD PTR _nCritical$241061[ebp], eax
$LN12@GetAttackD@2:

; 4112 : 		}
; 4113 : 
; 4114 : 		// ----
; 4115 : 		if( nCritical > 0 )

  0816a	83 7d 84 00	 cmp	 DWORD PTR _nCritical$241061[ebp], 0
  0816e	0f 8e b4 00 00
	00		 jle	 $LN7@GetAttackD@2

; 4116 : 
; 4117 : 		//if ( lpObj->m_CriticalDamage > 0 )
; 4118 : 		{
; 4119 : 			if ( (rand()%100) < nCritical )

  08174	e8 00 00 00 00	 call	 _rand
  08179	99		 cdq
  0817a	b9 64 00 00 00	 mov	 ecx, 100		; 00000064H
  0817f	f7 f9		 idiv	 ecx
  08181	3b 55 84	 cmp	 edx, DWORD PTR _nCritical$241061[ebp]
  08184	0f 8d 9e 00 00
	00		 jge	 $LN7@GetAttackD@2

; 4120 : 			{
; 4121 : 				if ( bIsOnDuel )

  0818a	83 7d 18 00	 cmp	 DWORD PTR _bIsOnDuel$[ebp], 0
  0818e	74 16		 je	 SHORT $LN9@GetAttackD@2

; 4122 : 				{
; 4123 : 					ad = damagemax * 60 / 100 - targetDefense;

  08190	8b 45 d8	 mov	 eax, DWORD PTR _damagemax$[ebp]
  08193	6b c0 3c	 imul	 eax, 60			; 0000003cH
  08196	99		 cdq
  08197	b9 64 00 00 00	 mov	 ecx, 100		; 00000064H
  0819c	f7 f9		 idiv	 ecx
  0819e	2b 45 0c	 sub	 eax, DWORD PTR _targetDefense$[ebp]
  081a1	89 45 d4	 mov	 DWORD PTR _ad$[ebp], eax

; 4124 : 				}
; 4125 : 				else

  081a4	eb 09		 jmp	 SHORT $LN8@GetAttackD@2
$LN9@GetAttackD@2:

; 4126 : 				{
; 4127 : 					ad = damagemax - targetDefense;

  081a6	8b 45 d8	 mov	 eax, DWORD PTR _damagemax$[ebp]
  081a9	2b 45 0c	 sub	 eax, DWORD PTR _targetDefense$[ebp]
  081ac	89 45 d4	 mov	 DWORD PTR _ad$[ebp], eax
$LN8@GetAttackD@2:

; 4128 : 				}
; 4129 : 
; 4130 : 				ad += lpObj->SetOpAddCriticalDamage;

  081af	8b 45 08	 mov	 eax, DWORD PTR _lpObj$[ebp]
  081b2	0f bf 88 2a 11
	00 00		 movsx	 ecx, WORD PTR [eax+4394]
  081b9	03 4d d4	 add	 ecx, DWORD PTR _ad$[ebp]
  081bc	89 4d d4	 mov	 DWORD PTR _ad$[ebp], ecx

; 4131 : 				ad += lpObj->m_JewelOfHarmonyEffect.HJOpAddCriticalDamage;

  081bf	8b 45 08	 mov	 eax, DWORD PTR _lpObj$[ebp]
  081c2	0f bf 88 e2 1f
	00 00		 movsx	 ecx, WORD PTR [eax+8162]
  081c9	03 4d d4	 add	 ecx, DWORD PTR _ad$[ebp]
  081cc	89 4d d4	 mov	 DWORD PTR _ad$[ebp], ecx

; 4132 : 
; 4133 : 				int SkillAddCriticalDamage = 0;

  081cf	c7 85 7c ff ff
	ff 00 00 00 00	 mov	 DWORD PTR _SkillAddCriticalDamage$241068[ebp], 0

; 4134 : 				gObjUpdateAppliedBuffEffect(lpObj, AT_INCREASE_CRITICAL_DMG, &SkillAddCriticalDamage, 0);

  081d9	6a 00		 push	 0
  081db	8d 85 7c ff ff
	ff		 lea	 eax, DWORD PTR _SkillAddCriticalDamage$241068[ebp]
  081e1	50		 push	 eax
  081e2	6a 05		 push	 5
  081e4	8b 4d 08	 mov	 ecx, DWORD PTR _lpObj$[ebp]
  081e7	51		 push	 ecx
  081e8	e8 00 00 00 00	 call	 ?gObjUpdateAppliedBuffEffect@@YAEPAUOBJECTSTRUCT@@HPAH1@Z ; gObjUpdateAppliedBuffEffect
  081ed	83 c4 10	 add	 esp, 16			; 00000010H

; 4135 : 				ad += SkillAddCriticalDamage;

  081f0	8b 45 d4	 mov	 eax, DWORD PTR _ad$[ebp]
  081f3	03 85 7c ff ff
	ff		 add	 eax, DWORD PTR _SkillAddCriticalDamage$241068[ebp]
  081f9	89 45 d4	 mov	 DWORD PTR _ad$[ebp], eax

; 4136 : 
; 4137 : 				effect = 3;

  081fc	8b 45 14	 mov	 eax, DWORD PTR _effect$[ebp]
  081ff	c6 00 03	 mov	 BYTE PTR [eax], 3

; 4138 : 
; 4139 : 				if(g_ExLicense.user.Rage)

  08202	0f b6 05 c9 00
	00 00		 movzx	 eax, BYTE PTR ?g_ExLicense@@3VCExLicense@@A+201
  08209	85 c0		 test	 eax, eax
  0820b	74 1b		 je	 SHORT $LN7@GetAttackD@2

; 4140 : 				{
; 4141 : 					gSystemOfRage.ExlCritDamage(lpObj->m_Index, effect, ad);

  0820d	8d 45 d4	 lea	 eax, DWORD PTR _ad$[ebp]
  08210	50		 push	 eax
  08211	8b 4d 14	 mov	 ecx, DWORD PTR _effect$[ebp]
  08214	0f b6 11	 movzx	 edx, BYTE PTR [ecx]
  08217	52		 push	 edx
  08218	8b 45 08	 mov	 eax, DWORD PTR _lpObj$[ebp]
  0821b	8b 08		 mov	 ecx, DWORD PTR [eax]
  0821d	51		 push	 ecx
  0821e	b9 00 00 00 00	 mov	 ecx, OFFSET ?gSystemOfRage@@3VcSystemOfRage@@A ; gSystemOfRage
  08223	e8 00 00 00 00	 call	 ?ExlCritDamage@cSystemOfRage@@QAEXHHAAH@Z ; cSystemOfRage::ExlCritDamage
$LN7@GetAttackD@2:

; 4142 : 				}
; 4143 : 			}
; 4144 : 		}
; 4145 : 
; 4146 : 		if ( lpObj->m_ExcelentDamage > 0 )

  08228	8b 45 08	 mov	 eax, DWORD PTR _lpObj$[ebp]
  0822b	83 b8 c0 04 00
	00 00		 cmp	 DWORD PTR [eax+1216], 0
  08232	0f 8e 8d 00 00
	00		 jle	 $LN2@GetAttackD@2

; 4147 : 		{
; 4148 : 			if ( (rand()%100) < lpObj->m_ExcelentDamage )

  08238	e8 00 00 00 00	 call	 _rand
  0823d	99		 cdq
  0823e	b9 64 00 00 00	 mov	 ecx, 100		; 00000064H
  08243	f7 f9		 idiv	 ecx
  08245	8b 45 08	 mov	 eax, DWORD PTR _lpObj$[ebp]
  08248	3b 90 c0 04 00
	00		 cmp	 edx, DWORD PTR [eax+1216]
  0824e	7d 75		 jge	 SHORT $LN2@GetAttackD@2

; 4149 : 			{
; 4150 : 				if ( bIsOnDuel )

  08250	83 7d 18 00	 cmp	 DWORD PTR _bIsOnDuel$[ebp], 0
  08254	74 16		 je	 SHORT $LN4@GetAttackD@2

; 4151 : 				{
; 4152 : 					ad = damagemax * 60 / 100 - targetDefense;

  08256	8b 45 d8	 mov	 eax, DWORD PTR _damagemax$[ebp]
  08259	6b c0 3c	 imul	 eax, 60			; 0000003cH
  0825c	99		 cdq
  0825d	b9 64 00 00 00	 mov	 ecx, 100		; 00000064H
  08262	f7 f9		 idiv	 ecx
  08264	2b 45 0c	 sub	 eax, DWORD PTR _targetDefense$[ebp]
  08267	89 45 d4	 mov	 DWORD PTR _ad$[ebp], eax

; 4153 : 				}
; 4154 : 				else

  0826a	eb 09		 jmp	 SHORT $LN3@GetAttackD@2
$LN4@GetAttackD@2:

; 4155 : 				{
; 4156 : 					ad = damagemax - targetDefense;

  0826c	8b 45 d8	 mov	 eax, DWORD PTR _damagemax$[ebp]
  0826f	2b 45 0c	 sub	 eax, DWORD PTR _targetDefense$[ebp]
  08272	89 45 d4	 mov	 DWORD PTR _ad$[ebp], eax
$LN3@GetAttackD@2:

; 4157 : 				}
; 4158 : 
; 4159 : 				ad += damagemax * 20 / 100;

  08275	8b 45 d8	 mov	 eax, DWORD PTR _damagemax$[ebp]
  08278	6b c0 14	 imul	 eax, 20			; 00000014H
  0827b	99		 cdq
  0827c	b9 64 00 00 00	 mov	 ecx, 100		; 00000064H
  08281	f7 f9		 idiv	 ecx
  08283	03 45 d4	 add	 eax, DWORD PTR _ad$[ebp]
  08286	89 45 d4	 mov	 DWORD PTR _ad$[ebp], eax

; 4160 : 				ad += lpObj->SetOpAddExDamage;

  08289	8b 45 08	 mov	 eax, DWORD PTR _lpObj$[ebp]
  0828c	0f bf 88 26 11
	00 00		 movsx	 ecx, WORD PTR [eax+4390]
  08293	03 4d d4	 add	 ecx, DWORD PTR _ad$[ebp]
  08296	89 4d d4	 mov	 DWORD PTR _ad$[ebp], ecx

; 4161 : 
; 4162 : 				effect = 2;

  08299	8b 45 14	 mov	 eax, DWORD PTR _effect$[ebp]
  0829c	c6 00 02	 mov	 BYTE PTR [eax], 2

; 4163 : 
; 4164 : 				if(g_ExLicense.user.Rage)

  0829f	0f b6 05 c9 00
	00 00		 movzx	 eax, BYTE PTR ?g_ExLicense@@3VCExLicense@@A+201
  082a6	85 c0		 test	 eax, eax
  082a8	74 1b		 je	 SHORT $LN2@GetAttackD@2

; 4165 : 				{
; 4166 : 					gSystemOfRage.ExlCritDamage(lpObj->m_Index, effect, ad);

  082aa	8d 45 d4	 lea	 eax, DWORD PTR _ad$[ebp]
  082ad	50		 push	 eax
  082ae	8b 4d 14	 mov	 ecx, DWORD PTR _effect$[ebp]
  082b1	0f b6 11	 movzx	 edx, BYTE PTR [ecx]
  082b4	52		 push	 edx
  082b5	8b 45 08	 mov	 eax, DWORD PTR _lpObj$[ebp]
  082b8	8b 08		 mov	 ecx, DWORD PTR [eax]
  082ba	51		 push	 ecx
  082bb	b9 00 00 00 00	 mov	 ecx, OFFSET ?gSystemOfRage@@3VcSystemOfRage@@A ; gSystemOfRage
  082c0	e8 00 00 00 00	 call	 ?ExlCritDamage@cSystemOfRage@@QAEXHHAAH@Z ; cSystemOfRage::ExlCritDamage
$LN2@GetAttackD@2:

; 4167 : 				}
; 4168 : 
; 4169 : 			}
; 4170 : 		}
; 4171 : 	}

  082c5	9b		 fwait
  082c6	c7 45 fc fe ff
	ff ff		 mov	 DWORD PTR __$SEHRec$[ebp+20], -2 ; fffffffeH
  082cd	eb 17		 jmp	 SHORT $LN40@GetAttackD@2
$LN37@GetAttackD@2:
$LN42@GetAttackD@2:

; 4172 : 	__except ( subd=1, 1 )

  082cf	c7 45 88 01 00
	00 00		 mov	 DWORD PTR _subd$[ebp], 1
  082d6	b8 01 00 00 00	 mov	 eax, 1
$LN39@GetAttackD@2:
$LN41@GetAttackD@2:
  082db	c3		 ret	 0
$LN38@GetAttackD@2:
  082dc	8b 65 e8	 mov	 esp, DWORD PTR __$SEHRec$[ebp]

; 4173 : 	{
; 4174 : 
; 4175 : 	}

  082df	c7 45 fc fe ff
	ff ff		 mov	 DWORD PTR __$SEHRec$[ebp+20], -2 ; fffffffeH
$LN40@GetAttackD@2:

; 4176 : 
; 4177 : 	int SkillAttack = 0;

  082e6	c7 85 78 ff ff
	ff 00 00 00 00	 mov	 DWORD PTR _SkillAttack$[ebp], 0

; 4178 : 
; 4179 : 	SkillAttack = gObjGetActiveEffect(lpObj, ADD_OPTION_ATTACK_DAMAGE);

  082f0	6a 02		 push	 2
  082f2	8b 45 08	 mov	 eax, DWORD PTR _lpObj$[ebp]
  082f5	50		 push	 eax
  082f6	e8 00 00 00 00	 call	 ?gObjGetActiveEffect@@YAHPAUOBJECTSTRUCT@@H@Z ; gObjGetActiveEffect
  082fb	83 c4 08	 add	 esp, 8
  082fe	89 85 78 ff ff
	ff		 mov	 DWORD PTR _SkillAttack$[ebp], eax

; 4180 : 	SkillAttack += gObjGetActiveEffect(lpObj, ADD_OPTION_WIZARDRY); //season4 fix

  08304	6a 0f		 push	 15			; 0000000fH
  08306	8b 45 08	 mov	 eax, DWORD PTR _lpObj$[ebp]
  08309	50		 push	 eax
  0830a	e8 00 00 00 00	 call	 ?gObjGetActiveEffect@@YAHPAUOBJECTSTRUCT@@H@Z ; gObjGetActiveEffect
  0830f	83 c4 08	 add	 esp, 8
  08312	03 85 78 ff ff
	ff		 add	 eax, DWORD PTR _SkillAttack$[ebp]
  08318	89 85 78 ff ff
	ff		 mov	 DWORD PTR _SkillAttack$[ebp], eax

; 4181 : 
; 4182 : 	ad += SkillAttack;

  0831e	8b 45 d4	 mov	 eax, DWORD PTR _ad$[ebp]
  08321	03 85 78 ff ff
	ff		 add	 eax, DWORD PTR _SkillAttack$[ebp]
  08327	89 45 d4	 mov	 DWORD PTR _ad$[ebp], eax

; 4183 : 
; 4184 : 	if ( lpObj->m_SkillAttack )

  0832a	8b 45 08	 mov	 eax, DWORD PTR _lpObj$[ebp]
  0832d	83 b8 24 04 00
	00 00		 cmp	 DWORD PTR [eax+1060], 0
  08334	74 09		 je	 SHORT $LN1@GetAttackD@2

; 4185 : 	{
; 4186 : 		ad += 10;

  08336	8b 45 d4	 mov	 eax, DWORD PTR _ad$[ebp]
  08339	83 c0 0a	 add	 eax, 10			; 0000000aH
  0833c	89 45 d4	 mov	 DWORD PTR _ad$[ebp], eax
$LN1@GetAttackD@2:

; 4187 : 	}
; 4188 : 
; 4189 : 	return ad;

  0833f	8b 45 d4	 mov	 eax, DWORD PTR _ad$[ebp]
$LN34@GetAttackD@2:

; 4190 : }

  08342	8b 4d f0	 mov	 ecx, DWORD PTR __$SEHRec$[ebp+8]
  08345	64 89 0d 00 00
	00 00		 mov	 DWORD PTR fs:0, ecx
  0834c	59		 pop	 ecx
  0834d	5f		 pop	 edi
  0834e	5e		 pop	 esi
  0834f	5b		 pop	 ebx
  08350	8b 4d e4	 mov	 ecx, DWORD PTR __$ArrayPad$[ebp]
  08353	33 cd		 xor	 ecx, ebp
  08355	e8 00 00 00 00	 call	 @__security_check_cookie@4
  0835a	8b e5		 mov	 esp, ebp
  0835c	5d		 pop	 ebp
  0835d	c2 14 00	 ret	 20			; 00000014H
?GetAttackDamageWizard@CObjAttack@@QAEHPAUOBJECTSTRUCT@@HPAVCMagicInf@@AAEH@Z ENDP ; CObjAttack::GetAttackDamageWizard
; Function compile flags: /Odtp /ZI
_Denorant$ = -4					; size = 4
_lpObj$ = 8						; size = 4
?gObjDenorantSprite@@YAHPAUOBJECTSTRUCT@@@Z PROC	; gObjDenorantSprite

; 4193 : {

  08360	55		 push	 ebp
  08361	8b ec		 mov	 ebp, esp
  08363	83 ec 44	 sub	 esp, 68			; 00000044H
  08366	53		 push	 ebx
  08367	56		 push	 esi
  08368	57		 push	 edi

; 4194 : 	if ( lpObj->Type != OBJ_USER )

  08369	8b 45 08	 mov	 eax, DWORD PTR _lpObj$[ebp]
  0836c	0f b7 48 68	 movzx	 ecx, WORD PTR [eax+104]
  08370	83 f9 01	 cmp	 ecx, 1
  08373	74 04		 je	 SHORT $LN4@gObjDenora

; 4195 : 	{
; 4196 : 		return FALSE;

  08375	33 c0		 xor	 eax, eax
  08377	eb 59		 jmp	 SHORT $LN5@gObjDenora
$LN4@gObjDenora:

; 4197 : 	}
; 4198 : 
; 4199 : 	if ( lpObj->pInventory[8].IsItem() == FALSE )

  08379	8b 45 08	 mov	 eax, DWORD PTR _lpObj$[ebp]
  0837c	8b 88 24 0e 00
	00		 mov	 ecx, DWORD PTR [eax+3620]
  08382	81 c1 a0 06 00
	00		 add	 ecx, 1696		; 000006a0H
  08388	e8 00 00 00 00	 call	 ?IsItem@CItem@@QAEHXZ	; CItem::IsItem
  0838d	85 c0		 test	 eax, eax
  0838f	75 04		 jne	 SHORT $LN3@gObjDenora

; 4200 : 	{
; 4201 : 		return FALSE;

  08391	33 c0		 xor	 eax, eax
  08393	eb 3d		 jmp	 SHORT $LN5@gObjDenora
$LN3@gObjDenora:

; 4202 : 	}
; 4203 : 
; 4204 : 	CItem * Denorant = & lpObj->pInventory[8];

  08395	8b 45 08	 mov	 eax, DWORD PTR _lpObj$[ebp]
  08398	8b 88 24 0e 00
	00		 mov	 ecx, DWORD PTR [eax+3620]
  0839e	81 c1 a0 06 00
	00		 add	 ecx, 1696		; 000006a0H
  083a4	89 4d fc	 mov	 DWORD PTR _Denorant$[ebp], ecx

; 4205 : 
; 4206 : 	if ( Denorant->m_Type == ITEMGET(13,3) )

  083a7	8b 45 fc	 mov	 eax, DWORD PTR _Denorant$[ebp]
  083aa	0f bf 48 06	 movsx	 ecx, WORD PTR [eax+6]
  083ae	81 f9 03 1a 00
	00		 cmp	 ecx, 6659		; 00001a03H
  083b4	75 1a		 jne	 SHORT $LN1@gObjDenora

; 4207 : 	{
; 4208 : 		if ( Denorant->m_Durability > 0.0f )

  083b6	8b 45 fc	 mov	 eax, DWORD PTR _Denorant$[ebp]
  083b9	d9 40 24	 fld	 DWORD PTR [eax+36]
  083bc	dc 1d 00 00 00
	00		 fcomp	 QWORD PTR __real@0000000000000000
  083c2	df e0		 fnstsw	 ax
  083c4	f6 c4 41	 test	 ah, 65			; 00000041H
  083c7	75 07		 jne	 SHORT $LN1@gObjDenora

; 4209 : 		{
; 4210 : 			return TRUE;

  083c9	b8 01 00 00 00	 mov	 eax, 1
  083ce	eb 02		 jmp	 SHORT $LN5@gObjDenora
$LN1@gObjDenora:

; 4211 : 		}
; 4212 : 	}
; 4213 : 
; 4214 : 	return FALSE;

  083d0	33 c0		 xor	 eax, eax
$LN5@gObjDenora:

; 4215 : }

  083d2	5f		 pop	 edi
  083d3	5e		 pop	 esi
  083d4	5b		 pop	 ebx
  083d5	8b e5		 mov	 esp, ebp
  083d7	5d		 pop	 ebp
  083d8	c3		 ret	 0
?gObjDenorantSprite@@YAHPAUOBJECTSTRUCT@@@Z ENDP	; gObjDenorantSprite
; Function compile flags: /Odtp /ZI
_Denorant$ = -4					; size = 4
_lpObj$ = 8						; size = 4
?gObjDarkHorse@@YAHPAUOBJECTSTRUCT@@@Z PROC		; gObjDarkHorse

; 4218 : {

  083e0	55		 push	 ebp
  083e1	8b ec		 mov	 ebp, esp
  083e3	83 ec 44	 sub	 esp, 68			; 00000044H
  083e6	53		 push	 ebx
  083e7	56		 push	 esi
  083e8	57		 push	 edi

; 4219 : 	if ( lpObj->Type != OBJ_USER )

  083e9	8b 45 08	 mov	 eax, DWORD PTR _lpObj$[ebp]
  083ec	0f b7 48 68	 movzx	 ecx, WORD PTR [eax+104]
  083f0	83 f9 01	 cmp	 ecx, 1
  083f3	74 04		 je	 SHORT $LN4@gObjDarkHo

; 4220 : 	{
; 4221 : 		return FALSE;

  083f5	33 c0		 xor	 eax, eax
  083f7	eb 59		 jmp	 SHORT $LN5@gObjDarkHo
$LN4@gObjDarkHo:

; 4222 : 	}
; 4223 : 
; 4224 : 	if ( lpObj->pInventory[8].IsItem() == FALSE )

  083f9	8b 45 08	 mov	 eax, DWORD PTR _lpObj$[ebp]
  083fc	8b 88 24 0e 00
	00		 mov	 ecx, DWORD PTR [eax+3620]
  08402	81 c1 a0 06 00
	00		 add	 ecx, 1696		; 000006a0H
  08408	e8 00 00 00 00	 call	 ?IsItem@CItem@@QAEHXZ	; CItem::IsItem
  0840d	85 c0		 test	 eax, eax
  0840f	75 04		 jne	 SHORT $LN3@gObjDarkHo

; 4225 : 	{
; 4226 : 		return FALSE;

  08411	33 c0		 xor	 eax, eax
  08413	eb 3d		 jmp	 SHORT $LN5@gObjDarkHo
$LN3@gObjDarkHo:

; 4227 : 	}
; 4228 : 
; 4229 : 	CItem * Denorant = & lpObj->pInventory[8];

  08415	8b 45 08	 mov	 eax, DWORD PTR _lpObj$[ebp]
  08418	8b 88 24 0e 00
	00		 mov	 ecx, DWORD PTR [eax+3620]
  0841e	81 c1 a0 06 00
	00		 add	 ecx, 1696		; 000006a0H
  08424	89 4d fc	 mov	 DWORD PTR _Denorant$[ebp], ecx

; 4230 : 
; 4231 : 	if ( Denorant->m_Type == ITEMGET(13,4) )

  08427	8b 45 fc	 mov	 eax, DWORD PTR _Denorant$[ebp]
  0842a	0f bf 48 06	 movsx	 ecx, WORD PTR [eax+6]
  0842e	81 f9 04 1a 00
	00		 cmp	 ecx, 6660		; 00001a04H
  08434	75 1a		 jne	 SHORT $LN1@gObjDarkHo

; 4232 : 	{
; 4233 : 		if ( Denorant->m_Durability > 0.0f )

  08436	8b 45 fc	 mov	 eax, DWORD PTR _Denorant$[ebp]
  08439	d9 40 24	 fld	 DWORD PTR [eax+36]
  0843c	dc 1d 00 00 00
	00		 fcomp	 QWORD PTR __real@0000000000000000
  08442	df e0		 fnstsw	 ax
  08444	f6 c4 41	 test	 ah, 65			; 00000041H
  08447	75 07		 jne	 SHORT $LN1@gObjDarkHo

; 4234 : 		{
; 4235 : 			return TRUE;

  08449	b8 01 00 00 00	 mov	 eax, 1
  0844e	eb 02		 jmp	 SHORT $LN5@gObjDarkHo
$LN1@gObjDarkHo:

; 4236 : 		}
; 4237 : 	}
; 4238 : 
; 4239 : 	return FALSE;

  08450	33 c0		 xor	 eax, eax
$LN5@gObjDarkHo:

; 4240 : }

  08452	5f		 pop	 edi
  08453	5e		 pop	 esi
  08454	5b		 pop	 ebx
  08455	8b e5		 mov	 esp, ebp
  08457	5d		 pop	 ebp
  08458	c3		 ret	 0
?gObjDarkHorse@@YAHPAUOBJECTSTRUCT@@@Z ENDP		; gObjDarkHorse
; Function compile flags: /Odtp /ZI
_lpFenrir$ = -4					; size = 4
_lpObj$ = 8						; size = 4
?gObjFenrir@@YAHPAUOBJECTSTRUCT@@@Z PROC		; gObjFenrir

; 4243 : {

  08460	55		 push	 ebp
  08461	8b ec		 mov	 ebp, esp
  08463	83 ec 44	 sub	 esp, 68			; 00000044H
  08466	53		 push	 ebx
  08467	56		 push	 esi
  08468	57		 push	 edi

; 4244 : 	if ( lpObj->Type != OBJ_USER )

  08469	8b 45 08	 mov	 eax, DWORD PTR _lpObj$[ebp]
  0846c	0f b7 48 68	 movzx	 ecx, WORD PTR [eax+104]
  08470	83 f9 01	 cmp	 ecx, 1
  08473	74 04		 je	 SHORT $LN4@gObjFenrir

; 4245 : 	{
; 4246 : 		return FALSE;

  08475	33 c0		 xor	 eax, eax
  08477	eb 59		 jmp	 SHORT $LN5@gObjFenrir
$LN4@gObjFenrir:

; 4247 : 	}
; 4248 : 
; 4249 : 	if ( lpObj->pInventory[8].IsItem() == FALSE )

  08479	8b 45 08	 mov	 eax, DWORD PTR _lpObj$[ebp]
  0847c	8b 88 24 0e 00
	00		 mov	 ecx, DWORD PTR [eax+3620]
  08482	81 c1 a0 06 00
	00		 add	 ecx, 1696		; 000006a0H
  08488	e8 00 00 00 00	 call	 ?IsItem@CItem@@QAEHXZ	; CItem::IsItem
  0848d	85 c0		 test	 eax, eax
  0848f	75 04		 jne	 SHORT $LN3@gObjFenrir

; 4250 : 	{
; 4251 : 		return FALSE;

  08491	33 c0		 xor	 eax, eax
  08493	eb 3d		 jmp	 SHORT $LN5@gObjFenrir
$LN3@gObjFenrir:

; 4252 : 	}
; 4253 : 
; 4254 : 	CItem * lpFenrir = & lpObj->pInventory[8];

  08495	8b 45 08	 mov	 eax, DWORD PTR _lpObj$[ebp]
  08498	8b 88 24 0e 00
	00		 mov	 ecx, DWORD PTR [eax+3620]
  0849e	81 c1 a0 06 00
	00		 add	 ecx, 1696		; 000006a0H
  084a4	89 4d fc	 mov	 DWORD PTR _lpFenrir$[ebp], ecx

; 4255 : 
; 4256 : 	if ( lpFenrir->m_Type == ITEMGET(13,37) )

  084a7	8b 45 fc	 mov	 eax, DWORD PTR _lpFenrir$[ebp]
  084aa	0f bf 48 06	 movsx	 ecx, WORD PTR [eax+6]
  084ae	81 f9 25 1a 00
	00		 cmp	 ecx, 6693		; 00001a25H
  084b4	75 1a		 jne	 SHORT $LN1@gObjFenrir

; 4257 : 	{
; 4258 : 		if ( lpFenrir->m_Durability > 0.0f )

  084b6	8b 45 fc	 mov	 eax, DWORD PTR _lpFenrir$[ebp]
  084b9	d9 40 24	 fld	 DWORD PTR [eax+36]
  084bc	dc 1d 00 00 00
	00		 fcomp	 QWORD PTR __real@0000000000000000
  084c2	df e0		 fnstsw	 ax
  084c4	f6 c4 41	 test	 ah, 65			; 00000041H
  084c7	75 07		 jne	 SHORT $LN1@gObjFenrir

; 4259 : 		{
; 4260 : 			return TRUE;

  084c9	b8 01 00 00 00	 mov	 eax, 1
  084ce	eb 02		 jmp	 SHORT $LN5@gObjFenrir
$LN1@gObjFenrir:

; 4261 : 		}
; 4262 : 	}
; 4263 : 
; 4264 : 	return FALSE;

  084d0	33 c0		 xor	 eax, eax
$LN5@gObjFenrir:

; 4265 : }

  084d2	5f		 pop	 edi
  084d3	5e		 pop	 esi
  084d4	5b		 pop	 ebx
  084d5	8b e5		 mov	 esp, ebp
  084d7	5d		 pop	 ebp
  084d8	c3		 ret	 0
?gObjFenrir@@YAHPAUOBJECTSTRUCT@@@Z ENDP		; gObjFenrir
_TEXT	ENDS
PUBLIC	__real@4034000000000000
PUBLIC	??_C@_0IE@HMIJIHBA@?$FLJewelOfHarmony?$FN?$FLPvP?5System?$FN?5Att@ ; `string'
EXTRN	?GCSendEffectInfo@@YAXHE@Z:PROC			; GCSendEffectInfo
EXTRN	?g_iDamageDevideToSDRate@@3HA:DWORD		; g_iDamageDevideToSDRate
;	COMDAT __real@4034000000000000
CONST	SEGMENT
__real@4034000000000000 DQ 04034000000000000r	; 20
CONST	ENDS
;	COMDAT ??_C@_0IE@HMIJIHBA@?$FLJewelOfHarmony?$FN?$FLPvP?5System?$FN?5Att@
CONST	SEGMENT
??_C@_0IE@HMIJIHBA@?$FLJewelOfHarmony?$FN?$FLPvP?5System?$FN?5Att@ DB '[J'
	DB	'ewelOfHarmony][PvP System] Attacker:[%s][%s]-SD Decrease[%d] '
	DB	'SD Ignore[%d] Defender:[%s][%s] SD Increase Option[%d] - SD R'
	DB	'ate[%d]', 00H				; `string'
; Function compile flags: /Odtp /ZI
CONST	ENDS
_TEXT	SEGMENT
tv188 = -104						; size = 4
tv189 = -100						; size = 4
_iRand$241118 = -32					; size = 4
_iDamageDevideToSDRate$ = -28				; size = 4
_bReduceShieldGage$ = -21				; size = 1
_iReduceLifeForEffect$ = -20				; size = 4
_iReduceShield$ = -16					; size = 4
_iReduceLife$ = -12					; size = 4
_iShieldDamage$ = -8					; size = 4
_this$ = -4						; size = 4
_lpObj$ = 8						; size = 4
_lpTargetObj$ = 12					; size = 4
_iAttackDamage$ = 16					; size = 4
?GetShieldDamage@CObjAttack@@QAEHPAUOBJECTSTRUCT@@0H@Z PROC ; CObjAttack::GetShieldDamage
; _this$ = ecx

; 4268 : {

  084e0	55		 push	 ebp
  084e1	8b ec		 mov	 ebp, esp
  084e3	83 ec 68	 sub	 esp, 104		; 00000068H
  084e6	53		 push	 ebx
  084e7	56		 push	 esi
  084e8	57		 push	 edi
  084e9	89 4d fc	 mov	 DWORD PTR _this$[ebp], ecx

; 4269 : 	int iShieldDamage = 0;

  084ec	c7 45 f8 00 00
	00 00		 mov	 DWORD PTR _iShieldDamage$[ebp], 0

; 4270 : 
; 4271 : 	if ( g_ShieldSystemOn == FALSE )

  084f3	83 3d 00 00 00
	00 00		 cmp	 DWORD PTR ?g_ShieldSystemOn@@3HA, 0 ; g_ShieldSystemOn
  084fa	75 07		 jne	 SHORT $LN12@GetShieldD

; 4272 : 		return 0;

  084fc	33 c0		 xor	 eax, eax
  084fe	e9 05 02 00 00	 jmp	 $LN13@GetShieldD
$LN12@GetShieldD:

; 4273 : 
; 4274 : 	if ( iAttackDamage <= 0 )

  08503	83 7d 10 00	 cmp	 DWORD PTR _iAttackDamage$[ebp], 0
  08507	7f 07		 jg	 SHORT $LN11@GetShieldD

; 4275 : 		return 0;

  08509	33 c0		 xor	 eax, eax
  0850b	e9 f8 01 00 00	 jmp	 $LN13@GetShieldD
$LN11@GetShieldD:

; 4276 : 
; 4277 : 	int iReduceLife = 0;

  08510	c7 45 f4 00 00
	00 00		 mov	 DWORD PTR _iReduceLife$[ebp], 0

; 4278 : 	int iReduceShield = 0;

  08517	c7 45 f0 00 00
	00 00		 mov	 DWORD PTR _iReduceShield$[ebp], 0

; 4279 : 	int iReduceLifeForEffect = 0; 

  0851e	c7 45 ec 00 00
	00 00		 mov	 DWORD PTR _iReduceLifeForEffect$[ebp], 0

; 4280 : 	bool bReduceShieldGage = 0;

  08525	c6 45 eb 00	 mov	 BYTE PTR _bReduceShieldGage$[ebp], 0

; 4281 : 	int iDamageDevideToSDRate = g_iDamageDevideToSDRate;

  08529	a1 00 00 00 00	 mov	 eax, DWORD PTR ?g_iDamageDevideToSDRate@@3HA ; g_iDamageDevideToSDRate
  0852e	89 45 e4	 mov	 DWORD PTR _iDamageDevideToSDRate$[ebp], eax

; 4282 : 	iDamageDevideToSDRate -= lpObj->m_JewelOfHarmonyEffect.HJOpDecreaseSDRate;

  08531	8b 45 08	 mov	 eax, DWORD PTR _lpObj$[ebp]
  08534	0f bf 88 e8 1f
	00 00		 movsx	 ecx, WORD PTR [eax+8168]
  0853b	8b 55 e4	 mov	 edx, DWORD PTR _iDamageDevideToSDRate$[ebp]
  0853e	2b d1		 sub	 edx, ecx
  08540	89 55 e4	 mov	 DWORD PTR _iDamageDevideToSDRate$[ebp], edx

; 4283 : 	iDamageDevideToSDRate += lpTargetObj->m_JewelOfHarmonyEffect.HJOpAddSDRate;

  08543	8b 45 0c	 mov	 eax, DWORD PTR _lpTargetObj$[ebp]
  08546	0f bf 88 fc 1f
	00 00		 movsx	 ecx, WORD PTR [eax+8188]
  0854d	03 4d e4	 add	 ecx, DWORD PTR _iDamageDevideToSDRate$[ebp]
  08550	89 4d e4	 mov	 DWORD PTR _iDamageDevideToSDRate$[ebp], ecx

; 4284 : 
; 4285 : 	if ( iDamageDevideToSDRate < 0 )

  08553	79 07		 jns	 SHORT $LN10@GetShieldD

; 4286 : 		iDamageDevideToSDRate = 0;

  08555	c7 45 e4 00 00
	00 00		 mov	 DWORD PTR _iDamageDevideToSDRate$[ebp], 0
$LN10@GetShieldD:

; 4287 : 
; 4288 : 	if ( iDamageDevideToSDRate > 100 )

  0855c	83 7d e4 64	 cmp	 DWORD PTR _iDamageDevideToSDRate$[ebp], 100 ; 00000064H
  08560	7e 07		 jle	 SHORT $LN9@GetShieldD

; 4289 : 		iDamageDevideToSDRate = 100;

  08562	c7 45 e4 64 00
	00 00		 mov	 DWORD PTR _iDamageDevideToSDRate$[ebp], 100 ; 00000064H
$LN9@GetShieldD:

; 4290 : 
; 4291 : 	if ( lpObj->m_JewelOfHarmonyEffect.HJOpAddIgnoreSDRate > 0 )

  08569	8b 45 08	 mov	 eax, DWORD PTR _lpObj$[ebp]
  0856c	0f bf 88 ea 1f
	00 00		 movsx	 ecx, WORD PTR [eax+8170]
  08573	85 c9		 test	 ecx, ecx
  08575	7e 26		 jle	 SHORT $LN7@GetShieldD

; 4292 : 	{
; 4293 : 		int iRand = rand()%100;

  08577	e8 00 00 00 00	 call	 _rand
  0857c	99		 cdq
  0857d	b9 64 00 00 00	 mov	 ecx, 100		; 00000064H
  08582	f7 f9		 idiv	 ecx
  08584	89 55 e0	 mov	 DWORD PTR _iRand$241118[ebp], edx

; 4294 : 
; 4295 : 		if ( iRand < lpObj->m_JewelOfHarmonyEffect.HJOpAddIgnoreSDRate )

  08587	8b 45 08	 mov	 eax, DWORD PTR _lpObj$[ebp]
  0858a	0f bf 88 ea 1f
	00 00		 movsx	 ecx, WORD PTR [eax+8170]
  08591	39 4d e0	 cmp	 DWORD PTR _iRand$241118[ebp], ecx
  08594	7d 07		 jge	 SHORT $LN7@GetShieldD

; 4296 : 		{
; 4297 : 			iDamageDevideToSDRate = 0;

  08596	c7 45 e4 00 00
	00 00		 mov	 DWORD PTR _iDamageDevideToSDRate$[ebp], 0
$LN7@GetShieldD:

; 4298 : 		}
; 4299 : 	}
; 4300 : 
; 4301 : 	if ( lpObj->m_JewelOfHarmonyEffect.HJOpDecreaseSDRate ||
; 4302 : 		 lpTargetObj->m_JewelOfHarmonyEffect.HJOpAddSDRate ||
; 4303 : 		 lpObj->m_JewelOfHarmonyEffect.HJOpAddIgnoreSDRate )

  0859d	8b 45 08	 mov	 eax, DWORD PTR _lpObj$[ebp]
  085a0	0f bf 88 e8 1f
	00 00		 movsx	 ecx, WORD PTR [eax+8168]
  085a7	85 c9		 test	 ecx, ecx
  085a9	75 1c		 jne	 SHORT $LN5@GetShieldD
  085ab	8b 45 0c	 mov	 eax, DWORD PTR _lpTargetObj$[ebp]
  085ae	0f bf 88 fc 1f
	00 00		 movsx	 ecx, WORD PTR [eax+8188]
  085b5	85 c9		 test	 ecx, ecx
  085b7	75 0e		 jne	 SHORT $LN5@GetShieldD
  085b9	8b 45 08	 mov	 eax, DWORD PTR _lpObj$[ebp]
  085bc	0f bf 88 ea 1f
	00 00		 movsx	 ecx, WORD PTR [eax+8170]
  085c3	85 c9		 test	 ecx, ecx
  085c5	74 4f		 je	 SHORT $LN6@GetShieldD
$LN5@GetShieldD:

; 4304 : 	{
; 4305 : 		LogAddTD("[JewelOfHarmony][PvP System] Attacker:[%s][%s]-SD Decrease[%d] SD Ignore[%d] Defender:[%s][%s] SD Increase Option[%d] - SD Rate[%d]",
; 4306 : 			lpObj->AccountID, lpObj->Name,
; 4307 : 			lpObj->m_JewelOfHarmonyEffect.HJOpDecreaseSDRate,
; 4308 : 			lpObj->m_JewelOfHarmonyEffect.HJOpAddIgnoreSDRate,
; 4309 : 			lpTargetObj->AccountID, lpTargetObj->Name,
; 4310 : 			lpTargetObj->m_JewelOfHarmonyEffect.HJOpAddSDRate,
; 4311 : 			iDamageDevideToSDRate);

  085c7	8b 45 e4	 mov	 eax, DWORD PTR _iDamageDevideToSDRate$[ebp]
  085ca	50		 push	 eax
  085cb	8b 4d 0c	 mov	 ecx, DWORD PTR _lpTargetObj$[ebp]
  085ce	0f bf 91 fc 1f
	00 00		 movsx	 edx, WORD PTR [ecx+8188]
  085d5	52		 push	 edx
  085d6	8b 45 0c	 mov	 eax, DWORD PTR _lpTargetObj$[ebp]
  085d9	83 c0 77	 add	 eax, 119		; 00000077H
  085dc	50		 push	 eax
  085dd	8b 4d 0c	 mov	 ecx, DWORD PTR _lpTargetObj$[ebp]
  085e0	83 c1 6c	 add	 ecx, 108		; 0000006cH
  085e3	51		 push	 ecx
  085e4	8b 55 08	 mov	 edx, DWORD PTR _lpObj$[ebp]
  085e7	0f bf 82 ea 1f
	00 00		 movsx	 eax, WORD PTR [edx+8170]
  085ee	50		 push	 eax
  085ef	8b 4d 08	 mov	 ecx, DWORD PTR _lpObj$[ebp]
  085f2	0f bf 91 e8 1f
	00 00		 movsx	 edx, WORD PTR [ecx+8168]
  085f9	52		 push	 edx
  085fa	8b 45 08	 mov	 eax, DWORD PTR _lpObj$[ebp]
  085fd	83 c0 77	 add	 eax, 119		; 00000077H
  08600	50		 push	 eax
  08601	8b 4d 08	 mov	 ecx, DWORD PTR _lpObj$[ebp]
  08604	83 c1 6c	 add	 ecx, 108		; 0000006cH
  08607	51		 push	 ecx
  08608	68 00 00 00 00	 push	 OFFSET ??_C@_0IE@HMIJIHBA@?$FLJewelOfHarmony?$FN?$FLPvP?5System?$FN?5Att@
  0860d	ff 15 00 00 00
	00		 call	 DWORD PTR ?LogAddTD@@3P6AXPADZZA ; LogAddTD
  08613	83 c4 24	 add	 esp, 36			; 00000024H
$LN6@GetShieldD:

; 4312 : 	}
; 4313 : 
; 4314 : 	iReduceShield = iAttackDamage * iDamageDevideToSDRate / 100;

  08616	8b 45 10	 mov	 eax, DWORD PTR _iAttackDamage$[ebp]
  08619	0f af 45 e4	 imul	 eax, DWORD PTR _iDamageDevideToSDRate$[ebp]
  0861d	99		 cdq
  0861e	b9 64 00 00 00	 mov	 ecx, 100		; 00000064H
  08623	f7 f9		 idiv	 ecx
  08625	89 45 f0	 mov	 DWORD PTR _iReduceShield$[ebp], eax

; 4315 : 	iReduceLife = iAttackDamage - iReduceShield;

  08628	8b 45 10	 mov	 eax, DWORD PTR _iAttackDamage$[ebp]
  0862b	2b 45 f0	 sub	 eax, DWORD PTR _iReduceShield$[ebp]
  0862e	89 45 f4	 mov	 DWORD PTR _iReduceLife$[ebp], eax

; 4316 : 
; 4317 : 	if ( (lpTargetObj->iShield-iReduceShield) <0 )

  08631	8b 45 0c	 mov	 eax, DWORD PTR _lpTargetObj$[ebp]
  08634	8b 88 54 01 00
	00		 mov	 ecx, DWORD PTR [eax+340]
  0863a	2b 4d f0	 sub	 ecx, DWORD PTR _iReduceShield$[ebp]
  0863d	79 2e		 jns	 SHORT $LN3@GetShieldD

; 4318 : 	{
; 4319 : 		iReduceLife += iReduceShield  - lpTargetObj->iShield;

  0863f	8b 45 0c	 mov	 eax, DWORD PTR _lpTargetObj$[ebp]
  08642	8b 4d f0	 mov	 ecx, DWORD PTR _iReduceShield$[ebp]
  08645	2b 88 54 01 00
	00		 sub	 ecx, DWORD PTR [eax+340]
  0864b	03 4d f4	 add	 ecx, DWORD PTR _iReduceLife$[ebp]
  0864e	89 4d f4	 mov	 DWORD PTR _iReduceLife$[ebp], ecx

; 4320 : 		iReduceShield = lpTargetObj->iShield;

  08651	8b 45 0c	 mov	 eax, DWORD PTR _lpTargetObj$[ebp]
  08654	8b 88 54 01 00
	00		 mov	 ecx, DWORD PTR [eax+340]
  0865a	89 4d f0	 mov	 DWORD PTR _iReduceShield$[ebp], ecx

; 4321 : 
; 4322 : 		if ( lpTargetObj->iShield > 0 )

  0865d	8b 45 0c	 mov	 eax, DWORD PTR _lpTargetObj$[ebp]
  08660	83 b8 54 01 00
	00 00		 cmp	 DWORD PTR [eax+340], 0
  08667	7e 04		 jle	 SHORT $LN3@GetShieldD

; 4323 : 		{
; 4324 : 			bReduceShieldGage = true;

  08669	c6 45 eb 01	 mov	 BYTE PTR _bReduceShieldGage$[ebp], 1
$LN3@GetShieldD:

; 4325 : 		}
; 4326 : 	}
; 4327 : 
; 4328 : 	iReduceLifeForEffect = (int)(( lpTargetObj->MaxLife + lpTargetObj->AddLife ) * 20.0f / 100.0f);

  0866d	8b 45 0c	 mov	 eax, DWORD PTR _lpTargetObj$[ebp]
  08670	db 80 4c 01 00
	00		 fild	 DWORD PTR [eax+332]
  08676	8b 4d 0c	 mov	 ecx, DWORD PTR _lpTargetObj$[ebp]
  08679	d8 81 00 01 00
	00		 fadd	 DWORD PTR [ecx+256]
  0867f	dc 0d 00 00 00
	00		 fmul	 QWORD PTR __real@4034000000000000
  08685	dc 35 00 00 00
	00		 fdiv	 QWORD PTR __real@4059000000000000
  0868b	e8 00 00 00 00	 call	 __ftol2_sse
  08690	89 45 ec	 mov	 DWORD PTR _iReduceLifeForEffect$[ebp], eax

; 4329 : 
; 4330 : 	if ( bReduceShieldGage == true && iReduceLife > iReduceLifeForEffect )

  08693	0f b6 45 eb	 movzx	 eax, BYTE PTR _bReduceShieldGage$[ebp]
  08697	83 f8 01	 cmp	 eax, 1
  0869a	75 69		 jne	 SHORT $LN1@GetShieldD
  0869c	8b 45 f4	 mov	 eax, DWORD PTR _iReduceLife$[ebp]
  0869f	3b 45 ec	 cmp	 eax, DWORD PTR _iReduceLifeForEffect$[ebp]
  086a2	7e 61		 jle	 SHORT $LN1@GetShieldD

; 4331 : 	{
; 4332 : 		if ( !CC_MAP_RANGE(lpTargetObj->MapNumber) )

  086a4	8b 45 0c	 mov	 eax, DWORD PTR _lpTargetObj$[ebp]
  086a7	0f b6 88 49 01
	00 00		 movzx	 ecx, BYTE PTR [eax+329]
  086ae	83 f9 35	 cmp	 ecx, 53			; 00000035H
  086b1	75 09		 jne	 SHORT $LN17@GetShieldD
  086b3	c7 45 9c 01 00
	00 00		 mov	 DWORD PTR tv189[ebp], 1
  086ba	eb 33		 jmp	 SHORT $LN18@GetShieldD
$LN17@GetShieldD:
  086bc	8b 55 0c	 mov	 edx, DWORD PTR _lpTargetObj$[ebp]
  086bf	0f b6 82 49 01
	00 00		 movzx	 eax, BYTE PTR [edx+329]
  086c6	83 f8 12	 cmp	 eax, 18			; 00000012H
  086c9	7d 09		 jge	 SHORT $LN15@GetShieldD
  086cb	c7 45 98 00 00
	00 00		 mov	 DWORD PTR tv188[ebp], 0
  086d2	eb 15		 jmp	 SHORT $LN16@GetShieldD
$LN15@GetShieldD:
  086d4	8b 4d 0c	 mov	 ecx, DWORD PTR _lpTargetObj$[ebp]
  086d7	0f b6 91 49 01
	00 00		 movzx	 edx, BYTE PTR [ecx+329]
  086de	33 c0		 xor	 eax, eax
  086e0	83 fa 17	 cmp	 edx, 23			; 00000017H
  086e3	0f 9e c0	 setle	 al
  086e6	89 45 98	 mov	 DWORD PTR tv188[ebp], eax
$LN16@GetShieldD:
  086e9	8b 4d 98	 mov	 ecx, DWORD PTR tv188[ebp]
  086ec	89 4d 9c	 mov	 DWORD PTR tv189[ebp], ecx
$LN18@GetShieldD:
  086ef	83 7d 9c 00	 cmp	 DWORD PTR tv189[ebp], 0
  086f3	75 10		 jne	 SHORT $LN1@GetShieldD

; 4333 : 		{
; 4334 : 			GCSendEffectInfo(lpTargetObj->m_Index, 17);

  086f5	6a 11		 push	 17			; 00000011H
  086f7	8b 45 0c	 mov	 eax, DWORD PTR _lpTargetObj$[ebp]
  086fa	8b 08		 mov	 ecx, DWORD PTR [eax]
  086fc	51		 push	 ecx
  086fd	e8 00 00 00 00	 call	 ?GCSendEffectInfo@@YAXHE@Z ; GCSendEffectInfo
  08702	83 c4 08	 add	 esp, 8
$LN1@GetShieldD:

; 4335 : 		}
; 4336 : 	}
; 4337 : 
; 4338 : 	return iReduceShield;

  08705	8b 45 f0	 mov	 eax, DWORD PTR _iReduceShield$[ebp]
$LN13@GetShieldD:

; 4339 : }

  08708	5f		 pop	 edi
  08709	5e		 pop	 esi
  0870a	5b		 pop	 ebx
  0870b	8b e5		 mov	 esp, ebp
  0870d	5d		 pop	 ebp
  0870e	c2 0c 00	 ret	 12			; 0000000cH
?GetShieldDamage@CObjAttack@@QAEHPAUOBJECTSTRUCT@@0H@Z ENDP ; CObjAttack::GetShieldDamage
_TEXT	ENDS
EXTRN	?GetSkillAttackDamage@CMasterLevelSkillTreeSystem@@QAEMPAUOBJECTSTRUCT@@H@Z:PROC ; CMasterLevelSkillTreeSystem::GetSkillAttackDamage
xdata$x	SEGMENT
	ORG $+4
__sehtable$?GetAttackDamageSummoner@CObjAttack@@QAEHPAUOBJECTSTRUCT@@HPAVCMagicInf@@AAEH@Z DD 0fffffffeH
	DD	00H
	DD	0ffffff38H
	DD	00H
	DD	0fffffffeH
	DD	FLAT:$LN46@GetAttackD@3
	DD	FLAT:$LN47@GetAttackD@3
; Function compile flags: /Odtp /ZI
xdata$x	ENDS
_TEXT	SEGMENT
tv865 = -184						; size = 4
tv702 = -184						; size = 4
tv863 = -180						; size = 4
tv700 = -180						; size = 4
tv801 = -176						; size = 4
tv794 = -176						; size = 4
tv791 = -176						; size = 4
tv777 = -176						; size = 4
tv758 = -176						; size = 4
tv749 = -176						; size = 4
tv735 = -176						; size = 4
tv655 = -176						; size = 4
tv648 = -176						; size = 4
tv645 = -176						; size = 4
tv632 = -176						; size = 4
tv612 = -176						; size = 4
tv603 = -176						; size = 4
tv590 = -176						; size = 4
tv69 = -176						; size = 4
tv860 = -174						; size = 2
tv697 = -174						; size = 2
_SkillAddCriticalDamage$241215 = -108			; size = 4
_subd$ = -104						; size = 4
_SkillAttr$ = -100					; size = 4
_damage$241196 = -96					; size = 4
_Right$241192 = -92					; size = 4
_fDamage$241189 = -88					; size = 4
_iValue$241180 = -84					; size = 4
_BerserkerEffect$241175 = -80				; size = 4
_damage$241171 = -76					; size = 4
_Left$241167 = -72					; size = 4
_iValue$241157 = -68					; size = 4
_BerserkerEffect$241152 = -64				; size = 4
_SkillAttack$ = -60					; size = 4
_ad$ = -56						; size = 4
_damagemax$ = -52					; size = 4
_damagemin$ = -48					; size = 4
_ebp2C$ = -44						; size = 4
_ebp28$ = -40						; size = 4
_ebp24$ = -36						; size = 4
_ebp20$ = -32						; size = 4
_this$ = -28						; size = 4
__$SEHRec$ = -24					; size = 24
_lpObj$ = 8						; size = 4
_targetDefense$ = 12					; size = 4
_lpMagic$ = 16						; size = 4
_effect$ = 20						; size = 4
_bIsOnDuel$ = 24					; size = 4
?GetAttackDamageSummoner@CObjAttack@@QAEHPAUOBJECTSTRUCT@@HPAVCMagicInf@@AAEH@Z PROC ; CObjAttack::GetAttackDamageSummoner
; _this$ = ecx

; 4342 : {

  08720	55		 push	 ebp
  08721	8b ec		 mov	 ebp, esp
  08723	6a fe		 push	 -2			; fffffffeH
  08725	68 00 00 00 00	 push	 OFFSET __sehtable$?GetAttackDamageSummoner@CObjAttack@@QAEHPAUOBJECTSTRUCT@@HPAVCMagicInf@@AAEH@Z
  0872a	68 00 00 00 00	 push	 OFFSET __except_handler4
  0872f	64 a1 00 00 00
	00		 mov	 eax, DWORD PTR fs:0
  08735	50		 push	 eax
  08736	81 c4 58 ff ff
	ff		 add	 esp, -168		; ffffff58H
  0873c	53		 push	 ebx
  0873d	56		 push	 esi
  0873e	57		 push	 edi
  0873f	a1 00 00 00 00	 mov	 eax, DWORD PTR ___security_cookie
  08744	31 45 f8	 xor	 DWORD PTR __$SEHRec$[ebp+16], eax
  08747	33 c5		 xor	 eax, ebp
  08749	50		 push	 eax
  0874a	8d 45 f0	 lea	 eax, DWORD PTR __$SEHRec$[ebp+8]
  0874d	64 a3 00 00 00
	00		 mov	 DWORD PTR fs:0, eax
  08753	89 65 e8	 mov	 DWORD PTR __$SEHRec$[ebp], esp
  08756	89 4d e4	 mov	 DWORD PTR _this$[ebp], ecx

; 4343 : 	if ( g_ShieldSystemOn == TRUE )

  08759	83 3d 00 00 00
	00 01		 cmp	 DWORD PTR ?g_ShieldSystemOn@@3HA, 1 ; g_ShieldSystemOn
  08760	75 0d		 jne	 SHORT $LN41@GetAttackD@3

; 4344 : 	{
; 4345 : 		if ( bIsOnDuel == TRUE )

  08762	83 7d 18 01	 cmp	 DWORD PTR _bIsOnDuel$[ebp], 1
  08766	75 07		 jne	 SHORT $LN41@GetAttackD@3

; 4346 : 		{
; 4347 : 			bIsOnDuel = FALSE;

  08768	c7 45 18 00 00
	00 00		 mov	 DWORD PTR _bIsOnDuel$[ebp], 0
$LN41@GetAttackD@3:

; 4348 : 		}
; 4349 : 	}
; 4350 : 
; 4351 : 	float ebp20 = 0;

  0876f	d9 ee		 fldz
  08771	d9 5d e0	 fstp	 DWORD PTR _ebp20$[ebp]

; 4352 : 	float ebp24 = 0;

  08774	d9 ee		 fldz
  08776	d9 5d dc	 fstp	 DWORD PTR _ebp24$[ebp]

; 4353 : 	float ebp28 = 0;

  08779	d9 ee		 fldz
  0877b	d9 5d d8	 fstp	 DWORD PTR _ebp28$[ebp]

; 4354 : 	float ebp2C = 0;

  0877e	d9 ee		 fldz
  08780	d9 5d d4	 fstp	 DWORD PTR _ebp2C$[ebp]

; 4355 : 
; 4356 : 	int damagemin; //ebp30
; 4357 : 	int damagemax; //ebp34
; 4358 : 
; 4359 : 	int ad; //ebp38
; 4360 : 
; 4361 : 	int SkillAttack = 0; //ebp3C

  08783	c7 45 c4 00 00
	00 00		 mov	 DWORD PTR _SkillAttack$[ebp], 0

; 4362 : 
; 4363 : 	ad = lpMagic->GetDamage();

  0878a	8b 4d 10	 mov	 ecx, DWORD PTR _lpMagic$[ebp]
  0878d	e8 00 00 00 00	 call	 ?GetDamage@CMagicInf@@QAEHXZ ; CMagicInf::GetDamage
  08792	89 45 c8	 mov	 DWORD PTR _ad$[ebp], eax

; 4364 : 
; 4365 : 	switch(lpMagic->m_Skill)

  08795	8b 45 10	 mov	 eax, DWORD PTR _lpMagic$[ebp]
  08798	8b 48 08	 mov	 ecx, DWORD PTR [eax+8]
  0879b	89 8d 50 ff ff
	ff		 mov	 DWORD PTR tv69[ebp], ecx
  087a1	81 bd 50 ff ff
	ff db 00 00 00	 cmp	 DWORD PTR tv69[ebp], 219 ; 000000dbH
  087ab	0f 8c 7a 03 00
	00		 jl	 $LN28@GetAttackD@3
  087b1	81 bd 50 ff ff
	ff e1 00 00 00	 cmp	 DWORD PTR tv69[ebp], 225 ; 000000e1H
  087bb	7e 05		 jle	 SHORT $LN38@GetAttackD@3
  087bd	e9 69 03 00 00	 jmp	 $LN28@GetAttackD@3
$LN38@GetAttackD@3:

; 4366 : 	{
; 4367 : 	case 219:
; 4368 : 	case 220:
; 4369 : 	case 221:
; 4370 : 	case 222:
; 4371 : 	case 223:
; 4372 : 	case 224:
; 4373 : 	case 225: //season4 add-on
; 4374 : 		{
; 4375 : 			if(gObjSearchActiveEffect(lpObj, AT_BERSERKER) == 1)

  087c2	6a 51		 push	 81			; 00000051H
  087c4	8b 45 08	 mov	 eax, DWORD PTR _lpObj$[ebp]
  087c7	50		 push	 eax
  087c8	e8 00 00 00 00	 call	 ?gObjSearchActiveEffect@@YAEPAUOBJECTSTRUCT@@H@Z ; gObjSearchActiveEffect
  087cd	83 c4 08	 add	 esp, 8
  087d0	0f b6 c8	 movzx	 ecx, al
  087d3	83 f9 01	 cmp	 ecx, 1
  087d6	0f 85 90 00 00
	00		 jne	 $LN37@GetAttackD@3

; 4376 : 			{
; 4377 : 				int BerserkerEffect = gObjGetActiveEffect(lpObj, 31);

  087dc	6a 1f		 push	 31			; 0000001fH
  087de	8b 45 08	 mov	 eax, DWORD PTR _lpObj$[ebp]
  087e1	50		 push	 eax
  087e2	e8 00 00 00 00	 call	 ?gObjGetActiveEffect@@YAHPAUOBJECTSTRUCT@@H@Z ; gObjGetActiveEffect
  087e7	83 c4 08	 add	 esp, 8
  087ea	89 45 c0	 mov	 DWORD PTR _BerserkerEffect$241152[ebp], eax

; 4378 : 				//int Ex_BerserkerPower = GetPrivateProfileInt("Summoner","BerserkerPower",50,"..\\Data\\ExData\\Skills.ini");
; 4379 : 				//ebp24 = ((float)((lpObj->Energy + lpObj->AddEnergy) / 4) + 0.015) * BerserkerEffect / 100.0; //??
; 4380 : 				//ebp20 = (float)(((lpObj->Energy + lpObj->AddEnergy) / 9) * BerserkerEffect / 100);
; 4381 : 				ebp24 = (float)(((lpObj->Energy + lpObj->AddEnergy) / 4) * g_SkillAdditionInfo.BerserkerProcentDamageMax / 100); //??

  087ed	8b 45 08	 mov	 eax, DWORD PTR _lpObj$[ebp]
  087f0	0f b7 80 fa 00
	00 00		 movzx	 eax, WORD PTR [eax+250]
  087f7	8b 4d 08	 mov	 ecx, DWORD PTR _lpObj$[ebp]
  087fa	0f bf 91 26 01
	00 00		 movsx	 edx, WORD PTR [ecx+294]
  08801	03 c2		 add	 eax, edx
  08803	99		 cdq
  08804	83 e2 03	 and	 edx, 3
  08807	03 c2		 add	 eax, edx
  08809	c1 f8 02	 sar	 eax, 2
  0880c	0f b7 0d b8 0b
	00 00		 movzx	 ecx, WORD PTR ?g_SkillAdditionInfo@@3VCSkillAdditionInfo@@A+3000
  08813	0f af c1	 imul	 eax, ecx
  08816	99		 cdq
  08817	b9 64 00 00 00	 mov	 ecx, 100		; 00000064H
  0881c	f7 f9		 idiv	 ecx
  0881e	89 85 50 ff ff
	ff		 mov	 DWORD PTR tv590[ebp], eax
  08824	db 85 50 ff ff
	ff		 fild	 DWORD PTR tv590[ebp]
  0882a	d9 5d dc	 fstp	 DWORD PTR _ebp24$[ebp]

; 4382 : 				ebp20 = (float)(((lpObj->Energy + lpObj->AddEnergy) / 9) * g_SkillAdditionInfo.BerserkerProcentDamageMax / 100);

  0882d	8b 45 08	 mov	 eax, DWORD PTR _lpObj$[ebp]
  08830	0f b7 80 fa 00
	00 00		 movzx	 eax, WORD PTR [eax+250]
  08837	8b 4d 08	 mov	 ecx, DWORD PTR _lpObj$[ebp]
  0883a	0f bf 91 26 01
	00 00		 movsx	 edx, WORD PTR [ecx+294]
  08841	03 c2		 add	 eax, edx
  08843	99		 cdq
  08844	b9 09 00 00 00	 mov	 ecx, 9
  08849	f7 f9		 idiv	 ecx
  0884b	0f b7 15 b8 0b
	00 00		 movzx	 edx, WORD PTR ?g_SkillAdditionInfo@@3VCSkillAdditionInfo@@A+3000
  08852	0f af c2	 imul	 eax, edx
  08855	99		 cdq
  08856	b9 64 00 00 00	 mov	 ecx, 100		; 00000064H
  0885b	f7 f9		 idiv	 ecx
  0885d	89 85 50 ff ff
	ff		 mov	 DWORD PTR tv603[ebp], eax
  08863	db 85 50 ff ff
	ff		 fild	 DWORD PTR tv603[ebp]
  08869	d9 5d e0	 fstp	 DWORD PTR _ebp20$[ebp]
$LN37@GetAttackD@3:

; 4383 : 			}
; 4384 : 
; 4385 : 			if( gObjSearchActiveEffect(lpObj, 150) == true
; 4386 : 				|| gObjSearchActiveEffect(lpObj, 151) == true
; 4387 : 				|| gObjSearchActiveEffect(lpObj, 152) == true )

  0886c	68 96 00 00 00	 push	 150			; 00000096H
  08871	8b 45 08	 mov	 eax, DWORD PTR _lpObj$[ebp]
  08874	50		 push	 eax
  08875	e8 00 00 00 00	 call	 ?gObjSearchActiveEffect@@YAEPAUOBJECTSTRUCT@@H@Z ; gObjSearchActiveEffect
  0887a	83 c4 08	 add	 esp, 8
  0887d	0f b6 c8	 movzx	 ecx, al
  08880	83 f9 01	 cmp	 ecx, 1
  08883	74 36		 je	 SHORT $LN35@GetAttackD@3
  08885	68 97 00 00 00	 push	 151			; 00000097H
  0888a	8b 45 08	 mov	 eax, DWORD PTR _lpObj$[ebp]
  0888d	50		 push	 eax
  0888e	e8 00 00 00 00	 call	 ?gObjSearchActiveEffect@@YAEPAUOBJECTSTRUCT@@H@Z ; gObjSearchActiveEffect
  08893	83 c4 08	 add	 esp, 8
  08896	0f b6 c8	 movzx	 ecx, al
  08899	83 f9 01	 cmp	 ecx, 1
  0889c	74 1d		 je	 SHORT $LN35@GetAttackD@3
  0889e	68 98 00 00 00	 push	 152			; 00000098H
  088a3	8b 45 08	 mov	 eax, DWORD PTR _lpObj$[ebp]
  088a6	50		 push	 eax
  088a7	e8 00 00 00 00	 call	 ?gObjSearchActiveEffect@@YAEPAUOBJECTSTRUCT@@H@Z ; gObjSearchActiveEffect
  088ac	83 c4 08	 add	 esp, 8
  088af	0f b6 c8	 movzx	 ecx, al
  088b2	83 f9 01	 cmp	 ecx, 1
  088b5	0f 85 c1 00 00
	00		 jne	 $LN36@GetAttackD@3
$LN35@GetAttackD@3:

; 4388 : 			{
; 4389 : 				float iValue = gObjGetActiveEffect(lpObj, 31);	//gObjGetActiveEffect

  088bb	6a 1f		 push	 31			; 0000001fH
  088bd	8b 45 08	 mov	 eax, DWORD PTR _lpObj$[ebp]
  088c0	50		 push	 eax
  088c1	e8 00 00 00 00	 call	 ?gObjGetActiveEffect@@YAHPAUOBJECTSTRUCT@@H@Z ; gObjGetActiveEffect
  088c6	83 c4 08	 add	 esp, 8
  088c9	89 85 50 ff ff
	ff		 mov	 DWORD PTR tv612[ebp], eax
  088cf	db 85 50 ff ff
	ff		 fild	 DWORD PTR tv612[ebp]
  088d5	d9 5d bc	 fstp	 DWORD PTR _iValue$241157[ebp]

; 4390 : 				// ----
; 4391 : 				if( lpObj->m_MPSkillOpt.ukn_D8 > 0.0f )

  088d8	8b 45 08	 mov	 eax, DWORD PTR _lpObj$[ebp]
  088db	d9 80 f8 26 00
	00		 fld	 DWORD PTR [eax+9976]
  088e1	dc 1d 00 00 00
	00		 fcomp	 QWORD PTR __real@0000000000000000
  088e7	df e0		 fnstsw	 ax
  088e9	f6 c4 41	 test	 ah, 65			; 00000041H
  088ec	75 0f		 jne	 SHORT $LN34@GetAttackD@3

; 4392 : 				{
; 4393 : 					iValue += lpObj->m_MPSkillOpt.ukn_D8;

  088ee	d9 45 bc	 fld	 DWORD PTR _iValue$241157[ebp]
  088f1	8b 45 08	 mov	 eax, DWORD PTR _lpObj$[ebp]
  088f4	d8 80 f8 26 00
	00		 fadd	 DWORD PTR [eax+9976]
  088fa	d9 5d bc	 fstp	 DWORD PTR _iValue$241157[ebp]
$LN34@GetAttackD@3:

; 4394 : 				}
; 4395 : 				// ----
; 4396 : 				//ebp24 = ((float)((lpObj->Energy + lpObj->AddEnergy) / 4) + 0.015) * iValue / 100.0;
; 4397 : 				//ebp20 = (float)(((lpObj->Energy + lpObj->AddEnergy) / 9) * iValue / 100);
; 4398 : 
; 4399 : 				ebp24 = (float)(((lpObj->Energy + lpObj->AddEnergy) / 4) * g_SkillAdditionInfo.m_BerserkerProcentDamageMax / 100); //??

  088fd	8b 45 08	 mov	 eax, DWORD PTR _lpObj$[ebp]
  08900	0f b7 80 fa 00
	00 00		 movzx	 eax, WORD PTR [eax+250]
  08907	8b 4d 08	 mov	 ecx, DWORD PTR _lpObj$[ebp]
  0890a	0f bf 91 26 01
	00 00		 movsx	 edx, WORD PTR [ecx+294]
  08911	03 c2		 add	 eax, edx
  08913	99		 cdq
  08914	83 e2 03	 and	 edx, 3
  08917	03 c2		 add	 eax, edx
  08919	c1 f8 02	 sar	 eax, 2
  0891c	0f b7 0d c0 0c
	00 00		 movzx	 ecx, WORD PTR ?g_SkillAdditionInfo@@3VCSkillAdditionInfo@@A+3264
  08923	0f af c1	 imul	 eax, ecx
  08926	99		 cdq
  08927	b9 64 00 00 00	 mov	 ecx, 100		; 00000064H
  0892c	f7 f9		 idiv	 ecx
  0892e	89 85 50 ff ff
	ff		 mov	 DWORD PTR tv632[ebp], eax
  08934	db 85 50 ff ff
	ff		 fild	 DWORD PTR tv632[ebp]
  0893a	d9 5d dc	 fstp	 DWORD PTR _ebp24$[ebp]

; 4400 : 				ebp20 = (float)(((lpObj->Energy + lpObj->AddEnergy) / 9) * g_SkillAdditionInfo.m_BerserkerProcentDamageMax / 100);

  0893d	8b 45 08	 mov	 eax, DWORD PTR _lpObj$[ebp]
  08940	0f b7 80 fa 00
	00 00		 movzx	 eax, WORD PTR [eax+250]
  08947	8b 4d 08	 mov	 ecx, DWORD PTR _lpObj$[ebp]
  0894a	0f bf 91 26 01
	00 00		 movsx	 edx, WORD PTR [ecx+294]
  08951	03 c2		 add	 eax, edx
  08953	99		 cdq
  08954	b9 09 00 00 00	 mov	 ecx, 9
  08959	f7 f9		 idiv	 ecx
  0895b	0f b7 15 c0 0c
	00 00		 movzx	 edx, WORD PTR ?g_SkillAdditionInfo@@3VCSkillAdditionInfo@@A+3264
  08962	0f af c2	 imul	 eax, edx
  08965	99		 cdq
  08966	b9 64 00 00 00	 mov	 ecx, 100		; 00000064H
  0896b	f7 f9		 idiv	 ecx
  0896d	89 85 50 ff ff
	ff		 mov	 DWORD PTR tv645[ebp], eax
  08973	db 85 50 ff ff
	ff		 fild	 DWORD PTR tv645[ebp]
  08979	d9 5d e0	 fstp	 DWORD PTR _ebp20$[ebp]
$LN36@GetAttackD@3:

; 4401 : 			}
; 4402 : 
; 4403 : 			//damagemin = (int)((float)(lpMagic->m_DamageMin + lpObj->m_iSummonerBookSpellDamageMin) + ebp20);
; 4404 : 			//damagemax = (int)((float)(lpMagic->m_DamageMax + lpObj->m_iSummonerBookSpellDamageMax) + ebp24);
; 4405 : 
; 4406 : 			damagemin = (int)((float)(lpMagic->m_DamageMin + lpObj->m_MagicDamageMin) + ebp20);

  0897c	8b 45 10	 mov	 eax, DWORD PTR _lpMagic$[ebp]
  0897f	8b 48 0c	 mov	 ecx, DWORD PTR [eax+12]
  08982	8b 55 08	 mov	 edx, DWORD PTR _lpObj$[ebp]
  08985	03 8a 68 04 00
	00		 add	 ecx, DWORD PTR [edx+1128]
  0898b	89 8d 50 ff ff
	ff		 mov	 DWORD PTR tv648[ebp], ecx
  08991	db 85 50 ff ff
	ff		 fild	 DWORD PTR tv648[ebp]
  08997	d8 45 e0	 fadd	 DWORD PTR _ebp20$[ebp]
  0899a	e8 00 00 00 00	 call	 __ftol2_sse
  0899f	89 45 d0	 mov	 DWORD PTR _damagemin$[ebp], eax

; 4407 : 			damagemax = (int)((float)(lpMagic->m_DamageMax + lpObj->m_MagicDamageMax) + ebp24);

  089a2	8b 45 10	 mov	 eax, DWORD PTR _lpMagic$[ebp]
  089a5	8b 48 10	 mov	 ecx, DWORD PTR [eax+16]
  089a8	8b 55 08	 mov	 edx, DWORD PTR _lpObj$[ebp]
  089ab	03 8a 6c 04 00
	00		 add	 ecx, DWORD PTR [edx+1132]
  089b1	89 8d 50 ff ff
	ff		 mov	 DWORD PTR tv655[ebp], ecx
  089b7	db 85 50 ff ff
	ff		 fild	 DWORD PTR tv655[ebp]
  089bd	d8 45 dc	 fadd	 DWORD PTR _ebp24$[ebp]
  089c0	e8 00 00 00 00	 call	 __ftol2_sse
  089c5	89 45 cc	 mov	 DWORD PTR _damagemax$[ebp], eax

; 4408 : 
; 4409 : 
; 4410 : 			if( lpObj->m_MPSkillOpt.MpsMagicMastery2 > 0.0f )

  089c8	8b 45 08	 mov	 eax, DWORD PTR _lpObj$[ebp]
  089cb	d9 80 cc 26 00
	00		 fld	 DWORD PTR [eax+9932]
  089d1	dc 1d 00 00 00
	00		 fcomp	 QWORD PTR __real@0000000000000000
  089d7	df e0		 fnstsw	 ax
  089d9	f6 c4 41	 test	 ah, 65			; 00000041H
  089dc	75 28		 jne	 SHORT $LN33@GetAttackD@3

; 4411 : 			{
; 4412 : 				damagemin += lpObj->m_MPSkillOpt.MpsMagicMastery2;

  089de	db 45 d0	 fild	 DWORD PTR _damagemin$[ebp]
  089e1	8b 45 08	 mov	 eax, DWORD PTR _lpObj$[ebp]
  089e4	d8 80 cc 26 00
	00		 fadd	 DWORD PTR [eax+9932]
  089ea	e8 00 00 00 00	 call	 __ftol2_sse
  089ef	89 45 d0	 mov	 DWORD PTR _damagemin$[ebp], eax

; 4413 : 				damagemax += lpObj->m_MPSkillOpt.MpsMagicMastery2;

  089f2	db 45 cc	 fild	 DWORD PTR _damagemax$[ebp]
  089f5	8b 45 08	 mov	 eax, DWORD PTR _lpObj$[ebp]
  089f8	d8 80 cc 26 00
	00		 fadd	 DWORD PTR [eax+9932]
  089fe	e8 00 00 00 00	 call	 __ftol2_sse
  08a03	89 45 cc	 mov	 DWORD PTR _damagemax$[ebp], eax
$LN33@GetAttackD@3:

; 4414 : 			}
; 4415 : 			// ----
; 4416 : 			if( lpObj->m_MPSkillOpt.MpsMinWizCurseInc > 0.0f )

  08a06	8b 45 08	 mov	 eax, DWORD PTR _lpObj$[ebp]
  08a09	d9 80 00 27 00
	00		 fld	 DWORD PTR [eax+9984]
  08a0f	dc 1d 00 00 00
	00		 fcomp	 QWORD PTR __real@0000000000000000
  08a15	df e0		 fnstsw	 ax
  08a17	f6 c4 41	 test	 ah, 65			; 00000041H
  08a1a	75 14		 jne	 SHORT $LN32@GetAttackD@3

; 4417 : 			{
; 4418 : 				damagemin += lpObj->m_MPSkillOpt.MpsMinWizCurseInc;

  08a1c	db 45 d0	 fild	 DWORD PTR _damagemin$[ebp]
  08a1f	8b 45 08	 mov	 eax, DWORD PTR _lpObj$[ebp]
  08a22	d8 80 00 27 00
	00		 fadd	 DWORD PTR [eax+9984]
  08a28	e8 00 00 00 00	 call	 __ftol2_sse
  08a2d	89 45 d0	 mov	 DWORD PTR _damagemin$[ebp], eax
$LN32@GetAttackD@3:

; 4419 : 			}
; 4420 : 
; 4421 : 
; 4422 : 			CItem * Left = &lpObj->pInventory[1];

  08a30	8b 45 08	 mov	 eax, DWORD PTR _lpObj$[ebp]
  08a33	8b 88 24 0e 00
	00		 mov	 ecx, DWORD PTR [eax+3620]
  08a39	81 c1 d4 00 00
	00		 add	 ecx, 212		; 000000d4H
  08a3f	89 4d b8	 mov	 DWORD PTR _Left$241167[ebp], ecx

; 4423 : 
; 4424 : 			if( Left->IsItem() )

  08a42	8b 4d b8	 mov	 ecx, DWORD PTR _Left$241167[ebp]
  08a45	e8 00 00 00 00	 call	 ?IsItem@CItem@@QAEHXZ	; CItem::IsItem
  08a4a	85 c0		 test	 eax, eax
  08a4c	0f 84 c0 00 00
	00		 je	 $LN29@GetAttackD@3

; 4425 : 			{
; 4426 : 				if ( Left->m_Type >= ITEMGET(5,0) && Left->m_Type < ITEMGET(6,0) )

  08a52	8b 45 b8	 mov	 eax, DWORD PTR _Left$241167[ebp]
  08a55	0f bf 48 06	 movsx	 ecx, WORD PTR [eax+6]
  08a59	81 f9 00 0a 00
	00		 cmp	 ecx, 2560		; 00000a00H
  08a5f	0f 8c ad 00 00
	00		 jl	 $LN29@GetAttackD@3
  08a65	8b 45 b8	 mov	 eax, DWORD PTR _Left$241167[ebp]
  08a68	0f bf 48 06	 movsx	 ecx, WORD PTR [eax+6]
  08a6c	81 f9 00 0c 00
	00		 cmp	 ecx, 3072		; 00000c00H
  08a72	0f 8d 9a 00 00
	00		 jge	 $LN29@GetAttackD@3

; 4427 : 				{
; 4428 : 					if ( Left->m_IsValidItem )

  08a78	8b 45 b8	 mov	 eax, DWORD PTR _Left$241167[ebp]
  08a7b	0f b6 88 b0 00
	00 00		 movzx	 ecx, BYTE PTR [eax+176]
  08a82	85 c9		 test	 ecx, ecx
  08a84	0f 84 88 00 00
	00		 je	 $LN29@GetAttackD@3

; 4429 : 					{
; 4430 : 						int damage = Left->m_BookSpell / 2 + Left->m_Level * 2;

  08a8a	8b 45 b8	 mov	 eax, DWORD PTR _Left$241167[ebp]
  08a8d	0f b7 40 22	 movzx	 eax, WORD PTR [eax+34]
  08a91	99		 cdq
  08a92	2b c2		 sub	 eax, edx
  08a94	d1 f8		 sar	 eax, 1
  08a96	8b 4d b8	 mov	 ecx, DWORD PTR _Left$241167[ebp]
  08a99	0f bf 51 08	 movsx	 edx, WORD PTR [ecx+8]
  08a9d	8d 04 50	 lea	 eax, DWORD PTR [eax+edx*2]
  08aa0	89 45 b4	 mov	 DWORD PTR _damage$241171[ebp], eax

; 4431 : 						damage -= (WORD)(Left->m_CurrentDurabilityState * damage);

  08aa3	db 45 b4	 fild	 DWORD PTR _damage$241171[ebp]
  08aa6	8b 45 b8	 mov	 eax, DWORD PTR _Left$241167[ebp]
  08aa9	d8 88 a8 00 00
	00		 fmul	 DWORD PTR [eax+168]
  08aaf	d9 bd 52 ff ff
	ff		 fnstcw	 WORD PTR tv697[ebp]
  08ab5	0f b7 85 52 ff
	ff ff		 movzx	 eax, WORD PTR tv697[ebp]
  08abc	0d 00 0c 00 00	 or	 eax, 3072		; 00000c00H
  08ac1	89 85 4c ff ff
	ff		 mov	 DWORD PTR tv700[ebp], eax
  08ac7	d9 ad 4c ff ff
	ff		 fldcw	 WORD PTR tv700[ebp]
  08acd	db 9d 48 ff ff
	ff		 fistp	 DWORD PTR tv702[ebp]
  08ad3	d9 ad 52 ff ff
	ff		 fldcw	 WORD PTR tv697[ebp]
  08ad9	0f b7 8d 48 ff
	ff ff		 movzx	 ecx, WORD PTR tv702[ebp]
  08ae0	8b 55 b4	 mov	 edx, DWORD PTR _damage$241171[ebp]
  08ae3	2b d1		 sub	 edx, ecx
  08ae5	89 55 b4	 mov	 DWORD PTR _damage$241171[ebp], edx

; 4432 : 
; 4433 : 						damagemin += damagemin * damage / 100;

  08ae8	8b 45 d0	 mov	 eax, DWORD PTR _damagemin$[ebp]
  08aeb	0f af 45 b4	 imul	 eax, DWORD PTR _damage$241171[ebp]
  08aef	99		 cdq
  08af0	b9 64 00 00 00	 mov	 ecx, 100		; 00000064H
  08af5	f7 f9		 idiv	 ecx
  08af7	03 45 d0	 add	 eax, DWORD PTR _damagemin$[ebp]
  08afa	89 45 d0	 mov	 DWORD PTR _damagemin$[ebp], eax

; 4434 : 						damagemax += damagemax * damage / 100;

  08afd	8b 45 cc	 mov	 eax, DWORD PTR _damagemax$[ebp]
  08b00	0f af 45 b4	 imul	 eax, DWORD PTR _damage$241171[ebp]
  08b04	99		 cdq
  08b05	b9 64 00 00 00	 mov	 ecx, 100		; 00000064H
  08b0a	f7 f9		 idiv	 ecx
  08b0c	03 45 cc	 add	 eax, DWORD PTR _damagemax$[ebp]
  08b0f	89 45 cc	 mov	 DWORD PTR _damagemax$[ebp], eax
$LN29@GetAttackD@3:

; 4435 : 					}
; 4436 : 				}
; 4437 : 			}
; 4438 : 
; 4439 : 			SkillAttack += gObjGetActiveEffect(lpObj, 27);

  08b12	6a 1b		 push	 27			; 0000001bH
  08b14	8b 45 08	 mov	 eax, DWORD PTR _lpObj$[ebp]
  08b17	50		 push	 eax
  08b18	e8 00 00 00 00	 call	 ?gObjGetActiveEffect@@YAHPAUOBJECTSTRUCT@@H@Z ; gObjGetActiveEffect
  08b1d	83 c4 08	 add	 esp, 8
  08b20	03 45 c4	 add	 eax, DWORD PTR _SkillAttack$[ebp]
  08b23	89 45 c4	 mov	 DWORD PTR _SkillAttack$[ebp], eax

; 4440 : 		}
; 4441 : 		break;

  08b26	e9 a7 03 00 00	 jmp	 $LN39@GetAttackD@3
$LN28@GetAttackD@3:

; 4442 : 	default:
; 4443 : 		{
; 4444 : 			if(gObjSearchActiveEffect(lpObj, AT_BERSERKER) == 1)

  08b2b	6a 51		 push	 81			; 00000051H
  08b2d	8b 45 08	 mov	 eax, DWORD PTR _lpObj$[ebp]
  08b30	50		 push	 eax
  08b31	e8 00 00 00 00	 call	 ?gObjSearchActiveEffect@@YAEPAUOBJECTSTRUCT@@H@Z ; gObjSearchActiveEffect
  08b36	83 c4 08	 add	 esp, 8
  08b39	0f b6 c8	 movzx	 ecx, al
  08b3c	83 f9 01	 cmp	 ecx, 1
  08b3f	0f 85 90 00 00
	00		 jne	 $LN27@GetAttackD@3

; 4445 : 			{
; 4446 : 				int BerserkerEffect = gObjGetActiveEffect(lpObj, 31);

  08b45	6a 1f		 push	 31			; 0000001fH
  08b47	8b 45 08	 mov	 eax, DWORD PTR _lpObj$[ebp]
  08b4a	50		 push	 eax
  08b4b	e8 00 00 00 00	 call	 ?gObjGetActiveEffect@@YAHPAUOBJECTSTRUCT@@H@Z ; gObjGetActiveEffect
  08b50	83 c4 08	 add	 esp, 8
  08b53	89 45 b0	 mov	 DWORD PTR _BerserkerEffect$241175[ebp], eax

; 4447 : 				//int Ex_BerserkerPower = GetPrivateProfileInt("Summoner","BerserkerPower",50,"..\\Data\\ExData\\Skills.ini");
; 4448 : 				//ebp28 = (float)(((lpObj->Energy + lpObj->AddEnergy) / 9) * BerserkerEffect / 100);
; 4449 : 				//ebp2C = (float)(((lpObj->Energy + lpObj->AddEnergy) / 4) * BerserkerEffect / 100);
; 4450 : 
; 4451 : 				ebp28 = (float)(((lpObj->Energy + lpObj->AddEnergy) / 9) * g_SkillAdditionInfo.BerserkerProcentDamageMax / 100);

  08b56	8b 45 08	 mov	 eax, DWORD PTR _lpObj$[ebp]
  08b59	0f b7 80 fa 00
	00 00		 movzx	 eax, WORD PTR [eax+250]
  08b60	8b 4d 08	 mov	 ecx, DWORD PTR _lpObj$[ebp]
  08b63	0f bf 91 26 01
	00 00		 movsx	 edx, WORD PTR [ecx+294]
  08b6a	03 c2		 add	 eax, edx
  08b6c	99		 cdq
  08b6d	b9 09 00 00 00	 mov	 ecx, 9
  08b72	f7 f9		 idiv	 ecx
  08b74	0f b7 15 b8 0b
	00 00		 movzx	 edx, WORD PTR ?g_SkillAdditionInfo@@3VCSkillAdditionInfo@@A+3000
  08b7b	0f af c2	 imul	 eax, edx
  08b7e	99		 cdq
  08b7f	b9 64 00 00 00	 mov	 ecx, 100		; 00000064H
  08b84	f7 f9		 idiv	 ecx
  08b86	89 85 50 ff ff
	ff		 mov	 DWORD PTR tv735[ebp], eax
  08b8c	db 85 50 ff ff
	ff		 fild	 DWORD PTR tv735[ebp]
  08b92	d9 5d d8	 fstp	 DWORD PTR _ebp28$[ebp]

; 4452 : 				ebp2C = (float)(((lpObj->Energy + lpObj->AddEnergy) / 4) * g_SkillAdditionInfo.BerserkerProcentDamageMax / 100);

  08b95	8b 45 08	 mov	 eax, DWORD PTR _lpObj$[ebp]
  08b98	0f b7 80 fa 00
	00 00		 movzx	 eax, WORD PTR [eax+250]
  08b9f	8b 4d 08	 mov	 ecx, DWORD PTR _lpObj$[ebp]
  08ba2	0f bf 91 26 01
	00 00		 movsx	 edx, WORD PTR [ecx+294]
  08ba9	03 c2		 add	 eax, edx
  08bab	99		 cdq
  08bac	83 e2 03	 and	 edx, 3
  08baf	03 c2		 add	 eax, edx
  08bb1	c1 f8 02	 sar	 eax, 2
  08bb4	0f b7 0d b8 0b
	00 00		 movzx	 ecx, WORD PTR ?g_SkillAdditionInfo@@3VCSkillAdditionInfo@@A+3000
  08bbb	0f af c1	 imul	 eax, ecx
  08bbe	99		 cdq
  08bbf	b9 64 00 00 00	 mov	 ecx, 100		; 00000064H
  08bc4	f7 f9		 idiv	 ecx
  08bc6	89 85 50 ff ff
	ff		 mov	 DWORD PTR tv749[ebp], eax
  08bcc	db 85 50 ff ff
	ff		 fild	 DWORD PTR tv749[ebp]
  08bd2	d9 5d d4	 fstp	 DWORD PTR _ebp2C$[ebp]
$LN27@GetAttackD@3:

; 4453 : 			}
; 4454 : 
; 4455 : 			if( gObjSearchActiveEffect(lpObj, 150) == true
; 4456 : 				|| gObjSearchActiveEffect(lpObj, 151) == true
; 4457 : 				|| gObjSearchActiveEffect(lpObj, 152) == true )

  08bd5	68 96 00 00 00	 push	 150			; 00000096H
  08bda	8b 45 08	 mov	 eax, DWORD PTR _lpObj$[ebp]
  08bdd	50		 push	 eax
  08bde	e8 00 00 00 00	 call	 ?gObjSearchActiveEffect@@YAEPAUOBJECTSTRUCT@@H@Z ; gObjSearchActiveEffect
  08be3	83 c4 08	 add	 esp, 8
  08be6	0f b6 c8	 movzx	 ecx, al
  08be9	83 f9 01	 cmp	 ecx, 1
  08bec	74 36		 je	 SHORT $LN25@GetAttackD@3
  08bee	68 97 00 00 00	 push	 151			; 00000097H
  08bf3	8b 45 08	 mov	 eax, DWORD PTR _lpObj$[ebp]
  08bf6	50		 push	 eax
  08bf7	e8 00 00 00 00	 call	 ?gObjSearchActiveEffect@@YAEPAUOBJECTSTRUCT@@H@Z ; gObjSearchActiveEffect
  08bfc	83 c4 08	 add	 esp, 8
  08bff	0f b6 c8	 movzx	 ecx, al
  08c02	83 f9 01	 cmp	 ecx, 1
  08c05	74 1d		 je	 SHORT $LN25@GetAttackD@3
  08c07	68 98 00 00 00	 push	 152			; 00000098H
  08c0c	8b 45 08	 mov	 eax, DWORD PTR _lpObj$[ebp]
  08c0f	50		 push	 eax
  08c10	e8 00 00 00 00	 call	 ?gObjSearchActiveEffect@@YAEPAUOBJECTSTRUCT@@H@Z ; gObjSearchActiveEffect
  08c15	83 c4 08	 add	 esp, 8
  08c18	0f b6 c8	 movzx	 ecx, al
  08c1b	83 f9 01	 cmp	 ecx, 1
  08c1e	0f 85 c1 00 00
	00		 jne	 $LN26@GetAttackD@3
$LN25@GetAttackD@3:

; 4458 : 			{
; 4459 : 				float iValue = gObjGetActiveEffect(lpObj, 31);

  08c24	6a 1f		 push	 31			; 0000001fH
  08c26	8b 45 08	 mov	 eax, DWORD PTR _lpObj$[ebp]
  08c29	50		 push	 eax
  08c2a	e8 00 00 00 00	 call	 ?gObjGetActiveEffect@@YAHPAUOBJECTSTRUCT@@H@Z ; gObjGetActiveEffect
  08c2f	83 c4 08	 add	 esp, 8
  08c32	89 85 50 ff ff
	ff		 mov	 DWORD PTR tv758[ebp], eax
  08c38	db 85 50 ff ff
	ff		 fild	 DWORD PTR tv758[ebp]
  08c3e	d9 5d ac	 fstp	 DWORD PTR _iValue$241180[ebp]

; 4460 : 				// ----
; 4461 : 				if( lpObj->m_MPSkillOpt.ukn_DC > 0.0f )

  08c41	8b 45 08	 mov	 eax, DWORD PTR _lpObj$[ebp]
  08c44	d9 80 fc 26 00
	00		 fld	 DWORD PTR [eax+9980]
  08c4a	dc 1d 00 00 00
	00		 fcomp	 QWORD PTR __real@0000000000000000
  08c50	df e0		 fnstsw	 ax
  08c52	f6 c4 41	 test	 ah, 65			; 00000041H
  08c55	75 0f		 jne	 SHORT $LN24@GetAttackD@3

; 4462 : 				{
; 4463 : 					iValue += lpObj->m_MPSkillOpt.ukn_DC;

  08c57	d9 45 ac	 fld	 DWORD PTR _iValue$241180[ebp]
  08c5a	8b 45 08	 mov	 eax, DWORD PTR _lpObj$[ebp]
  08c5d	d8 80 fc 26 00
	00		 fadd	 DWORD PTR [eax+9980]
  08c63	d9 5d ac	 fstp	 DWORD PTR _iValue$241180[ebp]
$LN24@GetAttackD@3:

; 4464 : 				}
; 4465 : 				// ----
; 4466 : 
; 4467 : 				//LogAddC(2,"m_BerserkerProcentDamageMax:%d", g_SkillAdditionInfo.m_BerserkerProcentDamageMax);
; 4468 : 
; 4469 : 				ebp28 = (float)(((lpObj->Energy + lpObj->AddEnergy) / 9) * g_SkillAdditionInfo.m_BerserkerProcentDamageMax / 100);

  08c66	8b 45 08	 mov	 eax, DWORD PTR _lpObj$[ebp]
  08c69	0f b7 80 fa 00
	00 00		 movzx	 eax, WORD PTR [eax+250]
  08c70	8b 4d 08	 mov	 ecx, DWORD PTR _lpObj$[ebp]
  08c73	0f bf 91 26 01
	00 00		 movsx	 edx, WORD PTR [ecx+294]
  08c7a	03 c2		 add	 eax, edx
  08c7c	99		 cdq
  08c7d	b9 09 00 00 00	 mov	 ecx, 9
  08c82	f7 f9		 idiv	 ecx
  08c84	0f b7 15 c0 0c
	00 00		 movzx	 edx, WORD PTR ?g_SkillAdditionInfo@@3VCSkillAdditionInfo@@A+3264
  08c8b	0f af c2	 imul	 eax, edx
  08c8e	99		 cdq
  08c8f	b9 64 00 00 00	 mov	 ecx, 100		; 00000064H
  08c94	f7 f9		 idiv	 ecx
  08c96	89 85 50 ff ff
	ff		 mov	 DWORD PTR tv777[ebp], eax
  08c9c	db 85 50 ff ff
	ff		 fild	 DWORD PTR tv777[ebp]
  08ca2	d9 5d d8	 fstp	 DWORD PTR _ebp28$[ebp]

; 4470 : 				ebp2C = (float)(((lpObj->Energy + lpObj->AddEnergy) / 4) * g_SkillAdditionInfo.m_BerserkerProcentDamageMax / 100);

  08ca5	8b 45 08	 mov	 eax, DWORD PTR _lpObj$[ebp]
  08ca8	0f b7 80 fa 00
	00 00		 movzx	 eax, WORD PTR [eax+250]
  08caf	8b 4d 08	 mov	 ecx, DWORD PTR _lpObj$[ebp]
  08cb2	0f bf 91 26 01
	00 00		 movsx	 edx, WORD PTR [ecx+294]
  08cb9	03 c2		 add	 eax, edx
  08cbb	99		 cdq
  08cbc	83 e2 03	 and	 edx, 3
  08cbf	03 c2		 add	 eax, edx
  08cc1	c1 f8 02	 sar	 eax, 2
  08cc4	0f b7 0d c0 0c
	00 00		 movzx	 ecx, WORD PTR ?g_SkillAdditionInfo@@3VCSkillAdditionInfo@@A+3264
  08ccb	0f af c1	 imul	 eax, ecx
  08cce	99		 cdq
  08ccf	b9 64 00 00 00	 mov	 ecx, 100		; 00000064H
  08cd4	f7 f9		 idiv	 ecx
  08cd6	89 85 50 ff ff
	ff		 mov	 DWORD PTR tv791[ebp], eax
  08cdc	db 85 50 ff ff
	ff		 fild	 DWORD PTR tv791[ebp]
  08ce2	d9 5d d4	 fstp	 DWORD PTR _ebp2C$[ebp]
$LN26@GetAttackD@3:

; 4471 : 			}
; 4472 : 
; 4473 : 			damagemin = (int)((float)(lpMagic->m_DamageMin + lpObj->m_MagicDamageMin) + ebp28);

  08ce5	8b 45 10	 mov	 eax, DWORD PTR _lpMagic$[ebp]
  08ce8	8b 48 0c	 mov	 ecx, DWORD PTR [eax+12]
  08ceb	8b 55 08	 mov	 edx, DWORD PTR _lpObj$[ebp]
  08cee	03 8a 68 04 00
	00		 add	 ecx, DWORD PTR [edx+1128]
  08cf4	89 8d 50 ff ff
	ff		 mov	 DWORD PTR tv794[ebp], ecx
  08cfa	db 85 50 ff ff
	ff		 fild	 DWORD PTR tv794[ebp]
  08d00	d8 45 d8	 fadd	 DWORD PTR _ebp28$[ebp]
  08d03	e8 00 00 00 00	 call	 __ftol2_sse
  08d08	89 45 d0	 mov	 DWORD PTR _damagemin$[ebp], eax

; 4474 : 			damagemax = (int)((float)(lpMagic->m_DamageMax + lpObj->m_MagicDamageMax) + ebp2C);

  08d0b	8b 45 10	 mov	 eax, DWORD PTR _lpMagic$[ebp]
  08d0e	8b 48 10	 mov	 ecx, DWORD PTR [eax+16]
  08d11	8b 55 08	 mov	 edx, DWORD PTR _lpObj$[ebp]
  08d14	03 8a 6c 04 00
	00		 add	 ecx, DWORD PTR [edx+1132]
  08d1a	89 8d 50 ff ff
	ff		 mov	 DWORD PTR tv801[ebp], ecx
  08d20	db 85 50 ff ff
	ff		 fild	 DWORD PTR tv801[ebp]
  08d26	d8 45 d4	 fadd	 DWORD PTR _ebp2C$[ebp]
  08d29	e8 00 00 00 00	 call	 __ftol2_sse
  08d2e	89 45 cc	 mov	 DWORD PTR _damagemax$[ebp], eax

; 4475 : 
; 4476 : 
; 4477 : 			if( g_MasterSkillSystem.CheckRequireStatus(lpMagic->m_Skill) )

  08d31	8b 45 10	 mov	 eax, DWORD PTR _lpMagic$[ebp]
  08d34	8b 48 08	 mov	 ecx, DWORD PTR [eax+8]
  08d37	51		 push	 ecx
  08d38	b9 00 00 00 00	 mov	 ecx, OFFSET ?g_MasterSkillSystem@@3VCMasterLevelSkillTreeSystem@@A ; g_MasterSkillSystem
  08d3d	e8 00 00 00 00	 call	 ?CheckRequireStatus@CMasterLevelSkillTreeSystem@@QAEHH@Z ; CMasterLevelSkillTreeSystem::CheckRequireStatus
  08d42	85 c0		 test	 eax, eax
  08d44	74 34		 je	 SHORT $LN23@GetAttackD@3

; 4478 : 			{
; 4479 : 				float fDamage = g_MasterSkillSystem.GetSkillAttackDamage(lpObj, lpMagic->m_Skill);

  08d46	8b 45 10	 mov	 eax, DWORD PTR _lpMagic$[ebp]
  08d49	8b 48 08	 mov	 ecx, DWORD PTR [eax+8]
  08d4c	51		 push	 ecx
  08d4d	8b 55 08	 mov	 edx, DWORD PTR _lpObj$[ebp]
  08d50	52		 push	 edx
  08d51	b9 00 00 00 00	 mov	 ecx, OFFSET ?g_MasterSkillSystem@@3VCMasterLevelSkillTreeSystem@@A ; g_MasterSkillSystem
  08d56	e8 00 00 00 00	 call	 ?GetSkillAttackDamage@CMasterLevelSkillTreeSystem@@QAEMPAUOBJECTSTRUCT@@H@Z ; CMasterLevelSkillTreeSystem::GetSkillAttackDamage
  08d5b	d9 5d a8	 fstp	 DWORD PTR _fDamage$241189[ebp]

; 4480 : 				damagemin += fDamage;

  08d5e	db 45 d0	 fild	 DWORD PTR _damagemin$[ebp]
  08d61	d8 45 a8	 fadd	 DWORD PTR _fDamage$241189[ebp]
  08d64	e8 00 00 00 00	 call	 __ftol2_sse
  08d69	89 45 d0	 mov	 DWORD PTR _damagemin$[ebp], eax

; 4481 : 				damagemax += fDamage;

  08d6c	db 45 cc	 fild	 DWORD PTR _damagemax$[ebp]
  08d6f	d8 45 a8	 fadd	 DWORD PTR _fDamage$241189[ebp]
  08d72	e8 00 00 00 00	 call	 __ftol2_sse
  08d77	89 45 cc	 mov	 DWORD PTR _damagemax$[ebp], eax
$LN23@GetAttackD@3:

; 4482 : 			}
; 4483 : 			// ----
; 4484 : 			if( lpObj->m_MPSkillOpt.MpsMagicMastery2 > 0.0f )

  08d7a	8b 45 08	 mov	 eax, DWORD PTR _lpObj$[ebp]
  08d7d	d9 80 cc 26 00
	00		 fld	 DWORD PTR [eax+9932]
  08d83	dc 1d 00 00 00
	00		 fcomp	 QWORD PTR __real@0000000000000000
  08d89	df e0		 fnstsw	 ax
  08d8b	f6 c4 41	 test	 ah, 65			; 00000041H
  08d8e	75 28		 jne	 SHORT $LN22@GetAttackD@3

; 4485 : 			{
; 4486 : 				damagemin += lpObj->m_MPSkillOpt.MpsMagicMastery2;

  08d90	db 45 d0	 fild	 DWORD PTR _damagemin$[ebp]
  08d93	8b 45 08	 mov	 eax, DWORD PTR _lpObj$[ebp]
  08d96	d8 80 cc 26 00
	00		 fadd	 DWORD PTR [eax+9932]
  08d9c	e8 00 00 00 00	 call	 __ftol2_sse
  08da1	89 45 d0	 mov	 DWORD PTR _damagemin$[ebp], eax

; 4487 : 				damagemax += lpObj->m_MPSkillOpt.MpsMagicMastery2;

  08da4	db 45 cc	 fild	 DWORD PTR _damagemax$[ebp]
  08da7	8b 45 08	 mov	 eax, DWORD PTR _lpObj$[ebp]
  08daa	d8 80 cc 26 00
	00		 fadd	 DWORD PTR [eax+9932]
  08db0	e8 00 00 00 00	 call	 __ftol2_sse
  08db5	89 45 cc	 mov	 DWORD PTR _damagemax$[ebp], eax
$LN22@GetAttackD@3:

; 4488 : 			}
; 4489 : 			// ----
; 4490 : 			if( lpObj->m_MPSkillOpt.MpsMinWizCurseInc > 0.0f )

  08db8	8b 45 08	 mov	 eax, DWORD PTR _lpObj$[ebp]
  08dbb	d9 80 00 27 00
	00		 fld	 DWORD PTR [eax+9984]
  08dc1	dc 1d 00 00 00
	00		 fcomp	 QWORD PTR __real@0000000000000000
  08dc7	df e0		 fnstsw	 ax
  08dc9	f6 c4 41	 test	 ah, 65			; 00000041H
  08dcc	75 14		 jne	 SHORT $LN21@GetAttackD@3

; 4491 : 			{
; 4492 : 				damagemin += lpObj->m_MPSkillOpt.MpsMinWizCurseInc;

  08dce	db 45 d0	 fild	 DWORD PTR _damagemin$[ebp]
  08dd1	8b 45 08	 mov	 eax, DWORD PTR _lpObj$[ebp]
  08dd4	d8 80 00 27 00
	00		 fadd	 DWORD PTR [eax+9984]
  08dda	e8 00 00 00 00	 call	 __ftol2_sse
  08ddf	89 45 d0	 mov	 DWORD PTR _damagemin$[ebp], eax
$LN21@GetAttackD@3:

; 4493 : 			}
; 4494 : 
; 4495 : 
; 4496 : 			CItem * Right = &lpObj->pInventory[0];

  08de2	8b 45 08	 mov	 eax, DWORD PTR _lpObj$[ebp]
  08de5	8b 88 24 0e 00
	00		 mov	 ecx, DWORD PTR [eax+3620]
  08deb	89 4d a4	 mov	 DWORD PTR _Right$241192[ebp], ecx

; 4497 : 
; 4498 : 			if( Right->IsItem() )

  08dee	8b 4d a4	 mov	 ecx, DWORD PTR _Right$241192[ebp]
  08df1	e8 00 00 00 00	 call	 ?IsItem@CItem@@QAEHXZ	; CItem::IsItem
  08df6	85 c0		 test	 eax, eax
  08df8	0f 84 c0 00 00
	00		 je	 $LN18@GetAttackD@3

; 4499 : 			{
; 4500 : 				if ( Right->m_Type >= ITEMGET(5,0) && Right->m_Type < ITEMGET(6,0) )

  08dfe	8b 45 a4	 mov	 eax, DWORD PTR _Right$241192[ebp]
  08e01	0f bf 48 06	 movsx	 ecx, WORD PTR [eax+6]
  08e05	81 f9 00 0a 00
	00		 cmp	 ecx, 2560		; 00000a00H
  08e0b	0f 8c ad 00 00
	00		 jl	 $LN18@GetAttackD@3
  08e11	8b 45 a4	 mov	 eax, DWORD PTR _Right$241192[ebp]
  08e14	0f bf 48 06	 movsx	 ecx, WORD PTR [eax+6]
  08e18	81 f9 00 0c 00
	00		 cmp	 ecx, 3072		; 00000c00H
  08e1e	0f 8d 9a 00 00
	00		 jge	 $LN18@GetAttackD@3

; 4501 : 				{
; 4502 : 					if ( Right->m_IsValidItem  )

  08e24	8b 45 a4	 mov	 eax, DWORD PTR _Right$241192[ebp]
  08e27	0f b6 88 b0 00
	00 00		 movzx	 ecx, BYTE PTR [eax+176]
  08e2e	85 c9		 test	 ecx, ecx
  08e30	0f 84 88 00 00
	00		 je	 $LN18@GetAttackD@3

; 4503 : 					{
; 4504 : 						int damage = Right->m_Magic / 2 + Right->m_Level * 2;

  08e36	8b 45 a4	 mov	 eax, DWORD PTR _Right$241192[ebp]
  08e39	0f b7 40 20	 movzx	 eax, WORD PTR [eax+32]
  08e3d	99		 cdq
  08e3e	2b c2		 sub	 eax, edx
  08e40	d1 f8		 sar	 eax, 1
  08e42	8b 4d a4	 mov	 ecx, DWORD PTR _Right$241192[ebp]
  08e45	0f bf 51 08	 movsx	 edx, WORD PTR [ecx+8]
  08e49	8d 04 50	 lea	 eax, DWORD PTR [eax+edx*2]
  08e4c	89 45 a0	 mov	 DWORD PTR _damage$241196[ebp], eax

; 4505 : 						damage -= (WORD)(Right->m_CurrentDurabilityState * damage);

  08e4f	db 45 a0	 fild	 DWORD PTR _damage$241196[ebp]
  08e52	8b 45 a4	 mov	 eax, DWORD PTR _Right$241192[ebp]
  08e55	d8 88 a8 00 00
	00		 fmul	 DWORD PTR [eax+168]
  08e5b	d9 bd 52 ff ff
	ff		 fnstcw	 WORD PTR tv860[ebp]
  08e61	0f b7 85 52 ff
	ff ff		 movzx	 eax, WORD PTR tv860[ebp]
  08e68	0d 00 0c 00 00	 or	 eax, 3072		; 00000c00H
  08e6d	89 85 4c ff ff
	ff		 mov	 DWORD PTR tv863[ebp], eax
  08e73	d9 ad 4c ff ff
	ff		 fldcw	 WORD PTR tv863[ebp]
  08e79	db 9d 48 ff ff
	ff		 fistp	 DWORD PTR tv865[ebp]
  08e7f	d9 ad 52 ff ff
	ff		 fldcw	 WORD PTR tv860[ebp]
  08e85	0f b7 8d 48 ff
	ff ff		 movzx	 ecx, WORD PTR tv865[ebp]
  08e8c	8b 55 a0	 mov	 edx, DWORD PTR _damage$241196[ebp]
  08e8f	2b d1		 sub	 edx, ecx
  08e91	89 55 a0	 mov	 DWORD PTR _damage$241196[ebp], edx

; 4506 : 
; 4507 : 						damagemin += damagemin * damage / 100;

  08e94	8b 45 d0	 mov	 eax, DWORD PTR _damagemin$[ebp]
  08e97	0f af 45 a0	 imul	 eax, DWORD PTR _damage$241196[ebp]
  08e9b	99		 cdq
  08e9c	b9 64 00 00 00	 mov	 ecx, 100		; 00000064H
  08ea1	f7 f9		 idiv	 ecx
  08ea3	03 45 d0	 add	 eax, DWORD PTR _damagemin$[ebp]
  08ea6	89 45 d0	 mov	 DWORD PTR _damagemin$[ebp], eax

; 4508 : 						damagemax += damagemax * damage / 100;

  08ea9	8b 45 cc	 mov	 eax, DWORD PTR _damagemax$[ebp]
  08eac	0f af 45 a0	 imul	 eax, DWORD PTR _damage$241196[ebp]
  08eb0	99		 cdq
  08eb1	b9 64 00 00 00	 mov	 ecx, 100		; 00000064H
  08eb6	f7 f9		 idiv	 ecx
  08eb8	03 45 cc	 add	 eax, DWORD PTR _damagemax$[ebp]
  08ebb	89 45 cc	 mov	 DWORD PTR _damagemax$[ebp], eax
$LN18@GetAttackD@3:

; 4509 : 					}
; 4510 : 				}
; 4511 : 			}
; 4512 : 			
; 4513 : 			SkillAttack += gObjGetActiveEffect(lpObj, ADD_OPTION_WIZARDRY);

  08ebe	6a 0f		 push	 15			; 0000000fH
  08ec0	8b 45 08	 mov	 eax, DWORD PTR _lpObj$[ebp]
  08ec3	50		 push	 eax
  08ec4	e8 00 00 00 00	 call	 ?gObjGetActiveEffect@@YAHPAUOBJECTSTRUCT@@H@Z ; gObjGetActiveEffect
  08ec9	83 c4 08	 add	 esp, 8
  08ecc	03 45 c4	 add	 eax, DWORD PTR _SkillAttack$[ebp]
  08ecf	89 45 c4	 mov	 DWORD PTR _SkillAttack$[ebp], eax
$LN39@GetAttackD@3:

; 4514 : 		}
; 4515 : 		break;
; 4516 : 	}
; 4517 : 
; 4518 : 	damagemin += lpObj->SetOpAddSkillAttack;

  08ed2	8b 45 08	 mov	 eax, DWORD PTR _lpObj$[ebp]
  08ed5	0f bf 88 24 11
	00 00		 movsx	 ecx, WORD PTR [eax+4388]
  08edc	03 4d d0	 add	 ecx, DWORD PTR _damagemin$[ebp]
  08edf	89 4d d0	 mov	 DWORD PTR _damagemin$[ebp], ecx

; 4519 : 	damagemax += lpObj->SetOpAddSkillAttack;

  08ee2	8b 45 08	 mov	 eax, DWORD PTR _lpObj$[ebp]
  08ee5	0f bf 88 24 11
	00 00		 movsx	 ecx, WORD PTR [eax+4388]
  08eec	03 4d cc	 add	 ecx, DWORD PTR _damagemax$[ebp]
  08eef	89 4d cc	 mov	 DWORD PTR _damagemax$[ebp], ecx

; 4520 : 
; 4521 : 	int SkillAttr = MagicDamageC.GetSkillAttr(lpMagic->m_Skill);

  08ef2	8b 45 10	 mov	 eax, DWORD PTR _lpMagic$[ebp]
  08ef5	8b 48 08	 mov	 ecx, DWORD PTR [eax+8]
  08ef8	51		 push	 ecx
  08ef9	b9 00 00 00 00	 mov	 ecx, OFFSET ?MagicDamageC@@3VCMagicDamage@@A ; MagicDamageC
  08efe	e8 00 00 00 00	 call	 ?GetSkillAttr@CMagicDamage@@QAEHH@Z ; CMagicDamage::GetSkillAttr
  08f03	89 45 9c	 mov	 DWORD PTR _SkillAttr$[ebp], eax

; 4522 : 
; 4523 : 	if ( SkillAttr != -1 )

  08f06	83 7d 9c ff	 cmp	 DWORD PTR _SkillAttr$[ebp], -1
  08f0a	74 7c		 je	 SHORT $LN14@GetAttackD@3

; 4524 : 	{
; 4525 : 		if((lpObj->Authority&32) == 32 && (lpObj->pInventory[10].m_Type == ITEMGET(13,42) || lpObj->pInventory[11].m_Type == ITEMGET(13,42))) //season 2.5 add-on

  08f0c	8b 45 08	 mov	 eax, DWORD PTR _lpObj$[ebp]
  08f0f	8b 88 0c 02 00
	00		 mov	 ecx, DWORD PTR [eax+524]
  08f15	83 e1 20	 and	 ecx, 32			; 00000020H
  08f18	74 48		 je	 SHORT $LN16@GetAttackD@3
  08f1a	8b 45 08	 mov	 eax, DWORD PTR _lpObj$[ebp]
  08f1d	8b 88 24 0e 00
	00		 mov	 ecx, DWORD PTR [eax+3620]
  08f23	0f bf 91 4e 08
	00 00		 movsx	 edx, WORD PTR [ecx+2126]
  08f2a	81 fa 2a 1a 00
	00		 cmp	 edx, 6698		; 00001a2aH
  08f30	74 18		 je	 SHORT $LN15@GetAttackD@3
  08f32	8b 45 08	 mov	 eax, DWORD PTR _lpObj$[ebp]
  08f35	8b 88 24 0e 00
	00		 mov	 ecx, DWORD PTR [eax+3620]
  08f3b	0f bf 91 22 09
	00 00		 movsx	 edx, WORD PTR [ecx+2338]
  08f42	81 fa 2a 1a 00
	00		 cmp	 edx, 6698		; 00001a2aH
  08f48	75 18		 jne	 SHORT $LN16@GetAttackD@3
$LN15@GetAttackD@3:

; 4526 : 		{
; 4527 : 			damagemin += (BYTE)255;

  08f4a	8b 45 d0	 mov	 eax, DWORD PTR _damagemin$[ebp]
  08f4d	05 ff 00 00 00	 add	 eax, 255		; 000000ffH
  08f52	89 45 d0	 mov	 DWORD PTR _damagemin$[ebp], eax

; 4528 : 			damagemax += (BYTE)255;

  08f55	8b 45 cc	 mov	 eax, DWORD PTR _damagemax$[ebp]
  08f58	05 ff 00 00 00	 add	 eax, 255		; 000000ffH
  08f5d	89 45 cc	 mov	 DWORD PTR _damagemax$[ebp], eax

; 4529 : 		}
; 4530 : 		else

  08f60	eb 26		 jmp	 SHORT $LN14@GetAttackD@3
$LN16@GetAttackD@3:

; 4531 : 		{
; 4532 : 			damagemin += (BYTE)lpObj->m_AddResistance[SkillAttr];

  08f62	8b 45 08	 mov	 eax, DWORD PTR _lpObj$[ebp]
  08f65	03 45 9c	 add	 eax, DWORD PTR _SkillAttr$[ebp]
  08f68	0f b6 88 ff 04
	00 00		 movzx	 ecx, BYTE PTR [eax+1279]
  08f6f	03 4d d0	 add	 ecx, DWORD PTR _damagemin$[ebp]
  08f72	89 4d d0	 mov	 DWORD PTR _damagemin$[ebp], ecx

; 4533 : 			damagemax += (BYTE)lpObj->m_AddResistance[SkillAttr];

  08f75	8b 45 08	 mov	 eax, DWORD PTR _lpObj$[ebp]
  08f78	03 45 9c	 add	 eax, DWORD PTR _SkillAttr$[ebp]
  08f7b	0f b6 88 ff 04
	00 00		 movzx	 ecx, BYTE PTR [eax+1279]
  08f82	03 4d cc	 add	 ecx, DWORD PTR _damagemax$[ebp]
  08f85	89 4d cc	 mov	 DWORD PTR _damagemax$[ebp], ecx
$LN14@GetAttackD@3:

; 4534 : 		}
; 4535 : 	}
; 4536 : 
; 4537 : 	damagemin += lpObj->m_JewelOfHarmonyEffect.HJOpAddSkillAttack;

  08f88	8b 45 08	 mov	 eax, DWORD PTR _lpObj$[ebp]
  08f8b	0f bf 88 e4 1f
	00 00		 movsx	 ecx, WORD PTR [eax+8164]
  08f92	03 4d d0	 add	 ecx, DWORD PTR _damagemin$[ebp]
  08f95	89 4d d0	 mov	 DWORD PTR _damagemin$[ebp], ecx

; 4538 : 	damagemax += lpObj->m_JewelOfHarmonyEffect.HJOpAddSkillAttack;

  08f98	8b 45 08	 mov	 eax, DWORD PTR _lpObj$[ebp]
  08f9b	0f bf 88 e4 1f
	00 00		 movsx	 ecx, WORD PTR [eax+8164]
  08fa2	03 4d cc	 add	 ecx, DWORD PTR _damagemax$[ebp]
  08fa5	89 4d cc	 mov	 DWORD PTR _damagemax$[ebp], ecx

; 4539 : 
; 4540 : 	int subd = damagemax - damagemin;

  08fa8	8b 45 cc	 mov	 eax, DWORD PTR _damagemax$[ebp]
  08fab	2b 45 d0	 sub	 eax, DWORD PTR _damagemin$[ebp]
  08fae	89 45 98	 mov	 DWORD PTR _subd$[ebp], eax

; 4541 : 
; 4542 : 	__try

  08fb1	9b		 fwait
  08fb2	c7 45 fc 00 00
	00 00		 mov	 DWORD PTR __$SEHRec$[ebp+20], 0

; 4543 : 	{
; 4544 : 		if ( bIsOnDuel )

  08fb9	83 7d 18 00	 cmp	 DWORD PTR _bIsOnDuel$[ebp], 0
  08fbd	74 26		 je	 SHORT $LN12@GetAttackD@3

; 4545 : 		{
; 4546 : 			ad = ( damagemin + (rand()%(subd+1)) ) * 60 / 100 - targetDefense;	// #formula

  08fbf	e8 00 00 00 00	 call	 _rand
  08fc4	8b 4d 98	 mov	 ecx, DWORD PTR _subd$[ebp]
  08fc7	83 c1 01	 add	 ecx, 1
  08fca	99		 cdq
  08fcb	f7 f9		 idiv	 ecx
  08fcd	03 55 d0	 add	 edx, DWORD PTR _damagemin$[ebp]
  08fd0	6b d2 3c	 imul	 edx, 60			; 0000003cH
  08fd3	8b c2		 mov	 eax, edx
  08fd5	99		 cdq
  08fd6	b9 64 00 00 00	 mov	 ecx, 100		; 00000064H
  08fdb	f7 f9		 idiv	 ecx
  08fdd	2b 45 0c	 sub	 eax, DWORD PTR _targetDefense$[ebp]
  08fe0	89 45 c8	 mov	 DWORD PTR _ad$[ebp], eax

; 4547 : 		}
; 4548 : 		else

  08fe3	eb 17		 jmp	 SHORT $LN11@GetAttackD@3
$LN12@GetAttackD@3:

; 4549 : 		{
; 4550 : 			ad = ( damagemin + (rand()%(subd+1)) ) - targetDefense;

  08fe5	e8 00 00 00 00	 call	 _rand
  08fea	8b 4d 98	 mov	 ecx, DWORD PTR _subd$[ebp]
  08fed	83 c1 01	 add	 ecx, 1
  08ff0	99		 cdq
  08ff1	f7 f9		 idiv	 ecx
  08ff3	03 55 d0	 add	 edx, DWORD PTR _damagemin$[ebp]
  08ff6	2b 55 0c	 sub	 edx, DWORD PTR _targetDefense$[ebp]
  08ff9	89 55 c8	 mov	 DWORD PTR _ad$[ebp], edx
$LN11@GetAttackD@3:

; 4551 : 		}
; 4552 : 
; 4553 : 		if ( lpObj->m_CriticalDamage > 0 )

  08ffc	8b 45 08	 mov	 eax, DWORD PTR _lpObj$[ebp]
  08fff	83 b8 bc 04 00
	00 00		 cmp	 DWORD PTR [eax+1212], 0
  09006	0f 8e 87 00 00
	00		 jle	 $LN9@GetAttackD@3

; 4554 : 		{
; 4555 : 			if ( (rand()%100) < lpObj->m_CriticalDamage )

  0900c	e8 00 00 00 00	 call	 _rand
  09011	99		 cdq
  09012	b9 64 00 00 00	 mov	 ecx, 100		; 00000064H
  09017	f7 f9		 idiv	 ecx
  09019	8b 45 08	 mov	 eax, DWORD PTR _lpObj$[ebp]
  0901c	3b 90 bc 04 00
	00		 cmp	 edx, DWORD PTR [eax+1212]
  09022	7d 6f		 jge	 SHORT $LN9@GetAttackD@3

; 4556 : 			{
; 4557 : 				if ( bIsOnDuel )

  09024	83 7d 18 00	 cmp	 DWORD PTR _bIsOnDuel$[ebp], 0
  09028	74 16		 je	 SHORT $LN8@GetAttackD@3

; 4558 : 				{
; 4559 : 					ad = damagemax * 60 / 100 - targetDefense;

  0902a	8b 45 cc	 mov	 eax, DWORD PTR _damagemax$[ebp]
  0902d	6b c0 3c	 imul	 eax, 60			; 0000003cH
  09030	99		 cdq
  09031	b9 64 00 00 00	 mov	 ecx, 100		; 00000064H
  09036	f7 f9		 idiv	 ecx
  09038	2b 45 0c	 sub	 eax, DWORD PTR _targetDefense$[ebp]
  0903b	89 45 c8	 mov	 DWORD PTR _ad$[ebp], eax

; 4560 : 				}
; 4561 : 				else

  0903e	eb 09		 jmp	 SHORT $LN7@GetAttackD@3
$LN8@GetAttackD@3:

; 4562 : 				{
; 4563 : 					ad = damagemax - targetDefense;

  09040	8b 45 cc	 mov	 eax, DWORD PTR _damagemax$[ebp]
  09043	2b 45 0c	 sub	 eax, DWORD PTR _targetDefense$[ebp]
  09046	89 45 c8	 mov	 DWORD PTR _ad$[ebp], eax
$LN7@GetAttackD@3:

; 4564 : 				}
; 4565 : 
; 4566 : 				ad += lpObj->SetOpAddCriticalDamage;

  09049	8b 45 08	 mov	 eax, DWORD PTR _lpObj$[ebp]
  0904c	0f bf 88 2a 11
	00 00		 movsx	 ecx, WORD PTR [eax+4394]
  09053	03 4d c8	 add	 ecx, DWORD PTR _ad$[ebp]
  09056	89 4d c8	 mov	 DWORD PTR _ad$[ebp], ecx

; 4567 : 				ad += lpObj->m_JewelOfHarmonyEffect.HJOpAddCriticalDamage;

  09059	8b 45 08	 mov	 eax, DWORD PTR _lpObj$[ebp]
  0905c	0f bf 88 e2 1f
	00 00		 movsx	 ecx, WORD PTR [eax+8162]
  09063	03 4d c8	 add	 ecx, DWORD PTR _ad$[ebp]
  09066	89 4d c8	 mov	 DWORD PTR _ad$[ebp], ecx

; 4568 : 
; 4569 : 				int SkillAddCriticalDamage = 0;

  09069	c7 45 94 00 00
	00 00		 mov	 DWORD PTR _SkillAddCriticalDamage$241215[ebp], 0

; 4570 : 				gObjUpdateAppliedBuffEffect(lpObj, AT_INCREASE_CRITICAL_DMG, &SkillAddCriticalDamage, 0);

  09070	6a 00		 push	 0
  09072	8d 45 94	 lea	 eax, DWORD PTR _SkillAddCriticalDamage$241215[ebp]
  09075	50		 push	 eax
  09076	6a 05		 push	 5
  09078	8b 4d 08	 mov	 ecx, DWORD PTR _lpObj$[ebp]
  0907b	51		 push	 ecx
  0907c	e8 00 00 00 00	 call	 ?gObjUpdateAppliedBuffEffect@@YAEPAUOBJECTSTRUCT@@HPAH1@Z ; gObjUpdateAppliedBuffEffect
  09081	83 c4 10	 add	 esp, 16			; 00000010H

; 4571 : 				ad += SkillAddCriticalDamage;

  09084	8b 45 c8	 mov	 eax, DWORD PTR _ad$[ebp]
  09087	03 45 94	 add	 eax, DWORD PTR _SkillAddCriticalDamage$241215[ebp]
  0908a	89 45 c8	 mov	 DWORD PTR _ad$[ebp], eax

; 4572 : 
; 4573 : 				effect = 3;

  0908d	8b 45 14	 mov	 eax, DWORD PTR _effect$[ebp]
  09090	c6 00 03	 mov	 BYTE PTR [eax], 3
$LN9@GetAttackD@3:

; 4574 : 			}
; 4575 : 		}
; 4576 : 
; 4577 : 		if ( lpObj->m_ExcelentDamage > 0 )

  09093	8b 45 08	 mov	 eax, DWORD PTR _lpObj$[ebp]
  09096	83 b8 c0 04 00
	00 00		 cmp	 DWORD PTR [eax+1216], 0
  0909d	7e 67		 jle	 SHORT $LN5@GetAttackD@3

; 4578 : 		{
; 4579 : 			if ( (rand()%100) < lpObj->m_ExcelentDamage )

  0909f	e8 00 00 00 00	 call	 _rand
  090a4	99		 cdq
  090a5	b9 64 00 00 00	 mov	 ecx, 100		; 00000064H
  090aa	f7 f9		 idiv	 ecx
  090ac	8b 45 08	 mov	 eax, DWORD PTR _lpObj$[ebp]
  090af	3b 90 c0 04 00
	00		 cmp	 edx, DWORD PTR [eax+1216]
  090b5	7d 4f		 jge	 SHORT $LN5@GetAttackD@3

; 4580 : 			{
; 4581 : 				if ( bIsOnDuel )

  090b7	83 7d 18 00	 cmp	 DWORD PTR _bIsOnDuel$[ebp], 0
  090bb	74 16		 je	 SHORT $LN4@GetAttackD@3

; 4582 : 				{
; 4583 : 					ad = damagemax * 60 / 100 - targetDefense;

  090bd	8b 45 cc	 mov	 eax, DWORD PTR _damagemax$[ebp]
  090c0	6b c0 3c	 imul	 eax, 60			; 0000003cH
  090c3	99		 cdq
  090c4	b9 64 00 00 00	 mov	 ecx, 100		; 00000064H
  090c9	f7 f9		 idiv	 ecx
  090cb	2b 45 0c	 sub	 eax, DWORD PTR _targetDefense$[ebp]
  090ce	89 45 c8	 mov	 DWORD PTR _ad$[ebp], eax

; 4584 : 				}
; 4585 : 				else

  090d1	eb 09		 jmp	 SHORT $LN3@GetAttackD@3
$LN4@GetAttackD@3:

; 4586 : 				{
; 4587 : 					ad = damagemax - targetDefense;

  090d3	8b 45 cc	 mov	 eax, DWORD PTR _damagemax$[ebp]
  090d6	2b 45 0c	 sub	 eax, DWORD PTR _targetDefense$[ebp]
  090d9	89 45 c8	 mov	 DWORD PTR _ad$[ebp], eax
$LN3@GetAttackD@3:

; 4588 : 				}
; 4589 : 
; 4590 : 				ad += damagemax * 20 / 100;

  090dc	8b 45 cc	 mov	 eax, DWORD PTR _damagemax$[ebp]
  090df	6b c0 14	 imul	 eax, 20			; 00000014H
  090e2	99		 cdq
  090e3	b9 64 00 00 00	 mov	 ecx, 100		; 00000064H
  090e8	f7 f9		 idiv	 ecx
  090ea	03 45 c8	 add	 eax, DWORD PTR _ad$[ebp]
  090ed	89 45 c8	 mov	 DWORD PTR _ad$[ebp], eax

; 4591 : 				ad += lpObj->SetOpAddExDamage;

  090f0	8b 45 08	 mov	 eax, DWORD PTR _lpObj$[ebp]
  090f3	0f bf 88 26 11
	00 00		 movsx	 ecx, WORD PTR [eax+4390]
  090fa	03 4d c8	 add	 ecx, DWORD PTR _ad$[ebp]
  090fd	89 4d c8	 mov	 DWORD PTR _ad$[ebp], ecx

; 4592 : 				effect = 2;

  09100	8b 45 14	 mov	 eax, DWORD PTR _effect$[ebp]
  09103	c6 00 02	 mov	 BYTE PTR [eax], 2
$LN5@GetAttackD@3:

; 4593 : 			}
; 4594 : 		}
; 4595 : 	}

  09106	9b		 fwait
  09107	c7 45 fc fe ff
	ff ff		 mov	 DWORD PTR __$SEHRec$[ebp+20], -2 ; fffffffeH
  0910e	eb 17		 jmp	 SHORT $LN49@GetAttackD@3
$LN46@GetAttackD@3:
$LN51@GetAttackD@3:

; 4596 : 	__except ( subd=1, 1 )

  09110	c7 45 98 01 00
	00 00		 mov	 DWORD PTR _subd$[ebp], 1
  09117	b8 01 00 00 00	 mov	 eax, 1
$LN48@GetAttackD@3:
$LN50@GetAttackD@3:
  0911c	c3		 ret	 0
$LN47@GetAttackD@3:
  0911d	8b 65 e8	 mov	 esp, DWORD PTR __$SEHRec$[ebp]

; 4597 : 	{
; 4598 : 
; 4599 : 	}

  09120	c7 45 fc fe ff
	ff ff		 mov	 DWORD PTR __$SEHRec$[ebp+20], -2 ; fffffffeH
$LN49@GetAttackD@3:

; 4600 : 
; 4601 : 	SkillAttack += gObjGetActiveEffect(lpObj, ADD_OPTION_ATTACK_DAMAGE);

  09127	6a 02		 push	 2
  09129	8b 45 08	 mov	 eax, DWORD PTR _lpObj$[ebp]
  0912c	50		 push	 eax
  0912d	e8 00 00 00 00	 call	 ?gObjGetActiveEffect@@YAHPAUOBJECTSTRUCT@@H@Z ; gObjGetActiveEffect
  09132	83 c4 08	 add	 esp, 8
  09135	03 45 c4	 add	 eax, DWORD PTR _SkillAttack$[ebp]
  09138	89 45 c4	 mov	 DWORD PTR _SkillAttack$[ebp], eax

; 4602 : 
; 4603 : 	ad += SkillAttack;

  0913b	8b 45 c8	 mov	 eax, DWORD PTR _ad$[ebp]
  0913e	03 45 c4	 add	 eax, DWORD PTR _SkillAttack$[ebp]
  09141	89 45 c8	 mov	 DWORD PTR _ad$[ebp], eax

; 4604 : 
; 4605 : 	if ( lpObj->m_SkillAttack )

  09144	8b 45 08	 mov	 eax, DWORD PTR _lpObj$[ebp]
  09147	83 b8 24 04 00
	00 00		 cmp	 DWORD PTR [eax+1060], 0
  0914e	74 09		 je	 SHORT $LN2@GetAttackD@3

; 4606 : 	{
; 4607 : 		ad += 10;

  09150	8b 45 c8	 mov	 eax, DWORD PTR _ad$[ebp]
  09153	83 c0 0a	 add	 eax, 10			; 0000000aH
  09156	89 45 c8	 mov	 DWORD PTR _ad$[ebp], eax
$LN2@GetAttackD@3:

; 4608 : 	}
; 4609 : 
; 4610 : 	if( lpObj->m_MPSkillOpt.ukn_DC > 0.0f )

  09159	8b 45 08	 mov	 eax, DWORD PTR _lpObj$[ebp]
  0915c	d9 80 fc 26 00
	00		 fld	 DWORD PTR [eax+9980]
  09162	dc 1d 00 00 00
	00		 fcomp	 QWORD PTR __real@0000000000000000
  09168	df e0		 fnstsw	 ax
  0916a	f6 c4 41	 test	 ah, 65			; 00000041H
  0916d	75 1d		 jne	 SHORT $LN1@GetAttackD@3

; 4611 : 	{
; 4612 : 		ad += (double)ad * lpObj->m_MPSkillOpt.ukn_DC / 100.0f;

  0916f	db 45 c8	 fild	 DWORD PTR _ad$[ebp]
  09172	8b 45 08	 mov	 eax, DWORD PTR _lpObj$[ebp]
  09175	d8 88 fc 26 00
	00		 fmul	 DWORD PTR [eax+9980]
  0917b	dc 35 00 00 00
	00		 fdiv	 QWORD PTR __real@4059000000000000
  09181	da 45 c8	 fiadd	 DWORD PTR _ad$[ebp]
  09184	e8 00 00 00 00	 call	 __ftol2_sse
  09189	89 45 c8	 mov	 DWORD PTR _ad$[ebp], eax
$LN1@GetAttackD@3:

; 4613 : 	}
; 4614 : 
; 4615 : 	return ad;

  0918c	8b 45 c8	 mov	 eax, DWORD PTR _ad$[ebp]
$LN43@GetAttackD@3:

; 4616 : }

  0918f	8b 4d f0	 mov	 ecx, DWORD PTR __$SEHRec$[ebp+8]
  09192	64 89 0d 00 00
	00 00		 mov	 DWORD PTR fs:0, ecx
  09199	59		 pop	 ecx
  0919a	5f		 pop	 edi
  0919b	5e		 pop	 esi
  0919c	5b		 pop	 ebx
  0919d	8b e5		 mov	 esp, ebp
  0919f	5d		 pop	 ebp
  091a0	c2 14 00	 ret	 20			; 00000014H
?GetAttackDamageSummoner@CObjAttack@@QAEHPAUOBJECTSTRUCT@@HPAVCMagicInf@@AAEH@Z ENDP ; CObjAttack::GetAttackDamageSummoner
; Function compile flags: /Odtp /ZI
_iBerserkerValue$ = -8					; size = 4
_this$ = -4						; size = 4
_lpObj$ = 8						; size = 4
_Value1$ = 12						; size = 4
_Value2$ = 16						; size = 4
?GetBerserkerSkillAttackDamage@CObjAttack@@QAEEPAUOBJECTSTRUCT@@AAH1@Z PROC ; CObjAttack::GetBerserkerSkillAttackDamage
; _this$ = ecx

; 4620 : {

  091b0	55		 push	 ebp
  091b1	8b ec		 mov	 ebp, esp
  091b3	83 ec 48	 sub	 esp, 72			; 00000048H
  091b6	53		 push	 ebx
  091b7	56		 push	 esi
  091b8	57		 push	 edi
  091b9	89 4d fc	 mov	 DWORD PTR _this$[ebp], ecx

; 4621 : 	Value1 = (lpObj->Strength + lpObj->AddStrength + lpObj->Dexterity + lpObj->AddDexterity) / 7;

  091bc	8b 45 08	 mov	 eax, DWORD PTR _lpObj$[ebp]
  091bf	0f b7 80 f4 00
	00 00		 movzx	 eax, WORD PTR [eax+244]
  091c6	8b 4d 08	 mov	 ecx, DWORD PTR _lpObj$[ebp]
  091c9	0f bf 91 20 01
	00 00		 movsx	 edx, WORD PTR [ecx+288]
  091d0	03 c2		 add	 eax, edx
  091d2	8b 4d 08	 mov	 ecx, DWORD PTR _lpObj$[ebp]
  091d5	0f b7 91 f6 00
	00 00		 movzx	 edx, WORD PTR [ecx+246]
  091dc	03 c2		 add	 eax, edx
  091de	8b 4d 08	 mov	 ecx, DWORD PTR _lpObj$[ebp]
  091e1	0f bf 91 22 01
	00 00		 movsx	 edx, WORD PTR [ecx+290]
  091e8	03 c2		 add	 eax, edx
  091ea	99		 cdq
  091eb	b9 07 00 00 00	 mov	 ecx, 7
  091f0	f7 f9		 idiv	 ecx
  091f2	8b 55 0c	 mov	 edx, DWORD PTR _Value1$[ebp]
  091f5	89 02		 mov	 DWORD PTR [edx], eax

; 4622 : 	Value2 = (lpObj->Strength + lpObj->AddStrength + lpObj->Dexterity + lpObj->AddDexterity) / 4;

  091f7	8b 45 08	 mov	 eax, DWORD PTR _lpObj$[ebp]
  091fa	0f b7 80 f4 00
	00 00		 movzx	 eax, WORD PTR [eax+244]
  09201	8b 4d 08	 mov	 ecx, DWORD PTR _lpObj$[ebp]
  09204	0f bf 91 20 01
	00 00		 movsx	 edx, WORD PTR [ecx+288]
  0920b	03 c2		 add	 eax, edx
  0920d	8b 4d 08	 mov	 ecx, DWORD PTR _lpObj$[ebp]
  09210	0f b7 91 f6 00
	00 00		 movzx	 edx, WORD PTR [ecx+246]
  09217	03 c2		 add	 eax, edx
  09219	8b 4d 08	 mov	 ecx, DWORD PTR _lpObj$[ebp]
  0921c	0f bf 91 22 01
	00 00		 movsx	 edx, WORD PTR [ecx+290]
  09223	03 c2		 add	 eax, edx
  09225	99		 cdq
  09226	83 e2 03	 and	 edx, 3
  09229	03 c2		 add	 eax, edx
  0922b	c1 f8 02	 sar	 eax, 2
  0922e	8b 4d 10	 mov	 ecx, DWORD PTR _Value2$[ebp]
  09231	89 01		 mov	 DWORD PTR [ecx], eax

; 4623 : 
; 4624 : 	int iBerserkerValue = 0;

  09233	c7 45 f8 00 00
	00 00		 mov	 DWORD PTR _iBerserkerValue$[ebp], 0

; 4625 : 
; 4626 : 	gObjUpdateAppliedBuffEffect(lpObj, AT_BERSERKER, &iBerserkerValue, 0);

  0923a	6a 00		 push	 0
  0923c	8d 45 f8	 lea	 eax, DWORD PTR _iBerserkerValue$[ebp]
  0923f	50		 push	 eax
  09240	6a 51		 push	 81			; 00000051H
  09242	8b 4d 08	 mov	 ecx, DWORD PTR _lpObj$[ebp]
  09245	51		 push	 ecx
  09246	e8 00 00 00 00	 call	 ?gObjUpdateAppliedBuffEffect@@YAEPAUOBJECTSTRUCT@@HPAH1@Z ; gObjUpdateAppliedBuffEffect
  0924b	83 c4 10	 add	 esp, 16			; 00000010H

; 4627 : 
; 4628 : 	Value1 = Value1 * iBerserkerValue / 100;

  0924e	8b 45 0c	 mov	 eax, DWORD PTR _Value1$[ebp]
  09251	8b 00		 mov	 eax, DWORD PTR [eax]
  09253	0f af 45 f8	 imul	 eax, DWORD PTR _iBerserkerValue$[ebp]
  09257	99		 cdq
  09258	b9 64 00 00 00	 mov	 ecx, 100		; 00000064H
  0925d	f7 f9		 idiv	 ecx
  0925f	8b 55 0c	 mov	 edx, DWORD PTR _Value1$[ebp]
  09262	89 02		 mov	 DWORD PTR [edx], eax

; 4629 : 	Value2 = Value2 * iBerserkerValue / 100;

  09264	8b 45 10	 mov	 eax, DWORD PTR _Value2$[ebp]
  09267	8b 00		 mov	 eax, DWORD PTR [eax]
  09269	0f af 45 f8	 imul	 eax, DWORD PTR _iBerserkerValue$[ebp]
  0926d	99		 cdq
  0926e	b9 64 00 00 00	 mov	 ecx, 100		; 00000064H
  09273	f7 f9		 idiv	 ecx
  09275	8b 55 10	 mov	 edx, DWORD PTR _Value2$[ebp]
  09278	89 02		 mov	 DWORD PTR [edx], eax

; 4630 : 
; 4631 : 	return 1;

  0927a	b0 01		 mov	 al, 1

; 4632 : }

  0927c	5f		 pop	 edi
  0927d	5e		 pop	 esi
  0927e	5b		 pop	 ebx
  0927f	8b e5		 mov	 esp, ebp
  09281	5d		 pop	 ebp
  09282	c2 0c 00	 ret	 12			; 0000000cH
?GetBerserkerSkillAttackDamage@CObjAttack@@QAEEPAUOBJECTSTRUCT@@AAH1@Z ENDP ; CObjAttack::GetBerserkerSkillAttackDamage
_TEXT	ENDS
EXTRN	_atexit:PROC
; Function compile flags: /Odtp /ZI
;	COMDAT ??__EgclassObjAttack@@YAXXZ
text$yc	SEGMENT
??__EgclassObjAttack@@YAXXZ PROC			; `dynamic initializer for 'gclassObjAttack'', COMDAT

; 44   : CObjAttack gclassObjAttack;

  00000	55		 push	 ebp
  00001	8b ec		 mov	 ebp, esp
  00003	83 ec 40	 sub	 esp, 64			; 00000040H
  00006	53		 push	 ebx
  00007	56		 push	 esi
  00008	57		 push	 edi
  00009	b9 00 00 00 00	 mov	 ecx, OFFSET ?gclassObjAttack@@3VCObjAttack@@A ; gclassObjAttack
  0000e	e8 00 00 00 00	 call	 ??0CObjAttack@@QAE@XZ	; CObjAttack::CObjAttack
  00013	68 00 00 00 00	 push	 OFFSET ??__FgclassObjAttack@@YAXXZ ; `dynamic atexit destructor for 'gclassObjAttack''
  00018	e8 00 00 00 00	 call	 _atexit
  0001d	83 c4 04	 add	 esp, 4
  00020	5f		 pop	 edi
  00021	5e		 pop	 esi
  00022	5b		 pop	 ebx
  00023	8b e5		 mov	 esp, ebp
  00025	5d		 pop	 ebp
  00026	c3		 ret	 0
??__EgclassObjAttack@@YAXXZ ENDP			; `dynamic initializer for 'gclassObjAttack''
; Function compile flags: /Odtp /ZI
text$yc	ENDS
;	COMDAT ??__FgclassObjAttack@@YAXXZ
text$yd	SEGMENT
??__FgclassObjAttack@@YAXXZ PROC			; `dynamic atexit destructor for 'gclassObjAttack'', COMDAT
  00000	55		 push	 ebp
  00001	8b ec		 mov	 ebp, esp
  00003	83 ec 40	 sub	 esp, 64			; 00000040H
  00006	53		 push	 ebx
  00007	56		 push	 esi
  00008	57		 push	 edi
  00009	b9 00 00 00 00	 mov	 ecx, OFFSET ?gclassObjAttack@@3VCObjAttack@@A ; gclassObjAttack
  0000e	e8 00 00 00 00	 call	 ??1CObjAttack@@UAE@XZ	; CObjAttack::~CObjAttack
  00013	5f		 pop	 edi
  00014	5e		 pop	 esi
  00015	5b		 pop	 ebx
  00016	8b e5		 mov	 esp, ebp
  00018	5d		 pop	 ebp
  00019	c3		 ret	 0
??__FgclassObjAttack@@YAXXZ ENDP			; `dynamic atexit destructor for 'gclassObjAttack''
text$yd	ENDS
PUBLIC	?gclassObjAttack@@3VCObjAttack@@A		; gclassObjAttack
_BSS	SEGMENT
?gclassObjAttack@@3VCObjAttack@@A DD 01H DUP (?)	; gclassObjAttack
_BSS	ENDS
CRT$XCU	SEGMENT
_gclassObjAttack$initializer$ DD FLAT:??__EgclassObjAttack@@YAXXZ
CRT$XCU	ENDS
END
