; Listing generated by Microsoft (R) Optimizing Compiler Version 16.00.40219.01 

	TITLE	D:\Projects\ExTeam6.3\Source\GameServer\GameServer\ObjAttack.cpp
	.686P
	.XMM
	include listing.inc
	.model	flat

INCLUDELIB LIBCMT
INCLUDELIB OLDNAMES

_DATA	SEGMENT
_g_sttBLOODCASTLE_LEVEL DD 0fH
	DD	050H
	DD	0aH
	DD	03cH
	DD	051H
	DD	082H
	DD	03dH
	DD	06eH
	DD	083H
	DD	0b4H
	DD	06fH
	DD	0a0H
	DD	0b5H
	DD	0e6H
	DD	0a1H
	DD	0d2H
	DD	0e7H
	DD	0118H
	DD	0d3H
	DD	0104H
	DD	0119H
	DD	014aH
	DD	0105H
	DD	0136H
	DD	014bH
	DD	0190H
	DD	0137H
	DD	0190H
	DD	0fH
	DD	0257H
	DD	0aH
	DD	0257H
_g_sttCHAOSCASTLE_LEVEL DD 0fH
	DD	031H
	DD	0fH
	DD	01dH
	DD	032H
	DD	077H
	DD	01eH
	DD	063H
	DD	078H
	DD	0b3H
	DD	064H
	DD	09fH
	DD	0b4H
	DD	0efH
	DD	0a0H
	DD	0dbH
	DD	0f0H
	DD	012bH
	DD	0dcH
	DD	0117H
	DD	012cH
	DD	0190H
	DD	0118H
	DD	0190H
	DD	0190H
	DD	0257H
	DD	0190H
	DD	0257H
_g_iChaosCastle_BlowOutDistance DD 03H
	DD	04H
	DD	03H
	DD	04H
	DD	02H
	DD	03H
	DD	00H
	DD	01H
_g_iChaosCastle_BlowOutDamage DD 0fH
	DD	0fH
	DD	0aH
	DD	05H
_g_iChaosCastle_EnterCost DD 061a8H
	DD	013880H
	DD	0249f0H
	DD	03d090H
	DD	061a80H
	DD	09eb10H
	DD	0f4240H
_g_iChaosCastle_GuardSetValue DD 09c4H
	DD	09c4H
	DD	09c4H
	DD	09c4H
	DD	09c4H
	DD	09c4H
	DD	09c4H
_g_iChaosCastle_MonsterItems DD 01c0dH
	DD	01H
	DD	01c0eH
	DD	02H
	DD	01c0dH
	DD	01H
	DD	01c0eH
	DD	03H
	DD	01c0dH
	DD	01H
	DD	01c0eH
	DD	03H
	DD	01c0dH
	DD	02H
	DD	01c0eH
	DD	02H
	DD	01c0dH
	DD	02H
	DD	01c0eH
	DD	03H
	DD	01c0dH
	DD	02H
	DD	01c0eH
	DD	03H
	DD	01c0dH
	DD	02H
	DD	01c0eH
	DD	04H
_g_iChaosCastle_MonsterItemsNewServer DD 00H
	DD	00H
	DD	01c0eH
	DD	02H
	DD	01c0dH
	DD	01H
	DD	01c0eH
	DD	01H
	DD	01c0dH
	DD	01H
	DD	01c0eH
	DD	02H
	DD	01c0dH
	DD	01H
	DD	01c0eH
	DD	02H
	DD	01c0dH
	DD	02H
	DD	01c0eH
	DD	01H
	DD	01c0dH
	DD	02H
	DD	01c0eH
	DD	02H
	DD	01c0dH
	DD	02H
	DD	01c0eH
	DD	03H
_g_iChaosCastle_GroundAxis DD 017H
	DD	04bH
	DD	02cH
	DD	06cH
_g_iChaosCastle_DamageAxis DD 017H
	DD	04bH
	DD	02cH
	DD	06cH
	DD	019H
	DD	04dH
	DD	02aH
	DD	06aH
	DD	01bH
	DD	04fH
	DD	028H
	DD	068H
	DD	01dH
	DD	051H
	DD	026H
	DD	066H
_g_iChaosCastle_MapHollowZone DD 017H
	DD	04bH
	DD	02cH
	DD	04cH
	DD	02bH
	DD	04dH
	DD	02cH
	DD	06cH
	DD	017H
	DD	06bH
	DD	02aH
	DD	06cH
	DD	017H
	DD	04dH
	DD	018H
	DD	06aH
	DD	017H
	DD	04bH
	DD	02cH
	DD	04cH
	DD	02bH
	DD	04dH
	DD	02cH
	DD	06cH
	DD	017H
	DD	06bH
	DD	02aH
	DD	06cH
	DD	017H
	DD	04dH
	DD	018H
	DD	06aH
	DD	019H
	DD	04dH
	DD	02aH
	DD	04eH
	DD	029H
	DD	04fH
	DD	02aH
	DD	06aH
	DD	019H
	DD	069H
	DD	028H
	DD	06aH
	DD	019H
	DD	04fH
	DD	01aH
	DD	068H
	DD	01bH
	DD	04fH
	DD	028H
	DD	050H
	DD	027H
	DD	051H
	DD	028H
	DD	068H
	DD	01bH
	DD	067H
	DD	026H
	DD	068H
	DD	01bH
	DD	051H
	DD	01cH
	DD	066H
_g_iNpcUpDfLevel_CGATE DD 01H
	DD	02H
	DD	02dc6c0H
	DD	02H
	DD	03H
	DD	02dc6c0H
	DD	03H
	DD	04H
	DD	02dc6c0H
_g_iNpcUpDfLevel_CSTATUE DD 01H
	DD	03H
	DD	02dc6c0H
	DD	02H
	DD	05H
	DD	02dc6c0H
	DD	03H
	DD	07H
	DD	02dc6c0H
_g_iNpcUpMaxHP_CGATE DD 02625a0H
	DD	02H
	DD	0f4240H
	DD	03567e0H
	DD	03H
	DD	0f4240H
	DD	04f5880H
	DD	04H
	DD	0f4240H
_g_iNpcUpMaxHP_CSTATUE DD 02191c0H
	DD	03H
	DD	0f4240H
	DD	033e140H
	DD	05H
	DD	0f4240H
	DD	04c4b40H
	DD	07H
	DD	0f4240H
_g_iNpcUpRgLevel_CSTATUE DD 01H
	DD	03H
	DD	04c4b40H
	DD	02H
	DD	05H
	DD	04c4b40H
	DD	03H
	DD	07H
	DD	04c4b40H
_g_iCsUserReSpawnArea DD 023H
	DD	011H
	DD	090H
	DD	030H
	DD	04aH
	DD	090H
	DD	073H
	DD	09aH
	DD	023H
	DD	011H
	DD	090H
	DD	030H
_g_iNpcDefense_CGATE DD 064H
	DD	0b4H
	DD	012cH
	DD	0208H
_g_iNpcDefense_CSTATUE DD 050H
	DD	0b4H
	DD	0154H
	DD	0226H
_g_iCastleWallStepAxisY DD 071H
	DD	0a0H
	DD	0cbH
_DATA	ENDS
PUBLIC	??_H@YGXPAXIHP6EPAX0@Z@Z			; `vector constructor iterator'
; Function compile flags: /Odtp /ZI
;	COMDAT ??_H@YGXPAXIHP6EPAX0@Z@Z
_TEXT	SEGMENT
___t$ = 8						; size = 4
___s$ = 12						; size = 4
___n$ = 16						; size = 4
___f$ = 20						; size = 4
??_H@YGXPAXIHP6EPAX0@Z@Z PROC				; `vector constructor iterator', COMDAT
  00000	55		 push	 ebp
  00001	8b ec		 mov	 ebp, esp
  00003	83 ec 40	 sub	 esp, 64			; 00000040H
  00006	53		 push	 ebx
  00007	56		 push	 esi
  00008	57		 push	 edi
$LN2@vector:
  00009	8b 45 10	 mov	 eax, DWORD PTR ___n$[ebp]
  0000c	83 e8 01	 sub	 eax, 1
  0000f	89 45 10	 mov	 DWORD PTR ___n$[ebp], eax
  00012	78 11		 js	 SHORT $LN3@vector
  00014	8b 4d 08	 mov	 ecx, DWORD PTR ___t$[ebp]
  00017	ff 55 14	 call	 DWORD PTR ___f$[ebp]
  0001a	8b 45 08	 mov	 eax, DWORD PTR ___t$[ebp]
  0001d	03 45 0c	 add	 eax, DWORD PTR ___s$[ebp]
  00020	89 45 08	 mov	 DWORD PTR ___t$[ebp], eax
  00023	eb e4		 jmp	 SHORT $LN2@vector
$LN3@vector:
  00025	5f		 pop	 edi
  00026	5e		 pop	 esi
  00027	5b		 pop	 ebx
  00028	8b e5		 mov	 esp, ebp
  0002a	5d		 pop	 ebp
  0002b	c2 10 00	 ret	 16			; 00000010H
??_H@YGXPAXIHP6EPAX0@Z@Z ENDP				; `vector constructor iterator'
_TEXT	ENDS
PUBLIC	??_7CObjAttack@@6B@				; CObjAttack::`vftable'
PUBLIC	??0CObjAttack@@QAE@XZ				; CObjAttack::CObjAttack
PUBLIC	??_R4CObjAttack@@6B@				; CObjAttack::`RTTI Complete Object Locator'
PUBLIC	??_R0?AVCObjAttack@@@8				; CObjAttack `RTTI Type Descriptor'
PUBLIC	??_R3CObjAttack@@8				; CObjAttack::`RTTI Class Hierarchy Descriptor'
PUBLIC	??_R2CObjAttack@@8				; CObjAttack::`RTTI Base Class Array'
PUBLIC	??_R1A@?0A@EA@CObjAttack@@8			; CObjAttack::`RTTI Base Class Descriptor at (0,-1,0,64)'
PUBLIC	??_R1A@?0A@EA@CObjBaseAttack@@8			; CObjBaseAttack::`RTTI Base Class Descriptor at (0,-1,0,64)'
PUBLIC	??_R0?AVCObjBaseAttack@@@8			; CObjBaseAttack `RTTI Type Descriptor'
PUBLIC	??_R3CObjBaseAttack@@8				; CObjBaseAttack::`RTTI Class Hierarchy Descriptor'
PUBLIC	??_R2CObjBaseAttack@@8				; CObjBaseAttack::`RTTI Base Class Array'
EXTRN	??0CObjBaseAttack@@QAE@XZ:PROC			; CObjBaseAttack::CObjBaseAttack
EXTRN	??_7type_info@@6B@:QWORD			; type_info::`vftable'
EXTRN	??_ECObjAttack@@UAEPAXI@Z:PROC			; CObjAttack::`vector deleting destructor'
EXTRN	?MissCheck@CObjBaseAttack@@UAEHPAUOBJECTSTRUCT@@0HHHAAHE@Z:PROC ; CObjBaseAttack::MissCheck
;	COMDAT ??_R2CObjBaseAttack@@8
; File d:\projects\exteam6.3\source\gameserver\gameserver\objattack.cpp
rdata$r	SEGMENT
??_R2CObjBaseAttack@@8 DD FLAT:??_R1A@?0A@EA@CObjBaseAttack@@8 ; CObjBaseAttack::`RTTI Base Class Array'
rdata$r	ENDS
;	COMDAT ??_R3CObjBaseAttack@@8
rdata$r	SEGMENT
??_R3CObjBaseAttack@@8 DD 00H				; CObjBaseAttack::`RTTI Class Hierarchy Descriptor'
	DD	00H
	DD	01H
	DD	FLAT:??_R2CObjBaseAttack@@8
rdata$r	ENDS
;	COMDAT ??_R0?AVCObjBaseAttack@@@8
_DATA	SEGMENT
??_R0?AVCObjBaseAttack@@@8 DD FLAT:??_7type_info@@6B@	; CObjBaseAttack `RTTI Type Descriptor'
	DD	00H
	DB	'.?AVCObjBaseAttack@@', 00H
_DATA	ENDS
;	COMDAT ??_R1A@?0A@EA@CObjBaseAttack@@8
rdata$r	SEGMENT
??_R1A@?0A@EA@CObjBaseAttack@@8 DD FLAT:??_R0?AVCObjBaseAttack@@@8 ; CObjBaseAttack::`RTTI Base Class Descriptor at (0,-1,0,64)'
	DD	00H
	DD	00H
	DD	0ffffffffH
	DD	00H
	DD	040H
	DD	FLAT:??_R3CObjBaseAttack@@8
rdata$r	ENDS
;	COMDAT ??_R1A@?0A@EA@CObjAttack@@8
rdata$r	SEGMENT
??_R1A@?0A@EA@CObjAttack@@8 DD FLAT:??_R0?AVCObjAttack@@@8 ; CObjAttack::`RTTI Base Class Descriptor at (0,-1,0,64)'
	DD	01H
	DD	00H
	DD	0ffffffffH
	DD	00H
	DD	040H
	DD	FLAT:??_R3CObjAttack@@8
rdata$r	ENDS
;	COMDAT ??_R2CObjAttack@@8
rdata$r	SEGMENT
??_R2CObjAttack@@8 DD FLAT:??_R1A@?0A@EA@CObjAttack@@8	; CObjAttack::`RTTI Base Class Array'
	DD	FLAT:??_R1A@?0A@EA@CObjBaseAttack@@8
rdata$r	ENDS
;	COMDAT ??_R3CObjAttack@@8
rdata$r	SEGMENT
??_R3CObjAttack@@8 DD 00H				; CObjAttack::`RTTI Class Hierarchy Descriptor'
	DD	00H
	DD	02H
	DD	FLAT:??_R2CObjAttack@@8
rdata$r	ENDS
;	COMDAT ??_R0?AVCObjAttack@@@8
_DATA	SEGMENT
??_R0?AVCObjAttack@@@8 DD FLAT:??_7type_info@@6B@	; CObjAttack `RTTI Type Descriptor'
	DD	00H
	DB	'.?AVCObjAttack@@', 00H
_DATA	ENDS
;	COMDAT ??_R4CObjAttack@@6B@
rdata$r	SEGMENT
??_R4CObjAttack@@6B@ DD 00H				; CObjAttack::`RTTI Complete Object Locator'
	DD	00H
	DD	00H
	DD	FLAT:??_R0?AVCObjAttack@@@8
	DD	FLAT:??_R3CObjAttack@@8
rdata$r	ENDS
;	COMDAT ??_7CObjAttack@@6B@
CONST	SEGMENT
??_7CObjAttack@@6B@ DD FLAT:??_R4CObjAttack@@6B@	; CObjAttack::`vftable'
	DD	FLAT:??_ECObjAttack@@UAEPAXI@Z
	DD	FLAT:?MissCheck@CObjBaseAttack@@UAEHPAUOBJECTSTRUCT@@0HHHAAHE@Z
; Function compile flags: /Odtp /ZI
CONST	ENDS
_TEXT	SEGMENT
_this$ = -4						; size = 4
??0CObjAttack@@QAE@XZ PROC				; CObjAttack::CObjAttack
; _this$ = ecx

; 47   : {

  00000	55		 push	 ebp
  00001	8b ec		 mov	 ebp, esp
  00003	83 ec 44	 sub	 esp, 68			; 00000044H
  00006	53		 push	 ebx
  00007	56		 push	 esi
  00008	57		 push	 edi
  00009	89 4d fc	 mov	 DWORD PTR _this$[ebp], ecx
  0000c	8b 4d fc	 mov	 ecx, DWORD PTR _this$[ebp]
  0000f	e8 00 00 00 00	 call	 ??0CObjBaseAttack@@QAE@XZ ; CObjBaseAttack::CObjBaseAttack
  00014	8b 45 fc	 mov	 eax, DWORD PTR _this$[ebp]
  00017	c7 00 00 00 00
	00		 mov	 DWORD PTR [eax], OFFSET ??_7CObjAttack@@6B@

; 48   : 
; 49   : }

  0001d	8b 45 fc	 mov	 eax, DWORD PTR _this$[ebp]
  00020	5f		 pop	 edi
  00021	5e		 pop	 esi
  00022	5b		 pop	 ebx
  00023	8b e5		 mov	 esp, ebp
  00025	5d		 pop	 ebp
  00026	c3		 ret	 0
??0CObjAttack@@QAE@XZ ENDP				; CObjAttack::CObjAttack
_TEXT	ENDS
PUBLIC	??1CObjAttack@@UAE@XZ				; CObjAttack::~CObjAttack
EXTRN	??3@YAXPAX@Z:PROC				; operator delete
; Function compile flags: /Odtp /ZI
;	COMDAT ??_GCObjAttack@@UAEPAXI@Z
_TEXT	SEGMENT
_this$ = -4						; size = 4
___flags$ = 8						; size = 4
??_GCObjAttack@@UAEPAXI@Z PROC				; CObjAttack::`scalar deleting destructor', COMDAT
; _this$ = ecx
  00000	55		 push	 ebp
  00001	8b ec		 mov	 ebp, esp
  00003	83 ec 44	 sub	 esp, 68			; 00000044H
  00006	53		 push	 ebx
  00007	56		 push	 esi
  00008	57		 push	 edi
  00009	89 4d fc	 mov	 DWORD PTR _this$[ebp], ecx
  0000c	8b 4d fc	 mov	 ecx, DWORD PTR _this$[ebp]
  0000f	e8 00 00 00 00	 call	 ??1CObjAttack@@UAE@XZ	; CObjAttack::~CObjAttack
  00014	8b 45 08	 mov	 eax, DWORD PTR ___flags$[ebp]
  00017	83 e0 01	 and	 eax, 1
  0001a	74 0c		 je	 SHORT $LN1@scalar
  0001c	8b 45 fc	 mov	 eax, DWORD PTR _this$[ebp]
  0001f	50		 push	 eax
  00020	e8 00 00 00 00	 call	 ??3@YAXPAX@Z		; operator delete
  00025	83 c4 04	 add	 esp, 4
$LN1@scalar:
  00028	8b 45 fc	 mov	 eax, DWORD PTR _this$[ebp]
  0002b	5f		 pop	 edi
  0002c	5e		 pop	 esi
  0002d	5b		 pop	 ebx
  0002e	8b e5		 mov	 esp, ebp
  00030	5d		 pop	 ebp
  00031	c2 04 00	 ret	 4
??_GCObjAttack@@UAEPAXI@Z ENDP				; CObjAttack::`scalar deleting destructor'
_TEXT	ENDS
EXTRN	??1CObjBaseAttack@@UAE@XZ:PROC			; CObjBaseAttack::~CObjBaseAttack
; Function compile flags: /Odtp /ZI
_TEXT	SEGMENT
_this$ = -4						; size = 4
??1CObjAttack@@UAE@XZ PROC				; CObjAttack::~CObjAttack
; _this$ = ecx

; 52   : {

  00030	55		 push	 ebp
  00031	8b ec		 mov	 ebp, esp
  00033	83 ec 44	 sub	 esp, 68			; 00000044H
  00036	53		 push	 ebx
  00037	56		 push	 esi
  00038	57		 push	 edi
  00039	89 4d fc	 mov	 DWORD PTR _this$[ebp], ecx
  0003c	8b 45 fc	 mov	 eax, DWORD PTR _this$[ebp]
  0003f	c7 00 00 00 00
	00		 mov	 DWORD PTR [eax], OFFSET ??_7CObjAttack@@6B@

; 53   : 
; 54   : }

  00045	8b 4d fc	 mov	 ecx, DWORD PTR _this$[ebp]
  00048	e8 00 00 00 00	 call	 ??1CObjBaseAttack@@UAE@XZ ; CObjBaseAttack::~CObjBaseAttack
  0004d	5f		 pop	 edi
  0004e	5e		 pop	 esi
  0004f	5b		 pop	 ebx
  00050	8b e5		 mov	 esp, ebp
  00052	5d		 pop	 ebp
  00053	c3		 ret	 0
??1CObjAttack@@UAE@XZ ENDP				; CObjAttack::~CObjAttack
_TEXT	ENDS
PUBLIC	??_C@_0FB@HEJCKECH@?$FLPvP?5System?$FN?5Victim?3?$FL?$CFs?$FN?$FL?$CFs?$FN?0?5At@ ; `string'
PUBLIC	??_C@_0DB@MDAHJJLM@error?9Level1?5?3?5?$FL?$CFs?$FN?$FL?$CFs?$FN?5Str?3?$CFd?5?$CF@ ; `string'
PUBLIC	__real@3f800000
PUBLIC	__real@4014000000000000
PUBLIC	?GetShieldDamage@CObjAttack@@QAEHPAUOBJECTSTRUCT@@0H@Z ; CObjAttack::GetShieldDamage
PUBLIC	?gObjFenrir@@YAHPAUOBJECTSTRUCT@@@Z		; gObjFenrir
PUBLIC	__real@408f400000000000
PUBLIC	__real@4002666666666666
PUBLIC	__real@400199999999999a
PUBLIC	__real@404e000000000000
PUBLIC	__real@4004000000000000
PUBLIC	?gObjDarkHorse@@YAHPAUOBJECTSTRUCT@@@Z		; gObjDarkHorse
PUBLIC	?gObjDenorantSprite@@YAHPAUOBJECTSTRUCT@@@Z	; gObjDenorantSprite
PUBLIC	__real@3ff0000000000000
PUBLIC	__real@4024000000000000
PUBLIC	__real@00000000
PUBLIC	__real@0000000000000000
PUBLIC	__real@4008000000000000
PUBLIC	__real@4000000000000000
PUBLIC	__real@4059000000000000
PUBLIC	__real@4010000000000000
PUBLIC	??_C@_0BH@NMKEOPCM@?$CFs?5AttackDamage?3?5?$CFd?5?$CFd?$AA@ ; `string'
PUBLIC	??_C@_09PBMNMIBJ@EXCELLENT?$AA@			; `string'
PUBLIC	??_C@_08FOLAHAHG@CRITICAL?$AA@			; `string'
PUBLIC	?GetAttackDamageSummoner@CObjAttack@@QAEHPAUOBJECTSTRUCT@@HPAVCMagicInf@@AAEH@Z ; CObjAttack::GetAttackDamageSummoner
PUBLIC	?GetAttackDamageWizard@CObjAttack@@QAEHPAUOBJECTSTRUCT@@HPAVCMagicInf@@AAEH@Z ; CObjAttack::GetAttackDamageWizard
PUBLIC	?GetAttackDamage@CObjAttack@@QAEHPAUOBJECTSTRUCT@@HAAEHPAVCMagicInf@@@Z ; CObjAttack::GetAttackDamage
PUBLIC	?GetCastleState@CCastleSiege@@QAEHXZ		; CCastleSiege::GetCastleState
PUBLIC	?GetCrywolfState@CCrywolf@@QAEHXZ		; CCrywolf::GetCrywolfState
PUBLIC	__$ArrayPad$
PUBLIC	?Attack@CObjAttack@@QAEHPAUOBJECTSTRUCT@@0PAVCMagicInf@@HEHHEE@Z ; CObjAttack::Attack
EXTRN	?GCDamageTable@ÑExUser@@QAEXH@Z:PROC		; ÑExUser::GCDamageTable
EXTRN	?SpecificSkillAdditionTreat@CObjUseSkill@@QAEXPAUOBJECTSTRUCT@@0PAVCMagicInf@@H@Z:PROC ; CObjUseSkill::SpecificSkillAdditionTreat
EXTRN	?LogAddTD@@3P6AXPADZZA:DWORD			; LogAddTD
EXTRN	?gObjLifeCheck@@YAXPAUOBJECTSTRUCT@@0HHHHGH@Z:PROC ; gObjLifeCheck
EXTRN	?FireScreamExplosionAttack@CObjUseSkill@@QAEHPAUOBJECTSTRUCT@@0H@Z:PROC ; CObjUseSkill::FireScreamExplosionAttack
EXTRN	?LogAdd@@3P6AXPADZZA:DWORD			; LogAdd
EXTRN	?GCManaSend@@YAXHHEEH@Z:PROC			; GCManaSend
EXTRN	?gObjUniriaSprite@@YAHPAUOBJECTSTRUCT@@@Z:PROC	; gObjUniriaSprite
EXTRN	?GCActionSend@@YAXPAUOBJECTSTRUCT@@EHH@Z:PROC	; GCActionSend
EXTRN	?gObjCheckSelfDefense@@YAXPAUOBJECTSTRUCT@@H@Z:PROC ; gObjCheckSelfDefense
EXTRN	?GetPkLevel@PartyClass@@QAEDH@Z:PROC		; PartyClass::GetPkLevel
EXTRN	?gParty@@3VPartyClass@@A:BYTE			; gParty
EXTRN	?gObjTargetGuildWarCheck@@YAHPAUOBJECTSTRUCT@@0@Z:PROC ; gObjTargetGuildWarCheck
EXTRN	?gObjRemoveBuffEffect@@YAEPAUOBJECTSTRUCT@@H@Z:PROC ; gObjRemoveBuffEffect
EXTRN	?GCMagicCancelSend@@YAXPAUOBJECTSTRUCT@@G@Z:PROC ; GCMagicCancelSend
EXTRN	?gObjUpdateSpecificBuffEffectDuration@@YAEPAUOBJECTSTRUCT@@HH@Z:PROC ; gObjUpdateSpecificBuffEffectDuration
EXTRN	?gObjArmorRandomDurDown@@YAXPAUOBJECTSTRUCT@@0@Z:PROC ; gObjArmorRandomDurDown
EXTRN	?gObjGetRelationShip@@YAHPAUOBJECTSTRUCT@@0@Z:PROC ; gObjGetRelationShip
EXTRN	?IncAgro@TMonsterAIAgro@@QAEHHH@Z:PROC		; TMonsterAIAgro::IncAgro
EXTRN	?GCItemDurSend@@YAXHEEE@Z:PROC			; GCItemDurSend
EXTRN	?IsLuckyItemEquipment@LuckyItemManager@@QAEHH@Z:PROC ; LuckyItemManager::IsLuckyItemEquipment
EXTRN	?g_LuckyItemManager@@3ULuckyItemManager@@A:BYTE	; g_LuckyItemManager
EXTRN	?AttackDamageRG@cSystemOfRage@@QAEXPAUOBJECTSTRUCT@@0AAH_N@Z:PROC ; cSystemOfRage::AttackDamageRG
EXTRN	?gSystemOfRage@@3VcSystemOfRage@@A:BYTE		; gSystemOfRage
EXTRN	?IsFenrirDecLastAttackDamage@CItem@@QAEHXZ:PROC	; CItem::IsFenrirDecLastAttackDamage
EXTRN	?IsFenrirIncLastAttackDamage@CItem@@QAEHXZ:PROC	; CItem::IsFenrirIncLastAttackDamage
EXTRN	?gObjWeaponDurDownInCastle@@YAXPAUOBJECTSTRUCT@@0H@Z:PROC ; gObjWeaponDurDownInCastle
EXTRN	?GetAltarUserIndex@CCrywolfAltar@@QAEHH@Z:PROC	; CCrywolfAltar::GetAltarUserIndex
EXTRN	?g_CrywolfNPC_Altar@@3VCCrywolfAltar@@A:BYTE	; g_CrywolfNPC_Altar
EXTRN	?Main@cBalanceSystem@@QAEXPAUOBJECTSTRUCT@@0AAH@Z:PROC ; cBalanceSystem::Main
EXTRN	?gBalanceSystem@@3VcBalanceSystem@@A:BYTE	; gBalanceSystem
EXTRN	?gObjBackSpring2@@YAHPAUOBJECTSTRUCT@@0H@Z:PROC	; gObjBackSpring2
EXTRN	?GetSkillAttr@CMagicDamage@@QAEHH@Z:PROC	; CMagicDamage::GetSkillAttr
EXTRN	?GetDetailItemType@CItem@@QAEHXZ:PROC		; CItem::GetDetailItemType
EXTRN	?GetBaseMasterLevelSkill@CMasterLevelSkillTreeSystem@@QAEHH@Z:PROC ; CMasterLevelSkillTreeSystem::GetBaseMasterLevelSkill
EXTRN	?GetMasterSkillValue@CMasterLevelSkillTreeSystem@@QAEMHH@Z:PROC ; CMasterLevelSkillTreeSystem::GetMasterSkillValue
EXTRN	?SkillGet@CMagicDamage@@QAEHH@Z:PROC		; CMagicDamage::SkillGet
EXTRN	?MagicDamageC@@3VCMagicDamage@@A:BYTE		; MagicDamageC
EXTRN	?CheckRequireStatus@CMasterLevelSkillTreeSystem@@QAEHH@Z:PROC ; CMasterLevelSkillTreeSystem::CheckRequireStatus
EXTRN	?g_MasterSkillSystem@@3VCMasterLevelSkillTreeSystem@@A:BYTE ; g_MasterSkillSystem
EXTRN	?g_UserConfig@@3VCUserConfig@@A:BYTE		; g_UserConfig
EXTRN	?gObjBackSpring@@YAHPAUOBJECTSTRUCT@@0@Z:PROC	; gObjBackSpring
EXTRN	?gObjCheckBuffEffectValue@@YAEPAUOBJECTSTRUCT@@HHH@Z:PROC ; gObjCheckBuffEffectValue
EXTRN	?SkillEletrictSurgeProc@CObjUseSkill@@QAEHPAUOBJECTSTRUCT@@0HHHH@Z:PROC ; CObjUseSkill::SkillEletrictSurgeProc
EXTRN	?ExConfig@@3VcExConfigs@@A:BYTE			; ExConfig
EXTRN	?SetCharHorseAttack@cWingsDamage@@QAEXHHHAAH@Z:PROC ; cWingsDamage::SetCharHorseAttack
EXTRN	?IsDinorantReduceAttackDamaege@CItem@@QAEHXZ:PROC ; CItem::IsDinorantReduceAttackDamaege
EXTRN	?SetCharWingAbsurd@cWingsDamage@@QAEXHHHAAH@Z:PROC ; cWingsDamage::SetCharWingAbsurd
EXTRN	?Defence@cWingsDamage@@QAEXHAAH@Z:PROC		; cWingsDamage::Defence
EXTRN	?gObjAddMsgSendDelay@@YAXPAUOBJECTSTRUCT@@HHHH@Z:PROC ; gObjAddMsgSendDelay
EXTRN	?SetCharWingAttack@cWingsDamage@@QAEXHHHAAH@Z:PROC ; cWingsDamage::SetCharWingAttack
EXTRN	?Attack@cWingsDamage@@QAEXHAAH@Z:PROC		; cWingsDamage::Attack
EXTRN	?gWingsDamage@@3VcWingsDamage@@A:BYTE		; gWingsDamage
EXTRN	?gObjWingSprite@@YAHPAUOBJECTSTRUCT@@@Z:PROC	; gObjWingSprite
EXTRN	?IsItem@CItem@@QAEHXZ:PROC			; CItem::IsItem
EXTRN	?gObjSpiritGuardianSprite@@YAHPAUOBJECTSTRUCT@@@Z:PROC ; gObjSpiritGuardianSprite
EXTRN	?gObjSkeletonSprite@@YAHPAUOBJECTSTRUCT@@@Z:PROC ; gObjSkeletonSprite
EXTRN	?gObjDemonSprite@@YAHPAUOBJECTSTRUCT@@@Z:PROC	; gObjDemonSprite
EXTRN	?gObjAngelSprite@@YAHPAUOBJECTSTRUCT@@@Z:PROC	; gObjAngelSprite
EXTRN	?GCReFillSend@@YAXHHEEH@Z:PROC			; GCReFillSend
EXTRN	?gObjSatanSprite@@YAHPAUOBJECTSTRUCT@@@Z:PROC	; gObjSatanSprite
EXTRN	?gObjSpriteDamage@@YAXPAUOBJECTSTRUCT@@H@Z:PROC	; gObjSpriteDamage
EXTRN	?GCServerMsgStringSend@@YAXPADHE@Z:PROC		; GCServerMsgStringSend
EXTRN	_sprintf:PROC
EXTRN	?g_bAbilityDebug@@3HA:DWORD			; g_bAbilityDebug
EXTRN	?AttackMonster@MonsterEx@@QAEXHHAAH@Z:PROC	; MonsterEx::AttackMonster
EXTRN	?g_MonsterEx@@3VMonsterEx@@A:BYTE		; g_MonsterEx
EXTRN	?gObjWeaponDurDown@@YAXPAUOBJECTSTRUCT@@0H@Z:PROC ; gObjWeaponDurDown
EXTRN	?gObjUpdateAppliedBuffEffect@@YAEPAUOBJECTSTRUCT@@HPAH1@Z:PROC ; gObjUpdateAppliedBuffEffect
EXTRN	?g_SkillAdditionInfo@@3VCSkillAdditionInfo@@A:BYTE ; g_SkillAdditionInfo
EXTRN	?gObjGetActiveEffect@@YAHPAUOBJECTSTRUCT@@H@Z:PROC ; gObjGetActiveEffect
EXTRN	?GetTargetDefense@CObjBaseAttack@@QAEHPAUOBJECTSTRUCT@@0AAE@Z:PROC ; CObjBaseAttack::GetTargetDefense
EXTRN	?gObjSetPosition@@YAXHHH@Z:PROC			; gObjSetPosition
EXTRN	?gObjApplyBuffEffectDuration@@YAEPAUOBJECTSTRUCT@@HEHEHH@Z:PROC ; gObjApplyBuffEffectDuration
EXTRN	?MissCheckPvP@CObjBaseAttack@@QAEHPAUOBJECTSTRUCT@@0HHHAAHE@Z:PROC ; CObjBaseAttack::MissCheckPvP
EXTRN	?g_ShieldSystemOn@@3HA:DWORD			; g_ShieldSystemOn
EXTRN	?RemoveCloakingEffect@CObjUseSkill@@QAEHH@Z:PROC ; CObjUseSkill::RemoveCloakingEffect
EXTRN	?gObjUseSkill@@3VCObjUseSkill@@A:DWORD		; gObjUseSkill
EXTRN	?ResistanceCheck@CObjBaseAttack@@QAEHPAUOBJECTSTRUCT@@0H@Z:PROC ; CObjBaseAttack::ResistanceCheck
EXTRN	?DefMagicInf@@3PAVCMagicInf@@A:BYTE		; DefMagicInf
EXTRN	_rand:PROC
EXTRN	?gObjDuelCheck@@YAHPAUOBJECTSTRUCT@@0@Z:PROC	; gObjDuelCheck
EXTRN	?PkCheck@CObjBaseAttack@@QAEHPAUOBJECTSTRUCT@@0@Z:PROC ; CObjBaseAttack::PkCheck
EXTRN	?gObj@@3PAUOBJECTSTRUCT@@A:DWORD		; gObj
EXTRN	?CheckAttackArea@CObjBaseAttack@@QAEHPAUOBJECTSTRUCT@@0@Z:PROC ; CObjBaseAttack::CheckAttackArea
EXTRN	?DecreaseArrow@CObjBaseAttack@@QAEHPAUOBJECTSTRUCT@@@Z:PROC ; CObjBaseAttack::DecreaseArrow
EXTRN	?gObjCallMonsterSetEnemy@@YAHPAUOBJECTSTRUCT@@H@Z:PROC ; gObjCallMonsterSetEnemy
EXTRN	?gObjAttackQ@@YAHPAUOBJECTSTRUCT@@@Z:PROC	; gObjAttackQ
EXTRN	?SetTarget@CDarkSpirit@@QAEXH@Z:PROC		; CDarkSpirit::SetTarget
EXTRN	?gDarkSpirit@@3PAVCDarkSpirit@@A:BYTE		; gDarkSpirit
EXTRN	?gObjIsConnected@@YAHPAUOBJECTSTRUCT@@@Z:PROC	; gObjIsConnected
EXTRN	?GCDamageSend@@YAXHHHHHH@Z:PROC			; GCDamageSend
EXTRN	?gObjCheckAttackTypeMagic@@YAHHH@Z:PROC		; gObjCheckAttackTypeMagic
EXTRN	?GCMagicAttackNumberSend@@YAXPAUOBJECTSTRUCT@@GHE@Z:PROC ; GCMagicAttackNumberSend
EXTRN	?gObjMonsterStateProc@@YAXPAUOBJECTSTRUCT@@HHH@Z:PROC ; gObjMonsterStateProc
EXTRN	?GetBattleSoccerGoalMove@@YAHH@Z:PROC		; GetBattleSoccerGoalMove
EXTRN	?CheckUser@CExLicense@@QAE_NH@Z:PROC		; CExLicense::CheckUser
EXTRN	__imp__GetTickCount@0:PROC
EXTRN	?g_iCharacterRecuperationMaxLevel@@3HA:DWORD	; g_iCharacterRecuperationMaxLevel
EXTRN	?g_iUseCharacterAutoRecuperationSystem@@3HA:DWORD ; g_iUseCharacterAutoRecuperationSystem
EXTRN	?CheckAlliancePlayer@ÑExUser@@QAE_NHH@Z:PROC	; ÑExUser::CheckAlliancePlayer
EXTRN	?g_ExUser@@3VÑExUser@@A:BYTE			; g_ExUser
EXTRN	?g_CastleSiege@@3VCCastleSiege@@A:BYTE		; g_CastleSiege
EXTRN	?g_Crywolf@@3VCCrywolf@@A:BYTE			; g_Crywolf
EXTRN	?GateAttack@CImperial@@QAE_NH@Z:PROC		; CImperial::GateAttack
EXTRN	?g_Imperial@@3VCImperial@@A:BYTE		; g_Imperial
EXTRN	?PlayerWaitAttack@CDungeonSiege@@QAE_NHH@Z:PROC	; CDungeonSiege::PlayerWaitAttack
EXTRN	?g_DungeonSiege@@3VCDungeonSiege@@A:BYTE	; g_DungeonSiege
EXTRN	?CheckAttackMap@cPvPMapSystem@@QAE_NPAUOBJECTSTRUCT@@0@Z:PROC ; cPvPMapSystem::CheckAttackMap
EXTRN	?PvPMapSystem@@3VcPvPMapSystem@@A:BYTE		; PvPMapSystem
EXTRN	?AllyKillCheck@cTvTEvent@@QAE_NPAUOBJECTSTRUCT@@0@Z:PROC ; cTvTEvent::AllyKillCheck
EXTRN	?TvT@@3VcTvTEvent@@A:BYTE			; TvT
EXTRN	?g_ExLicense@@3VCExLicense@@A:BYTE		; g_ExLicense
EXTRN	?AttackCheck@CTeamVsTeam@@QAE_NHH@Z:PROC	; CTeamVsTeam::AttackCheck
EXTRN	?g_TeamVsTeam@@3VCTeamVsTeam@@A:BYTE		; g_TeamVsTeam
EXTRN	?GetGensInfluence@GensSystem@@QAEHPAUOBJECTSTRUCT@@@Z:PROC ; GensSystem::GetGensInfluence
EXTRN	?IsMapBattleZone@GensSystem@@QAEHH@Z:PROC	; GensSystem::IsMapBattleZone
EXTRN	?gGensSystem@@3VGensSystem@@A:BYTE		; gGensSystem
EXTRN	?gGENS@@3HA:DWORD				; gGENS
EXTRN	?gObjSearchActiveEffect@@YAEPAUOBJECTSTRUCT@@H@Z:PROC ; gObjSearchActiveEffect
EXTRN	___security_cookie:DWORD
EXTRN	__fltused:DWORD
EXTRN	@__security_check_cookie@4:PROC
EXTRN	__ftol2_sse:PROC
;	COMDAT ??_C@_0FB@HEJCKECH@?$FLPvP?5System?$FN?5Victim?3?$FL?$CFs?$FN?$FL?$CFs?$FN?0?5At@
CONST	SEGMENT
??_C@_0FB@HEJCKECH@?$FLPvP?5System?$FN?5Victim?3?$FL?$CFs?$FN?$FL?$CFs?$FN?0?5At@ DB '['
	DB	'PvP System] Victim:[%s][%s], Attacker:[%s][%s] - SD[%d] HP[%f'
	DB	'] -> SD[%d] HP[%f]', 00H			; `string'
CONST	ENDS
;	COMDAT ??_C@_0DB@MDAHJJLM@error?9Level1?5?3?5?$FL?$CFs?$FN?$FL?$CFs?$FN?5Str?3?$CFd?5?$CF@
CONST	SEGMENT
??_C@_0DB@MDAHJJLM@error?9Level1?5?3?5?$FL?$CFs?$FN?$FL?$CFs?$FN?5Str?3?$CFd?5?$CF@ DB 'e'
	DB	'rror-Level1 : [%s][%s] Str:%d %d %d %d %d %d %d', 00H ; `string'
CONST	ENDS
;	COMDAT __real@3f800000
CONST	SEGMENT
__real@3f800000 DD 03f800000r			; 1
CONST	ENDS
;	COMDAT __real@4014000000000000
CONST	SEGMENT
__real@4014000000000000 DQ 04014000000000000r	; 5
CONST	ENDS
;	COMDAT __real@408f400000000000
CONST	SEGMENT
__real@408f400000000000 DQ 0408f400000000000r	; 1000
CONST	ENDS
;	COMDAT __real@4002666666666666
CONST	SEGMENT
__real@4002666666666666 DQ 04002666666666666r	; 2.3
CONST	ENDS
;	COMDAT __real@400199999999999a
CONST	SEGMENT
__real@400199999999999a DQ 0400199999999999ar	; 2.2
CONST	ENDS
;	COMDAT __real@404e000000000000
CONST	SEGMENT
__real@404e000000000000 DQ 0404e000000000000r	; 60
CONST	ENDS
;	COMDAT __real@4004000000000000
CONST	SEGMENT
__real@4004000000000000 DQ 04004000000000000r	; 2.5
CONST	ENDS
;	COMDAT __real@3ff0000000000000
CONST	SEGMENT
__real@3ff0000000000000 DQ 03ff0000000000000r	; 1
CONST	ENDS
;	COMDAT __real@4024000000000000
CONST	SEGMENT
__real@4024000000000000 DQ 04024000000000000r	; 10
CONST	ENDS
;	COMDAT __real@00000000
CONST	SEGMENT
__real@00000000 DD 000000000r			; 0
CONST	ENDS
;	COMDAT __real@0000000000000000
CONST	SEGMENT
__real@0000000000000000 DQ 00000000000000000r	; 0
CONST	ENDS
;	COMDAT __real@4008000000000000
CONST	SEGMENT
__real@4008000000000000 DQ 04008000000000000r	; 3
CONST	ENDS
;	COMDAT __real@4000000000000000
CONST	SEGMENT
__real@4000000000000000 DQ 04000000000000000r	; 2
CONST	ENDS
;	COMDAT __real@4059000000000000
CONST	SEGMENT
__real@4059000000000000 DQ 04059000000000000r	; 100
CONST	ENDS
;	COMDAT __real@4010000000000000
CONST	SEGMENT
__real@4010000000000000 DQ 04010000000000000r	; 4
CONST	ENDS
;	COMDAT ??_C@_0BH@NMKEOPCM@?$CFs?5AttackDamage?3?5?$CFd?5?$CFd?$AA@
CONST	SEGMENT
??_C@_0BH@NMKEOPCM@?$CFs?5AttackDamage?3?5?$CFd?5?$CFd?$AA@ DB '%s Attack'
	DB	'Damage: %d %d', 00H				; `string'
CONST	ENDS
;	COMDAT ??_C@_09PBMNMIBJ@EXCELLENT?$AA@
CONST	SEGMENT
??_C@_09PBMNMIBJ@EXCELLENT?$AA@ DB 'EXCELLENT', 00H	; `string'
CONST	ENDS
;	COMDAT ??_C@_08FOLAHAHG@CRITICAL?$AA@
CONST	SEGMENT
??_C@_08FOLAHAHG@CRITICAL?$AA@ DB 'CRITICAL', 00H	; `string'
; Function compile flags: /Odtp /ZI
CONST	ENDS
_TEXT	SEGMENT
tv7690 = -832						; size = 4
tv7332 = -832						; size = 4
tv6899 = -832						; size = 4
tv7688 = -828						; size = 4
tv7330 = -828						; size = 4
tv6897 = -828						; size = 4
tv6114 = -828						; size = 4
tv4562 = -828						; size = 4
tv4549 = -828						; size = 4
tv3951 = -828						; size = 4
tv3938 = -828						; size = 4
tv3269 = -828						; size = 4
tv3256 = -828						; size = 4
tv277 = -828						; size = 4
tv8089 = -824						; size = 4
tv8062 = -824						; size = 4
tv7955 = -824						; size = 4
tv7935 = -824						; size = 4
tv7924 = -824						; size = 4
tv7901 = -824						; size = 4
tv7809 = -824						; size = 4
tv7649 = -824						; size = 4
tv7624 = -824						; size = 4
tv7529 = -824						; size = 4
tv7404 = -824						; size = 4
tv7089 = -824						; size = 4
tv7057 = -824						; size = 4
tv7017 = -824						; size = 4
tv7002 = -824						; size = 4
tv6975 = -824						; size = 4
tv6960 = -824						; size = 4
tv6895 = -824						; size = 4
tv6749 = -824						; size = 4
tv6724 = -824						; size = 4
tv6702 = -824						; size = 4
tv6696 = -824						; size = 4
tv6690 = -824						; size = 4
tv6684 = -824						; size = 4
tv6677 = -824						; size = 4
tv6630 = -824						; size = 4
tv6619 = -824						; size = 4
tv6608 = -824						; size = 4
tv6597 = -824						; size = 4
tv6586 = -824						; size = 4
tv6574 = -824						; size = 4
tv6563 = -824						; size = 4
tv6551 = -824						; size = 4
tv6540 = -824						; size = 4
tv6528 = -824						; size = 4
tv6515 = -824						; size = 4
tv6508 = -824						; size = 4
tv6501 = -824						; size = 4
tv6112 = -824						; size = 4
tv5888 = -824						; size = 4
tv5877 = -824						; size = 4
tv5865 = -824						; size = 4
tv5839 = -824						; size = 4
tv5810 = -824						; size = 4
tv5781 = -824						; size = 4
tv5752 = -824						; size = 4
tv5741 = -824						; size = 4
tv5711 = -824						; size = 4
tv5700 = -824						; size = 4
tv5471 = -824						; size = 4
tv5444 = -824						; size = 4
tv5135 = -824						; size = 4
tv5119 = -824						; size = 4
tv4563 = -824						; size = 4
tv4550 = -824						; size = 4
tv4366 = -824						; size = 4
tv4357 = -824						; size = 4
tv4348 = -824						; size = 4
tv4339 = -824						; size = 4
tv4208 = -824						; size = 4
tv3970 = -824						; size = 4
tv3961 = -824						; size = 4
tv3952 = -824						; size = 4
tv3939 = -824						; size = 4
tv3270 = -824						; size = 4
tv3257 = -824						; size = 4
tv2921 = -824						; size = 4
tv2685 = -824						; size = 4
tv2012 = -824						; size = 4
tv1835 = -824						; size = 4
tv1631 = -824						; size = 4
tv1590 = -824						; size = 4
tv1549 = -824						; size = 4
tv1495 = -824						; size = 4
tv1298 = -824						; size = 4
tv1283 = -824						; size = 4
tv1268 = -824						; size = 4
tv1253 = -824						; size = 4
tv1011 = -824						; size = 4
tv955 = -824						; size = 4
tv278 = -824						; size = 4
tv178 = -824						; size = 4
tv7685 = -822						; size = 2
tv7327 = -822						; size = 2
_fPercent$240860 = -756					; size = 4
_fSpringValue$240858 = -752				; size = 4
_fPercent$240854 = -748					; size = 4
_Left$ = -744						; size = 4
_Right$ = -740						; size = 4
_fRate$240822 = -736					; size = 4
_iComboDamage$240814 = -732				; size = 4
_WingOption$240807 = -725				; size = 1
_Wing$240803 = -724					; size = 4
_atd_reflect$240793 = -720				; size = 4
_partynum$240771 = -716					; size = 4
_number$240770 = -712					; size = 4
_iDurEquipment$240756 = -708				; size = 4
_damagemin$240755 = -704				; size = 4
_iDurDecValue$240752 = -700				; size = 4
_lpEquipment$240750 = -696				; size = 4
_iEquipmentPos$240749 = -692				; size = 4
_item_num$240748 = -688					; size = 20
_fDurDownRate$240744 = -668				; size = 4
_selfdefense$ = -664					; size = 4
_iAltarIndex$240699 = -660				; size = 4
_i$240695 = -656					; size = 4
_iDurEquipment$240661 = -652				; size = 4
_value$240658 = -648					; size = 4
_lpEquipment$240656 = -644				; size = 4
_iEquipmentPos$240655 = -640				; size = 4
_iDecPercent$240644 = -636				; size = 4
_iIncPercent$240639 = -632				; size = 4
_iAltarIndex$240612 = -628				; size = 4
_i$240608 = -624					; size = 4
_decattackdamage$240595 = -620				; size = 4
_replacemana$240591 = -616				; size = 4
_iWizardSkillTime$240590 = -612				; size = 4
_iWizardSkillDefense$240589 = -608			; size = 4
_fPercent$240583 = -604					; size = 4
_fPercent$240576 = -600					; size = 4
_tmpLife$240559 = -596					; size = 4
_nAddHP$240554 = -592					; size = 4
_SleepTime$240533 = -588				; size = 4
_Rate$240524 = -584					; size = 4
_fPercent$240512 = -580					; size = 4
_fPercent$240507 = -576					; size = 4
_iMasterSkillDMGPercentDL$240484 = -572			; size = 4
_iMasterSkillDMGPercentDK$240483 = -568			; size = 4
_iMLSBase$240482 = -564					; size = 4
_fPrevValue$240481 = -560				; size = 4
_iSkillValue$240480 = -556				; size = 4
_MaxEnergy$240432 = -552				; size = 4
_MaxEnergy$240424 = -548				; size = 4
_DecTime$240422 = -544					; size = 4
_DecValue$240421 = -540					; size = 4
_Rate$240416 = -536					; size = 4
_MaxEnergy$240405 = -532				; size = 4
_MaxEnergy$240397 = -528				; size = 4
_DecTime$240395 = -524					; size = 4
_DecValue$240394 = -520					; size = 4
_Rate$240389 = -516					; size = 4
_SleepTime$240378 = -512				; size = 4
_Rate$240369 = -508					; size = 4
_value$240367 = -504					; size = 4
_value$240363 = -500					; size = 4
_CurrentLife$240348 = -496				; size = 4
_iRecvLife$240343 = -492				; size = 4
_iDamageInc$240339 = -488				; size = 4
_iSkillDMGPercentDL$240334 = -484			; size = 4
_iSkillDMGPercent$240319 = -480				; size = 4
_decdamage$240303 = -476				; size = 4
_Darkhorse$240302 = -472				; size = 4
_dinorantdecdamage$240298 = -468			; size = 4
_Dinorant$240297 = -464					; size = 4
_damage$240290 = -460					; size = 4
_damage$240286 = -456					; size = 4
_damage$240281 = -452					; size = 4
_WingOption$240275 = -445				; size = 1
_damage$240271 = -444					; size = 4
_WingOption$240266 = -437				; size = 1
_damage$240262 = -436					; size = 4
_WingOption$240257 = -429				; size = 1
_damage$240253 = -428					; size = 4
_WingOption$240248 = -421				; size = 1
_damage$240244 = -420					; size = 4
_damage$240240 = -416					; size = 4
_WingOption$240234 = -409				; size = 1
_damage$240230 = -408					; size = 4
_damage$240226 = -404					; size = 4
_Wing$240219 = -400					; size = 4
_Wing$240168 = -396					; size = 4
_damage$240162 = -392					; size = 4
_damage$240154 = -388					; size = 4
_tlevel$240132 = -384					; size = 4
_beforeDamage$240130 = -380				; size = 4
_szTemp$240124 = -376					; size = 256
_iCShopScrollBuffDmgBefore$240119 = -120		; size = 4
_iCShopScrollBuffDmgValue$240118 = -116			; size = 4
_iCShopScrollBuffID$240110 = -112			; size = 4
_iCriticalDamageValue$240094 = -108			; size = 4
_iFenrirAttackDmg$240064 = -104				; size = 4
_iInnovationValue$240057 = -100				; size = 4
_fValue$240055 = -96					; size = 4
_fValue$240050 = -92					; size = 4
_targetdefense$240048 = -88				; size = 4
_bDamageReflect$ = -84					; size = 4
_bAllMiss$ = -80					; size = 4
_skillIceArrowSuccess$ = -76				; size = 4
_bIsOnDuel$ = -72					; size = 4
_Energy$ = -68						; size = 4
_Vitality$ = -64					; size = 4
_Dexterity$ = -60					; size = 4
_Strength$ = -56					; size = 4
_MSBDamage$240001 = -52					; size = 4
_bCheckAttackIsMagicType$239996 = -48			; size = 4
_bCheckAttackIsMagicType$239993 = -44			; size = 4
_skill$ = -40						; size = 4
_iTotalShieldDamage$ = -36				; size = 4
_iTempShieldDamage$ = -32				; size = 4
_ManaChange$ = -28					; size = 4
_MsgDamage$ = -21					; size = 1
_lpCallTargetObj$ = -20					; size = 4
_lpCallObj$ = -16					; size = 4
_skillSuccess$ = -12					; size = 4
_this$ = -8						; size = 4
__$ArrayPad$ = -4					; size = 4
_lpObj$ = 8						; size = 4
_lpTargetObj$ = 12					; size = 4
_lpMagic$ = 16						; size = 4
_magicsend$ = 20					; size = 4
_MSBFlag$ = 24						; size = 1
_AttackDamage$ = 28					; size = 4
_bCombo$ = 32						; size = 4
_byBarrageCount$ = 36					; size = 1
_byReflect$ = 40					; size = 1
?Attack@CObjAttack@@QAEHPAUOBJECTSTRUCT@@0PAVCMagicInf@@HEHHEE@Z PROC ; CObjAttack::Attack
; _this$ = ecx

; 58   : {

  00060	55		 push	 ebp
  00061	8b ec		 mov	 ebp, esp
  00063	81 ec 40 03 00
	00		 sub	 esp, 832		; 00000340H
  00069	a1 00 00 00 00	 mov	 eax, DWORD PTR ___security_cookie
  0006e	33 c5		 xor	 eax, ebp
  00070	89 45 fc	 mov	 DWORD PTR __$ArrayPad$[ebp], eax
  00073	53		 push	 ebx
  00074	56		 push	 esi
  00075	57		 push	 edi
  00076	89 4d f8	 mov	 DWORD PTR _this$[ebp], ecx

; 59   : //#if(FIX_REF_ON_REF == TRUE)
; 60   : //	if(byReflect)
; 61   : //	{
; 62   : //		LogAddC(2, "[%s] vs [%s] :: [%d][%d]", lpObj->Name, lpTargetObj->Name, byReflect, lpObj->FixRefOnRef);
; 63   : //		if(lpObj->FixRefOnRef == true)
; 64   : //		{
; 65   : //			return false;
; 66   : //		}
; 67   : //		lpObj->FixRefOnRef = true;
; 68   : //	}
; 69   : //	else
; 70   : //	{
; 71   : //		lpObj->FixRefOnRef = false;
; 72   : //	}
; 73   : //#endif
; 74   : 
; 75   : #if(FIX_REF2==TRUE)
; 76   : 	//if(byReflect)
; 77   : 	//{
; 78   : 	//	if(lpObj->FixRef2 == true)
; 79   : 	//	{
; 80   : 	//		return false;
; 81   : 	//	}
; 82   : 	//}
; 83   : #endif
; 84   : 
; 85   : 	int skillSuccess = 0;

  00079	c7 45 f4 00 00
	00 00		 mov	 DWORD PTR _skillSuccess$[ebp], 0

; 86   : 	LPOBJ lpCallObj;
; 87   : 	LPOBJ lpCallTargetObj;
; 88   : 	BYTE MsgDamage = 0;

  00080	c6 45 eb 00	 mov	 BYTE PTR _MsgDamage$[ebp], 0

; 89   : 	int ManaChange = 0;

  00084	c7 45 e4 00 00
	00 00		 mov	 DWORD PTR _ManaChange$[ebp], 0

; 90   : 	int iTempShieldDamage = 0;

  0008b	c7 45 e0 00 00
	00 00		 mov	 DWORD PTR _iTempShieldDamage$[ebp], 0

; 91   : 	int iTotalShieldDamage = 0;

  00092	c7 45 dc 00 00
	00 00		 mov	 DWORD PTR _iTotalShieldDamage$[ebp], 0

; 92   : 
; 93   : 	if ( (lpTargetObj->Authority&2) == 2 )

  00099	8b 45 0c	 mov	 eax, DWORD PTR _lpTargetObj$[ebp]
  0009c	8b 88 0c 02 00
	00		 mov	 ecx, DWORD PTR [eax+524]
  000a2	83 e1 02	 and	 ecx, 2
  000a5	74 07		 je	 SHORT $LN740@Attack

; 94   : 	{
; 95   : 		return FALSE;

  000a7	33 c0		 xor	 eax, eax
  000a9	e9 49 69 00 00	 jmp	 $LN741@Attack
$LN740@Attack:

; 96   : 	}
; 97   : 
; 98   : 	if ( (lpObj->Authority&2) == 2 ) //s4 add-on

  000ae	8b 45 08	 mov	 eax, DWORD PTR _lpObj$[ebp]
  000b1	8b 88 0c 02 00
	00		 mov	 ecx, DWORD PTR [eax+524]
  000b7	83 e1 02	 and	 ecx, 2
  000ba	74 07		 je	 SHORT $LN739@Attack

; 99   : 	{
; 100  : 		return FALSE;

  000bc	33 c0		 xor	 eax, eax
  000be	e9 34 69 00 00	 jmp	 $LN741@Attack
$LN739@Attack:

; 101  : 	}
; 102  : 
; 103  : 	if ( (lpObj->Authority&32) == 32 || (lpTargetObj->Authority&32) == 32) //s4 add-on

  000c3	8b 45 08	 mov	 eax, DWORD PTR _lpObj$[ebp]
  000c6	8b 88 0c 02 00
	00		 mov	 ecx, DWORD PTR [eax+524]
  000cc	83 e1 20	 and	 ecx, 32			; 00000020H
  000cf	75 0e		 jne	 SHORT $LN737@Attack
  000d1	8b 45 0c	 mov	 eax, DWORD PTR _lpTargetObj$[ebp]
  000d4	8b 88 0c 02 00
	00		 mov	 ecx, DWORD PTR [eax+524]
  000da	83 e1 20	 and	 ecx, 32			; 00000020H
  000dd	74 1d		 je	 SHORT $LN736@Attack
$LN737@Attack:

; 104  : 	{
; 105  : 		if(gObjSearchActiveEffect(lpObj, AT_INVISIBILITY) == 1)

  000df	6a 12		 push	 18			; 00000012H
  000e1	8b 45 08	 mov	 eax, DWORD PTR _lpObj$[ebp]
  000e4	50		 push	 eax
  000e5	e8 00 00 00 00	 call	 ?gObjSearchActiveEffect@@YAEPAUOBJECTSTRUCT@@H@Z ; gObjSearchActiveEffect
  000ea	83 c4 08	 add	 esp, 8
  000ed	0f b6 c8	 movzx	 ecx, al
  000f0	83 f9 01	 cmp	 ecx, 1
  000f3	75 07		 jne	 SHORT $LN736@Attack

; 106  : 		{
; 107  : 			return FALSE;

  000f5	33 c0		 xor	 eax, eax
  000f7	e9 fb 68 00 00	 jmp	 $LN741@Attack
$LN736@Attack:

; 108  : 		}
; 109  : 	}
; 110  : 
; 111  : 	if(gGENS)	//-> Need check

  000fc	83 3d 00 00 00
	00 00		 cmp	 DWORD PTR ?gGENS@@3HA, 0 ; gGENS
  00103	74 65		 je	 SHORT $LN732@Attack

; 112  : 	{
; 113  : 		//if( lpObj->Type == OBJ_USER && lpTargetObj->Type == OBJ_USER && !gGensSystem.IsPkEnable(lpObj, lpTargetObj) )
; 114  : 		//{
; 115  : 		//	return false;
; 116  : 		//}
; 117  : 
; 118  : 	#if(DEBUG_CODE)
; 119  : 		LogAddC(2,"[DEBUG_GENS] %d %d",gGensSystem.GetGensInfluence(lpObj),gGensSystem.GetGensInfluence(lpTargetObj));
; 120  : 	#endif
; 121  : 
; 122  : 		if( lpObj->Type == OBJ_USER && lpTargetObj->Type == OBJ_USER )

  00105	8b 45 08	 mov	 eax, DWORD PTR _lpObj$[ebp]
  00108	0f b7 48 68	 movzx	 ecx, WORD PTR [eax+104]
  0010c	83 f9 01	 cmp	 ecx, 1
  0010f	75 59		 jne	 SHORT $LN732@Attack
  00111	8b 45 0c	 mov	 eax, DWORD PTR _lpTargetObj$[ebp]
  00114	0f b7 48 68	 movzx	 ecx, WORD PTR [eax+104]
  00118	83 f9 01	 cmp	 ecx, 1
  0011b	75 4d		 jne	 SHORT $LN732@Attack

; 123  : 		{
; 124  : 			if( gGensSystem.IsMapBattleZone(lpObj->MapNumber) )

  0011d	8b 45 08	 mov	 eax, DWORD PTR _lpObj$[ebp]
  00120	0f b6 88 49 01
	00 00		 movzx	 ecx, BYTE PTR [eax+329]
  00127	51		 push	 ecx
  00128	b9 00 00 00 00	 mov	 ecx, OFFSET ?gGensSystem@@3VGensSystem@@A ; gGensSystem
  0012d	e8 00 00 00 00	 call	 ?IsMapBattleZone@GensSystem@@QAEHH@Z ; GensSystem::IsMapBattleZone
  00132	85 c0		 test	 eax, eax
  00134	74 34		 je	 SHORT $LN732@Attack

; 125  : 			{
; 126  : 				if( gGensSystem.GetGensInfluence(lpObj) == gGensSystem.GetGensInfluence(lpTargetObj) && !gGensSystem.AllowPK )

  00136	8b 45 08	 mov	 eax, DWORD PTR _lpObj$[ebp]
  00139	50		 push	 eax
  0013a	b9 00 00 00 00	 mov	 ecx, OFFSET ?gGensSystem@@3VGensSystem@@A ; gGensSystem
  0013f	e8 00 00 00 00	 call	 ?GetGensInfluence@GensSystem@@QAEHPAUOBJECTSTRUCT@@@Z ; GensSystem::GetGensInfluence
  00144	8b f0		 mov	 esi, eax
  00146	8b 4d 0c	 mov	 ecx, DWORD PTR _lpTargetObj$[ebp]
  00149	51		 push	 ecx
  0014a	b9 00 00 00 00	 mov	 ecx, OFFSET ?gGensSystem@@3VGensSystem@@A ; gGensSystem
  0014f	e8 00 00 00 00	 call	 ?GetGensInfluence@GensSystem@@QAEHPAUOBJECTSTRUCT@@@Z ; GensSystem::GetGensInfluence
  00154	3b f0		 cmp	 esi, eax
  00156	75 12		 jne	 SHORT $LN732@Attack
  00158	0f b6 05 b0 00
	00 00		 movzx	 eax, BYTE PTR ?gGensSystem@@3VGensSystem@@A+176
  0015f	85 c0		 test	 eax, eax
  00161	75 07		 jne	 SHORT $LN732@Attack

; 127  : 				{
; 128  : 					return false;

  00163	33 c0		 xor	 eax, eax
  00165	e9 8d 68 00 00	 jmp	 $LN741@Attack
$LN732@Attack:

; 129  : 				}
; 130  : 			}
; 131  : 		}
; 132  : 	}
; 133  : 
; 134  : 	if ( lpObj->MapNumber != lpTargetObj->MapNumber )

  0016a	8b 45 08	 mov	 eax, DWORD PTR _lpObj$[ebp]
  0016d	0f b6 88 49 01
	00 00		 movzx	 ecx, BYTE PTR [eax+329]
  00174	8b 55 0c	 mov	 edx, DWORD PTR _lpTargetObj$[ebp]
  00177	0f b6 82 49 01
	00 00		 movzx	 eax, BYTE PTR [edx+329]
  0017e	3b c8		 cmp	 ecx, eax
  00180	74 07		 je	 SHORT $LN731@Attack

; 135  : 	{
; 136  : 		return FALSE;

  00182	33 c0		 xor	 eax, eax
  00184	e9 6e 68 00 00	 jmp	 $LN741@Attack
$LN731@Attack:

; 137  : 	}
; 138  : 
; 139  : #if(EVENT_TEAM_VS_TEAM)
; 140  : 	if(!g_TeamVsTeam.AttackCheck(lpObj->m_Index, lpTargetObj->m_Index))

  00189	8b 45 0c	 mov	 eax, DWORD PTR _lpTargetObj$[ebp]
  0018c	8b 08		 mov	 ecx, DWORD PTR [eax]
  0018e	51		 push	 ecx
  0018f	8b 55 08	 mov	 edx, DWORD PTR _lpObj$[ebp]
  00192	8b 02		 mov	 eax, DWORD PTR [edx]
  00194	50		 push	 eax
  00195	b9 00 00 00 00	 mov	 ecx, OFFSET ?g_TeamVsTeam@@3VCTeamVsTeam@@A ; g_TeamVsTeam
  0019a	e8 00 00 00 00	 call	 ?AttackCheck@CTeamVsTeam@@QAE_NHH@Z ; CTeamVsTeam::AttackCheck
  0019f	0f b6 c8	 movzx	 ecx, al
  001a2	85 c9		 test	 ecx, ecx
  001a4	75 07		 jne	 SHORT $LN730@Attack

; 141  : 	{
; 142  : 		return false;

  001a6	33 c0		 xor	 eax, eax
  001a8	e9 4a 68 00 00	 jmp	 $LN741@Attack
$LN730@Attack:

; 143  : 	}
; 144  : #endif
; 145  : 
; 146  : #if(DEV_COMBO_CUSTOM==TRUE)
; 147  : 	if(g_ExLicense.user.ComboCustom)

  001ad	0f b6 05 d8 00
	00 00		 movzx	 eax, BYTE PTR ?g_ExLicense@@3VCExLicense@@A+216
  001b4	85 c0		 test	 eax, eax
  001b6	74 13		 je	 SHORT $LN728@Attack

; 148  : 	{
; 149  : 		if(!bCombo)

  001b8	83 7d 20 00	 cmp	 DWORD PTR _bCombo$[ebp], 0
  001bc	75 0d		 jne	 SHORT $LN728@Attack

; 150  : 		{
; 151  : 			bCombo = lpObj->NewCombo;

  001be	8b 45 08	 mov	 eax, DWORD PTR _lpObj$[ebp]
  001c1	0f b6 88 80 28
	00 00		 movzx	 ecx, BYTE PTR [eax+10368]
  001c8	89 4d 20	 mov	 DWORD PTR _bCombo$[ebp], ecx
$LN728@Attack:

; 152  : 		}
; 153  : 	}
; 154  : #endif
; 155  : 
; 156  : 	if(g_ExLicense.user.TvTEvent)

  001cb	0f b6 05 cd 00
	00 00		 movzx	 eax, BYTE PTR ?g_ExLicense@@3VCExLicense@@A+205
  001d2	85 c0		 test	 eax, eax
  001d4	74 20		 je	 SHORT $LN726@Attack

; 157  : 	{
; 158  : 		if(!TvT.AllyKillCheck(lpObj,lpTargetObj))return false;

  001d6	8b 45 0c	 mov	 eax, DWORD PTR _lpTargetObj$[ebp]
  001d9	50		 push	 eax
  001da	8b 4d 08	 mov	 ecx, DWORD PTR _lpObj$[ebp]
  001dd	51		 push	 ecx
  001de	b9 00 00 00 00	 mov	 ecx, OFFSET ?TvT@@3VcTvTEvent@@A ; TvT
  001e3	e8 00 00 00 00	 call	 ?AllyKillCheck@cTvTEvent@@QAE_NPAUOBJECTSTRUCT@@0@Z ; cTvTEvent::AllyKillCheck
  001e8	0f b6 d0	 movzx	 edx, al
  001eb	85 d2		 test	 edx, edx
  001ed	75 07		 jne	 SHORT $LN726@Attack
  001ef	33 c0		 xor	 eax, eax
  001f1	e9 01 68 00 00	 jmp	 $LN741@Attack
$LN726@Attack:

; 159  : 	}
; 160  : 
; 161  : 	if(!PvPMapSystem.CheckAttackMap(lpObj,lpTargetObj)) return false;

  001f6	8b 45 0c	 mov	 eax, DWORD PTR _lpTargetObj$[ebp]
  001f9	50		 push	 eax
  001fa	8b 4d 08	 mov	 ecx, DWORD PTR _lpObj$[ebp]
  001fd	51		 push	 ecx
  001fe	b9 00 00 00 00	 mov	 ecx, OFFSET ?PvPMapSystem@@3VcPvPMapSystem@@A ; PvPMapSystem
  00203	e8 00 00 00 00	 call	 ?CheckAttackMap@cPvPMapSystem@@QAE_NPAUOBJECTSTRUCT@@0@Z ; cPvPMapSystem::CheckAttackMap
  00208	0f b6 d0	 movzx	 edx, al
  0020b	85 d2		 test	 edx, edx
  0020d	75 07		 jne	 SHORT $LN725@Attack
  0020f	33 c0		 xor	 eax, eax
  00211	e9 e1 67 00 00	 jmp	 $LN741@Attack
$LN725@Attack:

; 162  : 
; 163  : #if(EVENT_DUNGEON_SIEGE)
; 164  : 	if(!g_DungeonSiege.PlayerWaitAttack(lpObj->m_Index, lpTargetObj->m_Index))

  00216	8b 45 0c	 mov	 eax, DWORD PTR _lpTargetObj$[ebp]
  00219	8b 08		 mov	 ecx, DWORD PTR [eax]
  0021b	51		 push	 ecx
  0021c	8b 55 08	 mov	 edx, DWORD PTR _lpObj$[ebp]
  0021f	8b 02		 mov	 eax, DWORD PTR [edx]
  00221	50		 push	 eax
  00222	b9 00 00 00 00	 mov	 ecx, OFFSET ?g_DungeonSiege@@3VCDungeonSiege@@A ; g_DungeonSiege
  00227	e8 00 00 00 00	 call	 ?PlayerWaitAttack@CDungeonSiege@@QAE_NHH@Z ; CDungeonSiege::PlayerWaitAttack
  0022c	0f b6 c8	 movzx	 ecx, al
  0022f	85 c9		 test	 ecx, ecx
  00231	75 07		 jne	 SHORT $LN724@Attack

; 165  : 	{
; 166  : 		return false;

  00233	33 c0		 xor	 eax, eax
  00235	e9 bd 67 00 00	 jmp	 $LN741@Attack
$LN724@Attack:

; 167  : 	}
; 168  : #endif
; 169  : 
; 170  : #ifdef IMPERIAL_CONFLICT_OLD
; 171  : 	if(IMPERIAL_MAP_RANGE(lpObj->MapNumber))	//Season 5 ImperialFort

  0023a	8b 45 08	 mov	 eax, DWORD PTR _lpObj$[ebp]
  0023d	0f b6 88 49 01
	00 00		 movzx	 ecx, BYTE PTR [eax+329]
  00244	83 f9 45	 cmp	 ecx, 69			; 00000045H
  00247	7d 0c		 jge	 SHORT $LN743@Attack
  00249	c7 85 c8 fc ff
	ff 00 00 00 00	 mov	 DWORD PTR tv178[ebp], 0
  00253	eb 18		 jmp	 SHORT $LN744@Attack
$LN743@Attack:
  00255	8b 55 08	 mov	 edx, DWORD PTR _lpObj$[ebp]
  00258	0f b6 82 49 01
	00 00		 movzx	 eax, BYTE PTR [edx+329]
  0025f	33 c9		 xor	 ecx, ecx
  00261	83 f8 48	 cmp	 eax, 72			; 00000048H
  00264	0f 9e c1	 setle	 cl
  00267	89 8d c8 fc ff
	ff		 mov	 DWORD PTR tv178[ebp], ecx
$LN744@Attack:
  0026d	83 bd c8 fc ff
	ff 00		 cmp	 DWORD PTR tv178[ebp], 0
  00274	74 23		 je	 SHORT $LN722@Attack

; 172  : 	{
; 173  : 		if(!g_Imperial.GateAttack(lpTargetObj->Class)) 

  00276	8b 45 0c	 mov	 eax, DWORD PTR _lpTargetObj$[ebp]
  00279	0f b7 88 b8 00
	00 00		 movzx	 ecx, WORD PTR [eax+184]
  00280	51		 push	 ecx
  00281	b9 00 00 00 00	 mov	 ecx, OFFSET ?g_Imperial@@3VCImperial@@A ; g_Imperial
  00286	e8 00 00 00 00	 call	 ?GateAttack@CImperial@@QAE_NH@Z ; CImperial::GateAttack
  0028b	0f b6 d0	 movzx	 edx, al
  0028e	85 d2		 test	 edx, edx
  00290	75 07		 jne	 SHORT $LN722@Attack

; 174  : 		{	
; 175  : 			return false;

  00292	33 c0		 xor	 eax, eax
  00294	e9 5e 67 00 00	 jmp	 $LN741@Attack
$LN722@Attack:

; 176  : 		}
; 177  : 	}
; 178  : #endif
; 179  : //#if(GS_CASTLE==1)
; 180  : 	if( g_Crywolf.GetCrywolfState() == 3 || g_Crywolf.GetCrywolfState() == 5 )

  00299	b9 00 00 00 00	 mov	 ecx, OFFSET ?g_Crywolf@@3VCCrywolf@@A ; g_Crywolf
  0029e	e8 00 00 00 00	 call	 ?GetCrywolfState@CCrywolf@@QAEHXZ ; CCrywolf::GetCrywolfState
  002a3	83 f8 03	 cmp	 eax, 3
  002a6	74 0f		 je	 SHORT $LN720@Attack
  002a8	b9 00 00 00 00	 mov	 ecx, OFFSET ?g_Crywolf@@3VCCrywolf@@A ; g_Crywolf
  002ad	e8 00 00 00 00	 call	 ?GetCrywolfState@CCrywolf@@QAEHXZ ; CCrywolf::GetCrywolfState
  002b2	83 f8 05	 cmp	 eax, 5
  002b5	75 29		 jne	 SHORT $LN718@Attack
$LN720@Attack:

; 181  : 	{
; 182  : 		if(CRYWOLF_MAP_RANGE(lpTargetObj->MapNumber))

  002b7	8b 45 0c	 mov	 eax, DWORD PTR _lpTargetObj$[ebp]
  002ba	0f b6 88 49 01
	00 00		 movzx	 ecx, BYTE PTR [eax+329]
  002c1	33 d2		 xor	 edx, edx
  002c3	83 f9 22	 cmp	 ecx, 34			; 00000022H
  002c6	0f 94 c2	 sete	 dl
  002c9	85 d2		 test	 edx, edx
  002cb	74 13		 je	 SHORT $LN718@Attack

; 183  : 		{
; 184  : 			if(lpTargetObj->Type == OBJ_MONSTER)

  002cd	8b 45 0c	 mov	 eax, DWORD PTR _lpTargetObj$[ebp]
  002d0	0f b7 48 68	 movzx	 ecx, WORD PTR [eax+104]
  002d4	83 f9 02	 cmp	 ecx, 2
  002d7	75 07		 jne	 SHORT $LN718@Attack

; 185  : 				return FALSE;

  002d9	33 c0		 xor	 eax, eax
  002db	e9 17 67 00 00	 jmp	 $LN741@Attack
$LN718@Attack:

; 186  : 		}
; 187  : 	}
; 188  : //#endif
; 189  : 
; 190  : #if(ADD_CTRL_KEY)
; 191  : 	if(!lpObj->CtrlKey)

  002e0	8b 45 08	 mov	 eax, DWORD PTR _lpObj$[ebp]
  002e3	0f b6 88 1c 2b
	00 00		 movzx	 ecx, BYTE PTR [eax+11036]
  002ea	85 c9		 test	 ecx, ecx
  002ec	75 69		 jne	 SHORT $LN713@Attack

; 192  : 	{
; 193  : 		if ( g_CastleSiege.GetCastleState() == CASTLESIEGE_STATE_STARTSIEGE)

  002ee	b9 00 00 00 00	 mov	 ecx, OFFSET ?g_CastleSiege@@3VCCastleSiege@@A ; g_CastleSiege
  002f3	e8 00 00 00 00	 call	 ?GetCastleState@CCastleSiege@@QAEHXZ ; CCastleSiege::GetCastleState
  002f8	83 f8 07	 cmp	 eax, 7
  002fb	75 5a		 jne	 SHORT $LN713@Attack

; 194  : 		{
; 195  : 			if ( lpObj->Type == OBJ_USER && lpTargetObj->Type == OBJ_USER )

  002fd	8b 45 08	 mov	 eax, DWORD PTR _lpObj$[ebp]
  00300	0f b7 48 68	 movzx	 ecx, WORD PTR [eax+104]
  00304	83 f9 01	 cmp	 ecx, 1
  00307	75 4e		 jne	 SHORT $LN713@Attack
  00309	8b 45 0c	 mov	 eax, DWORD PTR _lpTargetObj$[ebp]
  0030c	0f b7 48 68	 movzx	 ecx, WORD PTR [eax+104]
  00310	83 f9 01	 cmp	 ecx, 1
  00313	75 42		 jne	 SHORT $LN713@Attack

; 196  : 			{
; 197  : 				if ( lpObj->MapNumber == MAP_INDEX_CASTLESIEGE && lpTargetObj->MapNumber == MAP_INDEX_CASTLESIEGE )

  00315	8b 45 08	 mov	 eax, DWORD PTR _lpObj$[ebp]
  00318	0f b6 88 49 01
	00 00		 movzx	 ecx, BYTE PTR [eax+329]
  0031f	83 f9 1e	 cmp	 ecx, 30			; 0000001eH
  00322	75 33		 jne	 SHORT $LN713@Attack
  00324	8b 45 0c	 mov	 eax, DWORD PTR _lpTargetObj$[ebp]
  00327	0f b6 88 49 01
	00 00		 movzx	 ecx, BYTE PTR [eax+329]
  0032e	83 f9 1e	 cmp	 ecx, 30			; 0000001eH
  00331	75 24		 jne	 SHORT $LN713@Attack

; 198  : 				{
; 199  : 					if(g_ExUser.CheckAlliancePlayer(lpObj->m_Index, lpTargetObj->m_Index))

  00333	8b 45 0c	 mov	 eax, DWORD PTR _lpTargetObj$[ebp]
  00336	8b 08		 mov	 ecx, DWORD PTR [eax]
  00338	51		 push	 ecx
  00339	8b 55 08	 mov	 edx, DWORD PTR _lpObj$[ebp]
  0033c	8b 02		 mov	 eax, DWORD PTR [edx]
  0033e	50		 push	 eax
  0033f	b9 00 00 00 00	 mov	 ecx, OFFSET ?g_ExUser@@3VÑExUser@@A ; g_ExUser
  00344	e8 00 00 00 00	 call	 ?CheckAlliancePlayer@ÑExUser@@QAE_NHH@Z ; ÑExUser::CheckAlliancePlayer
  00349	0f b6 c8	 movzx	 ecx, al
  0034c	85 c9		 test	 ecx, ecx
  0034e	74 07		 je	 SHORT $LN713@Attack

; 200  : 					{
; 201  : 						return false;

  00350	33 c0		 xor	 eax, eax
  00352	e9 a0 66 00 00	 jmp	 $LN741@Attack
$LN713@Attack:

; 202  : 					}
; 203  : 				}
; 204  : 			}
; 205  : 		}
; 206  : 	}
; 207  : #endif
; 208  : 
; 209  : 	if ( g_iUseCharacterAutoRecuperationSystem && lpObj->Level <= g_iCharacterRecuperationMaxLevel )

  00357	83 3d 00 00 00
	00 00		 cmp	 DWORD PTR ?g_iUseCharacterAutoRecuperationSystem@@3HA, 0 ; g_iUseCharacterAutoRecuperationSystem
  0035e	74 6c		 je	 SHORT $LN708@Attack
  00360	8b 45 08	 mov	 eax, DWORD PTR _lpObj$[ebp]
  00363	0f bf 88 be 00
	00 00		 movsx	 ecx, WORD PTR [eax+190]
  0036a	3b 0d 00 00 00
	00		 cmp	 ecx, DWORD PTR ?g_iCharacterRecuperationMaxLevel@@3HA ; g_iCharacterRecuperationMaxLevel
  00370	7f 5a		 jg	 SHORT $LN708@Attack

; 210  : 	{
; 211  : 		if ( lpObj->Type == OBJ_USER )

  00372	8b 45 08	 mov	 eax, DWORD PTR _lpObj$[ebp]
  00375	0f b7 48 68	 movzx	 ecx, WORD PTR [eax+104]
  00379	83 f9 01	 cmp	 ecx, 1
  0037c	75 21		 jne	 SHORT $LN710@Attack

; 212  : 		{
; 213  : 			if ( lpObj->Level <= g_iCharacterRecuperationMaxLevel )

  0037e	8b 45 08	 mov	 eax, DWORD PTR _lpObj$[ebp]
  00381	0f bf 88 be 00
	00 00		 movsx	 ecx, WORD PTR [eax+190]
  00388	3b 0d 00 00 00
	00		 cmp	 ecx, DWORD PTR ?g_iCharacterRecuperationMaxLevel@@3HA ; g_iCharacterRecuperationMaxLevel
  0038e	7f 0f		 jg	 SHORT $LN710@Attack

; 214  : 			{
; 215  : 				lpObj->m_iAutoRecuperationTime = GetTickCount();

  00390	ff 15 00 00 00
	00		 call	 DWORD PTR __imp__GetTickCount@0
  00396	8b 4d 08	 mov	 ecx, DWORD PTR _lpObj$[ebp]
  00399	89 81 cc 1f 00
	00		 mov	 DWORD PTR [ecx+8140], eax
$LN710@Attack:

; 216  : 			}
; 217  : 		}
; 218  : 
; 219  : 		if ( lpTargetObj->Type == OBJ_USER )

  0039f	8b 45 0c	 mov	 eax, DWORD PTR _lpTargetObj$[ebp]
  003a2	0f b7 48 68	 movzx	 ecx, WORD PTR [eax+104]
  003a6	83 f9 01	 cmp	 ecx, 1
  003a9	75 21		 jne	 SHORT $LN708@Attack

; 220  : 		{
; 221  : 			if ( lpTargetObj->Level <= g_iCharacterRecuperationMaxLevel )

  003ab	8b 45 0c	 mov	 eax, DWORD PTR _lpTargetObj$[ebp]
  003ae	0f bf 88 be 00
	00 00		 movsx	 ecx, WORD PTR [eax+190]
  003b5	3b 0d 00 00 00
	00		 cmp	 ecx, DWORD PTR ?g_iCharacterRecuperationMaxLevel@@3HA ; g_iCharacterRecuperationMaxLevel
  003bb	7f 0f		 jg	 SHORT $LN708@Attack

; 222  : 			{
; 223  : 				lpTargetObj->m_iAutoRecuperationTime = GetTickCount();

  003bd	ff 15 00 00 00
	00		 call	 DWORD PTR __imp__GetTickCount@0
  003c3	8b 4d 0c	 mov	 ecx, DWORD PTR _lpTargetObj$[ebp]
  003c6	89 81 cc 1f 00
	00		 mov	 DWORD PTR [ecx+8140], eax
$LN708@Attack:

; 224  : 			}
; 225  : 		}
; 226  : 	}
; 227  : 
; 228  : 	if ( lpObj->Type == OBJ_USER )

  003cc	8b 45 08	 mov	 eax, DWORD PTR _lpObj$[ebp]
  003cf	0f b7 48 68	 movzx	 ecx, WORD PTR [eax+104]
  003d3	83 f9 01	 cmp	 ecx, 1
  003d6	75 0f		 jne	 SHORT $LN707@Attack

; 229  : 	{
; 230  : 		lpObj->dwShieldAutoRefillTimer = GetTickCount();

  003d8	ff 15 00 00 00
	00		 call	 DWORD PTR __imp__GetTickCount@0
  003de	8b 4d 08	 mov	 ecx, DWORD PTR _lpObj$[ebp]
  003e1	89 81 6c 01 00
	00		 mov	 DWORD PTR [ecx+364], eax
$LN707@Attack:

; 231  : 	}
; 232  : 
; 233  : 	if ( lpTargetObj->Type == OBJ_USER )

  003e7	8b 45 0c	 mov	 eax, DWORD PTR _lpTargetObj$[ebp]
  003ea	0f b7 48 68	 movzx	 ecx, WORD PTR [eax+104]
  003ee	83 f9 01	 cmp	 ecx, 1
  003f1	75 0f		 jne	 SHORT $LN706@Attack

; 234  : 	{
; 235  : 		lpTargetObj->dwShieldAutoRefillTimer = GetTickCount();

  003f3	ff 15 00 00 00
	00		 call	 DWORD PTR __imp__GetTickCount@0
  003f9	8b 4d 0c	 mov	 ecx, DWORD PTR _lpTargetObj$[ebp]
  003fc	89 81 6c 01 00
	00		 mov	 DWORD PTR [ecx+364], eax
$LN706@Attack:

; 236  : 	}
; 237  : 
; 238  : 	int skill = 0;

  00402	c7 45 d8 00 00
	00 00		 mov	 DWORD PTR _skill$[ebp], 0

; 239  : 	
; 240  : 	if ( lpMagic )

  00409	83 7d 10 00	 cmp	 DWORD PTR _lpMagic$[ebp], 0
  0040d	74 09		 je	 SHORT $LN705@Attack

; 241  : 	{
; 242  : 		skill = lpMagic->m_Skill;

  0040f	8b 45 10	 mov	 eax, DWORD PTR _lpMagic$[ebp]
  00412	8b 48 08	 mov	 ecx, DWORD PTR [eax+8]
  00415	89 4d d8	 mov	 DWORD PTR _skill$[ebp], ecx
$LN705@Attack:

; 243  : 	}
; 244  : 
; 245  : #ifdef DEBUG_CODE
; 246  : 	LogAddC(3,"Test skill: %d",skill);
; 247  : #endif
; 248  : 
; 249  : 	if(g_ExLicense.CheckUser(eExUB::SILVER1) || g_ExLicense.CheckUser(eExUB::SILVER2))

  00418	6a 07		 push	 7
  0041a	b9 00 00 00 00	 mov	 ecx, OFFSET ?g_ExLicense@@3VCExLicense@@A ; g_ExLicense
  0041f	e8 00 00 00 00	 call	 ?CheckUser@CExLicense@@QAE_NH@Z ; CExLicense::CheckUser
  00424	0f b6 c0	 movzx	 eax, al
  00427	85 c0		 test	 eax, eax
  00429	75 13		 jne	 SHORT $LN703@Attack
  0042b	6a 08		 push	 8
  0042d	b9 00 00 00 00	 mov	 ecx, OFFSET ?g_ExLicense@@3VCExLicense@@A ; g_ExLicense
  00432	e8 00 00 00 00	 call	 ?CheckUser@CExLicense@@QAE_NH@Z ; CExLicense::CheckUser
  00437	0f b6 c0	 movzx	 eax, al
  0043a	85 c0		 test	 eax, eax
  0043c	74 79		 je	 SHORT $LN701@Attack
$LN703@Attack:

; 250  : 	{
; 251  : 		if(BC_MAP_RANGE(lpObj->MapNumber) == TRUE)

  0043e	8b 45 08	 mov	 eax, DWORD PTR _lpObj$[ebp]
  00441	0f b6 88 49 01
	00 00		 movzx	 ecx, BYTE PTR [eax+329]
  00448	83 f9 34	 cmp	 ecx, 52			; 00000034H
  0044b	75 0c		 jne	 SHORT $LN747@Attack
  0044d	c7 85 c8 fc ff
	ff 01 00 00 00	 mov	 DWORD PTR tv278[ebp], 1
  00457	eb 3f		 jmp	 SHORT $LN748@Attack
$LN747@Attack:
  00459	8b 55 08	 mov	 edx, DWORD PTR _lpObj$[ebp]
  0045c	0f b6 82 49 01
	00 00		 movzx	 eax, BYTE PTR [edx+329]
  00463	83 f8 0b	 cmp	 eax, 11			; 0000000bH
  00466	7d 0c		 jge	 SHORT $LN745@Attack
  00468	c7 85 c4 fc ff
	ff 00 00 00 00	 mov	 DWORD PTR tv277[ebp], 0
  00472	eb 18		 jmp	 SHORT $LN746@Attack
$LN745@Attack:
  00474	8b 4d 08	 mov	 ecx, DWORD PTR _lpObj$[ebp]
  00477	0f b6 91 49 01
	00 00		 movzx	 edx, BYTE PTR [ecx+329]
  0047e	33 c0		 xor	 eax, eax
  00480	83 fa 11	 cmp	 edx, 17			; 00000011H
  00483	0f 9e c0	 setle	 al
  00486	89 85 c4 fc ff
	ff		 mov	 DWORD PTR tv277[ebp], eax
$LN746@Attack:
  0048c	8b 8d c4 fc ff
	ff		 mov	 ecx, DWORD PTR tv277[ebp]
  00492	89 8d c8 fc ff
	ff		 mov	 DWORD PTR tv278[ebp], ecx
$LN748@Attack:
  00498	83 bd c8 fc ff
	ff 01		 cmp	 DWORD PTR tv278[ebp], 1
  0049f	75 16		 jne	 SHORT $LN701@Attack

; 252  : 		{
; 253  : 			if ( skill == 52 || skill == 238 )

  004a1	83 7d d8 34	 cmp	 DWORD PTR _skill$[ebp], 52 ; 00000034H
  004a5	74 09		 je	 SHORT $LN700@Attack
  004a7	81 7d d8 ee 00
	00 00		 cmp	 DWORD PTR _skill$[ebp], 238 ; 000000eeH
  004ae	75 07		 jne	 SHORT $LN701@Attack
$LN700@Attack:

; 254  : 			{
; 255  : 				return false;

  004b0	33 c0		 xor	 eax, eax
  004b2	e9 40 65 00 00	 jmp	 $LN741@Attack
$LN701@Attack:

; 256  : 			}
; 257  : 		}
; 258  : 	}
; 259  : 
; 260  : 	if ( lpObj->Class == 77 )

  004b7	8b 45 08	 mov	 eax, DWORD PTR _lpObj$[ebp]
  004ba	0f b7 88 b8 00
	00 00		 movzx	 ecx, WORD PTR [eax+184]
  004c1	83 f9 4d	 cmp	 ecx, 77			; 0000004dH
  004c4	75 19		 jne	 SHORT $LN698@Attack

; 261  : 	{
; 262  : 		if ( lpObj->m_SkyBossMonSheild && skill == 17 )

  004c6	8b 45 08	 mov	 eax, DWORD PTR _lpObj$[ebp]
  004c9	83 b8 c4 10 00
	00 00		 cmp	 DWORD PTR [eax+4292], 0
  004d0	74 0d		 je	 SHORT $LN698@Attack
  004d2	83 7d d8 11	 cmp	 DWORD PTR _skill$[ebp], 17 ; 00000011H
  004d6	75 07		 jne	 SHORT $LN698@Attack

; 263  : 		{
; 264  : 			skill = 3;

  004d8	c7 45 d8 03 00
	00 00		 mov	 DWORD PTR _skill$[ebp], 3
$LN698@Attack:

; 265  : 		}
; 266  : 	}
; 267  : 
; 268  : 	skillSuccess = TRUE; //28

  004df	c7 45 f4 01 00
	00 00		 mov	 DWORD PTR _skillSuccess$[ebp], 1

; 269  : 
; 270  : 	if ( lpObj->GuildNumber > 0 )

  004e6	8b 45 08	 mov	 eax, DWORD PTR _lpObj$[ebp]
  004e9	83 b8 34 04 00
	00 00		 cmp	 DWORD PTR [eax+1076], 0
  004f0	0f 8e 8b 00 00
	00		 jle	 $LN690@Attack

; 271  : 	{
; 272  : 		if ( lpObj->lpGuild )

  004f6	8b 45 08	 mov	 eax, DWORD PTR _lpObj$[ebp]
  004f9	83 b8 38 04 00
	00 00		 cmp	 DWORD PTR [eax+1080], 0
  00500	74 7f		 je	 SHORT $LN690@Attack

; 273  : 		{
; 274  : 			if ( lpObj->lpGuild->WarState )

  00502	8b 45 08	 mov	 eax, DWORD PTR _lpObj$[ebp]
  00505	8b 88 38 04 00
	00		 mov	 ecx, DWORD PTR [eax+1080]
  0050b	0f b6 91 91 05
	00 00		 movzx	 edx, BYTE PTR [ecx+1425]
  00512	85 d2		 test	 edx, edx
  00514	74 2d		 je	 SHORT $LN693@Attack

; 275  : 			{
; 276  : 				if ( lpObj->lpGuild->WarType == 1 )

  00516	8b 45 08	 mov	 eax, DWORD PTR _lpObj$[ebp]
  00519	8b 88 38 04 00
	00		 mov	 ecx, DWORD PTR [eax+1080]
  0051f	0f b6 91 92 05
	00 00		 movzx	 edx, BYTE PTR [ecx+1426]
  00526	83 fa 01	 cmp	 edx, 1
  00529	75 18		 jne	 SHORT $LN693@Attack

; 277  : 				{
; 278  : 					if ( !GetBattleSoccerGoalMove(0) )

  0052b	6a 00		 push	 0
  0052d	e8 00 00 00 00	 call	 ?GetBattleSoccerGoalMove@@YAHH@Z ; GetBattleSoccerGoalMove
  00532	83 c4 04	 add	 esp, 4
  00535	85 c0		 test	 eax, eax
  00537	75 0a		 jne	 SHORT $LN693@Attack

; 279  : 					{
; 280  : 						return TRUE;

  00539	b8 01 00 00 00	 mov	 eax, 1
  0053e	e9 b4 64 00 00	 jmp	 $LN741@Attack
$LN693@Attack:

; 281  : 					}
; 282  : 				}
; 283  : 			}
; 284  : 
; 285  : 			if ( lpObj->lpGuild->WarState )

  00543	8b 45 08	 mov	 eax, DWORD PTR _lpObj$[ebp]
  00546	8b 88 38 04 00
	00		 mov	 ecx, DWORD PTR [eax+1080]
  0054c	0f b6 91 91 05
	00 00		 movzx	 edx, BYTE PTR [ecx+1425]
  00553	85 d2		 test	 edx, edx
  00555	74 2a		 je	 SHORT $LN690@Attack

; 286  : 			{
; 287  : 				if ( lpObj->lpGuild->WarType == 0 )

  00557	8b 45 08	 mov	 eax, DWORD PTR _lpObj$[ebp]
  0055a	8b 88 38 04 00
	00		 mov	 ecx, DWORD PTR [eax+1080]
  00560	0f b6 91 92 05
	00 00		 movzx	 edx, BYTE PTR [ecx+1426]
  00567	85 d2		 test	 edx, edx
  00569	75 16		 jne	 SHORT $LN690@Attack

; 288  : 				{
; 289  : 					if ( lpTargetObj->Type == OBJ_MONSTER )

  0056b	8b 45 0c	 mov	 eax, DWORD PTR _lpTargetObj$[ebp]
  0056e	0f b7 48 68	 movzx	 ecx, WORD PTR [eax+104]
  00572	83 f9 02	 cmp	 ecx, 2
  00575	75 0a		 jne	 SHORT $LN690@Attack

; 290  : 					{
; 291  : 						return TRUE;

  00577	b8 01 00 00 00	 mov	 eax, 1
  0057c	e9 76 64 00 00	 jmp	 $LN741@Attack
$LN690@Attack:

; 292  : 					}
; 293  : 				}
; 294  : 			}
; 295  : 		}
; 296  : 	}
; 297  : 
; 298  : 	if ( lpTargetObj->Type == OBJ_MONSTER )

  00581	8b 45 0c	 mov	 eax, DWORD PTR _lpTargetObj$[ebp]
  00584	0f b7 48 68	 movzx	 ecx, WORD PTR [eax+104]
  00588	83 f9 02	 cmp	 ecx, 2
  0058b	0f 85 9e 01 00
	00		 jne	 $LN677@Attack

; 299  : 	{
; 300  : 		if ( lpTargetObj->m_iMonsterBattleDelay > 0 )

  00591	8b 45 0c	 mov	 eax, DWORD PTR _lpTargetObj$[ebp]
  00594	0f be 88 c9 03
	00 00		 movsx	 ecx, BYTE PTR [eax+969]
  0059b	85 c9		 test	 ecx, ecx
  0059d	7e 0a		 jle	 SHORT $LN688@Attack

; 301  : 		{
; 302  : 			return TRUE;

  0059f	b8 01 00 00 00	 mov	 eax, 1
  005a4	e9 4e 64 00 00	 jmp	 $LN741@Attack
$LN688@Attack:

; 303  : 		}
; 304  : 		
; 305  : 		if ( lpTargetObj->Class == 200 )

  005a9	8b 45 0c	 mov	 eax, DWORD PTR _lpTargetObj$[ebp]
  005ac	0f b7 88 b8 00
	00 00		 movzx	 ecx, WORD PTR [eax+184]
  005b3	81 f9 c8 00 00
	00		 cmp	 ecx, 200		; 000000c8H
  005b9	75 60		 jne	 SHORT $LN687@Attack

; 306  : 		{
; 307  : 			if ( skill )

  005bb	83 7d d8 00	 cmp	 DWORD PTR _skill$[ebp], 0
  005bf	74 18		 je	 SHORT $LN686@Attack

; 308  : 			{
; 309  : 				gObjMonsterStateProc(lpTargetObj, 7, lpObj->m_Index, 0);

  005c1	6a 00		 push	 0
  005c3	8b 45 08	 mov	 eax, DWORD PTR _lpObj$[ebp]
  005c6	8b 08		 mov	 ecx, DWORD PTR [eax]
  005c8	51		 push	 ecx
  005c9	6a 07		 push	 7
  005cb	8b 55 0c	 mov	 edx, DWORD PTR _lpTargetObj$[ebp]
  005ce	52		 push	 edx
  005cf	e8 00 00 00 00	 call	 ?gObjMonsterStateProc@@YAXPAUOBJECTSTRUCT@@HHH@Z ; gObjMonsterStateProc
  005d4	83 c4 10	 add	 esp, 16			; 00000010H

; 310  : 			}
; 311  : 			else

  005d7	eb 16		 jmp	 SHORT $LN685@Attack
$LN686@Attack:

; 312  : 			{
; 313  : 				gObjMonsterStateProc(lpTargetObj, 6, lpObj->m_Index, 0);

  005d9	6a 00		 push	 0
  005db	8b 45 08	 mov	 eax, DWORD PTR _lpObj$[ebp]
  005de	8b 08		 mov	 ecx, DWORD PTR [eax]
  005e0	51		 push	 ecx
  005e1	6a 06		 push	 6
  005e3	8b 55 0c	 mov	 edx, DWORD PTR _lpTargetObj$[ebp]
  005e6	52		 push	 edx
  005e7	e8 00 00 00 00	 call	 ?gObjMonsterStateProc@@YAXPAUOBJECTSTRUCT@@HHH@Z ; gObjMonsterStateProc
  005ec	83 c4 10	 add	 esp, 16			; 00000010H
$LN685@Attack:

; 314  : 			}
; 315  : 
; 316  : 			if ( magicsend )

  005ef	83 7d 14 00	 cmp	 DWORD PTR _magicsend$[ebp], 0
  005f3	74 1c		 je	 SHORT $LN684@Attack

; 317  : 			{
; 318  : 				GCMagicAttackNumberSend(lpObj, skill, lpTargetObj->m_Index, skillSuccess);

  005f5	0f b6 45 f4	 movzx	 eax, BYTE PTR _skillSuccess$[ebp]
  005f9	50		 push	 eax
  005fa	8b 4d 0c	 mov	 ecx, DWORD PTR _lpTargetObj$[ebp]
  005fd	8b 11		 mov	 edx, DWORD PTR [ecx]
  005ff	52		 push	 edx
  00600	0f b7 45 d8	 movzx	 eax, WORD PTR _skill$[ebp]
  00604	50		 push	 eax
  00605	8b 4d 08	 mov	 ecx, DWORD PTR _lpObj$[ebp]
  00608	51		 push	 ecx
  00609	e8 00 00 00 00	 call	 ?GCMagicAttackNumberSend@@YAXPAUOBJECTSTRUCT@@GHE@Z ; GCMagicAttackNumberSend
  0060e	83 c4 10	 add	 esp, 16			; 00000010H
$LN684@Attack:

; 319  : 			}
; 320  : 
; 321  : 			return TRUE;

  00611	b8 01 00 00 00	 mov	 eax, 1
  00616	e9 dc 63 00 00	 jmp	 $LN741@Attack
$LN687@Attack:

; 322  : 		}
; 323  : 
; 324  : 		if(gObjSearchActiveEffect(lpTargetObj, AT_IMMUNE_MAGIC) == 1)

  0061b	6a 3f		 push	 63			; 0000003fH
  0061d	8b 45 0c	 mov	 eax, DWORD PTR _lpTargetObj$[ebp]
  00620	50		 push	 eax
  00621	e8 00 00 00 00	 call	 ?gObjSearchActiveEffect@@YAEPAUOBJECTSTRUCT@@H@Z ; gObjSearchActiveEffect
  00626	83 c4 08	 add	 esp, 8
  00629	0f b6 c8	 movzx	 ecx, al
  0062c	83 f9 01	 cmp	 ecx, 1
  0062f	75 43		 jne	 SHORT $LN682@Attack

; 325  : 		{
; 326  : 			BOOL bCheckAttackIsMagicType = gObjCheckAttackTypeMagic(lpObj->Class, skill);

  00631	8b 45 d8	 mov	 eax, DWORD PTR _skill$[ebp]
  00634	50		 push	 eax
  00635	8b 4d 08	 mov	 ecx, DWORD PTR _lpObj$[ebp]
  00638	0f b7 91 b8 00
	00 00		 movzx	 edx, WORD PTR [ecx+184]
  0063f	52		 push	 edx
  00640	e8 00 00 00 00	 call	 ?gObjCheckAttackTypeMagic@@YAHHH@Z ; gObjCheckAttackTypeMagic
  00645	83 c4 08	 add	 esp, 8
  00648	89 45 d4	 mov	 DWORD PTR _bCheckAttackIsMagicType$239993[ebp], eax

; 327  : 
; 328  : 			if ( bCheckAttackIsMagicType == TRUE )

  0064b	83 7d d4 01	 cmp	 DWORD PTR _bCheckAttackIsMagicType$239993[ebp], 1
  0064f	75 23		 jne	 SHORT $LN682@Attack

; 329  : 			{
; 330  : 				GCMagicAttackNumberSend(lpObj, skill, lpTargetObj->m_Index, 0);

  00651	6a 00		 push	 0
  00653	8b 45 0c	 mov	 eax, DWORD PTR _lpTargetObj$[ebp]
  00656	8b 08		 mov	 ecx, DWORD PTR [eax]
  00658	51		 push	 ecx
  00659	0f b7 55 d8	 movzx	 edx, WORD PTR _skill$[ebp]
  0065d	52		 push	 edx
  0065e	8b 45 08	 mov	 eax, DWORD PTR _lpObj$[ebp]
  00661	50		 push	 eax
  00662	e8 00 00 00 00	 call	 ?GCMagicAttackNumberSend@@YAXPAUOBJECTSTRUCT@@GHE@Z ; GCMagicAttackNumberSend
  00667	83 c4 10	 add	 esp, 16			; 00000010H

; 331  : 				return TRUE;

  0066a	b8 01 00 00 00	 mov	 eax, 1
  0066f	e9 83 63 00 00	 jmp	 $LN741@Attack
$LN682@Attack:

; 332  : 			}
; 333  : 		}
; 334  : 
; 335  : 		if(gObjSearchActiveEffect(lpTargetObj, AT_IMMUNE_HARM) == 1)

  00674	6a 40		 push	 64			; 00000040H
  00676	8b 45 0c	 mov	 eax, DWORD PTR _lpTargetObj$[ebp]
  00679	50		 push	 eax
  0067a	e8 00 00 00 00	 call	 ?gObjSearchActiveEffect@@YAEPAUOBJECTSTRUCT@@H@Z ; gObjSearchActiveEffect
  0067f	83 c4 08	 add	 esp, 8
  00682	0f b6 c8	 movzx	 ecx, al
  00685	83 f9 01	 cmp	 ecx, 1
  00688	75 46		 jne	 SHORT $LN680@Attack

; 336  : 		{
; 337  : 			BOOL bCheckAttackIsMagicType = gObjCheckAttackTypeMagic(lpObj->Class, skill); //loc11

  0068a	8b 45 d8	 mov	 eax, DWORD PTR _skill$[ebp]
  0068d	50		 push	 eax
  0068e	8b 4d 08	 mov	 ecx, DWORD PTR _lpObj$[ebp]
  00691	0f b7 91 b8 00
	00 00		 movzx	 edx, WORD PTR [ecx+184]
  00698	52		 push	 edx
  00699	e8 00 00 00 00	 call	 ?gObjCheckAttackTypeMagic@@YAHHH@Z ; gObjCheckAttackTypeMagic
  0069e	83 c4 08	 add	 esp, 8
  006a1	89 45 d0	 mov	 DWORD PTR _bCheckAttackIsMagicType$239996[ebp], eax

; 338  : 
; 339  : 			if ( bCheckAttackIsMagicType == FALSE )

  006a4	83 7d d0 00	 cmp	 DWORD PTR _bCheckAttackIsMagicType$239996[ebp], 0
  006a8	75 26		 jne	 SHORT $LN680@Attack

; 340  : 			{
; 341  : 				GCDamageSend(lpObj->m_Index, lpTargetObj->m_Index, 0, 0, 0, 0);

  006aa	6a 00		 push	 0
  006ac	6a 00		 push	 0
  006ae	6a 00		 push	 0
  006b0	6a 00		 push	 0
  006b2	8b 45 0c	 mov	 eax, DWORD PTR _lpTargetObj$[ebp]
  006b5	8b 08		 mov	 ecx, DWORD PTR [eax]
  006b7	51		 push	 ecx
  006b8	8b 55 08	 mov	 edx, DWORD PTR _lpObj$[ebp]
  006bb	8b 02		 mov	 eax, DWORD PTR [edx]
  006bd	50		 push	 eax
  006be	e8 00 00 00 00	 call	 ?GCDamageSend@@YAXHHHHHH@Z ; GCDamageSend
  006c3	83 c4 18	 add	 esp, 24			; 00000018H

; 342  : 				return TRUE;

  006c6	b8 01 00 00 00	 mov	 eax, 1
  006cb	e9 27 63 00 00	 jmp	 $LN741@Attack
$LN680@Attack:

; 343  : 			}
; 344  : 		}
; 345  : 		if ( lpTargetObj->m_MonsterSkillElementInfo.m_iSkillElementImmuneTime > 0 )

  006d0	8b 45 0c	 mov	 eax, DWORD PTR _lpTargetObj$[ebp]
  006d3	83 b8 58 1c 00
	00 00		 cmp	 DWORD PTR [eax+7256], 0
  006da	7e 18		 jle	 SHORT $LN678@Attack

; 346  : 		{
; 347  : 			if ( lpTargetObj->m_MonsterSkillElementInfo.m_iSkillElementImmuneNumber == skill )

  006dc	8b 45 0c	 mov	 eax, DWORD PTR _lpTargetObj$[ebp]
  006df	8b 88 54 1c 00
	00		 mov	 ecx, DWORD PTR [eax+7252]
  006e5	3b 4d d8	 cmp	 ecx, DWORD PTR _skill$[ebp]
  006e8	75 0a		 jne	 SHORT $LN678@Attack

; 348  : 			{
; 349  : 				return TRUE;

  006ea	b8 01 00 00 00	 mov	 eax, 1
  006ef	e9 03 63 00 00	 jmp	 $LN741@Attack
$LN678@Attack:

; 350  : 			}
; 351  : 		}
; 352  : 		if ( lpTargetObj->m_MonsterSkillElementInfo.m_iSkillElementBerserkTime > 0 ) //season4

  006f4	8b 45 0c	 mov	 eax, DWORD PTR _lpTargetObj$[ebp]
  006f7	83 b8 70 1c 00
	00 00		 cmp	 DWORD PTR [eax+7280], 0
  006fe	7e 2f		 jle	 SHORT $LN677@Attack

; 353  : 		{
; 354  : 			int MSBDamage = 32;

  00700	c7 45 cc 20 00
	00 00		 mov	 DWORD PTR _MSBDamage$240001[ebp], 32 ; 00000020H

; 355  : 			GCDamageSend(lpObj->m_Index, lpTargetObj->m_Index, 0, 0, MSBDamage, 0);

  00707	6a 00		 push	 0
  00709	8b 45 cc	 mov	 eax, DWORD PTR _MSBDamage$240001[ebp]
  0070c	50		 push	 eax
  0070d	6a 00		 push	 0
  0070f	6a 00		 push	 0
  00711	8b 4d 0c	 mov	 ecx, DWORD PTR _lpTargetObj$[ebp]
  00714	8b 11		 mov	 edx, DWORD PTR [ecx]
  00716	52		 push	 edx
  00717	8b 45 08	 mov	 eax, DWORD PTR _lpObj$[ebp]
  0071a	8b 08		 mov	 ecx, DWORD PTR [eax]
  0071c	51		 push	 ecx
  0071d	e8 00 00 00 00	 call	 ?GCDamageSend@@YAXHHHHHH@Z ; GCDamageSend
  00722	83 c4 18	 add	 esp, 24			; 00000018H

; 356  : 			return TRUE;

  00725	b8 01 00 00 00	 mov	 eax, 1
  0072a	e9 c8 62 00 00	 jmp	 $LN741@Attack
$LN677@Attack:

; 357  : 		}
; 358  : 	}
; 359  : 
; 360  : #ifdef IMPERIAL_CONFLICT_NEW
; 361  : 
; 362  : 	if ( lpTargetObj->Class == 523 )
; 363  : 		return TRUE;
; 364  : 
; 365  : 	if ( lpTargetObj->Class >= 524 && lpTargetObj->Class <= 528 
; 366  : 		&& lpTargetObj->Class != 526
; 367  : 		&& !g_ImperialGuardian.IsAttackAbleMonster(lpTargetObj->m_Index) )
; 368  : 	{
; 369  : 		return TRUE;
; 370  : 	}
; 371  : #endif
; 372  : 
; 373  : 	if ( lpObj->Type == OBJ_USER )

  0072f	8b 45 08	 mov	 eax, DWORD PTR _lpObj$[ebp]
  00732	0f b7 48 68	 movzx	 ecx, WORD PTR [eax+104]
  00736	83 f9 01	 cmp	 ecx, 1
  00739	75 30		 jne	 SHORT $LN676@Attack

; 374  : 	{
; 375  : 		if ( !gObjIsConnected(lpObj) )

  0073b	8b 45 08	 mov	 eax, DWORD PTR _lpObj$[ebp]
  0073e	50		 push	 eax
  0073f	e8 00 00 00 00	 call	 ?gObjIsConnected@@YAHPAUOBJECTSTRUCT@@@Z ; gObjIsConnected
  00744	83 c4 04	 add	 esp, 4
  00747	85 c0		 test	 eax, eax
  00749	75 07		 jne	 SHORT $LN675@Attack

; 376  : 		{
; 377  : 			return FALSE;

  0074b	33 c0		 xor	 eax, eax
  0074d	e9 a5 62 00 00	 jmp	 $LN741@Attack
$LN675@Attack:

; 378  : 		}
; 379  : 
; 380  : 		/*if ( lpObj->m_Change == 8 )
; 381  : 		{
; 382  : 			skill = 1;
; 383  : 			lpMagic = &DefMagicInf[1];
; 384  : 			magicsend = 1;
; 385  : 		}*/
; 386  : 
; 387  : 		gDarkSpirit[lpObj->m_Index].SetTarget(lpTargetObj->m_Index);

  00752	8b 45 0c	 mov	 eax, DWORD PTR _lpTargetObj$[ebp]
  00755	8b 08		 mov	 ecx, DWORD PTR [eax]
  00757	51		 push	 ecx
  00758	8b 55 08	 mov	 edx, DWORD PTR _lpObj$[ebp]
  0075b	8b 0a		 mov	 ecx, DWORD PTR [edx]
  0075d	6b c9 28	 imul	 ecx, 40			; 00000028H
  00760	81 c1 00 00 00
	00		 add	 ecx, OFFSET ?gDarkSpirit@@3PAVCDarkSpirit@@A ; gDarkSpirit
  00766	e8 00 00 00 00	 call	 ?SetTarget@CDarkSpirit@@QAEXH@Z ; CDarkSpirit::SetTarget
$LN676@Attack:

; 388  : 	}
; 389  : 
; 390  : 	if ( lpTargetObj->Type == OBJ_USER )

  0076b	8b 45 0c	 mov	 eax, DWORD PTR _lpTargetObj$[ebp]
  0076e	0f b7 48 68	 movzx	 ecx, WORD PTR [eax+104]
  00772	83 f9 01	 cmp	 ecx, 1
  00775	75 17		 jne	 SHORT $LN673@Attack

; 391  : 	{
; 392  : 		if ( !gObjIsConnected(lpTargetObj))

  00777	8b 45 0c	 mov	 eax, DWORD PTR _lpTargetObj$[ebp]
  0077a	50		 push	 eax
  0077b	e8 00 00 00 00	 call	 ?gObjIsConnected@@YAHPAUOBJECTSTRUCT@@@Z ; gObjIsConnected
  00780	83 c4 04	 add	 esp, 4
  00783	85 c0		 test	 eax, eax
  00785	75 07		 jne	 SHORT $LN673@Attack

; 393  : 		{
; 394  : 			return FALSE;

  00787	33 c0		 xor	 eax, eax
  00789	e9 69 62 00 00	 jmp	 $LN741@Attack
$LN673@Attack:

; 395  : 		}
; 396  : 	}
; 397  : 
; 398  : 	if ( lpObj->Type == OBJ_USER && lpTargetObj->Type == OBJ_MONSTER )

  0078e	8b 45 08	 mov	 eax, DWORD PTR _lpObj$[ebp]
  00791	0f b7 48 68	 movzx	 ecx, WORD PTR [eax+104]
  00795	83 f9 01	 cmp	 ecx, 1
  00798	75 2f		 jne	 SHORT $LN670@Attack
  0079a	8b 45 0c	 mov	 eax, DWORD PTR _lpTargetObj$[ebp]
  0079d	0f b7 48 68	 movzx	 ecx, WORD PTR [eax+104]
  007a1	83 f9 02	 cmp	 ecx, 2
  007a4	75 23		 jne	 SHORT $LN670@Attack

; 399  : 	{
; 400  : 		if ( lpObj->m_RecallMon >= 0 )

  007a6	8b 45 08	 mov	 eax, DWORD PTR _lpObj$[ebp]
  007a9	83 b8 50 04 00
	00 00		 cmp	 DWORD PTR [eax+1104], 0
  007b0	7c 17		 jl	 SHORT $LN670@Attack

; 401  : 		{
; 402  : 			if ( lpObj->m_RecallMon == lpTargetObj->m_Index )

  007b2	8b 45 08	 mov	 eax, DWORD PTR _lpObj$[ebp]
  007b5	8b 4d 0c	 mov	 ecx, DWORD PTR _lpTargetObj$[ebp]
  007b8	8b 90 50 04 00
	00		 mov	 edx, DWORD PTR [eax+1104]
  007be	3b 11		 cmp	 edx, DWORD PTR [ecx]
  007c0	75 07		 jne	 SHORT $LN670@Attack

; 403  : 			{
; 404  : 				return FALSE;

  007c2	33 c0		 xor	 eax, eax
  007c4	e9 2e 62 00 00	 jmp	 $LN741@Attack
$LN670@Attack:

; 405  : 			}
; 406  : 		}
; 407  : 	}
; 408  : 
; 409  : 	if ( !gObjAttackQ(lpTargetObj))

  007c9	8b 45 0c	 mov	 eax, DWORD PTR _lpTargetObj$[ebp]
  007cc	50		 push	 eax
  007cd	e8 00 00 00 00	 call	 ?gObjAttackQ@@YAHPAUOBJECTSTRUCT@@@Z ; gObjAttackQ
  007d2	83 c4 04	 add	 esp, 4
  007d5	85 c0		 test	 eax, eax
  007d7	75 07		 jne	 SHORT $LN669@Attack

; 410  : 	{
; 411  : 		return FALSE;

  007d9	33 c0		 xor	 eax, eax
  007db	e9 17 62 00 00	 jmp	 $LN741@Attack
$LN669@Attack:

; 412  : 	}
; 413  : 
; 414  : 	if ( lpObj->m_RecallMon >= 0 )

  007e0	8b 45 08	 mov	 eax, DWORD PTR _lpObj$[ebp]
  007e3	83 b8 50 04 00
	00 00		 cmp	 DWORD PTR [eax+1104], 0
  007ea	7c 12		 jl	 SHORT $LN668@Attack

; 415  : 	{
; 416  : 		gObjCallMonsterSetEnemy(lpObj, lpTargetObj->m_Index);

  007ec	8b 45 0c	 mov	 eax, DWORD PTR _lpTargetObj$[ebp]
  007ef	8b 08		 mov	 ecx, DWORD PTR [eax]
  007f1	51		 push	 ecx
  007f2	8b 55 08	 mov	 edx, DWORD PTR _lpObj$[ebp]
  007f5	52		 push	 edx
  007f6	e8 00 00 00 00	 call	 ?gObjCallMonsterSetEnemy@@YAHPAUOBJECTSTRUCT@@H@Z ; gObjCallMonsterSetEnemy
  007fb	83 c4 08	 add	 esp, 8
$LN668@Attack:

; 417  : 	}
; 418  : 
; 419  : 	lpObj->m_TotalAttackCount++;

  007fe	8b 45 08	 mov	 eax, DWORD PTR _lpObj$[ebp]
  00801	8b 88 98 03 00
	00		 mov	 ecx, DWORD PTR [eax+920]
  00807	83 c1 01	 add	 ecx, 1
  0080a	8b 55 08	 mov	 edx, DWORD PTR _lpObj$[ebp]
  0080d	89 8a 98 03 00
	00		 mov	 DWORD PTR [edx+920], ecx

; 420  : 
; 421  : 	if ( AttackDamage == 0 )

  00813	83 7d 1c 00	 cmp	 DWORD PTR _AttackDamage$[ebp], 0
  00817	75 4a		 jne	 SHORT $LN664@Attack

; 422  : 	{
; 423  : 		if ( skill != 76 )

  00819	83 7d d8 4c	 cmp	 DWORD PTR _skill$[ebp], 76 ; 0000004cH
  0081d	74 44		 je	 SHORT $LN664@Attack

; 424  : 		{
; 425  : 			if(!gObjSearchActiveEffect(lpObj, AT_INFINITY_ARROW) &&
; 426  : 			   !gObjSearchActiveEffect(lpObj,BUFF_INFINITY_ARROW2))

  0081f	6a 06		 push	 6
  00821	8b 45 08	 mov	 eax, DWORD PTR _lpObj$[ebp]
  00824	50		 push	 eax
  00825	e8 00 00 00 00	 call	 ?gObjSearchActiveEffect@@YAEPAUOBJECTSTRUCT@@H@Z ; gObjSearchActiveEffect
  0082a	83 c4 08	 add	 esp, 8
  0082d	0f b6 c8	 movzx	 ecx, al
  00830	85 c9		 test	 ecx, ecx
  00832	75 2f		 jne	 SHORT $LN664@Attack
  00834	68 8f 00 00 00	 push	 143			; 0000008fH
  00839	8b 45 08	 mov	 eax, DWORD PTR _lpObj$[ebp]
  0083c	50		 push	 eax
  0083d	e8 00 00 00 00	 call	 ?gObjSearchActiveEffect@@YAEPAUOBJECTSTRUCT@@H@Z ; gObjSearchActiveEffect
  00842	83 c4 08	 add	 esp, 8
  00845	0f b6 c8	 movzx	 ecx, al
  00848	85 c9		 test	 ecx, ecx
  0084a	75 17		 jne	 SHORT $LN664@Attack

; 427  : 			{
; 428  : 				if ( !this->DecreaseArrow(lpObj) )

  0084c	8b 45 08	 mov	 eax, DWORD PTR _lpObj$[ebp]
  0084f	50		 push	 eax
  00850	8b 4d f8	 mov	 ecx, DWORD PTR _this$[ebp]
  00853	e8 00 00 00 00	 call	 ?DecreaseArrow@CObjBaseAttack@@QAEHPAUOBJECTSTRUCT@@@Z ; CObjBaseAttack::DecreaseArrow
  00858	85 c0		 test	 eax, eax
  0085a	75 07		 jne	 SHORT $LN664@Attack

; 429  : 				{
; 430  : 					return FALSE;

  0085c	33 c0		 xor	 eax, eax
  0085e	e9 94 61 00 00	 jmp	 $LN741@Attack
$LN664@Attack:

; 431  : 				}
; 432  : 			}
; 433  : 		}
; 434  : 	}
; 435  : 
; 436  : 	if ( this->CheckAttackArea(lpObj, lpTargetObj) == FALSE )

  00863	8b 45 0c	 mov	 eax, DWORD PTR _lpTargetObj$[ebp]
  00866	50		 push	 eax
  00867	8b 4d 08	 mov	 ecx, DWORD PTR _lpObj$[ebp]
  0086a	51		 push	 ecx
  0086b	8b 4d f8	 mov	 ecx, DWORD PTR _this$[ebp]
  0086e	e8 00 00 00 00	 call	 ?CheckAttackArea@CObjBaseAttack@@QAEHPAUOBJECTSTRUCT@@0@Z ; CObjBaseAttack::CheckAttackArea
  00873	85 c0		 test	 eax, eax
  00875	75 07		 jne	 SHORT $LN663@Attack

; 437  : 	{
; 438  : 		return FALSE;

  00877	33 c0		 xor	 eax, eax
  00879	e9 79 61 00 00	 jmp	 $LN741@Attack
$LN663@Attack:

; 439  : 	}
; 440  : 
; 441  : 	lpCallObj = lpObj;

  0087e	8b 45 08	 mov	 eax, DWORD PTR _lpObj$[ebp]
  00881	89 45 f0	 mov	 DWORD PTR _lpCallObj$[ebp], eax

; 442  : 
; 443  : 	if ( lpObj->Type == OBJ_MONSTER )

  00884	8b 45 08	 mov	 eax, DWORD PTR _lpObj$[ebp]
  00887	0f b7 48 68	 movzx	 ecx, WORD PTR [eax+104]
  0088b	83 f9 02	 cmp	 ecx, 2
  0088e	75 24		 jne	 SHORT $LN661@Attack

; 444  : 	{
; 445  : 		if ( lpObj->m_RecallMon >= 0 )

  00890	8b 45 08	 mov	 eax, DWORD PTR _lpObj$[ebp]
  00893	83 b8 50 04 00
	00 00		 cmp	 DWORD PTR [eax+1104], 0
  0089a	7c 18		 jl	 SHORT $LN661@Attack

; 446  : 		{
; 447  : 			lpCallObj = &gObj[lpObj->m_RecallMon];

  0089c	8b 45 08	 mov	 eax, DWORD PTR _lpObj$[ebp]
  0089f	8b 88 50 04 00
	00		 mov	 ecx, DWORD PTR [eax+1104]
  008a5	69 c9 38 2b 00
	00		 imul	 ecx, 11064		; 00002b38H
  008ab	03 0d 00 00 00
	00		 add	 ecx, DWORD PTR ?gObj@@3PAUOBJECTSTRUCT@@A ; gObj
  008b1	89 4d f0	 mov	 DWORD PTR _lpCallObj$[ebp], ecx
$LN661@Attack:

; 448  : 		}
; 449  : 	}
; 450  : 
; 451  : 	lpCallTargetObj = lpTargetObj;

  008b4	8b 45 0c	 mov	 eax, DWORD PTR _lpTargetObj$[ebp]
  008b7	89 45 ec	 mov	 DWORD PTR _lpCallTargetObj$[ebp], eax

; 452  : 
; 453  : 	if ( lpTargetObj->Type == OBJ_MONSTER )

  008ba	8b 45 0c	 mov	 eax, DWORD PTR _lpTargetObj$[ebp]
  008bd	0f b7 48 68	 movzx	 ecx, WORD PTR [eax+104]
  008c1	83 f9 02	 cmp	 ecx, 2
  008c4	75 24		 jne	 SHORT $LN659@Attack

; 454  : 	{
; 455  : 		if ( lpTargetObj->m_RecallMon >= 0 )

  008c6	8b 45 0c	 mov	 eax, DWORD PTR _lpTargetObj$[ebp]
  008c9	83 b8 50 04 00
	00 00		 cmp	 DWORD PTR [eax+1104], 0
  008d0	7c 18		 jl	 SHORT $LN659@Attack

; 456  : 		{
; 457  : 			lpCallTargetObj = &gObj[lpTargetObj->m_RecallMon];

  008d2	8b 45 0c	 mov	 eax, DWORD PTR _lpTargetObj$[ebp]
  008d5	8b 88 50 04 00
	00		 mov	 ecx, DWORD PTR [eax+1104]
  008db	69 c9 38 2b 00
	00		 imul	 ecx, 11064		; 00002b38H
  008e1	03 0d 00 00 00
	00		 add	 ecx, DWORD PTR ?gObj@@3PAUOBJECTSTRUCT@@A ; gObj
  008e7	89 4d ec	 mov	 DWORD PTR _lpCallTargetObj$[ebp], ecx
$LN659@Attack:

; 458  : 		}
; 459  : 	}
; 460  : 
; 461  : 	if ( this->PkCheck(lpCallObj, lpTargetObj) == FALSE )

  008ea	8b 45 0c	 mov	 eax, DWORD PTR _lpTargetObj$[ebp]
  008ed	50		 push	 eax
  008ee	8b 4d f0	 mov	 ecx, DWORD PTR _lpCallObj$[ebp]
  008f1	51		 push	 ecx
  008f2	8b 4d f8	 mov	 ecx, DWORD PTR _this$[ebp]
  008f5	e8 00 00 00 00	 call	 ?PkCheck@CObjBaseAttack@@QAEHPAUOBJECTSTRUCT@@0@Z ; CObjBaseAttack::PkCheck
  008fa	85 c0		 test	 eax, eax
  008fc	75 07		 jne	 SHORT $LN658@Attack

; 462  : 	{
; 463  : 		return FALSE;

  008fe	33 c0		 xor	 eax, eax
  00900	e9 f2 60 00 00	 jmp	 $LN741@Attack
$LN658@Attack:

; 464  : 	}
; 465  : 
; 466  : 	int Strength = lpObj->Strength + lpObj->AddStrength; //

  00905	8b 45 08	 mov	 eax, DWORD PTR _lpObj$[ebp]
  00908	0f b7 88 f4 00
	00 00		 movzx	 ecx, WORD PTR [eax+244]
  0090f	8b 55 08	 mov	 edx, DWORD PTR _lpObj$[ebp]
  00912	0f bf 82 20 01
	00 00		 movsx	 eax, WORD PTR [edx+288]
  00919	03 c8		 add	 ecx, eax
  0091b	89 4d c8	 mov	 DWORD PTR _Strength$[ebp], ecx

; 467  : 	int Dexterity = lpObj->Dexterity + lpObj->AddDexterity; //

  0091e	8b 45 08	 mov	 eax, DWORD PTR _lpObj$[ebp]
  00921	0f b7 88 f6 00
	00 00		 movzx	 ecx, WORD PTR [eax+246]
  00928	8b 55 08	 mov	 edx, DWORD PTR _lpObj$[ebp]
  0092b	0f bf 82 22 01
	00 00		 movsx	 eax, WORD PTR [edx+290]
  00932	03 c8		 add	 ecx, eax
  00934	89 4d c4	 mov	 DWORD PTR _Dexterity$[ebp], ecx

; 468  : 	int Vitality = lpObj->Vitality + lpObj->AddVitality; //loc12

  00937	8b 45 08	 mov	 eax, DWORD PTR _lpObj$[ebp]
  0093a	0f b7 88 f8 00
	00 00		 movzx	 ecx, WORD PTR [eax+248]
  00941	8b 55 08	 mov	 edx, DWORD PTR _lpObj$[ebp]
  00944	0f bf 82 24 01
	00 00		 movsx	 eax, WORD PTR [edx+292]
  0094b	03 c8		 add	 ecx, eax
  0094d	89 4d c0	 mov	 DWORD PTR _Vitality$[ebp], ecx

; 469  : 	int Energy = lpObj->Energy + lpObj->AddEnergy; //3c

  00950	8b 45 08	 mov	 eax, DWORD PTR _lpObj$[ebp]
  00953	0f b7 88 fa 00
	00 00		 movzx	 ecx, WORD PTR [eax+250]
  0095a	8b 55 08	 mov	 edx, DWORD PTR _lpObj$[ebp]
  0095d	0f bf 82 26 01
	00 00		 movsx	 eax, WORD PTR [edx+294]
  00964	03 c8		 add	 ecx, eax
  00966	89 4d bc	 mov	 DWORD PTR _Energy$[ebp], ecx

; 470  : 	BOOL bIsOnDuel = gObjDuelCheck(lpObj, lpTargetObj); //30

  00969	8b 45 0c	 mov	 eax, DWORD PTR _lpTargetObj$[ebp]
  0096c	50		 push	 eax
  0096d	8b 4d 08	 mov	 ecx, DWORD PTR _lpObj$[ebp]
  00970	51		 push	 ecx
  00971	e8 00 00 00 00	 call	 ?gObjDuelCheck@@YAHPAUOBJECTSTRUCT@@0@Z ; gObjDuelCheck
  00976	83 c4 08	 add	 esp, 8
  00979	89 45 b8	 mov	 DWORD PTR _bIsOnDuel$[ebp], eax

; 471  : 
; 472  : 	if ( bIsOnDuel )

  0097c	83 7d b8 00	 cmp	 DWORD PTR _bIsOnDuel$[ebp], 0
  00980	74 1e		 je	 SHORT $LN657@Attack

; 473  : 	{
; 474  : 		lpObj->m_iDuelTickCount = GetTickCount();

  00982	ff 15 00 00 00
	00		 call	 DWORD PTR __imp__GetTickCount@0
  00988	8b 4d 08	 mov	 ecx, DWORD PTR _lpObj$[ebp]
  0098b	89 81 c0 0e 00
	00		 mov	 DWORD PTR [ecx+3776], eax

; 475  : 		lpTargetObj->m_iDuelTickCount = GetTickCount();

  00991	ff 15 00 00 00
	00		 call	 DWORD PTR __imp__GetTickCount@0
  00997	8b 4d 0c	 mov	 ecx, DWORD PTR _lpTargetObj$[ebp]
  0099a	89 81 c0 0e 00
	00		 mov	 DWORD PTR [ecx+3776], eax
$LN657@Attack:

; 476  : 	}
; 477  : 
; 478  : 	if ( lpObj->pInventory[0].m_Type == ITEMGET(2,5) && lpObj->pInventory[0].m_IsValidItem != false )	// Crystal Sword

  009a0	8b 45 08	 mov	 eax, DWORD PTR _lpObj$[ebp]
  009a3	8b 88 24 0e 00
	00		 mov	 ecx, DWORD PTR [eax+3620]
  009a9	0f bf 51 06	 movsx	 edx, WORD PTR [ecx+6]
  009ad	81 fa 05 04 00
	00		 cmp	 edx, 1029		; 00000405H
  009b3	75 3c		 jne	 SHORT $LN656@Attack
  009b5	8b 45 08	 mov	 eax, DWORD PTR _lpObj$[ebp]
  009b8	8b 88 24 0e 00
	00		 mov	 ecx, DWORD PTR [eax+3620]
  009be	0f b6 91 b0 00
	00 00		 movzx	 edx, BYTE PTR [ecx+176]
  009c5	85 d2		 test	 edx, edx
  009c7	74 28		 je	 SHORT $LN656@Attack

; 479  : 	{
; 480  : 		if ( (rand()%20) == 0 )

  009c9	e8 00 00 00 00	 call	 _rand
  009ce	99		 cdq
  009cf	b9 14 00 00 00	 mov	 ecx, 20			; 00000014H
  009d4	f7 f9		 idiv	 ecx
  009d6	85 d2		 test	 edx, edx
  009d8	75 15		 jne	 SHORT $LN655@Attack

; 481  : 		{
; 482  : 			skill = 7;

  009da	c7 45 d8 07 00
	00 00		 mov	 DWORD PTR _skill$[ebp], 7

; 483  : 			lpMagic = &DefMagicInf[7];

  009e1	c7 45 10 a8 00
	00 00		 mov	 DWORD PTR _lpMagic$[ebp], OFFSET ?DefMagicInf@@3PAVCMagicInf@@A+168

; 484  : 			magicsend = 1;

  009e8	c7 45 14 01 00
	00 00		 mov	 DWORD PTR _magicsend$[ebp], 1
$LN655@Attack:

; 485  : 		}
; 486  : 	}

  009ef	eb 52		 jmp	 SHORT $LN652@Attack
$LN656@Attack:

; 487  : 	else if ( lpObj->pInventory[1].m_Type == ITEMGET(2,5) && lpObj->pInventory[1].m_IsValidItem != false )	// Crystal Sword

  009f1	8b 45 08	 mov	 eax, DWORD PTR _lpObj$[ebp]
  009f4	8b 88 24 0e 00
	00		 mov	 ecx, DWORD PTR [eax+3620]
  009fa	0f bf 91 da 00
	00 00		 movsx	 edx, WORD PTR [ecx+218]
  00a01	81 fa 05 04 00
	00		 cmp	 edx, 1029		; 00000405H
  00a07	75 3a		 jne	 SHORT $LN652@Attack
  00a09	8b 45 08	 mov	 eax, DWORD PTR _lpObj$[ebp]
  00a0c	8b 88 24 0e 00
	00		 mov	 ecx, DWORD PTR [eax+3620]
  00a12	0f b6 91 84 01
	00 00		 movzx	 edx, BYTE PTR [ecx+388]
  00a19	85 d2		 test	 edx, edx
  00a1b	74 26		 je	 SHORT $LN652@Attack

; 488  : 	{
; 489  : 		if ( (rand()%20) == 0 )

  00a1d	e8 00 00 00 00	 call	 _rand
  00a22	99		 cdq
  00a23	b9 14 00 00 00	 mov	 ecx, 20			; 00000014H
  00a28	f7 f9		 idiv	 ecx
  00a2a	85 d2		 test	 edx, edx
  00a2c	75 15		 jne	 SHORT $LN652@Attack

; 490  : 		{
; 491  : 			skill = 7;

  00a2e	c7 45 d8 07 00
	00 00		 mov	 DWORD PTR _skill$[ebp], 7

; 492  : 			lpMagic = &DefMagicInf[7];

  00a35	c7 45 10 a8 00
	00 00		 mov	 DWORD PTR _lpMagic$[ebp], OFFSET ?DefMagicInf@@3PAVCMagicInf@@A+168

; 493  : 			magicsend = 1;

  00a3c	c7 45 14 01 00
	00 00		 mov	 DWORD PTR _magicsend$[ebp], 1
$LN652@Attack:

; 494  : 		}
; 495  : 	}
; 496  : 
; 497  : 	MSBFlag = 0;

  00a43	c6 45 18 00	 mov	 BYTE PTR _MSBFlag$[ebp], 0

; 498  : 	MsgDamage = 0;

  00a47	c6 45 eb 00	 mov	 BYTE PTR _MsgDamage$[ebp], 0

; 499  : 	skillSuccess = this->ResistanceCheck(lpObj, lpTargetObj, skill);

  00a4b	8b 45 d8	 mov	 eax, DWORD PTR _skill$[ebp]
  00a4e	50		 push	 eax
  00a4f	8b 4d 0c	 mov	 ecx, DWORD PTR _lpTargetObj$[ebp]
  00a52	51		 push	 ecx
  00a53	8b 55 08	 mov	 edx, DWORD PTR _lpObj$[ebp]
  00a56	52		 push	 edx
  00a57	8b 4d f8	 mov	 ecx, DWORD PTR _this$[ebp]
  00a5a	e8 00 00 00 00	 call	 ?ResistanceCheck@CObjBaseAttack@@QAEHPAUOBJECTSTRUCT@@0H@Z ; CObjBaseAttack::ResistanceCheck
  00a5f	89 45 f4	 mov	 DWORD PTR _skillSuccess$[ebp], eax

; 500  : 	BOOL skillIceArrowSuccess = skillSuccess;

  00a62	8b 45 f4	 mov	 eax, DWORD PTR _skillSuccess$[ebp]
  00a65	89 45 b4	 mov	 DWORD PTR _skillIceArrowSuccess$[ebp], eax

; 501  : 
; 502  : 	if ( skill == 51 || skill == 424 )

  00a68	83 7d d8 33	 cmp	 DWORD PTR _skill$[ebp], 51 ; 00000033H
  00a6c	74 09		 je	 SHORT $LN650@Attack
  00a6e	81 7d d8 a8 01
	00 00		 cmp	 DWORD PTR _skill$[ebp], 424 ; 000001a8H
  00a75	75 07		 jne	 SHORT $LN651@Attack
$LN650@Attack:

; 503  : 	{
; 504  : 		skillSuccess = 0;

  00a77	c7 45 f4 00 00
	00 00		 mov	 DWORD PTR _skillSuccess$[ebp], 0
$LN651@Attack:

; 505  : 	}
; 506  : 
; 507  : 	BOOL bAllMiss = FALSE;

  00a7e	c7 45 b0 00 00
	00 00		 mov	 DWORD PTR _bAllMiss$[ebp], 0

; 508  : 	
; 509  : 	if(gObjSearchActiveEffect(lpObj, AT_INVISIBILITY) == 1 && (lpObj->Authority&32) != 32)

  00a85	6a 12		 push	 18			; 00000012H
  00a87	8b 45 08	 mov	 eax, DWORD PTR _lpObj$[ebp]
  00a8a	50		 push	 eax
  00a8b	e8 00 00 00 00	 call	 ?gObjSearchActiveEffect@@YAEPAUOBJECTSTRUCT@@H@Z ; gObjSearchActiveEffect
  00a90	83 c4 08	 add	 esp, 8
  00a93	0f b6 c8	 movzx	 ecx, al
  00a96	83 f9 01	 cmp	 ecx, 1
  00a99	75 1e		 jne	 SHORT $LN649@Attack
  00a9b	8b 45 08	 mov	 eax, DWORD PTR _lpObj$[ebp]
  00a9e	8b 88 0c 02 00
	00		 mov	 ecx, DWORD PTR [eax+524]
  00aa4	83 e1 20	 and	 ecx, 32			; 00000020H
  00aa7	75 10		 jne	 SHORT $LN649@Attack

; 510  : 	{
; 511  : 		gObjUseSkill.RemoveCloakingEffect(lpObj->m_Index);

  00aa9	8b 45 08	 mov	 eax, DWORD PTR _lpObj$[ebp]
  00aac	8b 08		 mov	 ecx, DWORD PTR [eax]
  00aae	51		 push	 ecx
  00aaf	b9 00 00 00 00	 mov	 ecx, OFFSET ?gObjUseSkill@@3VCObjUseSkill@@A ; gObjUseSkill
  00ab4	e8 00 00 00 00	 call	 ?RemoveCloakingEffect@CObjUseSkill@@QAEHH@Z ; CObjUseSkill::RemoveCloakingEffect
$LN649@Attack:

; 512  : 	}
; 513  : 
; 514  : 	BOOL bDamageReflect = FALSE;

  00ab9	c7 45 ac 00 00
	00 00		 mov	 DWORD PTR _bDamageReflect$[ebp], 0

; 515  : 	
; 516  : 	if ( AttackDamage == 0 )

  00ac0	83 7d 1c 00	 cmp	 DWORD PTR _AttackDamage$[ebp], 0
  00ac4	0f 85 10 47 00
	00		 jne	 $LN648@Attack

; 517  : 	{
; 518  : 		if ( g_ShieldSystemOn == TRUE )

  00aca	83 3d 00 00 00
	00 01		 cmp	 DWORD PTR ?g_ShieldSystemOn@@3HA, 1 ; g_ShieldSystemOn
  00ad1	0f 85 81 00 00
	00		 jne	 $LN647@Attack

; 519  : 		{
; 520  : 			if ( lpObj->Type == OBJ_USER && lpTargetObj->Type == OBJ_USER )

  00ad7	8b 45 08	 mov	 eax, DWORD PTR _lpObj$[ebp]
  00ada	0f b7 48 68	 movzx	 ecx, WORD PTR [eax+104]
  00ade	83 f9 01	 cmp	 ecx, 1
  00ae1	75 3e		 jne	 SHORT $LN646@Attack
  00ae3	8b 45 0c	 mov	 eax, DWORD PTR _lpTargetObj$[ebp]
  00ae6	0f b7 48 68	 movzx	 ecx, WORD PTR [eax+104]
  00aea	83 f9 01	 cmp	 ecx, 1
  00aed	75 32		 jne	 SHORT $LN646@Attack

; 521  : 			{
; 522  : 				if ( !this->MissCheckPvP(lpObj, lpTargetObj, skill, skillSuccess, magicsend, bAllMiss,byBarrageCount) )

  00aef	0f b6 45 24	 movzx	 eax, BYTE PTR _byBarrageCount$[ebp]
  00af3	50		 push	 eax
  00af4	8d 4d b0	 lea	 ecx, DWORD PTR _bAllMiss$[ebp]
  00af7	51		 push	 ecx
  00af8	8b 55 14	 mov	 edx, DWORD PTR _magicsend$[ebp]
  00afb	52		 push	 edx
  00afc	8b 45 f4	 mov	 eax, DWORD PTR _skillSuccess$[ebp]
  00aff	50		 push	 eax
  00b00	8b 4d d8	 mov	 ecx, DWORD PTR _skill$[ebp]
  00b03	51		 push	 ecx
  00b04	8b 55 0c	 mov	 edx, DWORD PTR _lpTargetObj$[ebp]
  00b07	52		 push	 edx
  00b08	8b 45 08	 mov	 eax, DWORD PTR _lpObj$[ebp]
  00b0b	50		 push	 eax
  00b0c	8b 4d f8	 mov	 ecx, DWORD PTR _this$[ebp]
  00b0f	e8 00 00 00 00	 call	 ?MissCheckPvP@CObjBaseAttack@@QAEHPAUOBJECTSTRUCT@@0HHHAAHE@Z ; CObjBaseAttack::MissCheckPvP
  00b14	85 c0		 test	 eax, eax
  00b16	75 07		 jne	 SHORT $LN645@Attack

; 523  : 				{
; 524  : 					return FALSE;

  00b18	33 c0		 xor	 eax, eax
  00b1a	e9 d8 5e 00 00	 jmp	 $LN741@Attack
$LN645@Attack:

; 525  : 				}
; 526  : 			}

  00b1f	eb 35		 jmp	 SHORT $LN643@Attack
$LN646@Attack:

; 527  : 			else if ( !this->MissCheck(lpObj, lpTargetObj, skill, skillSuccess, magicsend, bAllMiss,byBarrageCount) )

  00b21	0f b6 45 24	 movzx	 eax, BYTE PTR _byBarrageCount$[ebp]
  00b25	50		 push	 eax
  00b26	8d 4d b0	 lea	 ecx, DWORD PTR _bAllMiss$[ebp]
  00b29	51		 push	 ecx
  00b2a	8b 55 14	 mov	 edx, DWORD PTR _magicsend$[ebp]
  00b2d	52		 push	 edx
  00b2e	8b 45 f4	 mov	 eax, DWORD PTR _skillSuccess$[ebp]
  00b31	50		 push	 eax
  00b32	8b 4d d8	 mov	 ecx, DWORD PTR _skill$[ebp]
  00b35	51		 push	 ecx
  00b36	8b 55 0c	 mov	 edx, DWORD PTR _lpTargetObj$[ebp]
  00b39	52		 push	 edx
  00b3a	8b 45 08	 mov	 eax, DWORD PTR _lpObj$[ebp]
  00b3d	50		 push	 eax
  00b3e	8b 4d f8	 mov	 ecx, DWORD PTR _this$[ebp]
  00b41	8b 11		 mov	 edx, DWORD PTR [ecx]
  00b43	8b 4d f8	 mov	 ecx, DWORD PTR _this$[ebp]
  00b46	8b 42 04	 mov	 eax, DWORD PTR [edx+4]
  00b49	ff d0		 call	 eax
  00b4b	85 c0		 test	 eax, eax
  00b4d	75 07		 jne	 SHORT $LN643@Attack

; 528  : 			{
; 529  : 				return FALSE;

  00b4f	33 c0		 xor	 eax, eax
  00b51	e9 a1 5e 00 00	 jmp	 $LN741@Attack
$LN643@Attack:

; 530  : 			}
; 531  : 
; 532  : 		}

  00b56	eb 35		 jmp	 SHORT $LN641@Attack
$LN647@Attack:

; 533  : 		else if ( !this->MissCheck(lpObj, lpTargetObj, skill, skillSuccess, magicsend, bAllMiss,byBarrageCount) )

  00b58	0f b6 45 24	 movzx	 eax, BYTE PTR _byBarrageCount$[ebp]
  00b5c	50		 push	 eax
  00b5d	8d 4d b0	 lea	 ecx, DWORD PTR _bAllMiss$[ebp]
  00b60	51		 push	 ecx
  00b61	8b 55 14	 mov	 edx, DWORD PTR _magicsend$[ebp]
  00b64	52		 push	 edx
  00b65	8b 45 f4	 mov	 eax, DWORD PTR _skillSuccess$[ebp]
  00b68	50		 push	 eax
  00b69	8b 4d d8	 mov	 ecx, DWORD PTR _skill$[ebp]
  00b6c	51		 push	 ecx
  00b6d	8b 55 0c	 mov	 edx, DWORD PTR _lpTargetObj$[ebp]
  00b70	52		 push	 edx
  00b71	8b 45 08	 mov	 eax, DWORD PTR _lpObj$[ebp]
  00b74	50		 push	 eax
  00b75	8b 4d f8	 mov	 ecx, DWORD PTR _this$[ebp]
  00b78	8b 11		 mov	 edx, DWORD PTR [ecx]
  00b7a	8b 4d f8	 mov	 ecx, DWORD PTR _this$[ebp]
  00b7d	8b 42 04	 mov	 eax, DWORD PTR [edx+4]
  00b80	ff d0		 call	 eax
  00b82	85 c0		 test	 eax, eax
  00b84	75 07		 jne	 SHORT $LN641@Attack

; 534  : 		{
; 535  : 			return FALSE;

  00b86	33 c0		 xor	 eax, eax
  00b88	e9 6a 5e 00 00	 jmp	 $LN741@Attack
$LN641@Attack:

; 536  : 		}
; 537  : 
; 538  : 		if ( ( skill == 51 || skill == 424 ) &&
; 539  : 			skillIceArrowSuccess == TRUE )

  00b8d	83 7d d8 33	 cmp	 DWORD PTR _skill$[ebp], 51 ; 00000033H
  00b91	74 0d		 je	 SHORT $LN639@Attack
  00b93	81 7d d8 a8 01
	00 00		 cmp	 DWORD PTR _skill$[ebp], 424 ; 000001a8H
  00b9a	0f 85 8e 00 00
	00		 jne	 $LN640@Attack
$LN639@Attack:
  00ba0	83 7d b4 01	 cmp	 DWORD PTR _skillIceArrowSuccess$[ebp], 1
  00ba4	0f 85 84 00 00
	00		 jne	 $LN640@Attack

; 540  : 		{
; 541  : 			gObjApplyBuffEffectDuration(lpTargetObj, AT_ICE_ARROW, 0, 0, 0, 0, 7);

  00baa	6a 07		 push	 7
  00bac	6a 00		 push	 0
  00bae	6a 00		 push	 0
  00bb0	6a 00		 push	 0
  00bb2	6a 00		 push	 0
  00bb4	6a 39		 push	 57			; 00000039H
  00bb6	8b 45 0c	 mov	 eax, DWORD PTR _lpTargetObj$[ebp]
  00bb9	50		 push	 eax
  00bba	e8 00 00 00 00	 call	 ?gObjApplyBuffEffectDuration@@YAEPAUOBJECTSTRUCT@@HEHEHH@Z ; gObjApplyBuffEffectDuration
  00bbf	83 c4 1c	 add	 esp, 28			; 0000001cH

; 542  : 			lpTargetObj->lpAttackObj = lpObj;

  00bc2	8b 45 0c	 mov	 eax, DWORD PTR _lpTargetObj$[ebp]
  00bc5	8b 4d 08	 mov	 ecx, DWORD PTR _lpObj$[ebp]
  00bc8	89 88 d4 03 00
	00		 mov	 DWORD PTR [eax+980], ecx

; 543  : 			lpTargetObj->PathCount = 0;

  00bce	8b 45 0c	 mov	 eax, DWORD PTR _lpTargetObj$[ebp]
  00bd1	c7 80 84 01 00
	00 00 00 00 00	 mov	 DWORD PTR [eax+388], 0

; 544  : 			lpTargetObj->PathStartEnd = 0;

  00bdb	8b 45 0c	 mov	 eax, DWORD PTR _lpTargetObj$[ebp]
  00bde	c6 80 8c 01 00
	00 00		 mov	 BYTE PTR [eax+396], 0

; 545  : 			skillSuccess = TRUE;

  00be5	c7 45 f4 01 00
	00 00		 mov	 DWORD PTR _skillSuccess$[ebp], 1

; 546  : 
; 547  : 			//double :|
; 548  : 			lpTargetObj->PathCount = 0;

  00bec	8b 45 0c	 mov	 eax, DWORD PTR _lpTargetObj$[ebp]
  00bef	c7 80 84 01 00
	00 00 00 00 00	 mov	 DWORD PTR [eax+388], 0

; 549  : 			lpTargetObj->PathStartEnd = 0;

  00bf9	8b 45 0c	 mov	 eax, DWORD PTR _lpTargetObj$[ebp]
  00bfc	c6 80 8c 01 00
	00 00		 mov	 BYTE PTR [eax+396], 0

; 550  : 			skillSuccess = TRUE;

  00c03	c7 45 f4 01 00
	00 00		 mov	 DWORD PTR _skillSuccess$[ebp], 1

; 551  : 
; 552  : 			gObjSetPosition(lpTargetObj->m_Index, lpTargetObj->X, lpTargetObj->Y);

  00c0a	8b 45 0c	 mov	 eax, DWORD PTR _lpTargetObj$[ebp]
  00c0d	0f bf 88 46 01
	00 00		 movsx	 ecx, WORD PTR [eax+326]
  00c14	51		 push	 ecx
  00c15	8b 55 0c	 mov	 edx, DWORD PTR _lpTargetObj$[ebp]
  00c18	0f bf 82 44 01
	00 00		 movsx	 eax, WORD PTR [edx+324]
  00c1f	50		 push	 eax
  00c20	8b 4d 0c	 mov	 ecx, DWORD PTR _lpTargetObj$[ebp]
  00c23	8b 11		 mov	 edx, DWORD PTR [ecx]
  00c25	52		 push	 edx
  00c26	e8 00 00 00 00	 call	 ?gObjSetPosition@@YAXHHH@Z ; gObjSetPosition
  00c2b	83 c4 0c	 add	 esp, 12			; 0000000cH
$LN640@Attack:

; 553  : 		}
; 554  : 
; 555  : 		int targetdefense = this->GetTargetDefense(lpObj, lpTargetObj, MsgDamage);

  00c2e	8d 45 eb	 lea	 eax, DWORD PTR _MsgDamage$[ebp]
  00c31	50		 push	 eax
  00c32	8b 4d 0c	 mov	 ecx, DWORD PTR _lpTargetObj$[ebp]
  00c35	51		 push	 ecx
  00c36	8b 55 08	 mov	 edx, DWORD PTR _lpObj$[ebp]
  00c39	52		 push	 edx
  00c3a	8b 4d f8	 mov	 ecx, DWORD PTR _this$[ebp]
  00c3d	e8 00 00 00 00	 call	 ?GetTargetDefense@CObjBaseAttack@@QAEHPAUOBJECTSTRUCT@@0AAE@Z ; CObjBaseAttack::GetTargetDefense
  00c42	89 45 a8	 mov	 DWORD PTR _targetdefense$240048[ebp], eax

; 556  : 
; 557  : 		//Season4 berserker add-on
; 558  : 		//if(gObjSearchActiveEffect(lpTargetObj, AT_BERSERKER) == 1)
; 559  : 		//{
; 560  : 
; 561  : 		//	//float BerserkerDex = (float)((lpTargetObj->Dexterity + lpTargetObj->AddDexterity) / 3);
; 562  : 		//	float BerserkerEffect = (float)gObjGetActiveEffect(lpTargetObj, 32);
; 563  : 
; 564  : 		//	//float loc24 = (((float)(40.0f) - (float)(BerserkerEffect))/100.0f);
; 565  : 
; 566  : 		//	//loc24 = (0.1f > loc24)?0.1f:loc24;
; 567  : 		//	//targetdefense -= (int)(BerserkerDex * loc24);
; 568  : 		//	//float fDefense = (lpTargetObj->Dexterity+lpTargetObj->AddDexterity)/3;
; 569  : 		//	//float fValue = (float)gObjGetTotalValueOfEffect(lpTargetObj, 32);
; 570  : 		//	//float fPercent = (40- (fValue+lpObj->m_MPSkillOpt.MpsBerserkInc1))/100;
; 571  : 
; 572  : 
; 573  : 		//	targetdefense -= ( targetdefense * ExConfig.Skills.Ex_BerserkerDex ) / 100;
; 574  : 		//}
; 575  : 
; 576  : 		if( gObjSearchActiveEffect(lpTargetObj,AT_BERSERKER) == TRUE)

  00c45	6a 51		 push	 81			; 00000051H
  00c47	8b 45 0c	 mov	 eax, DWORD PTR _lpTargetObj$[ebp]
  00c4a	50		 push	 eax
  00c4b	e8 00 00 00 00	 call	 ?gObjSearchActiveEffect@@YAEPAUOBJECTSTRUCT@@H@Z ; gObjSearchActiveEffect
  00c50	83 c4 08	 add	 esp, 8
  00c53	0f b6 c8	 movzx	 ecx, al
  00c56	83 f9 01	 cmp	 ecx, 1
  00c59	75 3d		 jne	 SHORT $LN638@Attack

; 577  : 		{
; 578  : 			//if(g_SkillAdditionInfo.BerserkerDefenceDivProcent)
; 579  : 			//float fDefense = (lpTargetObj->Dexterity+lpTargetObj->AddDexterity)/3;
; 580  : 			float fValue = (float)gObjGetActiveEffect(lpTargetObj, 32);

  00c5b	6a 20		 push	 32			; 00000020H
  00c5d	8b 45 0c	 mov	 eax, DWORD PTR _lpTargetObj$[ebp]
  00c60	50		 push	 eax
  00c61	e8 00 00 00 00	 call	 ?gObjGetActiveEffect@@YAHPAUOBJECTSTRUCT@@H@Z ; gObjGetActiveEffect
  00c66	83 c4 08	 add	 esp, 8
  00c69	89 85 c8 fc ff
	ff		 mov	 DWORD PTR tv5119[ebp], eax
  00c6f	db 85 c8 fc ff
	ff		 fild	 DWORD PTR tv5119[ebp]
  00c75	d9 5d a4	 fstp	 DWORD PTR _fValue$240050[ebp]

; 581  : 			//float fPercent = (40- (fValue+lpObj->m_MPSkillOpt.MpsBerserkInc1))/100;
; 582  : 			//fPercent = (0.1f > fPercent) ? 0.1f : fPercent;
; 583  : 			targetdefense -= ( targetdefense * g_SkillAdditionInfo.BerserkerDefenceDivProcent ) / 100;

  00c78	0f b7 05 ba 0b
	00 00		 movzx	 eax, WORD PTR ?g_SkillAdditionInfo@@3VCSkillAdditionInfo@@A+3002
  00c7f	0f af 45 a8	 imul	 eax, DWORD PTR _targetdefense$240048[ebp]
  00c83	99		 cdq
  00c84	b9 64 00 00 00	 mov	 ecx, 100		; 00000064H
  00c89	f7 f9		 idiv	 ecx
  00c8b	8b 55 a8	 mov	 edx, DWORD PTR _targetdefense$240048[ebp]
  00c8e	2b d0		 sub	 edx, eax
  00c90	89 55 a8	 mov	 DWORD PTR _targetdefense$240048[ebp], edx

; 584  : 		}
; 585  : 		else if (	gObjSearchActiveEffect(lpTargetObj,150) == TRUE ||

  00c93	e9 83 00 00 00	 jmp	 $LN636@Attack
$LN638@Attack:

; 586  : 					gObjSearchActiveEffect(lpTargetObj,151) == TRUE ||
; 587  : 					gObjSearchActiveEffect(lpTargetObj,152) == TRUE)

  00c98	68 96 00 00 00	 push	 150			; 00000096H
  00c9d	8b 45 0c	 mov	 eax, DWORD PTR _lpTargetObj$[ebp]
  00ca0	50		 push	 eax
  00ca1	e8 00 00 00 00	 call	 ?gObjSearchActiveEffect@@YAEPAUOBJECTSTRUCT@@H@Z ; gObjSearchActiveEffect
  00ca6	83 c4 08	 add	 esp, 8
  00ca9	0f b6 c8	 movzx	 ecx, al
  00cac	83 f9 01	 cmp	 ecx, 1
  00caf	74 32		 je	 SHORT $LN635@Attack
  00cb1	68 97 00 00 00	 push	 151			; 00000097H
  00cb6	8b 45 0c	 mov	 eax, DWORD PTR _lpTargetObj$[ebp]
  00cb9	50		 push	 eax
  00cba	e8 00 00 00 00	 call	 ?gObjSearchActiveEffect@@YAEPAUOBJECTSTRUCT@@H@Z ; gObjSearchActiveEffect
  00cbf	83 c4 08	 add	 esp, 8
  00cc2	0f b6 c8	 movzx	 ecx, al
  00cc5	83 f9 01	 cmp	 ecx, 1
  00cc8	74 19		 je	 SHORT $LN635@Attack
  00cca	68 98 00 00 00	 push	 152			; 00000098H
  00ccf	8b 45 0c	 mov	 eax, DWORD PTR _lpTargetObj$[ebp]
  00cd2	50		 push	 eax
  00cd3	e8 00 00 00 00	 call	 ?gObjSearchActiveEffect@@YAEPAUOBJECTSTRUCT@@H@Z ; gObjSearchActiveEffect
  00cd8	83 c4 08	 add	 esp, 8
  00cdb	0f b6 c8	 movzx	 ecx, al
  00cde	83 f9 01	 cmp	 ecx, 1
  00ce1	75 38		 jne	 SHORT $LN636@Attack
$LN635@Attack:

; 588  : 		{
; 589  : 			//float fDefense = (lpTargetObj->Dexterity+lpTargetObj->AddDexterity)/3;
; 590  : 			float fValue = (float)gObjGetActiveEffect(lpTargetObj, 32);

  00ce3	6a 20		 push	 32			; 00000020H
  00ce5	8b 45 0c	 mov	 eax, DWORD PTR _lpTargetObj$[ebp]
  00ce8	50		 push	 eax
  00ce9	e8 00 00 00 00	 call	 ?gObjGetActiveEffect@@YAHPAUOBJECTSTRUCT@@H@Z ; gObjGetActiveEffect
  00cee	83 c4 08	 add	 esp, 8
  00cf1	89 85 c8 fc ff
	ff		 mov	 DWORD PTR tv5135[ebp], eax
  00cf7	db 85 c8 fc ff
	ff		 fild	 DWORD PTR tv5135[ebp]
  00cfd	d9 5d a0	 fstp	 DWORD PTR _fValue$240055[ebp]

; 591  : 			//float fPercent = (40- (fValue+lpObj->m_MPSkillOpt.MpsBerserkInc1))/100;
; 592  : 			//fPercent = (0.1f > fPercent) ? 0.1f : fPercent;
; 593  : 			targetdefense -= ( targetdefense * g_SkillAdditionInfo.m_BerserkerDefenceDivProcent ) / 100;

  00d00	0f b7 05 c2 0c
	00 00		 movzx	 eax, WORD PTR ?g_SkillAdditionInfo@@3VCSkillAdditionInfo@@A+3266
  00d07	0f af 45 a8	 imul	 eax, DWORD PTR _targetdefense$240048[ebp]
  00d0b	99		 cdq
  00d0c	b9 64 00 00 00	 mov	 ecx, 100		; 00000064H
  00d11	f7 f9		 idiv	 ecx
  00d13	8b 55 a8	 mov	 edx, DWORD PTR _targetdefense$240048[ebp]
  00d16	2b d0		 sub	 edx, eax
  00d18	89 55 a8	 mov	 DWORD PTR _targetdefense$240048[ebp], edx
$LN636@Attack:

; 594  : 		}
; 595  : 
; 596  : 		int iInnovationValue = 0; //Reduce Target Defense

  00d1b	c7 45 9c 00 00
	00 00		 mov	 DWORD PTR _iInnovationValue$240057[ebp], 0

; 597  : 
; 598  : 		gObjUpdateAppliedBuffEffect(lpTargetObj, AT_INNOVATION, &iInnovationValue, 0);

  00d22	6a 00		 push	 0
  00d24	8d 45 9c	 lea	 eax, DWORD PTR _iInnovationValue$240057[ebp]
  00d27	50		 push	 eax
  00d28	6a 4d		 push	 77			; 0000004dH
  00d2a	8b 4d 0c	 mov	 ecx, DWORD PTR _lpTargetObj$[ebp]
  00d2d	51		 push	 ecx
  00d2e	e8 00 00 00 00	 call	 ?gObjUpdateAppliedBuffEffect@@YAEPAUOBJECTSTRUCT@@HPAH1@Z ; gObjUpdateAppliedBuffEffect
  00d33	83 c4 10	 add	 esp, 16			; 00000010H

; 599  : 
; 600  : 		if(iInnovationValue != 0)

  00d36	83 7d 9c 00	 cmp	 DWORD PTR _iInnovationValue$240057[ebp], 0
  00d3a	74 1b		 je	 SHORT $LN634@Attack

; 601  : 		{
; 602  : 			//int Ex_InnovationPower = GetPrivateProfileInt("Summoner","InnovationPower",30,"..\\Data\\ExData\\Skills.ini");
; 603  : 			targetdefense -= ( targetdefense * g_SkillAdditionInfo.InnovationMaxPower ) / 100;

  00d3c	0f b7 05 3a 0c
	00 00		 movzx	 eax, WORD PTR ?g_SkillAdditionInfo@@3VCSkillAdditionInfo@@A+3130
  00d43	0f af 45 a8	 imul	 eax, DWORD PTR _targetdefense$240048[ebp]
  00d47	99		 cdq
  00d48	b9 64 00 00 00	 mov	 ecx, 100		; 00000064H
  00d4d	f7 f9		 idiv	 ecx
  00d4f	8b 55 a8	 mov	 edx, DWORD PTR _targetdefense$240048[ebp]
  00d52	2b d0		 sub	 edx, eax
  00d54	89 55 a8	 mov	 DWORD PTR _targetdefense$240048[ebp], edx
$LN634@Attack:

; 604  : 		}
; 605  : 
; 606  : 		if ( skill == 19
; 607  : 			|| skill == 20
; 608  : 			|| skill == 21
; 609  : 			|| skill == 22
; 610  : 			|| skill == 23
; 611  : 			|| skill == 56
; 612  : 			|| skill == 41
; 613  : 			|| skill == 47
; 614  : 			|| skill == 42
; 615  : 			|| skill == 49
; 616  : 			|| skill == 43
; 617  : 			|| skill == 55
; 618  : 			|| skill == 44
; 619  : 			|| skill == 57
; 620  : 			|| skill == 74
; 621  : 			|| skill == 235
; 622  : 			|| skill == 232
; 623  : 			|| skill == 236
; 624  : 			|| skill == 238
; 625  : 			|| skill == 326
; 626  : 			|| skill == 327
; 627  : 			|| skill == 328
; 628  : 			|| skill == 329
; 629  : 			|| skill == 330
; 630  : 			|| skill == 331
; 631  : 			|| skill == 332
; 632  : 			|| skill == 333
; 633  : 			|| skill == 336
; 634  : 			|| skill == 339
; 635  : 			|| skill == 342
; 636  : 			|| skill == 337
; 637  : 			//case AT_MSKILL_DK_DESTRUCTION2:
; 638  : 			//case AT_MSKILL_DK_DESTRUCTION3:
; 639  : 			|| skill == 344
; 640  : 			|| skill == 346
; 641  : 			|| skill == 411
; 642  : 			|| skill == 431
; 643  : 			|| skill == 479
; 644  : 			|| skill == 481
; 645  : 			|| skill == 493
; 646  : 			//case AT_MSKILL_MG_FIRESLASH2:
; 647  : 			|| skill == 482
; 648  : 			|| skill == 492
; 649  : 			|| skill == 494
; 650  : 			)

  00d57	83 7d d8 13	 cmp	 DWORD PTR _skill$[ebp], 19 ; 00000013H
  00d5b	0f 84 a2 01 00
	00		 je	 $LN632@Attack
  00d61	83 7d d8 14	 cmp	 DWORD PTR _skill$[ebp], 20 ; 00000014H
  00d65	0f 84 98 01 00
	00		 je	 $LN632@Attack
  00d6b	83 7d d8 15	 cmp	 DWORD PTR _skill$[ebp], 21 ; 00000015H
  00d6f	0f 84 8e 01 00
	00		 je	 $LN632@Attack
  00d75	83 7d d8 16	 cmp	 DWORD PTR _skill$[ebp], 22 ; 00000016H
  00d79	0f 84 84 01 00
	00		 je	 $LN632@Attack
  00d7f	83 7d d8 17	 cmp	 DWORD PTR _skill$[ebp], 23 ; 00000017H
  00d83	0f 84 7a 01 00
	00		 je	 $LN632@Attack
  00d89	83 7d d8 38	 cmp	 DWORD PTR _skill$[ebp], 56 ; 00000038H
  00d8d	0f 84 70 01 00
	00		 je	 $LN632@Attack
  00d93	83 7d d8 29	 cmp	 DWORD PTR _skill$[ebp], 41 ; 00000029H
  00d97	0f 84 66 01 00
	00		 je	 $LN632@Attack
  00d9d	83 7d d8 2f	 cmp	 DWORD PTR _skill$[ebp], 47 ; 0000002fH
  00da1	0f 84 5c 01 00
	00		 je	 $LN632@Attack
  00da7	83 7d d8 2a	 cmp	 DWORD PTR _skill$[ebp], 42 ; 0000002aH
  00dab	0f 84 52 01 00
	00		 je	 $LN632@Attack
  00db1	83 7d d8 31	 cmp	 DWORD PTR _skill$[ebp], 49 ; 00000031H
  00db5	0f 84 48 01 00
	00		 je	 $LN632@Attack
  00dbb	83 7d d8 2b	 cmp	 DWORD PTR _skill$[ebp], 43 ; 0000002bH
  00dbf	0f 84 3e 01 00
	00		 je	 $LN632@Attack
  00dc5	83 7d d8 37	 cmp	 DWORD PTR _skill$[ebp], 55 ; 00000037H
  00dc9	0f 84 34 01 00
	00		 je	 $LN632@Attack
  00dcf	83 7d d8 2c	 cmp	 DWORD PTR _skill$[ebp], 44 ; 0000002cH
  00dd3	0f 84 2a 01 00
	00		 je	 $LN632@Attack
  00dd9	83 7d d8 39	 cmp	 DWORD PTR _skill$[ebp], 57 ; 00000039H
  00ddd	0f 84 20 01 00
	00		 je	 $LN632@Attack
  00de3	83 7d d8 4a	 cmp	 DWORD PTR _skill$[ebp], 74 ; 0000004aH
  00de7	0f 84 16 01 00
	00		 je	 $LN632@Attack
  00ded	81 7d d8 eb 00
	00 00		 cmp	 DWORD PTR _skill$[ebp], 235 ; 000000ebH
  00df4	0f 84 09 01 00
	00		 je	 $LN632@Attack
  00dfa	81 7d d8 e8 00
	00 00		 cmp	 DWORD PTR _skill$[ebp], 232 ; 000000e8H
  00e01	0f 84 fc 00 00
	00		 je	 $LN632@Attack
  00e07	81 7d d8 ec 00
	00 00		 cmp	 DWORD PTR _skill$[ebp], 236 ; 000000ecH
  00e0e	0f 84 ef 00 00
	00		 je	 $LN632@Attack
  00e14	81 7d d8 ee 00
	00 00		 cmp	 DWORD PTR _skill$[ebp], 238 ; 000000eeH
  00e1b	0f 84 e2 00 00
	00		 je	 $LN632@Attack
  00e21	81 7d d8 46 01
	00 00		 cmp	 DWORD PTR _skill$[ebp], 326 ; 00000146H
  00e28	0f 84 d5 00 00
	00		 je	 $LN632@Attack
  00e2e	81 7d d8 47 01
	00 00		 cmp	 DWORD PTR _skill$[ebp], 327 ; 00000147H
  00e35	0f 84 c8 00 00
	00		 je	 $LN632@Attack
  00e3b	81 7d d8 48 01
	00 00		 cmp	 DWORD PTR _skill$[ebp], 328 ; 00000148H
  00e42	0f 84 bb 00 00
	00		 je	 $LN632@Attack
  00e48	81 7d d8 49 01
	00 00		 cmp	 DWORD PTR _skill$[ebp], 329 ; 00000149H
  00e4f	0f 84 ae 00 00
	00		 je	 $LN632@Attack
  00e55	81 7d d8 4a 01
	00 00		 cmp	 DWORD PTR _skill$[ebp], 330 ; 0000014aH
  00e5c	0f 84 a1 00 00
	00		 je	 $LN632@Attack
  00e62	81 7d d8 4b 01
	00 00		 cmp	 DWORD PTR _skill$[ebp], 331 ; 0000014bH
  00e69	0f 84 94 00 00
	00		 je	 $LN632@Attack
  00e6f	81 7d d8 4c 01
	00 00		 cmp	 DWORD PTR _skill$[ebp], 332 ; 0000014cH
  00e76	0f 84 87 00 00
	00		 je	 $LN632@Attack
  00e7c	81 7d d8 4d 01
	00 00		 cmp	 DWORD PTR _skill$[ebp], 333 ; 0000014dH
  00e83	74 7e		 je	 SHORT $LN632@Attack
  00e85	81 7d d8 50 01
	00 00		 cmp	 DWORD PTR _skill$[ebp], 336 ; 00000150H
  00e8c	74 75		 je	 SHORT $LN632@Attack
  00e8e	81 7d d8 53 01
	00 00		 cmp	 DWORD PTR _skill$[ebp], 339 ; 00000153H
  00e95	74 6c		 je	 SHORT $LN632@Attack
  00e97	81 7d d8 56 01
	00 00		 cmp	 DWORD PTR _skill$[ebp], 342 ; 00000156H
  00e9e	74 63		 je	 SHORT $LN632@Attack
  00ea0	81 7d d8 51 01
	00 00		 cmp	 DWORD PTR _skill$[ebp], 337 ; 00000151H
  00ea7	74 5a		 je	 SHORT $LN632@Attack
  00ea9	81 7d d8 58 01
	00 00		 cmp	 DWORD PTR _skill$[ebp], 344 ; 00000158H
  00eb0	74 51		 je	 SHORT $LN632@Attack
  00eb2	81 7d d8 5a 01
	00 00		 cmp	 DWORD PTR _skill$[ebp], 346 ; 0000015aH
  00eb9	74 48		 je	 SHORT $LN632@Attack
  00ebb	81 7d d8 9b 01
	00 00		 cmp	 DWORD PTR _skill$[ebp], 411 ; 0000019bH
  00ec2	74 3f		 je	 SHORT $LN632@Attack
  00ec4	81 7d d8 af 01
	00 00		 cmp	 DWORD PTR _skill$[ebp], 431 ; 000001afH
  00ecb	74 36		 je	 SHORT $LN632@Attack
  00ecd	81 7d d8 df 01
	00 00		 cmp	 DWORD PTR _skill$[ebp], 479 ; 000001dfH
  00ed4	74 2d		 je	 SHORT $LN632@Attack
  00ed6	81 7d d8 e1 01
	00 00		 cmp	 DWORD PTR _skill$[ebp], 481 ; 000001e1H
  00edd	74 24		 je	 SHORT $LN632@Attack
  00edf	81 7d d8 ed 01
	00 00		 cmp	 DWORD PTR _skill$[ebp], 493 ; 000001edH
  00ee6	74 1b		 je	 SHORT $LN632@Attack
  00ee8	81 7d d8 e2 01
	00 00		 cmp	 DWORD PTR _skill$[ebp], 482 ; 000001e2H
  00eef	74 12		 je	 SHORT $LN632@Attack
  00ef1	81 7d d8 ec 01
	00 00		 cmp	 DWORD PTR _skill$[ebp], 492 ; 000001ecH
  00ef8	74 09		 je	 SHORT $LN632@Attack
  00efa	81 7d d8 ee 01
	00 00		 cmp	 DWORD PTR _skill$[ebp], 494 ; 000001eeH
  00f01	75 3c		 jne	 SHORT $LN633@Attack
$LN632@Attack:

; 651  : 		{
; 652  : 			AttackDamage = this->GetAttackDamage(lpObj, targetdefense, MsgDamage, bIsOnDuel, lpMagic);

  00f03	8b 45 10	 mov	 eax, DWORD PTR _lpMagic$[ebp]
  00f06	50		 push	 eax
  00f07	8b 4d b8	 mov	 ecx, DWORD PTR _bIsOnDuel$[ebp]
  00f0a	51		 push	 ecx
  00f0b	8d 55 eb	 lea	 edx, DWORD PTR _MsgDamage$[ebp]
  00f0e	52		 push	 edx
  00f0f	8b 45 a8	 mov	 eax, DWORD PTR _targetdefense$240048[ebp]
  00f12	50		 push	 eax
  00f13	8b 4d 08	 mov	 ecx, DWORD PTR _lpObj$[ebp]
  00f16	51		 push	 ecx
  00f17	8b 4d f8	 mov	 ecx, DWORD PTR _this$[ebp]
  00f1a	e8 00 00 00 00	 call	 ?GetAttackDamage@CObjAttack@@QAEHPAUOBJECTSTRUCT@@HAAEHPAVCMagicInf@@@Z ; CObjAttack::GetAttackDamage
  00f1f	89 45 1c	 mov	 DWORD PTR _AttackDamage$[ebp], eax

; 653  : 
; 654  : 			if ( AttackDamage > 0 )

  00f22	83 7d 1c 00	 cmp	 DWORD PTR _AttackDamage$[ebp], 0
  00f26	7e 12		 jle	 SHORT $LN631@Attack

; 655  : 			{
; 656  : 				gObjWeaponDurDown(lpObj, lpTargetObj, 0);

  00f28	6a 00		 push	 0
  00f2a	8b 45 0c	 mov	 eax, DWORD PTR _lpTargetObj$[ebp]
  00f2d	50		 push	 eax
  00f2e	8b 4d 08	 mov	 ecx, DWORD PTR _lpObj$[ebp]
  00f31	51		 push	 ecx
  00f32	e8 00 00 00 00	 call	 ?gObjWeaponDurDown@@YAXPAUOBJECTSTRUCT@@0H@Z ; gObjWeaponDurDown
  00f37	83 c4 0c	 add	 esp, 12			; 0000000cH
$LN631@Attack:

; 657  : 			}
; 658  : 		}

  00f3a	e9 36 04 00 00	 jmp	 $LN612@Attack
$LN633@Attack:

; 659  : 		else if ( skill == 76 )	// pluzzmanton

  00f3f	83 7d d8 4c	 cmp	 DWORD PTR _skill$[ebp], 76 ; 0000004cH
  00f43	0f 85 e6 02 00
	00		 jne	 $LN629@Attack

; 660  : 		{
; 661  : 			int iFenrirAttackDmg = 0;

  00f49	c7 45 98 00 00
	00 00		 mov	 DWORD PTR _iFenrirAttackDmg$240064[ebp], 0

; 662  : 
; 663  : 			if ( lpObj->Class == CLASS_KNIGHT || lpObj->Class == CLASS_MAGUMSA )

  00f50	8b 45 08	 mov	 eax, DWORD PTR _lpObj$[ebp]
  00f53	0f b7 88 b8 00
	00 00		 movzx	 ecx, WORD PTR [eax+184]
  00f5a	83 f9 01	 cmp	 ecx, 1
  00f5d	74 0f		 je	 SHORT $LN627@Attack
  00f5f	8b 45 08	 mov	 eax, DWORD PTR _lpObj$[ebp]
  00f62	0f b7 88 b8 00
	00 00		 movzx	 ecx, WORD PTR [eax+184]
  00f69	83 f9 03	 cmp	 ecx, 3
  00f6c	75 58		 jne	 SHORT $LN628@Attack
$LN627@Attack:

; 664  : 			{
; 665  : 				iFenrirAttackDmg = lpObj->Strength / 3 + lpObj->Dexterity / 5 + lpObj->Vitality / 5 + lpObj->Energy / 7;	// #formula

  00f6e	8b 45 08	 mov	 eax, DWORD PTR _lpObj$[ebp]
  00f71	0f b7 80 f4 00
	00 00		 movzx	 eax, WORD PTR [eax+244]
  00f78	99		 cdq
  00f79	b9 03 00 00 00	 mov	 ecx, 3
  00f7e	f7 f9		 idiv	 ecx
  00f80	8b c8		 mov	 ecx, eax
  00f82	8b 55 08	 mov	 edx, DWORD PTR _lpObj$[ebp]
  00f85	0f b7 82 f6 00
	00 00		 movzx	 eax, WORD PTR [edx+246]
  00f8c	99		 cdq
  00f8d	be 05 00 00 00	 mov	 esi, 5
  00f92	f7 fe		 idiv	 esi
  00f94	03 c8		 add	 ecx, eax
  00f96	8b 45 08	 mov	 eax, DWORD PTR _lpObj$[ebp]
  00f99	0f b7 80 f8 00
	00 00		 movzx	 eax, WORD PTR [eax+248]
  00fa0	99		 cdq
  00fa1	be 05 00 00 00	 mov	 esi, 5
  00fa6	f7 fe		 idiv	 esi
  00fa8	03 c8		 add	 ecx, eax
  00faa	8b 55 08	 mov	 edx, DWORD PTR _lpObj$[ebp]
  00fad	0f b7 82 fa 00
	00 00		 movzx	 eax, WORD PTR [edx+250]
  00fb4	99		 cdq
  00fb5	be 07 00 00 00	 mov	 esi, 7
  00fba	f7 fe		 idiv	 esi
  00fbc	03 c8		 add	 ecx, eax
  00fbe	89 4d 98	 mov	 DWORD PTR _iFenrirAttackDmg$240064[ebp], ecx
  00fc1	e9 31 01 00 00	 jmp	 $LN622@Attack
$LN628@Attack:

; 666  : 			}
; 667  : 			else if ( lpObj->Class == CLASS_WIZARD )

  00fc6	8b 45 08	 mov	 eax, DWORD PTR _lpObj$[ebp]
  00fc9	0f b7 88 b8 00
	00 00		 movzx	 ecx, WORD PTR [eax+184]
  00fd0	85 c9		 test	 ecx, ecx
  00fd2	75 58		 jne	 SHORT $LN625@Attack

; 668  : 			{
; 669  : 				iFenrirAttackDmg = lpObj->Strength / 5 + lpObj->Dexterity / 5 + lpObj->Vitality / 7 + lpObj->Energy / 3;	// #formula

  00fd4	8b 45 08	 mov	 eax, DWORD PTR _lpObj$[ebp]
  00fd7	0f b7 80 f4 00
	00 00		 movzx	 eax, WORD PTR [eax+244]
  00fde	99		 cdq
  00fdf	b9 05 00 00 00	 mov	 ecx, 5
  00fe4	f7 f9		 idiv	 ecx
  00fe6	8b c8		 mov	 ecx, eax
  00fe8	8b 55 08	 mov	 edx, DWORD PTR _lpObj$[ebp]
  00feb	0f b7 82 f6 00
	00 00		 movzx	 eax, WORD PTR [edx+246]
  00ff2	99		 cdq
  00ff3	be 05 00 00 00	 mov	 esi, 5
  00ff8	f7 fe		 idiv	 esi
  00ffa	03 c8		 add	 ecx, eax
  00ffc	8b 45 08	 mov	 eax, DWORD PTR _lpObj$[ebp]
  00fff	0f b7 80 f8 00
	00 00		 movzx	 eax, WORD PTR [eax+248]
  01006	99		 cdq
  01007	be 07 00 00 00	 mov	 esi, 7
  0100c	f7 fe		 idiv	 esi
  0100e	03 c8		 add	 ecx, eax
  01010	8b 55 08	 mov	 edx, DWORD PTR _lpObj$[ebp]
  01013	0f b7 82 fa 00
	00 00		 movzx	 eax, WORD PTR [edx+250]
  0101a	99		 cdq
  0101b	be 03 00 00 00	 mov	 esi, 3
  01020	f7 fe		 idiv	 esi
  01022	03 c8		 add	 ecx, eax
  01024	89 4d 98	 mov	 DWORD PTR _iFenrirAttackDmg$240064[ebp], ecx
  01027	e9 cb 00 00 00	 jmp	 $LN622@Attack
$LN625@Attack:

; 670  : 			}
; 671  : 			else if ( lpObj->Class == CLASS_ELF )

  0102c	8b 45 08	 mov	 eax, DWORD PTR _lpObj$[ebp]
  0102f	0f b7 88 b8 00
	00 00		 movzx	 ecx, WORD PTR [eax+184]
  01036	83 f9 02	 cmp	 ecx, 2
  01039	75 55		 jne	 SHORT $LN623@Attack

; 672  : 			{
; 673  : 				iFenrirAttackDmg = lpObj->Strength / 5 + lpObj->Dexterity / 3 + lpObj->Vitality / 7 + lpObj->Energy / 5;	// #formula

  0103b	8b 45 08	 mov	 eax, DWORD PTR _lpObj$[ebp]
  0103e	0f b7 80 f4 00
	00 00		 movzx	 eax, WORD PTR [eax+244]
  01045	99		 cdq
  01046	b9 05 00 00 00	 mov	 ecx, 5
  0104b	f7 f9		 idiv	 ecx
  0104d	8b c8		 mov	 ecx, eax
  0104f	8b 55 08	 mov	 edx, DWORD PTR _lpObj$[ebp]
  01052	0f b7 82 f6 00
	00 00		 movzx	 eax, WORD PTR [edx+246]
  01059	99		 cdq
  0105a	be 03 00 00 00	 mov	 esi, 3
  0105f	f7 fe		 idiv	 esi
  01061	03 c8		 add	 ecx, eax
  01063	8b 45 08	 mov	 eax, DWORD PTR _lpObj$[ebp]
  01066	0f b7 80 f8 00
	00 00		 movzx	 eax, WORD PTR [eax+248]
  0106d	99		 cdq
  0106e	be 07 00 00 00	 mov	 esi, 7
  01073	f7 fe		 idiv	 esi
  01075	03 c8		 add	 ecx, eax
  01077	8b 55 08	 mov	 edx, DWORD PTR _lpObj$[ebp]
  0107a	0f b7 82 fa 00
	00 00		 movzx	 eax, WORD PTR [edx+250]
  01081	99		 cdq
  01082	be 05 00 00 00	 mov	 esi, 5
  01087	f7 fe		 idiv	 esi
  01089	03 c8		 add	 ecx, eax
  0108b	89 4d 98	 mov	 DWORD PTR _iFenrirAttackDmg$240064[ebp], ecx

; 674  : 			}
; 675  : 			else	// Dark Lord

  0108e	eb 67		 jmp	 SHORT $LN622@Attack
$LN623@Attack:

; 676  : 			{
; 677  : 				iFenrirAttackDmg = lpObj->Strength / 5 + lpObj->Dexterity / 5 + lpObj->Vitality / 7 + lpObj->Energy / 3 + lpObj->Leadership / 3;	// #formula

  01090	8b 45 08	 mov	 eax, DWORD PTR _lpObj$[ebp]
  01093	0f b7 80 f4 00
	00 00		 movzx	 eax, WORD PTR [eax+244]
  0109a	99		 cdq
  0109b	b9 05 00 00 00	 mov	 ecx, 5
  010a0	f7 f9		 idiv	 ecx
  010a2	8b c8		 mov	 ecx, eax
  010a4	8b 55 08	 mov	 edx, DWORD PTR _lpObj$[ebp]
  010a7	0f b7 82 f6 00
	00 00		 movzx	 eax, WORD PTR [edx+246]
  010ae	99		 cdq
  010af	be 05 00 00 00	 mov	 esi, 5
  010b4	f7 fe		 idiv	 esi
  010b6	03 c8		 add	 ecx, eax
  010b8	8b 45 08	 mov	 eax, DWORD PTR _lpObj$[ebp]
  010bb	0f b7 80 f8 00
	00 00		 movzx	 eax, WORD PTR [eax+248]
  010c2	99		 cdq
  010c3	be 07 00 00 00	 mov	 esi, 7
  010c8	f7 fe		 idiv	 esi
  010ca	03 c8		 add	 ecx, eax
  010cc	8b 55 08	 mov	 edx, DWORD PTR _lpObj$[ebp]
  010cf	0f b7 82 fa 00
	00 00		 movzx	 eax, WORD PTR [edx+250]
  010d6	99		 cdq
  010d7	be 03 00 00 00	 mov	 esi, 3
  010dc	f7 fe		 idiv	 esi
  010de	03 c8		 add	 ecx, eax
  010e0	8b 45 08	 mov	 eax, DWORD PTR _lpObj$[ebp]
  010e3	0f b7 80 18 01
	00 00		 movzx	 eax, WORD PTR [eax+280]
  010ea	99		 cdq
  010eb	be 03 00 00 00	 mov	 esi, 3
  010f0	f7 fe		 idiv	 esi
  010f2	03 c8		 add	 ecx, eax
  010f4	89 4d 98	 mov	 DWORD PTR _iFenrirAttackDmg$240064[ebp], ecx
$LN622@Attack:

; 678  : 			}
; 679  : 
; 680  : 			if ( iFenrirAttackDmg < 0 )

  010f7	83 7d 98 00	 cmp	 DWORD PTR _iFenrirAttackDmg$240064[ebp], 0
  010fb	7d 07		 jge	 SHORT $LN621@Attack

; 681  : 			{
; 682  : 				iFenrirAttackDmg = 0;

  010fd	c7 45 98 00 00
	00 00		 mov	 DWORD PTR _iFenrirAttackDmg$240064[ebp], 0
$LN621@Attack:

; 683  : 			}
; 684  : 
; 685  : 			if ( lpObj->m_CriticalDamage > 0 )

  01104	8b 45 08	 mov	 eax, DWORD PTR _lpObj$[ebp]
  01107	83 b8 bc 04 00
	00 00		 cmp	 DWORD PTR [eax+1212], 0
  0110e	7e 1c		 jle	 SHORT $LN619@Attack

; 686  : 			{
; 687  : 				if ( (rand()%100) < lpObj->m_CriticalDamage )

  01110	e8 00 00 00 00	 call	 _rand
  01115	99		 cdq
  01116	b9 64 00 00 00	 mov	 ecx, 100		; 00000064H
  0111b	f7 f9		 idiv	 ecx
  0111d	8b 45 08	 mov	 eax, DWORD PTR _lpObj$[ebp]
  01120	3b 90 bc 04 00
	00		 cmp	 edx, DWORD PTR [eax+1212]
  01126	7d 04		 jge	 SHORT $LN619@Attack

; 688  : 				{
; 689  : 					MsgDamage = 3;

  01128	c6 45 eb 03	 mov	 BYTE PTR _MsgDamage$[ebp], 3
$LN619@Attack:

; 690  : 				}
; 691  : 			}
; 692  : 
; 693  : 			if ( lpObj->m_ExcelentDamage > 0 )

  0112c	8b 45 08	 mov	 eax, DWORD PTR _lpObj$[ebp]
  0112f	83 b8 c0 04 00
	00 00		 cmp	 DWORD PTR [eax+1216], 0
  01136	7e 1c		 jle	 SHORT $LN617@Attack

; 694  : 			{
; 695  : 				if ( (rand()%100) < lpObj->m_ExcelentDamage )

  01138	e8 00 00 00 00	 call	 _rand
  0113d	99		 cdq
  0113e	b9 64 00 00 00	 mov	 ecx, 100		; 00000064H
  01143	f7 f9		 idiv	 ecx
  01145	8b 45 08	 mov	 eax, DWORD PTR _lpObj$[ebp]
  01148	3b 90 c0 04 00
	00		 cmp	 edx, DWORD PTR [eax+1216]
  0114e	7d 04		 jge	 SHORT $LN617@Attack

; 696  : 				{
; 697  : 					MsgDamage = 2;

  01150	c6 45 eb 02	 mov	 BYTE PTR _MsgDamage$[ebp], 2
$LN617@Attack:

; 698  : 				}
; 699  : 			}
; 700  : 
; 701  : 			if ( MsgDamage == 3 )	// Critical Damage

  01154	0f b6 45 eb	 movzx	 eax, BYTE PTR _MsgDamage$[ebp]
  01158	83 f8 03	 cmp	 eax, 3
  0115b	75 5b		 jne	 SHORT $LN616@Attack

; 702  : 			{
; 703  : 				AttackDamage =  iFenrirAttackDmg + lpMagic->m_DamageMax;

  0115d	8b 45 10	 mov	 eax, DWORD PTR _lpMagic$[ebp]
  01160	8b 4d 98	 mov	 ecx, DWORD PTR _iFenrirAttackDmg$240064[ebp]
  01163	03 48 10	 add	 ecx, DWORD PTR [eax+16]
  01166	89 4d 1c	 mov	 DWORD PTR _AttackDamage$[ebp], ecx

; 704  : 				AttackDamage += lpObj->SetOpAddCriticalDamage;

  01169	8b 45 08	 mov	 eax, DWORD PTR _lpObj$[ebp]
  0116c	0f bf 88 2a 11
	00 00		 movsx	 ecx, WORD PTR [eax+4394]
  01173	03 4d 1c	 add	 ecx, DWORD PTR _AttackDamage$[ebp]
  01176	89 4d 1c	 mov	 DWORD PTR _AttackDamage$[ebp], ecx

; 705  : 
; 706  : 				int iCriticalDamageValue = 0;

  01179	c7 45 94 00 00
	00 00		 mov	 DWORD PTR _iCriticalDamageValue$240094[ebp], 0

; 707  : 				gObjUpdateAppliedBuffEffect(lpObj, AT_INCREASE_CRITICAL_DMG, &iCriticalDamageValue, 0);

  01180	6a 00		 push	 0
  01182	8d 45 94	 lea	 eax, DWORD PTR _iCriticalDamageValue$240094[ebp]
  01185	50		 push	 eax
  01186	6a 05		 push	 5
  01188	8b 4d 08	 mov	 ecx, DWORD PTR _lpObj$[ebp]
  0118b	51		 push	 ecx
  0118c	e8 00 00 00 00	 call	 ?gObjUpdateAppliedBuffEffect@@YAEPAUOBJECTSTRUCT@@HPAH1@Z ; gObjUpdateAppliedBuffEffect
  01191	83 c4 10	 add	 esp, 16			; 00000010H

; 708  : 
; 709  : 				AttackDamage += iCriticalDamageValue;

  01194	8b 45 1c	 mov	 eax, DWORD PTR _AttackDamage$[ebp]
  01197	03 45 94	 add	 eax, DWORD PTR _iCriticalDamageValue$240094[ebp]
  0119a	89 45 1c	 mov	 DWORD PTR _AttackDamage$[ebp], eax

; 710  : 				AttackDamage += lpObj->m_JewelOfHarmonyEffect.HJOpAddCriticalDamage;

  0119d	8b 45 08	 mov	 eax, DWORD PTR _lpObj$[ebp]
  011a0	0f bf 88 e2 1f
	00 00		 movsx	 ecx, WORD PTR [eax+8162]
  011a7	03 4d 1c	 add	 ecx, DWORD PTR _AttackDamage$[ebp]
  011aa	89 4d 1c	 mov	 DWORD PTR _AttackDamage$[ebp], ecx

; 711  : 				AttackDamage -= targetdefense;

  011ad	8b 45 1c	 mov	 eax, DWORD PTR _AttackDamage$[ebp]
  011b0	2b 45 a8	 sub	 eax, DWORD PTR _targetdefense$240048[ebp]
  011b3	89 45 1c	 mov	 DWORD PTR _AttackDamage$[ebp], eax
  011b6	eb 72		 jmp	 SHORT $LN613@Attack
$LN616@Attack:

; 712  : 			}
; 713  : 			else if ( MsgDamage == 2 )	// Excellent

  011b8	0f b6 45 eb	 movzx	 eax, BYTE PTR _MsgDamage$[ebp]
  011bc	83 f8 02	 cmp	 eax, 2
  011bf	75 3b		 jne	 SHORT $LN614@Attack

; 714  : 			{
; 715  : 				AttackDamage = iFenrirAttackDmg + lpMagic->m_DamageMax;

  011c1	8b 45 10	 mov	 eax, DWORD PTR _lpMagic$[ebp]
  011c4	8b 4d 98	 mov	 ecx, DWORD PTR _iFenrirAttackDmg$240064[ebp]
  011c7	03 48 10	 add	 ecx, DWORD PTR [eax+16]
  011ca	89 4d 1c	 mov	 DWORD PTR _AttackDamage$[ebp], ecx

; 716  : 				AttackDamage += AttackDamage * 20 / 100;

  011cd	8b 45 1c	 mov	 eax, DWORD PTR _AttackDamage$[ebp]
  011d0	6b c0 14	 imul	 eax, 20			; 00000014H
  011d3	99		 cdq
  011d4	b9 64 00 00 00	 mov	 ecx, 100		; 00000064H
  011d9	f7 f9		 idiv	 ecx
  011db	03 45 1c	 add	 eax, DWORD PTR _AttackDamage$[ebp]
  011de	89 45 1c	 mov	 DWORD PTR _AttackDamage$[ebp], eax

; 717  : 				AttackDamage += lpObj->SetOpAddExDamage;

  011e1	8b 45 08	 mov	 eax, DWORD PTR _lpObj$[ebp]
  011e4	0f bf 88 26 11
	00 00		 movsx	 ecx, WORD PTR [eax+4390]
  011eb	03 4d 1c	 add	 ecx, DWORD PTR _AttackDamage$[ebp]
  011ee	89 4d 1c	 mov	 DWORD PTR _AttackDamage$[ebp], ecx

; 718  : 				AttackDamage -= targetdefense;

  011f1	8b 45 1c	 mov	 eax, DWORD PTR _AttackDamage$[ebp]
  011f4	2b 45 a8	 sub	 eax, DWORD PTR _targetdefense$240048[ebp]
  011f7	89 45 1c	 mov	 DWORD PTR _AttackDamage$[ebp], eax

; 719  : 			}
; 720  : 			else

  011fa	eb 2e		 jmp	 SHORT $LN613@Attack
$LN614@Attack:

; 721  : 			{
; 722  : 				AttackDamage = (iFenrirAttackDmg + lpMagic->m_DamageMin) + (rand()%(lpMagic->m_DamageMax - lpMagic->m_DamageMin + 1));

  011fc	8b 45 10	 mov	 eax, DWORD PTR _lpMagic$[ebp]
  011ff	8b 75 98	 mov	 esi, DWORD PTR _iFenrirAttackDmg$240064[ebp]
  01202	03 70 0c	 add	 esi, DWORD PTR [eax+12]
  01205	e8 00 00 00 00	 call	 _rand
  0120a	8b 4d 10	 mov	 ecx, DWORD PTR _lpMagic$[ebp]
  0120d	8b 55 10	 mov	 edx, DWORD PTR _lpMagic$[ebp]
  01210	8b 49 10	 mov	 ecx, DWORD PTR [ecx+16]
  01213	2b 4a 0c	 sub	 ecx, DWORD PTR [edx+12]
  01216	83 c1 01	 add	 ecx, 1
  01219	99		 cdq
  0121a	f7 f9		 idiv	 ecx
  0121c	03 f2		 add	 esi, edx
  0121e	89 75 1c	 mov	 DWORD PTR _AttackDamage$[ebp], esi

; 723  : 				AttackDamage -= targetdefense;

  01221	8b 45 1c	 mov	 eax, DWORD PTR _AttackDamage$[ebp]
  01224	2b 45 a8	 sub	 eax, DWORD PTR _targetdefense$240048[ebp]
  01227	89 45 1c	 mov	 DWORD PTR _AttackDamage$[ebp], eax
$LN613@Attack:

; 724  : 			}
; 725  : 		}
; 726  : 		else

  0122a	e9 46 01 00 00	 jmp	 $LN612@Attack
$LN629@Attack:

; 727  : 		{
; 728  : 			
; 729  : 			if ( ( lpObj->Class == CLASS_WIZARD || lpObj->Class == CLASS_MAGUMSA ) && skill )

  0122f	8b 45 08	 mov	 eax, DWORD PTR _lpObj$[ebp]
  01232	0f b7 88 b8 00
	00 00		 movzx	 ecx, WORD PTR [eax+184]
  01239	85 c9		 test	 ecx, ecx
  0123b	74 0f		 je	 SHORT $LN610@Attack
  0123d	8b 45 08	 mov	 eax, DWORD PTR _lpObj$[ebp]
  01240	0f b7 88 b8 00
	00 00		 movzx	 ecx, WORD PTR [eax+184]
  01247	83 f9 03	 cmp	 ecx, 3
  0124a	75 42		 jne	 SHORT $LN611@Attack
$LN610@Attack:
  0124c	83 7d d8 00	 cmp	 DWORD PTR _skill$[ebp], 0
  01250	74 3c		 je	 SHORT $LN611@Attack

; 730  : 			{
; 731  : 				AttackDamage = this->GetAttackDamageWizard(lpObj, targetdefense, lpMagic, MsgDamage, bIsOnDuel);

  01252	8b 45 b8	 mov	 eax, DWORD PTR _bIsOnDuel$[ebp]
  01255	50		 push	 eax
  01256	8d 4d eb	 lea	 ecx, DWORD PTR _MsgDamage$[ebp]
  01259	51		 push	 ecx
  0125a	8b 55 10	 mov	 edx, DWORD PTR _lpMagic$[ebp]
  0125d	52		 push	 edx
  0125e	8b 45 a8	 mov	 eax, DWORD PTR _targetdefense$240048[ebp]
  01261	50		 push	 eax
  01262	8b 4d 08	 mov	 ecx, DWORD PTR _lpObj$[ebp]
  01265	51		 push	 ecx
  01266	8b 4d f8	 mov	 ecx, DWORD PTR _this$[ebp]
  01269	e8 00 00 00 00	 call	 ?GetAttackDamageWizard@CObjAttack@@QAEHPAUOBJECTSTRUCT@@HPAVCMagicInf@@AAEH@Z ; CObjAttack::GetAttackDamageWizard
  0126e	89 45 1c	 mov	 DWORD PTR _AttackDamage$[ebp], eax

; 732  : 
; 733  : 				if ( AttackDamage > 0 )

  01271	83 7d 1c 00	 cmp	 DWORD PTR _AttackDamage$[ebp], 0
  01275	7e 12		 jle	 SHORT $LN609@Attack

; 734  : 				{
; 735  : 					gObjWeaponDurDown(lpObj, lpTargetObj, 1);

  01277	6a 01		 push	 1
  01279	8b 45 0c	 mov	 eax, DWORD PTR _lpTargetObj$[ebp]
  0127c	50		 push	 eax
  0127d	8b 4d 08	 mov	 ecx, DWORD PTR _lpObj$[ebp]
  01280	51		 push	 ecx
  01281	e8 00 00 00 00	 call	 ?gObjWeaponDurDown@@YAXPAUOBJECTSTRUCT@@0H@Z ; gObjWeaponDurDown
  01286	83 c4 0c	 add	 esp, 12			; 0000000cH
$LN609@Attack:

; 736  : 				}
; 737  : 			}

  01289	e9 cd 00 00 00	 jmp	 $LN601@Attack
$LN611@Attack:

; 738  : 			else if ( lpObj->Class == CLASS_SUMMONER && skill ) //Summoner

  0128e	8b 45 08	 mov	 eax, DWORD PTR _lpObj$[ebp]
  01291	0f b7 88 b8 00
	00 00		 movzx	 ecx, WORD PTR [eax+184]
  01298	83 f9 05	 cmp	 ecx, 5
  0129b	75 3f		 jne	 SHORT $LN607@Attack
  0129d	83 7d d8 00	 cmp	 DWORD PTR _skill$[ebp], 0
  012a1	74 39		 je	 SHORT $LN607@Attack

; 739  : 			{
; 740  : 				AttackDamage = this->GetAttackDamageSummoner(lpObj, targetdefense, lpMagic, MsgDamage, bIsOnDuel);

  012a3	8b 45 b8	 mov	 eax, DWORD PTR _bIsOnDuel$[ebp]
  012a6	50		 push	 eax
  012a7	8d 4d eb	 lea	 ecx, DWORD PTR _MsgDamage$[ebp]
  012aa	51		 push	 ecx
  012ab	8b 55 10	 mov	 edx, DWORD PTR _lpMagic$[ebp]
  012ae	52		 push	 edx
  012af	8b 45 a8	 mov	 eax, DWORD PTR _targetdefense$240048[ebp]
  012b2	50		 push	 eax
  012b3	8b 4d 08	 mov	 ecx, DWORD PTR _lpObj$[ebp]
  012b6	51		 push	 ecx
  012b7	8b 4d f8	 mov	 ecx, DWORD PTR _this$[ebp]
  012ba	e8 00 00 00 00	 call	 ?GetAttackDamageSummoner@CObjAttack@@QAEHPAUOBJECTSTRUCT@@HPAVCMagicInf@@AAEH@Z ; CObjAttack::GetAttackDamageSummoner
  012bf	89 45 1c	 mov	 DWORD PTR _AttackDamage$[ebp], eax

; 741  : 
; 742  : 				if ( AttackDamage > 0 )

  012c2	83 7d 1c 00	 cmp	 DWORD PTR _AttackDamage$[ebp], 0
  012c6	7e 12		 jle	 SHORT $LN606@Attack

; 743  : 				{
; 744  : 					gObjWeaponDurDown(lpObj, lpTargetObj, 1);

  012c8	6a 01		 push	 1
  012ca	8b 45 0c	 mov	 eax, DWORD PTR _lpTargetObj$[ebp]
  012cd	50		 push	 eax
  012ce	8b 4d 08	 mov	 ecx, DWORD PTR _lpObj$[ebp]
  012d1	51		 push	 ecx
  012d2	e8 00 00 00 00	 call	 ?gObjWeaponDurDown@@YAXPAUOBJECTSTRUCT@@0H@Z ; gObjWeaponDurDown
  012d7	83 c4 0c	 add	 esp, 12			; 0000000cH
$LN606@Attack:

; 745  : 				}
; 746  : 			}

  012da	eb 7f		 jmp	 SHORT $LN601@Attack
$LN607@Attack:

; 747  : #ifdef MONK
; 748  : 			else if( lpObj->Class == CLASS_MONK )

  012dc	8b 45 08	 mov	 eax, DWORD PTR _lpObj$[ebp]
  012df	0f b7 88 b8 00
	00 00		 movzx	 ecx, WORD PTR [eax+184]
  012e6	83 f9 06	 cmp	 ecx, 6
  012e9	75 39		 jne	 SHORT $LN604@Attack

; 749  : 			{
; 750  : 				AttackDamage = GetAttackDamage(lpObj, targetdefense, MsgDamage, bIsOnDuel, lpMagic);

  012eb	8b 45 10	 mov	 eax, DWORD PTR _lpMagic$[ebp]
  012ee	50		 push	 eax
  012ef	8b 4d b8	 mov	 ecx, DWORD PTR _bIsOnDuel$[ebp]
  012f2	51		 push	 ecx
  012f3	8d 55 eb	 lea	 edx, DWORD PTR _MsgDamage$[ebp]
  012f6	52		 push	 edx
  012f7	8b 45 a8	 mov	 eax, DWORD PTR _targetdefense$240048[ebp]
  012fa	50		 push	 eax
  012fb	8b 4d 08	 mov	 ecx, DWORD PTR _lpObj$[ebp]
  012fe	51		 push	 ecx
  012ff	8b 4d f8	 mov	 ecx, DWORD PTR _this$[ebp]
  01302	e8 00 00 00 00	 call	 ?GetAttackDamage@CObjAttack@@QAEHPAUOBJECTSTRUCT@@HAAEHPAVCMagicInf@@@Z ; CObjAttack::GetAttackDamage
  01307	89 45 1c	 mov	 DWORD PTR _AttackDamage$[ebp], eax

; 751  : 	
; 752  : 				if ( AttackDamage > 0 )

  0130a	83 7d 1c 00	 cmp	 DWORD PTR _AttackDamage$[ebp], 0
  0130e	7e 12		 jle	 SHORT $LN603@Attack

; 753  : 				{
; 754  : 					gObjWeaponDurDown(lpObj, lpTargetObj, 0);

  01310	6a 00		 push	 0
  01312	8b 45 0c	 mov	 eax, DWORD PTR _lpTargetObj$[ebp]
  01315	50		 push	 eax
  01316	8b 4d 08	 mov	 ecx, DWORD PTR _lpObj$[ebp]
  01319	51		 push	 ecx
  0131a	e8 00 00 00 00	 call	 ?gObjWeaponDurDown@@YAXPAUOBJECTSTRUCT@@0H@Z ; gObjWeaponDurDown
  0131f	83 c4 0c	 add	 esp, 12			; 0000000cH
$LN603@Attack:

; 755  : 				}
; 756  : 			}
; 757  : #endif
; 758  : 			else

  01322	eb 37		 jmp	 SHORT $LN601@Attack
$LN604@Attack:

; 759  : 			{
; 760  : 				AttackDamage = this->GetAttackDamage(lpObj, targetdefense, MsgDamage, bIsOnDuel, lpMagic);

  01324	8b 45 10	 mov	 eax, DWORD PTR _lpMagic$[ebp]
  01327	50		 push	 eax
  01328	8b 4d b8	 mov	 ecx, DWORD PTR _bIsOnDuel$[ebp]
  0132b	51		 push	 ecx
  0132c	8d 55 eb	 lea	 edx, DWORD PTR _MsgDamage$[ebp]
  0132f	52		 push	 edx
  01330	8b 45 a8	 mov	 eax, DWORD PTR _targetdefense$240048[ebp]
  01333	50		 push	 eax
  01334	8b 4d 08	 mov	 ecx, DWORD PTR _lpObj$[ebp]
  01337	51		 push	 ecx
  01338	8b 4d f8	 mov	 ecx, DWORD PTR _this$[ebp]
  0133b	e8 00 00 00 00	 call	 ?GetAttackDamage@CObjAttack@@QAEHPAUOBJECTSTRUCT@@HAAEHPAVCMagicInf@@@Z ; CObjAttack::GetAttackDamage
  01340	89 45 1c	 mov	 DWORD PTR _AttackDamage$[ebp], eax

; 761  : 
; 762  : 				if ( AttackDamage > 0 )

  01343	83 7d 1c 00	 cmp	 DWORD PTR _AttackDamage$[ebp], 0
  01347	7e 12		 jle	 SHORT $LN601@Attack

; 763  : 				{
; 764  : 					gObjWeaponDurDown(lpObj, lpTargetObj, 0);

  01349	6a 00		 push	 0
  0134b	8b 45 0c	 mov	 eax, DWORD PTR _lpTargetObj$[ebp]
  0134e	50		 push	 eax
  0134f	8b 4d 08	 mov	 ecx, DWORD PTR _lpObj$[ebp]
  01352	51		 push	 ecx
  01353	e8 00 00 00 00	 call	 ?gObjWeaponDurDown@@YAXPAUOBJECTSTRUCT@@0H@Z ; gObjWeaponDurDown
  01358	83 c4 0c	 add	 esp, 12			; 0000000cH
$LN601@Attack:

; 765  : 				}
; 766  : 			}
; 767  : #if(CUSTOM_MONSTER_EX==TRUE)
; 768  : 			g_MonsterEx.AttackMonster(lpTargetObj->m_Index, lpObj->m_Index, AttackDamage);

  0135b	8d 45 1c	 lea	 eax, DWORD PTR _AttackDamage$[ebp]
  0135e	50		 push	 eax
  0135f	8b 4d 08	 mov	 ecx, DWORD PTR _lpObj$[ebp]
  01362	8b 11		 mov	 edx, DWORD PTR [ecx]
  01364	52		 push	 edx
  01365	8b 45 0c	 mov	 eax, DWORD PTR _lpTargetObj$[ebp]
  01368	8b 08		 mov	 ecx, DWORD PTR [eax]
  0136a	51		 push	 ecx
  0136b	b9 00 00 00 00	 mov	 ecx, OFFSET ?g_MonsterEx@@3VMonsterEx@@A ; g_MonsterEx
  01370	e8 00 00 00 00	 call	 ?AttackMonster@MonsterEx@@QAEXHHAAH@Z ; MonsterEx::AttackMonster
$LN612@Attack:

; 769  : #endif
; 770  : 		}
; 771  : 
; 772  : 		int iCShopScrollBuffID = -1;

  01375	c7 45 90 ff ff
	ff ff		 mov	 DWORD PTR _iCShopScrollBuffID$240110[ebp], -1

; 773  : 	
; 774  : 		switch(MsgDamage)

  0137c	8a 45 eb	 mov	 al, BYTE PTR _MsgDamage$[ebp]
  0137f	88 85 c8 fc ff
	ff		 mov	 BYTE PTR tv955[ebp], al
  01385	80 bd c8 fc ff
	ff 02		 cmp	 BYTE PTR tv955[ebp], 2
  0138c	74 14		 je	 SHORT $LN597@Attack
  0138e	80 bd c8 fc ff
	ff 03		 cmp	 BYTE PTR tv955[ebp], 3
  01395	74 02		 je	 SHORT $LN598@Attack
  01397	eb 12		 jmp	 SHORT $LN596@Attack
$LN598@Attack:

; 775  : 		{
; 776  : 		case 3:		iCShopScrollBuffID = 89;	break; //CashShop Scroll of Battle

  01399	c7 45 90 59 00
	00 00		 mov	 DWORD PTR _iCShopScrollBuffID$240110[ebp], 89 ; 00000059H
  013a0	eb 10		 jmp	 SHORT $LN599@Attack
$LN597@Attack:

; 777  : 		case 2:		iCShopScrollBuffID = 90;	break; //CashShop Scroll of Strengthener

  013a2	c7 45 90 5a 00
	00 00		 mov	 DWORD PTR _iCShopScrollBuffID$240110[ebp], 90 ; 0000005aH
  013a9	eb 07		 jmp	 SHORT $LN599@Attack
$LN596@Attack:

; 778  : 		default:	iCShopScrollBuffID = -1;	break; //CashShop Scroll Disabled

  013ab	c7 45 90 ff ff
	ff ff		 mov	 DWORD PTR _iCShopScrollBuffID$240110[ebp], -1
$LN599@Attack:

; 779  : 		}
; 780  : 		
; 781  : 		int iCShopScrollBuffDmgValue = 0;

  013b2	c7 45 8c 00 00
	00 00		 mov	 DWORD PTR _iCShopScrollBuffDmgValue$240118[ebp], 0

; 782  : 		int iCShopScrollBuffDmgBefore = AttackDamage;

  013b9	8b 45 1c	 mov	 eax, DWORD PTR _AttackDamage$[ebp]
  013bc	89 45 88	 mov	 DWORD PTR _iCShopScrollBuffDmgBefore$240119[ebp], eax

; 783  : 
; 784  : 		if(iCShopScrollBuffID > -1)

  013bf	83 7d 90 ff	 cmp	 DWORD PTR _iCShopScrollBuffID$240110[ebp], -1
  013c3	7e 31		 jle	 SHORT $LN594@Attack

; 785  : 		{
; 786  : 			gObjUpdateAppliedBuffEffect(lpObj, iCShopScrollBuffID, &iCShopScrollBuffDmgValue, 0); //CashShop Scroll of Battle and Strengthener

  013c5	6a 00		 push	 0
  013c7	8d 45 8c	 lea	 eax, DWORD PTR _iCShopScrollBuffDmgValue$240118[ebp]
  013ca	50		 push	 eax
  013cb	8b 4d 90	 mov	 ecx, DWORD PTR _iCShopScrollBuffID$240110[ebp]
  013ce	51		 push	 ecx
  013cf	8b 55 08	 mov	 edx, DWORD PTR _lpObj$[ebp]
  013d2	52		 push	 edx
  013d3	e8 00 00 00 00	 call	 ?gObjUpdateAppliedBuffEffect@@YAEPAUOBJECTSTRUCT@@HPAH1@Z ; gObjUpdateAppliedBuffEffect
  013d8	83 c4 10	 add	 esp, 16			; 00000010H

; 787  : 
; 788  : 			if(iCShopScrollBuffDmgValue > 0)

  013db	83 7d 8c 00	 cmp	 DWORD PTR _iCShopScrollBuffDmgValue$240118[ebp], 0
  013df	7e 15		 jle	 SHORT $LN594@Attack

; 789  : 			{
; 790  : 				AttackDamage += AttackDamage * iCShopScrollBuffDmgValue / 100;

  013e1	8b 45 1c	 mov	 eax, DWORD PTR _AttackDamage$[ebp]
  013e4	0f af 45 8c	 imul	 eax, DWORD PTR _iCShopScrollBuffDmgValue$240118[ebp]
  013e8	99		 cdq
  013e9	b9 64 00 00 00	 mov	 ecx, 100		; 00000064H
  013ee	f7 f9		 idiv	 ecx
  013f0	03 45 1c	 add	 eax, DWORD PTR _AttackDamage$[ebp]
  013f3	89 45 1c	 mov	 DWORD PTR _AttackDamage$[ebp], eax
$LN594@Attack:

; 791  : 			}
; 792  : 		}
; 793  : 		
; 794  : 		if(g_bAbilityDebug == 1 && (MsgDamage == 3 || MsgDamage == 2)) //Season 3 Add-on for Ability Debug

  013f6	83 3d 00 00 00
	00 01		 cmp	 DWORD PTR ?g_bAbilityDebug@@3HA, 1 ; g_bAbilityDebug
  013fd	75 6b		 jne	 SHORT $LN593@Attack
  013ff	0f b6 45 eb	 movzx	 eax, BYTE PTR _MsgDamage$[ebp]
  01403	83 f8 03	 cmp	 eax, 3
  01406	74 09		 je	 SHORT $LN592@Attack
  01408	0f b6 45 eb	 movzx	 eax, BYTE PTR _MsgDamage$[ebp]
  0140c	83 f8 02	 cmp	 eax, 2
  0140f	75 59		 jne	 SHORT $LN593@Attack
$LN592@Attack:

; 795  : 		{
; 796  : 			char szTemp[256];
; 797  : 			sprintf(szTemp, "%s AttackDamage: %d %d", (MsgDamage == 3) ? "CRITICAL" : "EXCELLENT", iCShopScrollBuffDmgBefore, AttackDamage);

  01411	0f b6 45 eb	 movzx	 eax, BYTE PTR _MsgDamage$[ebp]
  01415	83 f8 03	 cmp	 eax, 3
  01418	75 0c		 jne	 SHORT $LN749@Attack
  0141a	c7 85 c8 fc ff
	ff 00 00 00 00	 mov	 DWORD PTR tv1011[ebp], OFFSET ??_C@_08FOLAHAHG@CRITICAL?$AA@
  01424	eb 0a		 jmp	 SHORT $LN750@Attack
$LN749@Attack:
  01426	c7 85 c8 fc ff
	ff 00 00 00 00	 mov	 DWORD PTR tv1011[ebp], OFFSET ??_C@_09PBMNMIBJ@EXCELLENT?$AA@
$LN750@Attack:
  01430	8b 4d 1c	 mov	 ecx, DWORD PTR _AttackDamage$[ebp]
  01433	51		 push	 ecx
  01434	8b 55 88	 mov	 edx, DWORD PTR _iCShopScrollBuffDmgBefore$240119[ebp]
  01437	52		 push	 edx
  01438	8b 85 c8 fc ff
	ff		 mov	 eax, DWORD PTR tv1011[ebp]
  0143e	50		 push	 eax
  0143f	68 00 00 00 00	 push	 OFFSET ??_C@_0BH@NMKEOPCM@?$CFs?5AttackDamage?3?5?$CFd?5?$CFd?$AA@
  01444	8d 8d 88 fe ff
	ff		 lea	 ecx, DWORD PTR _szTemp$240124[ebp]
  0144a	51		 push	 ecx
  0144b	e8 00 00 00 00	 call	 _sprintf
  01450	83 c4 14	 add	 esp, 20			; 00000014H

; 798  : 			GCServerMsgStringSend(szTemp, lpObj->m_Index, 1);

  01453	6a 01		 push	 1
  01455	8b 45 08	 mov	 eax, DWORD PTR _lpObj$[ebp]
  01458	8b 08		 mov	 ecx, DWORD PTR [eax]
  0145a	51		 push	 ecx
  0145b	8d 95 88 fe ff
	ff		 lea	 edx, DWORD PTR _szTemp$240124[ebp]
  01461	52		 push	 edx
  01462	e8 00 00 00 00	 call	 ?GCServerMsgStringSend@@YAXPADHE@Z ; GCServerMsgStringSend
  01467	83 c4 0c	 add	 esp, 12			; 0000000cH
$LN593@Attack:

; 799  : 		}
; 800  : 
; 801  : 		if ( bAllMiss )

  0146a	83 7d b0 00	 cmp	 DWORD PTR _bAllMiss$[ebp], 0
  0146e	74 11		 je	 SHORT $LN591@Attack

; 802  : 		{
; 803  : 			AttackDamage = ( AttackDamage * 30 ) / 100;

  01470	8b 45 1c	 mov	 eax, DWORD PTR _AttackDamage$[ebp]
  01473	6b c0 1e	 imul	 eax, 30			; 0000001eH
  01476	99		 cdq
  01477	b9 64 00 00 00	 mov	 ecx, 100		; 00000064H
  0147c	f7 f9		 idiv	 ecx
  0147e	89 45 1c	 mov	 DWORD PTR _AttackDamage$[ebp], eax
$LN591@Attack:

; 804  : 		}
; 805  : 
; 806  : 		if ( lpTargetObj->DamageMinus )

  01481	8b 45 0c	 mov	 eax, DWORD PTR _lpTargetObj$[ebp]
  01484	0f b6 88 70 01
	00 00		 movzx	 ecx, BYTE PTR [eax+368]
  0148b	85 c9		 test	 ecx, ecx
  0148d	74 29		 je	 SHORT $LN590@Attack

; 807  : 		{
; 808  : 			int beforeDamage = AttackDamage;

  0148f	8b 45 1c	 mov	 eax, DWORD PTR _AttackDamage$[ebp]
  01492	89 85 84 fe ff
	ff		 mov	 DWORD PTR _beforeDamage$240130[ebp], eax

; 809  : 			AttackDamage -= ( ( AttackDamage * (int)lpTargetObj->DamageMinus) / 100 );

  01498	8b 45 0c	 mov	 eax, DWORD PTR _lpTargetObj$[ebp]
  0149b	0f b6 88 70 01
	00 00		 movzx	 ecx, BYTE PTR [eax+368]
  014a2	8b c1		 mov	 eax, ecx
  014a4	0f af 45 1c	 imul	 eax, DWORD PTR _AttackDamage$[ebp]
  014a8	99		 cdq
  014a9	b9 64 00 00 00	 mov	 ecx, 100		; 00000064H
  014ae	f7 f9		 idiv	 ecx
  014b0	8b 55 1c	 mov	 edx, DWORD PTR _AttackDamage$[ebp]
  014b3	2b d0		 sub	 edx, eax
  014b5	89 55 1c	 mov	 DWORD PTR _AttackDamage$[ebp], edx
$LN590@Attack:

; 810  : 		}
; 811  : 
; 812  : 		int tlevel = (lpObj->Level + lpObj->MLevel) / 10; //s3 addon

  014b8	8b 45 08	 mov	 eax, DWORD PTR _lpObj$[ebp]
  014bb	0f bf 80 be 00
	00 00		 movsx	 eax, WORD PTR [eax+190]
  014c2	8b 4d 08	 mov	 ecx, DWORD PTR _lpObj$[ebp]
  014c5	0f bf 91 d0 00
	00 00		 movsx	 edx, WORD PTR [ecx+208]
  014cc	03 c2		 add	 eax, edx
  014ce	99		 cdq
  014cf	b9 0a 00 00 00	 mov	 ecx, 10			; 0000000aH
  014d4	f7 f9		 idiv	 ecx
  014d6	89 85 80 fe ff
	ff		 mov	 DWORD PTR _tlevel$240132[ebp], eax

; 813  : 
; 814  : 		if ( AttackDamage < tlevel )

  014dc	8b 45 1c	 mov	 eax, DWORD PTR _AttackDamage$[ebp]
  014df	3b 85 80 fe ff
	ff		 cmp	 eax, DWORD PTR _tlevel$240132[ebp]
  014e5	7d 1c		 jge	 SHORT $LN589@Attack

; 815  : 		{
; 816  : 			if ( tlevel < 1 )

  014e7	83 bd 80 fe ff
	ff 01		 cmp	 DWORD PTR _tlevel$240132[ebp], 1
  014ee	7d 0a		 jge	 SHORT $LN588@Attack

; 817  : 			{
; 818  : 				tlevel = 1;

  014f0	c7 85 80 fe ff
	ff 01 00 00 00	 mov	 DWORD PTR _tlevel$240132[ebp], 1
$LN588@Attack:

; 819  : 			}
; 820  : 
; 821  : 			AttackDamage = tlevel;

  014fa	8b 85 80 fe ff
	ff		 mov	 eax, DWORD PTR _tlevel$240132[ebp]
  01500	89 45 1c	 mov	 DWORD PTR _AttackDamage$[ebp], eax
$LN589@Attack:

; 822  : 		}
; 823  : 
; 824  : 		if ( lpTargetObj->m_SkillNumber == 18 )

  01503	8b 45 0c	 mov	 eax, DWORD PTR _lpTargetObj$[ebp]
  01506	0f bf 88 d8 03
	00 00		 movsx	 ecx, WORD PTR [eax+984]
  0150d	83 f9 12	 cmp	 ecx, 18			; 00000012H
  01510	75 0e		 jne	 SHORT $LN586@Attack

; 825  : 		{
; 826  : 			if ( AttackDamage > 1 )

  01512	83 7d 1c 01	 cmp	 DWORD PTR _AttackDamage$[ebp], 1
  01516	7e 08		 jle	 SHORT $LN586@Attack

; 827  : 			{
; 828  : 				AttackDamage >>= 1;

  01518	8b 45 1c	 mov	 eax, DWORD PTR _AttackDamage$[ebp]
  0151b	d1 f8		 sar	 eax, 1
  0151d	89 45 1c	 mov	 DWORD PTR _AttackDamage$[ebp], eax
$LN586@Attack:

; 829  : 			}
; 830  : 		}
; 831  : 
; 832  : 		gObjSpriteDamage(lpTargetObj, AttackDamage);

  01520	8b 45 1c	 mov	 eax, DWORD PTR _AttackDamage$[ebp]
  01523	50		 push	 eax
  01524	8b 4d 0c	 mov	 ecx, DWORD PTR _lpTargetObj$[ebp]
  01527	51		 push	 ecx
  01528	e8 00 00 00 00	 call	 ?gObjSpriteDamage@@YAXPAUOBJECTSTRUCT@@H@Z ; gObjSpriteDamage
  0152d	83 c4 08	 add	 esp, 8

; 833  : 
; 834  : 		if ( gObjSatanSprite(lpObj) == TRUE )

  01530	8b 45 08	 mov	 eax, DWORD PTR _lpObj$[ebp]
  01533	50		 push	 eax
  01534	e8 00 00 00 00	 call	 ?gObjSatanSprite@@YAHPAUOBJECTSTRUCT@@@Z ; gObjSatanSprite
  01539	83 c4 04	 add	 esp, 4
  0153c	83 f8 01	 cmp	 eax, 1
  0153f	0f 85 5a 01 00
	00		 jne	 $LN585@Attack

; 835  : 		{
; 836  : #ifdef MONK
; 837  : 			if( lpObj->Class == CLASS_MONK )

  01545	8b 45 08	 mov	 eax, DWORD PTR _lpObj$[ebp]
  01548	0f b7 88 b8 00
	00 00		 movzx	 ecx, WORD PTR [eax+184]
  0154f	83 f9 06	 cmp	 ecx, 6
  01552	0f 85 cd 00 00
	00		 jne	 $LN584@Attack

; 838  : 			{
; 839  : 				if( skill == 263 ||
; 840  : 					skill == 269 ||
; 841  : 					skill == 262 )

  01558	81 7d d8 07 01
	00 00		 cmp	 DWORD PTR _skill$[ebp], 263 ; 00000107H
  0155f	74 12		 je	 SHORT $LN582@Attack
  01561	81 7d d8 0d 01
	00 00		 cmp	 DWORD PTR _skill$[ebp], 269 ; 0000010dH
  01568	74 09		 je	 SHORT $LN582@Attack
  0156a	81 7d d8 06 01
	00 00		 cmp	 DWORD PTR _skill$[ebp], 262 ; 00000106H
  01571	75 1d		 jne	 SHORT $LN583@Attack
$LN582@Attack:

; 842  : 				{
; 843  : 					lpObj->Life -= 4.0f;

  01573	8b 45 08	 mov	 eax, DWORD PTR _lpObj$[ebp]
  01576	d9 80 fc 00 00
	00		 fld	 DWORD PTR [eax+252]
  0157c	dc 25 00 00 00
	00		 fsub	 QWORD PTR __real@4010000000000000
  01582	8b 4d 08	 mov	 ecx, DWORD PTR _lpObj$[ebp]
  01585	d9 99 fc 00 00
	00		 fstp	 DWORD PTR [ecx+252]
  0158b	e9 93 00 00 00	 jmp	 $LN574@Attack
$LN583@Attack:

; 844  : 				}
; 845  : 				else if( skill == 265 )

  01590	81 7d d8 09 01
	00 00		 cmp	 DWORD PTR _skill$[ebp], 265 ; 00000109H
  01597	75 1a		 jne	 SHORT $LN580@Attack

; 846  : 				{
; 847  : 					lpObj->Life -= 100.0f;

  01599	8b 45 08	 mov	 eax, DWORD PTR _lpObj$[ebp]
  0159c	d9 80 fc 00 00
	00		 fld	 DWORD PTR [eax+252]
  015a2	dc 25 00 00 00
	00		 fsub	 QWORD PTR __real@4059000000000000
  015a8	8b 4d 08	 mov	 ecx, DWORD PTR _lpObj$[ebp]
  015ab	d9 99 fc 00 00
	00		 fstp	 DWORD PTR [ecx+252]

; 848  : 				}
; 849  : 				else if( skill == 260 ||

  015b1	eb 70		 jmp	 SHORT $LN574@Attack
$LN580@Attack:

; 850  : 					skill == 261 ||
; 851  : 					skill == 264 )

  015b3	81 7d d8 04 01
	00 00		 cmp	 DWORD PTR _skill$[ebp], 260 ; 00000104H
  015ba	74 12		 je	 SHORT $LN577@Attack
  015bc	81 7d d8 05 01
	00 00		 cmp	 DWORD PTR _skill$[ebp], 261 ; 00000105H
  015c3	74 09		 je	 SHORT $LN577@Attack
  015c5	81 7d d8 08 01
	00 00		 cmp	 DWORD PTR _skill$[ebp], 264 ; 00000108H
  015cc	75 1a		 jne	 SHORT $LN578@Attack
$LN577@Attack:

; 852  : 				{
; 853  : 					lpObj->Life -= 2.0f;

  015ce	8b 45 08	 mov	 eax, DWORD PTR _lpObj$[ebp]
  015d1	d9 80 fc 00 00
	00		 fld	 DWORD PTR [eax+252]
  015d7	dc 25 00 00 00
	00		 fsub	 QWORD PTR __real@4000000000000000
  015dd	8b 4d 08	 mov	 ecx, DWORD PTR _lpObj$[ebp]
  015e0	d9 99 fc 00 00
	00		 fstp	 DWORD PTR [ecx+252]
  015e6	eb 3b		 jmp	 SHORT $LN574@Attack
$LN578@Attack:

; 854  : 				}
; 855  : 				else if( skill == 270 )

  015e8	81 7d d8 0e 01
	00 00		 cmp	 DWORD PTR _skill$[ebp], 270 ; 0000010eH
  015ef	75 1a		 jne	 SHORT $LN575@Attack

; 856  : 				{
; 857  : 					lpObj->Life -= 2.0f;

  015f1	8b 45 08	 mov	 eax, DWORD PTR _lpObj$[ebp]
  015f4	d9 80 fc 00 00
	00		 fld	 DWORD PTR [eax+252]
  015fa	dc 25 00 00 00
	00		 fsub	 QWORD PTR __real@4000000000000000
  01600	8b 4d 08	 mov	 ecx, DWORD PTR _lpObj$[ebp]
  01603	d9 99 fc 00 00
	00		 fstp	 DWORD PTR [ecx+252]

; 858  : 				}
; 859  : 				else

  01609	eb 18		 jmp	 SHORT $LN574@Attack
$LN575@Attack:

; 860  : 				{
; 861  : 					lpObj->Life -= 3.0f;

  0160b	8b 45 08	 mov	 eax, DWORD PTR _lpObj$[ebp]
  0160e	d9 80 fc 00 00
	00		 fld	 DWORD PTR [eax+252]
  01614	dc 25 00 00 00
	00		 fsub	 QWORD PTR __real@4008000000000000
  0161a	8b 4d 08	 mov	 ecx, DWORD PTR _lpObj$[ebp]
  0161d	d9 99 fc 00 00
	00		 fstp	 DWORD PTR [ecx+252]
$LN574@Attack:

; 862  : 				}
; 863  : 			}
; 864  : 			else

  01623	eb 18		 jmp	 SHORT $LN573@Attack
$LN584@Attack:

; 865  : 			{
; 866  : 				lpObj->Life -= 3.0f;

  01625	8b 45 08	 mov	 eax, DWORD PTR _lpObj$[ebp]
  01628	d9 80 fc 00 00
	00		 fld	 DWORD PTR [eax+252]
  0162e	dc 25 00 00 00
	00		 fsub	 QWORD PTR __real@4008000000000000
  01634	8b 4d 08	 mov	 ecx, DWORD PTR _lpObj$[ebp]
  01637	d9 99 fc 00 00
	00		 fstp	 DWORD PTR [ecx+252]
$LN573@Attack:

; 867  : 			}
; 868  : #else
; 869  : 			lpObj->Life -= 3.0f;
; 870  : #endif
; 871  : 
; 872  : 			if ( lpObj->Life < 0.0f )

  0163d	8b 45 08	 mov	 eax, DWORD PTR _lpObj$[ebp]
  01640	d9 80 fc 00 00
	00		 fld	 DWORD PTR [eax+252]
  01646	dc 1d 00 00 00
	00		 fcomp	 QWORD PTR __real@0000000000000000
  0164c	df e0		 fnstsw	 ax
  0164e	f6 c4 05	 test	 ah, 5
  01651	7a 0d		 jp	 SHORT $LN572@Attack

; 873  : 			{
; 874  : 				lpObj->Life = 0.0f;

  01653	8b 45 08	 mov	 eax, DWORD PTR _lpObj$[ebp]
  01656	d9 ee		 fldz
  01658	d9 98 fc 00 00
	00		 fstp	 DWORD PTR [eax+252]

; 875  : 			}
; 876  : 			else

  0165e	eb 11		 jmp	 SHORT $LN571@Attack
$LN572@Attack:

; 877  : 			{
; 878  : 				AttackDamage = AttackDamage * 13 / 10;

  01660	8b 45 1c	 mov	 eax, DWORD PTR _AttackDamage$[ebp]
  01663	6b c0 0d	 imul	 eax, 13			; 0000000dH
  01666	99		 cdq
  01667	b9 0a 00 00 00	 mov	 ecx, 10			; 0000000aH
  0166c	f7 f9		 idiv	 ecx
  0166e	89 45 1c	 mov	 DWORD PTR _AttackDamage$[ebp], eax
$LN571@Attack:

; 879  : 			}
; 880  : 
; 881  : 			GCReFillSend(lpObj->m_Index, lpObj->Life, 0xFF, 0, lpObj->iShield);

  01671	8b 45 08	 mov	 eax, DWORD PTR _lpObj$[ebp]
  01674	8b 88 54 01 00
	00		 mov	 ecx, DWORD PTR [eax+340]
  0167a	51		 push	 ecx
  0167b	6a 00		 push	 0
  0167d	68 ff 00 00 00	 push	 255			; 000000ffH
  01682	8b 55 08	 mov	 edx, DWORD PTR _lpObj$[ebp]
  01685	d9 82 fc 00 00
	00		 fld	 DWORD PTR [edx+252]
  0168b	e8 00 00 00 00	 call	 __ftol2_sse
  01690	50		 push	 eax
  01691	8b 45 08	 mov	 eax, DWORD PTR _lpObj$[ebp]
  01694	8b 08		 mov	 ecx, DWORD PTR [eax]
  01696	51		 push	 ecx
  01697	e8 00 00 00 00	 call	 ?GCReFillSend@@YAXHHEEH@Z ; GCReFillSend
  0169c	83 c4 14	 add	 esp, 20			; 00000014H
$LN585@Attack:

; 882  : 		}
; 883  : 
; 884  : 		if ( gObjAngelSprite(lpTargetObj) == TRUE )

  0169f	8b 45 0c	 mov	 eax, DWORD PTR _lpTargetObj$[ebp]
  016a2	50		 push	 eax
  016a3	e8 00 00 00 00	 call	 ?gObjAngelSprite@@YAHPAUOBJECTSTRUCT@@@Z ; gObjAngelSprite
  016a8	83 c4 04	 add	 esp, 4
  016ab	83 f8 01	 cmp	 eax, 1
  016ae	75 32		 jne	 SHORT $LN569@Attack

; 885  : 		{
; 886  : 			if ( AttackDamage > 1 )

  016b0	83 7d 1c 01	 cmp	 DWORD PTR _AttackDamage$[ebp], 1
  016b4	7e 2c		 jle	 SHORT $LN569@Attack

; 887  : 			{
; 888  : 				float  damage = (AttackDamage * 8) / 10.0f;

  016b6	8b 45 1c	 mov	 eax, DWORD PTR _AttackDamage$[ebp]
  016b9	c1 e0 03	 shl	 eax, 3
  016bc	89 85 c8 fc ff
	ff		 mov	 DWORD PTR tv5444[ebp], eax
  016c2	db 85 c8 fc ff
	ff		 fild	 DWORD PTR tv5444[ebp]
  016c8	dc 35 00 00 00
	00		 fdiv	 QWORD PTR __real@4024000000000000
  016ce	d9 9d 7c fe ff
	ff		 fstp	 DWORD PTR _damage$240154[ebp]

; 889  : 				AttackDamage = (int)damage;

  016d4	d9 85 7c fe ff
	ff		 fld	 DWORD PTR _damage$240154[ebp]
  016da	e8 00 00 00 00	 call	 __ftol2_sse
  016df	89 45 1c	 mov	 DWORD PTR _AttackDamage$[ebp], eax
$LN569@Attack:

; 890  : 			}
; 891  : 		}
; 892  : 
; 893  : 		if ( gObjDemonSprite(lpObj) == TRUE ) //season4 add-on (fix from 3.5)

  016e2	8b 45 08	 mov	 eax, DWORD PTR _lpObj$[ebp]
  016e5	50		 push	 eax
  016e6	e8 00 00 00 00	 call	 ?gObjDemonSprite@@YAHPAUOBJECTSTRUCT@@@Z ; gObjDemonSprite
  016eb	83 c4 04	 add	 esp, 4
  016ee	83 f8 01	 cmp	 eax, 1
  016f1	75 17		 jne	 SHORT $LN567@Attack

; 894  : 		{
; 895  : 			if ( AttackDamage > 1 )

  016f3	83 7d 1c 01	 cmp	 DWORD PTR _AttackDamage$[ebp], 1
  016f7	7e 11		 jle	 SHORT $LN567@Attack

; 896  : 			{
; 897  : 				AttackDamage = (AttackDamage * 14) / 10;

  016f9	8b 45 1c	 mov	 eax, DWORD PTR _AttackDamage$[ebp]
  016fc	6b c0 0e	 imul	 eax, 14			; 0000000eH
  016ff	99		 cdq
  01700	b9 0a 00 00 00	 mov	 ecx, 10			; 0000000aH
  01705	f7 f9		 idiv	 ecx
  01707	89 45 1c	 mov	 DWORD PTR _AttackDamage$[ebp], eax
$LN567@Attack:

; 898  : 			}
; 899  : 		}
; 900  : 
; 901  : 		if ( gObjSkeletonSprite(lpObj) == TRUE ) //Season 5 Skeleton Pet

  0170a	8b 45 08	 mov	 eax, DWORD PTR _lpObj$[ebp]
  0170d	50		 push	 eax
  0170e	e8 00 00 00 00	 call	 ?gObjSkeletonSprite@@YAHPAUOBJECTSTRUCT@@@Z ; gObjSkeletonSprite
  01713	83 c4 04	 add	 esp, 4
  01716	83 f8 01	 cmp	 eax, 1
  01719	75 1a		 jne	 SHORT $LN565@Attack

; 902  : 		{
; 903  : 			if ( AttackDamage > 1 )

  0171b	83 7d 1c 01	 cmp	 DWORD PTR _AttackDamage$[ebp], 1
  0171f	7e 14		 jle	 SHORT $LN565@Attack

; 904  : 			{
; 905  : 				AttackDamage += (AttackDamage * 20) / 100;

  01721	8b 45 1c	 mov	 eax, DWORD PTR _AttackDamage$[ebp]
  01724	6b c0 14	 imul	 eax, 20			; 00000014H
  01727	99		 cdq
  01728	b9 64 00 00 00	 mov	 ecx, 100		; 00000064H
  0172d	f7 f9		 idiv	 ecx
  0172f	03 45 1c	 add	 eax, DWORD PTR _AttackDamage$[ebp]
  01732	89 45 1c	 mov	 DWORD PTR _AttackDamage$[ebp], eax
$LN565@Attack:

; 906  : 			}
; 907  : 		}
; 908  : 
; 909  : 		if ( gObjSpiritGuardianSprite(lpTargetObj) == TRUE )

  01735	8b 45 0c	 mov	 eax, DWORD PTR _lpTargetObj$[ebp]
  01738	50		 push	 eax
  01739	e8 00 00 00 00	 call	 ?gObjSpiritGuardianSprite@@YAHPAUOBJECTSTRUCT@@@Z ; gObjSpiritGuardianSprite
  0173e	83 c4 04	 add	 esp, 4
  01741	83 f8 01	 cmp	 eax, 1
  01744	75 32		 jne	 SHORT $LN563@Attack

; 910  : 		{
; 911  : 			if ( AttackDamage > 1 )

  01746	83 7d 1c 01	 cmp	 DWORD PTR _AttackDamage$[ebp], 1
  0174a	7e 2c		 jle	 SHORT $LN563@Attack

; 912  : 			{
; 913  : 				float  damage = (AttackDamage * 7) / 10.0f;

  0174c	8b 45 1c	 mov	 eax, DWORD PTR _AttackDamage$[ebp]
  0174f	6b c0 07	 imul	 eax, 7
  01752	89 85 c8 fc ff
	ff		 mov	 DWORD PTR tv5471[ebp], eax
  01758	db 85 c8 fc ff
	ff		 fild	 DWORD PTR tv5471[ebp]
  0175e	dc 35 00 00 00
	00		 fdiv	 QWORD PTR __real@4024000000000000
  01764	d9 9d 78 fe ff
	ff		 fstp	 DWORD PTR _damage$240162[ebp]

; 914  : 				AttackDamage = (int)damage;

  0176a	d9 85 78 fe ff
	ff		 fld	 DWORD PTR _damage$240162[ebp]
  01770	e8 00 00 00 00	 call	 __ftol2_sse
  01775	89 45 1c	 mov	 DWORD PTR _AttackDamage$[ebp], eax
$LN563@Attack:

; 915  : 			}
; 916  : 		}
; 917  : 
; 918  : 		if ( (lpObj->pInventory[10].IsItem() &&
; 919  : 			 lpObj->pInventory[10].m_Type == ITEMGET(13,76) &&
; 920  : 			 lpObj->pInventory[10].m_Durability > 0.0f) || 
; 921  : 
; 922  : 			 (lpObj->pInventory[11].IsItem() &&
; 923  : 			 lpObj->pInventory[11].m_Type == ITEMGET(13,76) &&
; 924  : 			 lpObj->pInventory[11].m_Durability > 0.0f) )

  01778	8b 45 08	 mov	 eax, DWORD PTR _lpObj$[ebp]
  0177b	8b 88 24 0e 00
	00		 mov	 ecx, DWORD PTR [eax+3620]
  01781	81 c1 48 08 00
	00		 add	 ecx, 2120		; 00000848H
  01787	e8 00 00 00 00	 call	 ?IsItem@CItem@@QAEHXZ	; CItem::IsItem
  0178c	85 c0		 test	 eax, eax
  0178e	74 34		 je	 SHORT $LN560@Attack
  01790	8b 45 08	 mov	 eax, DWORD PTR _lpObj$[ebp]
  01793	8b 88 24 0e 00
	00		 mov	 ecx, DWORD PTR [eax+3620]
  01799	0f bf 91 4e 08
	00 00		 movsx	 edx, WORD PTR [ecx+2126]
  017a0	81 fa 4c 1a 00
	00		 cmp	 edx, 6732		; 00001a4cH
  017a6	75 1c		 jne	 SHORT $LN560@Attack
  017a8	8b 45 08	 mov	 eax, DWORD PTR _lpObj$[ebp]
  017ab	8b 88 24 0e 00
	00		 mov	 ecx, DWORD PTR [eax+3620]
  017b1	d9 81 6c 08 00
	00		 fld	 DWORD PTR [ecx+2156]
  017b7	dc 1d 00 00 00
	00		 fcomp	 QWORD PTR __real@0000000000000000
  017bd	df e0		 fnstsw	 ax
  017bf	f6 c4 41	 test	 ah, 65			; 00000041H
  017c2	74 4c		 je	 SHORT $LN561@Attack
$LN560@Attack:
  017c4	8b 45 08	 mov	 eax, DWORD PTR _lpObj$[ebp]
  017c7	8b 88 24 0e 00
	00		 mov	 ecx, DWORD PTR [eax+3620]
  017cd	81 c1 1c 09 00
	00		 add	 ecx, 2332		; 0000091cH
  017d3	e8 00 00 00 00	 call	 ?IsItem@CItem@@QAEHXZ	; CItem::IsItem
  017d8	85 c0		 test	 eax, eax
  017da	74 3d		 je	 SHORT $LN562@Attack
  017dc	8b 45 08	 mov	 eax, DWORD PTR _lpObj$[ebp]
  017df	8b 88 24 0e 00
	00		 mov	 ecx, DWORD PTR [eax+3620]
  017e5	0f bf 91 22 09
	00 00		 movsx	 edx, WORD PTR [ecx+2338]
  017ec	81 fa 4c 1a 00
	00		 cmp	 edx, 6732		; 00001a4cH
  017f2	75 25		 jne	 SHORT $LN562@Attack
  017f4	8b 45 08	 mov	 eax, DWORD PTR _lpObj$[ebp]
  017f7	8b 88 24 0e 00
	00		 mov	 ecx, DWORD PTR [eax+3620]
  017fd	d9 81 40 09 00
	00		 fld	 DWORD PTR [ecx+2368]
  01803	dc 1d 00 00 00
	00		 fcomp	 QWORD PTR __real@0000000000000000
  01809	df e0		 fnstsw	 ax
  0180b	f6 c4 41	 test	 ah, 65			; 00000041H
  0180e	75 09		 jne	 SHORT $LN562@Attack
$LN561@Attack:

; 925  : 		{
; 926  : 			AttackDamage += 30;

  01810	8b 45 1c	 mov	 eax, DWORD PTR _AttackDamage$[ebp]
  01813	83 c0 1e	 add	 eax, 30			; 0000001eH
  01816	89 45 1c	 mov	 DWORD PTR _AttackDamage$[ebp], eax
$LN562@Attack:

; 927  : 		}
; 928  : 
; 929  : 		if ( gObjWingSprite(lpObj) == TRUE )

  01819	8b 45 08	 mov	 eax, DWORD PTR _lpObj$[ebp]
  0181c	50		 push	 eax
  0181d	e8 00 00 00 00	 call	 ?gObjWingSprite@@YAHPAUOBJECTSTRUCT@@@Z ; gObjWingSprite
  01822	83 c4 04	 add	 esp, 4
  01825	83 f8 01	 cmp	 eax, 1
  01828	0f 85 46 06 00
	00		 jne	 $LN559@Attack

; 930  : 		{
; 931  : 			CItem * Wing = &lpObj->pInventory[7];

  0182e	8b 45 08	 mov	 eax, DWORD PTR _lpObj$[ebp]
  01831	8b 88 24 0e 00
	00		 mov	 ecx, DWORD PTR [eax+3620]
  01837	81 c1 cc 05 00
	00		 add	 ecx, 1484		; 000005ccH
  0183d	89 8d 74 fe ff
	ff		 mov	 DWORD PTR _Wing$240168[ebp], ecx

; 932  : 
; 933  : 			if ( lpObj->Class == CLASS_WIZARD || lpObj->Class == CLASS_ELF )

  01843	8b 45 08	 mov	 eax, DWORD PTR _lpObj$[ebp]
  01846	0f b7 88 b8 00
	00 00		 movzx	 ecx, WORD PTR [eax+184]
  0184d	85 c9		 test	 ecx, ecx
  0184f	74 0f		 je	 SHORT $LN557@Attack
  01851	8b 45 08	 mov	 eax, DWORD PTR _lpObj$[ebp]
  01854	0f b7 88 b8 00
	00 00		 movzx	 ecx, WORD PTR [eax+184]
  0185b	83 f9 02	 cmp	 ecx, 2
  0185e	75 1d		 jne	 SHORT $LN558@Attack
$LN557@Attack:

; 934  : 			{
; 935  : 				lpObj->Life -= 1.0f;

  01860	8b 45 08	 mov	 eax, DWORD PTR _lpObj$[ebp]
  01863	d9 80 fc 00 00
	00		 fld	 DWORD PTR [eax+252]
  01869	dc 25 00 00 00
	00		 fsub	 QWORD PTR __real@3ff0000000000000
  0186f	8b 4d 08	 mov	 ecx, DWORD PTR _lpObj$[ebp]
  01872	d9 99 fc 00 00
	00		 fstp	 DWORD PTR [ecx+252]
  01878	e9 24 01 00 00	 jmp	 $LN542@Attack
$LN558@Attack:

; 936  : 			}
; 937  : 			else if ( lpObj->Class == CLASS_SUMMONER ) //summoner

  0187d	8b 45 08	 mov	 eax, DWORD PTR _lpObj$[ebp]
  01880	0f b7 88 b8 00
	00 00		 movzx	 ecx, WORD PTR [eax+184]
  01887	83 f9 05	 cmp	 ecx, 5
  0188a	75 1d		 jne	 SHORT $LN555@Attack

; 938  : 			{
; 939  : 				lpObj->Life -= 1.0f;

  0188c	8b 45 08	 mov	 eax, DWORD PTR _lpObj$[ebp]
  0188f	d9 80 fc 00 00
	00		 fld	 DWORD PTR [eax+252]
  01895	dc 25 00 00 00
	00		 fsub	 QWORD PTR __real@3ff0000000000000
  0189b	8b 4d 08	 mov	 ecx, DWORD PTR _lpObj$[ebp]
  0189e	d9 99 fc 00 00
	00		 fstp	 DWORD PTR [ecx+252]
  018a4	e9 f8 00 00 00	 jmp	 $LN542@Attack
$LN555@Attack:

; 940  : 			}
; 941  : #ifdef MONK
; 942  : 			else if( lpObj->Class == CLASS_MONK )

  018a9	8b 45 08	 mov	 eax, DWORD PTR _lpObj$[ebp]
  018ac	0f b7 88 b8 00
	00 00		 movzx	 ecx, WORD PTR [eax+184]
  018b3	83 f9 06	 cmp	 ecx, 6
  018b6	0f 85 cd 00 00
	00		 jne	 $LN553@Attack

; 943  : 			{
; 944  : 				if( skill == 263 ||
; 945  : 					skill == 269 ||
; 946  : 					skill == 262 )

  018bc	81 7d d8 07 01
	00 00		 cmp	 DWORD PTR _skill$[ebp], 263 ; 00000107H
  018c3	74 12		 je	 SHORT $LN551@Attack
  018c5	81 7d d8 0d 01
	00 00		 cmp	 DWORD PTR _skill$[ebp], 269 ; 0000010dH
  018cc	74 09		 je	 SHORT $LN551@Attack
  018ce	81 7d d8 06 01
	00 00		 cmp	 DWORD PTR _skill$[ebp], 262 ; 00000106H
  018d5	75 1d		 jne	 SHORT $LN552@Attack
$LN551@Attack:

; 947  : 				{
; 948  : 					lpObj->Life -= 4.0f;

  018d7	8b 45 08	 mov	 eax, DWORD PTR _lpObj$[ebp]
  018da	d9 80 fc 00 00
	00		 fld	 DWORD PTR [eax+252]
  018e0	dc 25 00 00 00
	00		 fsub	 QWORD PTR __real@4010000000000000
  018e6	8b 4d 08	 mov	 ecx, DWORD PTR _lpObj$[ebp]
  018e9	d9 99 fc 00 00
	00		 fstp	 DWORD PTR [ecx+252]
  018ef	e9 93 00 00 00	 jmp	 $LN543@Attack
$LN552@Attack:

; 949  : 				}
; 950  : 				else if( skill == 265 )

  018f4	81 7d d8 09 01
	00 00		 cmp	 DWORD PTR _skill$[ebp], 265 ; 00000109H
  018fb	75 1a		 jne	 SHORT $LN549@Attack

; 951  : 				{
; 952  : 					lpObj->Life -= 100.0f;

  018fd	8b 45 08	 mov	 eax, DWORD PTR _lpObj$[ebp]
  01900	d9 80 fc 00 00
	00		 fld	 DWORD PTR [eax+252]
  01906	dc 25 00 00 00
	00		 fsub	 QWORD PTR __real@4059000000000000
  0190c	8b 4d 08	 mov	 ecx, DWORD PTR _lpObj$[ebp]
  0190f	d9 99 fc 00 00
	00		 fstp	 DWORD PTR [ecx+252]

; 953  : 				}
; 954  : 				else if( skill == 260 ||

  01915	eb 70		 jmp	 SHORT $LN543@Attack
$LN549@Attack:

; 955  : 					skill == 261 ||
; 956  : 					skill == 264 )

  01917	81 7d d8 04 01
	00 00		 cmp	 DWORD PTR _skill$[ebp], 260 ; 00000104H
  0191e	74 12		 je	 SHORT $LN546@Attack
  01920	81 7d d8 05 01
	00 00		 cmp	 DWORD PTR _skill$[ebp], 261 ; 00000105H
  01927	74 09		 je	 SHORT $LN546@Attack
  01929	81 7d d8 08 01
	00 00		 cmp	 DWORD PTR _skill$[ebp], 264 ; 00000108H
  01930	75 1a		 jne	 SHORT $LN547@Attack
$LN546@Attack:

; 957  : 				{
; 958  : 					lpObj->Life -= 2.0f;

  01932	8b 45 08	 mov	 eax, DWORD PTR _lpObj$[ebp]
  01935	d9 80 fc 00 00
	00		 fld	 DWORD PTR [eax+252]
  0193b	dc 25 00 00 00
	00		 fsub	 QWORD PTR __real@4000000000000000
  01941	8b 4d 08	 mov	 ecx, DWORD PTR _lpObj$[ebp]
  01944	d9 99 fc 00 00
	00		 fstp	 DWORD PTR [ecx+252]
  0194a	eb 3b		 jmp	 SHORT $LN543@Attack
$LN547@Attack:

; 959  : 				}
; 960  : 				else if( skill == 270 )

  0194c	81 7d d8 0e 01
	00 00		 cmp	 DWORD PTR _skill$[ebp], 270 ; 0000010eH
  01953	75 1a		 jne	 SHORT $LN544@Attack

; 961  : 				{
; 962  : 					lpObj->Life -= 2.0f;

  01955	8b 45 08	 mov	 eax, DWORD PTR _lpObj$[ebp]
  01958	d9 80 fc 00 00
	00		 fld	 DWORD PTR [eax+252]
  0195e	dc 25 00 00 00
	00		 fsub	 QWORD PTR __real@4000000000000000
  01964	8b 4d 08	 mov	 ecx, DWORD PTR _lpObj$[ebp]
  01967	d9 99 fc 00 00
	00		 fstp	 DWORD PTR [ecx+252]

; 963  : 				}
; 964  : 				else

  0196d	eb 18		 jmp	 SHORT $LN543@Attack
$LN544@Attack:

; 965  : 				{
; 966  : 					lpObj->Life -= 3.0f;

  0196f	8b 45 08	 mov	 eax, DWORD PTR _lpObj$[ebp]
  01972	d9 80 fc 00 00
	00		 fld	 DWORD PTR [eax+252]
  01978	dc 25 00 00 00
	00		 fsub	 QWORD PTR __real@4008000000000000
  0197e	8b 4d 08	 mov	 ecx, DWORD PTR _lpObj$[ebp]
  01981	d9 99 fc 00 00
	00		 fstp	 DWORD PTR [ecx+252]
$LN543@Attack:

; 967  : 				}
; 968  : 			}
; 969  : #endif
; 970  : 			else

  01987	eb 18		 jmp	 SHORT $LN542@Attack
$LN553@Attack:

; 971  : 			{
; 972  : 				lpObj->Life -= 3.0f;

  01989	8b 45 08	 mov	 eax, DWORD PTR _lpObj$[ebp]
  0198c	d9 80 fc 00 00
	00		 fld	 DWORD PTR [eax+252]
  01992	dc 25 00 00 00
	00		 fsub	 QWORD PTR __real@4008000000000000
  01998	8b 4d 08	 mov	 ecx, DWORD PTR _lpObj$[ebp]
  0199b	d9 99 fc 00 00
	00		 fstp	 DWORD PTR [ecx+252]
$LN542@Attack:

; 973  : 			}
; 974  : 
; 975  : 			if ( lpObj->Life < 0.0f )

  019a1	8b 45 08	 mov	 eax, DWORD PTR _lpObj$[ebp]
  019a4	d9 80 fc 00 00
	00		 fld	 DWORD PTR [eax+252]
  019aa	dc 1d 00 00 00
	00		 fcomp	 QWORD PTR __real@0000000000000000
  019b0	df e0		 fnstsw	 ax
  019b2	f6 c4 05	 test	 ah, 5
  019b5	7a 10		 jp	 SHORT $LN541@Attack

; 976  : 			{
; 977  : 				lpObj->Life = 0.0f;

  019b7	8b 45 08	 mov	 eax, DWORD PTR _lpObj$[ebp]
  019ba	d9 ee		 fldz
  019bc	d9 98 fc 00 00
	00		 fstp	 DWORD PTR [eax+252]

; 978  : 			}
; 979  : 			else

  019c2	e9 7f 04 00 00	 jmp	 $LN540@Attack
$LN541@Attack:

; 980  : 			{
; 981  : 				if ( Wing->m_Type >= ITEMGET(12,36) && Wing->m_Type <= ITEMGET(12,40) ) //season 2.5 add-on

  019c7	8b 85 74 fe ff
	ff		 mov	 eax, DWORD PTR _Wing$240168[ebp]
  019cd	0f bf 48 06	 movsx	 ecx, WORD PTR [eax+6]
  019d1	81 f9 24 18 00
	00		 cmp	 ecx, 6180		; 00001824H
  019d7	7c 39		 jl	 SHORT $LN539@Attack
  019d9	8b 85 74 fe ff
	ff		 mov	 eax, DWORD PTR _Wing$240168[ebp]
  019df	0f bf 48 06	 movsx	 ecx, WORD PTR [eax+6]
  019e3	81 f9 28 18 00
	00		 cmp	 ecx, 6184		; 00001828H
  019e9	7f 27		 jg	 SHORT $LN539@Attack

; 982  : 				{
; 983  : 					AttackDamage = AttackDamage * (Wing->m_Level * 2 + 139) / 100;	// #formula

  019eb	8b 85 74 fe ff
	ff		 mov	 eax, DWORD PTR _Wing$240168[ebp]
  019f1	0f bf 48 08	 movsx	 ecx, WORD PTR [eax+8]
  019f5	8d 94 09 8b 00
	00 00		 lea	 edx, DWORD PTR [ecx+ecx+139]
  019fc	8b c2		 mov	 eax, edx
  019fe	0f af 45 1c	 imul	 eax, DWORD PTR _AttackDamage$[ebp]
  01a02	99		 cdq
  01a03	b9 64 00 00 00	 mov	 ecx, 100		; 00000064H
  01a08	f7 f9		 idiv	 ecx
  01a0a	89 45 1c	 mov	 DWORD PTR _AttackDamage$[ebp], eax
  01a0d	e9 f1 03 00 00	 jmp	 $LN510@Attack
$LN539@Attack:

; 984  : 				}
; 985  : #ifdef NEWWINGS_6
; 986  : 				else if ( IS_NEWWINGS_6(Wing->m_Type) )

  01a12	8b 85 74 fe ff
	ff		 mov	 eax, DWORD PTR _Wing$240168[ebp]
  01a18	0f bf 48 06	 movsx	 ecx, WORD PTR [eax+6]
  01a1c	81 f9 c3 18 00
	00		 cmp	 ecx, 6339		; 000018c3H
  01a22	7d 0c		 jge	 SHORT $LN751@Attack
  01a24	c7 85 c8 fc ff
	ff 00 00 00 00	 mov	 DWORD PTR tv1253[ebp], 0
  01a2e	eb 1a		 jmp	 SHORT $LN752@Attack
$LN751@Attack:
  01a30	8b 95 74 fe ff
	ff		 mov	 edx, DWORD PTR _Wing$240168[ebp]
  01a36	0f bf 42 06	 movsx	 eax, WORD PTR [edx+6]
  01a3a	33 c9		 xor	 ecx, ecx
  01a3c	3d dc 18 00 00	 cmp	 eax, 6364		; 000018dcH
  01a41	0f 9e c1	 setle	 cl
  01a44	89 8d c8 fc ff
	ff		 mov	 DWORD PTR tv1253[ebp], ecx
$LN752@Attack:
  01a4a	83 bd c8 fc ff
	ff 00		 cmp	 DWORD PTR tv1253[ebp], 0
  01a51	74 27		 je	 SHORT $LN537@Attack

; 987  : 				{
; 988  : 					
; 989  : 					AttackDamage = AttackDamage * (Wing->m_Level * 2 + 150/*150*/) / 100;	// #formula   // Fix Damage wings 5lvl in Pvp

  01a53	8b 85 74 fe ff
	ff		 mov	 eax, DWORD PTR _Wing$240168[ebp]
  01a59	0f bf 48 08	 movsx	 ecx, WORD PTR [eax+8]
  01a5d	8d 94 09 96 00
	00 00		 lea	 edx, DWORD PTR [ecx+ecx+150]
  01a64	8b c2		 mov	 eax, edx
  01a66	0f af 45 1c	 imul	 eax, DWORD PTR _AttackDamage$[ebp]
  01a6a	99		 cdq
  01a6b	b9 64 00 00 00	 mov	 ecx, 100		; 00000064H
  01a70	f7 f9		 idiv	 ecx
  01a72	89 45 1c	 mov	 DWORD PTR _AttackDamage$[ebp], eax
  01a75	e9 89 03 00 00	 jmp	 $LN510@Attack
$LN537@Attack:

; 990  : 				}
; 991  : #endif
; 992  : #ifdef NEWWINGS_5
; 993  : 				else if ( IS_NEWWINGS_5(Wing->m_Type) )

  01a7a	8b 85 74 fe ff
	ff		 mov	 eax, DWORD PTR _Wing$240168[ebp]
  01a80	0f bf 48 06	 movsx	 ecx, WORD PTR [eax+6]
  01a84	81 f9 bd 18 00
	00		 cmp	 ecx, 6333		; 000018bdH
  01a8a	7d 0c		 jge	 SHORT $LN753@Attack
  01a8c	c7 85 c8 fc ff
	ff 00 00 00 00	 mov	 DWORD PTR tv1268[ebp], 0
  01a96	eb 1a		 jmp	 SHORT $LN754@Attack
$LN753@Attack:
  01a98	8b 95 74 fe ff
	ff		 mov	 edx, DWORD PTR _Wing$240168[ebp]
  01a9e	0f bf 42 06	 movsx	 eax, WORD PTR [edx+6]
  01aa2	33 c9		 xor	 ecx, ecx
  01aa4	3d c2 18 00 00	 cmp	 eax, 6338		; 000018c2H
  01aa9	0f 9e c1	 setle	 cl
  01aac	89 8d c8 fc ff
	ff		 mov	 DWORD PTR tv1268[ebp], ecx
$LN754@Attack:
  01ab2	83 bd c8 fc ff
	ff 00		 cmp	 DWORD PTR tv1268[ebp], 0
  01ab9	74 27		 je	 SHORT $LN535@Attack

; 994  : 				{
; 995  : 					//int ABXCONF5 = 150;
; 996  : 					AttackDamage = AttackDamage * (Wing->m_Level * 2 + 150/*150*/) / 100;	// #formula   // Fix Damage wings 5lvl in Pvp	

  01abb	8b 85 74 fe ff
	ff		 mov	 eax, DWORD PTR _Wing$240168[ebp]
  01ac1	0f bf 48 08	 movsx	 ecx, WORD PTR [eax+8]
  01ac5	8d 94 09 96 00
	00 00		 lea	 edx, DWORD PTR [ecx+ecx+150]
  01acc	8b c2		 mov	 eax, edx
  01ace	0f af 45 1c	 imul	 eax, DWORD PTR _AttackDamage$[ebp]
  01ad2	99		 cdq
  01ad3	b9 64 00 00 00	 mov	 ecx, 100		; 00000064H
  01ad8	f7 f9		 idiv	 ecx
  01ada	89 45 1c	 mov	 DWORD PTR _AttackDamage$[ebp], eax
  01add	e9 21 03 00 00	 jmp	 $LN510@Attack
$LN535@Attack:

; 997  : 				}
; 998  : #endif
; 999  : #ifdef NEWWINGS_4
; 1000 : 				else if ( IS_NEWWINGS_4(Wing->m_Type) )

  01ae2	8b 85 74 fe ff
	ff		 mov	 eax, DWORD PTR _Wing$240168[ebp]
  01ae8	0f bf 48 06	 movsx	 ecx, WORD PTR [eax+6]
  01aec	81 f9 b4 18 00
	00		 cmp	 ecx, 6324		; 000018b4H
  01af2	7d 0c		 jge	 SHORT $LN755@Attack
  01af4	c7 85 c8 fc ff
	ff 00 00 00 00	 mov	 DWORD PTR tv1283[ebp], 0
  01afe	eb 1a		 jmp	 SHORT $LN756@Attack
$LN755@Attack:
  01b00	8b 95 74 fe ff
	ff		 mov	 edx, DWORD PTR _Wing$240168[ebp]
  01b06	0f bf 42 06	 movsx	 eax, WORD PTR [edx+6]
  01b0a	33 c9		 xor	 ecx, ecx
  01b0c	3d b9 18 00 00	 cmp	 eax, 6329		; 000018b9H
  01b11	0f 9e c1	 setle	 cl
  01b14	89 8d c8 fc ff
	ff		 mov	 DWORD PTR tv1283[ebp], ecx
$LN756@Attack:
  01b1a	83 bd c8 fc ff
	ff 00		 cmp	 DWORD PTR tv1283[ebp], 0
  01b21	74 27		 je	 SHORT $LN533@Attack

; 1001 : 				{
; 1002 : 					//damage atack
; 1003 : 					//int ABXCONF4 = 145;
; 1004 : 					AttackDamage = AttackDamage * (Wing->m_Level * 2 + 145) / 100;	// #formula

  01b23	8b 85 74 fe ff
	ff		 mov	 eax, DWORD PTR _Wing$240168[ebp]
  01b29	0f bf 48 08	 movsx	 ecx, WORD PTR [eax+8]
  01b2d	8d 94 09 91 00
	00 00		 lea	 edx, DWORD PTR [ecx+ecx+145]
  01b34	8b c2		 mov	 eax, edx
  01b36	0f af 45 1c	 imul	 eax, DWORD PTR _AttackDamage$[ebp]
  01b3a	99		 cdq
  01b3b	b9 64 00 00 00	 mov	 ecx, 100		; 00000064H
  01b40	f7 f9		 idiv	 ecx
  01b42	89 45 1c	 mov	 DWORD PTR _AttackDamage$[ebp], eax
  01b45	e9 b9 02 00 00	 jmp	 $LN510@Attack
$LN533@Attack:

; 1005 : 				}
; 1006 : #endif
; 1007 : #ifdef NEWWINGS_2_5
; 1008 : 				else if ( IS_NEWWINGS_2_5(Wing->m_Type) )

  01b4a	8b 85 74 fe ff
	ff		 mov	 eax, DWORD PTR _Wing$240168[ebp]
  01b50	0f bf 48 06	 movsx	 ecx, WORD PTR [eax+6]
  01b54	81 f9 ba 18 00
	00		 cmp	 ecx, 6330		; 000018baH
  01b5a	7d 0c		 jge	 SHORT $LN757@Attack
  01b5c	c7 85 c8 fc ff
	ff 00 00 00 00	 mov	 DWORD PTR tv1298[ebp], 0
  01b66	eb 1a		 jmp	 SHORT $LN758@Attack
$LN757@Attack:
  01b68	8b 95 74 fe ff
	ff		 mov	 edx, DWORD PTR _Wing$240168[ebp]
  01b6e	0f bf 42 06	 movsx	 eax, WORD PTR [edx+6]
  01b72	33 c9		 xor	 ecx, ecx
  01b74	3d bc 18 00 00	 cmp	 eax, 6332		; 000018bcH
  01b79	0f 9e c1	 setle	 cl
  01b7c	89 8d c8 fc ff
	ff		 mov	 DWORD PTR tv1298[ebp], ecx
$LN758@Attack:
  01b82	83 bd c8 fc ff
	ff 00		 cmp	 DWORD PTR tv1298[ebp], 0
  01b89	74 27		 je	 SHORT $LN531@Attack

; 1009 : 				{
; 1010 : 					AttackDamage = AttackDamage * (Wing->m_Level * 2 + 135) / 100;	// #formula	

  01b8b	8b 85 74 fe ff
	ff		 mov	 eax, DWORD PTR _Wing$240168[ebp]
  01b91	0f bf 48 08	 movsx	 ecx, WORD PTR [eax+8]
  01b95	8d 94 09 87 00
	00 00		 lea	 edx, DWORD PTR [ecx+ecx+135]
  01b9c	8b c2		 mov	 eax, edx
  01b9e	0f af 45 1c	 imul	 eax, DWORD PTR _AttackDamage$[ebp]
  01ba2	99		 cdq
  01ba3	b9 64 00 00 00	 mov	 ecx, 100		; 00000064H
  01ba8	f7 f9		 idiv	 ecx
  01baa	89 45 1c	 mov	 DWORD PTR _AttackDamage$[ebp], eax
  01bad	e9 51 02 00 00	 jmp	 $LN510@Attack
$LN531@Attack:

; 1011 : 				}
; 1012 : #endif
; 1013 : 				else if ( Wing->m_Type == ITEMGET(13,30) )	// Cape Of Lord

  01bb2	8b 85 74 fe ff
	ff		 mov	 eax, DWORD PTR _Wing$240168[ebp]
  01bb8	0f bf 48 06	 movsx	 ecx, WORD PTR [eax+6]
  01bbc	81 f9 1e 1a 00
	00		 cmp	 ecx, 6686		; 00001a1eH
  01bc2	75 24		 jne	 SHORT $LN529@Attack

; 1014 : 				{
; 1015 : 					AttackDamage = AttackDamage * (Wing->m_Level * 2 + 120) / 100;	// #formula

  01bc4	8b 85 74 fe ff
	ff		 mov	 eax, DWORD PTR _Wing$240168[ebp]
  01bca	0f bf 48 08	 movsx	 ecx, WORD PTR [eax+8]
  01bce	8d 54 09 78	 lea	 edx, DWORD PTR [ecx+ecx+120]
  01bd2	8b c2		 mov	 eax, edx
  01bd4	0f af 45 1c	 imul	 eax, DWORD PTR _AttackDamage$[ebp]
  01bd8	99		 cdq
  01bd9	b9 64 00 00 00	 mov	 ecx, 100		; 00000064H
  01bde	f7 f9		 idiv	 ecx
  01be0	89 45 1c	 mov	 DWORD PTR _AttackDamage$[ebp], eax
  01be3	e9 1b 02 00 00	 jmp	 $LN510@Attack
$LN529@Attack:

; 1016 : 				}
; 1017 : 				else if ( Wing->m_Type == ITEMGET(12,41) )	//

  01be8	8b 85 74 fe ff
	ff		 mov	 eax, DWORD PTR _Wing$240168[ebp]
  01bee	0f bf 48 06	 movsx	 ecx, WORD PTR [eax+6]
  01bf2	81 f9 29 18 00
	00		 cmp	 ecx, 6185		; 00001829H
  01bf8	75 24		 jne	 SHORT $LN527@Attack

; 1018 : 				{
; 1019 : 					AttackDamage = AttackDamage * (Wing->m_Level * 2 + 112) / 100;	// #formula

  01bfa	8b 85 74 fe ff
	ff		 mov	 eax, DWORD PTR _Wing$240168[ebp]
  01c00	0f bf 48 08	 movsx	 ecx, WORD PTR [eax+8]
  01c04	8d 54 09 70	 lea	 edx, DWORD PTR [ecx+ecx+112]
  01c08	8b c2		 mov	 eax, edx
  01c0a	0f af 45 1c	 imul	 eax, DWORD PTR _AttackDamage$[ebp]
  01c0e	99		 cdq
  01c0f	b9 64 00 00 00	 mov	 ecx, 100		; 00000064H
  01c14	f7 f9		 idiv	 ecx
  01c16	89 45 1c	 mov	 DWORD PTR _AttackDamage$[ebp], eax
  01c19	e9 e5 01 00 00	 jmp	 $LN510@Attack
$LN527@Attack:

; 1020 : 				}
; 1021 : 				else if ( Wing->m_Type == ITEMGET(12,42) )	//

  01c1e	8b 85 74 fe ff
	ff		 mov	 eax, DWORD PTR _Wing$240168[ebp]
  01c24	0f bf 48 06	 movsx	 ecx, WORD PTR [eax+6]
  01c28	81 f9 2a 18 00
	00		 cmp	 ecx, 6186		; 0000182aH
  01c2e	75 26		 jne	 SHORT $LN525@Attack

; 1022 : 				{
; 1023 : 					AttackDamage = AttackDamage * (Wing->m_Level + 132) / 100;	// #formula

  01c30	8b 85 74 fe ff
	ff		 mov	 eax, DWORD PTR _Wing$240168[ebp]
  01c36	0f bf 48 08	 movsx	 ecx, WORD PTR [eax+8]
  01c3a	81 c1 84 00 00
	00		 add	 ecx, 132		; 00000084H
  01c40	8b c1		 mov	 eax, ecx
  01c42	0f af 45 1c	 imul	 eax, DWORD PTR _AttackDamage$[ebp]
  01c46	99		 cdq
  01c47	b9 64 00 00 00	 mov	 ecx, 100		; 00000064H
  01c4c	f7 f9		 idiv	 ecx
  01c4e	89 45 1c	 mov	 DWORD PTR _AttackDamage$[ebp], eax
  01c51	e9 ad 01 00 00	 jmp	 $LN510@Attack
$LN525@Attack:

; 1024 : 				}
; 1025 : 				else if ( Wing->m_Type == ITEMGET(12,43) )	//

  01c56	8b 85 74 fe ff
	ff		 mov	 eax, DWORD PTR _Wing$240168[ebp]
  01c5c	0f bf 48 06	 movsx	 ecx, WORD PTR [eax+6]
  01c60	81 f9 2b 18 00
	00		 cmp	 ecx, 6187		; 0000182bH
  01c66	75 27		 jne	 SHORT $LN523@Attack

; 1026 : 				{
; 1027 : 					AttackDamage = AttackDamage * (Wing->m_Level * 2 + 139) / 100;	// #formula

  01c68	8b 85 74 fe ff
	ff		 mov	 eax, DWORD PTR _Wing$240168[ebp]
  01c6e	0f bf 48 08	 movsx	 ecx, WORD PTR [eax+8]
  01c72	8d 94 09 8b 00
	00 00		 lea	 edx, DWORD PTR [ecx+ecx+139]
  01c79	8b c2		 mov	 eax, edx
  01c7b	0f af 45 1c	 imul	 eax, DWORD PTR _AttackDamage$[ebp]
  01c7f	99		 cdq
  01c80	b9 64 00 00 00	 mov	 ecx, 100		; 00000064H
  01c85	f7 f9		 idiv	 ecx
  01c87	89 45 1c	 mov	 DWORD PTR _AttackDamage$[ebp], eax
  01c8a	e9 74 01 00 00	 jmp	 $LN510@Attack
$LN523@Attack:

; 1028 : 				}
; 1029 : 				else if ( Wing->m_Type == ITEMGET(12,49) ) //season 6.0 add-on

  01c8f	8b 85 74 fe ff
	ff		 mov	 eax, DWORD PTR _Wing$240168[ebp]
  01c95	0f bf 48 06	 movsx	 ecx, WORD PTR [eax+6]
  01c99	81 f9 31 18 00
	00		 cmp	 ecx, 6193		; 00001831H
  01c9f	75 24		 jne	 SHORT $LN521@Attack

; 1030 : 				{
; 1031 : 					AttackDamage = AttackDamage * (Wing->m_Level * 2 + 120) / 100;	// #formula

  01ca1	8b 85 74 fe ff
	ff		 mov	 eax, DWORD PTR _Wing$240168[ebp]
  01ca7	0f bf 48 08	 movsx	 ecx, WORD PTR [eax+8]
  01cab	8d 54 09 78	 lea	 edx, DWORD PTR [ecx+ecx+120]
  01caf	8b c2		 mov	 eax, edx
  01cb1	0f af 45 1c	 imul	 eax, DWORD PTR _AttackDamage$[ebp]
  01cb5	99		 cdq
  01cb6	b9 64 00 00 00	 mov	 ecx, 100		; 00000064H
  01cbb	f7 f9		 idiv	 ecx
  01cbd	89 45 1c	 mov	 DWORD PTR _AttackDamage$[ebp], eax
  01cc0	e9 3e 01 00 00	 jmp	 $LN510@Attack
$LN521@Attack:

; 1032 : 				}
; 1033 : 				else if ( Wing->m_Type == ITEMGET(12,50) ) //season 6.0 add-on

  01cc5	8b 85 74 fe ff
	ff		 mov	 eax, DWORD PTR _Wing$240168[ebp]
  01ccb	0f bf 48 06	 movsx	 ecx, WORD PTR [eax+6]
  01ccf	81 f9 32 18 00
	00		 cmp	 ecx, 6194		; 00001832H
  01cd5	75 27		 jne	 SHORT $LN519@Attack

; 1034 : 				{
; 1035 : 					AttackDamage = AttackDamage * (Wing->m_Level * 2 + 139) / 100;	// #formula

  01cd7	8b 85 74 fe ff
	ff		 mov	 eax, DWORD PTR _Wing$240168[ebp]
  01cdd	0f bf 48 08	 movsx	 ecx, WORD PTR [eax+8]
  01ce1	8d 94 09 8b 00
	00 00		 lea	 edx, DWORD PTR [ecx+ecx+139]
  01ce8	8b c2		 mov	 eax, edx
  01cea	0f af 45 1c	 imul	 eax, DWORD PTR _AttackDamage$[ebp]
  01cee	99		 cdq
  01cef	b9 64 00 00 00	 mov	 ecx, 100		; 00000064H
  01cf4	f7 f9		 idiv	 ecx
  01cf6	89 45 1c	 mov	 DWORD PTR _AttackDamage$[ebp], eax
  01cf9	e9 05 01 00 00	 jmp	 $LN510@Attack
$LN519@Attack:

; 1036 : 				}
; 1037 : 				else if ( Wing->m_Type == ITEMGET(12,130) ) //season 6.0 add-on

  01cfe	8b 85 74 fe ff
	ff		 mov	 eax, DWORD PTR _Wing$240168[ebp]
  01d04	0f bf 48 06	 movsx	 ecx, WORD PTR [eax+6]
  01d08	81 f9 82 18 00
	00		 cmp	 ecx, 6274		; 00001882H
  01d0e	75 24		 jne	 SHORT $LN517@Attack

; 1038 : 				{
; 1039 : 					AttackDamage = AttackDamage * (Wing->m_Level * 2 + 120) / 100;	// #formula

  01d10	8b 85 74 fe ff
	ff		 mov	 eax, DWORD PTR _Wing$240168[ebp]
  01d16	0f bf 48 08	 movsx	 ecx, WORD PTR [eax+8]
  01d1a	8d 54 09 78	 lea	 edx, DWORD PTR [ecx+ecx+120]
  01d1e	8b c2		 mov	 eax, edx
  01d20	0f af 45 1c	 imul	 eax, DWORD PTR _AttackDamage$[ebp]
  01d24	99		 cdq
  01d25	b9 64 00 00 00	 mov	 ecx, 100		; 00000064H
  01d2a	f7 f9		 idiv	 ecx
  01d2c	89 45 1c	 mov	 DWORD PTR _AttackDamage$[ebp], eax
  01d2f	e9 cf 00 00 00	 jmp	 $LN510@Attack
$LN517@Attack:

; 1040 : 				}
; 1041 : 				else if ( Wing->m_Type >= ITEMGET(12,131) &&  Wing->m_Type <= ITEMGET(12,134)) //season 6.0 add-on

  01d34	8b 85 74 fe ff
	ff		 mov	 eax, DWORD PTR _Wing$240168[ebp]
  01d3a	0f bf 48 06	 movsx	 ecx, WORD PTR [eax+6]
  01d3e	81 f9 83 18 00
	00		 cmp	 ecx, 6275		; 00001883H
  01d44	7c 36		 jl	 SHORT $LN515@Attack
  01d46	8b 85 74 fe ff
	ff		 mov	 eax, DWORD PTR _Wing$240168[ebp]
  01d4c	0f bf 48 06	 movsx	 ecx, WORD PTR [eax+6]
  01d50	81 f9 86 18 00
	00		 cmp	 ecx, 6278		; 00001886H
  01d56	7f 24		 jg	 SHORT $LN515@Attack

; 1042 : 				{
; 1043 : 					AttackDamage = AttackDamage * (Wing->m_Level * 2 + 112) / 100;	// #formula

  01d58	8b 85 74 fe ff
	ff		 mov	 eax, DWORD PTR _Wing$240168[ebp]
  01d5e	0f bf 48 08	 movsx	 ecx, WORD PTR [eax+8]
  01d62	8d 54 09 70	 lea	 edx, DWORD PTR [ecx+ecx+112]
  01d66	8b c2		 mov	 eax, edx
  01d68	0f af 45 1c	 imul	 eax, DWORD PTR _AttackDamage$[ebp]
  01d6c	99		 cdq
  01d6d	b9 64 00 00 00	 mov	 ecx, 100		; 00000064H
  01d72	f7 f9		 idiv	 ecx
  01d74	89 45 1c	 mov	 DWORD PTR _AttackDamage$[ebp], eax
  01d77	e9 87 00 00 00	 jmp	 $LN510@Attack
$LN515@Attack:

; 1044 : 				}
; 1045 : 				else if ( Wing->m_Type == ITEMGET(12,135) ) //season 6.0 add-on

  01d7c	8b 85 74 fe ff
	ff		 mov	 eax, DWORD PTR _Wing$240168[ebp]
  01d82	0f bf 48 06	 movsx	 ecx, WORD PTR [eax+6]
  01d86	81 f9 87 18 00
	00		 cmp	 ecx, 6279		; 00001887H
  01d8c	75 21		 jne	 SHORT $LN513@Attack

; 1046 : 				{
; 1047 : 					AttackDamage = AttackDamage * (Wing->m_Level * 2 + 120) / 100;	// #formula

  01d8e	8b 85 74 fe ff
	ff		 mov	 eax, DWORD PTR _Wing$240168[ebp]
  01d94	0f bf 48 08	 movsx	 ecx, WORD PTR [eax+8]
  01d98	8d 54 09 78	 lea	 edx, DWORD PTR [ecx+ecx+120]
  01d9c	8b c2		 mov	 eax, edx
  01d9e	0f af 45 1c	 imul	 eax, DWORD PTR _AttackDamage$[ebp]
  01da2	99		 cdq
  01da3	b9 64 00 00 00	 mov	 ecx, 100		; 00000064H
  01da8	f7 f9		 idiv	 ecx
  01daa	89 45 1c	 mov	 DWORD PTR _AttackDamage$[ebp], eax
  01dad	eb 54		 jmp	 SHORT $LN510@Attack
$LN513@Attack:

; 1048 : 				}
; 1049 : 				else if ( Wing->m_Type > ITEMGET(12,2) )

  01daf	8b 85 74 fe ff
	ff		 mov	 eax, DWORD PTR _Wing$240168[ebp]
  01db5	0f bf 48 06	 movsx	 ecx, WORD PTR [eax+6]
  01db9	81 f9 02 18 00
	00		 cmp	 ecx, 6146		; 00001802H
  01dbf	7e 23		 jle	 SHORT $LN511@Attack

; 1050 : 				{
; 1051 : 					AttackDamage = AttackDamage * (Wing->m_Level + 132) / 100 ;	// #formula

  01dc1	8b 85 74 fe ff
	ff		 mov	 eax, DWORD PTR _Wing$240168[ebp]
  01dc7	0f bf 48 08	 movsx	 ecx, WORD PTR [eax+8]
  01dcb	81 c1 84 00 00
	00		 add	 ecx, 132		; 00000084H
  01dd1	8b c1		 mov	 eax, ecx
  01dd3	0f af 45 1c	 imul	 eax, DWORD PTR _AttackDamage$[ebp]
  01dd7	99		 cdq
  01dd8	b9 64 00 00 00	 mov	 ecx, 100		; 00000064H
  01ddd	f7 f9		 idiv	 ecx
  01ddf	89 45 1c	 mov	 DWORD PTR _AttackDamage$[ebp], eax

; 1052 : 				}
; 1053 : 				else

  01de2	eb 1f		 jmp	 SHORT $LN510@Attack
$LN511@Attack:

; 1054 : 				{
; 1055 : 					AttackDamage = AttackDamage * (Wing->m_Level * 2 + 112) / 100;	// #formula

  01de4	8b 85 74 fe ff
	ff		 mov	 eax, DWORD PTR _Wing$240168[ebp]
  01dea	0f bf 48 08	 movsx	 ecx, WORD PTR [eax+8]
  01dee	8d 54 09 70	 lea	 edx, DWORD PTR [ecx+ecx+112]
  01df2	8b c2		 mov	 eax, edx
  01df4	0f af 45 1c	 imul	 eax, DWORD PTR _AttackDamage$[ebp]
  01df8	99		 cdq
  01df9	b9 64 00 00 00	 mov	 ecx, 100		; 00000064H
  01dfe	f7 f9		 idiv	 ecx
  01e00	89 45 1c	 mov	 DWORD PTR _AttackDamage$[ebp], eax
$LN510@Attack:

; 1056 : 				}
; 1057 : #ifdef _WINGS_DAMAGE_
; 1058 : 				gWingsDamage.Attack(Wing->m_Type, AttackDamage);

  01e03	8d 45 1c	 lea	 eax, DWORD PTR _AttackDamage$[ebp]
  01e06	50		 push	 eax
  01e07	8b 8d 74 fe ff
	ff		 mov	 ecx, DWORD PTR _Wing$240168[ebp]
  01e0d	0f bf 51 06	 movsx	 edx, WORD PTR [ecx+6]
  01e11	52		 push	 edx
  01e12	b9 00 00 00 00	 mov	 ecx, OFFSET ?gWingsDamage@@3VcWingsDamage@@A ; gWingsDamage
  01e17	e8 00 00 00 00	 call	 ?Attack@cWingsDamage@@QAEXHAAH@Z ; cWingsDamage::Attack

; 1059 : 				gWingsDamage.SetCharWingAttack(lpObj->m_Index, Wing->m_Type, Wing->m_Level, AttackDamage);

  01e1c	8d 45 1c	 lea	 eax, DWORD PTR _AttackDamage$[ebp]
  01e1f	50		 push	 eax
  01e20	8b 8d 74 fe ff
	ff		 mov	 ecx, DWORD PTR _Wing$240168[ebp]
  01e26	0f bf 51 08	 movsx	 edx, WORD PTR [ecx+8]
  01e2a	52		 push	 edx
  01e2b	8b 85 74 fe ff
	ff		 mov	 eax, DWORD PTR _Wing$240168[ebp]
  01e31	0f bf 48 06	 movsx	 ecx, WORD PTR [eax+6]
  01e35	51		 push	 ecx
  01e36	8b 55 08	 mov	 edx, DWORD PTR _lpObj$[ebp]
  01e39	8b 02		 mov	 eax, DWORD PTR [edx]
  01e3b	50		 push	 eax
  01e3c	b9 00 00 00 00	 mov	 ecx, OFFSET ?gWingsDamage@@3VcWingsDamage@@A ; gWingsDamage
  01e41	e8 00 00 00 00	 call	 ?SetCharWingAttack@cWingsDamage@@QAEXHHHAAH@Z ; cWingsDamage::SetCharWingAttack
$LN540@Attack:

; 1060 : #endif // _WINGS_DAMAGE_
; 1061 : 
; 1062 : 			}
; 1063 : 
; 1064 : 			GCReFillSend(lpObj->m_Index, lpObj->Life, 0xFF, 0, lpObj->iShield);

  01e46	8b 45 08	 mov	 eax, DWORD PTR _lpObj$[ebp]
  01e49	8b 88 54 01 00
	00		 mov	 ecx, DWORD PTR [eax+340]
  01e4f	51		 push	 ecx
  01e50	6a 00		 push	 0
  01e52	68 ff 00 00 00	 push	 255			; 000000ffH
  01e57	8b 55 08	 mov	 edx, DWORD PTR _lpObj$[ebp]
  01e5a	d9 82 fc 00 00
	00		 fld	 DWORD PTR [edx+252]
  01e60	e8 00 00 00 00	 call	 __ftol2_sse
  01e65	50		 push	 eax
  01e66	8b 45 08	 mov	 eax, DWORD PTR _lpObj$[ebp]
  01e69	8b 08		 mov	 ecx, DWORD PTR [eax]
  01e6b	51		 push	 ecx
  01e6c	e8 00 00 00 00	 call	 ?GCReFillSend@@YAXHHEEH@Z ; GCReFillSend
  01e71	83 c4 14	 add	 esp, 20			; 00000014H
$LN559@Attack:

; 1065 : 		}
; 1066 : 
; 1067 : 		if ( gObjWingSprite(lpTargetObj) == TRUE )

  01e74	8b 45 0c	 mov	 eax, DWORD PTR _lpTargetObj$[ebp]
  01e77	50		 push	 eax
  01e78	e8 00 00 00 00	 call	 ?gObjWingSprite@@YAHPAUOBJECTSTRUCT@@@Z ; gObjWingSprite
  01e7d	83 c4 04	 add	 esp, 4
  01e80	83 f8 01	 cmp	 eax, 1
  01e83	0f 85 b5 06 00
	00		 jne	 $LN507@Attack

; 1068 : 		{
; 1069 : 			CItem * Wing = &lpTargetObj->pInventory[7];

  01e89	8b 45 0c	 mov	 eax, DWORD PTR _lpTargetObj$[ebp]
  01e8c	8b 88 24 0e 00
	00		 mov	 ecx, DWORD PTR [eax+3620]
  01e92	81 c1 cc 05 00
	00		 add	 ecx, 1484		; 000005ccH
  01e98	89 8d 70 fe ff
	ff		 mov	 DWORD PTR _Wing$240219[ebp], ecx

; 1070 : 
; 1071 : 			if ( Wing->m_Type != ITEMGET(13,30) ) // Cape Of Lord

  01e9e	8b 85 70 fe ff
	ff		 mov	 eax, DWORD PTR _Wing$240219[ebp]
  01ea4	0f bf 48 06	 movsx	 ecx, WORD PTR [eax+6]
  01ea8	81 f9 1e 1a 00
	00		 cmp	 ecx, 6686		; 00001a1eH
  01eae	0f 84 8a 06 00
	00		 je	 $LN507@Attack

; 1072 : 			{
; 1073 : 				if ( AttackDamage > 1 )

  01eb4	83 7d 1c 01	 cmp	 DWORD PTR _AttackDamage$[ebp], 1
  01eb8	0f 8e 80 06 00
	00		 jle	 $LN507@Attack

; 1074 : 				{
; 1075 : 					if ( Wing->m_Type >= ITEMGET(12, 36) && Wing->m_Type <= ITEMGET(12, 40) || Wing->m_Type == ITEMGET(12, 43)) //season 2.5 add-on

  01ebe	8b 85 70 fe ff
	ff		 mov	 eax, DWORD PTR _Wing$240219[ebp]
  01ec4	0f bf 48 06	 movsx	 ecx, WORD PTR [eax+6]
  01ec8	81 f9 24 18 00
	00		 cmp	 ecx, 6180		; 00001824H
  01ece	7c 12		 jl	 SHORT $LN504@Attack
  01ed0	8b 85 70 fe ff
	ff		 mov	 eax, DWORD PTR _Wing$240219[ebp]
  01ed6	0f bf 48 06	 movsx	 ecx, WORD PTR [eax+6]
  01eda	81 f9 28 18 00
	00		 cmp	 ecx, 6184		; 00001828H
  01ee0	7e 16		 jle	 SHORT $LN505@Attack
$LN504@Attack:
  01ee2	8b 85 70 fe ff
	ff		 mov	 eax, DWORD PTR _Wing$240219[ebp]
  01ee8	0f bf 48 06	 movsx	 ecx, WORD PTR [eax+6]
  01eec	81 f9 2b 18 00
	00		 cmp	 ecx, 6187		; 0000182bH
  01ef2	0f 85 ff 00 00
	00		 jne	 $LN498@Attack
$LN505@Attack:

; 1076 : 					{
; 1077 : 						if(Wing->m_Type == ITEMGET(12,40))

  01ef8	8b 85 70 fe ff
	ff		 mov	 eax, DWORD PTR _Wing$240219[ebp]
  01efe	0f bf 48 06	 movsx	 ecx, WORD PTR [eax+6]
  01f02	81 f9 28 18 00
	00		 cmp	 ecx, 6184		; 00001828H
  01f08	75 3f		 jne	 SHORT $LN503@Attack

; 1078 : 						{
; 1079 : 							float damage = (float)(AttackDamage * (76 - (Wing->m_Level*2))) / 100.0f;

  01f0a	8b 85 70 fe ff
	ff		 mov	 eax, DWORD PTR _Wing$240219[ebp]
  01f10	0f bf 48 08	 movsx	 ecx, WORD PTR [eax+8]
  01f14	d1 e1		 shl	 ecx, 1
  01f16	ba 4c 00 00 00	 mov	 edx, 76			; 0000004cH
  01f1b	2b d1		 sub	 edx, ecx
  01f1d	0f af 55 1c	 imul	 edx, DWORD PTR _AttackDamage$[ebp]
  01f21	89 95 c8 fc ff
	ff		 mov	 DWORD PTR tv5700[ebp], edx
  01f27	db 85 c8 fc ff
	ff		 fild	 DWORD PTR tv5700[ebp]
  01f2d	dc 35 00 00 00
	00		 fdiv	 QWORD PTR __real@4059000000000000
  01f33	d9 9d 6c fe ff
	ff		 fstp	 DWORD PTR _damage$240226[ebp]

; 1080 : 							AttackDamage = (int)(damage);	//  #formula

  01f39	d9 85 6c fe ff
	ff		 fld	 DWORD PTR _damage$240226[ebp]
  01f3f	e8 00 00 00 00	 call	 __ftol2_sse
  01f44	89 45 1c	 mov	 DWORD PTR _AttackDamage$[ebp], eax

; 1081 : 						}
; 1082 : 						else

  01f47	eb 3d		 jmp	 SHORT $LN502@Attack
$LN503@Attack:

; 1083 : 						{
; 1084 : 							
; 1085 : 							float damage = (float)(AttackDamage * (61 - (Wing->m_Level*2))) / 100.0f;

  01f49	8b 85 70 fe ff
	ff		 mov	 eax, DWORD PTR _Wing$240219[ebp]
  01f4f	0f bf 48 08	 movsx	 ecx, WORD PTR [eax+8]
  01f53	d1 e1		 shl	 ecx, 1
  01f55	ba 3d 00 00 00	 mov	 edx, 61			; 0000003dH
  01f5a	2b d1		 sub	 edx, ecx
  01f5c	0f af 55 1c	 imul	 edx, DWORD PTR _AttackDamage$[ebp]
  01f60	89 95 c8 fc ff
	ff		 mov	 DWORD PTR tv5711[ebp], edx
  01f66	db 85 c8 fc ff
	ff		 fild	 DWORD PTR tv5711[ebp]
  01f6c	dc 35 00 00 00
	00		 fdiv	 QWORD PTR __real@4059000000000000
  01f72	d9 9d 68 fe ff
	ff		 fstp	 DWORD PTR _damage$240230[ebp]

; 1086 : 							AttackDamage = (int)(damage);	//  #formula

  01f78	d9 85 68 fe ff
	ff		 fld	 DWORD PTR _damage$240230[ebp]
  01f7e	e8 00 00 00 00	 call	 __ftol2_sse
  01f83	89 45 1c	 mov	 DWORD PTR _AttackDamage$[ebp], eax
$LN502@Attack:

; 1087 : 						}
; 1088 : 
; 1089 : 						if((rand()%100)< 5)

  01f86	e8 00 00 00 00	 call	 _rand
  01f8b	99		 cdq
  01f8c	b9 64 00 00 00	 mov	 ecx, 100		; 00000064H
  01f91	f7 f9		 idiv	 ecx
  01f93	83 fa 05	 cmp	 edx, 5
  01f96	7d 5f		 jge	 SHORT $LN498@Attack

; 1090 : 						{
; 1091 : 							BYTE WingOption = lpTargetObj->pInventory[7].m_NewOption;

  01f98	8b 45 0c	 mov	 eax, DWORD PTR _lpTargetObj$[ebp]
  01f9b	8b 88 24 0e 00
	00		 mov	 ecx, DWORD PTR [eax+3620]
  01fa1	8a 91 63 06 00
	00		 mov	 dl, BYTE PTR [ecx+1635]
  01fa7	88 95 67 fe ff
	ff		 mov	 BYTE PTR _WingOption$240234[ebp], dl

; 1092 : 							
; 1093 : 							if((WingOption&4) == 4) // 5% Chance of Recover Full Life

  01fad	0f b6 85 67 fe
	ff ff		 movzx	 eax, BYTE PTR _WingOption$240234[ebp]
  01fb4	83 e0 04	 and	 eax, 4
  01fb7	74 1a		 je	 SHORT $LN500@Attack

; 1094 : 							{
; 1095 : 								gObjAddMsgSendDelay(lpTargetObj,13,lpObj->m_Index,100,0);

  01fb9	6a 00		 push	 0
  01fbb	6a 64		 push	 100			; 00000064H
  01fbd	8b 45 08	 mov	 eax, DWORD PTR _lpObj$[ebp]
  01fc0	8b 08		 mov	 ecx, DWORD PTR [eax]
  01fc2	51		 push	 ecx
  01fc3	6a 0d		 push	 13			; 0000000dH
  01fc5	8b 55 0c	 mov	 edx, DWORD PTR _lpTargetObj$[ebp]
  01fc8	52		 push	 edx
  01fc9	e8 00 00 00 00	 call	 ?gObjAddMsgSendDelay@@YAXPAUOBJECTSTRUCT@@HHHH@Z ; gObjAddMsgSendDelay
  01fce	83 c4 14	 add	 esp, 20			; 00000014H

; 1096 : 							}
; 1097 : 							else

  01fd1	eb 24		 jmp	 SHORT $LN498@Attack
$LN500@Attack:

; 1098 : 							{
; 1099 : 								if((WingOption&8) == 8) // 5% Chance of Recover Full Mana

  01fd3	0f b6 85 67 fe
	ff ff		 movzx	 eax, BYTE PTR _WingOption$240234[ebp]
  01fda	83 e0 08	 and	 eax, 8
  01fdd	74 18		 je	 SHORT $LN498@Attack

; 1100 : 								{
; 1101 : 									gObjAddMsgSendDelay(lpTargetObj,14,lpObj->m_Index,100,0);

  01fdf	6a 00		 push	 0
  01fe1	6a 64		 push	 100			; 00000064H
  01fe3	8b 45 08	 mov	 eax, DWORD PTR _lpObj$[ebp]
  01fe6	8b 08		 mov	 ecx, DWORD PTR [eax]
  01fe8	51		 push	 ecx
  01fe9	6a 0e		 push	 14			; 0000000eH
  01feb	8b 55 0c	 mov	 edx, DWORD PTR _lpTargetObj$[ebp]
  01fee	52		 push	 edx
  01fef	e8 00 00 00 00	 call	 ?gObjAddMsgSendDelay@@YAXPAUOBJECTSTRUCT@@HHHH@Z ; gObjAddMsgSendDelay
  01ff4	83 c4 14	 add	 esp, 20			; 00000014H
$LN498@Attack:

; 1102 : 								}
; 1103 : 							}
; 1104 : 						}
; 1105 : 					}
; 1106 : #ifdef NEWWINGS_4
; 1107 : 					if ( IS_NEWWINGS_4(Wing->m_Type) ) //season 2.5 add-on

  01ff7	8b 85 70 fe ff
	ff		 mov	 eax, DWORD PTR _Wing$240219[ebp]
  01ffd	0f bf 48 06	 movsx	 ecx, WORD PTR [eax+6]
  02001	81 f9 b4 18 00
	00		 cmp	 ecx, 6324		; 000018b4H
  02007	7d 0c		 jge	 SHORT $LN759@Attack
  02009	c7 85 c8 fc ff
	ff 00 00 00 00	 mov	 DWORD PTR tv1495[ebp], 0
  02013	eb 1a		 jmp	 SHORT $LN760@Attack
$LN759@Attack:
  02015	8b 95 70 fe ff
	ff		 mov	 edx, DWORD PTR _Wing$240219[ebp]
  0201b	0f bf 42 06	 movsx	 eax, WORD PTR [edx+6]
  0201f	33 c9		 xor	 ecx, ecx
  02021	3d b9 18 00 00	 cmp	 eax, 6329		; 000018b9H
  02026	0f 9e c1	 setle	 cl
  02029	89 8d c8 fc ff
	ff		 mov	 DWORD PTR tv1495[ebp], ecx
$LN760@Attack:
  0202f	83 bd c8 fc ff
	ff 00		 cmp	 DWORD PTR tv1495[ebp], 0
  02036	0f 84 ff 00 00
	00		 je	 $LN491@Attack

; 1108 : 					{
; 1109 : 						if(Wing->m_Type == ITEMGET(12,184))

  0203c	8b 85 70 fe ff
	ff		 mov	 eax, DWORD PTR _Wing$240219[ebp]
  02042	0f bf 48 06	 movsx	 ecx, WORD PTR [eax+6]
  02046	81 f9 b8 18 00
	00		 cmp	 ecx, 6328		; 000018b8H
  0204c	75 3f		 jne	 SHORT $LN496@Attack

; 1110 : 						{
; 1111 : 							float damage = (float)(AttackDamage * (70 - (Wing->m_Level*2))) / 100.0f;

  0204e	8b 85 70 fe ff
	ff		 mov	 eax, DWORD PTR _Wing$240219[ebp]
  02054	0f bf 48 08	 movsx	 ecx, WORD PTR [eax+8]
  02058	d1 e1		 shl	 ecx, 1
  0205a	ba 46 00 00 00	 mov	 edx, 70			; 00000046H
  0205f	2b d1		 sub	 edx, ecx
  02061	0f af 55 1c	 imul	 edx, DWORD PTR _AttackDamage$[ebp]
  02065	89 95 c8 fc ff
	ff		 mov	 DWORD PTR tv5741[ebp], edx
  0206b	db 85 c8 fc ff
	ff		 fild	 DWORD PTR tv5741[ebp]
  02071	dc 35 00 00 00
	00		 fdiv	 QWORD PTR __real@4059000000000000
  02077	d9 9d 60 fe ff
	ff		 fstp	 DWORD PTR _damage$240240[ebp]

; 1112 : 						AttackDamage = (int)(damage);	//  #formula

  0207d	d9 85 60 fe ff
	ff		 fld	 DWORD PTR _damage$240240[ebp]
  02083	e8 00 00 00 00	 call	 __ftol2_sse
  02088	89 45 1c	 mov	 DWORD PTR _AttackDamage$[ebp], eax

; 1113 : 						}
; 1114 : 						else

  0208b	eb 3d		 jmp	 SHORT $LN495@Attack
$LN496@Attack:

; 1115 : 						{
; 1116 : 							//int ABXCON4 = 55;
; 1117 : 							float damage = (float)(AttackDamage * (55/*55*/ - (Wing->m_Level*2))) / 100.0f;

  0208d	8b 85 70 fe ff
	ff		 mov	 eax, DWORD PTR _Wing$240219[ebp]
  02093	0f bf 48 08	 movsx	 ecx, WORD PTR [eax+8]
  02097	d1 e1		 shl	 ecx, 1
  02099	ba 37 00 00 00	 mov	 edx, 55			; 00000037H
  0209e	2b d1		 sub	 edx, ecx
  020a0	0f af 55 1c	 imul	 edx, DWORD PTR _AttackDamage$[ebp]
  020a4	89 95 c8 fc ff
	ff		 mov	 DWORD PTR tv5752[ebp], edx
  020aa	db 85 c8 fc ff
	ff		 fild	 DWORD PTR tv5752[ebp]
  020b0	dc 35 00 00 00
	00		 fdiv	 QWORD PTR __real@4059000000000000
  020b6	d9 9d 5c fe ff
	ff		 fstp	 DWORD PTR _damage$240244[ebp]

; 1118 : 							AttackDamage = (int)(damage);	//  #formula

  020bc	d9 85 5c fe ff
	ff		 fld	 DWORD PTR _damage$240244[ebp]
  020c2	e8 00 00 00 00	 call	 __ftol2_sse
  020c7	89 45 1c	 mov	 DWORD PTR _AttackDamage$[ebp], eax
$LN495@Attack:

; 1119 : 						}
; 1120 : 
; 1121 : 						if((rand()%100)< 5)

  020ca	e8 00 00 00 00	 call	 _rand
  020cf	99		 cdq
  020d0	b9 64 00 00 00	 mov	 ecx, 100		; 00000064H
  020d5	f7 f9		 idiv	 ecx
  020d7	83 fa 05	 cmp	 edx, 5
  020da	7d 5f		 jge	 SHORT $LN491@Attack

; 1122 : 						{
; 1123 : 							BYTE WingOption = lpTargetObj->pInventory[7].m_NewOption;

  020dc	8b 45 0c	 mov	 eax, DWORD PTR _lpTargetObj$[ebp]
  020df	8b 88 24 0e 00
	00		 mov	 ecx, DWORD PTR [eax+3620]
  020e5	8a 91 63 06 00
	00		 mov	 dl, BYTE PTR [ecx+1635]
  020eb	88 95 5b fe ff
	ff		 mov	 BYTE PTR _WingOption$240248[ebp], dl

; 1124 : 							
; 1125 : 							if((WingOption&4) == 4) // 5% Chance of Recover Full Life

  020f1	0f b6 85 5b fe
	ff ff		 movzx	 eax, BYTE PTR _WingOption$240248[ebp]
  020f8	83 e0 04	 and	 eax, 4
  020fb	74 1a		 je	 SHORT $LN493@Attack

; 1126 : 							{
; 1127 : 								gObjAddMsgSendDelay(lpTargetObj,13,lpObj->m_Index,100,0);

  020fd	6a 00		 push	 0
  020ff	6a 64		 push	 100			; 00000064H
  02101	8b 45 08	 mov	 eax, DWORD PTR _lpObj$[ebp]
  02104	8b 08		 mov	 ecx, DWORD PTR [eax]
  02106	51		 push	 ecx
  02107	6a 0d		 push	 13			; 0000000dH
  02109	8b 55 0c	 mov	 edx, DWORD PTR _lpTargetObj$[ebp]
  0210c	52		 push	 edx
  0210d	e8 00 00 00 00	 call	 ?gObjAddMsgSendDelay@@YAXPAUOBJECTSTRUCT@@HHHH@Z ; gObjAddMsgSendDelay
  02112	83 c4 14	 add	 esp, 20			; 00000014H

; 1128 : 							}
; 1129 : 							else

  02115	eb 24		 jmp	 SHORT $LN491@Attack
$LN493@Attack:

; 1130 : 							{
; 1131 : 								if((WingOption&8) == 8) // 5% Chance of Recover Full Mana

  02117	0f b6 85 5b fe
	ff ff		 movzx	 eax, BYTE PTR _WingOption$240248[ebp]
  0211e	83 e0 08	 and	 eax, 8
  02121	74 18		 je	 SHORT $LN491@Attack

; 1132 : 								{
; 1133 : 									gObjAddMsgSendDelay(lpTargetObj,14,lpObj->m_Index,100,0);

  02123	6a 00		 push	 0
  02125	6a 64		 push	 100			; 00000064H
  02127	8b 45 08	 mov	 eax, DWORD PTR _lpObj$[ebp]
  0212a	8b 08		 mov	 ecx, DWORD PTR [eax]
  0212c	51		 push	 ecx
  0212d	6a 0e		 push	 14			; 0000000eH
  0212f	8b 55 0c	 mov	 edx, DWORD PTR _lpTargetObj$[ebp]
  02132	52		 push	 edx
  02133	e8 00 00 00 00	 call	 ?gObjAddMsgSendDelay@@YAXPAUOBJECTSTRUCT@@HHHH@Z ; gObjAddMsgSendDelay
  02138	83 c4 14	 add	 esp, 20			; 00000014H
$LN491@Attack:

; 1134 : 								}
; 1135 : 							}
; 1136 : 						}
; 1137 : 					}
; 1138 : #endif
; 1139 : #ifdef NEWWINGS_2_5
; 1140 : 					if ( IS_NEWWINGS_2_5(Wing->m_Type) ) //season 2.5 add-on

  0213b	8b 85 70 fe ff
	ff		 mov	 eax, DWORD PTR _Wing$240219[ebp]
  02141	0f bf 48 06	 movsx	 ecx, WORD PTR [eax+6]
  02145	81 f9 ba 18 00
	00		 cmp	 ecx, 6330		; 000018baH
  0214b	7d 0c		 jge	 SHORT $LN761@Attack
  0214d	c7 85 c8 fc ff
	ff 00 00 00 00	 mov	 DWORD PTR tv1549[ebp], 0
  02157	eb 1a		 jmp	 SHORT $LN762@Attack
$LN761@Attack:
  02159	8b 95 70 fe ff
	ff		 mov	 edx, DWORD PTR _Wing$240219[ebp]
  0215f	0f bf 42 06	 movsx	 eax, WORD PTR [edx+6]
  02163	33 c9		 xor	 ecx, ecx
  02165	3d bc 18 00 00	 cmp	 eax, 6332		; 000018bcH
  0216a	0f 9e c1	 setle	 cl
  0216d	89 8d c8 fc ff
	ff		 mov	 DWORD PTR tv1549[ebp], ecx
$LN762@Attack:
  02173	83 bd c8 fc ff
	ff 00		 cmp	 DWORD PTR tv1549[ebp], 0
  0217a	0f 84 ae 00 00
	00		 je	 $LN486@Attack

; 1141 : 					{
; 1142 : 						float damage = (float)(AttackDamage * (65 - (Wing->m_Level*2))) / 100.0f;

  02180	8b 85 70 fe ff
	ff		 mov	 eax, DWORD PTR _Wing$240219[ebp]
  02186	0f bf 48 08	 movsx	 ecx, WORD PTR [eax+8]
  0218a	d1 e1		 shl	 ecx, 1
  0218c	ba 41 00 00 00	 mov	 edx, 65			; 00000041H
  02191	2b d1		 sub	 edx, ecx
  02193	0f af 55 1c	 imul	 edx, DWORD PTR _AttackDamage$[ebp]
  02197	89 95 c8 fc ff
	ff		 mov	 DWORD PTR tv5781[ebp], edx
  0219d	db 85 c8 fc ff
	ff		 fild	 DWORD PTR tv5781[ebp]
  021a3	dc 35 00 00 00
	00		 fdiv	 QWORD PTR __real@4059000000000000
  021a9	d9 9d 54 fe ff
	ff		 fstp	 DWORD PTR _damage$240253[ebp]

; 1143 : 						AttackDamage = (int)(damage);	//  #formula

  021af	d9 85 54 fe ff
	ff		 fld	 DWORD PTR _damage$240253[ebp]
  021b5	e8 00 00 00 00	 call	 __ftol2_sse
  021ba	89 45 1c	 mov	 DWORD PTR _AttackDamage$[ebp], eax

; 1144 : 
; 1145 : 
; 1146 : 						if((rand()%100)< 5)

  021bd	e8 00 00 00 00	 call	 _rand
  021c2	99		 cdq
  021c3	b9 64 00 00 00	 mov	 ecx, 100		; 00000064H
  021c8	f7 f9		 idiv	 ecx
  021ca	83 fa 05	 cmp	 edx, 5
  021cd	7d 5f		 jge	 SHORT $LN486@Attack

; 1147 : 						{
; 1148 : 							BYTE WingOption = lpTargetObj->pInventory[7].m_NewOption;

  021cf	8b 45 0c	 mov	 eax, DWORD PTR _lpTargetObj$[ebp]
  021d2	8b 88 24 0e 00
	00		 mov	 ecx, DWORD PTR [eax+3620]
  021d8	8a 91 63 06 00
	00		 mov	 dl, BYTE PTR [ecx+1635]
  021de	88 95 53 fe ff
	ff		 mov	 BYTE PTR _WingOption$240257[ebp], dl

; 1149 : 							
; 1150 : 							if((WingOption&4) == 4) // 5% Chance of Recover Full Life

  021e4	0f b6 85 53 fe
	ff ff		 movzx	 eax, BYTE PTR _WingOption$240257[ebp]
  021eb	83 e0 04	 and	 eax, 4
  021ee	74 1a		 je	 SHORT $LN488@Attack

; 1151 : 							{
; 1152 : 								gObjAddMsgSendDelay(lpTargetObj,13,lpObj->m_Index,100,0);

  021f0	6a 00		 push	 0
  021f2	6a 64		 push	 100			; 00000064H
  021f4	8b 45 08	 mov	 eax, DWORD PTR _lpObj$[ebp]
  021f7	8b 08		 mov	 ecx, DWORD PTR [eax]
  021f9	51		 push	 ecx
  021fa	6a 0d		 push	 13			; 0000000dH
  021fc	8b 55 0c	 mov	 edx, DWORD PTR _lpTargetObj$[ebp]
  021ff	52		 push	 edx
  02200	e8 00 00 00 00	 call	 ?gObjAddMsgSendDelay@@YAXPAUOBJECTSTRUCT@@HHHH@Z ; gObjAddMsgSendDelay
  02205	83 c4 14	 add	 esp, 20			; 00000014H

; 1153 : 							}
; 1154 : 							else

  02208	eb 24		 jmp	 SHORT $LN486@Attack
$LN488@Attack:

; 1155 : 							{
; 1156 : 								if((WingOption&8) == 8) // 5% Chance of Recover Full Mana

  0220a	0f b6 85 53 fe
	ff ff		 movzx	 eax, BYTE PTR _WingOption$240257[ebp]
  02211	83 e0 08	 and	 eax, 8
  02214	74 18		 je	 SHORT $LN486@Attack

; 1157 : 								{
; 1158 : 									gObjAddMsgSendDelay(lpTargetObj,14,lpObj->m_Index,100,0);

  02216	6a 00		 push	 0
  02218	6a 64		 push	 100			; 00000064H
  0221a	8b 45 08	 mov	 eax, DWORD PTR _lpObj$[ebp]
  0221d	8b 08		 mov	 ecx, DWORD PTR [eax]
  0221f	51		 push	 ecx
  02220	6a 0e		 push	 14			; 0000000eH
  02222	8b 55 0c	 mov	 edx, DWORD PTR _lpTargetObj$[ebp]
  02225	52		 push	 edx
  02226	e8 00 00 00 00	 call	 ?gObjAddMsgSendDelay@@YAXPAUOBJECTSTRUCT@@HHHH@Z ; gObjAddMsgSendDelay
  0222b	83 c4 14	 add	 esp, 20			; 00000014H
$LN486@Attack:

; 1159 : 								}
; 1160 : 							}
; 1161 : 						}
; 1162 : 					}
; 1163 : #endif
; 1164 : #ifdef NEWWINGS_5
; 1165 : 					if ( IS_NEWWINGS_5(Wing->m_Type) ) //season 2.5 add-on

  0222e	8b 85 70 fe ff
	ff		 mov	 eax, DWORD PTR _Wing$240219[ebp]
  02234	0f bf 48 06	 movsx	 ecx, WORD PTR [eax+6]
  02238	81 f9 bd 18 00
	00		 cmp	 ecx, 6333		; 000018bdH
  0223e	7d 0c		 jge	 SHORT $LN763@Attack
  02240	c7 85 c8 fc ff
	ff 00 00 00 00	 mov	 DWORD PTR tv1590[ebp], 0
  0224a	eb 1a		 jmp	 SHORT $LN764@Attack
$LN763@Attack:
  0224c	8b 95 70 fe ff
	ff		 mov	 edx, DWORD PTR _Wing$240219[ebp]
  02252	0f bf 42 06	 movsx	 eax, WORD PTR [edx+6]
  02256	33 c9		 xor	 ecx, ecx
  02258	3d c2 18 00 00	 cmp	 eax, 6338		; 000018c2H
  0225d	0f 9e c1	 setle	 cl
  02260	89 8d c8 fc ff
	ff		 mov	 DWORD PTR tv1590[ebp], ecx
$LN764@Attack:
  02266	83 bd c8 fc ff
	ff 00		 cmp	 DWORD PTR tv1590[ebp], 0
  0226d	0f 84 ae 00 00
	00		 je	 $LN481@Attack

; 1166 : 					{
; 1167 : 							//int ABXCON5 = 35;
; 1168 : 						float damage = (float)(AttackDamage * (50/**//*100*/ - (Wing->m_Level*2))) / 100.0f;   // Fix Damage wings 5lvl in Pvp

  02273	8b 85 70 fe ff
	ff		 mov	 eax, DWORD PTR _Wing$240219[ebp]
  02279	0f bf 48 08	 movsx	 ecx, WORD PTR [eax+8]
  0227d	d1 e1		 shl	 ecx, 1
  0227f	ba 32 00 00 00	 mov	 edx, 50			; 00000032H
  02284	2b d1		 sub	 edx, ecx
  02286	0f af 55 1c	 imul	 edx, DWORD PTR _AttackDamage$[ebp]
  0228a	89 95 c8 fc ff
	ff		 mov	 DWORD PTR tv5810[ebp], edx
  02290	db 85 c8 fc ff
	ff		 fild	 DWORD PTR tv5810[ebp]
  02296	dc 35 00 00 00
	00		 fdiv	 QWORD PTR __real@4059000000000000
  0229c	d9 9d 4c fe ff
	ff		 fstp	 DWORD PTR _damage$240262[ebp]

; 1169 : 						AttackDamage = (int)(damage);	//  #formula

  022a2	d9 85 4c fe ff
	ff		 fld	 DWORD PTR _damage$240262[ebp]
  022a8	e8 00 00 00 00	 call	 __ftol2_sse
  022ad	89 45 1c	 mov	 DWORD PTR _AttackDamage$[ebp], eax

; 1170 : 							
; 1171 : 
; 1172 : 
; 1173 : 						if((rand()%100)< 5)

  022b0	e8 00 00 00 00	 call	 _rand
  022b5	99		 cdq
  022b6	b9 64 00 00 00	 mov	 ecx, 100		; 00000064H
  022bb	f7 f9		 idiv	 ecx
  022bd	83 fa 05	 cmp	 edx, 5
  022c0	7d 5f		 jge	 SHORT $LN481@Attack

; 1174 : 						{
; 1175 : 							BYTE WingOption = lpTargetObj->pInventory[7].m_NewOption;

  022c2	8b 45 0c	 mov	 eax, DWORD PTR _lpTargetObj$[ebp]
  022c5	8b 88 24 0e 00
	00		 mov	 ecx, DWORD PTR [eax+3620]
  022cb	8a 91 63 06 00
	00		 mov	 dl, BYTE PTR [ecx+1635]
  022d1	88 95 4b fe ff
	ff		 mov	 BYTE PTR _WingOption$240266[ebp], dl

; 1176 : 							
; 1177 : 							if((WingOption&4) == 4) // 5% Chance of Recover Full Life

  022d7	0f b6 85 4b fe
	ff ff		 movzx	 eax, BYTE PTR _WingOption$240266[ebp]
  022de	83 e0 04	 and	 eax, 4
  022e1	74 1a		 je	 SHORT $LN483@Attack

; 1178 : 							{
; 1179 : 								gObjAddMsgSendDelay(lpTargetObj,13,lpObj->m_Index,100,0);

  022e3	6a 00		 push	 0
  022e5	6a 64		 push	 100			; 00000064H
  022e7	8b 45 08	 mov	 eax, DWORD PTR _lpObj$[ebp]
  022ea	8b 08		 mov	 ecx, DWORD PTR [eax]
  022ec	51		 push	 ecx
  022ed	6a 0d		 push	 13			; 0000000dH
  022ef	8b 55 0c	 mov	 edx, DWORD PTR _lpTargetObj$[ebp]
  022f2	52		 push	 edx
  022f3	e8 00 00 00 00	 call	 ?gObjAddMsgSendDelay@@YAXPAUOBJECTSTRUCT@@HHHH@Z ; gObjAddMsgSendDelay
  022f8	83 c4 14	 add	 esp, 20			; 00000014H

; 1180 : 							}
; 1181 : 							else

  022fb	eb 24		 jmp	 SHORT $LN481@Attack
$LN483@Attack:

; 1182 : 							{
; 1183 : 								if((WingOption&8) == 8) // 5% Chance of Recover Full Mana

  022fd	0f b6 85 4b fe
	ff ff		 movzx	 eax, BYTE PTR _WingOption$240266[ebp]
  02304	83 e0 08	 and	 eax, 8
  02307	74 18		 je	 SHORT $LN481@Attack

; 1184 : 								{
; 1185 : 									gObjAddMsgSendDelay(lpTargetObj,14,lpObj->m_Index,100,0);

  02309	6a 00		 push	 0
  0230b	6a 64		 push	 100			; 00000064H
  0230d	8b 45 08	 mov	 eax, DWORD PTR _lpObj$[ebp]
  02310	8b 08		 mov	 ecx, DWORD PTR [eax]
  02312	51		 push	 ecx
  02313	6a 0e		 push	 14			; 0000000eH
  02315	8b 55 0c	 mov	 edx, DWORD PTR _lpTargetObj$[ebp]
  02318	52		 push	 edx
  02319	e8 00 00 00 00	 call	 ?gObjAddMsgSendDelay@@YAXPAUOBJECTSTRUCT@@HHHH@Z ; gObjAddMsgSendDelay
  0231e	83 c4 14	 add	 esp, 20			; 00000014H
$LN481@Attack:

; 1186 : 								}
; 1187 : 							}
; 1188 : 						}
; 1189 : 					}
; 1190 : #endif
; 1191 : #ifdef NEWWINGS_6
; 1192 : 					if ( IS_NEWWINGS_6(Wing->m_Type) ) //season 2.5 add-on

  02321	8b 85 70 fe ff
	ff		 mov	 eax, DWORD PTR _Wing$240219[ebp]
  02327	0f bf 48 06	 movsx	 ecx, WORD PTR [eax+6]
  0232b	81 f9 c3 18 00
	00		 cmp	 ecx, 6339		; 000018c3H
  02331	7d 0c		 jge	 SHORT $LN765@Attack
  02333	c7 85 c8 fc ff
	ff 00 00 00 00	 mov	 DWORD PTR tv1631[ebp], 0
  0233d	eb 1a		 jmp	 SHORT $LN766@Attack
$LN765@Attack:
  0233f	8b 95 70 fe ff
	ff		 mov	 edx, DWORD PTR _Wing$240219[ebp]
  02345	0f bf 42 06	 movsx	 eax, WORD PTR [edx+6]
  02349	33 c9		 xor	 ecx, ecx
  0234b	3d dc 18 00 00	 cmp	 eax, 6364		; 000018dcH
  02350	0f 9e c1	 setle	 cl
  02353	89 8d c8 fc ff
	ff		 mov	 DWORD PTR tv1631[ebp], ecx
$LN766@Attack:
  02359	83 bd c8 fc ff
	ff 00		 cmp	 DWORD PTR tv1631[ebp], 0
  02360	0f 84 b3 00 00
	00		 je	 $LN480@Attack

; 1193 : 					{
; 1194 : 						//if(g_ExLicense.CheckUser(eExUB::PrideMuLocal || eExUB::PrideMu || eExUB::Local3 || eExUB::Local2)){
; 1195 : 			
; 1196 : 						float damage = (float)(AttackDamage * (40/*100*/ - (Wing->m_Level*2))) / 100.0f;   // Fix Damage wings 5lvl in Pvp

  02366	8b 85 70 fe ff
	ff		 mov	 eax, DWORD PTR _Wing$240219[ebp]
  0236c	0f bf 48 08	 movsx	 ecx, WORD PTR [eax+8]
  02370	d1 e1		 shl	 ecx, 1
  02372	ba 28 00 00 00	 mov	 edx, 40			; 00000028H
  02377	2b d1		 sub	 edx, ecx
  02379	0f af 55 1c	 imul	 edx, DWORD PTR _AttackDamage$[ebp]
  0237d	89 95 c8 fc ff
	ff		 mov	 DWORD PTR tv5839[ebp], edx
  02383	db 85 c8 fc ff
	ff		 fild	 DWORD PTR tv5839[ebp]
  02389	dc 35 00 00 00
	00		 fdiv	 QWORD PTR __real@4059000000000000
  0238f	d9 9d 44 fe ff
	ff		 fstp	 DWORD PTR _damage$240271[ebp]

; 1197 : 						AttackDamage = (int)(damage);	//  #formula

  02395	d9 85 44 fe ff
	ff		 fld	 DWORD PTR _damage$240271[ebp]
  0239b	e8 00 00 00 00	 call	 __ftol2_sse
  023a0	89 45 1c	 mov	 DWORD PTR _AttackDamage$[ebp], eax

; 1198 : 
; 1199 : 
; 1200 : 						if((rand()%100)< 5)

  023a3	e8 00 00 00 00	 call	 _rand
  023a8	99		 cdq
  023a9	b9 64 00 00 00	 mov	 ecx, 100		; 00000064H
  023ae	f7 f9		 idiv	 ecx
  023b0	83 fa 05	 cmp	 edx, 5
  023b3	7d 5f		 jge	 SHORT $LN476@Attack

; 1201 : 						{
; 1202 : 							BYTE WingOption = lpTargetObj->pInventory[7].m_NewOption;

  023b5	8b 45 0c	 mov	 eax, DWORD PTR _lpTargetObj$[ebp]
  023b8	8b 88 24 0e 00
	00		 mov	 ecx, DWORD PTR [eax+3620]
  023be	8a 91 63 06 00
	00		 mov	 dl, BYTE PTR [ecx+1635]
  023c4	88 95 43 fe ff
	ff		 mov	 BYTE PTR _WingOption$240275[ebp], dl

; 1203 : 							
; 1204 : 							if((WingOption&4) == 4) // 5% Chance of Recover Full Life

  023ca	0f b6 85 43 fe
	ff ff		 movzx	 eax, BYTE PTR _WingOption$240275[ebp]
  023d1	83 e0 04	 and	 eax, 4
  023d4	74 1a		 je	 SHORT $LN478@Attack

; 1205 : 							{
; 1206 : 								gObjAddMsgSendDelay(lpTargetObj,13,lpObj->m_Index,100,0);

  023d6	6a 00		 push	 0
  023d8	6a 64		 push	 100			; 00000064H
  023da	8b 45 08	 mov	 eax, DWORD PTR _lpObj$[ebp]
  023dd	8b 08		 mov	 ecx, DWORD PTR [eax]
  023df	51		 push	 ecx
  023e0	6a 0d		 push	 13			; 0000000dH
  023e2	8b 55 0c	 mov	 edx, DWORD PTR _lpTargetObj$[ebp]
  023e5	52		 push	 edx
  023e6	e8 00 00 00 00	 call	 ?gObjAddMsgSendDelay@@YAXPAUOBJECTSTRUCT@@HHHH@Z ; gObjAddMsgSendDelay
  023eb	83 c4 14	 add	 esp, 20			; 00000014H

; 1207 : 							}
; 1208 : 							else

  023ee	eb 24		 jmp	 SHORT $LN476@Attack
$LN478@Attack:

; 1209 : 							{
; 1210 : 								if((WingOption&8) == 8) // 5% Chance of Recover Full Mana

  023f0	0f b6 85 43 fe
	ff ff		 movzx	 eax, BYTE PTR _WingOption$240275[ebp]
  023f7	83 e0 08	 and	 eax, 8
  023fa	74 18		 je	 SHORT $LN476@Attack

; 1211 : 								{
; 1212 : 									gObjAddMsgSendDelay(lpTargetObj,14,lpObj->m_Index,100,0);

  023fc	6a 00		 push	 0
  023fe	6a 64		 push	 100			; 00000064H
  02400	8b 45 08	 mov	 eax, DWORD PTR _lpObj$[ebp]
  02403	8b 08		 mov	 ecx, DWORD PTR [eax]
  02405	51		 push	 ecx
  02406	6a 0e		 push	 14			; 0000000eH
  02408	8b 55 0c	 mov	 edx, DWORD PTR _lpTargetObj$[ebp]
  0240b	52		 push	 edx
  0240c	e8 00 00 00 00	 call	 ?gObjAddMsgSendDelay@@YAXPAUOBJECTSTRUCT@@HHHH@Z ; gObjAddMsgSendDelay
  02411	83 c4 14	 add	 esp, 20			; 00000014H
$LN476@Attack:

; 1213 : 								}
; 1214 : 							}
; 1215 : 						  }
; 1216 : 						//}
; 1217 : 					}

  02414	e9 e2 00 00 00	 jmp	 $LN471@Attack
$LN480@Attack:

; 1218 : #endif
; 1219 : 					else if ( Wing->m_Type == ITEMGET(12,49) )

  02419	8b 85 70 fe ff
	ff		 mov	 eax, DWORD PTR _Wing$240219[ebp]
  0241f	0f bf 48 06	 movsx	 ecx, WORD PTR [eax+6]
  02423	81 f9 31 18 00
	00		 cmp	 ecx, 6193		; 00001831H
  02429	75 42		 jne	 SHORT $LN474@Attack

; 1220 : 					{
; 1221 : 						float damage = (float)(AttackDamage * (90 - (Wing->m_Level*2))) / 100.0f;

  0242b	8b 85 70 fe ff
	ff		 mov	 eax, DWORD PTR _Wing$240219[ebp]
  02431	0f bf 48 08	 movsx	 ecx, WORD PTR [eax+8]
  02435	d1 e1		 shl	 ecx, 1
  02437	ba 5a 00 00 00	 mov	 edx, 90			; 0000005aH
  0243c	2b d1		 sub	 edx, ecx
  0243e	0f af 55 1c	 imul	 edx, DWORD PTR _AttackDamage$[ebp]
  02442	89 95 c8 fc ff
	ff		 mov	 DWORD PTR tv5865[ebp], edx
  02448	db 85 c8 fc ff
	ff		 fild	 DWORD PTR tv5865[ebp]
  0244e	dc 35 00 00 00
	00		 fdiv	 QWORD PTR __real@4059000000000000
  02454	d9 9d 3c fe ff
	ff		 fstp	 DWORD PTR _damage$240281[ebp]

; 1222 : 						AttackDamage = (int)(damage);	//  #formula

  0245a	d9 85 3c fe ff
	ff		 fld	 DWORD PTR _damage$240281[ebp]
  02460	e8 00 00 00 00	 call	 __ftol2_sse
  02465	89 45 1c	 mov	 DWORD PTR _AttackDamage$[ebp], eax
  02468	e9 8e 00 00 00	 jmp	 $LN471@Attack
$LN474@Attack:

; 1223 : 					}
; 1224 : 					else if ( Wing->m_Type > ITEMGET(12, 2) )

  0246d	8b 85 70 fe ff
	ff		 mov	 eax, DWORD PTR _Wing$240219[ebp]
  02473	0f bf 48 06	 movsx	 ecx, WORD PTR [eax+6]
  02477	81 f9 02 18 00
	00		 cmp	 ecx, 6146		; 00001802H
  0247d	7e 3f		 jle	 SHORT $LN472@Attack

; 1225 : 					{
; 1226 : 						float damage = (float)(AttackDamage * (75 - (Wing->m_Level*2))) / 100.0f;

  0247f	8b 85 70 fe ff
	ff		 mov	 eax, DWORD PTR _Wing$240219[ebp]
  02485	0f bf 48 08	 movsx	 ecx, WORD PTR [eax+8]
  02489	d1 e1		 shl	 ecx, 1
  0248b	ba 4b 00 00 00	 mov	 edx, 75			; 0000004bH
  02490	2b d1		 sub	 edx, ecx
  02492	0f af 55 1c	 imul	 edx, DWORD PTR _AttackDamage$[ebp]
  02496	89 95 c8 fc ff
	ff		 mov	 DWORD PTR tv5877[ebp], edx
  0249c	db 85 c8 fc ff
	ff		 fild	 DWORD PTR tv5877[ebp]
  024a2	dc 35 00 00 00
	00		 fdiv	 QWORD PTR __real@4059000000000000
  024a8	d9 9d 38 fe ff
	ff		 fstp	 DWORD PTR _damage$240286[ebp]

; 1227 : 						AttackDamage = (int)(damage);	//  #formula

  024ae	d9 85 38 fe ff
	ff		 fld	 DWORD PTR _damage$240286[ebp]
  024b4	e8 00 00 00 00	 call	 __ftol2_sse
  024b9	89 45 1c	 mov	 DWORD PTR _AttackDamage$[ebp], eax

; 1228 : 						
; 1229 : 					}
; 1230 : 					else

  024bc	eb 3d		 jmp	 SHORT $LN471@Attack
$LN472@Attack:

; 1231 : 					{
; 1232 : 						float damage = (float)(AttackDamage * (88 - (Wing->m_Level*2))) / 100.0f;

  024be	8b 85 70 fe ff
	ff		 mov	 eax, DWORD PTR _Wing$240219[ebp]
  024c4	0f bf 48 08	 movsx	 ecx, WORD PTR [eax+8]
  024c8	d1 e1		 shl	 ecx, 1
  024ca	ba 58 00 00 00	 mov	 edx, 88			; 00000058H
  024cf	2b d1		 sub	 edx, ecx
  024d1	0f af 55 1c	 imul	 edx, DWORD PTR _AttackDamage$[ebp]
  024d5	89 95 c8 fc ff
	ff		 mov	 DWORD PTR tv5888[ebp], edx
  024db	db 85 c8 fc ff
	ff		 fild	 DWORD PTR tv5888[ebp]
  024e1	dc 35 00 00 00
	00		 fdiv	 QWORD PTR __real@4059000000000000
  024e7	d9 9d 34 fe ff
	ff		 fstp	 DWORD PTR _damage$240290[ebp]

; 1233 : 						AttackDamage = (int)(damage);	//  #formula

  024ed	d9 85 34 fe ff
	ff		 fld	 DWORD PTR _damage$240290[ebp]
  024f3	e8 00 00 00 00	 call	 __ftol2_sse
  024f8	89 45 1c	 mov	 DWORD PTR _AttackDamage$[ebp], eax
$LN471@Attack:

; 1234 : 					}
; 1235 : #ifdef _WINGS_DAMAGE_
; 1236 : 					gWingsDamage.Defence(Wing->m_Type, AttackDamage);

  024fb	8d 45 1c	 lea	 eax, DWORD PTR _AttackDamage$[ebp]
  024fe	50		 push	 eax
  024ff	8b 8d 70 fe ff
	ff		 mov	 ecx, DWORD PTR _Wing$240219[ebp]
  02505	0f bf 51 06	 movsx	 edx, WORD PTR [ecx+6]
  02509	52		 push	 edx
  0250a	b9 00 00 00 00	 mov	 ecx, OFFSET ?gWingsDamage@@3VcWingsDamage@@A ; gWingsDamage
  0250f	e8 00 00 00 00	 call	 ?Defence@cWingsDamage@@QAEXHAAH@Z ; cWingsDamage::Defence

; 1237 : 					gWingsDamage.SetCharWingAbsurd(lpObj->m_Index, Wing->m_Type, Wing->m_Level, AttackDamage);

  02514	8d 45 1c	 lea	 eax, DWORD PTR _AttackDamage$[ebp]
  02517	50		 push	 eax
  02518	8b 8d 70 fe ff
	ff		 mov	 ecx, DWORD PTR _Wing$240219[ebp]
  0251e	0f bf 51 08	 movsx	 edx, WORD PTR [ecx+8]
  02522	52		 push	 edx
  02523	8b 85 70 fe ff
	ff		 mov	 eax, DWORD PTR _Wing$240219[ebp]
  02529	0f bf 48 06	 movsx	 ecx, WORD PTR [eax+6]
  0252d	51		 push	 ecx
  0252e	8b 55 08	 mov	 edx, DWORD PTR _lpObj$[ebp]
  02531	8b 02		 mov	 eax, DWORD PTR [edx]
  02533	50		 push	 eax
  02534	b9 00 00 00 00	 mov	 ecx, OFFSET ?gWingsDamage@@3VcWingsDamage@@A ; gWingsDamage
  02539	e8 00 00 00 00	 call	 ?SetCharWingAbsurd@cWingsDamage@@QAEXHHHAAH@Z ; cWingsDamage::SetCharWingAbsurd
$LN507@Attack:

; 1238 : #endif // _WINGS_DAMAGE_
; 1239 : 				}
; 1240 : 			}
; 1241 : 		}
; 1242 : 
; 1243 : 
; 1244 : 		if ( gObjDenorantSprite(lpObj ) )

  0253e	8b 45 08	 mov	 eax, DWORD PTR _lpObj$[ebp]
  02541	50		 push	 eax
  02542	e8 00 00 00 00	 call	 ?gObjDenorantSprite@@YAHPAUOBJECTSTRUCT@@@Z ; gObjDenorantSprite
  02547	83 c4 04	 add	 esp, 4
  0254a	85 c0		 test	 eax, eax
  0254c	74 7a		 je	 SHORT $LN470@Attack

; 1245 : 		{
; 1246 : 			lpObj->Life -= 1.0f;

  0254e	8b 45 08	 mov	 eax, DWORD PTR _lpObj$[ebp]
  02551	d9 80 fc 00 00
	00		 fld	 DWORD PTR [eax+252]
  02557	dc 25 00 00 00
	00		 fsub	 QWORD PTR __real@3ff0000000000000
  0255d	8b 4d 08	 mov	 ecx, DWORD PTR _lpObj$[ebp]
  02560	d9 99 fc 00 00
	00		 fstp	 DWORD PTR [ecx+252]

; 1247 : 
; 1248 : 			if ( lpObj->Life < 0.0f )

  02566	8b 45 08	 mov	 eax, DWORD PTR _lpObj$[ebp]
  02569	d9 80 fc 00 00
	00		 fld	 DWORD PTR [eax+252]
  0256f	dc 1d 00 00 00
	00		 fcomp	 QWORD PTR __real@0000000000000000
  02575	df e0		 fnstsw	 ax
  02577	f6 c4 05	 test	 ah, 5
  0257a	7a 0d		 jp	 SHORT $LN469@Attack

; 1249 : 			{
; 1250 : 				lpObj->Life = 0.0f;

  0257c	8b 45 08	 mov	 eax, DWORD PTR _lpObj$[ebp]
  0257f	d9 ee		 fldz
  02581	d9 98 fc 00 00
	00		 fstp	 DWORD PTR [eax+252]

; 1251 : 			}
; 1252 : 			else

  02587	eb 11		 jmp	 SHORT $LN468@Attack
$LN469@Attack:

; 1253 : 			{
; 1254 : 				AttackDamage = AttackDamage * 115 / 100;

  02589	8b 45 1c	 mov	 eax, DWORD PTR _AttackDamage$[ebp]
  0258c	6b c0 73	 imul	 eax, 115		; 00000073H
  0258f	99		 cdq
  02590	b9 64 00 00 00	 mov	 ecx, 100		; 00000064H
  02595	f7 f9		 idiv	 ecx
  02597	89 45 1c	 mov	 DWORD PTR _AttackDamage$[ebp], eax
$LN468@Attack:

; 1255 : 			}
; 1256 : 
; 1257 : 			GCReFillSend(lpObj->m_Index, lpObj->Life, 0xFF, 0, lpObj->iShield);

  0259a	8b 45 08	 mov	 eax, DWORD PTR _lpObj$[ebp]
  0259d	8b 88 54 01 00
	00		 mov	 ecx, DWORD PTR [eax+340]
  025a3	51		 push	 ecx
  025a4	6a 00		 push	 0
  025a6	68 ff 00 00 00	 push	 255			; 000000ffH
  025ab	8b 55 08	 mov	 edx, DWORD PTR _lpObj$[ebp]
  025ae	d9 82 fc 00 00
	00		 fld	 DWORD PTR [edx+252]
  025b4	e8 00 00 00 00	 call	 __ftol2_sse
  025b9	50		 push	 eax
  025ba	8b 45 08	 mov	 eax, DWORD PTR _lpObj$[ebp]
  025bd	8b 08		 mov	 ecx, DWORD PTR [eax]
  025bf	51		 push	 ecx
  025c0	e8 00 00 00 00	 call	 ?GCReFillSend@@YAXHHEEH@Z ; GCReFillSend
  025c5	83 c4 14	 add	 esp, 20			; 00000014H
$LN470@Attack:

; 1258 : 		}
; 1259 : 
; 1260 : 		if ( gObjDenorantSprite(lpTargetObj ) )

  025c8	8b 45 0c	 mov	 eax, DWORD PTR _lpTargetObj$[ebp]
  025cb	50		 push	 eax
  025cc	e8 00 00 00 00	 call	 ?gObjDenorantSprite@@YAHPAUOBJECTSTRUCT@@@Z ; gObjDenorantSprite
  025d1	83 c4 04	 add	 esp, 4
  025d4	85 c0		 test	 eax, eax
  025d6	0f 84 ab 00 00
	00		 je	 $LN467@Attack

; 1261 : 		{
; 1262 : 			CItem * Dinorant = &lpTargetObj->pInventory[8];

  025dc	8b 45 0c	 mov	 eax, DWORD PTR _lpTargetObj$[ebp]
  025df	8b 88 24 0e 00
	00		 mov	 ecx, DWORD PTR [eax+3620]
  025e5	81 c1 a0 06 00
	00		 add	 ecx, 1696		; 000006a0H
  025eb	89 8d 30 fe ff
	ff		 mov	 DWORD PTR _Dinorant$240297[ebp], ecx

; 1263 : 
; 1264 : 			int dinorantdecdamage = 90 - Dinorant->IsDinorantReduceAttackDamaege();

  025f1	8b 8d 30 fe ff
	ff		 mov	 ecx, DWORD PTR _Dinorant$240297[ebp]
  025f7	e8 00 00 00 00	 call	 ?IsDinorantReduceAttackDamaege@CItem@@QAEHXZ ; CItem::IsDinorantReduceAttackDamaege
  025fc	b9 5a 00 00 00	 mov	 ecx, 90			; 0000005aH
  02601	2b c8		 sub	 ecx, eax
  02603	89 8d 2c fe ff
	ff		 mov	 DWORD PTR _dinorantdecdamage$240298[ebp], ecx

; 1265 : 			lpObj->Life -= 1.0f;

  02609	8b 45 08	 mov	 eax, DWORD PTR _lpObj$[ebp]
  0260c	d9 80 fc 00 00
	00		 fld	 DWORD PTR [eax+252]
  02612	dc 25 00 00 00
	00		 fsub	 QWORD PTR __real@3ff0000000000000
  02618	8b 4d 08	 mov	 ecx, DWORD PTR _lpObj$[ebp]
  0261b	d9 99 fc 00 00
	00		 fstp	 DWORD PTR [ecx+252]

; 1266 : 
; 1267 : 			if ( lpObj->Life < 0.0f )

  02621	8b 45 08	 mov	 eax, DWORD PTR _lpObj$[ebp]
  02624	d9 80 fc 00 00
	00		 fld	 DWORD PTR [eax+252]
  0262a	dc 1d 00 00 00
	00		 fcomp	 QWORD PTR __real@0000000000000000
  02630	df e0		 fnstsw	 ax
  02632	f6 c4 05	 test	 ah, 5
  02635	7a 0d		 jp	 SHORT $LN466@Attack

; 1268 : 			{
; 1269 : 				lpObj->Life = 0.0f;

  02637	8b 45 08	 mov	 eax, DWORD PTR _lpObj$[ebp]
  0263a	d9 ee		 fldz
  0263c	d9 98 fc 00 00
	00		 fstp	 DWORD PTR [eax+252]

; 1270 : 			}
; 1271 : 			else

  02642	eb 15		 jmp	 SHORT $LN465@Attack
$LN466@Attack:

; 1272 : 			{
; 1273 : 				AttackDamage = AttackDamage * dinorantdecdamage / 100;

  02644	8b 45 1c	 mov	 eax, DWORD PTR _AttackDamage$[ebp]
  02647	0f af 85 2c fe
	ff ff		 imul	 eax, DWORD PTR _dinorantdecdamage$240298[ebp]
  0264e	99		 cdq
  0264f	b9 64 00 00 00	 mov	 ecx, 100		; 00000064H
  02654	f7 f9		 idiv	 ecx
  02656	89 45 1c	 mov	 DWORD PTR _AttackDamage$[ebp], eax
$LN465@Attack:

; 1274 : 			}
; 1275 : 
; 1276 : 			GCReFillSend(lpObj->m_Index, lpObj->Life, 0xFF, 0, lpObj->iShield);

  02659	8b 45 08	 mov	 eax, DWORD PTR _lpObj$[ebp]
  0265c	8b 88 54 01 00
	00		 mov	 ecx, DWORD PTR [eax+340]
  02662	51		 push	 ecx
  02663	6a 00		 push	 0
  02665	68 ff 00 00 00	 push	 255			; 000000ffH
  0266a	8b 55 08	 mov	 edx, DWORD PTR _lpObj$[ebp]
  0266d	d9 82 fc 00 00
	00		 fld	 DWORD PTR [edx+252]
  02673	e8 00 00 00 00	 call	 __ftol2_sse
  02678	50		 push	 eax
  02679	8b 45 08	 mov	 eax, DWORD PTR _lpObj$[ebp]
  0267c	8b 08		 mov	 ecx, DWORD PTR [eax]
  0267e	51		 push	 ecx
  0267f	e8 00 00 00 00	 call	 ?GCReFillSend@@YAXHHEEH@Z ; GCReFillSend
  02684	83 c4 14	 add	 esp, 20			; 00000014H
$LN467@Attack:

; 1277 : 		}
; 1278 : 
; 1279 : 		if ( gObjDarkHorse(lpTargetObj ) )

  02687	8b 45 0c	 mov	 eax, DWORD PTR _lpTargetObj$[ebp]
  0268a	50		 push	 eax
  0268b	e8 00 00 00 00	 call	 ?gObjDarkHorse@@YAHPAUOBJECTSTRUCT@@@Z ; gObjDarkHorse
  02690	83 c4 04	 add	 esp, 4
  02693	85 c0		 test	 eax, eax
  02695	0f 84 e3 00 00
	00		 je	 $LN464@Attack

; 1280 : 		{
; 1281 : 			CItem * Darkhorse = &lpTargetObj->pInventory[8];

  0269b	8b 45 0c	 mov	 eax, DWORD PTR _lpTargetObj$[ebp]
  0269e	8b 88 24 0e 00
	00		 mov	 ecx, DWORD PTR [eax+3620]
  026a4	81 c1 a0 06 00
	00		 add	 ecx, 1696		; 000006a0H
  026aa	89 8d 28 fe ff
	ff		 mov	 DWORD PTR _Darkhorse$240302[ebp], ecx

; 1282 : 
; 1283 : 			int decdamage = 100 - ((Darkhorse->m_PetItem_Level + 30) / 2 );

  026b0	8b 85 28 fe ff
	ff		 mov	 eax, DWORD PTR _Darkhorse$240302[ebp]
  026b6	8b 80 bc 00 00
	00		 mov	 eax, DWORD PTR [eax+188]
  026bc	83 c0 1e	 add	 eax, 30			; 0000001eH
  026bf	99		 cdq
  026c0	2b c2		 sub	 eax, edx
  026c2	d1 f8		 sar	 eax, 1
  026c4	b9 64 00 00 00	 mov	 ecx, 100		; 00000064H
  026c9	2b c8		 sub	 ecx, eax
  026cb	89 8d 24 fe ff
	ff		 mov	 DWORD PTR _decdamage$240303[ebp], ecx

; 1284 : #ifdef _WINGS_DAMAGE_
; 1285 : 			gWingsDamage.SetCharHorseAttack(lpTargetObj->m_Index, Darkhorse->m_Type, Darkhorse->m_PetItem_Level, decdamage);

  026d1	8d 85 24 fe ff
	ff		 lea	 eax, DWORD PTR _decdamage$240303[ebp]
  026d7	50		 push	 eax
  026d8	8b 8d 28 fe ff
	ff		 mov	 ecx, DWORD PTR _Darkhorse$240302[ebp]
  026de	8b 91 bc 00 00
	00		 mov	 edx, DWORD PTR [ecx+188]
  026e4	52		 push	 edx
  026e5	8b 85 28 fe ff
	ff		 mov	 eax, DWORD PTR _Darkhorse$240302[ebp]
  026eb	0f bf 48 06	 movsx	 ecx, WORD PTR [eax+6]
  026ef	51		 push	 ecx
  026f0	8b 55 0c	 mov	 edx, DWORD PTR _lpTargetObj$[ebp]
  026f3	8b 02		 mov	 eax, DWORD PTR [edx]
  026f5	50		 push	 eax
  026f6	b9 00 00 00 00	 mov	 ecx, OFFSET ?gWingsDamage@@3VcWingsDamage@@A ; gWingsDamage
  026fb	e8 00 00 00 00	 call	 ?SetCharHorseAttack@cWingsDamage@@QAEXHHHAAH@Z ; cWingsDamage::SetCharHorseAttack

; 1286 : #endif
; 1287 : 			lpTargetObj->Life -= 1.0f;

  02700	8b 45 0c	 mov	 eax, DWORD PTR _lpTargetObj$[ebp]
  02703	d9 80 fc 00 00
	00		 fld	 DWORD PTR [eax+252]
  02709	dc 25 00 00 00
	00		 fsub	 QWORD PTR __real@3ff0000000000000
  0270f	8b 4d 0c	 mov	 ecx, DWORD PTR _lpTargetObj$[ebp]
  02712	d9 99 fc 00 00
	00		 fstp	 DWORD PTR [ecx+252]

; 1288 : 
; 1289 : 			if ( lpTargetObj->Life < 0.0f )

  02718	8b 45 0c	 mov	 eax, DWORD PTR _lpTargetObj$[ebp]
  0271b	d9 80 fc 00 00
	00		 fld	 DWORD PTR [eax+252]
  02721	dc 1d 00 00 00
	00		 fcomp	 QWORD PTR __real@0000000000000000
  02727	df e0		 fnstsw	 ax
  02729	f6 c4 05	 test	 ah, 5
  0272c	7a 0d		 jp	 SHORT $LN463@Attack

; 1290 : 			{
; 1291 : 				lpTargetObj->Life = 0.0f;

  0272e	8b 45 0c	 mov	 eax, DWORD PTR _lpTargetObj$[ebp]
  02731	d9 ee		 fldz
  02733	d9 98 fc 00 00
	00		 fstp	 DWORD PTR [eax+252]

; 1292 : 			}
; 1293 : 			else

  02739	eb 15		 jmp	 SHORT $LN462@Attack
$LN463@Attack:

; 1294 : 			{
; 1295 : 				AttackDamage = AttackDamage * decdamage / 100;

  0273b	8b 45 1c	 mov	 eax, DWORD PTR _AttackDamage$[ebp]
  0273e	0f af 85 24 fe
	ff ff		 imul	 eax, DWORD PTR _decdamage$240303[ebp]
  02745	99		 cdq
  02746	b9 64 00 00 00	 mov	 ecx, 100		; 00000064H
  0274b	f7 f9		 idiv	 ecx
  0274d	89 45 1c	 mov	 DWORD PTR _AttackDamage$[ebp], eax
$LN462@Attack:

; 1296 : 			}
; 1297 : 
; 1298 : 			GCReFillSend(lpTargetObj->m_Index, lpTargetObj->Life, 0xFF, 0, lpTargetObj->iShield);

  02750	8b 45 0c	 mov	 eax, DWORD PTR _lpTargetObj$[ebp]
  02753	8b 88 54 01 00
	00		 mov	 ecx, DWORD PTR [eax+340]
  02759	51		 push	 ecx
  0275a	6a 00		 push	 0
  0275c	68 ff 00 00 00	 push	 255			; 000000ffH
  02761	8b 55 0c	 mov	 edx, DWORD PTR _lpTargetObj$[ebp]
  02764	d9 82 fc 00 00
	00		 fld	 DWORD PTR [edx+252]
  0276a	e8 00 00 00 00	 call	 __ftol2_sse
  0276f	50		 push	 eax
  02770	8b 45 0c	 mov	 eax, DWORD PTR _lpTargetObj$[ebp]
  02773	8b 08		 mov	 ecx, DWORD PTR [eax]
  02775	51		 push	 ecx
  02776	e8 00 00 00 00	 call	 ?GCReFillSend@@YAXHHEEH@Z ; GCReFillSend
  0277b	83 c4 14	 add	 esp, 20			; 00000014H
$LN464@Attack:

; 1299 : 		}
; 1300 : 
; 1301 : 		if ( lpTargetObj->Live )

  0277e	8b 45 0c	 mov	 eax, DWORD PTR _lpTargetObj$[ebp]
  02781	0f b6 48 6a	 movzx	 ecx, BYTE PTR [eax+106]
  02785	85 c9		 test	 ecx, ecx
  02787	0f 84 48 2a 00
	00		 je	 $LN162@Attack

; 1302 : 		{
; 1303 : 
; 1304 : #ifdef DEBUG_CODE
; 1305 : 			LogAddC(3,"skill:%d",skill);
; 1306 : #endif
; 1307 : 
; 1308 : 			switch ( skill )

  0278d	8b 45 d8	 mov	 eax, DWORD PTR _skill$[ebp]
  02790	89 85 c8 fc ff
	ff		 mov	 DWORD PTR tv1835[ebp], eax
  02796	8b 8d c8 fc ff
	ff		 mov	 ecx, DWORD PTR tv1835[ebp]
  0279c	83 e9 13	 sub	 ecx, 19			; 00000013H
  0279f	89 8d c8 fc ff
	ff		 mov	 DWORD PTR tv1835[ebp], ecx
  027a5	81 bd c8 fc ff
	ff fb 00 00 00	 cmp	 DWORD PTR tv1835[ebp], 251 ; 000000fbH
  027af	0f 87 98 12 00
	00		 ja	 $LN459@Attack
  027b5	8b 95 c8 fc ff
	ff		 mov	 edx, DWORD PTR tv1835[ebp]
  027bb	0f b6 82 00 00
	00 00		 movzx	 eax, BYTE PTR $LN805@Attack[edx]
  027c2	ff 24 85 00 00
	00 00		 jmp	 DWORD PTR $LN810@Attack[eax*4]
$LN458@Attack:

; 1309 : 			{
; 1310 : 				case 19:
; 1311 : 				case 20:
; 1312 : 				case 21:
; 1313 : 				case 22:
; 1314 : 				case 23:
; 1315 : 				case 41:
; 1316 : 				case 42:
; 1317 : 				case 43:
; 1318 : 				case 44:
; 1319 : 				case 49:
; 1320 : 				case 55:
; 1321 : 				case 57:
; 1322 : 					if ( lpObj->Class == CLASS_DARKLORD || lpObj->Class == CLASS_MAGUMSA )

  027c9	8b 45 08	 mov	 eax, DWORD PTR _lpObj$[ebp]
  027cc	0f b7 88 b8 00
	00 00		 movzx	 ecx, WORD PTR [eax+184]
  027d3	83 f9 04	 cmp	 ecx, 4
  027d6	74 0f		 je	 SHORT $LN456@Attack
  027d8	8b 45 08	 mov	 eax, DWORD PTR _lpObj$[ebp]
  027db	0f b7 88 b8 00
	00 00		 movzx	 ecx, WORD PTR [eax+184]
  027e2	83 f9 03	 cmp	 ecx, 3
  027e5	75 0d		 jne	 SHORT $LN457@Attack
$LN456@Attack:

; 1323 : 					{
; 1324 : 						AttackDamage *= 2;

  027e7	8b 45 1c	 mov	 eax, DWORD PTR _AttackDamage$[ebp]
  027ea	d1 e0		 shl	 eax, 1
  027ec	89 45 1c	 mov	 DWORD PTR _AttackDamage$[ebp], eax
  027ef	e9 c3 00 00 00	 jmp	 $LN448@Attack
$LN457@Attack:

; 1325 : 					}
; 1326 : #ifdef MONK
; 1327 : 					else if( lpObj->Class == CLASS_MONK )

  027f4	8b 45 08	 mov	 eax, DWORD PTR _lpObj$[ebp]
  027f7	0f b7 88 b8 00
	00 00		 movzx	 ecx, WORD PTR [eax+184]
  027fe	83 f9 06	 cmp	 ecx, 6
  02801	75 0d		 jne	 SHORT $LN454@Attack

; 1328 : 					{
; 1329 : 						AttackDamage *= 2;

  02803	8b 45 1c	 mov	 eax, DWORD PTR _AttackDamage$[ebp]
  02806	d1 e0		 shl	 eax, 1
  02808	89 45 1c	 mov	 DWORD PTR _AttackDamage$[ebp], eax

; 1330 : 					}
; 1331 : #endif
; 1332 : 					else

  0280b	e9 a7 00 00 00	 jmp	 $LN448@Attack
$LN454@Attack:

; 1333 : 					{
; 1334 : 						if(g_ExLicense.CheckUser(eExUB::Local) || g_ExLicense.CheckUser(eExUB::Artem) || g_ExLicense.CheckUser(eExUB::Artem2))

  02810	6a 00		 push	 0
  02812	b9 00 00 00 00	 mov	 ecx, OFFSET ?g_ExLicense@@3VCExLicense@@A ; g_ExLicense
  02817	e8 00 00 00 00	 call	 ?CheckUser@CExLicense@@QAE_NH@Z ; CExLicense::CheckUser
  0281c	0f b6 c0	 movzx	 eax, al
  0281f	85 c0		 test	 eax, eax
  02821	75 26		 jne	 SHORT $LN451@Attack
  02823	6a 30		 push	 48			; 00000030H
  02825	b9 00 00 00 00	 mov	 ecx, OFFSET ?g_ExLicense@@3VCExLicense@@A ; g_ExLicense
  0282a	e8 00 00 00 00	 call	 ?CheckUser@CExLicense@@QAE_NH@Z ; CExLicense::CheckUser
  0282f	0f b6 c0	 movzx	 eax, al
  02832	85 c0		 test	 eax, eax
  02834	75 13		 jne	 SHORT $LN451@Attack
  02836	6a 31		 push	 49			; 00000031H
  02838	b9 00 00 00 00	 mov	 ecx, OFFSET ?g_ExLicense@@3VCExLicense@@A ; g_ExLicense
  0283d	e8 00 00 00 00	 call	 ?CheckUser@CExLicense@@QAE_NH@Z ; CExLicense::CheckUser
  02842	0f b6 c0	 movzx	 eax, al
  02845	85 c0		 test	 eax, eax
  02847	74 4f		 je	 SHORT $LN452@Attack
$LN451@Attack:

; 1335 : 						{
; 1336 : 							int iSkillDMGPercent = ( 200 + ( Energy / 10 ) );

  02849	8b 45 bc	 mov	 eax, DWORD PTR _Energy$[ebp]
  0284c	99		 cdq
  0284d	b9 0a 00 00 00	 mov	 ecx, 10			; 0000000aH
  02852	f7 f9		 idiv	 ecx
  02854	05 c8 00 00 00	 add	 eax, 200		; 000000c8H
  02859	89 85 20 fe ff
	ff		 mov	 DWORD PTR _iSkillDMGPercent$240319[ebp], eax

; 1337 : 
; 1338 : 							if(ExConfig.Character.DKSkillDMGPercentMax > 0)

  0285f	83 3d 88 02 00
	00 00		 cmp	 DWORD PTR ?ExConfig@@3VcExConfigs@@A+648, 0
  02866	7e 19		 jle	 SHORT $LN449@Attack

; 1339 : 							{
; 1340 : 								if(iSkillDMGPercent > ExConfig.Character.DKSkillDMGPercentMax)

  02868	8b 85 20 fe ff
	ff		 mov	 eax, DWORD PTR _iSkillDMGPercent$240319[ebp]
  0286e	3b 05 88 02 00
	00		 cmp	 eax, DWORD PTR ?ExConfig@@3VcExConfigs@@A+648
  02874	7e 0b		 jle	 SHORT $LN449@Attack

; 1341 : 								{
; 1342 : 									iSkillDMGPercent = ExConfig.Character.DKSkillDMGPercentMax;

  02876	a1 88 02 00 00	 mov	 eax, DWORD PTR ?ExConfig@@3VcExConfigs@@A+648
  0287b	89 85 20 fe ff
	ff		 mov	 DWORD PTR _iSkillDMGPercent$240319[ebp], eax
$LN449@Attack:

; 1343 : 								}
; 1344 : 							}
; 1345 : 
; 1346 : 							AttackDamage = ( AttackDamage * iSkillDMGPercent ) / 100;

  02881	8b 45 1c	 mov	 eax, DWORD PTR _AttackDamage$[ebp]
  02884	0f af 85 20 fe
	ff ff		 imul	 eax, DWORD PTR _iSkillDMGPercent$240319[ebp]
  0288b	99		 cdq
  0288c	b9 64 00 00 00	 mov	 ecx, 100		; 00000064H
  02891	f7 f9		 idiv	 ecx
  02893	89 45 1c	 mov	 DWORD PTR _AttackDamage$[ebp], eax

; 1347 : 						}
; 1348 : 						else

  02896	eb 1f		 jmp	 SHORT $LN448@Attack
$LN452@Attack:

; 1349 : 						{
; 1350 : 							AttackDamage = ( AttackDamage * ( 200 + ( Energy / 10 ) ) ) / 100;

  02898	8b 45 bc	 mov	 eax, DWORD PTR _Energy$[ebp]
  0289b	99		 cdq
  0289c	b9 0a 00 00 00	 mov	 ecx, 10			; 0000000aH
  028a1	f7 f9		 idiv	 ecx
  028a3	05 c8 00 00 00	 add	 eax, 200		; 000000c8H
  028a8	0f af 45 1c	 imul	 eax, DWORD PTR _AttackDamage$[ebp]
  028ac	99		 cdq
  028ad	b9 64 00 00 00	 mov	 ecx, 100		; 00000064H
  028b2	f7 f9		 idiv	 ecx
  028b4	89 45 1c	 mov	 DWORD PTR _AttackDamage$[ebp], eax
$LN448@Attack:

; 1351 : 						}
; 1352 : 						
; 1353 : 					}
; 1354 : 					break;

  028b7	e9 91 11 00 00	 jmp	 $LN459@Attack
$LN447@Attack:

; 1355 : 
; 1356 : 				case 47:
; 1357 : 					if ( lpObj->pInventory[8].m_Type == ITEMGET(13,3) ||
; 1358 : 						 lpObj->pInventory[8].m_Type == ITEMGET(13,2) ||
; 1359 : 						 lpObj->pInventory[8].m_Type == ITEMGET(13,37) )

  028bc	8b 45 08	 mov	 eax, DWORD PTR _lpObj$[ebp]
  028bf	8b 88 24 0e 00
	00		 mov	 ecx, DWORD PTR [eax+3620]
  028c5	0f bf 91 a6 06
	00 00		 movsx	 edx, WORD PTR [ecx+1702]
  028cc	81 fa 03 1a 00
	00		 cmp	 edx, 6659		; 00001a03H
  028d2	74 30		 je	 SHORT $LN445@Attack
  028d4	8b 45 08	 mov	 eax, DWORD PTR _lpObj$[ebp]
  028d7	8b 88 24 0e 00
	00		 mov	 ecx, DWORD PTR [eax+3620]
  028dd	0f bf 91 a6 06
	00 00		 movsx	 edx, WORD PTR [ecx+1702]
  028e4	81 fa 02 1a 00
	00		 cmp	 edx, 6658		; 00001a02H
  028ea	74 18		 je	 SHORT $LN445@Attack
  028ec	8b 45 08	 mov	 eax, DWORD PTR _lpObj$[ebp]
  028ef	8b 88 24 0e 00
	00		 mov	 ecx, DWORD PTR [eax+3620]
  028f5	0f bf 91 a6 06
	00 00		 movsx	 edx, WORD PTR [ecx+1702]
  028fc	81 fa 25 1a 00
	00		 cmp	 edx, 6693		; 00001a25H
  02902	75 47		 jne	 SHORT $LN442@Attack
$LN445@Attack:

; 1360 : 					{
; 1361 : #ifdef FENRIR_CONFIG
; 1362 : #endif
; 1363 : 						if ( lpObj->Class == CLASS_DARKLORD || lpObj->Class == CLASS_MAGUMSA )

  02904	8b 45 08	 mov	 eax, DWORD PTR _lpObj$[ebp]
  02907	0f b7 88 b8 00
	00 00		 movzx	 ecx, WORD PTR [eax+184]
  0290e	83 f9 04	 cmp	 ecx, 4
  02911	74 0f		 je	 SHORT $LN443@Attack
  02913	8b 45 08	 mov	 eax, DWORD PTR _lpObj$[ebp]
  02916	0f b7 88 b8 00
	00 00		 movzx	 ecx, WORD PTR [eax+184]
  0291d	83 f9 03	 cmp	 ecx, 3
  02920	75 0a		 jne	 SHORT $LN444@Attack
$LN443@Attack:

; 1364 : 						{
; 1365 : 							AttackDamage *= 2;

  02922	8b 45 1c	 mov	 eax, DWORD PTR _AttackDamage$[ebp]
  02925	d1 e0		 shl	 eax, 1
  02927	89 45 1c	 mov	 DWORD PTR _AttackDamage$[ebp], eax

; 1366 : 						}
; 1367 : 						else

  0292a	eb 1f		 jmp	 SHORT $LN442@Attack
$LN444@Attack:

; 1368 : 						{
; 1369 : 							AttackDamage = ( AttackDamage * ( Energy / 10 + 200 )  ) / 100;

  0292c	8b 45 bc	 mov	 eax, DWORD PTR _Energy$[ebp]
  0292f	99		 cdq
  02930	b9 0a 00 00 00	 mov	 ecx, 10			; 0000000aH
  02935	f7 f9		 idiv	 ecx
  02937	05 c8 00 00 00	 add	 eax, 200		; 000000c8H
  0293c	0f af 45 1c	 imul	 eax, DWORD PTR _AttackDamage$[ebp]
  02940	99		 cdq
  02941	b9 64 00 00 00	 mov	 ecx, 100		; 00000064H
  02946	f7 f9		 idiv	 ecx
  02948	89 45 1c	 mov	 DWORD PTR _AttackDamage$[ebp], eax
$LN442@Attack:

; 1370 : 						}
; 1371 : 					}
; 1372 : 					break;

  0294b	e9 fd 10 00 00	 jmp	 $LN459@Attack
$LN441@Attack:

; 1373 : 
; 1374 : 				case 56:
; 1375 : 					AttackDamage *= 2;

  02950	8b 45 1c	 mov	 eax, DWORD PTR _AttackDamage$[ebp]
  02953	d1 e0		 shl	 eax, 1
  02955	89 45 1c	 mov	 DWORD PTR _AttackDamage$[ebp], eax

; 1376 : 					break;

  02958	e9 f0 10 00 00	 jmp	 $LN459@Attack
$LN440@Attack:

; 1377 : 
; 1378 : 				case 46:
; 1379 : 				case 51:
; 1380 : 				case 52:
; 1381 : 					AttackDamage *= 2;

  0295d	8b 45 1c	 mov	 eax, DWORD PTR _AttackDamage$[ebp]
  02960	d1 e0		 shl	 eax, 1
  02962	89 45 1c	 mov	 DWORD PTR _AttackDamage$[ebp], eax

; 1382 : 					break;

  02965	e9 e3 10 00 00	 jmp	 $LN459@Attack
$LN439@Attack:

; 1383 : 
; 1384 : 				case 60:
; 1385 : 				case 61:
; 1386 : 				case 62:
; 1387 : 				case 65:
; 1388 : 				case 74:
; 1389 : 				case 78:
; 1390 : 					{
; 1391 : 						if(g_ExLicense.CheckUser(eExUB::Local) || g_ExLicense.CheckUser(eExUB::Artem) || g_ExLicense.CheckUser(eExUB::Artem2))

  0296a	6a 00		 push	 0
  0296c	b9 00 00 00 00	 mov	 ecx, OFFSET ?g_ExLicense@@3VCExLicense@@A ; g_ExLicense
  02971	e8 00 00 00 00	 call	 ?CheckUser@CExLicense@@QAE_NH@Z ; CExLicense::CheckUser
  02976	0f b6 c0	 movzx	 eax, al
  02979	85 c0		 test	 eax, eax
  0297b	75 26		 jne	 SHORT $LN437@Attack
  0297d	6a 30		 push	 48			; 00000030H
  0297f	b9 00 00 00 00	 mov	 ecx, OFFSET ?g_ExLicense@@3VCExLicense@@A ; g_ExLicense
  02984	e8 00 00 00 00	 call	 ?CheckUser@CExLicense@@QAE_NH@Z ; CExLicense::CheckUser
  02989	0f b6 c0	 movzx	 eax, al
  0298c	85 c0		 test	 eax, eax
  0298e	75 13		 jne	 SHORT $LN437@Attack
  02990	6a 31		 push	 49			; 00000031H
  02992	b9 00 00 00 00	 mov	 ecx, OFFSET ?g_ExLicense@@3VCExLicense@@A ; g_ExLicense
  02997	e8 00 00 00 00	 call	 ?CheckUser@CExLicense@@QAE_NH@Z ; CExLicense::CheckUser
  0299c	0f b6 c0	 movzx	 eax, al
  0299f	85 c0		 test	 eax, eax
  029a1	74 62		 je	 SHORT $LN438@Attack
$LN437@Attack:

; 1392 : 						{
; 1393 : 							int iSkillDMGPercentDL = ( ( ( lpObj->Energy + lpObj->AddEnergy ) / 20 + 200 ) );

  029a3	8b 45 08	 mov	 eax, DWORD PTR _lpObj$[ebp]
  029a6	0f b7 80 fa 00
	00 00		 movzx	 eax, WORD PTR [eax+250]
  029ad	8b 4d 08	 mov	 ecx, DWORD PTR _lpObj$[ebp]
  029b0	0f bf 91 26 01
	00 00		 movsx	 edx, WORD PTR [ecx+294]
  029b7	03 c2		 add	 eax, edx
  029b9	99		 cdq
  029ba	b9 14 00 00 00	 mov	 ecx, 20			; 00000014H
  029bf	f7 f9		 idiv	 ecx
  029c1	05 c8 00 00 00	 add	 eax, 200		; 000000c8H
  029c6	89 85 1c fe ff
	ff		 mov	 DWORD PTR _iSkillDMGPercentDL$240334[ebp], eax

; 1394 : 
; 1395 : 							if(ExConfig.Character.DLSkillDMGPercentMax > 0)

  029cc	83 3d 8c 02 00
	00 00		 cmp	 DWORD PTR ?ExConfig@@3VcExConfigs@@A+652, 0
  029d3	7e 19		 jle	 SHORT $LN435@Attack

; 1396 : 							{
; 1397 : 								if(iSkillDMGPercentDL > ExConfig.Character.DLSkillDMGPercentMax)

  029d5	8b 85 1c fe ff
	ff		 mov	 eax, DWORD PTR _iSkillDMGPercentDL$240334[ebp]
  029db	3b 05 8c 02 00
	00		 cmp	 eax, DWORD PTR ?ExConfig@@3VcExConfigs@@A+652
  029e1	7e 0b		 jle	 SHORT $LN435@Attack

; 1398 : 								{
; 1399 : 									iSkillDMGPercentDL = ExConfig.Character.DLSkillDMGPercentMax;

  029e3	a1 8c 02 00 00	 mov	 eax, DWORD PTR ?ExConfig@@3VcExConfigs@@A+652
  029e8	89 85 1c fe ff
	ff		 mov	 DWORD PTR _iSkillDMGPercentDL$240334[ebp], eax
$LN435@Attack:

; 1400 : 								}
; 1401 : 							}
; 1402 : 
; 1403 : 							AttackDamage = ( AttackDamage * iSkillDMGPercentDL ) / 100;

  029ee	8b 45 1c	 mov	 eax, DWORD PTR _AttackDamage$[ebp]
  029f1	0f af 85 1c fe
	ff ff		 imul	 eax, DWORD PTR _iSkillDMGPercentDL$240334[ebp]
  029f8	99		 cdq
  029f9	b9 64 00 00 00	 mov	 ecx, 100		; 00000064H
  029fe	f7 f9		 idiv	 ecx
  02a00	89 45 1c	 mov	 DWORD PTR _AttackDamage$[ebp], eax

; 1404 : 						}
; 1405 : 						else

  02a03	eb 32		 jmp	 SHORT $LN434@Attack
$LN438@Attack:

; 1406 : 						{
; 1407 : 							AttackDamage = ( AttackDamage * ( ( ( lpObj->Energy + lpObj->AddEnergy ) / 20 + 200 ) ) ) / 100;

  02a05	8b 45 08	 mov	 eax, DWORD PTR _lpObj$[ebp]
  02a08	0f b7 80 fa 00
	00 00		 movzx	 eax, WORD PTR [eax+250]
  02a0f	8b 4d 08	 mov	 ecx, DWORD PTR _lpObj$[ebp]
  02a12	0f bf 91 26 01
	00 00		 movsx	 edx, WORD PTR [ecx+294]
  02a19	03 c2		 add	 eax, edx
  02a1b	99		 cdq
  02a1c	b9 14 00 00 00	 mov	 ecx, 20			; 00000014H
  02a21	f7 f9		 idiv	 ecx
  02a23	05 c8 00 00 00	 add	 eax, 200		; 000000c8H
  02a28	0f af 45 1c	 imul	 eax, DWORD PTR _AttackDamage$[ebp]
  02a2c	99		 cdq
  02a2d	b9 64 00 00 00	 mov	 ecx, 100		; 00000064H
  02a32	f7 f9		 idiv	 ecx
  02a34	89 45 1c	 mov	 DWORD PTR _AttackDamage$[ebp], eax
$LN434@Attack:

; 1408 : 						}
; 1409 : 
; 1410 : 					}
; 1411 : 					break;

  02a37	e9 11 10 00 00	 jmp	 $LN459@Attack
$LN433@Attack:

; 1412 : 
; 1413 : 				case 76:
; 1414 : 					{
; 1415 : 						int iDamageInc = lpObj->Level - 300;

  02a3c	8b 45 08	 mov	 eax, DWORD PTR _lpObj$[ebp]
  02a3f	0f bf 88 be 00
	00 00		 movsx	 ecx, WORD PTR [eax+190]
  02a46	81 e9 2c 01 00
	00		 sub	 ecx, 300		; 0000012cH
  02a4c	89 8d 18 fe ff
	ff		 mov	 DWORD PTR _iDamageInc$240339[ebp], ecx

; 1416 : 
; 1417 : 						iDamageInc += lpObj->MLevel;

  02a52	8b 45 08	 mov	 eax, DWORD PTR _lpObj$[ebp]
  02a55	0f bf 88 d0 00
	00 00		 movsx	 ecx, WORD PTR [eax+208]
  02a5c	03 8d 18 fe ff
	ff		 add	 ecx, DWORD PTR _iDamageInc$240339[ebp]
  02a62	89 8d 18 fe ff
	ff		 mov	 DWORD PTR _iDamageInc$240339[ebp], ecx

; 1418 : 
; 1419 : 						if ( iDamageInc < 0 )

  02a68	79 0a		 jns	 SHORT $LN432@Attack

; 1420 : 						{
; 1421 : 							iDamageInc = 0;

  02a6a	c7 85 18 fe ff
	ff 00 00 00 00	 mov	 DWORD PTR _iDamageInc$240339[ebp], 0
$LN432@Attack:

; 1422 : 						}
; 1423 : 
; 1424 : 						iDamageInc /= 5;

  02a74	8b 85 18 fe ff
	ff		 mov	 eax, DWORD PTR _iDamageInc$240339[ebp]
  02a7a	99		 cdq
  02a7b	b9 05 00 00 00	 mov	 ecx, 5
  02a80	f7 f9		 idiv	 ecx
  02a82	89 85 18 fe ff
	ff		 mov	 DWORD PTR _iDamageInc$240339[ebp], eax

; 1425 : 						AttackDamage = ( AttackDamage * ( iDamageInc + 200 ) ) / 100;

  02a88	8b 85 18 fe ff
	ff		 mov	 eax, DWORD PTR _iDamageInc$240339[ebp]
  02a8e	05 c8 00 00 00	 add	 eax, 200		; 000000c8H
  02a93	0f af 45 1c	 imul	 eax, DWORD PTR _AttackDamage$[ebp]
  02a97	99		 cdq
  02a98	b9 64 00 00 00	 mov	 ecx, 100		; 00000064H
  02a9d	f7 f9		 idiv	 ecx
  02a9f	89 45 1c	 mov	 DWORD PTR _AttackDamage$[ebp], eax

; 1426 : 					}
; 1427 : 					break;

  02aa2	e9 a6 0f 00 00	 jmp	 $LN459@Attack
$LN431@Attack:

; 1428 : 				case 216:
; 1429 : 					gObjUseSkill.SkillEletrictSurgeProc(lpObj, lpTargetObj, 216, AttackDamage, 1, 50);

  02aa7	6a 32		 push	 50			; 00000032H
  02aa9	6a 01		 push	 1
  02aab	8b 45 1c	 mov	 eax, DWORD PTR _AttackDamage$[ebp]
  02aae	50		 push	 eax
  02aaf	68 d8 00 00 00	 push	 216			; 000000d8H
  02ab4	8b 4d 0c	 mov	 ecx, DWORD PTR _lpTargetObj$[ebp]
  02ab7	51		 push	 ecx
  02ab8	8b 55 08	 mov	 edx, DWORD PTR _lpObj$[ebp]
  02abb	52		 push	 edx
  02abc	b9 00 00 00 00	 mov	 ecx, OFFSET ?gObjUseSkill@@3VCObjUseSkill@@A ; gObjUseSkill
  02ac1	e8 00 00 00 00	 call	 ?SkillEletrictSurgeProc@CObjUseSkill@@QAEHPAUOBJECTSTRUCT@@0HHHH@Z ; CObjUseSkill::SkillEletrictSurgeProc

; 1430 : 					break;

  02ac6	e9 82 0f 00 00	 jmp	 $LN459@Attack
$LN430@Attack:

; 1431 : 				case 214: //Drain Life
; 1432 : #if(S5E4)
; 1433 : 				case 550:
; 1434 : 				case 551:
; 1435 : 				case 552:
; 1436 : 				case 553:
; 1437 : 				case 554:
; 1438 : #endif
; 1439 : 					{
; 1440 : 						int iRecvLife = 0;

  02acb	c7 85 14 fe ff
	ff 00 00 00 00	 mov	 DWORD PTR _iRecvLife$240343[ebp], 0

; 1441 : 
; 1442 : 						if(lpTargetObj->Type == OBJ_MONSTER)

  02ad5	8b 45 0c	 mov	 eax, DWORD PTR _lpTargetObj$[ebp]
  02ad8	0f b7 48 68	 movzx	 ecx, WORD PTR [eax+104]
  02adc	83 f9 02	 cmp	 ecx, 2
  02adf	75 49		 jne	 SHORT $LN429@Attack

; 1443 : 						{
; 1444 : 							iRecvLife = (int)((lpObj->Energy / 15) + (lpTargetObj->Level / 2.5));

  02ae1	8b 45 08	 mov	 eax, DWORD PTR _lpObj$[ebp]
  02ae4	0f b7 80 fa 00
	00 00		 movzx	 eax, WORD PTR [eax+250]
  02aeb	99		 cdq
  02aec	b9 0f 00 00 00	 mov	 ecx, 15			; 0000000fH
  02af1	f7 f9		 idiv	 ecx
  02af3	89 85 c8 fc ff
	ff		 mov	 DWORD PTR tv6112[ebp], eax
  02af9	db 85 c8 fc ff
	ff		 fild	 DWORD PTR tv6112[ebp]
  02aff	8b 55 0c	 mov	 edx, DWORD PTR _lpTargetObj$[ebp]
  02b02	0f bf 82 be 00
	00 00		 movsx	 eax, WORD PTR [edx+190]
  02b09	89 85 c4 fc ff
	ff		 mov	 DWORD PTR tv6114[ebp], eax
  02b0f	db 85 c4 fc ff
	ff		 fild	 DWORD PTR tv6114[ebp]
  02b15	dc 35 00 00 00
	00		 fdiv	 QWORD PTR __real@4004000000000000
  02b1b	de c1		 faddp	 ST(1), ST(0)
  02b1d	e8 00 00 00 00	 call	 __ftol2_sse
  02b22	89 85 14 fe ff
	ff		 mov	 DWORD PTR _iRecvLife$240343[ebp], eax
  02b28	eb 36		 jmp	 SHORT $LN427@Attack
$LN429@Attack:

; 1445 : 						}
; 1446 : 						else if(lpTargetObj->Type == OBJ_USER)

  02b2a	8b 45 0c	 mov	 eax, DWORD PTR _lpTargetObj$[ebp]
  02b2d	0f b7 48 68	 movzx	 ecx, WORD PTR [eax+104]
  02b31	83 f9 01	 cmp	 ecx, 1
  02b34	75 2a		 jne	 SHORT $LN427@Attack

; 1447 : 						{
; 1448 : 							iRecvLife = ((AttackDamage * 10) / 100) + (lpObj->Energy / 23);

  02b36	8b 45 1c	 mov	 eax, DWORD PTR _AttackDamage$[ebp]
  02b39	6b c0 0a	 imul	 eax, 10			; 0000000aH
  02b3c	99		 cdq
  02b3d	b9 64 00 00 00	 mov	 ecx, 100		; 00000064H
  02b42	f7 f9		 idiv	 ecx
  02b44	8b c8		 mov	 ecx, eax
  02b46	8b 55 08	 mov	 edx, DWORD PTR _lpObj$[ebp]
  02b49	0f b7 82 fa 00
	00 00		 movzx	 eax, WORD PTR [edx+250]
  02b50	99		 cdq
  02b51	be 17 00 00 00	 mov	 esi, 23			; 00000017H
  02b56	f7 fe		 idiv	 esi
  02b58	03 c8		 add	 ecx, eax
  02b5a	89 8d 14 fe ff
	ff		 mov	 DWORD PTR _iRecvLife$240343[ebp], ecx
$LN427@Attack:

; 1449 : 						}
; 1450 : 
; 1451 : 						int CurrentLife = (int)(iRecvLife + lpObj->Life);

  02b60	db 85 14 fe ff
	ff		 fild	 DWORD PTR _iRecvLife$240343[ebp]
  02b66	8b 45 08	 mov	 eax, DWORD PTR _lpObj$[ebp]
  02b69	d8 80 fc 00 00
	00		 fadd	 DWORD PTR [eax+252]
  02b6f	e8 00 00 00 00	 call	 __ftol2_sse
  02b74	89 85 10 fe ff
	ff		 mov	 DWORD PTR _CurrentLife$240348[ebp], eax

; 1452 : 
; 1453 : 						if(CurrentLife > (lpObj->AddLife + lpObj->MaxLife))

  02b7a	db 85 10 fe ff
	ff		 fild	 DWORD PTR _CurrentLife$240348[ebp]
  02b80	8b 45 08	 mov	 eax, DWORD PTR _lpObj$[ebp]
  02b83	db 80 4c 01 00
	00		 fild	 DWORD PTR [eax+332]
  02b89	8b 4d 08	 mov	 ecx, DWORD PTR _lpObj$[ebp]
  02b8c	d8 81 00 01 00
	00		 fadd	 DWORD PTR [ecx+256]
  02b92	de d9		 fcompp
  02b94	df e0		 fnstsw	 ax
  02b96	f6 c4 05	 test	 ah, 5
  02b99	7a 1d		 jp	 SHORT $LN426@Attack

; 1454 : 						{
; 1455 : 							lpObj->Life = lpObj->AddLife + lpObj->MaxLife;

  02b9b	8b 45 08	 mov	 eax, DWORD PTR _lpObj$[ebp]
  02b9e	db 80 4c 01 00
	00		 fild	 DWORD PTR [eax+332]
  02ba4	8b 4d 08	 mov	 ecx, DWORD PTR _lpObj$[ebp]
  02ba7	d8 81 00 01 00
	00		 fadd	 DWORD PTR [ecx+256]
  02bad	8b 55 08	 mov	 edx, DWORD PTR _lpObj$[ebp]
  02bb0	d9 9a fc 00 00
	00		 fstp	 DWORD PTR [edx+252]

; 1456 : 						}
; 1457 : 						else

  02bb6	eb 0f		 jmp	 SHORT $LN425@Attack
$LN426@Attack:

; 1458 : 						{
; 1459 : 							lpObj->Life = (float)CurrentLife;

  02bb8	db 85 10 fe ff
	ff		 fild	 DWORD PTR _CurrentLife$240348[ebp]
  02bbe	8b 45 08	 mov	 eax, DWORD PTR _lpObj$[ebp]
  02bc1	d9 98 fc 00 00
	00		 fstp	 DWORD PTR [eax+252]
$LN425@Attack:

; 1460 : 						}
; 1461 : 
; 1462 : 						GCReFillSend(lpObj->m_Index,lpObj->Life, -1, 0, lpObj->iShield);

  02bc7	8b 45 08	 mov	 eax, DWORD PTR _lpObj$[ebp]
  02bca	8b 88 54 01 00
	00		 mov	 ecx, DWORD PTR [eax+340]
  02bd0	51		 push	 ecx
  02bd1	6a 00		 push	 0
  02bd3	68 ff 00 00 00	 push	 255			; 000000ffH
  02bd8	8b 55 08	 mov	 edx, DWORD PTR _lpObj$[ebp]
  02bdb	d9 82 fc 00 00
	00		 fld	 DWORD PTR [edx+252]
  02be1	e8 00 00 00 00	 call	 __ftol2_sse
  02be6	50		 push	 eax
  02be7	8b 45 08	 mov	 eax, DWORD PTR _lpObj$[ebp]
  02bea	8b 08		 mov	 ecx, DWORD PTR [eax]
  02bec	51		 push	 ecx
  02bed	e8 00 00 00 00	 call	 ?GCReFillSend@@YAXHHEEH@Z ; GCReFillSend
  02bf2	83 c4 14	 add	 esp, 20			; 00000014H

; 1463 : 					}
; 1464 : 					break;

  02bf5	e9 53 0e 00 00	 jmp	 $LN459@Attack
$LN424@Attack:

; 1465 : 				case 215: //Chain Lightning Skill
; 1466 : #if(S5E4)
; 1467 : 				case 540:
; 1468 : 				case 541:
; 1469 : 				case 542:
; 1470 : 				case 543:
; 1471 : 				case 544:
; 1472 : #endif
; 1473 : 					{
; 1474 : 						switch(bCombo) //LOOL!!

  02bfa	8b 45 20	 mov	 eax, DWORD PTR _bCombo$[ebp]
  02bfd	89 85 c8 fc ff
	ff		 mov	 DWORD PTR tv2012[ebp], eax
  02c03	83 bd c8 fc ff
	ff 01		 cmp	 DWORD PTR tv2012[ebp], 1
  02c0a	74 14		 je	 SHORT $LN421@Attack
  02c0c	83 bd c8 fc ff
	ff 02		 cmp	 DWORD PTR tv2012[ebp], 2
  02c13	74 0d		 je	 SHORT $LN420@Attack
  02c15	83 bd c8 fc ff
	ff 03		 cmp	 DWORD PTR tv2012[ebp], 3
  02c1c	74 17		 je	 SHORT $LN419@Attack
  02c1e	eb 28		 jmp	 SHORT $LN418@Attack
$LN421@Attack:

; 1475 : 						{
; 1476 : 						case 1:
; 1477 : 							break;

  02c20	eb 2d		 jmp	 SHORT $LN422@Attack
$LN420@Attack:

; 1478 : 						case 2:
; 1479 : 							AttackDamage = AttackDamage * 70/ 100;

  02c22	8b 45 1c	 mov	 eax, DWORD PTR _AttackDamage$[ebp]
  02c25	6b c0 46	 imul	 eax, 70			; 00000046H
  02c28	99		 cdq
  02c29	b9 64 00 00 00	 mov	 ecx, 100		; 00000064H
  02c2e	f7 f9		 idiv	 ecx
  02c30	89 45 1c	 mov	 DWORD PTR _AttackDamage$[ebp], eax

; 1480 : 							break;

  02c33	eb 1a		 jmp	 SHORT $LN422@Attack
$LN419@Attack:

; 1481 : 						case 3:
; 1482 : 							AttackDamage = AttackDamage * 50/ 100;

  02c35	8b 45 1c	 mov	 eax, DWORD PTR _AttackDamage$[ebp]
  02c38	6b c0 32	 imul	 eax, 50			; 00000032H
  02c3b	99		 cdq
  02c3c	b9 64 00 00 00	 mov	 ecx, 100		; 00000064H
  02c41	f7 f9		 idiv	 ecx
  02c43	89 45 1c	 mov	 DWORD PTR _AttackDamage$[ebp], eax

; 1483 : 							break;

  02c46	eb 07		 jmp	 SHORT $LN422@Attack
$LN418@Attack:

; 1484 : 						default:
; 1485 : 							return FALSE;

  02c48	33 c0		 xor	 eax, eax
  02c4a	e9 a8 3d 00 00	 jmp	 $LN741@Attack
$LN422@Attack:

; 1486 : 						}
; 1487 : 						bCombo = 0; 

  02c4f	c7 45 20 00 00
	00 00		 mov	 DWORD PTR _bCombo$[ebp], 0

; 1488 : 					}
; 1489 : 					break;

  02c56	e9 f2 0d 00 00	 jmp	 $LN459@Attack
$LN417@Attack:

; 1490 : 
; 1491 : 				case 223: //Book of Sahamutt
; 1492 : 					{
; 1493 : 						int value;
; 1494 : 
; 1495 : 						if( lpObj->m_MPSkillOpt.MpsFireTomeMastery > 0 )

  02c5b	8b 45 08	 mov	 eax, DWORD PTR _lpObj$[ebp]
  02c5e	d9 80 dc 26 00
	00		 fld	 DWORD PTR [eax+9948]
  02c64	dc 1d 00 00 00
	00		 fcomp	 QWORD PTR __real@0000000000000000
  02c6a	df e0		 fnstsw	 ax
  02c6c	f6 c4 41	 test	 ah, 65			; 00000041H
  02c6f	75 27		 jne	 SHORT $LN416@Attack

; 1496 : 						{
; 1497 : 							value = AttackDamage * (60.0f+lpObj->m_MPSkillOpt.MpsFireTomeMastery) / 100.0f;

  02c71	db 45 1c	 fild	 DWORD PTR _AttackDamage$[ebp]
  02c74	8b 45 08	 mov	 eax, DWORD PTR _lpObj$[ebp]
  02c77	d9 80 dc 26 00
	00		 fld	 DWORD PTR [eax+9948]
  02c7d	dc 05 00 00 00
	00		 fadd	 QWORD PTR __real@404e000000000000
  02c83	de c9		 fmulp	 ST(1), ST(0)
  02c85	dc 35 00 00 00
	00		 fdiv	 QWORD PTR __real@4059000000000000
  02c8b	e8 00 00 00 00	 call	 __ftol2_sse
  02c90	89 85 0c fe ff
	ff		 mov	 DWORD PTR _value$240363[ebp], eax

; 1498 : 						}
; 1499 : 						else

  02c96	eb 14		 jmp	 SHORT $LN415@Attack
$LN416@Attack:

; 1500 : 						{
; 1501 : 							value = AttackDamage * 60 / 100;

  02c98	8b 45 1c	 mov	 eax, DWORD PTR _AttackDamage$[ebp]
  02c9b	6b c0 3c	 imul	 eax, 60			; 0000003cH
  02c9e	99		 cdq
  02c9f	b9 64 00 00 00	 mov	 ecx, 100		; 00000064H
  02ca4	f7 f9		 idiv	 ecx
  02ca6	89 85 0c fe ff
	ff		 mov	 DWORD PTR _value$240363[ebp], eax
$LN415@Attack:

; 1502 : 						}
; 1503 : 						
; 1504 : 						gObjApplyBuffEffectDuration(lpTargetObj, AT_EXPLOSION, 18, value, 0, 0, 5);

  02cac	6a 05		 push	 5
  02cae	6a 00		 push	 0
  02cb0	6a 00		 push	 0
  02cb2	8b 85 0c fe ff
	ff		 mov	 eax, DWORD PTR _value$240363[ebp]
  02cb8	50		 push	 eax
  02cb9	6a 12		 push	 18			; 00000012H
  02cbb	6a 4b		 push	 75			; 0000004bH
  02cbd	8b 4d 0c	 mov	 ecx, DWORD PTR _lpTargetObj$[ebp]
  02cc0	51		 push	 ecx
  02cc1	e8 00 00 00 00	 call	 ?gObjApplyBuffEffectDuration@@YAEPAUOBJECTSTRUCT@@HEHEHH@Z ; gObjApplyBuffEffectDuration
  02cc6	83 c4 1c	 add	 esp, 28			; 0000001cH

; 1505 : 					}
; 1506 : 					break;

  02cc9	e9 7f 0d 00 00	 jmp	 $LN459@Attack
$LN414@Attack:

; 1507 : 				case 224: //Book of Neil
; 1508 : 					{
; 1509 : 						int value = AttackDamage * 60 / 100;

  02cce	8b 45 1c	 mov	 eax, DWORD PTR _AttackDamage$[ebp]
  02cd1	6b c0 3c	 imul	 eax, 60			; 0000003cH
  02cd4	99		 cdq
  02cd5	b9 64 00 00 00	 mov	 ecx, 100		; 00000064H
  02cda	f7 f9		 idiv	 ecx
  02cdc	89 85 08 fe ff
	ff		 mov	 DWORD PTR _value$240367[ebp], eax

; 1510 : 						gObjApplyBuffEffectDuration(lpTargetObj, AT_REQUIEM, 18, value, 0, 0, 5);

  02ce2	6a 05		 push	 5
  02ce4	6a 00		 push	 0
  02ce6	6a 00		 push	 0
  02ce8	8b 85 08 fe ff
	ff		 mov	 eax, DWORD PTR _value$240367[ebp]
  02cee	50		 push	 eax
  02cef	6a 12		 push	 18			; 00000012H
  02cf1	6a 4a		 push	 74			; 0000004aH
  02cf3	8b 4d 0c	 mov	 ecx, DWORD PTR _lpTargetObj$[ebp]
  02cf6	51		 push	 ecx
  02cf7	e8 00 00 00 00	 call	 ?gObjApplyBuffEffectDuration@@YAEPAUOBJECTSTRUCT@@HEHEHH@Z ; gObjApplyBuffEffectDuration
  02cfc	83 c4 1c	 add	 esp, 28			; 0000001cH

; 1511 : 					}
; 1512 : 					break;

  02cff	e9 49 0d 00 00	 jmp	 $LN459@Attack
$LN413@Attack:

; 1513 : 				case 219: //Sleep Skill
; 1514 : 					{
; 1515 : 						//int value = 0;
; 1516 : 
; 1517 : 						//if(lpTargetObj->Type == OBJ_MONSTER)
; 1518 : 						//{
; 1519 : 						//	value = ((lpObj->Energy / 30) + (lpObj->m_iSummonerBookSpell / 6) + 20);
; 1520 : 						//}
; 1521 : 						//else if(lpTargetObj->Type == OBJ_USER)
; 1522 : 						//{
; 1523 : 						//	value = ((lpObj->Energy / 37) + (lpObj->m_iSummonerBookSpell / 6) + 15);
; 1524 : 						//}
; 1525 : 
; 1526 : 						//if(value < rand()%100)
; 1527 : 						//{
; 1528 : 						//	GCDamageSend(lpObj->m_Index, lpTargetObj->m_Index, 0, 0, 0, 0);
; 1529 : 						//	return FALSE;
; 1530 : 						//}
; 1531 : 
; 1532 : 						//int value2 = 0;
; 1533 : 
; 1534 : 						//if(lpTargetObj->Type == OBJ_MONSTER)
; 1535 : 						//{
; 1536 : 						//	value2 = ((lpObj->Energy / 100) + 5) - (lpTargetObj->Level / 20);
; 1537 : 						//}
; 1538 : 						//else if(lpTargetObj->Type == OBJ_USER)
; 1539 : 						//{
; 1540 : 						//	value2 = ((lpObj->Energy / 250) + ((lpObj->Level - lpTargetObj->Level) / 100) + 4);
; 1541 : 						//}
; 1542 : 
; 1543 : 						//if(value2 < 1)
; 1544 : 						//{
; 1545 : 						//	GCDamageSend(lpObj->m_Index, lpTargetObj->m_Index, 0, 0, 0, 0);
; 1546 : 						//	return FALSE;
; 1547 : 						//}
; 1548 : 
; 1549 : 						//if(gObjCheckBuffEffectValue(lpTargetObj, AT_SLEEP, value2, 0) == 1)
; 1550 : 						//{
; 1551 : 						//	GCMagicAttackNumberSend(lpObj, 219, lpTargetObj->m_Index, 0);
; 1552 : 						//	return FALSE;
; 1553 : 						//}
; 1554 : 
; 1555 : 						//gObjApplyBuffEffectDuration(lpTargetObj, AT_SLEEP, 25, value2, 0, 0, value2);
; 1556 : 						//return TRUE;
; 1557 : 
; 1558 : 						int Rate = 0;

  02d04	c7 85 04 fe ff
	ff 00 00 00 00	 mov	 DWORD PTR _Rate$240369[ebp], 0

; 1559 : 
; 1560 : 						if( lpTargetObj->Type == OBJ_MONSTER )

  02d0e	8b 45 0c	 mov	 eax, DWORD PTR _lpTargetObj$[ebp]
  02d11	0f b7 48 68	 movzx	 ecx, WORD PTR [eax+104]
  02d15	83 f9 02	 cmp	 ecx, 2
  02d18	75 5f		 jne	 SHORT $LN412@Attack

; 1561 : 						{
; 1562 : 							Rate = g_SkillAdditionInfo.SleepRateStartVsMob + lpObj->Energy / g_SkillAdditionInfo.SleepRateDivVsMob + lpObj->m_iSummonerBookSpell / 6;

  02d1a	0f b7 0d 3c 0c
	00 00		 movzx	 ecx, WORD PTR ?g_SkillAdditionInfo@@3VCSkillAdditionInfo@@A+3132
  02d21	8b 55 08	 mov	 edx, DWORD PTR _lpObj$[ebp]
  02d24	0f b7 82 fa 00
	00 00		 movzx	 eax, WORD PTR [edx+250]
  02d2b	0f b7 35 3e 0c
	00 00		 movzx	 esi, WORD PTR ?g_SkillAdditionInfo@@3VCSkillAdditionInfo@@A+3134
  02d32	99		 cdq
  02d33	f7 fe		 idiv	 esi
  02d35	03 c8		 add	 ecx, eax
  02d37	8b 45 08	 mov	 eax, DWORD PTR _lpObj$[ebp]
  02d3a	8b 80 a0 04 00
	00		 mov	 eax, DWORD PTR [eax+1184]
  02d40	99		 cdq
  02d41	be 06 00 00 00	 mov	 esi, 6
  02d46	f7 fe		 idiv	 esi
  02d48	03 c8		 add	 ecx, eax
  02d4a	89 8d 04 fe ff
	ff		 mov	 DWORD PTR _Rate$240369[ebp], ecx

; 1563 : 
; 1564 : 							if(g_SkillAdditionInfo.SleepRateMaxVsMob	!= 0)

  02d50	0f b7 05 40 0c
	00 00		 movzx	 eax, WORD PTR ?g_SkillAdditionInfo@@3VCSkillAdditionInfo@@A+3136
  02d57	85 c0		 test	 eax, eax
  02d59	74 1c		 je	 SHORT $LN410@Attack

; 1565 : 							{
; 1566 : 								if(Rate > g_SkillAdditionInfo.SleepRateMaxVsMob)

  02d5b	0f b7 05 40 0c
	00 00		 movzx	 eax, WORD PTR ?g_SkillAdditionInfo@@3VCSkillAdditionInfo@@A+3136
  02d62	39 85 04 fe ff
	ff		 cmp	 DWORD PTR _Rate$240369[ebp], eax
  02d68	7e 0d		 jle	 SHORT $LN410@Attack

; 1567 : 								{
; 1568 : 									Rate = g_SkillAdditionInfo.SleepRateMaxVsMob;

  02d6a	0f b7 05 40 0c
	00 00		 movzx	 eax, WORD PTR ?g_SkillAdditionInfo@@3VCSkillAdditionInfo@@A+3136
  02d71	89 85 04 fe ff
	ff		 mov	 DWORD PTR _Rate$240369[ebp], eax
$LN410@Attack:

; 1569 : 								}
; 1570 : 							}
; 1571 : 						}

  02d77	eb 69		 jmp	 SHORT $LN406@Attack
$LN412@Attack:

; 1572 : 						else if( lpTargetObj->Type == OBJ_USER )

  02d79	8b 45 0c	 mov	 eax, DWORD PTR _lpTargetObj$[ebp]
  02d7c	0f b7 48 68	 movzx	 ecx, WORD PTR [eax+104]
  02d80	83 f9 01	 cmp	 ecx, 1
  02d83	75 5d		 jne	 SHORT $LN406@Attack

; 1573 : 						{
; 1574 : 							Rate = g_SkillAdditionInfo.SleepRateStartVsUser + lpObj->Energy / g_SkillAdditionInfo.SleepRateDivVsUser + lpObj->m_iSummonerBookSpell / 6;

  02d85	0f b7 0d 48 0c
	00 00		 movzx	 ecx, WORD PTR ?g_SkillAdditionInfo@@3VCSkillAdditionInfo@@A+3144
  02d8c	8b 55 08	 mov	 edx, DWORD PTR _lpObj$[ebp]
  02d8f	0f b7 82 fa 00
	00 00		 movzx	 eax, WORD PTR [edx+250]
  02d96	0f b7 35 4a 0c
	00 00		 movzx	 esi, WORD PTR ?g_SkillAdditionInfo@@3VCSkillAdditionInfo@@A+3146
  02d9d	99		 cdq
  02d9e	f7 fe		 idiv	 esi
  02da0	03 c8		 add	 ecx, eax
  02da2	8b 45 08	 mov	 eax, DWORD PTR _lpObj$[ebp]
  02da5	8b 80 a0 04 00
	00		 mov	 eax, DWORD PTR [eax+1184]
  02dab	99		 cdq
  02dac	be 06 00 00 00	 mov	 esi, 6
  02db1	f7 fe		 idiv	 esi
  02db3	03 c8		 add	 ecx, eax
  02db5	89 8d 04 fe ff
	ff		 mov	 DWORD PTR _Rate$240369[ebp], ecx

; 1575 : 
; 1576 : 							if(g_SkillAdditionInfo.SleepRateMaxVsUser	!= 0)

  02dbb	0f b7 05 4c 0c
	00 00		 movzx	 eax, WORD PTR ?g_SkillAdditionInfo@@3VCSkillAdditionInfo@@A+3148
  02dc2	85 c0		 test	 eax, eax
  02dc4	74 1c		 je	 SHORT $LN406@Attack

; 1577 : 							{
; 1578 : 								if(Rate > g_SkillAdditionInfo.SleepRateMaxVsUser)

  02dc6	0f b7 05 4c 0c
	00 00		 movzx	 eax, WORD PTR ?g_SkillAdditionInfo@@3VCSkillAdditionInfo@@A+3148
  02dcd	39 85 04 fe ff
	ff		 cmp	 DWORD PTR _Rate$240369[ebp], eax
  02dd3	7e 0d		 jle	 SHORT $LN406@Attack

; 1579 : 								{
; 1580 : 									Rate = g_SkillAdditionInfo.SleepRateMaxVsUser;

  02dd5	0f b7 05 4c 0c
	00 00		 movzx	 eax, WORD PTR ?g_SkillAdditionInfo@@3VCSkillAdditionInfo@@A+3148
  02ddc	89 85 04 fe ff
	ff		 mov	 DWORD PTR _Rate$240369[ebp], eax
$LN406@Attack:

; 1581 : 								}
; 1582 : 							}
; 1583 : 						}
; 1584 : 
; 1585 : 						if( Rate < rand()%100)

  02de2	e8 00 00 00 00	 call	 _rand
  02de7	99		 cdq
  02de8	b9 64 00 00 00	 mov	 ecx, 100		; 00000064H
  02ded	f7 f9		 idiv	 ecx
  02def	39 95 04 fe ff
	ff		 cmp	 DWORD PTR _Rate$240369[ebp], edx
  02df5	7d 23		 jge	 SHORT $LN405@Attack

; 1586 : 						{
; 1587 : 							GCDamageSend(lpObj->m_Index,lpTargetObj->m_Index,0,0,0,0);

  02df7	6a 00		 push	 0
  02df9	6a 00		 push	 0
  02dfb	6a 00		 push	 0
  02dfd	6a 00		 push	 0
  02dff	8b 45 0c	 mov	 eax, DWORD PTR _lpTargetObj$[ebp]
  02e02	8b 08		 mov	 ecx, DWORD PTR [eax]
  02e04	51		 push	 ecx
  02e05	8b 55 08	 mov	 edx, DWORD PTR _lpObj$[ebp]
  02e08	8b 02		 mov	 eax, DWORD PTR [edx]
  02e0a	50		 push	 eax
  02e0b	e8 00 00 00 00	 call	 ?GCDamageSend@@YAXHHHHHH@Z ; GCDamageSend
  02e10	83 c4 18	 add	 esp, 24			; 00000018H

; 1588 : 							return FALSE;

  02e13	33 c0		 xor	 eax, eax
  02e15	e9 dd 3b 00 00	 jmp	 $LN741@Attack
$LN405@Attack:

; 1589 : 						}
; 1590 : 
; 1591 : 						int SleepTime = 0;

  02e1a	c7 85 00 fe ff
	ff 00 00 00 00	 mov	 DWORD PTR _SleepTime$240378[ebp], 0

; 1592 : 
; 1593 : 						if( lpTargetObj->Type == OBJ_MONSTER )

  02e24	8b 45 0c	 mov	 eax, DWORD PTR _lpTargetObj$[ebp]
  02e27	0f b7 48 68	 movzx	 ecx, WORD PTR [eax+104]
  02e2b	83 f9 02	 cmp	 ecx, 2
  02e2e	75 60		 jne	 SHORT $LN404@Attack

; 1594 : 						{
; 1595 : 							SleepTime = (g_SkillAdditionInfo.SleepTimeStartVsMob + lpObj->Energy /g_SkillAdditionInfo.SleepTimeDivVsMob) - lpTargetObj->Level / 20;

  02e30	0f b7 0d 42 0c
	00 00		 movzx	 ecx, WORD PTR ?g_SkillAdditionInfo@@3VCSkillAdditionInfo@@A+3138
  02e37	8b 55 08	 mov	 edx, DWORD PTR _lpObj$[ebp]
  02e3a	0f b7 82 fa 00
	00 00		 movzx	 eax, WORD PTR [edx+250]
  02e41	0f b7 35 44 0c
	00 00		 movzx	 esi, WORD PTR ?g_SkillAdditionInfo@@3VCSkillAdditionInfo@@A+3140
  02e48	99		 cdq
  02e49	f7 fe		 idiv	 esi
  02e4b	03 c8		 add	 ecx, eax
  02e4d	8b 45 0c	 mov	 eax, DWORD PTR _lpTargetObj$[ebp]
  02e50	0f bf 80 be 00
	00 00		 movsx	 eax, WORD PTR [eax+190]
  02e57	99		 cdq
  02e58	be 14 00 00 00	 mov	 esi, 20			; 00000014H
  02e5d	f7 fe		 idiv	 esi
  02e5f	2b c8		 sub	 ecx, eax
  02e61	89 8d 00 fe ff
	ff		 mov	 DWORD PTR _SleepTime$240378[ebp], ecx

; 1596 : 
; 1597 : 							if(g_SkillAdditionInfo.SleepTimeMaxVsMob != 0)

  02e67	0f b7 05 46 0c
	00 00		 movzx	 eax, WORD PTR ?g_SkillAdditionInfo@@3VCSkillAdditionInfo@@A+3142
  02e6e	85 c0		 test	 eax, eax
  02e70	74 1c		 je	 SHORT $LN402@Attack

; 1598 : 							{
; 1599 : 								if(SleepTime > g_SkillAdditionInfo.SleepTimeMaxVsMob)

  02e72	0f b7 05 46 0c
	00 00		 movzx	 eax, WORD PTR ?g_SkillAdditionInfo@@3VCSkillAdditionInfo@@A+3142
  02e79	39 85 00 fe ff
	ff		 cmp	 DWORD PTR _SleepTime$240378[ebp], eax
  02e7f	7e 0d		 jle	 SHORT $LN402@Attack

; 1600 : 								{
; 1601 : 									SleepTime = g_SkillAdditionInfo.SleepTimeMaxVsMob;

  02e81	0f b7 05 46 0c
	00 00		 movzx	 eax, WORD PTR ?g_SkillAdditionInfo@@3VCSkillAdditionInfo@@A+3142
  02e88	89 85 00 fe ff
	ff		 mov	 DWORD PTR _SleepTime$240378[ebp], eax
$LN402@Attack:

; 1602 : 								}
; 1603 : 							}
; 1604 : 						}

  02e8e	eb 78		 jmp	 SHORT $LN398@Attack
$LN404@Attack:

; 1605 : 						else if( lpTargetObj->Type == OBJ_USER )

  02e90	8b 45 0c	 mov	 eax, DWORD PTR _lpTargetObj$[ebp]
  02e93	0f b7 48 68	 movzx	 ecx, WORD PTR [eax+104]
  02e97	83 f9 01	 cmp	 ecx, 1
  02e9a	75 6c		 jne	 SHORT $LN398@Attack

; 1606 : 						{
; 1607 : 							SleepTime = g_SkillAdditionInfo.SleepTimeStartVsUser + ((lpObj->Energy /g_SkillAdditionInfo.SleepTimeDivVsUser) + (lpObj->Level - lpTargetObj->Level) / 100);

  02e9c	0f b7 0d 4e 0c
	00 00		 movzx	 ecx, WORD PTR ?g_SkillAdditionInfo@@3VCSkillAdditionInfo@@A+3150
  02ea3	8b 55 08	 mov	 edx, DWORD PTR _lpObj$[ebp]
  02ea6	0f b7 82 fa 00
	00 00		 movzx	 eax, WORD PTR [edx+250]
  02ead	0f b7 35 50 0c
	00 00		 movzx	 esi, WORD PTR ?g_SkillAdditionInfo@@3VCSkillAdditionInfo@@A+3152
  02eb4	99		 cdq
  02eb5	f7 fe		 idiv	 esi
  02eb7	8b f0		 mov	 esi, eax
  02eb9	8b 45 08	 mov	 eax, DWORD PTR _lpObj$[ebp]
  02ebc	0f bf 80 be 00
	00 00		 movsx	 eax, WORD PTR [eax+190]
  02ec3	8b 55 0c	 mov	 edx, DWORD PTR _lpTargetObj$[ebp]
  02ec6	0f bf 92 be 00
	00 00		 movsx	 edx, WORD PTR [edx+190]
  02ecd	2b c2		 sub	 eax, edx
  02ecf	99		 cdq
  02ed0	bf 64 00 00 00	 mov	 edi, 100		; 00000064H
  02ed5	f7 ff		 idiv	 edi
  02ed7	03 f0		 add	 esi, eax
  02ed9	03 ce		 add	 ecx, esi
  02edb	89 8d 00 fe ff
	ff		 mov	 DWORD PTR _SleepTime$240378[ebp], ecx

; 1608 : 
; 1609 : 							if(g_SkillAdditionInfo.SleepTimeMaxVsUser != 0)

  02ee1	0f b7 05 52 0c
	00 00		 movzx	 eax, WORD PTR ?g_SkillAdditionInfo@@3VCSkillAdditionInfo@@A+3154
  02ee8	85 c0		 test	 eax, eax
  02eea	74 1c		 je	 SHORT $LN398@Attack

; 1610 : 							{
; 1611 : 								if(SleepTime > g_SkillAdditionInfo.SleepTimeMaxVsUser)

  02eec	0f b7 05 52 0c
	00 00		 movzx	 eax, WORD PTR ?g_SkillAdditionInfo@@3VCSkillAdditionInfo@@A+3154
  02ef3	39 85 00 fe ff
	ff		 cmp	 DWORD PTR _SleepTime$240378[ebp], eax
  02ef9	7e 0d		 jle	 SHORT $LN398@Attack

; 1612 : 								{
; 1613 : 									SleepTime = g_SkillAdditionInfo.SleepTimeMaxVsUser;

  02efb	0f b7 05 52 0c
	00 00		 movzx	 eax, WORD PTR ?g_SkillAdditionInfo@@3VCSkillAdditionInfo@@A+3154
  02f02	89 85 00 fe ff
	ff		 mov	 DWORD PTR _SleepTime$240378[ebp], eax
$LN398@Attack:

; 1614 : 								}
; 1615 : 							}
; 1616 : 						}
; 1617 : 
; 1618 : 						if( SleepTime < 1 )

  02f08	83 bd 00 fe ff
	ff 01		 cmp	 DWORD PTR _SleepTime$240378[ebp], 1
