; Listing generated by Microsoft (R) Optimizing Compiler Version 16.00.40219.01 

	TITLE	D:\Projects\ExTeam6.3\Source\GameServer\GameServer\ObjCalCharacter.cpp
	.686P
	.XMM
	include listing.inc
	.model	flat

INCLUDELIB LIBCMT
INCLUDELIB OLDNAMES

_DATA	SEGMENT
_g_iNpcUpDfLevel_CGATE DD 01H
	DD	02H
	DD	02dc6c0H
	DD	02H
	DD	03H
	DD	02dc6c0H
	DD	03H
	DD	04H
	DD	02dc6c0H
_g_iNpcUpDfLevel_CSTATUE DD 01H
	DD	03H
	DD	02dc6c0H
	DD	02H
	DD	05H
	DD	02dc6c0H
	DD	03H
	DD	07H
	DD	02dc6c0H
_g_iNpcUpMaxHP_CGATE DD 02625a0H
	DD	02H
	DD	0f4240H
	DD	03567e0H
	DD	03H
	DD	0f4240H
	DD	04f5880H
	DD	04H
	DD	0f4240H
_g_iNpcUpMaxHP_CSTATUE DD 02191c0H
	DD	03H
	DD	0f4240H
	DD	033e140H
	DD	05H
	DD	0f4240H
	DD	04c4b40H
	DD	07H
	DD	0f4240H
_g_iNpcUpRgLevel_CSTATUE DD 01H
	DD	03H
	DD	04c4b40H
	DD	02H
	DD	05H
	DD	04c4b40H
	DD	03H
	DD	07H
	DD	04c4b40H
_g_iCsUserReSpawnArea DD 023H
	DD	011H
	DD	090H
	DD	030H
	DD	04aH
	DD	090H
	DD	073H
	DD	09aH
	DD	023H
	DD	011H
	DD	090H
	DD	030H
_g_iNpcDefense_CGATE DD 064H
	DD	0b4H
	DD	012cH
	DD	0208H
_g_iNpcDefense_CSTATUE DD 050H
	DD	0b4H
	DD	0154H
	DD	0226H
_g_iCastleWallStepAxisY DD 071H
	DD	0a0H
	DD	0cbH
_DATA	ENDS
PUBLIC	??_H@YGXPAXIHP6EPAX0@Z@Z			; `vector constructor iterator'
; Function compile flags: /Odtp /ZI
;	COMDAT ??_H@YGXPAXIHP6EPAX0@Z@Z
_TEXT	SEGMENT
___t$ = 8						; size = 4
___s$ = 12						; size = 4
___n$ = 16						; size = 4
___f$ = 20						; size = 4
??_H@YGXPAXIHP6EPAX0@Z@Z PROC				; `vector constructor iterator', COMDAT
  00000	55		 push	 ebp
  00001	8b ec		 mov	 ebp, esp
  00003	83 ec 40	 sub	 esp, 64			; 00000040H
  00006	53		 push	 ebx
  00007	56		 push	 esi
  00008	57		 push	 edi
$LN2@vector:
  00009	8b 45 10	 mov	 eax, DWORD PTR ___n$[ebp]
  0000c	83 e8 01	 sub	 eax, 1
  0000f	89 45 10	 mov	 DWORD PTR ___n$[ebp], eax
  00012	78 11		 js	 SHORT $LN3@vector
  00014	8b 4d 08	 mov	 ecx, DWORD PTR ___t$[ebp]
  00017	ff 55 14	 call	 DWORD PTR ___f$[ebp]
  0001a	8b 45 08	 mov	 eax, DWORD PTR ___t$[ebp]
  0001d	03 45 0c	 add	 eax, DWORD PTR ___s$[ebp]
  00020	89 45 08	 mov	 DWORD PTR ___t$[ebp], eax
  00023	eb e4		 jmp	 SHORT $LN2@vector
$LN3@vector:
  00025	5f		 pop	 edi
  00026	5e		 pop	 esi
  00027	5b		 pop	 ebx
  00028	8b e5		 mov	 esp, ebp
  0002a	5d		 pop	 ebp
  0002b	c2 10 00	 ret	 16			; 00000010H
??_H@YGXPAXIHP6EPAX0@Z@Z ENDP				; `vector constructor iterator'
_TEXT	ENDS
PUBLIC	?gObjCalcShieldPoint@@YAXPAUOBJECTSTRUCT@@@Z	; gObjCalcShieldPoint
PUBLIC	__real@3fb1eb8520000000
PUBLIC	__real@3fa99999a0000000
PUBLIC	__real@3ff0000000000000
PUBLIC	__real@3f9eb851e0000000
PUBLIC	?gObjSetItemApply@@YAXPAUOBJECTSTRUCT@@@Z	; gObjSetItemApply
PUBLIC	?GObjExtItemApply@@YAXPAUOBJECTSTRUCT@@@Z	; GObjExtItemApply
PUBLIC	__real@4034000000000000
PUBLIC	__real@4059000000000000
PUBLIC	__real@0000000000000000
PUBLIC	??_C@_0BC@GFGEFHFO@Leadership?3?5?$CFd?0?$CFd?$AA@ ; `string'
PUBLIC	??_C@_0CB@KNPOLDNB@Vitality?3?5?$CFd?0?$CFd?5?5?5?5Energy?3?5?$CFd?0?$CFd@ ; `string'
PUBLIC	??_C@_0CE@OBLIFBFL@Strength?3?5?$CFd?0?$CFd?5?5?5?5Dexterity?3?5?$CFd@ ; `string'
PUBLIC	?gObjValidItem@@YAHPAUOBJECTSTRUCT@@PAVCItem@@H@Z ; gObjValidItem
PUBLIC	?gObjCalcSetItemOption@@YAXPAUOBJECTSTRUCT@@@Z	; gObjCalcSetItemOption
PUBLIC	?gObjCalcSetItemStat@@YAXPAUOBJECTSTRUCT@@@Z	; gObjCalcSetItemStat
PUBLIC	__$ArrayPad$
PUBLIC	?gObjCalCharacter@@YAXH@Z			; gObjCalCharacter
EXTRN	?Send@CStatsAdvance@@QAEXH@Z:PROC		; CStatsAdvance::Send
EXTRN	?g_StatsAdvance@@3VCStatsAdvance@@A:DWORD	; g_StatsAdvance
EXTRN	?PlayerCalculator@cWingsDamage@@QAEXH@Z:PROC	; cWingsDamage::PlayerCalculator
EXTRN	?gWingsDamage@@3VcWingsDamage@@A:BYTE		; gWingsDamage
EXTRN	?GCManaSend@@YAXHHEEH@Z:PROC			; GCManaSend
EXTRN	?GCReFillSend@@YAXHHEEH@Z:PROC			; GCReFillSend
EXTRN	?Refflect@cBalanceSystem@@QAEXPAUOBJECTSTRUCT@@@Z:PROC ; cBalanceSystem::Refflect
EXTRN	?gBalanceSystem@@3VcBalanceSystem@@A:BYTE	; gBalanceSystem
EXTRN	?PlayerCalculator@Voter@@QAEXH@Z:PROC		; Voter::PlayerCalculator
EXTRN	?gVoter@@3VVoter@@A:BYTE			; gVoter
EXTRN	?Main@cMaxPower@@QAEXH@Z:PROC			; cMaxPower::Main
EXTRN	?gMaxPower@@3VcMaxPower@@A:BYTE			; gMaxPower
EXTRN	?Calc@CPetEx@@QAEXH@Z:PROC			; CPetEx::Calc
EXTRN	?g_PetEx@@3VCPetEx@@A:BYTE			; g_PetEx
EXTRN	?CalculatorPower@CAchievements@@QAEXH@Z:PROC	; CAchievements::CalculatorPower
EXTRN	?g_Achievements@@3VCAchievements@@A:BYTE	; g_Achievements
EXTRN	?GuildBuffCharacter@CDungeonSiege@@QAEXH@Z:PROC	; CDungeonSiege::GuildBuffCharacter
EXTRN	?g_DungeonSiege@@3VCDungeonSiege@@A:BYTE	; g_DungeonSiege
EXTRN	?gObjSearchActiveEffect@@YAEPAUOBJECTSTRUCT@@H@Z:PROC ; gObjSearchActiveEffect
EXTRN	?AddedCharacter@CMarriage@@QAEXH@Z:PROC		; CMarriage::AddedCharacter
EXTRN	?g_Marriage@@3VCMarriage@@A:BYTE		; g_Marriage
EXTRN	?AddedCharacter@cBMQuest@@QAEXH@Z:PROC		; cBMQuest::AddedCharacter
EXTRN	?BMQuest@@3VcBMQuest@@A:BYTE			; BMQuest
EXTRN	?CharacterAdded@Brotherhood@@QAEXPAUOBJECTSTRUCT@@@Z:PROC ; Brotherhood::CharacterAdded
EXTRN	?gBrotherhood@@3VBrotherhood@@A:BYTE		; gBrotherhood
EXTRN	?Options@cExclusiveOptions@@QAEXH@Z:PROC	; cExclusiveOptions::Options
EXTRN	?gExclusiveOptions@@3VcExclusiveOptions@@A:BYTE	; gExclusiveOptions
EXTRN	?CharOptions@cWinQuestSystem@@QAEXH@Z:PROC	; cWinQuestSystem::CharOptions
EXTRN	?gWinQuestSystem@@3VcWinQuestSystem@@A:BYTE	; gWinQuestSystem
EXTRN	?CalcCharacter@cSystemOfRage@@QAEXH@Z:PROC	; cSystemOfRage::CalcCharacter
EXTRN	?ApplyForEquipment@CItemAddOption@@QAE_NPAUOBJECTSTRUCT@@@Z:PROC ; CItemAddOption::ApplyForEquipment
EXTRN	?NextSetItemLastEffectForHallowin@CItemAddOption@@QAE_NPAUOBJECTSTRUCT@@@Z:PROC ; CItemAddOption::NextSetItemLastEffectForHallowin
EXTRN	?NextSetBuffLastEffect@CViewportSkillState@@QAEXPAUOBJECTSTRUCT@@@Z:PROC ; CViewportSkillState::NextSetBuffLastEffect
EXTRN	?UserCalculatorPlus@PremiumSystemEx@@QAEXH@Z:PROC ; PremiumSystemEx::UserCalculatorPlus
EXTRN	?g_PremiumSystemEx@@3VPremiumSystemEx@@A:BYTE	; g_PremiumSystemEx
EXTRN	?NextSetItemLastEffectForCashShop@CItemAddOption@@QAE_NPAUOBJECTSTRUCT@@@Z:PROC ; CItemAddOption::NextSetItemLastEffectForCashShop
EXTRN	?ItemOption@cGrandHero@@QAEXH@Z:PROC		; cGrandHero::ItemOption
EXTRN	?GrandHero@@3VcGrandHero@@A:BYTE		; GrandHero
EXTRN	?gObjNextExpCal@@YAXPAUOBJECTSTRUCT@@@Z:PROC	; gObjNextExpCal
EXTRN	?gObjInventoryEquipment@@YAHPAUOBJECTSTRUCT@@@Z:PROC ; gObjInventoryEquipment
EXTRN	?CalCharacterSocketOption@CSocketOption@@QAEEPAUOBJECTSTRUCT@@@Z:PROC ; CSocketOption::CalCharacterSocketOption
EXTRN	?g_SocketOption@@3VCSocketOption@@A:BYTE	; g_SocketOption
EXTRN	?SetApplyStrengthenItem@CJewelOfHarmonySystem@@QAEXPAUOBJECTSTRUCT@@@Z:PROC ; CJewelOfHarmonySystem::SetApplyStrengthenItem
EXTRN	?g_kJewelOfHarmonySystem@@3VCJewelOfHarmonySystem@@A:BYTE ; g_kJewelOfHarmonySystem
EXTRN	?ApplyFor380Option@CItemSystemFor380@@QAEHPAUOBJECTSTRUCT@@@Z:PROC ; CItemSystemFor380::ApplyFor380Option
EXTRN	?g_kItemSystemFor380@@3VCItemSystemFor380@@A:BYTE ; g_kItemSystemFor380
EXTRN	?BookSpellDmg@CItem@@QAEHXZ:PROC		; CItem::BookSpellDmg
EXTRN	?PlusSpecialPercentEx@CItem@@QAEXPAHHH@Z:PROC	; CItem::PlusSpecialPercentEx
EXTRN	?gObjCheckUserPCBang@@YAHPAUOBJECTSTRUCT@@@Z:PROC ; gObjCheckUserPCBang
EXTRN	?Set@CDarkSpirit@@QAEXHPAVCItem@@@Z:PROC	; CDarkSpirit::Set
EXTRN	?gDarkSpirit@@3PAVCDarkSpirit@@A:BYTE		; gDarkSpirit
EXTRN	?gObjPandaSprite@@YAHPAUOBJECTSTRUCT@@@Z:PROC	; gObjPandaSprite
EXTRN	?gObjSpiritGuardianSprite@@YAHPAUOBJECTSTRUCT@@@Z:PROC ; gObjSpiritGuardianSprite
EXTRN	?gObjSkeletonSprite@@YAHPAUOBJECTSTRUCT@@@Z:PROC ; gObjSkeletonSprite
EXTRN	?gObjDemonSprite@@YAHPAUOBJECTSTRUCT@@@Z:PROC	; gObjDemonSprite
EXTRN	?IsFenrirDecLastAttackDamage@CItem@@QAEHXZ:PROC	; CItem::IsFenrirDecLastAttackDamage
EXTRN	?IsFenrirIncLastAttackDamage@CItem@@QAEHXZ:PROC	; CItem::IsFenrirIncLastAttackDamage
EXTRN	?IsFenrirSpecial@CItem@@QAEHXZ:PROC		; CItem::IsFenrirSpecial
EXTRN	?gMinimumAttackSpeedTime@@3HA:DWORD		; gMinimumAttackSpeedTime
EXTRN	?gDecTimePerAttackSpeed@@3MA:DWORD		; gDecTimePerAttackSpeed
EXTRN	?gAttackSpeedTimeLimit@@3KA:DWORD		; gAttackSpeedTimeLimit
EXTRN	?ItemDefense@CItem@@QAEHXZ:PROC			; CItem::ItemDefense
EXTRN	?PlusSpecial@CItem@@QAEXPAHH@Z:PROC		; CItem::PlusSpecial
EXTRN	?CalculatorManager@@3VcCalculatorManager@@A:BYTE ; CalculatorManager
EXTRN	?CheckUser@CExLicense@@QAE_NH@Z:PROC		; CExLicense::CheckUser
EXTRN	?ExConfig@@3VcExConfigs@@A:BYTE			; ExConfig
EXTRN	?GCServerMsgStringSend@@YAXPADHE@Z:PROC		; GCServerMsgStringSend
EXTRN	_sprintf:PROC
EXTRN	?g_bAbilityDebug@@3HA:DWORD			; g_bAbilityDebug
EXTRN	?CalcStats@cSystemOfRage@@QAEXH@Z:PROC		; cSystemOfRage::CalcStats
EXTRN	?gSystemOfRage@@3VcSystemOfRage@@A:BYTE		; gSystemOfRage
EXTRN	?g_ExLicense@@3VCExLicense@@A:BYTE		; g_ExLicense
EXTRN	?CalCharacterRemoveBuffEffect@CViewportSkillState@@QAEXPAUOBJECTSTRUCT@@@Z:PROC ; CViewportSkillState::CalCharacterRemoveBuffEffect
EXTRN	?PrevBuffLastEffect@CViewportSkillState@@QAEXPAUOBJECTSTRUCT@@@Z:PROC ; CViewportSkillState::PrevBuffLastEffect
EXTRN	?g_ViewportSkillState@@3VCViewportSkillState@@A:DWORD ; g_ViewportSkillState
EXTRN	?PrevSetItemLastEffectForCashShop@CItemAddOption@@QAE_NPAUOBJECTSTRUCT@@@Z:PROC ; CItemAddOption::PrevSetItemLastEffectForCashShop
EXTRN	_memset:PROC
EXTRN	?PrevSetItemLastEffectForHallowin@CItemAddOption@@QAE_NPAUOBJECTSTRUCT@@@Z:PROC ; CItemAddOption::PrevSetItemLastEffectForHallowin
EXTRN	?g_ItemAddOption@@3VCItemAddOption@@A:BYTE	; g_ItemAddOption
EXTRN	?IsItem@CItem@@QAEHXZ:PROC			; CItem::IsItem
EXTRN	?gObj@@3PAUOBJECTSTRUCT@@A:DWORD		; gObj
EXTRN	___security_cookie:DWORD
EXTRN	__fltused:DWORD
EXTRN	@__security_check_cookie@4:PROC
EXTRN	__ftol2_sse:PROC
;	COMDAT __real@3fb1eb8520000000
; File d:\projects\exteam6.3\source\gameserver\gameserver\objcalcharacter.cpp
CONST	SEGMENT
__real@3fb1eb8520000000 DQ 03fb1eb8520000000r	; 0.07
CONST	ENDS
;	COMDAT __real@3fa99999a0000000
CONST	SEGMENT
__real@3fa99999a0000000 DQ 03fa99999a0000000r	; 0.05
CONST	ENDS
;	COMDAT __real@3ff0000000000000
CONST	SEGMENT
__real@3ff0000000000000 DQ 03ff0000000000000r	; 1
CONST	ENDS
;	COMDAT __real@3f9eb851e0000000
CONST	SEGMENT
__real@3f9eb851e0000000 DQ 03f9eb851e0000000r	; 0.03
CONST	ENDS
;	COMDAT __real@4034000000000000
CONST	SEGMENT
__real@4034000000000000 DQ 04034000000000000r	; 20
CONST	ENDS
;	COMDAT __real@4059000000000000
CONST	SEGMENT
__real@4059000000000000 DQ 04059000000000000r	; 100
CONST	ENDS
;	COMDAT __real@0000000000000000
CONST	SEGMENT
__real@0000000000000000 DQ 00000000000000000r	; 0
CONST	ENDS
;	COMDAT ??_C@_0BC@GFGEFHFO@Leadership?3?5?$CFd?0?$CFd?$AA@
CONST	SEGMENT
??_C@_0BC@GFGEFHFO@Leadership?3?5?$CFd?0?$CFd?$AA@ DB 'Leadership: %d,%d', 00H ; `string'
CONST	ENDS
;	COMDAT ??_C@_0CB@KNPOLDNB@Vitality?3?5?$CFd?0?$CFd?5?5?5?5Energy?3?5?$CFd?0?$CFd@
CONST	SEGMENT
??_C@_0CB@KNPOLDNB@Vitality?3?5?$CFd?0?$CFd?5?5?5?5Energy?3?5?$CFd?0?$CFd@ DB 'V'
	DB	'itality: %d,%d    Energy: %d,%d', 00H	; `string'
CONST	ENDS
;	COMDAT ??_C@_0CE@OBLIFBFL@Strength?3?5?$CFd?0?$CFd?5?5?5?5Dexterity?3?5?$CFd@
CONST	SEGMENT
??_C@_0CE@OBLIFBFL@Strength?3?5?$CFd?0?$CFd?5?5?5?5Dexterity?3?5?$CFd@ DB 'S'
	DB	'trength: %d,%d    Dexterity: %d,%d', 00H	; `string'
; Function compile flags: /Odtp /ZI
CONST	ENDS
_TEXT	SEGMENT
tv6360 = -520						; size = 4
tv6349 = -520						; size = 4
tv6336 = -520						; size = 4
tv6325 = -520						; size = 4
tv6312 = -520						; size = 4
tv6301 = -520						; size = 4
tv6284 = -520						; size = 4
tv6273 = -520						; size = 4
tv6260 = -520						; size = 4
tv6249 = -520						; size = 4
tv6236 = -520						; size = 4
tv6225 = -520						; size = 4
tv5185 = -520						; size = 4
tv6358 = -516						; size = 4
tv6347 = -516						; size = 4
tv6334 = -516						; size = 4
tv6323 = -516						; size = 4
tv6310 = -516						; size = 4
tv6299 = -516						; size = 4
tv6282 = -516						; size = 4
tv6271 = -516						; size = 4
tv6258 = -516						; size = 4
tv6247 = -516						; size = 4
tv6234 = -516						; size = 4
tv6223 = -516						; size = 4
tv5194 = -516						; size = 8
tv5181 = -516						; size = 8
tv6166 = -512						; size = 4
tv6158 = -512						; size = 4
tv6150 = -512						; size = 4
tv2943 = -511						; size = 1
tv2903 = -511						; size = 1
tv2863 = -511						; size = 1
tv2823 = -511						; size = 1
tv2783 = -511						; size = 1
tv2743 = -511						; size = 1
tv2703 = -511						; size = 1
tv6355 = -510						; size = 2
tv6344 = -510						; size = 2
tv6331 = -510						; size = 2
tv6320 = -510						; size = 2
tv6307 = -510						; size = 2
tv6296 = -510						; size = 2
tv6279 = -510						; size = 2
tv6268 = -510						; size = 2
tv6255 = -510						; size = 2
tv6244 = -510						; size = 2
tv6231 = -510						; size = 2
tv6220 = -510						; size = 2
tv2939 = -510						; size = 1
tv2899 = -510						; size = 1
tv2859 = -510						; size = 1
tv2819 = -510						; size = 1
tv2779 = -510						; size = 1
tv2739 = -510						; size = 1
tv2699 = -510						; size = 1
tv2919 = -509						; size = 1
tv2879 = -509						; size = 1
tv2839 = -509						; size = 1
tv2799 = -509						; size = 1
tv2759 = -509						; size = 1
tv2719 = -509						; size = 1
tv2679 = -509						; size = 1
_AddProcentDefence$232981 = -444			; size = 4
_AddProcentDamage$232980 = -440				; size = 4
_AddProcentDefence$232978 = -436			; size = 4
_AddProcentDamage$232977 = -432				; size = 4
_AddProcentDefence$232975 = -428			; size = 4
_AddProcentDamage$232974 = -424				; size = 4
_AddProcentDefence$232972 = -420			; size = 4
_AddProcentDamage$232971 = -416				; size = 4
_AddProcentDoubleDamage$232969 = -412			; size = 4
_AddProcentExellentDamage$232967 = -408			; size = 4
_AddProcentCriticalDamage$232966 = -404			; size = 4
_AddProcentDefence$232964 = -400			; size = 4
_AddProcentDamage$232962 = -396				; size = 4
_comparecount$ = -392					; size = 4
_rItem$ = -388						; size = 12
_addmana$ = -376					; size = 4
_addlife$ = -372					; size = 4
_BaseLevel$232859 = -368				; size = 4
_m$232822 = -364					; size = 4
_m$232805 = -360					; size = 4
_in$232801 = -356					; size = 4
_Level15Count$ = -352					; size = 4
_Level14Count$ = -348					; size = 4
_Level13Count$ = -344					; size = 4
_Level12Count$ = -340					; size = 4
_Level10Count$ = -336					; size = 4
_Level11Count$ = -332					; size = 4
_k$232788 = -328					; size = 4
_j$232781 = -324					; size = 4
_Success$ = -319					; size = 1
_bLeft$ = -318						; size = 1
_bRight$ = -317						; size = 1
_AddLeadership$ = -316					; size = 4
_szTemp$232649 = -312					; size = 256
_bIsChangeItem$ = -56					; size = 4
_iItemIndex$ = -52					; size = 4
_iType$232627 = -48					; size = 4
_Helper$ = -44						; size = 4
_Amulet$ = -40						; size = 4
_Gloves$ = -36						; size = 4
_Left$ = -32						; size = 4
_Right$ = -28						; size = 4
_Energy$ = -24						; size = 4
_Vitality$ = -20					; size = 4
_Dexterity$ = -16					; size = 4
_Strength$ = -12					; size = 4
_lpObj$ = -8						; size = 4
__$ArrayPad$ = -4					; size = 4
_aIndex$ = 8						; size = 4
?gObjCalCharacter@@YAXH@Z PROC				; gObjCalCharacter

; 42   : {

  00000	55		 push	 ebp
  00001	8b ec		 mov	 ebp, esp
  00003	81 ec 08 02 00
	00		 sub	 esp, 520		; 00000208H
  00009	a1 00 00 00 00	 mov	 eax, DWORD PTR ___security_cookie
  0000e	33 c5		 xor	 eax, ebp
  00010	89 45 fc	 mov	 DWORD PTR __$ArrayPad$[ebp], eax
  00013	53		 push	 ebx
  00014	56		 push	 esi
  00015	57		 push	 edi

; 43   : 	LPOBJ lpObj = &gObj[aIndex];

  00016	8b 45 08	 mov	 eax, DWORD PTR _aIndex$[ebp]
  00019	69 c0 38 2b 00
	00		 imul	 eax, 11064		; 00002b38H
  0001f	03 05 00 00 00
	00		 add	 eax, DWORD PTR ?gObj@@3PAUOBJECTSTRUCT@@A ; gObj
  00025	89 45 f8	 mov	 DWORD PTR _lpObj$[ebp], eax

; 44   : 	int Strength = 0;

  00028	c7 45 f4 00 00
	00 00		 mov	 DWORD PTR _Strength$[ebp], 0

; 45   : 	int Dexterity = 0;

  0002f	c7 45 f0 00 00
	00 00		 mov	 DWORD PTR _Dexterity$[ebp], 0

; 46   : 	int Vitality = 0;

  00036	c7 45 ec 00 00
	00 00		 mov	 DWORD PTR _Vitality$[ebp], 0

; 47   : 	int Energy = 0;

  0003d	c7 45 e8 00 00
	00 00		 mov	 DWORD PTR _Energy$[ebp], 0

; 48   : 	CItem * Right = &lpObj->pInventory[0];

  00044	8b 45 f8	 mov	 eax, DWORD PTR _lpObj$[ebp]
  00047	8b 88 24 0e 00
	00		 mov	 ecx, DWORD PTR [eax+3620]
  0004d	89 4d e4	 mov	 DWORD PTR _Right$[ebp], ecx

; 49   : 	CItem * Left  = &lpObj->pInventory[1];

  00050	8b 45 f8	 mov	 eax, DWORD PTR _lpObj$[ebp]
  00053	8b 88 24 0e 00
	00		 mov	 ecx, DWORD PTR [eax+3620]
  00059	81 c1 d4 00 00
	00		 add	 ecx, 212		; 000000d4H
  0005f	89 4d e0	 mov	 DWORD PTR _Left$[ebp], ecx

; 50   : 	CItem * Gloves = &lpObj->pInventory[5];

  00062	8b 45 f8	 mov	 eax, DWORD PTR _lpObj$[ebp]
  00065	8b 88 24 0e 00
	00		 mov	 ecx, DWORD PTR [eax+3620]
  0006b	81 c1 24 04 00
	00		 add	 ecx, 1060		; 00000424H
  00071	89 4d dc	 mov	 DWORD PTR _Gloves$[ebp], ecx

; 51   : 	CItem * Amulet = &lpObj->pInventory[9];

  00074	8b 45 f8	 mov	 eax, DWORD PTR _lpObj$[ebp]
  00077	8b 88 24 0e 00
	00		 mov	 ecx, DWORD PTR [eax+3620]
  0007d	81 c1 74 07 00
	00		 add	 ecx, 1908		; 00000774H
  00083	89 4d d8	 mov	 DWORD PTR _Amulet$[ebp], ecx

; 52   : 	CItem * Helper = &lpObj->pInventory[8];

  00086	8b 45 f8	 mov	 eax, DWORD PTR _lpObj$[ebp]
  00089	8b 88 24 0e 00
	00		 mov	 ecx, DWORD PTR [eax+3620]
  0008f	81 c1 a0 06 00
	00		 add	 ecx, 1696		; 000006a0H
  00095	89 4d d4	 mov	 DWORD PTR _Helper$[ebp], ecx

; 53   : 	lpObj->HaveWeaponInHand = true;

  00098	8b 45 f8	 mov	 eax, DWORD PTR _lpObj$[ebp]
  0009b	c6 80 47 10 00
	00 01		 mov	 BYTE PTR [eax+4167], 1

; 54   : 
; 55   : 	if ( Right->IsItem() == FALSE && Left->IsItem() == FALSE )

  000a2	8b 4d e4	 mov	 ecx, DWORD PTR _Right$[ebp]
  000a5	e8 00 00 00 00	 call	 ?IsItem@CItem@@QAEHXZ	; CItem::IsItem
  000aa	85 c0		 test	 eax, eax
  000ac	75 18		 jne	 SHORT $LN280@gObjCalCha
  000ae	8b 4d e0	 mov	 ecx, DWORD PTR _Left$[ebp]
  000b1	e8 00 00 00 00	 call	 ?IsItem@CItem@@QAEHXZ	; CItem::IsItem
  000b6	85 c0		 test	 eax, eax
  000b8	75 0c		 jne	 SHORT $LN280@gObjCalCha

; 56   : 	{
; 57   : 		lpObj->HaveWeaponInHand = false;

  000ba	8b 45 f8	 mov	 eax, DWORD PTR _lpObj$[ebp]
  000bd	c6 80 47 10 00
	00 00		 mov	 BYTE PTR [eax+4167], 0
  000c4	eb 74		 jmp	 SHORT $LN273@gObjCalCha
$LN280@gObjCalCha:

; 58   : 	}
; 59   : 	else if ( Left->IsItem() == FALSE && Right->m_Type == ITEMGET(4,15) )

  000c6	8b 4d e0	 mov	 ecx, DWORD PTR _Left$[ebp]
  000c9	e8 00 00 00 00	 call	 ?IsItem@CItem@@QAEHXZ	; CItem::IsItem
  000ce	85 c0		 test	 eax, eax
  000d0	75 1b		 jne	 SHORT $LN278@gObjCalCha
  000d2	8b 45 e4	 mov	 eax, DWORD PTR _Right$[ebp]
  000d5	0f bf 48 06	 movsx	 ecx, WORD PTR [eax+6]
  000d9	81 f9 0f 08 00
	00		 cmp	 ecx, 2063		; 0000080fH
  000df	75 0c		 jne	 SHORT $LN278@gObjCalCha

; 60   : 	{
; 61   : 		lpObj->HaveWeaponInHand = false;

  000e1	8b 45 f8	 mov	 eax, DWORD PTR _lpObj$[ebp]
  000e4	c6 80 47 10 00
	00 00		 mov	 BYTE PTR [eax+4167], 0
  000eb	eb 4d		 jmp	 SHORT $LN273@gObjCalCha
$LN278@gObjCalCha:

; 62   : 	}
; 63   : 	else if ( Right->IsItem() == FALSE )

  000ed	8b 4d e4	 mov	 ecx, DWORD PTR _Right$[ebp]
  000f0	e8 00 00 00 00	 call	 ?IsItem@CItem@@QAEHXZ	; CItem::IsItem
  000f5	85 c0		 test	 eax, eax
  000f7	75 41		 jne	 SHORT $LN273@gObjCalCha

; 64   : 	{
; 65   : 		int iType = Left->m_Type / MAX_SUBTYPE_ITEMS;

  000f9	8b 45 e0	 mov	 eax, DWORD PTR _Left$[ebp]
  000fc	0f bf 40 06	 movsx	 eax, WORD PTR [eax+6]
  00100	99		 cdq
  00101	81 e2 ff 01 00
	00		 and	 edx, 511		; 000001ffH
  00107	03 c2		 add	 eax, edx
  00109	c1 f8 09	 sar	 eax, 9
  0010c	89 45 d0	 mov	 DWORD PTR _iType$232627[ebp], eax

; 66   : 
; 67   : 		if ( Left->m_Type == ITEMGET(4,7) )

  0010f	8b 45 e0	 mov	 eax, DWORD PTR _Left$[ebp]
  00112	0f bf 48 06	 movsx	 ecx, WORD PTR [eax+6]
  00116	81 f9 07 08 00
	00		 cmp	 ecx, 2055		; 00000807H
  0011c	75 0c		 jne	 SHORT $LN275@gObjCalCha

; 68   : 		{
; 69   : 			lpObj->HaveWeaponInHand = false;

  0011e	8b 45 f8	 mov	 eax, DWORD PTR _lpObj$[ebp]
  00121	c6 80 47 10 00
	00 00		 mov	 BYTE PTR [eax+4167], 0
  00128	eb 10		 jmp	 SHORT $LN273@gObjCalCha
$LN275@gObjCalCha:

; 70   : 		}
; 71   : 		else if ( iType == 6 )

  0012a	83 7d d0 06	 cmp	 DWORD PTR _iType$232627[ebp], 6
  0012e	75 0a		 jne	 SHORT $LN273@gObjCalCha

; 72   : 		{
; 73   : 			lpObj->HaveWeaponInHand = false;

  00130	8b 45 f8	 mov	 eax, DWORD PTR _lpObj$[ebp]
  00133	c6 80 47 10 00
	00 00		 mov	 BYTE PTR [eax+4167], 0
$LN273@gObjCalCha:

; 74   : 		}
; 75   : 	}
; 76   : 
; 77   : 	lpObj->AddLife = 0;

  0013a	8b 45 f8	 mov	 eax, DWORD PTR _lpObj$[ebp]
  0013d	c7 80 4c 01 00
	00 00 00 00 00	 mov	 DWORD PTR [eax+332], 0

; 78   : 	lpObj->AddMana = 0;

  00147	8b 45 f8	 mov	 eax, DWORD PTR _lpObj$[ebp]
  0014a	c7 80 50 01 00
	00 00 00 00 00	 mov	 DWORD PTR [eax+336], 0

; 79   : 	lpObj->MonsterDieGetMoney = 0;

  00154	33 c0		 xor	 eax, eax
  00156	8b 4d f8	 mov	 ecx, DWORD PTR _lpObj$[ebp]
  00159	66 89 81 72 01
	00 00		 mov	 WORD PTR [ecx+370], ax

; 80   : 	lpObj->MonsterDieGetLife = 0;

  00160	8b 45 f8	 mov	 eax, DWORD PTR _lpObj$[ebp]
  00163	c6 80 74 01 00
	00 00		 mov	 BYTE PTR [eax+372], 0

; 81   : 	lpObj->MonsterDieGetMana = 0;

  0016a	8b 45 f8	 mov	 eax, DWORD PTR _lpObj$[ebp]
  0016d	c6 80 75 01 00
	00 00		 mov	 BYTE PTR [eax+373], 0

; 82   : 	lpObj->DamageReflect = 0;

  00174	8b 45 f8	 mov	 eax, DWORD PTR _lpObj$[ebp]
  00177	c6 80 71 01 00
	00 00		 mov	 BYTE PTR [eax+369], 0

; 83   : 	lpObj->DamageMinus = 0;

  0017e	8b 45 f8	 mov	 eax, DWORD PTR _lpObj$[ebp]
  00181	c6 80 70 01 00
	00 00		 mov	 BYTE PTR [eax+368], 0

; 84   : 	lpObj->SkillLongSpearChange = false;

  00188	8b 45 f8	 mov	 eax, DWORD PTR _lpObj$[ebp]
  0018b	c6 80 7a 12 00
	00 00		 mov	 BYTE PTR [eax+4730], 0

; 85   : 
; 86   : 	lpObj->RecoveryHp = 0;

  00192	8b 45 f8	 mov	 eax, DWORD PTR _lpObj$[ebp]
  00195	c7 80 c0 27 00
	00 00 00 00 00	 mov	 DWORD PTR [eax+10176], 0

; 87   : 	lpObj->RecoverySd = 0;

  0019f	8b 45 f8	 mov	 eax, DWORD PTR _lpObj$[ebp]
  001a2	c7 80 c4 27 00
	00 00 00 00 00	 mov	 DWORD PTR [eax+10180], 0

; 88   : 	lpObj->RecoveryMp = 0;

  001ac	8b 45 f8	 mov	 eax, DWORD PTR _lpObj$[ebp]
  001af	c7 80 c8 27 00
	00 00 00 00 00	 mov	 DWORD PTR [eax+10184], 0

; 89   : 	lpObj->RecoveryAg = 0;

  001b9	8b 45 f8	 mov	 eax, DWORD PTR _lpObj$[ebp]
  001bc	c7 80 cc 27 00
	00 00 00 00 00	 mov	 DWORD PTR [eax+10188], 0

; 90   : 
; 91   : 
; 92   : 
; 93   : 	if ( lpObj->m_iItemEffectValidTime > 0 )

  001c6	8b 45 f8	 mov	 eax, DWORD PTR _lpObj$[ebp]
  001c9	83 b8 18 20 00
	00 00		 cmp	 DWORD PTR [eax+8216], 0
  001d0	7e 0e		 jle	 SHORT $LN272@gObjCalCha

; 94   : 	{
; 95   : 		g_ItemAddOption.PrevSetItemLastEffectForHallowin(lpObj); //clear previous halloween effect (apply again later)

  001d2	8b 45 f8	 mov	 eax, DWORD PTR _lpObj$[ebp]
  001d5	50		 push	 eax
  001d6	b9 00 00 00 00	 mov	 ecx, OFFSET ?g_ItemAddOption@@3VCItemAddOption@@A ; g_ItemAddOption
  001db	e8 00 00 00 00	 call	 ?PrevSetItemLastEffectForHallowin@CItemAddOption@@QAE_NPAUOBJECTSTRUCT@@@Z ; CItemAddOption::PrevSetItemLastEffectForHallowin
$LN272@gObjCalCha:

; 96   : 	}
; 97   : 
; 98   : 	int iItemIndex;
; 99   : 	BOOL bIsChangeItem;
; 100  : 
; 101  : 	for ( iItemIndex=0; iItemIndex<MAX_PLAYER_EQUIPMENT;iItemIndex++)

  001e0	c7 45 cc 00 00
	00 00		 mov	 DWORD PTR _iItemIndex$[ebp], 0
  001e7	eb 09		 jmp	 SHORT $LN271@gObjCalCha
$LN270@gObjCalCha:
  001e9	8b 45 cc	 mov	 eax, DWORD PTR _iItemIndex$[ebp]
  001ec	83 c0 01	 add	 eax, 1
  001ef	89 45 cc	 mov	 DWORD PTR _iItemIndex$[ebp], eax
$LN271@gObjCalCha:
  001f2	83 7d cc 0c	 cmp	 DWORD PTR _iItemIndex$[ebp], 12 ; 0000000cH
  001f6	7d 37		 jge	 SHORT $LN269@gObjCalCha

; 102  : 	{
; 103  : 		if ( lpObj->pInventory[iItemIndex].IsItem() != FALSE )

  001f8	8b 4d cc	 mov	 ecx, DWORD PTR _iItemIndex$[ebp]
  001fb	69 c9 d4 00 00
	00		 imul	 ecx, 212		; 000000d4H
  00201	8b 45 f8	 mov	 eax, DWORD PTR _lpObj$[ebp]
  00204	03 88 24 0e 00
	00		 add	 ecx, DWORD PTR [eax+3620]
  0020a	e8 00 00 00 00	 call	 ?IsItem@CItem@@QAEHXZ	; CItem::IsItem
  0020f	85 c0		 test	 eax, eax
  00211	74 1a		 je	 SHORT $LN268@gObjCalCha

; 104  : 		{
; 105  : 			lpObj->pInventory[iItemIndex].m_IsValidItem = true;

  00213	8b 45 cc	 mov	 eax, DWORD PTR _iItemIndex$[ebp]
  00216	69 c0 d4 00 00
	00		 imul	 eax, 212		; 000000d4H
  0021c	8b 4d f8	 mov	 ecx, DWORD PTR _lpObj$[ebp]
  0021f	8b 91 24 0e 00
	00		 mov	 edx, DWORD PTR [ecx+3620]
  00225	c6 84 02 b0 00
	00 00 01	 mov	 BYTE PTR [edx+eax+176], 1
$LN268@gObjCalCha:

; 106  : 		}
; 107  : 	}

  0022d	eb ba		 jmp	 SHORT $LN270@gObjCalCha
$LN269@gObjCalCha:

; 108  : 
; 109  : 	do
; 110  : 	{
; 111  : 		lpObj->SetOpAddMaxAttackDamage = 0;

  0022f	33 c0		 xor	 eax, eax
  00231	8b 4d f8	 mov	 ecx, DWORD PTR _lpObj$[ebp]
  00234	66 89 81 34 11
	00 00		 mov	 WORD PTR [ecx+4404], ax

; 112  : 		lpObj->SetOpAddMinAttackDamage = 0;

  0023b	33 c0		 xor	 eax, eax
  0023d	8b 4d f8	 mov	 ecx, DWORD PTR _lpObj$[ebp]
  00240	66 89 81 32 11
	00 00		 mov	 WORD PTR [ecx+4402], ax

; 113  : 		lpObj->SetOpAddDamage = 0;

  00247	33 c0		 xor	 eax, eax
  00249	8b 4d f8	 mov	 ecx, DWORD PTR _lpObj$[ebp]
  0024c	66 89 81 30 11
	00 00		 mov	 WORD PTR [ecx+4400], ax

; 114  : 		lpObj->SetOpIncAGValue = 0;

  00253	33 c0		 xor	 eax, eax
  00255	8b 4d f8	 mov	 ecx, DWORD PTR _lpObj$[ebp]
  00258	66 89 81 2e 11
	00 00		 mov	 WORD PTR [ecx+4398], ax

; 115  : 		lpObj->SetOpAddCriticalDamageSuccessRate = 0;

  0025f	33 c0		 xor	 eax, eax
  00261	8b 4d f8	 mov	 ecx, DWORD PTR _lpObj$[ebp]
  00264	66 89 81 2c 11
	00 00		 mov	 WORD PTR [ecx+4396], ax

; 116  : 		lpObj->SetOpAddCriticalDamage = 0;

  0026b	33 c0		 xor	 eax, eax
  0026d	8b 4d f8	 mov	 ecx, DWORD PTR _lpObj$[ebp]
  00270	66 89 81 2a 11
	00 00		 mov	 WORD PTR [ecx+4394], ax

; 117  : 		lpObj->SetOpAddExDamageSuccessRate = 0;

  00277	33 c0		 xor	 eax, eax
  00279	8b 4d f8	 mov	 ecx, DWORD PTR _lpObj$[ebp]
  0027c	66 89 81 28 11
	00 00		 mov	 WORD PTR [ecx+4392], ax

; 118  : 		lpObj->SetOpAddExDamage = 0;

  00283	33 c0		 xor	 eax, eax
  00285	8b 4d f8	 mov	 ecx, DWORD PTR _lpObj$[ebp]
  00288	66 89 81 26 11
	00 00		 mov	 WORD PTR [ecx+4390], ax

; 119  : 		lpObj->SetOpAddSkillAttack = 0;

  0028f	33 c0		 xor	 eax, eax
  00291	8b 4d f8	 mov	 ecx, DWORD PTR _lpObj$[ebp]
  00294	66 89 81 24 11
	00 00		 mov	 WORD PTR [ecx+4388], ax

; 120  : 		lpObj->AddStrength = 0;

  0029b	33 c0		 xor	 eax, eax
  0029d	8b 4d f8	 mov	 ecx, DWORD PTR _lpObj$[ebp]
  002a0	66 89 81 20 01
	00 00		 mov	 WORD PTR [ecx+288], ax

; 121  : 		lpObj->AddDexterity = 0;

  002a7	33 c0		 xor	 eax, eax
  002a9	8b 4d f8	 mov	 ecx, DWORD PTR _lpObj$[ebp]
  002ac	66 89 81 22 01
	00 00		 mov	 WORD PTR [ecx+290], ax

; 122  : 		lpObj->AddVitality = 0;

  002b3	33 c0		 xor	 eax, eax
  002b5	8b 4d f8	 mov	 ecx, DWORD PTR _lpObj$[ebp]
  002b8	66 89 81 24 01
	00 00		 mov	 WORD PTR [ecx+292], ax

; 123  : 		lpObj->AddEnergy = 0;

  002bf	33 c0		 xor	 eax, eax
  002c1	8b 4d f8	 mov	 ecx, DWORD PTR _lpObj$[ebp]
  002c4	66 89 81 26 01
	00 00		 mov	 WORD PTR [ecx+294], ax

; 124  : 		lpObj->AddLeadership = 0; //season4 add-on (wz fix o/)

  002cb	33 c0		 xor	 eax, eax
  002cd	8b 4d f8	 mov	 ecx, DWORD PTR _lpObj$[ebp]
  002d0	66 89 81 1a 01
	00 00		 mov	 WORD PTR [ecx+282], ax

; 125  : 		lpObj->AddBP = 0;

  002d7	8b 45 f8	 mov	 eax, DWORD PTR _lpObj$[ebp]
  002da	c7 80 30 01 00
	00 00 00 00 00	 mov	 DWORD PTR [eax+304], 0

; 126  : 		lpObj->iAddShield = 0;

  002e4	8b 45 f8	 mov	 eax, DWORD PTR _lpObj$[ebp]
  002e7	c7 80 5c 01 00
	00 00 00 00 00	 mov	 DWORD PTR [eax+348], 0

; 127  : 		lpObj->SetOpAddAttackDamage = 0;

  002f1	33 c0		 xor	 eax, eax
  002f3	8b 4d f8	 mov	 ecx, DWORD PTR _lpObj$[ebp]
  002f6	66 89 81 36 11
	00 00		 mov	 WORD PTR [ecx+4406], ax

; 128  : 		lpObj->SetOpAddDefence = 0;

  002fd	33 c0		 xor	 eax, eax
  002ff	8b 4d f8	 mov	 ecx, DWORD PTR _lpObj$[ebp]
  00302	66 89 81 38 11
	00 00		 mov	 WORD PTR [ecx+4408], ax

; 129  : 		lpObj->SetOpAddMagicPower = 0;

  00309	33 c0		 xor	 eax, eax
  0030b	8b 4d f8	 mov	 ecx, DWORD PTR _lpObj$[ebp]
  0030e	66 89 81 3c 11
	00 00		 mov	 WORD PTR [ecx+4412], ax

; 130  : 		lpObj->SetOpAddDefenceRate = 0;

  00315	33 c0		 xor	 eax, eax
  00317	8b 4d f8	 mov	 ecx, DWORD PTR _lpObj$[ebp]
  0031a	66 89 81 3a 11
	00 00		 mov	 WORD PTR [ecx+4410], ax

; 131  : 		lpObj->SetOpIgnoreDefense = 0;

  00321	8b 45 f8	 mov	 eax, DWORD PTR _lpObj$[ebp]
  00324	c6 80 3e 11 00
	00 00		 mov	 BYTE PTR [eax+4414], 0

; 132  : 		lpObj->SetOpDoubleDamage = 0;

  0032b	8b 45 f8	 mov	 eax, DWORD PTR _lpObj$[ebp]
  0032e	c6 80 3f 11 00
	00 00		 mov	 BYTE PTR [eax+4415], 0

; 133  : 		lpObj->SetOpTwoHandSwordImproveDamage = 0;

  00335	8b 45 f8	 mov	 eax, DWORD PTR _lpObj$[ebp]
  00338	c6 80 40 11 00
	00 00		 mov	 BYTE PTR [eax+4416], 0

; 134  : 		lpObj->SetOpImproveSuccessAttackRate = 0;

  0033f	8b 45 f8	 mov	 eax, DWORD PTR _lpObj$[ebp]
  00342	c6 80 41 11 00
	00 00		 mov	 BYTE PTR [eax+4417], 0

; 135  : 		lpObj->SetOpReflectionDamage = 0;

  00349	8b 45 f8	 mov	 eax, DWORD PTR _lpObj$[ebp]
  0034c	c6 80 42 11 00
	00 00		 mov	 BYTE PTR [eax+4418], 0

; 136  : 		lpObj->SetOpImproveSheldDefence = 0;

  00353	8b 45 f8	 mov	 eax, DWORD PTR _lpObj$[ebp]
  00356	c6 80 43 11 00
	00 00		 mov	 BYTE PTR [eax+4419], 0

; 137  : 		lpObj->SetOpDecreaseAG = 0;

  0035d	8b 45 f8	 mov	 eax, DWORD PTR _lpObj$[ebp]
  00360	c6 80 44 11 00
	00 00		 mov	 BYTE PTR [eax+4420], 0

; 138  : 		lpObj->SetOpImproveItemDropRate = 0;

  00367	8b 45 f8	 mov	 eax, DWORD PTR _lpObj$[ebp]
  0036a	c6 80 45 11 00
	00 00		 mov	 BYTE PTR [eax+4421], 0

; 139  : 		lpObj->IsFullSetItem = false;

  00371	8b 45 f8	 mov	 eax, DWORD PTR _lpObj$[ebp]
  00374	c6 80 46 11 00
	00 00		 mov	 BYTE PTR [eax+4422], 0

; 140  : 
; 141  : 		memset(lpObj->m_AddResistance, 0, sizeof(lpObj->m_AddResistance));

  0037b	6a 07		 push	 7
  0037d	6a 00		 push	 0
  0037f	8b 45 f8	 mov	 eax, DWORD PTR _lpObj$[ebp]
  00382	05 ff 04 00 00	 add	 eax, 1279		; 000004ffH
  00387	50		 push	 eax
  00388	e8 00 00 00 00	 call	 _memset
  0038d	83 c4 0c	 add	 esp, 12			; 0000000cH

; 142  : 
; 143  : 		bIsChangeItem = FALSE;

  00390	c7 45 c8 00 00
	00 00		 mov	 DWORD PTR _bIsChangeItem$[ebp], 0

; 144  : 
; 145  : 		g_ItemAddOption.PrevSetItemLastEffectForCashShop(lpObj); //Clear Active CashShop Attributes (Leap Effect most in any case)

  00397	8b 45 f8	 mov	 eax, DWORD PTR _lpObj$[ebp]
  0039a	50		 push	 eax
  0039b	b9 00 00 00 00	 mov	 ecx, OFFSET ?g_ItemAddOption@@3VCItemAddOption@@A ; g_ItemAddOption
  003a0	e8 00 00 00 00	 call	 ?PrevSetItemLastEffectForCashShop@CItemAddOption@@QAE_NPAUOBJECTSTRUCT@@@Z ; CItemAddOption::PrevSetItemLastEffectForCashShop

; 146  : 		g_ViewportSkillState.PrevBuffLastEffect(lpObj); //Clear BuffEffect Attributes

  003a5	8b 45 f8	 mov	 eax, DWORD PTR _lpObj$[ebp]
  003a8	50		 push	 eax
  003a9	b9 00 00 00 00	 mov	 ecx, OFFSET ?g_ViewportSkillState@@3VCViewportSkillState@@A ; g_ViewportSkillState
  003ae	e8 00 00 00 00	 call	 ?PrevBuffLastEffect@CViewportSkillState@@QAEXPAUOBJECTSTRUCT@@@Z ; CViewportSkillState::PrevBuffLastEffect

; 147  : 
; 148  : 		gObjCalcSetItemStat(lpObj);

  003b3	8b 45 f8	 mov	 eax, DWORD PTR _lpObj$[ebp]
  003b6	50		 push	 eax
  003b7	e8 00 00 00 00	 call	 ?gObjCalcSetItemStat@@YAXPAUOBJECTSTRUCT@@@Z ; gObjCalcSetItemStat
  003bc	83 c4 04	 add	 esp, 4

; 149  : 		gObjCalcSetItemOption(lpObj);

  003bf	8b 45 f8	 mov	 eax, DWORD PTR _lpObj$[ebp]
  003c2	50		 push	 eax
  003c3	e8 00 00 00 00	 call	 ?gObjCalcSetItemOption@@YAXPAUOBJECTSTRUCT@@@Z ; gObjCalcSetItemOption
  003c8	83 c4 04	 add	 esp, 4

; 150  : 
; 151  : 		for (iItemIndex=0;iItemIndex<MAX_PLAYER_EQUIPMENT;iItemIndex++)

  003cb	c7 45 cc 00 00
	00 00		 mov	 DWORD PTR _iItemIndex$[ebp], 0
  003d2	eb 09		 jmp	 SHORT $LN264@gObjCalCha
$LN263@gObjCalCha:
  003d4	8b 45 cc	 mov	 eax, DWORD PTR _iItemIndex$[ebp]
  003d7	83 c0 01	 add	 eax, 1
  003da	89 45 cc	 mov	 DWORD PTR _iItemIndex$[ebp], eax
$LN264@gObjCalCha:
  003dd	83 7d cc 0c	 cmp	 DWORD PTR _iItemIndex$[ebp], 12 ; 0000000cH
  003e1	0f 8d b4 00 00
	00		 jge	 $LN262@gObjCalCha

; 152  : 		{
; 153  : 			if ( lpObj->pInventory[iItemIndex].IsItem() != FALSE && lpObj->pInventory[iItemIndex].m_IsValidItem != false )

  003e7	8b 4d cc	 mov	 ecx, DWORD PTR _iItemIndex$[ebp]
  003ea	69 c9 d4 00 00
	00		 imul	 ecx, 212		; 000000d4H
  003f0	8b 45 f8	 mov	 eax, DWORD PTR _lpObj$[ebp]
  003f3	03 88 24 0e 00
	00		 add	 ecx, DWORD PTR [eax+3620]
  003f9	e8 00 00 00 00	 call	 ?IsItem@CItem@@QAEHXZ	; CItem::IsItem
  003fe	85 c0		 test	 eax, eax
  00400	0f 84 90 00 00
	00		 je	 $LN259@gObjCalCha
  00406	8b 45 cc	 mov	 eax, DWORD PTR _iItemIndex$[ebp]
  00409	69 c0 d4 00 00
	00		 imul	 eax, 212		; 000000d4H
  0040f	8b 4d f8	 mov	 ecx, DWORD PTR _lpObj$[ebp]
  00412	8b 91 24 0e 00
	00		 mov	 edx, DWORD PTR [ecx+3620]
  00418	0f b6 84 02 b0
	00 00 00	 movzx	 eax, BYTE PTR [edx+eax+176]
  00420	85 c0		 test	 eax, eax
  00422	74 72		 je	 SHORT $LN259@gObjCalCha

; 154  : 			{
; 155  : 				if ( gObjValidItem( lpObj, &lpObj->pInventory[iItemIndex], iItemIndex) != FALSE )

  00424	8b 45 cc	 mov	 eax, DWORD PTR _iItemIndex$[ebp]
  00427	50		 push	 eax
  00428	8b 4d cc	 mov	 ecx, DWORD PTR _iItemIndex$[ebp]
  0042b	69 c9 d4 00 00
	00		 imul	 ecx, 212		; 000000d4H
  00431	8b 55 f8	 mov	 edx, DWORD PTR _lpObj$[ebp]
  00434	03 8a 24 0e 00
	00		 add	 ecx, DWORD PTR [edx+3620]
  0043a	51		 push	 ecx
  0043b	8b 45 f8	 mov	 eax, DWORD PTR _lpObj$[ebp]
  0043e	50		 push	 eax
  0043f	e8 00 00 00 00	 call	 ?gObjValidItem@@YAHPAUOBJECTSTRUCT@@PAVCItem@@H@Z ; gObjValidItem
  00444	83 c4 0c	 add	 esp, 12			; 0000000cH
  00447	85 c0		 test	 eax, eax
  00449	74 1c		 je	 SHORT $LN260@gObjCalCha

; 156  : 				{
; 157  : 					lpObj->pInventory[iItemIndex].m_IsValidItem = true;

  0044b	8b 45 cc	 mov	 eax, DWORD PTR _iItemIndex$[ebp]
  0044e	69 c0 d4 00 00
	00		 imul	 eax, 212		; 000000d4H
  00454	8b 4d f8	 mov	 ecx, DWORD PTR _lpObj$[ebp]
  00457	8b 91 24 0e 00
	00		 mov	 edx, DWORD PTR [ecx+3620]
  0045d	c6 84 02 b0 00
	00 00 01	 mov	 BYTE PTR [edx+eax+176], 1

; 158  : 				}
; 159  : 				else

  00465	eb 2f		 jmp	 SHORT $LN259@gObjCalCha
$LN260@gObjCalCha:

; 160  : 				{
; 161  : 					lpObj->pInventory[iItemIndex].m_IsValidItem  = false;

  00467	8b 45 cc	 mov	 eax, DWORD PTR _iItemIndex$[ebp]
  0046a	69 c0 d4 00 00
	00		 imul	 eax, 212		; 000000d4H
  00470	8b 4d f8	 mov	 ecx, DWORD PTR _lpObj$[ebp]
  00473	8b 91 24 0e 00
	00		 mov	 edx, DWORD PTR [ecx+3620]
  00479	c6 84 02 b0 00
	00 00 00	 mov	 BYTE PTR [edx+eax+176], 0

; 162  : 					g_ViewportSkillState.CalCharacterRemoveBuffEffect(lpObj); //season4 add-on

  00481	8b 45 f8	 mov	 eax, DWORD PTR _lpObj$[ebp]
  00484	50		 push	 eax
  00485	b9 00 00 00 00	 mov	 ecx, OFFSET ?g_ViewportSkillState@@3VCViewportSkillState@@A ; g_ViewportSkillState
  0048a	e8 00 00 00 00	 call	 ?CalCharacterRemoveBuffEffect@CViewportSkillState@@QAEXPAUOBJECTSTRUCT@@@Z ; CViewportSkillState::CalCharacterRemoveBuffEffect

; 163  : 					bIsChangeItem = TRUE;

  0048f	c7 45 c8 01 00
	00 00		 mov	 DWORD PTR _bIsChangeItem$[ebp], 1
$LN259@gObjCalCha:

; 164  : 				}
; 165  : 			}
; 166  : 		}

  00496	e9 39 ff ff ff	 jmp	 $LN263@gObjCalCha
$LN262@gObjCalCha:

; 167  : 	}
; 168  : 	while ( bIsChangeItem != FALSE );

  0049b	83 7d c8 00	 cmp	 DWORD PTR _bIsChangeItem$[ebp], 0
  0049f	0f 85 8a fd ff
	ff		 jne	 $LN269@gObjCalCha

; 169  : 
; 170  : 	if(g_ExLicense.user.Rage)

  004a5	0f b6 05 c9 00
	00 00		 movzx	 eax, BYTE PTR ?g_ExLicense@@3VCExLicense@@A+201
  004ac	85 c0		 test	 eax, eax
  004ae	74 0e		 je	 SHORT $LN258@gObjCalCha

; 171  : 	{
; 172  : 		gSystemOfRage.CalcStats(aIndex);

  004b0	8b 45 08	 mov	 eax, DWORD PTR _aIndex$[ebp]
  004b3	50		 push	 eax
  004b4	b9 00 00 00 00	 mov	 ecx, OFFSET ?gSystemOfRage@@3VcSystemOfRage@@A ; gSystemOfRage
  004b9	e8 00 00 00 00	 call	 ?CalcStats@cSystemOfRage@@QAEXH@Z ; cSystemOfRage::CalcStats
$LN258@gObjCalCha:

; 173  : 	}
; 174  : 
; 175  : 	Strength = lpObj->Strength + lpObj->AddStrength;

  004be	8b 45 f8	 mov	 eax, DWORD PTR _lpObj$[ebp]
  004c1	0f b7 88 f4 00
	00 00		 movzx	 ecx, WORD PTR [eax+244]
  004c8	8b 55 f8	 mov	 edx, DWORD PTR _lpObj$[ebp]
  004cb	0f bf 82 20 01
	00 00		 movsx	 eax, WORD PTR [edx+288]
  004d2	03 c8		 add	 ecx, eax
  004d4	89 4d f4	 mov	 DWORD PTR _Strength$[ebp], ecx

; 176  : 	Dexterity = lpObj->Dexterity + lpObj->AddDexterity;

  004d7	8b 45 f8	 mov	 eax, DWORD PTR _lpObj$[ebp]
  004da	0f b7 88 f6 00
	00 00		 movzx	 ecx, WORD PTR [eax+246]
  004e1	8b 55 f8	 mov	 edx, DWORD PTR _lpObj$[ebp]
  004e4	0f bf 82 22 01
	00 00		 movsx	 eax, WORD PTR [edx+290]
  004eb	03 c8		 add	 ecx, eax
  004ed	89 4d f0	 mov	 DWORD PTR _Dexterity$[ebp], ecx

; 177  : 	Vitality = lpObj->Vitality + lpObj->AddVitality;

  004f0	8b 45 f8	 mov	 eax, DWORD PTR _lpObj$[ebp]
  004f3	0f b7 88 f8 00
	00 00		 movzx	 ecx, WORD PTR [eax+248]
  004fa	8b 55 f8	 mov	 edx, DWORD PTR _lpObj$[ebp]
  004fd	0f bf 82 24 01
	00 00		 movsx	 eax, WORD PTR [edx+292]
  00504	03 c8		 add	 ecx, eax
  00506	89 4d ec	 mov	 DWORD PTR _Vitality$[ebp], ecx

; 178  : 	Energy = lpObj->Energy + lpObj->AddEnergy; //loc5

  00509	8b 45 f8	 mov	 eax, DWORD PTR _lpObj$[ebp]
  0050c	0f b7 88 fa 00
	00 00		 movzx	 ecx, WORD PTR [eax+250]
  00513	8b 55 f8	 mov	 edx, DWORD PTR _lpObj$[ebp]
  00516	0f bf 82 26 01
	00 00		 movsx	 eax, WORD PTR [edx+294]
  0051d	03 c8		 add	 ecx, eax
  0051f	89 4d e8	 mov	 DWORD PTR _Energy$[ebp], ecx

; 179  : 
; 180  : 	if(g_bAbilityDebug == 1) //season3 add-on for GM

  00522	83 3d 00 00 00
	00 01		 cmp	 DWORD PTR ?g_bAbilityDebug@@3HA, 1 ; g_bAbilityDebug
  00529	0f 85 1b 01 00
	00		 jne	 $LN257@gObjCalCha

; 181  : 	{
; 182  : 		char szTemp[256];
; 183  : 		
; 184  : 		sprintf(szTemp, "Strength: %d,%d    Dexterity: %d,%d", lpObj->Strength, lpObj->AddStrength, lpObj->Dexterity, lpObj->AddDexterity);

  0052f	8b 45 f8	 mov	 eax, DWORD PTR _lpObj$[ebp]
  00532	0f bf 88 22 01
	00 00		 movsx	 ecx, WORD PTR [eax+290]
  00539	51		 push	 ecx
  0053a	8b 55 f8	 mov	 edx, DWORD PTR _lpObj$[ebp]
  0053d	0f b7 82 f6 00
	00 00		 movzx	 eax, WORD PTR [edx+246]
  00544	50		 push	 eax
  00545	8b 4d f8	 mov	 ecx, DWORD PTR _lpObj$[ebp]
  00548	0f bf 91 20 01
	00 00		 movsx	 edx, WORD PTR [ecx+288]
  0054f	52		 push	 edx
  00550	8b 45 f8	 mov	 eax, DWORD PTR _lpObj$[ebp]
  00553	0f b7 88 f4 00
	00 00		 movzx	 ecx, WORD PTR [eax+244]
  0055a	51		 push	 ecx
  0055b	68 00 00 00 00	 push	 OFFSET ??_C@_0CE@OBLIFBFL@Strength?3?5?$CFd?0?$CFd?5?5?5?5Dexterity?3?5?$CFd@
  00560	8d 95 c8 fe ff
	ff		 lea	 edx, DWORD PTR _szTemp$232649[ebp]
  00566	52		 push	 edx
  00567	e8 00 00 00 00	 call	 _sprintf
  0056c	83 c4 18	 add	 esp, 24			; 00000018H

; 185  : 		GCServerMsgStringSend(szTemp, lpObj->m_Index, 1);

  0056f	6a 01		 push	 1
  00571	8b 45 f8	 mov	 eax, DWORD PTR _lpObj$[ebp]
  00574	8b 08		 mov	 ecx, DWORD PTR [eax]
  00576	51		 push	 ecx
  00577	8d 95 c8 fe ff
	ff		 lea	 edx, DWORD PTR _szTemp$232649[ebp]
  0057d	52		 push	 edx
  0057e	e8 00 00 00 00	 call	 ?GCServerMsgStringSend@@YAXPADHE@Z ; GCServerMsgStringSend
  00583	83 c4 0c	 add	 esp, 12			; 0000000cH

; 186  : 
; 187  : 		memset(szTemp, 0, 256);

  00586	68 00 01 00 00	 push	 256			; 00000100H
  0058b	6a 00		 push	 0
  0058d	8d 85 c8 fe ff
	ff		 lea	 eax, DWORD PTR _szTemp$232649[ebp]
  00593	50		 push	 eax
  00594	e8 00 00 00 00	 call	 _memset
  00599	83 c4 0c	 add	 esp, 12			; 0000000cH

; 188  : 
; 189  : 		sprintf(szTemp, "Vitality: %d,%d    Energy: %d,%d", lpObj->Vitality, lpObj->AddVitality, lpObj->Energy, lpObj->AddEnergy);

  0059c	8b 45 f8	 mov	 eax, DWORD PTR _lpObj$[ebp]
  0059f	0f bf 88 26 01
	00 00		 movsx	 ecx, WORD PTR [eax+294]
  005a6	51		 push	 ecx
  005a7	8b 55 f8	 mov	 edx, DWORD PTR _lpObj$[ebp]
  005aa	0f b7 82 fa 00
	00 00		 movzx	 eax, WORD PTR [edx+250]
  005b1	50		 push	 eax
  005b2	8b 4d f8	 mov	 ecx, DWORD PTR _lpObj$[ebp]
  005b5	0f bf 91 24 01
	00 00		 movsx	 edx, WORD PTR [ecx+292]
  005bc	52		 push	 edx
  005bd	8b 45 f8	 mov	 eax, DWORD PTR _lpObj$[ebp]
  005c0	0f b7 88 f8 00
	00 00		 movzx	 ecx, WORD PTR [eax+248]
  005c7	51		 push	 ecx
  005c8	68 00 00 00 00	 push	 OFFSET ??_C@_0CB@KNPOLDNB@Vitality?3?5?$CFd?0?$CFd?5?5?5?5Energy?3?5?$CFd?0?$CFd@
  005cd	8d 95 c8 fe ff
	ff		 lea	 edx, DWORD PTR _szTemp$232649[ebp]
  005d3	52		 push	 edx
  005d4	e8 00 00 00 00	 call	 _sprintf
  005d9	83 c4 18	 add	 esp, 24			; 00000018H

; 190  : 		GCServerMsgStringSend(szTemp, lpObj->m_Index, 1);

  005dc	6a 01		 push	 1
  005de	8b 45 f8	 mov	 eax, DWORD PTR _lpObj$[ebp]
  005e1	8b 08		 mov	 ecx, DWORD PTR [eax]
  005e3	51		 push	 ecx
  005e4	8d 95 c8 fe ff
	ff		 lea	 edx, DWORD PTR _szTemp$232649[ebp]
  005ea	52		 push	 edx
  005eb	e8 00 00 00 00	 call	 ?GCServerMsgStringSend@@YAXPADHE@Z ; GCServerMsgStringSend
  005f0	83 c4 0c	 add	 esp, 12			; 0000000cH

; 191  : 
; 192  : 		//season4 add-on
; 193  : 		memset(szTemp, 0, 256);

  005f3	68 00 01 00 00	 push	 256			; 00000100H
  005f8	6a 00		 push	 0
  005fa	8d 85 c8 fe ff
	ff		 lea	 eax, DWORD PTR _szTemp$232649[ebp]
  00600	50		 push	 eax
  00601	e8 00 00 00 00	 call	 _memset
  00606	83 c4 0c	 add	 esp, 12			; 0000000cH

; 194  : 
; 195  : 		sprintf(szTemp, "Leadership: %d,%d", lpObj->Leadership, lpObj->AddLeadership);

  00609	8b 45 f8	 mov	 eax, DWORD PTR _lpObj$[ebp]
  0060c	0f b7 88 1a 01
	00 00		 movzx	 ecx, WORD PTR [eax+282]
  00613	51		 push	 ecx
  00614	8b 55 f8	 mov	 edx, DWORD PTR _lpObj$[ebp]
  00617	0f b7 82 18 01
	00 00		 movzx	 eax, WORD PTR [edx+280]
  0061e	50		 push	 eax
  0061f	68 00 00 00 00	 push	 OFFSET ??_C@_0BC@GFGEFHFO@Leadership?3?5?$CFd?0?$CFd?$AA@
  00624	8d 8d c8 fe ff
	ff		 lea	 ecx, DWORD PTR _szTemp$232649[ebp]
  0062a	51		 push	 ecx
  0062b	e8 00 00 00 00	 call	 _sprintf
  00630	83 c4 10	 add	 esp, 16			; 00000010H

; 196  : 		GCServerMsgStringSend(szTemp, lpObj->m_Index, 1);

  00633	6a 01		 push	 1
  00635	8b 45 f8	 mov	 eax, DWORD PTR _lpObj$[ebp]
  00638	8b 08		 mov	 ecx, DWORD PTR [eax]
  0063a	51		 push	 ecx
  0063b	8d 95 c8 fe ff
	ff		 lea	 edx, DWORD PTR _szTemp$232649[ebp]
  00641	52		 push	 edx
  00642	e8 00 00 00 00	 call	 ?GCServerMsgStringSend@@YAXPADHE@Z ; GCServerMsgStringSend
  00647	83 c4 0c	 add	 esp, 12			; 0000000cH
$LN257@gObjCalCha:

; 197  : 	}
; 198  : 	if ( lpObj->Class == CLASS_ELF )

  0064a	8b 45 f8	 mov	 eax, DWORD PTR _lpObj$[ebp]
  0064d	0f b7 88 b8 00
	00 00		 movzx	 ecx, WORD PTR [eax+184]
  00654	83 f9 02	 cmp	 ecx, 2
  00657	0f 85 f1 02 00
	00		 jne	 $LN256@gObjCalCha

; 199  : 	{
; 200  : 		if ( (Right->m_Type >= ITEMGET(4,8) && Right->m_Type < ITEMGET(4,15) ) ||
; 201  : 			 (Left->m_Type >= ITEMGET(4,0) && Left->m_Type < ITEMGET(4,7)) ||
; 202  : 			  Right->m_Type == ITEMGET(4,16) ||
; 203  : 			  Left->m_Type == ITEMGET(4,20) ||
; 204  : 			  Left->m_Type == ITEMGET(4,21) || Left->m_Type == ITEMGET(4,22) || //loc7 Item 4,22 Add-on Season 2.5 GS-CS 56 (Albatross Fix)
; 205  : 			  Left->m_Type == ITEMGET(4,23) || //season4 add-on
; 206  : 			  Right->m_Type == ITEMGET(4,18) ||
; 207  : 			  Right->m_Type == ITEMGET(4,19) ||
; 208  : 			  Left->m_Type == ITEMGET(4,17) )

  0065d	8b 45 e4	 mov	 eax, DWORD PTR _Right$[ebp]
  00660	0f bf 48 06	 movsx	 ecx, WORD PTR [eax+6]
  00664	81 f9 08 08 00
	00		 cmp	 ecx, 2056		; 00000808H
  0066a	7c 13		 jl	 SHORT $LN253@gObjCalCha
  0066c	8b 45 e4	 mov	 eax, DWORD PTR _Right$[ebp]
  0066f	0f bf 48 06	 movsx	 ecx, WORD PTR [eax+6]
  00673	81 f9 0f 08 00
	00		 cmp	 ecx, 2063		; 0000080fH
  00679	0f 8c 9a 00 00
	00		 jl	 $LN254@gObjCalCha
$LN253@gObjCalCha:
  0067f	8b 45 e0	 mov	 eax, DWORD PTR _Left$[ebp]
  00682	0f bf 48 06	 movsx	 ecx, WORD PTR [eax+6]
  00686	81 f9 00 08 00
	00		 cmp	 ecx, 2048		; 00000800H
  0068c	7c 0f		 jl	 SHORT $LN252@gObjCalCha
  0068e	8b 45 e0	 mov	 eax, DWORD PTR _Left$[ebp]
  00691	0f bf 48 06	 movsx	 ecx, WORD PTR [eax+6]
  00695	81 f9 07 08 00
	00		 cmp	 ecx, 2055		; 00000807H
  0069b	7c 7c		 jl	 SHORT $LN254@gObjCalCha
$LN252@gObjCalCha:
  0069d	8b 45 e4	 mov	 eax, DWORD PTR _Right$[ebp]
  006a0	0f bf 48 06	 movsx	 ecx, WORD PTR [eax+6]
  006a4	81 f9 10 08 00
	00		 cmp	 ecx, 2064		; 00000810H
  006aa	74 6d		 je	 SHORT $LN254@gObjCalCha
  006ac	8b 45 e0	 mov	 eax, DWORD PTR _Left$[ebp]
  006af	0f bf 48 06	 movsx	 ecx, WORD PTR [eax+6]
  006b3	81 f9 14 08 00
	00		 cmp	 ecx, 2068		; 00000814H
  006b9	74 5e		 je	 SHORT $LN254@gObjCalCha
  006bb	8b 45 e0	 mov	 eax, DWORD PTR _Left$[ebp]
  006be	0f bf 48 06	 movsx	 ecx, WORD PTR [eax+6]
  006c2	81 f9 15 08 00
	00		 cmp	 ecx, 2069		; 00000815H
  006c8	74 4f		 je	 SHORT $LN254@gObjCalCha
  006ca	8b 45 e0	 mov	 eax, DWORD PTR _Left$[ebp]
  006cd	0f bf 48 06	 movsx	 ecx, WORD PTR [eax+6]
  006d1	81 f9 16 08 00
	00		 cmp	 ecx, 2070		; 00000816H
  006d7	74 40		 je	 SHORT $LN254@gObjCalCha
  006d9	8b 45 e0	 mov	 eax, DWORD PTR _Left$[ebp]
  006dc	0f bf 48 06	 movsx	 ecx, WORD PTR [eax+6]
  006e0	81 f9 17 08 00
	00		 cmp	 ecx, 2071		; 00000817H
  006e6	74 31		 je	 SHORT $LN254@gObjCalCha
  006e8	8b 45 e4	 mov	 eax, DWORD PTR _Right$[ebp]
  006eb	0f bf 48 06	 movsx	 ecx, WORD PTR [eax+6]
  006ef	81 f9 12 08 00
	00		 cmp	 ecx, 2066		; 00000812H
  006f5	74 22		 je	 SHORT $LN254@gObjCalCha
  006f7	8b 45 e4	 mov	 eax, DWORD PTR _Right$[ebp]
  006fa	0f bf 48 06	 movsx	 ecx, WORD PTR [eax+6]
  006fe	81 f9 13 08 00
	00		 cmp	 ecx, 2067		; 00000813H
  00704	74 13		 je	 SHORT $LN254@gObjCalCha
  00706	8b 45 e0	 mov	 eax, DWORD PTR _Left$[ebp]
  00709	0f bf 48 06	 movsx	 ecx, WORD PTR [eax+6]
  0070d	81 f9 11 08 00
	00		 cmp	 ecx, 2065		; 00000811H
  00713	0f 85 17 01 00
	00		 jne	 $LN255@gObjCalCha
$LN254@gObjCalCha:

; 209  : 		{
; 210  : 			if ( (Right->IsItem() != FALSE && Right->m_IsValidItem == false) || (Left->IsItem() != FALSE && Left->m_IsValidItem == false) )

  00719	8b 4d e4	 mov	 ecx, DWORD PTR _Right$[ebp]
  0071c	e8 00 00 00 00	 call	 ?IsItem@CItem@@QAEHXZ	; CItem::IsItem
  00721	85 c0		 test	 eax, eax
  00723	74 0e		 je	 SHORT $LN249@gObjCalCha
  00725	8b 45 e4	 mov	 eax, DWORD PTR _Right$[ebp]
  00728	0f b6 88 b0 00
	00 00		 movzx	 ecx, BYTE PTR [eax+176]
  0072f	85 c9		 test	 ecx, ecx
  00731	74 1a		 je	 SHORT $LN250@gObjCalCha
$LN249@gObjCalCha:
  00733	8b 4d e0	 mov	 ecx, DWORD PTR _Left$[ebp]
  00736	e8 00 00 00 00	 call	 ?IsItem@CItem@@QAEHXZ	; CItem::IsItem
  0073b	85 c0		 test	 eax, eax
  0073d	74 6b		 je	 SHORT $LN251@gObjCalCha
  0073f	8b 45 e0	 mov	 eax, DWORD PTR _Left$[ebp]
  00742	0f b6 88 b0 00
	00 00		 movzx	 ecx, BYTE PTR [eax+176]
  00749	85 c9		 test	 ecx, ecx
  0074b	75 5d		 jne	 SHORT $LN251@gObjCalCha
$LN250@gObjCalCha:

; 211  : 			{
; 212  : 				//int DamageMax_Bow_StrDexRight = GetPrivateProfileInt("Fairy_Elf","DamageMax_Bow_StrDexRight",4,"..\\Data\\ExData\\Character.ini");
; 213  : 				//int DamageMin_Bow_StrDexRight = GetPrivateProfileInt("Fairy_Elf","DamageMin_Bow_StrDexRight",7,"..\\Data\\ExData\\Character.ini");
; 214  : 				//int DamageMax_Bow_StrDexLeft = GetPrivateProfileInt("Fairy_Elf","DamageMax_Bow_StrDexLeft",4,"..\\Data\\ExData\\Character.ini");
; 215  : 				//int DamageMin_Bow_StrDexLeft = GetPrivateProfileInt("Fairy_Elf","DamageMin_Bow_StrDexLeft",7,"..\\Data\\ExData\\Character.ini");
; 216  : 				lpObj->m_AttackDamageMinRight = (Dexterity + Strength ) / ExConfig.Character.ELFDamageMin_Bow_StrDexRight;	//7

  0074d	8b 45 f0	 mov	 eax, DWORD PTR _Dexterity$[ebp]
  00750	03 45 f4	 add	 eax, DWORD PTR _Strength$[ebp]
  00753	99		 cdq
  00754	f7 3d 6c 01 00
	00		 idiv	 DWORD PTR ?ExConfig@@3VcExConfigs@@A+364
  0075a	8b 4d f8	 mov	 ecx, DWORD PTR _lpObj$[ebp]
  0075d	89 81 84 04 00
	00		 mov	 DWORD PTR [ecx+1156], eax

; 217  : 				lpObj->m_AttackDamageMaxRight = (Dexterity + Strength ) / ExConfig.Character.ELFDamageMax_Bow_StrDexRight;	//4

  00763	8b 45 f0	 mov	 eax, DWORD PTR _Dexterity$[ebp]
  00766	03 45 f4	 add	 eax, DWORD PTR _Strength$[ebp]
  00769	99		 cdq
  0076a	f7 3d 68 01 00
	00		 idiv	 DWORD PTR ?ExConfig@@3VcExConfigs@@A+360
  00770	8b 4d f8	 mov	 ecx, DWORD PTR _lpObj$[ebp]
  00773	89 81 80 04 00
	00		 mov	 DWORD PTR [ecx+1152], eax

; 218  : 				lpObj->m_AttackDamageMinLeft = (Dexterity + Strength ) / ExConfig.Character.ELFDamageMin_Bow_StrDexLeft;		//7

  00779	8b 45 f0	 mov	 eax, DWORD PTR _Dexterity$[ebp]
  0077c	03 45 f4	 add	 eax, DWORD PTR _Strength$[ebp]
  0077f	99		 cdq
  00780	f7 3d 74 01 00
	00		 idiv	 DWORD PTR ?ExConfig@@3VcExConfigs@@A+372
  00786	8b 4d f8	 mov	 ecx, DWORD PTR _lpObj$[ebp]
  00789	89 81 7c 04 00
	00		 mov	 DWORD PTR [ecx+1148], eax

; 219  : 				lpObj->m_AttackDamageMaxLeft = (Dexterity + Strength ) / ExConfig.Character.ELFDamageMax_Bow_StrDexLeft;		//4

  0078f	8b 45 f0	 mov	 eax, DWORD PTR _Dexterity$[ebp]
  00792	03 45 f4	 add	 eax, DWORD PTR _Strength$[ebp]
  00795	99		 cdq
  00796	f7 3d 70 01 00
	00		 idiv	 DWORD PTR ?ExConfig@@3VcExConfigs@@A+368
  0079c	8b 4d f8	 mov	 ecx, DWORD PTR _lpObj$[ebp]
  0079f	89 81 78 04 00
	00		 mov	 DWORD PTR [ecx+1144], eax

; 220  : 			}
; 221  : 			else

  007a5	e9 84 00 00 00	 jmp	 $LN248@gObjCalCha
$LN251@gObjCalCha:

; 222  : 			{
; 223  : 				//int DamageMax_NoBow_StrRight = GetPrivateProfileInt("Fairy_Elf","DamageMax_NoBow_StrRight",8,"..\\Data\\ExData\\Character.ini");
; 224  : 				//int DamageMax_NoBow_DexRight = GetPrivateProfileInt("Fairy_Elf","DamageMax_NoBow_DexRight",4,"..\\Data\\ExData\\Character.ini");
; 225  : 				//int DamageMin_NoBow_StrRight = GetPrivateProfileInt("Fairy_Elf","DamageMin_NoBow_StrRight",14,"..\\Data\\ExData\\Character.ini");
; 226  : 				//int DamageMin_NoBow_DexRight = GetPrivateProfileInt("Fairy_Elf","DamageMin_NoBow_DexRight",7,"..\\Data\\ExData\\Character.ini");
; 227  : 
; 228  : 				//int DamageMax_NoBow_StrLeft = GetPrivateProfileInt("Fairy_Elf","DamageMax_NoBow_StrLeft",8,"..\\Data\\ExData\\Character.ini");
; 229  : 				//int DamageMax_NoBow_DexLeft = GetPrivateProfileInt("Fairy_Elf","DamageMax_NoBow_DexLeft",4,"..\\Data\\ExData\\Character.ini");
; 230  : 				//int DamageMin_NoBow_StrLeft = GetPrivateProfileInt("Fairy_Elf","DamageMin_NoBow_StrLeft",14,"..\\Data\\ExData\\Character.ini");
; 231  : 				//int DamageMin_NoBow_DexLeft = GetPrivateProfileInt("Fairy_Elf","DamageMin_NoBow_DexLeft",7,"..\\Data\\ExData\\Character.ini");
; 232  : 
; 233  : 				lpObj->m_AttackDamageMinRight = (Dexterity / ExConfig.Character.ELFDamageMin_NoBow_DexRight) + (Strength / ExConfig.Character.ELFDamageMin_NoBow_StrRight);

  007aa	8b 45 f0	 mov	 eax, DWORD PTR _Dexterity$[ebp]
  007ad	99		 cdq
  007ae	f7 3d 84 01 00
	00		 idiv	 DWORD PTR ?ExConfig@@3VcExConfigs@@A+388
  007b4	8b c8		 mov	 ecx, eax
  007b6	8b 45 f4	 mov	 eax, DWORD PTR _Strength$[ebp]
  007b9	99		 cdq
  007ba	f7 3d 80 01 00
	00		 idiv	 DWORD PTR ?ExConfig@@3VcExConfigs@@A+384
  007c0	03 c8		 add	 ecx, eax
  007c2	8b 55 f8	 mov	 edx, DWORD PTR _lpObj$[ebp]
  007c5	89 8a 84 04 00
	00		 mov	 DWORD PTR [edx+1156], ecx

; 234  : 				lpObj->m_AttackDamageMaxRight = (Dexterity / ExConfig.Character.ELFDamageMax_NoBow_DexRight) + (Strength / ExConfig.Character.ELFDamageMax_NoBow_StrRight );

  007cb	8b 45 f0	 mov	 eax, DWORD PTR _Dexterity$[ebp]
  007ce	99		 cdq
  007cf	f7 3d 7c 01 00
	00		 idiv	 DWORD PTR ?ExConfig@@3VcExConfigs@@A+380
  007d5	8b c8		 mov	 ecx, eax
  007d7	8b 45 f4	 mov	 eax, DWORD PTR _Strength$[ebp]
  007da	99		 cdq
  007db	f7 3d 78 01 00
	00		 idiv	 DWORD PTR ?ExConfig@@3VcExConfigs@@A+376
  007e1	03 c8		 add	 ecx, eax
  007e3	8b 55 f8	 mov	 edx, DWORD PTR _lpObj$[ebp]
  007e6	89 8a 80 04 00
	00		 mov	 DWORD PTR [edx+1152], ecx

; 235  : 				lpObj->m_AttackDamageMinLeft = (Dexterity / ExConfig.Character.ELFDamageMin_NoBow_DexLeft) + (Strength / ExConfig.Character.ELFDamageMin_NoBow_StrLeft);

  007ec	8b 45 f0	 mov	 eax, DWORD PTR _Dexterity$[ebp]
  007ef	99		 cdq
  007f0	f7 3d 94 01 00
	00		 idiv	 DWORD PTR ?ExConfig@@3VcExConfigs@@A+404
  007f6	8b c8		 mov	 ecx, eax
  007f8	8b 45 f4	 mov	 eax, DWORD PTR _Strength$[ebp]
  007fb	99		 cdq
  007fc	f7 3d 90 01 00
	00		 idiv	 DWORD PTR ?ExConfig@@3VcExConfigs@@A+400
  00802	03 c8		 add	 ecx, eax
  00804	8b 55 f8	 mov	 edx, DWORD PTR _lpObj$[ebp]
  00807	89 8a 7c 04 00
	00		 mov	 DWORD PTR [edx+1148], ecx

; 236  : 				lpObj->m_AttackDamageMaxLeft = (Dexterity / ExConfig.Character.ELFDamageMax_NoBow_DexLeft) + (Strength / ExConfig.Character.ELFDamageMax_NoBow_StrLeft );

  0080d	8b 45 f0	 mov	 eax, DWORD PTR _Dexterity$[ebp]
  00810	99		 cdq
  00811	f7 3d 8c 01 00
	00		 idiv	 DWORD PTR ?ExConfig@@3VcExConfigs@@A+396
  00817	8b c8		 mov	 ecx, eax
  00819	8b 45 f4	 mov	 eax, DWORD PTR _Strength$[ebp]
  0081c	99		 cdq
  0081d	f7 3d 88 01 00
	00		 idiv	 DWORD PTR ?ExConfig@@3VcExConfigs@@A+392
  00823	03 c8		 add	 ecx, eax
  00825	8b 55 f8	 mov	 edx, DWORD PTR _lpObj$[ebp]
  00828	89 8a 78 04 00
	00		 mov	 DWORD PTR [edx+1144], ecx
$LN248@gObjCalCha:

; 237  : 			}
; 238  : 		}
; 239  : 		else

  0082e	eb 58		 jmp	 SHORT $LN247@gObjCalCha
$LN255@gObjCalCha:

; 240  : 		{
; 241  : 			//int DamageMax_DexStrRight = GetPrivateProfileInt("Fairy_Elf","DamageMax_DexStrRight",4,"..\\Data\\ExData\\Character.ini");
; 242  : 			//int DamageMin_DexStrRight = GetPrivateProfileInt("Fairy_Elf","DamageMin_DexStrRight",7,"..\\Data\\ExData\\Character.ini");
; 243  : 			//int DamageMax_DexStrLeft = GetPrivateProfileInt("Fairy_Elf","DamageMax_DexStrLeft",4,"..\\Data\\ExData\\Character.ini");
; 244  : 			//int DamageMin_DexStrLeft = GetPrivateProfileInt("Fairy_Elf","DamageMin_DexStrLeft",7,"..\\Data\\ExData\\Character.ini");
; 245  : 
; 246  : 			lpObj->m_AttackDamageMinRight = (Dexterity + Strength) / ExConfig.Character.ELFDamageMin_DexStrRight;	// 7

  00830	8b 45 f0	 mov	 eax, DWORD PTR _Dexterity$[ebp]
  00833	03 45 f4	 add	 eax, DWORD PTR _Strength$[ebp]
  00836	99		 cdq
  00837	f7 3d 9c 01 00
	00		 idiv	 DWORD PTR ?ExConfig@@3VcExConfigs@@A+412
  0083d	8b 4d f8	 mov	 ecx, DWORD PTR _lpObj$[ebp]
  00840	89 81 84 04 00
	00		 mov	 DWORD PTR [ecx+1156], eax

; 247  : 			lpObj->m_AttackDamageMaxRight = (Dexterity + Strength) / ExConfig.Character.ELFDamageMax_DexStrRight;	// 4

  00846	8b 45 f0	 mov	 eax, DWORD PTR _Dexterity$[ebp]
  00849	03 45 f4	 add	 eax, DWORD PTR _Strength$[ebp]
  0084c	99		 cdq
  0084d	f7 3d 98 01 00
	00		 idiv	 DWORD PTR ?ExConfig@@3VcExConfigs@@A+408
  00853	8b 4d f8	 mov	 ecx, DWORD PTR _lpObj$[ebp]
  00856	89 81 80 04 00
	00		 mov	 DWORD PTR [ecx+1152], eax

; 248  : 			lpObj->m_AttackDamageMinLeft = (Dexterity + Strength) / ExConfig.Character.ELFDamageMin_DexStrLeft;	// 7

  0085c	8b 45 f0	 mov	 eax, DWORD PTR _Dexterity$[ebp]
  0085f	03 45 f4	 add	 eax, DWORD PTR _Strength$[ebp]
  00862	99		 cdq
  00863	f7 3d a4 01 00
	00		 idiv	 DWORD PTR ?ExConfig@@3VcExConfigs@@A+420
  00869	8b 4d f8	 mov	 ecx, DWORD PTR _lpObj$[ebp]
  0086c	89 81 7c 04 00
	00		 mov	 DWORD PTR [ecx+1148], eax

; 249  : 			lpObj->m_AttackDamageMaxLeft = (Dexterity + Strength) / ExConfig.Character.ELFDamageMax_DexStrLeft;	// 4

  00872	8b 45 f0	 mov	 eax, DWORD PTR _Dexterity$[ebp]
  00875	03 45 f4	 add	 eax, DWORD PTR _Strength$[ebp]
  00878	99		 cdq
  00879	f7 3d a0 01 00
	00		 idiv	 DWORD PTR ?ExConfig@@3VcExConfigs@@A+416
  0087f	8b 4d f8	 mov	 ecx, DWORD PTR _lpObj$[ebp]
  00882	89 81 78 04 00
	00		 mov	 DWORD PTR [ecx+1144], eax
$LN247@gObjCalCha:

; 250  : 		}
; 251  : 
; 252  : 		
; 253  : 
; 254  : #ifdef CALCULATOR_MANAGER
; 255  : 		if (g_ExLicense.CheckUser(eExUB::ulasevich) || g_ExLicense.CheckUser(eExUB::ConflictNoCustom) || g_ExLicense.CheckUser(eExUB::ulasevich2))

  00888	6a 17		 push	 23			; 00000017H
  0088a	b9 00 00 00 00	 mov	 ecx, OFFSET ?g_ExLicense@@3VCExLicense@@A ; g_ExLicense
  0088f	e8 00 00 00 00	 call	 ?CheckUser@CExLicense@@QAE_NH@Z ; CExLicense::CheckUser
  00894	0f b6 c0	 movzx	 eax, al
  00897	85 c0		 test	 eax, eax
  00899	75 2a		 jne	 SHORT $LN245@gObjCalCha
  0089b	6a 28		 push	 40			; 00000028H
  0089d	b9 00 00 00 00	 mov	 ecx, OFFSET ?g_ExLicense@@3VCExLicense@@A ; g_ExLicense
  008a2	e8 00 00 00 00	 call	 ?CheckUser@CExLicense@@QAE_NH@Z ; CExLicense::CheckUser
  008a7	0f b6 c0	 movzx	 eax, al
  008aa	85 c0		 test	 eax, eax
  008ac	75 17		 jne	 SHORT $LN245@gObjCalCha
  008ae	6a 24		 push	 36			; 00000024H
  008b0	b9 00 00 00 00	 mov	 ecx, OFFSET ?g_ExLicense@@3VCExLicense@@A ; g_ExLicense
  008b5	e8 00 00 00 00	 call	 ?CheckUser@CExLicense@@QAE_NH@Z ; CExLicense::CheckUser
  008ba	0f b6 c0	 movzx	 eax, al
  008bd	85 c0		 test	 eax, eax
  008bf	0f 84 84 00 00
	00		 je	 $LN246@gObjCalCha
$LN245@gObjCalCha:

; 256  : 		{
; 257  : 			lpObj->m_AttackDamageMinRight = (lpObj->m_AttackDamageMinRight * CalculatorManager.FE_MinDamagePercent) / 100;

  008c5	8b 45 f8	 mov	 eax, DWORD PTR _lpObj$[ebp]
  008c8	8b 80 84 04 00
	00		 mov	 eax, DWORD PTR [eax+1156]
  008ce	0f af 05 10 00
	00 00		 imul	 eax, DWORD PTR ?CalculatorManager@@3VcCalculatorManager@@A+16
  008d5	99		 cdq
  008d6	b9 64 00 00 00	 mov	 ecx, 100		; 00000064H
  008db	f7 f9		 idiv	 ecx
  008dd	8b 55 f8	 mov	 edx, DWORD PTR _lpObj$[ebp]
  008e0	89 82 84 04 00
	00		 mov	 DWORD PTR [edx+1156], eax

; 258  : 			lpObj->m_AttackDamageMinLeft = (lpObj->m_AttackDamageMinLeft * CalculatorManager.FE_MinDamagePercent) / 100;

  008e6	8b 45 f8	 mov	 eax, DWORD PTR _lpObj$[ebp]
  008e9	8b 80 7c 04 00
	00		 mov	 eax, DWORD PTR [eax+1148]
  008ef	0f af 05 10 00
	00 00		 imul	 eax, DWORD PTR ?CalculatorManager@@3VcCalculatorManager@@A+16
  008f6	99		 cdq
  008f7	b9 64 00 00 00	 mov	 ecx, 100		; 00000064H
  008fc	f7 f9		 idiv	 ecx
  008fe	8b 55 f8	 mov	 edx, DWORD PTR _lpObj$[ebp]
  00901	89 82 7c 04 00
	00		 mov	 DWORD PTR [edx+1148], eax

; 259  : 
; 260  : 			lpObj->m_AttackDamageMaxRight = (lpObj->m_AttackDamageMaxRight * CalculatorManager.FE_MaxDamagePercent) / 100;

  00907	8b 45 f8	 mov	 eax, DWORD PTR _lpObj$[ebp]
  0090a	8b 80 80 04 00
	00		 mov	 eax, DWORD PTR [eax+1152]
  00910	0f af 05 14 00
	00 00		 imul	 eax, DWORD PTR ?CalculatorManager@@3VcCalculatorManager@@A+20
  00917	99		 cdq
  00918	b9 64 00 00 00	 mov	 ecx, 100		; 00000064H
  0091d	f7 f9		 idiv	 ecx
  0091f	8b 55 f8	 mov	 edx, DWORD PTR _lpObj$[ebp]
  00922	89 82 80 04 00
	00		 mov	 DWORD PTR [edx+1152], eax

; 261  : 			lpObj->m_AttackDamageMaxLeft = (lpObj->m_AttackDamageMaxLeft * CalculatorManager.FE_MaxDamagePercent) / 100;

  00928	8b 45 f8	 mov	 eax, DWORD PTR _lpObj$[ebp]
  0092b	8b 80 78 04 00
	00		 mov	 eax, DWORD PTR [eax+1144]
  00931	0f af 05 14 00
	00 00		 imul	 eax, DWORD PTR ?CalculatorManager@@3VcCalculatorManager@@A+20
  00938	99		 cdq
  00939	b9 64 00 00 00	 mov	 ecx, 100		; 00000064H
  0093e	f7 f9		 idiv	 ecx
  00940	8b 55 f8	 mov	 edx, DWORD PTR _lpObj$[ebp]
  00943	89 82 78 04 00
	00		 mov	 DWORD PTR [edx+1144], eax
$LN246@gObjCalCha:

; 262  : 		}
; 263  : #endif
; 264  : 	}

  00949	e9 58 06 00 00	 jmp	 $LN224@gObjCalCha
$LN256@gObjCalCha:

; 265  : 	else if ( lpObj->Class == CLASS_KNIGHT )

  0094e	8b 45 f8	 mov	 eax, DWORD PTR _lpObj$[ebp]
  00951	0f b7 88 b8 00
	00 00		 movzx	 ecx, WORD PTR [eax+184]
  00958	83 f9 01	 cmp	 ecx, 1
  0095b	0f 85 12 01 00
	00		 jne	 $LN243@gObjCalCha

; 266  : 	{
; 267  : 		//int DamageMax_StrRight = GetPrivateProfileInt("Dark_Knight","DamageMax_StrRight",4,"..\\Data\\ExData\\Character.ini");
; 268  : 		//int DamageMin_StrRight = GetPrivateProfileInt("Dark_Knight","DamageMin_StrRight",6,"..\\Data\\ExData\\Character.ini");
; 269  : 		//int DamageMax_StrLeft = GetPrivateProfileInt("Dark_Knight","DamageMax_StrLeft",4,"..\\Data\\ExData\\Character.ini");
; 270  : 		//int DamageMin_StrLeft = GetPrivateProfileInt("Dark_Knight","DamageMin_StrLeft",6,"..\\Data\\ExData\\Character.ini");
; 271  : 
; 272  : 		lpObj->m_AttackDamageMinRight = Strength / ExConfig.Character.DKDamageMin_StrRight;	// 6

  00961	8b 45 f4	 mov	 eax, DWORD PTR _Strength$[ebp]
  00964	99		 cdq
  00965	f7 3d ac 01 00
	00		 idiv	 DWORD PTR ?ExConfig@@3VcExConfigs@@A+428
  0096b	8b 4d f8	 mov	 ecx, DWORD PTR _lpObj$[ebp]
  0096e	89 81 84 04 00
	00		 mov	 DWORD PTR [ecx+1156], eax

; 273  : 		lpObj->m_AttackDamageMaxRight = Strength / ExConfig.Character.DKDamageMax_StrRight;	// 4

  00974	8b 45 f4	 mov	 eax, DWORD PTR _Strength$[ebp]
  00977	99		 cdq
  00978	f7 3d a8 01 00
	00		 idiv	 DWORD PTR ?ExConfig@@3VcExConfigs@@A+424
  0097e	8b 4d f8	 mov	 ecx, DWORD PTR _lpObj$[ebp]
  00981	89 81 80 04 00
	00		 mov	 DWORD PTR [ecx+1152], eax

; 274  : 		lpObj->m_AttackDamageMinLeft = Strength / ExConfig.Character.DKDamageMin_StrLeft;	// 6

  00987	8b 45 f4	 mov	 eax, DWORD PTR _Strength$[ebp]
  0098a	99		 cdq
  0098b	f7 3d b4 01 00
	00		 idiv	 DWORD PTR ?ExConfig@@3VcExConfigs@@A+436
  00991	8b 4d f8	 mov	 ecx, DWORD PTR _lpObj$[ebp]
  00994	89 81 7c 04 00
	00		 mov	 DWORD PTR [ecx+1148], eax

; 275  : 		lpObj->m_AttackDamageMaxLeft = Strength / ExConfig.Character.DKDamageMax_StrLeft;	// 4

  0099a	8b 45 f4	 mov	 eax, DWORD PTR _Strength$[ebp]
  0099d	99		 cdq
  0099e	f7 3d b0 01 00
	00		 idiv	 DWORD PTR ?ExConfig@@3VcExConfigs@@A+432
  009a4	8b 4d f8	 mov	 ecx, DWORD PTR _lpObj$[ebp]
  009a7	89 81 78 04 00
	00		 mov	 DWORD PTR [ecx+1144], eax

; 276  : 
; 277  : #ifdef CALCULATOR_MANAGER
; 278  : 		if (g_ExLicense.CheckUser(eExUB::ulasevich) || g_ExLicense.CheckUser(eExUB::ConflictNoCustom) || g_ExLicense.CheckUser(eExUB::ulasevich2))

  009ad	6a 17		 push	 23			; 00000017H
  009af	b9 00 00 00 00	 mov	 ecx, OFFSET ?g_ExLicense@@3VCExLicense@@A ; g_ExLicense
  009b4	e8 00 00 00 00	 call	 ?CheckUser@CExLicense@@QAE_NH@Z ; CExLicense::CheckUser
  009b9	0f b6 c0	 movzx	 eax, al
  009bc	85 c0		 test	 eax, eax
  009be	75 2a		 jne	 SHORT $LN241@gObjCalCha
  009c0	6a 28		 push	 40			; 00000028H
  009c2	b9 00 00 00 00	 mov	 ecx, OFFSET ?g_ExLicense@@3VCExLicense@@A ; g_ExLicense
  009c7	e8 00 00 00 00	 call	 ?CheckUser@CExLicense@@QAE_NH@Z ; CExLicense::CheckUser
  009cc	0f b6 c0	 movzx	 eax, al
  009cf	85 c0		 test	 eax, eax
  009d1	75 17		 jne	 SHORT $LN241@gObjCalCha
  009d3	6a 24		 push	 36			; 00000024H
  009d5	b9 00 00 00 00	 mov	 ecx, OFFSET ?g_ExLicense@@3VCExLicense@@A ; g_ExLicense
  009da	e8 00 00 00 00	 call	 ?CheckUser@CExLicense@@QAE_NH@Z ; CExLicense::CheckUser
  009df	0f b6 c0	 movzx	 eax, al
  009e2	85 c0		 test	 eax, eax
  009e4	0f 84 84 00 00
	00		 je	 $LN242@gObjCalCha
$LN241@gObjCalCha:

; 279  : 		{
; 280  : 			lpObj->m_AttackDamageMinRight = (lpObj->m_AttackDamageMinRight * CalculatorManager.DK_MinDamagePercent) / 100;

  009ea	8b 45 f8	 mov	 eax, DWORD PTR _lpObj$[ebp]
  009ed	8b 80 84 04 00
	00		 mov	 eax, DWORD PTR [eax+1156]
  009f3	0f af 05 08 00
	00 00		 imul	 eax, DWORD PTR ?CalculatorManager@@3VcCalculatorManager@@A+8
  009fa	99		 cdq
  009fb	b9 64 00 00 00	 mov	 ecx, 100		; 00000064H
  00a00	f7 f9		 idiv	 ecx
  00a02	8b 55 f8	 mov	 edx, DWORD PTR _lpObj$[ebp]
  00a05	89 82 84 04 00
	00		 mov	 DWORD PTR [edx+1156], eax

; 281  : 			lpObj->m_AttackDamageMinLeft = (lpObj->m_AttackDamageMinLeft * CalculatorManager.DK_MinDamagePercent) / 100;

  00a0b	8b 45 f8	 mov	 eax, DWORD PTR _lpObj$[ebp]
  00a0e	8b 80 7c 04 00
	00		 mov	 eax, DWORD PTR [eax+1148]
  00a14	0f af 05 08 00
	00 00		 imul	 eax, DWORD PTR ?CalculatorManager@@3VcCalculatorManager@@A+8
  00a1b	99		 cdq
  00a1c	b9 64 00 00 00	 mov	 ecx, 100		; 00000064H
  00a21	f7 f9		 idiv	 ecx
  00a23	8b 55 f8	 mov	 edx, DWORD PTR _lpObj$[ebp]
  00a26	89 82 7c 04 00
	00		 mov	 DWORD PTR [edx+1148], eax

; 282  : 
; 283  : 			lpObj->m_AttackDamageMaxRight = (lpObj->m_AttackDamageMaxRight * CalculatorManager.DK_MaxDamagePercent) / 100;

  00a2c	8b 45 f8	 mov	 eax, DWORD PTR _lpObj$[ebp]
  00a2f	8b 80 80 04 00
	00		 mov	 eax, DWORD PTR [eax+1152]
  00a35	0f af 05 0c 00
	00 00		 imul	 eax, DWORD PTR ?CalculatorManager@@3VcCalculatorManager@@A+12
  00a3c	99		 cdq
  00a3d	b9 64 00 00 00	 mov	 ecx, 100		; 00000064H
  00a42	f7 f9		 idiv	 ecx
  00a44	8b 55 f8	 mov	 edx, DWORD PTR _lpObj$[ebp]
  00a47	89 82 80 04 00
	00		 mov	 DWORD PTR [edx+1152], eax

; 284  : 			lpObj->m_AttackDamageMaxLeft = (lpObj->m_AttackDamageMaxLeft * CalculatorManager.DK_MaxDamagePercent) / 100;

  00a4d	8b 45 f8	 mov	 eax, DWORD PTR _lpObj$[ebp]
  00a50	8b 80 78 04 00
	00		 mov	 eax, DWORD PTR [eax+1144]
  00a56	0f af 05 0c 00
	00 00		 imul	 eax, DWORD PTR ?CalculatorManager@@3VcCalculatorManager@@A+12
  00a5d	99		 cdq
  00a5e	b9 64 00 00 00	 mov	 ecx, 100		; 00000064H
  00a63	f7 f9		 idiv	 ecx
  00a65	8b 55 f8	 mov	 edx, DWORD PTR _lpObj$[ebp]
  00a68	89 82 78 04 00
	00		 mov	 DWORD PTR [edx+1144], eax
$LN242@gObjCalCha:

; 285  : 		}
; 286  : #endif
; 287  : 	}

  00a6e	e9 33 05 00 00	 jmp	 $LN224@gObjCalCha
$LN243@gObjCalCha:

; 288  : 	else if (lpObj->Class == CLASS_MAGUMSA )

  00a73	8b 45 f8	 mov	 eax, DWORD PTR _lpObj$[ebp]
  00a76	0f b7 88 b8 00
	00 00		 movzx	 ecx, WORD PTR [eax+184]
  00a7d	83 f9 03	 cmp	 ecx, 3
  00a80	0f 85 4a 01 00
	00		 jne	 $LN239@gObjCalCha

; 289  : 	{
; 290  : 		//int DamageMax_StrRight = GetPrivateProfileInt("Magic_Gladiator","DamageMax_StrRight",4,"..\\Data\\ExData\\Character.ini");
; 291  : 		//int DamageMax_EneRight = GetPrivateProfileInt("Magic_Gladiator","DamageMax_EneRight",8,"..\\Data\\ExData\\Character.ini");
; 292  : 		//int DamageMin_StrRight = GetPrivateProfileInt("Magic_Gladiator","DamageMin_StrRight",6,"..\\Data\\ExData\\Character.ini");
; 293  : 		//int DamageMin_EneRight = GetPrivateProfileInt("Magic_Gladiator","DamageMin_EneRight",12,"..\\Data\\ExData\\Character.ini");
; 294  : 
; 295  : 		//int DamageMax_StrLeft = GetPrivateProfileInt("Magic_Gladiator","DamageMax_StrLeft",4,"..\\Data\\ExData\\Character.ini");
; 296  : 		//int DamageMax_EneLeft = GetPrivateProfileInt("Magic_Gladiator","DamageMax_EneLeft",8,"..\\Data\\ExData\\Character.ini");
; 297  : 		//int DamageMin_StrLeft = GetPrivateProfileInt("Magic_Gladiator","DamageMin_StrLeft",6,"..\\Data\\ExData\\Character.ini");
; 298  : 		//int DamageMin_EneLeft = GetPrivateProfileInt("Magic_Gladiator","DamageMin_EneLeft",12,"..\\Data\\ExData\\Character.ini");
; 299  : 
; 300  : 		lpObj->m_AttackDamageMinRight = (Strength / ExConfig.Character.MGDamageMin_StrRight) + (Energy / ExConfig.Character.MGDamageMin_EneRight);

  00a86	8b 45 f4	 mov	 eax, DWORD PTR _Strength$[ebp]
  00a89	99		 cdq
  00a8a	f7 3d c0 01 00
	00		 idiv	 DWORD PTR ?ExConfig@@3VcExConfigs@@A+448
  00a90	8b c8		 mov	 ecx, eax
  00a92	8b 45 e8	 mov	 eax, DWORD PTR _Energy$[ebp]
  00a95	99		 cdq
  00a96	f7 3d c4 01 00
	00		 idiv	 DWORD PTR ?ExConfig@@3VcExConfigs@@A+452
  00a9c	03 c8		 add	 ecx, eax
  00a9e	8b 55 f8	 mov	 edx, DWORD PTR _lpObj$[ebp]
  00aa1	89 8a 84 04 00
	00		 mov	 DWORD PTR [edx+1156], ecx

; 301  : 		lpObj->m_AttackDamageMaxRight = (Strength / ExConfig.Character.MGDamageMax_StrRight) + (Energy / ExConfig.Character.MGDamageMax_EneRight);

  00aa7	8b 45 f4	 mov	 eax, DWORD PTR _Strength$[ebp]
  00aaa	99		 cdq
  00aab	f7 3d b8 01 00
	00		 idiv	 DWORD PTR ?ExConfig@@3VcExConfigs@@A+440
  00ab1	8b c8		 mov	 ecx, eax
  00ab3	8b 45 e8	 mov	 eax, DWORD PTR _Energy$[ebp]
  00ab6	99		 cdq
  00ab7	f7 3d bc 01 00
	00		 idiv	 DWORD PTR ?ExConfig@@3VcExConfigs@@A+444
  00abd	03 c8		 add	 ecx, eax
  00abf	8b 55 f8	 mov	 edx, DWORD PTR _lpObj$[ebp]
  00ac2	89 8a 80 04 00
	00		 mov	 DWORD PTR [edx+1152], ecx

; 302  : 		lpObj->m_AttackDamageMinLeft = (Strength / ExConfig.Character.MGDamageMin_StrLeft) + (Energy / ExConfig.Character.MGDamageMin_EneLeft);

  00ac8	8b 45 f4	 mov	 eax, DWORD PTR _Strength$[ebp]
  00acb	99		 cdq
  00acc	f7 3d d0 01 00
	00		 idiv	 DWORD PTR ?ExConfig@@3VcExConfigs@@A+464
  00ad2	8b c8		 mov	 ecx, eax
  00ad4	8b 45 e8	 mov	 eax, DWORD PTR _Energy$[ebp]
  00ad7	99		 cdq
  00ad8	f7 3d d4 01 00
	00		 idiv	 DWORD PTR ?ExConfig@@3VcExConfigs@@A+468
  00ade	03 c8		 add	 ecx, eax
  00ae0	8b 55 f8	 mov	 edx, DWORD PTR _lpObj$[ebp]
  00ae3	89 8a 7c 04 00
	00		 mov	 DWORD PTR [edx+1148], ecx

; 303  : 		lpObj->m_AttackDamageMaxLeft = (Strength / ExConfig.Character.MGDamageMax_StrLeft) + (Energy / ExConfig.Character.MGDamageMax_EneLeft);

  00ae9	8b 45 f4	 mov	 eax, DWORD PTR _Strength$[ebp]
  00aec	99		 cdq
  00aed	f7 3d c8 01 00
	00		 idiv	 DWORD PTR ?ExConfig@@3VcExConfigs@@A+456
  00af3	8b c8		 mov	 ecx, eax
  00af5	8b 45 e8	 mov	 eax, DWORD PTR _Energy$[ebp]
  00af8	99		 cdq
  00af9	f7 3d cc 01 00
	00		 idiv	 DWORD PTR ?ExConfig@@3VcExConfigs@@A+460
  00aff	03 c8		 add	 ecx, eax
  00b01	8b 55 f8	 mov	 edx, DWORD PTR _lpObj$[ebp]
  00b04	89 8a 78 04 00
	00		 mov	 DWORD PTR [edx+1144], ecx

; 304  : 
; 305  : 
; 306  : #ifdef CALCULATOR_MANAGER
; 307  : 		if (g_ExLicense.CheckUser(eExUB::ulasevich) || g_ExLicense.CheckUser(eExUB::ConflictNoCustom) || g_ExLicense.CheckUser(eExUB::ulasevich2))

  00b0a	6a 17		 push	 23			; 00000017H
  00b0c	b9 00 00 00 00	 mov	 ecx, OFFSET ?g_ExLicense@@3VCExLicense@@A ; g_ExLicense
  00b11	e8 00 00 00 00	 call	 ?CheckUser@CExLicense@@QAE_NH@Z ; CExLicense::CheckUser
  00b16	0f b6 c0	 movzx	 eax, al
  00b19	85 c0		 test	 eax, eax
  00b1b	75 2a		 jne	 SHORT $LN237@gObjCalCha
  00b1d	6a 28		 push	 40			; 00000028H
  00b1f	b9 00 00 00 00	 mov	 ecx, OFFSET ?g_ExLicense@@3VCExLicense@@A ; g_ExLicense
  00b24	e8 00 00 00 00	 call	 ?CheckUser@CExLicense@@QAE_NH@Z ; CExLicense::CheckUser
  00b29	0f b6 c0	 movzx	 eax, al
  00b2c	85 c0		 test	 eax, eax
  00b2e	75 17		 jne	 SHORT $LN237@gObjCalCha
  00b30	6a 24		 push	 36			; 00000024H
  00b32	b9 00 00 00 00	 mov	 ecx, OFFSET ?g_ExLicense@@3VCExLicense@@A ; g_ExLicense
  00b37	e8 00 00 00 00	 call	 ?CheckUser@CExLicense@@QAE_NH@Z ; CExLicense::CheckUser
  00b3c	0f b6 c0	 movzx	 eax, al
  00b3f	85 c0		 test	 eax, eax
  00b41	0f 84 84 00 00
	00		 je	 $LN238@gObjCalCha
$LN237@gObjCalCha:

; 308  : 		{
; 309  : 			lpObj->m_AttackDamageMinRight = (lpObj->m_AttackDamageMinRight * CalculatorManager.MG_MinDamagePercent) / 100;

  00b47	8b 45 f8	 mov	 eax, DWORD PTR _lpObj$[ebp]
  00b4a	8b 80 84 04 00
	00		 mov	 eax, DWORD PTR [eax+1156]
  00b50	0f af 05 18 00
	00 00		 imul	 eax, DWORD PTR ?CalculatorManager@@3VcCalculatorManager@@A+24
  00b57	99		 cdq
  00b58	b9 64 00 00 00	 mov	 ecx, 100		; 00000064H
  00b5d	f7 f9		 idiv	 ecx
  00b5f	8b 55 f8	 mov	 edx, DWORD PTR _lpObj$[ebp]
  00b62	89 82 84 04 00
	00		 mov	 DWORD PTR [edx+1156], eax

; 310  : 			lpObj->m_AttackDamageMinLeft = (lpObj->m_AttackDamageMinLeft * CalculatorManager.MG_MinDamagePercent) / 100;

  00b68	8b 45 f8	 mov	 eax, DWORD PTR _lpObj$[ebp]
  00b6b	8b 80 7c 04 00
	00		 mov	 eax, DWORD PTR [eax+1148]
  00b71	0f af 05 18 00
	00 00		 imul	 eax, DWORD PTR ?CalculatorManager@@3VcCalculatorManager@@A+24
  00b78	99		 cdq
  00b79	b9 64 00 00 00	 mov	 ecx, 100		; 00000064H
  00b7e	f7 f9		 idiv	 ecx
  00b80	8b 55 f8	 mov	 edx, DWORD PTR _lpObj$[ebp]
  00b83	89 82 7c 04 00
	00		 mov	 DWORD PTR [edx+1148], eax

; 311  : 
; 312  : 			lpObj->m_AttackDamageMaxRight = (lpObj->m_AttackDamageMaxRight * CalculatorManager.MG_MaxDamagePercent) / 100;

  00b89	8b 45 f8	 mov	 eax, DWORD PTR _lpObj$[ebp]
  00b8c	8b 80 80 04 00
	00		 mov	 eax, DWORD PTR [eax+1152]
  00b92	0f af 05 1c 00
	00 00		 imul	 eax, DWORD PTR ?CalculatorManager@@3VcCalculatorManager@@A+28
  00b99	99		 cdq
  00b9a	b9 64 00 00 00	 mov	 ecx, 100		; 00000064H
  00b9f	f7 f9		 idiv	 ecx
  00ba1	8b 55 f8	 mov	 edx, DWORD PTR _lpObj$[ebp]
  00ba4	89 82 80 04 00
	00		 mov	 DWORD PTR [edx+1152], eax

; 313  : 			lpObj->m_AttackDamageMaxLeft = (lpObj->m_AttackDamageMaxLeft * CalculatorManager.MG_MaxDamagePercent) / 100;

  00baa	8b 45 f8	 mov	 eax, DWORD PTR _lpObj$[ebp]
  00bad	8b 80 78 04 00
	00		 mov	 eax, DWORD PTR [eax+1144]
  00bb3	0f af 05 1c 00
	00 00		 imul	 eax, DWORD PTR ?CalculatorManager@@3VcCalculatorManager@@A+28
  00bba	99		 cdq
  00bbb	b9 64 00 00 00	 mov	 ecx, 100		; 00000064H
  00bc0	f7 f9		 idiv	 ecx
  00bc2	8b 55 f8	 mov	 edx, DWORD PTR _lpObj$[ebp]
  00bc5	89 82 78 04 00
	00		 mov	 DWORD PTR [edx+1144], eax
$LN238@gObjCalCha:

; 314  : 		}
; 315  : #endif
; 316  : 	}

  00bcb	e9 d6 03 00 00	 jmp	 $LN224@gObjCalCha
$LN239@gObjCalCha:

; 317  : 	else if ( lpObj->Class == CLASS_DARKLORD )

  00bd0	8b 45 f8	 mov	 eax, DWORD PTR _lpObj$[ebp]
  00bd3	0f b7 88 b8 00
	00 00		 movzx	 ecx, WORD PTR [eax+184]
  00bda	83 f9 04	 cmp	 ecx, 4
  00bdd	0f 85 4a 01 00
	00		 jne	 $LN235@gObjCalCha

; 318  : 	{
; 319  : 		//int DamageMax_StrRight = GetPrivateProfileInt("Dark_Lord","DamageMax_StrRight",5,"..\\Data\\ExData\\Character.ini");
; 320  : 		//int DamageMax_EneRight = GetPrivateProfileInt("Dark_Lord","DamageMax_EneRight",10,"..\\Data\\ExData\\Character.ini");
; 321  : 		//int DamageMin_StrRight = GetPrivateProfileInt("Dark_Lord","DamageMin_StrRight",7,"..\\Data\\ExData\\Character.ini");
; 322  : 		//int DamageMin_EneRight = GetPrivateProfileInt("Dark_Lord","DamageMin_EneRight",14,"..\\Data\\ExData\\Character.ini");
; 323  : 
; 324  : 		//int DamageMax_StrLeft = GetPrivateProfileInt("Dark_Lord","DamageMax_StrLeft",5,"..\\Data\\ExData\\Character.ini");
; 325  : 		//int DamageMax_EneLeft = GetPrivateProfileInt("Dark_Lord","DamageMax_EneLeft",10,"..\\Data\\ExData\\Character.ini");
; 326  : 		//int DamageMin_StrLeft = GetPrivateProfileInt("Dark_Lord","DamageMin_StrLeft",7,"..\\Data\\ExData\\Character.ini");
; 327  : 		//int DamageMin_EneLeft = GetPrivateProfileInt("Dark_Lord","DamageMin_EneLeft",14,"..\\Data\\ExData\\Character.ini");
; 328  : 
; 329  : 		lpObj->m_AttackDamageMinRight = (Strength / ExConfig.Character.DLDamageMin_StrRight) + (Energy / ExConfig.Character.DLDamageMin_EneRight);

  00be3	8b 45 f4	 mov	 eax, DWORD PTR _Strength$[ebp]
  00be6	99		 cdq
  00be7	f7 3d 00 02 00
	00		 idiv	 DWORD PTR ?ExConfig@@3VcExConfigs@@A+512
  00bed	8b c8		 mov	 ecx, eax
  00bef	8b 45 e8	 mov	 eax, DWORD PTR _Energy$[ebp]
  00bf2	99		 cdq
  00bf3	f7 3d 04 02 00
	00		 idiv	 DWORD PTR ?ExConfig@@3VcExConfigs@@A+516
  00bf9	03 c8		 add	 ecx, eax
  00bfb	8b 55 f8	 mov	 edx, DWORD PTR _lpObj$[ebp]
  00bfe	89 8a 84 04 00
	00		 mov	 DWORD PTR [edx+1156], ecx

; 330  : 		lpObj->m_AttackDamageMaxRight = (Strength / ExConfig.Character.DLDamageMax_StrRight) + (Energy / ExConfig.Character.DLDamageMax_EneRight);

  00c04	8b 45 f4	 mov	 eax, DWORD PTR _Strength$[ebp]
  00c07	99		 cdq
  00c08	f7 3d f8 01 00
	00		 idiv	 DWORD PTR ?ExConfig@@3VcExConfigs@@A+504
  00c0e	8b c8		 mov	 ecx, eax
  00c10	8b 45 e8	 mov	 eax, DWORD PTR _Energy$[ebp]
  00c13	99		 cdq
  00c14	f7 3d fc 01 00
	00		 idiv	 DWORD PTR ?ExConfig@@3VcExConfigs@@A+508
  00c1a	03 c8		 add	 ecx, eax
  00c1c	8b 55 f8	 mov	 edx, DWORD PTR _lpObj$[ebp]
  00c1f	89 8a 80 04 00
	00		 mov	 DWORD PTR [edx+1152], ecx

; 331  : 		lpObj->m_AttackDamageMinLeft = (Strength / ExConfig.Character.DLDamageMin_StrLeft) + (Energy / ExConfig.Character.DLDamageMin_EneLeft);

  00c25	8b 45 f4	 mov	 eax, DWORD PTR _Strength$[ebp]
  00c28	99		 cdq
  00c29	f7 3d 10 02 00
	00		 idiv	 DWORD PTR ?ExConfig@@3VcExConfigs@@A+528
  00c2f	8b c8		 mov	 ecx, eax
  00c31	8b 45 e8	 mov	 eax, DWORD PTR _Energy$[ebp]
  00c34	99		 cdq
  00c35	f7 3d 14 02 00
	00		 idiv	 DWORD PTR ?ExConfig@@3VcExConfigs@@A+532
  00c3b	03 c8		 add	 ecx, eax
  00c3d	8b 55 f8	 mov	 edx, DWORD PTR _lpObj$[ebp]
  00c40	89 8a 7c 04 00
	00		 mov	 DWORD PTR [edx+1148], ecx

; 332  : 		lpObj->m_AttackDamageMaxLeft = (Strength / ExConfig.Character.DLDamageMax_StrLeft) + (Energy / ExConfig.Character.DLDamageMax_EneLeft);

  00c46	8b 45 f4	 mov	 eax, DWORD PTR _Strength$[ebp]
  00c49	99		 cdq
  00c4a	f7 3d 08 02 00
	00		 idiv	 DWORD PTR ?ExConfig@@3VcExConfigs@@A+520
  00c50	8b c8		 mov	 ecx, eax
  00c52	8b 45 e8	 mov	 eax, DWORD PTR _Energy$[ebp]
  00c55	99		 cdq
  00c56	f7 3d 0c 02 00
	00		 idiv	 DWORD PTR ?ExConfig@@3VcExConfigs@@A+524
  00c5c	03 c8		 add	 ecx, eax
  00c5e	8b 55 f8	 mov	 edx, DWORD PTR _lpObj$[ebp]
  00c61	89 8a 78 04 00
	00		 mov	 DWORD PTR [edx+1144], ecx

; 333  : 
; 334  : 
; 335  : #ifdef CALCULATOR_MANAGER
; 336  : 		if (g_ExLicense.CheckUser(eExUB::ulasevich) || g_ExLicense.CheckUser(eExUB::ConflictNoCustom) || g_ExLicense.CheckUser(eExUB::ulasevich2))

  00c67	6a 17		 push	 23			; 00000017H
  00c69	b9 00 00 00 00	 mov	 ecx, OFFSET ?g_ExLicense@@3VCExLicense@@A ; g_ExLicense
  00c6e	e8 00 00 00 00	 call	 ?CheckUser@CExLicense@@QAE_NH@Z ; CExLicense::CheckUser
  00c73	0f b6 c0	 movzx	 eax, al
  00c76	85 c0		 test	 eax, eax
  00c78	75 2a		 jne	 SHORT $LN233@gObjCalCha
  00c7a	6a 28		 push	 40			; 00000028H
  00c7c	b9 00 00 00 00	 mov	 ecx, OFFSET ?g_ExLicense@@3VCExLicense@@A ; g_ExLicense
  00c81	e8 00 00 00 00	 call	 ?CheckUser@CExLicense@@QAE_NH@Z ; CExLicense::CheckUser
  00c86	0f b6 c0	 movzx	 eax, al
  00c89	85 c0		 test	 eax, eax
  00c8b	75 17		 jne	 SHORT $LN233@gObjCalCha
  00c8d	6a 24		 push	 36			; 00000024H
  00c8f	b9 00 00 00 00	 mov	 ecx, OFFSET ?g_ExLicense@@3VCExLicense@@A ; g_ExLicense
  00c94	e8 00 00 00 00	 call	 ?CheckUser@CExLicense@@QAE_NH@Z ; CExLicense::CheckUser
  00c99	0f b6 c0	 movzx	 eax, al
  00c9c	85 c0		 test	 eax, eax
  00c9e	0f 84 84 00 00
	00		 je	 $LN234@gObjCalCha
$LN233@gObjCalCha:

; 337  : 		{
; 338  : 			lpObj->m_AttackDamageMinRight = (lpObj->m_AttackDamageMinRight * CalculatorManager.DL_MinDamagePercent) / 100;

  00ca4	8b 45 f8	 mov	 eax, DWORD PTR _lpObj$[ebp]
  00ca7	8b 80 84 04 00
	00		 mov	 eax, DWORD PTR [eax+1156]
  00cad	0f af 05 28 00
	00 00		 imul	 eax, DWORD PTR ?CalculatorManager@@3VcCalculatorManager@@A+40
  00cb4	99		 cdq
  00cb5	b9 64 00 00 00	 mov	 ecx, 100		; 00000064H
  00cba	f7 f9		 idiv	 ecx
  00cbc	8b 55 f8	 mov	 edx, DWORD PTR _lpObj$[ebp]
  00cbf	89 82 84 04 00
	00		 mov	 DWORD PTR [edx+1156], eax

; 339  : 			lpObj->m_AttackDamageMinLeft = (lpObj->m_AttackDamageMinLeft * CalculatorManager.DL_MinDamagePercent) / 100;

  00cc5	8b 45 f8	 mov	 eax, DWORD PTR _lpObj$[ebp]
  00cc8	8b 80 7c 04 00
	00		 mov	 eax, DWORD PTR [eax+1148]
  00cce	0f af 05 28 00
	00 00		 imul	 eax, DWORD PTR ?CalculatorManager@@3VcCalculatorManager@@A+40
  00cd5	99		 cdq
  00cd6	b9 64 00 00 00	 mov	 ecx, 100		; 00000064H
  00cdb	f7 f9		 idiv	 ecx
  00cdd	8b 55 f8	 mov	 edx, DWORD PTR _lpObj$[ebp]
  00ce0	89 82 7c 04 00
	00		 mov	 DWORD PTR [edx+1148], eax

; 340  : 
; 341  : 			lpObj->m_AttackDamageMaxRight = (lpObj->m_AttackDamageMaxRight * CalculatorManager.DL_MaxDamagePercent) / 100;

  00ce6	8b 45 f8	 mov	 eax, DWORD PTR _lpObj$[ebp]
  00ce9	8b 80 80 04 00
	00		 mov	 eax, DWORD PTR [eax+1152]
  00cef	0f af 05 2c 00
	00 00		 imul	 eax, DWORD PTR ?CalculatorManager@@3VcCalculatorManager@@A+44
  00cf6	99		 cdq
  00cf7	b9 64 00 00 00	 mov	 ecx, 100		; 00000064H
  00cfc	f7 f9		 idiv	 ecx
  00cfe	8b 55 f8	 mov	 edx, DWORD PTR _lpObj$[ebp]
  00d01	89 82 80 04 00
	00		 mov	 DWORD PTR [edx+1152], eax

; 342  : 			lpObj->m_AttackDamageMaxLeft = (lpObj->m_AttackDamageMaxLeft * CalculatorManager.DL_MaxDamagePercent) / 100;

  00d07	8b 45 f8	 mov	 eax, DWORD PTR _lpObj$[ebp]
  00d0a	8b 80 78 04 00
	00		 mov	 eax, DWORD PTR [eax+1144]
  00d10	0f af 05 2c 00
	00 00		 imul	 eax, DWORD PTR ?CalculatorManager@@3VcCalculatorManager@@A+44
  00d17	99		 cdq
  00d18	b9 64 00 00 00	 mov	 ecx, 100		; 00000064H
  00d1d	f7 f9		 idiv	 ecx
  00d1f	8b 55 f8	 mov	 edx, DWORD PTR _lpObj$[ebp]
  00d22	89 82 78 04 00
	00		 mov	 DWORD PTR [edx+1144], eax
$LN234@gObjCalCha:

; 343  : 		}
; 344  : #endif
; 345  : 	}

  00d28	e9 79 02 00 00	 jmp	 $LN224@gObjCalCha
$LN235@gObjCalCha:

; 346  : 	else if ( lpObj->Class == CLASS_SUMMONER )

  00d2d	8b 45 f8	 mov	 eax, DWORD PTR _lpObj$[ebp]
  00d30	0f b7 88 b8 00
	00 00		 movzx	 ecx, WORD PTR [eax+184]
  00d37	83 f9 05	 cmp	 ecx, 5
  00d3a	75 5d		 jne	 SHORT $LN231@gObjCalCha

; 347  : 	{
; 348  : 		//int DamageMax_StrRight = GetPrivateProfileInt("Summoner","DamageMax_StrRight",4,"..\\Data\\ExData\\Character.ini");
; 349  : 		//int DamageMin_StrRight = GetPrivateProfileInt("Summoner","DamageMin_StrRight",7,"..\\Data\\ExData\\Character.ini");
; 350  : 		//int DamageMax_StrLeft = GetPrivateProfileInt("Summoner","DamageMax_StrLeft",4,"..\\Data\\ExData\\Character.ini");
; 351  : 		//int DamageMin_StrLeft = GetPrivateProfileInt("Summoner","DamageMin_StrLeft",7,"..\\Data\\ExData\\Character.ini");
; 352  : 
; 353  : 		lpObj->m_AttackDamageMinRight = ((Strength + Dexterity) / ExConfig.Character.SUMDamageMin_StrRight);	// 7

  00d3c	8b 45 f4	 mov	 eax, DWORD PTR _Strength$[ebp]
  00d3f	03 45 f0	 add	 eax, DWORD PTR _Dexterity$[ebp]
  00d42	99		 cdq
  00d43	f7 3d dc 01 00
	00		 idiv	 DWORD PTR ?ExConfig@@3VcExConfigs@@A+476
  00d49	8b 4d f8	 mov	 ecx, DWORD PTR _lpObj$[ebp]
  00d4c	89 81 84 04 00
	00		 mov	 DWORD PTR [ecx+1156], eax

; 354  : 		lpObj->m_AttackDamageMaxRight = ((Strength + Dexterity) / ExConfig.Character.SUMDamageMax_StrRight);	// 4

  00d52	8b 45 f4	 mov	 eax, DWORD PTR _Strength$[ebp]
  00d55	03 45 f0	 add	 eax, DWORD PTR _Dexterity$[ebp]
  00d58	99		 cdq
  00d59	f7 3d d8 01 00
	00		 idiv	 DWORD PTR ?ExConfig@@3VcExConfigs@@A+472
  00d5f	8b 4d f8	 mov	 ecx, DWORD PTR _lpObj$[ebp]
  00d62	89 81 80 04 00
	00		 mov	 DWORD PTR [ecx+1152], eax

; 355  : 		lpObj->m_AttackDamageMinLeft = ((Strength + Dexterity) / ExConfig.Character.SUMDamageMin_StrLeft);	// 7

  00d68	8b 45 f4	 mov	 eax, DWORD PTR _Strength$[ebp]
  00d6b	03 45 f0	 add	 eax, DWORD PTR _Dexterity$[ebp]
  00d6e	99		 cdq
  00d6f	f7 3d e4 01 00
	00		 idiv	 DWORD PTR ?ExConfig@@3VcExConfigs@@A+484
  00d75	8b 4d f8	 mov	 ecx, DWORD PTR _lpObj$[ebp]
  00d78	89 81 7c 04 00
	00		 mov	 DWORD PTR [ecx+1148], eax

; 356  : 		lpObj->m_AttackDamageMaxLeft = ((Strength + Dexterity) / ExConfig.Character.SUMDamageMax_StrLeft);	// 4

  00d7e	8b 45 f4	 mov	 eax, DWORD PTR _Strength$[ebp]
  00d81	03 45 f0	 add	 eax, DWORD PTR _Dexterity$[ebp]
  00d84	99		 cdq
  00d85	f7 3d e0 01 00
	00		 idiv	 DWORD PTR ?ExConfig@@3VcExConfigs@@A+480
  00d8b	8b 4d f8	 mov	 ecx, DWORD PTR _lpObj$[ebp]
  00d8e	89 81 78 04 00
	00		 mov	 DWORD PTR [ecx+1144], eax
  00d94	e9 0d 02 00 00	 jmp	 $LN224@gObjCalCha
$LN231@gObjCalCha:

; 357  : 	}
; 358  : 	else if (lpObj->Class == CLASS_WIZARD)

  00d99	8b 45 f8	 mov	 eax, DWORD PTR _lpObj$[ebp]
  00d9c	0f b7 88 b8 00
	00 00		 movzx	 ecx, WORD PTR [eax+184]
  00da3	85 c9		 test	 ecx, ecx
  00da5	75 51		 jne	 SHORT $LN229@gObjCalCha

; 359  : 	{
; 360  : 		//int DamageMax_StrRight = GetPrivateProfileInt("Dark_Wizard","DamageMax_StrRight",4,"..\\Data\\ExData\\Character.ini");
; 361  : 		//int DamageMin_StrRight = GetPrivateProfileInt("Dark_Wizard","DamageMin_StrRight",6,"..\\Data\\ExData\\Character.ini");
; 362  : 		//int DamageMax_StrLeft = GetPrivateProfileInt("Dark_Wizard","DamageMax_StrLeft",4,"..\\Data\\ExData\\Character.ini");
; 363  : 		//int DamageMin_StrLeft = GetPrivateProfileInt("Dark_Wizard","DamageMin_StrLeft",6,"..\\Data\\ExData\\Character.ini");
; 364  : 
; 365  : 		lpObj->m_AttackDamageMinRight = (Strength / ExConfig.Character.DWDamageMin_StrRight);

  00da7	8b 45 f4	 mov	 eax, DWORD PTR _Strength$[ebp]
  00daa	99		 cdq
  00dab	f7 3d ec 01 00
	00		 idiv	 DWORD PTR ?ExConfig@@3VcExConfigs@@A+492
  00db1	8b 4d f8	 mov	 ecx, DWORD PTR _lpObj$[ebp]
  00db4	89 81 84 04 00
	00		 mov	 DWORD PTR [ecx+1156], eax

; 366  : 		lpObj->m_AttackDamageMaxRight = (Strength / ExConfig.Character.DWDamageMax_StrRight);

  00dba	8b 45 f4	 mov	 eax, DWORD PTR _Strength$[ebp]
  00dbd	99		 cdq
  00dbe	f7 3d e8 01 00
	00		 idiv	 DWORD PTR ?ExConfig@@3VcExConfigs@@A+488
  00dc4	8b 4d f8	 mov	 ecx, DWORD PTR _lpObj$[ebp]
  00dc7	89 81 80 04 00
	00		 mov	 DWORD PTR [ecx+1152], eax

; 367  : 		lpObj->m_AttackDamageMinLeft = (Strength / ExConfig.Character.DWDamageMin_StrLeft);

  00dcd	8b 45 f4	 mov	 eax, DWORD PTR _Strength$[ebp]
  00dd0	99		 cdq
  00dd1	f7 3d f4 01 00
	00		 idiv	 DWORD PTR ?ExConfig@@3VcExConfigs@@A+500
  00dd7	8b 4d f8	 mov	 ecx, DWORD PTR _lpObj$[ebp]
  00dda	89 81 7c 04 00
	00		 mov	 DWORD PTR [ecx+1148], eax

; 368  : 		lpObj->m_AttackDamageMaxLeft = (Strength / ExConfig.Character.DWDamageMax_StrLeft);

  00de0	8b 45 f4	 mov	 eax, DWORD PTR _Strength$[ebp]
  00de3	99		 cdq
  00de4	f7 3d f0 01 00
	00		 idiv	 DWORD PTR ?ExConfig@@3VcExConfigs@@A+496
  00dea	8b 4d f8	 mov	 ecx, DWORD PTR _lpObj$[ebp]
  00ded	89 81 78 04 00
	00		 mov	 DWORD PTR [ecx+1144], eax
  00df3	e9 ae 01 00 00	 jmp	 $LN224@gObjCalCha
$LN229@gObjCalCha:

; 369  : 	}
; 370  : #ifdef MONK
; 371  : 	else if( lpObj->Class == CLASS_MONK )

  00df8	8b 45 f8	 mov	 eax, DWORD PTR _lpObj$[ebp]
  00dfb	0f b7 88 b8 00
	00 00		 movzx	 ecx, WORD PTR [eax+184]
  00e02	83 f9 06	 cmp	 ecx, 6
  00e05	0f 85 47 01 00
	00		 jne	 $LN227@gObjCalCha

; 372  : 	{
; 373  : 		lpObj->m_AttackDamageMinRight	= Vitality / ExConfig.Character.RFDamageMin_VitRight /*15*/ + Strength / ExConfig.Character.RFDamageMin_StrRight;

  00e0b	8b 45 ec	 mov	 eax, DWORD PTR _Vitality$[ebp]
  00e0e	99		 cdq
  00e0f	f7 3d 60 02 00
	00		 idiv	 DWORD PTR ?ExConfig@@3VcExConfigs@@A+608
  00e15	8b c8		 mov	 ecx, eax
  00e17	8b 45 f4	 mov	 eax, DWORD PTR _Strength$[ebp]
  00e1a	99		 cdq
  00e1b	f7 3d 64 02 00
	00		 idiv	 DWORD PTR ?ExConfig@@3VcExConfigs@@A+612
  00e21	03 c8		 add	 ecx, eax
  00e23	8b 55 f8	 mov	 edx, DWORD PTR _lpObj$[ebp]
  00e26	89 8a 84 04 00
	00		 mov	 DWORD PTR [edx+1156], ecx

; 374  : 		lpObj->m_AttackDamageMaxRight	= Vitality / ExConfig.Character.RFDamageMax_VitRight + Strength / ExConfig.Character.RFDamageMax_StrRight;

  00e2c	8b 45 ec	 mov	 eax, DWORD PTR _Vitality$[ebp]
  00e2f	99		 cdq
  00e30	f7 3d 68 02 00
	00		 idiv	 DWORD PTR ?ExConfig@@3VcExConfigs@@A+616
  00e36	8b c8		 mov	 ecx, eax
  00e38	8b 45 f4	 mov	 eax, DWORD PTR _Strength$[ebp]
  00e3b	99		 cdq
  00e3c	f7 3d 6c 02 00
	00		 idiv	 DWORD PTR ?ExConfig@@3VcExConfigs@@A+620
  00e42	03 c8		 add	 ecx, eax
  00e44	8b 55 f8	 mov	 edx, DWORD PTR _lpObj$[ebp]
  00e47	89 8a 80 04 00
	00		 mov	 DWORD PTR [edx+1152], ecx

; 375  : 		lpObj->m_AttackDamageMinLeft	= Vitality / ExConfig.Character.RFDamageMin_VitLeft + Strength / ExConfig.Character.RFDamageMin_StrLeft;

  00e4d	8b 45 ec	 mov	 eax, DWORD PTR _Vitality$[ebp]
  00e50	99		 cdq
  00e51	f7 3d 70 02 00
	00		 idiv	 DWORD PTR ?ExConfig@@3VcExConfigs@@A+624
  00e57	8b c8		 mov	 ecx, eax
  00e59	8b 45 f4	 mov	 eax, DWORD PTR _Strength$[ebp]
  00e5c	99		 cdq
  00e5d	f7 3d 74 02 00
	00		 idiv	 DWORD PTR ?ExConfig@@3VcExConfigs@@A+628
  00e63	03 c8		 add	 ecx, eax
  00e65	8b 55 f8	 mov	 edx, DWORD PTR _lpObj$[ebp]
  00e68	89 8a 7c 04 00
	00		 mov	 DWORD PTR [edx+1148], ecx

; 376  : 		lpObj->m_AttackDamageMaxLeft	= Vitality / ExConfig.Character.RFDamageMax_VitLeft + Strength / ExConfig.Character.RFDamageMax_StrLeft;

  00e6e	8b 45 ec	 mov	 eax, DWORD PTR _Vitality$[ebp]
  00e71	99		 cdq
  00e72	f7 3d 78 02 00
	00		 idiv	 DWORD PTR ?ExConfig@@3VcExConfigs@@A+632
  00e78	8b c8		 mov	 ecx, eax
  00e7a	8b 45 f4	 mov	 eax, DWORD PTR _Strength$[ebp]
  00e7d	99		 cdq
  00e7e	f7 3d 7c 02 00
	00		 idiv	 DWORD PTR ?ExConfig@@3VcExConfigs@@A+636
  00e84	03 c8		 add	 ecx, eax
  00e86	8b 55 f8	 mov	 edx, DWORD PTR _lpObj$[ebp]
  00e89	89 8a 78 04 00
	00		 mov	 DWORD PTR [edx+1144], ecx

; 377  : 
; 378  : #ifdef CALCULATOR_MANAGER
; 379  : 		if (g_ExLicense.CheckUser(eExUB::ulasevich) || g_ExLicense.CheckUser(eExUB::ConflictNoCustom) || g_ExLicense.CheckUser(eExUB::ulasevich2))

  00e8f	6a 17		 push	 23			; 00000017H
  00e91	b9 00 00 00 00	 mov	 ecx, OFFSET ?g_ExLicense@@3VCExLicense@@A ; g_ExLicense
  00e96	e8 00 00 00 00	 call	 ?CheckUser@CExLicense@@QAE_NH@Z ; CExLicense::CheckUser
  00e9b	0f b6 c0	 movzx	 eax, al
  00e9e	85 c0		 test	 eax, eax
  00ea0	75 2a		 jne	 SHORT $LN225@gObjCalCha
  00ea2	6a 28		 push	 40			; 00000028H
  00ea4	b9 00 00 00 00	 mov	 ecx, OFFSET ?g_ExLicense@@3VCExLicense@@A ; g_ExLicense
  00ea9	e8 00 00 00 00	 call	 ?CheckUser@CExLicense@@QAE_NH@Z ; CExLicense::CheckUser
  00eae	0f b6 c0	 movzx	 eax, al
  00eb1	85 c0		 test	 eax, eax
  00eb3	75 17		 jne	 SHORT $LN225@gObjCalCha
  00eb5	6a 24		 push	 36			; 00000024H
  00eb7	b9 00 00 00 00	 mov	 ecx, OFFSET ?g_ExLicense@@3VCExLicense@@A ; g_ExLicense
  00ebc	e8 00 00 00 00	 call	 ?CheckUser@CExLicense@@QAE_NH@Z ; CExLicense::CheckUser
  00ec1	0f b6 c0	 movzx	 eax, al
  00ec4	85 c0		 test	 eax, eax
  00ec6	0f 84 84 00 00
	00		 je	 $LN226@gObjCalCha
$LN225@gObjCalCha:

; 380  : 		{
; 381  : 			lpObj->m_AttackDamageMinRight = (lpObj->m_AttackDamageMinRight * CalculatorManager.RF_DamageMinPercent) / 100;

  00ecc	8b 45 f8	 mov	 eax, DWORD PTR _lpObj$[ebp]
  00ecf	8b 80 84 04 00
	00		 mov	 eax, DWORD PTR [eax+1156]
  00ed5	0f af 05 40 00
	00 00		 imul	 eax, DWORD PTR ?CalculatorManager@@3VcCalculatorManager@@A+64
  00edc	99		 cdq
  00edd	b9 64 00 00 00	 mov	 ecx, 100		; 00000064H
  00ee2	f7 f9		 idiv	 ecx
  00ee4	8b 55 f8	 mov	 edx, DWORD PTR _lpObj$[ebp]
  00ee7	89 82 84 04 00
	00		 mov	 DWORD PTR [edx+1156], eax

; 382  : 			lpObj->m_AttackDamageMinLeft = (lpObj->m_AttackDamageMinLeft * CalculatorManager.RF_DamageMinPercent) / 100;

  00eed	8b 45 f8	 mov	 eax, DWORD PTR _lpObj$[ebp]
  00ef0	8b 80 7c 04 00
	00		 mov	 eax, DWORD PTR [eax+1148]
  00ef6	0f af 05 40 00
	00 00		 imul	 eax, DWORD PTR ?CalculatorManager@@3VcCalculatorManager@@A+64
  00efd	99		 cdq
  00efe	b9 64 00 00 00	 mov	 ecx, 100		; 00000064H
  00f03	f7 f9		 idiv	 ecx
  00f05	8b 55 f8	 mov	 edx, DWORD PTR _lpObj$[ebp]
  00f08	89 82 7c 04 00
	00		 mov	 DWORD PTR [edx+1148], eax

; 383  : 
; 384  : 			lpObj->m_AttackDamageMaxRight = (lpObj->m_AttackDamageMaxRight * CalculatorManager.RF_DamageMaxPercent) / 100;

  00f0e	8b 45 f8	 mov	 eax, DWORD PTR _lpObj$[ebp]
  00f11	8b 80 80 04 00
	00		 mov	 eax, DWORD PTR [eax+1152]
  00f17	0f af 05 44 00
	00 00		 imul	 eax, DWORD PTR ?CalculatorManager@@3VcCalculatorManager@@A+68
  00f1e	99		 cdq
  00f1f	b9 64 00 00 00	 mov	 ecx, 100		; 00000064H
  00f24	f7 f9		 idiv	 ecx
  00f26	8b 55 f8	 mov	 edx, DWORD PTR _lpObj$[ebp]
  00f29	89 82 80 04 00
	00		 mov	 DWORD PTR [edx+1152], eax

; 385  : 			lpObj->m_AttackDamageMaxLeft = (lpObj->m_AttackDamageMaxLeft * CalculatorManager.RF_DamageMaxPercent) / 100;

  00f2f	8b 45 f8	 mov	 eax, DWORD PTR _lpObj$[ebp]
  00f32	8b 80 78 04 00
	00		 mov	 eax, DWORD PTR [eax+1144]
  00f38	0f af 05 44 00
	00 00		 imul	 eax, DWORD PTR ?CalculatorManager@@3VcCalculatorManager@@A+68
  00f3f	99		 cdq
  00f40	b9 64 00 00 00	 mov	 ecx, 100		; 00000064H
  00f45	f7 f9		 idiv	 ecx
  00f47	8b 55 f8	 mov	 edx, DWORD PTR _lpObj$[ebp]
  00f4a	89 82 78 04 00
	00		 mov	 DWORD PTR [edx+1144], eax
$LN226@gObjCalCha:

; 386  : 		}
; 387  : #endif
; 388  : 
; 389  : 	}
; 390  : #endif
; 391  : 	else

  00f50	eb 54		 jmp	 SHORT $LN224@gObjCalCha
$LN227@gObjCalCha:

; 392  : 	{
; 393  : 		lpObj->m_AttackDamageMinRight = (Strength / 8);

  00f52	8b 45 f4	 mov	 eax, DWORD PTR _Strength$[ebp]
  00f55	99		 cdq
  00f56	83 e2 07	 and	 edx, 7
  00f59	03 c2		 add	 eax, edx
  00f5b	c1 f8 03	 sar	 eax, 3
  00f5e	8b 4d f8	 mov	 ecx, DWORD PTR _lpObj$[ebp]
  00f61	89 81 84 04 00
	00		 mov	 DWORD PTR [ecx+1156], eax

; 394  : 		lpObj->m_AttackDamageMaxRight = (Strength / 4);

  00f67	8b 45 f4	 mov	 eax, DWORD PTR _Strength$[ebp]
  00f6a	99		 cdq
  00f6b	83 e2 03	 and	 edx, 3
  00f6e	03 c2		 add	 eax, edx
  00f70	c1 f8 02	 sar	 eax, 2
  00f73	8b 4d f8	 mov	 ecx, DWORD PTR _lpObj$[ebp]
  00f76	89 81 80 04 00
	00		 mov	 DWORD PTR [ecx+1152], eax

; 395  : 		lpObj->m_AttackDamageMinLeft = (Strength / 8);

  00f7c	8b 45 f4	 mov	 eax, DWORD PTR _Strength$[ebp]
  00f7f	99		 cdq
  00f80	83 e2 07	 and	 edx, 7
  00f83	03 c2		 add	 eax, edx
  00f85	c1 f8 03	 sar	 eax, 3
  00f88	8b 4d f8	 mov	 ecx, DWORD PTR _lpObj$[ebp]
  00f8b	89 81 7c 04 00
	00		 mov	 DWORD PTR [ecx+1148], eax

; 396  : 		lpObj->m_AttackDamageMaxLeft = (Strength / 4);

  00f91	8b 45 f4	 mov	 eax, DWORD PTR _Strength$[ebp]
  00f94	99		 cdq
  00f95	83 e2 03	 and	 edx, 3
  00f98	03 c2		 add	 eax, edx
  00f9a	c1 f8 02	 sar	 eax, 2
  00f9d	8b 4d f8	 mov	 ecx, DWORD PTR _lpObj$[ebp]
  00fa0	89 81 78 04 00
	00		 mov	 DWORD PTR [ecx+1144], eax
$LN224@gObjCalCha:

; 397  : 	}
; 398  : 	if(lpObj->Class == CLASS_KNIGHT || lpObj->Class == CLASS_ELF || lpObj->Class == CLASS_DARKLORD)

  00fa6	8b 45 f8	 mov	 eax, DWORD PTR _lpObj$[ebp]
  00fa9	0f b7 88 b8 00
	00 00		 movzx	 ecx, WORD PTR [eax+184]
  00fb0	83 f9 01	 cmp	 ecx, 1
  00fb3	74 22		 je	 SHORT $LN222@gObjCalCha
  00fb5	8b 45 f8	 mov	 eax, DWORD PTR _lpObj$[ebp]
  00fb8	0f b7 88 b8 00
	00 00		 movzx	 ecx, WORD PTR [eax+184]
  00fbf	83 f9 02	 cmp	 ecx, 2
  00fc2	74 13		 je	 SHORT $LN222@gObjCalCha
  00fc4	8b 45 f8	 mov	 eax, DWORD PTR _lpObj$[ebp]
  00fc7	0f b7 88 b8 00
	00 00		 movzx	 ecx, WORD PTR [eax+184]
  00fce	83 f9 04	 cmp	 ecx, 4
  00fd1	0f 85 80 00 00
	00		 jne	 $LN223@gObjCalCha
$LN222@gObjCalCha:

; 399  : 	{
; 400  : 		lpObj->m_AttackDamageMaxRight += lpObj->m_MPSkillOpt.MpsMaxAttackInc;

  00fd7	8b 45 f8	 mov	 eax, DWORD PTR _lpObj$[ebp]
  00fda	db 80 80 04 00
	00		 fild	 DWORD PTR [eax+1152]
  00fe0	8b 4d f8	 mov	 ecx, DWORD PTR _lpObj$[ebp]
  00fe3	d8 81 2c 27 00
	00		 fadd	 DWORD PTR [ecx+10028]
  00fe9	e8 00 00 00 00	 call	 __ftol2_sse
  00fee	8b 55 f8	 mov	 edx, DWORD PTR _lpObj$[ebp]
  00ff1	89 82 80 04 00
	00		 mov	 DWORD PTR [edx+1152], eax

; 401  : 		lpObj->m_AttackDamageMaxLeft += lpObj->m_MPSkillOpt.MpsMaxAttackInc;

  00ff7	8b 45 f8	 mov	 eax, DWORD PTR _lpObj$[ebp]
  00ffa	db 80 78 04 00
	00		 fild	 DWORD PTR [eax+1144]
  01000	8b 4d f8	 mov	 ecx, DWORD PTR _lpObj$[ebp]
  01003	d8 81 2c 27 00
	00		 fadd	 DWORD PTR [ecx+10028]
  01009	e8 00 00 00 00	 call	 __ftol2_sse
  0100e	8b 55 f8	 mov	 edx, DWORD PTR _lpObj$[ebp]
  01011	89 82 78 04 00
	00		 mov	 DWORD PTR [edx+1144], eax

; 402  : 		lpObj->m_AttackDamageMinRight += lpObj->m_MPSkillOpt.MpsMinAttackInc;

  01017	8b 45 f8	 mov	 eax, DWORD PTR _lpObj$[ebp]
  0101a	db 80 84 04 00
	00		 fild	 DWORD PTR [eax+1156]
  01020	8b 4d f8	 mov	 ecx, DWORD PTR _lpObj$[ebp]
  01023	d8 81 28 27 00
	00		 fadd	 DWORD PTR [ecx+10024]
  01029	e8 00 00 00 00	 call	 __ftol2_sse
  0102e	8b 55 f8	 mov	 edx, DWORD PTR _lpObj$[ebp]
  01031	89 82 84 04 00
	00		 mov	 DWORD PTR [edx+1156], eax

; 403  : 		lpObj->m_AttackDamageMinLeft += lpObj->m_MPSkillOpt.MpsMinAttackInc;

  01037	8b 45 f8	 mov	 eax, DWORD PTR _lpObj$[ebp]
  0103a	db 80 7c 04 00
	00		 fild	 DWORD PTR [eax+1148]
  01040	8b 4d f8	 mov	 ecx, DWORD PTR _lpObj$[ebp]
  01043	d8 81 28 27 00
	00		 fadd	 DWORD PTR [ecx+10024]
  01049	e8 00 00 00 00	 call	 __ftol2_sse
  0104e	8b 55 f8	 mov	 edx, DWORD PTR _lpObj$[ebp]
  01051	89 82 7c 04 00
	00		 mov	 DWORD PTR [edx+1148], eax
$LN223@gObjCalCha:

; 404  : 	}
; 405  : 
; 406  : 	lpObj->pInventory[7].PlusSpecial(&lpObj->m_AttackDamageMinRight, 80);

  01057	6a 50		 push	 80			; 00000050H
  01059	8b 45 f8	 mov	 eax, DWORD PTR _lpObj$[ebp]
  0105c	05 84 04 00 00	 add	 eax, 1156		; 00000484H
  01061	50		 push	 eax
  01062	8b 4d f8	 mov	 ecx, DWORD PTR _lpObj$[ebp]
  01065	8b 89 24 0e 00
	00		 mov	 ecx, DWORD PTR [ecx+3620]
  0106b	81 c1 cc 05 00
	00		 add	 ecx, 1484		; 000005ccH
  01071	e8 00 00 00 00	 call	 ?PlusSpecial@CItem@@QAEXPAHH@Z ; CItem::PlusSpecial

; 407  : 	lpObj->pInventory[7].PlusSpecial(&lpObj->m_AttackDamageMaxRight, 80);

  01076	6a 50		 push	 80			; 00000050H
  01078	8b 45 f8	 mov	 eax, DWORD PTR _lpObj$[ebp]
  0107b	05 80 04 00 00	 add	 eax, 1152		; 00000480H
  01080	50		 push	 eax
  01081	8b 4d f8	 mov	 ecx, DWORD PTR _lpObj$[ebp]
  01084	8b 89 24 0e 00
	00		 mov	 ecx, DWORD PTR [ecx+3620]
  0108a	81 c1 cc 05 00
	00		 add	 ecx, 1484		; 000005ccH
  01090	e8 00 00 00 00	 call	 ?PlusSpecial@CItem@@QAEXPAHH@Z ; CItem::PlusSpecial

; 408  : 	lpObj->pInventory[7].PlusSpecial(&lpObj->m_AttackDamageMinLeft, 80);

  01095	6a 50		 push	 80			; 00000050H
  01097	8b 45 f8	 mov	 eax, DWORD PTR _lpObj$[ebp]
  0109a	05 7c 04 00 00	 add	 eax, 1148		; 0000047cH
  0109f	50		 push	 eax
  010a0	8b 4d f8	 mov	 ecx, DWORD PTR _lpObj$[ebp]
  010a3	8b 89 24 0e 00
	00		 mov	 ecx, DWORD PTR [ecx+3620]
  010a9	81 c1 cc 05 00
	00		 add	 ecx, 1484		; 000005ccH
  010af	e8 00 00 00 00	 call	 ?PlusSpecial@CItem@@QAEXPAHH@Z ; CItem::PlusSpecial

; 409  : 	lpObj->pInventory[7].PlusSpecial(&lpObj->m_AttackDamageMaxLeft, 80);

  010b4	6a 50		 push	 80			; 00000050H
  010b6	8b 45 f8	 mov	 eax, DWORD PTR _lpObj$[ebp]
  010b9	05 78 04 00 00	 add	 eax, 1144		; 00000478H
  010be	50		 push	 eax
  010bf	8b 4d f8	 mov	 ecx, DWORD PTR _lpObj$[ebp]
  010c2	8b 89 24 0e 00
	00		 mov	 ecx, DWORD PTR [ecx+3620]
  010c8	81 c1 cc 05 00
	00		 add	 ecx, 1484		; 000005ccH
  010ce	e8 00 00 00 00	 call	 ?PlusSpecial@CItem@@QAEXPAHH@Z ; CItem::PlusSpecial

; 410  : 
; 411  : 	int AddLeadership = 0;

  010d3	c7 85 c4 fe ff
	ff 00 00 00 00	 mov	 DWORD PTR _AddLeadership$[ebp], 0

; 412  : 
; 413  : 	if ( lpObj->pInventory[7].IsItem() != FALSE && lpObj->pInventory[7].m_IsValidItem != false)

  010dd	8b 45 f8	 mov	 eax, DWORD PTR _lpObj$[ebp]
  010e0	8b 88 24 0e 00
	00		 mov	 ecx, DWORD PTR [eax+3620]
  010e6	81 c1 cc 05 00
	00		 add	 ecx, 1484		; 000005ccH
  010ec	e8 00 00 00 00	 call	 ?IsItem@CItem@@QAEHXZ	; CItem::IsItem
  010f1	85 c0		 test	 eax, eax
  010f3	74 30		 je	 SHORT $LN221@gObjCalCha
  010f5	8b 45 f8	 mov	 eax, DWORD PTR _lpObj$[ebp]
  010f8	8b 88 24 0e 00
	00		 mov	 ecx, DWORD PTR [eax+3620]
  010fe	0f b6 91 7c 06
	00 00		 movzx	 edx, BYTE PTR [ecx+1660]
  01105	85 d2		 test	 edx, edx
  01107	74 1c		 je	 SHORT $LN221@gObjCalCha

; 414  : 	{
; 415  : 		AddLeadership += lpObj->pInventory[7].m_Leadership;

  01109	8b 45 f8	 mov	 eax, DWORD PTR _lpObj$[ebp]
  0110c	8b 88 24 0e 00
	00		 mov	 ecx, DWORD PTR [eax+3620]
  01112	0f b7 91 22 06
	00 00		 movzx	 edx, WORD PTR [ecx+1570]
  01119	03 95 c4 fe ff
	ff		 add	 edx, DWORD PTR _AddLeadership$[ebp]
  0111f	89 95 c4 fe ff
	ff		 mov	 DWORD PTR _AddLeadership$[ebp], edx
$LN221@gObjCalCha:

; 416  : 	}
; 417  : 
; 418  : 	if ( Right->m_Type != -1 )

  01125	8b 45 e4	 mov	 eax, DWORD PTR _Right$[ebp]
  01128	0f bf 48 06	 movsx	 ecx, WORD PTR [eax+6]
  0112c	83 f9 ff	 cmp	 ecx, -1
  0112f	0f 84 f0 00 00
	00		 je	 $LN220@gObjCalCha

; 419  : 	{
; 420  : 		if ( Right->m_IsValidItem != false )

  01135	8b 45 e4	 mov	 eax, DWORD PTR _Right$[ebp]
  01138	0f b6 88 b0 00
	00 00		 movzx	 ecx, BYTE PTR [eax+176]
  0113f	85 c9		 test	 ecx, ecx
  01141	0f 84 8e 00 00
	00		 je	 $LN217@gObjCalCha

; 421  : 		{
; 422  : 			if ( Right->m_Type >= ITEMGET(5,0) && Right->m_Type <= ITEMGET(6,0) )

  01147	8b 45 e4	 mov	 eax, DWORD PTR _Right$[ebp]
  0114a	0f bf 48 06	 movsx	 ecx, WORD PTR [eax+6]
  0114e	81 f9 00 0a 00
	00		 cmp	 ecx, 2560		; 00000a00H
  01154	7c 4d		 jl	 SHORT $LN218@gObjCalCha
  01156	8b 45 e4	 mov	 eax, DWORD PTR _Right$[ebp]
  01159	0f bf 48 06	 movsx	 ecx, WORD PTR [eax+6]
  0115d	81 f9 00 0c 00
	00		 cmp	 ecx, 3072		; 00000c00H
  01163	7f 3e		 jg	 SHORT $LN218@gObjCalCha

; 423  : 			{
; 424  : 				lpObj->m_AttackDamageMinRight += Right->m_DamageMin / 2; //check?

  01165	8b 45 e4	 mov	 eax, DWORD PTR _Right$[ebp]
  01168	0f b7 40 10	 movzx	 eax, WORD PTR [eax+16]
  0116c	99		 cdq
  0116d	2b c2		 sub	 eax, edx
  0116f	d1 f8		 sar	 eax, 1
  01171	8b 4d f8	 mov	 ecx, DWORD PTR _lpObj$[ebp]
  01174	03 81 84 04 00
	00		 add	 eax, DWORD PTR [ecx+1156]
  0117a	8b 55 f8	 mov	 edx, DWORD PTR _lpObj$[ebp]
  0117d	89 82 84 04 00
	00		 mov	 DWORD PTR [edx+1156], eax

; 425  : 				lpObj->m_AttackDamageMaxRight += Right->m_DamageMax / 2; //check?

  01183	8b 45 e4	 mov	 eax, DWORD PTR _Right$[ebp]
  01186	0f b7 40 12	 movzx	 eax, WORD PTR [eax+18]
  0118a	99		 cdq
  0118b	2b c2		 sub	 eax, edx
  0118d	d1 f8		 sar	 eax, 1
  0118f	8b 4d f8	 mov	 ecx, DWORD PTR _lpObj$[ebp]
  01192	03 81 80 04 00
	00		 add	 eax, DWORD PTR [ecx+1152]
  01198	8b 55 f8	 mov	 edx, DWORD PTR _lpObj$[ebp]
  0119b	89 82 80 04 00
	00		 mov	 DWORD PTR [edx+1152], eax

; 426  : 			}
; 427  : 			else

  011a1	eb 32		 jmp	 SHORT $LN217@gObjCalCha
$LN218@gObjCalCha:

; 428  : 			{
; 429  : 				lpObj->m_AttackDamageMinRight += Right->m_DamageMin;

  011a3	8b 45 e4	 mov	 eax, DWORD PTR _Right$[ebp]
  011a6	0f b7 48 10	 movzx	 ecx, WORD PTR [eax+16]
  011aa	8b 55 f8	 mov	 edx, DWORD PTR _lpObj$[ebp]
  011ad	03 8a 84 04 00
	00		 add	 ecx, DWORD PTR [edx+1156]
  011b3	8b 45 f8	 mov	 eax, DWORD PTR _lpObj$[ebp]
  011b6	89 88 84 04 00
	00		 mov	 DWORD PTR [eax+1156], ecx

; 430  : 				lpObj->m_AttackDamageMaxRight += Right->m_DamageMax;

  011bc	8b 45 e4	 mov	 eax, DWORD PTR _Right$[ebp]
  011bf	0f b7 48 12	 movzx	 ecx, WORD PTR [eax+18]
  011c3	8b 55 f8	 mov	 edx, DWORD PTR _lpObj$[ebp]
  011c6	03 8a 80 04 00
	00		 add	 ecx, DWORD PTR [edx+1152]
  011cc	8b 45 f8	 mov	 eax, DWORD PTR _lpObj$[ebp]
  011cf	89 88 80 04 00
	00		 mov	 DWORD PTR [eax+1152], ecx
$LN217@gObjCalCha:

; 431  : 			}
; 432  : 		}
; 433  : 
; 434  : 		if ( lpObj->pInventory[0].m_SkillChange != FALSE )

  011d5	8b 45 f8	 mov	 eax, DWORD PTR _lpObj$[ebp]
  011d8	8b 88 24 0e 00
	00		 mov	 ecx, DWORD PTR [eax+3620]
  011de	0f b6 91 ac 00
	00 00		 movzx	 edx, BYTE PTR [ecx+172]
  011e5	85 d2		 test	 edx, edx
  011e7	74 0a		 je	 SHORT $LN216@gObjCalCha

; 435  : 		{
; 436  : 			lpObj->SkillLongSpearChange = true;

  011e9	8b 45 f8	 mov	 eax, DWORD PTR _lpObj$[ebp]
  011ec	c6 80 7a 12 00
	00 01		 mov	 BYTE PTR [eax+4730], 1
$LN216@gObjCalCha:

; 437  : 		}
; 438  : 
; 439  : 		lpObj->pInventory[0].PlusSpecial(&lpObj->m_AttackDamageMinRight, 80);

  011f3	6a 50		 push	 80			; 00000050H
  011f5	8b 45 f8	 mov	 eax, DWORD PTR _lpObj$[ebp]
  011f8	05 84 04 00 00	 add	 eax, 1156		; 00000484H
  011fd	50		 push	 eax
  011fe	8b 4d f8	 mov	 ecx, DWORD PTR _lpObj$[ebp]
  01201	8b 89 24 0e 00
	00		 mov	 ecx, DWORD PTR [ecx+3620]
  01207	e8 00 00 00 00	 call	 ?PlusSpecial@CItem@@QAEXPAHH@Z ; CItem::PlusSpecial

; 440  : 		lpObj->pInventory[0].PlusSpecial(&lpObj->m_AttackDamageMaxRight, 80);

  0120c	6a 50		 push	 80			; 00000050H
  0120e	8b 45 f8	 mov	 eax, DWORD PTR _lpObj$[ebp]
  01211	05 80 04 00 00	 add	 eax, 1152		; 00000480H
  01216	50		 push	 eax
  01217	8b 4d f8	 mov	 ecx, DWORD PTR _lpObj$[ebp]
  0121a	8b 89 24 0e 00
	00		 mov	 ecx, DWORD PTR [ecx+3620]
  01220	e8 00 00 00 00	 call	 ?PlusSpecial@CItem@@QAEXPAHH@Z ; CItem::PlusSpecial
$LN220@gObjCalCha:

; 441  : 	}
; 442  : 		
; 443  : 	if ( Left->m_Type != -1 )

  01225	8b 45 e0	 mov	 eax, DWORD PTR _Left$[ebp]
  01228	0f bf 48 06	 movsx	 ecx, WORD PTR [eax+6]
  0122c	83 f9 ff	 cmp	 ecx, -1
  0122f	74 7e		 je	 SHORT $LN215@gObjCalCha

; 444  : 	{
; 445  : 		if ( Left->m_IsValidItem != false)

  01231	8b 45 e0	 mov	 eax, DWORD PTR _Left$[ebp]
  01234	0f b6 88 b0 00
	00 00		 movzx	 ecx, BYTE PTR [eax+176]
  0123b	85 c9		 test	 ecx, ecx
  0123d	74 32		 je	 SHORT $LN214@gObjCalCha

; 446  : 		{
; 447  : 			lpObj->m_AttackDamageMinLeft += Left->m_DamageMin;

  0123f	8b 45 e0	 mov	 eax, DWORD PTR _Left$[ebp]
  01242	0f b7 48 10	 movzx	 ecx, WORD PTR [eax+16]
  01246	8b 55 f8	 mov	 edx, DWORD PTR _lpObj$[ebp]
  01249	03 8a 7c 04 00
	00		 add	 ecx, DWORD PTR [edx+1148]
  0124f	8b 45 f8	 mov	 eax, DWORD PTR _lpObj$[ebp]
  01252	89 88 7c 04 00
	00		 mov	 DWORD PTR [eax+1148], ecx

; 448  : 			lpObj->m_AttackDamageMaxLeft += Left->m_DamageMax;

  01258	8b 45 e0	 mov	 eax, DWORD PTR _Left$[ebp]
  0125b	0f b7 48 12	 movzx	 ecx, WORD PTR [eax+18]
  0125f	8b 55 f8	 mov	 edx, DWORD PTR _lpObj$[ebp]
  01262	03 8a 78 04 00
	00		 add	 ecx, DWORD PTR [edx+1144]
  01268	8b 45 f8	 mov	 eax, DWORD PTR _lpObj$[ebp]
  0126b	89 88 78 04 00
	00		 mov	 DWORD PTR [eax+1144], ecx
$LN214@gObjCalCha:

; 449  : 		}
; 450  : 
; 451  : 		lpObj->pInventory[1].PlusSpecial(&lpObj->m_AttackDamageMinLeft, 80);

  01271	6a 50		 push	 80			; 00000050H
  01273	8b 45 f8	 mov	 eax, DWORD PTR _lpObj$[ebp]
  01276	05 7c 04 00 00	 add	 eax, 1148		; 0000047cH
  0127b	50		 push	 eax
  0127c	8b 4d f8	 mov	 ecx, DWORD PTR _lpObj$[ebp]
  0127f	8b 89 24 0e 00
	00		 mov	 ecx, DWORD PTR [ecx+3620]
  01285	81 c1 d4 00 00
	00		 add	 ecx, 212		; 000000d4H
  0128b	e8 00 00 00 00	 call	 ?PlusSpecial@CItem@@QAEXPAHH@Z ; CItem::PlusSpecial

; 452  : 		lpObj->pInventory[1].PlusSpecial(&lpObj->m_AttackDamageMaxLeft, 80);

  01290	6a 50		 push	 80			; 00000050H
  01292	8b 45 f8	 mov	 eax, DWORD PTR _lpObj$[ebp]
  01295	05 78 04 00 00	 add	 eax, 1144		; 00000478H
  0129a	50		 push	 eax
  0129b	8b 4d f8	 mov	 ecx, DWORD PTR _lpObj$[ebp]
  0129e	8b 89 24 0e 00
	00		 mov	 ecx, DWORD PTR [ecx+3620]
  012a4	81 c1 d4 00 00
	00		 add	 ecx, 212		; 000000d4H
  012aa	e8 00 00 00 00	 call	 ?PlusSpecial@CItem@@QAEXPAHH@Z ; CItem::PlusSpecial
$LN215@gObjCalCha:

; 453  : 	}
; 454  : 
; 455  : 	lpObj->m_CriticalDamage = 0;

  012af	8b 45 f8	 mov	 eax, DWORD PTR _lpObj$[ebp]
  012b2	c7 80 bc 04 00
	00 00 00 00 00	 mov	 DWORD PTR [eax+1212], 0

; 456  : 	lpObj->m_ExcelentDamage = 0;

  012bc	8b 45 f8	 mov	 eax, DWORD PTR _lpObj$[ebp]
  012bf	c7 80 c0 04 00
	00 00 00 00 00	 mov	 DWORD PTR [eax+1216], 0

; 457  : 
; 458  : 	lpObj->pInventory[0].PlusSpecial(&lpObj->m_CriticalDamage, 84);

  012c9	6a 54		 push	 84			; 00000054H
  012cb	8b 45 f8	 mov	 eax, DWORD PTR _lpObj$[ebp]
  012ce	05 bc 04 00 00	 add	 eax, 1212		; 000004bcH
  012d3	50		 push	 eax
  012d4	8b 4d f8	 mov	 ecx, DWORD PTR _lpObj$[ebp]
  012d7	8b 89 24 0e 00
	00		 mov	 ecx, DWORD PTR [ecx+3620]
  012dd	e8 00 00 00 00	 call	 ?PlusSpecial@CItem@@QAEXPAHH@Z ; CItem::PlusSpecial

; 459  : 	lpObj->pInventory[1].PlusSpecial(&lpObj->m_CriticalDamage, 84);

  012e2	6a 54		 push	 84			; 00000054H
  012e4	8b 45 f8	 mov	 eax, DWORD PTR _lpObj$[ebp]
  012e7	05 bc 04 00 00	 add	 eax, 1212		; 000004bcH
  012ec	50		 push	 eax
  012ed	8b 4d f8	 mov	 ecx, DWORD PTR _lpObj$[ebp]
  012f0	8b 89 24 0e 00
	00		 mov	 ecx, DWORD PTR [ecx+3620]
  012f6	81 c1 d4 00 00
	00		 add	 ecx, 212		; 000000d4H
  012fc	e8 00 00 00 00	 call	 ?PlusSpecial@CItem@@QAEXPAHH@Z ; CItem::PlusSpecial

; 460  : 	lpObj->pInventory[2].PlusSpecial(&lpObj->m_CriticalDamage, 84);

  01301	6a 54		 push	 84			; 00000054H
  01303	8b 45 f8	 mov	 eax, DWORD PTR _lpObj$[ebp]
  01306	05 bc 04 00 00	 add	 eax, 1212		; 000004bcH
  0130b	50		 push	 eax
  0130c	8b 4d f8	 mov	 ecx, DWORD PTR _lpObj$[ebp]
  0130f	8b 89 24 0e 00
	00		 mov	 ecx, DWORD PTR [ecx+3620]
  01315	81 c1 a8 01 00
	00		 add	 ecx, 424		; 000001a8H
  0131b	e8 00 00 00 00	 call	 ?PlusSpecial@CItem@@QAEXPAHH@Z ; CItem::PlusSpecial

; 461  : 	lpObj->pInventory[3].PlusSpecial(&lpObj->m_CriticalDamage, 84);

  01320	6a 54		 push	 84			; 00000054H
  01322	8b 45 f8	 mov	 eax, DWORD PTR _lpObj$[ebp]
  01325	05 bc 04 00 00	 add	 eax, 1212		; 000004bcH
  0132a	50		 push	 eax
  0132b	8b 4d f8	 mov	 ecx, DWORD PTR _lpObj$[ebp]
  0132e	8b 89 24 0e 00
	00		 mov	 ecx, DWORD PTR [ecx+3620]
  01334	81 c1 7c 02 00
	00		 add	 ecx, 636		; 0000027cH
  0133a	e8 00 00 00 00	 call	 ?PlusSpecial@CItem@@QAEXPAHH@Z ; CItem::PlusSpecial

; 462  : 	lpObj->pInventory[4].PlusSpecial(&lpObj->m_CriticalDamage, 84);

  0133f	6a 54		 push	 84			; 00000054H
  01341	8b 45 f8	 mov	 eax, DWORD PTR _lpObj$[ebp]
  01344	05 bc 04 00 00	 add	 eax, 1212		; 000004bcH
  01349	50		 push	 eax
  0134a	8b 4d f8	 mov	 ecx, DWORD PTR _lpObj$[ebp]
  0134d	8b 89 24 0e 00
	00		 mov	 ecx, DWORD PTR [ecx+3620]
  01353	81 c1 50 03 00
	00		 add	 ecx, 848		; 00000350H
  01359	e8 00 00 00 00	 call	 ?PlusSpecial@CItem@@QAEXPAHH@Z ; CItem::PlusSpecial

; 463  : 	lpObj->pInventory[5].PlusSpecial(&lpObj->m_CriticalDamage, 84);

  0135e	6a 54		 push	 84			; 00000054H
  01360	8b 45 f8	 mov	 eax, DWORD PTR _lpObj$[ebp]
  01363	05 bc 04 00 00	 add	 eax, 1212		; 000004bcH
  01368	50		 push	 eax
  01369	8b 4d f8	 mov	 ecx, DWORD PTR _lpObj$[ebp]
  0136c	8b 89 24 0e 00
	00		 mov	 ecx, DWORD PTR [ecx+3620]
  01372	81 c1 24 04 00
	00		 add	 ecx, 1060		; 00000424H
  01378	e8 00 00 00 00	 call	 ?PlusSpecial@CItem@@QAEXPAHH@Z ; CItem::PlusSpecial

; 464  : 	lpObj->pInventory[6].PlusSpecial(&lpObj->m_CriticalDamage, 84);

  0137d	6a 54		 push	 84			; 00000054H
  0137f	8b 45 f8	 mov	 eax, DWORD PTR _lpObj$[ebp]
  01382	05 bc 04 00 00	 add	 eax, 1212		; 000004bcH
  01387	50		 push	 eax
  01388	8b 4d f8	 mov	 ecx, DWORD PTR _lpObj$[ebp]
  0138b	8b 89 24 0e 00
	00		 mov	 ecx, DWORD PTR [ecx+3620]
  01391	81 c1 f8 04 00
	00		 add	 ecx, 1272		; 000004f8H
  01397	e8 00 00 00 00	 call	 ?PlusSpecial@CItem@@QAEXPAHH@Z ; CItem::PlusSpecial

; 465  : 	lpObj->pInventory[7].PlusSpecial(&lpObj->m_CriticalDamage, 84);

  0139c	6a 54		 push	 84			; 00000054H
  0139e	8b 45 f8	 mov	 eax, DWORD PTR _lpObj$[ebp]
  013a1	05 bc 04 00 00	 add	 eax, 1212		; 000004bcH
  013a6	50		 push	 eax
  013a7	8b 4d f8	 mov	 ecx, DWORD PTR _lpObj$[ebp]
  013aa	8b 89 24 0e 00
	00		 mov	 ecx, DWORD PTR [ecx+3620]
  013b0	81 c1 cc 05 00
	00		 add	 ecx, 1484		; 000005ccH
  013b6	e8 00 00 00 00	 call	 ?PlusSpecial@CItem@@QAEXPAHH@Z ; CItem::PlusSpecial

; 466  : 
; 467  : 
; 468  : 
; 469  : 	lpObj->m_MagicDamageMin = Energy / 9;

  013bb	8b 45 e8	 mov	 eax, DWORD PTR _Energy$[ebp]
  013be	99		 cdq
  013bf	b9 09 00 00 00	 mov	 ecx, 9
  013c4	f7 f9		 idiv	 ecx
  013c6	8b 55 f8	 mov	 edx, DWORD PTR _lpObj$[ebp]
  013c9	89 82 68 04 00
	00		 mov	 DWORD PTR [edx+1128], eax

; 470  : 	lpObj->m_MagicDamageMax = Energy / 4;

  013cf	8b 45 e8	 mov	 eax, DWORD PTR _Energy$[ebp]
  013d2	99		 cdq
  013d3	83 e2 03	 and	 edx, 3
  013d6	03 c2		 add	 eax, edx
  013d8	c1 f8 02	 sar	 eax, 2
  013db	8b 4d f8	 mov	 ecx, DWORD PTR _lpObj$[ebp]
  013de	89 81 6c 04 00
	00		 mov	 DWORD PTR [ecx+1132], eax

; 471  : 
; 472  : 
; 473  : 
; 474  : 	if(lpObj->Class == CLASS_SUMMONER) //stronger!!!

  013e4	8b 45 f8	 mov	 eax, DWORD PTR _lpObj$[ebp]
  013e7	0f b7 88 b8 00
	00 00		 movzx	 ecx, WORD PTR [eax+184]
  013ee	83 f9 05	 cmp	 ecx, 5
  013f1	0f 85 4d 01 00
	00		 jne	 $LN213@gObjCalCha

; 475  : 	{
; 476  : 		//int MagicDamageMax = GetPrivateProfileInt("Summoner","MagicDamageMax",4,"..\\Data\\ExData\\Character.ini");
; 477  : 		//int MagicDamageMin = GetPrivateProfileInt("Summoner","MagicDamageMin",9,"..\\Data\\ExData\\Character.ini");
; 478  : 
; 479  : 		lpObj->m_MagicDamageMin = Energy / ExConfig.Character.SUMMagicDamageMin;	// 9

  013f7	8b 45 e8	 mov	 eax, DWORD PTR _Energy$[ebp]
  013fa	99		 cdq
  013fb	f7 3d 1c 02 00
	00		 idiv	 DWORD PTR ?ExConfig@@3VcExConfigs@@A+540
  01401	8b 4d f8	 mov	 ecx, DWORD PTR _lpObj$[ebp]
  01404	89 81 68 04 00
	00		 mov	 DWORD PTR [ecx+1128], eax

; 480  : 		lpObj->m_MagicDamageMax = Energy / ExConfig.Character.SUMMagicDamageMax;	// 4

  0140a	8b 45 e8	 mov	 eax, DWORD PTR _Energy$[ebp]
  0140d	99		 cdq
  0140e	f7 3d 18 02 00
	00		 idiv	 DWORD PTR ?ExConfig@@3VcExConfigs@@A+536
  01414	8b 4d f8	 mov	 ecx, DWORD PTR _lpObj$[ebp]
  01417	89 81 6c 04 00
	00		 mov	 DWORD PTR [ecx+1132], eax

; 481  : 
; 482  : 		lpObj->m_iSummonerBookSpellDamageMin = Energy / ExConfig.Character.SUMMagicDamageMin;	// Energy / 9

  0141d	8b 45 e8	 mov	 eax, DWORD PTR _Energy$[ebp]
  01420	99		 cdq
  01421	f7 3d 1c 02 00
	00		 idiv	 DWORD PTR ?ExConfig@@3VcExConfigs@@A+540
  01427	8b 4d f8	 mov	 ecx, DWORD PTR _lpObj$[ebp]
  0142a	89 81 a4 04 00
	00		 mov	 DWORD PTR [ecx+1188], eax

; 483  : 		lpObj->m_iSummonerBookSpellDamageMax = Energy / ExConfig.Character.SUMMagicDamageMax;	// (Energy / 4) + 0.015

  01430	8b 45 e8	 mov	 eax, DWORD PTR _Energy$[ebp]
  01433	99		 cdq
  01434	f7 3d 18 02 00
	00		 idiv	 DWORD PTR ?ExConfig@@3VcExConfigs@@A+536
  0143a	8b 4d f8	 mov	 ecx, DWORD PTR _lpObj$[ebp]
  0143d	89 81 a8 04 00
	00		 mov	 DWORD PTR [ecx+1192], eax

; 484  : 
; 485  : 		
; 486  : #ifdef CALCULATOR_MANAGER
; 487  : 		if (g_ExLicense.CheckUser(eExUB::ulasevich) || g_ExLicense.CheckUser(eExUB::ConflictNoCustom) || g_ExLicense.CheckUser(eExUB::ulasevich2))

  01443	6a 17		 push	 23			; 00000017H
  01445	b9 00 00 00 00	 mov	 ecx, OFFSET ?g_ExLicense@@3VCExLicense@@A ; g_ExLicense
  0144a	e8 00 00 00 00	 call	 ?CheckUser@CExLicense@@QAE_NH@Z ; CExLicense::CheckUser
  0144f	0f b6 c0	 movzx	 eax, al
  01452	85 c0		 test	 eax, eax
  01454	75 2a		 jne	 SHORT $LN211@gObjCalCha
  01456	6a 28		 push	 40			; 00000028H
  01458	b9 00 00 00 00	 mov	 ecx, OFFSET ?g_ExLicense@@3VCExLicense@@A ; g_ExLicense
  0145d	e8 00 00 00 00	 call	 ?CheckUser@CExLicense@@QAE_NH@Z ; CExLicense::CheckUser
  01462	0f b6 c0	 movzx	 eax, al
  01465	85 c0		 test	 eax, eax
  01467	75 17		 jne	 SHORT $LN211@gObjCalCha
  01469	6a 24		 push	 36			; 00000024H
  0146b	b9 00 00 00 00	 mov	 ecx, OFFSET ?g_ExLicense@@3VCExLicense@@A ; g_ExLicense
  01470	e8 00 00 00 00	 call	 ?CheckUser@CExLicense@@QAE_NH@Z ; CExLicense::CheckUser
  01475	0f b6 c0	 movzx	 eax, al
  01478	85 c0		 test	 eax, eax
  0147a	0f 84 84 00 00
	00		 je	 $LN212@gObjCalCha
$LN211@gObjCalCha:

; 488  : 		{
; 489  : 			lpObj->m_MagicDamageMin = (lpObj->m_MagicDamageMin * CalculatorManager.SUM_MinimumWizardryDamagePercent) / 100;

  01480	8b 45 f8	 mov	 eax, DWORD PTR _lpObj$[ebp]
  01483	8b 80 68 04 00
	00		 mov	 eax, DWORD PTR [eax+1128]
  01489	0f af 05 30 00
	00 00		 imul	 eax, DWORD PTR ?CalculatorManager@@3VcCalculatorManager@@A+48
  01490	99		 cdq
  01491	b9 64 00 00 00	 mov	 ecx, 100		; 00000064H
  01496	f7 f9		 idiv	 ecx
  01498	8b 55 f8	 mov	 edx, DWORD PTR _lpObj$[ebp]
  0149b	89 82 68 04 00
	00		 mov	 DWORD PTR [edx+1128], eax

; 490  : 			lpObj->m_MagicDamageMax = (lpObj->m_MagicDamageMax * CalculatorManager.SUM_MaximumWizardryDamagePercent) / 100;

  014a1	8b 45 f8	 mov	 eax, DWORD PTR _lpObj$[ebp]
  014a4	8b 80 6c 04 00
	00		 mov	 eax, DWORD PTR [eax+1132]
  014aa	0f af 05 34 00
	00 00		 imul	 eax, DWORD PTR ?CalculatorManager@@3VcCalculatorManager@@A+52
  014b1	99		 cdq
  014b2	b9 64 00 00 00	 mov	 ecx, 100		; 00000064H
  014b7	f7 f9		 idiv	 ecx
  014b9	8b 55 f8	 mov	 edx, DWORD PTR _lpObj$[ebp]
  014bc	89 82 6c 04 00
	00		 mov	 DWORD PTR [edx+1132], eax

; 491  : 
; 492  : 			lpObj->m_iSummonerBookSpellDamageMin = (lpObj->m_iSummonerBookSpellDamageMin * CalculatorManager.SUM_MinimumCurseDamagePercent) / 100;

  014c2	8b 45 f8	 mov	 eax, DWORD PTR _lpObj$[ebp]
  014c5	8b 80 a4 04 00
	00		 mov	 eax, DWORD PTR [eax+1188]
  014cb	0f af 05 38 00
	00 00		 imul	 eax, DWORD PTR ?CalculatorManager@@3VcCalculatorManager@@A+56
  014d2	99		 cdq
  014d3	b9 64 00 00 00	 mov	 ecx, 100		; 00000064H
  014d8	f7 f9		 idiv	 ecx
  014da	8b 55 f8	 mov	 edx, DWORD PTR _lpObj$[ebp]
  014dd	89 82 a4 04 00
	00		 mov	 DWORD PTR [edx+1188], eax

; 493  : 			lpObj->m_iSummonerBookSpellDamageMax = (lpObj->m_iSummonerBookSpellDamageMax * CalculatorManager.SUM_MaximumCurseDamagePercent) / 100;

  014e3	8b 45 f8	 mov	 eax, DWORD PTR _lpObj$[ebp]
  014e6	8b 80 a8 04 00
	00		 mov	 eax, DWORD PTR [eax+1192]
  014ec	0f af 05 3c 00
	00 00		 imul	 eax, DWORD PTR ?CalculatorManager@@3VcCalculatorManager@@A+60
  014f3	99		 cdq
  014f4	b9 64 00 00 00	 mov	 ecx, 100		; 00000064H
  014f9	f7 f9		 idiv	 ecx
  014fb	8b 55 f8	 mov	 edx, DWORD PTR _lpObj$[ebp]
  014fe	89 82 a8 04 00
	00		 mov	 DWORD PTR [edx+1192], eax
$LN212@gObjCalCha:

; 494  : 		}
; 495  : #endif
; 496  : 
; 497  : 		lpObj->m_MagicDamageMax += lpObj->m_MPSkillOpt.MpsMaxMagicDamage;

  01504	8b 45 f8	 mov	 eax, DWORD PTR _lpObj$[ebp]
  01507	db 80 6c 04 00
	00		 fild	 DWORD PTR [eax+1132]
  0150d	8b 4d f8	 mov	 ecx, DWORD PTR _lpObj$[ebp]
  01510	d8 81 64 27 00
	00		 fadd	 DWORD PTR [ecx+10084]
  01516	e8 00 00 00 00	 call	 __ftol2_sse
  0151b	8b 55 f8	 mov	 edx, DWORD PTR _lpObj$[ebp]
  0151e	89 82 6c 04 00
	00		 mov	 DWORD PTR [edx+1132], eax

; 498  : 		lpObj->m_MagicDamageMin += lpObj->m_MPSkillOpt.MpsMinMagicDamage;

  01524	8b 45 f8	 mov	 eax, DWORD PTR _lpObj$[ebp]
  01527	db 80 68 04 00
	00		 fild	 DWORD PTR [eax+1128]
  0152d	8b 4d f8	 mov	 ecx, DWORD PTR _lpObj$[ebp]
  01530	d8 81 68 27 00
	00		 fadd	 DWORD PTR [ecx+10088]
  01536	e8 00 00 00 00	 call	 __ftol2_sse
  0153b	8b 55 f8	 mov	 edx, DWORD PTR _lpObj$[ebp]
  0153e	89 82 68 04 00
	00		 mov	 DWORD PTR [edx+1128], eax
$LN213@gObjCalCha:

; 499  : 	}
; 500  : 
; 501  : 	if(lpObj->Class == CLASS_MAGUMSA) //season4 add-on

  01544	8b 45 f8	 mov	 eax, DWORD PTR _lpObj$[ebp]
  01547	0f b7 88 b8 00
	00 00		 movzx	 ecx, WORD PTR [eax+184]
  0154e	83 f9 03	 cmp	 ecx, 3
  01551	0f 85 e1 00 00
	00		 jne	 $LN210@gObjCalCha

; 502  : 	{
; 503  : 		//int MagicDamageMax = GetPrivateProfileInt("Magic_Gladiator","MagicDamageMax",4,"..\\Data\\ExData\\Character.ini");
; 504  : 		//int MagicDamageMin = GetPrivateProfileInt("Magic_Gladiator","MagicDamageMin",9,"..\\Data\\ExData\\Character.ini");
; 505  : 
; 506  : 		lpObj->m_MagicDamageMin = Energy / ExConfig.Character.MGMagicDamageMin;

  01557	8b 45 e8	 mov	 eax, DWORD PTR _Energy$[ebp]
  0155a	99		 cdq
  0155b	f7 3d 24 02 00
	00		 idiv	 DWORD PTR ?ExConfig@@3VcExConfigs@@A+548
  01561	8b 4d f8	 mov	 ecx, DWORD PTR _lpObj$[ebp]
  01564	89 81 68 04 00
	00		 mov	 DWORD PTR [ecx+1128], eax

; 507  : 		lpObj->m_MagicDamageMax = Energy / ExConfig.Character.MGMagicDamageMax;

  0156a	8b 45 e8	 mov	 eax, DWORD PTR _Energy$[ebp]
  0156d	99		 cdq
  0156e	f7 3d 20 02 00
	00		 idiv	 DWORD PTR ?ExConfig@@3VcExConfigs@@A+544
  01574	8b 4d f8	 mov	 ecx, DWORD PTR _lpObj$[ebp]
  01577	89 81 6c 04 00
	00		 mov	 DWORD PTR [ecx+1132], eax

; 508  : 
; 509  : 		
; 510  : #ifdef CALCULATOR_MANAGER
; 511  : 		if (g_ExLicense.CheckUser(eExUB::ulasevich) || g_ExLicense.CheckUser(eExUB::ConflictNoCustom) || g_ExLicense.CheckUser(eExUB::ulasevich2))

  0157d	6a 17		 push	 23			; 00000017H
  0157f	b9 00 00 00 00	 mov	 ecx, OFFSET ?g_ExLicense@@3VCExLicense@@A ; g_ExLicense
  01584	e8 00 00 00 00	 call	 ?CheckUser@CExLicense@@QAE_NH@Z ; CExLicense::CheckUser
  01589	0f b6 c0	 movzx	 eax, al
  0158c	85 c0		 test	 eax, eax
  0158e	75 26		 jne	 SHORT $LN208@gObjCalCha
  01590	6a 28		 push	 40			; 00000028H
  01592	b9 00 00 00 00	 mov	 ecx, OFFSET ?g_ExLicense@@3VCExLicense@@A ; g_ExLicense
  01597	e8 00 00 00 00	 call	 ?CheckUser@CExLicense@@QAE_NH@Z ; CExLicense::CheckUser
  0159c	0f b6 c0	 movzx	 eax, al
  0159f	85 c0		 test	 eax, eax
  015a1	75 13		 jne	 SHORT $LN208@gObjCalCha
  015a3	6a 24		 push	 36			; 00000024H
  015a5	b9 00 00 00 00	 mov	 ecx, OFFSET ?g_ExLicense@@3VCExLicense@@A ; g_ExLicense
  015aa	e8 00 00 00 00	 call	 ?CheckUser@CExLicense@@QAE_NH@Z ; CExLicense::CheckUser
  015af	0f b6 c0	 movzx	 eax, al
  015b2	85 c0		 test	 eax, eax
  015b4	74 42		 je	 SHORT $LN209@gObjCalCha
$LN208@gObjCalCha:

; 512  : 		{
; 513  : 			lpObj->m_MagicDamageMin = (lpObj->m_MagicDamageMin * CalculatorManager.MG_MinWizDamagePercent) / 100;

  015b6	8b 45 f8	 mov	 eax, DWORD PTR _lpObj$[ebp]
  015b9	8b 80 68 04 00
	00		 mov	 eax, DWORD PTR [eax+1128]
  015bf	0f af 05 20 00
	00 00		 imul	 eax, DWORD PTR ?CalculatorManager@@3VcCalculatorManager@@A+32
  015c6	99		 cdq
  015c7	b9 64 00 00 00	 mov	 ecx, 100		; 00000064H
  015cc	f7 f9		 idiv	 ecx
  015ce	8b 55 f8	 mov	 edx, DWORD PTR _lpObj$[ebp]
  015d1	89 82 68 04 00
	00		 mov	 DWORD PTR [edx+1128], eax

; 514  : 			lpObj->m_MagicDamageMax = (lpObj->m_MagicDamageMax * CalculatorManager.MG_MaxWizDamagePercent) / 100;

  015d7	8b 45 f8	 mov	 eax, DWORD PTR _lpObj$[ebp]
  015da	8b 80 6c 04 00
	00		 mov	 eax, DWORD PTR [eax+1132]
  015e0	0f af 05 24 00
	00 00		 imul	 eax, DWORD PTR ?CalculatorManager@@3VcCalculatorManager@@A+36
  015e7	99		 cdq
  015e8	b9 64 00 00 00	 mov	 ecx, 100		; 00000064H
  015ed	f7 f9		 idiv	 ecx
  015ef	8b 55 f8	 mov	 edx, DWORD PTR _lpObj$[ebp]
  015f2	89 82 6c 04 00
	00		 mov	 DWORD PTR [edx+1132], eax
$LN209@gObjCalCha:

; 515  : 
; 516  : 		}
; 517  : #endif
; 518  : 
; 519  : 		lpObj->m_MagicDamageMax += lpObj->m_MPSkillOpt.MpsMagicMastery;

  015f8	8b 45 f8	 mov	 eax, DWORD PTR _lpObj$[ebp]
  015fb	db 80 6c 04 00
	00		 fild	 DWORD PTR [eax+1132]
  01601	8b 4d f8	 mov	 ecx, DWORD PTR _lpObj$[ebp]
  01604	d8 81 90 26 00
	00		 fadd	 DWORD PTR [ecx+9872]
  0160a	e8 00 00 00 00	 call	 __ftol2_sse
  0160f	8b 55 f8	 mov	 edx, DWORD PTR _lpObj$[ebp]
  01612	89 82 6c 04 00
	00		 mov	 DWORD PTR [edx+1132], eax

; 520  : 		lpObj->m_MagicDamageMin += lpObj->m_MPSkillOpt.MpsMagicMastery;

  01618	8b 45 f8	 mov	 eax, DWORD PTR _lpObj$[ebp]
  0161b	db 80 68 04 00
	00		 fild	 DWORD PTR [eax+1128]
  01621	8b 4d f8	 mov	 ecx, DWORD PTR _lpObj$[ebp]
  01624	d8 81 90 26 00
	00		 fadd	 DWORD PTR [ecx+9872]
  0162a	e8 00 00 00 00	 call	 __ftol2_sse
  0162f	8b 55 f8	 mov	 edx, DWORD PTR _lpObj$[ebp]
  01632	89 82 68 04 00
	00		 mov	 DWORD PTR [edx+1128], eax
$LN210@gObjCalCha:

; 521  : 	}
; 522  : 
; 523  : 	if(lpObj->Class == CLASS_WIZARD) //season4 add-on

  01638	8b 45 f8	 mov	 eax, DWORD PTR _lpObj$[ebp]
  0163b	0f b7 88 b8 00
	00 00		 movzx	 ecx, WORD PTR [eax+184]
  01642	85 c9		 test	 ecx, ecx
  01644	0f 85 21 01 00
	00		 jne	 $LN207@gObjCalCha

; 524  : 	{
; 525  : 		//int MagicDamageMax = GetPrivateProfileInt("Dark_Wizard","MagicDamageMax",4,"..\\Data\\ExData\\Character.ini");
; 526  : 		//int MagicDamageMin = GetPrivateProfileInt("Dark_Wizard","MagicDamageMin",9,"..\\Data\\ExData\\Character.ini");
; 527  : 
; 528  : 		lpObj->m_MagicDamageMin = Energy / ExConfig.Character.DWMagicDamageMin;

  0164a	8b 45 e8	 mov	 eax, DWORD PTR _Energy$[ebp]
  0164d	99		 cdq
  0164e	f7 3d 2c 02 00
	00		 idiv	 DWORD PTR ?ExConfig@@3VcExConfigs@@A+556
  01654	8b 4d f8	 mov	 ecx, DWORD PTR _lpObj$[ebp]
  01657	89 81 68 04 00
	00		 mov	 DWORD PTR [ecx+1128], eax

; 529  : 		lpObj->m_MagicDamageMax = Energy / ExConfig.Character.DWMagicDamageMax;

  0165d	8b 45 e8	 mov	 eax, DWORD PTR _Energy$[ebp]
  01660	99		 cdq
  01661	f7 3d 28 02 00
	00		 idiv	 DWORD PTR ?ExConfig@@3VcExConfigs@@A+552
  01667	8b 4d f8	 mov	 ecx, DWORD PTR _lpObj$[ebp]
  0166a	89 81 6c 04 00
	00		 mov	 DWORD PTR [ecx+1132], eax

; 530  : 
; 531  : 
; 532  : #ifdef CALCULATOR_MANAGER
; 533  : 		if (g_ExLicense.CheckUser(eExUB::ulasevich) || g_ExLicense.CheckUser(eExUB::ConflictNoCustom) || g_ExLicense.CheckUser(eExUB::ulasevich2))

  01670	6a 17		 push	 23			; 00000017H
  01672	b9 00 00 00 00	 mov	 ecx, OFFSET ?g_ExLicense@@3VCExLicense@@A ; g_ExLicense
  01677	e8 00 00 00 00	 call	 ?CheckUser@CExLicense@@QAE_NH@Z ; CExLicense::CheckUser
  0167c	0f b6 c0	 movzx	 eax, al
  0167f	85 c0		 test	 eax, eax
  01681	75 26		 jne	 SHORT $LN205@gObjCalCha
  01683	6a 28		 push	 40			; 00000028H
  01685	b9 00 00 00 00	 mov	 ecx, OFFSET ?g_ExLicense@@3VCExLicense@@A ; g_ExLicense
  0168a	e8 00 00 00 00	 call	 ?CheckUser@CExLicense@@QAE_NH@Z ; CExLicense::CheckUser
  0168f	0f b6 c0	 movzx	 eax, al
  01692	85 c0		 test	 eax, eax
  01694	75 13		 jne	 SHORT $LN205@gObjCalCha
  01696	6a 24		 push	 36			; 00000024H
  01698	b9 00 00 00 00	 mov	 ecx, OFFSET ?g_ExLicense@@3VCExLicense@@A ; g_ExLicense
  0169d	e8 00 00 00 00	 call	 ?CheckUser@CExLicense@@QAE_NH@Z ; CExLicense::CheckUser
  016a2	0f b6 c0	 movzx	 eax, al
  016a5	85 c0		 test	 eax, eax
  016a7	74 42		 je	 SHORT $LN206@gObjCalCha
$LN205@gObjCalCha:

; 534  : 		{
; 535  : 			lpObj->m_MagicDamageMin = (lpObj->m_MagicDamageMin * CalculatorManager.DW_MinWizDamagePercent) / 100;

  016a9	8b 45 f8	 mov	 eax, DWORD PTR _lpObj$[ebp]
  016ac	8b 80 68 04 00
	00		 mov	 eax, DWORD PTR [eax+1128]
  016b2	0f af 05 00 00
	00 00		 imul	 eax, DWORD PTR ?CalculatorManager@@3VcCalculatorManager@@A
  016b9	99		 cdq
  016ba	b9 64 00 00 00	 mov	 ecx, 100		; 00000064H
  016bf	f7 f9		 idiv	 ecx
  016c1	8b 55 f8	 mov	 edx, DWORD PTR _lpObj$[ebp]
  016c4	89 82 68 04 00
	00		 mov	 DWORD PTR [edx+1128], eax

; 536  : 			lpObj->m_MagicDamageMax = (lpObj->m_MagicDamageMax * CalculatorManager.DW_MaxWizDamagePercent) / 100;

  016ca	8b 45 f8	 mov	 eax, DWORD PTR _lpObj$[ebp]
  016cd	8b 80 6c 04 00
	00		 mov	 eax, DWORD PTR [eax+1132]
  016d3	0f af 05 04 00
	00 00		 imul	 eax, DWORD PTR ?CalculatorManager@@3VcCalculatorManager@@A+4
  016da	99		 cdq
  016db	b9 64 00 00 00	 mov	 ecx, 100		; 00000064H
  016e0	f7 f9		 idiv	 ecx
  016e2	8b 55 f8	 mov	 edx, DWORD PTR _lpObj$[ebp]
  016e5	89 82 6c 04 00
	00		 mov	 DWORD PTR [edx+1132], eax
$LN206@gObjCalCha:

; 537  : 		}
; 538  : #endif
; 539  : 
; 540  : 		lpObj->m_MagicDamageMax += lpObj->m_MPSkillOpt.MpsMaxMagicDamage;

  016eb	8b 45 f8	 mov	 eax, DWORD PTR _lpObj$[ebp]
  016ee	db 80 6c 04 00
	00		 fild	 DWORD PTR [eax+1132]
  016f4	8b 4d f8	 mov	 ecx, DWORD PTR _lpObj$[ebp]
  016f7	d8 81 64 27 00
	00		 fadd	 DWORD PTR [ecx+10084]
  016fd	e8 00 00 00 00	 call	 __ftol2_sse
  01702	8b 55 f8	 mov	 edx, DWORD PTR _lpObj$[ebp]
  01705	89 82 6c 04 00
	00		 mov	 DWORD PTR [edx+1132], eax

; 541  : 		lpObj->m_MagicDamageMin += lpObj->m_MPSkillOpt.MpsMinMagicDamage;

  0170b	8b 45 f8	 mov	 eax, DWORD PTR _lpObj$[ebp]
  0170e	db 80 68 04 00
	00		 fild	 DWORD PTR [eax+1128]
  01714	8b 4d f8	 mov	 ecx, DWORD PTR _lpObj$[ebp]
  01717	d8 81 68 27 00
	00		 fadd	 DWORD PTR [ecx+10088]
  0171d	e8 00 00 00 00	 call	 __ftol2_sse
  01722	8b 55 f8	 mov	 edx, DWORD PTR _lpObj$[ebp]
  01725	89 82 68 04 00
	00		 mov	 DWORD PTR [edx+1128], eax

; 542  : 		lpObj->m_MagicDamageMax += lpObj->m_MPSkillOpt.MpsMagicMastery;

  0172b	8b 45 f8	 mov	 eax, DWORD PTR _lpObj$[ebp]
  0172e	db 80 6c 04 00
	00		 fild	 DWORD PTR [eax+1132]
  01734	8b 4d f8	 mov	 ecx, DWORD PTR _lpObj$[ebp]
  01737	d8 81 90 26 00
	00		 fadd	 DWORD PTR [ecx+9872]
  0173d	e8 00 00 00 00	 call	 __ftol2_sse
  01742	8b 55 f8	 mov	 edx, DWORD PTR _lpObj$[ebp]
  01745	89 82 6c 04 00
	00		 mov	 DWORD PTR [edx+1132], eax

; 543  : 		lpObj->m_MagicDamageMin += lpObj->m_MPSkillOpt.MpsMagicMastery;

  0174b	8b 45 f8	 mov	 eax, DWORD PTR _lpObj$[ebp]
  0174e	db 80 68 04 00
	00		 fild	 DWORD PTR [eax+1128]
  01754	8b 4d f8	 mov	 ecx, DWORD PTR _lpObj$[ebp]
  01757	d8 81 90 26 00
	00		 fadd	 DWORD PTR [ecx+9872]
  0175d	e8 00 00 00 00	 call	 __ftol2_sse
  01762	8b 55 f8	 mov	 edx, DWORD PTR _lpObj$[ebp]
  01765	89 82 68 04 00
	00		 mov	 DWORD PTR [edx+1128], eax
$LN207@gObjCalCha:

; 544  : 	}
; 545  : 
; 546  : 	lpObj->pInventory[7].PlusSpecial(&lpObj->m_MagicDamageMin, 81);

  0176b	6a 51		 push	 81			; 00000051H
  0176d	8b 45 f8	 mov	 eax, DWORD PTR _lpObj$[ebp]
  01770	05 68 04 00 00	 add	 eax, 1128		; 00000468H
  01775	50		 push	 eax
  01776	8b 4d f8	 mov	 ecx, DWORD PTR _lpObj$[ebp]
  01779	8b 89 24 0e 00
	00		 mov	 ecx, DWORD PTR [ecx+3620]
  0177f	81 c1 cc 05 00
	00		 add	 ecx, 1484		; 000005ccH
  01785	e8 00 00 00 00	 call	 ?PlusSpecial@CItem@@QAEXPAHH@Z ; CItem::PlusSpecial

; 547  : 	lpObj->pInventory[7].PlusSpecial(&lpObj->m_MagicDamageMax, 81);

  0178a	6a 51		 push	 81			; 00000051H
  0178c	8b 45 f8	 mov	 eax, DWORD PTR _lpObj$[ebp]
  0178f	05 6c 04 00 00	 add	 eax, 1132		; 0000046cH
  01794	50		 push	 eax
  01795	8b 4d f8	 mov	 ecx, DWORD PTR _lpObj$[ebp]
  01798	8b 89 24 0e 00
	00		 mov	 ecx, DWORD PTR [ecx+3620]
  0179e	81 c1 cc 05 00
	00		 add	 ecx, 1484		; 000005ccH
  017a4	e8 00 00 00 00	 call	 ?PlusSpecial@CItem@@QAEXPAHH@Z ; CItem::PlusSpecial

; 548  : 
; 549  : 	lpObj->pInventory[7].PlusSpecial(&lpObj->m_iSummonerBookSpellDamageMin, 113); //summoner wings

  017a9	6a 71		 push	 113			; 00000071H
  017ab	8b 45 f8	 mov	 eax, DWORD PTR _lpObj$[ebp]
  017ae	05 a4 04 00 00	 add	 eax, 1188		; 000004a4H
  017b3	50		 push	 eax
  017b4	8b 4d f8	 mov	 ecx, DWORD PTR _lpObj$[ebp]
  017b7	8b 89 24 0e 00
	00		 mov	 ecx, DWORD PTR [ecx+3620]
  017bd	81 c1 cc 05 00
	00		 add	 ecx, 1484		; 000005ccH
  017c3	e8 00 00 00 00	 call	 ?PlusSpecial@CItem@@QAEXPAHH@Z ; CItem::PlusSpecial

; 550  : 	lpObj->pInventory[7].PlusSpecial(&lpObj->m_iSummonerBookSpellDamageMax, 113); //summoner wings

  017c8	6a 71		 push	 113			; 00000071H
  017ca	8b 45 f8	 mov	 eax, DWORD PTR _lpObj$[ebp]
  017cd	05 a8 04 00 00	 add	 eax, 1192		; 000004a8H
  017d2	50		 push	 eax
  017d3	8b 4d f8	 mov	 ecx, DWORD PTR _lpObj$[ebp]
  017d6	8b 89 24 0e 00
	00		 mov	 ecx, DWORD PTR [ecx+3620]
  017dc	81 c1 cc 05 00
	00		 add	 ecx, 1484		; 000005ccH
  017e2	e8 00 00 00 00	 call	 ?PlusSpecial@CItem@@QAEXPAHH@Z ; CItem::PlusSpecial

; 551  : 
; 552  : 	if ( Right->m_Type != -1 )

  017e7	8b 45 e4	 mov	 eax, DWORD PTR _Right$[ebp]
  017ea	0f bf 48 06	 movsx	 ecx, WORD PTR [eax+6]
  017ee	83 f9 ff	 cmp	 ecx, -1
  017f1	0f 84 c0 00 00
	00		 je	 $LN201@gObjCalCha

; 553  : 	{
; 554  : 		if ( lpObj->pInventory[0].m_Type == ITEMGET(0,31) ||
; 555  : 			 lpObj->pInventory[0].m_Type == ITEMGET(0,21) ||
; 556  : 			 lpObj->pInventory[0].m_Type == ITEMGET(0,23) ||
; 557  : 			 lpObj->pInventory[0].m_Type == ITEMGET(0,25) ||
; 558  : 			 lpObj->pInventory[0].m_Type == ITEMGET(0,28)) //season4 add-on 

  017f7	8b 45 f8	 mov	 eax, DWORD PTR _lpObj$[ebp]
  017fa	8b 88 24 0e 00
	00		 mov	 ecx, DWORD PTR [eax+3620]
  01800	0f bf 51 06	 movsx	 edx, WORD PTR [ecx+6]
  01804	83 fa 1f	 cmp	 edx, 31			; 0000001fH
  01807	74 48		 je	 SHORT $LN202@gObjCalCha
  01809	8b 45 f8	 mov	 eax, DWORD PTR _lpObj$[ebp]
  0180c	8b 88 24 0e 00
	00		 mov	 ecx, DWORD PTR [eax+3620]
  01812	0f bf 51 06	 movsx	 edx, WORD PTR [ecx+6]
  01816	83 fa 15	 cmp	 edx, 21			; 00000015H
  01819	74 36		 je	 SHORT $LN202@gObjCalCha
  0181b	8b 45 f8	 mov	 eax, DWORD PTR _lpObj$[ebp]
  0181e	8b 88 24 0e 00
	00		 mov	 ecx, DWORD PTR [eax+3620]
  01824	0f bf 51 06	 movsx	 edx, WORD PTR [ecx+6]
  01828	83 fa 17	 cmp	 edx, 23			; 00000017H
  0182b	74 24		 je	 SHORT $LN202@gObjCalCha
  0182d	8b 45 f8	 mov	 eax, DWORD PTR _lpObj$[ebp]
  01830	8b 88 24 0e 00
	00		 mov	 ecx, DWORD PTR [eax+3620]
  01836	0f bf 51 06	 movsx	 edx, WORD PTR [ecx+6]
  0183a	83 fa 19	 cmp	 edx, 25			; 00000019H
  0183d	74 12		 je	 SHORT $LN202@gObjCalCha
  0183f	8b 45 f8	 mov	 eax, DWORD PTR _lpObj$[ebp]
  01842	8b 88 24 0e 00
	00		 mov	 ecx, DWORD PTR [eax+3620]
  01848	0f bf 51 06	 movsx	 edx, WORD PTR [ecx+6]
  0184c	83 fa 1c	 cmp	 edx, 28			; 0000001cH
  0184f	75 34		 jne	 SHORT $LN203@gObjCalCha
$LN202@gObjCalCha:

; 559  : 		{
; 560  : 			lpObj->pInventory[0].PlusSpecial(&lpObj->m_MagicDamageMin, 80);

  01851	6a 50		 push	 80			; 00000050H
  01853	8b 45 f8	 mov	 eax, DWORD PTR _lpObj$[ebp]
  01856	05 68 04 00 00	 add	 eax, 1128		; 00000468H
  0185b	50		 push	 eax
  0185c	8b 4d f8	 mov	 ecx, DWORD PTR _lpObj$[ebp]
  0185f	8b 89 24 0e 00
	00		 mov	 ecx, DWORD PTR [ecx+3620]
  01865	e8 00 00 00 00	 call	 ?PlusSpecial@CItem@@QAEXPAHH@Z ; CItem::PlusSpecial

; 561  : 			lpObj->pInventory[0].PlusSpecial(&lpObj->m_MagicDamageMax, 80);

  0186a	6a 50		 push	 80			; 00000050H
  0186c	8b 45 f8	 mov	 eax, DWORD PTR _lpObj$[ebp]
  0186f	05 6c 04 00 00	 add	 eax, 1132		; 0000046cH
  01874	50		 push	 eax
  01875	8b 4d f8	 mov	 ecx, DWORD PTR _lpObj$[ebp]
  01878	8b 89 24 0e 00
	00		 mov	 ecx, DWORD PTR [ecx+3620]
  0187e	e8 00 00 00 00	 call	 ?PlusSpecial@CItem@@QAEXPAHH@Z ; CItem::PlusSpecial

; 562  : 		}
; 563  : 		else

  01883	eb 32		 jmp	 SHORT $LN201@gObjCalCha
$LN203@gObjCalCha:

; 564  : 		{
; 565  : 			lpObj->pInventory[0].PlusSpecial(&lpObj->m_MagicDamageMin, 81);

  01885	6a 51		 push	 81			; 00000051H
  01887	8b 45 f8	 mov	 eax, DWORD PTR _lpObj$[ebp]
  0188a	05 68 04 00 00	 add	 eax, 1128		; 00000468H
  0188f	50		 push	 eax
  01890	8b 4d f8	 mov	 ecx, DWORD PTR _lpObj$[ebp]
  01893	8b 89 24 0e 00
	00		 mov	 ecx, DWORD PTR [ecx+3620]
  01899	e8 00 00 00 00	 call	 ?PlusSpecial@CItem@@QAEXPAHH@Z ; CItem::PlusSpecial

; 566  : 			lpObj->pInventory[0].PlusSpecial(&lpObj->m_MagicDamageMax, 81);

  0189e	6a 51		 push	 81			; 00000051H
  018a0	8b 45 f8	 mov	 eax, DWORD PTR _lpObj$[ebp]
  018a3	05 6c 04 00 00	 add	 eax, 1132		; 0000046cH
  018a8	50		 push	 eax
  018a9	8b 4d f8	 mov	 ecx, DWORD PTR _lpObj$[ebp]
  018ac	8b 89 24 0e 00
	00		 mov	 ecx, DWORD PTR [ecx+3620]
  018b2	e8 00 00 00 00	 call	 ?PlusSpecial@CItem@@QAEXPAHH@Z ; CItem::PlusSpecial
$LN201@gObjCalCha:

; 567  : 		}
; 568  : 	}
; 569  : 
; 570  : 	if ( Left->m_Type != -1 ) //season3 add-on

  018b7	8b 45 e0	 mov	 eax, DWORD PTR _Left$[ebp]
  018ba	0f bf 48 06	 movsx	 ecx, WORD PTR [eax+6]
  018be	83 f9 ff	 cmp	 ecx, -1
  018c1	74 3e		 je	 SHORT $LN200@gObjCalCha

; 571  : 	{
; 572  : 		lpObj->pInventory[1].PlusSpecial(&lpObj->m_iSummonerBookSpellDamageMin, 113); //summoner book

  018c3	6a 71		 push	 113			; 00000071H
  018c5	8b 45 f8	 mov	 eax, DWORD PTR _lpObj$[ebp]
  018c8	05 a4 04 00 00	 add	 eax, 1188		; 000004a4H
  018cd	50		 push	 eax
  018ce	8b 4d f8	 mov	 ecx, DWORD PTR _lpObj$[ebp]
  018d1	8b 89 24 0e 00
	00		 mov	 ecx, DWORD PTR [ecx+3620]
  018d7	81 c1 d4 00 00
	00		 add	 ecx, 212		; 000000d4H
  018dd	e8 00 00 00 00	 call	 ?PlusSpecial@CItem@@QAEXPAHH@Z ; CItem::PlusSpecial

; 573  : 		lpObj->pInventory[1].PlusSpecial(&lpObj->m_iSummonerBookSpellDamageMax, 113); //summoner book

  018e2	6a 71		 push	 113			; 00000071H
  018e4	8b 45 f8	 mov	 eax, DWORD PTR _lpObj$[ebp]
  018e7	05 a8 04 00 00	 add	 eax, 1192		; 000004a8H
  018ec	50		 push	 eax
  018ed	8b 4d f8	 mov	 ecx, DWORD PTR _lpObj$[ebp]
  018f0	8b 89 24 0e 00
	00		 mov	 ecx, DWORD PTR [ecx+3620]
  018f6	81 c1 d4 00 00
	00		 add	 ecx, 212		; 000000d4H
  018fc	e8 00 00 00 00	 call	 ?PlusSpecial@CItem@@QAEXPAHH@Z ; CItem::PlusSpecial
$LN200@gObjCalCha:

; 574  : 	}
; 575  : 
; 576  : 	lpObj->m_AttackRating = (Strength + Dexterity) / 2;

  01901	8b 45 f4	 mov	 eax, DWORD PTR _Strength$[ebp]
  01904	03 45 f0	 add	 eax, DWORD PTR _Dexterity$[ebp]
  01907	99		 cdq
  01908	2b c2		 sub	 eax, edx
  0190a	d1 f8		 sar	 eax, 1
  0190c	8b 4d f8	 mov	 ecx, DWORD PTR _lpObj$[ebp]
  0190f	89 81 88 04 00
	00		 mov	 DWORD PTR [ecx+1160], eax

; 577  : 	lpObj->m_AttackRating += lpObj->pInventory[5].ItemDefense();

  01915	8b 45 f8	 mov	 eax, DWORD PTR _lpObj$[ebp]
  01918	8b 88 24 0e 00
	00		 mov	 ecx, DWORD PTR [eax+3620]
  0191e	81 c1 24 04 00
	00		 add	 ecx, 1060		; 00000424H
  01924	e8 00 00 00 00	 call	 ?ItemDefense@CItem@@QAEHXZ ; CItem::ItemDefense
  01929	8b 4d f8	 mov	 ecx, DWORD PTR _lpObj$[ebp]
  0192c	03 81 88 04 00
	00		 add	 eax, DWORD PTR [ecx+1160]
  01932	8b 55 f8	 mov	 edx, DWORD PTR _lpObj$[ebp]
  01935	89 82 88 04 00
	00		 mov	 DWORD PTR [edx+1160], eax

; 578  : 
; 579  : 	if ( lpObj->Class == CLASS_ELF )

  0193b	8b 45 f8	 mov	 eax, DWORD PTR _lpObj$[ebp]
  0193e	0f b7 88 b8 00
	00 00		 movzx	 ecx, WORD PTR [eax+184]
  01945	83 f9 02	 cmp	 ecx, 2
  01948	75 2d		 jne	 SHORT $LN199@gObjCalCha

; 580  : 	{
; 581  : 		lpObj->m_AttackSpeed = Dexterity / 50;

  0194a	8b 45 f0	 mov	 eax, DWORD PTR _Dexterity$[ebp]
  0194d	99		 cdq
  0194e	b9 32 00 00 00	 mov	 ecx, 50			; 00000032H
  01953	f7 f9		 idiv	 ecx
  01955	8b 55 f8	 mov	 edx, DWORD PTR _lpObj$[ebp]
  01958	89 82 8c 04 00
	00		 mov	 DWORD PTR [edx+1164], eax

; 582  : 		lpObj->m_MagicSpeed = Dexterity / 50;

  0195e	8b 45 f0	 mov	 eax, DWORD PTR _Dexterity$[ebp]
  01961	99		 cdq
  01962	b9 32 00 00 00	 mov	 ecx, 50			; 00000032H
  01967	f7 f9		 idiv	 ecx
  01969	8b 55 f8	 mov	 edx, DWORD PTR _lpObj$[ebp]
  0196c	89 82 90 04 00
	00		 mov	 DWORD PTR [edx+1168], eax
  01972	e9 21 01 00 00	 jmp	 $LN189@gObjCalCha
$LN199@gObjCalCha:

; 583  : 	}
; 584  : 	else if ( lpObj->Class == CLASS_KNIGHT || lpObj->Class == CLASS_MAGUMSA)

  01977	8b 45 f8	 mov	 eax, DWORD PTR _lpObj$[ebp]
  0197a	0f b7 88 b8 00
	00 00		 movzx	 ecx, WORD PTR [eax+184]
  01981	83 f9 01	 cmp	 ecx, 1
  01984	74 0f		 je	 SHORT $LN196@gObjCalCha
  01986	8b 45 f8	 mov	 eax, DWORD PTR _lpObj$[ebp]
  01989	0f b7 88 b8 00
	00 00		 movzx	 ecx, WORD PTR [eax+184]
  01990	83 f9 03	 cmp	 ecx, 3
  01993	75 2d		 jne	 SHORT $LN197@gObjCalCha
$LN196@gObjCalCha:

; 585  : 	{
; 586  : 		lpObj->m_AttackSpeed = Dexterity / 15;

  01995	8b 45 f0	 mov	 eax, DWORD PTR _Dexterity$[ebp]
  01998	99		 cdq
  01999	b9 0f 00 00 00	 mov	 ecx, 15			; 0000000fH
  0199e	f7 f9		 idiv	 ecx
  019a0	8b 55 f8	 mov	 edx, DWORD PTR _lpObj$[ebp]
  019a3	89 82 8c 04 00
	00		 mov	 DWORD PTR [edx+1164], eax

; 587  : 		lpObj->m_MagicSpeed = Dexterity / 20;

  019a9	8b 45 f0	 mov	 eax, DWORD PTR _Dexterity$[ebp]
  019ac	99		 cdq
  019ad	b9 14 00 00 00	 mov	 ecx, 20			; 00000014H
  019b2	f7 f9		 idiv	 ecx
  019b4	8b 55 f8	 mov	 edx, DWORD PTR _lpObj$[ebp]
  019b7	89 82 90 04 00
	00		 mov	 DWORD PTR [edx+1168], eax
  019bd	e9 d6 00 00 00	 jmp	 $LN189@gObjCalCha
$LN197@gObjCalCha:

; 588  : 	}
; 589  : 	else if ( lpObj->Class == CLASS_DARKLORD )

  019c2	8b 45 f8	 mov	 eax, DWORD PTR _lpObj$[ebp]
  019c5	0f b7 88 b8 00
	00 00		 movzx	 ecx, WORD PTR [eax+184]
  019cc	83 f9 04	 cmp	 ecx, 4
  019cf	75 2d		 jne	 SHORT $LN194@gObjCalCha

; 590  : 	{
; 591  : 		lpObj->m_AttackSpeed = Dexterity / 10;

  019d1	8b 45 f0	 mov	 eax, DWORD PTR _Dexterity$[ebp]
  019d4	99		 cdq
  019d5	b9 0a 00 00 00	 mov	 ecx, 10			; 0000000aH
  019da	f7 f9		 idiv	 ecx
  019dc	8b 55 f8	 mov	 edx, DWORD PTR _lpObj$[ebp]
  019df	89 82 8c 04 00
	00		 mov	 DWORD PTR [edx+1164], eax

; 592  : 		lpObj->m_MagicSpeed = Dexterity / 10;

  019e5	8b 45 f0	 mov	 eax, DWORD PTR _Dexterity$[ebp]
  019e8	99		 cdq
  019e9	b9 0a 00 00 00	 mov	 ecx, 10			; 0000000aH
  019ee	f7 f9		 idiv	 ecx
  019f0	8b 55 f8	 mov	 edx, DWORD PTR _lpObj$[ebp]
  019f3	89 82 90 04 00
	00		 mov	 DWORD PTR [edx+1168], eax
  019f9	e9 9a 00 00 00	 jmp	 $LN189@gObjCalCha
$LN194@gObjCalCha:

; 593  : 	}
; 594  : 	else if ( lpObj->Class == CLASS_SUMMONER ) //strong!

  019fe	8b 45 f8	 mov	 eax, DWORD PTR _lpObj$[ebp]
  01a01	0f b7 88 b8 00
	00 00		 movzx	 ecx, WORD PTR [eax+184]
  01a08	83 f9 05	 cmp	 ecx, 5
  01a0b	75 2a		 jne	 SHORT $LN192@gObjCalCha

; 595  : 	{
; 596  : 		lpObj->m_AttackSpeed = Dexterity / 20;

  01a0d	8b 45 f0	 mov	 eax, DWORD PTR _Dexterity$[ebp]
  01a10	99		 cdq
  01a11	b9 14 00 00 00	 mov	 ecx, 20			; 00000014H
  01a16	f7 f9		 idiv	 ecx
  01a18	8b 55 f8	 mov	 edx, DWORD PTR _lpObj$[ebp]
  01a1b	89 82 8c 04 00
	00		 mov	 DWORD PTR [edx+1164], eax

; 597  : 		lpObj->m_MagicSpeed = Dexterity / 20;

  01a21	8b 45 f0	 mov	 eax, DWORD PTR _Dexterity$[ebp]
  01a24	99		 cdq
  01a25	b9 14 00 00 00	 mov	 ecx, 20			; 00000014H
  01a2a	f7 f9		 idiv	 ecx
  01a2c	8b 55 f8	 mov	 edx, DWORD PTR _lpObj$[ebp]
  01a2f	89 82 90 04 00
	00		 mov	 DWORD PTR [edx+1168], eax
  01a35	eb 61		 jmp	 SHORT $LN189@gObjCalCha
$LN192@gObjCalCha:

; 598  : 	}
; 599  : #ifdef MONK
; 600  : 	else if( lpObj->Class == CLASS_MONK )

  01a37	8b 45 f8	 mov	 eax, DWORD PTR _lpObj$[ebp]
  01a3a	0f b7 88 b8 00
	00 00		 movzx	 ecx, WORD PTR [eax+184]
  01a41	83 f9 06	 cmp	 ecx, 6
  01a44	75 2a		 jne	 SHORT $LN190@gObjCalCha

; 601  : 	{
; 602  : 		lpObj->m_AttackSpeed	= Dexterity / 9;

  01a46	8b 45 f0	 mov	 eax, DWORD PTR _Dexterity$[ebp]
  01a49	99		 cdq
  01a4a	b9 09 00 00 00	 mov	 ecx, 9
  01a4f	f7 f9		 idiv	 ecx
  01a51	8b 55 f8	 mov	 edx, DWORD PTR _lpObj$[ebp]
  01a54	89 82 8c 04 00
	00		 mov	 DWORD PTR [edx+1164], eax

; 603  : 		lpObj->m_MagicSpeed		= Dexterity / 9;

  01a5a	8b 45 f0	 mov	 eax, DWORD PTR _Dexterity$[ebp]
  01a5d	99		 cdq
  01a5e	b9 09 00 00 00	 mov	 ecx, 9
  01a63	f7 f9		 idiv	 ecx
  01a65	8b 55 f8	 mov	 edx, DWORD PTR _lpObj$[ebp]
  01a68	89 82 90 04 00
	00		 mov	 DWORD PTR [edx+1168], eax

; 604  : 	}
; 605  : #endif
; 606  : 	else

  01a6e	eb 28		 jmp	 SHORT $LN189@gObjCalCha
$LN190@gObjCalCha:

; 607  : 	{
; 608  : 		lpObj->m_AttackSpeed = Dexterity / 20;

  01a70	8b 45 f0	 mov	 eax, DWORD PTR _Dexterity$[ebp]
  01a73	99		 cdq
  01a74	b9 14 00 00 00	 mov	 ecx, 20			; 00000014H
  01a79	f7 f9		 idiv	 ecx
  01a7b	8b 55 f8	 mov	 edx, DWORD PTR _lpObj$[ebp]
  01a7e	89 82 8c 04 00
	00		 mov	 DWORD PTR [edx+1164], eax

; 609  : 		lpObj->m_MagicSpeed = Dexterity / 10;

  01a84	8b 45 f0	 mov	 eax, DWORD PTR _Dexterity$[ebp]
  01a87	99		 cdq
  01a88	b9 0a 00 00 00	 mov	 ecx, 10			; 0000000aH
  01a8d	f7 f9		 idiv	 ecx
  01a8f	8b 55 f8	 mov	 edx, DWORD PTR _lpObj$[ebp]
  01a92	89 82 90 04 00
	00		 mov	 DWORD PTR [edx+1168], eax
$LN189@gObjCalCha:

; 610  : 	}
; 611  : 
; 612  : 
; 613  : 	bool bRight = false;

  01a98	c6 85 c3 fe ff
	ff 00		 mov	 BYTE PTR _bRight$[ebp], 0

; 614  : 	bool bLeft = false;

  01a9f	c6 85 c2 fe ff
	ff 00		 mov	 BYTE PTR _bLeft$[ebp], 0

; 615  : 
; 616  : 	if ( Right->m_Type != ITEMGET(4,7) && Right->m_Type != ITEMGET(4,15) && Right->m_Type >= ITEMGET(0,0) && Right->m_Type < ITEMGET(6,0) )

  01aa6	8b 45 e4	 mov	 eax, DWORD PTR _Right$[ebp]
  01aa9	0f bf 48 06	 movsx	 ecx, WORD PTR [eax+6]
  01aad	81 f9 07 08 00
	00		 cmp	 ecx, 2055		; 00000807H
  01ab3	74 51		 je	 SHORT $LN187@gObjCalCha
  01ab5	8b 45 e4	 mov	 eax, DWORD PTR _Right$[ebp]
  01ab8	0f bf 48 06	 movsx	 ecx, WORD PTR [eax+6]
  01abc	81 f9 0f 08 00
	00		 cmp	 ecx, 2063		; 0000080fH
  01ac2	74 42		 je	 SHORT $LN187@gObjCalCha
  01ac4	8b 45 e4	 mov	 eax, DWORD PTR _Right$[ebp]
  01ac7	0f bf 48 06	 movsx	 ecx, WORD PTR [eax+6]
  01acb	85 c9		 test	 ecx, ecx
  01acd	7c 37		 jl	 SHORT $LN187@gObjCalCha
  01acf	8b 45 e4	 mov	 eax, DWORD PTR _Right$[ebp]
  01ad2	0f bf 48 06	 movsx	 ecx, WORD PTR [eax+6]
  01ad6	81 f9 00 0c 00
	00		 cmp	 ecx, 3072		; 00000c00H
  01adc	7d 28		 jge	 SHORT $LN187@gObjCalCha

; 617  : 	{
; 618  : 		if ( Right->m_IsValidItem != false && Right->m_Durability > 0.0f)

  01ade	8b 45 e4	 mov	 eax, DWORD PTR _Right$[ebp]
  01ae1	0f b6 88 b0 00
	00 00		 movzx	 ecx, BYTE PTR [eax+176]
  01ae8	85 c9		 test	 ecx, ecx
  01aea	74 1a		 je	 SHORT $LN187@gObjCalCha
  01aec	8b 45 e4	 mov	 eax, DWORD PTR _Right$[ebp]
  01aef	d9 40 24	 fld	 DWORD PTR [eax+36]
  01af2	dc 1d 00 00 00
	00		 fcomp	 QWORD PTR __real@0000000000000000
  01af8	df e0		 fnstsw	 ax
  01afa	f6 c4 41	 test	 ah, 65			; 00000041H
  01afd	75 07		 jne	 SHORT $LN187@gObjCalCha

; 619  : 		{
; 620  : 			bRight = true;

  01aff	c6 85 c3 fe ff
	ff 01		 mov	 BYTE PTR _bRight$[ebp], 1
$LN187@gObjCalCha:

; 621  : 		}
; 622  : 	}
; 623  : 
; 624  : 	if ( Left->m_Type != ITEMGET(4,7) && Left->m_Type != ITEMGET(4,15) && Left->m_Type >= ITEMGET(0,0) && Left->m_Type < ITEMGET(6,0) )

  01b06	8b 45 e0	 mov	 eax, DWORD PTR _Left$[ebp]
  01b09	0f bf 48 06	 movsx	 ecx, WORD PTR [eax+6]
  01b0d	81 f9 07 08 00
	00		 cmp	 ecx, 2055		; 00000807H
  01b13	74 51		 je	 SHORT $LN185@gObjCalCha
  01b15	8b 45 e0	 mov	 eax, DWORD PTR _Left$[ebp]
  01b18	0f bf 48 06	 movsx	 ecx, WORD PTR [eax+6]
  01b1c	81 f9 0f 08 00
	00		 cmp	 ecx, 2063		; 0000080fH
  01b22	74 42		 je	 SHORT $LN185@gObjCalCha
  01b24	8b 45 e0	 mov	 eax, DWORD PTR _Left$[ebp]
  01b27	0f bf 48 06	 movsx	 ecx, WORD PTR [eax+6]
  01b2b	85 c9		 test	 ecx, ecx
  01b2d	7c 37		 jl	 SHORT $LN185@gObjCalCha
  01b2f	8b 45 e0	 mov	 eax, DWORD PTR _Left$[ebp]
  01b32	0f bf 48 06	 movsx	 ecx, WORD PTR [eax+6]
  01b36	81 f9 00 0c 00
	00		 cmp	 ecx, 3072		; 00000c00H
  01b3c	7d 28		 jge	 SHORT $LN185@gObjCalCha

; 625  : 	{
; 626  : 		if ( Left->m_IsValidItem != false && Left->m_Durability > 0.0f)

  01b3e	8b 45 e0	 mov	 eax, DWORD PTR _Left$[ebp]
  01b41	0f b6 88 b0 00
	00 00		 movzx	 ecx, BYTE PTR [eax+176]
  01b48	85 c9		 test	 ecx, ecx
  01b4a	74 1a		 je	 SHORT $LN185@gObjCalCha
  01b4c	8b 45 e0	 mov	 eax, DWORD PTR _Left$[ebp]
  01b4f	d9 40 24	 fld	 DWORD PTR [eax+36]
  01b52	dc 1d 00 00 00
	00		 fcomp	 QWORD PTR __real@0000000000000000
  01b58	df e0		 fnstsw	 ax
  01b5a	f6 c4 41	 test	 ah, 65			; 00000041H
  01b5d	75 07		 jne	 SHORT $LN185@gObjCalCha

; 627  : 		{
; 628  : 			bLeft = true;

  01b5f	c6 85 c2 fe ff
	ff 01		 mov	 BYTE PTR _bLeft$[ebp], 1
$LN185@gObjCalCha:

; 629  : 		}
; 630  : 	}
; 631  : 
; 632  : 	if ( bRight != false && bLeft != false )

  01b66	0f b6 85 c3 fe
	ff ff		 movzx	 eax, BYTE PTR _bRight$[ebp]
  01b6d	85 c0		 test	 eax, eax
  01b6f	74 5b		 je	 SHORT $LN184@gObjCalCha
  01b71	0f b6 85 c2 fe
	ff ff		 movzx	 eax, BYTE PTR _bLeft$[ebp]
  01b78	85 c0		 test	 eax, eax
  01b7a	74 50		 je	 SHORT $LN184@gObjCalCha

; 633  : 	{
; 634  : 		lpObj->m_AttackSpeed += (Right->m_AttackSpeed + Left->m_AttackSpeed)/2;

  01b7c	8b 45 e4	 mov	 eax, DWORD PTR _Right$[ebp]
  01b7f	0f b6 40 0d	 movzx	 eax, BYTE PTR [eax+13]
  01b83	8b 4d e0	 mov	 ecx, DWORD PTR _Left$[ebp]
  01b86	0f b6 51 0d	 movzx	 edx, BYTE PTR [ecx+13]
  01b8a	03 c2		 add	 eax, edx
  01b8c	99		 cdq
  01b8d	2b c2		 sub	 eax, edx
  01b8f	d1 f8		 sar	 eax, 1
  01b91	8b 4d f8	 mov	 ecx, DWORD PTR _lpObj$[ebp]
  01b94	03 81 8c 04 00
	00		 add	 eax, DWORD PTR [ecx+1164]
  01b9a	8b 55 f8	 mov	 edx, DWORD PTR _lpObj$[ebp]
  01b9d	89 82 8c 04 00
	00		 mov	 DWORD PTR [edx+1164], eax

; 635  : 		lpObj->m_MagicSpeed += (Right->m_AttackSpeed + Left->m_AttackSpeed)/2;

  01ba3	8b 45 e4	 mov	 eax, DWORD PTR _Right$[ebp]
  01ba6	0f b6 40 0d	 movzx	 eax, BYTE PTR [eax+13]
  01baa	8b 4d e0	 mov	 ecx, DWORD PTR _Left$[ebp]
  01bad	0f b6 51 0d	 movzx	 edx, BYTE PTR [ecx+13]
  01bb1	03 c2		 add	 eax, edx
  01bb3	99		 cdq
  01bb4	2b c2		 sub	 eax, edx
  01bb6	d1 f8		 sar	 eax, 1
  01bb8	8b 4d f8	 mov	 ecx, DWORD PTR _lpObj$[ebp]
  01bbb	03 81 90 04 00
	00		 add	 eax, DWORD PTR [ecx+1168]
  01bc1	8b 55 f8	 mov	 edx, DWORD PTR _lpObj$[ebp]
  01bc4	89 82 90 04 00
	00		 mov	 DWORD PTR [edx+1168], eax
  01bca	eb 7c		 jmp	 SHORT $LN180@gObjCalCha
$LN184@gObjCalCha:

; 636  : 	}
; 637  : 	else if ( bRight!= false )

  01bcc	0f b6 85 c3 fe
	ff ff		 movzx	 eax, BYTE PTR _bRight$[ebp]
  01bd3	85 c0		 test	 eax, eax
  01bd5	74 34		 je	 SHORT $LN182@gObjCalCha

; 638  : 	{
; 639  : 		lpObj->m_AttackSpeed += Right->m_AttackSpeed;

  01bd7	8b 45 e4	 mov	 eax, DWORD PTR _Right$[ebp]
  01bda	0f b6 48 0d	 movzx	 ecx, BYTE PTR [eax+13]
  01bde	8b 55 f8	 mov	 edx, DWORD PTR _lpObj$[ebp]
  01be1	03 8a 8c 04 00
	00		 add	 ecx, DWORD PTR [edx+1164]
  01be7	8b 45 f8	 mov	 eax, DWORD PTR _lpObj$[ebp]
  01bea	89 88 8c 04 00
	00		 mov	 DWORD PTR [eax+1164], ecx

; 640  : 		lpObj->m_MagicSpeed += Right->m_AttackSpeed;

  01bf0	8b 45 e4	 mov	 eax, DWORD PTR _Right$[ebp]
  01bf3	0f b6 48 0d	 movzx	 ecx, BYTE PTR [eax+13]
  01bf7	8b 55 f8	 mov	 edx, DWORD PTR _lpObj$[ebp]
  01bfa	03 8a 90 04 00
	00		 add	 ecx, DWORD PTR [edx+1168]
  01c00	8b 45 f8	 mov	 eax, DWORD PTR _lpObj$[ebp]
  01c03	89 88 90 04 00
	00		 mov	 DWORD PTR [eax+1168], ecx
  01c09	eb 3d		 jmp	 SHORT $LN180@gObjCalCha
$LN182@gObjCalCha:

; 641  : 	}
; 642  : 	else if ( bLeft != false )

  01c0b	0f b6 85 c2 fe
	ff ff		 movzx	 eax, BYTE PTR _bLeft$[ebp]
  01c12	85 c0		 test	 eax, eax
  01c14	74 32		 je	 SHORT $LN180@gObjCalCha

; 643  : 	{
; 644  : 		lpObj->m_AttackSpeed += Left->m_AttackSpeed;

  01c16	8b 45 e0	 mov	 eax, DWORD PTR _Left$[ebp]
  01c19	0f b6 48 0d	 movzx	 ecx, BYTE PTR [eax+13]
  01c1d	8b 55 f8	 mov	 edx, DWORD PTR _lpObj$[ebp]
  01c20	03 8a 8c 04 00
	00		 add	 ecx, DWORD PTR [edx+1164]
  01c26	8b 45 f8	 mov	 eax, DWORD PTR _lpObj$[ebp]
  01c29	89 88 8c 04 00
	00		 mov	 DWORD PTR [eax+1164], ecx

; 645  : 		lpObj->m_MagicSpeed += Left->m_AttackSpeed;

  01c2f	8b 45 e0	 mov	 eax, DWORD PTR _Left$[ebp]
  01c32	0f b6 48 0d	 movzx	 ecx, BYTE PTR [eax+13]
  01c36	8b 55 f8	 mov	 edx, DWORD PTR _lpObj$[ebp]
  01c39	03 8a 90 04 00
	00		 add	 ecx, DWORD PTR [edx+1168]
  01c3f	8b 45 f8	 mov	 eax, DWORD PTR _lpObj$[ebp]
  01c42	89 88 90 04 00
	00		 mov	 DWORD PTR [eax+1168], ecx
$LN180@gObjCalCha:

; 646  : 	}
; 647  : 
; 648  : 	if ( Gloves->m_Type != -1 )

  01c48	8b 45 dc	 mov	 eax, DWORD PTR _Gloves$[ebp]
  01c4b	0f bf 48 06	 movsx	 ecx, WORD PTR [eax+6]
  01c4f	83 f9 ff	 cmp	 ecx, -1
  01c52	74 40		 je	 SHORT $LN178@gObjCalCha

; 649  : 	{
; 650  : 		if ( Gloves->m_IsValidItem != false )

  01c54	8b 45 dc	 mov	 eax, DWORD PTR _Gloves$[ebp]
  01c57	0f b6 88 b0 00
	00 00		 movzx	 ecx, BYTE PTR [eax+176]
  01c5e	85 c9		 test	 ecx, ecx
  01c60	74 32		 je	 SHORT $LN178@gObjCalCha

; 651  : 		{
; 652  : 			lpObj->m_AttackSpeed += Gloves->m_AttackSpeed;

  01c62	8b 45 dc	 mov	 eax, DWORD PTR _Gloves$[ebp]
  01c65	0f b6 48 0d	 movzx	 ecx, BYTE PTR [eax+13]
  01c69	8b 55 f8	 mov	 edx, DWORD PTR _lpObj$[ebp]
  01c6c	03 8a 8c 04 00
	00		 add	 ecx, DWORD PTR [edx+1164]
  01c72	8b 45 f8	 mov	 eax, DWORD PTR _lpObj$[ebp]
  01c75	89 88 8c 04 00
	00		 mov	 DWORD PTR [eax+1164], ecx

; 653  : 			lpObj->m_MagicSpeed += Gloves->m_AttackSpeed;

  01c7b	8b 45 dc	 mov	 eax, DWORD PTR _Gloves$[ebp]
  01c7e	0f b6 48 0d	 movzx	 ecx, BYTE PTR [eax+13]
  01c82	8b 55 f8	 mov	 edx, DWORD PTR _lpObj$[ebp]
  01c85	03 8a 90 04 00
	00		 add	 ecx, DWORD PTR [edx+1168]
  01c8b	8b 45 f8	 mov	 eax, DWORD PTR _lpObj$[ebp]
  01c8e	89 88 90 04 00
	00		 mov	 DWORD PTR [eax+1168], ecx
$LN178@gObjCalCha:

; 654  : 		}
; 655  : 	}
; 656  : 
; 657  : 	if ( Helper->m_Type != -1 )

  01c94	8b 45 d4	 mov	 eax, DWORD PTR _Helper$[ebp]
  01c97	0f bf 48 06	 movsx	 ecx, WORD PTR [eax+6]
  01c9b	83 f9 ff	 cmp	 ecx, -1
  01c9e	74 40		 je	 SHORT $LN176@gObjCalCha

; 658  : 	{
; 659  : 		if ( Helper->m_IsValidItem != false )

  01ca0	8b 45 d4	 mov	 eax, DWORD PTR _Helper$[ebp]
  01ca3	0f b6 88 b0 00
	00 00		 movzx	 ecx, BYTE PTR [eax+176]
  01caa	85 c9		 test	 ecx, ecx
  01cac	74 32		 je	 SHORT $LN176@gObjCalCha

; 660  : 		{
; 661  : 			lpObj->m_AttackSpeed += Helper->m_AttackSpeed;

  01cae	8b 45 d4	 mov	 eax, DWORD PTR _Helper$[ebp]
  01cb1	0f b6 48 0d	 movzx	 ecx, BYTE PTR [eax+13]
  01cb5	8b 55 f8	 mov	 edx, DWORD PTR _lpObj$[ebp]
  01cb8	03 8a 8c 04 00
	00		 add	 ecx, DWORD PTR [edx+1164]
  01cbe	8b 45 f8	 mov	 eax, DWORD PTR _lpObj$[ebp]
  01cc1	89 88 8c 04 00
	00		 mov	 DWORD PTR [eax+1164], ecx

; 662  : 			lpObj->m_MagicSpeed += Helper->m_AttackSpeed;

  01cc7	8b 45 d4	 mov	 eax, DWORD PTR _Helper$[ebp]
  01cca	0f b6 48 0d	 movzx	 ecx, BYTE PTR [eax+13]
  01cce	8b 55 f8	 mov	 edx, DWORD PTR _lpObj$[ebp]
  01cd1	03 8a 90 04 00
	00		 add	 ecx, DWORD PTR [edx+1168]
  01cd7	8b 45 f8	 mov	 eax, DWORD PTR _lpObj$[ebp]
  01cda	89 88 90 04 00
	00		 mov	 DWORD PTR [eax+1168], ecx
$LN176@gObjCalCha:

; 663  : 		}
; 664  : 	}
; 665  : 
; 666  : 	if ( Amulet->m_Type != -1 )

  01ce0	8b 45 d8	 mov	 eax, DWORD PTR _Amulet$[ebp]
  01ce3	0f bf 48 06	 movsx	 ecx, WORD PTR [eax+6]
  01ce7	83 f9 ff	 cmp	 ecx, -1
  01cea	74 40		 je	 SHORT $LN174@gObjCalCha

; 667  : 	{
; 668  : 		if ( Amulet->m_IsValidItem != false )

  01cec	8b 45 d8	 mov	 eax, DWORD PTR _Amulet$[ebp]
  01cef	0f b6 88 b0 00
	00 00		 movzx	 ecx, BYTE PTR [eax+176]
  01cf6	85 c9		 test	 ecx, ecx
  01cf8	74 32		 je	 SHORT $LN174@gObjCalCha

; 669  : 		{
; 670  : 			lpObj->m_AttackSpeed += Amulet->m_AttackSpeed;

  01cfa	8b 45 d8	 mov	 eax, DWORD PTR _Amulet$[ebp]
  01cfd	0f b6 48 0d	 movzx	 ecx, BYTE PTR [eax+13]
  01d01	8b 55 f8	 mov	 edx, DWORD PTR _lpObj$[ebp]
  01d04	03 8a 8c 04 00
	00		 add	 ecx, DWORD PTR [edx+1164]
  01d0a	8b 45 f8	 mov	 eax, DWORD PTR _lpObj$[ebp]
  01d0d	89 88 8c 04 00
	00		 mov	 DWORD PTR [eax+1164], ecx

; 671  : 			lpObj->m_MagicSpeed += Amulet->m_AttackSpeed;

  01d13	8b 45 d8	 mov	 eax, DWORD PTR _Amulet$[ebp]
  01d16	0f b6 48 0d	 movzx	 ecx, BYTE PTR [eax+13]
  01d1a	8b 55 f8	 mov	 edx, DWORD PTR _lpObj$[ebp]
  01d1d	03 8a 90 04 00
	00		 add	 ecx, DWORD PTR [edx+1168]
  01d23	8b 45 f8	 mov	 eax, DWORD PTR _lpObj$[ebp]
  01d26	89 88 90 04 00
	00		 mov	 DWORD PTR [eax+1168], ecx
$LN174@gObjCalCha:

; 672  : 		}
; 673  : 	}
; 674  : 
; 675  : 	// Wizard Ring effect
; 676  : 	if ( (lpObj->pInventory[10].IsItem() == TRUE && lpObj->pInventory[10].m_Type == ITEMGET(13,20) && lpObj->pInventory[10].m_Level == 0 && lpObj->pInventory[10].m_Durability > 0.0f ) || (lpObj->pInventory[11].IsItem() == TRUE && lpObj->pInventory[11].m_Type == ITEMGET(13,20) && lpObj->pInventory[11].m_Level == 0 && lpObj->pInventory[11].m_Durability > 0.0f ) )

  01d2c	8b 45 f8	 mov	 eax, DWORD PTR _lpObj$[ebp]
  01d2f	8b 88 24 0e 00
	00		 mov	 ecx, DWORD PTR [eax+3620]
  01d35	81 c1 48 08 00
	00		 add	 ecx, 2120		; 00000848H
  01d3b	e8 00 00 00 00	 call	 ?IsItem@CItem@@QAEHXZ	; CItem::IsItem
  01d40	83 f8 01	 cmp	 eax, 1
  01d43	75 48		 jne	 SHORT $LN171@gObjCalCha
  01d45	8b 45 f8	 mov	 eax, DWORD PTR _lpObj$[ebp]
  01d48	8b 88 24 0e 00
	00		 mov	 ecx, DWORD PTR [eax+3620]
  01d4e	0f bf 91 4e 08
	00 00		 movsx	 edx, WORD PTR [ecx+2126]
  01d55	81 fa 14 1a 00
	00		 cmp	 edx, 6676		; 00001a14H
  01d5b	75 30		 jne	 SHORT $LN171@gObjCalCha
  01d5d	8b 45 f8	 mov	 eax, DWORD PTR _lpObj$[ebp]
  01d60	8b 88 24 0e 00
	00		 mov	 ecx, DWORD PTR [eax+3620]
  01d66	0f bf 91 50 08
	00 00		 movsx	 edx, WORD PTR [ecx+2128]
  01d6d	85 d2		 test	 edx, edx
  01d6f	75 1c		 jne	 SHORT $LN171@gObjCalCha
  01d71	8b 45 f8	 mov	 eax, DWORD PTR _lpObj$[ebp]
  01d74	8b 88 24 0e 00
	00		 mov	 ecx, DWORD PTR [eax+3620]
  01d7a	d9 81 6c 08 00
	00		 fld	 DWORD PTR [ecx+2156]
  01d80	dc 1d 00 00 00
	00		 fcomp	 QWORD PTR __real@0000000000000000
  01d86	df e0		 fnstsw	 ax
  01d88	f6 c4 41	 test	 ah, 65			; 00000041H
  01d8b	74 71		 je	 SHORT $LN172@gObjCalCha
$LN171@gObjCalCha:
  01d8d	8b 45 f8	 mov	 eax, DWORD PTR _lpObj$[ebp]
  01d90	8b 88 24 0e 00
	00		 mov	 ecx, DWORD PTR [eax+3620]
  01d96	81 c1 1c 09 00
	00		 add	 ecx, 2332		; 0000091cH
  01d9c	e8 00 00 00 00	 call	 ?IsItem@CItem@@QAEHXZ	; CItem::IsItem
  01da1	83 f8 01	 cmp	 eax, 1
  01da4	0f 85 62 01 00
	00		 jne	 $LN173@gObjCalCha
  01daa	8b 45 f8	 mov	 eax, DWORD PTR _lpObj$[ebp]
  01dad	8b 88 24 0e 00
	00		 mov	 ecx, DWORD PTR [eax+3620]
  01db3	0f bf 91 22 09
	00 00		 movsx	 edx, WORD PTR [ecx+2338]
  01dba	81 fa 14 1a 00
	00		 cmp	 edx, 6676		; 00001a14H
  01dc0	0f 85 46 01 00
	00		 jne	 $LN173@gObjCalCha
  01dc6	8b 45 f8	 mov	 eax, DWORD PTR _lpObj$[ebp]
  01dc9	8b 88 24 0e 00
	00		 mov	 ecx, DWORD PTR [eax+3620]
  01dcf	0f bf 91 24 09
	00 00		 movsx	 edx, WORD PTR [ecx+2340]
  01dd6	85 d2		 test	 edx, edx
  01dd8	0f 85 2e 01 00
	00		 jne	 $LN173@gObjCalCha
  01dde	8b 45 f8	 mov	 eax, DWORD PTR _lpObj$[ebp]
  01de1	8b 88 24 0e 00
	00		 mov	 ecx, DWORD PTR [eax+3620]
  01de7	d9 81 40 09 00
	00		 fld	 DWORD PTR [ecx+2368]
  01ded	dc 1d 00 00 00
	00		 fcomp	 QWORD PTR __real@0000000000000000
  01df3	df e0		 fnstsw	 ax
  01df5	f6 c4 41	 test	 ah, 65			; 00000041H
  01df8	0f 85 0e 01 00
	00		 jne	 $LN173@gObjCalCha
$LN172@gObjCalCha:

; 677  : 	{
; 678  : 		lpObj->m_AttackDamageMinRight += lpObj->m_AttackDamageMinRight * 10 / 100;

  01dfe	8b 45 f8	 mov	 eax, DWORD PTR _lpObj$[ebp]
  01e01	8b 80 84 04 00
	00		 mov	 eax, DWORD PTR [eax+1156]
  01e07	6b c0 0a	 imul	 eax, 10			; 0000000aH
  01e0a	99		 cdq
  01e0b	b9 64 00 00 00	 mov	 ecx, 100		; 00000064H
  01e10	f7 f9		 idiv	 ecx
  01e12	8b 55 f8	 mov	 edx, DWORD PTR _lpObj$[ebp]
  01e15	03 82 84 04 00
	00		 add	 eax, DWORD PTR [edx+1156]
  01e1b	8b 4d f8	 mov	 ecx, DWORD PTR _lpObj$[ebp]
  01e1e	89 81 84 04 00
	00		 mov	 DWORD PTR [ecx+1156], eax

; 679  : 		lpObj->m_AttackDamageMaxRight += lpObj->m_AttackDamageMaxRight * 10 / 100;

  01e24	8b 45 f8	 mov	 eax, DWORD PTR _lpObj$[ebp]
  01e27	8b 80 80 04 00
	00		 mov	 eax, DWORD PTR [eax+1152]
  01e2d	6b c0 0a	 imul	 eax, 10			; 0000000aH
  01e30	99		 cdq
  01e31	b9 64 00 00 00	 mov	 ecx, 100		; 00000064H
  01e36	f7 f9		 idiv	 ecx
  01e38	8b 55 f8	 mov	 edx, DWORD PTR _lpObj$[ebp]
  01e3b	03 82 80 04 00
	00		 add	 eax, DWORD PTR [edx+1152]
  01e41	8b 4d f8	 mov	 ecx, DWORD PTR _lpObj$[ebp]
  01e44	89 81 80 04 00
	00		 mov	 DWORD PTR [ecx+1152], eax

; 680  : 		lpObj->m_AttackDamageMinLeft += lpObj->m_AttackDamageMinLeft * 10 / 100;

  01e4a	8b 45 f8	 mov	 eax, DWORD PTR _lpObj$[ebp]
  01e4d	8b 80 7c 04 00
	00		 mov	 eax, DWORD PTR [eax+1148]
  01e53	6b c0 0a	 imul	 eax, 10			; 0000000aH
  01e56	99		 cdq
  01e57	b9 64 00 00 00	 mov	 ecx, 100		; 00000064H
  01e5c	f7 f9		 idiv	 ecx
  01e5e	8b 55 f8	 mov	 edx, DWORD PTR _lpObj$[ebp]
  01e61	03 82 7c 04 00
	00		 add	 eax, DWORD PTR [edx+1148]
  01e67	8b 4d f8	 mov	 ecx, DWORD PTR _lpObj$[ebp]
  01e6a	89 81 7c 04 00
	00		 mov	 DWORD PTR [ecx+1148], eax

; 681  : 		lpObj->m_AttackDamageMaxLeft += lpObj->m_AttackDamageMaxLeft * 10 / 100;

  01e70	8b 45 f8	 mov	 eax, DWORD PTR _lpObj$[ebp]
  01e73	8b 80 78 04 00
	00		 mov	 eax, DWORD PTR [eax+1144]
  01e79	6b c0 0a	 imul	 eax, 10			; 0000000aH
  01e7c	99		 cdq
  01e7d	b9 64 00 00 00	 mov	 ecx, 100		; 00000064H
  01e82	f7 f9		 idiv	 ecx
  01e84	8b 55 f8	 mov	 edx, DWORD PTR _lpObj$[ebp]
  01e87	03 82 78 04 00
	00		 add	 eax, DWORD PTR [edx+1144]
  01e8d	8b 4d f8	 mov	 ecx, DWORD PTR _lpObj$[ebp]
  01e90	89 81 78 04 00
	00		 mov	 DWORD PTR [ecx+1144], eax

; 682  : 		lpObj->m_MagicDamageMin += lpObj->m_MagicDamageMin * 10 / 100;

  01e96	8b 45 f8	 mov	 eax, DWORD PTR _lpObj$[ebp]
  01e99	8b 80 68 04 00
	00		 mov	 eax, DWORD PTR [eax+1128]
  01e9f	6b c0 0a	 imul	 eax, 10			; 0000000aH
  01ea2	99		 cdq
  01ea3	b9 64 00 00 00	 mov	 ecx, 100		; 00000064H
  01ea8	f7 f9		 idiv	 ecx
  01eaa	8b 55 f8	 mov	 edx, DWORD PTR _lpObj$[ebp]
  01ead	03 82 68 04 00
	00		 add	 eax, DWORD PTR [edx+1128]
  01eb3	8b 4d f8	 mov	 ecx, DWORD PTR _lpObj$[ebp]
  01eb6	89 81 68 04 00
	00		 mov	 DWORD PTR [ecx+1128], eax

; 683  : 		lpObj->m_MagicDamageMax += lpObj->m_MagicDamageMax * 10 / 100;

  01ebc	8b 45 f8	 mov	 eax, DWORD PTR _lpObj$[ebp]
  01ebf	8b 80 6c 04 00
	00		 mov	 eax, DWORD PTR [eax+1132]
  01ec5	6b c0 0a	 imul	 eax, 10			; 0000000aH
  01ec8	99		 cdq
  01ec9	b9 64 00 00 00	 mov	 ecx, 100		; 00000064H
  01ece	f7 f9		 idiv	 ecx
  01ed0	8b 55 f8	 mov	 edx, DWORD PTR _lpObj$[ebp]
  01ed3	03 82 6c 04 00
	00		 add	 eax, DWORD PTR [edx+1132]
  01ed9	8b 4d f8	 mov	 ecx, DWORD PTR _lpObj$[ebp]
  01edc	89 81 6c 04 00
	00		 mov	 DWORD PTR [ecx+1132], eax

; 684  : 		lpObj->m_AttackSpeed += 10;

  01ee2	8b 45 f8	 mov	 eax, DWORD PTR _lpObj$[ebp]
  01ee5	8b 88 8c 04 00
	00		 mov	 ecx, DWORD PTR [eax+1164]
  01eeb	83 c1 0a	 add	 ecx, 10			; 0000000aH
  01eee	8b 55 f8	 mov	 edx, DWORD PTR _lpObj$[ebp]
  01ef1	89 8a 8c 04 00
	00		 mov	 DWORD PTR [edx+1164], ecx

; 685  : 		lpObj->m_MagicSpeed += 10;

  01ef7	8b 45 f8	 mov	 eax, DWORD PTR _lpObj$[ebp]
  01efa	8b 88 90 04 00
	00		 mov	 ecx, DWORD PTR [eax+1168]
  01f00	83 c1 0a	 add	 ecx, 10			; 0000000aH
  01f03	8b 55 f8	 mov	 edx, DWORD PTR _lpObj$[ebp]
  01f06	89 8a 90 04 00
	00		 mov	 DWORD PTR [edx+1168], ecx
$LN173@gObjCalCha:

; 686  : 	}
; 687  : 
; 688  : 	if ( lpObj->Class == CLASS_WIZARD )

  01f0c	8b 45 f8	 mov	 eax, DWORD PTR _lpObj$[ebp]
  01f0f	0f b7 88 b8 00
	00 00		 movzx	 ecx, WORD PTR [eax+184]
  01f16	85 c9		 test	 ecx, ecx
  01f18	75 4a		 jne	 SHORT $LN170@gObjCalCha

; 689  : 	{
; 690  : 		lpObj->m_DetectSpeedHackTime = (int)(gAttackSpeedTimeLimit - (lpObj->m_MagicSpeed*2 * gDecTimePerAttackSpeed) );

  01f1a	a1 00 00 00 00	 mov	 eax, DWORD PTR ?gAttackSpeedTimeLimit@@3KA ; gAttackSpeedTimeLimit
  01f1f	89 85 fc fd ff
	ff		 mov	 DWORD PTR tv5181[ebp], eax
  01f25	c7 85 00 fe ff
	ff 00 00 00 00	 mov	 DWORD PTR tv5181[ebp+4], 0
  01f2f	df ad fc fd ff
	ff		 fild	 QWORD PTR tv5181[ebp]
  01f35	8b 4d f8	 mov	 ecx, DWORD PTR _lpObj$[ebp]
  01f38	8b 91 90 04 00
	00		 mov	 edx, DWORD PTR [ecx+1168]
  01f3e	d1 e2		 shl	 edx, 1
  01f40	89 95 f8 fd ff
	ff		 mov	 DWORD PTR tv5185[ebp], edx
  01f46	db 85 f8 fd ff
	ff		 fild	 DWORD PTR tv5185[ebp]
  01f4c	d8 0d 00 00 00
	00		 fmul	 DWORD PTR ?gDecTimePerAttackSpeed@@3MA ; gDecTimePerAttackSpeed
  01f52	de e9		 fsubp	 ST(1), ST(0)
  01f54	e8 00 00 00 00	 call	 __ftol2_sse
  01f59	8b 4d f8	 mov	 ecx, DWORD PTR _lpObj$[ebp]
  01f5c	89 81 74 03 00
	00		 mov	 DWORD PTR [ecx+884], eax

; 691  : 	}
; 692  : 	else

  01f62	eb 3a		 jmp	 SHORT $LN169@gObjCalCha
$LN170@gObjCalCha:

; 693  : 	{
; 694  : 		lpObj->m_DetectSpeedHackTime = (int)(gAttackSpeedTimeLimit - (lpObj->m_AttackSpeed * gDecTimePerAttackSpeed) );

  01f64	a1 00 00 00 00	 mov	 eax, DWORD PTR ?gAttackSpeedTimeLimit@@3KA ; gAttackSpeedTimeLimit
  01f69	89 85 fc fd ff
	ff		 mov	 DWORD PTR tv5194[ebp], eax
  01f6f	c7 85 00 fe ff
	ff 00 00 00 00	 mov	 DWORD PTR tv5194[ebp+4], 0
  01f79	df ad fc fd ff
	ff		 fild	 QWORD PTR tv5194[ebp]
  01f7f	8b 4d f8	 mov	 ecx, DWORD PTR _lpObj$[ebp]
  01f82	db 81 8c 04 00
	00		 fild	 DWORD PTR [ecx+1164]
  01f88	d8 0d 00 00 00
	00		 fmul	 DWORD PTR ?gDecTimePerAttackSpeed@@3MA ; gDecTimePerAttackSpeed
  01f8e	de e9		 fsubp	 ST(1), ST(0)
  01f90	e8 00 00 00 00	 call	 __ftol2_sse
  01f95	8b 55 f8	 mov	 edx, DWORD PTR _lpObj$[ebp]
  01f98	89 82 74 03 00
	00		 mov	 DWORD PTR [edx+884], eax
$LN169@gObjCalCha:

; 695  : 	}
; 696  : 
; 697  : 	if ( lpObj->m_DetectSpeedHackTime < gMinimumAttackSpeedTime )

  01f9e	8b 45 f8	 mov	 eax, DWORD PTR _lpObj$[ebp]
  01fa1	8b 88 74 03 00
	00		 mov	 ecx, DWORD PTR [eax+884]
  01fa7	3b 0d 00 00 00
	00		 cmp	 ecx, DWORD PTR ?gMinimumAttackSpeedTime@@3HA ; gMinimumAttackSpeedTime
  01fad	7d 0f		 jge	 SHORT $LN168@gObjCalCha

; 698  : 	{
; 699  : 		lpObj->m_DetectSpeedHackTime = gMinimumAttackSpeedTime;

  01faf	8b 45 f8	 mov	 eax, DWORD PTR _lpObj$[ebp]
  01fb2	8b 0d 00 00 00
	00		 mov	 ecx, DWORD PTR ?gMinimumAttackSpeedTime@@3HA ; gMinimumAttackSpeedTime
  01fb8	89 88 74 03 00
	00		 mov	 DWORD PTR [eax+884], ecx
$LN168@gObjCalCha:

; 700  : 	}
; 701  : 
; 702  : 
; 703  : 	if ( lpObj->Class == CLASS_ELF )

  01fbe	8b 45 f8	 mov	 eax, DWORD PTR _lpObj$[ebp]
  01fc1	0f b7 88 b8 00
	00 00		 movzx	 ecx, WORD PTR [eax+184]
  01fc8	83 f9 02	 cmp	 ecx, 2
  01fcb	75 18		 jne	 SHORT $LN167@gObjCalCha

; 704  : 	{
; 705  : 		//int SuccessfulBlocking = GetPrivateProfileInt("Fairy_Elf","SuccessfulBlocking",4,"..\\Data\\ExData\\Character.ini");
; 706  : 		lpObj->m_SuccessfulBlocking = Dexterity / ExConfig.Character.ELFSuccessfulBlocking;	// 4

  01fcd	8b 45 f0	 mov	 eax, DWORD PTR _Dexterity$[ebp]
  01fd0	99		 cdq
  01fd1	f7 3d 30 02 00
	00		 idiv	 DWORD PTR ?ExConfig@@3VcExConfigs@@A+560
  01fd7	8b 4d f8	 mov	 ecx, DWORD PTR _lpObj$[ebp]
  01fda	89 81 9c 04 00
	00		 mov	 DWORD PTR [ecx+1180], eax
  01fe0	e9 f4 00 00 00	 jmp	 $LN154@gObjCalCha
$LN167@gObjCalCha:

; 707  : 	}
; 708  : 	else if ( lpObj->Class == CLASS_DARKLORD )

  01fe5	8b 45 f8	 mov	 eax, DWORD PTR _lpObj$[ebp]
  01fe8	0f b7 88 b8 00
	00 00		 movzx	 ecx, WORD PTR [eax+184]
  01fef	83 f9 04	 cmp	 ecx, 4
  01ff2	75 18		 jne	 SHORT $LN165@gObjCalCha

; 709  : 	{
; 710  : 		//int SuccessfulBlocking = GetPrivateProfileInt("Dark_Lord","SuccessfulBlocking",7,"..\\Data\\ExData\\Character.ini");
; 711  : 		lpObj->m_SuccessfulBlocking = Dexterity / ExConfig.Character.DLSuccessfulBlocking;	// 7

  01ff4	8b 45 f0	 mov	 eax, DWORD PTR _Dexterity$[ebp]
  01ff7	99		 cdq
  01ff8	f7 3d 34 02 00
	00		 idiv	 DWORD PTR ?ExConfig@@3VcExConfigs@@A+564
  01ffe	8b 4d f8	 mov	 ecx, DWORD PTR _lpObj$[ebp]
  02001	89 81 9c 04 00
	00		 mov	 DWORD PTR [ecx+1180], eax
  02007	e9 cd 00 00 00	 jmp	 $LN154@gObjCalCha
$LN165@gObjCalCha:

; 712  : 	}
; 713  : 	else if ( lpObj->Class == CLASS_SUMMONER ) //Not much but its alot

  0200c	8b 45 f8	 mov	 eax, DWORD PTR _lpObj$[ebp]
  0200f	0f b7 88 b8 00
	00 00		 movzx	 ecx, WORD PTR [eax+184]
  02016	83 f9 05	 cmp	 ecx, 5
  02019	75 18		 jne	 SHORT $LN163@gObjCalCha

; 714  : 	{
; 715  : 		//int SuccessfulBlocking = GetPrivateProfileInt("Summoner","SuccessfulBlocking",4,"..\\Data\\ExData\\Character.ini");
; 716  : 		lpObj->m_SuccessfulBlocking = Dexterity / ExConfig.Character.SUMSuccessfulBlocking;	 // 4

  0201b	8b 45 f0	 mov	 eax, DWORD PTR _Dexterity$[ebp]
  0201e	99		 cdq
  0201f	f7 3d 38 02 00
	00		 idiv	 DWORD PTR ?ExConfig@@3VcExConfigs@@A+568
  02025	8b 4d f8	 mov	 ecx, DWORD PTR _lpObj$[ebp]
  02028	89 81 9c 04 00
	00		 mov	 DWORD PTR [ecx+1180], eax
  0202e	e9 a6 00 00 00	 jmp	 $LN154@gObjCalCha
$LN163@gObjCalCha:

; 717  : 	}
; 718  : 	else if ( lpObj->Class == CLASS_WIZARD )

  02033	8b 45 f8	 mov	 eax, DWORD PTR _lpObj$[ebp]
  02036	0f b7 88 b8 00
	00 00		 movzx	 ecx, WORD PTR [eax+184]
  0203d	85 c9		 test	 ecx, ecx
  0203f	75 18		 jne	 SHORT $LN161@gObjCalCha

; 719  : 	{
; 720  : 		//int SuccessfulBlocking = GetPrivateProfileInt("Dark_Wizard","SuccessfulBlocking",3,"..\\Data\\ExData\\Character.ini");
; 721  : 		lpObj->m_SuccessfulBlocking = Dexterity / ExConfig.Character.DWSuccessfulBlocking;	 // 3

  02041	8b 45 f0	 mov	 eax, DWORD PTR _Dexterity$[ebp]
  02044	99		 cdq
  02045	f7 3d 3c 02 00
	00		 idiv	 DWORD PTR ?ExConfig@@3VcExConfigs@@A+572
  0204b	8b 4d f8	 mov	 ecx, DWORD PTR _lpObj$[ebp]
  0204e	89 81 9c 04 00
	00		 mov	 DWORD PTR [ecx+1180], eax
  02054	e9 80 00 00 00	 jmp	 $LN154@gObjCalCha
$LN161@gObjCalCha:

; 722  : 	}
; 723  : 	else if ( lpObj->Class == CLASS_KNIGHT )

  02059	8b 45 f8	 mov	 eax, DWORD PTR _lpObj$[ebp]
  0205c	0f b7 88 b8 00
	00 00		 movzx	 ecx, WORD PTR [eax+184]
  02063	83 f9 01	 cmp	 ecx, 1
  02066	75 15		 jne	 SHORT $LN159@gObjCalCha

; 724  : 	{
; 725  : 		//int SuccessfulBlocking = GetPrivateProfileInt("Dark_Knight","SuccessfulBlocking",3,"..\\Data\\ExData\\Character.ini");
; 726  : 		lpObj->m_SuccessfulBlocking = Dexterity / ExConfig.Character.DKSuccessfulBlocking;	 // 3

  02068	8b 45 f0	 mov	 eax, DWORD PTR _Dexterity$[ebp]
  0206b	99		 cdq
  0206c	f7 3d 40 02 00
	00		 idiv	 DWORD PTR ?ExConfig@@3VcExConfigs@@A+576
  02072	8b 4d f8	 mov	 ecx, DWORD PTR _lpObj$[ebp]
  02075	89 81 9c 04 00
	00		 mov	 DWORD PTR [ecx+1180], eax
  0207b	eb 5c		 jmp	 SHORT $LN154@gObjCalCha
$LN159@gObjCalCha:

; 727  : 	}
; 728  : 	else if ( lpObj->Class == CLASS_MAGUMSA )

  0207d	8b 45 f8	 mov	 eax, DWORD PTR _lpObj$[ebp]
  02080	0f b7 88 b8 00
	00 00		 movzx	 ecx, WORD PTR [eax+184]
  02087	83 f9 03	 cmp	 ecx, 3
  0208a	75 15		 jne	 SHORT $LN157@gObjCalCha

; 729  : 	{
; 730  : 		//int SuccessfulBlocking = GetPrivateProfileInt("Magic_Gladiator","SuccessfulBlocking",3,"..\\Data\\ExData\\Character.ini");
; 731  : 		lpObj->m_SuccessfulBlocking = Dexterity / ExConfig.Character.MGSuccessfulBlocking;	 // 3

  0208c	8b 45 f0	 mov	 eax, DWORD PTR _Dexterity$[ebp]
  0208f	99		 cdq
  02090	f7 3d 44 02 00
	00		 idiv	 DWORD PTR ?ExConfig@@3VcExConfigs@@A+580
  02096	8b 4d f8	 mov	 ecx, DWORD PTR _lpObj$[ebp]
  02099	89 81 9c 04 00
	00		 mov	 DWORD PTR [ecx+1180], eax
  0209f	eb 38		 jmp	 SHORT $LN154@gObjCalCha
$LN157@gObjCalCha:

; 732  : 	}
; 733  : #ifdef MONK
; 734  : 	else if( lpObj->Class == CLASS_MONK )

  020a1	8b 45 f8	 mov	 eax, DWORD PTR _lpObj$[ebp]
  020a4	0f b7 88 b8 00
	00 00		 movzx	 ecx, WORD PTR [eax+184]
  020ab	83 f9 06	 cmp	 ecx, 6
  020ae	75 15		 jne	 SHORT $LN155@gObjCalCha

; 735  : 	{
; 736  : 		lpObj->m_SuccessfulBlocking = Dexterity / ExConfig.Character.RFSuccessfulBlocking;

  020b0	8b 45 f0	 mov	 eax, DWORD PTR _Dexterity$[ebp]
  020b3	99		 cdq
  020b4	f7 3d 80 02 00
	00		 idiv	 DWORD PTR ?ExConfig@@3VcExConfigs@@A+640
  020ba	8b 4d f8	 mov	 ecx, DWORD PTR _lpObj$[ebp]
  020bd	89 81 9c 04 00
	00		 mov	 DWORD PTR [ecx+1180], eax

; 737  : 	}
; 738  : #endif
; 739  : 	else

  020c3	eb 14		 jmp	 SHORT $LN154@gObjCalCha
$LN155@gObjCalCha:

; 740  : 	{
; 741  : 		lpObj->m_SuccessfulBlocking = Dexterity / 3;

  020c5	8b 45 f0	 mov	 eax, DWORD PTR _Dexterity$[ebp]
  020c8	99		 cdq
  020c9	b9 03 00 00 00	 mov	 ecx, 3
  020ce	f7 f9		 idiv	 ecx
  020d0	8b 55 f8	 mov	 edx, DWORD PTR _lpObj$[ebp]
  020d3	89 82 9c 04 00
	00		 mov	 DWORD PTR [edx+1180], eax
$LN154@gObjCalCha:

; 742  : 	}
; 743  : 	if ( Left->m_Type != -1 )

  020d9	8b 45 e0	 mov	 eax, DWORD PTR _Left$[ebp]
  020dc	0f bf 48 06	 movsx	 ecx, WORD PTR [eax+6]
  020e0	83 f9 ff	 cmp	 ecx, -1
  020e3	74 46		 je	 SHORT $LN152@gObjCalCha

; 744  : 	{
; 745  : 		if ( Left->m_IsValidItem != false )

  020e5	8b 45 e0	 mov	 eax, DWORD PTR _Left$[ebp]
  020e8	0f b6 88 b0 00
	00 00		 movzx	 ecx, BYTE PTR [eax+176]
  020ef	85 c9		 test	 ecx, ecx
  020f1	74 38		 je	 SHORT $LN152@gObjCalCha

; 746  : 		{
; 747  : 			lpObj->m_SuccessfulBlocking += Left->m_SuccessfulBlocking;

  020f3	8b 45 e0	 mov	 eax, DWORD PTR _Left$[ebp]
  020f6	0f b6 48 14	 movzx	 ecx, BYTE PTR [eax+20]
  020fa	8b 55 f8	 mov	 edx, DWORD PTR _lpObj$[ebp]
  020fd	03 8a 9c 04 00
	00		 add	 ecx, DWORD PTR [edx+1180]
  02103	8b 45 f8	 mov	 eax, DWORD PTR _lpObj$[ebp]
  02106	89 88 9c 04 00
	00		 mov	 DWORD PTR [eax+1180], ecx

; 748  : 			lpObj->pInventory[1].PlusSpecial(&lpObj->m_SuccessfulBlocking, 82);

  0210c	6a 52		 push	 82			; 00000052H
  0210e	8b 45 f8	 mov	 eax, DWORD PTR _lpObj$[ebp]
  02111	05 9c 04 00 00	 add	 eax, 1180		; 0000049cH
  02116	50		 push	 eax
  02117	8b 4d f8	 mov	 ecx, DWORD PTR _lpObj$[ebp]
  0211a	8b 89 24 0e 00
	00		 mov	 ecx, DWORD PTR [ecx+3620]
  02120	81 c1 d4 00 00
	00		 add	 ecx, 212		; 000000d4H
  02126	e8 00 00 00 00	 call	 ?PlusSpecial@CItem@@QAEXPAHH@Z ; CItem::PlusSpecial
$LN152@gObjCalCha:

; 749  : 		}
; 750  : 	}
; 751  : 
; 752  : 	bool Success = true;

  0212b	c6 85 c1 fe ff
	ff 01		 mov	 BYTE PTR _Success$[ebp], 1

; 753  : 
; 754  : 	if ( lpObj->Class == CLASS_MAGUMSA )

  02132	8b 45 f8	 mov	 eax, DWORD PTR _lpObj$[ebp]
  02135	0f b7 88 b8 00
	00 00		 movzx	 ecx, WORD PTR [eax+184]
  0213c	83 f9 03	 cmp	 ecx, 3
  0213f	75 7a		 jne	 SHORT $LN151@gObjCalCha

; 755  : 	{
; 756  : 		for ( int j=3;j<=6;j++)

  02141	c7 85 bc fe ff
	ff 03 00 00 00	 mov	 DWORD PTR _j$232781[ebp], 3
  0214b	eb 0f		 jmp	 SHORT $LN150@gObjCalCha
$LN149@gObjCalCha:
  0214d	8b 85 bc fe ff
	ff		 mov	 eax, DWORD PTR _j$232781[ebp]
  02153	83 c0 01	 add	 eax, 1
  02156	89 85 bc fe ff
	ff		 mov	 DWORD PTR _j$232781[ebp], eax
$LN150@gObjCalCha:
  0215c	83 bd bc fe ff
	ff 06		 cmp	 DWORD PTR _j$232781[ebp], 6
  02163	7f 54		 jg	 SHORT $LN148@gObjCalCha

; 757  : 		{
; 758  : 			if ( lpObj->pInventory[j].m_Type == -1 )

  02165	8b 85 bc fe ff
	ff		 mov	 eax, DWORD PTR _j$232781[ebp]
  0216b	69 c0 d4 00 00
	00		 imul	 eax, 212		; 000000d4H
  02171	8b 4d f8	 mov	 ecx, DWORD PTR _lpObj$[ebp]
  02174	8b 91 24 0e 00
	00		 mov	 edx, DWORD PTR [ecx+3620]
  0217a	0f bf 44 02 06	 movsx	 eax, WORD PTR [edx+eax+6]
  0217f	83 f8 ff	 cmp	 eax, -1
  02182	75 09		 jne	 SHORT $LN147@gObjCalCha

; 759  : 			{
; 760  : 				Success = false;

  02184	c6 85 c1 fe ff
	ff 00		 mov	 BYTE PTR _Success$[ebp], 0

; 761  : 				break;

  0218b	eb 2c		 jmp	 SHORT $LN148@gObjCalCha
$LN147@gObjCalCha:

; 762  : 			}
; 763  : 
; 764  : 			if ( lpObj->pInventory[j].m_IsValidItem == false )

  0218d	8b 85 bc fe ff
	ff		 mov	 eax, DWORD PTR _j$232781[ebp]
  02193	69 c0 d4 00 00
	00		 imul	 eax, 212		; 000000d4H
  02199	8b 4d f8	 mov	 ecx, DWORD PTR _lpObj$[ebp]
  0219c	8b 91 24 0e 00
	00		 mov	 edx, DWORD PTR [ecx+3620]
  021a2	0f b6 84 02 b0
	00 00 00	 movzx	 eax, BYTE PTR [edx+eax+176]
  021aa	85 c0		 test	 eax, eax
  021ac	75 09		 jne	 SHORT $LN146@gObjCalCha

; 765  : 			{
; 766  : 				Success = false;

  021ae	c6 85 c1 fe ff
	ff 00		 mov	 BYTE PTR _Success$[ebp], 0

; 767  : 				break;

  021b5	eb 02		 jmp	 SHORT $LN148@gObjCalCha
$LN146@gObjCalCha:

; 768  : 			}
; 769  : 		}

  021b7	eb 94		 jmp	 SHORT $LN149@gObjCalCha
$LN148@gObjCalCha:

; 770  : 	}
; 771  : 	else

  021b9	eb 78		 jmp	 SHORT $LN142@gObjCalCha
$LN151@gObjCalCha:

; 772  : 	{
; 773  : 		for  ( int k=2;k<=6;k++)

  021bb	c7 85 b8 fe ff
	ff 02 00 00 00	 mov	 DWORD PTR _k$232788[ebp], 2
  021c5	eb 0f		 jmp	 SHORT $LN144@gObjCalCha
$LN143@gObjCalCha:
  021c7	8b 85 b8 fe ff
	ff		 mov	 eax, DWORD PTR _k$232788[ebp]
  021cd	83 c0 01	 add	 eax, 1
  021d0	89 85 b8 fe ff
	ff		 mov	 DWORD PTR _k$232788[ebp], eax
$LN144@gObjCalCha:
  021d6	83 bd b8 fe ff
	ff 06		 cmp	 DWORD PTR _k$232788[ebp], 6
  021dd	7f 54		 jg	 SHORT $LN142@gObjCalCha

; 774  : 		{
; 775  : 			if ( lpObj->pInventory[k].m_Type == -1 )

  021df	8b 85 b8 fe ff
	ff		 mov	 eax, DWORD PTR _k$232788[ebp]
  021e5	69 c0 d4 00 00
	00		 imul	 eax, 212		; 000000d4H
  021eb	8b 4d f8	 mov	 ecx, DWORD PTR _lpObj$[ebp]
  021ee	8b 91 24 0e 00
	00		 mov	 edx, DWORD PTR [ecx+3620]
  021f4	0f bf 44 02 06	 movsx	 eax, WORD PTR [edx+eax+6]
  021f9	83 f8 ff	 cmp	 eax, -1
  021fc	75 09		 jne	 SHORT $LN141@gObjCalCha

; 776  : 			{
; 777  : 				Success = false;

  021fe	c6 85 c1 fe ff
	ff 00		 mov	 BYTE PTR _Success$[ebp], 0

; 778  : 				break;

  02205	eb 2c		 jmp	 SHORT $LN142@gObjCalCha
$LN141@gObjCalCha:

; 779  : 			}
; 780  : 
; 781  : 			if ( lpObj->pInventory[k].m_IsValidItem == false )

  02207	8b 85 b8 fe ff
	ff		 mov	 eax, DWORD PTR _k$232788[ebp]
  0220d	69 c0 d4 00 00
	00		 imul	 eax, 212		; 000000d4H
  02213	8b 4d f8	 mov	 ecx, DWORD PTR _lpObj$[ebp]
  02216	8b 91 24 0e 00
	00		 mov	 edx, DWORD PTR [ecx+3620]
  0221c	0f b6 84 02 b0
	00 00 00	 movzx	 eax, BYTE PTR [edx+eax+176]
  02224	85 c0		 test	 eax, eax
  02226	75 09		 jne	 SHORT $LN140@gObjCalCha

; 782  : 			{
; 783  : 				Success = false;

  02228	c6 85 c1 fe ff
	ff 00		 mov	 BYTE PTR _Success$[ebp], 0

; 784  : 				break;

  0222f	eb 02		 jmp	 SHORT $LN142@gObjCalCha
$LN140@gObjCalCha:

; 785  : 			}
; 786  : 		}

  02231	eb 94		 jmp	 SHORT $LN143@gObjCalCha
$LN142@gObjCalCha:

; 787  : 	}
; 788  : 
; 789  : 	int Level11Count = 0;

  02233	c7 85 b4 fe ff
	ff 00 00 00 00	 mov	 DWORD PTR _Level11Count$[ebp], 0

; 790  : 	int Level10Count = 0;

  0223d	c7 85 b0 fe ff
	ff 00 00 00 00	 mov	 DWORD PTR _Level10Count$[ebp], 0

; 791  : 	int Level12Count = 0;

  02247	c7 85 ac fe ff
	ff 00 00 00 00	 mov	 DWORD PTR _Level12Count$[ebp], 0

; 792  : 	int Level13Count = 0;

  02251	c7 85 a8 fe ff
	ff 00 00 00 00	 mov	 DWORD PTR _Level13Count$[ebp], 0

; 793  : 	//Season 5 +15 Items
; 794  : 	int Level14Count = 0;

  0225b	c7 85 a4 fe ff
	ff 00 00 00 00	 mov	 DWORD PTR _Level14Count$[ebp], 0

; 795  : 	int Level15Count = 0;

  02265	c7 85 a0 fe ff
	ff 00 00 00 00	 mov	 DWORD PTR _Level15Count$[ebp], 0

; 796  : 
; 797  : 	if ( Success != false )

  0226f	0f b6 85 c1 fe
	ff ff		 movzx	 eax, BYTE PTR _Success$[ebp]
  02276	85 c0		 test	 eax, eax
  02278	0f 84 0b 04 00
	00		 je	 $LN104@gObjCalCha

; 798  : 	{
; 799  : 		int in;
; 800  : 
; 801  : 		if ( lpObj->Class == CLASS_MAGUMSA )

  0227e	8b 45 f8	 mov	 eax, DWORD PTR _lpObj$[ebp]
  02281	0f b7 88 b8 00
	00 00		 movzx	 ecx, WORD PTR [eax+184]
  02288	83 f9 03	 cmp	 ecx, 3
  0228b	0f 85 19 02 00
	00		 jne	 $LN138@gObjCalCha

; 802  : 		{
; 803  : 			in = lpObj->pInventory[3].m_Type % MAX_SUBTYPE_ITEMS;

  02291	8b 45 f8	 mov	 eax, DWORD PTR _lpObj$[ebp]
  02294	8b 88 24 0e 00
	00		 mov	 ecx, DWORD PTR [eax+3620]
  0229a	0f bf 91 82 02
	00 00		 movsx	 edx, WORD PTR [ecx+642]
  022a1	81 e2 ff 01 00
	80		 and	 edx, -2147483137	; 800001ffH
  022a7	79 08		 jns	 SHORT $LN325@gObjCalCha
  022a9	4a		 dec	 edx
  022aa	81 ca 00 fe ff
	ff		 or	 edx, -512		; fffffe00H
  022b0	42		 inc	 edx
$LN325@gObjCalCha:
  022b1	89 95 9c fe ff
	ff		 mov	 DWORD PTR _in$232801[ebp], edx

; 804  : 
; 805  : 			if ( in != ITEMGET(0,15) &&
; 806  : 				 in != ITEMGET(0,20) &&
; 807  : 				 in != ITEMGET(0,23) &&
; 808  : 				 in != ITEMGET(0,33) &&
; 809  : 				 in != ITEMGET(0,32) &&
; 810  : 				 in != ITEMGET(0,37) &&
; 811  : 				 //season4 add-on
; 812  : 				 in != ITEMGET(0,47) &&
; 813  : 				 in != ITEMGET(0,48))

  022b7	83 bd 9c fe ff
	ff 0f		 cmp	 DWORD PTR _in$232801[ebp], 15 ; 0000000fH
  022be	74 4b		 je	 SHORT $LN137@gObjCalCha
  022c0	83 bd 9c fe ff
	ff 14		 cmp	 DWORD PTR _in$232801[ebp], 20 ; 00000014H
  022c7	74 42		 je	 SHORT $LN137@gObjCalCha
  022c9	83 bd 9c fe ff
	ff 17		 cmp	 DWORD PTR _in$232801[ebp], 23 ; 00000017H
  022d0	74 39		 je	 SHORT $LN137@gObjCalCha
  022d2	83 bd 9c fe ff
	ff 21		 cmp	 DWORD PTR _in$232801[ebp], 33 ; 00000021H
  022d9	74 30		 je	 SHORT $LN137@gObjCalCha
  022db	83 bd 9c fe ff
	ff 20		 cmp	 DWORD PTR _in$232801[ebp], 32 ; 00000020H
  022e2	74 27		 je	 SHORT $LN137@gObjCalCha
  022e4	83 bd 9c fe ff
	ff 25		 cmp	 DWORD PTR _in$232801[ebp], 37 ; 00000025H
  022eb	74 1e		 je	 SHORT $LN137@gObjCalCha
  022ed	83 bd 9c fe ff
	ff 2f		 cmp	 DWORD PTR _in$232801[ebp], 47 ; 0000002fH
  022f4	74 15		 je	 SHORT $LN137@gObjCalCha
  022f6	83 bd 9c fe ff
	ff 30		 cmp	 DWORD PTR _in$232801[ebp], 48 ; 00000030H
  022fd	74 0c		 je	 SHORT $LN137@gObjCalCha

; 814  : 			{
; 815  : 				Success = false;

  022ff	c6 85 c1 fe ff
	ff 00		 mov	 BYTE PTR _Success$[ebp], 0

; 816  : 			}
; 817  : 			else

  02306	e9 9a 01 00 00	 jmp	 $LN133@gObjCalCha
$LN137@gObjCalCha:

; 818  : 			{
; 819  : 				Level13Count++;

  0230b	8b 85 a8 fe ff
	ff		 mov	 eax, DWORD PTR _Level13Count$[ebp]
  02311	83 c0 01	 add	 eax, 1
  02314	89 85 a8 fe ff
	ff		 mov	 DWORD PTR _Level13Count$[ebp], eax

; 820  : 
; 821  : 				for (int m=3;m<=6;m++)

  0231a	c7 85 98 fe ff
	ff 03 00 00 00	 mov	 DWORD PTR _m$232805[ebp], 3
  02324	eb 0f		 jmp	 SHORT $LN135@gObjCalCha
$LN134@gObjCalCha:
  02326	8b 85 98 fe ff
	ff		 mov	 eax, DWORD PTR _m$232805[ebp]
  0232c	83 c0 01	 add	 eax, 1
  0232f	89 85 98 fe ff
	ff		 mov	 DWORD PTR _m$232805[ebp], eax
$LN135@gObjCalCha:
  02335	83 bd 98 fe ff
	ff 06		 cmp	 DWORD PTR _m$232805[ebp], 6
  0233c	0f 8f 63 01 00
	00		 jg	 $LN133@gObjCalCha

; 822  : 				{
; 823  : 					if ( in != ( lpObj->pInventory[m].m_Type % MAX_SUBTYPE_ITEMS) )

  02342	8b 85 98 fe ff
	ff		 mov	 eax, DWORD PTR _m$232805[ebp]
  02348	69 c0 d4 00 00
	00		 imul	 eax, 212		; 000000d4H
  0234e	8b 4d f8	 mov	 ecx, DWORD PTR _lpObj$[ebp]
  02351	8b 91 24 0e 00
	00		 mov	 edx, DWORD PTR [ecx+3620]
  02357	0f bf 44 02 06	 movsx	 eax, WORD PTR [edx+eax+6]
  0235c	25 ff 01 00 80	 and	 eax, -2147483137	; 800001ffH
  02361	79 07		 jns	 SHORT $LN326@gObjCalCha
  02363	48		 dec	 eax
  02364	0d 00 fe ff ff	 or	 eax, -512		; fffffe00H
  02369	40		 inc	 eax
$LN326@gObjCalCha:
  0236a	39 85 9c fe ff
	ff		 cmp	 DWORD PTR _in$232801[ebp], eax
  02370	74 07		 je	 SHORT $LN132@gObjCalCha

; 824  : 					{
; 825  : 						Success = false;

  02372	c6 85 c1 fe ff
	ff 00		 mov	 BYTE PTR _Success$[ebp], 0
$LN132@gObjCalCha:

; 826  : 					}
; 827  : 					//Season 5 +15 Items
; 828  : 					if ( lpObj->pInventory[m].m_Level > 14 )

  02379	8b 85 98 fe ff
	ff		 mov	 eax, DWORD PTR _m$232805[ebp]
  0237f	69 c0 d4 00 00
	00		 imul	 eax, 212		; 000000d4H
  02385	8b 4d f8	 mov	 ecx, DWORD PTR _lpObj$[ebp]
  02388	8b 91 24 0e 00
	00		 mov	 edx, DWORD PTR [ecx+3620]
  0238e	0f bf 44 02 08	 movsx	 eax, WORD PTR [edx+eax+8]
  02393	83 f8 0e	 cmp	 eax, 14			; 0000000eH
  02396	7e 14		 jle	 SHORT $LN131@gObjCalCha

; 829  : 					{
; 830  : 						Level15Count++;

  02398	8b 85 a0 fe ff
	ff		 mov	 eax, DWORD PTR _Level15Count$[ebp]
  0239e	83 c0 01	 add	 eax, 1
  023a1	89 85 a0 fe ff
	ff		 mov	 DWORD PTR _Level15Count$[ebp], eax
  023a7	e9 f4 00 00 00	 jmp	 $LN121@gObjCalCha
$LN131@gObjCalCha:

; 831  : 					}
; 832  : 					else if ( lpObj->pInventory[m].m_Level > 13 )

  023ac	8b 85 98 fe ff
	ff		 mov	 eax, DWORD PTR _m$232805[ebp]
  023b2	69 c0 d4 00 00
	00		 imul	 eax, 212		; 000000d4H
  023b8	8b 4d f8	 mov	 ecx, DWORD PTR _lpObj$[ebp]
  023bb	8b 91 24 0e 00
	00		 mov	 edx, DWORD PTR [ecx+3620]
  023c1	0f bf 44 02 08	 movsx	 eax, WORD PTR [edx+eax+8]
  023c6	83 f8 0d	 cmp	 eax, 13			; 0000000dH
  023c9	7e 14		 jle	 SHORT $LN129@gObjCalCha

; 833  : 					{
; 834  : 						Level14Count++;

  023cb	8b 85 a4 fe ff
	ff		 mov	 eax, DWORD PTR _Level14Count$[ebp]
  023d1	83 c0 01	 add	 eax, 1
  023d4	89 85 a4 fe ff
	ff		 mov	 DWORD PTR _Level14Count$[ebp], eax
  023da	e9 c1 00 00 00	 jmp	 $LN121@gObjCalCha
$LN129@gObjCalCha:

; 835  : 					}
; 836  : 					else if ( lpObj->pInventory[m].m_Level > 12 )

  023df	8b 85 98 fe ff
	ff		 mov	 eax, DWORD PTR _m$232805[ebp]
  023e5	69 c0 d4 00 00
	00		 imul	 eax, 212		; 000000d4H
  023eb	8b 4d f8	 mov	 ecx, DWORD PTR _lpObj$[ebp]
  023ee	8b 91 24 0e 00
	00		 mov	 edx, DWORD PTR [ecx+3620]
  023f4	0f bf 44 02 08	 movsx	 eax, WORD PTR [edx+eax+8]
  023f9	83 f8 0c	 cmp	 eax, 12			; 0000000cH
  023fc	7e 14		 jle	 SHORT $LN127@gObjCalCha

; 837  : 					{
; 838  : 						Level13Count++;

  023fe	8b 85 a8 fe ff
	ff		 mov	 eax, DWORD PTR _Level13Count$[ebp]
  02404	83 c0 01	 add	 eax, 1
  02407	89 85 a8 fe ff
	ff		 mov	 DWORD PTR _Level13Count$[ebp], eax
  0240d	e9 8e 00 00 00	 jmp	 $LN121@gObjCalCha
$LN127@gObjCalCha:

; 839  : 					}
; 840  : 					else if ( lpObj->pInventory[m].m_Level > 11 )

  02412	8b 85 98 fe ff
	ff		 mov	 eax, DWORD PTR _m$232805[ebp]
  02418	69 c0 d4 00 00
	00		 imul	 eax, 212		; 000000d4H
  0241e	8b 4d f8	 mov	 ecx, DWORD PTR _lpObj$[ebp]
  02421	8b 91 24 0e 00
	00		 mov	 edx, DWORD PTR [ecx+3620]
  02427	0f bf 44 02 08	 movsx	 eax, WORD PTR [edx+eax+8]
  0242c	83 f8 0b	 cmp	 eax, 11			; 0000000bH
  0242f	7e 11		 jle	 SHORT $LN125@gObjCalCha

; 841  : 					{
; 842  : 						Level12Count++;

  02431	8b 85 ac fe ff
	ff		 mov	 eax, DWORD PTR _Level12Count$[ebp]
  02437	83 c0 01	 add	 eax, 1
  0243a	89 85 ac fe ff
	ff		 mov	 DWORD PTR _Level12Count$[ebp], eax
  02440	eb 5e		 jmp	 SHORT $LN121@gObjCalCha
$LN125@gObjCalCha:

; 843  : 					}
; 844  : 					else if ( lpObj->pInventory[m].m_Level > 10 )

  02442	8b 85 98 fe ff
	ff		 mov	 eax, DWORD PTR _m$232805[ebp]
  02448	69 c0 d4 00 00
	00		 imul	 eax, 212		; 000000d4H
  0244e	8b 4d f8	 mov	 ecx, DWORD PTR _lpObj$[ebp]
  02451	8b 91 24 0e 00
	00		 mov	 edx, DWORD PTR [ecx+3620]
  02457	0f bf 44 02 08	 movsx	 eax, WORD PTR [edx+eax+8]
  0245c	83 f8 0a	 cmp	 eax, 10			; 0000000aH
  0245f	7e 11		 jle	 SHORT $LN123@gObjCalCha

; 845  : 					{
; 846  : 						Level11Count++;

  02461	8b 85 b4 fe ff
	ff		 mov	 eax, DWORD PTR _Level11Count$[ebp]
  02467	83 c0 01	 add	 eax, 1
  0246a	89 85 b4 fe ff
	ff		 mov	 DWORD PTR _Level11Count$[ebp], eax
  02470	eb 2e		 jmp	 SHORT $LN121@gObjCalCha
$LN123@gObjCalCha:

; 847  : 					}
; 848  : 					else if ( lpObj->pInventory[m].m_Level > 9 )

  02472	8b 85 98 fe ff
	ff		 mov	 eax, DWORD PTR _m$232805[ebp]
  02478	69 c0 d4 00 00
	00		 imul	 eax, 212		; 000000d4H
  0247e	8b 4d f8	 mov	 ecx, DWORD PTR _lpObj$[ebp]
  02481	8b 91 24 0e 00
	00		 mov	 edx, DWORD PTR [ecx+3620]
  02487	0f bf 44 02 08	 movsx	 eax, WORD PTR [edx+eax+8]
  0248c	83 f8 09	 cmp	 eax, 9
  0248f	7e 0f		 jle	 SHORT $LN121@gObjCalCha

; 849  : 					{
; 850  : 						Level10Count++;

  02491	8b 85 b0 fe ff
	ff		 mov	 eax, DWORD PTR _Level10Count$[ebp]
  02497	83 c0 01	 add	 eax, 1
  0249a	89 85 b0 fe ff
	ff		 mov	 DWORD PTR _Level10Count$[ebp], eax
$LN121@gObjCalCha:

; 851  : 					}
; 852  : 				}

  024a0	e9 81 fe ff ff	 jmp	 $LN134@gObjCalCha
$LN133@gObjCalCha:

; 853  : 			}
; 854  : 		}
; 855  : 		else

  024a5	e9 b1 01 00 00	 jmp	 $LN117@gObjCalCha
$LN138@gObjCalCha:

; 856  : 		{
; 857  : 			in = lpObj->pInventory[2].m_Type % MAX_SUBTYPE_ITEMS;

  024aa	8b 45 f8	 mov	 eax, DWORD PTR _lpObj$[ebp]
  024ad	8b 88 24 0e 00
	00		 mov	 ecx, DWORD PTR [eax+3620]
  024b3	0f bf 91 ae 01
	00 00		 movsx	 edx, WORD PTR [ecx+430]
  024ba	81 e2 ff 01 00
	80		 and	 edx, -2147483137	; 800001ffH
  024c0	79 08		 jns	 SHORT $LN327@gObjCalCha
  024c2	4a		 dec	 edx
  024c3	81 ca 00 fe ff
	ff		 or	 edx, -512		; fffffe00H
  024c9	42		 inc	 edx
$LN327@gObjCalCha:
  024ca	89 95 9c fe ff
	ff		 mov	 DWORD PTR _in$232801[ebp], edx

; 858  : 
; 859  : 			for (int m=2;m<=6;m++)

  024d0	c7 85 94 fe ff
	ff 02 00 00 00	 mov	 DWORD PTR _m$232822[ebp], 2
  024da	eb 0f		 jmp	 SHORT $LN119@gObjCalCha
$LN118@gObjCalCha:
  024dc	8b 85 94 fe ff
	ff		 mov	 eax, DWORD PTR _m$232822[ebp]
  024e2	83 c0 01	 add	 eax, 1
  024e5	89 85 94 fe ff
	ff		 mov	 DWORD PTR _m$232822[ebp], eax
$LN119@gObjCalCha:
  024eb	83 bd 94 fe ff
	ff 06		 cmp	 DWORD PTR _m$232822[ebp], 6
  024f2	0f 8f 63 01 00
	00		 jg	 $LN117@gObjCalCha

; 860  : 			{
; 861  : 				if ( in !=  ( lpObj->pInventory[m].m_Type % MAX_SUBTYPE_ITEMS) )

  024f8	8b 85 94 fe ff
	ff		 mov	 eax, DWORD PTR _m$232822[ebp]
  024fe	69 c0 d4 00 00
	00		 imul	 eax, 212		; 000000d4H
  02504	8b 4d f8	 mov	 ecx, DWORD PTR _lpObj$[ebp]
  02507	8b 91 24 0e 00
	00		 mov	 edx, DWORD PTR [ecx+3620]
  0250d	0f bf 44 02 06	 movsx	 eax, WORD PTR [edx+eax+6]
  02512	25 ff 01 00 80	 and	 eax, -2147483137	; 800001ffH
  02517	79 07		 jns	 SHORT $LN328@gObjCalCha
  02519	48		 dec	 eax
  0251a	0d 00 fe ff ff	 or	 eax, -512		; fffffe00H
  0251f	40		 inc	 eax
$LN328@gObjCalCha:
  02520	39 85 9c fe ff
	ff		 cmp	 DWORD PTR _in$232801[ebp], eax
  02526	74 07		 je	 SHORT $LN116@gObjCalCha

; 862  : 				{
; 863  : 					Success = false;

  02528	c6 85 c1 fe ff
	ff 00		 mov	 BYTE PTR _Success$[ebp], 0
$LN116@gObjCalCha:

; 864  : 				}
; 865  : 				//Season 5 +15 Items
; 866  : 				if ( lpObj->pInventory[m].m_Level > 14 )

  0252f	8b 85 94 fe ff
	ff		 mov	 eax, DWORD PTR _m$232822[ebp]
  02535	69 c0 d4 00 00
	00		 imul	 eax, 212		; 000000d4H
  0253b	8b 4d f8	 mov	 ecx, DWORD PTR _lpObj$[ebp]
  0253e	8b 91 24 0e 00
	00		 mov	 edx, DWORD PTR [ecx+3620]
  02544	0f bf 44 02 08	 movsx	 eax, WORD PTR [edx+eax+8]
  02549	83 f8 0e	 cmp	 eax, 14			; 0000000eH
  0254c	7e 14		 jle	 SHORT $LN115@gObjCalCha

; 867  : 				{
; 868  : 					Level15Count++;

  0254e	8b 85 a0 fe ff
	ff		 mov	 eax, DWORD PTR _Level15Count$[ebp]
  02554	83 c0 01	 add	 eax, 1
  02557	89 85 a0 fe ff
	ff		 mov	 DWORD PTR _Level15Count$[ebp], eax
  0255d	e9 f4 00 00 00	 jmp	 $LN105@gObjCalCha
$LN115@gObjCalCha:

; 869  : 				}
; 870  : 				else if ( lpObj->pInventory[m].m_Level > 13 )

  02562	8b 85 94 fe ff
	ff		 mov	 eax, DWORD PTR _m$232822[ebp]
  02568	69 c0 d4 00 00
	00		 imul	 eax, 212		; 000000d4H
  0256e	8b 4d f8	 mov	 ecx, DWORD PTR _lpObj$[ebp]
  02571	8b 91 24 0e 00
	00		 mov	 edx, DWORD PTR [ecx+3620]
  02577	0f bf 44 02 08	 movsx	 eax, WORD PTR [edx+eax+8]
  0257c	83 f8 0d	 cmp	 eax, 13			; 0000000dH
  0257f	7e 14		 jle	 SHORT $LN113@gObjCalCha

; 871  : 				{
; 872  : 					Level14Count++;

  02581	8b 85 a4 fe ff
	ff		 mov	 eax, DWORD PTR _Level14Count$[ebp]
  02587	83 c0 01	 add	 eax, 1
  0258a	89 85 a4 fe ff
	ff		 mov	 DWORD PTR _Level14Count$[ebp], eax
  02590	e9 c1 00 00 00	 jmp	 $LN105@gObjCalCha
$LN113@gObjCalCha:

; 873  : 				}
; 874  : 				else if ( lpObj->pInventory[m].m_Level > 12 )

  02595	8b 85 94 fe ff
	ff		 mov	 eax, DWORD PTR _m$232822[ebp]
  0259b	69 c0 d4 00 00
	00		 imul	 eax, 212		; 000000d4H
  025a1	8b 4d f8	 mov	 ecx, DWORD PTR _lpObj$[ebp]
  025a4	8b 91 24 0e 00
	00		 mov	 edx, DWORD PTR [ecx+3620]
  025aa	0f bf 44 02 08	 movsx	 eax, WORD PTR [edx+eax+8]
  025af	83 f8 0c	 cmp	 eax, 12			; 0000000cH
  025b2	7e 14		 jle	 SHORT $LN111@gObjCalCha

; 875  : 				{
; 876  : 					Level13Count++;

  025b4	8b 85 a8 fe ff
	ff		 mov	 eax, DWORD PTR _Level13Count$[ebp]
  025ba	83 c0 01	 add	 eax, 1
  025bd	89 85 a8 fe ff
	ff		 mov	 DWORD PTR _Level13Count$[ebp], eax
  025c3	e9 8e 00 00 00	 jmp	 $LN105@gObjCalCha
$LN111@gObjCalCha:

; 877  : 				}
; 878  : 				else if ( lpObj->pInventory[m].m_Level > 11 )

  025c8	8b 85 94 fe ff
	ff		 mov	 eax, DWORD PTR _m$232822[ebp]
  025ce	69 c0 d4 00 00
	00		 imul	 eax, 212		; 000000d4H
  025d4	8b 4d f8	 mov	 ecx, DWORD PTR _lpObj$[ebp]
  025d7	8b 91 24 0e 00
	00		 mov	 edx, DWORD PTR [ecx+3620]
  025dd	0f bf 44 02 08	 movsx	 eax, WORD PTR [edx+eax+8]
  025e2	83 f8 0b	 cmp	 eax, 11			; 0000000bH
  025e5	7e 11		 jle	 SHORT $LN109@gObjCalCha

; 879  : 				{
; 880  : 					Level12Count++;

  025e7	8b 85 ac fe ff
	ff		 mov	 eax, DWORD PTR _Level12Count$[ebp]
  025ed	83 c0 01	 add	 eax, 1
  025f0	89 85 ac fe ff
	ff		 mov	 DWORD PTR _Level12Count$[ebp], eax
  025f6	eb 5e		 jmp	 SHORT $LN105@gObjCalCha
$LN109@gObjCalCha:

; 881  : 				}
; 882  : 				else if ( lpObj->pInventory[m].m_Level > 10 )

  025f8	8b 85 94 fe ff
	ff		 mov	 eax, DWORD PTR _m$232822[ebp]
  025fe	69 c0 d4 00 00
	00		 imul	 eax, 212		; 000000d4H
  02604	8b 4d f8	 mov	 ecx, DWORD PTR _lpObj$[ebp]
  02607	8b 91 24 0e 00
	00		 mov	 edx, DWORD PTR [ecx+3620]
  0260d	0f bf 44 02 08	 movsx	 eax, WORD PTR [edx+eax+8]
  02612	83 f8 0a	 cmp	 eax, 10			; 0000000aH
  02615	7e 11		 jle	 SHORT $LN107@gObjCalCha

; 883  : 				{
; 884  : 					Level11Count++;

  02617	8b 85 b4 fe ff
	ff		 mov	 eax, DWORD PTR _Level11Count$[ebp]
  0261d	83 c0 01	 add	 eax, 1
  02620	89 85 b4 fe ff
	ff		 mov	 DWORD PTR _Level11Count$[ebp], eax
  02626	eb 2e		 jmp	 SHORT $LN105@gObjCalCha
$LN107@gObjCalCha:

; 885  : 				}
; 886  : 				else if ( lpObj->pInventory[m].m_Level > 9 )

  02628	8b 85 94 fe ff
	ff		 mov	 eax, DWORD PTR _m$232822[ebp]
  0262e	69 c0 d4 00 00
	00		 imul	 eax, 212		; 000000d4H
  02634	8b 4d f8	 mov	 ecx, DWORD PTR _lpObj$[ebp]
  02637	8b 91 24 0e 00
	00		 mov	 edx, DWORD PTR [ecx+3620]
  0263d	0f bf 44 02 08	 movsx	 eax, WORD PTR [edx+eax+8]
  02642	83 f8 09	 cmp	 eax, 9
  02645	7e 0f		 jle	 SHORT $LN105@gObjCalCha

; 887  : 				{
; 888  : 					Level10Count++;

  02647	8b 85 b0 fe ff
	ff		 mov	 eax, DWORD PTR _Level10Count$[ebp]
  0264d	83 c0 01	 add	 eax, 1
  02650	89 85 b0 fe ff
	ff		 mov	 DWORD PTR _Level10Count$[ebp], eax
$LN105@gObjCalCha:

; 889  : 				}
; 890  : 			}

  02656	e9 81 fe ff ff	 jmp	 $LN118@gObjCalCha
$LN117@gObjCalCha:

; 891  : 		}
; 892  : 
; 893  : 		if ( Success != false )

  0265b	0f b6 85 c1 fe
	ff ff		 movzx	 eax, BYTE PTR _Success$[ebp]
  02662	85 c0		 test	 eax, eax
  02664	74 23		 je	 SHORT $LN104@gObjCalCha

; 894  : 		{
; 895  : 			lpObj->m_SuccessfulBlocking += lpObj->m_SuccessfulBlocking / 10;

  02666	8b 45 f8	 mov	 eax, DWORD PTR _lpObj$[ebp]
  02669	8b 80 9c 04 00
	00		 mov	 eax, DWORD PTR [eax+1180]
  0266f	99		 cdq
  02670	b9 0a 00 00 00	 mov	 ecx, 10			; 0000000aH
  02675	f7 f9		 idiv	 ecx
  02677	8b 55 f8	 mov	 edx, DWORD PTR _lpObj$[ebp]
  0267a	03 82 9c 04 00
	00		 add	 eax, DWORD PTR [edx+1180]
  02680	8b 4d f8	 mov	 ecx, DWORD PTR _lpObj$[ebp]
  02683	89 81 9c 04 00
	00		 mov	 DWORD PTR [ecx+1180], eax
$LN104@gObjCalCha:

; 896  : 		}
; 897  : 	}
; 898  : 
; 899  : 	if( lpObj->m_MPSkillOpt.MpsBlockingRate > 0.0f )

  02689	8b 45 f8	 mov	 eax, DWORD PTR _lpObj$[ebp]
  0268c	d9 80 38 26 00
	00		 fld	 DWORD PTR [eax+9784]
  02692	dc 1d 00 00 00
	00		 fcomp	 QWORD PTR __real@0000000000000000
  02698	df e0		 fnstsw	 ax
  0269a	f6 c4 41	 test	 ah, 65			; 00000041H
  0269d	75 2f		 jne	 SHORT $LN103@gObjCalCha

; 900  : 	{
; 901  : 		lpObj->m_SuccessfulBlocking += lpObj->m_SuccessfulBlocking / 100.0f * lpObj->m_MPSkillOpt.MpsBlockingRate;

  0269f	8b 45 f8	 mov	 eax, DWORD PTR _lpObj$[ebp]
  026a2	db 80 9c 04 00
	00		 fild	 DWORD PTR [eax+1180]
  026a8	dc 35 00 00 00
	00		 fdiv	 QWORD PTR __real@4059000000000000
  026ae	8b 4d f8	 mov	 ecx, DWORD PTR _lpObj$[ebp]
  026b1	d8 89 38 26 00
	00		 fmul	 DWORD PTR [ecx+9784]
  026b7	8b 55 f8	 mov	 edx, DWORD PTR _lpObj$[ebp]
  026ba	da 82 9c 04 00
	00		 fiadd	 DWORD PTR [edx+1180]
  026c0	e8 00 00 00 00	 call	 __ftol2_sse
  026c5	8b 4d f8	 mov	 ecx, DWORD PTR _lpObj$[ebp]
  026c8	89 81 9c 04 00
	00		 mov	 DWORD PTR [ecx+1180], eax
$LN103@gObjCalCha:

; 902  : 	}
; 903  : 
; 904  : 	lpObj->m_SuccessfulBlocking += lpObj->m_MPSkillOpt.MpsShieldMastery;

  026ce	8b 45 f8	 mov	 eax, DWORD PTR _lpObj$[ebp]
  026d1	db 80 9c 04 00
	00		 fild	 DWORD PTR [eax+1180]
  026d7	8b 4d f8	 mov	 ecx, DWORD PTR _lpObj$[ebp]
  026da	d8 81 a8 26 00
	00		 fadd	 DWORD PTR [ecx+9896]
  026e0	e8 00 00 00 00	 call	 __ftol2_sse
  026e5	8b 55 f8	 mov	 edx, DWORD PTR _lpObj$[ebp]
  026e8	89 82 9c 04 00
	00		 mov	 DWORD PTR [edx+1180], eax

; 905  : 	//lpObj->m_SuccessfulBlocking += lpObj->m_MPSkillOpt.MpsShieldMastery2;
; 906  : 	lpObj->m_SuccessfulBlocking += lpObj->m_MPSkillOpt.MpsShieldMastery3;

  026ee	8b 45 f8	 mov	 eax, DWORD PTR _lpObj$[ebp]
  026f1	db 80 9c 04 00
	00		 fild	 DWORD PTR [eax+1180]
  026f7	8b 4d f8	 mov	 ecx, DWORD PTR _lpObj$[ebp]
  026fa	d8 81 1c 27 00
	00		 fadd	 DWORD PTR [ecx+10012]
  02700	e8 00 00 00 00	 call	 __ftol2_sse
  02705	8b 55 f8	 mov	 edx, DWORD PTR _lpObj$[ebp]
  02708	89 82 9c 04 00
	00		 mov	 DWORD PTR [edx+1180], eax

; 907  : 
; 908  : 	if ( lpObj->Class == CLASS_ELF )

  0270e	8b 45 f8	 mov	 eax, DWORD PTR _lpObj$[ebp]
  02711	0f b7 88 b8 00
	00 00		 movzx	 ecx, WORD PTR [eax+184]
  02718	83 f9 02	 cmp	 ecx, 2
  0271b	75 18		 jne	 SHORT $LN102@gObjCalCha

; 909  : 	{
; 910  : 		//int Defense = GetPrivateProfileInt("Fairy_Elf","Defense",10,"..\\Data\\ExData\\Character.ini");
; 911  : 		lpObj->m_Defense = Dexterity / ExConfig.Character.ELFDefense;

  0271d	8b 45 f0	 mov	 eax, DWORD PTR _Dexterity$[ebp]
  02720	99		 cdq
  02721	f7 3d 48 02 00
	00		 idiv	 DWORD PTR ?ExConfig@@3VcExConfigs@@A+584
  02727	8b 4d f8	 mov	 ecx, DWORD PTR _lpObj$[ebp]
  0272a	89 81 94 04 00
	00		 mov	 DWORD PTR [ecx+1172], eax
  02730	e9 f5 00 00 00	 jmp	 $LN89@gObjCalCha
$LN102@gObjCalCha:

; 912  : 	}
; 913  : 	else if ( lpObj->Class == CLASS_KNIGHT )

  02735	8b 45 f8	 mov	 eax, DWORD PTR _lpObj$[ebp]
  02738	0f b7 88 b8 00
	00 00		 movzx	 ecx, WORD PTR [eax+184]
  0273f	83 f9 01	 cmp	 ecx, 1
  02742	75 18		 jne	 SHORT $LN100@gObjCalCha

; 914  : 	{
; 915  : 		//int Defense = GetPrivateProfileInt("Dark_Knight","Defense",3,"..\\Data\\ExData\\Character.ini");
; 916  : 		lpObj->m_Defense = Dexterity / ExConfig.Character.DKDefense;

  02744	8b 45 f0	 mov	 eax, DWORD PTR _Dexterity$[ebp]
  02747	99		 cdq
  02748	f7 3d 4c 02 00
	00		 idiv	 DWORD PTR ?ExConfig@@3VcExConfigs@@A+588
  0274e	8b 4d f8	 mov	 ecx, DWORD PTR _lpObj$[ebp]
  02751	89 81 94 04 00
	00		 mov	 DWORD PTR [ecx+1172], eax
  02757	e9 ce 00 00 00	 jmp	 $LN89@gObjCalCha
$LN100@gObjCalCha:

; 917  : 	}
; 918  : 	else if ( lpObj->Class == CLASS_DARKLORD )

  0275c	8b 45 f8	 mov	 eax, DWORD PTR _lpObj$[ebp]
  0275f	0f b7 88 b8 00
	00 00		 movzx	 ecx, WORD PTR [eax+184]
  02766	83 f9 04	 cmp	 ecx, 4
  02769	75 18		 jne	 SHORT $LN98@gObjCalCha

; 919  : 	{
; 920  : 		//int Defense = GetPrivateProfileInt("Dark_Lord","Defense",7,"..\\Data\\ExData\\Character.ini");
; 921  : 		lpObj->m_Defense = Dexterity / ExConfig.Character.DLDefense;

  0276b	8b 45 f0	 mov	 eax, DWORD PTR _Dexterity$[ebp]
  0276e	99		 cdq
  0276f	f7 3d 50 02 00
	00		 idiv	 DWORD PTR ?ExConfig@@3VcExConfigs@@A+592
  02775	8b 4d f8	 mov	 ecx, DWORD PTR _lpObj$[ebp]
  02778	89 81 94 04 00
	00		 mov	 DWORD PTR [ecx+1172], eax
  0277e	e9 a7 00 00 00	 jmp	 $LN89@gObjCalCha
$LN98@gObjCalCha:

; 922  : 	}
; 923  : 	else if ( lpObj->Class == CLASS_SUMMONER ) //strong like BK

  02783	8b 45 f8	 mov	 eax, DWORD PTR _lpObj$[ebp]
  02786	0f b7 88 b8 00
	00 00		 movzx	 ecx, WORD PTR [eax+184]
  0278d	83 f9 05	 cmp	 ecx, 5
  02790	75 18		 jne	 SHORT $LN96@gObjCalCha

; 924  : 	{
; 925  : 		//int Defense = GetPrivateProfileInt("Summoner","Defense",3,"..\\Data\\ExData\\Character.ini");
; 926  : 		lpObj->m_Defense = Dexterity / ExConfig.Character.SUMDefense;

  02792	8b 45 f0	 mov	 eax, DWORD PTR _Dexterity$[ebp]
  02795	99		 cdq
  02796	f7 3d 54 02 00
	00		 idiv	 DWORD PTR ?ExConfig@@3VcExConfigs@@A+596
  0279c	8b 4d f8	 mov	 ecx, DWORD PTR _lpObj$[ebp]
  0279f	89 81 94 04 00
	00		 mov	 DWORD PTR [ecx+1172], eax
  027a5	e9 80 00 00 00	 jmp	 $LN89@gObjCalCha
$LN96@gObjCalCha:

; 927  : 	}
; 928  : 	else if ( lpObj->Class == CLASS_MAGUMSA ) //MG

  027aa	8b 45 f8	 mov	 eax, DWORD PTR _lpObj$[ebp]
  027ad	0f b7 88 b8 00
	00 00		 movzx	 ecx, WORD PTR [eax+184]
  027b4	83 f9 03	 cmp	 ecx, 3
  027b7	75 15		 jne	 SHORT $LN94@gObjCalCha

; 929  : 	{
; 930  : 		//int Defense = GetPrivateProfileInt("Magic_Gladiator","Defense",4,"..\\Data\\ExData\\Character.ini");
; 931  : 		lpObj->m_Defense = Dexterity / ExConfig.Character.MGDefense;

  027b9	8b 45 f0	 mov	 eax, DWORD PTR _Dexterity$[ebp]
  027bc	99		 cdq
  027bd	f7 3d 58 02 00
	00		 idiv	 DWORD PTR ?ExConfig@@3VcExConfigs@@A+600
  027c3	8b 4d f8	 mov	 ecx, DWORD PTR _lpObj$[ebp]
  027c6	89 81 94 04 00
	00		 mov	 DWORD PTR [ecx+1172], eax
  027cc	eb 5c		 jmp	 SHORT $LN89@gObjCalCha
$LN94@gObjCalCha:

; 932  : 	}
; 933  : 	else if ( lpObj->Class == CLASS_WIZARD ) //DW

  027ce	8b 45 f8	 mov	 eax, DWORD PTR _lpObj$[ebp]
  027d1	0f b7 88 b8 00
	00 00		 movzx	 ecx, WORD PTR [eax+184]
  027d8	85 c9		 test	 ecx, ecx
  027da	75 15		 jne	 SHORT $LN92@gObjCalCha

; 934  : 	{
; 935  : 		//int Defense = GetPrivateProfileInt("Dark_Wizard","Defense",4,"..\\Data\\ExData\\Character.ini");
; 936  : 		lpObj->m_Defense = Dexterity / ExConfig.Character.DWDefense;

  027dc	8b 45 f0	 mov	 eax, DWORD PTR _Dexterity$[ebp]
  027df	99		 cdq
  027e0	f7 3d 5c 02 00
	00		 idiv	 DWORD PTR ?ExConfig@@3VcExConfigs@@A+604
  027e6	8b 4d f8	 mov	 ecx, DWORD PTR _lpObj$[ebp]
  027e9	89 81 94 04 00
	00		 mov	 DWORD PTR [ecx+1172], eax
  027ef	eb 39		 jmp	 SHORT $LN89@gObjCalCha
$LN92@gObjCalCha:

; 937  : 	}
; 938  : #ifdef MONK
; 939  : 	else if( lpObj->Class == CLASS_MONK )

  027f1	8b 45 f8	 mov	 eax, DWORD PTR _lpObj$[ebp]
  027f4	0f b7 88 b8 00
	00 00		 movzx	 ecx, WORD PTR [eax+184]
  027fb	83 f9 06	 cmp	 ecx, 6
  027fe	75 15		 jne	 SHORT $LN90@gObjCalCha

; 940  : 	{
; 941  : 		lpObj->m_Defense = Dexterity / ExConfig.Character.RFDefense;

  02800	8b 45 f0	 mov	 eax, DWORD PTR _Dexterity$[ebp]
  02803	99		 cdq
  02804	f7 3d 84 02 00
	00		 idiv	 DWORD PTR ?ExConfig@@3VcExConfigs@@A+644
  0280a	8b 4d f8	 mov	 ecx, DWORD PTR _lpObj$[ebp]
  0280d	89 81 94 04 00
	00		 mov	 DWORD PTR [ecx+1172], eax

; 942  : 	}
; 943  : #endif
; 944  : 	else

  02813	eb 15		 jmp	 SHORT $LN89@gObjCalCha
$LN90@gObjCalCha:

; 945  : 	{
; 946  : 		lpObj->m_Defense = Dexterity / 4;

  02815	8b 45 f0	 mov	 eax, DWORD PTR _Dexterity$[ebp]
  02818	99		 cdq
  02819	83 e2 03	 and	 edx, 3
  0281c	03 c2		 add	 eax, edx
  0281e	c1 f8 02	 sar	 eax, 2
  02821	8b 4d f8	 mov	 ecx, DWORD PTR _lpObj$[ebp]
  02824	89 81 94 04 00
	00		 mov	 DWORD PTR [ecx+1172], eax
$LN89@gObjCalCha:

; 947  : 	}
; 948  : 
; 949  : 
; 950  : 
; 951  : 	lpObj->m_Defense += lpObj->pInventory[2].ItemDefense();

  0282a	8b 45 f8	 mov	 eax, DWORD PTR _lpObj$[ebp]
  0282d	8b 88 24 0e 00
	00		 mov	 ecx, DWORD PTR [eax+3620]
  02833	81 c1 a8 01 00
	00		 add	 ecx, 424		; 000001a8H
  02839	e8 00 00 00 00	 call	 ?ItemDefense@CItem@@QAEHXZ ; CItem::ItemDefense
  0283e	8b 4d f8	 mov	 ecx, DWORD PTR _lpObj$[ebp]
  02841	03 81 94 04 00
	00		 add	 eax, DWORD PTR [ecx+1172]
  02847	8b 55 f8	 mov	 edx, DWORD PTR _lpObj$[ebp]
  0284a	89 82 94 04 00
	00		 mov	 DWORD PTR [edx+1172], eax

; 952  : 	lpObj->m_Defense += lpObj->pInventory[3].ItemDefense();

  02850	8b 45 f8	 mov	 eax, DWORD PTR _lpObj$[ebp]
  02853	8b 88 24 0e 00
	00		 mov	 ecx, DWORD PTR [eax+3620]
  02859	81 c1 7c 02 00
	00		 add	 ecx, 636		; 0000027cH
  0285f	e8 00 00 00 00	 call	 ?ItemDefense@CItem@@QAEHXZ ; CItem::ItemDefense
  02864	8b 4d f8	 mov	 ecx, DWORD PTR _lpObj$[ebp]
  02867	03 81 94 04 00
	00		 add	 eax, DWORD PTR [ecx+1172]
  0286d	8b 55 f8	 mov	 edx, DWORD PTR _lpObj$[ebp]
  02870	89 82 94 04 00
	00		 mov	 DWORD PTR [edx+1172], eax

; 953  : 	lpObj->m_Defense += lpObj->pInventory[4].ItemDefense();

  02876	8b 45 f8	 mov	 eax, DWORD PTR _lpObj$[ebp]
  02879	8b 88 24 0e 00
	00		 mov	 ecx, DWORD PTR [eax+3620]
  0287f	81 c1 50 03 00
	00		 add	 ecx, 848		; 00000350H
  02885	e8 00 00 00 00	 call	 ?ItemDefense@CItem@@QAEHXZ ; CItem::ItemDefense
  0288a	8b 4d f8	 mov	 ecx, DWORD PTR _lpObj$[ebp]
  0288d	03 81 94 04 00
	00		 add	 eax, DWORD PTR [ecx+1172]
  02893	8b 55 f8	 mov	 edx, DWORD PTR _lpObj$[ebp]
  02896	89 82 94 04 00
	00		 mov	 DWORD PTR [edx+1172], eax

; 954  : 	lpObj->m_Defense += lpObj->pInventory[5].ItemDefense();

  0289c	8b 45 f8	 mov	 eax, DWORD PTR _lpObj$[ebp]
  0289f	8b 88 24 0e 00
	00		 mov	 ecx, DWORD PTR [eax+3620]
  028a5	81 c1 24 04 00
	00		 add	 ecx, 1060		; 00000424H
  028ab	e8 00 00 00 00	 call	 ?ItemDefense@CItem@@QAEHXZ ; CItem::ItemDefense
  028b0	8b 4d f8	 mov	 ecx, DWORD PTR _lpObj$[ebp]
  028b3	03 81 94 04 00
	00		 add	 eax, DWORD PTR [ecx+1172]
  028b9	8b 55 f8	 mov	 edx, DWORD PTR _lpObj$[ebp]
  028bc	89 82 94 04 00
	00		 mov	 DWORD PTR [edx+1172], eax

; 955  : 	lpObj->m_Defense += lpObj->pInventory[6].ItemDefense();

  028c2	8b 45 f8	 mov	 eax, DWORD PTR _lpObj$[ebp]
  028c5	8b 88 24 0e 00
	00		 mov	 ecx, DWORD PTR [eax+3620]
  028cb	81 c1 f8 04 00
	00		 add	 ecx, 1272		; 000004f8H
  028d1	e8 00 00 00 00	 call	 ?ItemDefense@CItem@@QAEHXZ ; CItem::ItemDefense
  028d6	8b 4d f8	 mov	 ecx, DWORD PTR _lpObj$[ebp]
  028d9	03 81 94 04 00
	00		 add	 eax, DWORD PTR [ecx+1172]
  028df	8b 55 f8	 mov	 edx, DWORD PTR _lpObj$[ebp]
  028e2	89 82 94 04 00
	00		 mov	 DWORD PTR [edx+1172], eax

; 956  : 	lpObj->m_Defense += lpObj->pInventory[1].ItemDefense();

  028e8	8b 45 f8	 mov	 eax, DWORD PTR _lpObj$[ebp]
  028eb	8b 88 24 0e 00
	00		 mov	 ecx, DWORD PTR [eax+3620]
  028f1	81 c1 d4 00 00
	00		 add	 ecx, 212		; 000000d4H
  028f7	e8 00 00 00 00	 call	 ?ItemDefense@CItem@@QAEHXZ ; CItem::ItemDefense
  028fc	8b 4d f8	 mov	 ecx, DWORD PTR _lpObj$[ebp]
  028ff	03 81 94 04 00
	00		 add	 eax, DWORD PTR [ecx+1172]
  02905	8b 55 f8	 mov	 edx, DWORD PTR _lpObj$[ebp]
  02908	89 82 94 04 00
	00		 mov	 DWORD PTR [edx+1172], eax

; 957  : 	lpObj->m_Defense += lpObj->pInventory[7].ItemDefense();

  0290e	8b 45 f8	 mov	 eax, DWORD PTR _lpObj$[ebp]
  02911	8b 88 24 0e 00
	00		 mov	 ecx, DWORD PTR [eax+3620]
  02917	81 c1 cc 05 00
	00		 add	 ecx, 1484		; 000005ccH
  0291d	e8 00 00 00 00	 call	 ?ItemDefense@CItem@@QAEHXZ ; CItem::ItemDefense
  02922	8b 4d f8	 mov	 ecx, DWORD PTR _lpObj$[ebp]
  02925	03 81 94 04 00
	00		 add	 eax, DWORD PTR [ecx+1172]
  0292b	8b 55 f8	 mov	 edx, DWORD PTR _lpObj$[ebp]
  0292e	89 82 94 04 00
	00		 mov	 DWORD PTR [edx+1172], eax

; 958  : 
; 959  : 	if ( lpObj->pInventory[8].IsItem() != FALSE )

  02934	8b 45 f8	 mov	 eax, DWORD PTR _lpObj$[ebp]
  02937	8b 88 24 0e 00
	00		 mov	 ecx, DWORD PTR [eax+3620]
  0293d	81 c1 a0 06 00
	00		 add	 ecx, 1696		; 000006a0H
  02943	e8 00 00 00 00	 call	 ?IsItem@CItem@@QAEHXZ	; CItem::IsItem
  02948	85 c0		 test	 eax, eax
  0294a	74 5e		 je	 SHORT $LN87@gObjCalCha

; 960  : 	{
; 961  : 		if ( lpObj->pInventory[8].m_Type == ITEMGET(13,4) && lpObj->pInventory[8].m_Durability > 0.0f )

  0294c	8b 45 f8	 mov	 eax, DWORD PTR _lpObj$[ebp]
  0294f	8b 88 24 0e 00
	00		 mov	 ecx, DWORD PTR [eax+3620]
  02955	0f bf 91 a6 06
	00 00		 movsx	 edx, WORD PTR [ecx+1702]
  0295c	81 fa 04 1a 00
	00		 cmp	 edx, 6660		; 00001a04H
  02962	75 46		 jne	 SHORT $LN87@gObjCalCha
  02964	8b 45 f8	 mov	 eax, DWORD PTR _lpObj$[ebp]
  02967	8b 88 24 0e 00
	00		 mov	 ecx, DWORD PTR [eax+3620]
  0296d	d9 81 c4 06 00
	00		 fld	 DWORD PTR [ecx+1732]
  02973	dc 1d 00 00 00
	00		 fcomp	 QWORD PTR __real@0000000000000000
  02979	df e0		 fnstsw	 ax
  0297b	f6 c4 41	 test	 ah, 65			; 00000041H
  0297e	75 2a		 jne	 SHORT $LN87@gObjCalCha

; 962  : 		{
; 963  : 			lpObj->m_Defense += INT( Dexterity / 20 + 5 + Helper->m_PetItem_Level * 2 );

  02980	8b 45 f0	 mov	 eax, DWORD PTR _Dexterity$[ebp]
  02983	99		 cdq
  02984	b9 14 00 00 00	 mov	 ecx, 20			; 00000014H
  02989	f7 f9		 idiv	 ecx
  0298b	8b 55 d4	 mov	 edx, DWORD PTR _Helper$[ebp]
  0298e	8b 8a bc 00 00
	00		 mov	 ecx, DWORD PTR [edx+188]
  02994	8d 54 48 05	 lea	 edx, DWORD PTR [eax+ecx*2+5]
  02998	8b 45 f8	 mov	 eax, DWORD PTR _lpObj$[ebp]
  0299b	03 90 94 04 00
	00		 add	 edx, DWORD PTR [eax+1172]
  029a1	8b 4d f8	 mov	 ecx, DWORD PTR _lpObj$[ebp]
  029a4	89 91 94 04 00
	00		 mov	 DWORD PTR [ecx+1172], edx
$LN87@gObjCalCha:

; 964  : 		}
; 965  : 	}
; 966  : 
; 967  : 	if ( lpObj->pInventory[8].IsItem() != FALSE )

  029aa	8b 45 f8	 mov	 eax, DWORD PTR _lpObj$[ebp]
  029ad	8b 88 24 0e 00
	00		 mov	 ecx, DWORD PTR [eax+3620]
  029b3	81 c1 a0 06 00
	00		 add	 ecx, 1696		; 000006a0H
  029b9	e8 00 00 00 00	 call	 ?IsItem@CItem@@QAEHXZ	; CItem::IsItem
  029be	85 c0		 test	 eax, eax
  029c0	0f 84 48 08 00
	00		 je	 $LN74@gObjCalCha

; 968  : 	{
; 969  : 		if ( lpObj->pInventory[8].m_Type == ITEMGET(13,37) && lpObj->pInventory[8].m_Durability > 0.0f ) // Golden Fenrir (Season 2.5 add-on)

  029c6	8b 45 f8	 mov	 eax, DWORD PTR _lpObj$[ebp]
  029c9	8b 88 24 0e 00
	00		 mov	 ecx, DWORD PTR [eax+3620]
  029cf	0f bf 91 a6 06
	00 00		 movsx	 edx, WORD PTR [ecx+1702]
  029d6	81 fa 25 1a 00
	00		 cmp	 edx, 6693		; 00001a25H
  029dc	0f 85 2c 08 00
	00		 jne	 $LN74@gObjCalCha
  029e2	8b 45 f8	 mov	 eax, DWORD PTR _lpObj$[ebp]
  029e5	8b 88 24 0e 00
	00		 mov	 ecx, DWORD PTR [eax+3620]
  029eb	d9 81 c4 06 00
	00		 fld	 DWORD PTR [ecx+1732]
  029f1	dc 1d 00 00 00
	00		 fcomp	 QWORD PTR __real@0000000000000000
  029f7	df e0		 fnstsw	 ax
  029f9	f6 c4 41	 test	 ah, 65			; 00000041H
  029fc	0f 85 0c 08 00
	00		 jne	 $LN74@gObjCalCha

; 970  : 		{
; 971  : 			if ( lpObj->pInventory[8].IsFenrirSpecial() != FALSE )

  02a02	8b 45 f8	 mov	 eax, DWORD PTR _lpObj$[ebp]
  02a05	8b 88 24 0e 00
	00		 mov	 ecx, DWORD PTR [eax+3620]
  02a0b	81 c1 a0 06 00
	00		 add	 ecx, 1696		; 000006a0H
  02a11	e8 00 00 00 00	 call	 ?IsFenrirSpecial@CItem@@QAEHXZ ; CItem::IsFenrirSpecial
  02a16	85 c0		 test	 eax, eax
  02a18	0f 84 26 02 00
	00		 je	 $LN83@gObjCalCha

; 972  : 			{
; 973  : 
; 974  : 				int BaseLevel = lpObj->Level + lpObj->MLevel;

  02a1e	8b 45 f8	 mov	 eax, DWORD PTR _lpObj$[ebp]
  02a21	0f bf 88 be 00
	00 00		 movsx	 ecx, WORD PTR [eax+190]
  02a28	8b 55 f8	 mov	 edx, DWORD PTR _lpObj$[ebp]
  02a2b	0f bf 82 d0 00
	00 00		 movsx	 eax, WORD PTR [edx+208]
  02a32	03 c8		 add	 ecx, eax
  02a34	89 8d 90 fe ff
	ff		 mov	 DWORD PTR _BaseLevel$232859[ebp], ecx

; 975  : 
; 976  : 				lpObj->AddLife += BaseLevel/2; //season3 changed

  02a3a	8b 85 90 fe ff
	ff		 mov	 eax, DWORD PTR _BaseLevel$232859[ebp]
  02a40	99		 cdq
  02a41	2b c2		 sub	 eax, edx
  02a43	d1 f8		 sar	 eax, 1
  02a45	8b 4d f8	 mov	 ecx, DWORD PTR _lpObj$[ebp]
  02a48	03 81 4c 01 00
	00		 add	 eax, DWORD PTR [ecx+332]
  02a4e	8b 55 f8	 mov	 edx, DWORD PTR _lpObj$[ebp]
  02a51	89 82 4c 01 00
	00		 mov	 DWORD PTR [edx+332], eax

; 977  : 				lpObj->AddMana += BaseLevel/2; //season3 changed

  02a57	8b 85 90 fe ff
	ff		 mov	 eax, DWORD PTR _BaseLevel$232859[ebp]
  02a5d	99		 cdq
  02a5e	2b c2		 sub	 eax, edx
  02a60	d1 f8		 sar	 eax, 1
  02a62	8b 4d f8	 mov	 ecx, DWORD PTR _lpObj$[ebp]
  02a65	03 81 50 01 00
	00		 add	 eax, DWORD PTR [ecx+336]
  02a6b	8b 55 f8	 mov	 edx, DWORD PTR _lpObj$[ebp]
  02a6e	89 82 50 01 00
	00		 mov	 DWORD PTR [edx+336], eax

; 978  : 
; 979  : 
; 980  : 				lpObj->m_AttackDamageMinRight += BaseLevel/12;

  02a74	8b 85 90 fe ff
	ff		 mov	 eax, DWORD PTR _BaseLevel$232859[ebp]
  02a7a	99		 cdq
  02a7b	b9 0c 00 00 00	 mov	 ecx, 12			; 0000000cH
  02a80	f7 f9		 idiv	 ecx
  02a82	8b 55 f8	 mov	 edx, DWORD PTR _lpObj$[ebp]
  02a85	03 82 84 04 00
	00		 add	 eax, DWORD PTR [edx+1156]
  02a8b	8b 4d f8	 mov	 ecx, DWORD PTR _lpObj$[ebp]
  02a8e	89 81 84 04 00
	00		 mov	 DWORD PTR [ecx+1156], eax

; 981  : 				lpObj->m_AttackDamageMaxRight += BaseLevel/12;

  02a94	8b 85 90 fe ff
	ff		 mov	 eax, DWORD PTR _BaseLevel$232859[ebp]
  02a9a	99		 cdq
  02a9b	b9 0c 00 00 00	 mov	 ecx, 12			; 0000000cH
  02aa0	f7 f9		 idiv	 ecx
  02aa2	8b 55 f8	 mov	 edx, DWORD PTR _lpObj$[ebp]
  02aa5	03 82 80 04 00
	00		 add	 eax, DWORD PTR [edx+1152]
  02aab	8b 4d f8	 mov	 ecx, DWORD PTR _lpObj$[ebp]
  02aae	89 81 80 04 00
	00		 mov	 DWORD PTR [ecx+1152], eax

; 982  : 
; 983  : 				lpObj->m_AttackDamageMinLeft += BaseLevel/12;

  02ab4	8b 85 90 fe ff
	ff		 mov	 eax, DWORD PTR _BaseLevel$232859[ebp]
  02aba	99		 cdq
  02abb	b9 0c 00 00 00	 mov	 ecx, 12			; 0000000cH
  02ac0	f7 f9		 idiv	 ecx
  02ac2	8b 55 f8	 mov	 edx, DWORD PTR _lpObj$[ebp]
  02ac5	03 82 7c 04 00
	00		 add	 eax, DWORD PTR [edx+1148]
  02acb	8b 4d f8	 mov	 ecx, DWORD PTR _lpObj$[ebp]
  02ace	89 81 7c 04 00
	00		 mov	 DWORD PTR [ecx+1148], eax

; 984  : 				lpObj->m_AttackDamageMaxLeft += BaseLevel/12;

  02ad4	8b 85 90 fe ff
	ff		 mov	 eax, DWORD PTR _BaseLevel$232859[ebp]
  02ada	99		 cdq
  02adb	b9 0c 00 00 00	 mov	 ecx, 12			; 0000000cH
  02ae0	f7 f9		 idiv	 ecx
  02ae2	8b 55 f8	 mov	 edx, DWORD PTR _lpObj$[ebp]
  02ae5	03 82 78 04 00
	00		 add	 eax, DWORD PTR [edx+1144]
  02aeb	8b 4d f8	 mov	 ecx, DWORD PTR _lpObj$[ebp]
  02aee	89 81 78 04 00
	00		 mov	 DWORD PTR [ecx+1144], eax

; 985  : 
; 986  : 				lpObj->m_MagicDamageMax += BaseLevel/25;

  02af4	8b 85 90 fe ff
	ff		 mov	 eax, DWORD PTR _BaseLevel$232859[ebp]
  02afa	99		 cdq
  02afb	b9 19 00 00 00	 mov	 ecx, 25			; 00000019H
  02b00	f7 f9		 idiv	 ecx
  02b02	8b 55 f8	 mov	 edx, DWORD PTR _lpObj$[ebp]
  02b05	03 82 6c 04 00
	00		 add	 eax, DWORD PTR [edx+1132]
  02b0b	8b 4d f8	 mov	 ecx, DWORD PTR _lpObj$[ebp]
  02b0e	89 81 6c 04 00
	00		 mov	 DWORD PTR [ecx+1132], eax

; 987  : 				lpObj->m_MagicDamageMin += BaseLevel/25;

  02b14	8b 85 90 fe ff
	ff		 mov	 eax, DWORD PTR _BaseLevel$232859[ebp]
  02b1a	99		 cdq
  02b1b	b9 19 00 00 00	 mov	 ecx, 25			; 00000019H
  02b20	f7 f9		 idiv	 ecx
  02b22	8b 55 f8	 mov	 edx, DWORD PTR _lpObj$[ebp]
  02b25	03 82 68 04 00
	00		 add	 eax, DWORD PTR [edx+1128]
  02b2b	8b 4d f8	 mov	 ecx, DWORD PTR _lpObj$[ebp]
  02b2e	89 81 68 04 00
	00		 mov	 DWORD PTR [ecx+1128], eax

; 988  : #ifdef FENRIR_CONFIG
; 989  : 				//illusian
; 990  : 
; 991  : 				if(g_ExLicense.CheckUser(eExUB::PrideMuLocal) || g_ExLicense.CheckUser(eExUB::PrideMu) || g_ExLicense.CheckUser(eExUB::Local3) || g_ExLicense.CheckUser(eExUB::Local))

  02b34	6a 1a		 push	 26			; 0000001aH
  02b36	b9 00 00 00 00	 mov	 ecx, OFFSET ?g_ExLicense@@3VCExLicense@@A ; g_ExLicense
  02b3b	e8 00 00 00 00	 call	 ?CheckUser@CExLicense@@QAE_NH@Z ; CExLicense::CheckUser
  02b40	0f b6 c0	 movzx	 eax, al
  02b43	85 c0		 test	 eax, eax
  02b45	75 3d		 jne	 SHORT $LN82@gObjCalCha
  02b47	6a 11		 push	 17			; 00000011H
  02b49	b9 00 00 00 00	 mov	 ecx, OFFSET ?g_ExLicense@@3VCExLicense@@A ; g_ExLicense
  02b4e	e8 00 00 00 00	 call	 ?CheckUser@CExLicense@@QAE_NH@Z ; CExLicense::CheckUser
  02b53	0f b6 c0	 movzx	 eax, al
  02b56	85 c0		 test	 eax, eax
  02b58	75 2a		 jne	 SHORT $LN82@gObjCalCha
  02b5a	6a 1c		 push	 28			; 0000001cH
  02b5c	b9 00 00 00 00	 mov	 ecx, OFFSET ?g_ExLicense@@3VCExLicense@@A ; g_ExLicense
  02b61	e8 00 00 00 00	 call	 ?CheckUser@CExLicense@@QAE_NH@Z ; CExLicense::CheckUser
  02b66	0f b6 c0	 movzx	 eax, al
  02b69	85 c0		 test	 eax, eax
  02b6b	75 17		 jne	 SHORT $LN82@gObjCalCha
  02b6d	6a 00		 push	 0
  02b6f	b9 00 00 00 00	 mov	 ecx, OFFSET ?g_ExLicense@@3VCExLicense@@A ; g_ExLicense
  02b74	e8 00 00 00 00	 call	 ?CheckUser@CExLicense@@QAE_NH@Z ; CExLicense::CheckUser
  02b79	0f b6 c0	 movzx	 eax, al
  02b7c	85 c0		 test	 eax, eax
  02b7e	0f 84 c0 00 00
	00		 je	 $LN83@gObjCalCha
$LN82@gObjCalCha:

; 992  : 				{
; 993  : 					lpObj->AddLife += ExConfig.PrideMu.AddLife; 

  02b84	8b 45 f8	 mov	 eax, DWORD PTR _lpObj$[ebp]
  02b87	8b 88 4c 01 00
	00		 mov	 ecx, DWORD PTR [eax+332]
  02b8d	03 0d 44 0b 00
	00		 add	 ecx, DWORD PTR ?ExConfig@@3VcExConfigs@@A+2884
  02b93	8b 55 f8	 mov	 edx, DWORD PTR _lpObj$[ebp]
  02b96	89 8a 4c 01 00
	00		 mov	 DWORD PTR [edx+332], ecx

; 994  : 					lpObj->AddMana += ExConfig.PrideMu.AddMana; 

  02b9c	8b 45 f8	 mov	 eax, DWORD PTR _lpObj$[ebp]
  02b9f	8b 88 50 01 00
	00		 mov	 ecx, DWORD PTR [eax+336]
  02ba5	03 0d 48 0b 00
	00		 add	 ecx, DWORD PTR ?ExConfig@@3VcExConfigs@@A+2888
  02bab	8b 55 f8	 mov	 edx, DWORD PTR _lpObj$[ebp]
  02bae	89 8a 50 01 00
	00		 mov	 DWORD PTR [edx+336], ecx

; 995  : 
; 996  : 
; 997  : 					lpObj->m_AttackDamageMinRight += ExConfig.PrideMu.AttackDamageMin;

  02bb4	8b 45 f8	 mov	 eax, DWORD PTR _lpObj$[ebp]
  02bb7	8b 88 84 04 00
	00		 mov	 ecx, DWORD PTR [eax+1156]
  02bbd	03 0d 4c 0b 00
	00		 add	 ecx, DWORD PTR ?ExConfig@@3VcExConfigs@@A+2892
  02bc3	8b 55 f8	 mov	 edx, DWORD PTR _lpObj$[ebp]
  02bc6	89 8a 84 04 00
	00		 mov	 DWORD PTR [edx+1156], ecx

; 998  : 					lpObj->m_AttackDamageMaxRight += ExConfig.PrideMu.AttackDamageMax;

  02bcc	8b 45 f8	 mov	 eax, DWORD PTR _lpObj$[ebp]
  02bcf	8b 88 80 04 00
	00		 mov	 ecx, DWORD PTR [eax+1152]
  02bd5	03 0d 50 0b 00
	00		 add	 ecx, DWORD PTR ?ExConfig@@3VcExConfigs@@A+2896
  02bdb	8b 55 f8	 mov	 edx, DWORD PTR _lpObj$[ebp]
  02bde	89 8a 80 04 00
	00		 mov	 DWORD PTR [edx+1152], ecx

; 999  : 
; 1000 : 					lpObj->m_AttackDamageMinLeft += ExConfig.PrideMu.AttackDamageMin;

  02be4	8b 45 f8	 mov	 eax, DWORD PTR _lpObj$[ebp]
  02be7	8b 88 7c 04 00
	00		 mov	 ecx, DWORD PTR [eax+1148]
  02bed	03 0d 4c 0b 00
	00		 add	 ecx, DWORD PTR ?ExConfig@@3VcExConfigs@@A+2892
  02bf3	8b 55 f8	 mov	 edx, DWORD PTR _lpObj$[ebp]
  02bf6	89 8a 7c 04 00
	00		 mov	 DWORD PTR [edx+1148], ecx

; 1001 : 					lpObj->m_AttackDamageMaxLeft += ExConfig.PrideMu.AttackDamageMax;

  02bfc	8b 45 f8	 mov	 eax, DWORD PTR _lpObj$[ebp]
  02bff	8b 88 78 04 00
	00		 mov	 ecx, DWORD PTR [eax+1144]
  02c05	03 0d 50 0b 00
	00		 add	 ecx, DWORD PTR ?ExConfig@@3VcExConfigs@@A+2896
  02c0b	8b 55 f8	 mov	 edx, DWORD PTR _lpObj$[ebp]
  02c0e	89 8a 78 04 00
	00		 mov	 DWORD PTR [edx+1144], ecx

; 1002 : 
; 1003 : 					lpObj->m_MagicDamageMax += ExConfig.PrideMu.MagicDamageMax;

  02c14	8b 45 f8	 mov	 eax, DWORD PTR _lpObj$[ebp]
  02c17	8b 88 6c 04 00
	00		 mov	 ecx, DWORD PTR [eax+1132]
  02c1d	03 0d 58 0b 00
	00		 add	 ecx, DWORD PTR ?ExConfig@@3VcExConfigs@@A+2904
  02c23	8b 55 f8	 mov	 edx, DWORD PTR _lpObj$[ebp]
  02c26	89 8a 6c 04 00
	00		 mov	 DWORD PTR [edx+1132], ecx

; 1004 : 					lpObj->m_MagicDamageMin += ExConfig.PrideMu.MagicDamageMin;

  02c2c	8b 45 f8	 mov	 eax, DWORD PTR _lpObj$[ebp]
  02c2f	8b 88 68 04 00
	00		 mov	 ecx, DWORD PTR [eax+1128]
  02c35	03 0d 54 0b 00
	00		 add	 ecx, DWORD PTR ?ExConfig@@3VcExConfigs@@A+2900
  02c3b	8b 55 f8	 mov	 edx, DWORD PTR _lpObj$[ebp]
  02c3e	89 8a 68 04 00
	00		 mov	 DWORD PTR [edx+1128], ecx
$LN83@gObjCalCha:

; 1005 : 				}
; 1006 : #endif
; 1007 : 			}
; 1008 : 
; 1009 : 			if(g_ExLicense.CheckUser(eExUB::Gredy) || g_ExLicense.CheckUser(eExUB::GredyLocal) || g_ExLicense.CheckUser(eExUB::Gredy2) ||
; 1010 : 				g_ExLicense.CheckUser(eExUB::ulasevich) || g_ExLicense.CheckUser(eExUB::ulasevich2))

  02c44	6a 20		 push	 32			; 00000020H
  02c46	b9 00 00 00 00	 mov	 ecx, OFFSET ?g_ExLicense@@3VCExLicense@@A ; g_ExLicense
  02c4b	e8 00 00 00 00	 call	 ?CheckUser@CExLicense@@QAE_NH@Z ; CExLicense::CheckUser
  02c50	0f b6 c0	 movzx	 eax, al
  02c53	85 c0		 test	 eax, eax
  02c55	75 50		 jne	 SHORT $LN80@gObjCalCha
  02c57	6a 21		 push	 33			; 00000021H
  02c59	b9 00 00 00 00	 mov	 ecx, OFFSET ?g_ExLicense@@3VCExLicense@@A ; g_ExLicense
  02c5e	e8 00 00 00 00	 call	 ?CheckUser@CExLicense@@QAE_NH@Z ; CExLicense::CheckUser
  02c63	0f b6 c0	 movzx	 eax, al
  02c66	85 c0		 test	 eax, eax
  02c68	75 3d		 jne	 SHORT $LN80@gObjCalCha
  02c6a	6a 22		 push	 34			; 00000022H
  02c6c	b9 00 00 00 00	 mov	 ecx, OFFSET ?g_ExLicense@@3VCExLicense@@A ; g_ExLicense
  02c71	e8 00 00 00 00	 call	 ?CheckUser@CExLicense@@QAE_NH@Z ; CExLicense::CheckUser
  02c76	0f b6 c0	 movzx	 eax, al
  02c79	85 c0		 test	 eax, eax
  02c7b	75 2a		 jne	 SHORT $LN80@gObjCalCha
  02c7d	6a 17		 push	 23			; 00000017H
  02c7f	b9 00 00 00 00	 mov	 ecx, OFFSET ?g_ExLicense@@3VCExLicense@@A ; g_ExLicense
  02c84	e8 00 00 00 00	 call	 ?CheckUser@CExLicense@@QAE_NH@Z ; CExLicense::CheckUser
  02c89	0f b6 c0	 movzx	 eax, al
  02c8c	85 c0		 test	 eax, eax
  02c8e	75 17		 jne	 SHORT $LN80@gObjCalCha
  02c90	6a 24		 push	 36			; 00000024H
  02c92	b9 00 00 00 00	 mov	 ecx, OFFSET ?g_ExLicense@@3VCExLicense@@A ; g_ExLicense
  02c97	e8 00 00 00 00	 call	 ?CheckUser@CExLicense@@QAE_NH@Z ; CExLicense::CheckUser
  02c9c	0f b6 c0	 movzx	 eax, al
  02c9f	85 c0		 test	 eax, eax
  02ca1	0f 84 67 05 00
	00		 je	 $LN74@gObjCalCha
$LN80@gObjCalCha:

; 1011 : 			{
; 1012 : 				if ( lpObj->pInventory[8].IsFenrirIncLastAttackDamage() != FALSE )	// Black Fenrir

  02ca7	8b 45 f8	 mov	 eax, DWORD PTR _lpObj$[ebp]
  02caa	8b 88 24 0e 00
	00		 mov	 ecx, DWORD PTR [eax+3620]
  02cb0	81 c1 a0 06 00
	00		 add	 ecx, 1696		; 000006a0H
  02cb6	e8 00 00 00 00	 call	 ?IsFenrirIncLastAttackDamage@CItem@@QAEHXZ ; CItem::IsFenrirIncLastAttackDamage
  02cbb	85 c0		 test	 eax, eax
  02cbd	0f 84 46 01 00
	00		 je	 $LN79@gObjCalCha

; 1013 : 				{
; 1014 : 					lpObj->m_AttackDamageMinRight += ( lpObj->m_AttackDamageMinRight * ExConfig.Pet.BlackFenrirProcDamage ) / 100; 

  02cc3	8b 45 f8	 mov	 eax, DWORD PTR _lpObj$[ebp]
  02cc6	8b 80 84 04 00
	00		 mov	 eax, DWORD PTR [eax+1156]
  02ccc	0f af 05 84 08
	00 00		 imul	 eax, DWORD PTR ?ExConfig@@3VcExConfigs@@A+2180
  02cd3	99		 cdq
  02cd4	b9 64 00 00 00	 mov	 ecx, 100		; 00000064H
  02cd9	f7 f9		 idiv	 ecx
  02cdb	8b 55 f8	 mov	 edx, DWORD PTR _lpObj$[ebp]
  02cde	03 82 84 04 00
	00		 add	 eax, DWORD PTR [edx+1156]
  02ce4	8b 4d f8	 mov	 ecx, DWORD PTR _lpObj$[ebp]
  02ce7	89 81 84 04 00
	00		 mov	 DWORD PTR [ecx+1156], eax

; 1015 : 					lpObj->m_AttackDamageMaxRight += ( lpObj->m_AttackDamageMaxRight * ExConfig.Pet.BlackFenrirProcDamage ) / 100; 

  02ced	8b 45 f8	 mov	 eax, DWORD PTR _lpObj$[ebp]
  02cf0	8b 80 80 04 00
	00		 mov	 eax, DWORD PTR [eax+1152]
  02cf6	0f af 05 84 08
	00 00		 imul	 eax, DWORD PTR ?ExConfig@@3VcExConfigs@@A+2180
  02cfd	99		 cdq
  02cfe	b9 64 00 00 00	 mov	 ecx, 100		; 00000064H
  02d03	f7 f9		 idiv	 ecx
  02d05	8b 55 f8	 mov	 edx, DWORD PTR _lpObj$[ebp]
  02d08	03 82 80 04 00
	00		 add	 eax, DWORD PTR [edx+1152]
  02d0e	8b 4d f8	 mov	 ecx, DWORD PTR _lpObj$[ebp]
  02d11	89 81 80 04 00
	00		 mov	 DWORD PTR [ecx+1152], eax

; 1016 : 					lpObj->m_AttackDamageMinLeft += ( lpObj->m_AttackDamageMinLeft * ExConfig.Pet.BlackFenrirProcDamage ) / 100; 

  02d17	8b 45 f8	 mov	 eax, DWORD PTR _lpObj$[ebp]
  02d1a	8b 80 7c 04 00
	00		 mov	 eax, DWORD PTR [eax+1148]
  02d20	0f af 05 84 08
	00 00		 imul	 eax, DWORD PTR ?ExConfig@@3VcExConfigs@@A+2180
  02d27	99		 cdq
  02d28	b9 64 00 00 00	 mov	 ecx, 100		; 00000064H
  02d2d	f7 f9		 idiv	 ecx
  02d2f	8b 55 f8	 mov	 edx, DWORD PTR _lpObj$[ebp]
  02d32	03 82 7c 04 00
	00		 add	 eax, DWORD PTR [edx+1148]
  02d38	8b 4d f8	 mov	 ecx, DWORD PTR _lpObj$[ebp]
  02d3b	89 81 7c 04 00
	00		 mov	 DWORD PTR [ecx+1148], eax

; 1017 : 					lpObj->m_AttackDamageMaxLeft += ( lpObj->m_AttackDamageMaxLeft * ExConfig.Pet.BlackFenrirProcDamage ) / 100; 

  02d41	8b 45 f8	 mov	 eax, DWORD PTR _lpObj$[ebp]
  02d44	8b 80 78 04 00
	00		 mov	 eax, DWORD PTR [eax+1144]
  02d4a	0f af 05 84 08
	00 00		 imul	 eax, DWORD PTR ?ExConfig@@3VcExConfigs@@A+2180
  02d51	99		 cdq
  02d52	b9 64 00 00 00	 mov	 ecx, 100		; 00000064H
  02d57	f7 f9		 idiv	 ecx
  02d59	8b 55 f8	 mov	 edx, DWORD PTR _lpObj$[ebp]
  02d5c	03 82 78 04 00
	00		 add	 eax, DWORD PTR [edx+1144]
  02d62	8b 4d f8	 mov	 ecx, DWORD PTR _lpObj$[ebp]
  02d65	89 81 78 04 00
	00		 mov	 DWORD PTR [ecx+1144], eax

; 1018 : 					lpObj->m_MagicDamageMax += ( lpObj->m_MagicDamageMax * ExConfig.Pet.BlackFenrirProcDamage ) / 100; 

  02d6b	8b 45 f8	 mov	 eax, DWORD PTR _lpObj$[ebp]
  02d6e	8b 80 6c 04 00
	00		 mov	 eax, DWORD PTR [eax+1132]
  02d74	0f af 05 84 08
	00 00		 imul	 eax, DWORD PTR ?ExConfig@@3VcExConfigs@@A+2180
  02d7b	99		 cdq
  02d7c	b9 64 00 00 00	 mov	 ecx, 100		; 00000064H
  02d81	f7 f9		 idiv	 ecx
  02d83	8b 55 f8	 mov	 edx, DWORD PTR _lpObj$[ebp]
  02d86	03 82 6c 04 00
	00		 add	 eax, DWORD PTR [edx+1132]
  02d8c	8b 4d f8	 mov	 ecx, DWORD PTR _lpObj$[ebp]
  02d8f	89 81 6c 04 00
	00		 mov	 DWORD PTR [ecx+1132], eax

; 1019 : 					lpObj->m_MagicDamageMin += ( lpObj->m_MagicDamageMin * ExConfig.Pet.BlackFenrirProcDamage ) / 100; 

  02d95	8b 45 f8	 mov	 eax, DWORD PTR _lpObj$[ebp]
  02d98	8b 80 68 04 00
	00		 mov	 eax, DWORD PTR [eax+1128]
  02d9e	0f af 05 84 08
	00 00		 imul	 eax, DWORD PTR ?ExConfig@@3VcExConfigs@@A+2180
  02da5	99		 cdq
  02da6	b9 64 00 00 00	 mov	 ecx, 100		; 00000064H
  02dab	f7 f9		 idiv	 ecx
  02dad	8b 55 f8	 mov	 edx, DWORD PTR _lpObj$[ebp]
  02db0	03 82 68 04 00
	00		 add	 eax, DWORD PTR [edx+1128]
  02db6	8b 4d f8	 mov	 ecx, DWORD PTR _lpObj$[ebp]
  02db9	89 81 68 04 00
	00		 mov	 DWORD PTR [ecx+1128], eax

; 1020 : 					lpObj->DamageMinus += ExConfig.Pet.BlackFenrirProcAbsurd;

  02dbf	8b 45 f8	 mov	 eax, DWORD PTR _lpObj$[ebp]
  02dc2	0f b6 88 70 01
	00 00		 movzx	 ecx, BYTE PTR [eax+368]
  02dc9	03 0d 88 08 00
	00		 add	 ecx, DWORD PTR ?ExConfig@@3VcExConfigs@@A+2184
  02dcf	8b 55 f8	 mov	 edx, DWORD PTR _lpObj$[ebp]
  02dd2	88 8a 70 01 00
	00		 mov	 BYTE PTR [edx+368], cl

; 1021 : 					lpObj->AddLife += ( lpObj->MaxLife * ExConfig.Pet.BlackFenrirProcLife ) / 100; 

  02dd8	db 05 8c 08 00
	00		 fild	 DWORD PTR ?ExConfig@@3VcExConfigs@@A+2188
  02dde	8b 45 f8	 mov	 eax, DWORD PTR _lpObj$[ebp]
  02de1	d8 88 00 01 00
	00		 fmul	 DWORD PTR [eax+256]
  02de7	dc 35 00 00 00
	00		 fdiv	 QWORD PTR __real@4059000000000000
  02ded	8b 4d f8	 mov	 ecx, DWORD PTR _lpObj$[ebp]
  02df0	da 81 4c 01 00
	00		 fiadd	 DWORD PTR [ecx+332]
  02df6	e8 00 00 00 00	 call	 __ftol2_sse
  02dfb	8b 55 f8	 mov	 edx, DWORD PTR _lpObj$[ebp]
  02dfe	89 82 4c 01 00
	00		 mov	 DWORD PTR [edx+332], eax
  02e04	e9 05 04 00 00	 jmp	 $LN74@gObjCalCha
$LN79@gObjCalCha:

; 1022 : 				}
; 1023 : 				else if ( lpObj->pInventory[8].IsFenrirDecLastAttackDamage() != FALSE )	// Blue Fenrir

  02e09	8b 45 f8	 mov	 eax, DWORD PTR _lpObj$[ebp]
  02e0c	8b 88 24 0e 00
	00		 mov	 ecx, DWORD PTR [eax+3620]
  02e12	81 c1 a0 06 00
	00		 add	 ecx, 1696		; 000006a0H
  02e18	e8 00 00 00 00	 call	 ?IsFenrirDecLastAttackDamage@CItem@@QAEHXZ ; CItem::IsFenrirDecLastAttackDamage
  02e1d	85 c0		 test	 eax, eax
  02e1f	0f 84 46 01 00
	00		 je	 $LN77@gObjCalCha

; 1024 : 				{
; 1025 : 					lpObj->m_AttackDamageMinRight += ( lpObj->m_AttackDamageMinRight * ExConfig.Pet.BlueFenrirProcDamage ) / 100; 

  02e25	8b 45 f8	 mov	 eax, DWORD PTR _lpObj$[ebp]
  02e28	8b 80 84 04 00
	00		 mov	 eax, DWORD PTR [eax+1156]
  02e2e	0f af 05 74 08
	00 00		 imul	 eax, DWORD PTR ?ExConfig@@3VcExConfigs@@A+2164
  02e35	99		 cdq
  02e36	b9 64 00 00 00	 mov	 ecx, 100		; 00000064H
  02e3b	f7 f9		 idiv	 ecx
  02e3d	8b 55 f8	 mov	 edx, DWORD PTR _lpObj$[ebp]
  02e40	03 82 84 04 00
	00		 add	 eax, DWORD PTR [edx+1156]
  02e46	8b 4d f8	 mov	 ecx, DWORD PTR _lpObj$[ebp]
  02e49	89 81 84 04 00
	00		 mov	 DWORD PTR [ecx+1156], eax

; 1026 : 					lpObj->m_AttackDamageMaxRight += ( lpObj->m_AttackDamageMaxRight * ExConfig.Pet.BlueFenrirProcDamage ) / 100; 

  02e4f	8b 45 f8	 mov	 eax, DWORD PTR _lpObj$[ebp]
  02e52	8b 80 80 04 00
	00		 mov	 eax, DWORD PTR [eax+1152]
  02e58	0f af 05 74 08
	00 00		 imul	 eax, DWORD PTR ?ExConfig@@3VcExConfigs@@A+2164
  02e5f	99		 cdq
  02e60	b9 64 00 00 00	 mov	 ecx, 100		; 00000064H
  02e65	f7 f9		 idiv	 ecx
  02e67	8b 55 f8	 mov	 edx, DWORD PTR _lpObj$[ebp]
  02e6a	03 82 80 04 00
	00		 add	 eax, DWORD PTR [edx+1152]
  02e70	8b 4d f8	 mov	 ecx, DWORD PTR _lpObj$[ebp]
  02e73	89 81 80 04 00
	00		 mov	 DWORD PTR [ecx+1152], eax

; 1027 : 					lpObj->m_AttackDamageMinLeft += ( lpObj->m_AttackDamageMinLeft * ExConfig.Pet.BlueFenrirProcDamage ) / 100; 

  02e79	8b 45 f8	 mov	 eax, DWORD PTR _lpObj$[ebp]
  02e7c	8b 80 7c 04 00
	00		 mov	 eax, DWORD PTR [eax+1148]
  02e82	0f af 05 74 08
	00 00		 imul	 eax, DWORD PTR ?ExConfig@@3VcExConfigs@@A+2164
  02e89	99		 cdq
  02e8a	b9 64 00 00 00	 mov	 ecx, 100		; 00000064H
  02e8f	f7 f9		 idiv	 ecx
  02e91	8b 55 f8	 mov	 edx, DWORD PTR _lpObj$[ebp]
  02e94	03 82 7c 04 00
	00		 add	 eax, DWORD PTR [edx+1148]
  02e9a	8b 4d f8	 mov	 ecx, DWORD PTR _lpObj$[ebp]
  02e9d	89 81 7c 04 00
	00		 mov	 DWORD PTR [ecx+1148], eax

; 1028 : 					lpObj->m_AttackDamageMaxLeft += ( lpObj->m_AttackDamageMaxLeft * ExConfig.Pet.BlueFenrirProcDamage ) / 100; 

  02ea3	8b 45 f8	 mov	 eax, DWORD PTR _lpObj$[ebp]
  02ea6	8b 80 78 04 00
	00		 mov	 eax, DWORD PTR [eax+1144]
  02eac	0f af 05 74 08
	00 00		 imul	 eax, DWORD PTR ?ExConfig@@3VcExConfigs@@A+2164
  02eb3	99		 cdq
  02eb4	b9 64 00 00 00	 mov	 ecx, 100		; 00000064H
  02eb9	f7 f9		 idiv	 ecx
  02ebb	8b 55 f8	 mov	 edx, DWORD PTR _lpObj$[ebp]
  02ebe	03 82 78 04 00
	00		 add	 eax, DWORD PTR [edx+1144]
  02ec4	8b 4d f8	 mov	 ecx, DWORD PTR _lpObj$[ebp]
  02ec7	89 81 78 04 00
	00		 mov	 DWORD PTR [ecx+1144], eax

; 1029 : 					lpObj->m_MagicDamageMax += ( lpObj->m_MagicDamageMax * ExConfig.Pet.BlueFenrirProcDamage ) / 100; 

  02ecd	8b 45 f8	 mov	 eax, DWORD PTR _lpObj$[ebp]
  02ed0	8b 80 6c 04 00
	00		 mov	 eax, DWORD PTR [eax+1132]
  02ed6	0f af 05 74 08
	00 00		 imul	 eax, DWORD PTR ?ExConfig@@3VcExConfigs@@A+2164
  02edd	99		 cdq
  02ede	b9 64 00 00 00	 mov	 ecx, 100		; 00000064H
  02ee3	f7 f9		 idiv	 ecx
  02ee5	8b 55 f8	 mov	 edx, DWORD PTR _lpObj$[ebp]
  02ee8	03 82 6c 04 00
	00		 add	 eax, DWORD PTR [edx+1132]
  02eee	8b 4d f8	 mov	 ecx, DWORD PTR _lpObj$[ebp]
  02ef1	89 81 6c 04 00
	00		 mov	 DWORD PTR [ecx+1132], eax

; 1030 : 					lpObj->m_MagicDamageMin += ( lpObj->m_MagicDamageMin * ExConfig.Pet.BlueFenrirProcDamage ) / 100; 

  02ef7	8b 45 f8	 mov	 eax, DWORD PTR _lpObj$[ebp]
  02efa	8b 80 68 04 00
	00		 mov	 eax, DWORD PTR [eax+1128]
  02f00	0f af 05 74 08
	00 00		 imul	 eax, DWORD PTR ?ExConfig@@3VcExConfigs@@A+2164
  02f07	99		 cdq
  02f08	b9 64 00 00 00	 mov	 ecx, 100		; 00000064H
  02f0d	f7 f9		 idiv	 ecx
  02f0f	8b 55 f8	 mov	 edx, DWORD PTR _lpObj$[ebp]
  02f12	03 82 68 04 00
	00		 add	 eax, DWORD PTR [edx+1128]
  02f18	8b 4d f8	 mov	 ecx, DWORD PTR _lpObj$[ebp]
  02f1b	89 81 68 04 00
	00		 mov	 DWORD PTR [ecx+1128], eax

; 1031 : 					lpObj->DamageMinus += ExConfig.Pet.BlueFenrirProcAbsurd;

  02f21	8b 45 f8	 mov	 eax, DWORD PTR _lpObj$[ebp]
  02f24	0f b6 88 70 01
	00 00		 movzx	 ecx, BYTE PTR [eax+368]
  02f2b	03 0d 78 08 00
	00		 add	 ecx, DWORD PTR ?ExConfig@@3VcExConfigs@@A+2168
  02f31	8b 55 f8	 mov	 edx, DWORD PTR _lpObj$[ebp]
  02f34	88 8a 70 01 00
	00		 mov	 BYTE PTR [edx+368], cl

; 1032 : 					lpObj->AddLife += ( lpObj->MaxLife * ExConfig.Pet.BlueFenrirProcLife ) / 100; 				 

  02f3a	db 05 7c 08 00
	00		 fild	 DWORD PTR ?ExConfig@@3VcExConfigs@@A+2172
  02f40	8b 45 f8	 mov	 eax, DWORD PTR _lpObj$[ebp]
  02f43	d8 88 00 01 00
	00		 fmul	 DWORD PTR [eax+256]
  02f49	dc 35 00 00 00
	00		 fdiv	 QWORD PTR __real@4059000000000000
  02f4f	8b 4d f8	 mov	 ecx, DWORD PTR _lpObj$[ebp]
  02f52	da 81 4c 01 00
	00		 fiadd	 DWORD PTR [ecx+332]
  02f58	e8 00 00 00 00	 call	 __ftol2_sse
  02f5d	8b 55 f8	 mov	 edx, DWORD PTR _lpObj$[ebp]
  02f60	89 82 4c 01 00
	00		 mov	 DWORD PTR [edx+332], eax
  02f66	e9 a3 02 00 00	 jmp	 $LN74@gObjCalCha
$LN77@gObjCalCha:

; 1033 : 				}
; 1034 : 				else if ( lpObj->pInventory[8].IsFenrirSpecial() != FALSE )	// Illusion Fenrir

  02f6b	8b 45 f8	 mov	 eax, DWORD PTR _lpObj$[ebp]
  02f6e	8b 88 24 0e 00
	00		 mov	 ecx, DWORD PTR [eax+3620]
  02f74	81 c1 a0 06 00
	00		 add	 ecx, 1696		; 000006a0H
  02f7a	e8 00 00 00 00	 call	 ?IsFenrirSpecial@CItem@@QAEHXZ ; CItem::IsFenrirSpecial
  02f7f	85 c0		 test	 eax, eax
  02f81	0f 84 46 01 00
	00		 je	 $LN75@gObjCalCha

; 1035 : 				{
; 1036 : 					lpObj->m_AttackDamageMinRight += ( lpObj->m_AttackDamageMinRight * ExConfig.Pet.GoldFenrirProcDamage ) / 100; 

  02f87	8b 45 f8	 mov	 eax, DWORD PTR _lpObj$[ebp]
  02f8a	8b 80 84 04 00
	00		 mov	 eax, DWORD PTR [eax+1156]
  02f90	0f af 05 94 08
	00 00		 imul	 eax, DWORD PTR ?ExConfig@@3VcExConfigs@@A+2196
  02f97	99		 cdq
  02f98	b9 64 00 00 00	 mov	 ecx, 100		; 00000064H
  02f9d	f7 f9		 idiv	 ecx
  02f9f	8b 55 f8	 mov	 edx, DWORD PTR _lpObj$[ebp]
  02fa2	03 82 84 04 00
	00		 add	 eax, DWORD PTR [edx+1156]
  02fa8	8b 4d f8	 mov	 ecx, DWORD PTR _lpObj$[ebp]
  02fab	89 81 84 04 00
	00		 mov	 DWORD PTR [ecx+1156], eax

; 1037 : 					lpObj->m_AttackDamageMaxRight += ( lpObj->m_AttackDamageMaxRight * ExConfig.Pet.GoldFenrirProcDamage ) / 100; 

  02fb1	8b 45 f8	 mov	 eax, DWORD PTR _lpObj$[ebp]
  02fb4	8b 80 80 04 00
	00		 mov	 eax, DWORD PTR [eax+1152]
  02fba	0f af 05 94 08
	00 00		 imul	 eax, DWORD PTR ?ExConfig@@3VcExConfigs@@A+2196
  02fc1	99		 cdq
  02fc2	b9 64 00 00 00	 mov	 ecx, 100		; 00000064H
  02fc7	f7 f9		 idiv	 ecx
  02fc9	8b 55 f8	 mov	 edx, DWORD PTR _lpObj$[ebp]
  02fcc	03 82 80 04 00
	00		 add	 eax, DWORD PTR [edx+1152]
  02fd2	8b 4d f8	 mov	 ecx, DWORD PTR _lpObj$[ebp]
  02fd5	89 81 80 04 00
	00		 mov	 DWORD PTR [ecx+1152], eax

; 1038 : 					lpObj->m_AttackDamageMinLeft += ( lpObj->m_AttackDamageMinLeft * ExConfig.Pet.GoldFenrirProcDamage ) / 100; 

  02fdb	8b 45 f8	 mov	 eax, DWORD PTR _lpObj$[ebp]
  02fde	8b 80 7c 04 00
	00		 mov	 eax, DWORD PTR [eax+1148]
  02fe4	0f af 05 94 08
	00 00		 imul	 eax, DWORD PTR ?ExConfig@@3VcExConfigs@@A+2196
  02feb	99		 cdq
  02fec	b9 64 00 00 00	 mov	 ecx, 100		; 00000064H
  02ff1	f7 f9		 idiv	 ecx
  02ff3	8b 55 f8	 mov	 edx, DWORD PTR _lpObj$[ebp]
  02ff6	03 82 7c 04 00
	00		 add	 eax, DWORD PTR [edx+1148]
  02ffc	8b 4d f8	 mov	 ecx, DWORD PTR _lpObj$[ebp]
  02fff	89 81 7c 04 00
	00		 mov	 DWORD PTR [ecx+1148], eax

; 1039 : 					lpObj->m_AttackDamageMaxLeft += ( lpObj->m_AttackDamageMaxLeft * ExConfig.Pet.GoldFenrirProcDamage ) / 100; 

  03005	8b 45 f8	 mov	 eax, DWORD PTR _lpObj$[ebp]
  03008	8b 80 78 04 00
	00		 mov	 eax, DWORD PTR [eax+1144]
  0300e	0f af 05 94 08
	00 00		 imul	 eax, DWORD PTR ?ExConfig@@3VcExConfigs@@A+2196
  03015	99		 cdq
  03016	b9 64 00 00 00	 mov	 ecx, 100		; 00000064H
  0301b	f7 f9		 idiv	 ecx
  0301d	8b 55 f8	 mov	 edx, DWORD PTR _lpObj$[ebp]
  03020	03 82 78 04 00
	00		 add	 eax, DWORD PTR [edx+1144]
  03026	8b 4d f8	 mov	 ecx, DWORD PTR _lpObj$[ebp]
  03029	89 81 78 04 00
	00		 mov	 DWORD PTR [ecx+1144], eax

; 1040 : 					lpObj->m_MagicDamageMax += ( lpObj->m_MagicDamageMax * ExConfig.Pet.GoldFenrirProcDamage ) / 100; 

  0302f	8b 45 f8	 mov	 eax, DWORD PTR _lpObj$[ebp]
  03032	8b 80 6c 04 00
	00		 mov	 eax, DWORD PTR [eax+1132]
  03038	0f af 05 94 08
	00 00		 imul	 eax, DWORD PTR ?ExConfig@@3VcExConfigs@@A+2196
  0303f	99		 cdq
  03040	b9 64 00 00 00	 mov	 ecx, 100		; 00000064H
  03045	f7 f9		 idiv	 ecx
  03047	8b 55 f8	 mov	 edx, DWORD PTR _lpObj$[ebp]
  0304a	03 82 6c 04 00
	00		 add	 eax, DWORD PTR [edx+1132]
  03050	8b 4d f8	 mov	 ecx, DWORD PTR _lpObj$[ebp]
  03053	89 81 6c 04 00
	00		 mov	 DWORD PTR [ecx+1132], eax

; 1041 : 					lpObj->m_MagicDamageMin += ( lpObj->m_MagicDamageMin * ExConfig.Pet.GoldFenrirProcDamage ) / 100; 

  03059	8b 45 f8	 mov	 eax, DWORD PTR _lpObj$[ebp]
  0305c	8b 80 68 04 00
	00		 mov	 eax, DWORD PTR [eax+1128]
  03062	0f af 05 94 08
	00 00		 imul	 eax, DWORD PTR ?ExConfig@@3VcExConfigs@@A+2196
  03069	99		 cdq
  0306a	b9 64 00 00 00	 mov	 ecx, 100		; 00000064H
  0306f	f7 f9		 idiv	 ecx
  03071	8b 55 f8	 mov	 edx, DWORD PTR _lpObj$[ebp]
  03074	03 82 68 04 00
	00		 add	 eax, DWORD PTR [edx+1128]
  0307a	8b 4d f8	 mov	 ecx, DWORD PTR _lpObj$[ebp]
  0307d	89 81 68 04 00
	00		 mov	 DWORD PTR [ecx+1128], eax

; 1042 : 					lpObj->DamageMinus += ExConfig.Pet.GoldFenrirProcAbsurd;

  03083	8b 45 f8	 mov	 eax, DWORD PTR _lpObj$[ebp]
  03086	0f b6 88 70 01
	00 00		 movzx	 ecx, BYTE PTR [eax+368]
  0308d	03 0d 98 08 00
	00		 add	 ecx, DWORD PTR ?ExConfig@@3VcExConfigs@@A+2200
  03093	8b 55 f8	 mov	 edx, DWORD PTR _lpObj$[ebp]
  03096	88 8a 70 01 00
	00		 mov	 BYTE PTR [edx+368], cl

; 1043 : 					lpObj->AddLife += ( lpObj->MaxLife * ExConfig.Pet.GoldFenrirProcLife ) / 100; 				

  0309c	db 05 9c 08 00
	00		 fild	 DWORD PTR ?ExConfig@@3VcExConfigs@@A+2204
  030a2	8b 45 f8	 mov	 eax, DWORD PTR _lpObj$[ebp]
  030a5	d8 88 00 01 00
	00		 fmul	 DWORD PTR [eax+256]
  030ab	dc 35 00 00 00
	00		 fdiv	 QWORD PTR __real@4059000000000000
  030b1	8b 4d f8	 mov	 ecx, DWORD PTR _lpObj$[ebp]
  030b4	da 81 4c 01 00
	00		 fiadd	 DWORD PTR [ecx+332]
  030ba	e8 00 00 00 00	 call	 __ftol2_sse
  030bf	8b 55 f8	 mov	 edx, DWORD PTR _lpObj$[ebp]
  030c2	89 82 4c 01 00
	00		 mov	 DWORD PTR [edx+332], eax

; 1044 : 				}
; 1045 : 				else	//red 

  030c8	e9 41 01 00 00	 jmp	 $LN74@gObjCalCha
$LN75@gObjCalCha:

; 1046 : 				{
; 1047 : 					lpObj->m_AttackDamageMinRight += ( lpObj->m_AttackDamageMinRight * ExConfig.Pet.RedFenrirProcDamage ) / 100; 

  030cd	8b 45 f8	 mov	 eax, DWORD PTR _lpObj$[ebp]
  030d0	8b 80 84 04 00
	00		 mov	 eax, DWORD PTR [eax+1156]
  030d6	0f af 05 64 08
	00 00		 imul	 eax, DWORD PTR ?ExConfig@@3VcExConfigs@@A+2148
  030dd	99		 cdq
  030de	b9 64 00 00 00	 mov	 ecx, 100		; 00000064H
  030e3	f7 f9		 idiv	 ecx
  030e5	8b 55 f8	 mov	 edx, DWORD PTR _lpObj$[ebp]
  030e8	03 82 84 04 00
	00		 add	 eax, DWORD PTR [edx+1156]
  030ee	8b 4d f8	 mov	 ecx, DWORD PTR _lpObj$[ebp]
  030f1	89 81 84 04 00
	00		 mov	 DWORD PTR [ecx+1156], eax

; 1048 : 					lpObj->m_AttackDamageMaxRight += ( lpObj->m_AttackDamageMaxRight * ExConfig.Pet.RedFenrirProcDamage ) / 100; 

  030f7	8b 45 f8	 mov	 eax, DWORD PTR _lpObj$[ebp]
  030fa	8b 80 80 04 00
	00		 mov	 eax, DWORD PTR [eax+1152]
  03100	0f af 05 64 08
	00 00		 imul	 eax, DWORD PTR ?ExConfig@@3VcExConfigs@@A+2148
  03107	99		 cdq
  03108	b9 64 00 00 00	 mov	 ecx, 100		; 00000064H
  0310d	f7 f9		 idiv	 ecx
  0310f	8b 55 f8	 mov	 edx, DWORD PTR _lpObj$[ebp]
  03112	03 82 80 04 00
	00		 add	 eax, DWORD PTR [edx+1152]
  03118	8b 4d f8	 mov	 ecx, DWORD PTR _lpObj$[ebp]
  0311b	89 81 80 04 00
	00		 mov	 DWORD PTR [ecx+1152], eax

; 1049 : 					lpObj->m_AttackDamageMinLeft += ( lpObj->m_AttackDamageMinLeft * ExConfig.Pet.RedFenrirProcDamage ) / 100; 

  03121	8b 45 f8	 mov	 eax, DWORD PTR _lpObj$[ebp]
  03124	8b 80 7c 04 00
	00		 mov	 eax, DWORD PTR [eax+1148]
  0312a	0f af 05 64 08
	00 00		 imul	 eax, DWORD PTR ?ExConfig@@3VcExConfigs@@A+2148
  03131	99		 cdq
  03132	b9 64 00 00 00	 mov	 ecx, 100		; 00000064H
  03137	f7 f9		 idiv	 ecx
  03139	8b 55 f8	 mov	 edx, DWORD PTR _lpObj$[ebp]
  0313c	03 82 7c 04 00
	00		 add	 eax, DWORD PTR [edx+1148]
  03142	8b 4d f8	 mov	 ecx, DWORD PTR _lpObj$[ebp]
  03145	89 81 7c 04 00
	00		 mov	 DWORD PTR [ecx+1148], eax

; 1050 : 					lpObj->m_AttackDamageMaxLeft += ( lpObj->m_AttackDamageMaxLeft * ExConfig.Pet.RedFenrirProcDamage ) / 100; 

  0314b	8b 45 f8	 mov	 eax, DWORD PTR _lpObj$[ebp]
  0314e	8b 80 78 04 00
	00		 mov	 eax, DWORD PTR [eax+1144]
  03154	0f af 05 64 08
	00 00		 imul	 eax, DWORD PTR ?ExConfig@@3VcExConfigs@@A+2148
  0315b	99		 cdq
  0315c	b9 64 00 00 00	 mov	 ecx, 100		; 00000064H
  03161	f7 f9		 idiv	 ecx
  03163	8b 55 f8	 mov	 edx, DWORD PTR _lpObj$[ebp]
  03166	03 82 78 04 00
	00		 add	 eax, DWORD PTR [edx+1144]
  0316c	8b 4d f8	 mov	 ecx, DWORD PTR _lpObj$[ebp]
  0316f	89 81 78 04 00
	00		 mov	 DWORD PTR [ecx+1144], eax

; 1051 : 					lpObj->m_MagicDamageMax += ( lpObj->m_MagicDamageMax * ExConfig.Pet.RedFenrirProcDamage ) / 100; 

  03175	8b 45 f8	 mov	 eax, DWORD PTR _lpObj$[ebp]
  03178	8b 80 6c 04 00
	00		 mov	 eax, DWORD PTR [eax+1132]
  0317e	0f af 05 64 08
	00 00		 imul	 eax, DWORD PTR ?ExConfig@@3VcExConfigs@@A+2148
  03185	99		 cdq
  03186	b9 64 00 00 00	 mov	 ecx, 100		; 00000064H
  0318b	f7 f9		 idiv	 ecx
  0318d	8b 55 f8	 mov	 edx, DWORD PTR _lpObj$[ebp]
  03190	03 82 6c 04 00
	00		 add	 eax, DWORD PTR [edx+1132]
  03196	8b 4d f8	 mov	 ecx, DWORD PTR _lpObj$[ebp]
  03199	89 81 6c 04 00
	00		 mov	 DWORD PTR [ecx+1132], eax

; 1052 : 					lpObj->m_MagicDamageMin += ( lpObj->m_MagicDamageMin * ExConfig.Pet.RedFenrirProcDamage ) / 100; 

  0319f	8b 45 f8	 mov	 eax, DWORD PTR _lpObj$[ebp]
  031a2	8b 80 68 04 00
	00		 mov	 eax, DWORD PTR [eax+1128]
  031a8	0f af 05 64 08
	00 00		 imul	 eax, DWORD PTR ?ExConfig@@3VcExConfigs@@A+2148
  031af	99		 cdq
  031b0	b9 64 00 00 00	 mov	 ecx, 100		; 00000064H
  031b5	f7 f9		 idiv	 ecx
  031b7	8b 55 f8	 mov	 edx, DWORD PTR _lpObj$[ebp]
  031ba	03 82 68 04 00
	00		 add	 eax, DWORD PTR [edx+1128]
  031c0	8b 4d f8	 mov	 ecx, DWORD PTR _lpObj$[ebp]
  031c3	89 81 68 04 00
	00		 mov	 DWORD PTR [ecx+1128], eax

; 1053 : 					lpObj->DamageMinus += ExConfig.Pet.RedFenrirProcAbsurd;

  031c9	8b 45 f8	 mov	 eax, DWORD PTR _lpObj$[ebp]
  031cc	0f b6 88 70 01
	00 00		 movzx	 ecx, BYTE PTR [eax+368]
  031d3	03 0d 68 08 00
	00		 add	 ecx, DWORD PTR ?ExConfig@@3VcExConfigs@@A+2152
  031d9	8b 55 f8	 mov	 edx, DWORD PTR _lpObj$[ebp]
  031dc	88 8a 70 01 00
	00		 mov	 BYTE PTR [edx+368], cl

; 1054 : 					lpObj->AddLife += ( lpObj->MaxLife * ExConfig.Pet.RedFenrirProcLife ) / 100; 

  031e2	db 05 6c 08 00
	00		 fild	 DWORD PTR ?ExConfig@@3VcExConfigs@@A+2156
  031e8	8b 45 f8	 mov	 eax, DWORD PTR _lpObj$[ebp]
  031eb	d8 88 00 01 00
	00		 fmul	 DWORD PTR [eax+256]
  031f1	dc 35 00 00 00
	00		 fdiv	 QWORD PTR __real@4059000000000000
  031f7	8b 4d f8	 mov	 ecx, DWORD PTR _lpObj$[ebp]
  031fa	da 81 4c 01 00
	00		 fiadd	 DWORD PTR [ecx+332]
  03200	e8 00 00 00 00	 call	 __ftol2_sse
  03205	8b 55 f8	 mov	 edx, DWORD PTR _lpObj$[ebp]
  03208	89 82 4c 01 00
	00		 mov	 DWORD PTR [edx+332], eax
$LN74@gObjCalCha:

; 1055 : 				}
; 1056 : 
; 1057 : 			}
; 1058 : 		}
; 1059 : 	}
; 1060 : 	//Season 5 +15 Items
; 1061 : 	if ( (Level15Count + Level14Count + Level13Count + Level12Count + Level11Count + Level10Count) >= 5 )

  0320e	8b 85 a0 fe ff
	ff		 mov	 eax, DWORD PTR _Level15Count$[ebp]
  03214	03 85 a4 fe ff
	ff		 add	 eax, DWORD PTR _Level14Count$[ebp]
  0321a	03 85 a8 fe ff
	ff		 add	 eax, DWORD PTR _Level13Count$[ebp]
  03220	03 85 ac fe ff
	ff		 add	 eax, DWORD PTR _Level12Count$[ebp]
  03226	03 85 b4 fe ff
	ff		 add	 eax, DWORD PTR _Level11Count$[ebp]
  0322c	03 85 b0 fe ff
	ff		 add	 eax, DWORD PTR _Level10Count$[ebp]
  03232	83 f8 05	 cmp	 eax, 5
  03235	0f 8c 84 01 00
	00		 jl	 $LN59@gObjCalCha

; 1062 : 	{
; 1063 : 		if ( Success != false )

  0323b	0f b6 85 c1 fe
	ff ff		 movzx	 eax, BYTE PTR _Success$[ebp]
  03242	85 c0		 test	 eax, eax
  03244	0f 84 75 01 00
	00		 je	 $LN59@gObjCalCha

; 1064 : 		{
; 1065 : 			if ( Level15Count == 5 )

  0324a	83 bd a0 fe ff
	ff 05		 cmp	 DWORD PTR _Level15Count$[ebp], 5
  03251	75 2b		 jne	 SHORT $LN71@gObjCalCha

; 1066 : 			{
; 1067 : 				lpObj->m_Defense += lpObj->m_Defense * 30 / 100;

  03253	8b 45 f8	 mov	 eax, DWORD PTR _lpObj$[ebp]
  03256	8b 80 94 04 00
	00		 mov	 eax, DWORD PTR [eax+1172]
  0325c	6b c0 1e	 imul	 eax, 30			; 0000001eH
  0325f	99		 cdq
  03260	b9 64 00 00 00	 mov	 ecx, 100		; 00000064H
  03265	f7 f9		 idiv	 ecx
  03267	8b 55 f8	 mov	 edx, DWORD PTR _lpObj$[ebp]
  0326a	03 82 94 04 00
	00		 add	 eax, DWORD PTR [edx+1172]
  03270	8b 4d f8	 mov	 ecx, DWORD PTR _lpObj$[ebp]
  03273	89 81 94 04 00
	00		 mov	 DWORD PTR [ecx+1172], eax
  03279	e9 41 01 00 00	 jmp	 $LN59@gObjCalCha
$LN71@gObjCalCha:

; 1068 : 			}
; 1069 : 			else if ( Level14Count == 5 )

  0327e	83 bd a4 fe ff
	ff 05		 cmp	 DWORD PTR _Level14Count$[ebp], 5
  03285	75 2b		 jne	 SHORT $LN69@gObjCalCha

; 1070 : 			{
; 1071 : 				lpObj->m_Defense += lpObj->m_Defense * 25 / 100;

  03287	8b 45 f8	 mov	 eax, DWORD PTR _lpObj$[ebp]
  0328a	8b 80 94 04 00
	00		 mov	 eax, DWORD PTR [eax+1172]
  03290	6b c0 19	 imul	 eax, 25			; 00000019H
  03293	99		 cdq
  03294	b9 64 00 00 00	 mov	 ecx, 100		; 00000064H
  03299	f7 f9		 idiv	 ecx
  0329b	8b 55 f8	 mov	 edx, DWORD PTR _lpObj$[ebp]
  0329e	03 82 94 04 00
	00		 add	 eax, DWORD PTR [edx+1172]
  032a4	8b 4d f8	 mov	 ecx, DWORD PTR _lpObj$[ebp]
  032a7	89 81 94 04 00
	00		 mov	 DWORD PTR [ecx+1172], eax
  032ad	e9 0d 01 00 00	 jmp	 $LN59@gObjCalCha
$LN69@gObjCalCha:

; 1072 : 			}
; 1073 : 			else if ( Level13Count == 5 )

  032b2	83 bd a8 fe ff
	ff 05		 cmp	 DWORD PTR _Level13Count$[ebp], 5
  032b9	75 2b		 jne	 SHORT $LN67@gObjCalCha

; 1074 : 			{
; 1075 : 				lpObj->m_Defense += lpObj->m_Defense * 20 / 100;

  032bb	8b 45 f8	 mov	 eax, DWORD PTR _lpObj$[ebp]
  032be	8b 80 94 04 00
	00		 mov	 eax, DWORD PTR [eax+1172]
  032c4	6b c0 14	 imul	 eax, 20			; 00000014H
  032c7	99		 cdq
  032c8	b9 64 00 00 00	 mov	 ecx, 100		; 00000064H
  032cd	f7 f9		 idiv	 ecx
  032cf	8b 55 f8	 mov	 edx, DWORD PTR _lpObj$[ebp]
  032d2	03 82 94 04 00
	00		 add	 eax, DWORD PTR [edx+1172]
  032d8	8b 4d f8	 mov	 ecx, DWORD PTR _lpObj$[ebp]
  032db	89 81 94 04 00
	00		 mov	 DWORD PTR [ecx+1172], eax
  032e1	e9 d9 00 00 00	 jmp	 $LN59@gObjCalCha
$LN67@gObjCalCha:

; 1076 : 			}
; 1077 : 			else if ( Level12Count == 5 || (Level12Count + Level13Count) == 5 )

  032e6	83 bd ac fe ff
	ff 05		 cmp	 DWORD PTR _Level12Count$[ebp], 5
  032ed	74 11		 je	 SHORT $LN64@gObjCalCha
  032ef	8b 85 ac fe ff
	ff		 mov	 eax, DWORD PTR _Level12Count$[ebp]
  032f5	03 85 a8 fe ff
	ff		 add	 eax, DWORD PTR _Level13Count$[ebp]
  032fb	83 f8 05	 cmp	 eax, 5
  032fe	75 2b		 jne	 SHORT $LN65@gObjCalCha
$LN64@gObjCalCha:

; 1078 : 			{
; 1079 : 				lpObj->m_Defense += lpObj->m_Defense * 15 / 100;

  03300	8b 45 f8	 mov	 eax, DWORD PTR _lpObj$[ebp]
  03303	8b 80 94 04 00
	00		 mov	 eax, DWORD PTR [eax+1172]
  03309	6b c0 0f	 imul	 eax, 15			; 0000000fH
  0330c	99		 cdq
  0330d	b9 64 00 00 00	 mov	 ecx, 100		; 00000064H
  03312	f7 f9		 idiv	 ecx
  03314	8b 55 f8	 mov	 edx, DWORD PTR _lpObj$[ebp]
  03317	03 82 94 04 00
	00		 add	 eax, DWORD PTR [edx+1172]
  0331d	8b 4d f8	 mov	 ecx, DWORD PTR _lpObj$[ebp]
  03320	89 81 94 04 00
	00		 mov	 DWORD PTR [ecx+1172], eax
  03326	e9 94 00 00 00	 jmp	 $LN59@gObjCalCha
$LN65@gObjCalCha:

; 1080 : 			}
; 1081 : 			else if ( Level11Count == 5 || (Level11Count + Level12Count + Level13Count) == 5 )

  0332b	83 bd b4 fe ff
	ff 05		 cmp	 DWORD PTR _Level11Count$[ebp], 5
  03332	74 17		 je	 SHORT $LN61@gObjCalCha
  03334	8b 85 b4 fe ff
	ff		 mov	 eax, DWORD PTR _Level11Count$[ebp]
  0333a	03 85 ac fe ff
	ff		 add	 eax, DWORD PTR _Level12Count$[ebp]
  03340	03 85 a8 fe ff
	ff		 add	 eax, DWORD PTR _Level13Count$[ebp]
  03346	83 f8 05	 cmp	 eax, 5
  03349	75 28		 jne	 SHORT $LN62@gObjCalCha
$LN61@gObjCalCha:

; 1082 : 			{
; 1083 : 				lpObj->m_Defense += lpObj->m_Defense * 10 / 100;

  0334b	8b 45 f8	 mov	 eax, DWORD PTR _lpObj$[ebp]
  0334e	8b 80 94 04 00
	00		 mov	 eax, DWORD PTR [eax+1172]
  03354	6b c0 0a	 imul	 eax, 10			; 0000000aH
  03357	99		 cdq
  03358	b9 64 00 00 00	 mov	 ecx, 100		; 00000064H
  0335d	f7 f9		 idiv	 ecx
  0335f	8b 55 f8	 mov	 edx, DWORD PTR _lpObj$[ebp]
  03362	03 82 94 04 00
	00		 add	 eax, DWORD PTR [edx+1172]
  03368	8b 4d f8	 mov	 ecx, DWORD PTR _lpObj$[ebp]
  0336b	89 81 94 04 00
	00		 mov	 DWORD PTR [ecx+1172], eax
  03371	eb 4c		 jmp	 SHORT $LN59@gObjCalCha
$LN62@gObjCalCha:

; 1084 : 			}
; 1085 : 			else if ( Level10Count == 5 || (Level10Count + Level11Count + Level12Count + Level13Count) == 5)

  03373	83 bd b0 fe ff
	ff 05		 cmp	 DWORD PTR _Level10Count$[ebp], 5
  0337a	74 1d		 je	 SHORT $LN58@gObjCalCha
  0337c	8b 85 b0 fe ff
	ff		 mov	 eax, DWORD PTR _Level10Count$[ebp]
  03382	03 85 b4 fe ff
	ff		 add	 eax, DWORD PTR _Level11Count$[ebp]
  03388	03 85 ac fe ff
	ff		 add	 eax, DWORD PTR _Level12Count$[ebp]
  0338e	03 85 a8 fe ff
	ff		 add	 eax, DWORD PTR _Level13Count$[ebp]
  03394	83 f8 05	 cmp	 eax, 5
  03397	75 26		 jne	 SHORT $LN59@gObjCalCha
$LN58@gObjCalCha:

; 1086 : 			{
; 1087 : 				lpObj->m_Defense += lpObj->m_Defense * 5 / 100;

  03399	8b 45 f8	 mov	 eax, DWORD PTR _lpObj$[ebp]
  0339c	8b 80 94 04 00
	00		 mov	 eax, DWORD PTR [eax+1172]
  033a2	6b c0 05	 imul	 eax, 5
  033a5	99		 cdq
  033a6	b9 64 00 00 00	 mov	 ecx, 100		; 00000064H
  033ab	f7 f9		 idiv	 ecx
  033ad	8b 55 f8	 mov	 edx, DWORD PTR _lpObj$[ebp]
  033b0	03 82 94 04 00
	00		 add	 eax, DWORD PTR [edx+1172]
  033b6	8b 4d f8	 mov	 ecx, DWORD PTR _lpObj$[ebp]
  033b9	89 81 94 04 00
	00		 mov	 DWORD PTR [ecx+1172], eax
$LN59@gObjCalCha:

; 1088 : 			}
; 1089 : 		}
; 1090 : 	}
; 1091 : 
; 1092 : 	lpObj->m_Defense += lpObj->m_MPSkillOpt.MpsDefence;

  033bf	8b 45 f8	 mov	 eax, DWORD PTR _lpObj$[ebp]
  033c2	db 80 94 04 00
	00		 fild	 DWORD PTR [eax+1172]
  033c8	8b 4d f8	 mov	 ecx, DWORD PTR _lpObj$[ebp]
  033cb	d8 81 34 27 00
	00		 fadd	 DWORD PTR [ecx+10036]
  033d1	e8 00 00 00 00	 call	 __ftol2_sse
  033d6	8b 55 f8	 mov	 edx, DWORD PTR _lpObj$[ebp]
  033d9	89 82 94 04 00
	00		 mov	 DWORD PTR [edx+1172], eax

; 1093 : 
; 1094 : 	lpObj->m_Defense = lpObj->m_Defense * 10 / 20;

  033df	8b 45 f8	 mov	 eax, DWORD PTR _lpObj$[ebp]
  033e2	8b 80 94 04 00
	00		 mov	 eax, DWORD PTR [eax+1172]
  033e8	6b c0 0a	 imul	 eax, 10			; 0000000aH
  033eb	99		 cdq
  033ec	b9 14 00 00 00	 mov	 ecx, 20			; 00000014H
  033f1	f7 f9		 idiv	 ecx
  033f3	8b 55 f8	 mov	 edx, DWORD PTR _lpObj$[ebp]
  033f6	89 82 94 04 00
	00		 mov	 DWORD PTR [edx+1172], eax

; 1095 : 
; 1096 : 	if ( lpObj->m_Change == 9 )

  033fc	8b 45 f8	 mov	 eax, DWORD PTR _lpObj$[ebp]
  033ff	83 b8 54 04 00
	00 09		 cmp	 DWORD PTR [eax+1108], 9
  03406	75 05		 jne	 SHORT $LN57@gObjCalCha
  03408	e9 60 02 00 00	 jmp	 $LN47@gObjCalCha
$LN57@gObjCalCha:

; 1097 : 	{
; 1098 : 		//Empty
; 1099 : 	}
; 1100 : 	else if ( lpObj->m_Change == 41 )

  0340d	8b 45 f8	 mov	 eax, DWORD PTR _lpObj$[ebp]
  03410	83 b8 54 04 00
	00 29		 cmp	 DWORD PTR [eax+1108], 41 ; 00000029H
  03417	75 2a		 jne	 SHORT $LN55@gObjCalCha

; 1101 : 	{
; 1102 : 		lpObj->AddLife = ((int)(lpObj->MaxLife * 20.0f))/100;

  03419	8b 45 f8	 mov	 eax, DWORD PTR _lpObj$[ebp]
  0341c	d9 80 00 01 00
	00		 fld	 DWORD PTR [eax+256]
  03422	dc 0d 00 00 00
	00		 fmul	 QWORD PTR __real@4034000000000000
  03428	e8 00 00 00 00	 call	 __ftol2_sse
  0342d	99		 cdq
  0342e	b9 64 00 00 00	 mov	 ecx, 100		; 00000064H
  03433	f7 f9		 idiv	 ecx
  03435	8b 55 f8	 mov	 edx, DWORD PTR _lpObj$[ebp]
  03438	89 82 4c 01 00
	00		 mov	 DWORD PTR [edx+332], eax
  0343e	e9 2a 02 00 00	 jmp	 $LN47@gObjCalCha
$LN55@gObjCalCha:

; 1103 : 	}
; 1104 : 	else if ( lpObj->m_Change == 372 )

  03443	8b 45 f8	 mov	 eax, DWORD PTR _lpObj$[ebp]
  03446	81 b8 54 04 00
	00 74 01 00 00	 cmp	 DWORD PTR [eax+1108], 372 ; 00000174H
  03450	75 50		 jne	 SHORT $LN53@gObjCalCha

; 1105 : 	{
; 1106 : 		lpObj->m_Defense += lpObj->m_Defense / 10;

  03452	8b 45 f8	 mov	 eax, DWORD PTR _lpObj$[ebp]
  03455	8b 80 94 04 00
	00		 mov	 eax, DWORD PTR [eax+1172]
  0345b	99		 cdq
  0345c	b9 0a 00 00 00	 mov	 ecx, 10			; 0000000aH
  03461	f7 f9		 idiv	 ecx
  03463	8b 55 f8	 mov	 edx, DWORD PTR _lpObj$[ebp]
  03466	03 82 94 04 00
	00		 add	 eax, DWORD PTR [edx+1172]
  0346c	8b 4d f8	 mov	 ecx, DWORD PTR _lpObj$[ebp]
  0346f	89 81 94 04 00
	00		 mov	 DWORD PTR [ecx+1172], eax

; 1107 : 		lpObj->AddLife += lpObj->Level + lpObj->MLevel;

  03475	8b 45 f8	 mov	 eax, DWORD PTR _lpObj$[ebp]
  03478	0f bf 88 be 00
	00 00		 movsx	 ecx, WORD PTR [eax+190]
  0347f	8b 55 f8	 mov	 edx, DWORD PTR _lpObj$[ebp]
  03482	0f bf 82 d0 00
	00 00		 movsx	 eax, WORD PTR [edx+208]
  03489	03 c8		 add	 ecx, eax
  0348b	8b 55 f8	 mov	 edx, DWORD PTR _lpObj$[ebp]
  0348e	03 8a 4c 01 00
	00		 add	 ecx, DWORD PTR [edx+332]
  03494	8b 45 f8	 mov	 eax, DWORD PTR _lpObj$[ebp]
  03497	89 88 4c 01 00
	00		 mov	 DWORD PTR [eax+332], ecx
  0349d	e9 cb 01 00 00	 jmp	 $LN47@gObjCalCha
$LN53@gObjCalCha:

; 1108 : 	}
; 1109 : 	else if ( lpObj->m_Change == 374 ) //Santa Girl Polymorph Ring (Season 2.5 Add-on)

  034a2	8b 45 f8	 mov	 eax, DWORD PTR _lpObj$[ebp]
  034a5	81 b8 54 04 00
	00 76 01 00 00	 cmp	 DWORD PTR [eax+1108], 374 ; 00000176H
  034af	0f 85 83 00 00
	00		 jne	 $LN51@gObjCalCha

; 1110 : 	{
; 1111 : 		lpObj->m_AttackDamageMaxLeft += 20;

  034b5	8b 45 f8	 mov	 eax, DWORD PTR _lpObj$[ebp]
  034b8	8b 88 78 04 00
	00		 mov	 ecx, DWORD PTR [eax+1144]
  034be	83 c1 14	 add	 ecx, 20			; 00000014H
  034c1	8b 55 f8	 mov	 edx, DWORD PTR _lpObj$[ebp]
  034c4	89 8a 78 04 00
	00		 mov	 DWORD PTR [edx+1144], ecx

; 1112 : 		lpObj->m_AttackDamageMinLeft += 20;

  034ca	8b 45 f8	 mov	 eax, DWORD PTR _lpObj$[ebp]
  034cd	8b 88 7c 04 00
	00		 mov	 ecx, DWORD PTR [eax+1148]
  034d3	83 c1 14	 add	 ecx, 20			; 00000014H
  034d6	8b 55 f8	 mov	 edx, DWORD PTR _lpObj$[ebp]
  034d9	89 8a 7c 04 00
	00		 mov	 DWORD PTR [edx+1148], ecx

; 1113 : 		lpObj->m_AttackDamageMaxRight += 20;

  034df	8b 45 f8	 mov	 eax, DWORD PTR _lpObj$[ebp]
  034e2	8b 88 80 04 00
	00		 mov	 ecx, DWORD PTR [eax+1152]
  034e8	83 c1 14	 add	 ecx, 20			; 00000014H
  034eb	8b 55 f8	 mov	 edx, DWORD PTR _lpObj$[ebp]
  034ee	89 8a 80 04 00
	00		 mov	 DWORD PTR [edx+1152], ecx

; 1114 : 		lpObj->m_AttackDamageMinRight += 20;

  034f4	8b 45 f8	 mov	 eax, DWORD PTR _lpObj$[ebp]
  034f7	8b 88 84 04 00
	00		 mov	 ecx, DWORD PTR [eax+1156]
  034fd	83 c1 14	 add	 ecx, 20			; 00000014H
  03500	8b 55 f8	 mov	 edx, DWORD PTR _lpObj$[ebp]
  03503	89 8a 84 04 00
	00		 mov	 DWORD PTR [edx+1156], ecx

; 1115 : 		lpObj->m_MagicDamageMin += 20;

  03509	8b 45 f8	 mov	 eax, DWORD PTR _lpObj$[ebp]
  0350c	8b 88 68 04 00
	00		 mov	 ecx, DWORD PTR [eax+1128]
  03512	83 c1 14	 add	 ecx, 20			; 00000014H
  03515	8b 55 f8	 mov	 edx, DWORD PTR _lpObj$[ebp]
  03518	89 8a 68 04 00
	00		 mov	 DWORD PTR [edx+1128], ecx

; 1116 : 		lpObj->m_MagicDamageMax += 20;

  0351e	8b 45 f8	 mov	 eax, DWORD PTR _lpObj$[ebp]
  03521	8b 88 6c 04 00
	00		 mov	 ecx, DWORD PTR [eax+1132]
  03527	83 c1 14	 add	 ecx, 20			; 00000014H
  0352a	8b 55 f8	 mov	 edx, DWORD PTR _lpObj$[ebp]
  0352d	89 8a 6c 04 00
	00		 mov	 DWORD PTR [edx+1132], ecx
  03533	e9 35 01 00 00	 jmp	 $LN47@gObjCalCha
$LN51@gObjCalCha:

; 1117 : 	}
; 1118 : 	else if ( lpObj->m_Change == 503 ) //Panda Ring (Season 4.6 Add-on)

  03538	8b 45 f8	 mov	 eax, DWORD PTR _lpObj$[ebp]
  0353b	81 b8 54 04 00
	00 f7 01 00 00	 cmp	 DWORD PTR [eax+1108], 503 ; 000001f7H
  03545	0f 85 95 00 00
	00		 jne	 $LN49@gObjCalCha

; 1119 : 	{
; 1120 : 		//int Ex_PandaRingAttack = GetPrivateProfileInt("PandaRing","AttackDamage",30,"..\\Data\\ExData\\Pets.ini");
; 1121 : 		//int Ex_PandaRingAttack = ExConfig.Pet.Ex_PandaRingAttack;
; 1122 : 		lpObj->m_AttackDamageMaxLeft += ExConfig.Pet.Ex_PandaRingAttack;

  0354b	8b 45 f8	 mov	 eax, DWORD PTR _lpObj$[ebp]
  0354e	8b 88 78 04 00
	00		 mov	 ecx, DWORD PTR [eax+1144]
  03554	03 0d 3c 08 00
	00		 add	 ecx, DWORD PTR ?ExConfig@@3VcExConfigs@@A+2108
  0355a	8b 55 f8	 mov	 edx, DWORD PTR _lpObj$[ebp]
  0355d	89 8a 78 04 00
	00		 mov	 DWORD PTR [edx+1144], ecx

; 1123 : 		lpObj->m_AttackDamageMinLeft += ExConfig.Pet.Ex_PandaRingAttack;

  03563	8b 45 f8	 mov	 eax, DWORD PTR _lpObj$[ebp]
  03566	8b 88 7c 04 00
	00		 mov	 ecx, DWORD PTR [eax+1148]
  0356c	03 0d 3c 08 00
	00		 add	 ecx, DWORD PTR ?ExConfig@@3VcExConfigs@@A+2108
  03572	8b 55 f8	 mov	 edx, DWORD PTR _lpObj$[ebp]
  03575	89 8a 7c 04 00
	00		 mov	 DWORD PTR [edx+1148], ecx

; 1124 : 		lpObj->m_AttackDamageMaxRight += ExConfig.Pet.Ex_PandaRingAttack;

  0357b	8b 45 f8	 mov	 eax, DWORD PTR _lpObj$[ebp]
  0357e	8b 88 80 04 00
	00		 mov	 ecx, DWORD PTR [eax+1152]
  03584	03 0d 3c 08 00
	00		 add	 ecx, DWORD PTR ?ExConfig@@3VcExConfigs@@A+2108
  0358a	8b 55 f8	 mov	 edx, DWORD PTR _lpObj$[ebp]
  0358d	89 8a 80 04 00
	00		 mov	 DWORD PTR [edx+1152], ecx

; 1125 : 		lpObj->m_AttackDamageMinRight += ExConfig.Pet.Ex_PandaRingAttack;

  03593	8b 45 f8	 mov	 eax, DWORD PTR _lpObj$[ebp]
  03596	8b 88 84 04 00
	00		 mov	 ecx, DWORD PTR [eax+1156]
  0359c	03 0d 3c 08 00
	00		 add	 ecx, DWORD PTR ?ExConfig@@3VcExConfigs@@A+2108
  035a2	8b 55 f8	 mov	 edx, DWORD PTR _lpObj$[ebp]
  035a5	89 8a 84 04 00
	00		 mov	 DWORD PTR [edx+1156], ecx

; 1126 : 		lpObj->m_MagicDamageMin += ExConfig.Pet.Ex_PandaRingAttack;

  035ab	8b 45 f8	 mov	 eax, DWORD PTR _lpObj$[ebp]
  035ae	8b 88 68 04 00
	00		 mov	 ecx, DWORD PTR [eax+1128]
  035b4	03 0d 3c 08 00
	00		 add	 ecx, DWORD PTR ?ExConfig@@3VcExConfigs@@A+2108
  035ba	8b 55 f8	 mov	 edx, DWORD PTR _lpObj$[ebp]
  035bd	89 8a 68 04 00
	00		 mov	 DWORD PTR [edx+1128], ecx

; 1127 : 		lpObj->m_MagicDamageMax += ExConfig.Pet.Ex_PandaRingAttack;

  035c3	8b 45 f8	 mov	 eax, DWORD PTR _lpObj$[ebp]
  035c6	8b 88 6c 04 00
	00		 mov	 ecx, DWORD PTR [eax+1132]
  035cc	03 0d 3c 08 00
	00		 add	 ecx, DWORD PTR ?ExConfig@@3VcExConfigs@@A+2108
  035d2	8b 55 f8	 mov	 edx, DWORD PTR _lpObj$[ebp]
  035d5	89 8a 6c 04 00
	00		 mov	 DWORD PTR [edx+1132], ecx
  035db	e9 8d 00 00 00	 jmp	 $LN47@gObjCalCha
$LN49@gObjCalCha:

; 1128 : 	}
; 1129 : 	else if ( lpObj->m_Change == 548 ) //Season 5 Skeleton Ring

  035e0	8b 45 f8	 mov	 eax, DWORD PTR _lpObj$[ebp]
  035e3	81 b8 54 04 00
	00 24 02 00 00	 cmp	 DWORD PTR [eax+1108], 548 ; 00000224H
  035ed	75 7e		 jne	 SHORT $LN47@gObjCalCha

; 1130 : 	{
; 1131 : 		lpObj->m_AttackDamageMaxLeft += 40;

  035ef	8b 45 f8	 mov	 eax, DWORD PTR _lpObj$[ebp]
  035f2	8b 88 78 04 00
	00		 mov	 ecx, DWORD PTR [eax+1144]
  035f8	83 c1 28	 add	 ecx, 40			; 00000028H
  035fb	8b 55 f8	 mov	 edx, DWORD PTR _lpObj$[ebp]
  035fe	89 8a 78 04 00
	00		 mov	 DWORD PTR [edx+1144], ecx

; 1132 : 		lpObj->m_AttackDamageMinLeft += 40;

  03604	8b 45 f8	 mov	 eax, DWORD PTR _lpObj$[ebp]
  03607	8b 88 7c 04 00
	00		 mov	 ecx, DWORD PTR [eax+1148]
  0360d	83 c1 28	 add	 ecx, 40			; 00000028H
  03610	8b 55 f8	 mov	 edx, DWORD PTR _lpObj$[ebp]
  03613	89 8a 7c 04 00
	00		 mov	 DWORD PTR [edx+1148], ecx

; 1133 : 		lpObj->m_AttackDamageMaxRight += 40;

  03619	8b 45 f8	 mov	 eax, DWORD PTR _lpObj$[ebp]
  0361c	8b 88 80 04 00
	00		 mov	 ecx, DWORD PTR [eax+1152]
