; Listing generated by Microsoft (R) Optimizing Compiler Version 16.00.40219.01 

	TITLE	D:\Projects\ExTeam6.3\Source\GameServer\GameServer\ObjCalCharacter.cpp
	.686P
	.XMM
	include listing.inc
	.model	flat

INCLUDELIB LIBCMT
INCLUDELIB OLDNAMES

_DATA	SEGMENT
_g_iNpcUpDfLevel_CGATE DD 01H
	DD	02H
	DD	02dc6c0H
	DD	02H
	DD	03H
	DD	02dc6c0H
	DD	03H
	DD	04H
	DD	02dc6c0H
_g_iNpcUpDfLevel_CSTATUE DD 01H
	DD	03H
	DD	02dc6c0H
	DD	02H
	DD	05H
	DD	02dc6c0H
	DD	03H
	DD	07H
	DD	02dc6c0H
_g_iNpcUpMaxHP_CGATE DD 02625a0H
	DD	02H
	DD	0f4240H
	DD	03567e0H
	DD	03H
	DD	0f4240H
	DD	04f5880H
	DD	04H
	DD	0f4240H
_g_iNpcUpMaxHP_CSTATUE DD 02191c0H
	DD	03H
	DD	0f4240H
	DD	033e140H
	DD	05H
	DD	0f4240H
	DD	04c4b40H
	DD	07H
	DD	0f4240H
_g_iNpcUpRgLevel_CSTATUE DD 01H
	DD	03H
	DD	04c4b40H
	DD	02H
	DD	05H
	DD	04c4b40H
	DD	03H
	DD	07H
	DD	04c4b40H
_g_iCsUserReSpawnArea DD 023H
	DD	011H
	DD	090H
	DD	030H
	DD	04aH
	DD	090H
	DD	073H
	DD	09aH
	DD	023H
	DD	011H
	DD	090H
	DD	030H
_g_iNpcDefense_CGATE DD 064H
	DD	0b4H
	DD	012cH
	DD	0208H
_g_iNpcDefense_CSTATUE DD 050H
	DD	0b4H
	DD	0154H
	DD	0226H
_g_iCastleWallStepAxisY DD 071H
	DD	0a0H
	DD	0cbH
_DATA	ENDS
PUBLIC	??_H@YGXPAXIHP6EPAX0@Z@Z			; `vector constructor iterator'
; Function compile flags: /Odtp /ZI
;	COMDAT ??_H@YGXPAXIHP6EPAX0@Z@Z
_TEXT	SEGMENT
___t$ = 8						; size = 4
___s$ = 12						; size = 4
___n$ = 16						; size = 4
___f$ = 20						; size = 4
??_H@YGXPAXIHP6EPAX0@Z@Z PROC				; `vector constructor iterator', COMDAT
  00000	55		 push	 ebp
  00001	8b ec		 mov	 ebp, esp
  00003	83 ec 40	 sub	 esp, 64			; 00000040H
  00006	53		 push	 ebx
  00007	56		 push	 esi
  00008	57		 push	 edi
$LN2@vector:
  00009	8b 45 10	 mov	 eax, DWORD PTR ___n$[ebp]
  0000c	83 e8 01	 sub	 eax, 1
  0000f	89 45 10	 mov	 DWORD PTR ___n$[ebp], eax
  00012	78 11		 js	 SHORT $LN3@vector
  00014	8b 4d 08	 mov	 ecx, DWORD PTR ___t$[ebp]
  00017	ff 55 14	 call	 DWORD PTR ___f$[ebp]
  0001a	8b 45 08	 mov	 eax, DWORD PTR ___t$[ebp]
  0001d	03 45 0c	 add	 eax, DWORD PTR ___s$[ebp]
  00020	89 45 08	 mov	 DWORD PTR ___t$[ebp], eax
  00023	eb e4		 jmp	 SHORT $LN2@vector
$LN3@vector:
  00025	5f		 pop	 edi
  00026	5e		 pop	 esi
  00027	5b		 pop	 ebx
  00028	8b e5		 mov	 esp, ebp
  0002a	5d		 pop	 ebp
  0002b	c2 10 00	 ret	 16			; 00000010H
??_H@YGXPAXIHP6EPAX0@Z@Z ENDP				; `vector constructor iterator'
_TEXT	ENDS
PUBLIC	?gObjCalcShieldPoint@@YAXPAUOBJECTSTRUCT@@@Z	; gObjCalcShieldPoint
PUBLIC	__real@3fb1eb8520000000
PUBLIC	__real@3fa99999a0000000
PUBLIC	__real@3ff0000000000000
PUBLIC	__real@3f9eb851e0000000
PUBLIC	?gObjSetItemApply@@YAXPAUOBJECTSTRUCT@@@Z	; gObjSetItemApply
PUBLIC	?GObjExtItemApply@@YAXPAUOBJECTSTRUCT@@@Z	; GObjExtItemApply
PUBLIC	__real@4034000000000000
PUBLIC	__real@4059000000000000
PUBLIC	__real@0000000000000000
PUBLIC	??_C@_0BC@GFGEFHFO@Leadership?3?5?$CFd?0?$CFd?$AA@ ; `string'
PUBLIC	??_C@_0CB@KNPOLDNB@Vitality?3?5?$CFd?0?$CFd?5?5?5?5Energy?3?5?$CFd?0?$CFd@ ; `string'
PUBLIC	??_C@_0CE@OBLIFBFL@Strength?3?5?$CFd?0?$CFd?5?5?5?5Dexterity?3?5?$CFd@ ; `string'
PUBLIC	?gObjValidItem@@YAHPAUOBJECTSTRUCT@@PAVCItem@@H@Z ; gObjValidItem
PUBLIC	?gObjCalcSetItemOption@@YAXPAUOBJECTSTRUCT@@@Z	; gObjCalcSetItemOption
PUBLIC	?gObjCalcSetItemStat@@YAXPAUOBJECTSTRUCT@@@Z	; gObjCalcSetItemStat
PUBLIC	__$ArrayPad$
PUBLIC	?gObjCalCharacter@@YAXH@Z			; gObjCalCharacter
EXTRN	?Send@CStatsAdvance@@QAEXH@Z:PROC		; CStatsAdvance::Send
EXTRN	?g_StatsAdvance@@3VCStatsAdvance@@A:DWORD	; g_StatsAdvance
EXTRN	?PlayerCalculator@cWingsDamage@@QAEXH@Z:PROC	; cWingsDamage::PlayerCalculator
EXTRN	?gWingsDamage@@3VcWingsDamage@@A:BYTE		; gWingsDamage
EXTRN	?GCManaSend@@YAXHHEEH@Z:PROC			; GCManaSend
EXTRN	?GCReFillSend@@YAXHHEEH@Z:PROC			; GCReFillSend
EXTRN	?Refflect@cBalanceSystem@@QAEXPAUOBJECTSTRUCT@@@Z:PROC ; cBalanceSystem::Refflect
EXTRN	?gBalanceSystem@@3VcBalanceSystem@@A:BYTE	; gBalanceSystem
EXTRN	?PlayerCalculator@Voter@@QAEXH@Z:PROC		; Voter::PlayerCalculator
EXTRN	?gVoter@@3VVoter@@A:BYTE			; gVoter
EXTRN	?Main@cMaxPower@@QAEXH@Z:PROC			; cMaxPower::Main
EXTRN	?gMaxPower@@3VcMaxPower@@A:BYTE			; gMaxPower
EXTRN	?Calc@CPetEx@@QAEXH@Z:PROC			; CPetEx::Calc
EXTRN	?g_PetEx@@3VCPetEx@@A:BYTE			; g_PetEx
EXTRN	?CalculatorPower@CAchievements@@QAEXH@Z:PROC	; CAchievements::CalculatorPower
EXTRN	?g_Achievements@@3VCAchievements@@A:BYTE	; g_Achievements
EXTRN	?GuildBuffCharacter@CDungeonSiege@@QAEXH@Z:PROC	; CDungeonSiege::GuildBuffCharacter
EXTRN	?g_DungeonSiege@@3VCDungeonSiege@@A:BYTE	; g_DungeonSiege
EXTRN	?gObjSearchActiveEffect@@YAEPAUOBJECTSTRUCT@@H@Z:PROC ; gObjSearchActiveEffect
EXTRN	?AddedCharacter@CMarriage@@QAEXH@Z:PROC		; CMarriage::AddedCharacter
EXTRN	?g_Marriage@@3VCMarriage@@A:BYTE		; g_Marriage
EXTRN	?AddedCharacter@cBMQuest@@QAEXH@Z:PROC		; cBMQuest::AddedCharacter
EXTRN	?BMQuest@@3VcBMQuest@@A:BYTE			; BMQuest
EXTRN	?CharacterAdded@Brotherhood@@QAEXPAUOBJECTSTRUCT@@@Z:PROC ; Brotherhood::CharacterAdded
EXTRN	?gBrotherhood@@3VBrotherhood@@A:BYTE		; gBrotherhood
EXTRN	?Options@cExclusiveOptions@@QAEXH@Z:PROC	; cExclusiveOptions::Options
EXTRN	?gExclusiveOptions@@3VcExclusiveOptions@@A:BYTE	; gExclusiveOptions
EXTRN	?CharOptions@cWinQuestSystem@@QAEXH@Z:PROC	; cWinQuestSystem::CharOptions
EXTRN	?gWinQuestSystem@@3VcWinQuestSystem@@A:BYTE	; gWinQuestSystem
EXTRN	?CalcCharacter@cSystemOfRage@@QAEXH@Z:PROC	; cSystemOfRage::CalcCharacter
EXTRN	?ApplyForEquipment@CItemAddOption@@QAE_NPAUOBJECTSTRUCT@@@Z:PROC ; CItemAddOption::ApplyForEquipment
EXTRN	?NextSetItemLastEffectForHallowin@CItemAddOption@@QAE_NPAUOBJECTSTRUCT@@@Z:PROC ; CItemAddOption::NextSetItemLastEffectForHallowin
EXTRN	?NextSetBuffLastEffect@CViewportSkillState@@QAEXPAUOBJECTSTRUCT@@@Z:PROC ; CViewportSkillState::NextSetBuffLastEffect
EXTRN	?UserCalculatorPlus@PremiumSystemEx@@QAEXH@Z:PROC ; PremiumSystemEx::UserCalculatorPlus
EXTRN	?g_PremiumSystemEx@@3VPremiumSystemEx@@A:BYTE	; g_PremiumSystemEx
EXTRN	?NextSetItemLastEffectForCashShop@CItemAddOption@@QAE_NPAUOBJECTSTRUCT@@@Z:PROC ; CItemAddOption::NextSetItemLastEffectForCashShop
EXTRN	?ItemOption@cGrandHero@@QAEXH@Z:PROC		; cGrandHero::ItemOption
EXTRN	?GrandHero@@3VcGrandHero@@A:BYTE		; GrandHero
EXTRN	?gObjNextExpCal@@YAXPAUOBJECTSTRUCT@@@Z:PROC	; gObjNextExpCal
EXTRN	?gObjInventoryEquipment@@YAHPAUOBJECTSTRUCT@@@Z:PROC ; gObjInventoryEquipment
EXTRN	?CalCharacterSocketOption@CSocketOption@@QAEEPAUOBJECTSTRUCT@@@Z:PROC ; CSocketOption::CalCharacterSocketOption
EXTRN	?g_SocketOption@@3VCSocketOption@@A:BYTE	; g_SocketOption
EXTRN	?SetApplyStrengthenItem@CJewelOfHarmonySystem@@QAEXPAUOBJECTSTRUCT@@@Z:PROC ; CJewelOfHarmonySystem::SetApplyStrengthenItem
EXTRN	?g_kJewelOfHarmonySystem@@3VCJewelOfHarmonySystem@@A:BYTE ; g_kJewelOfHarmonySystem
EXTRN	?ApplyFor380Option@CItemSystemFor380@@QAEHPAUOBJECTSTRUCT@@@Z:PROC ; CItemSystemFor380::ApplyFor380Option
EXTRN	?g_kItemSystemFor380@@3VCItemSystemFor380@@A:BYTE ; g_kItemSystemFor380
EXTRN	?BookSpellDmg@CItem@@QAEHXZ:PROC		; CItem::BookSpellDmg
EXTRN	?PlusSpecialPercentEx@CItem@@QAEXPAHHH@Z:PROC	; CItem::PlusSpecialPercentEx
EXTRN	?gObjCheckUserPCBang@@YAHPAUOBJECTSTRUCT@@@Z:PROC ; gObjCheckUserPCBang
EXTRN	?Set@CDarkSpirit@@QAEXHPAVCItem@@@Z:PROC	; CDarkSpirit::Set
EXTRN	?gDarkSpirit@@3PAVCDarkSpirit@@A:BYTE		; gDarkSpirit
EXTRN	?gObjPandaSprite@@YAHPAUOBJECTSTRUCT@@@Z:PROC	; gObjPandaSprite
EXTRN	?gObjSpiritGuardianSprite@@YAHPAUOBJECTSTRUCT@@@Z:PROC ; gObjSpiritGuardianSprite
EXTRN	?gObjSkeletonSprite@@YAHPAUOBJECTSTRUCT@@@Z:PROC ; gObjSkeletonSprite
EXTRN	?gObjDemonSprite@@YAHPAUOBJECTSTRUCT@@@Z:PROC	; gObjDemonSprite
EXTRN	?IsFenrirDecLastAttackDamage@CItem@@QAEHXZ:PROC	; CItem::IsFenrirDecLastAttackDamage
EXTRN	?IsFenrirIncLastAttackDamage@CItem@@QAEHXZ:PROC	; CItem::IsFenrirIncLastAttackDamage
EXTRN	?IsFenrirSpecial@CItem@@QAEHXZ:PROC		; CItem::IsFenrirSpecial
EXTRN	?gMinimumAttackSpeedTime@@3HA:DWORD		; gMinimumAttackSpeedTime
EXTRN	?gDecTimePerAttackSpeed@@3MA:DWORD		; gDecTimePerAttackSpeed
EXTRN	?gAttackSpeedTimeLimit@@3KA:DWORD		; gAttackSpeedTimeLimit
EXTRN	?ItemDefense@CItem@@QAEHXZ:PROC			; CItem::ItemDefense
EXTRN	?PlusSpecial@CItem@@QAEXPAHH@Z:PROC		; CItem::PlusSpecial
EXTRN	?CalculatorManager@@3VcCalculatorManager@@A:BYTE ; CalculatorManager
EXTRN	?CheckUser@CExLicense@@QAE_NH@Z:PROC		; CExLicense::CheckUser
EXTRN	?ExConfig@@3VcExConfigs@@A:BYTE			; ExConfig
EXTRN	?GCServerMsgStringSend@@YAXPADHE@Z:PROC		; GCServerMsgStringSend
EXTRN	_sprintf:PROC
EXTRN	?g_bAbilityDebug@@3HA:DWORD			; g_bAbilityDebug
EXTRN	?CalcStats@cSystemOfRage@@QAEXH@Z:PROC		; cSystemOfRage::CalcStats
EXTRN	?gSystemOfRage@@3VcSystemOfRage@@A:BYTE		; gSystemOfRage
EXTRN	?g_ExLicense@@3VCExLicense@@A:BYTE		; g_ExLicense
EXTRN	?CalCharacterRemoveBuffEffect@CViewportSkillState@@QAEXPAUOBJECTSTRUCT@@@Z:PROC ; CViewportSkillState::CalCharacterRemoveBuffEffect
EXTRN	?PrevBuffLastEffect@CViewportSkillState@@QAEXPAUOBJECTSTRUCT@@@Z:PROC ; CViewportSkillState::PrevBuffLastEffect
EXTRN	?g_ViewportSkillState@@3VCViewportSkillState@@A:DWORD ; g_ViewportSkillState
EXTRN	?PrevSetItemLastEffectForCashShop@CItemAddOption@@QAE_NPAUOBJECTSTRUCT@@@Z:PROC ; CItemAddOption::PrevSetItemLastEffectForCashShop
EXTRN	_memset:PROC
EXTRN	?PrevSetItemLastEffectForHallowin@CItemAddOption@@QAE_NPAUOBJECTSTRUCT@@@Z:PROC ; CItemAddOption::PrevSetItemLastEffectForHallowin
EXTRN	?g_ItemAddOption@@3VCItemAddOption@@A:BYTE	; g_ItemAddOption
EXTRN	?IsItem@CItem@@QAEHXZ:PROC			; CItem::IsItem
EXTRN	?gObj@@3PAUOBJECTSTRUCT@@A:DWORD		; gObj
EXTRN	___security_cookie:DWORD
EXTRN	__fltused:DWORD
EXTRN	@__security_check_cookie@4:PROC
EXTRN	__ftol2_sse:PROC
;	COMDAT __real@3fb1eb8520000000
; File d:\projects\exteam6.3\source\gameserver\gameserver\objcalcharacter.cpp
CONST	SEGMENT
__real@3fb1eb8520000000 DQ 03fb1eb8520000000r	; 0.07
CONST	ENDS
;	COMDAT __real@3fa99999a0000000
CONST	SEGMENT
__real@3fa99999a0000000 DQ 03fa99999a0000000r	; 0.05
CONST	ENDS
;	COMDAT __real@3ff0000000000000
CONST	SEGMENT
__real@3ff0000000000000 DQ 03ff0000000000000r	; 1
CONST	ENDS
;	COMDAT __real@3f9eb851e0000000
CONST	SEGMENT
__real@3f9eb851e0000000 DQ 03f9eb851e0000000r	; 0.03
CONST	ENDS
;	COMDAT __real@4034000000000000
CONST	SEGMENT
__real@4034000000000000 DQ 04034000000000000r	; 20
CONST	ENDS
;	COMDAT __real@4059000000000000
CONST	SEGMENT
__real@4059000000000000 DQ 04059000000000000r	; 100
CONST	ENDS
;	COMDAT __real@0000000000000000
CONST	SEGMENT
__real@0000000000000000 DQ 00000000000000000r	; 0
CONST	ENDS
;	COMDAT ??_C@_0BC@GFGEFHFO@Leadership?3?5?$CFd?0?$CFd?$AA@
CONST	SEGMENT
??_C@_0BC@GFGEFHFO@Leadership?3?5?$CFd?0?$CFd?$AA@ DB 'Leadership: %d,%d', 00H ; `string'
CONST	ENDS
;	COMDAT ??_C@_0CB@KNPOLDNB@Vitality?3?5?$CFd?0?$CFd?5?5?5?5Energy?3?5?$CFd?0?$CFd@
CONST	SEGMENT
??_C@_0CB@KNPOLDNB@Vitality?3?5?$CFd?0?$CFd?5?5?5?5Energy?3?5?$CFd?0?$CFd@ DB 'V'
	DB	'itality: %d,%d    Energy: %d,%d', 00H	; `string'
CONST	ENDS
;	COMDAT ??_C@_0CE@OBLIFBFL@Strength?3?5?$CFd?0?$CFd?5?5?5?5Dexterity?3?5?$CFd@
CONST	SEGMENT
??_C@_0CE@OBLIFBFL@Strength?3?5?$CFd?0?$CFd?5?5?5?5Dexterity?3?5?$CFd@ DB 'S'
	DB	'trength: %d,%d    Dexterity: %d,%d', 00H	; `string'
; Function compile flags: /Odtp /ZI
CONST	ENDS
_TEXT	SEGMENT
tv6360 = -520						; size = 4
tv6349 = -520						; size = 4
tv6336 = -520						; size = 4
tv6325 = -520						; size = 4
tv6312 = -520						; size = 4
tv6301 = -520						; size = 4
tv6284 = -520						; size = 4
tv6273 = -520						; size = 4
tv6260 = -520						; size = 4
tv6249 = -520						; size = 4
tv6236 = -520						; size = 4
tv6225 = -520						; size = 4
tv5185 = -520						; size = 4
tv6358 = -516						; size = 4
tv6347 = -516						; size = 4
tv6334 = -516						; size = 4
tv6323 = -516						; size = 4
tv6310 = -516						; size = 4
tv6299 = -516						; size = 4
tv6282 = -516						; size = 4
tv6271 = -516						; size = 4
tv6258 = -516						; size = 4
tv6247 = -516						; size = 4
tv6234 = -516						; size = 4
tv6223 = -516						; size = 4
tv5194 = -516						; size = 8
tv5181 = -516						; size = 8
tv6166 = -512						; size = 4
tv6158 = -512						; size = 4
tv6150 = -512						; size = 4
tv2943 = -511						; size = 1
tv2903 = -511						; size = 1
tv2863 = -511						; size = 1
tv2823 = -511						; size = 1
tv2783 = -511						; size = 1
tv2743 = -511						; size = 1
tv2703 = -511						; size = 1
tv6355 = -510						; size = 2
tv6344 = -510						; size = 2
tv6331 = -510						; size = 2
tv6320 = -510						; size = 2
tv6307 = -510						; size = 2
tv6296 = -510						; size = 2
tv6279 = -510						; size = 2
tv6268 = -510						; size = 2
tv6255 = -510						; size = 2
tv6244 = -510						; size = 2
tv6231 = -510						; size = 2
tv6220 = -510						; size = 2
tv2939 = -510						; size = 1
tv2899 = -510						; size = 1
tv2859 = -510						; size = 1
tv2819 = -510						; size = 1
tv2779 = -510						; size = 1
tv2739 = -510						; size = 1
tv2699 = -510						; size = 1
tv2919 = -509						; size = 1
tv2879 = -509						; size = 1
tv2839 = -509						; size = 1
tv2799 = -509						; size = 1
tv2759 = -509						; size = 1
tv2719 = -509						; size = 1
tv2679 = -509						; size = 1
_AddProcentDefence$232981 = -444			; size = 4
_AddProcentDamage$232980 = -440				; size = 4
_AddProcentDefence$232978 = -436			; size = 4
_AddProcentDamage$232977 = -432				; size = 4
_AddProcentDefence$232975 = -428			; size = 4
_AddProcentDamage$232974 = -424				; size = 4
_AddProcentDefence$232972 = -420			; size = 4
_AddProcentDamage$232971 = -416				; size = 4
_AddProcentDoubleDamage$232969 = -412			; size = 4
_AddProcentExellentDamage$232967 = -408			; size = 4
_AddProcentCriticalDamage$232966 = -404			; size = 4
_AddProcentDefence$232964 = -400			; size = 4
_AddProcentDamage$232962 = -396				; size = 4
_comparecount$ = -392					; size = 4
_rItem$ = -388						; size = 12
_addmana$ = -376					; size = 4
_addlife$ = -372					; size = 4
_BaseLevel$232859 = -368				; size = 4
_m$232822 = -364					; size = 4
_m$232805 = -360					; size = 4
_in$232801 = -356					; size = 4
_Level15Count$ = -352					; size = 4
_Level14Count$ = -348					; size = 4
_Level13Count$ = -344					; size = 4
_Level12Count$ = -340					; size = 4
_Level10Count$ = -336					; size = 4
_Level11Count$ = -332					; size = 4
_k$232788 = -328					; size = 4
_j$232781 = -324					; size = 4
_Success$ = -319					; size = 1
_bLeft$ = -318						; size = 1
_bRight$ = -317						; size = 1
_AddLeadership$ = -316					; size = 4
_szTemp$232649 = -312					; size = 256
_bIsChangeItem$ = -56					; size = 4
_iItemIndex$ = -52					; size = 4
_iType$232627 = -48					; size = 4
_Helper$ = -44						; size = 4
_Amulet$ = -40						; size = 4
_Gloves$ = -36						; size = 4
_Left$ = -32						; size = 4
_Right$ = -28						; size = 4
_Energy$ = -24						; size = 4
_Vitality$ = -20					; size = 4
_Dexterity$ = -16					; size = 4
_Strength$ = -12					; size = 4
_lpObj$ = -8						; size = 4
__$ArrayPad$ = -4					; size = 4
_aIndex$ = 8						; size = 4
?gObjCalCharacter@@YAXH@Z PROC				; gObjCalCharacter

; 42   : {

  00000	55		 push	 ebp
  00001	8b ec		 mov	 ebp, esp
  00003	81 ec 08 02 00
	00		 sub	 esp, 520		; 00000208H
  00009	a1 00 00 00 00	 mov	 eax, DWORD PTR ___security_cookie
  0000e	33 c5		 xor	 eax, ebp
  00010	89 45 fc	 mov	 DWORD PTR __$ArrayPad$[ebp], eax
  00013	53		 push	 ebx
  00014	56		 push	 esi
  00015	57		 push	 edi

; 43   : 	LPOBJ lpObj = &gObj[aIndex];

  00016	8b 45 08	 mov	 eax, DWORD PTR _aIndex$[ebp]
  00019	69 c0 38 2b 00
	00		 imul	 eax, 11064		; 00002b38H
  0001f	03 05 00 00 00
	00		 add	 eax, DWORD PTR ?gObj@@3PAUOBJECTSTRUCT@@A ; gObj
  00025	89 45 f8	 mov	 DWORD PTR _lpObj$[ebp], eax

; 44   : 	int Strength = 0;

  00028	c7 45 f4 00 00
	00 00		 mov	 DWORD PTR _Strength$[ebp], 0

; 45   : 	int Dexterity = 0;

  0002f	c7 45 f0 00 00
	00 00		 mov	 DWORD PTR _Dexterity$[ebp], 0

; 46   : 	int Vitality = 0;

  00036	c7 45 ec 00 00
	00 00		 mov	 DWORD PTR _Vitality$[ebp], 0

; 47   : 	int Energy = 0;

  0003d	c7 45 e8 00 00
	00 00		 mov	 DWORD PTR _Energy$[ebp], 0

; 48   : 	CItem * Right = &lpObj->pInventory[0];

  00044	8b 45 f8	 mov	 eax, DWORD PTR _lpObj$[ebp]
  00047	8b 88 24 0e 00
	00		 mov	 ecx, DWORD PTR [eax+3620]
  0004d	89 4d e4	 mov	 DWORD PTR _Right$[ebp], ecx

; 49   : 	CItem * Left  = &lpObj->pInventory[1];

  00050	8b 45 f8	 mov	 eax, DWORD PTR _lpObj$[ebp]
  00053	8b 88 24 0e 00
	00		 mov	 ecx, DWORD PTR [eax+3620]
  00059	81 c1 d4 00 00
	00		 add	 ecx, 212		; 000000d4H
  0005f	89 4d e0	 mov	 DWORD PTR _Left$[ebp], ecx

; 50   : 	CItem * Gloves = &lpObj->pInventory[5];

  00062	8b 45 f8	 mov	 eax, DWORD PTR _lpObj$[ebp]
  00065	8b 88 24 0e 00
	00		 mov	 ecx, DWORD PTR [eax+3620]
  0006b	81 c1 24 04 00
	00		 add	 ecx, 1060		; 00000424H
  00071	89 4d dc	 mov	 DWORD PTR _Gloves$[ebp], ecx

; 51   : 	CItem * Amulet = &lpObj->pInventory[9];

  00074	8b 45 f8	 mov	 eax, DWORD PTR _lpObj$[ebp]
  00077	8b 88 24 0e 00
	00		 mov	 ecx, DWORD PTR [eax+3620]
  0007d	81 c1 74 07 00
	00		 add	 ecx, 1908		; 00000774H
  00083	89 4d d8	 mov	 DWORD PTR _Amulet$[ebp], ecx

; 52   : 	CItem * Helper = &lpObj->pInventory[8];

  00086	8b 45 f8	 mov	 eax, DWORD PTR _lpObj$[ebp]
  00089	8b 88 24 0e 00
	00		 mov	 ecx, DWORD PTR [eax+3620]
  0008f	81 c1 a0 06 00
	00		 add	 ecx, 1696		; 000006a0H
  00095	89 4d d4	 mov	 DWORD PTR _Helper$[ebp], ecx

; 53   : 	lpObj->HaveWeaponInHand = true;

  00098	8b 45 f8	 mov	 eax, DWORD PTR _lpObj$[ebp]
  0009b	c6 80 47 10 00
	00 01		 mov	 BYTE PTR [eax+4167], 1

; 54   : 
; 55   : 	if ( Right->IsItem() == FALSE && Left->IsItem() == FALSE )

  000a2	8b 4d e4	 mov	 ecx, DWORD PTR _Right$[ebp]
  000a5	e8 00 00 00 00	 call	 ?IsItem@CItem@@QAEHXZ	; CItem::IsItem
  000aa	85 c0		 test	 eax, eax
  000ac	75 18		 jne	 SHORT $LN280@gObjCalCha
  000ae	8b 4d e0	 mov	 ecx, DWORD PTR _Left$[ebp]
  000b1	e8 00 00 00 00	 call	 ?IsItem@CItem@@QAEHXZ	; CItem::IsItem
  000b6	85 c0		 test	 eax, eax
  000b8	75 0c		 jne	 SHORT $LN280@gObjCalCha

; 56   : 	{
; 57   : 		lpObj->HaveWeaponInHand = false;

  000ba	8b 45 f8	 mov	 eax, DWORD PTR _lpObj$[ebp]
  000bd	c6 80 47 10 00
	00 00		 mov	 BYTE PTR [eax+4167], 0
  000c4	eb 74		 jmp	 SHORT $LN273@gObjCalCha
$LN280@gObjCalCha:

; 58   : 	}
; 59   : 	else if ( Left->IsItem() == FALSE && Right->m_Type == ITEMGET(4,15) )

  000c6	8b 4d e0	 mov	 ecx, DWORD PTR _Left$[ebp]
  000c9	e8 00 00 00 00	 call	 ?IsItem@CItem@@QAEHXZ	; CItem::IsItem
  000ce	85 c0		 test	 eax, eax
  000d0	75 1b		 jne	 SHORT $LN278@gObjCalCha
  000d2	8b 45 e4	 mov	 eax, DWORD PTR _Right$[ebp]
  000d5	0f bf 48 06	 movsx	 ecx, WORD PTR [eax+6]
  000d9	81 f9 0f 08 00
	00		 cmp	 ecx, 2063		; 0000080fH
  000df	75 0c		 jne	 SHORT $LN278@gObjCalCha

; 60   : 	{
; 61   : 		lpObj->HaveWeaponInHand = false;

  000e1	8b 45 f8	 mov	 eax, DWORD PTR _lpObj$[ebp]
  000e4	c6 80 47 10 00
	00 00		 mov	 BYTE PTR [eax+4167], 0
  000eb	eb 4d		 jmp	 SHORT $LN273@gObjCalCha
$LN278@gObjCalCha:

; 62   : 	}
; 63   : 	else if ( Right->IsItem() == FALSE )

  000ed	8b 4d e4	 mov	 ecx, DWORD PTR _Right$[ebp]
  000f0	e8 00 00 00 00	 call	 ?IsItem@CItem@@QAEHXZ	; CItem::IsItem
  000f5	85 c0		 test	 eax, eax
  000f7	75 41		 jne	 SHORT $LN273@gObjCalCha

; 64   : 	{
; 65   : 		int iType = Left->m_Type / MAX_SUBTYPE_ITEMS;

  000f9	8b 45 e0	 mov	 eax, DWORD PTR _Left$[ebp]
  000fc	0f bf 40 06	 movsx	 eax, WORD PTR [eax+6]
  00100	99		 cdq
  00101	81 e2 ff 01 00
	00		 and	 edx, 511		; 000001ffH
  00107	03 c2		 add	 eax, edx
  00109	c1 f8 09	 sar	 eax, 9
  0010c	89 45 d0	 mov	 DWORD PTR _iType$232627[ebp], eax

; 66   : 
; 67   : 		if ( Left->m_Type == ITEMGET(4,7) )

  0010f	8b 45 e0	 mov	 eax, DWORD PTR _Left$[ebp]
  00112	0f bf 48 06	 movsx	 ecx, WORD PTR [eax+6]
  00116	81 f9 07 08 00
	00		 cmp	 ecx, 2055		; 00000807H
  0011c	75 0c		 jne	 SHORT $LN275@gObjCalCha

; 68   : 		{
; 69   : 			lpObj->HaveWeaponInHand = false;

  0011e	8b 45 f8	 mov	 eax, DWORD PTR _lpObj$[ebp]
  00121	c6 80 47 10 00
	00 00		 mov	 BYTE PTR [eax+4167], 0
  00128	eb 10		 jmp	 SHORT $LN273@gObjCalCha
$LN275@gObjCalCha:

; 70   : 		}
; 71   : 		else if ( iType == 6 )

  0012a	83 7d d0 06	 cmp	 DWORD PTR _iType$232627[ebp], 6
  0012e	75 0a		 jne	 SHORT $LN273@gObjCalCha

; 72   : 		{
; 73   : 			lpObj->HaveWeaponInHand = false;

  00130	8b 45 f8	 mov	 eax, DWORD PTR _lpObj$[ebp]
  00133	c6 80 47 10 00
	00 00		 mov	 BYTE PTR [eax+4167], 0
$LN273@gObjCalCha:

; 74   : 		}
; 75   : 	}
; 76   : 
; 77   : 	lpObj->AddLife = 0;

  0013a	8b 45 f8	 mov	 eax, DWORD PTR _lpObj$[ebp]
  0013d	c7 80 4c 01 00
	00 00 00 00 00	 mov	 DWORD PTR [eax+332], 0

; 78   : 	lpObj->AddMana = 0;

  00147	8b 45 f8	 mov	 eax, DWORD PTR _lpObj$[ebp]
  0014a	c7 80 50 01 00
	00 00 00 00 00	 mov	 DWORD PTR [eax+336], 0

; 79   : 	lpObj->MonsterDieGetMoney = 0;

  00154	33 c0		 xor	 eax, eax
  00156	8b 4d f8	 mov	 ecx, DWORD PTR _lpObj$[ebp]
  00159	66 89 81 72 01
	00 00		 mov	 WORD PTR [ecx+370], ax

; 80   : 	lpObj->MonsterDieGetLife = 0;

  00160	8b 45 f8	 mov	 eax, DWORD PTR _lpObj$[ebp]
  00163	c6 80 74 01 00
	00 00		 mov	 BYTE PTR [eax+372], 0

; 81   : 	lpObj->MonsterDieGetMana = 0;

  0016a	8b 45 f8	 mov	 eax, DWORD PTR _lpObj$[ebp]
  0016d	c6 80 75 01 00
	00 00		 mov	 BYTE PTR [eax+373], 0

; 82   : 	lpObj->DamageReflect = 0;

  00174	8b 45 f8	 mov	 eax, DWORD PTR _lpObj$[ebp]
  00177	c6 80 71 01 00
	00 00		 mov	 BYTE PTR [eax+369], 0

; 83   : 	lpObj->DamageMinus = 0;

  0017e	8b 45 f8	 mov	 eax, DWORD PTR _lpObj$[ebp]
  00181	c6 80 70 01 00
	00 00		 mov	 BYTE PTR [eax+368], 0

; 84   : 	lpObj->SkillLongSpearChange = false;

  00188	8b 45 f8	 mov	 eax, DWORD PTR _lpObj$[ebp]
  0018b	c6 80 7a 12 00
	00 00		 mov	 BYTE PTR [eax+4730], 0

; 85   : 
; 86   : 	lpObj->RecoveryHp = 0;

  00192	8b 45 f8	 mov	 eax, DWORD PTR _lpObj$[ebp]
  00195	c7 80 c0 27 00
	00 00 00 00 00	 mov	 DWORD PTR [eax+10176], 0

; 87   : 	lpObj->RecoverySd = 0;

  0019f	8b 45 f8	 mov	 eax, DWORD PTR _lpObj$[ebp]
  001a2	c7 80 c4 27 00
	00 00 00 00 00	 mov	 DWORD PTR [eax+10180], 0

; 88   : 	lpObj->RecoveryMp = 0;

  001ac	8b 45 f8	 mov	 eax, DWORD PTR _lpObj$[ebp]
  001af	c7 80 c8 27 00
	00 00 00 00 00	 mov	 DWORD PTR [eax+10184], 0

; 89   : 	lpObj->RecoveryAg = 0;

  001b9	8b 45 f8	 mov	 eax, DWORD PTR _lpObj$[ebp]
  001bc	c7 80 cc 27 00
	00 00 00 00 00	 mov	 DWORD PTR [eax+10188], 0

; 90   : 
; 91   : 
; 92   : 
; 93   : 	if ( lpObj->m_iItemEffectValidTime > 0 )

  001c6	8b 45 f8	 mov	 eax, DWORD PTR _lpObj$[ebp]
  001c9	83 b8 18 20 00
	00 00		 cmp	 DWORD PTR [eax+8216], 0
  001d0	7e 0e		 jle	 SHORT $LN272@gObjCalCha

; 94   : 	{
; 95   : 		g_ItemAddOption.PrevSetItemLastEffectForHallowin(lpObj); //clear previous halloween effect (apply again later)

  001d2	8b 45 f8	 mov	 eax, DWORD PTR _lpObj$[ebp]
  001d5	50		 push	 eax
  001d6	b9 00 00 00 00	 mov	 ecx, OFFSET ?g_ItemAddOption@@3VCItemAddOption@@A ; g_ItemAddOption
  001db	e8 00 00 00 00	 call	 ?PrevSetItemLastEffectForHallowin@CItemAddOption@@QAE_NPAUOBJECTSTRUCT@@@Z ; CItemAddOption::PrevSetItemLastEffectForHallowin
$LN272@gObjCalCha:

; 96   : 	}
; 97   : 
; 98   : 	int iItemIndex;
; 99   : 	BOOL bIsChangeItem;
; 100  : 
; 101  : 	for ( iItemIndex=0; iItemIndex<MAX_PLAYER_EQUIPMENT;iItemIndex++)

  001e0	c7 45 cc 00 00
	00 00		 mov	 DWORD PTR _iItemIndex$[ebp], 0
  001e7	eb 09		 jmp	 SHORT $LN271@gObjCalCha
$LN270@gObjCalCha:
  001e9	8b 45 cc	 mov	 eax, DWORD PTR _iItemIndex$[ebp]
  001ec	83 c0 01	 add	 eax, 1
  001ef	89 45 cc	 mov	 DWORD PTR _iItemIndex$[ebp], eax
$LN271@gObjCalCha:
  001f2	83 7d cc 0c	 cmp	 DWORD PTR _iItemIndex$[ebp], 12 ; 0000000cH
  001f6	7d 37		 jge	 SHORT $LN269@gObjCalCha

; 102  : 	{
; 103  : 		if ( lpObj->pInventory[iItemIndex].IsItem() != FALSE )

  001f8	8b 4d cc	 mov	 ecx, DWORD PTR _iItemIndex$[ebp]
  001fb	69 c9 d4 00 00
	00		 imul	 ecx, 212		; 000000d4H
  00201	8b 45 f8	 mov	 eax, DWORD PTR _lpObj$[ebp]
  00204	03 88 24 0e 00
	00		 add	 ecx, DWORD PTR [eax+3620]
  0020a	e8 00 00 00 00	 call	 ?IsItem@CItem@@QAEHXZ	; CItem::IsItem
  0020f	85 c0		 test	 eax, eax
  00211	74 1a		 je	 SHORT $LN268@gObjCalCha

; 104  : 		{
; 105  : 			lpObj->pInventory[iItemIndex].m_IsValidItem = true;

  00213	8b 45 cc	 mov	 eax, DWORD PTR _iItemIndex$[ebp]
  00216	69 c0 d4 00 00
	00		 imul	 eax, 212		; 000000d4H
  0021c	8b 4d f8	 mov	 ecx, DWORD PTR _lpObj$[ebp]
  0021f	8b 91 24 0e 00
	00		 mov	 edx, DWORD PTR [ecx+3620]
  00225	c6 84 02 b0 00
	00 00 01	 mov	 BYTE PTR [edx+eax+176], 1
$LN268@gObjCalCha:

; 106  : 		}
; 107  : 	}

  0022d	eb ba		 jmp	 SHORT $LN270@gObjCalCha
$LN269@gObjCalCha:

; 108  : 
; 109  : 	do
; 110  : 	{
; 111  : 		lpObj->SetOpAddMaxAttackDamage = 0;

  0022f	33 c0		 xor	 eax, eax
  00231	8b 4d f8	 mov	 ecx, DWORD PTR _lpObj$[ebp]
  00234	66 89 81 34 11
	00 00		 mov	 WORD PTR [ecx+4404], ax

; 112  : 		lpObj->SetOpAddMinAttackDamage = 0;

  0023b	33 c0		 xor	 eax, eax
  0023d	8b 4d f8	 mov	 ecx, DWORD PTR _lpObj$[ebp]
  00240	66 89 81 32 11
	00 00		 mov	 WORD PTR [ecx+4402], ax

; 113  : 		lpObj->SetOpAddDamage = 0;

  00247	33 c0		 xor	 eax, eax
  00249	8b 4d f8	 mov	 ecx, DWORD PTR _lpObj$[ebp]
  0024c	66 89 81 30 11
	00 00		 mov	 WORD PTR [ecx+4400], ax

; 114  : 		lpObj->SetOpIncAGValue = 0;

  00253	33 c0		 xor	 eax, eax
  00255	8b 4d f8	 mov	 ecx, DWORD PTR _lpObj$[ebp]
  00258	66 89 81 2e 11
	00 00		 mov	 WORD PTR [ecx+4398], ax

; 115  : 		lpObj->SetOpAddCriticalDamageSuccessRate = 0;

  0025f	33 c0		 xor	 eax, eax
  00261	8b 4d f8	 mov	 ecx, DWORD PTR _lpObj$[ebp]
  00264	66 89 81 2c 11
	00 00		 mov	 WORD PTR [ecx+4396], ax

; 116  : 		lpObj->SetOpAddCriticalDamage = 0;

  0026b	33 c0		 xor	 eax, eax
  0026d	8b 4d f8	 mov	 ecx, DWORD PTR _lpObj$[ebp]
  00270	66 89 81 2a 11
	00 00		 mov	 WORD PTR [ecx+4394], ax

; 117  : 		lpObj->SetOpAddExDamageSuccessRate = 0;

  00277	33 c0		 xor	 eax, eax
  00279	8b 4d f8	 mov	 ecx, DWORD PTR _lpObj$[ebp]
  0027c	66 89 81 28 11
	00 00		 mov	 WORD PTR [ecx+4392], ax

; 118  : 		lpObj->SetOpAddExDamage = 0;

  00283	33 c0		 xor	 eax, eax
  00285	8b 4d f8	 mov	 ecx, DWORD PTR _lpObj$[ebp]
  00288	66 89 81 26 11
	00 00		 mov	 WORD PTR [ecx+4390], ax

; 119  : 		lpObj->SetOpAddSkillAttack = 0;

  0028f	33 c0		 xor	 eax, eax
  00291	8b 4d f8	 mov	 ecx, DWORD PTR _lpObj$[ebp]
  00294	66 89 81 24 11
	00 00		 mov	 WORD PTR [ecx+4388], ax

; 120  : 		lpObj->AddStrength = 0;

  0029b	33 c0		 xor	 eax, eax
  0029d	8b 4d f8	 mov	 ecx, DWORD PTR _lpObj$[ebp]
  002a0	66 89 81 20 01
	00 00		 mov	 WORD PTR [ecx+288], ax

; 121  : 		lpObj->AddDexterity = 0;

  002a7	33 c0		 xor	 eax, eax
  002a9	8b 4d f8	 mov	 ecx, DWORD PTR _lpObj$[ebp]
  002ac	66 89 81 22 01
	00 00		 mov	 WORD PTR [ecx+290], ax

; 122  : 		lpObj->AddVitality = 0;

  002b3	33 c0		 xor	 eax, eax
  002b5	8b 4d f8	 mov	 ecx, DWORD PTR _lpObj$[ebp]
  002b8	66 89 81 24 01
	00 00		 mov	 WORD PTR [ecx+292], ax

; 123  : 		lpObj->AddEnergy = 0;

  002bf	33 c0		 xor	 eax, eax
  002c1	8b 4d f8	 mov	 ecx, DWORD PTR _lpObj$[ebp]
  002c4	66 89 81 26 01
	00 00		 mov	 WORD PTR [ecx+294], ax

; 124  : 		lpObj->AddLeadership = 0; //season4 add-on (wz fix o/)

  002cb	33 c0		 xor	 eax, eax
  002cd	8b 4d f8	 mov	 ecx, DWORD PTR _lpObj$[ebp]
  002d0	66 89 81 1a 01
	00 00		 mov	 WORD PTR [ecx+282], ax

; 125  : 		lpObj->AddBP = 0;

  002d7	8b 45 f8	 mov	 eax, DWORD PTR _lpObj$[ebp]
  002da	c7 80 30 01 00
	00 00 00 00 00	 mov	 DWORD PTR [eax+304], 0

; 126  : 		lpObj->iAddShield = 0;

  002e4	8b 45 f8	 mov	 eax, DWORD PTR _lpObj$[ebp]
  002e7	c7 80 5c 01 00
	00 00 00 00 00	 mov	 DWORD PTR [eax+348], 0

; 127  : 		lpObj->SetOpAddAttackDamage = 0;

  002f1	33 c0		 xor	 eax, eax
  002f3	8b 4d f8	 mov	 ecx, DWORD PTR _lpObj$[ebp]
  002f6	66 89 81 36 11
	00 00		 mov	 WORD PTR [ecx+4406], ax

; 128  : 		lpObj->SetOpAddDefence = 0;

  002fd	33 c0		 xor	 eax, eax
  002ff	8b 4d f8	 mov	 ecx, DWORD PTR _lpObj$[ebp]
  00302	66 89 81 38 11
	00 00		 mov	 WORD PTR [ecx+4408], ax

; 129  : 		lpObj->SetOpAddMagicPower = 0;

  00309	33 c0		 xor	 eax, eax
  0030b	8b 4d f8	 mov	 ecx, DWORD PTR _lpObj$[ebp]
  0030e	66 89 81 3c 11
	00 00		 mov	 WORD PTR [ecx+4412], ax

; 130  : 		lpObj->SetOpAddDefenceRate = 0;

  00315	33 c0		 xor	 eax, eax
  00317	8b 4d f8	 mov	 ecx, DWORD PTR _lpObj$[ebp]
  0031a	66 89 81 3a 11
	00 00		 mov	 WORD PTR [ecx+4410], ax

; 131  : 		lpObj->SetOpIgnoreDefense = 0;

  00321	8b 45 f8	 mov	 eax, DWORD PTR _lpObj$[ebp]
  00324	c6 80 3e 11 00
	00 00		 mov	 BYTE PTR [eax+4414], 0

; 132  : 		lpObj->SetOpDoubleDamage = 0;

  0032b	8b 45 f8	 mov	 eax, DWORD PTR _lpObj$[ebp]
  0032e	c6 80 3f 11 00
	00 00		 mov	 BYTE PTR [eax+4415], 0

; 133  : 		lpObj->SetOpTwoHandSwordImproveDamage = 0;

  00335	8b 45 f8	 mov	 eax, DWORD PTR _lpObj$[ebp]
  00338	c6 80 40 11 00
	00 00		 mov	 BYTE PTR [eax+4416], 0

; 134  : 		lpObj->SetOpImproveSuccessAttackRate = 0;

  0033f	8b 45 f8	 mov	 eax, DWORD PTR _lpObj$[ebp]
  00342	c6 80 41 11 00
	00 00		 mov	 BYTE PTR [eax+4417], 0

; 135  : 		lpObj->SetOpReflectionDamage = 0;

  00349	8b 45 f8	 mov	 eax, DWORD PTR _lpObj$[ebp]
  0034c	c6 80 42 11 00
	00 00		 mov	 BYTE PTR [eax+4418], 0

; 136  : 		lpObj->SetOpImproveSheldDefence = 0;

  00353	8b 45 f8	 mov	 eax, DWORD PTR _lpObj$[ebp]
  00356	c6 80 43 11 00
	00 00		 mov	 BYTE PTR [eax+4419], 0

; 137  : 		lpObj->SetOpDecreaseAG = 0;

  0035d	8b 45 f8	 mov	 eax, DWORD PTR _lpObj$[ebp]
  00360	c6 80 44 11 00
	00 00		 mov	 BYTE PTR [eax+4420], 0

; 138  : 		lpObj->SetOpImproveItemDropRate = 0;

  00367	8b 45 f8	 mov	 eax, DWORD PTR _lpObj$[ebp]
  0036a	c6 80 45 11 00
	00 00		 mov	 BYTE PTR [eax+4421], 0

; 139  : 		lpObj->IsFullSetItem = false;

  00371	8b 45 f8	 mov	 eax, DWORD PTR _lpObj$[ebp]
  00374	c6 80 46 11 00
	00 00		 mov	 BYTE PTR [eax+4422], 0

; 140  : 
; 141  : 		memset(lpObj->m_AddResistance, 0, sizeof(lpObj->m_AddResistance));

  0037b	6a 07		 push	 7
  0037d	6a 00		 push	 0
  0037f	8b 45 f8	 mov	 eax, DWORD PTR _lpObj$[ebp]
  00382	05 ff 04 00 00	 add	 eax, 1279		; 000004ffH
  00387	50		 push	 eax
  00388	e8 00 00 00 00	 call	 _memset
  0038d	83 c4 0c	 add	 esp, 12			; 0000000cH

; 142  : 
; 143  : 		bIsChangeItem = FALSE;

  00390	c7 45 c8 00 00
	00 00		 mov	 DWORD PTR _bIsChangeItem$[ebp], 0

; 144  : 
; 145  : 		g_ItemAddOption.PrevSetItemLastEffectForCashShop(lpObj); //Clear Active CashShop Attributes (Leap Effect most in any case)

  00397	8b 45 f8	 mov	 eax, DWORD PTR _lpObj$[ebp]
  0039a	50		 push	 eax
  0039b	b9 00 00 00 00	 mov	 ecx, OFFSET ?g_ItemAddOption@@3VCItemAddOption@@A ; g_ItemAddOption
  003a0	e8 00 00 00 00	 call	 ?PrevSetItemLastEffectForCashShop@CItemAddOption@@QAE_NPAUOBJECTSTRUCT@@@Z ; CItemAddOption::PrevSetItemLastEffectForCashShop

; 146  : 		g_ViewportSkillState.PrevBuffLastEffect(lpObj); //Clear BuffEffect Attributes

  003a5	8b 45 f8	 mov	 eax, DWORD PTR _lpObj$[ebp]
  003a8	50		 push	 eax
  003a9	b9 00 00 00 00	 mov	 ecx, OFFSET ?g_ViewportSkillState@@3VCViewportSkillState@@A ; g_ViewportSkillState
  003ae	e8 00 00 00 00	 call	 ?PrevBuffLastEffect@CViewportSkillState@@QAEXPAUOBJECTSTRUCT@@@Z ; CViewportSkillState::PrevBuffLastEffect

; 147  : 
; 148  : 		gObjCalcSetItemStat(lpObj);

  003b3	8b 45 f8	 mov	 eax, DWORD PTR _lpObj$[ebp]
  003b6	50		 push	 eax
  003b7	e8 00 00 00 00	 call	 ?gObjCalcSetItemStat@@YAXPAUOBJECTSTRUCT@@@Z ; gObjCalcSetItemStat
  003bc	83 c4 04	 add	 esp, 4

; 149  : 		gObjCalcSetItemOption(lpObj);

  003bf	8b 45 f8	 mov	 eax, DWORD PTR _lpObj$[ebp]
  003c2	50		 push	 eax
  003c3	e8 00 00 00 00	 call	 ?gObjCalcSetItemOption@@YAXPAUOBJECTSTRUCT@@@Z ; gObjCalcSetItemOption
  003c8	83 c4 04	 add	 esp, 4

; 150  : 
; 151  : 		for (iItemIndex=0;iItemIndex<MAX_PLAYER_EQUIPMENT;iItemIndex++)

  003cb	c7 45 cc 00 00
	00 00		 mov	 DWORD PTR _iItemIndex$[ebp], 0
  003d2	eb 09		 jmp	 SHORT $LN264@gObjCalCha
$LN263@gObjCalCha:
  003d4	8b 45 cc	 mov	 eax, DWORD PTR _iItemIndex$[ebp]
  003d7	83 c0 01	 add	 eax, 1
  003da	89 45 cc	 mov	 DWORD PTR _iItemIndex$[ebp], eax
$LN264@gObjCalCha:
  003dd	83 7d cc 0c	 cmp	 DWORD PTR _iItemIndex$[ebp], 12 ; 0000000cH
  003e1	0f 8d b4 00 00
	00		 jge	 $LN262@gObjCalCha

; 152  : 		{
; 153  : 			if ( lpObj->pInventory[iItemIndex].IsItem() != FALSE && lpObj->pInventory[iItemIndex].m_IsValidItem != false )

  003e7	8b 4d cc	 mov	 ecx, DWORD PTR _iItemIndex$[ebp]
  003ea	69 c9 d4 00 00
	00		 imul	 ecx, 212		; 000000d4H
  003f0	8b 45 f8	 mov	 eax, DWORD PTR _lpObj$[ebp]
  003f3	03 88 24 0e 00
	00		 add	 ecx, DWORD PTR [eax+3620]
  003f9	e8 00 00 00 00	 call	 ?IsItem@CItem@@QAEHXZ	; CItem::IsItem
  003fe	85 c0		 test	 eax, eax
  00400	0f 84 90 00 00
	00		 je	 $LN259@gObjCalCha
  00406	8b 45 cc	 mov	 eax, DWORD PTR _iItemIndex$[ebp]
  00409	69 c0 d4 00 00
	00		 imul	 eax, 212		; 000000d4H
  0040f	8b 4d f8	 mov	 ecx, DWORD PTR _lpObj$[ebp]
  00412	8b 91 24 0e 00
	00		 mov	 edx, DWORD PTR [ecx+3620]
  00418	0f b6 84 02 b0
	00 00 00	 movzx	 eax, BYTE PTR [edx+eax+176]
  00420	85 c0		 test	 eax, eax
  00422	74 72		 je	 SHORT $LN259@gObjCalCha

; 154  : 			{
; 155  : 				if ( gObjValidItem( lpObj, &lpObj->pInventory[iItemIndex], iItemIndex) != FALSE )

  00424	8b 45 cc	 mov	 eax, DWORD PTR _iItemIndex$[ebp]
  00427	50		 push	 eax
  00428	8b 4d cc	 mov	 ecx, DWORD PTR _iItemIndex$[ebp]
  0042b	69 c9 d4 00 00
	00		 imul	 ecx, 212		; 000000d4H
  00431	8b 55 f8	 mov	 edx, DWORD PTR _lpObj$[ebp]
  00434	03 8a 24 0e 00
	00		 add	 ecx, DWORD PTR [edx+3620]
  0043a	51		 push	 ecx
  0043b	8b 45 f8	 mov	 eax, DWORD PTR _lpObj$[ebp]
  0043e	50		 push	 eax
  0043f	e8 00 00 00 00	 call	 ?gObjValidItem@@YAHPAUOBJECTSTRUCT@@PAVCItem@@H@Z ; gObjValidItem
  00444	83 c4 0c	 add	 esp, 12			; 0000000cH
  00447	85 c0		 test	 eax, eax
  00449	74 1c		 je	 SHORT $LN260@gObjCalCha

; 156  : 				{
; 157  : 					lpObj->pInventory[iItemIndex].m_IsValidItem = true;

  0044b	8b 45 cc	 mov	 eax, DWORD PTR _iItemIndex$[ebp]
  0044e	69 c0 d4 00 00
	00		 imul	 eax, 212		; 000000d4H
  00454	8b 4d f8	 mov	 ecx, DWORD PTR _lpObj$[ebp]
  00457	8b 91 24 0e 00
	00		 mov	 edx, DWORD PTR [ecx+3620]
  0045d	c6 84 02 b0 00
	00 00 01	 mov	 BYTE PTR [edx+eax+176], 1

; 158  : 				}
; 159  : 				else

  00465	eb 2f		 jmp	 SHORT $LN259@gObjCalCha
$LN260@gObjCalCha:

; 160  : 				{
; 161  : 					lpObj->pInventory[iItemIndex].m_IsValidItem  = false;

  00467	8b 45 cc	 mov	 eax, DWORD PTR _iItemIndex$[ebp]
  0046a	69 c0 d4 00 00
	00		 imul	 eax, 212		; 000000d4H
  00470	8b 4d f8	 mov	 ecx, DWORD PTR _lpObj$[ebp]
  00473	8b 91 24 0e 00
	00		 mov	 edx, DWORD PTR [ecx+3620]
  00479	c6 84 02 b0 00
	00 00 00	 mov	 BYTE PTR [edx+eax+176], 0

; 162  : 					g_ViewportSkillState.CalCharacterRemoveBuffEffect(lpObj); //season4 add-on

  00481	8b 45 f8	 mov	 eax, DWORD PTR _lpObj$[ebp]
  00484	50		 push	 eax
  00485	b9 00 00 00 00	 mov	 ecx, OFFSET ?g_ViewportSkillState@@3VCViewportSkillState@@A ; g_ViewportSkillState
  0048a	e8 00 00 00 00	 call	 ?CalCharacterRemoveBuffEffect@CViewportSkillState@@QAEXPAUOBJECTSTRUCT@@@Z ; CViewportSkillState::CalCharacterRemoveBuffEffect

; 163  : 					bIsChangeItem = TRUE;

  0048f	c7 45 c8 01 00
	00 00		 mov	 DWORD PTR _bIsChangeItem$[ebp], 1
$LN259@gObjCalCha:

; 164  : 				}
; 165  : 			}
; 166  : 		}

  00496	e9 39 ff ff ff	 jmp	 $LN263@gObjCalCha
$LN262@gObjCalCha:

; 167  : 	}
; 168  : 	while ( bIsChangeItem != FALSE );

  0049b	83 7d c8 00	 cmp	 DWORD PTR _bIsChangeItem$[ebp], 0
  0049f	0f 85 8a fd ff
	ff		 jne	 $LN269@gObjCalCha

; 169  : 
; 170  : 	if(g_ExLicense.user.Rage)

  004a5	0f b6 05 c9 00
	00 00		 movzx	 eax, BYTE PTR ?g_ExLicense@@3VCExLicense@@A+201
  004ac	85 c0		 test	 eax, eax
  004ae	74 0e		 je	 SHORT $LN258@gObjCalCha

; 171  : 	{
; 172  : 		gSystemOfRage.CalcStats(aIndex);

  004b0	8b 45 08	 mov	 eax, DWORD PTR _aIndex$[ebp]
  004b3	50		 push	 eax
  004b4	b9 00 00 00 00	 mov	 ecx, OFFSET ?gSystemOfRage@@3VcSystemOfRage@@A ; gSystemOfRage
  004b9	e8 00 00 00 00	 call	 ?CalcStats@cSystemOfRage@@QAEXH@Z ; cSystemOfRage::CalcStats
$LN258@gObjCalCha:

; 173  : 	}
; 174  : 
; 175  : 	Strength = lpObj->Strength + lpObj->AddStrength;

  004be	8b 45 f8	 mov	 eax, DWORD PTR _lpObj$[ebp]
  004c1	0f b7 88 f4 00
	00 00		 movzx	 ecx, WORD PTR [eax+244]
  004c8	8b 55 f8	 mov	 edx, DWORD PTR _lpObj$[ebp]
  004cb	0f bf 82 20 01
	00 00		 movsx	 eax, WORD PTR [edx+288]
  004d2	03 c8		 add	 ecx, eax
  004d4	89 4d f4	 mov	 DWORD PTR _Strength$[ebp], ecx

; 176  : 	Dexterity = lpObj->Dexterity + lpObj->AddDexterity;

  004d7	8b 45 f8	 mov	 eax, DWORD PTR _lpObj$[ebp]
  004da	0f b7 88 f6 00
	00 00		 movzx	 ecx, WORD PTR [eax+246]
  004e1	8b 55 f8	 mov	 edx, DWORD PTR _lpObj$[ebp]
  004e4	0f bf 82 22 01
	00 00		 movsx	 eax, WORD PTR [edx+290]
  004eb	03 c8		 add	 ecx, eax
  004ed	89 4d f0	 mov	 DWORD PTR _Dexterity$[ebp], ecx

; 177  : 	Vitality = lpObj->Vitality + lpObj->AddVitality;

  004f0	8b 45 f8	 mov	 eax, DWORD PTR _lpObj$[ebp]
  004f3	0f b7 88 f8 00
	00 00		 movzx	 ecx, WORD PTR [eax+248]
  004fa	8b 55 f8	 mov	 edx, DWORD PTR _lpObj$[ebp]
  004fd	0f bf 82 24 01
	00 00		 movsx	 eax, WORD PTR [edx+292]
  00504	03 c8		 add	 ecx, eax
  00506	89 4d ec	 mov	 DWORD PTR _Vitality$[ebp], ecx

; 178  : 	Energy = lpObj->Energy + lpObj->AddEnergy; //loc5

  00509	8b 45 f8	 mov	 eax, DWORD PTR _lpObj$[ebp]
  0050c	0f b7 88 fa 00
	00 00		 movzx	 ecx, WORD PTR [eax+250]
  00513	8b 55 f8	 mov	 edx, DWORD PTR _lpObj$[ebp]
  00516	0f bf 82 26 01
	00 00		 movsx	 eax, WORD PTR [edx+294]
  0051d	03 c8		 add	 ecx, eax
  0051f	89 4d e8	 mov	 DWORD PTR _Energy$[ebp], ecx

; 179  : 
; 180  : 	if(g_bAbilityDebug == 1) //season3 add-on for GM

  00522	83 3d 00 00 00
	00 01		 cmp	 DWORD PTR ?g_bAbilityDebug@@3HA, 1 ; g_bAbilityDebug
  00529	0f 85 1b 01 00
	00		 jne	 $LN257@gObjCalCha

; 181  : 	{
; 182  : 		char szTemp[256];
; 183  : 		
; 184  : 		sprintf(szTemp, "Strength: %d,%d    Dexterity: %d,%d", lpObj->Strength, lpObj->AddStrength, lpObj->Dexterity, lpObj->AddDexterity);

  0052f	8b 45 f8	 mov	 eax, DWORD PTR _lpObj$[ebp]
  00532	0f bf 88 22 01
	00 00		 movsx	 ecx, WORD PTR [eax+290]
  00539	51		 push	 ecx
  0053a	8b 55 f8	 mov	 edx, DWORD PTR _lpObj$[ebp]
  0053d	0f b7 82 f6 00
	00 00		 movzx	 eax, WORD PTR [edx+246]
  00544	50		 push	 eax
  00545	8b 4d f8	 mov	 ecx, DWORD PTR _lpObj$[ebp]
  00548	0f bf 91 20 01
	00 00		 movsx	 edx, WORD PTR [ecx+288]
  0054f	52		 push	 edx
  00550	8b 45 f8	 mov	 eax, DWORD PTR _lpObj$[ebp]
  00553	0f b7 88 f4 00
	00 00		 movzx	 ecx, WORD PTR [eax+244]
  0055a	51		 push	 ecx
  0055b	68 00 00 00 00	 push	 OFFSET ??_C@_0CE@OBLIFBFL@Strength?3?5?$CFd?0?$CFd?5?5?5?5Dexterity?3?5?$CFd@
  00560	8d 95 c8 fe ff
	ff		 lea	 edx, DWORD PTR _szTemp$232649[ebp]
  00566	52		 push	 edx
  00567	e8 00 00 00 00	 call	 _sprintf
  0056c	83 c4 18	 add	 esp, 24			; 00000018H

; 185  : 		GCServerMsgStringSend(szTemp, lpObj->m_Index, 1);

  0056f	6a 01		 push	 1
  00571	8b 45 f8	 mov	 eax, DWORD PTR _lpObj$[ebp]
  00574	8b 08		 mov	 ecx, DWORD PTR [eax]
  00576	51		 push	 ecx
  00577	8d 95 c8 fe ff
	ff		 lea	 edx, DWORD PTR _szTemp$232649[ebp]
  0057d	52		 push	 edx
  0057e	e8 00 00 00 00	 call	 ?GCServerMsgStringSend@@YAXPADHE@Z ; GCServerMsgStringSend
  00583	83 c4 0c	 add	 esp, 12			; 0000000cH

; 186  : 
; 187  : 		memset(szTemp, 0, 256);

  00586	68 00 01 00 00	 push	 256			; 00000100H
  0058b	6a 00		 push	 0
  0058d	8d 85 c8 fe ff
	ff		 lea	 eax, DWORD PTR _szTemp$232649[ebp]
  00593	50		 push	 eax
  00594	e8 00 00 00 00	 call	 _memset
  00599	83 c4 0c	 add	 esp, 12			; 0000000cH

; 188  : 
; 189  : 		sprintf(szTemp, "Vitality: %d,%d    Energy: %d,%d", lpObj->Vitality, lpObj->AddVitality, lpObj->Energy, lpObj->AddEnergy);

  0059c	8b 45 f8	 mov	 eax, DWORD PTR _lpObj$[ebp]
  0059f	0f bf 88 26 01
	00 00		 movsx	 ecx, WORD PTR [eax+294]
  005a6	51		 push	 ecx
  005a7	8b 55 f8	 mov	 edx, DWORD PTR _lpObj$[ebp]
  005aa	0f b7 82 fa 00
	00 00		 movzx	 eax, WORD PTR [edx+250]
  005b1	50		 push	 eax
  005b2	8b 4d f8	 mov	 ecx, DWORD PTR _lpObj$[ebp]
  005b5	0f bf 91 24 01
	00 00		 movsx	 edx, WORD PTR [ecx+292]
  005bc	52		 push	 edx
  005bd	8b 45 f8	 mov	 eax, DWORD PTR _lpObj$[ebp]
  005c0	0f b7 88 f8 00
	00 00		 movzx	 ecx, WORD PTR [eax+248]
  005c7	51		 push	 ecx
  005c8	68 00 00 00 00	 push	 OFFSET ??_C@_0CB@KNPOLDNB@Vitality?3?5?$CFd?0?$CFd?5?5?5?5Energy?3?5?$CFd?0?$CFd@
  005cd	8d 95 c8 fe ff
	ff		 lea	 edx, DWORD PTR _szTemp$232649[ebp]
  005d3	52		 push	 edx
  005d4	e8 00 00 00 00	 call	 _sprintf
  005d9	83 c4 18	 add	 esp, 24			; 00000018H

; 190  : 		GCServerMsgStringSend(szTemp, lpObj->m_Index, 1);

  005dc	6a 01		 push	 1
  005de	8b 45 f8	 mov	 eax, DWORD PTR _lpObj$[ebp]
  005e1	8b 08		 mov	 ecx, DWORD PTR [eax]
  005e3	51		 push	 ecx
  005e4	8d 95 c8 fe ff
	ff		 lea	 edx, DWORD PTR _szTemp$232649[ebp]
  005ea	52		 push	 edx
  005eb	e8 00 00 00 00	 call	 ?GCServerMsgStringSend@@YAXPADHE@Z ; GCServerMsgStringSend
  005f0	83 c4 0c	 add	 esp, 12			; 0000000cH

; 191  : 
; 192  : 		//season4 add-on
; 193  : 		memset(szTemp, 0, 256);

  005f3	68 00 01 00 00	 push	 256			; 00000100H
  005f8	6a 00		 push	 0
  005fa	8d 85 c8 fe ff
	ff		 lea	 eax, DWORD PTR _szTemp$232649[ebp]
  00600	50		 push	 eax
  00601	e8 00 00 00 00	 call	 _memset
  00606	83 c4 0c	 add	 esp, 12			; 0000000cH

; 194  : 
; 195  : 		sprintf(szTemp, "Leadership: %d,%d", lpObj->Leadership, lpObj->AddLeadership);

  00609	8b 45 f8	 mov	 eax, DWORD PTR _lpObj$[ebp]
  0060c	0f b7 88 1a 01
	00 00		 movzx	 ecx, WORD PTR [eax+282]
  00613	51		 push	 ecx
  00614	8b 55 f8	 mov	 edx, DWORD PTR _lpObj$[ebp]
  00617	0f b7 82 18 01
	00 00		 movzx	 eax, WORD PTR [edx+280]
  0061e	50		 push	 eax
  0061f	68 00 00 00 00	 push	 OFFSET ??_C@_0BC@GFGEFHFO@Leadership?3?5?$CFd?0?$CFd?$AA@
  00624	8d 8d c8 fe ff
	ff		 lea	 ecx, DWORD PTR _szTemp$232649[ebp]
  0062a	51		 push	 ecx
  0062b	e8 00 00 00 00	 call	 _sprintf
  00630	83 c4 10	 add	 esp, 16			; 00000010H

; 196  : 		GCServerMsgStringSend(szTemp, lpObj->m_Index, 1);

  00633	6a 01		 push	 1
  00635	8b 45 f8	 mov	 eax, DWORD PTR _lpObj$[ebp]
  00638	8b 08		 mov	 ecx, DWORD PTR [eax]
  0063a	51		 push	 ecx
  0063b	8d 95 c8 fe ff
	ff		 lea	 edx, DWORD PTR _szTemp$232649[ebp]
  00641	52		 push	 edx
  00642	e8 00 00 00 00	 call	 ?GCServerMsgStringSend@@YAXPADHE@Z ; GCServerMsgStringSend
  00647	83 c4 0c	 add	 esp, 12			; 0000000cH
$LN257@gObjCalCha:

; 197  : 	}
; 198  : 	if ( lpObj->Class == CLASS_ELF )

  0064a	8b 45 f8	 mov	 eax, DWORD PTR _lpObj$[ebp]
  0064d	0f b7 88 b8 00
	00 00		 movzx	 ecx, WORD PTR [eax+184]
  00654	83 f9 02	 cmp	 ecx, 2
  00657	0f 85 f1 02 00
	00		 jne	 $LN256@gObjCalCha

; 199  : 	{
; 200  : 		if ( (Right->m_Type >= ITEMGET(4,8) && Right->m_Type < ITEMGET(4,15) ) ||
; 201  : 			 (Left->m_Type >= ITEMGET(4,0) && Left->m_Type < ITEMGET(4,7)) ||
; 202  : 			  Right->m_Type == ITEMGET(4,16) ||
; 203  : 			  Left->m_Type == ITEMGET(4,20) ||
; 204  : 			  Left->m_Type == ITEMGET(4,21) || Left->m_Type == ITEMGET(4,22) || //loc7 Item 4,22 Add-on Season 2.5 GS-CS 56 (Albatross Fix)
; 205  : 			  Left->m_Type == ITEMGET(4,23) || //season4 add-on
; 206  : 			  Right->m_Type == ITEMGET(4,18) ||
; 207  : 			  Right->m_Type == ITEMGET(4,19) ||
; 208  : 			  Left->m_Type == ITEMGET(4,17) )

  0065d	8b 45 e4	 mov	 eax, DWORD PTR _Right$[ebp]
  00660	0f bf 48 06	 movsx	 ecx, WORD PTR [eax+6]
  00664	81 f9 08 08 00
	00		 cmp	 ecx, 2056		; 00000808H
  0066a	7c 13		 jl	 SHORT $LN253@gObjCalCha
  0066c	8b 45 e4	 mov	 eax, DWORD PTR _Right$[ebp]
  0066f	0f bf 48 06	 movsx	 ecx, WORD PTR [eax+6]
  00673	81 f9 0f 08 00
	00		 cmp	 ecx, 2063		; 0000080fH
  00679	0f 8c 9a 00 00
	00		 jl	 $LN254@gObjCalCha
$LN253@gObjCalCha:
  0067f	8b 45 e0	 mov	 eax, DWORD PTR _Left$[ebp]
  00682	0f bf 48 06	 movsx	 ecx, WORD PTR [eax+6]
  00686	81 f9 00 08 00
	00		 cmp	 ecx, 2048		; 00000800H
  0068c	7c 0f		 jl	 SHORT $LN252@gObjCalCha
  0068e	8b 45 e0	 mov	 eax, DWORD PTR _Left$[ebp]
  00691	0f bf 48 06	 movsx	 ecx, WORD PTR [eax+6]
  00695	81 f9 07 08 00
	00		 cmp	 ecx, 2055		; 00000807H
  0069b	7c 7c		 jl	 SHORT $LN254@gObjCalCha
$LN252@gObjCalCha:
  0069d	8b 45 e4	 mov	 eax, DWORD PTR _Right$[ebp]
  006a0	0f bf 48 06	 movsx	 ecx, WORD PTR [eax+6]
  006a4	81 f9 10 08 00
	00		 cmp	 ecx, 2064		; 00000810H
  006aa	74 6d		 je	 SHORT $LN254@gObjCalCha
  006ac	8b 45 e0	 mov	 eax, DWORD PTR _Left$[ebp]
  006af	0f bf 48 06	 movsx	 ecx, WORD PTR [eax+6]
  006b3	81 f9 14 08 00
	00		 cmp	 ecx, 2068		; 00000814H
  006b9	74 5e		 je	 SHORT $LN254@gObjCalCha
  006bb	8b 45 e0	 mov	 eax, DWORD PTR _Left$[ebp]
  006be	0f bf 48 06	 movsx	 ecx, WORD PTR [eax+6]
  006c2	81 f9 15 08 00
	00		 cmp	 ecx, 2069		; 00000815H
  006c8	74 4f		 je	 SHORT $LN254@gObjCalCha
  006ca	8b 45 e0	 mov	 eax, DWORD PTR _Left$[ebp]
  006cd	0f bf 48 06	 movsx	 ecx, WORD PTR [eax+6]
  006d1	81 f9 16 08 00
	00		 cmp	 ecx, 2070		; 00000816H
  006d7	74 40		 je	 SHORT $LN254@gObjCalCha
  006d9	8b 45 e0	 mov	 eax, DWORD PTR _Left$[ebp]
  006dc	0f bf 48 06	 movsx	 ecx, WORD PTR [eax+6]
  006e0	81 f9 17 08 00
	00		 cmp	 ecx, 2071		; 00000817H
  006e6	74 31		 je	 SHORT $LN254@gObjCalCha
  006e8	8b 45 e4	 mov	 eax, DWORD PTR _Right$[ebp]
  006eb	0f bf 48 06	 movsx	 ecx, WORD PTR [eax+6]
  006ef	81 f9 12 08 00
	00		 cmp	 ecx, 2066		; 00000812H
  006f5	74 22		 je	 SHORT $LN254@gObjCalCha
  006f7	8b 45 e4	 mov	 eax, DWORD PTR _Right$[ebp]
  006fa	0f bf 48 06	 movsx	 ecx, WORD PTR [eax+6]
  006fe	81 f9 13 08 00
	00		 cmp	 ecx, 2067		; 00000813H
  00704	74 13		 je	 SHORT $LN254@gObjCalCha
  00706	8b 45 e0	 mov	 eax, DWORD PTR _Left$[ebp]
  00709	0f bf 48 06	 movsx	 ecx, WORD PTR [eax+6]
  0070d	81 f9 11 08 00
	00		 cmp	 ecx, 2065		; 00000811H
  00713	0f 85 17 01 00
	00		 jne	 $LN255@gObjCalCha
$LN254@gObjCalCha:

; 209  : 		{
; 210  : 			if ( (Right->IsItem() != FALSE && Right->m_IsValidItem == false) || (Left->IsItem() != FALSE && Left->m_IsValidItem == false) )

  00719	8b 4d e4	 mov	 ecx, DWORD PTR _Right$[ebp]
  0071c	e8 00 00 00 00	 call	 ?IsItem@CItem@@QAEHXZ	; CItem::IsItem
  00721	85 c0		 test	 eax, eax
  00723	74 0e		 je	 SHORT $LN249@gObjCalCha
  00725	8b 45 e4	 mov	 eax, DWORD PTR _Right$[ebp]
  00728	0f b6 88 b0 00
	00 00		 movzx	 ecx, BYTE PTR [eax+176]
  0072f	85 c9		 test	 ecx, ecx
  00731	74 1a		 je	 SHORT $LN250@gObjCalCha
$LN249@gObjCalCha:
  00733	8b 4d e0	 mov	 ecx, DWORD PTR _Left$[ebp]
  00736	e8 00 00 00 00	 call	 ?IsItem@CItem@@QAEHXZ	; CItem::IsItem
  0073b	85 c0		 test	 eax, eax
  0073d	74 6b		 je	 SHORT $LN251@gObjCalCha
  0073f	8b 45 e0	 mov	 eax, DWORD PTR _Left$[ebp]
  00742	0f b6 88 b0 00
	00 00		 movzx	 ecx, BYTE PTR [eax+176]
  00749	85 c9		 test	 ecx, ecx
  0074b	75 5d		 jne	 SHORT $LN251@gObjCalCha
$LN250@gObjCalCha:

; 211  : 			{
; 212  : 				//int DamageMax_Bow_StrDexRight = GetPrivateProfileInt("Fairy_Elf","DamageMax_Bow_StrDexRight",4,"..\\Data\\ExData\\Character.ini");
; 213  : 				//int DamageMin_Bow_StrDexRight = GetPrivateProfileInt("Fairy_Elf","DamageMin_Bow_StrDexRight",7,"..\\Data\\ExData\\Character.ini");
; 214  : 				//int DamageMax_Bow_StrDexLeft = GetPrivateProfileInt("Fairy_Elf","DamageMax_Bow_StrDexLeft",4,"..\\Data\\ExData\\Character.ini");
; 215  : 				//int DamageMin_Bow_StrDexLeft = GetPrivateProfileInt("Fairy_Elf","DamageMin_Bow_StrDexLeft",7,"..\\Data\\ExData\\Character.ini");
; 216  : 				lpObj->m_AttackDamageMinRight = (Dexterity + Strength ) / ExConfig.Character.ELFDamageMin_Bow_StrDexRight;	//7

  0074d	8b 45 f0	 mov	 eax, DWORD PTR _Dexterity$[ebp]
  00750	03 45 f4	 add	 eax, DWORD PTR _Strength$[ebp]
  00753	99		 cdq
  00754	f7 3d 6c 01 00
	00		 idiv	 DWORD PTR ?ExConfig@@3VcExConfigs@@A+364
  0075a	8b 4d f8	 mov	 ecx, DWORD PTR _lpObj$[ebp]
  0075d	89 81 84 04 00
	00		 mov	 DWORD PTR [ecx+1156], eax

; 217  : 				lpObj->m_AttackDamageMaxRight = (Dexterity + Strength ) / ExConfig.Character.ELFDamageMax_Bow_StrDexRight;	//4

  00763	8b 45 f0	 mov	 eax, DWORD PTR _Dexterity$[ebp]
  00766	03 45 f4	 add	 eax, DWORD PTR _Strength$[ebp]
  00769	99		 cdq
  0076a	f7 3d 68 01 00
	00		 idiv	 DWORD PTR ?ExConfig@@3VcExConfigs@@A+360
  00770	8b 4d f8	 mov	 ecx, DWORD PTR _lpObj$[ebp]
  00773	89 81 80 04 00
	00		 mov	 DWORD PTR [ecx+1152], eax

; 218  : 				lpObj->m_AttackDamageMinLeft = (Dexterity + Strength ) / ExConfig.Character.ELFDamageMin_Bow_StrDexLeft;		//7

  00779	8b 45 f0	 mov	 eax, DWORD PTR _Dexterity$[ebp]
  0077c	03 45 f4	 add	 eax, DWORD PTR _Strength$[ebp]
  0077f	99		 cdq
  00780	f7 3d 74 01 00
	00		 idiv	 DWORD PTR ?ExConfig@@3VcExConfigs@@A+372
  00786	8b 4d f8	 mov	 ecx, DWORD PTR _lpObj$[ebp]
  00789	89 81 7c 04 00
	00		 mov	 DWORD PTR [ecx+1148], eax

; 219  : 				lpObj->m_AttackDamageMaxLeft = (Dexterity + Strength ) / ExConfig.Character.ELFDamageMax_Bow_StrDexLeft;		//4

  0078f	8b 45 f0	 mov	 eax, DWORD PTR _Dexterity$[ebp]
  00792	03 45 f4	 add	 eax, DWORD PTR _Strength$[ebp]
  00795	99		 cdq
  00796	f7 3d 70 01 00
	00		 idiv	 DWORD PTR ?ExConfig@@3VcExConfigs@@A+368
  0079c	8b 4d f8	 mov	 ecx, DWORD PTR _lpObj$[ebp]
  0079f	89 81 78 04 00
	00		 mov	 DWORD PTR [ecx+1144], eax

; 220  : 			}
; 221  : 			else

  007a5	e9 84 00 00 00	 jmp	 $LN248@gObjCalCha
$LN251@gObjCalCha:

; 222  : 			{
; 223  : 				//int DamageMax_NoBow_StrRight = GetPrivateProfileInt("Fairy_Elf","DamageMax_NoBow_StrRight",8,"..\\Data\\ExData\\Character.ini");
; 224  : 				//int DamageMax_NoBow_DexRight = GetPrivateProfileInt("Fairy_Elf","DamageMax_NoBow_DexRight",4,"..\\Data\\ExData\\Character.ini");
; 225  : 				//int DamageMin_NoBow_StrRight = GetPrivateProfileInt("Fairy_Elf","DamageMin_NoBow_StrRight",14,"..\\Data\\ExData\\Character.ini");
; 226  : 				//int DamageMin_NoBow_DexRight = GetPrivateProfileInt("Fairy_Elf","DamageMin_NoBow_DexRight",7,"..\\Data\\ExData\\Character.ini");
; 227  : 
; 228  : 				//int DamageMax_NoBow_StrLeft = GetPrivateProfileInt("Fairy_Elf","DamageMax_NoBow_StrLeft",8,"..\\Data\\ExData\\Character.ini");
; 229  : 				//int DamageMax_NoBow_DexLeft = GetPrivateProfileInt("Fairy_Elf","DamageMax_NoBow_DexLeft",4,"..\\Data\\ExData\\Character.ini");
; 230  : 				//int DamageMin_NoBow_StrLeft = GetPrivateProfileInt("Fairy_Elf","DamageMin_NoBow_StrLeft",14,"..\\Data\\ExData\\Character.ini");
; 231  : 				//int DamageMin_NoBow_DexLeft = GetPrivateProfileInt("Fairy_Elf","DamageMin_NoBow_DexLeft",7,"..\\Data\\ExData\\Character.ini");
; 232  : 
; 233  : 				lpObj->m_AttackDamageMinRight = (Dexterity / ExConfig.Character.ELFDamageMin_NoBow_DexRight) + (Strength / ExConfig.Character.ELFDamageMin_NoBow_StrRight);

  007aa	8b 45 f0	 mov	 eax, DWORD PTR _Dexterity$[ebp]
  007ad	99		 cdq
  007ae	f7 3d 84 01 00
	00		 idiv	 DWORD PTR ?ExConfig@@3VcExConfigs@@A+388
  007b4	8b c8		 mov	 ecx, eax
  007b6	8b 45 f4	 mov	 eax, DWORD PTR _Strength$[ebp]
  007b9	99		 cdq
  007ba	f7 3d 80 01 00
	00		 idiv	 DWORD PTR ?ExConfig@@3VcExConfigs@@A+384
  007c0	03 c8		 add	 ecx, eax
  007c2	8b 55 f8	 mov	 edx, DWORD PTR _lpObj$[ebp]
  007c5	89 8a 84 04 00
	00		 mov	 DWORD PTR [edx+1156], ecx

; 234  : 				lpObj->m_AttackDamageMaxRight = (Dexterity / ExConfig.Character.ELFDamageMax_NoBow_DexRight) + (Strength / ExConfig.Character.ELFDamageMax_NoBow_StrRight );

  007cb	8b 45 f0	 mov	 eax, DWORD PTR _Dexterity$[ebp]
  007ce	99		 cdq
  007cf	f7 3d 7c 01 00
	00		 idiv	 DWORD PTR ?ExConfig@@3VcExConfigs@@A+380
  007d5	8b c8		 mov	 ecx, eax
  007d7	8b 45 f4	 mov	 eax, DWORD PTR _Strength$[ebp]
  007da	99		 cdq
  007db	f7 3d 78 01 00
	00		 idiv	 DWORD PTR ?ExConfig@@3VcExConfigs@@A+376
  007e1	03 c8		 add	 ecx, eax
  007e3	8b 55 f8	 mov	 edx, DWORD PTR _lpObj$[ebp]
  007e6	89 8a 80 04 00
	00		 mov	 DWORD PTR [edx+1152], ecx

; 235  : 				lpObj->m_AttackDamageMinLeft = (Dexterity / ExConfig.Character.ELFDamageMin_NoBow_DexLeft) + (Strength / ExConfig.Character.ELFDamageMin_NoBow_StrLeft);

  007ec	8b 45 f0	 mov	 eax, DWORD PTR _Dexterity$[ebp]
  007ef	99		 cdq
  007f0	f7 3d 94 01 00
	00		 idiv	 DWORD PTR ?ExConfig@@3VcExConfigs@@A+404
  007f6	8b c8		 mov	 ecx, eax
  007f8	8b 45 f4	 mov	 eax, DWORD PTR _Strength$[ebp]
  007fb	99		 cdq
  007fc	f7 3d 90 01 00
	00		 idiv	 DWORD PTR ?ExConfig@@3VcExConfigs@@A+400
  00802	03 c8		 add	 ecx, eax
  00804	8b 55 f8	 mov	 edx, DWORD PTR _lpObj$[ebp]
  00807	89 8a 7c 04 00
	00		 mov	 DWORD PTR [edx+1148], ecx

; 236  : 				lpObj->m_AttackDamageMaxLeft = (Dexterity / ExConfig.Character.ELFDamageMax_NoBow_DexLeft) + (Strength / ExConfig.Character.ELFDamageMax_NoBow_StrLeft );

  0080d	8b 45 f0	 mov	 eax, DWORD PTR _Dexterity$[ebp]
  00810	99		 cdq
  00811	f7 3d 8c 01 00
	00		 idiv	 DWORD PTR ?ExConfig@@3VcExConfigs@@A+396
  00817	8b c8		 mov	 ecx, eax
  00819	8b 45 f4	 mov	 eax, DWORD PTR _Strength$[ebp]
  0081c	99		 cdq
  0081d	f7 3d 88 01 00
	00		 idiv	 DWORD PTR ?ExConfig@@3VcExConfigs@@A+392
  00823	03 c8		 add	 ecx, eax
  00825	8b 55 f8	 mov	 edx, DWORD PTR _lpObj$[ebp]
  00828	89 8a 78 04 00
	00		 mov	 DWORD PTR [edx+1144], ecx
$LN248@gObjCalCha:

; 237  : 			}
; 238  : 		}
; 239  : 		else

  0082e	eb 58		 jmp	 SHORT $LN247@gObjCalCha
$LN255@gObjCalCha:

; 240  : 		{
; 241  : 			//int DamageMax_DexStrRight = GetPrivateProfileInt("Fairy_Elf","DamageMax_DexStrRight",4,"..\\Data\\ExData\\Character.ini");
; 242  : 			//int DamageMin_DexStrRight = GetPrivateProfileInt("Fairy_Elf","DamageMin_DexStrRight",7,"..\\Data\\ExData\\Character.ini");
; 243  : 			//int DamageMax_DexStrLeft = GetPrivateProfileInt("Fairy_Elf","DamageMax_DexStrLeft",4,"..\\Data\\ExData\\Character.ini");
; 244  : 			//int DamageMin_DexStrLeft = GetPrivateProfileInt("Fairy_Elf","DamageMin_DexStrLeft",7,"..\\Data\\ExData\\Character.ini");
; 245  : 
; 246  : 			lpObj->m_AttackDamageMinRight = (Dexterity + Strength) / ExConfig.Character.ELFDamageMin_DexStrRight;	// 7

  00830	8b 45 f0	 mov	 eax, DWORD PTR _Dexterity$[ebp]
  00833	03 45 f4	 add	 eax, DWORD PTR _Strength$[ebp]
  00836	99		 cdq
  00837	f7 3d 9c 01 00
	00		 idiv	 DWORD PTR ?ExConfig@@3VcExConfigs@@A+412
  0083d	8b 4d f8	 mov	 ecx, DWORD PTR _lpObj$[ebp]
  00840	89 81 84 04 00
	00		 mov	 DWORD PTR [ecx+1156], eax

; 247  : 			lpObj->m_AttackDamageMaxRight = (Dexterity + Strength) / ExConfig.Character.ELFDamageMax_DexStrRight;	// 4

  00846	8b 45 f0	 mov	 eax, DWORD PTR _Dexterity$[ebp]
  00849	03 45 f4	 add	 eax, DWORD PTR _Strength$[ebp]
  0084c	99		 cdq
  0084d	f7 3d 98 01 00
	00		 idiv	 DWORD PTR ?ExConfig@@3VcExConfigs@@A+408
  00853	8b 4d f8	 mov	 ecx, DWORD PTR _lpObj$[ebp]
  00856	89 81 80 04 00
	00		 mov	 DWORD PTR [ecx+1152], eax

; 248  : 			lpObj->m_AttackDamageMinLeft = (Dexterity + Strength) / ExConfig.Character.ELFDamageMin_DexStrLeft;	// 7

  0085c	8b 45 f0	 mov	 eax, DWORD PTR _Dexterity$[ebp]
  0085f	03 45 f4	 add	 eax, DWORD PTR _Strength$[ebp]
  00862	99		 cdq
  00863	f7 3d a4 01 00
	00		 idiv	 DWORD PTR ?ExConfig@@3VcExConfigs@@A+420
  00869	8b 4d f8	 mov	 ecx, DWORD PTR _lpObj$[ebp]
  0086c	89 81 7c 04 00
	00		 mov	 DWORD PTR [ecx+1148], eax

; 249  : 			lpObj->m_AttackDamageMaxLeft = (Dexterity + Strength) / ExConfig.Character.ELFDamageMax_DexStrLeft;	// 4

  00872	8b 45 f0	 mov	 eax, DWORD PTR _Dexterity$[ebp]
  00875	03 45 f4	 add	 eax, DWORD PTR _Strength$[ebp]
  00878	99		 cdq
  00879	f7 3d a0 01 00
	00		 idiv	 DWORD PTR ?ExConfig@@3VcExConfigs@@A+416
  0087f	8b 4d f8	 mov	 ecx, DWORD PTR _lpObj$[ebp]
  00882	89 81 78 04 00
	00		 mov	 DWORD PTR [ecx+1144], eax
$LN247@gObjCalCha:

; 250  : 		}
; 251  : 
; 252  : 		
; 253  : 
; 254  : #ifdef CALCULATOR_MANAGER
; 255  : 		if (g_ExLicense.CheckUser(eExUB::ulasevich) || g_ExLicense.CheckUser(eExUB::ConflictNoCustom) || g_ExLicense.CheckUser(eExUB::ulasevich2))

  00888	6a 17		 push	 23			; 00000017H
  0088a	b9 00 00 00 00	 mov	 ecx, OFFSET ?g_ExLicense@@3VCExLicense@@A ; g_ExLicense
  0088f	e8 00 00 00 00	 call	 ?CheckUser@CExLicense@@QAE_NH@Z ; CExLicense::CheckUser
  00894	0f b6 c0	 movzx	 eax, al
  00897	85 c0		 test	 eax, eax
  00899	75 2a		 jne	 SHORT $LN245@gObjCalCha
  0089b	6a 28		 push	 40			; 00000028H
  0089d	b9 00 00 00 00	 mov	 ecx, OFFSET ?g_ExLicense@@3VCExLicense@@A ; g_ExLicense
  008a2	e8 00 00 00 00	 call	 ?CheckUser@CExLicense@@QAE_NH@Z ; CExLicense::CheckUser
  008a7	0f b6 c0	 movzx	 eax, al
  008aa	85 c0		 test	 eax, eax
  008ac	75 17		 jne	 SHORT $LN245@gObjCalCha
  008ae	6a 24		 push	 36			; 00000024H
  008b0	b9 00 00 00 00	 mov	 ecx, OFFSET ?g_ExLicense@@3VCExLicense@@A ; g_ExLicense
  008b5	e8 00 00 00 00	 call	 ?CheckUser@CExLicense@@QAE_NH@Z ; CExLicense::CheckUser
  008ba	0f b6 c0	 movzx	 eax, al
  008bd	85 c0		 test	 eax, eax
  008bf	0f 84 84 00 00
	00		 je	 $LN246@gObjCalCha
$LN245@gObjCalCha:

; 256  : 		{
; 257  : 			lpObj->m_AttackDamageMinRight = (lpObj->m_AttackDamageMinRight * CalculatorManager.FE_MinDamagePercent) / 100;

  008c5	8b 45 f8	 mov	 eax, DWORD PTR _lpObj$[ebp]
  008c8	8b 80 84 04 00
	00		 mov	 eax, DWORD PTR [eax+1156]
  008ce	0f af 05 10 00
	00 00		 imul	 eax, DWORD PTR ?CalculatorManager@@3VcCalculatorManager@@A+16
  008d5	99		 cdq
  008d6	b9 64 00 00 00	 mov	 ecx, 100		; 00000064H
  008db	f7 f9		 idiv	 ecx
  008dd	8b 55 f8	 mov	 edx, DWORD PTR _lpObj$[ebp]
  008e0	89 82 84 04 00
	00		 mov	 DWORD PTR [edx+1156], eax

; 258  : 			lpObj->m_AttackDamageMinLeft = (lpObj->m_AttackDamageMinLeft * CalculatorManager.FE_MinDamagePercent) / 100;

  008e6	8b 45 f8	 mov	 eax, DWORD PTR _lpObj$[ebp]
  008e9	8b 80 7c 04 00
	00		 mov	 eax, DWORD PTR [eax+1148]
  008ef	0f af 05 10 00
	00 00		 imul	 eax, DWORD PTR ?CalculatorManager@@3VcCalculatorManager@@A+16
  008f6	99		 cdq
  008f7	b9 64 00 00 00	 mov	 ecx, 100		; 00000064H
  008fc	f7 f9		 idiv	 ecx
  008fe	8b 55 f8	 mov	 edx, DWORD PTR _lpObj$[ebp]
  00901	89 82 7c 04 00
	00		 mov	 DWORD PTR [edx+1148], eax

; 259  : 
; 260  : 			lpObj->m_AttackDamageMaxRight = (lpObj->m_AttackDamageMaxRight * CalculatorManager.FE_MaxDamagePercent) / 100;

  00907	8b 45 f8	 mov	 eax, DWORD PTR _lpObj$[ebp]
  0090a	8b 80 80 04 00
	00		 mov	 eax, DWORD PTR [eax+1152]
  00910	0f af 05 14 00
	00 00		 imul	 eax, DWORD PTR ?CalculatorManager@@3VcCalculatorManager@@A+20
  00917	99		 cdq
  00918	b9 64 00 00 00	 mov	 ecx, 100		; 00000064H
  0091d	f7 f9		 idiv	 ecx
  0091f	8b 55 f8	 mov	 edx, DWORD PTR _lpObj$[ebp]
  00922	89 82 80 04 00
	00		 mov	 DWORD PTR [edx+1152], eax

; 261  : 			lpObj->m_AttackDamageMaxLeft = (lpObj->m_AttackDamageMaxLeft * CalculatorManager.FE_MaxDamagePercent) / 100;

  00928	8b 45 f8	 mov	 eax, DWORD PTR _lpObj$[ebp]
  0092b	8b 80 78 04 00
	00		 mov	 eax, DWORD PTR [eax+1144]
  00931	0f af 05 14 00
	00 00		 imul	 eax, DWORD PTR ?CalculatorManager@@3VcCalculatorManager@@A+20
  00938	99		 cdq
  00939	b9 64 00 00 00	 mov	 ecx, 100		; 00000064H
  0093e	f7 f9		 idiv	 ecx
  00940	8b 55 f8	 mov	 edx, DWORD PTR _lpObj$[ebp]
  00943	89 82 78 04 00
	00		 mov	 DWORD PTR [edx+1144], eax
$LN246@gObjCalCha:

; 262  : 		}
; 263  : #endif
; 264  : 	}

  00949	e9 58 06 00 00	 jmp	 $LN224@gObjCalCha
$LN256@gObjCalCha:

; 265  : 	else if ( lpObj->Class == CLASS_KNIGHT )

  0094e	8b 45 f8	 mov	 eax, DWORD PTR _lpObj$[ebp]
  00951	0f b7 88 b8 00
	00 00		 movzx	 ecx, WORD PTR [eax+184]
  00958	83 f9 01	 cmp	 ecx, 1
  0095b	0f 85 12 01 00
	00		 jne	 $LN243@gObjCalCha

; 266  : 	{
; 267  : 		//int DamageMax_StrRight = GetPrivateProfileInt("Dark_Knight","DamageMax_StrRight",4,"..\\Data\\ExData\\Character.ini");
; 268  : 		//int DamageMin_StrRight = GetPrivateProfileInt("Dark_Knight","DamageMin_StrRight",6,"..\\Data\\ExData\\Character.ini");
; 269  : 		//int DamageMax_StrLeft = GetPrivateProfileInt("Dark_Knight","DamageMax_StrLeft",4,"..\\Data\\ExData\\Character.ini");
; 270  : 		//int DamageMin_StrLeft = GetPrivateProfileInt("Dark_Knight","DamageMin_StrLeft",6,"..\\Data\\ExData\\Character.ini");
; 271  : 
; 272  : 		lpObj->m_AttackDamageMinRight = Strength / ExConfig.Character.DKDamageMin_StrRight;	// 6

  00961	8b 45 f4	 mov	 eax, DWORD PTR _Strength$[ebp]
  00964	99		 cdq
  00965	f7 3d ac 01 00
	00		 idiv	 DWORD PTR ?ExConfig@@3VcExConfigs@@A+428
  0096b	8b 4d f8	 mov	 ecx, DWORD PTR _lpObj$[ebp]
  0096e	89 81 84 04 00
	00		 mov	 DWORD PTR [ecx+1156], eax

; 273  : 		lpObj->m_AttackDamageMaxRight = Strength / ExConfig.Character.DKDamageMax_StrRight;	// 4

  00974	8b 45 f4	 mov	 eax, DWORD PTR _Strength$[ebp]
  00977	99		 cdq
  00978	f7 3d a8 01 00
	00		 idiv	 DWORD PTR ?ExConfig@@3VcExConfigs@@A+424
  0097e	8b 4d f8	 mov	 ecx, DWORD PTR _lpObj$[ebp]
  00981	89 81 80 04 00
	00		 mov	 DWORD PTR [ecx+1152], eax

; 274  : 		lpObj->m_AttackDamageMinLeft = Strength / ExConfig.Character.DKDamageMin_StrLeft;	// 6

  00987	8b 45 f4	 mov	 eax, DWORD PTR _Strength$[ebp]
  0098a	99		 cdq
  0098b	f7 3d b4 01 00
	00		 idiv	 DWORD PTR ?ExConfig@@3VcExConfigs@@A+436
  00991	8b 4d f8	 mov	 ecx, DWORD PTR _lpObj$[ebp]
  00994	89 81 7c 04 00
	00		 mov	 DWORD PTR [ecx+1148], eax

; 275  : 		lpObj->m_AttackDamageMaxLeft = Strength / ExConfig.Character.DKDamageMax_StrLeft;	// 4

  0099a	8b 45 f4	 mov	 eax, DWORD PTR _Strength$[ebp]
  0099d	99		 cdq
  0099e	f7 3d b0 01 00
	00		 idiv	 DWORD PTR ?ExConfig@@3VcExConfigs@@A+432
  009a4	8b 4d f8	 mov	 ecx, DWORD PTR _lpObj$[ebp]
  009a7	89 81 78 04 00
	00		 mov	 DWORD PTR [ecx+1144], eax

; 276  : 
; 277  : #ifdef CALCULATOR_MANAGER
; 278  : 		if (g_ExLicense.CheckUser(eExUB::ulasevich) || g_ExLicense.CheckUser(eExUB::ConflictNoCustom) || g_ExLicense.CheckUser(eExUB::ulasevich2))

  009ad	6a 17		 push	 23			; 00000017H
  009af	b9 00 00 00 00	 mov	 ecx, OFFSET ?g_ExLicense@@3VCExLicense@@A ; g_ExLicense
  009b4	e8 00 00 00 00	 call	 ?CheckUser@CExLicense@@QAE_NH@Z ; CExLicense::CheckUser
  009b9	0f b6 c0	 movzx	 eax, al
  009bc	85 c0		 test	 eax, eax
  009be	75 2a		 jne	 SHORT $LN241@gObjCalCha
  009c0	6a 28		 push	 40			; 00000028H
  009c2	b9 00 00 00 00	 mov	 ecx, OFFSET ?g_ExLicense@@3VCExLicense@@A ; g_ExLicense
  009c7	e8 00 00 00 00	 call	 ?CheckUser@CExLicense@@QAE_NH@Z ; CExLicense::CheckUser
  009cc	0f b6 c0	 movzx	 eax, al
  009cf	85 c0		 test	 eax, eax
  009d1	75 17		 jne	 SHORT $LN241@gObjCalCha
  009d3	6a 24		 push	 36			; 00000024H
  009d5	b9 00 00 00 00	 mov	 ecx, OFFSET ?g_ExLicense@@3VCExLicense@@A ; g_ExLicense
  009da	e8 00 00 00 00	 call	 ?CheckUser@CExLicense@@QAE_NH@Z ; CExLicense::CheckUser
  009df	0f b6 c0	 movzx	 eax, al
  009e2	85 c0		 test	 eax, eax
  009e4	0f 84 84 00 00
	00		 je	 $LN242@gObjCalCha
$LN241@gObjCalCha:

; 279  : 		{
; 280  : 			lpObj->m_AttackDamageMinRight = (lpObj->m_AttackDamageMinRight * CalculatorManager.DK_MinDamagePercent) / 100;

  009ea	8b 45 f8	 mov	 eax, DWORD PTR _lpObj$[ebp]
  009ed	8b 80 84 04 00
	00		 mov	 eax, DWORD PTR [eax+1156]
  009f3	0f af 05 08 00
	00 00		 imul	 eax, DWORD PTR ?CalculatorManager@@3VcCalculatorManager@@A+8
  009fa	99		 cdq
  009fb	b9 64 00 00 00	 mov	 ecx, 100		; 00000064H
  00a00	f7 f9		 idiv	 ecx
  00a02	8b 55 f8	 mov	 edx, DWORD PTR _lpObj$[ebp]
  00a05	89 82 84 04 00
	00		 mov	 DWORD PTR [edx+1156], eax

; 281  : 			lpObj->m_AttackDamageMinLeft = (lpObj->m_AttackDamageMinLeft * CalculatorManager.DK_MinDamagePercent) / 100;

  00a0b	8b 45 f8	 mov	 eax, DWORD PTR _lpObj$[ebp]
  00a0e	8b 80 7c 04 00
	00		 mov	 eax, DWORD PTR [eax+1148]
  00a14	0f af 05 08 00
	00 00		 imul	 eax, DWORD PTR ?CalculatorManager@@3VcCalculatorManager@@A+8
  00a1b	99		 cdq
  00a1c	b9 64 00 00 00	 mov	 ecx, 100		; 00000064H
  00a21	f7 f9		 idiv	 ecx
  00a23	8b 55 f8	 mov	 edx, DWORD PTR _lpObj$[ebp]
  00a26	89 82 7c 04 00
	00		 mov	 DWORD PTR [edx+1148], eax

; 282  : 
; 283  : 			lpObj->m_AttackDamageMaxRight = (lpObj->m_AttackDamageMaxRight * CalculatorManager.DK_MaxDamagePercent) / 100;

  00a2c	8b 45 f8	 mov	 eax, DWORD PTR _lpObj$[ebp]
  00a2f	8b 80 80 04 00
	00		 mov	 eax, DWORD PTR [eax+1152]
  00a35	0f af 05 0c 00
	00 00		 imul	 eax, DWORD PTR ?CalculatorManager@@3VcCalculatorManager@@A+12
  00a3c	99		 cdq
  00a3d	b9 64 00 00 00	 mov	 ecx, 100		; 00000064H
  00a42	f7 f9		 idiv	 ecx
  00a44	8b 55 f8	 mov	 edx, DWORD PTR _lpObj$[ebp]
  00a47	89 82 80 04 00
	00		 mov	 DWORD PTR [edx+1152], eax

; 284  : 			lpObj->m_AttackDamageMaxLeft = (lpObj->m_AttackDamageMaxLeft * CalculatorManager.DK_MaxDamagePercent) / 100;

  00a4d	8b 45 f8	 mov	 eax, DWORD PTR _lpObj$[ebp]
  00a50	8b 80 78 04 00
	00		 mov	 eax, DWORD PTR [eax+1144]
  00a56	0f af 05 0c 00
	00 00		 imul	 eax, DWORD PTR ?CalculatorManager@@3VcCalculatorManager@@A+12
  00a5d	99		 cdq
  00a5e	b9 64 00 00 00	 mov	 ecx, 100		; 00000064H
  00a63	f7 f9		 idiv	 ecx
  00a65	8b 55 f8	 mov	 edx, DWORD PTR _lpObj$[ebp]
  00a68	89 82 78 04 00
	00		 mov	 DWORD PTR [edx+1144], eax
$LN242@gObjCalCha:

; 285  : 		}
; 286  : #endif
; 287  : 	}

  00a6e	e9 33 05 00 00	 jmp	 $LN224@gObjCalCha
$LN243@gObjCalCha:

; 288  : 	else if (lpObj->Class == CLASS_MAGUMSA )

  00a73	8b 45 f8	 mov	 eax, DWORD PTR _lpObj$[ebp]
  00a76	0f b7 88 b8 00
	00 00		 movzx	 ecx, WORD PTR [eax+184]
  00a7d	83 f9 03	 cmp	 ecx, 3
  00a80	0f 85 4a 01 00
	00		 jne	 $LN239@gObjCalCha

; 289  : 	{
; 290  : 		//int DamageMax_StrRight = GetPrivateProfileInt("Magic_Gladiator","DamageMax_StrRight",4,"..\\Data\\ExData\\Character.ini");
; 291  : 		//int DamageMax_EneRight = GetPrivateProfileInt("Magic_Gladiator","DamageMax_EneRight",8,"..\\Data\\ExData\\Character.ini");
; 292  : 		//int DamageMin_StrRight = GetPrivateProfileInt("Magic_Gladiator","DamageMin_StrRight",6,"..\\Data\\ExData\\Character.ini");
; 293  : 		//int DamageMin_EneRight = GetPrivateProfileInt("Magic_Gladiator","DamageMin_EneRight",12,"..\\Data\\ExData\\Character.ini");
; 294  : 
; 295  : 		//int DamageMax_StrLeft = GetPrivateProfileInt("Magic_Gladiator","DamageMax_StrLeft",4,"..\\Data\\ExData\\Character.ini");
; 296  : 		//int DamageMax_EneLeft = GetPrivateProfileInt("Magic_Gladiator","DamageMax_EneLeft",8,"..\\Data\\ExData\\Character.ini");
; 297  : 		//int DamageMin_StrLeft = GetPrivateProfileInt("Magic_Gladiator","DamageMin_StrLeft",6,"..\\Data\\ExData\\Character.ini");
; 298  : 		//int DamageMin_EneLeft = GetPrivateProfileInt("Magic_Gladiator","DamageMin_EneLeft",12,"..\\Data\\ExData\\Character.ini");
; 299  : 
; 300  : 		lpObj->m_AttackDamageMinRight = (Strength / ExConfig.Character.MGDamageMin_StrRight) + (Energy / ExConfig.Character.MGDamageMin_EneRight);

  00a86	8b 45 f4	 mov	 eax, DWORD PTR _Strength$[ebp]
  00a89	99		 cdq
  00a8a	f7 3d c0 01 00
	00		 idiv	 DWORD PTR ?ExConfig@@3VcExConfigs@@A+448
  00a90	8b c8		 mov	 ecx, eax
  00a92	8b 45 e8	 mov	 eax, DWORD PTR _Energy$[ebp]
  00a95	99		 cdq
  00a96	f7 3d c4 01 00
	00		 idiv	 DWORD PTR ?ExConfig@@3VcExConfigs@@A+452
  00a9c	03 c8		 add	 ecx, eax
  00a9e	8b 55 f8	 mov	 edx, DWORD PTR _lpObj$[ebp]
  00aa1	89 8a 84 04 00
	00		 mov	 DWORD PTR [edx+1156], ecx

; 301  : 		lpObj->m_AttackDamageMaxRight = (Strength / ExConfig.Character.MGDamageMax_StrRight) + (Energy / ExConfig.Character.MGDamageMax_EneRight);

  00aa7	8b 45 f4	 mov	 eax, DWORD PTR _Strength$[ebp]
  00aaa	99		 cdq
  00aab	f7 3d b8 01 00
	00		 idiv	 DWORD PTR ?ExConfig@@3VcExConfigs@@A+440
  00ab1	8b c8		 mov	 ecx, eax
  00ab3	8b 45 e8	 mov	 eax, DWORD PTR _Energy$[ebp]
  00ab6	99		 cdq
  00ab7	f7 3d bc 01 00
	00		 idiv	 DWORD PTR ?ExConfig@@3VcExConfigs@@A+444
  00abd	03 c8		 add	 ecx, eax
  00abf	8b 55 f8	 mov	 edx, DWORD PTR _lpObj$[ebp]
  00ac2	89 8a 80 04 00
	00		 mov	 DWORD PTR [edx+1152], ecx

; 302  : 		lpObj->m_AttackDamageMinLeft = (Strength / ExConfig.Character.MGDamageMin_StrLeft) + (Energy / ExConfig.Character.MGDamageMin_EneLeft);

  00ac8	8b 45 f4	 mov	 eax, DWORD PTR _Strength$[ebp]
  00acb	99		 cdq
  00acc	f7 3d d0 01 00
	00		 idiv	 DWORD PTR ?ExConfig@@3VcExConfigs@@A+464
  00ad2	8b c8		 mov	 ecx, eax
  00ad4	8b 45 e8	 mov	 eax, DWORD PTR _Energy$[ebp]
  00ad7	99		 cdq
  00ad8	f7 3d d4 01 00
	00		 idiv	 DWORD PTR ?ExConfig@@3VcExConfigs@@A+468
  00ade	03 c8		 add	 ecx, eax
  00ae0	8b 55 f8	 mov	 edx, DWORD PTR _lpObj$[ebp]
  00ae3	89 8a 7c 04 00
	00		 mov	 DWORD PTR [edx+1148], ecx

; 303  : 		lpObj->m_AttackDamageMaxLeft = (Strength / ExConfig.Character.MGDamageMax_StrLeft) + (Energy / ExConfig.Character.MGDamageMax_EneLeft);

  00ae9	8b 45 f4	 mov	 eax, DWORD PTR _Strength$[ebp]
  00aec	99		 cdq
  00aed	f7 3d c8 01 00
	00		 idiv	 DWORD PTR ?ExConfig@@3VcExConfigs@@A+456
  00af3	8b c8		 mov	 ecx, eax
  00af5	8b 45 e8	 mov	 eax, DWORD PTR _Energy$[ebp]
  00af8	99		 cdq
  00af9	f7 3d cc 01 00
	00		 idiv	 DWORD PTR ?ExConfig@@3VcExConfigs@@A+460
  00aff	03 c8		 add	 ecx, eax
  00b01	8b 55 f8	 mov	 edx, DWORD PTR _lpObj$[ebp]
  00b04	89 8a 78 04 00
	00		 mov	 DWORD PTR [edx+1144], ecx

; 304  : 
; 305  : 
; 306  : #ifdef CALCULATOR_MANAGER
; 307  : 		if (g_ExLicense.CheckUser(eExUB::ulasevich) || g_ExLicense.CheckUser(eExUB::ConflictNoCustom) || g_ExLicense.CheckUser(eExUB::ulasevich2))

  00b0a	6a 17		 push	 23			; 00000017H
  00b0c	b9 00 00 00 00	 mov	 ecx, OFFSET ?g_ExLicense@@3VCExLicense@@A ; g_ExLicense
  00b11	e8 00 00 00 00	 call	 ?CheckUser@CExLicense@@QAE_NH@Z ; CExLicense::CheckUser
  00b16	0f b6 c0	 movzx	 eax, al
  00b19	85 c0		 test	 eax, eax
  00b1b	75 2a		 jne	 SHORT $LN237@gObjCalCha
  00b1d	6a 28		 push	 40			; 00000028H
  00b1f	b9 00 00 00 00	 mov	 ecx, OFFSET ?g_ExLicense@@3VCExLicense@@A ; g_ExLicense
  00b24	e8 00 00 00 00	 call	 ?CheckUser@CExLicense@@QAE_NH@Z ; CExLicense::CheckUser
  00b29	0f b6 c0	 movzx	 eax, al
  00b2c	85 c0		 test	 eax, eax
  00b2e	75 17		 jne	 SHORT $LN237@gObjCalCha
  00b30	6a 24		 push	 36			; 00000024H
  00b32	b9 00 00 00 00	 mov	 ecx, OFFSET ?g_ExLicense@@3VCExLicense@@A ; g_ExLicense
  00b37	e8 00 00 00 00	 call	 ?CheckUser@CExLicense@@QAE_NH@Z ; CExLicense::CheckUser
  00b3c	0f b6 c0	 movzx	 eax, al
  00b3f	85 c0		 test	 eax, eax
  00b41	0f 84 84 00 00
	00		 je	 $LN238@gObjCalCha
$LN237@gObjCalCha:

; 308  : 		{
; 309  : 			lpObj->m_AttackDamageMinRight = (lpObj->m_AttackDamageMinRight * CalculatorManager.MG_MinDamagePercent) / 100;

  00b47	8b 45 f8	 mov	 eax, DWORD PTR _lpObj$[ebp]
  00b4a	8b 80 84 04 00
	00		 mov	 eax, DWORD PTR [eax+1156]
  00b50	0f af 05 18 00
	00 00		 imul	 eax, DWORD PTR ?CalculatorManager@@3VcCalculatorManager@@A+24
  00b57	99		 cdq
  00b58	b9 64 00 00 00	 mov	 ecx, 100		; 00000064H
  00b5d	f7 f9		 idiv	 ecx
  00b5f	8b 55 f8	 mov	 edx, DWORD PTR _lpObj$[ebp]
  00b62	89 82 84 04 00
	00		 mov	 DWORD PTR [edx+1156], eax

; 310  : 			lpObj->m_AttackDamageMinLeft = (lpObj->m_AttackDamageMinLeft * CalculatorManager.MG_MinDamagePercent) / 100;

  00b68	8b 45 f8	 mov	 eax, DWORD PTR _lpObj$[ebp]
  00b6b	8b 80 7c 04 00
	00		 mov	 eax, DWORD PTR [eax+1148]
  00b71	0f af 05 18 00
	00 00		 imul	 eax, DWORD PTR ?CalculatorManager@@3VcCalculatorManager@@A+24
  00b78	99		 cdq
  00b79	b9 64 00 00 00	 mov	 ecx, 100		; 00000064H
  00b7e	f7 f9		 idiv	 ecx
  00b80	8b 55 f8	 mov	 edx, DWORD PTR _lpObj$[ebp]
  00b83	89 82 7c 04 00
	00		 mov	 DWORD PTR [edx+1148], eax

; 311  : 
; 312  : 			lpObj->m_AttackDamageMaxRight = (lpObj->m_AttackDamageMaxRight * CalculatorManager.MG_MaxDamagePercent) / 100;

  00b89	8b 45 f8	 mov	 eax, DWORD PTR _lpObj$[ebp]
  00b8c	8b 80 80 04 00
	00		 mov	 eax, DWORD PTR [eax+1152]
  00b92	0f af 05 1c 00
	00 00		 imul	 eax, DWORD PTR ?CalculatorManager@@3VcCalculatorManager@@A+28
  00b99	99		 cdq
  00b9a	b9 64 00 00 00	 mov	 ecx, 100		; 00000064H
  00b9f	f7 f9		 idiv	 ecx
  00ba1	8b 55 f8	 mov	 edx, DWORD PTR _lpObj$[ebp]
  00ba4	89 82 80 04 00
	00		 mov	 DWORD PTR [edx+1152], eax

; 313  : 			lpObj->m_AttackDamageMaxLeft = (lpObj->m_AttackDamageMaxLeft * CalculatorManager.MG_MaxDamagePercent) / 100;

  00baa	8b 45 f8	 mov	 eax, DWORD PTR _lpObj$[ebp]
  00bad	8b 80 78 04 00
	00		 mov	 eax, DWORD PTR [eax+1144]
  00bb3	0f af 05 1c 00
	00 00		 imul	 eax, DWORD PTR ?CalculatorManager@@3VcCalculatorManager@@A+28
  00bba	99		 cdq
  00bbb	b9 64 00 00 00	 mov	 ecx, 100		; 00000064H
  00bc0	f7 f9		 idiv	 ecx
  00bc2	8b 55 f8	 mov	 edx, DWORD PTR _lpObj$[ebp]
  00bc5	89 82 78 04 00
	00		 mov	 DWORD PTR [edx+1144], eax
$LN238@gObjCalCha:

; 314  : 		}
; 315  : #endif
; 316  : 	}

  00bcb	e9 d6 03 00 00	 jmp	 $LN224@gObjCalCha
$LN239@gObjCalCha:

; 317  : 	else if ( lpObj->Class == CLASS_DARKLORD )

  00bd0	8b 45 f8	 mov	 eax, DWORD PTR _lpObj$[ebp]
  00bd3	0f b7 88 b8 00
	00 00		 movzx	 ecx, WORD PTR [eax+184]
  00bda	83 f9 04	 cmp	 ecx, 4
  00bdd	0f 85 4a 01 00
	00		 jne	 $LN235@gObjCalCha

; 318  : 	{
; 319  : 		//int DamageMax_StrRight = GetPrivateProfileInt("Dark_Lord","DamageMax_StrRight",5,"..\\Data\\ExData\\Character.ini");
; 320  : 		//int DamageMax_EneRight = GetPrivateProfileInt("Dark_Lord","DamageMax_EneRight",10,"..\\Data\\ExData\\Character.ini");
; 321  : 		//int DamageMin_StrRight = GetPrivateProfileInt("Dark_Lord","DamageMin_StrRight",7,"..\\Data\\ExData\\Character.ini");
; 322  : 		//int DamageMin_EneRight = GetPrivateProfileInt("Dark_Lord","DamageMin_EneRight",14,"..\\Data\\ExData\\Character.ini");
; 323  : 
; 324  : 		//int DamageMax_StrLeft = GetPrivateProfileInt("Dark_Lord","DamageMax_StrLeft",5,"..\\Data\\ExData\\Character.ini");
; 325  : 		//int DamageMax_EneLeft = GetPrivateProfileInt("Dark_Lord","DamageMax_EneLeft",10,"..\\Data\\ExData\\Character.ini");
; 326  : 		//int DamageMin_StrLeft = GetPrivateProfileInt("Dark_Lord","DamageMin_StrLeft",7,"..\\Data\\ExData\\Character.ini");
; 327  : 		//int DamageMin_EneLeft = GetPrivateProfileInt("Dark_Lord","DamageMin_EneLeft",14,"..\\Data\\ExData\\Character.ini");
; 328  : 
; 329  : 		lpObj->m_AttackDamageMinRight = (Strength / ExConfig.Character.DLDamageMin_StrRight) + (Energy / ExConfig.Character.DLDamageMin_EneRight);

  00be3	8b 45 f4	 mov	 eax, DWORD PTR _Strength$[ebp]
  00be6	99		 cdq
  00be7	f7 3d 00 02 00
	00		 idiv	 DWORD PTR ?ExConfig@@3VcExConfigs@@A+512
  00bed	8b c8		 mov	 ecx, eax
  00bef	8b 45 e8	 mov	 eax, DWORD PTR _Energy$[ebp]
  00bf2	99		 cdq
  00bf3	f7 3d 04 02 00
	00		 idiv	 DWORD PTR ?ExConfig@@3VcExConfigs@@A+516
  00bf9	03 c8		 add	 ecx, eax
  00bfb	8b 55 f8	 mov	 edx, DWORD PTR _lpObj$[ebp]
  00bfe	89 8a 84 04 00
	00		 mov	 DWORD PTR [edx+1156], ecx

; 330  : 		lpObj->m_AttackDamageMaxRight = (Strength / ExConfig.Character.DLDamageMax_StrRight) + (Energy / ExConfig.Character.DLDamageMax_EneRight);

  00c04	8b 45 f4	 mov	 eax, DWORD PTR _Strength$[ebp]
  00c07	99		 cdq
  00c08	f7 3d f8 01 00
	00		 idiv	 DWORD PTR ?ExConfig@@3VcExConfigs@@A+504
  00c0e	8b c8		 mov	 ecx, eax
  00c10	8b 45 e8	 mov	 eax, DWORD PTR _Energy$[ebp]
  00c13	99		 cdq
  00c14	f7 3d fc 01 00
	00		 idiv	 DWORD PTR ?ExConfig@@3VcExConfigs@@A+508
  00c1a	03 c8		 add	 ecx, eax
  00c1c	8b 55 f8	 mov	 edx, DWORD PTR _lpObj$[ebp]
  00c1f	89 8a 80 04 00
	00		 mov	 DWORD PTR [edx+1152], ecx

; 331  : 		lpObj->m_AttackDamageMinLeft = (Strength / ExConfig.Character.DLDamageMin_StrLeft) + (Energy / ExConfig.Character.DLDamageMin_EneLeft);

  00c25	8b 45 f4	 mov	 eax, DWORD PTR _Strength$[ebp]
  00c28	99		 cdq
  00c29	f7 3d 10 02 00
	00		 idiv	 DWORD PTR ?ExConfig@@3VcExConfigs@@A+528
  00c2f	8b c8		 mov	 ecx, eax
  00c31	8b 45 e8	 mov	 eax, DWORD PTR _Energy$[ebp]
  00c34	99		 cdq
  00c35	f7 3d 14 02 00
	00		 idiv	 DWORD PTR ?ExConfig@@3VcExConfigs@@A+532
  00c3b	03 c8		 add	 ecx, eax
  00c3d	8b 55 f8	 mov	 edx, DWORD PTR _lpObj$[ebp]
  00c40	89 8a 7c 04 00
	00		 mov	 DWORD PTR [edx+1148], ecx

; 332  : 		lpObj->m_AttackDamageMaxLeft = (Strength / ExConfig.Character.DLDamageMax_StrLeft) + (Energy / ExConfig.Character.DLDamageMax_EneLeft);

  00c46	8b 45 f4	 mov	 eax, DWORD PTR _Strength$[ebp]
  00c49	99		 cdq
  00c4a	f7 3d 08 02 00
	00		 idiv	 DWORD PTR ?ExConfig@@3VcExConfigs@@A+520
  00c50	8b c8		 mov	 ecx, eax
  00c52	8b 45 e8	 mov	 eax, DWORD PTR _Energy$[ebp]
  00c55	99		 cdq
  00c56	f7 3d 0c 02 00
	00		 idiv	 DWORD PTR ?ExConfig@@3VcExConfigs@@A+524
  00c5c	03 c8		 add	 ecx, eax
  00c5e	8b 55 f8	 mov	 edx, DWORD PTR _lpObj$[ebp]
  00c61	89 8a 78 04 00
	00		 mov	 DWORD PTR [edx+1144], ecx

; 333  : 
; 334  : 
; 335  : #ifdef CALCULATOR_MANAGER
; 336  : 		if (g_ExLicense.CheckUser(eExUB::ulasevich) || g_ExLicense.CheckUser(eExUB::ConflictNoCustom) || g_ExLicense.CheckUser(eExUB::ulasevich2))

  00c67	6a 17		 push	 23			; 00000017H
  00c69	b9 00 00 00 00	 mov	 ecx, OFFSET ?g_ExLicense@@3VCExLicense@@A ; g_ExLicense
  00c6e	e8 00 00 00 00	 call	 ?CheckUser@CExLicense@@QAE_NH@Z ; CExLicense::CheckUser
  00c73	0f b6 c0	 movzx	 eax, al
  00c76	85 c0		 test	 eax, eax
  00c78	75 2a		 jne	 SHORT $LN233@gObjCalCha
  00c7a	6a 28		 push	 40			; 00000028H
  00c7c	b9 00 00 00 00	 mov	 ecx, OFFSET ?g_ExLicense@@3VCExLicense@@A ; g_ExLicense
  00c81	e8 00 00 00 00	 call	 ?CheckUser@CExLicense@@QAE_NH@Z ; CExLicense::CheckUser
  00c86	0f b6 c0	 movzx	 eax, al
  00c89	85 c0		 test	 eax, eax
  00c8b	75 17		 jne	 SHORT $LN233@gObjCalCha
  00c8d	6a 24		 push	 36			; 00000024H
  00c8f	b9 00 00 00 00	 mov	 ecx, OFFSET ?g_ExLicense@@3VCExLicense@@A ; g_ExLicense
  00c94	e8 00 00 00 00	 call	 ?CheckUser@CExLicense@@QAE_NH@Z ; CExLicense::CheckUser
  00c99	0f b6 c0	 movzx	 eax, al
  00c9c	85 c0		 test	 eax, eax
  00c9e	0f 84 84 00 00
	00		 je	 $LN234@gObjCalCha
$LN233@gObjCalCha:

; 337  : 		{
; 338  : 			lpObj->m_AttackDamageMinRight = (lpObj->m_AttackDamageMinRight * CalculatorManager.DL_MinDamagePercent) / 100;

  00ca4	8b 45 f8	 mov	 eax, DWORD PTR _lpObj$[ebp]
  00ca7	8b 80 84 04 00
	00		 mov	 eax, DWORD PTR [eax+1156]
  00cad	0f af 05 28 00
	00 00		 imul	 eax, DWORD PTR ?CalculatorManager@@3VcCalculatorManager@@A+40
  00cb4	99		 cdq
  00cb5	b9 64 00 00 00	 mov	 ecx, 100		; 00000064H
  00cba	f7 f9		 idiv	 ecx
  00cbc	8b 55 f8	 mov	 edx, DWORD PTR _lpObj$[ebp]
  00cbf	89 82 84 04 00
	00		 mov	 DWORD PTR [edx+1156], eax

; 339  : 			lpObj->m_AttackDamageMinLeft = (lpObj->m_AttackDamageMinLeft * CalculatorManager.DL_MinDamagePercent) / 100;

  00cc5	8b 45 f8	 mov	 eax, DWORD PTR _lpObj$[ebp]
  00cc8	8b 80 7c 04 00
	00		 mov	 eax, DWORD PTR [eax+1148]
  00cce	0f af 05 28 00
	00 00		 imul	 eax, DWORD PTR ?CalculatorManager@@3VcCalculatorManager@@A+40
  00cd5	99		 cdq
  00cd6	b9 64 00 00 00	 mov	 ecx, 100		; 00000064H
  00cdb	f7 f9		 idiv	 ecx
  00cdd	8b 55 f8	 mov	 edx, DWORD PTR _lpObj$[ebp]
  00ce0	89 82 7c 04 00
	00		 mov	 DWORD PTR [edx+1148], eax

; 340  : 
; 341  : 			lpObj->m_AttackDamageMaxRight = (lpObj->m_AttackDamageMaxRight * CalculatorManager.DL_MaxDamagePercent) / 100;

  00ce6	8b 45 f8	 mov	 eax, DWORD PTR _lpObj$[ebp]
  00ce9	8b 80 80 04 00
	00		 mov	 eax, DWORD PTR [eax+1152]
  00cef	0f af 05 2c 00
	00 00		 imul	 eax, DWORD PTR ?CalculatorManager@@3VcCalculatorManager@@A+44
  00cf6	99		 cdq
  00cf7	b9 64 00 00 00	 mov	 ecx, 100		; 00000064H
  00cfc	f7 f9		 idiv	 ecx
  00cfe	8b 55 f8	 mov	 edx, DWORD PTR _lpObj$[ebp]
  00d01	89 82 80 04 00
	00		 mov	 DWORD PTR [edx+1152], eax

; 342  : 			lpObj->m_AttackDamageMaxLeft = (lpObj->m_AttackDamageMaxLeft * CalculatorManager.DL_MaxDamagePercent) / 100;

  00d07	8b 45 f8	 mov	 eax, DWORD PTR _lpObj$[ebp]
  00d0a	8b 80 78 04 00
	00		 mov	 eax, DWORD PTR [eax+1144]
  00d10	0f af 05 2c 00
	00 00		 imul	 eax, DWORD PTR ?CalculatorManager@@3VcCalculatorManager@@A+44
  00d17	99		 cdq
  00d18	b9 64 00 00 00	 mov	 ecx, 100		; 00000064H
  00d1d	f7 f9		 idiv	 ecx
  00d1f	8b 55 f8	 mov	 edx, DWORD PTR _lpObj$[ebp]
  00d22	89 82 78 04 00
	00		 mov	 DWORD PTR [edx+1144], eax
$LN234@gObjCalCha:

; 343  : 		}
; 344  : #endif
; 345  : 	}

  00d28	e9 79 02 00 00	 jmp	 $LN224@gObjCalCha
$LN235@gObjCalCha:

; 346  : 	else if ( lpObj->Class == CLASS_SUMMONER )

  00d2d	8b 45 f8	 mov	 eax, DWORD PTR _lpObj$[ebp]
  00d30	0f b7 88 b8 00
	00 00		 movzx	 ecx, WORD PTR [eax+184]
  00d37	83 f9 05	 cmp	 ecx, 5
  00d3a	75 5d		 jne	 SHORT $LN231@gObjCalCha

; 347  : 	{
; 348  : 		//int DamageMax_StrRight = GetPrivateProfileInt("Summoner","DamageMax_StrRight",4,"..\\Data\\ExData\\Character.ini");
; 349  : 		//int DamageMin_StrRight = GetPrivateProfileInt("Summoner","DamageMin_StrRight",7,"..\\Data\\ExData\\Character.ini");
; 350  : 		//int DamageMax_StrLeft = GetPrivateProfileInt("Summoner","DamageMax_StrLeft",4,"..\\Data\\ExData\\Character.ini");
; 351  : 		//int DamageMin_StrLeft = GetPrivateProfileInt("Summoner","DamageMin_StrLeft",7,"..\\Data\\ExData\\Character.ini");
; 352  : 
; 353  : 		lpObj->m_AttackDamageMinRight = ((Strength + Dexterity) / ExConfig.Character.SUMDamageMin_StrRight);	// 7

  00d3c	8b 45 f4	 mov	 eax, DWORD PTR _Strength$[ebp]
  00d3f	03 45 f0	 add	 eax, DWORD PTR _Dexterity$[ebp]
  00d42	99		 cdq
  00d43	f7 3d dc 01 00
	00		 idiv	 DWORD PTR ?ExConfig@@3VcExConfigs@@A+476
  00d49	8b 4d f8	 mov	 ecx, DWORD PTR _lpObj$[ebp]
  00d4c	89 81 84 04 00
	00		 mov	 DWORD PTR [ecx+1156], eax

; 354  : 		lpObj->m_AttackDamageMaxRight = ((Strength + Dexterity) / ExConfig.Character.SUMDamageMax_StrRight);	// 4

  00d52	8b 45 f4	 mov	 eax, DWORD PTR _Strength$[ebp]
  00d55	03 45 f0	 add	 eax, DWORD PTR _Dexterity$[ebp]
  00d58	99		 cdq
  00d59	f7 3d d8 01 00
	00		 idiv	 DWORD PTR ?ExConfig@@3VcExConfigs@@A+472
  00d5f	8b 4d f8	 mov	 ecx, DWORD PTR _lpObj$[ebp]
  00d62	89 81 80 04 00
	00		 mov	 DWORD PTR [ecx+1152], eax

; 355  : 		lpObj->m_AttackDamageMinLeft = ((Strength + Dexterity) / ExConfig.Character.SUMDamageMin_StrLeft);	// 7

  00d68	8b 45 f4	 mov	 eax, DWORD PTR _Strength$[ebp]
  00d6b	03 45 f0	 add	 eax, DWORD PTR _Dexterity$[ebp]
  00d6e	99		 cdq
  00d6f	f7 3d e4 01 00
	00		 idiv	 DWORD PTR ?ExConfig@@3VcExConfigs@@A+484
  00d75	8b 4d f8	 mov	 ecx, DWORD PTR _lpObj$[ebp]
  00d78	89 81 7c 04 00
	00		 mov	 DWORD PTR [ecx+1148], eax

; 356  : 		lpObj->m_AttackDamageMaxLeft = ((Strength + Dexterity) / ExConfig.Character.SUMDamageMax_StrLeft);	// 4

  00d7e	8b 45 f4	 mov	 eax, DWORD PTR _Strength$[ebp]
  00d81	03 45 f0	 add	 eax, DWORD PTR _Dexterity$[ebp]
  00d84	99		 cdq
  00d85	f7 3d e0 01 00
	00		 idiv	 DWORD PTR ?ExConfig@@3VcExConfigs@@A+480
  00d8b	8b 4d f8	 mov	 ecx, DWORD PTR _lpObj$[ebp]
  00d8e	89 81 78 04 00
	00		 mov	 DWORD PTR [ecx+1144], eax
  00d94	e9 0d 02 00 00	 jmp	 $LN224@gObjCalCha
$LN231@gObjCalCha:

; 357  : 	}
; 358  : 	else if (lpObj->Class == CLASS_WIZARD)

  00d99	8b 45 f8	 mov	 eax, DWORD PTR _lpObj$[ebp]
  00d9c	0f b7 88 b8 00
	00 00		 movzx	 ecx, WORD PTR [eax+184]
  00da3	85 c9		 test	 ecx, ecx
  00da5	75 51		 jne	 SHORT $LN229@gObjCalCha

; 359  : 	{
; 360  : 		//int DamageMax_StrRight = GetPrivateProfileInt("Dark_Wizard","DamageMax_StrRight",4,"..\\Data\\ExData\\Character.ini");
; 361  : 		//int DamageMin_StrRight = GetPrivateProfileInt("Dark_Wizard","DamageMin_StrRight",6,"..\\Data\\ExData\\Character.ini");
; 362  : 		//int DamageMax_StrLeft = GetPrivateProfileInt("Dark_Wizard","DamageMax_StrLeft",4,"..\\Data\\ExData\\Character.ini");
; 363  : 		//int DamageMin_StrLeft = GetPrivateProfileInt("Dark_Wizard","DamageMin_StrLeft",6,"..\\Data\\ExData\\Character.ini");
; 364  : 
; 365  : 		lpObj->m_AttackDamageMinRight = (Strength / ExConfig.Character.DWDamageMin_StrRight);

  00da7	8b 45 f4	 mov	 eax, DWORD PTR _Strength$[ebp]
  00daa	99		 cdq
  00dab	f7 3d ec 01 00
	00		 idiv	 DWORD PTR ?ExConfig@@3VcExConfigs@@A+492
  00db1	8b 4d f8	 mov	 ecx, DWORD PTR _lpObj$[ebp]
  00db4	89 81 84 04 00
	00		 mov	 DWORD PTR [ecx+1156], eax

; 366  : 		lpObj->m_AttackDamageMaxRight = (Strength / ExConfig.Character.DWDamageMax_StrRight);

  00dba	8b 45 f4	 mov	 eax, DWORD PTR _Strength$[ebp]
  00dbd	99		 cdq
  00dbe	f7 3d e8 01 00
	00		 idiv	 DWORD PTR ?ExConfig@@3VcExConfigs@@A+488
  00dc4	8b 4d f8	 mov	 ecx, DWORD PTR _lpObj$[ebp]
  00dc7	89 81 80 04 00
	00		 mov	 DWORD PTR [ecx+1152], eax

; 367  : 		lpObj->m_AttackDamageMinLeft = (Strength / ExConfig.Character.DWDamageMin_StrLeft);

  00dcd	8b 45 f4	 mov	 eax, DWORD PTR _Strength$[ebp]
  00dd0	99		 cdq
  00dd1	f7 3d f4 01 00
	00		 idiv	 DWORD PTR ?ExConfig@@3VcExConfigs@@A+500
  00dd7	8b 4d f8	 mov	 ecx, DWORD PTR _lpObj$[ebp]
  00dda	89 81 7c 04 00
	00		 mov	 DWORD PTR [ecx+1148], eax

; 368  : 		lpObj->m_AttackDamageMaxLeft = (Strength / ExConfig.Character.DWDamageMax_StrLeft);

  00de0	8b 45 f4	 mov	 eax, DWORD PTR _Strength$[ebp]
  00de3	99		 cdq
  00de4	f7 3d f0 01 00
	00		 idiv	 DWORD PTR ?ExConfig@@3VcExConfigs@@A+496
  00dea	8b 4d f8	 mov	 ecx, DWORD PTR _lpObj$[ebp]
  00ded	89 81 78 04 00
	00		 mov	 DWORD PTR [ecx+1144], eax
  00df3	e9 ae 01 00 00	 jmp	 $LN224@gObjCalCha
$LN229@gObjCalCha:

; 369  : 	}
; 370  : #ifdef MONK
; 371  : 	else if( lpObj->Class == CLASS_MONK )

  00df8	8b 45 f8	 mov	 eax, DWORD PTR _lpObj$[ebp]
  00dfb	0f b7 88 b8 00
	00 00		 movzx	 ecx, WORD PTR [eax+184]
  00e02	83 f9 06	 cmp	 ecx, 6
  00e05	0f 85 47 01 00
	00		 jne	 $LN227@gObjCalCha

; 372  : 	{
; 373  : 		lpObj->m_AttackDamageMinRight	= Vitality / ExConfig.Character.RFDamageMin_VitRight /*15*/ + Strength / ExConfig.Character.RFDamageMin_StrRight;

  00e0b	8b 45 ec	 mov	 eax, DWORD PTR _Vitality$[ebp]
  00e0e	99		 cdq
  00e0f	f7 3d 60 02 00
	00		 idiv	 DWORD PTR ?ExConfig@@3VcExConfigs@@A+608
  00e15	8b c8		 mov	 ecx, eax
  00e17	8b 45 f4	 mov	 eax, DWORD PTR _Strength$[ebp]
  00e1a	99		 cdq
  00e1b	f7 3d 64 02 00
	00		 idiv	 DWORD PTR ?ExConfig@@3VcExConfigs@@A+612
  00e21	03 c8		 add	 ecx, eax
  00e23	8b 55 f8	 mov	 edx, DWORD PTR _lpObj$[ebp]
  00e26	89 8a 84 04 00
	00		 mov	 DWORD PTR [edx+1156], ecx

; 374  : 		lpObj->m_AttackDamageMaxRight	= Vitality / ExConfig.Character.RFDamageMax_VitRight + Strength / ExConfig.Character.RFDamageMax_StrRight;

  00e2c	8b 45 ec	 mov	 eax, DWORD PTR _Vitality$[ebp]
  00e2f	99		 cdq
  00e30	f7 3d 68 02 00
	00		 idiv	 DWORD PTR ?ExConfig@@3VcExConfigs@@A+616
  00e36	8b c8		 mov	 ecx, eax
  00e38	8b 45 f4	 mov	 eax, DWORD PTR _Strength$[ebp]
  00e3b	99		 cdq
  00e3c	f7 3d 6c 02 00
	00		 idiv	 DWORD PTR ?ExConfig@@3VcExConfigs@@A+620
  00e42	03 c8		 add	 ecx, eax
  00e44	8b 55 f8	 mov	 edx, DWORD PTR _lpObj$[ebp]
  00e47	89 8a 80 04 00
	00		 mov	 DWORD PTR [edx+1152], ecx

; 375  : 		lpObj->m_AttackDamageMinLeft	= Vitality / ExConfig.Character.RFDamageMin_VitLeft + Strength / ExConfig.Character.RFDamageMin_StrLeft;

  00e4d	8b 45 ec	 mov	 eax, DWORD PTR _Vitality$[ebp]
  00e50	99		 cdq
  00e51	f7 3d 70 02 00
	00		 idiv	 DWORD PTR ?ExConfig@@3VcExConfigs@@A+624
  00e57	8b c8		 mov	 ecx, eax
  00e59	8b 45 f4	 mov	 eax, DWORD PTR _Strength$[ebp]
  00e5c	99		 cdq
  00e5d	f7 3d 74 02 00
	00		 idiv	 DWORD PTR ?ExConfig@@3VcExConfigs@@A+628
  00e63	03 c8		 add	 ecx, eax
  00e65	8b 55 f8	 mov	 edx, DWORD PTR _lpObj$[ebp]
  00e68	89 8a 7c 04 00
	00		 mov	 DWORD PTR [edx+1148], ecx

; 376  : 		lpObj->m_AttackDamageMaxLeft	= Vitality / ExConfig.Character.RFDamageMax_VitLeft + Strength / ExConfig.Character.RFDamageMax_StrLeft;

  00e6e	8b 45 ec	 mov	 eax, DWORD PTR _Vitality$[ebp]
  00e71	99		 cdq
  00e72	f7 3d 78 02 00
	00		 idiv	 DWORD PTR ?ExConfig@@3VcExConfigs@@A+632
  00e78	8b c8		 mov	 ecx, eax
  00e7a	8b 45 f4	 mov	 eax, DWORD PTR _Strength$[ebp]
  00e7d	99		 cdq
  00e7e	f7 3d 7c 02 00
	00		 idiv	 DWORD PTR ?ExConfig@@3VcExConfigs@@A+636
  00e84	03 c8		 add	 ecx, eax
  00e86	8b 55 f8	 mov	 edx, DWORD PTR _lpObj$[ebp]
  00e89	89 8a 78 04 00
	00		 mov	 DWORD PTR [edx+1144], ecx

; 377  : 
; 378  : #ifdef CALCULATOR_MANAGER
; 379  : 		if (g_ExLicense.CheckUser(eExUB::ulasevich) || g_ExLicense.CheckUser(eExUB::ConflictNoCustom) || g_ExLicense.CheckUser(eExUB::ulasevich2))

  00e8f	6a 17		 push	 23			; 00000017H
  00e91	b9 00 00 00 00	 mov	 ecx, OFFSET ?g_ExLicense@@3VCExLicense@@A ; g_ExLicense
  00e96	e8 00 00 00 00	 call	 ?CheckUser@CExLicense@@QAE_NH@Z ; CExLicense::CheckUser
  00e9b	0f b6 c0	 movzx	 eax, al
  00e9e	85 c0		 test	 eax, eax
  00ea0	75 2a		 jne	 SHORT $LN225@gObjCalCha
  00ea2	6a 28		 push	 40			; 00000028H
  00ea4	b9 00 00 00 00	 mov	 ecx, OFFSET ?g_ExLicense@@3VCExLicense@@A ; g_ExLicense
  00ea9	e8 00 00 00 00	 call	 ?CheckUser@CExLicense@@QAE_NH@Z ; CExLicense::CheckUser
  00eae	0f b6 c0	 movzx	 eax, al
  00eb1	85 c0		 test	 eax, eax
  00eb3	75 17		 jne	 SHORT $LN225@gObjCalCha
  00eb5	6a 24		 push	 36			; 00000024H
  00eb7	b9 00 00 00 00	 mov	 ecx, OFFSET ?g_ExLicense@@3VCExLicense@@A ; g_ExLicense
  00ebc	e8 00 00 00 00	 call	 ?CheckUser@CExLicense@@QAE_NH@Z ; CExLicense::CheckUser
  00ec1	0f b6 c0	 movzx	 eax, al
  00ec4	85 c0		 test	 eax, eax
  00ec6	0f 84 84 00 00
	00		 je	 $LN226@gObjCalCha
$LN225@gObjCalCha:

; 380  : 		{
; 381  : 			lpObj->m_AttackDamageMinRight = (lpObj->m_AttackDamageMinRight * CalculatorManager.RF_DamageMinPercent) / 100;

  00ecc	8b 45 f8	 mov	 eax, DWORD PTR _lpObj$[ebp]
  00ecf	8b 80 84 04 00
	00		 mov	 eax, DWORD PTR [eax+1156]
  00ed5	0f af 05 40 00
	00 00		 imul	 eax, DWORD PTR ?CalculatorManager@@3VcCalculatorManager@@A+64
  00edc	99		 cdq
  00edd	b9 64 00 00 00	 mov	 ecx, 100		; 00000064H
  00ee2	f7 f9		 idiv	 ecx
  00ee4	8b 55 f8	 mov	 edx, DWORD PTR _lpObj$[ebp]
  00ee7	89 82 84 04 00
	00		 mov	 DWORD PTR [edx+1156], eax

; 382  : 			lpObj->m_AttackDamageMinLeft = (lpObj->m_AttackDamageMinLeft * CalculatorManager.RF_DamageMinPercent) / 100;

  00eed	8b 45 f8	 mov	 eax, DWORD PTR _lpObj$[ebp]
  00ef0	8b 80 7c 04 00
	00		 mov	 eax, DWORD PTR [eax+1148]
  00ef6	0f af 05 40 00
	00 00		 imul	 eax, DWORD PTR ?CalculatorManager@@3VcCalculatorManager@@A+64
  00efd	99		 cdq
  00efe	b9 64 00 00 00	 mov	 ecx, 100		; 00000064H
  00f03	f7 f9		 idiv	 ecx
  00f05	8b 55 f8	 mov	 edx, DWORD PTR _lpObj$[ebp]
  00f08	89 82 7c 04 00
	00		 mov	 DWORD PTR [edx+1148], eax

; 383  : 
; 384  : 			lpObj->m_AttackDamageMaxRight = (lpObj->m_AttackDamageMaxRight * CalculatorManager.RF_DamageMaxPercent) / 100;

  00f0e	8b 45 f8	 mov	 eax, DWORD PTR _lpObj$[ebp]
  00f11	8b 80 80 04 00
	00		 mov	 eax, DWORD PTR [eax+1152]
  00f17	0f af 05 44 00
	00 00		 imul	 eax, DWORD PTR ?CalculatorManager@@3VcCalculatorManager@@A+68
  00f1e	99		 cdq
  00f1f	b9 64 00 00 00	 mov	 ecx, 100		; 00000064H
  00f24	f7 f9		 idiv	 ecx
  00f26	8b 55 f8	 mov	 edx, DWORD PTR _lpObj$[ebp]
  00f29	89 82 80 04 00
	00		 mov	 DWORD PTR [edx+1152], eax

; 385  : 			lpObj->m_AttackDamageMaxLeft = (lpObj->m_AttackDamageMaxLeft * CalculatorManager.RF_DamageMaxPercent) / 100;

  00f2f	8b 45 f8	 mov	 eax, DWORD PTR _lpObj$[ebp]
  00f32	8b 80 78 04 00
	00		 mov	 eax, DWORD PTR [eax+1144]
  00f38	0f af 05 44 00
	00 00		 imul	 eax, DWORD PTR ?CalculatorManager@@3VcCalculatorManager@@A+68
  00f3f	99		 cdq
  00f40	b9 64 00 00 00	 mov	 ecx, 100		; 00000064H
  00f45	f7 f9		 idiv	 ecx
  00f47	8b 55 f8	 mov	 edx, DWORD PTR _lpObj$[ebp]
  00f4a	89 82 78 04 00
	00		 mov	 DWORD PTR [edx+1144], eax
$LN226@gObjCalCha:

; 386  : 		}
; 387  : #endif
; 388  : 
; 389  : 	}
; 390  : #endif
; 391  : 	else

  00f50	eb 54		 jmp	 SHORT $LN224@gObjCalCha
$LN227@gObjCalCha:

; 392  : 	{
; 393  : 		lpObj->m_AttackDamageMinRight = (Strength / 8);

  00f52	8b 45 f4	 mov	 eax, DWORD PTR _Strength$[ebp]
  00f55	99		 cdq
  00f56	83 e2 07	 and	 edx, 7
  00f59	03 c2		 add	 eax, edx
  00f5b	c1 f8 03	 sar	 eax, 3
  00f5e	8b 4d f8	 mov	 ecx, DWORD PTR _lpObj$[ebp]
  00f61	89 81 84 04 00
	00		 mov	 DWORD PTR [ecx+1156], eax

; 394  : 		lpObj->m_AttackDamageMaxRight = (Strength / 4);

  00f67	8b 45 f4	 mov	 eax, DWORD PTR _Strength$[ebp]
  00f6a	99		 cdq
  00f6b	83 e2 03	 and	 edx, 3
  00f6e	03 c2		 add	 eax, edx
  00f70	c1 f8 02	 sar	 eax, 2
  00f73	8b 4d f8	 mov	 ecx, DWORD PTR _lpObj$[ebp]
  00f76	89 81 80 04 00
	00		 mov	 DWORD PTR [ecx+1152], eax

; 395  : 		lpObj->m_AttackDamageMinLeft = (Strength / 8);

  00f7c	8b 45 f4	 mov	 eax, DWORD PTR _Strength$[ebp]
  00f7f	99		 cdq
  00f80	83 e2 07	 and	 edx, 7
  00f83	03 c2		 add	 eax, edx
  00f85	c1 f8 03	 sar	 eax, 3
  00f88	8b 4d f8	 mov	 ecx, DWORD PTR _lpObj$[ebp]
  00f8b	89 81 7c 04 00
	00		 mov	 DWORD PTR [ecx+1148], eax

; 396  : 		lpObj->m_AttackDamageMaxLeft = (Strength / 4);

  00f91	8b 45 f4	 mov	 eax, DWORD PTR _Strength$[ebp]
  00f94	99		 cdq
  00f95	83 e2 03	 and	 edx, 3
  00f98	03 c2		 add	 eax, edx
  00f9a	c1 f8 02	 sar	 eax, 2
  00f9d	8b 4d f8	 mov	 ecx, DWORD PTR _lpObj$[ebp]
  00fa0	89 81 78 04 00
	00		 mov	 DWORD PTR [ecx+1144], eax
$LN224@gObjCalCha:

; 397  : 	}
; 398  : 	if(lpObj->Class == CLASS_KNIGHT || lpObj->Class == CLASS_ELF || lpObj->Class == CLASS_DARKLORD)

  00fa6	8b 45 f8	 mov	 eax, DWORD PTR _lpObj$[ebp]
  00fa9	0f b7 88 b8 00
	00 00		 movzx	 ecx, WORD PTR [eax+184]
  00fb0	83 f9 01	 cmp	 ecx, 1
  00fb3	74 22		 je	 SHORT $LN222@gObjCalCha
  00fb5	8b 45 f8	 mov	 eax, DWORD PTR _lpObj$[ebp]
  00fb8	0f b7 88 b8 00
	00 00		 movzx	 ecx, WORD PTR [eax+184]
  00fbf	83 f9 02	 cmp	 ecx, 2
  00fc2	74 13		 je	 SHORT $LN222@gObjCalCha
  00fc4	8b 45 f8	 mov	 eax, DWORD PTR _lpObj$[ebp]
  00fc7	0f b7 88 b8 00
	00 00		 movzx	 ecx, WORD PTR [eax+184]
  00fce	83 f9 04	 cmp	 ecx, 4
  00fd1	0f 85 80 00 00
	00		 jne	 $LN223@gObjCalCha
$LN222@gObjCalCha:

; 399  : 	{
; 400  : 		lpObj->m_AttackDamageMaxRight += lpObj->m_MPSkillOpt.MpsMaxAttackInc;

  00fd7	8b 45 f8	 mov	 eax, DWORD PTR _lpObj$[ebp]
  00fda	db 80 80 04 00
	00		 fild	 DWORD PTR [eax+1152]
  00fe0	8b 4d f8	 mov	 ecx, DWORD PTR _lpObj$[ebp]
  00fe3	d8 81 2c 27 00
	00		 fadd	 DWORD PTR [ecx+10028]
  00fe9	e8 00 00 00 00	 call	 __ftol2_sse
  00fee	8b 55 f8	 mov	 edx, DWORD PTR _lpObj$[ebp]
  00ff1	89 82 80 04 00
	00		 mov	 DWORD PTR [edx+1152], eax

; 401  : 		lpObj->m_AttackDamageMaxLeft += lpObj->m_MPSkillOpt.MpsMaxAttackInc;

  00ff7	8b 45 f8	 mov	 eax, DWORD PTR _lpObj$[ebp]
  00ffa	db 80 78 04 00
	00		 fild	 DWORD PTR [eax+1144]
  01000	8b 4d f8	 mov	 ecx, DWORD PTR _lpObj$[ebp]
  01003	d8 81 2c 27 00
	00		 fadd	 DWORD PTR [ecx+10028]
  01009	e8 00 00 00 00	 call	 __ftol2_sse
  0100e	8b 55 f8	 mov	 edx, DWORD PTR _lpObj$[ebp]
  01011	89 82 78 04 00
	00		 mov	 DWORD PTR [edx+1144], eax

; 402  : 		lpObj->m_AttackDamageMinRight += lpObj->m_MPSkillOpt.MpsMinAttackInc;

  01017	8b 45 f8	 mov	 eax, DWORD PTR _lpObj$[ebp]
  0101a	db 80 84 04 00
	00		 fild	 DWORD PTR [eax+1156]
  01020	8b 4d f8	 mov	 ecx, DWORD PTR _lpObj$[ebp]
  01023	d8 81 28 27 00
	00		 fadd	 DWORD PTR [ecx+10024]
  01029	e8 00 00 00 00	 call	 __ftol2_sse
  0102e	8b 55 f8	 mov	 edx, DWORD PTR _lpObj$[ebp]
  01031	89 82 84 04 00
	00		 mov	 DWORD PTR [edx+1156], eax

; 403  : 		lpObj->m_AttackDamageMinLeft += lpObj->m_MPSkillOpt.MpsMinAttackInc;

  01037	8b 45 f8	 mov	 eax, DWORD PTR _lpObj$[ebp]
  0103a	db 80 7c 04 00
	00		 fild	 DWORD PTR [eax+1148]
  01040	8b 4d f8	 mov	 ecx, DWORD PTR _lpObj$[ebp]
  01043	d8 81 28 27 00
	00		 fadd	 DWORD PTR [ecx+10024]
  01049	e8 00 00 00 00	 call	 __ftol2_sse
  0104e	8b 55 f8	 mov	 edx, DWORD PTR _lpObj$[ebp]
  01051	89 82 7c 04 00
	00		 mov	 DWORD PTR [edx+1148], eax
$LN223@gObjCalCha:

; 404  : 	}
; 405  : 
; 406  : 	lpObj->pInventory[7].PlusSpecial(&lpObj->m_AttackDamageMinRight, 80);

  01057	6a 50		 push	 80			; 00000050H
  01059	8b 45 f8	 mov	 eax, DWORD PTR _lpObj$[ebp]
  0105c	05 84 04 00 00	 add	 eax, 1156		; 00000484H
  01061	50		 push	 eax
  01062	8b 4d f8	 mov	 ecx, DWORD PTR _lpObj$[ebp]
  01065	8b 89 24 0e 00
	00		 mov	 ecx, DWORD PTR [ecx+3620]
  0106b	81 c1 cc 05 00
	00		 add	 ecx, 1484		; 000005ccH
  01071	e8 00 00 00 00	 call	 ?PlusSpecial@CItem@@QAEXPAHH@Z ; CItem::PlusSpecial

; 407  : 	lpObj->pInventory[7].PlusSpecial(&lpObj->m_AttackDamageMaxRight, 80);

  01076	6a 50		 push	 80			; 00000050H
  01078	8b 45 f8	 mov	 eax, DWORD PTR _lpObj$[ebp]
  0107b	05 80 04 00 00	 add	 eax, 1152		; 00000480H
  01080	50		 push	 eax
  01081	8b 4d f8	 mov	 ecx, DWORD PTR _lpObj$[ebp]
  01084	8b 89 24 0e 00
	00		 mov	 ecx, DWORD PTR [ecx+3620]
  0108a	81 c1 cc 05 00
	00		 add	 ecx, 1484		; 000005ccH
  01090	e8 00 00 00 00	 call	 ?PlusSpecial@CItem@@QAEXPAHH@Z ; CItem::PlusSpecial

; 408  : 	lpObj->pInventory[7].PlusSpecial(&lpObj->m_AttackDamageMinLeft, 80);

  01095	6a 50		 push	 80			; 00000050H
  01097	8b 45 f8	 mov	 eax, DWORD PTR _lpObj$[ebp]
  0109a	05 7c 04 00 00	 add	 eax, 1148		; 0000047cH
  0109f	50		 push	 eax
  010a0	8b 4d f8	 mov	 ecx, DWORD PTR _lpObj$[ebp]
  010a3	8b 89 24 0e 00
	00		 mov	 ecx, DWORD PTR [ecx+3620]
  010a9	81 c1 cc 05 00
	00		 add	 ecx, 1484		; 000005ccH
  010af	e8 00 00 00 00	 call	 ?PlusSpecial@CItem@@QAEXPAHH@Z ; CItem::PlusSpecial

; 409  : 	lpObj->pInventory[7].PlusSpecial(&lpObj->m_AttackDamageMaxLeft, 80);

  010b4	6a 50		 push	 80			; 00000050H
  010b6	8b 45 f8	 mov	 eax, DWORD PTR _lpObj$[ebp]
  010b9	05 78 04 00 00	 add	 eax, 1144		; 00000478H
  010be	50		 push	 eax
  010bf	8b 4d f8	 mov	 ecx, DWORD PTR _lpObj$[ebp]
  010c2	8b 89 24 0e 00
	00		 mov	 ecx, DWORD PTR [ecx+3620]
  010c8	81 c1 cc 05 00
	00		 add	 ecx, 1484		; 000005ccH
  010ce	e8 00 00 00 00	 call	 ?PlusSpecial@CItem@@QAEXPAHH@Z ; CItem::PlusSpecial

; 410  : 
; 411  : 	int AddLeadership = 0;

  010d3	c7 85 c4 fe ff
	ff 00 00 00 00	 mov	 DWORD PTR _AddLeadership$[ebp], 0

; 412  : 
; 413  : 	if ( lpObj->pInventory[7].IsItem() != FALSE && lpObj->pInventory[7].m_IsValidItem != false)

  010dd	8b 45 f8	 mov	 eax, DWORD PTR _lpObj$[ebp]
  010e0	8b 88 24 0e 00
	00		 mov	 ecx, DWORD PTR [eax+3620]
  010e6	81 c1 cc 05 00
	00		 add	 ecx, 1484		; 000005ccH
  010ec	e8 00 00 00 00	 call	 ?IsItem@CItem@@QAEHXZ	; CItem::IsItem
  010f1	85 c0		 test	 eax, eax
  010f3	74 30		 je	 SHORT $LN221@gObjCalCha
  010f5	8b 45 f8	 mov	 eax, DWORD PTR _lpObj$[ebp]
  010f8	8b 88 24 0e 00
	00		 mov	 ecx, DWORD PTR [eax+3620]
  010fe	0f b6 91 7c 06
	00 00		 movzx	 edx, BYTE PTR [ecx+1660]
  01105	85 d2		 test	 edx, edx
  01107	74 1c		 je	 SHORT $LN221@gObjCalCha

; 414  : 	{
; 415  : 		AddLeadership += lpObj->pInventory[7].m_Leadership;

  01109	8b 45 f8	 mov	 eax, DWORD PTR _lpObj$[ebp]
  0110c	8b 88 24 0e 00
	00		 mov	 ecx, DWORD PTR [eax+3620]
  01112	0f b7 91 22 06
	00 00		 movzx	 edx, WORD PTR [ecx+1570]
  01119	03 95 c4 fe ff
	ff		 add	 edx, DWORD PTR _AddLeadership$[ebp]
  0111f	89 95 c4 fe ff
	ff		 mov	 DWORD PTR _AddLeadership$[ebp], edx
$LN221@gObjCalCha:

; 416  : 	}
; 417  : 
; 418  : 	if ( Right->m_Type != -1 )

  01125	8b 45 e4	 mov	 eax, DWORD PTR _Right$[ebp]
  01128	0f bf 48 06	 movsx	 ecx, WORD PTR [eax+6]
  0112c	83 f9 ff	 cmp	 ecx, -1
  0112f	0f 84 f0 00 00
	00		 je	 $LN220@gObjCalCha

; 419  : 	{
; 420  : 		if ( Right->m_IsValidItem != false )

  01135	8b 45 e4	 mov	 eax, DWORD PTR _Right$[ebp]
  01138	0f b6 88 b0 00
	00 00		 movzx	 ecx, BYTE PTR [eax+176]
  0113f	85 c9		 test	 ecx, ecx
  01141	0f 84 8e 00 00
	00		 je	 $LN217@gObjCalCha

; 421  : 		{
; 422  : 			if ( Right->m_Type >= ITEMGET(5,0) && Right->m_Type <= ITEMGET(6,0) )

  01147	8b 45 e4	 mov	 eax, DWORD PTR _Right$[ebp]
  0114a	0f bf 48 06	 movsx	 ecx, WORD PTR [eax+6]
  0114e	81 f9 00 0a 00
	00		 cmp	 ecx, 2560		; 00000a00H
  01154	7c 4d		 jl	 SHORT $LN218@gObjCalCha
  01156	8b 45 e4	 mov	 eax, DWORD PTR _Right$[ebp]
  01159	0f bf 48 06	 movsx	 ecx, WORD PTR [eax+6]
  0115d	81 f9 00 0c 00
	00		 cmp	 ecx, 3072		; 00000c00H
  01163	7f 3e		 jg	 SHORT $LN218@gObjCalCha

; 423  : 			{
; 424  : 				lpObj->m_AttackDamageMinRight += Right->m_DamageMin / 2; //check?

  01165	8b 45 e4	 mov	 eax, DWORD PTR _Right$[ebp]
  01168	0f b7 40 10	 movzx	 eax, WORD PTR [eax+16]
  0116c	99		 cdq
  0116d	2b c2		 sub	 eax, edx
  0116f	d1 f8		 sar	 eax, 1
  01171	8b 4d f8	 mov	 ecx, DWORD PTR _lpObj$[ebp]
  01174	03 81 84 04 00
	00		 add	 eax, DWORD PTR [ecx+1156]
  0117a	8b 55 f8	 mov	 edx, DWORD PTR _lpObj$[ebp]
  0117d	89 82 84 04 00
	00		 mov	 DWORD PTR [edx+1156], eax

; 425  : 				lpObj->m_AttackDamageMaxRight += Right->m_DamageMax / 2; //check?

  01183	8b 45 e4	 mov	 eax, DWORD PTR _Right$[ebp]
  01186	0f b7 40 12	 movzx	 eax, WORD PTR [eax+18]
  0118a	99		 cdq
  0118b	2b c2		 sub	 eax, edx
  0118d	d1 f8		 sar	 eax, 1
  0118f	8b 4d f8	 mov	 ecx, DWORD PTR _lpObj$[ebp]
  01192	03 81 80 04 00
	00		 add	 eax, DWORD PTR [ecx+1152]
  01198	8b 55 f8	 mov	 edx, DWORD PTR _lpObj$[ebp]
  0119b	89 82 80 04 00
	00		 mov	 DWORD PTR [edx+1152], eax

; 426  : 			}
; 427  : 			else

  011a1	eb 32		 jmp	 SHORT $LN217@gObjCalCha
$LN218@gObjCalCha:

; 428  : 			{
; 429  : 				lpObj->m_AttackDamageMinRight += Right->m_DamageMin;

  011a3	8b 45 e4	 mov	 eax, DWORD PTR _Right$[ebp]
  011a6	0f b7 48 10	 movzx	 ecx, WORD PTR [eax+16]
  011aa	8b 55 f8	 mov	 edx, DWORD PTR _lpObj$[ebp]
  011ad	03 8a 84 04 00
	00		 add	 ecx, DWORD PTR [edx+1156]
  011b3	8b 45 f8	 mov	 eax, DWORD PTR _lpObj$[ebp]
  011b6	89 88 84 04 00
	00		 mov	 DWORD PTR [eax+1156], ecx

; 430  : 				lpObj->m_AttackDamageMaxRight += Right->m_DamageMax;

  011bc	8b 45 e4	 mov	 eax, DWORD PTR _Right$[ebp]
  011bf	0f b7 48 12	 movzx	 ecx, WORD PTR [eax+18]
  011c3	8b 55 f8	 mov	 edx, DWORD PTR _lpObj$[ebp]
  011c6	03 8a 80 04 00
	00		 add	 ecx, DWORD PTR [edx+1152]
  011cc	8b 45 f8	 mov	 eax, DWORD PTR _lpObj$[ebp]
  011cf	89 88 80 04 00
	00		 mov	 DWORD PTR [eax+1152], ecx
$LN217@gObjCalCha:

; 431  : 			}
; 432  : 		}
; 433  : 
; 434  : 		if ( lpObj->pInventory[0].m_SkillChange != FALSE )

  011d5	8b 45 f8	 mov	 eax, DWORD PTR _lpObj$[ebp]
  011d8	8b 88 24 0e 00
	00		 mov	 ecx, DWORD PTR [eax+3620]
  011de	0f b6 91 ac 00
	00 00		 movzx	 edx, BYTE PTR [ecx+172]
  011e5	85 d2		 test	 edx, edx
  011e7	74 0a		 je	 SHORT $LN216@gObjCalCha

; 435  : 		{
; 436  : 			lpObj->SkillLongSpearChange = true;

  011e9	8b 45 f8	 mov	 eax, DWORD PTR _lpObj$[ebp]
  011ec	c6 80 7a 12 00
	00 01		 mov	 BYTE PTR [eax+4730], 1
$LN216@gObjCalCha:

; 437  : 		}
; 438  : 
; 439  : 		lpObj->pInventory[0].PlusSpecial(&lpObj->m_AttackDamageMinRight, 80);

  011f3	6a 50		 push	 80			; 00000050H
  011f5	8b 45 f8	 mov	 eax, DWORD PTR _lpObj$[ebp]
  011f8	05 84 04 00 00	 add	 eax, 1156		; 00000484H
  011fd	50		 push	 eax
  011fe	8b 4d f8	 mov	 ecx, DWORD PTR _lpObj$[ebp]
  01201	8b 89 24 0e 00
	00		 mov	 ecx, DWORD PTR [ecx+3620]
  01207	e8 00 00 00 00	 call	 ?PlusSpecial@CItem@@QAEXPAHH@Z ; CItem::PlusSpecial

; 440  : 		lpObj->pInventory[0].PlusSpecial(&lpObj->m_AttackDamageMaxRight, 80);

  0120c	6a 50		 push	 80			; 00000050H
  0120e	8b 45 f8	 mov	 eax, DWORD PTR _lpObj$[ebp]
  01211	05 80 04 00 00	 add	 eax, 1152		; 00000480H
  01216	50		 push	 eax
  01217	8b 4d f8	 mov	 ecx, DWORD PTR _lpObj$[ebp]
  0121a	8b 89 24 0e 00
	00		 mov	 ecx, DWORD PTR [ecx+3620]
  01220	e8 00 00 00 00	 call	 ?PlusSpecial@CItem@@QAEXPAHH@Z ; CItem::PlusSpecial
$LN220@gObjCalCha:

; 441  : 	}
; 442  : 		
; 443  : 	if ( Left->m_Type != -1 )

  01225	8b 45 e0	 mov	 eax, DWORD PTR _Left$[ebp]
  01228	0f bf 48 06	 movsx	 ecx, WORD PTR [eax+6]
  0122c	83 f9 ff	 cmp	 ecx, -1
  0122f	74 7e		 je	 SHORT $LN215@gObjCalCha

; 444  : 	{
; 445  : 		if ( Left->m_IsValidItem != false)

  01231	8b 45 e0	 mov	 eax, DWORD PTR _Left$[ebp]
  01234	0f b6 88 b0 00
	00 00		 movzx	 ecx, BYTE PTR [eax+176]
  0123b	85 c9		 test	 ecx, ecx
  0123d	74 32		 je	 SHORT $LN214@gObjCalCha

; 446  : 		{
; 447  : 			lpObj->m_AttackDamageMinLeft += Left->m_DamageMin;

  0123f	8b 45 e0	 mov	 eax, DWORD PTR _Left$[ebp]
  01242	0f b7 48 10	 movzx	 ecx, WORD PTR [eax+16]
  01246	8b 55 f8	 mov	 edx, DWORD PTR _lpObj$[ebp]
  01249	03 8a 7c 04 00
	00		 add	 ecx, DWORD PTR [edx+1148]
  0124f	8b 45 f8	 mov	 eax, DWORD PTR _lpObj$[ebp]
  01252	89 88 7c 04 00
	00		 mov	 DWORD PTR [eax+1148], ecx

; 448  : 			lpObj->m_AttackDamageMaxLeft += Left->m_DamageMax;

  01258	8b 45 e0	 mov	 eax, DWORD PTR _Left$[ebp]
  0125b	0f b7 48 12	 movzx	 ecx, WORD PTR [eax+18]
  0125f	8b 55 f8	 mov	 edx, DWORD PTR _lpObj$[ebp]
  01262	03 8a 78 04 00
	00		 add	 ecx, DWORD PTR [edx+1144]
  01268	8b 45 f8	 mov	 eax, DWORD PTR _lpObj$[ebp]
  0126b	89 88 78 04 00
	00		 mov	 DWORD PTR [eax+1144], ecx
$LN214@gObjCalCha:

; 449  : 		}
; 450  : 
; 451  : 		lpObj->pInventory[1].PlusSpecial(&lpObj->m_AttackDamageMinLeft, 80);

  01271	6a 50		 push	 80			; 00000050H
  01273	8b 45 f8	 mov	 eax, DWORD PTR _lpObj$[ebp]
  01276	05 7c 04 00 00	 add	 eax, 1148		; 0000047cH
  0127b	50		 push	 eax
  0127c	8b 4d f8	 mov	 ecx, DWORD PTR _lpObj$[ebp]
  0127f	8b 89 24 0e 00
	00		 mov	 ecx, DWORD PTR [ecx+3620]
  01285	81 c1 d4 00 00
	00		 add	 ecx, 212		; 000000d4H
  0128b	e8 00 00 00 00	 call	 ?PlusSpecial@CItem@@QAEXPAHH@Z ; CItem::PlusSpecial

; 452  : 		lpObj->pInventory[1].PlusSpecial(&lpObj->m_AttackDamageMaxLeft, 80);

  01290	6a 50		 push	 80			; 00000050H
  01292	8b 45 f8	 mov	 eax, DWORD PTR _lpObj$[ebp]
  01295	05 78 04 00 00	 add	 eax, 1144		; 00000478H
  0129a	50		 push	 eax
  0129b	8b 4d f8	 mov	 ecx, DWORD PTR _lpObj$[ebp]
  0129e	8b 89 24 0e 00
	00		 mov	 ecx, DWORD PTR [ecx+3620]
  012a4	81 c1 d4 00 00
	00		 add	 ecx, 212		; 000000d4H
  012aa	e8 00 00 00 00	 call	 ?PlusSpecial@CItem@@QAEXPAHH@Z ; CItem::PlusSpecial
$LN215@gObjCalCha:

; 453  : 	}
; 454  : 
; 455  : 	lpObj->m_CriticalDamage = 0;

  012af	8b 45 f8	 mov	 eax, DWORD PTR _lpObj$[ebp]
  012b2	c7 80 bc 04 00
	00 00 00 00 00	 mov	 DWORD PTR [eax+1212], 0

; 456  : 	lpObj->m_ExcelentDamage = 0;

  012bc	8b 45 f8	 mov	 eax, DWORD PTR _lpObj$[ebp]
  012bf	c7 80 c0 04 00
	00 00 00 00 00	 mov	 DWORD PTR [eax+1216], 0

; 457  : 
; 458  : 	lpObj->pInventory[0].PlusSpecial(&lpObj->m_CriticalDamage, 84);

  012c9	6a 54		 push	 84			; 00000054H
  012cb	8b 45 f8	 mov	 eax, DWORD PTR _lpObj$[ebp]
  012ce	05 bc 04 00 00	 add	 eax, 1212		; 000004bcH
  012d3	50		 push	 eax
  012d4	8b 4d f8	 mov	 ecx, DWORD PTR _lpObj$[ebp]
  012d7	8b 89 24 0e 00
	00		 mov	 ecx, DWORD PTR [ecx+3620]
  012dd	e8 00 00 00 00	 call	 ?PlusSpecial@CItem@@QAEXPAHH@Z ; CItem::PlusSpecial

; 459  : 	lpObj->pInventory[1].PlusSpecial(&lpObj->m_CriticalDamage, 84);

  012e2	6a 54		 push	 84			; 00000054H
  012e4	8b 45 f8	 mov	 eax, DWORD PTR _lpObj$[ebp]
  012e7	05 bc 04 00 00	 add	 eax, 1212		; 000004bcH
  012ec	50		 push	 eax
  012ed	8b 4d f8	 mov	 ecx, DWORD PTR _lpObj$[ebp]
  012f0	8b 89 24 0e 00
	00		 mov	 ecx, DWORD PTR [ecx+3620]
  012f6	81 c1 d4 00 00
	00		 add	 ecx, 212		; 000000d4H
  012fc	e8 00 00 00 00	 call	 ?PlusSpecial@CItem@@QAEXPAHH@Z ; CItem::PlusSpecial

; 460  : 	lpObj->pInventory[2].PlusSpecial(&lpObj->m_CriticalDamage, 84);

  01301	6a 54		 push	 84			; 00000054H
  01303	8b 45 f8	 mov	 eax, DWORD PTR _lpObj$[ebp]
  01306	05 bc 04 00 00	 add	 eax, 1212		; 000004bcH
  0130b	50		 push	 eax
  0130c	8b 4d f8	 mov	 ecx, DWORD PTR _lpObj$[ebp]
  0130f	8b 89 24 0e 00
	00		 mov	 ecx, DWORD PTR [ecx+3620]
  01315	81 c1 a8 01 00
	00		 add	 ecx, 424		; 000001a8H
  0131b	e8 00 00 00 00	 call	 ?PlusSpecial@CItem@@QAEXPAHH@Z ; CItem::PlusSpecial

; 461  : 	lpObj->pInventory[3].PlusSpecial(&lpObj->m_CriticalDamage, 84);

  01320	6a 54		 push	 84			; 00000054H
  01322	8b 45 f8	 mov	 eax, DWORD PTR _lpObj$[ebp]
  01325	05 bc 04 00 00	 add	 eax, 1212		; 000004bcH
  0132a	50		 push	 eax
  0132b	8b 4d f8	 mov	 ecx, DWORD PTR _lpObj$[ebp]
  0132e	8b 89 24 0e 00
	00		 mov	 ecx, DWORD PTR [ecx+3620]
  01334	81 c1 7c 02 00
	00		 add	 ecx, 636		; 0000027cH
  0133a	e8 00 00 00 00	 call	 ?PlusSpecial@CItem@@QAEXPAHH@Z ; CItem::PlusSpecial

; 462  : 	lpObj->pInventory[4].PlusSpecial(&lpObj->m_CriticalDamage, 84);

  0133f	6a 54		 push	 84			; 00000054H
  01341	8b 45 f8	 mov	 eax, DWORD PTR _lpObj$[ebp]
  01344	05 bc 04 00 00	 add	 eax, 1212		; 000004bcH
  01349	50		 push	 eax
  0134a	8b 4d f8	 mov	 ecx, DWORD PTR _lpObj$[ebp]
  0134d	8b 89 24 0e 00
	00		 mov	 ecx, DWORD PTR [ecx+3620]
  01353	81 c1 50 03 00
	00		 add	 ecx, 848		; 00000350H
  01359	e8 00 00 00 00	 call	 ?PlusSpecial@CItem@@QAEXPAHH@Z ; CItem::PlusSpecial

; 463  : 	lpObj->pInventory[5].PlusSpecial(&lpObj->m_CriticalDamage, 84);

  0135e	6a 54		 push	 84			; 00000054H
  01360	8b 45 f8	 mov	 eax, DWORD PTR _lpObj$[ebp]
  01363	05 bc 04 00 00	 add	 eax, 1212		; 000004bcH
  01368	50		 push	 eax
  01369	8b 4d f8	 mov	 ecx, DWORD PTR _lpObj$[ebp]
  0136c	8b 89 24 0e 00
	00		 mov	 ecx, DWORD PTR [ecx+3620]
  01372	81 c1 24 04 00
	00		 add	 ecx, 1060		; 00000424H
  01378	e8 00 00 00 00	 call	 ?PlusSpecial@CItem@@QAEXPAHH@Z ; CItem::PlusSpecial

; 464  : 	lpObj->pInventory[6].PlusSpecial(&lpObj->m_CriticalDamage, 84);

  0137d	6a 54		 push	 84			; 00000054H
  0137f	8b 45 f8	 mov	 eax, DWORD PTR _lpObj$[ebp]
  01382	05 bc 04 00 00	 add	 eax, 1212		; 000004bcH
  01387	50		 push	 eax
  01388	8b 4d f8	 mov	 ecx, DWORD PTR _lpObj$[ebp]
  0138b	8b 89 24 0e 00
	00		 mov	 ecx, DWORD PTR [ecx+3620]
  01391	81 c1 f8 04 00
	00		 add	 ecx, 1272		; 000004f8H
  01397	e8 00 00 00 00	 call	 ?PlusSpecial@CItem@@QAEXPAHH@Z ; CItem::PlusSpecial

; 465  : 	lpObj->pInventory[7].PlusSpecial(&lpObj->m_CriticalDamage, 84);

  0139c	6a 54		 push	 84			; 00000054H
  0139e	8b 45 f8	 mov	 eax, DWORD PTR _lpObj$[ebp]
  013a1	05 bc 04 00 00	 add	 eax, 1212		; 000004bcH
  013a6	50		 push	 eax
  013a7	8b 4d f8	 mov	 ecx, DWORD PTR _lpObj$[ebp]
  013aa	8b 89 24 0e 00
	00		 mov	 ecx, DWORD PTR [ecx+3620]
  013b0	81 c1 cc 05 00
	00		 add	 ecx, 1484		; 000005ccH
  013b6	e8 00 00 00 00	 call	 ?PlusSpecial@CItem@@QAEXPAHH@Z ; CItem::PlusSpecial

; 466  : 
; 467  : 
; 468  : 
; 469  : 	lpObj->m_MagicDamageMin = Energy / 9;

  013bb	8b 45 e8	 mov	 eax, DWORD PTR _Energy$[ebp]
  013be	99		 cdq
  013bf	b9 09 00 00 00	 mov	 ecx, 9
  013c4	f7 f9		 idiv	 ecx
  013c6	8b 55 f8	 mov	 edx, DWORD PTR _lpObj$[ebp]
  013c9	89 82 68 04 00
	00		 mov	 DWORD PTR [edx+1128], eax

; 470  : 	lpObj->m_MagicDamageMax = Energy / 4;

  013cf	8b 45 e8	 mov	 eax, DWORD PTR _Energy$[ebp]
  013d2	99		 cdq
  013d3	83 e2 03	 and	 edx, 3
  013d6	03 c2		 add	 eax, edx
  013d8	c1 f8 02	 sar	 eax, 2
  013db	8b 4d f8	 mov	 ecx, DWORD PTR _lpObj$[ebp]
  013de	89 81 6c 04 00
	00		 mov	 DWORD PTR [ecx+1132], eax

; 471  : 
; 472  : 
; 473  : 
; 474  : 	if(lpObj->Class == CLASS_SUMMONER) //stronger!!!

  013e4	8b 45 f8	 mov	 eax, DWORD PTR _lpObj$[ebp]
  013e7	0f b7 88 b8 00
	00 00		 movzx	 ecx, WORD PTR [eax+184]
  013ee	83 f9 05	 cmp	 ecx, 5
  013f1	0f 85 4d 01 00
	00		 jne	 $LN213@gObjCalCha

; 475  : 	{
; 476  : 		//int MagicDamageMax = GetPrivateProfileInt("Summoner","MagicDamageMax",4,"..\\Data\\ExData\\Character.ini");
; 477  : 		//int MagicDamageMin = GetPrivateProfileInt("Summoner","MagicDamageMin",9,"..\\Data\\ExData\\Character.ini");
; 478  : 
; 479  : 		lpObj->m_MagicDamageMin = Energy / ExConfig.Character.SUMMagicDamageMin;	// 9

  013f7	8b 45 e8	 mov	 eax, DWORD PTR _Energy$[ebp]
  013fa	99		 cdq
  013fb	f7 3d 1c 02 00
	00		 idiv	 DWORD PTR ?ExConfig@@3VcExConfigs@@A+540
  01401	8b 4d f8	 mov	 ecx, DWORD PTR _lpObj$[ebp]
  01404	89 81 68 04 00
	00		 mov	 DWORD PTR [ecx+1128], eax

; 480  : 		lpObj->m_MagicDamageMax = Energy / ExConfig.Character.SUMMagicDamageMax;	// 4

  0140a	8b 45 e8	 mov	 eax, DWORD PTR _Energy$[ebp]
  0140d	99		 cdq
  0140e	f7 3d 18 02 00
	00		 idiv	 DWORD PTR ?ExConfig@@3VcExConfigs@@A+536
  01414	8b 4d f8	 mov	 ecx, DWORD PTR _lpObj$[ebp]
  01417	89 81 6c 04 00
	00		 mov	 DWORD PTR [ecx+1132], eax

; 481  : 
; 482  : 		lpObj->m_iSummonerBookSpellDamageMin = Energy / ExConfig.Character.SUMMagicDamageMin;	// Energy / 9

  0141d	8b 45 e8	 mov	 eax, DWORD PTR _Energy$[ebp]
  01420	99		 cdq
  01421	f7 3d 1c 02 00
	00		 idiv	 DWORD PTR ?ExConfig@@3VcExConfigs@@A+540
  01427	8b 4d f8	 mov	 ecx, DWORD PTR _lpObj$[ebp]
  0142a	89 81 a4 04 00
	00		 mov	 DWORD PTR [ecx+1188], eax

; 483  : 		lpObj->m_iSummonerBookSpellDamageMax = Energy / ExConfig.Character.SUMMagicDamageMax;	// (Energy / 4) + 0.015

  01430	8b 45 e8	 mov	 eax, DWORD PTR _Energy$[ebp]
  01433	99		 cdq
  01434	f7 3d 18 02 00
	00		 idiv	 DWORD PTR ?ExConfig@@3VcExConfigs@@A+536
  0143a	8b 4d f8	 mov	 ecx, DWORD PTR _lpObj$[ebp]
  0143d	89 81 a8 04 00
	00		 mov	 DWORD PTR [ecx+1192], eax

; 484  : 
; 485  : 		
; 486  : #ifdef CALCULATOR_MANAGER
; 487  : 		if (g_ExLicense.CheckUser(eExUB::ulasevich) || g_ExLicense.CheckUser(eExUB::ConflictNoCustom) || g_ExLicense.CheckUser(eExUB::ulasevich2))

  01443	6a 17		 push	 23			; 00000017H
  01445	b9 00 00 00 00	 mov	 ecx, OFFSET ?g_ExLicense@@3VCExLicense@@A ; g_ExLicense
  0144a	e8 00 00 00 00	 call	 ?CheckUser@CExLicense@@QAE_NH@Z ; CExLicense::CheckUser
  0144f	0f b6 c0	 movzx	 eax, al
  01452	85 c0		 test	 eax, eax
  01454	75 2a		 jne	 SHORT $LN211@gObjCalCha
  01456	6a 28		 push	 40			; 00000028H
  01458	b9 00 00 00 00	 mov	 ecx, OFFSET ?g_ExLicense@@3VCExLicense@@A ; g_ExLicense
  0145d	e8 00 00 00 00	 call	 ?CheckUser@CExLicense@@QAE_NH@Z ; CExLicense::CheckUser
  01462	0f b6 c0	 movzx	 eax, al
  01465	85 c0		 test	 eax, eax
  01467	75 17		 jne	 SHORT $LN211@gObjCalCha
  01469	6a 24		 push	 36			; 00000024H
  0146b	b9 00 00 00 00	 mov	 ecx, OFFSET ?g_ExLicense@@3VCExLicense@@A ; g_ExLicense
  01470	e8 00 00 00 00	 call	 ?CheckUser@CExLicense@@QAE_NH@Z ; CExLicense::CheckUser
  01475	0f b6 c0	 movzx	 eax, al
  01478	85 c0		 test	 eax, eax
  0147a	0f 84 84 00 00
	00		 je	 $LN212@gObjCalCha
$LN211@gObjCalCha:

; 488  : 		{
; 489  : 			lpObj->m_MagicDamageMin = (lpObj->m_MagicDamageMin * CalculatorManager.SUM_MinimumWizardryDamagePercent) / 100;

  01480	8b 45 f8	 mov	 eax, DWORD PTR _lpObj$[ebp]
  01483	8b 80 68 04 00
	00		 mov	 eax, DWORD PTR [eax+1128]
  01489	0f af 05 30 00
	00 00		 imul	 eax, DWORD PTR ?CalculatorManager@@3VcCalculatorManager@@A+48
  01490	99		 cdq
  01491	b9 64 00 00 00	 mov	 ecx, 100		; 00000064H
  01496	f7 f9		 idiv	 ecx
  01498	8b 55 f8	 mov	 edx, DWORD PTR _lpObj$[ebp]
  0149b	89 82 68 04 00
	00		 mov	 DWORD PTR [edx+1128], eax

; 490  : 			lpObj->m_MagicDamageMax = (lpObj->m_MagicDamageMax * CalculatorManager.SUM_MaximumWizardryDamagePercent) / 100;

  014a1	8b 45 f8	 mov	 eax, DWORD PTR _lpObj$[ebp]
  014a4	8b 80 6c 04 00
	00		 mov	 eax, DWORD PTR [eax+1132]
  014aa	0f af 05 34 00
	00 00		 imul	 eax, DWORD PTR ?CalculatorManager@@3VcCalculatorManager@@A+52
  014b1	99		 cdq
  014b2	b9 64 00 00 00	 mov	 ecx, 100		; 00000064H
  014b7	f7 f9		 idiv	 ecx
  014b9	8b 55 f8	 mov	 edx, DWORD PTR _lpObj$[ebp]
  014bc	89 82 6c 04 00
	00		 mov	 DWORD PTR [edx+1132], eax

; 491  : 
; 492  : 			lpObj->m_iSummonerBookSpellDamageMin = (lpObj->m_iSummonerBookSpellDamageMin * CalculatorManager.SUM_MinimumCurseDamagePercent) / 100;

  014c2	8b 45 f8	 mov	 eax, DWORD PTR _lpObj$[ebp]
  014c5	8b 80 a4 04 00
	00		 mov	 eax, DWORD PTR [eax+1188]
  014cb	0f af 05 38 00
	00 00		 imul	 eax, DWORD PTR ?CalculatorManager@@3VcCalculatorManager@@A+56
  014d2	99		 cdq
  014d3	b9 64 00 00 00	 mov	 ecx, 100		; 00000064H
  014d8	f7 f9		 idiv	 ecx
  014da	8b 55 f8	 mov	 edx, DWORD PTR _lpObj$[ebp]
  014dd	89 82 a4 04 00
	00		 mov	 DWORD PTR [edx+1188], eax

; 493  : 			lpObj->m_iSummonerBookSpellDamageMax = (lpObj->m_iSummonerBookSpellDamageMax * CalculatorManager.SUM_MaximumCurseDamagePercent) / 100;

  014e3	8b 45 f8	 mov	 eax, DWORD PTR _lpObj$[ebp]
  014e6	8b 80 a8 04 00
	00		 mov	 eax, DWORD PTR [eax+1192]
  014ec	0f af 05 3c 00
	00 00		 imul	 eax, DWORD PTR ?CalculatorManager@@3VcCalculatorManager@@A+60
  014f3	99		 cdq
  014f4	b9 64 00 00 00	 mov	 ecx, 100		; 00000064H
  014f9	f7 f9		 idiv	 ecx
  014fb	8b 55 f8	 mov	 edx, DWORD PTR _lpObj$[ebp]
  014fe	89 82 a8 04 00
	00		 mov	 DWORD PTR [edx+1192], eax
$LN212@gObjCalCha:

; 494  : 		}
; 495  : #endif
; 496  : 
; 497  : 		lpObj->m_MagicDamageMax += lpObj->m_MPSkillOpt.MpsMaxMagicDamage;

  01504	8b 45 f8	 mov	 eax, DWORD PTR _lpObj$[ebp]
  01507	db 80 6c 04 00
	00		 fild	 DWORD PTR [eax+1132]
  0150d	8b 4d f8	 mov	 ecx, DWORD PTR _lpObj$[ebp]
  01510	d8 81 64 27 00
	00		 fadd	 DWORD PTR [ecx+10084]
  01516	e8 00 00 00 00	 call	 __ftol2_sse
  0151b	8b 55 f8	 mov	 edx, DWORD PTR _lpObj$[ebp]
  0151e	89 82 6c 04 00
	00		 mov	 DWORD PTR [edx+1132], eax

; 498  : 		lpObj->m_MagicDamageMin += lpObj->m_MPSkillOpt.MpsMinMagicDamage;

  01524	8b 45 f8	 mov	 eax, DWORD PTR _lpObj$[ebp]
  01527	db 80 68 04 00
	00		 fild	 DWORD PTR [eax+1128]
  0152d	8b 4d f8	 mov	 ecx, DWORD PTR _lpObj$[ebp]
  01530	d8 81 68 27 00
	00		 fadd	 DWORD PTR [ecx+10088]
  01536	e8 00 00 00 00	 call	 __ftol2_sse
  0153b	8b 55 f8	 mov	 edx, DWORD PTR _lpObj$[ebp]
  0153e	89 82 68 04 00
	00		 mov	 DWORD PTR [edx+1128], eax
$LN213@gObjCalCha:

; 499  : 	}
; 500  : 
; 501  : 	if(lpObj->Class == CLASS_MAGUMSA) //season4 add-on

  01544	8b 45 f8	 mov	 eax, DWORD PTR _lpObj$[ebp]
  01547	0f b7 88 b8 00
	00 00		 movzx	 ecx, WORD PTR [eax+184]
  0154e	83 f9 03	 cmp	 ecx, 3
  01551	0f 85 e1 00 00
	00		 jne	 $LN210@gObjCalCha

; 502  : 	{
; 503  : 		//int MagicDamageMax = GetPrivateProfileInt("Magic_Gladiator","MagicDamageMax",4,"..\\Data\\ExData\\Character.ini");
; 504  : 		//int MagicDamageMin = GetPrivateProfileInt("Magic_Gladiator","MagicDamageMin",9,"..\\Data\\ExData\\Character.ini");
; 505  : 
; 506  : 		lpObj->m_MagicDamageMin = Energy / ExConfig.Character.MGMagicDamageMin;

  01557	8b 45 e8	 mov	 eax, DWORD PTR _Energy$[ebp]
  0155a	99		 cdq
  0155b	f7 3d 24 02 00
	00		 idiv	 DWORD PTR ?ExConfig@@3VcExConfigs@@A+548
  01561	8b 4d f8	 mov	 ecx, DWORD PTR _lpObj$[ebp]
  01564	89 81 68 04 00
	00		 mov	 DWORD PTR [ecx+1128], eax

; 507  : 		lpObj->m_MagicDamageMax = Energy / ExConfig.Character.MGMagicDamageMax;

  0156a	8b 45 e8	 mov	 eax, DWORD PTR _Energy$[ebp]
  0156d	99		 cdq
  0156e	f7 3d 20 02 00
	00		 idiv	 DWORD PTR ?ExConfig@@3VcExConfigs@@A+544
  01574	8b 4d f8	 mov	 ecx, DWORD PTR _lpObj$[ebp]
  01577	89 81 6c 04 00
	00		 mov	 DWORD PTR [ecx+1132], eax

; 508  : 
; 509  : 		
; 510  : #ifdef CALCULATOR_MANAGER
; 511  : 		if (g_ExLicense.CheckUser(eExUB::ulasevich) || g_ExLicense.CheckUser(eExUB::ConflictNoCustom) || g_ExLicense.CheckUser(eExUB::ulasevich2))

  0157d	6a 17		 push	 23			; 00000017H
  0157f	b9 00 00 00 00	 mov	 ecx, OFFSET ?g_ExLicense@@3VCExLicense@@A ; g_ExLicense
  01584	e8 00 00 00 00	 call	 ?CheckUser@CExLicense@@QAE_NH@Z ; CExLicense::CheckUser
  01589	0f b6 c0	 movzx	 eax, al
  0158c	85 c0		 test	 eax, eax
  0158e	75 26		 jne	 SHORT $LN208@gObjCalCha
  01590	6a 28		 push	 40			; 00000028H
  01592	b9 00 00 00 00	 mov	 ecx, OFFSET ?g_ExLicense@@3VCExLicense@@A ; g_ExLicense
  01597	e8 00 00 00 00	 call	 ?CheckUser@CExLicense@@QAE_NH@Z ; CExLicense::CheckUser
  0159c	0f b6 c0	 movzx	 eax, al
  0159f	85 c0		 test	 eax, eax
  015a1	75 13		 jne	 SHORT $LN208@gObjCalCha
  015a3	6a 24		 push	 36			; 00000024H
  015a5	b9 00 00 00 00	 mov	 ecx, OFFSET ?g_ExLicense@@3VCExLicense@@A ; g_ExLicense
  015aa	e8 00 00 00 00	 call	 ?CheckUser@CExLicense@@QAE_NH@Z ; CExLicense::CheckUser
  015af	0f b6 c0	 movzx	 eax, al
  015b2	85 c0		 test	 eax, eax
  015b4	74 42		 je	 SHORT $LN209@gObjCalCha
$LN208@gObjCalCha:

; 512  : 		{
; 513  : 			lpObj->m_MagicDamageMin = (lpObj->m_MagicDamageMin * CalculatorManager.MG_MinWizDamagePercent) / 100;

  015b6	8b 45 f8	 mov	 eax, DWORD PTR _lpObj$[ebp]
  015b9	8b 80 68 04 00
	00		 mov	 eax, DWORD PTR [eax+1128]
  015bf	0f af 05 20 00
	00 00		 imul	 eax, DWORD PTR ?CalculatorManager@@3VcCalculatorManager@@A+32
  015c6	99		 cdq
  015c7	b9 64 00 00 00	 mov	 ecx, 100		; 00000064H
  015cc	f7 f9		 idiv	 ecx
  015ce	8b 55 f8	 mov	 edx, DWORD PTR _lpObj$[ebp]
  015d1	89 82 68 04 00
	00		 mov	 DWORD PTR [edx+1128], eax

; 514  : 			lpObj->m_MagicDamageMax = (lpObj->m_MagicDamageMax * CalculatorManager.MG_MaxWizDamagePercent) / 100;

  015d7	8b 45 f8	 mov	 eax, DWORD PTR _lpObj$[ebp]
  015da	8b 80 6c 04 00
	00		 mov	 eax, DWORD PTR [eax+1132]
  015e0	0f af 05 24 00
	00 00		 imul	 eax, DWORD PTR ?CalculatorManager@@3VcCalculatorManager@@A+36
  015e7	99		 cdq
  015e8	b9 64 00 00 00	 mov	 ecx, 100		; 00000064H
  015ed	f7 f9		 idiv	 ecx
  015ef	8b 55 f8	 mov	 edx, DWORD PTR _lpObj$[ebp]
  015f2	89 82 6c 04 00
	00		 mov	 DWORD PTR [edx+1132], eax
$LN209@gObjCalCha:

; 515  : 
; 516  : 		}
; 517  : #endif
; 518  : 
; 519  : 		lpObj->m_MagicDamageMax += lpObj->m_MPSkillOpt.MpsMagicMastery;

  015f8	8b 45 f8	 mov	 eax, DWORD PTR _lpObj$[ebp]
  015fb	db 80 6c 04 00
	00		 fild	 DWORD PTR [eax+1132]
  01601	8b 4d f8	 mov	 ecx, DWORD PTR _lpObj$[ebp]
  01604	d8 81 90 26 00
	00		 fadd	 DWORD PTR [ecx+9872]
  0160a	e8 00 00 00 00	 call	 __ftol2_sse
  0160f	8b 55 f8	 mov	 edx, DWORD PTR _lpObj$[ebp]
  01612	89 82 6c 04 00
	00		 mov	 DWORD PTR [edx+1132], eax

; 520  : 		lpObj->m_MagicDamageMin += lpObj->m_MPSkillOpt.MpsMagicMastery;

  01618	8b 45 f8	 mov	 eax, DWORD PTR _lpObj$[ebp]
  0161b	db 80 68 04 00
	00		 fild	 DWORD PTR [eax+1128]
  01621	8b 4d f8	 mov	 ecx, DWORD PTR _lpObj$[ebp]
  01624	d8 81 90 26 00
	00		 fadd	 DWORD PTR [ecx+9872]
  0162a	e8 00 00 00 00	 call	 __ftol2_sse
  0162f	8b 55 f8	 mov	 edx, DWORD PTR _lpObj$[ebp]
  01632	89 82 68 04 00
	00		 mov	 DWORD PTR [edx+1128], eax
$LN210@gObjCalCha:

; 521  : 	}
; 522  : 
; 523  : 	if(lpObj->Class == CLASS_WIZARD) //season4 add-on

  01638	8b 45 f8	 mov	 eax, DWORD PTR _lpObj$[ebp]
  0163b	0f b7 88 b8 00
	00 00		 movzx	 ecx, WORD PTR [eax+184]
  01642	85 c9		 test	 ecx, ecx
  01644	0f 85 21 01 00
	00		 jne	 $LN207@gObjCalCha

; 524  : 	{
; 525  : 		//int MagicDamageMax = GetPrivateProfileInt("Dark_Wizard","MagicDamageMax",4,"..\\Data\\ExData\\Character.ini");
; 526  : 		//int MagicDamageMin = GetPrivateProfileInt("Dark_Wizard","MagicDamageMin",9,"..\\Data\\ExData\\Character.ini");
; 527  : 
; 528  : 		lpObj->m_MagicDamageMin = Energy / ExConfig.Character.DWMagicDamageMin;

  0164a	8b 45 e8	 mov	 eax, DWORD PTR _Energy$[ebp]
  0164d	99		 cdq
  0164e	f7 3d 2c 02 00
	00		 idiv	 DWORD PTR ?ExConfig@@3VcExConfigs@@A+556
  01654	8b 4d f8	 mov	 ecx, DWORD PTR _lpObj$[ebp]
  01657	89 81 68 04 00
	00		 mov	 DWORD PTR [ecx+1128], eax

; 529  : 		lpObj->m_MagicDamageMax = Energy / ExConfig.Character.DWMagicDamageMax;

  0165d	8b 45 e8	 mov	 eax, DWORD PTR _Energy$[ebp]
  01660	99		 cdq
  01661	f7 3d 28 02 00
	00		 idiv	 DWORD PTR ?ExConfig@@3VcExConfigs@@A+552
  01667	8b 4d f8	 mov	 ecx, DWORD PTR _lpObj$[ebp]
  0166a	89 81 6c 04 00
	00		 mov	 DWORD PTR [ecx+1132], eax

; 530  : 
; 531  : 
; 532  : #ifdef CALCULATOR_MANAGER
; 533  : 		if (g_ExLicense.CheckUser(eExUB::ulasevich) || g_ExLicense.CheckUser(eExUB::ConflictNoCustom) || g_ExLicense.CheckUser(eExUB::ulasevich2))

  01670	6a 17		 push	 23			; 00000017H
  01672	b9 00 00 00 00	 mov	 ecx, OFFSET ?g_ExLicense@@3VCExLicense@@A ; g_ExLicense
  01677	e8 00 00 00 00	 call	 ?CheckUser@CExLicense@@QAE_NH@Z ; CExLicense::CheckUser
  0167c	0f b6 c0	 movzx	 eax, al
  0167f	85 c0		 test	 eax, eax
  01681	75 26		 jne	 SHORT $LN205@gObjCalCha
  01683	6a 28		 push	 40			; 00000028H
  01685	b9 00 00 00 00	 mov	 ecx, OFFSET ?g_ExLicense@@3VCExLicense@@A ; g_ExLicense
  0168a	e8 00 00 00 00	 call	 ?CheckUser@CExLicense@@QAE_NH@Z ; CExLicense::CheckUser
  0168f	0f b6 c0	 movzx	 eax, al
  01692	85 c0		 test	 eax, eax
  01694	75 13		 jne	 SHORT $LN205@gObjCalCha
  01696	6a 24		 push	 36			; 00000024H
  01698	b9 00 00 00 00	 mov	 ecx, OFFSET ?g_ExLicense@@3VCExLicense@@A ; g_ExLicense
  0169d	e8 00 00 00 00	 call	 ?CheckUser@CExLicense@@QAE_NH@Z ; CExLicense::CheckUser
  016a2	0f b6 c0	 movzx	 eax, al
  016a5	85 c0		 test	 eax, eax
  016a7	74 42		 je	 SHORT $LN206@gObjCalCha
$LN205@gObjCalCha:

; 534  : 		{
; 535  : 			lpObj->m_MagicDamageMin = (lpObj->m_MagicDamageMin * CalculatorManager.DW_MinWizDamagePercent) / 100;

  016a9	8b 45 f8	 mov	 eax, DWORD PTR _lpObj$[ebp]
  016ac	8b 80 68 04 00
	00		 mov	 eax, DWORD PTR [eax+1128]
  016b2	0f af 05 00 00
	00 00		 imul	 eax, DWORD PTR ?CalculatorManager@@3VcCalculatorManager@@A
  016b9	99		 cdq
  016ba	b9 64 00 00 00	 mov	 ecx, 100		; 00000064H
  016bf	f7 f9		 idiv	 ecx
  016c1	8b 55 f8	 mov	 edx, DWORD PTR _lpObj$[ebp]
  016c4	89 82 68 04 00
	00		 mov	 DWORD PTR [edx+1128], eax

; 536  : 			lpObj->m_MagicDamageMax = (lpObj->m_MagicDamageMax * CalculatorManager.DW_MaxWizDamagePercent) / 100;

  016ca	8b 45 f8	 mov	 eax, DWORD PTR _lpObj$[ebp]
  016cd	8b 80 6c 04 00
	00		 mov	 eax, DWORD PTR [eax+1132]
  016d3	0f af 05 04 00
	00 00		 imul	 eax, DWORD PTR ?CalculatorManager@@3VcCalculatorManager@@A+4
  016da	99		 cdq
  016db	b9 64 00 00 00	 mov	 ecx, 100		; 00000064H
  016e0	f7 f9		 idiv	 ecx
  016e2	8b 55 f8	 mov	 edx, DWORD PTR _lpObj$[ebp]
  016e5	89 82 6c 04 00
	00		 mov	 DWORD PTR [edx+1132], eax
$LN206@gObjCalCha:

; 537  : 		}
; 538  : #endif
; 539  : 
; 540  : 		lpObj->m_MagicDamageMax += lpObj->m_MPSkillOpt.MpsMaxMagicDamage;

  016eb	8b 45 f8	 mov	 eax, DWORD PTR _lpObj$[ebp]
  016ee	db 80 6c 04 00
	00		 fild	 DWORD PTR [eax+1132]
  016f4	8b 4d f8	 mov	 ecx, DWORD PTR _lpObj$[ebp]
  016f7	d8 81 64 27 00
	00		 fadd	 DWORD PTR [ecx+10084]
  016fd	e8 00 00 00 00	 call	 __ftol2_sse
  01702	8b 55 f8	 mov	 edx, DWORD PTR _lpObj$[ebp]
  01705	89 82 6c 04 00
	00		 mov	 DWORD PTR [edx+1132], eax

; 541  : 		lpObj->m_MagicDamageMin += lpObj->m_MPSkillOpt.MpsMinMagicDamage;

  0170b	8b 45 f8	 mov	 eax, DWORD PTR _lpObj$[ebp]
  0170e	db 80 68 04 00
	00		 fild	 DWORD PTR [eax+1128]
  01714	8b 4d f8	 mov	 ecx, DWORD PTR _lpObj$[ebp]
  01717	d8 81 68 27 00
	00		 fadd	 DWORD PTR [ecx+10088]
  0171d	e8 00 00 00 00	 call	 __ftol2_sse
  01722	8b 55 f8	 mov	 edx, DWORD PTR _lpObj$[ebp]
  01725	89 82 68 04 00
	00		 mov	 DWORD PTR [edx+1128], eax

; 542  : 		lpObj->m_MagicDamageMax += lpObj->m_MPSkillOpt.MpsMagicMastery;

  0172b	8b 45 f8	 mov	 eax, DWORD PTR _lpObj$[ebp]
  0172e	db 80 6c 04 00
	00		 fild	 DWORD PTR [eax+1132]
  01734	8b 4d f8	 mov	 ecx, DWORD PTR _lpObj$[ebp]
  01737	d8 81 90 26 00
	00		 fadd	 DWORD PTR [ecx+9872]
  0173d	e8 00 00 00 00	 call	 __ftol2_sse
  01742	8b 55 f8	 mov	 edx, DWORD PTR _lpObj$[ebp]
  01745	89 82 6c 04 00
	00		 mov	 DWORD PTR [edx+1132], eax

; 543  : 		lpObj->m_MagicDamageMin += lpObj->m_MPSkillOpt.MpsMagicMastery;

  0174b	8b 45 f8	 mov	 eax, DWORD PTR _lpObj$[ebp]
  0174e	db 80 68 04 00
	00		 fild	 DWORD PTR [eax+1128]
  01754	8b 4d f8	 mov	 ecx, DWORD PTR _lpObj$[ebp]
  01757	d8 81 90 26 00
	00		 fadd	 DWORD PTR [ecx+9872]
  0175d	e8 00 00 00 00	 call	 __ftol2_sse
  01762	8b 55 f8	 mov	 edx, DWORD PTR _lpObj$[ebp]
  01765	89 82 68 04 00
	00		 mov	 DWORD PTR [edx+1128], eax
$LN207@gObjCalCha:

; 544  : 	}
; 545  : 
; 546  : 	lpObj->pInventory[7].PlusSpecial(&lpObj->m_MagicDamageMin, 81);

  0176b	6a 51		 push	 81			; 00000051H
  0176d	8b 45 f8	 mov	 eax, DWORD PTR _lpObj$[ebp]
  01770	05 68 04 00 00	 add	 eax, 1128		; 00000468H
  01775	50		 push	 eax
  01776	8b 4d f8	 mov	 ecx, DWORD PTR _lpObj$[ebp]
  01779	8b 89 24 0e 00
	00		 mov	 ecx, DWORD PTR [ecx+3620]
  0177f	81 c1 cc 05 00
	00		 add	 ecx, 1484		; 000005ccH
  01785	e8 00 00 00 00	 call	 ?PlusSpecial@CItem@@QAEXPAHH@Z ; CItem::PlusSpecial

; 547  : 	lpObj->pInventory[7].PlusSpecial(&lpObj->m_MagicDamageMax, 81);

  0178a	6a 51		 push	 81			; 00000051H
  0178c	8b 45 f8	 mov	 eax, DWORD PTR _lpObj$[ebp]
  0178f	05 6c 04 00 00	 add	 eax, 1132		; 0000046cH
  01794	50		 push	 eax
  01795	8b 4d f8	 mov	 ecx, DWORD PTR _lpObj$[ebp]
  01798	8b 89 24 0e 00
	00		 mov	 ecx, DWORD PTR [ecx+3620]
  0179e	81 c1 cc 05 00
	00		 add	 ecx, 1484		; 000005ccH
  017a4	e8 00 00 00 00	 call	 ?PlusSpecial@CItem@@QAEXPAHH@Z ; CItem::PlusSpecial

; 548  : 
; 549  : 	lpObj->pInventory[7].PlusSpecial(&lpObj->m_iSummonerBookSpellDamageMin, 113); //summoner wings

  017a9	6a 71		 push	 113			; 00000071H
  017ab	8b 45 f8	 mov	 eax, DWORD PTR _lpObj$[ebp]
  017ae	05 a4 04 00 00	 add	 eax, 1188		; 000004a4H
  017b3	50		 push	 eax
  017b4	8b 4d f8	 mov	 ecx, DWORD PTR _lpObj$[ebp]
  017b7	8b 89 24 0e 00
	00		 mov	 ecx, DWORD PTR [ecx+3620]
  017bd	81 c1 cc 05 00
	00		 add	 ecx, 1484		; 000005ccH
  017c3	e8 00 00 00 00	 call	 ?PlusSpecial@CItem@@QAEXPAHH@Z ; CItem::PlusSpecial

; 550  : 	lpObj->pInventory[7].PlusSpecial(&lpObj->m_iSummonerBookSpellDamageMax, 113); //summoner wings

  017c8	6a 71		 push	 113			; 00000071H
  017ca	8b 45 f8	 mov	 eax, DWORD PTR _lpObj$[ebp]
  017cd	05 a8 04 00 00	 add	 eax, 1192		; 000004a8H
  017d2	50		 push	 eax
  017d3	8b 4d f8	 mov	 ecx, DWORD PTR _lpObj$[ebp]
  017d6	8b 89 24 0e 00
	00		 mov	 ecx, DWORD PTR [ecx+3620]
  017dc	81 c1 cc 05 00
	00		 add	 ecx, 1484		; 000005ccH
  017e2	e8 00 00 00 00	 call	 ?PlusSpecial@CItem@@QAEXPAHH@Z ; CItem::PlusSpecial

; 551  : 
; 552  : 	if ( Right->m_Type != -1 )

  017e7	8b 45 e4	 mov	 eax, DWORD PTR _Right$[ebp]
  017ea	0f bf 48 06	 movsx	 ecx, WORD PTR [eax+6]
  017ee	83 f9 ff	 cmp	 ecx, -1
  017f1	0f 84 c0 00 00
	00		 je	 $LN201@gObjCalCha

; 553  : 	{
; 554  : 		if ( lpObj->pInventory[0].m_Type == ITEMGET(0,31) ||
; 555  : 			 lpObj->pInventory[0].m_Type == ITEMGET(0,21) ||
; 556  : 			 lpObj->pInventory[0].m_Type == ITEMGET(0,23) ||
; 557  : 			 lpObj->pInventory[0].m_Type == ITEMGET(0,25) ||
; 558  : 			 lpObj->pInventory[0].m_Type == ITEMGET(0,28)) //season4 add-on 

  017f7	8b 45 f8	 mov	 eax, DWORD PTR _lpObj$[ebp]
  017fa	8b 88 24 0e 00
	00		 mov	 ecx, DWORD PTR [eax+3620]
  01800	0f bf 51 06	 movsx	 edx, WORD PTR [ecx+6]
  01804	83 fa 1f	 cmp	 edx, 31			; 0000001fH
  01807	74 48		 je	 SHORT $LN202@gObjCalCha
  01809	8b 45 f8	 mov	 eax, DWORD PTR _lpObj$[ebp]
  0180c	8b 88 24 0e 00
	00		 mov	 ecx, DWORD PTR [eax+3620]
  01812	0f bf 51 06	 movsx	 edx, WORD PTR [ecx+6]
  01816	83 fa 15	 cmp	 edx, 21			; 00000015H
  01819	74 36		 je	 SHORT $LN202@gObjCalCha
  0181b	8b 45 f8	 mov	 eax, DWORD PTR _lpObj$[ebp]
  0181e	8b 88 24 0e 00
	00		 mov	 ecx, DWORD PTR [eax+3620]
  01824	0f bf 51 06	 movsx	 edx, WORD PTR [ecx+6]
  01828	83 fa 17	 cmp	 edx, 23			; 00000017H
  0182b	74 24		 je	 SHORT $LN202@gObjCalCha
  0182d	8b 45 f8	 mov	 eax, DWORD PTR _lpObj$[ebp]
  01830	8b 88 24 0e 00
	00		 mov	 ecx, DWORD PTR [eax+3620]
  01836	0f bf 51 06	 movsx	 edx, WORD PTR [ecx+6]
  0183a	83 fa 19	 cmp	 edx, 25			; 00000019H
  0183d	74 12		 je	 SHORT $LN202@gObjCalCha
  0183f	8b 45 f8	 mov	 eax, DWORD PTR _lpObj$[ebp]
  01842	8b 88 24 0e 00
	00		 mov	 ecx, DWORD PTR [eax+3620]
  01848	0f bf 51 06	 movsx	 edx, WORD PTR [ecx+6]
  0184c	83 fa 1c	 cmp	 edx, 28			; 0000001cH
  0184f	75 34		 jne	 SHORT $LN203@gObjCalCha
$LN202@gObjCalCha:

; 559  : 		{
; 560  : 			lpObj->pInventory[0].PlusSpecial(&lpObj->m_MagicDamageMin, 80);

  01851	6a 50		 push	 80			; 00000050H
  01853	8b 45 f8	 mov	 eax, DWORD PTR _lpObj$[ebp]
  01856	05 68 04 00 00	 add	 eax, 1128		; 00000468H
  0185b	50		 push	 eax
  0185c	8b 4d f8	 mov	 ecx, DWORD PTR _lpObj$[ebp]
  0185f	8b 89 24 0e 00
	00		 mov	 ecx, DWORD PTR [ecx+3620]
  01865	e8 00 00 00 00	 call	 ?PlusSpecial@CItem@@QAEXPAHH@Z ; CItem::PlusSpecial

; 561  : 			lpObj->pInventory[0].PlusSpecial(&lpObj->m_MagicDamageMax, 80);

  0186a	6a 50		 push	 80			; 00000050H
  0186c	8b 45 f8	 mov	 eax, DWORD PTR _lpObj$[ebp]
  0186f	05 6c 04 00 00	 add	 eax, 1132		; 0000046cH
  01874	50		 push	 eax
  01875	8b 4d f8	 mov	 ecx, DWORD PTR _lpObj$[ebp]
  01878	8b 89 24 0e 00
	00		 mov	 ecx, DWORD PTR [ecx+3620]
  0187e	e8 00 00 00 00	 call	 ?PlusSpecial@CItem@@QAEXPAHH@Z ; CItem::PlusSpecial

; 562  : 		}
; 563  : 		else

  01883	eb 32		 jmp	 SHORT $LN201@gObjCalCha
$LN203@gObjCalCha:

; 564  : 		{
; 565  : 			lpObj->pInventory[0].PlusSpecial(&lpObj->m_MagicDamageMin, 81);

  01885	6a 51		 push	 81			; 00000051H
  01887	8b 45 f8	 mov	 eax, DWORD PTR _lpObj$[ebp]
  0188a	05 68 04 00 00	 add	 eax, 1128		; 00000468H
  0188f	50		 push	 eax
  01890	8b 4d f8	 mov	 ecx, DWORD PTR _lpObj$[ebp]
  01893	8b 89 24 0e 00
	00		 mov	 ecx, DWORD PTR [ecx+3620]
  01899	e8 00 00 00 00	 call	 ?PlusSpecial@CItem@@QAEXPAHH@Z ; CItem::PlusSpecial

; 566  : 			lpObj->pInventory[0].PlusSpecial(&lpObj->m_MagicDamageMax, 81);

  0189e	6a 51		 push	 81			; 00000051H
  018a0	8b 45 f8	 mov	 eax, DWORD PTR _lpObj$[ebp]
  018a3	05 6c 04 00 00	 add	 eax, 1132		; 0000046cH
  018a8	50		 push	 eax
  018a9	8b 4d f8	 mov	 ecx, DWORD PTR _lpObj$[ebp]
  018ac	8b 89 24 0e 00
	00		 mov	 ecx, DWORD PTR [ecx+3620]
  018b2	e8 00 00 00 00	 call	 ?PlusSpecial@CItem@@QAEXPAHH@Z ; CItem::PlusSpecial
$LN201@gObjCalCha:

; 567  : 		}
; 568  : 	}
; 569  : 
; 570  : 	if ( Left->m_Type != -1 ) //season3 add-on

  018b7	8b 45 e0	 mov	 eax, DWORD PTR _Left$[ebp]
  018ba	0f bf 48 06	 movsx	 ecx, WORD PTR [eax+6]
  018be	83 f9 ff	 cmp	 ecx, -1
  018c1	74 3e		 je	 SHORT $LN200@gObjCalCha

; 571  : 	{
; 572  : 		lpObj->pInventory[1].PlusSpecial(&lpObj->m_iSummonerBookSpellDamageMin, 113); //summoner book

  018c3	6a 71		 push	 113			; 00000071H
  018c5	8b 45 f8	 mov	 eax, DWORD PTR _lpObj$[ebp]
  018c8	05 a4 04 00 00	 add	 eax, 1188		; 000004a4H
  018cd	50		 push	 eax
  018ce	8b 4d f8	 mov	 ecx, DWORD PTR _lpObj$[ebp]
  018d1	8b 89 24 0e 00
	00		 mov	 ecx, DWORD PTR [ecx+3620]
  018d7	81 c1 d4 00 00
	00		 add	 ecx, 212		; 000000d4H
  018dd	e8 00 00 00 00	 call	 ?PlusSpecial@CItem@@QAEXPAHH@Z ; CItem::PlusSpecial

; 573  : 		lpObj->pInventory[1].PlusSpecial(&lpObj->m_iSummonerBookSpellDamageMax, 113); //summoner book

  018e2	6a 71		 push	 113			; 00000071H
  018e4	8b 45 f8	 mov	 eax, DWORD PTR _lpObj$[ebp]
  018e7	05 a8 04 00 00	 add	 eax, 1192		; 000004a8H
  018ec	50		 push	 eax
  018ed	8b 4d f8	 mov	 ecx, DWORD PTR _lpObj$[ebp]
  018f0	8b 89 24 0e 00
	00		 mov	 ecx, DWORD PTR [ecx+3620]
  018f6	81 c1 d4 00 00
	00		 add	 ecx, 212		; 000000d4H
  018fc	e8 00 00 00 00	 call	 ?PlusSpecial@CItem@@QAEXPAHH@Z ; CItem::PlusSpecial
$LN200@gObjCalCha:

; 574  : 	}
; 575  : 
; 576  : 	lpObj->m_AttackRating = (Strength + Dexterity) / 2;

  01901	8b 45 f4	 mov	 eax, DWORD PTR _Strength$[ebp]
  01904	03 45 f0	 add	 eax, DWORD PTR _Dexterity$[ebp]
  01907	99		 cdq
  01908	2b c2		 sub	 eax, edx
  0190a	d1 f8		 sar	 eax, 1
  0190c	8b 4d f8	 mov	 ecx, DWORD PTR _lpObj$[ebp]
  0190f	89 81 88 04 00
	00		 mov	 DWORD PTR [ecx+1160], eax

; 577  : 	lpObj->m_AttackRating += lpObj->pInventory[5].ItemDefense();

  01915	8b 45 f8	 mov	 eax, DWORD PTR _lpObj$[ebp]
  01918	8b 88 24 0e 00
	00		 mov	 ecx, DWORD PTR [eax+3620]
  0191e	81 c1 24 04 00
	00		 add	 ecx, 1060		; 00000424H
  01924	e8 00 00 00 00	 call	 ?ItemDefense@CItem@@QAEHXZ ; CItem::ItemDefense
  01929	8b 4d f8	 mov	 ecx, DWORD PTR _lpObj$[ebp]
  0192c	03 81 88 04 00
	00		 add	 eax, DWORD PTR [ecx+1160]
  01932	8b 55 f8	 mov	 edx, DWORD PTR _lpObj$[ebp]
  01935	89 82 88 04 00
	00		 mov	 DWORD PTR [edx+1160], eax

; 578  : 
; 579  : 	if ( lpObj->Class == CLASS_ELF )

  0193b	8b 45 f8	 mov	 eax, DWORD PTR _lpObj$[ebp]
  0193e	0f b7 88 b8 00
	00 00		 movzx	 ecx, WORD PTR [eax+184]
  01945	83 f9 02	 cmp	 ecx, 2
  01948	75 2d		 jne	 SHORT $LN199@gObjCalCha

; 580  : 	{
; 581  : 		lpObj->m_AttackSpeed = Dexterity / 50;

  0194a	8b 45 f0	 mov	 eax, DWORD PTR _Dexterity$[ebp]
  0194d	99		 cdq
  0194e	b9 32 00 00 00	 mov	 ecx, 50			; 00000032H
  01953	f7 f9		 idiv	 ecx
  01955	8b 55 f8	 mov	 edx, DWORD PTR _lpObj$[ebp]
  01958	89 82 8c 04 00
	00		 mov	 DWORD PTR [edx+1164], eax

; 582  : 		lpObj->m_MagicSpeed = Dexterity / 50;

  0195e	8b 45 f0	 mov	 eax, DWORD PTR _Dexterity$[ebp]
  01961	99		 cdq
  01962	b9 32 00 00 00	 mov	 ecx, 50			; 00000032H
  01967	f7 f9		 idiv	 ecx
  01969	8b 55 f8	 mov	 edx, DWORD PTR _lpObj$[ebp]
  0196c	89 82 90 04 00
	00		 mov	 DWORD PTR [edx+1168], eax
  01972	e9 21 01 00 00	 jmp	 $LN189@gObjCalCha
$LN199@gObjCalCha:

; 583  : 	}
; 584  : 	else if ( lpObj->Class == CLASS_KNIGHT || lpObj->Class == CLASS_MAGUMSA)

  01977	8b 45 f8	 mov	 eax, DWORD PTR _lpObj$[ebp]
  0197a	0f b7 88 b8 00
	00 00		 movzx	 ecx, WORD PTR [eax+184]
  01981	83 f9 01	 cmp	 ecx, 1
  01984	74 0f		 je	 SHORT $LN196@gObjCalCha
  01986	8b 45 f8	 mov	 eax, DWORD PTR _lpObj$[ebp]
  01989	0f b7 88 b8 00
	00 00		 movzx	 ecx, WORD PTR [eax+184]
  01990	83 f9 03	 cmp	 ecx, 3
  01993	75 2d		 jne	 SHORT $LN197@gObjCalCha
$LN196@gObjCalCha:

; 585  : 	{
; 586  : 		lpObj->m_AttackSpeed = Dexterity / 15;

  01995	8b 45 f0	 mov	 eax, DWORD PTR _Dexterity$[ebp]
  01998	99		 cdq
  01999	b9 0f 00 00 00	 mov	 ecx, 15			; 0000000fH
  0199e	f7 f9		 idiv	 ecx
  019a0	8b 55 f8	 mov	 edx, DWORD PTR _lpObj$[ebp]
  019a3	89 82 8c 04 00
	00		 mov	 DWORD PTR [edx+1164], eax

; 587  : 		lpObj->m_MagicSpeed = Dexterity / 20;

  019a9	8b 45 f0	 mov	 eax, DWORD PTR _Dexterity$[ebp]
  019ac	99		 cdq
  019ad	b9 14 00 00 00	 mov	 ecx, 20			; 00000014H
  019b2	f7 f9		 idiv	 ecx
  019b4	8b 55 f8	 mov	 edx, DWORD PTR _lpObj$[ebp]
  019b7	89 82 90 04 00
	00		 mov	 DWORD PTR [edx+1168], eax
  019bd	e9 d6 00 00 00	 jmp	 $LN189@gObjCalCha
$LN197@gObjCalCha:

; 588  : 	}
; 589  : 	else if ( lpObj->Class == CLASS_DARKLORD )

  019c2	8b 45 f8	 mov	 eax, DWORD PTR _lpObj$[ebp]
  019c5	0f b7 88 b8 00
	00 00		 movzx	 ecx, WORD PTR [eax+184]
  019cc	83 f9 04	 cmp	 ecx, 4
  019cf	75 2d		 jne	 SHORT $LN194@gObjCalCha

; 590  : 	{
; 591  : 		lpObj->m_AttackSpeed = Dexterity / 10;

  019d1	8b 45 f0	 mov	 eax, DWORD PTR _Dexterity$[ebp]
  019d4	99		 cdq
  019d5	b9 0a 00 00 00	 mov	 ecx, 10			; 0000000aH
  019da	f7 f9		 idiv	 ecx
  019dc	8b 55 f8	 mov	 edx, DWORD PTR _lpObj$[ebp]
  019df	89 82 8c 04 00
	00		 mov	 DWORD PTR [edx+1164], eax

; 592  : 		lpObj->m_MagicSpeed = Dexterity / 10;

  019e5	8b 45 f0	 mov	 eax, DWORD PTR _Dexterity$[ebp]
  019e8	99		 cdq
  019e9	b9 0a 00 00 00	 mov	 ecx, 10			; 0000000aH
  019ee	f7 f9		 idiv	 ecx
  019f0	8b 55 f8	 mov	 edx, DWORD PTR _lpObj$[ebp]
  019f3	89 82 90 04 00
	00		 mov	 DWORD PTR [edx+1168], eax
  019f9	e9 9a 00 00 00	 jmp	 $LN189@gObjCalCha
$LN194@gObjCalCha:

; 593  : 	}
; 594  : 	else if ( lpObj->Class == CLASS_SUMMONER ) //strong!

  019fe	8b 45 f8	 mov	 eax, DWORD PTR _lpObj$[ebp]
  01a01	0f b7 88 b8 00
	00 00		 movzx	 ecx, WORD PTR [eax+184]
  01a08	83 f9 05	 cmp	 ecx, 5
  01a0b	75 2a		 jne	 SHORT $LN192@gObjCalCha

; 595  : 	{
; 596  : 		lpObj->m_AttackSpeed = Dexterity / 20;

  01a0d	8b 45 f0	 mov	 eax, DWORD PTR _Dexterity$[ebp]
  01a10	99		 cdq
  01a11	b9 14 00 00 00	 mov	 ecx, 20			; 00000014H
  01a16	f7 f9		 idiv	 ecx
  01a18	8b 55 f8	 mov	 edx, DWORD PTR _lpObj$[ebp]
  01a1b	89 82 8c 04 00
	00		 mov	 DWORD PTR [edx+1164], eax

; 597  : 		lpObj->m_MagicSpeed = Dexterity / 20;

  01a21	8b 45 f0	 mov	 eax, DWORD PTR _Dexterity$[ebp]
  01a24	99		 cdq
  01a25	b9 14 00 00 00	 mov	 ecx, 20			; 00000014H
  01a2a	f7 f9		 idiv	 ecx
  01a2c	8b 55 f8	 mov	 edx, DWORD PTR _lpObj$[ebp]
  01a2f	89 82 90 04 00
	00		 mov	 DWORD PTR [edx+1168], eax
  01a35	eb 61		 jmp	 SHORT $LN189@gObjCalCha
$LN192@gObjCalCha:

; 598  : 	}
; 599  : #ifdef MONK
; 600  : 	else if( lpObj->Class == CLASS_MONK )

  01a37	8b 45 f8	 mov	 eax, DWORD PTR _lpObj$[ebp]
  01a3a	0f b7 88 b8 00
	00 00		 movzx	 ecx, WORD PTR [eax+184]
  01a41	83 f9 06	 cmp	 ecx, 6
  01a44	75 2a		 jne	 SHORT $LN190@gObjCalCha

; 601  : 	{
; 602  : 		lpObj->m_AttackSpeed	= Dexterity / 9;

  01a46	8b 45 f0	 mov	 eax, DWORD PTR _Dexterity$[ebp]
  01a49	99		 cdq
  01a4a	b9 09 00 00 00	 mov	 ecx, 9
  01a4f	f7 f9		 idiv	 ecx
  01a51	8b 55 f8	 mov	 edx, DWORD PTR _lpObj$[ebp]
  01a54	89 82 8c 04 00
	00		 mov	 DWORD PTR [edx+1164], eax

; 603  : 		lpObj->m_MagicSpeed		= Dexterity / 9;

  01a5a	8b 45 f0	 mov	 eax, DWORD PTR _Dexterity$[ebp]
  01a5d	99		 cdq
  01a5e	b9 09 00 00 00	 mov	 ecx, 9
  01a63	f7 f9		 idiv	 ecx
  01a65	8b 55 f8	 mov	 edx, DWORD PTR _lpObj$[ebp]
  01a68	89 82 90 04 00
	00		 mov	 DWORD PTR [edx+1168], eax

; 604  : 	}
; 605  : #endif
; 606  : 	else

  01a6e	eb 28		 jmp	 SHORT $LN189@gObjCalCha
$LN190@gObjCalCha:

; 607  : 	{
; 608  : 		lpObj->m_AttackSpeed = Dexterity / 20;

  01a70	8b 45 f0	 mov	 eax, DWORD PTR _Dexterity$[ebp]
  01a73	99		 cdq
  01a74	b9 14 00 00 00	 mov	 ecx, 20			; 00000014H
  01a79	f7 f9		 idiv	 ecx
  01a7b	8b 55 f8	 mov	 edx, DWORD PTR _lpObj$[ebp]
  01a7e	89 82 8c 04 00
	00		 mov	 DWORD PTR [edx+1164], eax

; 609  : 		lpObj->m_MagicSpeed = Dexterity / 10;

  01a84	8b 45 f0	 mov	 eax, DWORD PTR _Dexterity$[ebp]
  01a87	99		 cdq
  01a88	b9 0a 00 00 00	 mov	 ecx, 10			; 0000000aH
  01a8d	f7 f9		 idiv	 ecx
  01a8f	8b 55 f8	 mov	 edx, DWORD PTR _lpObj$[ebp]
  01a92	89 82 90 04 00
	00		 mov	 DWORD PTR [edx+1168], eax
$LN189@gObjCalCha:

; 610  : 	}
; 611  : 
; 612  : 
; 613  : 	bool bRight = false;

  01a98	c6 85 c3 fe ff
	ff 00		 mov	 BYTE PTR _bRight$[ebp], 0

; 614  : 	bool bLeft = false;

  01a9f	c6 85 c2 fe ff
	ff 00		 mov	 BYTE PTR _bLeft$[ebp], 0

; 615  : 
; 616  : 	if ( Right->m_Type != ITEMGET(4,7) && Right->m_Type != ITEMGET(4,15) && Right->m_Type >= ITEMGET(0,0) && Right->m_Type < ITEMGET(6,0) )

  01aa6	8b 45 e4	 mov	 eax, DWORD PTR _Right$[ebp]
  01aa9	0f bf 48 06	 movsx	 ecx, WORD PTR [eax+6]
  01aad	81 f9 07 08 00
	00		 cmp	 ecx, 2055		; 00000807H
  01ab3	74 51		 je	 SHORT $LN187@gObjCalCha
  01ab5	8b 45 e4	 mov	 eax, DWORD PTR _Right$[ebp]
  01ab8	0f bf 48 06	 movsx	 ecx, WORD PTR [eax+6]
  01abc	81 f9 0f 08 00
	00		 cmp	 ecx, 2063		; 0000080fH
  01ac2	74 42		 je	 SHORT $LN187@gObjCalCha
  01ac4	8b 45 e4	 mov	 eax, DWORD PTR _Right$[ebp]
  01ac7	0f bf 48 06	 movsx	 ecx, WORD PTR [eax+6]
  01acb	85 c9		 test	 ecx, ecx
  01acd	7c 37		 jl	 SHORT $LN187@gObjCalCha
  01acf	8b 45 e4	 mov	 eax, DWORD PTR _Right$[ebp]
  01ad2	0f bf 48 06	 movsx	 ecx, WORD PTR [eax+6]
  01ad6	81 f9 00 0c 00
	00		 cmp	 ecx, 3072		; 00000c00H
  01adc	7d 28		 jge	 SHORT $LN187@gObjCalCha

; 617  : 	{
; 618  : 		if ( Right->m_IsValidItem != false && Right->m_Durability > 0.0f)

  01ade	8b 45 e4	 mov	 eax, DWORD PTR _Right$[ebp]
  01ae1	0f b6 88 b0 00
	00 00		 movzx	 ecx, BYTE PTR [eax+176]
  01ae8	85 c9		 test	 ecx, ecx
  01aea	74 1a		 je	 SHORT $LN187@gObjCalCha
  01aec	8b 45 e4	 mov	 eax, DWORD PTR _Right$[ebp]
  01aef	d9 40 24	 fld	 DWORD PTR [eax+36]
  01af2	dc 1d 00 00 00
	00		 fcomp	 QWORD PTR __real@0000000000000000
  01af8	df e0		 fnstsw	 ax
  01afa	f6 c4 41	 test	 ah, 65			; 00000041H
  01afd	75 07		 jne	 SHORT $LN187@gObjCalCha

; 619  : 		{
; 620  : 			bRight = true;

  01aff	c6 85 c3 fe ff
	ff 01		 mov	 BYTE PTR _bRight$[ebp], 1
$LN187@gObjCalCha:

; 621  : 		}
; 622  : 	}
; 623  : 
; 624  : 	if ( Left->m_Type != ITEMGET(4,7) && Left->m_Type != ITEMGET(4,15) && Left->m_Type >= ITEMGET(0,0) && Left->m_Type < ITEMGET(6,0) )

  01b06	8b 45 e0	 mov	 eax, DWORD PTR _Left$[ebp]
  01b09	0f bf 48 06	 movsx	 ecx, WORD PTR [eax+6]
  01b0d	81 f9 07 08 00
	00		 cmp	 ecx, 2055		; 00000807H
  01b13	74 51		 je	 SHORT $LN185@gObjCalCha
  01b15	8b 45 e0	 mov	 eax, DWORD PTR _Left$[ebp]
  01b18	0f bf 48 06	 movsx	 ecx, WORD PTR [eax+6]
  01b1c	81 f9 0f 08 00
	00		 cmp	 ecx, 2063		; 0000080fH
  01b22	74 42		 je	 SHORT $LN185@gObjCalCha
  01b24	8b 45 e0	 mov	 eax, DWORD PTR _Left$[ebp]
  01b27	0f bf 48 06	 movsx	 ecx, WORD PTR [eax+6]
  01b2b	85 c9		 test	 ecx, ecx
  01b2d	7c 37		 jl	 SHORT $LN185@gObjCalCha
  01b2f	8b 45 e0	 mov	 eax, DWORD PTR _Left$[ebp]
  01b32	0f bf 48 06	 movsx	 ecx, WORD PTR [eax+6]
  01b36	81 f9 00 0c 00
	00		 cmp	 ecx, 3072		; 00000c00H
  01b3c	7d 28		 jge	 SHORT $LN185@gObjCalCha

; 625  : 	{
; 626  : 		if ( Left->m_IsValidItem != false && Left->m_Durability > 0.0f)

  01b3e	8b 45 e0	 mov	 eax, DWORD PTR _Left$[ebp]
  01b41	0f b6 88 b0 00
	00 00		 movzx	 ecx, BYTE PTR [eax+176]
  01b48	85 c9		 test	 ecx, ecx
  01b4a	74 1a		 je	 SHORT $LN185@gObjCalCha
  01b4c	8b 45 e0	 mov	 eax, DWORD PTR _Left$[ebp]
  01b4f	d9 40 24	 fld	 DWORD PTR [eax+36]
  01b52	dc 1d 00 00 00
	00		 fcomp	 QWORD PTR __real@0000000000000000
  01b58	df e0		 fnstsw	 ax
  01b5a	f6 c4 41	 test	 ah, 65			; 00000041H
  01b5d	75 07		 jne	 SHORT $LN185@gObjCalCha

; 627  : 		{
; 628  : 			bLeft = true;

  01b5f	c6 85 c2 fe ff
	ff 01		 mov	 BYTE PTR _bLeft$[ebp], 1
$LN185@gObjCalCha:

; 629  : 		}
; 630  : 	}
; 631  : 
; 632  : 	if ( bRight != false && bLeft != false )

  01b66	0f b6 85 c3 fe
	ff ff		 movzx	 eax, BYTE PTR _bRight$[ebp]
  01b6d	85 c0		 test	 eax, eax
  01b6f	74 5b		 je	 SHORT $LN184@gObjCalCha
  01b71	0f b6 85 c2 fe
	ff ff		 movzx	 eax, BYTE PTR _bLeft$[ebp]
  01b78	85 c0		 test	 eax, eax
  01b7a	74 50		 je	 SHORT $LN184@gObjCalCha

; 633  : 	{
; 634  : 		lpObj->m_AttackSpeed += (Right->m_AttackSpeed + Left->m_AttackSpeed)/2;

  01b7c	8b 45 e4	 mov	 eax, DWORD PTR _Right$[ebp]
  01b7f	0f b6 40 0d	 movzx	 eax, BYTE PTR [eax+13]
  01b83	8b 4d e0	 mov	 ecx, DWORD PTR _Left$[ebp]
  01b86	0f b6 51 0d	 movzx	 edx, BYTE PTR [ecx+13]
  01b8a	03 c2		 add	 eax, edx
  01b8c	99		 cdq
  01b8d	2b c2		 sub	 eax, edx
  01b8f	d1 f8		 sar	 eax, 1
  01b91	8b 4d f8	 mov	 ecx, DWORD PTR _lpObj$[ebp]
  01b94	03 81 8c 04 00
	00		 add	 eax, DWORD PTR [ecx+1164]
  01b9a	8b 55 f8	 mov	 edx, DWORD PTR _lpObj$[ebp]
  01b9d	89 82 8c 04 00
	00		 mov	 DWORD PTR [edx+1164], eax

; 635  : 		lpObj->m_MagicSpeed += (Right->m_AttackSpeed + Left->m_AttackSpeed)/2;

  01ba3	8b 45 e4	 mov	 eax, DWORD PTR _Right$[ebp]
  01ba6	0f b6 40 0d	 movzx	 eax, BYTE PTR [eax+13]
  01baa	8b 4d e0	 mov	 ecx, DWORD PTR _Left$[ebp]
  01bad	0f b6 51 0d	 movzx	 edx, BYTE PTR [ecx+13]
  01bb1	03 c2		 add	 eax, edx
  01bb3	99		 cdq
  01bb4	2b c2		 sub	 eax, edx
  01bb6	d1 f8		 sar	 eax, 1
  01bb8	8b 4d f8	 mov	 ecx, DWORD PTR _lpObj$[ebp]
  01bbb	03 81 90 04 00
	00		 add	 eax, DWORD PTR [ecx+1168]
  01bc1	8b 55 f8	 mov	 edx, DWORD PTR _lpObj$[ebp]
  01bc4	89 82 90 04 00
	00		 mov	 DWORD PTR [edx+1168], eax
  01bca	eb 7c		 jmp	 SHORT $LN180@gObjCalCha
$LN184@gObjCalCha:

; 636  : 	}
; 637  : 	else if ( bRight!= false )

  01bcc	0f b6 85 c3 fe
	ff ff		 movzx	 eax, BYTE PTR _bRight$[ebp]
  01bd3	85 c0		 test	 eax, eax
  01bd5	74 34		 je	 SHORT $LN182@gObjCalCha

; 638  : 	{
; 639  : 		lpObj->m_AttackSpeed += Right->m_AttackSpeed;

  01bd7	8b 45 e4	 mov	 eax, DWORD PTR _Right$[ebp]
  01bda	0f b6 48 0d	 movzx	 ecx, BYTE PTR [eax+13]
  01bde	8b 55 f8	 mov	 edx, DWORD PTR _lpObj$[ebp]
  01be1	03 8a 8c 04 00
	00		 add	 ecx, DWORD PTR [edx+1164]
  01be7	8b 45 f8	 mov	 eax, DWORD PTR _lpObj$[ebp]
  01bea	89 88 8c 04 00
	00		 mov	 DWORD PTR [eax+1164], ecx

; 640  : 		lpObj->m_MagicSpeed += Right->m_AttackSpeed;

  01bf0	8b 45 e4	 mov	 eax, DWORD PTR _Right$[ebp]
  01bf3	0f b6 48 0d	 movzx	 ecx, BYTE PTR [eax+13]
  01bf7	8b 55 f8	 mov	 edx, DWORD PTR _lpObj$[ebp]
  01bfa	03 8a 90 04 00
	00		 add	 ecx, DWORD PTR [edx+1168]
  01c00	8b 45 f8	 mov	 eax, DWORD PTR _lpObj$[ebp]
  01c03	89 88 90 04 00
	00		 mov	 DWORD PTR [eax+1168], ecx
  01c09	eb 3d		 jmp	 SHORT $LN180@gObjCalCha
$LN182@gObjCalCha:

; 641  : 	}
; 642  : 	else if ( bLeft != false )

  01c0b	0f b6 85 c2 fe
	ff ff		 movzx	 eax, BYTE PTR _bLeft$[ebp]
  01c12	85 c0		 test	 eax, eax
  01c14	74 32		 je	 SHORT $LN180@gObjCalCha

; 643  : 	{
; 644  : 		lpObj->m_AttackSpeed += Left->m_AttackSpeed;

  01c16	8b 45 e0	 mov	 eax, DWORD PTR _Left$[ebp]
  01c19	0f b6 48 0d	 movzx	 ecx, BYTE PTR [eax+13]
  01c1d	8b 55 f8	 mov	 edx, DWORD PTR _lpObj$[ebp]
  01c20	03 8a 8c 04 00
	00		 add	 ecx, DWORD PTR [edx+1164]
  01c26	8b 45 f8	 mov	 eax, DWORD PTR _lpObj$[ebp]
  01c29	89 88 8c 04 00
	00		 mov	 DWORD PTR [eax+1164], ecx

; 645  : 		lpObj->m_MagicSpeed += Left->m_AttackSpeed;

  01c2f	8b 45 e0	 mov	 eax, DWORD PTR _Left$[ebp]
  01c32	0f b6 48 0d	 movzx	 ecx, BYTE PTR [eax+13]
  01c36	8b 55 f8	 mov	 edx, DWORD PTR _lpObj$[ebp]
  01c39	03 8a 90 04 00
	00		 add	 ecx, DWORD PTR [edx+1168]
  01c3f	8b 45 f8	 mov	 eax, DWORD PTR _lpObj$[ebp]
  01c42	89 88 90 04 00
	00		 mov	 DWORD PTR [eax+1168], ecx
$LN180@gObjCalCha:

; 646  : 	}
; 647  : 
; 648  : 	if ( Gloves->m_Type != -1 )

  01c48	8b 45 dc	 mov	 eax, DWORD PTR _Gloves$[ebp]
  01c4b	0f bf 48 06	 movsx	 ecx, WORD PTR [eax+6]
  01c4f	83 f9 ff	 cmp	 ecx, -1
  01c52	74 40		 je	 SHORT $LN178@gObjCalCha

; 649  : 	{
; 650  : 		if ( Gloves->m_IsValidItem != false )

  01c54	8b 45 dc	 mov	 eax, DWORD PTR _Gloves$[ebp]
  01c57	0f b6 88 b0 00
	00 00		 movzx	 ecx, BYTE PTR [eax+176]
  01c5e	85 c9		 test	 ecx, ecx
  01c60	74 32		 je	 SHORT $LN178@gObjCalCha

; 651  : 		{
; 652  : 			lpObj->m_AttackSpeed += Gloves->m_AttackSpeed;

  01c62	8b 45 dc	 mov	 eax, DWORD PTR _Gloves$[ebp]
  01c65	0f b6 48 0d	 movzx	 ecx, BYTE PTR [eax+13]
  01c69	8b 55 f8	 mov	 edx, DWORD PTR _lpObj$[ebp]
  01c6c	03 8a 8c 04 00
	00		 add	 ecx, DWORD PTR [edx+1164]
  01c72	8b 45 f8	 mov	 eax, DWORD PTR _lpObj$[ebp]
  01c75	89 88 8c 04 00
	00		 mov	 DWORD PTR [eax+1164], ecx

; 653  : 			lpObj->m_MagicSpeed += Gloves->m_AttackSpeed;

  01c7b	8b 45 dc	 mov	 eax, DWORD PTR _Gloves$[ebp]
  01c7e	0f b6 48 0d	 movzx	 ecx, BYTE PTR [eax+13]
  01c82	8b 55 f8	 mov	 edx, DWORD PTR _lpObj$[ebp]
  01c85	03 8a 90 04 00
	00		 add	 ecx, DWORD PTR [edx+1168]
  01c8b	8b 45 f8	 mov	 eax, DWORD PTR _lpObj$[ebp]
  01c8e	89 88 90 04 00
	00		 mov	 DWORD PTR [eax+1168], ecx
$LN178@gObjCalCha:

; 654  : 		}
; 655  : 	}
; 656  : 
; 657  : 	if ( Helper->m_Type != -1 )

  01c94	8b 45 d4	 mov	 eax, DWORD PTR _Helper$[ebp]
  01c97	0f bf 48 06	 movsx	 ecx, WORD PTR [eax+6]
  01c9b	83 f9 ff	 cmp	 ecx, -1
  01c9e	74 40		 je	 SHORT $LN176@gObjCalCha

; 658  : 	{
; 659  : 		if ( Helper->m_IsValidItem != false )

  01ca0	8b 45 d4	 mov	 eax, DWORD PTR _Helper$[ebp]
  01ca3	0f b6 88 b0 00
	00 00		 movzx	 ecx, BYTE PTR [eax+176]
  01caa	85 c9		 test	 ecx, ecx
  01cac	74 32		 je	 SHORT $LN176@gObjCalCha

; 660  : 		{
; 661  : 			lpObj->m_AttackSpeed += Helper->m_AttackSpeed;

  01cae	8b 45 d4	 mov	 eax, DWORD PTR _Helper$[ebp]
  01cb1	0f b6 48 0d	 movzx	 ecx, BYTE PTR [eax+13]
  01cb5	8b 55 f8	 mov	 edx, DWORD PTR _lpObj$[ebp]
  01cb8	03 8a 8c 04 00
	00		 add	 ecx, DWORD PTR [edx+1164]
  01cbe	8b 45 f8	 mov	 eax, DWORD PTR _lpObj$[ebp]
  01cc1	89 88 8c 04 00
	00		 mov	 DWORD PTR [eax+1164], ecx

; 662  : 			lpObj->m_MagicSpeed += Helper->m_AttackSpeed;

  01cc7	8b 45 d4	 mov	 eax, DWORD PTR _Helper$[ebp]
  01cca	0f b6 48 0d	 movzx	 ecx, BYTE PTR [eax+13]
  01cce	8b 55 f8	 mov	 edx, DWORD PTR _lpObj$[ebp]
  01cd1	03 8a 90 04 00
	00		 add	 ecx, DWORD PTR [edx+1168]
  01cd7	8b 45 f8	 mov	 eax, DWORD PTR _lpObj$[ebp]
  01cda	89 88 90 04 00
	00		 mov	 DWORD PTR [eax+1168], ecx
$LN176@gObjCalCha:

; 663  : 		}
; 664  : 	}
; 665  : 
; 666  : 	if ( Amulet->m_Type != -1 )

  01ce0	8b 45 d8	 mov	 eax, DWORD PTR _Amulet$[ebp]
  01ce3	0f bf 48 06	 movsx	 ecx, WORD PTR [eax+6]
  01ce7	83 f9 ff	 cmp	 ecx, -1
  01cea	74 40		 je	 SHORT $LN174@gObjCalCha

; 667  : 	{
; 668  : 		if ( Amulet->m_IsValidItem != false )

  01cec	8b 45 d8	 mov	 eax, DWORD PTR _Amulet$[ebp]
  01cef	0f b6 88 b0 00
	00 00		 movzx	 ecx, BYTE PTR [eax+176]
  01cf6	85 c9		 test	 ecx, ecx
  01cf8	74 32		 je	 SHORT $LN174@gObjCalCha

; 669  : 		{
; 670  : 			lpObj->m_AttackSpeed += Amulet->m_AttackSpeed;

  01cfa	8b 45 d8	 mov	 eax, DWORD PTR _Amulet$[ebp]
  01cfd	0f b6 48 0d	 movzx	 ecx, BYTE PTR [eax+13]
  01d01	8b 55 f8	 mov	 edx, DWORD PTR _lpObj$[ebp]
  01d04	03 8a 8c 04 00
	00		 add	 ecx, DWORD PTR [edx+1164]
  01d0a	8b 45 f8	 mov	 eax, DWORD PTR _lpObj$[ebp]
  01d0d	89 88 8c 04 00
	00		 mov	 DWORD PTR [eax+1164], ecx

; 671  : 			lpObj->m_MagicSpeed += Amulet->m_AttackSpeed;

  01d13	8b 45 d8	 mov	 eax, DWORD PTR _Amulet$[ebp]
  01d16	0f b6 48 0d	 movzx	 ecx, BYTE PTR [eax+13]
  01d1a	8b 55 f8	 mov	 edx, DWORD PTR _lpObj$[ebp]
  01d1d	03 8a 90 04 00
	00		 add	 ecx, DWORD PTR [edx+1168]
  01d23	8b 45 f8	 mov	 eax, DWORD PTR _lpObj$[ebp]
  01d26	89 88 90 04 00
	00		 mov	 DWORD PTR [eax+1168], ecx
$LN174@gObjCalCha:

; 672  : 		}
; 673  : 	}
; 674  : 
; 675  : 	// Wizard Ring effect
; 676  : 	if ( (lpObj->pInventory[10].IsItem() == TRUE && lpObj->pInventory[10].m_Type == ITEMGET(13,20) && lpObj->pInventory[10].m_Level == 0 && lpObj->pInventory[10].m_Durability > 0.0f ) || (lpObj->pInventory[11].IsItem() == TRUE && lpObj->pInventory[11].m_Type == ITEMGET(13,20) && lpObj->pInventory[11].m_Level == 0 && lpObj->pInventory[11].m_Durability > 0.0f ) )

  01d2c	8b 45 f8	 mov	 eax, DWORD PTR _lpObj$[ebp]
  01d2f	8b 88 24 0e 00
	00		 mov	 ecx, DWORD PTR [eax+3620]
  01d35	81 c1 48 08 00
	00		 add	 ecx, 2120		; 00000848H
  01d3b	e8 00 00 00 00	 call	 ?IsItem@CItem@@QAEHXZ	; CItem::IsItem
  01d40	83 f8 01	 cmp	 eax, 1
  01d43	75 48		 jne	 SHORT $LN171@gObjCalCha
  01d45	8b 45 f8	 mov	 eax, DWORD PTR _lpObj$[ebp]
  01d48	8b 88 24 0e 00
	00		 mov	 ecx, DWORD PTR [eax+3620]
  01d4e	0f bf 91 4e 08
	00 00		 movsx	 edx, WORD PTR [ecx+2126]
  01d55	81 fa 14 1a 00
	00		 cmp	 edx, 6676		; 00001a14H
  01d5b	75 30		 jne	 SHORT $LN171@gObjCalCha
  01d5d	8b 45 f8	 mov	 eax, DWORD PTR _lpObj$[ebp]
  01d60	8b 88 24 0e 00
	00		 mov	 ecx, DWORD PTR [eax+3620]
  01d66	0f bf 91 50 08
	00 00		 movsx	 edx, WORD PTR [ecx+2128]
  01d6d	85 d2		 test	 edx, edx
  01d6f	75 1c		 jne	 SHORT $LN171@gObjCalCha
  01d71	8b 45 f8	 mov	 eax, DWORD PTR _lpObj$[ebp]
  01d74	8b 88 24 0e 00
	00		 mov	 ecx, DWORD PTR [eax+3620]
  01d7a	d9 81 6c 08 00
	00		 fld	 DWORD PTR [ecx+2156]
  01d80	dc 1d 00 00 00
	00		 fcomp	 QWORD PTR __real@0000000000000000
  01d86	df e0		 fnstsw	 ax
  01d88	f6 c4 41	 test	 ah, 65			; 00000041H
  01d8b	74 71		 je	 SHORT $LN172@gObjCalCha
$LN171@gObjCalCha:
  01d8d	8b 45 f8	 mov	 eax, DWORD PTR _lpObj$[ebp]
  01d90	8b 88 24 0e 00
	00		 mov	 ecx, DWORD PTR [eax+3620]
  01d96	81 c1 1c 09 00
	00		 add	 ecx, 2332		; 0000091cH
  01d9c	e8 00 00 00 00	 call	 ?IsItem@CItem@@QAEHXZ	; CItem::IsItem
  01da1	83 f8 01	 cmp	 eax, 1
  01da4	0f 85 62 01 00
	00		 jne	 $LN173@gObjCalCha
  01daa	8b 45 f8	 mov	 eax, DWORD PTR _lpObj$[ebp]
  01dad	8b 88 24 0e 00
	00		 mov	 ecx, DWORD PTR [eax+3620]
  01db3	0f bf 91 22 09
	00 00		 movsx	 edx, WORD PTR [ecx+2338]
  01dba	81 fa 14 1a 00
	00		 cmp	 edx, 6676		; 00001a14H
  01dc0	0f 85 46 01 00
	00		 jne	 $LN173@gObjCalCha
  01dc6	8b 45 f8	 mov	 eax, DWORD PTR _lpObj$[ebp]
  01dc9	8b 88 24 0e 00
	00		 mov	 ecx, DWORD PTR [eax+3620]
  01dcf	0f bf 91 24 09
	00 00		 movsx	 edx, WORD PTR [ecx+2340]
  01dd6	85 d2		 test	 edx, edx
  01dd8	0f 85 2e 01 00
	00		 jne	 $LN173@gObjCalCha
  01dde	8b 45 f8	 mov	 eax, DWORD PTR _lpObj$[ebp]
  01de1	8b 88 24 0e 00
	00		 mov	 ecx, DWORD PTR [eax+3620]
  01de7	d9 81 40 09 00
	00		 fld	 DWORD PTR [ecx+2368]
  01ded	dc 1d 00 00 00
	00		 fcomp	 QWORD PTR __real@0000000000000000
  01df3	df e0		 fnstsw	 ax
  01df5	f6 c4 41	 test	 ah, 65			; 00000041H
  01df8	0f 85 0e 01 00
	00		 jne	 $LN173@gObjCalCha
$LN172@gObjCalCha:

; 677  : 	{
; 678  : 		lpObj->m_AttackDamageMinRight += lpObj->m_AttackDamageMinRight * 10 / 100;

  01dfe	8b 45 f8	 mov	 eax, DWORD PTR _lpObj$[ebp]
  01e01	8b 80 84 04 00
	00		 mov	 eax, DWORD PTR [eax+1156]
  01e07	6b c0 0a	 imul	 eax, 10			; 0000000aH
  01e0a	99		 cdq
  01e0b	b9 64 00 00 00	 mov	 ecx, 100		; 00000064H
  01e10	f7 f9		 idiv	 ecx
  01e12	8b 55 f8	 mov	 edx, DWORD PTR _lpObj$[ebp]
  01e15	03 82 84 04 00
	00		 add	 eax, DWORD PTR [edx+1156]
  01e1b	8b 4d f8	 mov	 ecx, DWORD PTR _lpObj$[ebp]
  01e1e	89 81 84 04 00
	00		 mov	 DWORD PTR [ecx+1156], eax

; 679  : 		lpObj->m_AttackDamageMaxRight += lpObj->m_AttackDamageMaxRight * 10 / 100;

  01e24	8b 45 f8	 mov	 eax, DWORD PTR _lpObj$[ebp]
  01e27	8b 80 80 04 00
	00		 mov	 eax, DWORD PTR [eax+1152]
  01e2d	6b c0 0a	 imul	 eax, 10			; 0000000aH
  01e30	99		 cdq
  01e31	b9 64 00 00 00	 mov	 ecx, 100		; 00000064H
  01e36	f7 f9		 idiv	 ecx
  01e38	8b 55 f8	 mov	 edx, DWORD PTR _lpObj$[ebp]
  01e3b	03 82 80 04 00
	00		 add	 eax, DWORD PTR [edx+1152]
  01e41	8b 4d f8	 mov	 ecx, DWORD PTR _lpObj$[ebp]
  01e44	89 81 80 04 00
	00		 mov	 DWORD PTR [ecx+1152], eax

; 680  : 		lpObj->m_AttackDamageMinLeft += lpObj->m_AttackDamageMinLeft * 10 / 100;

  01e4a	8b 45 f8	 mov	 eax, DWORD PTR _lpObj$[ebp]
  01e4d	8b 80 7c 04 00
	00		 mov	 eax, DWORD PTR [eax+1148]
  01e53	6b c0 0a	 imul	 eax, 10			; 0000000aH
  01e56	99		 cdq
  01e57	b9 64 00 00 00	 mov	 ecx, 100		; 00000064H
  01e5c	f7 f9		 idiv	 ecx
  01e5e	8b 55 f8	 mov	 edx, DWORD PTR _lpObj$[ebp]
  01e61	03 82 7c 04 00
	00		 add	 eax, DWORD PTR [edx+1148]
  01e67	8b 4d f8	 mov	 ecx, DWORD PTR _lpObj$[ebp]
  01e6a	89 81 7c 04 00
	00		 mov	 DWORD PTR [ecx+1148], eax

; 681  : 		lpObj->m_AttackDamageMaxLeft += lpObj->m_AttackDamageMaxLeft * 10 / 100;

  01e70	8b 45 f8	 mov	 eax, DWORD PTR _lpObj$[ebp]
  01e73	8b 80 78 04 00
	00		 mov	 eax, DWORD PTR [eax+1144]
  01e79	6b c0 0a	 imul	 eax, 10			; 0000000aH
  01e7c	99		 cdq
  01e7d	b9 64 00 00 00	 mov	 ecx, 100		; 00000064H
  01e82	f7 f9		 idiv	 ecx
  01e84	8b 55 f8	 mov	 edx, DWORD PTR _lpObj$[ebp]
  01e87	03 82 78 04 00
	00		 add	 eax, DWORD PTR [edx+1144]
  01e8d	8b 4d f8	 mov	 ecx, DWORD PTR _lpObj$[ebp]
  01e90	89 81 78 04 00
	00		 mov	 DWORD PTR [ecx+1144], eax

; 682  : 		lpObj->m_MagicDamageMin += lpObj->m_MagicDamageMin * 10 / 100;

  01e96	8b 45 f8	 mov	 eax, DWORD PTR _lpObj$[ebp]
  01e99	8b 80 68 04 00
	00		 mov	 eax, DWORD PTR [eax+1128]
  01e9f	6b c0 0a	 imul	 eax, 10			; 0000000aH
  01ea2	99		 cdq
  01ea3	b9 64 00 00 00	 mov	 ecx, 100		; 00000064H
  01ea8	f7 f9		 idiv	 ecx
  01eaa	8b 55 f8	 mov	 edx, DWORD PTR _lpObj$[ebp]
  01ead	03 82 68 04 00
	00		 add	 eax, DWORD PTR [edx+1128]
  01eb3	8b 4d f8	 mov	 ecx, DWORD PTR _lpObj$[ebp]
  01eb6	89 81 68 04 00
	00		 mov	 DWORD PTR [ecx+1128], eax

; 683  : 		lpObj->m_MagicDamageMax += lpObj->m_MagicDamageMax * 10 / 100;

  01ebc	8b 45 f8	 mov	 eax, DWORD PTR _lpObj$[ebp]
  01ebf	8b 80 6c 04 00
	00		 mov	 eax, DWORD PTR [eax+1132]
  01ec5	6b c0 0a	 imul	 eax, 10			; 0000000aH
  01ec8	99		 cdq
  01ec9	b9 64 00 00 00	 mov	 ecx, 100		; 00000064H
  01ece	f7 f9		 idiv	 ecx
  01ed0	8b 55 f8	 mov	 edx, DWORD PTR _lpObj$[ebp]
  01ed3	03 82 6c 04 00
	00		 add	 eax, DWORD PTR [edx+1132]
  01ed9	8b 4d f8	 mov	 ecx, DWORD PTR _lpObj$[ebp]
  01edc	89 81 6c 04 00
	00		 mov	 DWORD PTR [ecx+1132], eax

; 684  : 		lpObj->m_AttackSpeed += 10;

  01ee2	8b 45 f8	 mov	 eax, DWORD PTR _lpObj$[ebp]
  01ee5	8b 88 8c 04 00
	00		 mov	 ecx, DWORD PTR [eax+1164]
  01eeb	83 c1 0a	 add	 ecx, 10			; 0000000aH
  01eee	8b 55 f8	 mov	 edx, DWORD PTR _lpObj$[ebp]
  01ef1	89 8a 8c 04 00
	00		 mov	 DWORD PTR [edx+1164], ecx

; 685  : 		lpObj->m_MagicSpeed += 10;

  01ef7	8b 45 f8	 mov	 eax, DWORD PTR _lpObj$[ebp]
  01efa	8b 88 90 04 00
	00		 mov	 ecx, DWORD PTR [eax+1168]
  01f00	83 c1 0a	 add	 ecx, 10			; 0000000aH
  01f03	8b 55 f8	 mov	 edx, DWORD PTR _lpObj$[ebp]
  01f06	89 8a 90 04 00
	00		 mov	 DWORD PTR [edx+1168], ecx
$LN173@gObjCalCha:

; 686  : 	}
; 687  : 
; 688  : 	if ( lpObj->Class == CLASS_WIZARD )

  01f0c	8b 45 f8	 mov	 eax, DWORD PTR _lpObj$[ebp]
  01f0f	0f b7 88 b8 00
	00 00		 movzx	 ecx, WORD PTR [eax+184]
  01f16	85 c9		 test	 ecx, ecx
  01f18	75 4a		 jne	 SHORT $LN170@gObjCalCha

; 689  : 	{
; 690  : 		lpObj->m_DetectSpeedHackTime = (int)(gAttackSpeedTimeLimit - (lpObj->m_MagicSpeed*2 * gDecTimePerAttackSpeed) );

  01f1a	a1 00 00 00 00	 mov	 eax, DWORD PTR ?gAttackSpeedTimeLimit@@3KA ; gAttackSpeedTimeLimit
  01f1f	89 85 fc fd ff
	ff		 mov	 DWORD PTR tv5181[ebp], eax
  01f25	c7 85 00 fe ff
	ff 00 00 00 00	 mov	 DWORD PTR tv5181[ebp+4], 0
  01f2f	df ad fc fd ff
	ff		 fild	 QWORD PTR tv5181[ebp]
  01f35	8b 4d f8	 mov	 ecx, DWORD PTR _lpObj$[ebp]
  01f38	8b 91 90 04 00
	00		 mov	 edx, DWORD PTR [ecx+1168]
  01f3e	d1 e2		 shl	 edx, 1
  01f40	89 95 f8 fd ff
	ff		 mov	 DWORD PTR tv5185[ebp], edx
  01f46	db 85 f8 fd ff
	ff		 fild	 DWORD PTR tv5185[ebp]
  01f4c	d8 0d 00 00 00
	00		 fmul	 DWORD PTR ?gDecTimePerAttackSpeed@@3MA ; gDecTimePerAttackSpeed
  01f52	de e9		 fsubp	 ST(1), ST(0)
  01f54	e8 00 00 00 00	 call	 __ftol2_sse
  01f59	8b 4d f8	 mov	 ecx, DWORD PTR _lpObj$[ebp]
  01f5c	89 81 74 03 00
	00		 mov	 DWORD PTR [ecx+884], eax

; 691  : 	}
; 692  : 	else

  01f62	eb 3a		 jmp	 SHORT $LN169@gObjCalCha
$LN170@gObjCalCha:

; 693  : 	{
; 694  : 		lpObj->m_DetectSpeedHackTime = (int)(gAttackSpeedTimeLimit - (lpObj->m_AttackSpeed * gDecTimePerAttackSpeed) );

  01f64	a1 00 00 00 00	 mov	 eax, DWORD PTR ?gAttackSpeedTimeLimit@@3KA ; gAttackSpeedTimeLimit
  01f69	89 85 fc fd ff
	ff		 mov	 DWORD PTR tv5194[ebp], eax
  01f6f	c7 85 00 fe ff
	ff 00 00 00 00	 mov	 DWORD PTR tv5194[ebp+4], 0
  01f79	df ad fc fd ff
	ff		 fild	 QWORD PTR tv5194[ebp]
  01f7f	8b 4d f8	 mov	 ecx, DWORD PTR _lpObj$[ebp]
  01f82	db 81 8c 04 00
	00		 fild	 DWORD PTR [ecx+1164]
  01f88	d8 0d 00 00 00
	00		 fmul	 DWORD PTR ?gDecTimePerAttackSpeed@@3MA ; gDecTimePerAttackSpeed
  01f8e	de e9		 fsubp	 ST(1), ST(0)
  01f90	e8 00 00 00 00	 call	 __ftol2_sse
  01f95	8b 55 f8	 mov	 edx, DWORD PTR _lpObj$[ebp]
  01f98	89 82 74 03 00
	00		 mov	 DWORD PTR [edx+884], eax
$LN169@gObjCalCha:

; 695  : 	}
; 696  : 
; 697  : 	if ( lpObj->m_DetectSpeedHackTime < gMinimumAttackSpeedTime )

  01f9e	8b 45 f8	 mov	 eax, DWORD PTR _lpObj$[ebp]
  01fa1	8b 88 74 03 00
	00		 mov	 ecx, DWORD PTR [eax+884]
  01fa7	3b 0d 00 00 00
	00		 cmp	 ecx, DWORD PTR ?gMinimumAttackSpeedTime@@3HA ; gMinimumAttackSpeedTime
  01fad	7d 0f		 jge	 SHORT $LN168@gObjCalCha

; 698  : 	{
; 699  : 		lpObj->m_DetectSpeedHackTime = gMinimumAttackSpeedTime;

  01faf	8b 45 f8	 mov	 eax, DWORD PTR _lpObj$[ebp]
  01fb2	8b 0d 00 00 00
	00		 mov	 ecx, DWORD PTR ?gMinimumAttackSpeedTime@@3HA ; gMinimumAttackSpeedTime
  01fb8	89 88 74 03 00
	00		 mov	 DWORD PTR [eax+884], ecx
$LN168@gObjCalCha:

; 700  : 	}
; 701  : 
; 702  : 
; 703  : 	if ( lpObj->Class == CLASS_ELF )

  01fbe	8b 45 f8	 mov	 eax, DWORD PTR _lpObj$[ebp]
  01fc1	0f b7 88 b8 00
	00 00		 movzx	 ecx, WORD PTR [eax+184]
  01fc8	83 f9 02	 cmp	 ecx, 2
  01fcb	75 18		 jne	 SHORT $LN167@gObjCalCha

; 704  : 	{
; 705  : 		//int SuccessfulBlocking = GetPrivateProfileInt("Fairy_Elf","SuccessfulBlocking",4,"..\\Data\\ExData\\Character.ini");
; 706  : 		lpObj->m_SuccessfulBlocking = Dexterity / ExConfig.Character.ELFSuccessfulBlocking;	// 4

  01fcd	8b 45 f0	 mov	 eax, DWORD PTR _Dexterity$[ebp]
  01fd0	99		 cdq
  01fd1	f7 3d 30 02 00
	00		 idiv	 DWORD PTR ?ExConfig@@3VcExConfigs@@A+560
  01fd7	8b 4d f8	 mov	 ecx, DWORD PTR _lpObj$[ebp]
  01fda	89 81 9c 04 00
	00		 mov	 DWORD PTR [ecx+1180], eax
  01fe0	e9 f4 00 00 00	 jmp	 $LN154@gObjCalCha
$LN167@gObjCalCha:

; 707  : 	}
; 708  : 	else if ( lpObj->Class == CLASS_DARKLORD )

  01fe5	8b 45 f8	 mov	 eax, DWORD PTR _lpObj$[ebp]
  01fe8	0f b7 88 b8 00
	00 00		 movzx	 ecx, WORD PTR [eax+184]
  01fef	83 f9 04	 cmp	 ecx, 4
  01ff2	75 18		 jne	 SHORT $LN165@gObjCalCha

; 709  : 	{
; 710  : 		//int SuccessfulBlocking = GetPrivateProfileInt("Dark_Lord","SuccessfulBlocking",7,"..\\Data\\ExData\\Character.ini");
; 711  : 		lpObj->m_SuccessfulBlocking = Dexterity / ExConfig.Character.DLSuccessfulBlocking;	// 7

  01ff4	8b 45 f0	 mov	 eax, DWORD PTR _Dexterity$[ebp]
  01ff7	99		 cdq
  01ff8	f7 3d 34 02 00
	00		 idiv	 DWORD PTR ?ExConfig@@3VcExConfigs@@A+564
  01ffe	8b 4d f8	 mov	 ecx, DWORD PTR _lpObj$[ebp]
  02001	89 81 9c 04 00
	00		 mov	 DWORD PTR [ecx+1180], eax
  02007	e9 cd 00 00 00	 jmp	 $LN154@gObjCalCha
$LN165@gObjCalCha:

; 712  : 	}
; 713  : 	else if ( lpObj->Class == CLASS_SUMMONER ) //Not much but its alot

  0200c	8b 45 f8	 mov	 eax, DWORD PTR _lpObj$[ebp]
  0200f	0f b7 88 b8 00
	00 00		 movzx	 ecx, WORD PTR [eax+184]
  02016	83 f9 05	 cmp	 ecx, 5
  02019	75 18		 jne	 SHORT $LN163@gObjCalCha

; 714  : 	{
; 715  : 		//int SuccessfulBlocking = GetPrivateProfileInt("Summoner","SuccessfulBlocking",4,"..\\Data\\ExData\\Character.ini");
; 716  : 		lpObj->m_SuccessfulBlocking = Dexterity / ExConfig.Character.SUMSuccessfulBlocking;	 // 4

  0201b	8b 45 f0	 mov	 eax, DWORD PTR _Dexterity$[ebp]
  0201e	99		 cdq
  0201f	f7 3d 38 02 00
	00		 idiv	 DWORD PTR ?ExConfig@@3VcExConfigs@@A+568
  02025	8b 4d f8	 mov	 ecx, DWORD PTR _lpObj$[ebp]
  02028	89 81 9c 04 00
	00		 mov	 DWORD PTR [ecx+1180], eax
  0202e	e9 a6 00 00 00	 jmp	 $LN154@gObjCalCha
$LN163@gObjCalCha:

; 717  : 	}
; 718  : 	else if ( lpObj->Class == CLASS_WIZARD )

  02033	8b 45 f8	 mov	 eax, DWORD PTR _lpObj$[ebp]
  02036	0f b7 88 b8 00
	00 00		 movzx	 ecx, WORD PTR [eax+184]
  0203d	85 c9		 test	 ecx, ecx
  0203f	75 18		 jne	 SHORT $LN161@gObjCalCha

; 719  : 	{
; 720  : 		//int SuccessfulBlocking = GetPrivateProfileInt("Dark_Wizard","SuccessfulBlocking",3,"..\\Data\\ExData\\Character.ini");
; 721  : 		lpObj->m_SuccessfulBlocking = Dexterity / ExConfig.Character.DWSuccessfulBlocking;	 // 3

  02041	8b 45 f0	 mov	 eax, DWORD PTR _Dexterity$[ebp]
  02044	99		 cdq
  02045	f7 3d 3c 02 00
	00		 idiv	 DWORD PTR ?ExConfig@@3VcExConfigs@@A+572
  0204b	8b 4d f8	 mov	 ecx, DWORD PTR _lpObj$[ebp]
  0204e	89 81 9c 04 00
	00		 mov	 DWORD PTR [ecx+1180], eax
  02054	e9 80 00 00 00	 jmp	 $LN154@gObjCalCha
$LN161@gObjCalCha:

; 722  : 	}
; 723  : 	else if ( lpObj->Class == CLASS_KNIGHT )

  02059	8b 45 f8	 mov	 eax, DWORD PTR _lpObj$[ebp]
  0205c	0f b7 88 b8 00
	00 00		 movzx	 ecx, WORD PTR [eax+184]
  02063	83 f9 01	 cmp	 ecx, 1
  02066	75 15		 jne	 SHORT $LN159@gObjCalCha

; 724  : 	{
; 725  : 		//int SuccessfulBlocking = GetPrivateProfileInt("Dark_Knight","SuccessfulBlocking",3,"..\\Data\\ExData\\Character.ini");
; 726  : 		lpObj->m_SuccessfulBlocking = Dexterity / ExConfig.Character.DKSuccessfulBlocking;	 // 3

  02068	8b 45 f0	 mov	 eax, DWORD PTR _Dexterity$[ebp]
  0206b	99		 cdq
  0206c	f7 3d 40 02 00
	00		 idiv	 DWORD PTR ?ExConfig@@3VcExConfigs@@A+576
  02072	8b 4d f8	 mov	 ecx, DWORD PTR _lpObj$[ebp]
  02075	89 81 9c 04 00
	00		 mov	 DWORD PTR [ecx+1180], eax
  0207b	eb 5c		 jmp	 SHORT $LN154@gObjCalCha
$LN159@gObjCalCha:

; 727  : 	}
; 728  : 	else if ( lpObj->Class == CLASS_MAGUMSA )

  0207d	8b 45 f8	 mov	 eax, DWORD PTR _lpObj$[ebp]
  02080	0f b7 88 b8 00
	00 00		 movzx	 ecx, WORD PTR [eax+184]
  02087	83 f9 03	 cmp	 ecx, 3
  0208a	75 15		 jne	 SHORT $LN157@gObjCalCha

; 729  : 	{
; 730  : 		//int SuccessfulBlocking = GetPrivateProfileInt("Magic_Gladiator","SuccessfulBlocking",3,"..\\Data\\ExData\\Character.ini");
; 731  : 		lpObj->m_SuccessfulBlocking = Dexterity / ExConfig.Character.MGSuccessfulBlocking;	 // 3

  0208c	8b 45 f0	 mov	 eax, DWORD PTR _Dexterity$[ebp]
  0208f	99		 cdq
  02090	f7 3d 44 02 00
	00		 idiv	 DWORD PTR ?ExConfig@@3VcExConfigs@@A+580
  02096	8b 4d f8	 mov	 ecx, DWORD PTR _lpObj$[ebp]
  02099	89 81 9c 04 00
	00		 mov	 DWORD PTR [ecx+1180], eax
  0209f	eb 38		 jmp	 SHORT $LN154@gObjCalCha
$LN157@gObjCalCha:

; 732  : 	}
; 733  : #ifdef MONK
; 734  : 	else if( lpObj->Class == CLASS_MONK )

  020a1	8b 45 f8	 mov	 eax, DWORD PTR _lpObj$[ebp]
  020a4	0f b7 88 b8 00
	00 00		 movzx	 ecx, WORD PTR [eax+184]
  020ab	83 f9 06	 cmp	 ecx, 6
  020ae	75 15		 jne	 SHORT $LN155@gObjCalCha

; 735  : 	{
; 736  : 		lpObj->m_SuccessfulBlocking = Dexterity / ExConfig.Character.RFSuccessfulBlocking;

  020b0	8b 45 f0	 mov	 eax, DWORD PTR _Dexterity$[ebp]
  020b3	99		 cdq
  020b4	f7 3d 80 02 00
	00		 idiv	 DWORD PTR ?ExConfig@@3VcExConfigs@@A+640
  020ba	8b 4d f8	 mov	 ecx, DWORD PTR _lpObj$[ebp]
  020bd	89 81 9c 04 00
	00		 mov	 DWORD PTR [ecx+1180], eax

; 737  : 	}
; 738  : #endif
; 739  : 	else

  020c3	eb 14		 jmp	 SHORT $LN154@gObjCalCha
$LN155@gObjCalCha:

; 740  : 	{
; 741  : 		lpObj->m_SuccessfulBlocking = Dexterity / 3;

  020c5	8b 45 f0	 mov	 eax, DWORD PTR _Dexterity$[ebp]
  020c8	99		 cdq
  020c9	b9 03 00 00 00	 mov	 ecx, 3
  020ce	f7 f9		 idiv	 ecx
  020d0	8b 55 f8	 mov	 edx, DWORD PTR _lpObj$[ebp]
  020d3	89 82 9c 04 00
	00		 mov	 DWORD PTR [edx+1180], eax
$LN154@gObjCalCha:

; 742  : 	}
; 743  : 	if ( Left->m_Type != -1 )

  020d9	8b 45 e0	 mov	 eax, DWORD PTR _Left$[ebp]
  020dc	0f bf 48 06	 movsx	 ecx, WORD PTR [eax+6]
  020e0	83 f9 ff	 cmp	 ecx, -1
  020e3	74 46		 je	 SHORT $LN152@gObjCalCha

; 744  : 	{
; 745  : 		if ( Left->m_IsValidItem != false )

  020e5	8b 45 e0	 mov	 eax, DWORD PTR _Left$[ebp]
  020e8	0f b6 88 b0 00
	00 00		 movzx	 ecx, BYTE PTR [eax+176]
  020ef	85 c9		 test	 ecx, ecx
  020f1	74 38		 je	 SHORT $LN152@gObjCalCha

; 746  : 		{
; 747  : 			lpObj->m_SuccessfulBlocking += Left->m_SuccessfulBlocking;

  020f3	8b 45 e0	 mov	 eax, DWORD PTR _Left$[ebp]
  020f6	0f b6 48 14	 movzx	 ecx, BYTE PTR [eax+20]
  020fa	8b 55 f8	 mov	 edx, DWORD PTR _lpObj$[ebp]
  020fd	03 8a 9c 04 00
	00		 add	 ecx, DWORD PTR [edx+1180]
  02103	8b 45 f8	 mov	 eax, DWORD PTR _lpObj$[ebp]
  02106	89 88 9c 04 00
	00		 mov	 DWORD PTR [eax+1180], ecx

; 748  : 			lpObj->pInventory[1].PlusSpecial(&lpObj->m_SuccessfulBlocking, 82);

  0210c	6a 52		 push	 82			; 00000052H
  0210e	8b 45 f8	 mov	 eax, DWORD PTR _lpObj$[ebp]
  02111	05 9c 04 00 00	 add	 eax, 1180		; 0000049cH
  02116	50		 push	 eax
  02117	8b 4d f8	 mov	 ecx, DWORD PTR _lpObj$[ebp]
  0211a	8b 89 24 0e 00
	00		 mov	 ecx, DWORD PTR [ecx+3620]
  02120	81 c1 d4 00 00
	00		 add	 ecx, 212		; 000000d4H
  02126	e8 00 00 00 00	 call	 ?PlusSpecial@CItem@@QAEXPAHH@Z ; CItem::PlusSpecial
$LN152@gObjCalCha:

; 749  : 		}
; 750  : 	}
; 751  : 
; 752  : 	bool Success = true;

  0212b	c6 85 c1 fe ff
	ff 01		 mov	 BYTE PTR _Success$[ebp], 1

; 753  : 
; 754  : 	if ( lpObj->Class == CLASS_MAGUMSA )

  02132	8b 45 f8	 mov	 eax, DWORD PTR _lpObj$[ebp]
  02135	0f b7 88 b8 00
	00 00		 movzx	 ecx, WORD PTR [eax+184]
  0213c	83 f9 03	 cmp	 ecx, 3
  0213f	75 7a		 jne	 SHORT $LN151@gObjCalCha

; 755  : 	{
; 756  : 		for ( int j=3;j<=6;j++)

  02141	c7 85 bc fe ff
	ff 03 00 00 00	 mov	 DWORD PTR _j$232781[ebp], 3
  0214b	eb 0f		 jmp	 SHORT $LN150@gObjCalCha
$LN149@gObjCalCha:
  0214d	8b 85 bc fe ff
	ff		 mov	 eax, DWORD PTR _j$232781[ebp]
  02153	83 c0 01	 add	 eax, 1
  02156	89 85 bc fe ff
	ff		 mov	 DWORD PTR _j$232781[ebp], eax
$LN150@gObjCalCha:
  0215c	83 bd bc fe ff
	ff 06		 cmp	 DWORD PTR _j$232781[ebp], 6
  02163	7f 54		 jg	 SHORT $LN148@gObjCalCha

; 757  : 		{
; 758  : 			if ( lpObj->pInventory[j].m_Type == -1 )

  02165	8b 85 bc fe ff
	ff		 mov	 eax, DWORD PTR _j$232781[ebp]
  0216b	69 c0 d4 00 00
	00		 imul	 eax, 212		; 000000d4H
  02171	8b 4d f8	 mov	 ecx, DWORD PTR _lpObj$[ebp]
  02174	8b 91 24 0e 00
	00		 mov	 edx, DWORD PTR [ecx+3620]
  0217a	0f bf 44 02 06	 movsx	 eax, WORD PTR [edx+eax+6]
  0217f	83 f8 ff	 cmp	 eax, -1
  02182	75 09		 jne	 SHORT $LN147@gObjCalCha

; 759  : 			{
; 760  : 				Success = false;

  02184	c6 85 c1 fe ff
	ff 00		 mov	 BYTE PTR _Success$[ebp], 0

; 761  : 				break;

  0218b	eb 2c		 jmp	 SHORT $LN148@gObjCalCha
$LN147@gObjCalCha:

; 762  : 			}
; 763  : 
; 764  : 			if ( lpObj->pInventory[j].m_IsValidItem == false )

  0218d	8b 85 bc fe ff
	ff		 mov	 eax, DWORD PTR _j$232781[ebp]
  02193	69 c0 d4 00 00
	00		 imul	 eax, 212		; 000000d4H
  02199	8b 4d f8	 mov	 ecx, DWORD PTR _lpObj$[ebp]
  0219c	8b 91 24 0e 00
	00		 mov	 edx, DWORD PTR [ecx+3620]
  021a2	0f b6 84 02 b0
	00 00 00	 movzx	 eax, BYTE PTR [edx+eax+176]
  021aa	85 c0		 test	 eax, eax
  021ac	75 09		 jne	 SHORT $LN146@gObjCalCha

; 765  : 			{
; 766  : 				Success = false;

  021ae	c6 85 c1 fe ff
	ff 00		 mov	 BYTE PTR _Success$[ebp], 0

; 767  : 				break;

  021b5	eb 02		 jmp	 SHORT $LN148@gObjCalCha
$LN146@gObjCalCha:

; 768  : 			}
; 769  : 		}

  021b7	eb 94		 jmp	 SHORT $LN149@gObjCalCha
$LN148@gObjCalCha:

; 770  : 	}
; 771  : 	else

  021b9	eb 78		 jmp	 SHORT $LN142@gObjCalCha
$LN151@gObjCalCha:

; 772  : 	{
; 773  : 		for  ( int k=2;k<=6;k++)

  021bb	c7 85 b8 fe ff
	ff 02 00 00 00	 mov	 DWORD PTR _k$232788[ebp], 2
  021c5	eb 0f		 jmp	 SHORT $LN144@gObjCalCha
$LN143@gObjCalCha:
  021c7	8b 85 b8 fe ff
	ff		 mov	 eax, DWORD PTR _k$232788[ebp]
  021cd	83 c0 01	 add	 eax, 1
  021d0	89 85 b8 fe ff
	ff		 mov	 DWORD PTR _k$232788[ebp], eax
$LN144@gObjCalCha:
  021d6	83 bd b8 fe ff
	ff 06		 cmp	 DWORD PTR _k$232788[ebp], 6
  021dd	7f 54		 jg	 SHORT $LN142@gObjCalCha

; 774  : 		{
; 775  : 			if ( lpObj->pInventory[k].m_Type == -1 )

  021df	8b 85 b8 fe ff
	ff		 mov	 eax, DWORD PTR _k$232788[ebp]
  021e5	69 c0 d4 00 00
	00		 imul	 eax, 212		; 000000d4H
  021eb	8b 4d f8	 mov	 ecx, DWORD PTR _lpObj$[ebp]
  021ee	8b 91 24 0e 00
	00		 mov	 edx, DWORD PTR [ecx+3620]
  021f4	0f bf 44 02 06	 movsx	 eax, WORD PTR [edx+eax+6]
  021f9	83 f8 ff	 cmp	 eax, -1
  021fc	75 09		 jne	 SHORT $LN141@gObjCalCha

; 776  : 			{
; 777  : 				Success = false;

  021fe	c6 85 c1 fe ff
	ff 00		 mov	 BYTE PTR _Success$[ebp], 0

; 778  : 				break;

  02205	eb 2c		 jmp	 SHORT $LN142@gObjCalCha
$LN141@gObjCalCha:

; 779  : 			}
; 780  : 
; 781  : 			if ( lpObj->pInventory[k].m_IsValidItem == false )

  02207	8b 85 b8 fe ff
	ff		 mov	 eax, DWORD PTR _k$232788[ebp]
  0220d	69 c0 d4 00 00
	00		 imul	 eax, 212		; 000000d4H
  02213	8b 4d f8	 mov	 ecx, DWORD PTR _lpObj$[ebp]
  02216	8b 91 24 0e 00
	00		 mov	 edx, DWORD PTR [ecx+3620]
  0221c	0f b6 84 02 b0
	00 00 00	 movzx	 eax, BYTE PTR [edx+eax+176]
  02224	85 c0		 test	 eax, eax
  02226	75 09		 jne	 SHORT $LN140@gObjCalCha

; 782  : 			{
; 783  : 				Success = false;

  02228	c6 85 c1 fe ff
	ff 00		 mov	 BYTE PTR _Success$[ebp], 0

; 784  : 				break;

  0222f	eb 02		 jmp	 SHORT $LN142@gObjCalCha
$LN140@gObjCalCha:

; 785  : 			}
; 786  : 		}

  02231	eb 94		 jmp	 SHORT $LN143@gObjCalCha
$LN142@gObjCalCha:

; 787  : 	}
; 788  : 
; 789  : 	int Level11Count = 0;

  02233	c7 85 b4 fe ff
	ff 00 00 00 00	 mov	 DWORD PTR _Level11Count$[ebp], 0

; 790  : 	int Level10Count = 0;

  0223d	c7 85 b0 fe ff
	ff 00 00 00 00	 mov	 DWORD PTR _Level10Count$[ebp], 0

; 791  : 	int Level12Count = 0;

  02247	c7 85 ac fe ff
	ff 00 00 00 00	 mov	 DWORD PTR _Level12Count$[ebp], 0

; 792  : 	int Level13Count = 0;

  02251	c7 85 a8 fe ff
	ff 00 00 00 00	 mov	 DWORD PTR _Level13Count$[ebp], 0

; 793  : 	//Season 5 +15 Items
; 794  : 	int Level14Count = 0;

  0225b	c7 85 a4 fe ff
	ff 00 00 00 00	 mov	 DWORD PTR _Level14Count$[ebp], 0

; 795  : 	int Level15Count = 0;

  02265	c7 85 a0 fe ff
	ff 00 00 00 00	 mov	 DWORD PTR _Level15Count$[ebp], 0

; 796  : 
; 797  : 	if ( Success != false )

  0226f	0f b6 85 c1 fe
	ff ff		 movzx	 eax, BYTE PTR _Success$[ebp]
  02276	85 c0		 test	 eax, eax
  02278	0f 84 0b 04 00
	00		 je	 $LN104@gObjCalCha

; 798  : 	{
; 799  : 		int in;
; 800  : 
; 801  : 		if ( lpObj->Class == CLASS_MAGUMSA )

  0227e	8b 45 f8	 mov	 eax, DWORD PTR _lpObj$[ebp]
  02281	0f b7 88 b8 00
	00 00		 movzx	 ecx, WORD PTR [eax+184]
  02288	83 f9 03	 cmp	 ecx, 3
  0228b	0f 85 19 02 00
	00		 jne	 $LN138@gObjCalCha

; 802  : 		{
; 803  : 			in = lpObj->pInventory[3].m_Type % MAX_SUBTYPE_ITEMS;

  02291	8b 45 f8	 mov	 eax, DWORD PTR _lpObj$[ebp]
  02294	8b 88 24 0e 00
	00		 mov	 ecx, DWORD PTR [eax+3620]
  0229a	0f bf 91 82 02
	00 00		 movsx	 edx, WORD PTR [ecx+642]
  022a1	81 e2 ff 01 00
	80		 and	 edx, -2147483137	; 800001ffH
  022a7	79 08		 jns	 SHORT $LN325@gObjCalCha
  022a9	4a		 dec	 edx
  022aa	81 ca 00 fe ff
	ff		 or	 edx, -512		; fffffe00H
  022b0	42		 inc	 edx
$LN325@gObjCalCha:
  022b1	89 95 9c fe ff
	ff		 mov	 DWORD PTR _in$232801[ebp], edx

; 804  : 
; 805  : 			if ( in != ITEMGET(0,15) &&
; 806  : 				 in != ITEMGET(0,20) &&
; 807  : 				 in != ITEMGET(0,23) &&
; 808  : 				 in != ITEMGET(0,33) &&
; 809  : 				 in != ITEMGET(0,32) &&
; 810  : 				 in != ITEMGET(0,37) &&
; 811  : 				 //season4 add-on
; 812  : 				 in != ITEMGET(0,47) &&
; 813  : 				 in != ITEMGET(0,48))

  022b7	83 bd 9c fe ff
	ff 0f		 cmp	 DWORD PTR _in$232801[ebp], 15 ; 0000000fH
  022be	74 4b		 je	 SHORT $LN137@gObjCalCha
  022c0	83 bd 9c fe ff
	ff 14		 cmp	 DWORD PTR _in$232801[ebp], 20 ; 00000014H
  022c7	74 42		 je	 SHORT $LN137@gObjCalCha
  022c9	83 bd 9c fe ff
	ff 17		 cmp	 DWORD PTR _in$232801[ebp], 23 ; 00000017H
  022d0	74 39		 je	 SHORT $LN137@gObjCalCha
  022d2	83 bd 9c fe ff
	ff 21		 cmp	 DWORD PTR _in$232801[ebp], 33 ; 00000021H
  022d9	74 30		 je	 SHORT $LN137@gObjCalCha
  022db	83 bd 9c fe ff
	ff 20		 cmp	 DWORD PTR _in$232801[ebp], 32 ; 00000020H
  022e2	74 27		 je	 SHORT $LN137@gObjCalCha
  022e4	83 bd 9c fe ff
	ff 25		 cmp	 DWORD PTR _in$232801[ebp], 37 ; 00000025H
  022eb	74 1e		 je	 SHORT $LN137@gObjCalCha
  022ed	83 bd 9c fe ff
	ff 2f		 cmp	 DWORD PTR _in$232801[ebp], 47 ; 0000002fH
  022f4	74 15		 je	 SHORT $LN137@gObjCalCha
  022f6	83 bd 9c fe ff
	ff 30		 cmp	 DWORD PTR _in$232801[ebp], 48 ; 00000030H
  022fd	74 0c		 je	 SHORT $LN137@gObjCalCha

; 814  : 			{
; 815  : 				Success = false;

  022ff	c6 85 c1 fe ff
	ff 00		 mov	 BYTE PTR _Success$[ebp], 0

; 816  : 			}
; 817  : 			else

  02306	e9 9a 01 00 00	 jmp	 $LN133@gObjCalCha
$LN137@gObjCalCha:

; 818  : 			{
; 819  : 				Level13Count++;

  0230b	8b 85 a8 fe ff
	ff		 mov	 eax, DWORD PTR _Level13Count$[ebp]
  02311	83 c0 01	 add	 eax, 1
  02314	89 85 a8 fe ff
	ff		 mov	 DWORD PTR _Level13Count$[ebp], eax

; 820  : 
; 821  : 				for (int m=3;m<=6;m++)

  0231a	c7 85 98 fe ff
	ff 03 00 00 00	 mov	 DWORD PTR _m$232805[ebp], 3
  02324	eb 0f		 jmp	 SHORT $LN135@gObjCalCha
$LN134@gObjCalCha:
  02326	8b 85 98 fe ff
	ff		 mov	 eax, DWORD PTR _m$232805[ebp]
  0232c	83 c0 01	 add	 eax, 1
  0232f	89 85 98 fe ff
	ff		 mov	 DWORD PTR _m$232805[ebp], eax
$LN135@gObjCalCha:
  02335	83 bd 98 fe ff
	ff 06		 cmp	 DWORD PTR _m$232805[ebp], 6
  0233c	0f 8f 63 01 00
	00		 jg	 $LN133@gObjCalCha

; 822  : 				{
; 823  : 					if ( in != ( lpObj->pInventory[m].m_Type % MAX_SUBTYPE_ITEMS) )

  02342	8b 85 98 fe ff
	ff		 mov	 eax, DWORD PTR _m$232805[ebp]
  02348	69 c0 d4 00 00
	00		 imul	 eax, 212		; 000000d4H
  0234e	8b 4d f8	 mov	 ecx, DWORD PTR _lpObj$[ebp]
  02351	8b 91 24 0e 00
	00		 mov	 edx, DWORD PTR [ecx+3620]
  02357	0f bf 44 02 06	 movsx	 eax, WORD PTR [edx+eax+6]
  0235c	25 ff 01 00 80	 and	 eax, -2147483137	; 800001ffH
  02361	79 07		 jns	 SHORT $LN326@gObjCalCha
  02363	48		 dec	 eax
  02364	0d 00 fe ff ff	 or	 eax, -512		; fffffe00H
  02369	40		 inc	 eax
$LN326@gObjCalCha:
  0236a	39 85 9c fe ff
	ff		 cmp	 DWORD PTR _in$232801[ebp], eax
  02370	74 07		 je	 SHORT $LN132@gObjCalCha

; 824  : 					{
; 825  : 						Success = false;

  02372	c6 85 c1 fe ff
	ff 00		 mov	 BYTE PTR _Success$[ebp], 0
$LN132@gObjCalCha:

; 826  : 					}
; 827  : 					//Season 5 +15 Items
; 828  : 					if ( lpObj->pInventory[m].m_Level > 14 )

  02379	8b 85 98 fe ff
	ff		 mov	 eax, DWORD PTR _m$232805[ebp]
  0237f	69 c0 d4 00 00
	00		 imul	 eax, 212		; 000000d4H
  02385	8b 4d f8	 mov	 ecx, DWORD PTR _lpObj$[ebp]
  02388	8b 91 24 0e 00
	00		 mov	 edx, DWORD PTR [ecx+3620]
  0238e	0f bf 44 02 08	 movsx	 eax, WORD PTR [edx+eax+8]
  02393	83 f8 0e	 cmp	 eax, 14			; 0000000eH
  02396	7e 14		 jle	 SHORT $LN131@gObjCalCha

; 829  : 					{
; 830  : 						Level15Count++;

  02398	8b 85 a0 fe ff
	ff		 mov	 eax, DWORD PTR _Level15Count$[ebp]
  0239e	83 c0 01	 add	 eax, 1
  023a1	89 85 a0 fe ff
	ff		 mov	 DWORD PTR _Level15Count$[ebp], eax
  023a7	e9 f4 00 00 00	 jmp	 $LN121@gObjCalCha
$LN131@gObjCalCha:

; 831  : 					}
; 832  : 					else if ( lpObj->pInventory[m].m_Level > 13 )

  023ac	8b 85 98 fe ff
	ff		 mov	 eax, DWORD PTR _m$232805[ebp]
  023b2	69 c0 d4 00 00
	00		 imul	 eax, 212		; 000000d4H
  023b8	8b 4d f8	 mov	 ecx, DWORD PTR _lpObj$[ebp]
  023bb	8b 91 24 0e 00
	00		 mov	 edx, DWORD PTR [ecx+3620]
  023c1	0f bf 44 02 08	 movsx	 eax, WORD PTR [edx+eax+8]
  023c6	83 f8 0d	 cmp	 eax, 13			; 0000000dH
  023c9	7e 14		 jle	 SHORT $LN129@gObjCalCha

; 833  : 					{
; 834  : 						Level14Count++;

  023cb	8b 85 a4 fe ff
	ff		 mov	 eax, DWORD PTR _Level14Count$[ebp]
  023d1	83 c0 01	 add	 eax, 1
  023d4	89 85 a4 fe ff
	ff		 mov	 DWORD PTR _Level14Count$[ebp], eax
  023da	e9 c1 00 00 00	 jmp	 $LN121@gObjCalCha
$LN129@gObjCalCha:

; 835  : 					}
; 836  : 					else if ( lpObj->pInventory[m].m_Level > 12 )

  023df	8b 85 98 fe ff
	ff		 mov	 eax, DWORD PTR _m$232805[ebp]
  023e5	69 c0 d4 00 00
	00		 imul	 eax, 212		; 000000d4H
  023eb	8b 4d f8	 mov	 ecx, DWORD PTR _lpObj$[ebp]
  023ee	8b 91 24 0e 00
	00		 mov	 edx, DWORD PTR [ecx+3620]
  023f4	0f bf 44 02 08	 movsx	 eax, WORD PTR [edx+eax+8]
  023f9	83 f8 0c	 cmp	 eax, 12			; 0000000cH
  023fc	7e 14		 jle	 SHORT $LN127@gObjCalCha

; 837  : 					{
; 838  : 						Level13Count++;

  023fe	8b 85 a8 fe ff
	ff		 mov	 eax, DWORD PTR _Level13Count$[ebp]
  02404	83 c0 01	 add	 eax, 1
  02407	89 85 a8 fe ff
	ff		 mov	 DWORD PTR _Level13Count$[ebp], eax
  0240d	e9 8e 00 00 00	 jmp	 $LN121@gObjCalCha
$LN127@gObjCalCha:

; 839  : 					}
; 840  : 					else if ( lpObj->pInventory[m].m_Level > 11 )

  02412	8b 85 98 fe ff
	ff		 mov	 eax, DWORD PTR _m$232805[ebp]
  02418	69 c0 d4 00 00
	00		 imul	 eax, 212		; 000000d4H
  0241e	8b 4d f8	 mov	 ecx, DWORD PTR _lpObj$[ebp]
  02421	8b 91 24 0e 00
	00		 mov	 edx, DWORD PTR [ecx+3620]
  02427	0f bf 44 02 08	 movsx	 eax, WORD PTR [edx+eax+8]
  0242c	83 f8 0b	 cmp	 eax, 11			; 0000000bH
  0242f	7e 11		 jle	 SHORT $LN125@gObjCalCha

; 841  : 					{
; 842  : 						Level12Count++;

  02431	8b 85 ac fe ff
	ff		 mov	 eax, DWORD PTR _Level12Count$[ebp]
  02437	83 c0 01	 add	 eax, 1
  0243a	89 85 ac fe ff
	ff		 mov	 DWORD PTR _Level12Count$[ebp], eax
  02440	eb 5e		 jmp	 SHORT $LN121@gObjCalCha
$LN125@gObjCalCha:

; 843  : 					}
; 844  : 					else if ( lpObj->pInventory[m].m_Level > 10 )

  02442	8b 85 98 fe ff
	ff		 mov	 eax, DWORD PTR _m$232805[ebp]
  02448	69 c0 d4 00 00
	00		 imul	 eax, 212		; 000000d4H
  0244e	8b 4d f8	 mov	 ecx, DWORD PTR _lpObj$[ebp]
  02451	8b 91 24 0e 00
	00		 mov	 edx, DWORD PTR [ecx+3620]
  02457	0f bf 44 02 08	 movsx	 eax, WORD PTR [edx+eax+8]
  0245c	83 f8 0a	 cmp	 eax, 10			; 0000000aH
  0245f	7e 11		 jle	 SHORT $LN123@gObjCalCha

; 845  : 					{
; 846  : 						Level11Count++;

  02461	8b 85 b4 fe ff
	ff		 mov	 eax, DWORD PTR _Level11Count$[ebp]
  02467	83 c0 01	 add	 eax, 1
  0246a	89 85 b4 fe ff
	ff		 mov	 DWORD PTR _Level11Count$[ebp], eax
  02470	eb 2e		 jmp	 SHORT $LN121@gObjCalCha
$LN123@gObjCalCha:

; 847  : 					}
; 848  : 					else if ( lpObj->pInventory[m].m_Level > 9 )

  02472	8b 85 98 fe ff
	ff		 mov	 eax, DWORD PTR _m$232805[ebp]
  02478	69 c0 d4 00 00
	00		 imul	 eax, 212		; 000000d4H
  0247e	8b 4d f8	 mov	 ecx, DWORD PTR _lpObj$[ebp]
  02481	8b 91 24 0e 00
	00		 mov	 edx, DWORD PTR [ecx+3620]
  02487	0f bf 44 02 08	 movsx	 eax, WORD PTR [edx+eax+8]
  0248c	83 f8 09	 cmp	 eax, 9
  0248f	7e 0f		 jle	 SHORT $LN121@gObjCalCha

; 849  : 					{
; 850  : 						Level10Count++;

  02491	8b 85 b0 fe ff
	ff		 mov	 eax, DWORD PTR _Level10Count$[ebp]
  02497	83 c0 01	 add	 eax, 1
  0249a	89 85 b0 fe ff
	ff		 mov	 DWORD PTR _Level10Count$[ebp], eax
$LN121@gObjCalCha:

; 851  : 					}
; 852  : 				}

  024a0	e9 81 fe ff ff	 jmp	 $LN134@gObjCalCha
$LN133@gObjCalCha:

; 853  : 			}
; 854  : 		}
; 855  : 		else

  024a5	e9 b1 01 00 00	 jmp	 $LN117@gObjCalCha
$LN138@gObjCalCha:

; 856  : 		{
; 857  : 			in = lpObj->pInventory[2].m_Type % MAX_SUBTYPE_ITEMS;

  024aa	8b 45 f8	 mov	 eax, DWORD PTR _lpObj$[ebp]
  024ad	8b 88 24 0e 00
	00		 mov	 ecx, DWORD PTR [eax+3620]
  024b3	0f bf 91 ae 01
	00 00		 movsx	 edx, WORD PTR [ecx+430]
  024ba	81 e2 ff 01 00
	80		 and	 edx, -2147483137	; 800001ffH
  024c0	79 08		 jns	 SHORT $LN327@gObjCalCha
  024c2	4a		 dec	 edx
  024c3	81 ca 00 fe ff
	ff		 or	 edx, -512		; fffffe00H
  024c9	42		 inc	 edx
$LN327@gObjCalCha:
  024ca	89 95 9c fe ff
	ff		 mov	 DWORD PTR _in$232801[ebp], edx

; 858  : 
; 859  : 			for (int m=2;m<=6;m++)

  024d0	c7 85 94 fe ff
	ff 02 00 00 00	 mov	 DWORD PTR _m$232822[ebp], 2
  024da	eb 0f		 jmp	 SHORT $LN119@gObjCalCha
$LN118@gObjCalCha:
  024dc	8b 85 94 fe ff
	ff		 mov	 eax, DWORD PTR _m$232822[ebp]
  024e2	83 c0 01	 add	 eax, 1
  024e5	89 85 94 fe ff
	ff		 mov	 DWORD PTR _m$232822[ebp], eax
$LN119@gObjCalCha:
  024eb	83 bd 94 fe ff
	ff 06		 cmp	 DWORD PTR _m$232822[ebp], 6
  024f2	0f 8f 63 01 00
	00		 jg	 $LN117@gObjCalCha

; 860  : 			{
; 861  : 				if ( in !=  ( lpObj->pInventory[m].m_Type % MAX_SUBTYPE_ITEMS) )

  024f8	8b 85 94 fe ff
	ff		 mov	 eax, DWORD PTR _m$232822[ebp]
  024fe	69 c0 d4 00 00
	00		 imul	 eax, 212		; 000000d4H
  02504	8b 4d f8	 mov	 ecx, DWORD PTR _lpObj$[ebp]
  02507	8b 91 24 0e 00
	00		 mov	 edx, DWORD PTR [ecx+3620]
  0250d	0f bf 44 02 06	 movsx	 eax, WORD PTR [edx+eax+6]
  02512	25 ff 01 00 80	 and	 eax, -2147483137	; 800001ffH
  02517	79 07		 jns	 SHORT $LN328@gObjCalCha
  02519	48		 dec	 eax
  0251a	0d 00 fe ff ff	 or	 eax, -512		; fffffe00H
  0251f	40		 inc	 eax
$LN328@gObjCalCha:
  02520	39 85 9c fe ff
	ff		 cmp	 DWORD PTR _in$232801[ebp], eax
  02526	74 07		 je	 SHORT $LN116@gObjCalCha

; 862  : 				{
; 863  : 					Success = false;

  02528	c6 85 c1 fe ff
	ff 00		 mov	 BYTE PTR _Success$[ebp], 0
$LN116@gObjCalCha:

; 864  : 				}
; 865  : 				//Season 5 +15 Items
; 866  : 				if ( lpObj->pInventory[m].m_Level > 14 )

  0252f	8b 85 94 fe ff
	ff		 mov	 eax, DWORD PTR _m$232822[ebp]
  02535	69 c0 d4 00 00
	00		 imul	 eax, 212		; 000000d4H
  0253b	8b 4d f8	 mov	 ecx, DWORD PTR _lpObj$[ebp]
  0253e	8b 91 24 0e 00
	00		 mov	 edx, DWORD PTR [ecx+3620]
  02544	0f bf 44 02 08	 movsx	 eax, WORD PTR [edx+eax+8]
  02549	83 f8 0e	 cmp	 eax, 14			; 0000000eH
  0254c	7e 14		 jle	 SHORT $LN115@gObjCalCha

; 867  : 				{
; 868  : 					Level15Count++;

  0254e	8b 85 a0 fe ff
	ff		 mov	 eax, DWORD PTR _Level15Count$[ebp]
  02554	83 c0 01	 add	 eax, 1
  02557	89 85 a0 fe ff
	ff		 mov	 DWORD PTR _Level15Count$[ebp], eax
  0255d	e9 f4 00 00 00	 jmp	 $LN105@gObjCalCha
$LN115@gObjCalCha:

; 869  : 				}
; 870  : 				else if ( lpObj->pInventory[m].m_Level > 13 )

  02562	8b 85 94 fe ff
	ff		 mov	 eax, DWORD PTR _m$232822[ebp]
  02568	69 c0 d4 00 00
	00		 imul	 eax, 212		; 000000d4H
  0256e	8b 4d f8	 mov	 ecx, DWORD PTR _lpObj$[ebp]
  02571	8b 91 24 0e 00
	00		 mov	 edx, DWORD PTR [ecx+3620]
  02577	0f bf 44 02 08	 movsx	 eax, WORD PTR [edx+eax+8]
  0257c	83 f8 0d	 cmp	 eax, 13			; 0000000dH
  0257f	7e 14		 jle	 SHORT $LN113@gObjCalCha

; 871  : 				{
; 872  : 					Level14Count++;

  02581	8b 85 a4 fe ff
	ff		 mov	 eax, DWORD PTR _Level14Count$[ebp]
  02587	83 c0 01	 add	 eax, 1
  0258a	89 85 a4 fe ff
	ff		 mov	 DWORD PTR _Level14Count$[ebp], eax
  02590	e9 c1 00 00 00	 jmp	 $LN105@gObjCalCha
$LN113@gObjCalCha:

; 873  : 				}
; 874  : 				else if ( lpObj->pInventory[m].m_Level > 12 )

  02595	8b 85 94 fe ff
	ff		 mov	 eax, DWORD PTR _m$232822[ebp]
  0259b	69 c0 d4 00 00
	00		 imul	 eax, 212		; 000000d4H
  025a1	8b 4d f8	 mov	 ecx, DWORD PTR _lpObj$[ebp]
  025a4	8b 91 24 0e 00
	00		 mov	 edx, DWORD PTR [ecx+3620]
  025aa	0f bf 44 02 08	 movsx	 eax, WORD PTR [edx+eax+8]
  025af	83 f8 0c	 cmp	 eax, 12			; 0000000cH
  025b2	7e 14		 jle	 SHORT $LN111@gObjCalCha

; 875  : 				{
; 876  : 					Level13Count++;

  025b4	8b 85 a8 fe ff
	ff		 mov	 eax, DWORD PTR _Level13Count$[ebp]
  025ba	83 c0 01	 add	 eax, 1
  025bd	89 85 a8 fe ff
	ff		 mov	 DWORD PTR _Level13Count$[ebp], eax
  025c3	e9 8e 00 00 00	 jmp	 $LN105@gObjCalCha
$LN111@gObjCalCha:

; 877  : 				}
; 878  : 				else if ( lpObj->pInventory[m].m_Level > 11 )

  025c8	8b 85 94 fe ff
	ff		 mov	 eax, DWORD PTR _m$232822[ebp]
  025ce	69 c0 d4 00 00
	00		 imul	 eax, 212		; 000000d4H
  025d4	8b 4d f8	 mov	 ecx, DWORD PTR _lpObj$[ebp]
  025d7	8b 91 24 0e 00
	00		 mov	 edx, DWORD PTR [ecx+3620]
  025dd	0f bf 44 02 08	 movsx	 eax, WORD PTR [edx+eax+8]
  025e2	83 f8 0b	 cmp	 eax, 11			; 0000000bH
  025e5	7e 11		 jle	 SHORT $LN109@gObjCalCha

; 879  : 				{
; 880  : 					Level12Count++;

  025e7	8b 85 ac fe ff
	ff		 mov	 eax, DWORD PTR _Level12Count$[ebp]
  025ed	83 c0 01	 add	 eax, 1
  025f0	89 85 ac fe ff
	ff		 mov	 DWORD PTR _Level12Count$[ebp], eax
  025f6	eb 5e		 jmp	 SHORT $LN105@gObjCalCha
$LN109@gObjCalCha:

; 881  : 				}
; 882  : 				else if ( lpObj->pInventory[m].m_Level > 10 )

  025f8	8b 85 94 fe ff
	ff		 mov	 eax, DWORD PTR _m$232822[ebp]
  025fe	69 c0 d4 00 00
	00		 imul	 eax, 212		; 000000d4H
  02604	8b 4d f8	 mov	 ecx, DWORD PTR _lpObj$[ebp]
  02607	8b 91 24 0e 00
	00		 mov	 edx, DWORD PTR [ecx+3620]
  0260d	0f bf 44 02 08	 movsx	 eax, WORD PTR [edx+eax+8]
  02612	83 f8 0a	 cmp	 eax, 10			; 0000000aH
  02615	7e 11		 jle	 SHORT $LN107@gObjCalCha

; 883  : 				{
; 884  : 					Level11Count++;

  02617	8b 85 b4 fe ff
	ff		 mov	 eax, DWORD PTR _Level11Count$[ebp]
  0261d	83 c0 01	 add	 eax, 1
  02620	89 85 b4 fe ff
	ff		 mov	 DWORD PTR _Level11Count$[ebp], eax
  02626	eb 2e		 jmp	 SHORT $LN105@gObjCalCha
$LN107@gObjCalCha:

; 885  : 				}
; 886  : 				else if ( lpObj->pInventory[m].m_Level > 9 )

  02628	8b 85 94 fe ff
	ff		 mov	 eax, DWORD PTR _m$232822[ebp]
  0262e	69 c0 d4 00 00
	00		 imul	 eax, 212		; 000000d4H
  02634	8b 4d f8	 mov	 ecx, DWORD PTR _lpObj$[ebp]
  02637	8b 91 24 0e 00
	00		 mov	 edx, DWORD PTR [ecx+3620]
  0263d	0f bf 44 02 08	 movsx	 eax, WORD PTR [edx+eax+8]
  02642	83 f8 09	 cmp	 eax, 9
  02645	7e 0f		 jle	 SHORT $LN105@gObjCalCha

; 887  : 				{
; 888  : 					Level10Count++;

  02647	8b 85 b0 fe ff
	ff		 mov	 eax, DWORD PTR _Level10Count$[ebp]
  0264d	83 c0 01	 add	 eax, 1
  02650	89 85 b0 fe ff
	ff		 mov	 DWORD PTR _Level10Count$[ebp], eax
$LN105@gObjCalCha:

; 889  : 				}
; 890  : 			}

  02656	e9 81 fe ff ff	 jmp	 $LN118@gObjCalCha
$LN117@gObjCalCha:

; 891  : 		}
; 892  : 
; 893  : 		if ( Success != false )

  0265b	0f b6 85 c1 fe
	ff ff		 movzx	 eax, BYTE PTR _Success$[ebp]
  02662	85 c0		 test	 eax, eax
  02664	74 23		 je	 SHORT $LN104@gObjCalCha

; 894  : 		{
; 895  : 			lpObj->m_SuccessfulBlocking += lpObj->m_SuccessfulBlocking / 10;

  02666	8b 45 f8	 mov	 eax, DWORD PTR _lpObj$[ebp]
  02669	8b 80 9c 04 00
	00		 mov	 eax, DWORD PTR [eax+1180]
  0266f	99		 cdq
  02670	b9 0a 00 00 00	 mov	 ecx, 10			; 0000000aH
  02675	f7 f9		 idiv	 ecx
  02677	8b 55 f8	 mov	 edx, DWORD PTR _lpObj$[ebp]
  0267a	03 82 9c 04 00
	00		 add	 eax, DWORD PTR [edx+1180]
  02680	8b 4d f8	 mov	 ecx, DWORD PTR _lpObj$[ebp]
  02683	89 81 9c 04 00
	00		 mov	 DWORD PTR [ecx+1180], eax
$LN104@gObjCalCha:

; 896  : 		}
; 897  : 	}
; 898  : 
; 899  : 	if( lpObj->m_MPSkillOpt.MpsBlockingRate > 0.0f )

  02689	8b 45 f8	 mov	 eax, DWORD PTR _lpObj$[ebp]
  0268c	d9 80 38 26 00
	00		 fld	 DWORD PTR [eax+9784]
  02692	dc 1d 00 00 00
	00		 fcomp	 QWORD PTR __real@0000000000000000
  02698	df e0		 fnstsw	 ax
  0269a	f6 c4 41	 test	 ah, 65			; 00000041H
  0269d	75 2f		 jne	 SHORT $LN103@gObjCalCha

; 900  : 	{
; 901  : 		lpObj->m_SuccessfulBlocking += lpObj->m_SuccessfulBlocking / 100.0f * lpObj->m_MPSkillOpt.MpsBlockingRate;

  0269f	8b 45 f8	 mov	 eax, DWORD PTR _lpObj$[ebp]
  026a2	db 80 9c 04 00
	00		 fild	 DWORD PTR [eax+1180]
  026a8	dc 35 00 00 00
	00		 fdiv	 QWORD PTR __real@4059000000000000
  026ae	8b 4d f8	 mov	 ecx, DWORD PTR _lpObj$[ebp]
  026b1	d8 89 38 26 00
	00		 fmul	 DWORD PTR [ecx+9784]
  026b7	8b 55 f8	 mov	 edx, DWORD PTR _lpObj$[ebp]
  026ba	da 82 9c 04 00
	00		 fiadd	 DWORD PTR [edx+1180]
  026c0	e8 00 00 00 00	 call	 __ftol2_sse
  026c5	8b 4d f8	 mov	 ecx, DWORD PTR _lpObj$[ebp]
  026c8	89 81 9c 04 00
	00		 mov	 DWORD PTR [ecx+1180], eax
$LN103@gObjCalCha:

; 902  : 	}
; 903  : 
; 904  : 	lpObj->m_SuccessfulBlocking += lpObj->m_MPSkillOpt.MpsShieldMastery;

  026ce	8b 45 f8	 mov	 eax, DWORD PTR _lpObj$[ebp]
  026d1	db 80 9c 04 00
	00		 fild	 DWORD PTR [eax+1180]
  026d7	8b 4d f8	 mov	 ecx, DWORD PTR _lpObj$[ebp]
  026da	d8 81 a8 26 00
	00		 fadd	 DWORD PTR [ecx+9896]
  026e0	e8 00 00 00 00	 call	 __ftol2_sse
  026e5	8b 55 f8	 mov	 edx, DWORD PTR _lpObj$[ebp]
  026e8	89 82 9c 04 00
	00		 mov	 DWORD PTR [edx+1180], eax

; 905  : 	//lpObj->m_SuccessfulBlocking += lpObj->m_MPSkillOpt.MpsShieldMastery2;
; 906  : 	lpObj->m_SuccessfulBlocking += lpObj->m_MPSkillOpt.MpsShieldMastery3;

  026ee	8b 45 f8	 mov	 eax, DWORD PTR _lpObj$[ebp]
  026f1	db 80 9c 04 00
	00		 fild	 DWORD PTR [eax+1180]
  026f7	8b 4d f8	 mov	 ecx, DWORD PTR _lpObj$[ebp]
  026fa	d8 81 1c 27 00
	00		 fadd	 DWORD PTR [ecx+10012]
  02700	e8 00 00 00 00	 call	 __ftol2_sse
  02705	8b 55 f8	 mov	 edx, DWORD PTR _lpObj$[ebp]
  02708	89 82 9c 04 00
	00		 mov	 DWORD PTR [edx+1180], eax

; 907  : 
; 908  : 	if ( lpObj->Class == CLASS_ELF )

  0270e	8b 45 f8	 mov	 eax, DWORD PTR _lpObj$[ebp]
  02711	0f b7 88 b8 00
	00 00		 movzx	 ecx, WORD PTR [eax+184]
  02718	83 f9 02	 cmp	 ecx, 2
  0271b	75 18		 jne	 SHORT $LN102@gObjCalCha

; 909  : 	{
; 910  : 		//int Defense = GetPrivateProfileInt("Fairy_Elf","Defense",10,"..\\Data\\ExData\\Character.ini");
; 911  : 		lpObj->m_Defense = Dexterity / ExConfig.Character.ELFDefense;

  0271d	8b 45 f0	 mov	 eax, DWORD PTR _Dexterity$[ebp]
  02720	99		 cdq
  02721	f7 3d 48 02 00
	00		 idiv	 DWORD PTR ?ExConfig@@3VcExConfigs@@A+584
  02727	8b 4d f8	 mov	 ecx, DWORD PTR _lpObj$[ebp]
  0272a	89 81 94 04 00
	00		 mov	 DWORD PTR [ecx+1172], eax
  02730	e9 f5 00 00 00	 jmp	 $LN89@gObjCalCha
$LN102@gObjCalCha:

; 912  : 	}
; 913  : 	else if ( lpObj->Class == CLASS_KNIGHT )

  02735	8b 45 f8	 mov	 eax, DWORD PTR _lpObj$[ebp]
  02738	0f b7 88 b8 00
	00 00		 movzx	 ecx, WORD PTR [eax+184]
  0273f	83 f9 01	 cmp	 ecx, 1
  02742	75 18		 jne	 SHORT $LN100@gObjCalCha

; 914  : 	{
; 915  : 		//int Defense = GetPrivateProfileInt("Dark_Knight","Defense",3,"..\\Data\\ExData\\Character.ini");
; 916  : 		lpObj->m_Defense = Dexterity / ExConfig.Character.DKDefense;

  02744	8b 45 f0	 mov	 eax, DWORD PTR _Dexterity$[ebp]
  02747	99		 cdq
  02748	f7 3d 4c 02 00
	00		 idiv	 DWORD PTR ?ExConfig@@3VcExConfigs@@A+588
  0274e	8b 4d f8	 mov	 ecx, DWORD PTR _lpObj$[ebp]
  02751	89 81 94 04 00
	00		 mov	 DWORD PTR [ecx+1172], eax
  02757	e9 ce 00 00 00	 jmp	 $LN89@gObjCalCha
$LN100@gObjCalCha:

; 917  : 	}
; 918  : 	else if ( lpObj->Class == CLASS_DARKLORD )

  0275c	8b 45 f8	 mov	 eax, DWORD PTR _lpObj$[ebp]
  0275f	0f b7 88 b8 00
	00 00		 movzx	 ecx, WORD PTR [eax+184]
  02766	83 f9 04	 cmp	 ecx, 4
  02769	75 18		 jne	 SHORT $LN98@gObjCalCha

; 919  : 	{
; 920  : 		//int Defense = GetPrivateProfileInt("Dark_Lord","Defense",7,"..\\Data\\ExData\\Character.ini");
; 921  : 		lpObj->m_Defense = Dexterity / ExConfig.Character.DLDefense;

  0276b	8b 45 f0	 mov	 eax, DWORD PTR _Dexterity$[ebp]
  0276e	99		 cdq
  0276f	f7 3d 50 02 00
	00		 idiv	 DWORD PTR ?ExConfig@@3VcExConfigs@@A+592
  02775	8b 4d f8	 mov	 ecx, DWORD PTR _lpObj$[ebp]
  02778	89 81 94 04 00
	00		 mov	 DWORD PTR [ecx+1172], eax
  0277e	e9 a7 00 00 00	 jmp	 $LN89@gObjCalCha
$LN98@gObjCalCha:

; 922  : 	}
; 923  : 	else if ( lpObj->Class == CLASS_SUMMONER ) //strong like BK

  02783	8b 45 f8	 mov	 eax, DWORD PTR _lpObj$[ebp]
  02786	0f b7 88 b8 00
	00 00		 movzx	 ecx, WORD PTR [eax+184]
  0278d	83 f9 05	 cmp	 ecx, 5
  02790	75 18		 jne	 SHORT $LN96@gObjCalCha

; 924  : 	{
; 925  : 		//int Defense = GetPrivateProfileInt("Summoner","Defense",3,"..\\Data\\ExData\\Character.ini");
; 926  : 		lpObj->m_Defense = Dexterity / ExConfig.Character.SUMDefense;

  02792	8b 45 f0	 mov	 eax, DWORD PTR _Dexterity$[ebp]
  02795	99		 cdq
  02796	f7 3d 54 02 00
	00		 idiv	 DWORD PTR ?ExConfig@@3VcExConfigs@@A+596
  0279c	8b 4d f8	 mov	 ecx, DWORD PTR _lpObj$[ebp]
  0279f	89 81 94 04 00
	00		 mov	 DWORD PTR [ecx+1172], eax
  027a5	e9 80 00 00 00	 jmp	 $LN89@gObjCalCha
$LN96@gObjCalCha:

; 927  : 	}
; 928  : 	else if ( lpObj->Class == CLASS_MAGUMSA ) //MG

  027aa	8b 45 f8	 mov	 eax, DWORD PTR _lpObj$[ebp]
  027ad	0f b7 88 b8 00
	00 00		 movzx	 ecx, WORD PTR [eax+184]
  027b4	83 f9 03	 cmp	 ecx, 3
  027b7	75 15		 jne	 SHORT $LN94@gObjCalCha

; 929  : 	{
; 930  : 		//int Defense = GetPrivateProfileInt("Magic_Gladiator","Defense",4,"..\\Data\\ExData\\Character.ini");
; 931  : 		lpObj->m_Defense = Dexterity / ExConfig.Character.MGDefense;

  027b9	8b 45 f0	 mov	 eax, DWORD PTR _Dexterity$[ebp]
  027bc	99		 cdq
  027bd	f7 3d 58 02 00
	00		 idiv	 DWORD PTR ?ExConfig@@3VcExConfigs@@A+600
  027c3	8b 4d f8	 mov	 ecx, DWORD PTR _lpObj$[ebp]
  027c6	89 81 94 04 00
	00		 mov	 DWORD PTR [ecx+1172], eax
  027cc	eb 5c		 jmp	 SHORT $LN89@gObjCalCha
$LN94@gObjCalCha:

; 932  : 	}
; 933  : 	else if ( lpObj->Class == CLASS_WIZARD ) //DW

  027ce	8b 45 f8	 mov	 eax, DWORD PTR _lpObj$[ebp]
  027d1	0f b7 88 b8 00
	00 00		 movzx	 ecx, WORD PTR [eax+184]
  027d8	85 c9		 test	 ecx, ecx
  027da	75 15		 jne	 SHORT $LN92@gObjCalCha

; 934  : 	{
; 935  : 		//int Defense = GetPrivateProfileInt("Dark_Wizard","Defense",4,"..\\Data\\ExData\\Character.ini");
; 936  : 		lpObj->m_Defense = Dexterity / ExConfig.Character.DWDefense;

  027dc	8b 45 f0	 mov	 eax, DWORD PTR _Dexterity$[ebp]
  027df	99		 cdq
  027e0	f7 3d 5c 02 00
	00		 idiv	 DWORD PTR ?ExConfig@@3VcExConfigs@@A+604
  027e6	8b 4d f8	 mov	 ecx, DWORD PTR _lpObj$[ebp]
  027e9	89 81 94 04 00
	00		 mov	 DWORD PTR [ecx+1172], eax
  027ef	eb 39		 jmp	 SHORT $LN89@gObjCalCha
$LN92@gObjCalCha:

; 937  : 	}
; 938  : #ifdef MONK
; 939  : 	else if( lpObj->Class == CLASS_MONK )

  027f1	8b 45 f8	 mov	 eax, DWORD PTR _lpObj$[ebp]
  027f4	0f b7 88 b8 00
	00 00		 movzx	 ecx, WORD PTR [eax+184]
  027fb	83 f9 06	 cmp	 ecx, 6
  027fe	75 15		 jne	 SHORT $LN90@gObjCalCha

; 940  : 	{
; 941  : 		lpObj->m_Defense = Dexterity / ExConfig.Character.RFDefense;

  02800	8b 45 f0	 mov	 eax, DWORD PTR _Dexterity$[ebp]
  02803	99		 cdq
  02804	f7 3d 84 02 00
	00		 idiv	 DWORD PTR ?ExConfig@@3VcExConfigs@@A+644
  0280a	8b 4d f8	 mov	 ecx, DWORD PTR _lpObj$[ebp]
  0280d	89 81 94 04 00
	00		 mov	 DWORD PTR [ecx+1172], eax

; 942  : 	}
; 943  : #endif
; 944  : 	else

  02813	eb 15		 jmp	 SHORT $LN89@gObjCalCha
$LN90@gObjCalCha:

; 945  : 	{
; 946  : 		lpObj->m_Defense = Dexterity / 4;

  02815	8b 45 f0	 mov	 eax, DWORD PTR _Dexterity$[ebp]
  02818	99		 cdq
  02819	83 e2 03	 and	 edx, 3
  0281c	03 c2		 add	 eax, edx
  0281e	c1 f8 02	 sar	 eax, 2
  02821	8b 4d f8	 mov	 ecx, DWORD PTR _lpObj$[ebp]
  02824	89 81 94 04 00
	00		 mov	 DWORD PTR [ecx+1172], eax
$LN89@gObjCalCha:

; 947  : 	}
; 948  : 
; 949  : 
; 950  : 
; 951  : 	lpObj->m_Defense += lpObj->pInventory[2].ItemDefense();

  0282a	8b 45 f8	 mov	 eax, DWORD PTR _lpObj$[ebp]
  0282d	8b 88 24 0e 00
	00		 mov	 ecx, DWORD PTR [eax+3620]
  02833	81 c1 a8 01 00
	00		 add	 ecx, 424		; 000001a8H
  02839	e8 00 00 00 00	 call	 ?ItemDefense@CItem@@QAEHXZ ; CItem::ItemDefense
  0283e	8b 4d f8	 mov	 ecx, DWORD PTR _lpObj$[ebp]
  02841	03 81 94 04 00
	00		 add	 eax, DWORD PTR [ecx+1172]
  02847	8b 55 f8	 mov	 edx, DWORD PTR _lpObj$[ebp]
  0284a	89 82 94 04 00
	00		 mov	 DWORD PTR [edx+1172], eax

; 952  : 	lpObj->m_Defense += lpObj->pInventory[3].ItemDefense();

  02850	8b 45 f8	 mov	 eax, DWORD PTR _lpObj$[ebp]
  02853	8b 88 24 0e 00
	00		 mov	 ecx, DWORD PTR [eax+3620]
  02859	81 c1 7c 02 00
	00		 add	 ecx, 636		; 0000027cH
  0285f	e8 00 00 00 00	 call	 ?ItemDefense@CItem@@QAEHXZ ; CItem::ItemDefense
  02864	8b 4d f8	 mov	 ecx, DWORD PTR _lpObj$[ebp]
  02867	03 81 94 04 00
	00		 add	 eax, DWORD PTR [ecx+1172]
  0286d	8b 55 f8	 mov	 edx, DWORD PTR _lpObj$[ebp]
  02870	89 82 94 04 00
	00		 mov	 DWORD PTR [edx+1172], eax

; 953  : 	lpObj->m_Defense += lpObj->pInventory[4].ItemDefense();

  02876	8b 45 f8	 mov	 eax, DWORD PTR _lpObj$[ebp]
  02879	8b 88 24 0e 00
	00		 mov	 ecx, DWORD PTR [eax+3620]
  0287f	81 c1 50 03 00
	00		 add	 ecx, 848		; 00000350H
  02885	e8 00 00 00 00	 call	 ?ItemDefense@CItem@@QAEHXZ ; CItem::ItemDefense
  0288a	8b 4d f8	 mov	 ecx, DWORD PTR _lpObj$[ebp]
  0288d	03 81 94 04 00
	00		 add	 eax, DWORD PTR [ecx+1172]
  02893	8b 55 f8	 mov	 edx, DWORD PTR _lpObj$[ebp]
  02896	89 82 94 04 00
	00		 mov	 DWORD PTR [edx+1172], eax

; 954  : 	lpObj->m_Defense += lpObj->pInventory[5].ItemDefense();

  0289c	8b 45 f8	 mov	 eax, DWORD PTR _lpObj$[ebp]
  0289f	8b 88 24 0e 00
	00		 mov	 ecx, DWORD PTR [eax+3620]
  028a5	81 c1 24 04 00
	00		 add	 ecx, 1060		; 00000424H
  028ab	e8 00 00 00 00	 call	 ?ItemDefense@CItem@@QAEHXZ ; CItem::ItemDefense
  028b0	8b 4d f8	 mov	 ecx, DWORD PTR _lpObj$[ebp]
  028b3	03 81 94 04 00
	00		 add	 eax, DWORD PTR [ecx+1172]
  028b9	8b 55 f8	 mov	 edx, DWORD PTR _lpObj$[ebp]
  028bc	89 82 94 04 00
	00		 mov	 DWORD PTR [edx+1172], eax

; 955  : 	lpObj->m_Defense += lpObj->pInventory[6].ItemDefense();

  028c2	8b 45 f8	 mov	 eax, DWORD PTR _lpObj$[ebp]
  028c5	8b 88 24 0e 00
	00		 mov	 ecx, DWORD PTR [eax+3620]
  028cb	81 c1 f8 04 00
	00		 add	 ecx, 1272		; 000004f8H
  028d1	e8 00 00 00 00	 call	 ?ItemDefense@CItem@@QAEHXZ ; CItem::ItemDefense
  028d6	8b 4d f8	 mov	 ecx, DWORD PTR _lpObj$[ebp]
  028d9	03 81 94 04 00
	00		 add	 eax, DWORD PTR [ecx+1172]
  028df	8b 55 f8	 mov	 edx, DWORD PTR _lpObj$[ebp]
  028e2	89 82 94 04 00
	00		 mov	 DWORD PTR [edx+1172], eax

; 956  : 	lpObj->m_Defense += lpObj->pInventory[1].ItemDefense();

  028e8	8b 45 f8	 mov	 eax, DWORD PTR _lpObj$[ebp]
  028eb	8b 88 24 0e 00
	00		 mov	 ecx, DWORD PTR [eax+3620]
  028f1	81 c1 d4 00 00
	00		 add	 ecx, 212		; 000000d4H
  028f7	e8 00 00 00 00	 call	 ?ItemDefense@CItem@@QAEHXZ ; CItem::ItemDefense
  028fc	8b 4d f8	 mov	 ecx, DWORD PTR _lpObj$[ebp]
  028ff	03 81 94 04 00
	00		 add	 eax, DWORD PTR [ecx+1172]
  02905	8b 55 f8	 mov	 edx, DWORD PTR _lpObj$[ebp]
  02908	89 82 94 04 00
	00		 mov	 DWORD PTR [edx+1172], eax

; 957  : 	lpObj->m_Defense += lpObj->pInventory[7].ItemDefense();

  0290e	8b 45 f8	 mov	 eax, DWORD PTR _lpObj$[ebp]
  02911	8b 88 24 0e 00
	00		 mov	 ecx, DWORD PTR [eax+3620]
  02917	81 c1 cc 05 00
	00		 add	 ecx, 1484		; 000005ccH
  0291d	e8 00 00 00 00	 call	 ?ItemDefense@CItem@@QAEHXZ ; CItem::ItemDefense
  02922	8b 4d f8	 mov	 ecx, DWORD PTR _lpObj$[ebp]
  02925	03 81 94 04 00
	00		 add	 eax, DWORD PTR [ecx+1172]
  0292b	8b 55 f8	 mov	 edx, DWORD PTR _lpObj$[ebp]
  0292e	89 82 94 04 00
	00		 mov	 DWORD PTR [edx+1172], eax

; 958  : 
; 959  : 	if ( lpObj->pInventory[8].IsItem() != FALSE )

  02934	8b 45 f8	 mov	 eax, DWORD PTR _lpObj$[ebp]
  02937	8b 88 24 0e 00
	00		 mov	 ecx, DWORD PTR [eax+3620]
  0293d	81 c1 a0 06 00
	00		 add	 ecx, 1696		; 000006a0H
  02943	e8 00 00 00 00	 call	 ?IsItem@CItem@@QAEHXZ	; CItem::IsItem
  02948	85 c0		 test	 eax, eax
  0294a	74 5e		 je	 SHORT $LN87@gObjCalCha

; 960  : 	{
; 961  : 		if ( lpObj->pInventory[8].m_Type == ITEMGET(13,4) && lpObj->pInventory[8].m_Durability > 0.0f )

  0294c	8b 45 f8	 mov	 eax, DWORD PTR _lpObj$[ebp]
  0294f	8b 88 24 0e 00
	00		 mov	 ecx, DWORD PTR [eax+3620]
  02955	0f bf 91 a6 06
	00 00		 movsx	 edx, WORD PTR [ecx+1702]
  0295c	81 fa 04 1a 00
	00		 cmp	 edx, 6660		; 00001a04H
  02962	75 46		 jne	 SHORT $LN87@gObjCalCha
  02964	8b 45 f8	 mov	 eax, DWORD PTR _lpObj$[ebp]
  02967	8b 88 24 0e 00
	00		 mov	 ecx, DWORD PTR [eax+3620]
  0296d	d9 81 c4 06 00
	00		 fld	 DWORD PTR [ecx+1732]
  02973	dc 1d 00 00 00
	00		 fcomp	 QWORD PTR __real@0000000000000000
  02979	df e0		 fnstsw	 ax
  0297b	f6 c4 41	 test	 ah, 65			; 00000041H
  0297e	75 2a		 jne	 SHORT $LN87@gObjCalCha

; 962  : 		{
; 963  : 			lpObj->m_Defense += INT( Dexterity / 20 + 5 + Helper->m_PetItem_Level * 2 );

  02980	8b 45 f0	 mov	 eax, DWORD PTR _Dexterity$[ebp]
  02983	99		 cdq
  02984	b9 14 00 00 00	 mov	 ecx, 20			; 00000014H
  02989	f7 f9		 idiv	 ecx
  0298b	8b 55 d4	 mov	 edx, DWORD PTR _Helper$[ebp]
  0298e	8b 8a bc 00 00
	00		 mov	 ecx, DWORD PTR [edx+188]
  02994	8d 54 48 05	 lea	 edx, DWORD PTR [eax+ecx*2+5]
  02998	8b 45 f8	 mov	 eax, DWORD PTR _lpObj$[ebp]
  0299b	03 90 94 04 00
	00		 add	 edx, DWORD PTR [eax+1172]
  029a1	8b 4d f8	 mov	 ecx, DWORD PTR _lpObj$[ebp]
  029a4	89 91 94 04 00
	00		 mov	 DWORD PTR [ecx+1172], edx
$LN87@gObjCalCha:

; 964  : 		}
; 965  : 	}
; 966  : 
; 967  : 	if ( lpObj->pInventory[8].IsItem() != FALSE )

  029aa	8b 45 f8	 mov	 eax, DWORD PTR _lpObj$[ebp]
  029ad	8b 88 24 0e 00
	00		 mov	 ecx, DWORD PTR [eax+3620]
  029b3	81 c1 a0 06 00
	00		 add	 ecx, 1696		; 000006a0H
  029b9	e8 00 00 00 00	 call	 ?IsItem@CItem@@QAEHXZ	; CItem::IsItem
  029be	85 c0		 test	 eax, eax
  029c0	0f 84 48 08 00
	00		 je	 $LN74@gObjCalCha

; 968  : 	{
; 969  : 		if ( lpObj->pInventory[8].m_Type == ITEMGET(13,37) && lpObj->pInventory[8].m_Durability > 0.0f ) // Golden Fenrir (Season 2.5 add-on)

  029c6	8b 45 f8	 mov	 eax, DWORD PTR _lpObj$[ebp]
  029c9	8b 88 24 0e 00
	00		 mov	 ecx, DWORD PTR [eax+3620]
  029cf	0f bf 91 a6 06
	00 00		 movsx	 edx, WORD PTR [ecx+1702]
  029d6	81 fa 25 1a 00
	00		 cmp	 edx, 6693		; 00001a25H
  029dc	0f 85 2c 08 00
	00		 jne	 $LN74@gObjCalCha
  029e2	8b 45 f8	 mov	 eax, DWORD PTR _lpObj$[ebp]
  029e5	8b 88 24 0e 00
	00		 mov	 ecx, DWORD PTR [eax+3620]
  029eb	d9 81 c4 06 00
	00		 fld	 DWORD PTR [ecx+1732]
  029f1	dc 1d 00 00 00
	00		 fcomp	 QWORD PTR __real@0000000000000000
  029f7	df e0		 fnstsw	 ax
  029f9	f6 c4 41	 test	 ah, 65			; 00000041H
  029fc	0f 85 0c 08 00
	00		 jne	 $LN74@gObjCalCha

; 970  : 		{
; 971  : 			if ( lpObj->pInventory[8].IsFenrirSpecial() != FALSE )

  02a02	8b 45 f8	 mov	 eax, DWORD PTR _lpObj$[ebp]
  02a05	8b 88 24 0e 00
	00		 mov	 ecx, DWORD PTR [eax+3620]
  02a0b	81 c1 a0 06 00
	00		 add	 ecx, 1696		; 000006a0H
  02a11	e8 00 00 00 00	 call	 ?IsFenrirSpecial@CItem@@QAEHXZ ; CItem::IsFenrirSpecial
  02a16	85 c0		 test	 eax, eax
  02a18	0f 84 26 02 00
	00		 je	 $LN83@gObjCalCha

; 972  : 			{
; 973  : 
; 974  : 				int BaseLevel = lpObj->Level + lpObj->MLevel;

  02a1e	8b 45 f8	 mov	 eax, DWORD PTR _lpObj$[ebp]
  02a21	0f bf 88 be 00
	00 00		 movsx	 ecx, WORD PTR [eax+190]
  02a28	8b 55 f8	 mov	 edx, DWORD PTR _lpObj$[ebp]
  02a2b	0f bf 82 d0 00
	00 00		 movsx	 eax, WORD PTR [edx+208]
  02a32	03 c8		 add	 ecx, eax
  02a34	89 8d 90 fe ff
	ff		 mov	 DWORD PTR _BaseLevel$232859[ebp], ecx

; 975  : 
; 976  : 				lpObj->AddLife += BaseLevel/2; //season3 changed

  02a3a	8b 85 90 fe ff
	ff		 mov	 eax, DWORD PTR _BaseLevel$232859[ebp]
  02a40	99		 cdq
  02a41	2b c2		 sub	 eax, edx
  02a43	d1 f8		 sar	 eax, 1
  02a45	8b 4d f8	 mov	 ecx, DWORD PTR _lpObj$[ebp]
  02a48	03 81 4c 01 00
	00		 add	 eax, DWORD PTR [ecx+332]
  02a4e	8b 55 f8	 mov	 edx, DWORD PTR _lpObj$[ebp]
  02a51	89 82 4c 01 00
	00		 mov	 DWORD PTR [edx+332], eax

; 977  : 				lpObj->AddMana += BaseLevel/2; //season3 changed

  02a57	8b 85 90 fe ff
	ff		 mov	 eax, DWORD PTR _BaseLevel$232859[ebp]
  02a5d	99		 cdq
  02a5e	2b c2		 sub	 eax, edx
  02a60	d1 f8		 sar	 eax, 1
  02a62	8b 4d f8	 mov	 ecx, DWORD PTR _lpObj$[ebp]
  02a65	03 81 50 01 00
	00		 add	 eax, DWORD PTR [ecx+336]
  02a6b	8b 55 f8	 mov	 edx, DWORD PTR _lpObj$[ebp]
  02a6e	89 82 50 01 00
	00		 mov	 DWORD PTR [edx+336], eax

; 978  : 
; 979  : 
; 980  : 				lpObj->m_AttackDamageMinRight += BaseLevel/12;

  02a74	8b 85 90 fe ff
	ff		 mov	 eax, DWORD PTR _BaseLevel$232859[ebp]
  02a7a	99		 cdq
  02a7b	b9 0c 00 00 00	 mov	 ecx, 12			; 0000000cH
  02a80	f7 f9		 idiv	 ecx
  02a82	8b 55 f8	 mov	 edx, DWORD PTR _lpObj$[ebp]
  02a85	03 82 84 04 00
	00		 add	 eax, DWORD PTR [edx+1156]
  02a8b	8b 4d f8	 mov	 ecx, DWORD PTR _lpObj$[ebp]
  02a8e	89 81 84 04 00
	00		 mov	 DWORD PTR [ecx+1156], eax

; 981  : 				lpObj->m_AttackDamageMaxRight += BaseLevel/12;

  02a94	8b 85 90 fe ff
	ff		 mov	 eax, DWORD PTR _BaseLevel$232859[ebp]
  02a9a	99		 cdq
  02a9b	b9 0c 00 00 00	 mov	 ecx, 12			; 0000000cH
  02aa0	f7 f9		 idiv	 ecx
  02aa2	8b 55 f8	 mov	 edx, DWORD PTR _lpObj$[ebp]
  02aa5	03 82 80 04 00
	00		 add	 eax, DWORD PTR [edx+1152]
  02aab	8b 4d f8	 mov	 ecx, DWORD PTR _lpObj$[ebp]
  02aae	89 81 80 04 00
	00		 mov	 DWORD PTR [ecx+1152], eax

; 982  : 
; 983  : 				lpObj->m_AttackDamageMinLeft += BaseLevel/12;

  02ab4	8b 85 90 fe ff
	ff		 mov	 eax, DWORD PTR _BaseLevel$232859[ebp]
  02aba	99		 cdq
  02abb	b9 0c 00 00 00	 mov	 ecx, 12			; 0000000cH
  02ac0	f7 f9		 idiv	 ecx
  02ac2	8b 55 f8	 mov	 edx, DWORD PTR _lpObj$[ebp]
  02ac5	03 82 7c 04 00
	00		 add	 eax, DWORD PTR [edx+1148]
  02acb	8b 4d f8	 mov	 ecx, DWORD PTR _lpObj$[ebp]
  02ace	89 81 7c 04 00
	00		 mov	 DWORD PTR [ecx+1148], eax

; 984  : 				lpObj->m_AttackDamageMaxLeft += BaseLevel/12;

  02ad4	8b 85 90 fe ff
	ff		 mov	 eax, DWORD PTR _BaseLevel$232859[ebp]
  02ada	99		 cdq
  02adb	b9 0c 00 00 00	 mov	 ecx, 12			; 0000000cH
  02ae0	f7 f9		 idiv	 ecx
  02ae2	8b 55 f8	 mov	 edx, DWORD PTR _lpObj$[ebp]
  02ae5	03 82 78 04 00
	00		 add	 eax, DWORD PTR [edx+1144]
  02aeb	8b 4d f8	 mov	 ecx, DWORD PTR _lpObj$[ebp]
  02aee	89 81 78 04 00
	00		 mov	 DWORD PTR [ecx+1144], eax

; 985  : 
; 986  : 				lpObj->m_MagicDamageMax += BaseLevel/25;

  02af4	8b 85 90 fe ff
	ff		 mov	 eax, DWORD PTR _BaseLevel$232859[ebp]
  02afa	99		 cdq
  02afb	b9 19 00 00 00	 mov	 ecx, 25			; 00000019H
  02b00	f7 f9		 idiv	 ecx
  02b02	8b 55 f8	 mov	 edx, DWORD PTR _lpObj$[ebp]
  02b05	03 82 6c 04 00
	00		 add	 eax, DWORD PTR [edx+1132]
  02b0b	8b 4d f8	 mov	 ecx, DWORD PTR _lpObj$[ebp]
  02b0e	89 81 6c 04 00
	00		 mov	 DWORD PTR [ecx+1132], eax

; 987  : 				lpObj->m_MagicDamageMin += BaseLevel/25;

  02b14	8b 85 90 fe ff
	ff		 mov	 eax, DWORD PTR _BaseLevel$232859[ebp]
  02b1a	99		 cdq
  02b1b	b9 19 00 00 00	 mov	 ecx, 25			; 00000019H
  02b20	f7 f9		 idiv	 ecx
  02b22	8b 55 f8	 mov	 edx, DWORD PTR _lpObj$[ebp]
  02b25	03 82 68 04 00
	00		 add	 eax, DWORD PTR [edx+1128]
  02b2b	8b 4d f8	 mov	 ecx, DWORD PTR _lpObj$[ebp]
  02b2e	89 81 68 04 00
	00		 mov	 DWORD PTR [ecx+1128], eax

; 988  : #ifdef FENRIR_CONFIG
; 989  : 				//illusian
; 990  : 
; 991  : 				if(g_ExLicense.CheckUser(eExUB::PrideMuLocal) || g_ExLicense.CheckUser(eExUB::PrideMu) || g_ExLicense.CheckUser(eExUB::Local3) || g_ExLicense.CheckUser(eExUB::Local))

  02b34	6a 1a		 push	 26			; 0000001aH
  02b36	b9 00 00 00 00	 mov	 ecx, OFFSET ?g_ExLicense@@3VCExLicense@@A ; g_ExLicense
  02b3b	e8 00 00 00 00	 call	 ?CheckUser@CExLicense@@QAE_NH@Z ; CExLicense::CheckUser
  02b40	0f b6 c0	 movzx	 eax, al
  02b43	85 c0		 test	 eax, eax
  02b45	75 3d		 jne	 SHORT $LN82@gObjCalCha
  02b47	6a 11		 push	 17			; 00000011H
  02b49	b9 00 00 00 00	 mov	 ecx, OFFSET ?g_ExLicense@@3VCExLicense@@A ; g_ExLicense
  02b4e	e8 00 00 00 00	 call	 ?CheckUser@CExLicense@@QAE_NH@Z ; CExLicense::CheckUser
  02b53	0f b6 c0	 movzx	 eax, al
  02b56	85 c0		 test	 eax, eax
  02b58	75 2a		 jne	 SHORT $LN82@gObjCalCha
  02b5a	6a 1c		 push	 28			; 0000001cH
  02b5c	b9 00 00 00 00	 mov	 ecx, OFFSET ?g_ExLicense@@3VCExLicense@@A ; g_ExLicense
  02b61	e8 00 00 00 00	 call	 ?CheckUser@CExLicense@@QAE_NH@Z ; CExLicense::CheckUser
  02b66	0f b6 c0	 movzx	 eax, al
  02b69	85 c0		 test	 eax, eax
  02b6b	75 17		 jne	 SHORT $LN82@gObjCalCha
  02b6d	6a 00		 push	 0
  02b6f	b9 00 00 00 00	 mov	 ecx, OFFSET ?g_ExLicense@@3VCExLicense@@A ; g_ExLicense
  02b74	e8 00 00 00 00	 call	 ?CheckUser@CExLicense@@QAE_NH@Z ; CExLicense::CheckUser
  02b79	0f b6 c0	 movzx	 eax, al
  02b7c	85 c0		 test	 eax, eax
  02b7e	0f 84 c0 00 00
	00		 je	 $LN83@gObjCalCha
$LN82@gObjCalCha:

; 992  : 				{
; 993  : 					lpObj->AddLife += ExConfig.PrideMu.AddLife; 

  02b84	8b 45 f8	 mov	 eax, DWORD PTR _lpObj$[ebp]
  02b87	8b 88 4c 01 00
	00		 mov	 ecx, DWORD PTR [eax+332]
  02b8d	03 0d 44 0b 00
	00		 add	 ecx, DWORD PTR ?ExConfig@@3VcExConfigs@@A+2884
  02b93	8b 55 f8	 mov	 edx, DWORD PTR _lpObj$[ebp]
  02b96	89 8a 4c 01 00
	00		 mov	 DWORD PTR [edx+332], ecx

; 994  : 					lpObj->AddMana += ExConfig.PrideMu.AddMana; 

  02b9c	8b 45 f8	 mov	 eax, DWORD PTR _lpObj$[ebp]
  02b9f	8b 88 50 01 00
	00		 mov	 ecx, DWORD PTR [eax+336]
  02ba5	03 0d 48 0b 00
	00		 add	 ecx, DWORD PTR ?ExConfig@@3VcExConfigs@@A+2888
  02bab	8b 55 f8	 mov	 edx, DWORD PTR _lpObj$[ebp]
  02bae	89 8a 50 01 00
	00		 mov	 DWORD PTR [edx+336], ecx

; 995  : 
; 996  : 
; 997  : 					lpObj->m_AttackDamageMinRight += ExConfig.PrideMu.AttackDamageMin;

  02bb4	8b 45 f8	 mov	 eax, DWORD PTR _lpObj$[ebp]
  02bb7	8b 88 84 04 00
	00		 mov	 ecx, DWORD PTR [eax+1156]
  02bbd	03 0d 4c 0b 00
	00		 add	 ecx, DWORD PTR ?ExConfig@@3VcExConfigs@@A+2892
  02bc3	8b 55 f8	 mov	 edx, DWORD PTR _lpObj$[ebp]
  02bc6	89 8a 84 04 00
	00		 mov	 DWORD PTR [edx+1156], ecx

; 998  : 					lpObj->m_AttackDamageMaxRight += ExConfig.PrideMu.AttackDamageMax;

  02bcc	8b 45 f8	 mov	 eax, DWORD PTR _lpObj$[ebp]
  02bcf	8b 88 80 04 00
	00		 mov	 ecx, DWORD PTR [eax+1152]
  02bd5	03 0d 50 0b 00
	00		 add	 ecx, DWORD PTR ?ExConfig@@3VcExConfigs@@A+2896
  02bdb	8b 55 f8	 mov	 edx, DWORD PTR _lpObj$[ebp]
  02bde	89 8a 80 04 00
	00		 mov	 DWORD PTR [edx+1152], ecx

; 999  : 
; 1000 : 					lpObj->m_AttackDamageMinLeft += ExConfig.PrideMu.AttackDamageMin;

  02be4	8b 45 f8	 mov	 eax, DWORD PTR _lpObj$[ebp]
  02be7	8b 88 7c 04 00
	00		 mov	 ecx, DWORD PTR [eax+1148]
  02bed	03 0d 4c 0b 00
	00		 add	 ecx, DWORD PTR ?ExConfig@@3VcExConfigs@@A+2892
  02bf3	8b 55 f8	 mov	 edx, DWORD PTR _lpObj$[ebp]
  02bf6	89 8a 7c 04 00
	00		 mov	 DWORD PTR [edx+1148], ecx

; 1001 : 					lpObj->m_AttackDamageMaxLeft += ExConfig.PrideMu.AttackDamageMax;

  02bfc	8b 45 f8	 mov	 eax, DWORD PTR _lpObj$[ebp]
  02bff	8b 88 78 04 00
	00		 mov	 ecx, DWORD PTR [eax+1144]
  02c05	03 0d 50 0b 00
	00		 add	 ecx, DWORD PTR ?ExConfig@@3VcExConfigs@@A+2896
  02c0b	8b 55 f8	 mov	 edx, DWORD PTR _lpObj$[ebp]
  02c0e	89 8a 78 04 00
	00		 mov	 DWORD PTR [edx+1144], ecx

; 1002 : 
; 1003 : 					lpObj->m_MagicDamageMax += ExConfig.PrideMu.MagicDamageMax;

  02c14	8b 45 f8	 mov	 eax, DWORD PTR _lpObj$[ebp]
  02c17	8b 88 6c 04 00
	00		 mov	 ecx, DWORD PTR [eax+1132]
  02c1d	03 0d 58 0b 00
	00		 add	 ecx, DWORD PTR ?ExConfig@@3VcExConfigs@@A+2904
  02c23	8b 55 f8	 mov	 edx, DWORD PTR _lpObj$[ebp]
  02c26	89 8a 6c 04 00
	00		 mov	 DWORD PTR [edx+1132], ecx

; 1004 : 					lpObj->m_MagicDamageMin += ExConfig.PrideMu.MagicDamageMin;

  02c2c	8b 45 f8	 mov	 eax, DWORD PTR _lpObj$[ebp]
  02c2f	8b 88 68 04 00
	00		 mov	 ecx, DWORD PTR [eax+1128]
  02c35	03 0d 54 0b 00
	00		 add	 ecx, DWORD PTR ?ExConfig@@3VcExConfigs@@A+2900
  02c3b	8b 55 f8	 mov	 edx, DWORD PTR _lpObj$[ebp]
  02c3e	89 8a 68 04 00
	00		 mov	 DWORD PTR [edx+1128], ecx
$LN83@gObjCalCha:

; 1005 : 				}
; 1006 : #endif
; 1007 : 			}
; 1008 : 
; 1009 : 			if(g_ExLicense.CheckUser(eExUB::Gredy) || g_ExLicense.CheckUser(eExUB::GredyLocal) || g_ExLicense.CheckUser(eExUB::Gredy2) ||
; 1010 : 				g_ExLicense.CheckUser(eExUB::ulasevich) || g_ExLicense.CheckUser(eExUB::ulasevich2))

  02c44	6a 20		 push	 32			; 00000020H
  02c46	b9 00 00 00 00	 mov	 ecx, OFFSET ?g_ExLicense@@3VCExLicense@@A ; g_ExLicense
  02c4b	e8 00 00 00 00	 call	 ?CheckUser@CExLicense@@QAE_NH@Z ; CExLicense::CheckUser
  02c50	0f b6 c0	 movzx	 eax, al
  02c53	85 c0		 test	 eax, eax
  02c55	75 50		 jne	 SHORT $LN80@gObjCalCha
  02c57	6a 21		 push	 33			; 00000021H
  02c59	b9 00 00 00 00	 mov	 ecx, OFFSET ?g_ExLicense@@3VCExLicense@@A ; g_ExLicense
  02c5e	e8 00 00 00 00	 call	 ?CheckUser@CExLicense@@QAE_NH@Z ; CExLicense::CheckUser
  02c63	0f b6 c0	 movzx	 eax, al
  02c66	85 c0		 test	 eax, eax
  02c68	75 3d		 jne	 SHORT $LN80@gObjCalCha
  02c6a	6a 22		 push	 34			; 00000022H
  02c6c	b9 00 00 00 00	 mov	 ecx, OFFSET ?g_ExLicense@@3VCExLicense@@A ; g_ExLicense
  02c71	e8 00 00 00 00	 call	 ?CheckUser@CExLicense@@QAE_NH@Z ; CExLicense::CheckUser
  02c76	0f b6 c0	 movzx	 eax, al
  02c79	85 c0		 test	 eax, eax
  02c7b	75 2a		 jne	 SHORT $LN80@gObjCalCha
  02c7d	6a 17		 push	 23			; 00000017H
  02c7f	b9 00 00 00 00	 mov	 ecx, OFFSET ?g_ExLicense@@3VCExLicense@@A ; g_ExLicense
  02c84	e8 00 00 00 00	 call	 ?CheckUser@CExLicense@@QAE_NH@Z ; CExLicense::CheckUser
  02c89	0f b6 c0	 movzx	 eax, al
  02c8c	85 c0		 test	 eax, eax
  02c8e	75 17		 jne	 SHORT $LN80@gObjCalCha
  02c90	6a 24		 push	 36			; 00000024H
  02c92	b9 00 00 00 00	 mov	 ecx, OFFSET ?g_ExLicense@@3VCExLicense@@A ; g_ExLicense
  02c97	e8 00 00 00 00	 call	 ?CheckUser@CExLicense@@QAE_NH@Z ; CExLicense::CheckUser
  02c9c	0f b6 c0	 movzx	 eax, al
  02c9f	85 c0		 test	 eax, eax
  02ca1	0f 84 67 05 00
	00		 je	 $LN74@gObjCalCha
$LN80@gObjCalCha:

; 1011 : 			{
; 1012 : 				if ( lpObj->pInventory[8].IsFenrirIncLastAttackDamage() != FALSE )	// Black Fenrir

  02ca7	8b 45 f8	 mov	 eax, DWORD PTR _lpObj$[ebp]
  02caa	8b 88 24 0e 00
	00		 mov	 ecx, DWORD PTR [eax+3620]
  02cb0	81 c1 a0 06 00
	00		 add	 ecx, 1696		; 000006a0H
  02cb6	e8 00 00 00 00	 call	 ?IsFenrirIncLastAttackDamage@CItem@@QAEHXZ ; CItem::IsFenrirIncLastAttackDamage
  02cbb	85 c0		 test	 eax, eax
  02cbd	0f 84 46 01 00
	00		 je	 $LN79@gObjCalCha

; 1013 : 				{
; 1014 : 					lpObj->m_AttackDamageMinRight += ( lpObj->m_AttackDamageMinRight * ExConfig.Pet.BlackFenrirProcDamage ) / 100; 

  02cc3	8b 45 f8	 mov	 eax, DWORD PTR _lpObj$[ebp]
  02cc6	8b 80 84 04 00
	00		 mov	 eax, DWORD PTR [eax+1156]
  02ccc	0f af 05 84 08
	00 00		 imul	 eax, DWORD PTR ?ExConfig@@3VcExConfigs@@A+2180
  02cd3	99		 cdq
  02cd4	b9 64 00 00 00	 mov	 ecx, 100		; 00000064H
  02cd9	f7 f9		 idiv	 ecx
  02cdb	8b 55 f8	 mov	 edx, DWORD PTR _lpObj$[ebp]
  02cde	03 82 84 04 00
	00		 add	 eax, DWORD PTR [edx+1156]
  02ce4	8b 4d f8	 mov	 ecx, DWORD PTR _lpObj$[ebp]
  02ce7	89 81 84 04 00
	00		 mov	 DWORD PTR [ecx+1156], eax

; 1015 : 					lpObj->m_AttackDamageMaxRight += ( lpObj->m_AttackDamageMaxRight * ExConfig.Pet.BlackFenrirProcDamage ) / 100; 

  02ced	8b 45 f8	 mov	 eax, DWORD PTR _lpObj$[ebp]
  02cf0	8b 80 80 04 00
	00		 mov	 eax, DWORD PTR [eax+1152]
  02cf6	0f af 05 84 08
	00 00		 imul	 eax, DWORD PTR ?ExConfig@@3VcExConfigs@@A+2180
  02cfd	99		 cdq
  02cfe	b9 64 00 00 00	 mov	 ecx, 100		; 00000064H
  02d03	f7 f9		 idiv	 ecx
  02d05	8b 55 f8	 mov	 edx, DWORD PTR _lpObj$[ebp]
  02d08	03 82 80 04 00
	00		 add	 eax, DWORD PTR [edx+1152]
  02d0e	8b 4d f8	 mov	 ecx, DWORD PTR _lpObj$[ebp]
  02d11	89 81 80 04 00
	00		 mov	 DWORD PTR [ecx+1152], eax

; 1016 : 					lpObj->m_AttackDamageMinLeft += ( lpObj->m_AttackDamageMinLeft * ExConfig.Pet.BlackFenrirProcDamage ) / 100; 

  02d17	8b 45 f8	 mov	 eax, DWORD PTR _lpObj$[ebp]
  02d1a	8b 80 7c 04 00
	00		 mov	 eax, DWORD PTR [eax+1148]
  02d20	0f af 05 84 08
	00 00		 imul	 eax, DWORD PTR ?ExConfig@@3VcExConfigs@@A+2180
  02d27	99		 cdq
  02d28	b9 64 00 00 00	 mov	 ecx, 100		; 00000064H
  02d2d	f7 f9		 idiv	 ecx
  02d2f	8b 55 f8	 mov	 edx, DWORD PTR _lpObj$[ebp]
  02d32	03 82 7c 04 00
	00		 add	 eax, DWORD PTR [edx+1148]
  02d38	8b 4d f8	 mov	 ecx, DWORD PTR _lpObj$[ebp]
  02d3b	89 81 7c 04 00
	00		 mov	 DWORD PTR [ecx+1148], eax

; 1017 : 					lpObj->m_AttackDamageMaxLeft += ( lpObj->m_AttackDamageMaxLeft * ExConfig.Pet.BlackFenrirProcDamage ) / 100; 

  02d41	8b 45 f8	 mov	 eax, DWORD PTR _lpObj$[ebp]
  02d44	8b 80 78 04 00
	00		 mov	 eax, DWORD PTR [eax+1144]
  02d4a	0f af 05 84 08
	00 00		 imul	 eax, DWORD PTR ?ExConfig@@3VcExConfigs@@A+2180
  02d51	99		 cdq
  02d52	b9 64 00 00 00	 mov	 ecx, 100		; 00000064H
  02d57	f7 f9		 idiv	 ecx
  02d59	8b 55 f8	 mov	 edx, DWORD PTR _lpObj$[ebp]
  02d5c	03 82 78 04 00
	00		 add	 eax, DWORD PTR [edx+1144]
  02d62	8b 4d f8	 mov	 ecx, DWORD PTR _lpObj$[ebp]
  02d65	89 81 78 04 00
	00		 mov	 DWORD PTR [ecx+1144], eax

; 1018 : 					lpObj->m_MagicDamageMax += ( lpObj->m_MagicDamageMax * ExConfig.Pet.BlackFenrirProcDamage ) / 100; 

  02d6b	8b 45 f8	 mov	 eax, DWORD PTR _lpObj$[ebp]
  02d6e	8b 80 6c 04 00
	00		 mov	 eax, DWORD PTR [eax+1132]
  02d74	0f af 05 84 08
	00 00		 imul	 eax, DWORD PTR ?ExConfig@@3VcExConfigs@@A+2180
  02d7b	99		 cdq
  02d7c	b9 64 00 00 00	 mov	 ecx, 100		; 00000064H
  02d81	f7 f9		 idiv	 ecx
  02d83	8b 55 f8	 mov	 edx, DWORD PTR _lpObj$[ebp]
  02d86	03 82 6c 04 00
	00		 add	 eax, DWORD PTR [edx+1132]
  02d8c	8b 4d f8	 mov	 ecx, DWORD PTR _lpObj$[ebp]
  02d8f	89 81 6c 04 00
	00		 mov	 DWORD PTR [ecx+1132], eax

; 1019 : 					lpObj->m_MagicDamageMin += ( lpObj->m_MagicDamageMin * ExConfig.Pet.BlackFenrirProcDamage ) / 100; 

  02d95	8b 45 f8	 mov	 eax, DWORD PTR _lpObj$[ebp]
  02d98	8b 80 68 04 00
	00		 mov	 eax, DWORD PTR [eax+1128]
  02d9e	0f af 05 84 08
	00 00		 imul	 eax, DWORD PTR ?ExConfig@@3VcExConfigs@@A+2180
  02da5	99		 cdq
  02da6	b9 64 00 00 00	 mov	 ecx, 100		; 00000064H
  02dab	f7 f9		 idiv	 ecx
  02dad	8b 55 f8	 mov	 edx, DWORD PTR _lpObj$[ebp]
  02db0	03 82 68 04 00
	00		 add	 eax, DWORD PTR [edx+1128]
  02db6	8b 4d f8	 mov	 ecx, DWORD PTR _lpObj$[ebp]
  02db9	89 81 68 04 00
	00		 mov	 DWORD PTR [ecx+1128], eax

; 1020 : 					lpObj->DamageMinus += ExConfig.Pet.BlackFenrirProcAbsurd;

  02dbf	8b 45 f8	 mov	 eax, DWORD PTR _lpObj$[ebp]
  02dc2	0f b6 88 70 01
	00 00		 movzx	 ecx, BYTE PTR [eax+368]
  02dc9	03 0d 88 08 00
	00		 add	 ecx, DWORD PTR ?ExConfig@@3VcExConfigs@@A+2184
  02dcf	8b 55 f8	 mov	 edx, DWORD PTR _lpObj$[ebp]
  02dd2	88 8a 70 01 00
	00		 mov	 BYTE PTR [edx+368], cl

; 1021 : 					lpObj->AddLife += ( lpObj->MaxLife * ExConfig.Pet.BlackFenrirProcLife ) / 100; 

  02dd8	db 05 8c 08 00
	00		 fild	 DWORD PTR ?ExConfig@@3VcExConfigs@@A+2188
  02dde	8b 45 f8	 mov	 eax, DWORD PTR _lpObj$[ebp]
  02de1	d8 88 00 01 00
	00		 fmul	 DWORD PTR [eax+256]
  02de7	dc 35 00 00 00
	00		 fdiv	 QWORD PTR __real@4059000000000000
  02ded	8b 4d f8	 mov	 ecx, DWORD PTR _lpObj$[ebp]
  02df0	da 81 4c 01 00
	00		 fiadd	 DWORD PTR [ecx+332]
  02df6	e8 00 00 00 00	 call	 __ftol2_sse
  02dfb	8b 55 f8	 mov	 edx, DWORD PTR _lpObj$[ebp]
  02dfe	89 82 4c 01 00
	00		 mov	 DWORD PTR [edx+332], eax
  02e04	e9 05 04 00 00	 jmp	 $LN74@gObjCalCha
$LN79@gObjCalCha:

; 1022 : 				}
; 1023 : 				else if ( lpObj->pInventory[8].IsFenrirDecLastAttackDamage() != FALSE )	// Blue Fenrir

  02e09	8b 45 f8	 mov	 eax, DWORD PTR _lpObj$[ebp]
  02e0c	8b 88 24 0e 00
	00		 mov	 ecx, DWORD PTR [eax+3620]
  02e12	81 c1 a0 06 00
	00		 add	 ecx, 1696		; 000006a0H
  02e18	e8 00 00 00 00	 call	 ?IsFenrirDecLastAttackDamage@CItem@@QAEHXZ ; CItem::IsFenrirDecLastAttackDamage
  02e1d	85 c0		 test	 eax, eax
  02e1f	0f 84 46 01 00
	00		 je	 $LN77@gObjCalCha

; 1024 : 				{
; 1025 : 					lpObj->m_AttackDamageMinRight += ( lpObj->m_AttackDamageMinRight * ExConfig.Pet.BlueFenrirProcDamage ) / 100; 

  02e25	8b 45 f8	 mov	 eax, DWORD PTR _lpObj$[ebp]
  02e28	8b 80 84 04 00
	00		 mov	 eax, DWORD PTR [eax+1156]
  02e2e	0f af 05 74 08
	00 00		 imul	 eax, DWORD PTR ?ExConfig@@3VcExConfigs@@A+2164
  02e35	99		 cdq
  02e36	b9 64 00 00 00	 mov	 ecx, 100		; 00000064H
  02e3b	f7 f9		 idiv	 ecx
  02e3d	8b 55 f8	 mov	 edx, DWORD PTR _lpObj$[ebp]
  02e40	03 82 84 04 00
	00		 add	 eax, DWORD PTR [edx+1156]
  02e46	8b 4d f8	 mov	 ecx, DWORD PTR _lpObj$[ebp]
  02e49	89 81 84 04 00
	00		 mov	 DWORD PTR [ecx+1156], eax

; 1026 : 					lpObj->m_AttackDamageMaxRight += ( lpObj->m_AttackDamageMaxRight * ExConfig.Pet.BlueFenrirProcDamage ) / 100; 

  02e4f	8b 45 f8	 mov	 eax, DWORD PTR _lpObj$[ebp]
  02e52	8b 80 80 04 00
	00		 mov	 eax, DWORD PTR [eax+1152]
  02e58	0f af 05 74 08
	00 00		 imul	 eax, DWORD PTR ?ExConfig@@3VcExConfigs@@A+2164
  02e5f	99		 cdq
  02e60	b9 64 00 00 00	 mov	 ecx, 100		; 00000064H
  02e65	f7 f9		 idiv	 ecx
  02e67	8b 55 f8	 mov	 edx, DWORD PTR _lpObj$[ebp]
  02e6a	03 82 80 04 00
	00		 add	 eax, DWORD PTR [edx+1152]
  02e70	8b 4d f8	 mov	 ecx, DWORD PTR _lpObj$[ebp]
  02e73	89 81 80 04 00
	00		 mov	 DWORD PTR [ecx+1152], eax

; 1027 : 					lpObj->m_AttackDamageMinLeft += ( lpObj->m_AttackDamageMinLeft * ExConfig.Pet.BlueFenrirProcDamage ) / 100; 

  02e79	8b 45 f8	 mov	 eax, DWORD PTR _lpObj$[ebp]
  02e7c	8b 80 7c 04 00
	00		 mov	 eax, DWORD PTR [eax+1148]
  02e82	0f af 05 74 08
	00 00		 imul	 eax, DWORD PTR ?ExConfig@@3VcExConfigs@@A+2164
  02e89	99		 cdq
  02e8a	b9 64 00 00 00	 mov	 ecx, 100		; 00000064H
  02e8f	f7 f9		 idiv	 ecx
  02e91	8b 55 f8	 mov	 edx, DWORD PTR _lpObj$[ebp]
  02e94	03 82 7c 04 00
	00		 add	 eax, DWORD PTR [edx+1148]
  02e9a	8b 4d f8	 mov	 ecx, DWORD PTR _lpObj$[ebp]
  02e9d	89 81 7c 04 00
	00		 mov	 DWORD PTR [ecx+1148], eax

; 1028 : 					lpObj->m_AttackDamageMaxLeft += ( lpObj->m_AttackDamageMaxLeft * ExConfig.Pet.BlueFenrirProcDamage ) / 100; 

  02ea3	8b 45 f8	 mov	 eax, DWORD PTR _lpObj$[ebp]
  02ea6	8b 80 78 04 00
	00		 mov	 eax, DWORD PTR [eax+1144]
  02eac	0f af 05 74 08
	00 00		 imul	 eax, DWORD PTR ?ExConfig@@3VcExConfigs@@A+2164
  02eb3	99		 cdq
  02eb4	b9 64 00 00 00	 mov	 ecx, 100		; 00000064H
  02eb9	f7 f9		 idiv	 ecx
  02ebb	8b 55 f8	 mov	 edx, DWORD PTR _lpObj$[ebp]
  02ebe	03 82 78 04 00
	00		 add	 eax, DWORD PTR [edx+1144]
  02ec4	8b 4d f8	 mov	 ecx, DWORD PTR _lpObj$[ebp]
  02ec7	89 81 78 04 00
	00		 mov	 DWORD PTR [ecx+1144], eax

; 1029 : 					lpObj->m_MagicDamageMax += ( lpObj->m_MagicDamageMax * ExConfig.Pet.BlueFenrirProcDamage ) / 100; 

  02ecd	8b 45 f8	 mov	 eax, DWORD PTR _lpObj$[ebp]
  02ed0	8b 80 6c 04 00
	00		 mov	 eax, DWORD PTR [eax+1132]
  02ed6	0f af 05 74 08
	00 00		 imul	 eax, DWORD PTR ?ExConfig@@3VcExConfigs@@A+2164
  02edd	99		 cdq
  02ede	b9 64 00 00 00	 mov	 ecx, 100		; 00000064H
  02ee3	f7 f9		 idiv	 ecx
  02ee5	8b 55 f8	 mov	 edx, DWORD PTR _lpObj$[ebp]
  02ee8	03 82 6c 04 00
	00		 add	 eax, DWORD PTR [edx+1132]
  02eee	8b 4d f8	 mov	 ecx, DWORD PTR _lpObj$[ebp]
  02ef1	89 81 6c 04 00
	00		 mov	 DWORD PTR [ecx+1132], eax

; 1030 : 					lpObj->m_MagicDamageMin += ( lpObj->m_MagicDamageMin * ExConfig.Pet.BlueFenrirProcDamage ) / 100; 

  02ef7	8b 45 f8	 mov	 eax, DWORD PTR _lpObj$[ebp]
  02efa	8b 80 68 04 00
	00		 mov	 eax, DWORD PTR [eax+1128]
  02f00	0f af 05 74 08
	00 00		 imul	 eax, DWORD PTR ?ExConfig@@3VcExConfigs@@A+2164
  02f07	99		 cdq
  02f08	b9 64 00 00 00	 mov	 ecx, 100		; 00000064H
  02f0d	f7 f9		 idiv	 ecx
  02f0f	8b 55 f8	 mov	 edx, DWORD PTR _lpObj$[ebp]
  02f12	03 82 68 04 00
	00		 add	 eax, DWORD PTR [edx+1128]
  02f18	8b 4d f8	 mov	 ecx, DWORD PTR _lpObj$[ebp]
  02f1b	89 81 68 04 00
	00		 mov	 DWORD PTR [ecx+1128], eax

; 1031 : 					lpObj->DamageMinus += ExConfig.Pet.BlueFenrirProcAbsurd;

  02f21	8b 45 f8	 mov	 eax, DWORD PTR _lpObj$[ebp]
  02f24	0f b6 88 70 01
	00 00		 movzx	 ecx, BYTE PTR [eax+368]
  02f2b	03 0d 78 08 00
	00		 add	 ecx, DWORD PTR ?ExConfig@@3VcExConfigs@@A+2168
  02f31	8b 55 f8	 mov	 edx, DWORD PTR _lpObj$[ebp]
  02f34	88 8a 70 01 00
	00		 mov	 BYTE PTR [edx+368], cl

; 1032 : 					lpObj->AddLife += ( lpObj->MaxLife * ExConfig.Pet.BlueFenrirProcLife ) / 100; 				 

  02f3a	db 05 7c 08 00
	00		 fild	 DWORD PTR ?ExConfig@@3VcExConfigs@@A+2172
  02f40	8b 45 f8	 mov	 eax, DWORD PTR _lpObj$[ebp]
  02f43	d8 88 00 01 00
	00		 fmul	 DWORD PTR [eax+256]
  02f49	dc 35 00 00 00
	00		 fdiv	 QWORD PTR __real@4059000000000000
  02f4f	8b 4d f8	 mov	 ecx, DWORD PTR _lpObj$[ebp]
  02f52	da 81 4c 01 00
	00		 fiadd	 DWORD PTR [ecx+332]
  02f58	e8 00 00 00 00	 call	 __ftol2_sse
  02f5d	8b 55 f8	 mov	 edx, DWORD PTR _lpObj$[ebp]
  02f60	89 82 4c 01 00
	00		 mov	 DWORD PTR [edx+332], eax
  02f66	e9 a3 02 00 00	 jmp	 $LN74@gObjCalCha
$LN77@gObjCalCha:

; 1033 : 				}
; 1034 : 				else if ( lpObj->pInventory[8].IsFenrirSpecial() != FALSE )	// Illusion Fenrir

  02f6b	8b 45 f8	 mov	 eax, DWORD PTR _lpObj$[ebp]
  02f6e	8b 88 24 0e 00
	00		 mov	 ecx, DWORD PTR [eax+3620]
  02f74	81 c1 a0 06 00
	00		 add	 ecx, 1696		; 000006a0H
  02f7a	e8 00 00 00 00	 call	 ?IsFenrirSpecial@CItem@@QAEHXZ ; CItem::IsFenrirSpecial
  02f7f	85 c0		 test	 eax, eax
  02f81	0f 84 46 01 00
	00		 je	 $LN75@gObjCalCha

; 1035 : 				{
; 1036 : 					lpObj->m_AttackDamageMinRight += ( lpObj->m_AttackDamageMinRight * ExConfig.Pet.GoldFenrirProcDamage ) / 100; 

  02f87	8b 45 f8	 mov	 eax, DWORD PTR _lpObj$[ebp]
  02f8a	8b 80 84 04 00
	00		 mov	 eax, DWORD PTR [eax+1156]
  02f90	0f af 05 94 08
	00 00		 imul	 eax, DWORD PTR ?ExConfig@@3VcExConfigs@@A+2196
  02f97	99		 cdq
  02f98	b9 64 00 00 00	 mov	 ecx, 100		; 00000064H
  02f9d	f7 f9		 idiv	 ecx
  02f9f	8b 55 f8	 mov	 edx, DWORD PTR _lpObj$[ebp]
  02fa2	03 82 84 04 00
	00		 add	 eax, DWORD PTR [edx+1156]
  02fa8	8b 4d f8	 mov	 ecx, DWORD PTR _lpObj$[ebp]
  02fab	89 81 84 04 00
	00		 mov	 DWORD PTR [ecx+1156], eax

; 1037 : 					lpObj->m_AttackDamageMaxRight += ( lpObj->m_AttackDamageMaxRight * ExConfig.Pet.GoldFenrirProcDamage ) / 100; 

  02fb1	8b 45 f8	 mov	 eax, DWORD PTR _lpObj$[ebp]
  02fb4	8b 80 80 04 00
	00		 mov	 eax, DWORD PTR [eax+1152]
  02fba	0f af 05 94 08
	00 00		 imul	 eax, DWORD PTR ?ExConfig@@3VcExConfigs@@A+2196
  02fc1	99		 cdq
  02fc2	b9 64 00 00 00	 mov	 ecx, 100		; 00000064H
  02fc7	f7 f9		 idiv	 ecx
  02fc9	8b 55 f8	 mov	 edx, DWORD PTR _lpObj$[ebp]
  02fcc	03 82 80 04 00
	00		 add	 eax, DWORD PTR [edx+1152]
  02fd2	8b 4d f8	 mov	 ecx, DWORD PTR _lpObj$[ebp]
  02fd5	89 81 80 04 00
	00		 mov	 DWORD PTR [ecx+1152], eax

; 1038 : 					lpObj->m_AttackDamageMinLeft += ( lpObj->m_AttackDamageMinLeft * ExConfig.Pet.GoldFenrirProcDamage ) / 100; 

  02fdb	8b 45 f8	 mov	 eax, DWORD PTR _lpObj$[ebp]
  02fde	8b 80 7c 04 00
	00		 mov	 eax, DWORD PTR [eax+1148]
  02fe4	0f af 05 94 08
	00 00		 imul	 eax, DWORD PTR ?ExConfig@@3VcExConfigs@@A+2196
  02feb	99		 cdq
  02fec	b9 64 00 00 00	 mov	 ecx, 100		; 00000064H
  02ff1	f7 f9		 idiv	 ecx
  02ff3	8b 55 f8	 mov	 edx, DWORD PTR _lpObj$[ebp]
  02ff6	03 82 7c 04 00
	00		 add	 eax, DWORD PTR [edx+1148]
  02ffc	8b 4d f8	 mov	 ecx, DWORD PTR _lpObj$[ebp]
  02fff	89 81 7c 04 00
	00		 mov	 DWORD PTR [ecx+1148], eax

; 1039 : 					lpObj->m_AttackDamageMaxLeft += ( lpObj->m_AttackDamageMaxLeft * ExConfig.Pet.GoldFenrirProcDamage ) / 100; 

  03005	8b 45 f8	 mov	 eax, DWORD PTR _lpObj$[ebp]
  03008	8b 80 78 04 00
	00		 mov	 eax, DWORD PTR [eax+1144]
  0300e	0f af 05 94 08
	00 00		 imul	 eax, DWORD PTR ?ExConfig@@3VcExConfigs@@A+2196
  03015	99		 cdq
  03016	b9 64 00 00 00	 mov	 ecx, 100		; 00000064H
  0301b	f7 f9		 idiv	 ecx
  0301d	8b 55 f8	 mov	 edx, DWORD PTR _lpObj$[ebp]
  03020	03 82 78 04 00
	00		 add	 eax, DWORD PTR [edx+1144]
  03026	8b 4d f8	 mov	 ecx, DWORD PTR _lpObj$[ebp]
  03029	89 81 78 04 00
	00		 mov	 DWORD PTR [ecx+1144], eax

; 1040 : 					lpObj->m_MagicDamageMax += ( lpObj->m_MagicDamageMax * ExConfig.Pet.GoldFenrirProcDamage ) / 100; 

  0302f	8b 45 f8	 mov	 eax, DWORD PTR _lpObj$[ebp]
  03032	8b 80 6c 04 00
	00		 mov	 eax, DWORD PTR [eax+1132]
  03038	0f af 05 94 08
	00 00		 imul	 eax, DWORD PTR ?ExConfig@@3VcExConfigs@@A+2196
  0303f	99		 cdq
  03040	b9 64 00 00 00	 mov	 ecx, 100		; 00000064H
  03045	f7 f9		 idiv	 ecx
  03047	8b 55 f8	 mov	 edx, DWORD PTR _lpObj$[ebp]
  0304a	03 82 6c 04 00
	00		 add	 eax, DWORD PTR [edx+1132]
  03050	8b 4d f8	 mov	 ecx, DWORD PTR _lpObj$[ebp]
  03053	89 81 6c 04 00
	00		 mov	 DWORD PTR [ecx+1132], eax

; 1041 : 					lpObj->m_MagicDamageMin += ( lpObj->m_MagicDamageMin * ExConfig.Pet.GoldFenrirProcDamage ) / 100; 

  03059	8b 45 f8	 mov	 eax, DWORD PTR _lpObj$[ebp]
  0305c	8b 80 68 04 00
	00		 mov	 eax, DWORD PTR [eax+1128]
  03062	0f af 05 94 08
	00 00		 imul	 eax, DWORD PTR ?ExConfig@@3VcExConfigs@@A+2196
  03069	99		 cdq
  0306a	b9 64 00 00 00	 mov	 ecx, 100		; 00000064H
  0306f	f7 f9		 idiv	 ecx
  03071	8b 55 f8	 mov	 edx, DWORD PTR _lpObj$[ebp]
  03074	03 82 68 04 00
	00		 add	 eax, DWORD PTR [edx+1128]
  0307a	8b 4d f8	 mov	 ecx, DWORD PTR _lpObj$[ebp]
  0307d	89 81 68 04 00
	00		 mov	 DWORD PTR [ecx+1128], eax

; 1042 : 					lpObj->DamageMinus += ExConfig.Pet.GoldFenrirProcAbsurd;

  03083	8b 45 f8	 mov	 eax, DWORD PTR _lpObj$[ebp]
  03086	0f b6 88 70 01
	00 00		 movzx	 ecx, BYTE PTR [eax+368]
  0308d	03 0d 98 08 00
	00		 add	 ecx, DWORD PTR ?ExConfig@@3VcExConfigs@@A+2200
  03093	8b 55 f8	 mov	 edx, DWORD PTR _lpObj$[ebp]
  03096	88 8a 70 01 00
	00		 mov	 BYTE PTR [edx+368], cl

; 1043 : 					lpObj->AddLife += ( lpObj->MaxLife * ExConfig.Pet.GoldFenrirProcLife ) / 100; 				

  0309c	db 05 9c 08 00
	00		 fild	 DWORD PTR ?ExConfig@@3VcExConfigs@@A+2204
  030a2	8b 45 f8	 mov	 eax, DWORD PTR _lpObj$[ebp]
  030a5	d8 88 00 01 00
	00		 fmul	 DWORD PTR [eax+256]
  030ab	dc 35 00 00 00
	00		 fdiv	 QWORD PTR __real@4059000000000000
  030b1	8b 4d f8	 mov	 ecx, DWORD PTR _lpObj$[ebp]
  030b4	da 81 4c 01 00
	00		 fiadd	 DWORD PTR [ecx+332]
  030ba	e8 00 00 00 00	 call	 __ftol2_sse
  030bf	8b 55 f8	 mov	 edx, DWORD PTR _lpObj$[ebp]
  030c2	89 82 4c 01 00
	00		 mov	 DWORD PTR [edx+332], eax

; 1044 : 				}
; 1045 : 				else	//red 

  030c8	e9 41 01 00 00	 jmp	 $LN74@gObjCalCha
$LN75@gObjCalCha:

; 1046 : 				{
; 1047 : 					lpObj->m_AttackDamageMinRight += ( lpObj->m_AttackDamageMinRight * ExConfig.Pet.RedFenrirProcDamage ) / 100; 

  030cd	8b 45 f8	 mov	 eax, DWORD PTR _lpObj$[ebp]
  030d0	8b 80 84 04 00
	00		 mov	 eax, DWORD PTR [eax+1156]
  030d6	0f af 05 64 08
	00 00		 imul	 eax, DWORD PTR ?ExConfig@@3VcExConfigs@@A+2148
  030dd	99		 cdq
  030de	b9 64 00 00 00	 mov	 ecx, 100		; 00000064H
  030e3	f7 f9		 idiv	 ecx
  030e5	8b 55 f8	 mov	 edx, DWORD PTR _lpObj$[ebp]
  030e8	03 82 84 04 00
	00		 add	 eax, DWORD PTR [edx+1156]
  030ee	8b 4d f8	 mov	 ecx, DWORD PTR _lpObj$[ebp]
  030f1	89 81 84 04 00
	00		 mov	 DWORD PTR [ecx+1156], eax

; 1048 : 					lpObj->m_AttackDamageMaxRight += ( lpObj->m_AttackDamageMaxRight * ExConfig.Pet.RedFenrirProcDamage ) / 100; 

  030f7	8b 45 f8	 mov	 eax, DWORD PTR _lpObj$[ebp]
  030fa	8b 80 80 04 00
	00		 mov	 eax, DWORD PTR [eax+1152]
  03100	0f af 05 64 08
	00 00		 imul	 eax, DWORD PTR ?ExConfig@@3VcExConfigs@@A+2148
  03107	99		 cdq
  03108	b9 64 00 00 00	 mov	 ecx, 100		; 00000064H
  0310d	f7 f9		 idiv	 ecx
  0310f	8b 55 f8	 mov	 edx, DWORD PTR _lpObj$[ebp]
  03112	03 82 80 04 00
	00		 add	 eax, DWORD PTR [edx+1152]
  03118	8b 4d f8	 mov	 ecx, DWORD PTR _lpObj$[ebp]
  0311b	89 81 80 04 00
	00		 mov	 DWORD PTR [ecx+1152], eax

; 1049 : 					lpObj->m_AttackDamageMinLeft += ( lpObj->m_AttackDamageMinLeft * ExConfig.Pet.RedFenrirProcDamage ) / 100; 

  03121	8b 45 f8	 mov	 eax, DWORD PTR _lpObj$[ebp]
  03124	8b 80 7c 04 00
	00		 mov	 eax, DWORD PTR [eax+1148]
  0312a	0f af 05 64 08
	00 00		 imul	 eax, DWORD PTR ?ExConfig@@3VcExConfigs@@A+2148
  03131	99		 cdq
  03132	b9 64 00 00 00	 mov	 ecx, 100		; 00000064H
  03137	f7 f9		 idiv	 ecx
  03139	8b 55 f8	 mov	 edx, DWORD PTR _lpObj$[ebp]
  0313c	03 82 7c 04 00
	00		 add	 eax, DWORD PTR [edx+1148]
  03142	8b 4d f8	 mov	 ecx, DWORD PTR _lpObj$[ebp]
  03145	89 81 7c 04 00
	00		 mov	 DWORD PTR [ecx+1148], eax

; 1050 : 					lpObj->m_AttackDamageMaxLeft += ( lpObj->m_AttackDamageMaxLeft * ExConfig.Pet.RedFenrirProcDamage ) / 100; 

  0314b	8b 45 f8	 mov	 eax, DWORD PTR _lpObj$[ebp]
  0314e	8b 80 78 04 00
	00		 mov	 eax, DWORD PTR [eax+1144]
  03154	0f af 05 64 08
	00 00		 imul	 eax, DWORD PTR ?ExConfig@@3VcExConfigs@@A+2148
  0315b	99		 cdq
  0315c	b9 64 00 00 00	 mov	 ecx, 100		; 00000064H
  03161	f7 f9		 idiv	 ecx
  03163	8b 55 f8	 mov	 edx, DWORD PTR _lpObj$[ebp]
  03166	03 82 78 04 00
	00		 add	 eax, DWORD PTR [edx+1144]
  0316c	8b 4d f8	 mov	 ecx, DWORD PTR _lpObj$[ebp]
  0316f	89 81 78 04 00
	00		 mov	 DWORD PTR [ecx+1144], eax

; 1051 : 					lpObj->m_MagicDamageMax += ( lpObj->m_MagicDamageMax * ExConfig.Pet.RedFenrirProcDamage ) / 100; 

  03175	8b 45 f8	 mov	 eax, DWORD PTR _lpObj$[ebp]
  03178	8b 80 6c 04 00
	00		 mov	 eax, DWORD PTR [eax+1132]
  0317e	0f af 05 64 08
	00 00		 imul	 eax, DWORD PTR ?ExConfig@@3VcExConfigs@@A+2148
  03185	99		 cdq
  03186	b9 64 00 00 00	 mov	 ecx, 100		; 00000064H
  0318b	f7 f9		 idiv	 ecx
  0318d	8b 55 f8	 mov	 edx, DWORD PTR _lpObj$[ebp]
  03190	03 82 6c 04 00
	00		 add	 eax, DWORD PTR [edx+1132]
  03196	8b 4d f8	 mov	 ecx, DWORD PTR _lpObj$[ebp]
  03199	89 81 6c 04 00
	00		 mov	 DWORD PTR [ecx+1132], eax

; 1052 : 					lpObj->m_MagicDamageMin += ( lpObj->m_MagicDamageMin * ExConfig.Pet.RedFenrirProcDamage ) / 100; 

  0319f	8b 45 f8	 mov	 eax, DWORD PTR _lpObj$[ebp]
  031a2	8b 80 68 04 00
	00		 mov	 eax, DWORD PTR [eax+1128]
  031a8	0f af 05 64 08
	00 00		 imul	 eax, DWORD PTR ?ExConfig@@3VcExConfigs@@A+2148
  031af	99		 cdq
  031b0	b9 64 00 00 00	 mov	 ecx, 100		; 00000064H
  031b5	f7 f9		 idiv	 ecx
  031b7	8b 55 f8	 mov	 edx, DWORD PTR _lpObj$[ebp]
  031ba	03 82 68 04 00
	00		 add	 eax, DWORD PTR [edx+1128]
  031c0	8b 4d f8	 mov	 ecx, DWORD PTR _lpObj$[ebp]
  031c3	89 81 68 04 00
	00		 mov	 DWORD PTR [ecx+1128], eax

; 1053 : 					lpObj->DamageMinus += ExConfig.Pet.RedFenrirProcAbsurd;

  031c9	8b 45 f8	 mov	 eax, DWORD PTR _lpObj$[ebp]
  031cc	0f b6 88 70 01
	00 00		 movzx	 ecx, BYTE PTR [eax+368]
  031d3	03 0d 68 08 00
	00		 add	 ecx, DWORD PTR ?ExConfig@@3VcExConfigs@@A+2152
  031d9	8b 55 f8	 mov	 edx, DWORD PTR _lpObj$[ebp]
  031dc	88 8a 70 01 00
	00		 mov	 BYTE PTR [edx+368], cl

; 1054 : 					lpObj->AddLife += ( lpObj->MaxLife * ExConfig.Pet.RedFenrirProcLife ) / 100; 

  031e2	db 05 6c 08 00
	00		 fild	 DWORD PTR ?ExConfig@@3VcExConfigs@@A+2156
  031e8	8b 45 f8	 mov	 eax, DWORD PTR _lpObj$[ebp]
  031eb	d8 88 00 01 00
	00		 fmul	 DWORD PTR [eax+256]
  031f1	dc 35 00 00 00
	00		 fdiv	 QWORD PTR __real@4059000000000000
  031f7	8b 4d f8	 mov	 ecx, DWORD PTR _lpObj$[ebp]
  031fa	da 81 4c 01 00
	00		 fiadd	 DWORD PTR [ecx+332]
  03200	e8 00 00 00 00	 call	 __ftol2_sse
  03205	8b 55 f8	 mov	 edx, DWORD PTR _lpObj$[ebp]
  03208	89 82 4c 01 00
	00		 mov	 DWORD PTR [edx+332], eax
$LN74@gObjCalCha:

; 1055 : 				}
; 1056 : 
; 1057 : 			}
; 1058 : 		}
; 1059 : 	}
; 1060 : 	//Season 5 +15 Items
; 1061 : 	if ( (Level15Count + Level14Count + Level13Count + Level12Count + Level11Count + Level10Count) >= 5 )

  0320e	8b 85 a0 fe ff
	ff		 mov	 eax, DWORD PTR _Level15Count$[ebp]
  03214	03 85 a4 fe ff
	ff		 add	 eax, DWORD PTR _Level14Count$[ebp]
  0321a	03 85 a8 fe ff
	ff		 add	 eax, DWORD PTR _Level13Count$[ebp]
  03220	03 85 ac fe ff
	ff		 add	 eax, DWORD PTR _Level12Count$[ebp]
  03226	03 85 b4 fe ff
	ff		 add	 eax, DWORD PTR _Level11Count$[ebp]
  0322c	03 85 b0 fe ff
	ff		 add	 eax, DWORD PTR _Level10Count$[ebp]
  03232	83 f8 05	 cmp	 eax, 5
  03235	0f 8c 84 01 00
	00		 jl	 $LN59@gObjCalCha

; 1062 : 	{
; 1063 : 		if ( Success != false )

  0323b	0f b6 85 c1 fe
	ff ff		 movzx	 eax, BYTE PTR _Success$[ebp]
  03242	85 c0		 test	 eax, eax
  03244	0f 84 75 01 00
	00		 je	 $LN59@gObjCalCha

; 1064 : 		{
; 1065 : 			if ( Level15Count == 5 )

  0324a	83 bd a0 fe ff
	ff 05		 cmp	 DWORD PTR _Level15Count$[ebp], 5
  03251	75 2b		 jne	 SHORT $LN71@gObjCalCha

; 1066 : 			{
; 1067 : 				lpObj->m_Defense += lpObj->m_Defense * 30 / 100;

  03253	8b 45 f8	 mov	 eax, DWORD PTR _lpObj$[ebp]
  03256	8b 80 94 04 00
	00		 mov	 eax, DWORD PTR [eax+1172]
  0325c	6b c0 1e	 imul	 eax, 30			; 0000001eH
  0325f	99		 cdq
  03260	b9 64 00 00 00	 mov	 ecx, 100		; 00000064H
  03265	f7 f9		 idiv	 ecx
  03267	8b 55 f8	 mov	 edx, DWORD PTR _lpObj$[ebp]
  0326a	03 82 94 04 00
	00		 add	 eax, DWORD PTR [edx+1172]
  03270	8b 4d f8	 mov	 ecx, DWORD PTR _lpObj$[ebp]
  03273	89 81 94 04 00
	00		 mov	 DWORD PTR [ecx+1172], eax
  03279	e9 41 01 00 00	 jmp	 $LN59@gObjCalCha
$LN71@gObjCalCha:

; 1068 : 			}
; 1069 : 			else if ( Level14Count == 5 )

  0327e	83 bd a4 fe ff
	ff 05		 cmp	 DWORD PTR _Level14Count$[ebp], 5
  03285	75 2b		 jne	 SHORT $LN69@gObjCalCha

; 1070 : 			{
; 1071 : 				lpObj->m_Defense += lpObj->m_Defense * 25 / 100;

  03287	8b 45 f8	 mov	 eax, DWORD PTR _lpObj$[ebp]
  0328a	8b 80 94 04 00
	00		 mov	 eax, DWORD PTR [eax+1172]
  03290	6b c0 19	 imul	 eax, 25			; 00000019H
  03293	99		 cdq
  03294	b9 64 00 00 00	 mov	 ecx, 100		; 00000064H
  03299	f7 f9		 idiv	 ecx
  0329b	8b 55 f8	 mov	 edx, DWORD PTR _lpObj$[ebp]
  0329e	03 82 94 04 00
	00		 add	 eax, DWORD PTR [edx+1172]
  032a4	8b 4d f8	 mov	 ecx, DWORD PTR _lpObj$[ebp]
  032a7	89 81 94 04 00
	00		 mov	 DWORD PTR [ecx+1172], eax
  032ad	e9 0d 01 00 00	 jmp	 $LN59@gObjCalCha
$LN69@gObjCalCha:

; 1072 : 			}
; 1073 : 			else if ( Level13Count == 5 )

  032b2	83 bd a8 fe ff
	ff 05		 cmp	 DWORD PTR _Level13Count$[ebp], 5
  032b9	75 2b		 jne	 SHORT $LN67@gObjCalCha

; 1074 : 			{
; 1075 : 				lpObj->m_Defense += lpObj->m_Defense * 20 / 100;

  032bb	8b 45 f8	 mov	 eax, DWORD PTR _lpObj$[ebp]
  032be	8b 80 94 04 00
	00		 mov	 eax, DWORD PTR [eax+1172]
  032c4	6b c0 14	 imul	 eax, 20			; 00000014H
  032c7	99		 cdq
  032c8	b9 64 00 00 00	 mov	 ecx, 100		; 00000064H
  032cd	f7 f9		 idiv	 ecx
  032cf	8b 55 f8	 mov	 edx, DWORD PTR _lpObj$[ebp]
  032d2	03 82 94 04 00
	00		 add	 eax, DWORD PTR [edx+1172]
  032d8	8b 4d f8	 mov	 ecx, DWORD PTR _lpObj$[ebp]
  032db	89 81 94 04 00
	00		 mov	 DWORD PTR [ecx+1172], eax
  032e1	e9 d9 00 00 00	 jmp	 $LN59@gObjCalCha
$LN67@gObjCalCha:

; 1076 : 			}
; 1077 : 			else if ( Level12Count == 5 || (Level12Count + Level13Count) == 5 )

  032e6	83 bd ac fe ff
	ff 05		 cmp	 DWORD PTR _Level12Count$[ebp], 5
  032ed	74 11		 je	 SHORT $LN64@gObjCalCha
  032ef	8b 85 ac fe ff
	ff		 mov	 eax, DWORD PTR _Level12Count$[ebp]
  032f5	03 85 a8 fe ff
	ff		 add	 eax, DWORD PTR _Level13Count$[ebp]
  032fb	83 f8 05	 cmp	 eax, 5
  032fe	75 2b		 jne	 SHORT $LN65@gObjCalCha
$LN64@gObjCalCha:

; 1078 : 			{
; 1079 : 				lpObj->m_Defense += lpObj->m_Defense * 15 / 100;

  03300	8b 45 f8	 mov	 eax, DWORD PTR _lpObj$[ebp]
  03303	8b 80 94 04 00
	00		 mov	 eax, DWORD PTR [eax+1172]
  03309	6b c0 0f	 imul	 eax, 15			; 0000000fH
  0330c	99		 cdq
  0330d	b9 64 00 00 00	 mov	 ecx, 100		; 00000064H
  03312	f7 f9		 idiv	 ecx
  03314	8b 55 f8	 mov	 edx, DWORD PTR _lpObj$[ebp]
  03317	03 82 94 04 00
	00		 add	 eax, DWORD PTR [edx+1172]
  0331d	8b 4d f8	 mov	 ecx, DWORD PTR _lpObj$[ebp]
  03320	89 81 94 04 00
	00		 mov	 DWORD PTR [ecx+1172], eax
  03326	e9 94 00 00 00	 jmp	 $LN59@gObjCalCha
$LN65@gObjCalCha:

; 1080 : 			}
; 1081 : 			else if ( Level11Count == 5 || (Level11Count + Level12Count + Level13Count) == 5 )

  0332b	83 bd b4 fe ff
	ff 05		 cmp	 DWORD PTR _Level11Count$[ebp], 5
  03332	74 17		 je	 SHORT $LN61@gObjCalCha
  03334	8b 85 b4 fe ff
	ff		 mov	 eax, DWORD PTR _Level11Count$[ebp]
  0333a	03 85 ac fe ff
	ff		 add	 eax, DWORD PTR _Level12Count$[ebp]
  03340	03 85 a8 fe ff
	ff		 add	 eax, DWORD PTR _Level13Count$[ebp]
  03346	83 f8 05	 cmp	 eax, 5
  03349	75 28		 jne	 SHORT $LN62@gObjCalCha
$LN61@gObjCalCha:

; 1082 : 			{
; 1083 : 				lpObj->m_Defense += lpObj->m_Defense * 10 / 100;

  0334b	8b 45 f8	 mov	 eax, DWORD PTR _lpObj$[ebp]
  0334e	8b 80 94 04 00
	00		 mov	 eax, DWORD PTR [eax+1172]
  03354	6b c0 0a	 imul	 eax, 10			; 0000000aH
  03357	99		 cdq
  03358	b9 64 00 00 00	 mov	 ecx, 100		; 00000064H
  0335d	f7 f9		 idiv	 ecx
  0335f	8b 55 f8	 mov	 edx, DWORD PTR _lpObj$[ebp]
  03362	03 82 94 04 00
	00		 add	 eax, DWORD PTR [edx+1172]
  03368	8b 4d f8	 mov	 ecx, DWORD PTR _lpObj$[ebp]
  0336b	89 81 94 04 00
	00		 mov	 DWORD PTR [ecx+1172], eax
  03371	eb 4c		 jmp	 SHORT $LN59@gObjCalCha
$LN62@gObjCalCha:

; 1084 : 			}
; 1085 : 			else if ( Level10Count == 5 || (Level10Count + Level11Count + Level12Count + Level13Count) == 5)

  03373	83 bd b0 fe ff
	ff 05		 cmp	 DWORD PTR _Level10Count$[ebp], 5
  0337a	74 1d		 je	 SHORT $LN58@gObjCalCha
  0337c	8b 85 b0 fe ff
	ff		 mov	 eax, DWORD PTR _Level10Count$[ebp]
  03382	03 85 b4 fe ff
	ff		 add	 eax, DWORD PTR _Level11Count$[ebp]
  03388	03 85 ac fe ff
	ff		 add	 eax, DWORD PTR _Level12Count$[ebp]
  0338e	03 85 a8 fe ff
	ff		 add	 eax, DWORD PTR _Level13Count$[ebp]
  03394	83 f8 05	 cmp	 eax, 5
  03397	75 26		 jne	 SHORT $LN59@gObjCalCha
$LN58@gObjCalCha:

; 1086 : 			{
; 1087 : 				lpObj->m_Defense += lpObj->m_Defense * 5 / 100;

  03399	8b 45 f8	 mov	 eax, DWORD PTR _lpObj$[ebp]
  0339c	8b 80 94 04 00
	00		 mov	 eax, DWORD PTR [eax+1172]
  033a2	6b c0 05	 imul	 eax, 5
  033a5	99		 cdq
  033a6	b9 64 00 00 00	 mov	 ecx, 100		; 00000064H
  033ab	f7 f9		 idiv	 ecx
  033ad	8b 55 f8	 mov	 edx, DWORD PTR _lpObj$[ebp]
  033b0	03 82 94 04 00
	00		 add	 eax, DWORD PTR [edx+1172]
  033b6	8b 4d f8	 mov	 ecx, DWORD PTR _lpObj$[ebp]
  033b9	89 81 94 04 00
	00		 mov	 DWORD PTR [ecx+1172], eax
$LN59@gObjCalCha:

; 1088 : 			}
; 1089 : 		}
; 1090 : 	}
; 1091 : 
; 1092 : 	lpObj->m_Defense += lpObj->m_MPSkillOpt.MpsDefence;

  033bf	8b 45 f8	 mov	 eax, DWORD PTR _lpObj$[ebp]
  033c2	db 80 94 04 00
	00		 fild	 DWORD PTR [eax+1172]
  033c8	8b 4d f8	 mov	 ecx, DWORD PTR _lpObj$[ebp]
  033cb	d8 81 34 27 00
	00		 fadd	 DWORD PTR [ecx+10036]
  033d1	e8 00 00 00 00	 call	 __ftol2_sse
  033d6	8b 55 f8	 mov	 edx, DWORD PTR _lpObj$[ebp]
  033d9	89 82 94 04 00
	00		 mov	 DWORD PTR [edx+1172], eax

; 1093 : 
; 1094 : 	lpObj->m_Defense = lpObj->m_Defense * 10 / 20;

  033df	8b 45 f8	 mov	 eax, DWORD PTR _lpObj$[ebp]
  033e2	8b 80 94 04 00
	00		 mov	 eax, DWORD PTR [eax+1172]
  033e8	6b c0 0a	 imul	 eax, 10			; 0000000aH
  033eb	99		 cdq
  033ec	b9 14 00 00 00	 mov	 ecx, 20			; 00000014H
  033f1	f7 f9		 idiv	 ecx
  033f3	8b 55 f8	 mov	 edx, DWORD PTR _lpObj$[ebp]
  033f6	89 82 94 04 00
	00		 mov	 DWORD PTR [edx+1172], eax

; 1095 : 
; 1096 : 	if ( lpObj->m_Change == 9 )

  033fc	8b 45 f8	 mov	 eax, DWORD PTR _lpObj$[ebp]
  033ff	83 b8 54 04 00
	00 09		 cmp	 DWORD PTR [eax+1108], 9
  03406	75 05		 jne	 SHORT $LN57@gObjCalCha
  03408	e9 60 02 00 00	 jmp	 $LN47@gObjCalCha
$LN57@gObjCalCha:

; 1097 : 	{
; 1098 : 		//Empty
; 1099 : 	}
; 1100 : 	else if ( lpObj->m_Change == 41 )

  0340d	8b 45 f8	 mov	 eax, DWORD PTR _lpObj$[ebp]
  03410	83 b8 54 04 00
	00 29		 cmp	 DWORD PTR [eax+1108], 41 ; 00000029H
  03417	75 2a		 jne	 SHORT $LN55@gObjCalCha

; 1101 : 	{
; 1102 : 		lpObj->AddLife = ((int)(lpObj->MaxLife * 20.0f))/100;

  03419	8b 45 f8	 mov	 eax, DWORD PTR _lpObj$[ebp]
  0341c	d9 80 00 01 00
	00		 fld	 DWORD PTR [eax+256]
  03422	dc 0d 00 00 00
	00		 fmul	 QWORD PTR __real@4034000000000000
  03428	e8 00 00 00 00	 call	 __ftol2_sse
  0342d	99		 cdq
  0342e	b9 64 00 00 00	 mov	 ecx, 100		; 00000064H
  03433	f7 f9		 idiv	 ecx
  03435	8b 55 f8	 mov	 edx, DWORD PTR _lpObj$[ebp]
  03438	89 82 4c 01 00
	00		 mov	 DWORD PTR [edx+332], eax
  0343e	e9 2a 02 00 00	 jmp	 $LN47@gObjCalCha
$LN55@gObjCalCha:

; 1103 : 	}
; 1104 : 	else if ( lpObj->m_Change == 372 )

  03443	8b 45 f8	 mov	 eax, DWORD PTR _lpObj$[ebp]
  03446	81 b8 54 04 00
	00 74 01 00 00	 cmp	 DWORD PTR [eax+1108], 372 ; 00000174H
  03450	75 50		 jne	 SHORT $LN53@gObjCalCha

; 1105 : 	{
; 1106 : 		lpObj->m_Defense += lpObj->m_Defense / 10;

  03452	8b 45 f8	 mov	 eax, DWORD PTR _lpObj$[ebp]
  03455	8b 80 94 04 00
	00		 mov	 eax, DWORD PTR [eax+1172]
  0345b	99		 cdq
  0345c	b9 0a 00 00 00	 mov	 ecx, 10			; 0000000aH
  03461	f7 f9		 idiv	 ecx
  03463	8b 55 f8	 mov	 edx, DWORD PTR _lpObj$[ebp]
  03466	03 82 94 04 00
	00		 add	 eax, DWORD PTR [edx+1172]
  0346c	8b 4d f8	 mov	 ecx, DWORD PTR _lpObj$[ebp]
  0346f	89 81 94 04 00
	00		 mov	 DWORD PTR [ecx+1172], eax

; 1107 : 		lpObj->AddLife += lpObj->Level + lpObj->MLevel;

  03475	8b 45 f8	 mov	 eax, DWORD PTR _lpObj$[ebp]
  03478	0f bf 88 be 00
	00 00		 movsx	 ecx, WORD PTR [eax+190]
  0347f	8b 55 f8	 mov	 edx, DWORD PTR _lpObj$[ebp]
  03482	0f bf 82 d0 00
	00 00		 movsx	 eax, WORD PTR [edx+208]
  03489	03 c8		 add	 ecx, eax
  0348b	8b 55 f8	 mov	 edx, DWORD PTR _lpObj$[ebp]
  0348e	03 8a 4c 01 00
	00		 add	 ecx, DWORD PTR [edx+332]
  03494	8b 45 f8	 mov	 eax, DWORD PTR _lpObj$[ebp]
  03497	89 88 4c 01 00
	00		 mov	 DWORD PTR [eax+332], ecx
  0349d	e9 cb 01 00 00	 jmp	 $LN47@gObjCalCha
$LN53@gObjCalCha:

; 1108 : 	}
; 1109 : 	else if ( lpObj->m_Change == 374 ) //Santa Girl Polymorph Ring (Season 2.5 Add-on)

  034a2	8b 45 f8	 mov	 eax, DWORD PTR _lpObj$[ebp]
  034a5	81 b8 54 04 00
	00 76 01 00 00	 cmp	 DWORD PTR [eax+1108], 374 ; 00000176H
  034af	0f 85 83 00 00
	00		 jne	 $LN51@gObjCalCha

; 1110 : 	{
; 1111 : 		lpObj->m_AttackDamageMaxLeft += 20;

  034b5	8b 45 f8	 mov	 eax, DWORD PTR _lpObj$[ebp]
  034b8	8b 88 78 04 00
	00		 mov	 ecx, DWORD PTR [eax+1144]
  034be	83 c1 14	 add	 ecx, 20			; 00000014H
  034c1	8b 55 f8	 mov	 edx, DWORD PTR _lpObj$[ebp]
  034c4	89 8a 78 04 00
	00		 mov	 DWORD PTR [edx+1144], ecx

; 1112 : 		lpObj->m_AttackDamageMinLeft += 20;

  034ca	8b 45 f8	 mov	 eax, DWORD PTR _lpObj$[ebp]
  034cd	8b 88 7c 04 00
	00		 mov	 ecx, DWORD PTR [eax+1148]
  034d3	83 c1 14	 add	 ecx, 20			; 00000014H
  034d6	8b 55 f8	 mov	 edx, DWORD PTR _lpObj$[ebp]
  034d9	89 8a 7c 04 00
	00		 mov	 DWORD PTR [edx+1148], ecx

; 1113 : 		lpObj->m_AttackDamageMaxRight += 20;

  034df	8b 45 f8	 mov	 eax, DWORD PTR _lpObj$[ebp]
  034e2	8b 88 80 04 00
	00		 mov	 ecx, DWORD PTR [eax+1152]
  034e8	83 c1 14	 add	 ecx, 20			; 00000014H
  034eb	8b 55 f8	 mov	 edx, DWORD PTR _lpObj$[ebp]
  034ee	89 8a 80 04 00
	00		 mov	 DWORD PTR [edx+1152], ecx

; 1114 : 		lpObj->m_AttackDamageMinRight += 20;

  034f4	8b 45 f8	 mov	 eax, DWORD PTR _lpObj$[ebp]
  034f7	8b 88 84 04 00
	00		 mov	 ecx, DWORD PTR [eax+1156]
  034fd	83 c1 14	 add	 ecx, 20			; 00000014H
  03500	8b 55 f8	 mov	 edx, DWORD PTR _lpObj$[ebp]
  03503	89 8a 84 04 00
	00		 mov	 DWORD PTR [edx+1156], ecx

; 1115 : 		lpObj->m_MagicDamageMin += 20;

  03509	8b 45 f8	 mov	 eax, DWORD PTR _lpObj$[ebp]
  0350c	8b 88 68 04 00
	00		 mov	 ecx, DWORD PTR [eax+1128]
  03512	83 c1 14	 add	 ecx, 20			; 00000014H
  03515	8b 55 f8	 mov	 edx, DWORD PTR _lpObj$[ebp]
  03518	89 8a 68 04 00
	00		 mov	 DWORD PTR [edx+1128], ecx

; 1116 : 		lpObj->m_MagicDamageMax += 20;

  0351e	8b 45 f8	 mov	 eax, DWORD PTR _lpObj$[ebp]
  03521	8b 88 6c 04 00
	00		 mov	 ecx, DWORD PTR [eax+1132]
  03527	83 c1 14	 add	 ecx, 20			; 00000014H
  0352a	8b 55 f8	 mov	 edx, DWORD PTR _lpObj$[ebp]
  0352d	89 8a 6c 04 00
	00		 mov	 DWORD PTR [edx+1132], ecx
  03533	e9 35 01 00 00	 jmp	 $LN47@gObjCalCha
$LN51@gObjCalCha:

; 1117 : 	}
; 1118 : 	else if ( lpObj->m_Change == 503 ) //Panda Ring (Season 4.6 Add-on)

  03538	8b 45 f8	 mov	 eax, DWORD PTR _lpObj$[ebp]
  0353b	81 b8 54 04 00
	00 f7 01 00 00	 cmp	 DWORD PTR [eax+1108], 503 ; 000001f7H
  03545	0f 85 95 00 00
	00		 jne	 $LN49@gObjCalCha

; 1119 : 	{
; 1120 : 		//int Ex_PandaRingAttack = GetPrivateProfileInt("PandaRing","AttackDamage",30,"..\\Data\\ExData\\Pets.ini");
; 1121 : 		//int Ex_PandaRingAttack = ExConfig.Pet.Ex_PandaRingAttack;
; 1122 : 		lpObj->m_AttackDamageMaxLeft += ExConfig.Pet.Ex_PandaRingAttack;

  0354b	8b 45 f8	 mov	 eax, DWORD PTR _lpObj$[ebp]
  0354e	8b 88 78 04 00
	00		 mov	 ecx, DWORD PTR [eax+1144]
  03554	03 0d 3c 08 00
	00		 add	 ecx, DWORD PTR ?ExConfig@@3VcExConfigs@@A+2108
  0355a	8b 55 f8	 mov	 edx, DWORD PTR _lpObj$[ebp]
  0355d	89 8a 78 04 00
	00		 mov	 DWORD PTR [edx+1144], ecx

; 1123 : 		lpObj->m_AttackDamageMinLeft += ExConfig.Pet.Ex_PandaRingAttack;

  03563	8b 45 f8	 mov	 eax, DWORD PTR _lpObj$[ebp]
  03566	8b 88 7c 04 00
	00		 mov	 ecx, DWORD PTR [eax+1148]
  0356c	03 0d 3c 08 00
	00		 add	 ecx, DWORD PTR ?ExConfig@@3VcExConfigs@@A+2108
  03572	8b 55 f8	 mov	 edx, DWORD PTR _lpObj$[ebp]
  03575	89 8a 7c 04 00
	00		 mov	 DWORD PTR [edx+1148], ecx

; 1124 : 		lpObj->m_AttackDamageMaxRight += ExConfig.Pet.Ex_PandaRingAttack;

  0357b	8b 45 f8	 mov	 eax, DWORD PTR _lpObj$[ebp]
  0357e	8b 88 80 04 00
	00		 mov	 ecx, DWORD PTR [eax+1152]
  03584	03 0d 3c 08 00
	00		 add	 ecx, DWORD PTR ?ExConfig@@3VcExConfigs@@A+2108
  0358a	8b 55 f8	 mov	 edx, DWORD PTR _lpObj$[ebp]
  0358d	89 8a 80 04 00
	00		 mov	 DWORD PTR [edx+1152], ecx

; 1125 : 		lpObj->m_AttackDamageMinRight += ExConfig.Pet.Ex_PandaRingAttack;

  03593	8b 45 f8	 mov	 eax, DWORD PTR _lpObj$[ebp]
  03596	8b 88 84 04 00
	00		 mov	 ecx, DWORD PTR [eax+1156]
  0359c	03 0d 3c 08 00
	00		 add	 ecx, DWORD PTR ?ExConfig@@3VcExConfigs@@A+2108
  035a2	8b 55 f8	 mov	 edx, DWORD PTR _lpObj$[ebp]
  035a5	89 8a 84 04 00
	00		 mov	 DWORD PTR [edx+1156], ecx

; 1126 : 		lpObj->m_MagicDamageMin += ExConfig.Pet.Ex_PandaRingAttack;

  035ab	8b 45 f8	 mov	 eax, DWORD PTR _lpObj$[ebp]
  035ae	8b 88 68 04 00
	00		 mov	 ecx, DWORD PTR [eax+1128]
  035b4	03 0d 3c 08 00
	00		 add	 ecx, DWORD PTR ?ExConfig@@3VcExConfigs@@A+2108
  035ba	8b 55 f8	 mov	 edx, DWORD PTR _lpObj$[ebp]
  035bd	89 8a 68 04 00
	00		 mov	 DWORD PTR [edx+1128], ecx

; 1127 : 		lpObj->m_MagicDamageMax += ExConfig.Pet.Ex_PandaRingAttack;

  035c3	8b 45 f8	 mov	 eax, DWORD PTR _lpObj$[ebp]
  035c6	8b 88 6c 04 00
	00		 mov	 ecx, DWORD PTR [eax+1132]
  035cc	03 0d 3c 08 00
	00		 add	 ecx, DWORD PTR ?ExConfig@@3VcExConfigs@@A+2108
  035d2	8b 55 f8	 mov	 edx, DWORD PTR _lpObj$[ebp]
  035d5	89 8a 6c 04 00
	00		 mov	 DWORD PTR [edx+1132], ecx
  035db	e9 8d 00 00 00	 jmp	 $LN47@gObjCalCha
$LN49@gObjCalCha:

; 1128 : 	}
; 1129 : 	else if ( lpObj->m_Change == 548 ) //Season 5 Skeleton Ring

  035e0	8b 45 f8	 mov	 eax, DWORD PTR _lpObj$[ebp]
  035e3	81 b8 54 04 00
	00 24 02 00 00	 cmp	 DWORD PTR [eax+1108], 548 ; 00000224H
  035ed	75 7e		 jne	 SHORT $LN47@gObjCalCha

; 1130 : 	{
; 1131 : 		lpObj->m_AttackDamageMaxLeft += 40;

  035ef	8b 45 f8	 mov	 eax, DWORD PTR _lpObj$[ebp]
  035f2	8b 88 78 04 00
	00		 mov	 ecx, DWORD PTR [eax+1144]
  035f8	83 c1 28	 add	 ecx, 40			; 00000028H
  035fb	8b 55 f8	 mov	 edx, DWORD PTR _lpObj$[ebp]
  035fe	89 8a 78 04 00
	00		 mov	 DWORD PTR [edx+1144], ecx

; 1132 : 		lpObj->m_AttackDamageMinLeft += 40;

  03604	8b 45 f8	 mov	 eax, DWORD PTR _lpObj$[ebp]
  03607	8b 88 7c 04 00
	00		 mov	 ecx, DWORD PTR [eax+1148]
  0360d	83 c1 28	 add	 ecx, 40			; 00000028H
  03610	8b 55 f8	 mov	 edx, DWORD PTR _lpObj$[ebp]
  03613	89 8a 7c 04 00
	00		 mov	 DWORD PTR [edx+1148], ecx

; 1133 : 		lpObj->m_AttackDamageMaxRight += 40;

  03619	8b 45 f8	 mov	 eax, DWORD PTR _lpObj$[ebp]
  0361c	8b 88 80 04 00
	00		 mov	 ecx, DWORD PTR [eax+1152]
  03622	83 c1 28	 add	 ecx, 40			; 00000028H
  03625	8b 55 f8	 mov	 edx, DWORD PTR _lpObj$[ebp]
  03628	89 8a 80 04 00
	00		 mov	 DWORD PTR [edx+1152], ecx

; 1134 : 		lpObj->m_AttackDamageMinRight += 40;

  0362e	8b 45 f8	 mov	 eax, DWORD PTR _lpObj$[ebp]
  03631	8b 88 84 04 00
	00		 mov	 ecx, DWORD PTR [eax+1156]
  03637	83 c1 28	 add	 ecx, 40			; 00000028H
  0363a	8b 55 f8	 mov	 edx, DWORD PTR _lpObj$[ebp]
  0363d	89 8a 84 04 00
	00		 mov	 DWORD PTR [edx+1156], ecx

; 1135 : 		lpObj->m_MagicDamageMin += 40;

  03643	8b 45 f8	 mov	 eax, DWORD PTR _lpObj$[ebp]
  03646	8b 88 68 04 00
	00		 mov	 ecx, DWORD PTR [eax+1128]
  0364c	83 c1 28	 add	 ecx, 40			; 00000028H
  0364f	8b 55 f8	 mov	 edx, DWORD PTR _lpObj$[ebp]
  03652	89 8a 68 04 00
	00		 mov	 DWORD PTR [edx+1128], ecx

; 1136 : 		lpObj->m_MagicDamageMax += 40;

  03658	8b 45 f8	 mov	 eax, DWORD PTR _lpObj$[ebp]
  0365b	8b 88 6c 04 00
	00		 mov	 ecx, DWORD PTR [eax+1132]
  03661	83 c1 28	 add	 ecx, 40			; 00000028H
  03664	8b 55 f8	 mov	 edx, DWORD PTR _lpObj$[ebp]
  03667	89 8a 6c 04 00
	00		 mov	 DWORD PTR [edx+1132], ecx
$LN47@gObjCalCha:

; 1137 : 	}
; 1138 : 	if(gObjDemonSprite(lpObj) == TRUE) //CashShop Demon Pet (Season 3.5 Add-on)

  0366d	8b 45 f8	 mov	 eax, DWORD PTR _lpObj$[ebp]
  03670	50		 push	 eax
  03671	e8 00 00 00 00	 call	 ?gObjDemonSprite@@YAHPAUOBJECTSTRUCT@@@Z ; gObjDemonSprite
  03676	83 c4 04	 add	 esp, 4
  03679	83 f8 01	 cmp	 eax, 1
  0367c	75 2a		 jne	 SHORT $LN46@gObjCalCha

; 1139 : 	{
; 1140 : 		//season4 changed (all these removed... Why? :|)
; 1141 : 		/*lpObj->m_AttackDamageMinRight += lpObj->m_AttackDamageMinRight * 40 / 100;
; 1142 : 		lpObj->m_AttackDamageMaxRight += lpObj->m_AttackDamageMaxRight * 40 / 100;
; 1143 : 
; 1144 : 		lpObj->m_AttackDamageMinLeft += lpObj->m_AttackDamageMinLeft * 40 / 100;
; 1145 : 		lpObj->m_AttackDamageMaxLeft += lpObj->m_AttackDamageMaxLeft * 40 / 100;
; 1146 : 
; 1147 : 		lpObj->m_MagicDamageMin += lpObj->m_MagicDamageMin * 40 / 100;
; 1148 : 		lpObj->m_MagicDamageMax += lpObj->m_MagicDamageMax * 40 / 100;*/
; 1149 : 
; 1150 : 		lpObj->m_AttackSpeed += 10;

  0367e	8b 45 f8	 mov	 eax, DWORD PTR _lpObj$[ebp]
  03681	8b 88 8c 04 00
	00		 mov	 ecx, DWORD PTR [eax+1164]
  03687	83 c1 0a	 add	 ecx, 10			; 0000000aH
  0368a	8b 55 f8	 mov	 edx, DWORD PTR _lpObj$[ebp]
  0368d	89 8a 8c 04 00
	00		 mov	 DWORD PTR [edx+1164], ecx

; 1151 : 		lpObj->m_MagicSpeed += 10;

  03693	8b 45 f8	 mov	 eax, DWORD PTR _lpObj$[ebp]
  03696	8b 88 90 04 00
	00		 mov	 ecx, DWORD PTR [eax+1168]
  0369c	83 c1 0a	 add	 ecx, 10			; 0000000aH
  0369f	8b 55 f8	 mov	 edx, DWORD PTR _lpObj$[ebp]
  036a2	89 8a 90 04 00
	00		 mov	 DWORD PTR [edx+1168], ecx
$LN46@gObjCalCha:

; 1152 : 	}
; 1153 : 
; 1154 : 	if(gObjSkeletonSprite(lpObj) == TRUE) //Season 5 Skeleton Pet

  036a8	8b 45 f8	 mov	 eax, DWORD PTR _lpObj$[ebp]
  036ab	50		 push	 eax
  036ac	e8 00 00 00 00	 call	 ?gObjSkeletonSprite@@YAHPAUOBJECTSTRUCT@@@Z ; gObjSkeletonSprite
  036b1	83 c4 04	 add	 esp, 4
  036b4	83 f8 01	 cmp	 eax, 1
  036b7	75 2a		 jne	 SHORT $LN45@gObjCalCha

; 1155 : 	{
; 1156 : 		lpObj->m_AttackSpeed += 10;

  036b9	8b 45 f8	 mov	 eax, DWORD PTR _lpObj$[ebp]
  036bc	8b 88 8c 04 00
	00		 mov	 ecx, DWORD PTR [eax+1164]
  036c2	83 c1 0a	 add	 ecx, 10			; 0000000aH
  036c5	8b 55 f8	 mov	 edx, DWORD PTR _lpObj$[ebp]
  036c8	89 8a 8c 04 00
	00		 mov	 DWORD PTR [edx+1164], ecx

; 1157 : 		lpObj->m_MagicSpeed += 10;

  036ce	8b 45 f8	 mov	 eax, DWORD PTR _lpObj$[ebp]
  036d1	8b 88 90 04 00
	00		 mov	 ecx, DWORD PTR [eax+1168]
  036d7	83 c1 0a	 add	 ecx, 10			; 0000000aH
  036da	8b 55 f8	 mov	 edx, DWORD PTR _lpObj$[ebp]
  036dd	89 8a 90 04 00
	00		 mov	 DWORD PTR [edx+1168], ecx
$LN45@gObjCalCha:

; 1158 : 	}
; 1159 : 
; 1160 : 	if(gObjSpiritGuardianSprite(lpObj) == TRUE) //CashShop Spirit Guardian Pet (Season 3.5 Add-on) Sucks like Angel

  036e3	8b 45 f8	 mov	 eax, DWORD PTR _lpObj$[ebp]
  036e6	50		 push	 eax
  036e7	e8 00 00 00 00	 call	 ?gObjSpiritGuardianSprite@@YAHPAUOBJECTSTRUCT@@@Z ; gObjSpiritGuardianSprite
  036ec	83 c4 04	 add	 esp, 4
  036ef	83 f8 01	 cmp	 eax, 1
  036f2	75 15		 jne	 SHORT $LN44@gObjCalCha

; 1161 : 	{
; 1162 : 		lpObj->AddLife += 50;

  036f4	8b 45 f8	 mov	 eax, DWORD PTR _lpObj$[ebp]
  036f7	8b 88 4c 01 00
	00		 mov	 ecx, DWORD PTR [eax+332]
  036fd	83 c1 32	 add	 ecx, 50			; 00000032H
  03700	8b 55 f8	 mov	 edx, DWORD PTR _lpObj$[ebp]
  03703	89 8a 4c 01 00
	00		 mov	 DWORD PTR [edx+332], ecx
$LN44@gObjCalCha:

; 1163 : 	}
; 1164 : 
; 1165 : 	if(gObjPandaSprite(lpObj) == TRUE) //Panda

  03709	8b 45 f8	 mov	 eax, DWORD PTR _lpObj$[ebp]
  0370c	50		 push	 eax
  0370d	e8 00 00 00 00	 call	 ?gObjPandaSprite@@YAHPAUOBJECTSTRUCT@@@Z ; gObjPandaSprite
  03712	83 c4 04	 add	 esp, 4
  03715	83 f8 01	 cmp	 eax, 1
  03718	75 18		 jne	 SHORT $LN43@gObjCalCha

; 1166 : 	{
; 1167 : 		//int Ex_PandaDef = GetPrivateProfileInt("Panda","Defense",50,"..\\Data\\ExData\\Pets.ini");
; 1168 : 		lpObj->m_Defense += ExConfig.Pet.Ex_PandaDef;

  0371a	8b 45 f8	 mov	 eax, DWORD PTR _lpObj$[ebp]
  0371d	8b 88 94 04 00
	00		 mov	 ecx, DWORD PTR [eax+1172]
  03723	03 0d 40 08 00
	00		 add	 ecx, DWORD PTR ?ExConfig@@3VcExConfigs@@A+2112
  03729	8b 55 f8	 mov	 edx, DWORD PTR _lpObj$[ebp]
  0372c	89 8a 94 04 00
	00		 mov	 DWORD PTR [edx+1172], ecx
$LN43@gObjCalCha:

; 1169 : 	}
; 1170 : 
; 1171 : 	//if( gObjUnicornSprite(lpObj) == TRUE ) // Season 5 Episode 2 JPN
; 1172 : 	//{
; 1173 : 	//	lpObj->m_Defense				+= 50;
; 1174 : 	//}
; 1175 : 
; 1176 : 	if ( lpObj->pInventory[8].m_Type == ITEMGET(13,0) )

  03732	8b 45 f8	 mov	 eax, DWORD PTR _lpObj$[ebp]
  03735	8b 88 24 0e 00
	00		 mov	 ecx, DWORD PTR [eax+3620]
  0373b	0f bf 91 a6 06
	00 00		 movsx	 edx, WORD PTR [ecx+1702]
  03742	81 fa 00 1a 00
	00		 cmp	 edx, 6656		; 00001a00H
  03748	75 15		 jne	 SHORT $LN42@gObjCalCha

; 1177 : 	{
; 1178 : 		lpObj->AddLife += 50;

  0374a	8b 45 f8	 mov	 eax, DWORD PTR _lpObj$[ebp]
  0374d	8b 88 4c 01 00
	00		 mov	 ecx, DWORD PTR [eax+332]
  03753	83 c1 32	 add	 ecx, 50			; 00000032H
  03756	8b 55 f8	 mov	 edx, DWORD PTR _lpObj$[ebp]
  03759	89 8a 4c 01 00
	00		 mov	 DWORD PTR [edx+332], ecx
$LN42@gObjCalCha:

; 1179 : 	}
; 1180 : 
; 1181 : 	int addlife = 0;

  0375f	c7 85 8c fe ff
	ff 00 00 00 00	 mov	 DWORD PTR _addlife$[ebp], 0

; 1182 : 	int addmana = 0;

  03769	c7 85 88 fe ff
	ff 00 00 00 00	 mov	 DWORD PTR _addmana$[ebp], 0

; 1183 : 
; 1184 : 	lpObj->pInventory[7].PlusSpecial(&addlife, 100);

  03773	6a 64		 push	 100			; 00000064H
  03775	8d 85 8c fe ff
	ff		 lea	 eax, DWORD PTR _addlife$[ebp]
  0377b	50		 push	 eax
  0377c	8b 4d f8	 mov	 ecx, DWORD PTR _lpObj$[ebp]
  0377f	8b 89 24 0e 00
	00		 mov	 ecx, DWORD PTR [ecx+3620]
  03785	81 c1 cc 05 00
	00		 add	 ecx, 1484		; 000005ccH
  0378b	e8 00 00 00 00	 call	 ?PlusSpecial@CItem@@QAEXPAHH@Z ; CItem::PlusSpecial

; 1185 : 	lpObj->pInventory[7].PlusSpecial(&addmana, 101);

  03790	6a 65		 push	 101			; 00000065H
  03792	8d 85 88 fe ff
	ff		 lea	 eax, DWORD PTR _addmana$[ebp]
  03798	50		 push	 eax
  03799	8b 4d f8	 mov	 ecx, DWORD PTR _lpObj$[ebp]
  0379c	8b 89 24 0e 00
	00		 mov	 ecx, DWORD PTR [ecx+3620]
  037a2	81 c1 cc 05 00
	00		 add	 ecx, 1484		; 000005ccH
  037a8	e8 00 00 00 00	 call	 ?PlusSpecial@CItem@@QAEXPAHH@Z ; CItem::PlusSpecial

; 1186 : 
; 1187 : 	lpObj->pInventory[7].PlusSpecial(&AddLeadership, 105);

  037ad	6a 69		 push	 105			; 00000069H
  037af	8d 85 c4 fe ff
	ff		 lea	 eax, DWORD PTR _AddLeadership$[ebp]
  037b5	50		 push	 eax
  037b6	8b 4d f8	 mov	 ecx, DWORD PTR _lpObj$[ebp]
  037b9	8b 89 24 0e 00
	00		 mov	 ecx, DWORD PTR [ecx+3620]
  037bf	81 c1 cc 05 00
	00		 add	 ecx, 1484		; 000005ccH
  037c5	e8 00 00 00 00	 call	 ?PlusSpecial@CItem@@QAEXPAHH@Z ; CItem::PlusSpecial

; 1188 : 
; 1189 : 	lpObj->AddLeadership += AddLeadership; //season4 changed (wz fix o/)

  037ca	8b 45 f8	 mov	 eax, DWORD PTR _lpObj$[ebp]
  037cd	0f b7 88 1a 01
	00 00		 movzx	 ecx, WORD PTR [eax+282]
  037d4	03 8d c4 fe ff
	ff		 add	 ecx, DWORD PTR _AddLeadership$[ebp]
  037da	8b 55 f8	 mov	 edx, DWORD PTR _lpObj$[ebp]
  037dd	66 89 8a 1a 01
	00 00		 mov	 WORD PTR [edx+282], cx

; 1190 : 
; 1191 : 	lpObj->AddLife += addlife;

  037e4	8b 45 f8	 mov	 eax, DWORD PTR _lpObj$[ebp]
  037e7	8b 88 4c 01 00
	00		 mov	 ecx, DWORD PTR [eax+332]
  037ed	03 8d 8c fe ff
	ff		 add	 ecx, DWORD PTR _addlife$[ebp]
  037f3	8b 55 f8	 mov	 edx, DWORD PTR _lpObj$[ebp]
  037f6	89 8a 4c 01 00
	00		 mov	 DWORD PTR [edx+332], ecx

; 1192 : 	lpObj->AddMana += addmana;

  037fc	8b 45 f8	 mov	 eax, DWORD PTR _lpObj$[ebp]
  037ff	8b 88 50 01 00
	00		 mov	 ecx, DWORD PTR [eax+336]
  03805	03 8d 88 fe ff
	ff		 add	 ecx, DWORD PTR _addmana$[ebp]
  0380b	8b 55 f8	 mov	 edx, DWORD PTR _lpObj$[ebp]
  0380e	89 8a 50 01 00
	00		 mov	 DWORD PTR [edx+336], ecx

; 1193 : 
; 1194 : 	if ( lpObj->pInventory[8].m_Type == ITEMGET(13,3) )

  03814	8b 45 f8	 mov	 eax, DWORD PTR _lpObj$[ebp]
  03817	8b 88 24 0e 00
	00		 mov	 ecx, DWORD PTR [eax+3620]
  0381d	0f bf 91 a6 06
	00 00		 movsx	 edx, WORD PTR [ecx+1702]
  03824	81 fa 03 1a 00
	00		 cmp	 edx, 6659		; 00001a03H
  0382a	75 1f		 jne	 SHORT $LN41@gObjCalCha

; 1195 : 	{
; 1196 : 		lpObj->pInventory[8].PlusSpecial(&lpObj->AddBP, 103 );

  0382c	6a 67		 push	 103			; 00000067H
  0382e	8b 45 f8	 mov	 eax, DWORD PTR _lpObj$[ebp]
  03831	05 30 01 00 00	 add	 eax, 304		; 00000130H
  03836	50		 push	 eax
  03837	8b 4d f8	 mov	 ecx, DWORD PTR _lpObj$[ebp]
  0383a	8b 89 24 0e 00
	00		 mov	 ecx, DWORD PTR [ecx+3620]
  03840	81 c1 a0 06 00
	00		 add	 ecx, 1696		; 000006a0H
  03846	e8 00 00 00 00	 call	 ?PlusSpecial@CItem@@QAEXPAHH@Z ; CItem::PlusSpecial
$LN41@gObjCalCha:

; 1197 : 	}
; 1198 : 
; 1199 : 	if ( lpObj->Type == OBJ_USER )

  0384b	8b 45 f8	 mov	 eax, DWORD PTR _lpObj$[ebp]
  0384e	0f b7 48 68	 movzx	 ecx, WORD PTR [eax+104]
  03852	83 f9 01	 cmp	 ecx, 1
  03855	75 29		 jne	 SHORT $LN40@gObjCalCha

; 1200 : 	{
; 1201 : 		gDarkSpirit[lpObj->m_Index].Set(lpObj->m_Index, &lpObj->pInventory[1]);

  03857	8b 45 f8	 mov	 eax, DWORD PTR _lpObj$[ebp]
  0385a	8b 88 24 0e 00
	00		 mov	 ecx, DWORD PTR [eax+3620]
  03860	81 c1 d4 00 00
	00		 add	 ecx, 212		; 000000d4H
  03866	51		 push	 ecx
  03867	8b 55 f8	 mov	 edx, DWORD PTR _lpObj$[ebp]
  0386a	8b 02		 mov	 eax, DWORD PTR [edx]
  0386c	50		 push	 eax
  0386d	8b 4d f8	 mov	 ecx, DWORD PTR _lpObj$[ebp]
  03870	8b 09		 mov	 ecx, DWORD PTR [ecx]
  03872	6b c9 28	 imul	 ecx, 40			; 00000028H
  03875	81 c1 00 00 00
	00		 add	 ecx, OFFSET ?gDarkSpirit@@3PAVCDarkSpirit@@A ; gDarkSpirit
  0387b	e8 00 00 00 00	 call	 ?Set@CDarkSpirit@@QAEXHPAVCItem@@@Z ; CDarkSpirit::Set
$LN40@gObjCalCha:

; 1202 : 	}
; 1203 : 
; 1204 : 	if ( gObjCheckUserPCBang(lpObj) != 0 ) //season 4.5 add-on (LanHouse Bonus)

  03880	8b 45 f8	 mov	 eax, DWORD PTR _lpObj$[ebp]
  03883	50		 push	 eax
  03884	e8 00 00 00 00	 call	 ?gObjCheckUserPCBang@@YAHPAUOBJECTSTRUCT@@@Z ; gObjCheckUserPCBang
  03889	83 c4 04	 add	 esp, 4
  0388c	85 c0		 test	 eax, eax
  0388e	74 54		 je	 SHORT $LN39@gObjCalCha

; 1205 : 	{
; 1206 : 		lpObj->AddLife += 40;

  03890	8b 45 f8	 mov	 eax, DWORD PTR _lpObj$[ebp]
  03893	8b 88 4c 01 00
	00		 mov	 ecx, DWORD PTR [eax+332]
  03899	83 c1 28	 add	 ecx, 40			; 00000028H
  0389c	8b 55 f8	 mov	 edx, DWORD PTR _lpObj$[ebp]
  0389f	89 8a 4c 01 00
	00		 mov	 DWORD PTR [edx+332], ecx

; 1207 : 		lpObj->AddMana += 40;

  038a5	8b 45 f8	 mov	 eax, DWORD PTR _lpObj$[ebp]
  038a8	8b 88 50 01 00
	00		 mov	 ecx, DWORD PTR [eax+336]
  038ae	83 c1 28	 add	 ecx, 40			; 00000028H
  038b1	8b 55 f8	 mov	 edx, DWORD PTR _lpObj$[ebp]
  038b4	89 8a 50 01 00
	00		 mov	 DWORD PTR [edx+336], ecx

; 1208 : 		lpObj->AddBP += 20;

  038ba	8b 45 f8	 mov	 eax, DWORD PTR _lpObj$[ebp]
  038bd	8b 88 30 01 00
	00		 mov	 ecx, DWORD PTR [eax+304]
  038c3	83 c1 14	 add	 ecx, 20			; 00000014H
  038c6	8b 55 f8	 mov	 edx, DWORD PTR _lpObj$[ebp]
  038c9	89 8a 30 01 00
	00		 mov	 DWORD PTR [edx+304], ecx

; 1209 : 		lpObj->m_Defense += 40;

  038cf	8b 45 f8	 mov	 eax, DWORD PTR _lpObj$[ebp]
  038d2	8b 88 94 04 00
	00		 mov	 ecx, DWORD PTR [eax+1172]
  038d8	83 c1 28	 add	 ecx, 40			; 00000028H
  038db	8b 55 f8	 mov	 edx, DWORD PTR _lpObj$[ebp]
  038de	89 8a 94 04 00
	00		 mov	 DWORD PTR [edx+1172], ecx
$LN39@gObjCalCha:

; 1210 : 	}
; 1211 : 
; 1212 : 	lpObj->pInventory[9].PlusSpecialPercentEx(&lpObj->AddBP, lpObj->MaxBP, 173);

  038e4	68 ad 00 00 00	 push	 173			; 000000adH
  038e9	8b 45 f8	 mov	 eax, DWORD PTR _lpObj$[ebp]
  038ec	8b 88 2c 01 00
	00		 mov	 ecx, DWORD PTR [eax+300]
  038f2	51		 push	 ecx
  038f3	8b 55 f8	 mov	 edx, DWORD PTR _lpObj$[ebp]
  038f6	81 c2 30 01 00
	00		 add	 edx, 304		; 00000130H
  038fc	52		 push	 edx
  038fd	8b 45 f8	 mov	 eax, DWORD PTR _lpObj$[ebp]
  03900	8b 88 24 0e 00
	00		 mov	 ecx, DWORD PTR [eax+3620]
  03906	81 c1 74 07 00
	00		 add	 ecx, 1908		; 00000774H
  0390c	e8 00 00 00 00	 call	 ?PlusSpecialPercentEx@CItem@@QAEXPAHHH@Z ; CItem::PlusSpecialPercentEx

; 1213 : 	lpObj->pInventory[10].PlusSpecialPercentEx(&lpObj->AddMana, (int)lpObj->MaxMana, 172);

  03911	68 ac 00 00 00	 push	 172			; 000000acH
  03916	8b 45 f8	 mov	 eax, DWORD PTR _lpObj$[ebp]
  03919	d9 80 14 01 00
	00		 fld	 DWORD PTR [eax+276]
  0391f	e8 00 00 00 00	 call	 __ftol2_sse
  03924	50		 push	 eax
  03925	8b 4d f8	 mov	 ecx, DWORD PTR _lpObj$[ebp]
  03928	81 c1 50 01 00
	00		 add	 ecx, 336		; 00000150H
  0392e	51		 push	 ecx
  0392f	8b 55 f8	 mov	 edx, DWORD PTR _lpObj$[ebp]
  03932	8b 8a 24 0e 00
	00		 mov	 ecx, DWORD PTR [edx+3620]
  03938	81 c1 48 08 00
	00		 add	 ecx, 2120		; 00000848H
  0393e	e8 00 00 00 00	 call	 ?PlusSpecialPercentEx@CItem@@QAEXPAHHH@Z ; CItem::PlusSpecialPercentEx

; 1214 : 	lpObj->pInventory[11].PlusSpecialPercentEx(&lpObj->AddMana, (int)lpObj->MaxMana, 172);

  03943	68 ac 00 00 00	 push	 172			; 000000acH
  03948	8b 45 f8	 mov	 eax, DWORD PTR _lpObj$[ebp]
  0394b	d9 80 14 01 00
	00		 fld	 DWORD PTR [eax+276]
  03951	e8 00 00 00 00	 call	 __ftol2_sse
  03956	50		 push	 eax
  03957	8b 4d f8	 mov	 ecx, DWORD PTR _lpObj$[ebp]
  0395a	81 c1 50 01 00
	00		 add	 ecx, 336		; 00000150H
  03960	51		 push	 ecx
  03961	8b 55 f8	 mov	 edx, DWORD PTR _lpObj$[ebp]
  03964	8b 8a 24 0e 00
	00		 mov	 ecx, DWORD PTR [edx+3620]
  0396a	81 c1 1c 09 00
	00		 add	 ecx, 2332		; 0000091cH
  03970	e8 00 00 00 00	 call	 ?PlusSpecialPercentEx@CItem@@QAEXPAHHH@Z ; CItem::PlusSpecialPercentEx

; 1215 : 
; 1216 : 	if(lpObj->Class == CLASS_SUMMONER) //Season 3 add-on (Summoning Book Skills Value)

  03975	8b 45 f8	 mov	 eax, DWORD PTR _lpObj$[ebp]
  03978	0f b7 88 b8 00
	00 00		 movzx	 ecx, WORD PTR [eax+184]
  0397f	83 f9 05	 cmp	 ecx, 5
  03982	75 1d		 jne	 SHORT $LN38@gObjCalCha

; 1217 : 	{
; 1218 : 		lpObj->m_iSummonerBookSpellDamageMax = lpObj->pInventory[1].BookSpellDmg(); //

  03984	8b 45 f8	 mov	 eax, DWORD PTR _lpObj$[ebp]
  03987	8b 88 24 0e 00
	00		 mov	 ecx, DWORD PTR [eax+3620]
  0398d	81 c1 d4 00 00
	00		 add	 ecx, 212		; 000000d4H
  03993	e8 00 00 00 00	 call	 ?BookSpellDmg@CItem@@QAEHXZ ; CItem::BookSpellDmg
  03998	8b 4d f8	 mov	 ecx, DWORD PTR _lpObj$[ebp]
  0399b	89 81 a8 04 00
	00		 mov	 DWORD PTR [ecx+1192], eax
$LN38@gObjCalCha:

; 1219 : 	}
; 1220 : 
; 1221 : 	CItem * rItem[3];
; 1222 : 	int comparecount = 0;

  039a1	c7 85 78 fe ff
	ff 00 00 00 00	 mov	 DWORD PTR _comparecount$[ebp], 0

; 1223 : 	
; 1224 : 	rItem[0] = &lpObj->pInventory[10];

  039ab	8b 45 f8	 mov	 eax, DWORD PTR _lpObj$[ebp]
  039ae	8b 88 24 0e 00
	00		 mov	 ecx, DWORD PTR [eax+3620]
  039b4	81 c1 48 08 00
	00		 add	 ecx, 2120		; 00000848H
  039ba	89 8d 7c fe ff
	ff		 mov	 DWORD PTR _rItem$[ebp], ecx

; 1225 : 	rItem[1] = &lpObj->pInventory[11];

  039c0	8b 45 f8	 mov	 eax, DWORD PTR _lpObj$[ebp]
  039c3	8b 88 24 0e 00
	00		 mov	 ecx, DWORD PTR [eax+3620]
  039c9	81 c1 1c 09 00
	00		 add	 ecx, 2332		; 0000091cH
  039cf	89 8d 80 fe ff
	ff		 mov	 DWORD PTR _rItem$[ebp+4], ecx

; 1226 : 	rItem[2] = &lpObj->pInventory[9];

  039d5	8b 45 f8	 mov	 eax, DWORD PTR _lpObj$[ebp]
  039d8	8b 88 24 0e 00
	00		 mov	 ecx, DWORD PTR [eax+3620]
  039de	81 c1 74 07 00
	00		 add	 ecx, 1908		; 00000774H
  039e4	89 8d 84 fe ff
	ff		 mov	 DWORD PTR _rItem$[ebp+8], ecx

; 1227 : 
; 1228 : 	#define GET_MAX_RESISTANCE(x,y,z) ( ( ( ( (x) > (y) ) ? (x) : (y) ) > (z) ) ? ( ( (x) > (y) ) ? (x) : (y) ) : (z) )	
; 1229 : 
; 1230 : 	lpObj->m_Resistance[1] = GET_MAX_RESISTANCE(rItem[0]->m_Resistance[1], rItem[1]->m_Resistance[1], rItem[2]->m_Resistance[1]); //Poison

  039ea	8b 85 7c fe ff
	ff		 mov	 eax, DWORD PTR _rItem$[ebp]
  039f0	0f b6 48 60	 movzx	 ecx, BYTE PTR [eax+96]
  039f4	8b 95 80 fe ff
	ff		 mov	 edx, DWORD PTR _rItem$[ebp+4]
  039fa	0f b6 42 60	 movzx	 eax, BYTE PTR [edx+96]
  039fe	3b c8		 cmp	 ecx, eax
  03a00	7e 11		 jle	 SHORT $LN283@gObjCalCha
  03a02	8b 8d 7c fe ff
	ff		 mov	 ecx, DWORD PTR _rItem$[ebp]
  03a08	8a 51 60	 mov	 dl, BYTE PTR [ecx+96]
  03a0b	88 95 03 fe ff
	ff		 mov	 BYTE PTR tv2679[ebp], dl
  03a11	eb 0f		 jmp	 SHORT $LN284@gObjCalCha
$LN283@gObjCalCha:
  03a13	8b 85 80 fe ff
	ff		 mov	 eax, DWORD PTR _rItem$[ebp+4]
  03a19	8a 48 60	 mov	 cl, BYTE PTR [eax+96]
  03a1c	88 8d 03 fe ff
	ff		 mov	 BYTE PTR tv2679[ebp], cl
$LN284@gObjCalCha:
  03a22	0f b6 95 03 fe
	ff ff		 movzx	 edx, BYTE PTR tv2679[ebp]
  03a29	8b 85 84 fe ff
	ff		 mov	 eax, DWORD PTR _rItem$[ebp+8]
  03a2f	0f b6 48 60	 movzx	 ecx, BYTE PTR [eax+96]
  03a33	3b d1		 cmp	 edx, ecx
  03a35	7e 46		 jle	 SHORT $LN287@gObjCalCha
  03a37	8b 95 7c fe ff
	ff		 mov	 edx, DWORD PTR _rItem$[ebp]
  03a3d	0f b6 42 60	 movzx	 eax, BYTE PTR [edx+96]
  03a41	8b 8d 80 fe ff
	ff		 mov	 ecx, DWORD PTR _rItem$[ebp+4]
  03a47	0f b6 51 60	 movzx	 edx, BYTE PTR [ecx+96]
  03a4b	3b c2		 cmp	 eax, edx
  03a4d	7e 11		 jle	 SHORT $LN285@gObjCalCha
  03a4f	8b 85 7c fe ff
	ff		 mov	 eax, DWORD PTR _rItem$[ebp]
  03a55	8a 48 60	 mov	 cl, BYTE PTR [eax+96]
  03a58	88 8d 02 fe ff
	ff		 mov	 BYTE PTR tv2699[ebp], cl
  03a5e	eb 0f		 jmp	 SHORT $LN286@gObjCalCha
$LN285@gObjCalCha:
  03a60	8b 95 80 fe ff
	ff		 mov	 edx, DWORD PTR _rItem$[ebp+4]
  03a66	8a 42 60	 mov	 al, BYTE PTR [edx+96]
  03a69	88 85 02 fe ff
	ff		 mov	 BYTE PTR tv2699[ebp], al
$LN286@gObjCalCha:
  03a6f	8a 8d 02 fe ff
	ff		 mov	 cl, BYTE PTR tv2699[ebp]
  03a75	88 8d 01 fe ff
	ff		 mov	 BYTE PTR tv2703[ebp], cl
  03a7b	eb 0f		 jmp	 SHORT $LN288@gObjCalCha
$LN287@gObjCalCha:
  03a7d	8b 95 84 fe ff
	ff		 mov	 edx, DWORD PTR _rItem$[ebp+8]
  03a83	8a 42 60	 mov	 al, BYTE PTR [edx+96]
  03a86	88 85 01 fe ff
	ff		 mov	 BYTE PTR tv2703[ebp], al
$LN288@gObjCalCha:
  03a8c	8b 4d f8	 mov	 ecx, DWORD PTR _lpObj$[ebp]
  03a8f	8a 95 01 fe ff
	ff		 mov	 dl, BYTE PTR tv2703[ebp]
  03a95	88 91 f9 04 00
	00		 mov	 BYTE PTR [ecx+1273], dl

; 1231 : 	lpObj->m_Resistance[0] = GET_MAX_RESISTANCE(rItem[0]->m_Resistance[0], rItem[1]->m_Resistance[0], rItem[2]->m_Resistance[0]); //Cold

  03a9b	8b 85 7c fe ff
	ff		 mov	 eax, DWORD PTR _rItem$[ebp]
  03aa1	0f b6 48 5f	 movzx	 ecx, BYTE PTR [eax+95]
  03aa5	8b 95 80 fe ff
	ff		 mov	 edx, DWORD PTR _rItem$[ebp+4]
  03aab	0f b6 42 5f	 movzx	 eax, BYTE PTR [edx+95]
  03aaf	3b c8		 cmp	 ecx, eax
  03ab1	7e 11		 jle	 SHORT $LN289@gObjCalCha
  03ab3	8b 8d 7c fe ff
	ff		 mov	 ecx, DWORD PTR _rItem$[ebp]
  03ab9	8a 51 5f	 mov	 dl, BYTE PTR [ecx+95]
  03abc	88 95 03 fe ff
	ff		 mov	 BYTE PTR tv2719[ebp], dl
  03ac2	eb 0f		 jmp	 SHORT $LN290@gObjCalCha
$LN289@gObjCalCha:
  03ac4	8b 85 80 fe ff
	ff		 mov	 eax, DWORD PTR _rItem$[ebp+4]
  03aca	8a 48 5f	 mov	 cl, BYTE PTR [eax+95]
  03acd	88 8d 03 fe ff
	ff		 mov	 BYTE PTR tv2719[ebp], cl
$LN290@gObjCalCha:
  03ad3	0f b6 95 03 fe
	ff ff		 movzx	 edx, BYTE PTR tv2719[ebp]
  03ada	8b 85 84 fe ff
	ff		 mov	 eax, DWORD PTR _rItem$[ebp+8]
  03ae0	0f b6 48 5f	 movzx	 ecx, BYTE PTR [eax+95]
  03ae4	3b d1		 cmp	 edx, ecx
  03ae6	7e 46		 jle	 SHORT $LN293@gObjCalCha
  03ae8	8b 95 7c fe ff
	ff		 mov	 edx, DWORD PTR _rItem$[ebp]
  03aee	0f b6 42 5f	 movzx	 eax, BYTE PTR [edx+95]
  03af2	8b 8d 80 fe ff
	ff		 mov	 ecx, DWORD PTR _rItem$[ebp+4]
  03af8	0f b6 51 5f	 movzx	 edx, BYTE PTR [ecx+95]
  03afc	3b c2		 cmp	 eax, edx
  03afe	7e 11		 jle	 SHORT $LN291@gObjCalCha
  03b00	8b 85 7c fe ff
	ff		 mov	 eax, DWORD PTR _rItem$[ebp]
  03b06	8a 48 5f	 mov	 cl, BYTE PTR [eax+95]
  03b09	88 8d 02 fe ff
	ff		 mov	 BYTE PTR tv2739[ebp], cl
  03b0f	eb 0f		 jmp	 SHORT $LN292@gObjCalCha
$LN291@gObjCalCha:
  03b11	8b 95 80 fe ff
	ff		 mov	 edx, DWORD PTR _rItem$[ebp+4]
  03b17	8a 42 5f	 mov	 al, BYTE PTR [edx+95]
  03b1a	88 85 02 fe ff
	ff		 mov	 BYTE PTR tv2739[ebp], al
$LN292@gObjCalCha:
  03b20	8a 8d 02 fe ff
	ff		 mov	 cl, BYTE PTR tv2739[ebp]
  03b26	88 8d 01 fe ff
	ff		 mov	 BYTE PTR tv2743[ebp], cl
  03b2c	eb 0f		 jmp	 SHORT $LN294@gObjCalCha
$LN293@gObjCalCha:
  03b2e	8b 95 84 fe ff
	ff		 mov	 edx, DWORD PTR _rItem$[ebp+8]
  03b34	8a 42 5f	 mov	 al, BYTE PTR [edx+95]
  03b37	88 85 01 fe ff
	ff		 mov	 BYTE PTR tv2743[ebp], al
$LN294@gObjCalCha:
  03b3d	8b 4d f8	 mov	 ecx, DWORD PTR _lpObj$[ebp]
  03b40	8a 95 01 fe ff
	ff		 mov	 dl, BYTE PTR tv2743[ebp]
  03b46	88 91 f8 04 00
	00		 mov	 BYTE PTR [ecx+1272], dl

; 1232 : 	lpObj->m_Resistance[2] = GET_MAX_RESISTANCE(rItem[0]->m_Resistance[2], rItem[1]->m_Resistance[2], rItem[2]->m_Resistance[2]); //Thunder

  03b4c	8b 85 7c fe ff
	ff		 mov	 eax, DWORD PTR _rItem$[ebp]
  03b52	0f b6 48 61	 movzx	 ecx, BYTE PTR [eax+97]
  03b56	8b 95 80 fe ff
	ff		 mov	 edx, DWORD PTR _rItem$[ebp+4]
  03b5c	0f b6 42 61	 movzx	 eax, BYTE PTR [edx+97]
  03b60	3b c8		 cmp	 ecx, eax
  03b62	7e 11		 jle	 SHORT $LN295@gObjCalCha
  03b64	8b 8d 7c fe ff
	ff		 mov	 ecx, DWORD PTR _rItem$[ebp]
  03b6a	8a 51 61	 mov	 dl, BYTE PTR [ecx+97]
  03b6d	88 95 03 fe ff
	ff		 mov	 BYTE PTR tv2759[ebp], dl
  03b73	eb 0f		 jmp	 SHORT $LN296@gObjCalCha
$LN295@gObjCalCha:
  03b75	8b 85 80 fe ff
	ff		 mov	 eax, DWORD PTR _rItem$[ebp+4]
  03b7b	8a 48 61	 mov	 cl, BYTE PTR [eax+97]
  03b7e	88 8d 03 fe ff
	ff		 mov	 BYTE PTR tv2759[ebp], cl
$LN296@gObjCalCha:
  03b84	0f b6 95 03 fe
	ff ff		 movzx	 edx, BYTE PTR tv2759[ebp]
  03b8b	8b 85 84 fe ff
	ff		 mov	 eax, DWORD PTR _rItem$[ebp+8]
  03b91	0f b6 48 61	 movzx	 ecx, BYTE PTR [eax+97]
  03b95	3b d1		 cmp	 edx, ecx
  03b97	7e 46		 jle	 SHORT $LN299@gObjCalCha
  03b99	8b 95 7c fe ff
	ff		 mov	 edx, DWORD PTR _rItem$[ebp]
  03b9f	0f b6 42 61	 movzx	 eax, BYTE PTR [edx+97]
  03ba3	8b 8d 80 fe ff
	ff		 mov	 ecx, DWORD PTR _rItem$[ebp+4]
  03ba9	0f b6 51 61	 movzx	 edx, BYTE PTR [ecx+97]
  03bad	3b c2		 cmp	 eax, edx
  03baf	7e 11		 jle	 SHORT $LN297@gObjCalCha
  03bb1	8b 85 7c fe ff
	ff		 mov	 eax, DWORD PTR _rItem$[ebp]
  03bb7	8a 48 61	 mov	 cl, BYTE PTR [eax+97]
  03bba	88 8d 02 fe ff
	ff		 mov	 BYTE PTR tv2779[ebp], cl
  03bc0	eb 0f		 jmp	 SHORT $LN298@gObjCalCha
$LN297@gObjCalCha:
  03bc2	8b 95 80 fe ff
	ff		 mov	 edx, DWORD PTR _rItem$[ebp+4]
  03bc8	8a 42 61	 mov	 al, BYTE PTR [edx+97]
  03bcb	88 85 02 fe ff
	ff		 mov	 BYTE PTR tv2779[ebp], al
$LN298@gObjCalCha:
  03bd1	8a 8d 02 fe ff
	ff		 mov	 cl, BYTE PTR tv2779[ebp]
  03bd7	88 8d 01 fe ff
	ff		 mov	 BYTE PTR tv2783[ebp], cl
  03bdd	eb 0f		 jmp	 SHORT $LN300@gObjCalCha
$LN299@gObjCalCha:
  03bdf	8b 95 84 fe ff
	ff		 mov	 edx, DWORD PTR _rItem$[ebp+8]
  03be5	8a 42 61	 mov	 al, BYTE PTR [edx+97]
  03be8	88 85 01 fe ff
	ff		 mov	 BYTE PTR tv2783[ebp], al
$LN300@gObjCalCha:
  03bee	8b 4d f8	 mov	 ecx, DWORD PTR _lpObj$[ebp]
  03bf1	8a 95 01 fe ff
	ff		 mov	 dl, BYTE PTR tv2783[ebp]
  03bf7	88 91 fa 04 00
	00		 mov	 BYTE PTR [ecx+1274], dl

; 1233 : 	lpObj->m_Resistance[3] = GET_MAX_RESISTANCE(rItem[0]->m_Resistance[3], rItem[1]->m_Resistance[3], rItem[2]->m_Resistance[3]); //Fire

  03bfd	8b 85 7c fe ff
	ff		 mov	 eax, DWORD PTR _rItem$[ebp]
  03c03	0f b6 48 62	 movzx	 ecx, BYTE PTR [eax+98]
  03c07	8b 95 80 fe ff
	ff		 mov	 edx, DWORD PTR _rItem$[ebp+4]
  03c0d	0f b6 42 62	 movzx	 eax, BYTE PTR [edx+98]
  03c11	3b c8		 cmp	 ecx, eax
  03c13	7e 11		 jle	 SHORT $LN301@gObjCalCha
  03c15	8b 8d 7c fe ff
	ff		 mov	 ecx, DWORD PTR _rItem$[ebp]
  03c1b	8a 51 62	 mov	 dl, BYTE PTR [ecx+98]
  03c1e	88 95 03 fe ff
	ff		 mov	 BYTE PTR tv2799[ebp], dl
  03c24	eb 0f		 jmp	 SHORT $LN302@gObjCalCha
$LN301@gObjCalCha:
  03c26	8b 85 80 fe ff
	ff		 mov	 eax, DWORD PTR _rItem$[ebp+4]
  03c2c	8a 48 62	 mov	 cl, BYTE PTR [eax+98]
  03c2f	88 8d 03 fe ff
	ff		 mov	 BYTE PTR tv2799[ebp], cl
$LN302@gObjCalCha:
  03c35	0f b6 95 03 fe
	ff ff		 movzx	 edx, BYTE PTR tv2799[ebp]
  03c3c	8b 85 84 fe ff
	ff		 mov	 eax, DWORD PTR _rItem$[ebp+8]
  03c42	0f b6 48 62	 movzx	 ecx, BYTE PTR [eax+98]
  03c46	3b d1		 cmp	 edx, ecx
  03c48	7e 46		 jle	 SHORT $LN305@gObjCalCha
  03c4a	8b 95 7c fe ff
	ff		 mov	 edx, DWORD PTR _rItem$[ebp]
  03c50	0f b6 42 62	 movzx	 eax, BYTE PTR [edx+98]
  03c54	8b 8d 80 fe ff
	ff		 mov	 ecx, DWORD PTR _rItem$[ebp+4]
  03c5a	0f b6 51 62	 movzx	 edx, BYTE PTR [ecx+98]
  03c5e	3b c2		 cmp	 eax, edx
  03c60	7e 11		 jle	 SHORT $LN303@gObjCalCha
  03c62	8b 85 7c fe ff
	ff		 mov	 eax, DWORD PTR _rItem$[ebp]
  03c68	8a 48 62	 mov	 cl, BYTE PTR [eax+98]
  03c6b	88 8d 02 fe ff
	ff		 mov	 BYTE PTR tv2819[ebp], cl
  03c71	eb 0f		 jmp	 SHORT $LN304@gObjCalCha
$LN303@gObjCalCha:
  03c73	8b 95 80 fe ff
	ff		 mov	 edx, DWORD PTR _rItem$[ebp+4]
  03c79	8a 42 62	 mov	 al, BYTE PTR [edx+98]
  03c7c	88 85 02 fe ff
	ff		 mov	 BYTE PTR tv2819[ebp], al
$LN304@gObjCalCha:
  03c82	8a 8d 02 fe ff
	ff		 mov	 cl, BYTE PTR tv2819[ebp]
  03c88	88 8d 01 fe ff
	ff		 mov	 BYTE PTR tv2823[ebp], cl
  03c8e	eb 0f		 jmp	 SHORT $LN306@gObjCalCha
$LN305@gObjCalCha:
  03c90	8b 95 84 fe ff
	ff		 mov	 edx, DWORD PTR _rItem$[ebp+8]
  03c96	8a 42 62	 mov	 al, BYTE PTR [edx+98]
  03c99	88 85 01 fe ff
	ff		 mov	 BYTE PTR tv2823[ebp], al
$LN306@gObjCalCha:
  03c9f	8b 4d f8	 mov	 ecx, DWORD PTR _lpObj$[ebp]
  03ca2	8a 95 01 fe ff
	ff		 mov	 dl, BYTE PTR tv2823[ebp]
  03ca8	88 91 fb 04 00
	00		 mov	 BYTE PTR [ecx+1275], dl

; 1234 : 
; 1235 : 	lpObj->m_Resistance[4] = GET_MAX_RESISTANCE(rItem[0]->m_Resistance[4], rItem[1]->m_Resistance[4], rItem[2]->m_Resistance[4]);

  03cae	8b 85 7c fe ff
	ff		 mov	 eax, DWORD PTR _rItem$[ebp]
  03cb4	0f b6 48 63	 movzx	 ecx, BYTE PTR [eax+99]
  03cb8	8b 95 80 fe ff
	ff		 mov	 edx, DWORD PTR _rItem$[ebp+4]
  03cbe	0f b6 42 63	 movzx	 eax, BYTE PTR [edx+99]
  03cc2	3b c8		 cmp	 ecx, eax
  03cc4	7e 11		 jle	 SHORT $LN307@gObjCalCha
  03cc6	8b 8d 7c fe ff
	ff		 mov	 ecx, DWORD PTR _rItem$[ebp]
  03ccc	8a 51 63	 mov	 dl, BYTE PTR [ecx+99]
  03ccf	88 95 03 fe ff
	ff		 mov	 BYTE PTR tv2839[ebp], dl
  03cd5	eb 0f		 jmp	 SHORT $LN308@gObjCalCha
$LN307@gObjCalCha:
  03cd7	8b 85 80 fe ff
	ff		 mov	 eax, DWORD PTR _rItem$[ebp+4]
  03cdd	8a 48 63	 mov	 cl, BYTE PTR [eax+99]
  03ce0	88 8d 03 fe ff
	ff		 mov	 BYTE PTR tv2839[ebp], cl
$LN308@gObjCalCha:
  03ce6	0f b6 95 03 fe
	ff ff		 movzx	 edx, BYTE PTR tv2839[ebp]
  03ced	8b 85 84 fe ff
	ff		 mov	 eax, DWORD PTR _rItem$[ebp+8]
  03cf3	0f b6 48 63	 movzx	 ecx, BYTE PTR [eax+99]
  03cf7	3b d1		 cmp	 edx, ecx
  03cf9	7e 46		 jle	 SHORT $LN311@gObjCalCha
  03cfb	8b 95 7c fe ff
	ff		 mov	 edx, DWORD PTR _rItem$[ebp]
  03d01	0f b6 42 63	 movzx	 eax, BYTE PTR [edx+99]
  03d05	8b 8d 80 fe ff
	ff		 mov	 ecx, DWORD PTR _rItem$[ebp+4]
  03d0b	0f b6 51 63	 movzx	 edx, BYTE PTR [ecx+99]
  03d0f	3b c2		 cmp	 eax, edx
  03d11	7e 11		 jle	 SHORT $LN309@gObjCalCha
  03d13	8b 85 7c fe ff
	ff		 mov	 eax, DWORD PTR _rItem$[ebp]
  03d19	8a 48 63	 mov	 cl, BYTE PTR [eax+99]
  03d1c	88 8d 02 fe ff
	ff		 mov	 BYTE PTR tv2859[ebp], cl
  03d22	eb 0f		 jmp	 SHORT $LN310@gObjCalCha
$LN309@gObjCalCha:
  03d24	8b 95 80 fe ff
	ff		 mov	 edx, DWORD PTR _rItem$[ebp+4]
  03d2a	8a 42 63	 mov	 al, BYTE PTR [edx+99]
  03d2d	88 85 02 fe ff
	ff		 mov	 BYTE PTR tv2859[ebp], al
$LN310@gObjCalCha:
  03d33	8a 8d 02 fe ff
	ff		 mov	 cl, BYTE PTR tv2859[ebp]
  03d39	88 8d 01 fe ff
	ff		 mov	 BYTE PTR tv2863[ebp], cl
  03d3f	eb 0f		 jmp	 SHORT $LN312@gObjCalCha
$LN311@gObjCalCha:
  03d41	8b 95 84 fe ff
	ff		 mov	 edx, DWORD PTR _rItem$[ebp+8]
  03d47	8a 42 63	 mov	 al, BYTE PTR [edx+99]
  03d4a	88 85 01 fe ff
	ff		 mov	 BYTE PTR tv2863[ebp], al
$LN312@gObjCalCha:
  03d50	8b 4d f8	 mov	 ecx, DWORD PTR _lpObj$[ebp]
  03d53	8a 95 01 fe ff
	ff		 mov	 dl, BYTE PTR tv2863[ebp]
  03d59	88 91 fc 04 00
	00		 mov	 BYTE PTR [ecx+1276], dl

; 1236 : 	lpObj->m_Resistance[5] = GET_MAX_RESISTANCE(rItem[0]->m_Resistance[5], rItem[1]->m_Resistance[5], rItem[2]->m_Resistance[5]);

  03d5f	8b 85 7c fe ff
	ff		 mov	 eax, DWORD PTR _rItem$[ebp]
  03d65	0f b6 48 64	 movzx	 ecx, BYTE PTR [eax+100]
  03d69	8b 95 80 fe ff
	ff		 mov	 edx, DWORD PTR _rItem$[ebp+4]
  03d6f	0f b6 42 64	 movzx	 eax, BYTE PTR [edx+100]
  03d73	3b c8		 cmp	 ecx, eax
  03d75	7e 11		 jle	 SHORT $LN313@gObjCalCha
  03d77	8b 8d 7c fe ff
	ff		 mov	 ecx, DWORD PTR _rItem$[ebp]
  03d7d	8a 51 64	 mov	 dl, BYTE PTR [ecx+100]
  03d80	88 95 03 fe ff
	ff		 mov	 BYTE PTR tv2879[ebp], dl
  03d86	eb 0f		 jmp	 SHORT $LN314@gObjCalCha
$LN313@gObjCalCha:
  03d88	8b 85 80 fe ff
	ff		 mov	 eax, DWORD PTR _rItem$[ebp+4]
  03d8e	8a 48 64	 mov	 cl, BYTE PTR [eax+100]
  03d91	88 8d 03 fe ff
	ff		 mov	 BYTE PTR tv2879[ebp], cl
$LN314@gObjCalCha:
  03d97	0f b6 95 03 fe
	ff ff		 movzx	 edx, BYTE PTR tv2879[ebp]
  03d9e	8b 85 84 fe ff
	ff		 mov	 eax, DWORD PTR _rItem$[ebp+8]
  03da4	0f b6 48 64	 movzx	 ecx, BYTE PTR [eax+100]
  03da8	3b d1		 cmp	 edx, ecx
  03daa	7e 46		 jle	 SHORT $LN317@gObjCalCha
  03dac	8b 95 7c fe ff
	ff		 mov	 edx, DWORD PTR _rItem$[ebp]
  03db2	0f b6 42 64	 movzx	 eax, BYTE PTR [edx+100]
  03db6	8b 8d 80 fe ff
	ff		 mov	 ecx, DWORD PTR _rItem$[ebp+4]
  03dbc	0f b6 51 64	 movzx	 edx, BYTE PTR [ecx+100]
  03dc0	3b c2		 cmp	 eax, edx
  03dc2	7e 11		 jle	 SHORT $LN315@gObjCalCha
  03dc4	8b 85 7c fe ff
	ff		 mov	 eax, DWORD PTR _rItem$[ebp]
  03dca	8a 48 64	 mov	 cl, BYTE PTR [eax+100]
  03dcd	88 8d 02 fe ff
	ff		 mov	 BYTE PTR tv2899[ebp], cl
  03dd3	eb 0f		 jmp	 SHORT $LN316@gObjCalCha
$LN315@gObjCalCha:
  03dd5	8b 95 80 fe ff
	ff		 mov	 edx, DWORD PTR _rItem$[ebp+4]
  03ddb	8a 42 64	 mov	 al, BYTE PTR [edx+100]
  03dde	88 85 02 fe ff
	ff		 mov	 BYTE PTR tv2899[ebp], al
$LN316@gObjCalCha:
  03de4	8a 8d 02 fe ff
	ff		 mov	 cl, BYTE PTR tv2899[ebp]
  03dea	88 8d 01 fe ff
	ff		 mov	 BYTE PTR tv2903[ebp], cl
  03df0	eb 0f		 jmp	 SHORT $LN318@gObjCalCha
$LN317@gObjCalCha:
  03df2	8b 95 84 fe ff
	ff		 mov	 edx, DWORD PTR _rItem$[ebp+8]
  03df8	8a 42 64	 mov	 al, BYTE PTR [edx+100]
  03dfb	88 85 01 fe ff
	ff		 mov	 BYTE PTR tv2903[ebp], al
$LN318@gObjCalCha:
  03e01	8b 4d f8	 mov	 ecx, DWORD PTR _lpObj$[ebp]
  03e04	8a 95 01 fe ff
	ff		 mov	 dl, BYTE PTR tv2903[ebp]
  03e0a	88 91 fd 04 00
	00		 mov	 BYTE PTR [ecx+1277], dl

; 1237 : 	lpObj->m_Resistance[6] = GET_MAX_RESISTANCE(rItem[0]->m_Resistance[6], rItem[1]->m_Resistance[6], rItem[2]->m_Resistance[6]);

  03e10	8b 85 7c fe ff
	ff		 mov	 eax, DWORD PTR _rItem$[ebp]
  03e16	0f b6 48 65	 movzx	 ecx, BYTE PTR [eax+101]
  03e1a	8b 95 80 fe ff
	ff		 mov	 edx, DWORD PTR _rItem$[ebp+4]
  03e20	0f b6 42 65	 movzx	 eax, BYTE PTR [edx+101]
  03e24	3b c8		 cmp	 ecx, eax
  03e26	7e 11		 jle	 SHORT $LN319@gObjCalCha
  03e28	8b 8d 7c fe ff
	ff		 mov	 ecx, DWORD PTR _rItem$[ebp]
  03e2e	8a 51 65	 mov	 dl, BYTE PTR [ecx+101]
  03e31	88 95 03 fe ff
	ff		 mov	 BYTE PTR tv2919[ebp], dl
  03e37	eb 0f		 jmp	 SHORT $LN320@gObjCalCha
$LN319@gObjCalCha:
  03e39	8b 85 80 fe ff
	ff		 mov	 eax, DWORD PTR _rItem$[ebp+4]
  03e3f	8a 48 65	 mov	 cl, BYTE PTR [eax+101]
  03e42	88 8d 03 fe ff
	ff		 mov	 BYTE PTR tv2919[ebp], cl
$LN320@gObjCalCha:
  03e48	0f b6 95 03 fe
	ff ff		 movzx	 edx, BYTE PTR tv2919[ebp]
  03e4f	8b 85 84 fe ff
	ff		 mov	 eax, DWORD PTR _rItem$[ebp+8]
  03e55	0f b6 48 65	 movzx	 ecx, BYTE PTR [eax+101]
  03e59	3b d1		 cmp	 edx, ecx
  03e5b	7e 46		 jle	 SHORT $LN323@gObjCalCha
  03e5d	8b 95 7c fe ff
	ff		 mov	 edx, DWORD PTR _rItem$[ebp]
  03e63	0f b6 42 65	 movzx	 eax, BYTE PTR [edx+101]
  03e67	8b 8d 80 fe ff
	ff		 mov	 ecx, DWORD PTR _rItem$[ebp+4]
  03e6d	0f b6 51 65	 movzx	 edx, BYTE PTR [ecx+101]
  03e71	3b c2		 cmp	 eax, edx
  03e73	7e 11		 jle	 SHORT $LN321@gObjCalCha
  03e75	8b 85 7c fe ff
	ff		 mov	 eax, DWORD PTR _rItem$[ebp]
  03e7b	8a 48 65	 mov	 cl, BYTE PTR [eax+101]
  03e7e	88 8d 02 fe ff
	ff		 mov	 BYTE PTR tv2939[ebp], cl
  03e84	eb 0f		 jmp	 SHORT $LN322@gObjCalCha
$LN321@gObjCalCha:
  03e86	8b 95 80 fe ff
	ff		 mov	 edx, DWORD PTR _rItem$[ebp+4]
  03e8c	8a 42 65	 mov	 al, BYTE PTR [edx+101]
  03e8f	88 85 02 fe ff
	ff		 mov	 BYTE PTR tv2939[ebp], al
$LN322@gObjCalCha:
  03e95	8a 8d 02 fe ff
	ff		 mov	 cl, BYTE PTR tv2939[ebp]
  03e9b	88 8d 01 fe ff
	ff		 mov	 BYTE PTR tv2943[ebp], cl
  03ea1	eb 0f		 jmp	 SHORT $LN324@gObjCalCha
$LN323@gObjCalCha:
  03ea3	8b 95 84 fe ff
	ff		 mov	 edx, DWORD PTR _rItem$[ebp+8]
  03ea9	8a 42 65	 mov	 al, BYTE PTR [edx+101]
  03eac	88 85 01 fe ff
	ff		 mov	 BYTE PTR tv2943[ebp], al
$LN324@gObjCalCha:
  03eb2	8b 4d f8	 mov	 ecx, DWORD PTR _lpObj$[ebp]
  03eb5	8a 95 01 fe ff
	ff		 mov	 dl, BYTE PTR tv2943[ebp]
  03ebb	88 91 fe 04 00
	00		 mov	 BYTE PTR [ecx+1278], dl

; 1238 : 
; 1239 : 	lpObj->m_Resistance[1] += lpObj->m_MPSkillOpt.MpsResistancePoison;//m_MLPassiveSkill.m_iML_ResistanceIncrease_Poison;

  03ec1	8b 45 f8	 mov	 eax, DWORD PTR _lpObj$[ebp]
  03ec4	0f be 88 f9 04
	00 00		 movsx	 ecx, BYTE PTR [eax+1273]
  03ecb	89 8d 00 fe ff
	ff		 mov	 DWORD PTR tv6150[ebp], ecx
  03ed1	db 85 00 fe ff
	ff		 fild	 DWORD PTR tv6150[ebp]
  03ed7	8b 55 f8	 mov	 edx, DWORD PTR _lpObj$[ebp]
  03eda	d8 82 54 26 00
	00		 fadd	 DWORD PTR [edx+9812]
  03ee0	e8 00 00 00 00	 call	 __ftol2_sse
  03ee5	8b 4d f8	 mov	 ecx, DWORD PTR _lpObj$[ebp]
  03ee8	88 81 f9 04 00
	00		 mov	 BYTE PTR [ecx+1273], al

; 1240 : 	lpObj->m_Resistance[2] += lpObj->m_MPSkillOpt.MpsResistanceThunder;//m_MLPassiveSkill.m_iML_ResistanceIncrease_Lightning;

  03eee	8b 45 f8	 mov	 eax, DWORD PTR _lpObj$[ebp]
  03ef1	0f be 88 fa 04
	00 00		 movsx	 ecx, BYTE PTR [eax+1274]
  03ef8	89 8d 00 fe ff
	ff		 mov	 DWORD PTR tv6158[ebp], ecx
  03efe	db 85 00 fe ff
	ff		 fild	 DWORD PTR tv6158[ebp]
  03f04	8b 55 f8	 mov	 edx, DWORD PTR _lpObj$[ebp]
  03f07	d8 82 58 26 00
	00		 fadd	 DWORD PTR [edx+9816]
  03f0d	e8 00 00 00 00	 call	 __ftol2_sse
  03f12	8b 4d f8	 mov	 ecx, DWORD PTR _lpObj$[ebp]
  03f15	88 81 fa 04 00
	00		 mov	 BYTE PTR [ecx+1274], al

; 1241 : 	lpObj->m_Resistance[0] += lpObj->m_MPSkillOpt.MpsResistanceIce;//m_MLPassiveSkill.m_iML_ResistanceIncrease_Ice;

  03f1b	8b 45 f8	 mov	 eax, DWORD PTR _lpObj$[ebp]
  03f1e	0f be 88 f8 04
	00 00		 movsx	 ecx, BYTE PTR [eax+1272]
  03f25	89 8d 00 fe ff
	ff		 mov	 DWORD PTR tv6166[ebp], ecx
  03f2b	db 85 00 fe ff
	ff		 fild	 DWORD PTR tv6166[ebp]
  03f31	8b 55 f8	 mov	 edx, DWORD PTR _lpObj$[ebp]
  03f34	d8 82 5c 26 00
	00		 fadd	 DWORD PTR [edx+9820]
  03f3a	e8 00 00 00 00	 call	 __ftol2_sse
  03f3f	8b 4d f8	 mov	 ecx, DWORD PTR _lpObj$[ebp]
  03f42	88 81 f8 04 00
	00		 mov	 BYTE PTR [ecx+1272], al

; 1242 : 
; 1243 : 	g_kItemSystemFor380.ApplyFor380Option(lpObj);

  03f48	8b 45 f8	 mov	 eax, DWORD PTR _lpObj$[ebp]
  03f4b	50		 push	 eax
  03f4c	b9 00 00 00 00	 mov	 ecx, OFFSET ?g_kItemSystemFor380@@3VCItemSystemFor380@@A ; g_kItemSystemFor380
  03f51	e8 00 00 00 00	 call	 ?ApplyFor380Option@CItemSystemFor380@@QAEHPAUOBJECTSTRUCT@@@Z ; CItemSystemFor380::ApplyFor380Option

; 1244 : 	g_kJewelOfHarmonySystem.SetApplyStrengthenItem(lpObj);

  03f56	8b 45 f8	 mov	 eax, DWORD PTR _lpObj$[ebp]
  03f59	50		 push	 eax
  03f5a	b9 00 00 00 00	 mov	 ecx, OFFSET ?g_kJewelOfHarmonySystem@@3VCJewelOfHarmonySystem@@A ; g_kJewelOfHarmonySystem
  03f5f	e8 00 00 00 00	 call	 ?SetApplyStrengthenItem@CJewelOfHarmonySystem@@QAEXPAUOBJECTSTRUCT@@@Z ; CJewelOfHarmonySystem::SetApplyStrengthenItem

; 1245 : 	g_SocketOption.CalCharacterSocketOption(lpObj); //season4 add-on

  03f64	8b 45 f8	 mov	 eax, DWORD PTR _lpObj$[ebp]
  03f67	50		 push	 eax
  03f68	b9 00 00 00 00	 mov	 ecx, OFFSET ?g_SocketOption@@3VCSocketOption@@A ; g_SocketOption
  03f6d	e8 00 00 00 00	 call	 ?CalCharacterSocketOption@CSocketOption@@QAEEPAUOBJECTSTRUCT@@@Z ; CSocketOption::CalCharacterSocketOption

; 1246 : 
; 1247 : 	lpObj->AddLife		+= lpObj->m_MPSkillOpt.MpsMaxHP;

  03f72	8b 45 f8	 mov	 eax, DWORD PTR _lpObj$[ebp]
  03f75	db 80 4c 01 00
	00		 fild	 DWORD PTR [eax+332]
  03f7b	8b 4d f8	 mov	 ecx, DWORD PTR _lpObj$[ebp]
  03f7e	d8 81 38 27 00
	00		 fadd	 DWORD PTR [ecx+10040]
  03f84	e8 00 00 00 00	 call	 __ftol2_sse
  03f89	8b 55 f8	 mov	 edx, DWORD PTR _lpObj$[ebp]
  03f8c	89 82 4c 01 00
	00		 mov	 DWORD PTR [edx+332], eax

; 1248 : 	lpObj->AddBP		+= lpObj->m_MPSkillOpt.MpsMaxBP;

  03f92	8b 45 f8	 mov	 eax, DWORD PTR _lpObj$[ebp]
  03f95	db 80 30 01 00
	00		 fild	 DWORD PTR [eax+304]
  03f9b	8b 4d f8	 mov	 ecx, DWORD PTR _lpObj$[ebp]
  03f9e	d8 81 3c 27 00
	00		 fadd	 DWORD PTR [ecx+10044]
  03fa4	e8 00 00 00 00	 call	 __ftol2_sse
  03fa9	8b 55 f8	 mov	 edx, DWORD PTR _lpObj$[ebp]
  03fac	89 82 30 01 00
	00		 mov	 DWORD PTR [edx+304], eax

; 1249 : 	lpObj->iAddShield	+= lpObj->m_MPSkillOpt.MpsMaxSD;

  03fb2	8b 45 f8	 mov	 eax, DWORD PTR _lpObj$[ebp]
  03fb5	db 80 5c 01 00
	00		 fild	 DWORD PTR [eax+348]
  03fbb	8b 4d f8	 mov	 ecx, DWORD PTR _lpObj$[ebp]
  03fbe	d8 81 50 27 00
	00		 fadd	 DWORD PTR [ecx+10064]
  03fc4	e8 00 00 00 00	 call	 __ftol2_sse
  03fc9	8b 55 f8	 mov	 edx, DWORD PTR _lpObj$[ebp]
  03fcc	89 82 5c 01 00
	00		 mov	 DWORD PTR [edx+348], eax

; 1250 : 	lpObj->AddMana		+= lpObj->m_MPSkillOpt.MpsMaxMP;

  03fd2	8b 45 f8	 mov	 eax, DWORD PTR _lpObj$[ebp]
  03fd5	db 80 50 01 00
	00		 fild	 DWORD PTR [eax+336]
  03fdb	8b 4d f8	 mov	 ecx, DWORD PTR _lpObj$[ebp]
  03fde	d8 81 40 27 00
	00		 fadd	 DWORD PTR [ecx+10048]
  03fe4	e8 00 00 00 00	 call	 __ftol2_sse
  03fe9	8b 55 f8	 mov	 edx, DWORD PTR _lpObj$[ebp]
  03fec	89 82 50 01 00
	00		 mov	 DWORD PTR [edx+336], eax

; 1251 : 
; 1252 : 	gObjInventoryEquipment(lpObj);

  03ff2	8b 45 f8	 mov	 eax, DWORD PTR _lpObj$[ebp]
  03ff5	50		 push	 eax
  03ff6	e8 00 00 00 00	 call	 ?gObjInventoryEquipment@@YAHPAUOBJECTSTRUCT@@@Z ; gObjInventoryEquipment
  03ffb	83 c4 04	 add	 esp, 4

; 1253 : 
; 1254 : 
; 1255 : 	GObjExtItemApply(lpObj);

  03ffe	8b 45 f8	 mov	 eax, DWORD PTR _lpObj$[ebp]
  04001	50		 push	 eax
  04002	e8 00 00 00 00	 call	 ?GObjExtItemApply@@YAXPAUOBJECTSTRUCT@@@Z ; GObjExtItemApply
  04007	83 c4 04	 add	 esp, 4

; 1256 : 	gObjSetItemApply(lpObj);

  0400a	8b 45 f8	 mov	 eax, DWORD PTR _lpObj$[ebp]
  0400d	50		 push	 eax
  0400e	e8 00 00 00 00	 call	 ?gObjSetItemApply@@YAXPAUOBJECTSTRUCT@@@Z ; gObjSetItemApply
  04013	83 c4 04	 add	 esp, 4

; 1257 : 	gObjNextExpCal(lpObj);

  04016	8b 45 f8	 mov	 eax, DWORD PTR _lpObj$[ebp]
  04019	50		 push	 eax
  0401a	e8 00 00 00 00	 call	 ?gObjNextExpCal@@YAXPAUOBJECTSTRUCT@@@Z ; gObjNextExpCal
  0401f	83 c4 04	 add	 esp, 4

; 1258 : #if(GRAND_HERO_DEV)
; 1259 : 	GrandHero.ItemOption(aIndex);

  04022	8b 45 08	 mov	 eax, DWORD PTR _aIndex$[ebp]
  04025	50		 push	 eax
  04026	b9 00 00 00 00	 mov	 ecx, OFFSET ?GrandHero@@3VcGrandHero@@A ; GrandHero
  0402b	e8 00 00 00 00	 call	 ?ItemOption@cGrandHero@@QAEXH@Z ; cGrandHero::ItemOption

; 1260 : #endif
; 1261 : 
; 1262 : 	if ( (Left->m_Type >= ITEMGET(4,0) && Left->m_Type < ITEMGET(4,7) ) || Left->m_Type == ITEMGET(4,17) || Left->m_Type == ITEMGET(4,20) || Left->m_Type == ITEMGET(4,21) || Left->m_Type == ITEMGET(4,22) ||
; 1263 : 		Left->m_Type == ITEMGET(4,23)) //season4 add-on

  04030	8b 45 e0	 mov	 eax, DWORD PTR _Left$[ebp]
  04033	0f bf 48 06	 movsx	 ecx, WORD PTR [eax+6]
  04037	81 f9 00 08 00
	00		 cmp	 ecx, 2048		; 00000800H
  0403d	7c 0f		 jl	 SHORT $LN35@gObjCalCha
  0403f	8b 45 e0	 mov	 eax, DWORD PTR _Left$[ebp]
  04042	0f bf 48 06	 movsx	 ecx, WORD PTR [eax+6]
  04046	81 f9 07 08 00
	00		 cmp	 ecx, 2055		; 00000807H
  0404c	7c 4f		 jl	 SHORT $LN36@gObjCalCha
$LN35@gObjCalCha:
  0404e	8b 45 e0	 mov	 eax, DWORD PTR _Left$[ebp]
  04051	0f bf 48 06	 movsx	 ecx, WORD PTR [eax+6]
  04055	81 f9 11 08 00
	00		 cmp	 ecx, 2065		; 00000811H
  0405b	74 40		 je	 SHORT $LN36@gObjCalCha
  0405d	8b 45 e0	 mov	 eax, DWORD PTR _Left$[ebp]
  04060	0f bf 48 06	 movsx	 ecx, WORD PTR [eax+6]
  04064	81 f9 14 08 00
	00		 cmp	 ecx, 2068		; 00000814H
  0406a	74 31		 je	 SHORT $LN36@gObjCalCha
  0406c	8b 45 e0	 mov	 eax, DWORD PTR _Left$[ebp]
  0406f	0f bf 48 06	 movsx	 ecx, WORD PTR [eax+6]
  04073	81 f9 15 08 00
	00		 cmp	 ecx, 2069		; 00000815H
  04079	74 22		 je	 SHORT $LN36@gObjCalCha
  0407b	8b 45 e0	 mov	 eax, DWORD PTR _Left$[ebp]
  0407e	0f bf 48 06	 movsx	 ecx, WORD PTR [eax+6]
  04082	81 f9 16 08 00
	00		 cmp	 ecx, 2070		; 00000816H
  04088	74 13		 je	 SHORT $LN36@gObjCalCha
  0408a	8b 45 e0	 mov	 eax, DWORD PTR _Left$[ebp]
  0408d	0f bf 48 06	 movsx	 ecx, WORD PTR [eax+6]
  04091	81 f9 17 08 00
	00		 cmp	 ecx, 2071		; 00000817H
  04097	0f 85 88 02 00
	00		 jne	 $LN37@gObjCalCha
$LN36@gObjCalCha:

; 1264 : 	{
; 1265 : 		if ( Right->m_Type == ITEMGET(4,15) && Right->m_Level == 1 )

  0409d	8b 45 e4	 mov	 eax, DWORD PTR _Right$[ebp]
  040a0	0f bf 48 06	 movsx	 ecx, WORD PTR [eax+6]
  040a4	81 f9 0f 08 00
	00		 cmp	 ecx, 2063		; 0000080fH
  040aa	0f 85 c5 00 00
	00		 jne	 $LN34@gObjCalCha
  040b0	8b 45 e4	 mov	 eax, DWORD PTR _Right$[ebp]
  040b3	0f bf 48 08	 movsx	 ecx, WORD PTR [eax+8]
  040b7	83 f9 01	 cmp	 ecx, 1
  040ba	0f 85 b5 00 00
	00		 jne	 $LN34@gObjCalCha

; 1266 : 		{
; 1267 : 			lpObj->m_AttackDamageMinLeft += (WORD)(lpObj->m_AttackDamageMinLeft * 0.03f + 1.0f);

  040c0	8b 45 f8	 mov	 eax, DWORD PTR _lpObj$[ebp]
  040c3	db 80 7c 04 00
	00		 fild	 DWORD PTR [eax+1148]
  040c9	dc 0d 00 00 00
	00		 fmul	 QWORD PTR __real@3f9eb851e0000000
  040cf	dc 05 00 00 00
	00		 fadd	 QWORD PTR __real@3ff0000000000000
  040d5	d9 bd 02 fe ff
	ff		 fnstcw	 WORD PTR tv6220[ebp]
  040db	0f b7 85 02 fe
	ff ff		 movzx	 eax, WORD PTR tv6220[ebp]
  040e2	0d 00 0c 00 00	 or	 eax, 3072		; 00000c00H
  040e7	89 85 fc fd ff
	ff		 mov	 DWORD PTR tv6223[ebp], eax
  040ed	d9 ad fc fd ff
	ff		 fldcw	 WORD PTR tv6223[ebp]
  040f3	db 9d f8 fd ff
	ff		 fistp	 DWORD PTR tv6225[ebp]
  040f9	d9 ad 02 fe ff
	ff		 fldcw	 WORD PTR tv6220[ebp]
  040ff	0f b7 8d f8 fd
	ff ff		 movzx	 ecx, WORD PTR tv6225[ebp]
  04106	8b 55 f8	 mov	 edx, DWORD PTR _lpObj$[ebp]
  04109	03 8a 7c 04 00
	00		 add	 ecx, DWORD PTR [edx+1148]
  0410f	8b 45 f8	 mov	 eax, DWORD PTR _lpObj$[ebp]
  04112	89 88 7c 04 00
	00		 mov	 DWORD PTR [eax+1148], ecx

; 1268 : 			lpObj->m_AttackDamageMaxLeft += (WORD)(lpObj->m_AttackDamageMaxLeft * 0.03f + 1.0f);

  04118	8b 45 f8	 mov	 eax, DWORD PTR _lpObj$[ebp]
  0411b	db 80 78 04 00
	00		 fild	 DWORD PTR [eax+1144]
  04121	dc 0d 00 00 00
	00		 fmul	 QWORD PTR __real@3f9eb851e0000000
  04127	dc 05 00 00 00
	00		 fadd	 QWORD PTR __real@3ff0000000000000
  0412d	d9 bd 02 fe ff
	ff		 fnstcw	 WORD PTR tv6231[ebp]
  04133	0f b7 85 02 fe
	ff ff		 movzx	 eax, WORD PTR tv6231[ebp]
  0413a	0d 00 0c 00 00	 or	 eax, 3072		; 00000c00H
  0413f	89 85 fc fd ff
	ff		 mov	 DWORD PTR tv6234[ebp], eax
  04145	d9 ad fc fd ff
	ff		 fldcw	 WORD PTR tv6234[ebp]
  0414b	db 9d f8 fd ff
	ff		 fistp	 DWORD PTR tv6236[ebp]
  04151	d9 ad 02 fe ff
	ff		 fldcw	 WORD PTR tv6231[ebp]
  04157	0f b7 8d f8 fd
	ff ff		 movzx	 ecx, WORD PTR tv6236[ebp]
  0415e	8b 55 f8	 mov	 edx, DWORD PTR _lpObj$[ebp]
  04161	03 8a 78 04 00
	00		 add	 ecx, DWORD PTR [edx+1144]
  04167	8b 45 f8	 mov	 eax, DWORD PTR _lpObj$[ebp]
  0416a	89 88 78 04 00
	00		 mov	 DWORD PTR [eax+1144], ecx
  04170	e9 ab 01 00 00	 jmp	 $LN30@gObjCalCha
$LN34@gObjCalCha:

; 1269 : 		}
; 1270 : 		else if ( Right->m_Type == ITEMGET(4,15) && Right->m_Level == 2 )

  04175	8b 45 e4	 mov	 eax, DWORD PTR _Right$[ebp]
  04178	0f bf 48 06	 movsx	 ecx, WORD PTR [eax+6]
  0417c	81 f9 0f 08 00
	00		 cmp	 ecx, 2063		; 0000080fH
  04182	0f 85 c5 00 00
	00		 jne	 $LN32@gObjCalCha
  04188	8b 45 e4	 mov	 eax, DWORD PTR _Right$[ebp]
  0418b	0f bf 48 08	 movsx	 ecx, WORD PTR [eax+8]
  0418f	83 f9 02	 cmp	 ecx, 2
  04192	0f 85 b5 00 00
	00		 jne	 $LN32@gObjCalCha

; 1271 : 		{
; 1272 : 			lpObj->m_AttackDamageMinLeft += (WORD)(lpObj->m_AttackDamageMinLeft * 0.05f + 1.0f);

  04198	8b 45 f8	 mov	 eax, DWORD PTR _lpObj$[ebp]
  0419b	db 80 7c 04 00
	00		 fild	 DWORD PTR [eax+1148]
  041a1	dc 0d 00 00 00
	00		 fmul	 QWORD PTR __real@3fa99999a0000000
  041a7	dc 05 00 00 00
	00		 fadd	 QWORD PTR __real@3ff0000000000000
  041ad	d9 bd 02 fe ff
	ff		 fnstcw	 WORD PTR tv6244[ebp]
  041b3	0f b7 85 02 fe
	ff ff		 movzx	 eax, WORD PTR tv6244[ebp]
  041ba	0d 00 0c 00 00	 or	 eax, 3072		; 00000c00H
  041bf	89 85 fc fd ff
	ff		 mov	 DWORD PTR tv6247[ebp], eax
  041c5	d9 ad fc fd ff
	ff		 fldcw	 WORD PTR tv6247[ebp]
  041cb	db 9d f8 fd ff
	ff		 fistp	 DWORD PTR tv6249[ebp]
  041d1	d9 ad 02 fe ff
	ff		 fldcw	 WORD PTR tv6244[ebp]
  041d7	0f b7 8d f8 fd
	ff ff		 movzx	 ecx, WORD PTR tv6249[ebp]
  041de	8b 55 f8	 mov	 edx, DWORD PTR _lpObj$[ebp]
  041e1	03 8a 7c 04 00
	00		 add	 ecx, DWORD PTR [edx+1148]
  041e7	8b 45 f8	 mov	 eax, DWORD PTR _lpObj$[ebp]
  041ea	89 88 7c 04 00
	00		 mov	 DWORD PTR [eax+1148], ecx

; 1273 : 			lpObj->m_AttackDamageMaxLeft += (WORD)(lpObj->m_AttackDamageMaxLeft * 0.05f + 1.0f);

  041f0	8b 45 f8	 mov	 eax, DWORD PTR _lpObj$[ebp]
  041f3	db 80 78 04 00
	00		 fild	 DWORD PTR [eax+1144]
  041f9	dc 0d 00 00 00
	00		 fmul	 QWORD PTR __real@3fa99999a0000000
  041ff	dc 05 00 00 00
	00		 fadd	 QWORD PTR __real@3ff0000000000000
  04205	d9 bd 02 fe ff
	ff		 fnstcw	 WORD PTR tv6255[ebp]
  0420b	0f b7 85 02 fe
	ff ff		 movzx	 eax, WORD PTR tv6255[ebp]
  04212	0d 00 0c 00 00	 or	 eax, 3072		; 00000c00H
  04217	89 85 fc fd ff
	ff		 mov	 DWORD PTR tv6258[ebp], eax
  0421d	d9 ad fc fd ff
	ff		 fldcw	 WORD PTR tv6258[ebp]
  04223	db 9d f8 fd ff
	ff		 fistp	 DWORD PTR tv6260[ebp]
  04229	d9 ad 02 fe ff
	ff		 fldcw	 WORD PTR tv6255[ebp]
  0422f	0f b7 8d f8 fd
	ff ff		 movzx	 ecx, WORD PTR tv6260[ebp]
  04236	8b 55 f8	 mov	 edx, DWORD PTR _lpObj$[ebp]
  04239	03 8a 78 04 00
	00		 add	 ecx, DWORD PTR [edx+1144]
  0423f	8b 45 f8	 mov	 eax, DWORD PTR _lpObj$[ebp]
  04242	89 88 78 04 00
	00		 mov	 DWORD PTR [eax+1144], ecx
  04248	e9 d3 00 00 00	 jmp	 $LN30@gObjCalCha
$LN32@gObjCalCha:

; 1274 : 		}
; 1275 : 		else if ( Right->m_Type == ITEMGET(4,15) && Right->m_Level == 3 ) //season4 add-on

  0424d	8b 45 e4	 mov	 eax, DWORD PTR _Right$[ebp]
  04250	0f bf 48 06	 movsx	 ecx, WORD PTR [eax+6]
  04254	81 f9 0f 08 00
	00		 cmp	 ecx, 2063		; 0000080fH
  0425a	0f 85 c0 00 00
	00		 jne	 $LN30@gObjCalCha
  04260	8b 45 e4	 mov	 eax, DWORD PTR _Right$[ebp]
  04263	0f bf 48 08	 movsx	 ecx, WORD PTR [eax+8]
  04267	83 f9 03	 cmp	 ecx, 3
  0426a	0f 85 b0 00 00
	00		 jne	 $LN30@gObjCalCha

; 1276 : 		{
; 1277 : 			lpObj->m_AttackDamageMinLeft += (WORD)(lpObj->m_AttackDamageMinLeft * 0.07f + 1.0f);

  04270	8b 45 f8	 mov	 eax, DWORD PTR _lpObj$[ebp]
  04273	db 80 7c 04 00
	00		 fild	 DWORD PTR [eax+1148]
  04279	dc 0d 00 00 00
	00		 fmul	 QWORD PTR __real@3fb1eb8520000000
  0427f	dc 05 00 00 00
	00		 fadd	 QWORD PTR __real@3ff0000000000000
  04285	d9 bd 02 fe ff
	ff		 fnstcw	 WORD PTR tv6268[ebp]
  0428b	0f b7 85 02 fe
	ff ff		 movzx	 eax, WORD PTR tv6268[ebp]
  04292	0d 00 0c 00 00	 or	 eax, 3072		; 00000c00H
  04297	89 85 fc fd ff
	ff		 mov	 DWORD PTR tv6271[ebp], eax
  0429d	d9 ad fc fd ff
	ff		 fldcw	 WORD PTR tv6271[ebp]
  042a3	db 9d f8 fd ff
	ff		 fistp	 DWORD PTR tv6273[ebp]
  042a9	d9 ad 02 fe ff
	ff		 fldcw	 WORD PTR tv6268[ebp]
  042af	0f b7 8d f8 fd
	ff ff		 movzx	 ecx, WORD PTR tv6273[ebp]
  042b6	8b 55 f8	 mov	 edx, DWORD PTR _lpObj$[ebp]
  042b9	03 8a 7c 04 00
	00		 add	 ecx, DWORD PTR [edx+1148]
  042bf	8b 45 f8	 mov	 eax, DWORD PTR _lpObj$[ebp]
  042c2	89 88 7c 04 00
	00		 mov	 DWORD PTR [eax+1148], ecx

; 1278 : 			lpObj->m_AttackDamageMaxLeft += (WORD)(lpObj->m_AttackDamageMaxLeft * 0.07f + 1.0f);

  042c8	8b 45 f8	 mov	 eax, DWORD PTR _lpObj$[ebp]
  042cb	db 80 78 04 00
	00		 fild	 DWORD PTR [eax+1144]
  042d1	dc 0d 00 00 00
	00		 fmul	 QWORD PTR __real@3fb1eb8520000000
  042d7	dc 05 00 00 00
	00		 fadd	 QWORD PTR __real@3ff0000000000000
  042dd	d9 bd 02 fe ff
	ff		 fnstcw	 WORD PTR tv6279[ebp]
  042e3	0f b7 85 02 fe
	ff ff		 movzx	 eax, WORD PTR tv6279[ebp]
  042ea	0d 00 0c 00 00	 or	 eax, 3072		; 00000c00H
  042ef	89 85 fc fd ff
	ff		 mov	 DWORD PTR tv6282[ebp], eax
  042f5	d9 ad fc fd ff
	ff		 fldcw	 WORD PTR tv6282[ebp]
  042fb	db 9d f8 fd ff
	ff		 fistp	 DWORD PTR tv6284[ebp]
  04301	d9 ad 02 fe ff
	ff		 fldcw	 WORD PTR tv6279[ebp]
  04307	0f b7 8d f8 fd
	ff ff		 movzx	 ecx, WORD PTR tv6284[ebp]
  0430e	8b 55 f8	 mov	 edx, DWORD PTR _lpObj$[ebp]
  04311	03 8a 78 04 00
	00		 add	 ecx, DWORD PTR [edx+1144]
  04317	8b 45 f8	 mov	 eax, DWORD PTR _lpObj$[ebp]
  0431a	89 88 78 04 00
	00		 mov	 DWORD PTR [eax+1144], ecx
$LN30@gObjCalCha:

; 1279 : 		}
; 1280 : 	}

  04320	e9 c7 02 00 00	 jmp	 $LN21@gObjCalCha
$LN37@gObjCalCha:

; 1281 : 	else if ( (Right->m_Type >= ITEMGET(4,8) && Right->m_Type < ITEMGET(4,15) ) || (Right->m_Type >= ITEMGET(4,16) && Right->m_Type < ITEMGET(5,0)) )

  04325	8b 45 e4	 mov	 eax, DWORD PTR _Right$[ebp]
  04328	0f bf 48 06	 movsx	 ecx, WORD PTR [eax+6]
  0432c	81 f9 08 08 00
	00		 cmp	 ecx, 2056		; 00000808H
  04332	7c 0f		 jl	 SHORT $LN26@gObjCalCha
  04334	8b 45 e4	 mov	 eax, DWORD PTR _Right$[ebp]
  04337	0f bf 48 06	 movsx	 ecx, WORD PTR [eax+6]
  0433b	81 f9 0f 08 00
	00		 cmp	 ecx, 2063		; 0000080fH
  04341	7c 26		 jl	 SHORT $LN27@gObjCalCha
$LN26@gObjCalCha:
  04343	8b 45 e4	 mov	 eax, DWORD PTR _Right$[ebp]
  04346	0f bf 48 06	 movsx	 ecx, WORD PTR [eax+6]
  0434a	81 f9 10 08 00
	00		 cmp	 ecx, 2064		; 00000810H
  04350	0f 8c 96 02 00
	00		 jl	 $LN21@gObjCalCha
  04356	8b 45 e4	 mov	 eax, DWORD PTR _Right$[ebp]
  04359	0f bf 48 06	 movsx	 ecx, WORD PTR [eax+6]
  0435d	81 f9 00 0a 00
	00		 cmp	 ecx, 2560		; 00000a00H
  04363	0f 8d 83 02 00
	00		 jge	 $LN21@gObjCalCha
$LN27@gObjCalCha:

; 1282 : 	{
; 1283 : 		if ( Left->m_Type == ITEMGET(4,7) && Left->m_Level == 1 )

  04369	8b 45 e0	 mov	 eax, DWORD PTR _Left$[ebp]
  0436c	0f bf 48 06	 movsx	 ecx, WORD PTR [eax+6]
  04370	81 f9 07 08 00
	00		 cmp	 ecx, 2055		; 00000807H
  04376	0f 85 c5 00 00
	00		 jne	 $LN25@gObjCalCha
  0437c	8b 45 e0	 mov	 eax, DWORD PTR _Left$[ebp]
  0437f	0f bf 48 08	 movsx	 ecx, WORD PTR [eax+8]
  04383	83 f9 01	 cmp	 ecx, 1
  04386	0f 85 b5 00 00
	00		 jne	 $LN25@gObjCalCha

; 1284 : 		{
; 1285 : 				lpObj->m_AttackDamageMinRight += (WORD)(lpObj->m_AttackDamageMinRight * 0.03f + 1.0f);

  0438c	8b 45 f8	 mov	 eax, DWORD PTR _lpObj$[ebp]
  0438f	db 80 84 04 00
	00		 fild	 DWORD PTR [eax+1156]
  04395	dc 0d 00 00 00
	00		 fmul	 QWORD PTR __real@3f9eb851e0000000
  0439b	dc 05 00 00 00
	00		 fadd	 QWORD PTR __real@3ff0000000000000
  043a1	d9 bd 02 fe ff
	ff		 fnstcw	 WORD PTR tv6296[ebp]
  043a7	0f b7 85 02 fe
	ff ff		 movzx	 eax, WORD PTR tv6296[ebp]
  043ae	0d 00 0c 00 00	 or	 eax, 3072		; 00000c00H
  043b3	89 85 fc fd ff
	ff		 mov	 DWORD PTR tv6299[ebp], eax
  043b9	d9 ad fc fd ff
	ff		 fldcw	 WORD PTR tv6299[ebp]
  043bf	db 9d f8 fd ff
	ff		 fistp	 DWORD PTR tv6301[ebp]
  043c5	d9 ad 02 fe ff
	ff		 fldcw	 WORD PTR tv6296[ebp]
  043cb	0f b7 8d f8 fd
	ff ff		 movzx	 ecx, WORD PTR tv6301[ebp]
  043d2	8b 55 f8	 mov	 edx, DWORD PTR _lpObj$[ebp]
  043d5	03 8a 84 04 00
	00		 add	 ecx, DWORD PTR [edx+1156]
  043db	8b 45 f8	 mov	 eax, DWORD PTR _lpObj$[ebp]
  043de	89 88 84 04 00
	00		 mov	 DWORD PTR [eax+1156], ecx

; 1286 : 				lpObj->m_AttackDamageMaxRight += (WORD)(lpObj->m_AttackDamageMaxRight * 0.03f + 1.0f);

  043e4	8b 45 f8	 mov	 eax, DWORD PTR _lpObj$[ebp]
  043e7	db 80 80 04 00
	00		 fild	 DWORD PTR [eax+1152]
  043ed	dc 0d 00 00 00
	00		 fmul	 QWORD PTR __real@3f9eb851e0000000
  043f3	dc 05 00 00 00
	00		 fadd	 QWORD PTR __real@3ff0000000000000
  043f9	d9 bd 02 fe ff
	ff		 fnstcw	 WORD PTR tv6307[ebp]
  043ff	0f b7 85 02 fe
	ff ff		 movzx	 eax, WORD PTR tv6307[ebp]
  04406	0d 00 0c 00 00	 or	 eax, 3072		; 00000c00H
  0440b	89 85 fc fd ff
	ff		 mov	 DWORD PTR tv6310[ebp], eax
  04411	d9 ad fc fd ff
	ff		 fldcw	 WORD PTR tv6310[ebp]
  04417	db 9d f8 fd ff
	ff		 fistp	 DWORD PTR tv6312[ebp]
  0441d	d9 ad 02 fe ff
	ff		 fldcw	 WORD PTR tv6307[ebp]
  04423	0f b7 8d f8 fd
	ff ff		 movzx	 ecx, WORD PTR tv6312[ebp]
  0442a	8b 55 f8	 mov	 edx, DWORD PTR _lpObj$[ebp]
  0442d	03 8a 80 04 00
	00		 add	 ecx, DWORD PTR [edx+1152]
  04433	8b 45 f8	 mov	 eax, DWORD PTR _lpObj$[ebp]
  04436	89 88 80 04 00
	00		 mov	 DWORD PTR [eax+1152], ecx
  0443c	e9 ab 01 00 00	 jmp	 $LN21@gObjCalCha
$LN25@gObjCalCha:

; 1287 : 		}
; 1288 : 		else if ( Left->m_Type == ITEMGET(4,7) && Left->m_Level == 2 )

  04441	8b 45 e0	 mov	 eax, DWORD PTR _Left$[ebp]
  04444	0f bf 48 06	 movsx	 ecx, WORD PTR [eax+6]
  04448	81 f9 07 08 00
	00		 cmp	 ecx, 2055		; 00000807H
  0444e	0f 85 c5 00 00
	00		 jne	 $LN23@gObjCalCha
  04454	8b 45 e0	 mov	 eax, DWORD PTR _Left$[ebp]
  04457	0f bf 48 08	 movsx	 ecx, WORD PTR [eax+8]
  0445b	83 f9 02	 cmp	 ecx, 2
  0445e	0f 85 b5 00 00
	00		 jne	 $LN23@gObjCalCha

; 1289 : 		{
; 1290 : 				lpObj->m_AttackDamageMinRight += (WORD)(lpObj->m_AttackDamageMinRight * 0.05f + 1.0f);

  04464	8b 45 f8	 mov	 eax, DWORD PTR _lpObj$[ebp]
  04467	db 80 84 04 00
	00		 fild	 DWORD PTR [eax+1156]
  0446d	dc 0d 00 00 00
	00		 fmul	 QWORD PTR __real@3fa99999a0000000
  04473	dc 05 00 00 00
	00		 fadd	 QWORD PTR __real@3ff0000000000000
  04479	d9 bd 02 fe ff
	ff		 fnstcw	 WORD PTR tv6320[ebp]
  0447f	0f b7 85 02 fe
	ff ff		 movzx	 eax, WORD PTR tv6320[ebp]
  04486	0d 00 0c 00 00	 or	 eax, 3072		; 00000c00H
  0448b	89 85 fc fd ff
	ff		 mov	 DWORD PTR tv6323[ebp], eax
  04491	d9 ad fc fd ff
	ff		 fldcw	 WORD PTR tv6323[ebp]
  04497	db 9d f8 fd ff
	ff		 fistp	 DWORD PTR tv6325[ebp]
  0449d	d9 ad 02 fe ff
	ff		 fldcw	 WORD PTR tv6320[ebp]
  044a3	0f b7 8d f8 fd
	ff ff		 movzx	 ecx, WORD PTR tv6325[ebp]
  044aa	8b 55 f8	 mov	 edx, DWORD PTR _lpObj$[ebp]
  044ad	03 8a 84 04 00
	00		 add	 ecx, DWORD PTR [edx+1156]
  044b3	8b 45 f8	 mov	 eax, DWORD PTR _lpObj$[ebp]
  044b6	89 88 84 04 00
	00		 mov	 DWORD PTR [eax+1156], ecx

; 1291 : 				lpObj->m_AttackDamageMaxRight += (WORD)(lpObj->m_AttackDamageMaxRight * 0.05f + 1.0f);

  044bc	8b 45 f8	 mov	 eax, DWORD PTR _lpObj$[ebp]
  044bf	db 80 80 04 00
	00		 fild	 DWORD PTR [eax+1152]
  044c5	dc 0d 00 00 00
	00		 fmul	 QWORD PTR __real@3fa99999a0000000
  044cb	dc 05 00 00 00
	00		 fadd	 QWORD PTR __real@3ff0000000000000
  044d1	d9 bd 02 fe ff
	ff		 fnstcw	 WORD PTR tv6331[ebp]
  044d7	0f b7 85 02 fe
	ff ff		 movzx	 eax, WORD PTR tv6331[ebp]
  044de	0d 00 0c 00 00	 or	 eax, 3072		; 00000c00H
  044e3	89 85 fc fd ff
	ff		 mov	 DWORD PTR tv6334[ebp], eax
  044e9	d9 ad fc fd ff
	ff		 fldcw	 WORD PTR tv6334[ebp]
  044ef	db 9d f8 fd ff
	ff		 fistp	 DWORD PTR tv6336[ebp]
  044f5	d9 ad 02 fe ff
	ff		 fldcw	 WORD PTR tv6331[ebp]
  044fb	0f b7 8d f8 fd
	ff ff		 movzx	 ecx, WORD PTR tv6336[ebp]
  04502	8b 55 f8	 mov	 edx, DWORD PTR _lpObj$[ebp]
  04505	03 8a 80 04 00
	00		 add	 ecx, DWORD PTR [edx+1152]
  0450b	8b 45 f8	 mov	 eax, DWORD PTR _lpObj$[ebp]
  0450e	89 88 80 04 00
	00		 mov	 DWORD PTR [eax+1152], ecx
  04514	e9 d3 00 00 00	 jmp	 $LN21@gObjCalCha
$LN23@gObjCalCha:

; 1292 : 		}
; 1293 : 		else if ( Left->m_Type == ITEMGET(4,7) && Left->m_Level == 3 ) //season4 add-on

  04519	8b 45 e0	 mov	 eax, DWORD PTR _Left$[ebp]
  0451c	0f bf 48 06	 movsx	 ecx, WORD PTR [eax+6]
  04520	81 f9 07 08 00
	00		 cmp	 ecx, 2055		; 00000807H
  04526	0f 85 c0 00 00
	00		 jne	 $LN21@gObjCalCha
  0452c	8b 45 e0	 mov	 eax, DWORD PTR _Left$[ebp]
  0452f	0f bf 48 08	 movsx	 ecx, WORD PTR [eax+8]
  04533	83 f9 03	 cmp	 ecx, 3
  04536	0f 85 b0 00 00
	00		 jne	 $LN21@gObjCalCha

; 1294 : 		{
; 1295 : 				lpObj->m_AttackDamageMinRight += (WORD)(lpObj->m_AttackDamageMinRight * 0.07f + 1.0f);

  0453c	8b 45 f8	 mov	 eax, DWORD PTR _lpObj$[ebp]
  0453f	db 80 84 04 00
	00		 fild	 DWORD PTR [eax+1156]
  04545	dc 0d 00 00 00
	00		 fmul	 QWORD PTR __real@3fb1eb8520000000
  0454b	dc 05 00 00 00
	00		 fadd	 QWORD PTR __real@3ff0000000000000
  04551	d9 bd 02 fe ff
	ff		 fnstcw	 WORD PTR tv6344[ebp]
  04557	0f b7 85 02 fe
	ff ff		 movzx	 eax, WORD PTR tv6344[ebp]
  0455e	0d 00 0c 00 00	 or	 eax, 3072		; 00000c00H
  04563	89 85 fc fd ff
	ff		 mov	 DWORD PTR tv6347[ebp], eax
  04569	d9 ad fc fd ff
	ff		 fldcw	 WORD PTR tv6347[ebp]
  0456f	db 9d f8 fd ff
	ff		 fistp	 DWORD PTR tv6349[ebp]
  04575	d9 ad 02 fe ff
	ff		 fldcw	 WORD PTR tv6344[ebp]
  0457b	0f b7 8d f8 fd
	ff ff		 movzx	 ecx, WORD PTR tv6349[ebp]
  04582	8b 55 f8	 mov	 edx, DWORD PTR _lpObj$[ebp]
  04585	03 8a 84 04 00
	00		 add	 ecx, DWORD PTR [edx+1156]
  0458b	8b 45 f8	 mov	 eax, DWORD PTR _lpObj$[ebp]
  0458e	89 88 84 04 00
	00		 mov	 DWORD PTR [eax+1156], ecx

; 1296 : 				lpObj->m_AttackDamageMaxRight += (WORD)(lpObj->m_AttackDamageMaxRight * 0.07f + 1.0f);

  04594	8b 45 f8	 mov	 eax, DWORD PTR _lpObj$[ebp]
  04597	db 80 80 04 00
	00		 fild	 DWORD PTR [eax+1152]
  0459d	dc 0d 00 00 00
	00		 fmul	 QWORD PTR __real@3fb1eb8520000000
  045a3	dc 05 00 00 00
	00		 fadd	 QWORD PTR __real@3ff0000000000000
  045a9	d9 bd 02 fe ff
	ff		 fnstcw	 WORD PTR tv6355[ebp]
  045af	0f b7 85 02 fe
	ff ff		 movzx	 eax, WORD PTR tv6355[ebp]
  045b6	0d 00 0c 00 00	 or	 eax, 3072		; 00000c00H
  045bb	89 85 fc fd ff
	ff		 mov	 DWORD PTR tv6358[ebp], eax
  045c1	d9 ad fc fd ff
	ff		 fldcw	 WORD PTR tv6358[ebp]
  045c7	db 9d f8 fd ff
	ff		 fistp	 DWORD PTR tv6360[ebp]
  045cd	d9 ad 02 fe ff
	ff		 fldcw	 WORD PTR tv6355[ebp]
  045d3	0f b7 8d f8 fd
	ff ff		 movzx	 ecx, WORD PTR tv6360[ebp]
  045da	8b 55 f8	 mov	 edx, DWORD PTR _lpObj$[ebp]
  045dd	03 8a 80 04 00
	00		 add	 ecx, DWORD PTR [edx+1152]
  045e3	8b 45 f8	 mov	 eax, DWORD PTR _lpObj$[ebp]
  045e6	89 88 80 04 00
	00		 mov	 DWORD PTR [eax+1152], ecx
$LN21@gObjCalCha:

; 1297 : 		}
; 1298 : 	}
; 1299 : 
; 1300 : 	if ( lpObj->Class == CLASS_KNIGHT || lpObj->Class == CLASS_MAGUMSA || lpObj->Class == CLASS_DARKLORD  )

  045ec	8b 45 f8	 mov	 eax, DWORD PTR _lpObj$[ebp]
  045ef	0f b7 88 b8 00
	00 00		 movzx	 ecx, WORD PTR [eax+184]
  045f6	83 f9 01	 cmp	 ecx, 1
  045f9	74 22		 je	 SHORT $LN19@gObjCalCha
  045fb	8b 45 f8	 mov	 eax, DWORD PTR _lpObj$[ebp]
  045fe	0f b7 88 b8 00
	00 00		 movzx	 ecx, WORD PTR [eax+184]
  04605	83 f9 03	 cmp	 ecx, 3
  04608	74 13		 je	 SHORT $LN19@gObjCalCha
  0460a	8b 45 f8	 mov	 eax, DWORD PTR _lpObj$[ebp]
  0460d	0f b7 88 b8 00
	00 00		 movzx	 ecx, WORD PTR [eax+184]
  04614	83 f9 04	 cmp	 ecx, 4
  04617	0f 85 d4 00 00
	00		 jne	 $LN17@gObjCalCha
$LN19@gObjCalCha:

; 1301 : 	{
; 1302 : 		if ( Right->m_Type != -1 && Left->m_Type != -1 )

  0461d	8b 45 e4	 mov	 eax, DWORD PTR _Right$[ebp]
  04620	0f bf 48 06	 movsx	 ecx, WORD PTR [eax+6]
  04624	83 f9 ff	 cmp	 ecx, -1
  04627	0f 84 c4 00 00
	00		 je	 $LN17@gObjCalCha
  0462d	8b 45 e0	 mov	 eax, DWORD PTR _Left$[ebp]
  04630	0f bf 48 06	 movsx	 ecx, WORD PTR [eax+6]
  04634	83 f9 ff	 cmp	 ecx, -1
  04637	0f 84 b4 00 00
	00		 je	 $LN17@gObjCalCha

; 1303 : 		{
; 1304 : 			if ( Right->m_Type >= ITEMGET(0,0) && Right->m_Type < ITEMGET(4,0) && Left->m_Type >= ITEMGET(0,0) && Left->m_Type < ITEMGET(4,0) )

  0463d	8b 45 e4	 mov	 eax, DWORD PTR _Right$[ebp]
  04640	0f bf 48 06	 movsx	 ecx, WORD PTR [eax+6]
  04644	85 c9		 test	 ecx, ecx
  04646	0f 8c a5 00 00
	00		 jl	 $LN17@gObjCalCha
  0464c	8b 45 e4	 mov	 eax, DWORD PTR _Right$[ebp]
  0464f	0f bf 48 06	 movsx	 ecx, WORD PTR [eax+6]
  04653	81 f9 00 08 00
	00		 cmp	 ecx, 2048		; 00000800H
  04659	0f 8d 92 00 00
	00		 jge	 $LN17@gObjCalCha
  0465f	8b 45 e0	 mov	 eax, DWORD PTR _Left$[ebp]
  04662	0f bf 48 06	 movsx	 ecx, WORD PTR [eax+6]
  04666	85 c9		 test	 ecx, ecx
  04668	0f 8c 83 00 00
	00		 jl	 $LN17@gObjCalCha
  0466e	8b 45 e0	 mov	 eax, DWORD PTR _Left$[ebp]
  04671	0f bf 48 06	 movsx	 ecx, WORD PTR [eax+6]
  04675	81 f9 00 08 00
	00		 cmp	 ecx, 2048		; 00000800H
  0467b	7d 74		 jge	 SHORT $LN17@gObjCalCha

; 1305 : 			{
; 1306 : 				lpObj->m_AttackDamageMinRight = lpObj->m_AttackDamageMinRight * 55 / 100;

  0467d	8b 45 f8	 mov	 eax, DWORD PTR _lpObj$[ebp]
  04680	8b 80 84 04 00
	00		 mov	 eax, DWORD PTR [eax+1156]
  04686	6b c0 37	 imul	 eax, 55			; 00000037H
  04689	99		 cdq
  0468a	b9 64 00 00 00	 mov	 ecx, 100		; 00000064H
  0468f	f7 f9		 idiv	 ecx
  04691	8b 55 f8	 mov	 edx, DWORD PTR _lpObj$[ebp]
  04694	89 82 84 04 00
	00		 mov	 DWORD PTR [edx+1156], eax

; 1307 : 				lpObj->m_AttackDamageMaxRight = lpObj->m_AttackDamageMaxRight * 55 / 100;

  0469a	8b 45 f8	 mov	 eax, DWORD PTR _lpObj$[ebp]
  0469d	8b 80 80 04 00
	00		 mov	 eax, DWORD PTR [eax+1152]
  046a3	6b c0 37	 imul	 eax, 55			; 00000037H
  046a6	99		 cdq
  046a7	b9 64 00 00 00	 mov	 ecx, 100		; 00000064H
  046ac	f7 f9		 idiv	 ecx
  046ae	8b 55 f8	 mov	 edx, DWORD PTR _lpObj$[ebp]
  046b1	89 82 80 04 00
	00		 mov	 DWORD PTR [edx+1152], eax

; 1308 : 				lpObj->m_AttackDamageMinLeft = lpObj->m_AttackDamageMinLeft * 55 / 100;

  046b7	8b 45 f8	 mov	 eax, DWORD PTR _lpObj$[ebp]
  046ba	8b 80 7c 04 00
	00		 mov	 eax, DWORD PTR [eax+1148]
  046c0	6b c0 37	 imul	 eax, 55			; 00000037H
  046c3	99		 cdq
  046c4	b9 64 00 00 00	 mov	 ecx, 100		; 00000064H
  046c9	f7 f9		 idiv	 ecx
  046cb	8b 55 f8	 mov	 edx, DWORD PTR _lpObj$[ebp]
  046ce	89 82 7c 04 00
	00		 mov	 DWORD PTR [edx+1148], eax

; 1309 : 				lpObj->m_AttackDamageMaxLeft = lpObj->m_AttackDamageMaxLeft * 55 / 100;

  046d4	8b 45 f8	 mov	 eax, DWORD PTR _lpObj$[ebp]
  046d7	8b 80 78 04 00
	00		 mov	 eax, DWORD PTR [eax+1144]
  046dd	6b c0 37	 imul	 eax, 55			; 00000037H
  046e0	99		 cdq
  046e1	b9 64 00 00 00	 mov	 ecx, 100		; 00000064H
  046e6	f7 f9		 idiv	 ecx
  046e8	8b 55 f8	 mov	 edx, DWORD PTR _lpObj$[ebp]
  046eb	89 82 78 04 00
	00		 mov	 DWORD PTR [edx+1144], eax
$LN17@gObjCalCha:

; 1310 : 			}
; 1311 : 		}
; 1312 : 	}
; 1313 : 
; 1314 : #ifdef MONK
; 1315 : 	if( lpObj->Class == CLASS_MONK )

  046f1	8b 45 f8	 mov	 eax, DWORD PTR _lpObj$[ebp]
  046f4	0f b7 88 b8 00
	00 00		 movzx	 ecx, WORD PTR [eax+184]
  046fb	83 f9 06	 cmp	 ecx, 6
  046fe	0f 85 d4 00 00
	00		 jne	 $LN14@gObjCalCha

; 1316 : 	{
; 1317 : 		if( Right->m_Type != -1 && Left->m_Type != -1 )

  04704	8b 45 e4	 mov	 eax, DWORD PTR _Right$[ebp]
  04707	0f bf 48 06	 movsx	 ecx, WORD PTR [eax+6]
  0470b	83 f9 ff	 cmp	 ecx, -1
  0470e	0f 84 c4 00 00
	00		 je	 $LN14@gObjCalCha
  04714	8b 45 e0	 mov	 eax, DWORD PTR _Left$[ebp]
  04717	0f bf 48 06	 movsx	 ecx, WORD PTR [eax+6]
  0471b	83 f9 ff	 cmp	 ecx, -1
  0471e	0f 84 b4 00 00
	00		 je	 $LN14@gObjCalCha

; 1318 : 		{
; 1319 : 			if( Right->m_Type >= ITEMGET(0,0) && Right->m_Type < ITEMGET(4,0) && Left->m_Type >= ITEMGET(0,0) && Left->m_Type < ITEMGET(4,0) )

  04724	8b 45 e4	 mov	 eax, DWORD PTR _Right$[ebp]
  04727	0f bf 48 06	 movsx	 ecx, WORD PTR [eax+6]
  0472b	85 c9		 test	 ecx, ecx
  0472d	0f 8c a5 00 00
	00		 jl	 $LN14@gObjCalCha
  04733	8b 45 e4	 mov	 eax, DWORD PTR _Right$[ebp]
  04736	0f bf 48 06	 movsx	 ecx, WORD PTR [eax+6]
  0473a	81 f9 00 08 00
	00		 cmp	 ecx, 2048		; 00000800H
  04740	0f 8d 92 00 00
	00		 jge	 $LN14@gObjCalCha
  04746	8b 45 e0	 mov	 eax, DWORD PTR _Left$[ebp]
  04749	0f bf 48 06	 movsx	 ecx, WORD PTR [eax+6]
  0474d	85 c9		 test	 ecx, ecx
  0474f	0f 8c 83 00 00
	00		 jl	 $LN14@gObjCalCha
  04755	8b 45 e0	 mov	 eax, DWORD PTR _Left$[ebp]
  04758	0f bf 48 06	 movsx	 ecx, WORD PTR [eax+6]
  0475c	81 f9 00 08 00
	00		 cmp	 ecx, 2048		; 00000800H
  04762	7d 74		 jge	 SHORT $LN14@gObjCalCha

; 1320 : 			{
; 1321 : 				lpObj->m_AttackDamageMinRight	= lpObj->m_AttackDamageMinRight * 60 / 100;

  04764	8b 45 f8	 mov	 eax, DWORD PTR _lpObj$[ebp]
  04767	8b 80 84 04 00
	00		 mov	 eax, DWORD PTR [eax+1156]
  0476d	6b c0 3c	 imul	 eax, 60			; 0000003cH
  04770	99		 cdq
  04771	b9 64 00 00 00	 mov	 ecx, 100		; 00000064H
  04776	f7 f9		 idiv	 ecx
  04778	8b 55 f8	 mov	 edx, DWORD PTR _lpObj$[ebp]
  0477b	89 82 84 04 00
	00		 mov	 DWORD PTR [edx+1156], eax

; 1322 : 				lpObj->m_AttackDamageMaxRight	= lpObj->m_AttackDamageMaxRight * 65 / 100;

  04781	8b 45 f8	 mov	 eax, DWORD PTR _lpObj$[ebp]
  04784	8b 80 80 04 00
	00		 mov	 eax, DWORD PTR [eax+1152]
  0478a	6b c0 41	 imul	 eax, 65			; 00000041H
  0478d	99		 cdq
  0478e	b9 64 00 00 00	 mov	 ecx, 100		; 00000064H
  04793	f7 f9		 idiv	 ecx
  04795	8b 55 f8	 mov	 edx, DWORD PTR _lpObj$[ebp]
  04798	89 82 80 04 00
	00		 mov	 DWORD PTR [edx+1152], eax

; 1323 : 				lpObj->m_AttackDamageMinLeft	= lpObj->m_AttackDamageMinLeft  * 60 / 100;

  0479e	8b 45 f8	 mov	 eax, DWORD PTR _lpObj$[ebp]
  047a1	8b 80 7c 04 00
	00		 mov	 eax, DWORD PTR [eax+1148]
  047a7	6b c0 3c	 imul	 eax, 60			; 0000003cH
  047aa	99		 cdq
  047ab	b9 64 00 00 00	 mov	 ecx, 100		; 00000064H
  047b0	f7 f9		 idiv	 ecx
  047b2	8b 55 f8	 mov	 edx, DWORD PTR _lpObj$[ebp]
  047b5	89 82 7c 04 00
	00		 mov	 DWORD PTR [edx+1148], eax

; 1324 : 				lpObj->m_AttackDamageMaxLeft	= lpObj->m_AttackDamageMaxLeft  * 65 / 100;

  047bb	8b 45 f8	 mov	 eax, DWORD PTR _lpObj$[ebp]
  047be	8b 80 78 04 00
	00		 mov	 eax, DWORD PTR [eax+1144]
  047c4	6b c0 41	 imul	 eax, 65			; 00000041H
  047c7	99		 cdq
  047c8	b9 64 00 00 00	 mov	 ecx, 100		; 00000064H
  047cd	f7 f9		 idiv	 ecx
  047cf	8b 55 f8	 mov	 edx, DWORD PTR _lpObj$[ebp]
  047d2	89 82 78 04 00
	00		 mov	 DWORD PTR [edx+1144], eax
$LN14@gObjCalCha:

; 1325 : 			}
; 1326 : 		}
; 1327 : 	}
; 1328 : #endif
; 1329 : 	
; 1330 : 	g_ItemAddOption.NextSetItemLastEffectForCashShop(lpObj); //Apply again CashShop Attributes (Leaps and Scrolls)

  047d8	8b 45 f8	 mov	 eax, DWORD PTR _lpObj$[ebp]
  047db	50		 push	 eax
  047dc	b9 00 00 00 00	 mov	 ecx, OFFSET ?g_ItemAddOption@@3VCItemAddOption@@A ; g_ItemAddOption
  047e1	e8 00 00 00 00	 call	 ?NextSetItemLastEffectForCashShop@CItemAddOption@@QAE_NPAUOBJECTSTRUCT@@@Z ; CItemAddOption::NextSetItemLastEffectForCashShop

; 1331 : 
; 1332 : #if(CUSTOM_PREMIUM_SYSTEM==TRUE)
; 1333 : 	g_PremiumSystemEx.UserCalculatorPlus(aIndex);

  047e6	8b 45 08	 mov	 eax, DWORD PTR _aIndex$[ebp]
  047e9	50		 push	 eax
  047ea	b9 00 00 00 00	 mov	 ecx, OFFSET ?g_PremiumSystemEx@@3VPremiumSystemEx@@A ; g_PremiumSystemEx
  047ef	e8 00 00 00 00	 call	 ?UserCalculatorPlus@PremiumSystemEx@@QAEXH@Z ; PremiumSystemEx::UserCalculatorPlus

; 1334 : #endif
; 1335 : 
; 1336 : 	g_ViewportSkillState.NextSetBuffLastEffect(lpObj); //season3 add-on for buffeffect (Set All attributes)

  047f4	8b 45 f8	 mov	 eax, DWORD PTR _lpObj$[ebp]
  047f7	50		 push	 eax
  047f8	b9 00 00 00 00	 mov	 ecx, OFFSET ?g_ViewportSkillState@@3VCViewportSkillState@@A ; g_ViewportSkillState
  047fd	e8 00 00 00 00	 call	 ?NextSetBuffLastEffect@CViewportSkillState@@QAEXPAUOBJECTSTRUCT@@@Z ; CViewportSkillState::NextSetBuffLastEffect

; 1337 : 
; 1338 : 	if ( lpObj->m_iItemEffectValidTime > 0 )

  04802	8b 45 f8	 mov	 eax, DWORD PTR _lpObj$[ebp]
  04805	83 b8 18 20 00
	00 00		 cmp	 DWORD PTR [eax+8216], 0
  0480c	7e 0e		 jle	 SHORT $LN13@gObjCalCha

; 1339 : 	{
; 1340 : 		g_ItemAddOption.NextSetItemLastEffectForHallowin(lpObj);

  0480e	8b 45 f8	 mov	 eax, DWORD PTR _lpObj$[ebp]
  04811	50		 push	 eax
  04812	b9 00 00 00 00	 mov	 ecx, OFFSET ?g_ItemAddOption@@3VCItemAddOption@@A ; g_ItemAddOption
  04817	e8 00 00 00 00	 call	 ?NextSetItemLastEffectForHallowin@CItemAddOption@@QAE_NPAUOBJECTSTRUCT@@@Z ; CItemAddOption::NextSetItemLastEffectForHallowin
$LN13@gObjCalCha:

; 1341 : 	}
; 1342 : 
; 1343 : #ifdef DEBUG_CODE2
; 1344 : 	LogAddC(2,"DAMAGE: %d",lpObj->m_AttackDamageMaxRight);
; 1345 : #endif
; 1346 : 
; 1347 : #ifdef EN_RINGS
; 1348 : 	g_ItemAddOption.ApplyForEquipment(lpObj);

  0481c	8b 45 f8	 mov	 eax, DWORD PTR _lpObj$[ebp]
  0481f	50		 push	 eax
  04820	b9 00 00 00 00	 mov	 ecx, OFFSET ?g_ItemAddOption@@3VCItemAddOption@@A ; g_ItemAddOption
  04825	e8 00 00 00 00	 call	 ?ApplyForEquipment@CItemAddOption@@QAE_NPAUOBJECTSTRUCT@@@Z ; CItemAddOption::ApplyForEquipment

; 1349 : #endif
; 1350 : 
; 1351 : 	gObjCalcShieldPoint(lpObj);

  0482a	8b 45 f8	 mov	 eax, DWORD PTR _lpObj$[ebp]
  0482d	50		 push	 eax
  0482e	e8 00 00 00 00	 call	 ?gObjCalcShieldPoint@@YAXPAUOBJECTSTRUCT@@@Z ; gObjCalcShieldPoint
  04833	83 c4 04	 add	 esp, 4

; 1352 : 
; 1353 : 	if(g_ExLicense.user.Rage)

  04836	0f b6 05 c9 00
	00 00		 movzx	 eax, BYTE PTR ?g_ExLicense@@3VCExLicense@@A+201
  0483d	85 c0		 test	 eax, eax
  0483f	74 0e		 je	 SHORT $LN12@gObjCalCha

; 1354 : 	{
; 1355 : 		gSystemOfRage.CalcCharacter(aIndex);

  04841	8b 45 08	 mov	 eax, DWORD PTR _aIndex$[ebp]
  04844	50		 push	 eax
  04845	b9 00 00 00 00	 mov	 ecx, OFFSET ?gSystemOfRage@@3VcSystemOfRage@@A ; gSystemOfRage
  0484a	e8 00 00 00 00	 call	 ?CalcCharacter@cSystemOfRage@@QAEXH@Z ; cSystemOfRage::CalcCharacter
$LN12@gObjCalCha:

; 1356 : 	}
; 1357 : 
; 1358 : 
; 1359 : 	if(g_ExLicense.user.WinQuest) gWinQuestSystem.CharOptions(aIndex);

  0484f	0f b6 05 ca 00
	00 00		 movzx	 eax, BYTE PTR ?g_ExLicense@@3VCExLicense@@A+202
  04856	85 c0		 test	 eax, eax
  04858	74 0e		 je	 SHORT $LN11@gObjCalCha
  0485a	8b 45 08	 mov	 eax, DWORD PTR _aIndex$[ebp]
  0485d	50		 push	 eax
  0485e	b9 00 00 00 00	 mov	 ecx, OFFSET ?gWinQuestSystem@@3VcWinQuestSystem@@A ; gWinQuestSystem
  04863	e8 00 00 00 00	 call	 ?CharOptions@cWinQuestSystem@@QAEXH@Z ; cWinQuestSystem::CharOptions
$LN11@gObjCalCha:

; 1360 : 
; 1361 : 	gExclusiveOptions.Options(aIndex);

  04868	8b 45 08	 mov	 eax, DWORD PTR _aIndex$[ebp]
  0486b	50		 push	 eax
  0486c	b9 00 00 00 00	 mov	 ecx, OFFSET ?gExclusiveOptions@@3VcExclusiveOptions@@A ; gExclusiveOptions
  04871	e8 00 00 00 00	 call	 ?Options@cExclusiveOptions@@QAEXH@Z ; cExclusiveOptions::Options

; 1362 : 
; 1363 : 	
; 1364 : #if(SYSTEMOF_BROTHER==TRUE)
; 1365 : 	gBrotherhood.CharacterAdded(lpObj);

  04876	8b 45 f8	 mov	 eax, DWORD PTR _lpObj$[ebp]
  04879	50		 push	 eax
  0487a	b9 00 00 00 00	 mov	 ecx, OFFSET ?gBrotherhood@@3VBrotherhood@@A ; gBrotherhood
  0487f	e8 00 00 00 00	 call	 ?CharacterAdded@Brotherhood@@QAEXPAUOBJECTSTRUCT@@@Z ; Brotherhood::CharacterAdded

; 1366 : #endif
; 1367 : 
; 1368 : #if(CUSTOM_NPC_BUFFER==TRUE)
; 1369 : 	if(g_ExLicense.user.NpcBuffer)

  04884	0f b6 05 d9 00
	00 00		 movzx	 eax, BYTE PTR ?g_ExLicense@@3VCExLicense@@A+217
  0488b	85 c0		 test	 eax, eax
  0488d	0f 84 ff 01 00
	00		 je	 $LN6@gObjCalCha

; 1370 : 	{
; 1371 : 		if(lpObj->DamageBuffTime > 0 )

  04893	8b 45 f8	 mov	 eax, DWORD PTR _lpObj$[ebp]
  04896	83 b8 94 28 00
	00 00		 cmp	 DWORD PTR [eax+10388], 0
  0489d	0f 86 06 01 00
	00		 jbe	 $LN9@gObjCalCha

; 1372 : 		{
; 1373 : 			int AddProcentDamage = 10;

  048a3	c7 85 74 fe ff
	ff 0a 00 00 00	 mov	 DWORD PTR _AddProcentDamage$232962[ebp], 10 ; 0000000aH

; 1374 : 
; 1375 : 			lpObj->m_AttackDamageMaxLeft += ( lpObj->m_AttackDamageMaxLeft * AddProcentDamage ) / 100;

  048ad	8b 45 f8	 mov	 eax, DWORD PTR _lpObj$[ebp]
  048b0	8b 80 78 04 00
	00		 mov	 eax, DWORD PTR [eax+1144]
  048b6	0f af 85 74 fe
	ff ff		 imul	 eax, DWORD PTR _AddProcentDamage$232962[ebp]
  048bd	99		 cdq
  048be	b9 64 00 00 00	 mov	 ecx, 100		; 00000064H
  048c3	f7 f9		 idiv	 ecx
  048c5	8b 55 f8	 mov	 edx, DWORD PTR _lpObj$[ebp]
  048c8	03 82 78 04 00
	00		 add	 eax, DWORD PTR [edx+1144]
  048ce	8b 4d f8	 mov	 ecx, DWORD PTR _lpObj$[ebp]
  048d1	89 81 78 04 00
	00		 mov	 DWORD PTR [ecx+1144], eax

; 1376 : 			lpObj->m_AttackDamageMinLeft += ( lpObj->m_AttackDamageMinLeft * AddProcentDamage ) / 100;

  048d7	8b 45 f8	 mov	 eax, DWORD PTR _lpObj$[ebp]
  048da	8b 80 7c 04 00
	00		 mov	 eax, DWORD PTR [eax+1148]
  048e0	0f af 85 74 fe
	ff ff		 imul	 eax, DWORD PTR _AddProcentDamage$232962[ebp]
  048e7	99		 cdq
  048e8	b9 64 00 00 00	 mov	 ecx, 100		; 00000064H
  048ed	f7 f9		 idiv	 ecx
  048ef	8b 55 f8	 mov	 edx, DWORD PTR _lpObj$[ebp]
  048f2	03 82 7c 04 00
	00		 add	 eax, DWORD PTR [edx+1148]
  048f8	8b 4d f8	 mov	 ecx, DWORD PTR _lpObj$[ebp]
  048fb	89 81 7c 04 00
	00		 mov	 DWORD PTR [ecx+1148], eax

; 1377 : 			lpObj->m_AttackDamageMaxRight += ( lpObj->m_AttackDamageMaxRight * AddProcentDamage ) / 100;

  04901	8b 45 f8	 mov	 eax, DWORD PTR _lpObj$[ebp]
  04904	8b 80 80 04 00
	00		 mov	 eax, DWORD PTR [eax+1152]
  0490a	0f af 85 74 fe
	ff ff		 imul	 eax, DWORD PTR _AddProcentDamage$232962[ebp]
  04911	99		 cdq
  04912	b9 64 00 00 00	 mov	 ecx, 100		; 00000064H
  04917	f7 f9		 idiv	 ecx
  04919	8b 55 f8	 mov	 edx, DWORD PTR _lpObj$[ebp]
  0491c	03 82 80 04 00
	00		 add	 eax, DWORD PTR [edx+1152]
  04922	8b 4d f8	 mov	 ecx, DWORD PTR _lpObj$[ebp]
  04925	89 81 80 04 00
	00		 mov	 DWORD PTR [ecx+1152], eax

; 1378 : 			lpObj->m_AttackDamageMinRight += ( lpObj->m_AttackDamageMinRight * AddProcentDamage ) / 100;

  0492b	8b 45 f8	 mov	 eax, DWORD PTR _lpObj$[ebp]
  0492e	8b 80 84 04 00
	00		 mov	 eax, DWORD PTR [eax+1156]
  04934	0f af 85 74 fe
	ff ff		 imul	 eax, DWORD PTR _AddProcentDamage$232962[ebp]
  0493b	99		 cdq
  0493c	b9 64 00 00 00	 mov	 ecx, 100		; 00000064H
  04941	f7 f9		 idiv	 ecx
  04943	8b 55 f8	 mov	 edx, DWORD PTR _lpObj$[ebp]
  04946	03 82 84 04 00
	00		 add	 eax, DWORD PTR [edx+1156]
  0494c	8b 4d f8	 mov	 ecx, DWORD PTR _lpObj$[ebp]
  0494f	89 81 84 04 00
	00		 mov	 DWORD PTR [ecx+1156], eax

; 1379 : 			lpObj->m_MagicDamageMin += ( lpObj->m_MagicDamageMin * AddProcentDamage ) / 100;

  04955	8b 45 f8	 mov	 eax, DWORD PTR _lpObj$[ebp]
  04958	8b 80 68 04 00
	00		 mov	 eax, DWORD PTR [eax+1128]
  0495e	0f af 85 74 fe
	ff ff		 imul	 eax, DWORD PTR _AddProcentDamage$232962[ebp]
  04965	99		 cdq
  04966	b9 64 00 00 00	 mov	 ecx, 100		; 00000064H
  0496b	f7 f9		 idiv	 ecx
  0496d	8b 55 f8	 mov	 edx, DWORD PTR _lpObj$[ebp]
  04970	03 82 68 04 00
	00		 add	 eax, DWORD PTR [edx+1128]
  04976	8b 4d f8	 mov	 ecx, DWORD PTR _lpObj$[ebp]
  04979	89 81 68 04 00
	00		 mov	 DWORD PTR [ecx+1128], eax

; 1380 : 			lpObj->m_MagicDamageMax += ( lpObj->m_MagicDamageMin * AddProcentDamage ) / 100;

  0497f	8b 45 f8	 mov	 eax, DWORD PTR _lpObj$[ebp]
  04982	8b 80 68 04 00
	00		 mov	 eax, DWORD PTR [eax+1128]
  04988	0f af 85 74 fe
	ff ff		 imul	 eax, DWORD PTR _AddProcentDamage$232962[ebp]
  0498f	99		 cdq
  04990	b9 64 00 00 00	 mov	 ecx, 100		; 00000064H
  04995	f7 f9		 idiv	 ecx
  04997	8b 55 f8	 mov	 edx, DWORD PTR _lpObj$[ebp]
  0499a	03 82 6c 04 00
	00		 add	 eax, DWORD PTR [edx+1132]
  049a0	8b 4d f8	 mov	 ecx, DWORD PTR _lpObj$[ebp]
  049a3	89 81 6c 04 00
	00		 mov	 DWORD PTR [ecx+1132], eax
$LN9@gObjCalCha:

; 1381 : 		}
; 1382 : 		// ----
; 1383 : 		if( lpObj->DefenceBuffTime > 0 )

  049a9	8b 45 f8	 mov	 eax, DWORD PTR _lpObj$[ebp]
  049ac	83 b8 98 28 00
	00 00		 cmp	 DWORD PTR [eax+10392], 0
  049b3	76 5e		 jbe	 SHORT $LN8@gObjCalCha

; 1384 : 		{
; 1385 : 			int AddProcentDefence = 10;

  049b5	c7 85 70 fe ff
	ff 0a 00 00 00	 mov	 DWORD PTR _AddProcentDefence$232964[ebp], 10 ; 0000000aH

; 1386 : 
; 1387 : 			lpObj->m_Defense += ( lpObj->m_Defense * AddProcentDefence ) / 100;

  049bf	8b 45 f8	 mov	 eax, DWORD PTR _lpObj$[ebp]
  049c2	8b 80 94 04 00
	00		 mov	 eax, DWORD PTR [eax+1172]
  049c8	0f af 85 70 fe
	ff ff		 imul	 eax, DWORD PTR _AddProcentDefence$232964[ebp]
  049cf	99		 cdq
  049d0	b9 64 00 00 00	 mov	 ecx, 100		; 00000064H
  049d5	f7 f9		 idiv	 ecx
  049d7	8b 55 f8	 mov	 edx, DWORD PTR _lpObj$[ebp]
  049da	03 82 94 04 00
	00		 add	 eax, DWORD PTR [edx+1172]
  049e0	8b 4d f8	 mov	 ecx, DWORD PTR _lpObj$[ebp]
  049e3	89 81 94 04 00
	00		 mov	 DWORD PTR [ecx+1172], eax

; 1388 : 			lpObj->m_MagicDefense += ( lpObj->m_MagicDefense * AddProcentDefence ) / 100;

  049e9	8b 45 f8	 mov	 eax, DWORD PTR _lpObj$[ebp]
  049ec	8b 80 98 04 00
	00		 mov	 eax, DWORD PTR [eax+1176]
  049f2	0f af 85 70 fe
	ff ff		 imul	 eax, DWORD PTR _AddProcentDefence$232964[ebp]
  049f9	99		 cdq
  049fa	b9 64 00 00 00	 mov	 ecx, 100		; 00000064H
  049ff	f7 f9		 idiv	 ecx
  04a01	8b 55 f8	 mov	 edx, DWORD PTR _lpObj$[ebp]
  04a04	03 82 98 04 00
	00		 add	 eax, DWORD PTR [edx+1176]
  04a0a	8b 4d f8	 mov	 ecx, DWORD PTR _lpObj$[ebp]
  04a0d	89 81 98 04 00
	00		 mov	 DWORD PTR [ecx+1176], eax
$LN8@gObjCalCha:

; 1389 : 		}
; 1390 : 		// ----
; 1391 : 		if( lpObj->BattleBuffTime > 0 )

  04a13	8b 45 f8	 mov	 eax, DWORD PTR _lpObj$[ebp]
  04a16	83 b8 9c 28 00
	00 00		 cmp	 DWORD PTR [eax+10396], 0
  04a1d	76 44		 jbe	 SHORT $LN7@gObjCalCha

; 1392 : 		{
; 1393 : 			int AddProcentCriticalDamage = 5;

  04a1f	c7 85 6c fe ff
	ff 05 00 00 00	 mov	 DWORD PTR _AddProcentCriticalDamage$232966[ebp], 5

; 1394 : 			int AddProcentExellentDamage = 5;

  04a29	c7 85 68 fe ff
	ff 05 00 00 00	 mov	 DWORD PTR _AddProcentExellentDamage$232967[ebp], 5

; 1395 : 
; 1396 : 			lpObj->m_CriticalDamage += AddProcentCriticalDamage;

  04a33	8b 45 f8	 mov	 eax, DWORD PTR _lpObj$[ebp]
  04a36	8b 88 bc 04 00
	00		 mov	 ecx, DWORD PTR [eax+1212]
  04a3c	03 8d 6c fe ff
	ff		 add	 ecx, DWORD PTR _AddProcentCriticalDamage$232966[ebp]
  04a42	8b 55 f8	 mov	 edx, DWORD PTR _lpObj$[ebp]
  04a45	89 8a bc 04 00
	00		 mov	 DWORD PTR [edx+1212], ecx

; 1397 : 			lpObj->m_ExcelentDamage += AddProcentExellentDamage;

  04a4b	8b 45 f8	 mov	 eax, DWORD PTR _lpObj$[ebp]
  04a4e	8b 88 c0 04 00
	00		 mov	 ecx, DWORD PTR [eax+1216]
  04a54	03 8d 68 fe ff
	ff		 add	 ecx, DWORD PTR _AddProcentExellentDamage$232967[ebp]
  04a5a	8b 55 f8	 mov	 edx, DWORD PTR _lpObj$[ebp]
  04a5d	89 8a c0 04 00
	00		 mov	 DWORD PTR [edx+1216], ecx
$LN7@gObjCalCha:

; 1398 : 		}
; 1399 : 		// ----
; 1400 : 		if( lpObj->DoubleBuffTime > 0 )

  04a63	8b 45 f8	 mov	 eax, DWORD PTR _lpObj$[ebp]
  04a66	83 b8 a4 28 00
	00 00		 cmp	 DWORD PTR [eax+10404], 0
  04a6d	76 23		 jbe	 SHORT $LN6@gObjCalCha

; 1401 : 		{
; 1402 : 			int AddProcentDoubleDamage  = 5;

  04a6f	c7 85 64 fe ff
	ff 05 00 00 00	 mov	 DWORD PTR _AddProcentDoubleDamage$232969[ebp], 5

; 1403 : 
; 1404 : 			lpObj->SetOpDoubleDamage += AddProcentDoubleDamage;

  04a79	8b 45 f8	 mov	 eax, DWORD PTR _lpObj$[ebp]
  04a7c	0f b6 88 3f 11
	00 00		 movzx	 ecx, BYTE PTR [eax+4415]
  04a83	03 8d 64 fe ff
	ff		 add	 ecx, DWORD PTR _AddProcentDoubleDamage$232969[ebp]
  04a89	8b 55 f8	 mov	 edx, DWORD PTR _lpObj$[ebp]
  04a8c	88 8a 3f 11 00
	00		 mov	 BYTE PTR [edx+4415], cl
$LN6@gObjCalCha:

; 1405 : 		}	
; 1406 : 	}
; 1407 : #endif
; 1408 : 
; 1409 : 	BMQuest.AddedCharacter(aIndex);	//BMQuest

  04a92	8b 45 08	 mov	 eax, DWORD PTR _aIndex$[ebp]
  04a95	50		 push	 eax
  04a96	b9 00 00 00 00	 mov	 ecx, OFFSET ?BMQuest@@3VcBMQuest@@A ; BMQuest
  04a9b	e8 00 00 00 00	 call	 ?AddedCharacter@cBMQuest@@QAEXH@Z ; cBMQuest::AddedCharacter

; 1410 : 
; 1411 : #if(CUSTOM_MARRIAGE)
; 1412 : 	g_Marriage.AddedCharacter(aIndex);

  04aa0	8b 45 08	 mov	 eax, DWORD PTR _aIndex$[ebp]
  04aa3	50		 push	 eax
  04aa4	b9 00 00 00 00	 mov	 ecx, OFFSET ?g_Marriage@@3VCMarriage@@A ; g_Marriage
  04aa9	e8 00 00 00 00	 call	 ?AddedCharacter@CMarriage@@QAEXH@Z ; CMarriage::AddedCharacter

; 1413 : #endif
; 1414 : #if(CUSTOM_NOOBBUFF)
; 1415 : 	if(gObjSearchActiveEffect(lpObj,AT_NOOB_BUFF) == TRUE)

  04aae	68 b6 00 00 00	 push	 182			; 000000b6H
  04ab3	8b 45 f8	 mov	 eax, DWORD PTR _lpObj$[ebp]
  04ab6	50		 push	 eax
  04ab7	e8 00 00 00 00	 call	 ?gObjSearchActiveEffect@@YAEPAUOBJECTSTRUCT@@H@Z ; gObjSearchActiveEffect
  04abc	83 c4 08	 add	 esp, 8
  04abf	0f b6 c8	 movzx	 ecx, al
  04ac2	83 f9 01	 cmp	 ecx, 1
  04ac5	0f 85 66 01 00
	00		 jne	 $LN5@gObjCalCha

; 1416 : 	{
; 1417 : 		int AddProcentDamage = ExConfig.CommonServer.m_NoobDamage;

  04acb	a1 20 01 00 00	 mov	 eax, DWORD PTR ?ExConfig@@3VcExConfigs@@A+288
  04ad0	89 85 60 fe ff
	ff		 mov	 DWORD PTR _AddProcentDamage$232971[ebp], eax

; 1418 : 
; 1419 : 		lpObj->m_AttackDamageMaxLeft += ( lpObj->m_AttackDamageMaxLeft * AddProcentDamage ) / 100;

  04ad6	8b 45 f8	 mov	 eax, DWORD PTR _lpObj$[ebp]
  04ad9	8b 80 78 04 00
	00		 mov	 eax, DWORD PTR [eax+1144]
  04adf	0f af 85 60 fe
	ff ff		 imul	 eax, DWORD PTR _AddProcentDamage$232971[ebp]
  04ae6	99		 cdq
  04ae7	b9 64 00 00 00	 mov	 ecx, 100		; 00000064H
  04aec	f7 f9		 idiv	 ecx
  04aee	8b 55 f8	 mov	 edx, DWORD PTR _lpObj$[ebp]
  04af1	03 82 78 04 00
	00		 add	 eax, DWORD PTR [edx+1144]
  04af7	8b 4d f8	 mov	 ecx, DWORD PTR _lpObj$[ebp]
  04afa	89 81 78 04 00
	00		 mov	 DWORD PTR [ecx+1144], eax

; 1420 : 		lpObj->m_AttackDamageMinLeft += ( lpObj->m_AttackDamageMinLeft * AddProcentDamage ) / 100;

  04b00	8b 45 f8	 mov	 eax, DWORD PTR _lpObj$[ebp]
  04b03	8b 80 7c 04 00
	00		 mov	 eax, DWORD PTR [eax+1148]
  04b09	0f af 85 60 fe
	ff ff		 imul	 eax, DWORD PTR _AddProcentDamage$232971[ebp]
  04b10	99		 cdq
  04b11	b9 64 00 00 00	 mov	 ecx, 100		; 00000064H
  04b16	f7 f9		 idiv	 ecx
  04b18	8b 55 f8	 mov	 edx, DWORD PTR _lpObj$[ebp]
  04b1b	03 82 7c 04 00
	00		 add	 eax, DWORD PTR [edx+1148]
  04b21	8b 4d f8	 mov	 ecx, DWORD PTR _lpObj$[ebp]
  04b24	89 81 7c 04 00
	00		 mov	 DWORD PTR [ecx+1148], eax

; 1421 : 		lpObj->m_AttackDamageMaxRight += ( lpObj->m_AttackDamageMaxRight * AddProcentDamage ) / 100;

  04b2a	8b 45 f8	 mov	 eax, DWORD PTR _lpObj$[ebp]
  04b2d	8b 80 80 04 00
	00		 mov	 eax, DWORD PTR [eax+1152]
  04b33	0f af 85 60 fe
	ff ff		 imul	 eax, DWORD PTR _AddProcentDamage$232971[ebp]
  04b3a	99		 cdq
  04b3b	b9 64 00 00 00	 mov	 ecx, 100		; 00000064H
  04b40	f7 f9		 idiv	 ecx
  04b42	8b 55 f8	 mov	 edx, DWORD PTR _lpObj$[ebp]
  04b45	03 82 80 04 00
	00		 add	 eax, DWORD PTR [edx+1152]
  04b4b	8b 4d f8	 mov	 ecx, DWORD PTR _lpObj$[ebp]
  04b4e	89 81 80 04 00
	00		 mov	 DWORD PTR [ecx+1152], eax

; 1422 : 		lpObj->m_AttackDamageMinRight += ( lpObj->m_AttackDamageMinRight * AddProcentDamage ) / 100;

  04b54	8b 45 f8	 mov	 eax, DWORD PTR _lpObj$[ebp]
  04b57	8b 80 84 04 00
	00		 mov	 eax, DWORD PTR [eax+1156]
  04b5d	0f af 85 60 fe
	ff ff		 imul	 eax, DWORD PTR _AddProcentDamage$232971[ebp]
  04b64	99		 cdq
  04b65	b9 64 00 00 00	 mov	 ecx, 100		; 00000064H
  04b6a	f7 f9		 idiv	 ecx
  04b6c	8b 55 f8	 mov	 edx, DWORD PTR _lpObj$[ebp]
  04b6f	03 82 84 04 00
	00		 add	 eax, DWORD PTR [edx+1156]
  04b75	8b 4d f8	 mov	 ecx, DWORD PTR _lpObj$[ebp]
  04b78	89 81 84 04 00
	00		 mov	 DWORD PTR [ecx+1156], eax

; 1423 : 		lpObj->m_MagicDamageMin += ( lpObj->m_MagicDamageMin * AddProcentDamage ) / 100;

  04b7e	8b 45 f8	 mov	 eax, DWORD PTR _lpObj$[ebp]
  04b81	8b 80 68 04 00
	00		 mov	 eax, DWORD PTR [eax+1128]
  04b87	0f af 85 60 fe
	ff ff		 imul	 eax, DWORD PTR _AddProcentDamage$232971[ebp]
  04b8e	99		 cdq
  04b8f	b9 64 00 00 00	 mov	 ecx, 100		; 00000064H
  04b94	f7 f9		 idiv	 ecx
  04b96	8b 55 f8	 mov	 edx, DWORD PTR _lpObj$[ebp]
  04b99	03 82 68 04 00
	00		 add	 eax, DWORD PTR [edx+1128]
  04b9f	8b 4d f8	 mov	 ecx, DWORD PTR _lpObj$[ebp]
  04ba2	89 81 68 04 00
	00		 mov	 DWORD PTR [ecx+1128], eax

; 1424 : 		lpObj->m_MagicDamageMax += ( lpObj->m_MagicDamageMin * AddProcentDamage ) / 100;

  04ba8	8b 45 f8	 mov	 eax, DWORD PTR _lpObj$[ebp]
  04bab	8b 80 68 04 00
	00		 mov	 eax, DWORD PTR [eax+1128]
  04bb1	0f af 85 60 fe
	ff ff		 imul	 eax, DWORD PTR _AddProcentDamage$232971[ebp]
  04bb8	99		 cdq
  04bb9	b9 64 00 00 00	 mov	 ecx, 100		; 00000064H
  04bbe	f7 f9		 idiv	 ecx
  04bc0	8b 55 f8	 mov	 edx, DWORD PTR _lpObj$[ebp]
  04bc3	03 82 6c 04 00
	00		 add	 eax, DWORD PTR [edx+1132]
  04bc9	8b 4d f8	 mov	 ecx, DWORD PTR _lpObj$[ebp]
  04bcc	89 81 6c 04 00
	00		 mov	 DWORD PTR [ecx+1132], eax

; 1425 : 
; 1426 : 		int AddProcentDefence = ExConfig.CommonServer.m_NoobDefence;

  04bd2	a1 24 01 00 00	 mov	 eax, DWORD PTR ?ExConfig@@3VcExConfigs@@A+292
  04bd7	89 85 5c fe ff
	ff		 mov	 DWORD PTR _AddProcentDefence$232972[ebp], eax

; 1427 : 
; 1428 : 		lpObj->m_Defense += ( lpObj->m_Defense * AddProcentDefence ) / 100;

  04bdd	8b 45 f8	 mov	 eax, DWORD PTR _lpObj$[ebp]
  04be0	8b 80 94 04 00
	00		 mov	 eax, DWORD PTR [eax+1172]
  04be6	0f af 85 5c fe
	ff ff		 imul	 eax, DWORD PTR _AddProcentDefence$232972[ebp]
  04bed	99		 cdq
  04bee	b9 64 00 00 00	 mov	 ecx, 100		; 00000064H
  04bf3	f7 f9		 idiv	 ecx
  04bf5	8b 55 f8	 mov	 edx, DWORD PTR _lpObj$[ebp]
  04bf8	03 82 94 04 00
	00		 add	 eax, DWORD PTR [edx+1172]
  04bfe	8b 4d f8	 mov	 ecx, DWORD PTR _lpObj$[ebp]
  04c01	89 81 94 04 00
	00		 mov	 DWORD PTR [ecx+1172], eax

; 1429 : 		lpObj->m_MagicDefense += ( lpObj->m_MagicDefense * AddProcentDefence ) / 100;

  04c07	8b 45 f8	 mov	 eax, DWORD PTR _lpObj$[ebp]
  04c0a	8b 80 98 04 00
	00		 mov	 eax, DWORD PTR [eax+1176]
  04c10	0f af 85 5c fe
	ff ff		 imul	 eax, DWORD PTR _AddProcentDefence$232972[ebp]
  04c17	99		 cdq
  04c18	b9 64 00 00 00	 mov	 ecx, 100		; 00000064H
  04c1d	f7 f9		 idiv	 ecx
  04c1f	8b 55 f8	 mov	 edx, DWORD PTR _lpObj$[ebp]
  04c22	03 82 98 04 00
	00		 add	 eax, DWORD PTR [edx+1176]
  04c28	8b 4d f8	 mov	 ecx, DWORD PTR _lpObj$[ebp]
  04c2b	89 81 98 04 00
	00		 mov	 DWORD PTR [ecx+1176], eax
$LN5@gObjCalCha:

; 1430 : 	}
; 1431 : #endif
; 1432 : 
; 1433 : #if(CUSTOM_NEWBUFF)
; 1434 : 	if(gObjSearchActiveEffect(lpObj,AT_NEWPREMIUM_BUFF) == TRUE)

  04c31	68 ba 00 00 00	 push	 186			; 000000baH
  04c36	8b 45 f8	 mov	 eax, DWORD PTR _lpObj$[ebp]
  04c39	50		 push	 eax
  04c3a	e8 00 00 00 00	 call	 ?gObjSearchActiveEffect@@YAEPAUOBJECTSTRUCT@@H@Z ; gObjSearchActiveEffect
  04c3f	83 c4 08	 add	 esp, 8
  04c42	0f b6 c8	 movzx	 ecx, al
  04c45	83 f9 01	 cmp	 ecx, 1
  04c48	0f 85 66 01 00
	00		 jne	 $LN4@gObjCalCha

; 1435 : 	{
; 1436 : 		int AddProcentDamage = ExConfig.m_iNewBuffPremiumDamage;

  04c4e	a1 14 0d 00 00	 mov	 eax, DWORD PTR ?ExConfig@@3VcExConfigs@@A+3348
  04c53	89 85 58 fe ff
	ff		 mov	 DWORD PTR _AddProcentDamage$232974[ebp], eax

; 1437 : 
; 1438 : 		lpObj->m_AttackDamageMaxLeft += ( lpObj->m_AttackDamageMaxLeft * AddProcentDamage ) / 100;

  04c59	8b 45 f8	 mov	 eax, DWORD PTR _lpObj$[ebp]
  04c5c	8b 80 78 04 00
	00		 mov	 eax, DWORD PTR [eax+1144]
  04c62	0f af 85 58 fe
	ff ff		 imul	 eax, DWORD PTR _AddProcentDamage$232974[ebp]
  04c69	99		 cdq
  04c6a	b9 64 00 00 00	 mov	 ecx, 100		; 00000064H
  04c6f	f7 f9		 idiv	 ecx
  04c71	8b 55 f8	 mov	 edx, DWORD PTR _lpObj$[ebp]
  04c74	03 82 78 04 00
	00		 add	 eax, DWORD PTR [edx+1144]
  04c7a	8b 4d f8	 mov	 ecx, DWORD PTR _lpObj$[ebp]
  04c7d	89 81 78 04 00
	00		 mov	 DWORD PTR [ecx+1144], eax

; 1439 : 		lpObj->m_AttackDamageMinLeft += ( lpObj->m_AttackDamageMinLeft * AddProcentDamage ) / 100;

  04c83	8b 45 f8	 mov	 eax, DWORD PTR _lpObj$[ebp]
  04c86	8b 80 7c 04 00
	00		 mov	 eax, DWORD PTR [eax+1148]
  04c8c	0f af 85 58 fe
	ff ff		 imul	 eax, DWORD PTR _AddProcentDamage$232974[ebp]
  04c93	99		 cdq
  04c94	b9 64 00 00 00	 mov	 ecx, 100		; 00000064H
  04c99	f7 f9		 idiv	 ecx
  04c9b	8b 55 f8	 mov	 edx, DWORD PTR _lpObj$[ebp]
  04c9e	03 82 7c 04 00
	00		 add	 eax, DWORD PTR [edx+1148]
  04ca4	8b 4d f8	 mov	 ecx, DWORD PTR _lpObj$[ebp]
  04ca7	89 81 7c 04 00
	00		 mov	 DWORD PTR [ecx+1148], eax

; 1440 : 		lpObj->m_AttackDamageMaxRight += ( lpObj->m_AttackDamageMaxRight * AddProcentDamage ) / 100;

  04cad	8b 45 f8	 mov	 eax, DWORD PTR _lpObj$[ebp]
  04cb0	8b 80 80 04 00
	00		 mov	 eax, DWORD PTR [eax+1152]
  04cb6	0f af 85 58 fe
	ff ff		 imul	 eax, DWORD PTR _AddProcentDamage$232974[ebp]
  04cbd	99		 cdq
  04cbe	b9 64 00 00 00	 mov	 ecx, 100		; 00000064H
  04cc3	f7 f9		 idiv	 ecx
  04cc5	8b 55 f8	 mov	 edx, DWORD PTR _lpObj$[ebp]
  04cc8	03 82 80 04 00
	00		 add	 eax, DWORD PTR [edx+1152]
  04cce	8b 4d f8	 mov	 ecx, DWORD PTR _lpObj$[ebp]
  04cd1	89 81 80 04 00
	00		 mov	 DWORD PTR [ecx+1152], eax

; 1441 : 		lpObj->m_AttackDamageMinRight += ( lpObj->m_AttackDamageMinRight * AddProcentDamage ) / 100;

  04cd7	8b 45 f8	 mov	 eax, DWORD PTR _lpObj$[ebp]
  04cda	8b 80 84 04 00
	00		 mov	 eax, DWORD PTR [eax+1156]
  04ce0	0f af 85 58 fe
	ff ff		 imul	 eax, DWORD PTR _AddProcentDamage$232974[ebp]
  04ce7	99		 cdq
  04ce8	b9 64 00 00 00	 mov	 ecx, 100		; 00000064H
  04ced	f7 f9		 idiv	 ecx
  04cef	8b 55 f8	 mov	 edx, DWORD PTR _lpObj$[ebp]
  04cf2	03 82 84 04 00
	00		 add	 eax, DWORD PTR [edx+1156]
  04cf8	8b 4d f8	 mov	 ecx, DWORD PTR _lpObj$[ebp]
  04cfb	89 81 84 04 00
	00		 mov	 DWORD PTR [ecx+1156], eax

; 1442 : 		lpObj->m_MagicDamageMin += ( lpObj->m_MagicDamageMin * AddProcentDamage ) / 100;

  04d01	8b 45 f8	 mov	 eax, DWORD PTR _lpObj$[ebp]
  04d04	8b 80 68 04 00
	00		 mov	 eax, DWORD PTR [eax+1128]
  04d0a	0f af 85 58 fe
	ff ff		 imul	 eax, DWORD PTR _AddProcentDamage$232974[ebp]
  04d11	99		 cdq
  04d12	b9 64 00 00 00	 mov	 ecx, 100		; 00000064H
  04d17	f7 f9		 idiv	 ecx
  04d19	8b 55 f8	 mov	 edx, DWORD PTR _lpObj$[ebp]
  04d1c	03 82 68 04 00
	00		 add	 eax, DWORD PTR [edx+1128]
  04d22	8b 4d f8	 mov	 ecx, DWORD PTR _lpObj$[ebp]
  04d25	89 81 68 04 00
	00		 mov	 DWORD PTR [ecx+1128], eax

; 1443 : 		lpObj->m_MagicDamageMax += ( lpObj->m_MagicDamageMin * AddProcentDamage ) / 100;

  04d2b	8b 45 f8	 mov	 eax, DWORD PTR _lpObj$[ebp]
  04d2e	8b 80 68 04 00
	00		 mov	 eax, DWORD PTR [eax+1128]
  04d34	0f af 85 58 fe
	ff ff		 imul	 eax, DWORD PTR _AddProcentDamage$232974[ebp]
  04d3b	99		 cdq
  04d3c	b9 64 00 00 00	 mov	 ecx, 100		; 00000064H
  04d41	f7 f9		 idiv	 ecx
  04d43	8b 55 f8	 mov	 edx, DWORD PTR _lpObj$[ebp]
  04d46	03 82 6c 04 00
	00		 add	 eax, DWORD PTR [edx+1132]
  04d4c	8b 4d f8	 mov	 ecx, DWORD PTR _lpObj$[ebp]
  04d4f	89 81 6c 04 00
	00		 mov	 DWORD PTR [ecx+1132], eax

; 1444 : 
; 1445 : 		int AddProcentDefence = ExConfig.m_iNewBuffPremiumDefence;

  04d55	a1 18 0d 00 00	 mov	 eax, DWORD PTR ?ExConfig@@3VcExConfigs@@A+3352
  04d5a	89 85 54 fe ff
	ff		 mov	 DWORD PTR _AddProcentDefence$232975[ebp], eax

; 1446 : 
; 1447 : 		lpObj->m_Defense += ( lpObj->m_Defense * AddProcentDefence ) / 100;

  04d60	8b 45 f8	 mov	 eax, DWORD PTR _lpObj$[ebp]
  04d63	8b 80 94 04 00
	00		 mov	 eax, DWORD PTR [eax+1172]
  04d69	0f af 85 54 fe
	ff ff		 imul	 eax, DWORD PTR _AddProcentDefence$232975[ebp]
  04d70	99		 cdq
  04d71	b9 64 00 00 00	 mov	 ecx, 100		; 00000064H
  04d76	f7 f9		 idiv	 ecx
  04d78	8b 55 f8	 mov	 edx, DWORD PTR _lpObj$[ebp]
  04d7b	03 82 94 04 00
	00		 add	 eax, DWORD PTR [edx+1172]
  04d81	8b 4d f8	 mov	 ecx, DWORD PTR _lpObj$[ebp]
  04d84	89 81 94 04 00
	00		 mov	 DWORD PTR [ecx+1172], eax

; 1448 : 		lpObj->m_MagicDefense += ( lpObj->m_MagicDefense * AddProcentDefence ) / 100;

  04d8a	8b 45 f8	 mov	 eax, DWORD PTR _lpObj$[ebp]
  04d8d	8b 80 98 04 00
	00		 mov	 eax, DWORD PTR [eax+1176]
  04d93	0f af 85 54 fe
	ff ff		 imul	 eax, DWORD PTR _AddProcentDefence$232975[ebp]
  04d9a	99		 cdq
  04d9b	b9 64 00 00 00	 mov	 ecx, 100		; 00000064H
  04da0	f7 f9		 idiv	 ecx
  04da2	8b 55 f8	 mov	 edx, DWORD PTR _lpObj$[ebp]
  04da5	03 82 98 04 00
	00		 add	 eax, DWORD PTR [edx+1176]
  04dab	8b 4d f8	 mov	 ecx, DWORD PTR _lpObj$[ebp]
  04dae	89 81 98 04 00
	00		 mov	 DWORD PTR [ecx+1176], eax
$LN4@gObjCalCha:

; 1449 : 	}
; 1450 : 
; 1451 : 	if(gObjSearchActiveEffect(lpObj,AT_NEWGUILD_BUFF) == TRUE)

  04db4	68 bb 00 00 00	 push	 187			; 000000bbH
  04db9	8b 45 f8	 mov	 eax, DWORD PTR _lpObj$[ebp]
  04dbc	50		 push	 eax
  04dbd	e8 00 00 00 00	 call	 ?gObjSearchActiveEffect@@YAEPAUOBJECTSTRUCT@@H@Z ; gObjSearchActiveEffect
  04dc2	83 c4 08	 add	 esp, 8
  04dc5	0f b6 c8	 movzx	 ecx, al
  04dc8	83 f9 01	 cmp	 ecx, 1
  04dcb	0f 85 66 01 00
	00		 jne	 $LN3@gObjCalCha

; 1452 : 	{
; 1453 : 		int AddProcentDamage = ExConfig.m_iNewBuffGuildDamage;

  04dd1	a1 24 0d 00 00	 mov	 eax, DWORD PTR ?ExConfig@@3VcExConfigs@@A+3364
  04dd6	89 85 50 fe ff
	ff		 mov	 DWORD PTR _AddProcentDamage$232977[ebp], eax

; 1454 : 
; 1455 : 		lpObj->m_AttackDamageMaxLeft += ( lpObj->m_AttackDamageMaxLeft * AddProcentDamage ) / 100;

  04ddc	8b 45 f8	 mov	 eax, DWORD PTR _lpObj$[ebp]
  04ddf	8b 80 78 04 00
	00		 mov	 eax, DWORD PTR [eax+1144]
  04de5	0f af 85 50 fe
	ff ff		 imul	 eax, DWORD PTR _AddProcentDamage$232977[ebp]
  04dec	99		 cdq
  04ded	b9 64 00 00 00	 mov	 ecx, 100		; 00000064H
  04df2	f7 f9		 idiv	 ecx
  04df4	8b 55 f8	 mov	 edx, DWORD PTR _lpObj$[ebp]
  04df7	03 82 78 04 00
	00		 add	 eax, DWORD PTR [edx+1144]
  04dfd	8b 4d f8	 mov	 ecx, DWORD PTR _lpObj$[ebp]
  04e00	89 81 78 04 00
	00		 mov	 DWORD PTR [ecx+1144], eax

; 1456 : 		lpObj->m_AttackDamageMinLeft += ( lpObj->m_AttackDamageMinLeft * AddProcentDamage ) / 100;

  04e06	8b 45 f8	 mov	 eax, DWORD PTR _lpObj$[ebp]
  04e09	8b 80 7c 04 00
	00		 mov	 eax, DWORD PTR [eax+1148]
  04e0f	0f af 85 50 fe
	ff ff		 imul	 eax, DWORD PTR _AddProcentDamage$232977[ebp]
  04e16	99		 cdq
  04e17	b9 64 00 00 00	 mov	 ecx, 100		; 00000064H
  04e1c	f7 f9		 idiv	 ecx
  04e1e	8b 55 f8	 mov	 edx, DWORD PTR _lpObj$[ebp]
  04e21	03 82 7c 04 00
	00		 add	 eax, DWORD PTR [edx+1148]
  04e27	8b 4d f8	 mov	 ecx, DWORD PTR _lpObj$[ebp]
  04e2a	89 81 7c 04 00
	00		 mov	 DWORD PTR [ecx+1148], eax

; 1457 : 		lpObj->m_AttackDamageMaxRight += ( lpObj->m_AttackDamageMaxRight * AddProcentDamage ) / 100;

  04e30	8b 45 f8	 mov	 eax, DWORD PTR _lpObj$[ebp]
  04e33	8b 80 80 04 00
	00		 mov	 eax, DWORD PTR [eax+1152]
  04e39	0f af 85 50 fe
	ff ff		 imul	 eax, DWORD PTR _AddProcentDamage$232977[ebp]
  04e40	99		 cdq
  04e41	b9 64 00 00 00	 mov	 ecx, 100		; 00000064H
  04e46	f7 f9		 idiv	 ecx
  04e48	8b 55 f8	 mov	 edx, DWORD PTR _lpObj$[ebp]
  04e4b	03 82 80 04 00
	00		 add	 eax, DWORD PTR [edx+1152]
  04e51	8b 4d f8	 mov	 ecx, DWORD PTR _lpObj$[ebp]
  04e54	89 81 80 04 00
	00		 mov	 DWORD PTR [ecx+1152], eax

; 1458 : 		lpObj->m_AttackDamageMinRight += ( lpObj->m_AttackDamageMinRight * AddProcentDamage ) / 100;

  04e5a	8b 45 f8	 mov	 eax, DWORD PTR _lpObj$[ebp]
  04e5d	8b 80 84 04 00
	00		 mov	 eax, DWORD PTR [eax+1156]
  04e63	0f af 85 50 fe
	ff ff		 imul	 eax, DWORD PTR _AddProcentDamage$232977[ebp]
  04e6a	99		 cdq
  04e6b	b9 64 00 00 00	 mov	 ecx, 100		; 00000064H
  04e70	f7 f9		 idiv	 ecx
  04e72	8b 55 f8	 mov	 edx, DWORD PTR _lpObj$[ebp]
  04e75	03 82 84 04 00
	00		 add	 eax, DWORD PTR [edx+1156]
  04e7b	8b 4d f8	 mov	 ecx, DWORD PTR _lpObj$[ebp]
  04e7e	89 81 84 04 00
	00		 mov	 DWORD PTR [ecx+1156], eax

; 1459 : 		lpObj->m_MagicDamageMin += ( lpObj->m_MagicDamageMin * AddProcentDamage ) / 100;

  04e84	8b 45 f8	 mov	 eax, DWORD PTR _lpObj$[ebp]
  04e87	8b 80 68 04 00
	00		 mov	 eax, DWORD PTR [eax+1128]
  04e8d	0f af 85 50 fe
	ff ff		 imul	 eax, DWORD PTR _AddProcentDamage$232977[ebp]
  04e94	99		 cdq
  04e95	b9 64 00 00 00	 mov	 ecx, 100		; 00000064H
  04e9a	f7 f9		 idiv	 ecx
  04e9c	8b 55 f8	 mov	 edx, DWORD PTR _lpObj$[ebp]
  04e9f	03 82 68 04 00
	00		 add	 eax, DWORD PTR [edx+1128]
  04ea5	8b 4d f8	 mov	 ecx, DWORD PTR _lpObj$[ebp]
  04ea8	89 81 68 04 00
	00		 mov	 DWORD PTR [ecx+1128], eax

; 1460 : 		lpObj->m_MagicDamageMax += ( lpObj->m_MagicDamageMin * AddProcentDamage ) / 100;

  04eae	8b 45 f8	 mov	 eax, DWORD PTR _lpObj$[ebp]
  04eb1	8b 80 68 04 00
	00		 mov	 eax, DWORD PTR [eax+1128]
  04eb7	0f af 85 50 fe
	ff ff		 imul	 eax, DWORD PTR _AddProcentDamage$232977[ebp]
  04ebe	99		 cdq
  04ebf	b9 64 00 00 00	 mov	 ecx, 100		; 00000064H
  04ec4	f7 f9		 idiv	 ecx
  04ec6	8b 55 f8	 mov	 edx, DWORD PTR _lpObj$[ebp]
  04ec9	03 82 6c 04 00
	00		 add	 eax, DWORD PTR [edx+1132]
  04ecf	8b 4d f8	 mov	 ecx, DWORD PTR _lpObj$[ebp]
  04ed2	89 81 6c 04 00
	00		 mov	 DWORD PTR [ecx+1132], eax

; 1461 : 
; 1462 : 		int AddProcentDefence = ExConfig.m_iNewBuffGuildDefence;

  04ed8	a1 28 0d 00 00	 mov	 eax, DWORD PTR ?ExConfig@@3VcExConfigs@@A+3368
  04edd	89 85 4c fe ff
	ff		 mov	 DWORD PTR _AddProcentDefence$232978[ebp], eax

; 1463 : 
; 1464 : 		lpObj->m_Defense += ( lpObj->m_Defense * AddProcentDefence ) / 100;

  04ee3	8b 45 f8	 mov	 eax, DWORD PTR _lpObj$[ebp]
  04ee6	8b 80 94 04 00
	00		 mov	 eax, DWORD PTR [eax+1172]
  04eec	0f af 85 4c fe
	ff ff		 imul	 eax, DWORD PTR _AddProcentDefence$232978[ebp]
  04ef3	99		 cdq
  04ef4	b9 64 00 00 00	 mov	 ecx, 100		; 00000064H
  04ef9	f7 f9		 idiv	 ecx
  04efb	8b 55 f8	 mov	 edx, DWORD PTR _lpObj$[ebp]
  04efe	03 82 94 04 00
	00		 add	 eax, DWORD PTR [edx+1172]
  04f04	8b 4d f8	 mov	 ecx, DWORD PTR _lpObj$[ebp]
  04f07	89 81 94 04 00
	00		 mov	 DWORD PTR [ecx+1172], eax

; 1465 : 		lpObj->m_MagicDefense += ( lpObj->m_MagicDefense * AddProcentDefence ) / 100;

  04f0d	8b 45 f8	 mov	 eax, DWORD PTR _lpObj$[ebp]
  04f10	8b 80 98 04 00
	00		 mov	 eax, DWORD PTR [eax+1176]
  04f16	0f af 85 4c fe
	ff ff		 imul	 eax, DWORD PTR _AddProcentDefence$232978[ebp]
  04f1d	99		 cdq
  04f1e	b9 64 00 00 00	 mov	 ecx, 100		; 00000064H
  04f23	f7 f9		 idiv	 ecx
  04f25	8b 55 f8	 mov	 edx, DWORD PTR _lpObj$[ebp]
  04f28	03 82 98 04 00
	00		 add	 eax, DWORD PTR [edx+1176]
  04f2e	8b 4d f8	 mov	 ecx, DWORD PTR _lpObj$[ebp]
  04f31	89 81 98 04 00
	00		 mov	 DWORD PTR [ecx+1176], eax
$LN3@gObjCalCha:

; 1466 : 	}
; 1467 : 
; 1468 : 	if(gObjSearchActiveEffect(lpObj,AT_NEWPARTY_BUFF) == TRUE)

  04f37	68 bc 00 00 00	 push	 188			; 000000bcH
  04f3c	8b 45 f8	 mov	 eax, DWORD PTR _lpObj$[ebp]
  04f3f	50		 push	 eax
  04f40	e8 00 00 00 00	 call	 ?gObjSearchActiveEffect@@YAEPAUOBJECTSTRUCT@@H@Z ; gObjSearchActiveEffect
  04f45	83 c4 08	 add	 esp, 8
  04f48	0f b6 c8	 movzx	 ecx, al
  04f4b	83 f9 01	 cmp	 ecx, 1
  04f4e	0f 85 66 01 00
	00		 jne	 $LN2@gObjCalCha

; 1469 : 	{
; 1470 : 		int AddProcentDamage = ExConfig.m_iNewBuffPartyDamage;

  04f54	a1 34 0d 00 00	 mov	 eax, DWORD PTR ?ExConfig@@3VcExConfigs@@A+3380
  04f59	89 85 48 fe ff
	ff		 mov	 DWORD PTR _AddProcentDamage$232980[ebp], eax

; 1471 : 
; 1472 : 		lpObj->m_AttackDamageMaxLeft += ( lpObj->m_AttackDamageMaxLeft * AddProcentDamage ) / 100;

  04f5f	8b 45 f8	 mov	 eax, DWORD PTR _lpObj$[ebp]
  04f62	8b 80 78 04 00
	00		 mov	 eax, DWORD PTR [eax+1144]
  04f68	0f af 85 48 fe
	ff ff		 imul	 eax, DWORD PTR _AddProcentDamage$232980[ebp]
  04f6f	99		 cdq
  04f70	b9 64 00 00 00	 mov	 ecx, 100		; 00000064H
  04f75	f7 f9		 idiv	 ecx
  04f77	8b 55 f8	 mov	 edx, DWORD PTR _lpObj$[ebp]
  04f7a	03 82 78 04 00
	00		 add	 eax, DWORD PTR [edx+1144]
  04f80	8b 4d f8	 mov	 ecx, DWORD PTR _lpObj$[ebp]
  04f83	89 81 78 04 00
	00		 mov	 DWORD PTR [ecx+1144], eax

; 1473 : 		lpObj->m_AttackDamageMinLeft += ( lpObj->m_AttackDamageMinLeft * AddProcentDamage ) / 100;

  04f89	8b 45 f8	 mov	 eax, DWORD PTR _lpObj$[ebp]
  04f8c	8b 80 7c 04 00
	00		 mov	 eax, DWORD PTR [eax+1148]
  04f92	0f af 85 48 fe
	ff ff		 imul	 eax, DWORD PTR _AddProcentDamage$232980[ebp]
  04f99	99		 cdq
  04f9a	b9 64 00 00 00	 mov	 ecx, 100		; 00000064H
  04f9f	f7 f9		 idiv	 ecx
  04fa1	8b 55 f8	 mov	 edx, DWORD PTR _lpObj$[ebp]
  04fa4	03 82 7c 04 00
	00		 add	 eax, DWORD PTR [edx+1148]
  04faa	8b 4d f8	 mov	 ecx, DWORD PTR _lpObj$[ebp]
  04fad	89 81 7c 04 00
	00		 mov	 DWORD PTR [ecx+1148], eax

; 1474 : 		lpObj->m_AttackDamageMaxRight += ( lpObj->m_AttackDamageMaxRight * AddProcentDamage ) / 100;

  04fb3	8b 45 f8	 mov	 eax, DWORD PTR _lpObj$[ebp]
  04fb6	8b 80 80 04 00
	00		 mov	 eax, DWORD PTR [eax+1152]
  04fbc	0f af 85 48 fe
	ff ff		 imul	 eax, DWORD PTR _AddProcentDamage$232980[ebp]
  04fc3	99		 cdq
  04fc4	b9 64 00 00 00	 mov	 ecx, 100		; 00000064H
  04fc9	f7 f9		 idiv	 ecx
  04fcb	8b 55 f8	 mov	 edx, DWORD PTR _lpObj$[ebp]
  04fce	03 82 80 04 00
	00		 add	 eax, DWORD PTR [edx+1152]
  04fd4	8b 4d f8	 mov	 ecx, DWORD PTR _lpObj$[ebp]
  04fd7	89 81 80 04 00
	00		 mov	 DWORD PTR [ecx+1152], eax

; 1475 : 		lpObj->m_AttackDamageMinRight += ( lpObj->m_AttackDamageMinRight * AddProcentDamage ) / 100;

  04fdd	8b 45 f8	 mov	 eax, DWORD PTR _lpObj$[ebp]
  04fe0	8b 80 84 04 00
	00		 mov	 eax, DWORD PTR [eax+1156]
  04fe6	0f af 85 48 fe
	ff ff		 imul	 eax, DWORD PTR _AddProcentDamage$232980[ebp]
  04fed	99		 cdq
  04fee	b9 64 00 00 00	 mov	 ecx, 100		; 00000064H
  04ff3	f7 f9		 idiv	 ecx
  04ff5	8b 55 f8	 mov	 edx, DWORD PTR _lpObj$[ebp]
  04ff8	03 82 84 04 00
	00		 add	 eax, DWORD PTR [edx+1156]
  04ffe	8b 4d f8	 mov	 ecx, DWORD PTR _lpObj$[ebp]
  05001	89 81 84 04 00
	00		 mov	 DWORD PTR [ecx+1156], eax

; 1476 : 		lpObj->m_MagicDamageMin += ( lpObj->m_MagicDamageMin * AddProcentDamage ) / 100;

  05007	8b 45 f8	 mov	 eax, DWORD PTR _lpObj$[ebp]
  0500a	8b 80 68 04 00
	00		 mov	 eax, DWORD PTR [eax+1128]
  05010	0f af 85 48 fe
	ff ff		 imul	 eax, DWORD PTR _AddProcentDamage$232980[ebp]
  05017	99		 cdq
  05018	b9 64 00 00 00	 mov	 ecx, 100		; 00000064H
  0501d	f7 f9		 idiv	 ecx
  0501f	8b 55 f8	 mov	 edx, DWORD PTR _lpObj$[ebp]
  05022	03 82 68 04 00
	00		 add	 eax, DWORD PTR [edx+1128]
  05028	8b 4d f8	 mov	 ecx, DWORD PTR _lpObj$[ebp]
  0502b	89 81 68 04 00
	00		 mov	 DWORD PTR [ecx+1128], eax

; 1477 : 		lpObj->m_MagicDamageMax += ( lpObj->m_MagicDamageMin * AddProcentDamage ) / 100;

  05031	8b 45 f8	 mov	 eax, DWORD PTR _lpObj$[ebp]
  05034	8b 80 68 04 00
	00		 mov	 eax, DWORD PTR [eax+1128]
  0503a	0f af 85 48 fe
	ff ff		 imul	 eax, DWORD PTR _AddProcentDamage$232980[ebp]
  05041	99		 cdq
  05042	b9 64 00 00 00	 mov	 ecx, 100		; 00000064H
  05047	f7 f9		 idiv	 ecx
  05049	8b 55 f8	 mov	 edx, DWORD PTR _lpObj$[ebp]
  0504c	03 82 6c 04 00
	00		 add	 eax, DWORD PTR [edx+1132]
  05052	8b 4d f8	 mov	 ecx, DWORD PTR _lpObj$[ebp]
  05055	89 81 6c 04 00
	00		 mov	 DWORD PTR [ecx+1132], eax

; 1478 : 
; 1479 : 		int AddProcentDefence = ExConfig.m_iNewBuffPartyDefence;

  0505b	a1 38 0d 00 00	 mov	 eax, DWORD PTR ?ExConfig@@3VcExConfigs@@A+3384
  05060	89 85 44 fe ff
	ff		 mov	 DWORD PTR _AddProcentDefence$232981[ebp], eax

; 1480 : 
; 1481 : 		lpObj->m_Defense += ( lpObj->m_Defense * AddProcentDefence ) / 100;

  05066	8b 45 f8	 mov	 eax, DWORD PTR _lpObj$[ebp]
  05069	8b 80 94 04 00
	00		 mov	 eax, DWORD PTR [eax+1172]
  0506f	0f af 85 44 fe
	ff ff		 imul	 eax, DWORD PTR _AddProcentDefence$232981[ebp]
  05076	99		 cdq
  05077	b9 64 00 00 00	 mov	 ecx, 100		; 00000064H
  0507c	f7 f9		 idiv	 ecx
  0507e	8b 55 f8	 mov	 edx, DWORD PTR _lpObj$[ebp]
  05081	03 82 94 04 00
	00		 add	 eax, DWORD PTR [edx+1172]
  05087	8b 4d f8	 mov	 ecx, DWORD PTR _lpObj$[ebp]
  0508a	89 81 94 04 00
	00		 mov	 DWORD PTR [ecx+1172], eax

; 1482 : 		lpObj->m_MagicDefense += ( lpObj->m_MagicDefense * AddProcentDefence ) / 100;

  05090	8b 45 f8	 mov	 eax, DWORD PTR _lpObj$[ebp]
  05093	8b 80 98 04 00
	00		 mov	 eax, DWORD PTR [eax+1176]
  05099	0f af 85 44 fe
	ff ff		 imul	 eax, DWORD PTR _AddProcentDefence$232981[ebp]
  050a0	99		 cdq
  050a1	b9 64 00 00 00	 mov	 ecx, 100		; 00000064H
  050a6	f7 f9		 idiv	 ecx
  050a8	8b 55 f8	 mov	 edx, DWORD PTR _lpObj$[ebp]
  050ab	03 82 98 04 00
	00		 add	 eax, DWORD PTR [edx+1176]
  050b1	8b 4d f8	 mov	 ecx, DWORD PTR _lpObj$[ebp]
  050b4	89 81 98 04 00
	00		 mov	 DWORD PTR [ecx+1176], eax
$LN2@gObjCalCha:

; 1483 : 	}
; 1484 : #endif
; 1485 : 
; 1486 : 
; 1487 : 	#if(EVENT_DUNGEON_SIEGE)
; 1488 : 	g_DungeonSiege.GuildBuffCharacter(aIndex);

  050ba	8b 45 08	 mov	 eax, DWORD PTR _aIndex$[ebp]
  050bd	50		 push	 eax
  050be	b9 00 00 00 00	 mov	 ecx, OFFSET ?g_DungeonSiege@@3VCDungeonSiege@@A ; g_DungeonSiege
  050c3	e8 00 00 00 00	 call	 ?GuildBuffCharacter@CDungeonSiege@@QAEXH@Z ; CDungeonSiege::GuildBuffCharacter

; 1489 : 	#endif
; 1490 : 	#if(SYSTEM_ACHIEVEMENTS)
; 1491 : 	g_Achievements.CalculatorPower(aIndex);

  050c8	8b 45 08	 mov	 eax, DWORD PTR _aIndex$[ebp]
  050cb	50		 push	 eax
  050cc	b9 00 00 00 00	 mov	 ecx, OFFSET ?g_Achievements@@3VCAchievements@@A ; g_Achievements
  050d1	e8 00 00 00 00	 call	 ?CalculatorPower@CAchievements@@QAEXH@Z ; CAchievements::CalculatorPower

; 1492 : 	#endif
; 1493 : 	#if(ENABLE_PETEX)
; 1494 : 	g_PetEx.Calc(aIndex);

  050d6	8b 45 08	 mov	 eax, DWORD PTR _aIndex$[ebp]
  050d9	50		 push	 eax
  050da	b9 00 00 00 00	 mov	 ecx, OFFSET ?g_PetEx@@3VCPetEx@@A ; g_PetEx
  050df	e8 00 00 00 00	 call	 ?Calc@CPetEx@@QAEXH@Z	; CPetEx::Calc

; 1495 : 	#endif
; 1496 : 
; 1497 : 	gMaxPower.Main(aIndex);	//check max parametrs char

  050e4	8b 45 08	 mov	 eax, DWORD PTR _aIndex$[ebp]
  050e7	50		 push	 eax
  050e8	b9 00 00 00 00	 mov	 ecx, OFFSET ?gMaxPower@@3VcMaxPower@@A ; gMaxPower
  050ed	e8 00 00 00 00	 call	 ?Main@cMaxPower@@QAEXH@Z ; cMaxPower::Main

; 1498 : 
; 1499 : #ifdef _VOTER_						
; 1500 : 	gVoter.PlayerCalculator(lpObj->m_Index);

  050f2	8b 45 f8	 mov	 eax, DWORD PTR _lpObj$[ebp]
  050f5	8b 08		 mov	 ecx, DWORD PTR [eax]
  050f7	51		 push	 ecx
  050f8	b9 00 00 00 00	 mov	 ecx, OFFSET ?gVoter@@3VVoter@@A ; gVoter
  050fd	e8 00 00 00 00	 call	 ?PlayerCalculator@Voter@@QAEXH@Z ; Voter::PlayerCalculator

; 1501 : #endif
; 1502 : 
; 1503 : 	gBalanceSystem.Refflect(lpObj);

  05102	8b 45 f8	 mov	 eax, DWORD PTR _lpObj$[ebp]
  05105	50		 push	 eax
  05106	b9 00 00 00 00	 mov	 ecx, OFFSET ?gBalanceSystem@@3VcBalanceSystem@@A ; gBalanceSystem
  0510b	e8 00 00 00 00	 call	 ?Refflect@cBalanceSystem@@QAEXPAUOBJECTSTRUCT@@@Z ; cBalanceSystem::Refflect

; 1504 : 
; 1505 : 	if ( lpObj->iShield > ( lpObj->iMaxShield + lpObj->iAddShield ) )

  05110	8b 45 f8	 mov	 eax, DWORD PTR _lpObj$[ebp]
  05113	8b 88 58 01 00
	00		 mov	 ecx, DWORD PTR [eax+344]
  05119	8b 55 f8	 mov	 edx, DWORD PTR _lpObj$[ebp]
  0511c	03 8a 5c 01 00
	00		 add	 ecx, DWORD PTR [edx+348]
  05122	8b 45 f8	 mov	 eax, DWORD PTR _lpObj$[ebp]
  05125	39 88 54 01 00
	00		 cmp	 DWORD PTR [eax+340], ecx
  0512b	7e 49		 jle	 SHORT $LN1@gObjCalCha

; 1506 : 	{
; 1507 : 		lpObj->iShield = lpObj->iMaxShield + lpObj->iAddShield ;

  0512d	8b 45 f8	 mov	 eax, DWORD PTR _lpObj$[ebp]
  05130	8b 88 58 01 00
	00		 mov	 ecx, DWORD PTR [eax+344]
  05136	8b 55 f8	 mov	 edx, DWORD PTR _lpObj$[ebp]
  05139	03 8a 5c 01 00
	00		 add	 ecx, DWORD PTR [edx+348]
  0513f	8b 45 f8	 mov	 eax, DWORD PTR _lpObj$[ebp]
  05142	89 88 54 01 00
	00		 mov	 DWORD PTR [eax+340], ecx

; 1508 : 		GCReFillSend(lpObj->m_Index, lpObj->Life, 0xFF, 0, lpObj->iShield);

  05148	8b 45 f8	 mov	 eax, DWORD PTR _lpObj$[ebp]
  0514b	8b 88 54 01 00
	00		 mov	 ecx, DWORD PTR [eax+340]
  05151	51		 push	 ecx
  05152	6a 00		 push	 0
  05154	68 ff 00 00 00	 push	 255			; 000000ffH
  05159	8b 55 f8	 mov	 edx, DWORD PTR _lpObj$[ebp]
  0515c	d9 82 fc 00 00
	00		 fld	 DWORD PTR [edx+252]
  05162	e8 00 00 00 00	 call	 __ftol2_sse
  05167	50		 push	 eax
  05168	8b 45 f8	 mov	 eax, DWORD PTR _lpObj$[ebp]
  0516b	8b 08		 mov	 ecx, DWORD PTR [eax]
  0516d	51		 push	 ecx
  0516e	e8 00 00 00 00	 call	 ?GCReFillSend@@YAXHHEEH@Z ; GCReFillSend
  05173	83 c4 14	 add	 esp, 20			; 00000014H
$LN1@gObjCalCha:

; 1509 : 	}
; 1510 : 
; 1511 : 	GCReFillSend(lpObj->m_Index, (lpObj->MaxLife + lpObj->AddLife), 0xFE, 0, (lpObj->iMaxShield + lpObj->iAddShield));

  05176	8b 45 f8	 mov	 eax, DWORD PTR _lpObj$[ebp]
  05179	8b 88 58 01 00
	00		 mov	 ecx, DWORD PTR [eax+344]
  0517f	8b 55 f8	 mov	 edx, DWORD PTR _lpObj$[ebp]
  05182	03 8a 5c 01 00
	00		 add	 ecx, DWORD PTR [edx+348]
  05188	51		 push	 ecx
  05189	6a 00		 push	 0
  0518b	68 fe 00 00 00	 push	 254			; 000000feH
  05190	8b 45 f8	 mov	 eax, DWORD PTR _lpObj$[ebp]
  05193	db 80 4c 01 00
	00		 fild	 DWORD PTR [eax+332]
  05199	8b 4d f8	 mov	 ecx, DWORD PTR _lpObj$[ebp]
  0519c	d8 81 00 01 00
	00		 fadd	 DWORD PTR [ecx+256]
  051a2	e8 00 00 00 00	 call	 __ftol2_sse
  051a7	50		 push	 eax
  051a8	8b 55 f8	 mov	 edx, DWORD PTR _lpObj$[ebp]
  051ab	8b 02		 mov	 eax, DWORD PTR [edx]
  051ad	50		 push	 eax
  051ae	e8 00 00 00 00	 call	 ?GCReFillSend@@YAXHHEEH@Z ; GCReFillSend
  051b3	83 c4 14	 add	 esp, 20			; 00000014H

; 1512 : 	GCManaSend(lpObj->m_Index, (lpObj->MaxMana + lpObj->AddMana), 0xFE, 0, (lpObj->MaxBP + lpObj->AddBP));

  051b6	8b 45 f8	 mov	 eax, DWORD PTR _lpObj$[ebp]
  051b9	8b 88 2c 01 00
	00		 mov	 ecx, DWORD PTR [eax+300]
  051bf	8b 55 f8	 mov	 edx, DWORD PTR _lpObj$[ebp]
  051c2	03 8a 30 01 00
	00		 add	 ecx, DWORD PTR [edx+304]
  051c8	51		 push	 ecx
  051c9	6a 00		 push	 0
  051cb	68 fe 00 00 00	 push	 254			; 000000feH
  051d0	8b 45 f8	 mov	 eax, DWORD PTR _lpObj$[ebp]
  051d3	db 80 50 01 00
	00		 fild	 DWORD PTR [eax+336]
  051d9	8b 4d f8	 mov	 ecx, DWORD PTR _lpObj$[ebp]
  051dc	d8 81 14 01 00
	00		 fadd	 DWORD PTR [ecx+276]
  051e2	e8 00 00 00 00	 call	 __ftol2_sse
  051e7	50		 push	 eax
  051e8	8b 55 f8	 mov	 edx, DWORD PTR _lpObj$[ebp]
  051eb	8b 02		 mov	 eax, DWORD PTR [edx]
  051ed	50		 push	 eax
  051ee	e8 00 00 00 00	 call	 ?GCManaSend@@YAXHHEEH@Z	; GCManaSend
  051f3	83 c4 14	 add	 esp, 20			; 00000014H

; 1513 : 
; 1514 : #ifdef DEBUG_CODE2
; 1515 : 	LogAddC(2,"FINAL DAMAGE: %d",lpObj->m_AttackDamageMaxRight);
; 1516 : #endif
; 1517 : 
; 1518 : 	gWingsDamage.PlayerCalculator(aIndex);

  051f6	8b 45 08	 mov	 eax, DWORD PTR _aIndex$[ebp]
  051f9	50		 push	 eax
  051fa	b9 00 00 00 00	 mov	 ecx, OFFSET ?gWingsDamage@@3VcWingsDamage@@A ; gWingsDamage
  051ff	e8 00 00 00 00	 call	 ?PlayerCalculator@cWingsDamage@@QAEXH@Z ; cWingsDamage::PlayerCalculator

; 1519 : 
; 1520 : 	#if(DEV_STATS_ADVANCE)
; 1521 : 	g_StatsAdvance.Send(aIndex);

  05204	8b 45 08	 mov	 eax, DWORD PTR _aIndex$[ebp]
  05207	50		 push	 eax
  05208	b9 00 00 00 00	 mov	 ecx, OFFSET ?g_StatsAdvance@@3VCStatsAdvance@@A ; g_StatsAdvance
  0520d	e8 00 00 00 00	 call	 ?Send@CStatsAdvance@@QAEXH@Z ; CStatsAdvance::Send

; 1522 : 	#endif
; 1523 : }

  05212	5f		 pop	 edi
  05213	5e		 pop	 esi
  05214	5b		 pop	 ebx
  05215	8b 4d fc	 mov	 ecx, DWORD PTR __$ArrayPad$[ebp]
  05218	33 cd		 xor	 ecx, ebp
  0521a	e8 00 00 00 00	 call	 @__security_check_cookie@4
  0521f	8b e5		 mov	 esp, ebp
  05221	5d		 pop	 ebp
  05222	c3		 ret	 0
?gObjCalCharacter@@YAXH@Z ENDP				; gObjCalCharacter
_TEXT	ENDS
PUBLIC	__$ArrayPad$
EXTRN	?IsExtDamageReflect@CItem@@QAEHXZ:PROC		; CItem::IsExtDamageReflect
EXTRN	?IsExtDamageMinus@CItem@@QAEHXZ:PROC		; CItem::IsExtDamageMinus
EXTRN	?IsExtMonsterMoney@CItem@@QAEHXZ:PROC		; CItem::IsExtMonsterMoney
EXTRN	?IsExtDefenseSuccessfull@CItem@@QAEHXZ:PROC	; CItem::IsExtDefenseSuccessfull
EXTRN	?IsExtManaAdd@CItem@@QAEHXZ:PROC		; CItem::IsExtManaAdd
EXTRN	?IsExtLifeAdd@CItem@@QAEHXZ:PROC		; CItem::IsExtLifeAdd
EXTRN	?IsExtItem@CItem@@QAEHXZ:PROC			; CItem::IsExtItem
EXTRN	?IsExtMonsterDieMana@CItem@@QAEHXZ:PROC		; CItem::IsExtMonsterDieMana
EXTRN	?IsExtMonsterDieLife@CItem@@QAEHXZ:PROC		; CItem::IsExtMonsterDieLife
EXTRN	?IsExtAttackSpeed@CItem@@QAEHXZ:PROC		; CItem::IsExtAttackSpeed
EXTRN	?IsExtExcellentDamage@CItem@@QAEHXZ:PROC	; CItem::IsExtExcellentDamage
EXTRN	?IsExtAttackRate2@CItem@@QAEHXZ:PROC		; CItem::IsExtAttackRate2
EXTRN	?IsExtAttackRate@CItem@@QAEHXZ:PROC		; CItem::IsExtAttackRate
; Function compile flags: /Odtp /ZI
_TEXT	SEGMENT
tv865 = -140						; size = 4
tv854 = -140						; size = 4
_maxn2_loop$ = -72					; size = 4
_temp_n2$ = -68						; size = 40
_temp_n$ = -28						; size = 12
_max_count$ = -16					; size = 4
_i$ = -12						; size = 4
_n$ = -8						; size = 4
__$ArrayPad$ = -4					; size = 4
_lpObj$ = 8						; size = 4
?GObjExtItemApply@@YAXPAUOBJECTSTRUCT@@@Z PROC		; GObjExtItemApply

; 1526 : {

  05230	55		 push	 ebp
  05231	8b ec		 mov	 ebp, esp
  05233	81 ec 8c 00 00
	00		 sub	 esp, 140		; 0000008cH
  05239	a1 00 00 00 00	 mov	 eax, DWORD PTR ___security_cookie
  0523e	33 c5		 xor	 eax, ebp
  05240	89 45 fc	 mov	 DWORD PTR __$ArrayPad$[ebp], eax
  05243	53		 push	 ebx
  05244	56		 push	 esi
  05245	57		 push	 edi

; 1527 : 
; 1528 : 	int n;
; 1529 : 	int i;
; 1530 : 	int max_count = 0;

  05246	c7 45 f0 00 00
	00 00		 mov	 DWORD PTR _max_count$[ebp], 0

; 1531 : 	int temp_n[3] = {0, 1, 9};

  0524d	c7 45 e4 00 00
	00 00		 mov	 DWORD PTR _temp_n$[ebp], 0
  05254	c7 45 e8 01 00
	00 00		 mov	 DWORD PTR _temp_n$[ebp+4], 1
  0525b	c7 45 ec 09 00
	00 00		 mov	 DWORD PTR _temp_n$[ebp+8], 9

; 1532 : 	int temp_n2[10] = {2, 3, 4, 5, 6, 7, 8, 10, 11, 1};

  05262	c7 45 bc 02 00
	00 00		 mov	 DWORD PTR _temp_n2$[ebp], 2
  05269	c7 45 c0 03 00
	00 00		 mov	 DWORD PTR _temp_n2$[ebp+4], 3
  05270	c7 45 c4 04 00
	00 00		 mov	 DWORD PTR _temp_n2$[ebp+8], 4
  05277	c7 45 c8 05 00
	00 00		 mov	 DWORD PTR _temp_n2$[ebp+12], 5
  0527e	c7 45 cc 06 00
	00 00		 mov	 DWORD PTR _temp_n2$[ebp+16], 6
  05285	c7 45 d0 07 00
	00 00		 mov	 DWORD PTR _temp_n2$[ebp+20], 7
  0528c	c7 45 d4 08 00
	00 00		 mov	 DWORD PTR _temp_n2$[ebp+24], 8
  05293	c7 45 d8 0a 00
	00 00		 mov	 DWORD PTR _temp_n2$[ebp+28], 10 ; 0000000aH
  0529a	c7 45 dc 0b 00
	00 00		 mov	 DWORD PTR _temp_n2$[ebp+32], 11 ; 0000000bH
  052a1	c7 45 e0 01 00
	00 00		 mov	 DWORD PTR _temp_n2$[ebp+36], 1

; 1533 : 	int maxn2_loop = 9;

  052a8	c7 45 b8 09 00
	00 00		 mov	 DWORD PTR _maxn2_loop$[ebp], 9

; 1534 : 
; 1535 : 	for ( i=0;i<3;i++ )

  052af	c7 45 f4 00 00
	00 00		 mov	 DWORD PTR _i$[ebp], 0
  052b6	eb 09		 jmp	 SHORT $LN33@GObjExtIte
$LN32@GObjExtIte:
  052b8	8b 45 f4	 mov	 eax, DWORD PTR _i$[ebp]
  052bb	83 c0 01	 add	 eax, 1
  052be	89 45 f4	 mov	 DWORD PTR _i$[ebp], eax
$LN33@GObjExtIte:
  052c1	83 7d f4 03	 cmp	 DWORD PTR _i$[ebp], 3
  052c5	0f 8d 3e 06 00
	00		 jge	 $LN31@GObjExtIte

; 1536 : 	{
; 1537 : 		n = temp_n[i];

  052cb	8b 45 f4	 mov	 eax, DWORD PTR _i$[ebp]
  052ce	8b 4c 85 e4	 mov	 ecx, DWORD PTR _temp_n$[ebp+eax*4]
  052d2	89 4d f8	 mov	 DWORD PTR _n$[ebp], ecx

; 1538 : 
; 1539 : 		if ( lpObj->pInventory[n].m_Type >= ITEMGET(6, 0) && lpObj->pInventory[n].m_Type < ITEMGET(7, 0) )

  052d5	8b 45 f8	 mov	 eax, DWORD PTR _n$[ebp]
  052d8	69 c0 d4 00 00
	00		 imul	 eax, 212		; 000000d4H
  052de	8b 4d 08	 mov	 ecx, DWORD PTR _lpObj$[ebp]
  052e1	8b 91 24 0e 00
	00		 mov	 edx, DWORD PTR [ecx+3620]
  052e7	0f bf 44 02 06	 movsx	 eax, WORD PTR [edx+eax+6]
  052ec	3d 00 0c 00 00	 cmp	 eax, 3072		; 00000c00H
  052f1	7c 20		 jl	 SHORT $LN30@GObjExtIte
  052f3	8b 45 f8	 mov	 eax, DWORD PTR _n$[ebp]
  052f6	69 c0 d4 00 00
	00		 imul	 eax, 212		; 000000d4H
  052fc	8b 4d 08	 mov	 ecx, DWORD PTR _lpObj$[ebp]
  052ff	8b 91 24 0e 00
	00		 mov	 edx, DWORD PTR [ecx+3620]
  05305	0f bf 44 02 06	 movsx	 eax, WORD PTR [edx+eax+6]
  0530a	3d 00 0e 00 00	 cmp	 eax, 3584		; 00000e00H
  0530f	7d 02		 jge	 SHORT $LN30@GObjExtIte

; 1540 : 		{
; 1541 : 			continue;

  05311	eb a5		 jmp	 SHORT $LN32@GObjExtIte
$LN30@GObjExtIte:

; 1542 : 		}
; 1543 : 
; 1544 : 		if ( lpObj->pInventory[n].IsItem() == TRUE )

  05313	8b 4d f8	 mov	 ecx, DWORD PTR _n$[ebp]
  05316	69 c9 d4 00 00
	00		 imul	 ecx, 212		; 000000d4H
  0531c	8b 45 08	 mov	 eax, DWORD PTR _lpObj$[ebp]
  0531f	03 88 24 0e 00
	00		 add	 ecx, DWORD PTR [eax+3620]
  05325	e8 00 00 00 00	 call	 ?IsItem@CItem@@QAEHXZ	; CItem::IsItem
  0532a	83 f8 01	 cmp	 eax, 1
  0532d	0f 85 d1 05 00
	00		 jne	 $LN27@GObjExtIte

; 1545 : 		{
; 1546 : 			if ( lpObj->pInventory[n].m_Durability != 0.0f )

  05333	8b 45 f8	 mov	 eax, DWORD PTR _n$[ebp]
  05336	69 c0 d4 00 00
	00		 imul	 eax, 212		; 000000d4H
  0533c	8b 4d 08	 mov	 ecx, DWORD PTR _lpObj$[ebp]
  0533f	8b 91 24 0e 00
	00		 mov	 edx, DWORD PTR [ecx+3620]
  05345	d9 44 02 24	 fld	 DWORD PTR [edx+eax+36]
  05349	d9 ee		 fldz
  0534b	da e9		 fucompp
  0534d	df e0		 fnstsw	 ax
  0534f	f6 c4 44	 test	 ah, 68			; 00000044H
  05352	0f 8b ac 05 00
	00		 jnp	 $LN27@GObjExtIte

; 1547 : 			{
; 1548 : 				if ( lpObj->pInventory[n].m_IsValidItem == true )

  05358	8b 45 f8	 mov	 eax, DWORD PTR _n$[ebp]
  0535b	69 c0 d4 00 00
	00		 imul	 eax, 212		; 000000d4H
  05361	8b 4d 08	 mov	 ecx, DWORD PTR _lpObj$[ebp]
  05364	8b 91 24 0e 00
	00		 mov	 edx, DWORD PTR [ecx+3620]
  0536a	0f b6 84 02 b0
	00 00 00	 movzx	 eax, BYTE PTR [edx+eax+176]
  05372	83 f8 01	 cmp	 eax, 1
  05375	0f 85 89 05 00
	00		 jne	 $LN27@GObjExtIte

; 1549 : 				{
; 1550 : 					if ( lpObj->pInventory[n].IsExtAttackRate() )

  0537b	8b 4d f8	 mov	 ecx, DWORD PTR _n$[ebp]
  0537e	69 c9 d4 00 00
	00		 imul	 ecx, 212		; 000000d4H
  05384	8b 45 08	 mov	 eax, DWORD PTR _lpObj$[ebp]
  05387	03 88 24 0e 00
	00		 add	 ecx, DWORD PTR [eax+3620]
  0538d	e8 00 00 00 00	 call	 ?IsExtAttackRate@CItem@@QAEHXZ ; CItem::IsExtAttackRate
  05392	85 c0		 test	 eax, eax
  05394	0f 84 63 02 00
	00		 je	 $LN19@GObjExtIte

; 1551 : 					{
; 1552 : 						if ( ( lpObj->pInventory[n].m_Type >= ITEMGET(5, 0) && lpObj->pInventory[n].m_Type < ITEMGET(6, 0) ) ||
; 1553 : 							lpObj->pInventory[n].m_Type == ITEMGET(13,12) ||
; 1554 : 							lpObj->pInventory[n].m_Type == ITEMGET(13,25) ||
; 1555 : 							lpObj->pInventory[n].m_Type == ITEMGET(13,27) )

  0539a	8b 45 f8	 mov	 eax, DWORD PTR _n$[ebp]
  0539d	69 c0 d4 00 00
	00		 imul	 eax, 212		; 000000d4H
  053a3	8b 4d 08	 mov	 ecx, DWORD PTR _lpObj$[ebp]
  053a6	8b 91 24 0e 00
	00		 mov	 edx, DWORD PTR [ecx+3620]
  053ac	0f bf 44 02 06	 movsx	 eax, WORD PTR [edx+eax+6]
  053b1	3d 00 0a 00 00	 cmp	 eax, 2560		; 00000a00H
  053b6	7c 1e		 jl	 SHORT $LN23@GObjExtIte
  053b8	8b 45 f8	 mov	 eax, DWORD PTR _n$[ebp]
  053bb	69 c0 d4 00 00
	00		 imul	 eax, 212		; 000000d4H
  053c1	8b 4d 08	 mov	 ecx, DWORD PTR _lpObj$[ebp]
  053c4	8b 91 24 0e 00
	00		 mov	 edx, DWORD PTR [ecx+3620]
  053ca	0f bf 44 02 06	 movsx	 eax, WORD PTR [edx+eax+6]
  053cf	3d 00 0c 00 00	 cmp	 eax, 3072		; 00000c00H
  053d4	7c 5e		 jl	 SHORT $LN24@GObjExtIte
$LN23@GObjExtIte:
  053d6	8b 45 f8	 mov	 eax, DWORD PTR _n$[ebp]
  053d9	69 c0 d4 00 00
	00		 imul	 eax, 212		; 000000d4H
  053df	8b 4d 08	 mov	 ecx, DWORD PTR _lpObj$[ebp]
  053e2	8b 91 24 0e 00
	00		 mov	 edx, DWORD PTR [ecx+3620]
  053e8	0f bf 44 02 06	 movsx	 eax, WORD PTR [edx+eax+6]
  053ed	3d 0c 1a 00 00	 cmp	 eax, 6668		; 00001a0cH
  053f2	74 40		 je	 SHORT $LN24@GObjExtIte
  053f4	8b 45 f8	 mov	 eax, DWORD PTR _n$[ebp]
  053f7	69 c0 d4 00 00
	00		 imul	 eax, 212		; 000000d4H
  053fd	8b 4d 08	 mov	 ecx, DWORD PTR _lpObj$[ebp]
  05400	8b 91 24 0e 00
	00		 mov	 edx, DWORD PTR [ecx+3620]
  05406	0f bf 44 02 06	 movsx	 eax, WORD PTR [edx+eax+6]
  0540b	3d 19 1a 00 00	 cmp	 eax, 6681		; 00001a19H
  05410	74 22		 je	 SHORT $LN24@GObjExtIte
  05412	8b 45 f8	 mov	 eax, DWORD PTR _n$[ebp]
  05415	69 c0 d4 00 00
	00		 imul	 eax, 212		; 000000d4H
  0541b	8b 4d 08	 mov	 ecx, DWORD PTR _lpObj$[ebp]
  0541e	8b 91 24 0e 00
	00		 mov	 edx, DWORD PTR [ecx+3620]
  05424	0f bf 44 02 06	 movsx	 eax, WORD PTR [edx+eax+6]
  05429	3d 1b 1a 00 00	 cmp	 eax, 6683		; 00001a1bH
  0542e	0f 85 91 00 00
	00		 jne	 $LN25@GObjExtIte
$LN24@GObjExtIte:

; 1556 : 						{
; 1557 : 							//lpObj->m_MagicDamageMax += (lpObj->Level + lpObj->MLevel) / 20;
; 1558 : 							//lpObj->m_MagicDamageMin += (lpObj->Level + lpObj->MLevel) / 20;
; 1559 : 							lpObj->m_MagicDamageMax += (lpObj->Level + lpObj->MLevel) / lpObj->pInventory[n].IsExtAttackRate();

  05434	8b 45 08	 mov	 eax, DWORD PTR _lpObj$[ebp]
  05437	0f bf b0 be 00
	00 00		 movsx	 esi, WORD PTR [eax+190]
  0543e	8b 4d 08	 mov	 ecx, DWORD PTR _lpObj$[ebp]
  05441	0f bf 91 d0 00
	00 00		 movsx	 edx, WORD PTR [ecx+208]
  05448	03 f2		 add	 esi, edx
  0544a	8b 4d f8	 mov	 ecx, DWORD PTR _n$[ebp]
  0544d	69 c9 d4 00 00
	00		 imul	 ecx, 212		; 000000d4H
  05453	8b 45 08	 mov	 eax, DWORD PTR _lpObj$[ebp]
  05456	03 88 24 0e 00
	00		 add	 ecx, DWORD PTR [eax+3620]
  0545c	e8 00 00 00 00	 call	 ?IsExtAttackRate@CItem@@QAEHXZ ; CItem::IsExtAttackRate
  05461	8b c8		 mov	 ecx, eax
  05463	8b c6		 mov	 eax, esi
  05465	99		 cdq
  05466	f7 f9		 idiv	 ecx
  05468	8b 55 08	 mov	 edx, DWORD PTR _lpObj$[ebp]
  0546b	03 82 6c 04 00
	00		 add	 eax, DWORD PTR [edx+1132]
  05471	8b 4d 08	 mov	 ecx, DWORD PTR _lpObj$[ebp]
  05474	89 81 6c 04 00
	00		 mov	 DWORD PTR [ecx+1132], eax

; 1560 : 							lpObj->m_MagicDamageMin += (lpObj->Level + lpObj->MLevel) / lpObj->pInventory[n].IsExtAttackRate();

  0547a	8b 45 08	 mov	 eax, DWORD PTR _lpObj$[ebp]
  0547d	0f bf b0 be 00
	00 00		 movsx	 esi, WORD PTR [eax+190]
  05484	8b 4d 08	 mov	 ecx, DWORD PTR _lpObj$[ebp]
  05487	0f bf 91 d0 00
	00 00		 movsx	 edx, WORD PTR [ecx+208]
  0548e	03 f2		 add	 esi, edx
  05490	8b 4d f8	 mov	 ecx, DWORD PTR _n$[ebp]
  05493	69 c9 d4 00 00
	00		 imul	 ecx, 212		; 000000d4H
  05499	8b 45 08	 mov	 eax, DWORD PTR _lpObj$[ebp]
  0549c	03 88 24 0e 00
	00		 add	 ecx, DWORD PTR [eax+3620]
  054a2	e8 00 00 00 00	 call	 ?IsExtAttackRate@CItem@@QAEHXZ ; CItem::IsExtAttackRate
  054a7	8b c8		 mov	 ecx, eax
  054a9	8b c6		 mov	 eax, esi
  054ab	99		 cdq
  054ac	f7 f9		 idiv	 ecx
  054ae	8b 55 08	 mov	 edx, DWORD PTR _lpObj$[ebp]
  054b1	03 82 68 04 00
	00		 add	 eax, DWORD PTR [edx+1128]
  054b7	8b 4d 08	 mov	 ecx, DWORD PTR _lpObj$[ebp]
  054ba	89 81 68 04 00
	00		 mov	 DWORD PTR [ecx+1128], eax

; 1561 : 						}
; 1562 : 						else 

  054c0	e9 38 01 00 00	 jmp	 $LN19@GObjExtIte
$LN25@GObjExtIte:

; 1563 : 						{
; 1564 : 							if ( n == 0 || n == 9 )

  054c5	83 7d f8 00	 cmp	 DWORD PTR _n$[ebp], 0
  054c9	74 0a		 je	 SHORT $LN20@GObjExtIte
  054cb	83 7d f8 09	 cmp	 DWORD PTR _n$[ebp], 9
  054cf	0f 85 8c 00 00
	00		 jne	 $LN21@GObjExtIte
$LN20@GObjExtIte:

; 1565 : 							{
; 1566 : 								//lpObj->m_AttackDamageMinRight += (lpObj->Level + lpObj->MLevel) / 20;
; 1567 : 								//lpObj->m_AttackDamageMaxRight += (lpObj->Level + lpObj->MLevel) / 20;
; 1568 : 								lpObj->m_AttackDamageMinRight += (lpObj->Level + lpObj->MLevel) / lpObj->pInventory[n].IsExtAttackRate();

  054d5	8b 45 08	 mov	 eax, DWORD PTR _lpObj$[ebp]
  054d8	0f bf b0 be 00
	00 00		 movsx	 esi, WORD PTR [eax+190]
  054df	8b 4d 08	 mov	 ecx, DWORD PTR _lpObj$[ebp]
  054e2	0f bf 91 d0 00
	00 00		 movsx	 edx, WORD PTR [ecx+208]
  054e9	03 f2		 add	 esi, edx
  054eb	8b 4d f8	 mov	 ecx, DWORD PTR _n$[ebp]
  054ee	69 c9 d4 00 00
	00		 imul	 ecx, 212		; 000000d4H
  054f4	8b 45 08	 mov	 eax, DWORD PTR _lpObj$[ebp]
  054f7	03 88 24 0e 00
	00		 add	 ecx, DWORD PTR [eax+3620]
  054fd	e8 00 00 00 00	 call	 ?IsExtAttackRate@CItem@@QAEHXZ ; CItem::IsExtAttackRate
  05502	8b c8		 mov	 ecx, eax
  05504	8b c6		 mov	 eax, esi
  05506	99		 cdq
  05507	f7 f9		 idiv	 ecx
  05509	8b 55 08	 mov	 edx, DWORD PTR _lpObj$[ebp]
  0550c	03 82 84 04 00
	00		 add	 eax, DWORD PTR [edx+1156]
  05512	8b 4d 08	 mov	 ecx, DWORD PTR _lpObj$[ebp]
  05515	89 81 84 04 00
	00		 mov	 DWORD PTR [ecx+1156], eax

; 1569 : 								lpObj->m_AttackDamageMaxRight += (lpObj->Level + lpObj->MLevel) / lpObj->pInventory[n].IsExtAttackRate();

  0551b	8b 45 08	 mov	 eax, DWORD PTR _lpObj$[ebp]
  0551e	0f bf b0 be 00
	00 00		 movsx	 esi, WORD PTR [eax+190]
  05525	8b 4d 08	 mov	 ecx, DWORD PTR _lpObj$[ebp]
  05528	0f bf 91 d0 00
	00 00		 movsx	 edx, WORD PTR [ecx+208]
  0552f	03 f2		 add	 esi, edx
  05531	8b 4d f8	 mov	 ecx, DWORD PTR _n$[ebp]
  05534	69 c9 d4 00 00
	00		 imul	 ecx, 212		; 000000d4H
  0553a	8b 45 08	 mov	 eax, DWORD PTR _lpObj$[ebp]
  0553d	03 88 24 0e 00
	00		 add	 ecx, DWORD PTR [eax+3620]
  05543	e8 00 00 00 00	 call	 ?IsExtAttackRate@CItem@@QAEHXZ ; CItem::IsExtAttackRate
  05548	8b c8		 mov	 ecx, eax
  0554a	8b c6		 mov	 eax, esi
  0554c	99		 cdq
  0554d	f7 f9		 idiv	 ecx
  0554f	8b 55 08	 mov	 edx, DWORD PTR _lpObj$[ebp]
  05552	03 82 80 04 00
	00		 add	 eax, DWORD PTR [edx+1152]
  05558	8b 4d 08	 mov	 ecx, DWORD PTR _lpObj$[ebp]
  0555b	89 81 80 04 00
	00		 mov	 DWORD PTR [ecx+1152], eax
$LN21@GObjExtIte:

; 1570 : 							}
; 1571 : 							
; 1572 : 							if ( n == 1 || n == 9 )

  05561	83 7d f8 01	 cmp	 DWORD PTR _n$[ebp], 1
  05565	74 0a		 je	 SHORT $LN18@GObjExtIte
  05567	83 7d f8 09	 cmp	 DWORD PTR _n$[ebp], 9
  0556b	0f 85 8c 00 00
	00		 jne	 $LN19@GObjExtIte
$LN18@GObjExtIte:

; 1573 : 							{
; 1574 : 								//lpObj->m_AttackDamageMinLeft += (lpObj->Level + lpObj->MLevel) / 20;
; 1575 : 								//lpObj->m_AttackDamageMaxLeft += (lpObj->Level) / 20;
; 1576 : 								lpObj->m_AttackDamageMinLeft += (lpObj->Level + lpObj->MLevel) / lpObj->pInventory[n].IsExtAttackRate();

  05571	8b 45 08	 mov	 eax, DWORD PTR _lpObj$[ebp]
  05574	0f bf b0 be 00
	00 00		 movsx	 esi, WORD PTR [eax+190]
  0557b	8b 4d 08	 mov	 ecx, DWORD PTR _lpObj$[ebp]
  0557e	0f bf 91 d0 00
	00 00		 movsx	 edx, WORD PTR [ecx+208]
  05585	03 f2		 add	 esi, edx
  05587	8b 4d f8	 mov	 ecx, DWORD PTR _n$[ebp]
  0558a	69 c9 d4 00 00
	00		 imul	 ecx, 212		; 000000d4H
  05590	8b 45 08	 mov	 eax, DWORD PTR _lpObj$[ebp]
  05593	03 88 24 0e 00
	00		 add	 ecx, DWORD PTR [eax+3620]
  05599	e8 00 00 00 00	 call	 ?IsExtAttackRate@CItem@@QAEHXZ ; CItem::IsExtAttackRate
  0559e	8b c8		 mov	 ecx, eax
  055a0	8b c6		 mov	 eax, esi
  055a2	99		 cdq
  055a3	f7 f9		 idiv	 ecx
  055a5	8b 55 08	 mov	 edx, DWORD PTR _lpObj$[ebp]
  055a8	03 82 7c 04 00
	00		 add	 eax, DWORD PTR [edx+1148]
  055ae	8b 4d 08	 mov	 ecx, DWORD PTR _lpObj$[ebp]
  055b1	89 81 7c 04 00
	00		 mov	 DWORD PTR [ecx+1148], eax

; 1577 : 								lpObj->m_AttackDamageMaxLeft += (lpObj->Level + lpObj->MLevel) / lpObj->pInventory[n].IsExtAttackRate();

  055b7	8b 45 08	 mov	 eax, DWORD PTR _lpObj$[ebp]
  055ba	0f bf b0 be 00
	00 00		 movsx	 esi, WORD PTR [eax+190]
  055c1	8b 4d 08	 mov	 ecx, DWORD PTR _lpObj$[ebp]
  055c4	0f bf 91 d0 00
	00 00		 movsx	 edx, WORD PTR [ecx+208]
  055cb	03 f2		 add	 esi, edx
  055cd	8b 4d f8	 mov	 ecx, DWORD PTR _n$[ebp]
  055d0	69 c9 d4 00 00
	00		 imul	 ecx, 212		; 000000d4H
  055d6	8b 45 08	 mov	 eax, DWORD PTR _lpObj$[ebp]
  055d9	03 88 24 0e 00
	00		 add	 ecx, DWORD PTR [eax+3620]
  055df	e8 00 00 00 00	 call	 ?IsExtAttackRate@CItem@@QAEHXZ ; CItem::IsExtAttackRate
  055e4	8b c8		 mov	 ecx, eax
  055e6	8b c6		 mov	 eax, esi
  055e8	99		 cdq
  055e9	f7 f9		 idiv	 ecx
  055eb	8b 55 08	 mov	 edx, DWORD PTR _lpObj$[ebp]
  055ee	03 82 78 04 00
	00		 add	 eax, DWORD PTR [edx+1144]
  055f4	8b 4d 08	 mov	 ecx, DWORD PTR _lpObj$[ebp]
  055f7	89 81 78 04 00
	00		 mov	 DWORD PTR [ecx+1144], eax
$LN19@GObjExtIte:

; 1578 : 							}
; 1579 : 						}
; 1580 : 					}
; 1581 : 
; 1582 : 					if ( lpObj->pInventory[n].IsExtAttackRate2() )

  055fd	8b 4d f8	 mov	 ecx, DWORD PTR _n$[ebp]
  05600	69 c9 d4 00 00
	00		 imul	 ecx, 212		; 000000d4H
  05606	8b 45 08	 mov	 eax, DWORD PTR _lpObj$[ebp]
  05609	03 88 24 0e 00
	00		 add	 ecx, DWORD PTR [eax+3620]
  0560f	e8 00 00 00 00	 call	 ?IsExtAttackRate2@CItem@@QAEHXZ ; CItem::IsExtAttackRate2
  05614	85 c0		 test	 eax, eax
  05616	0f 84 15 02 00
	00		 je	 $LN10@GObjExtIte

; 1583 : 					{
; 1584 : 						if ( ( lpObj->pInventory[n].m_Type >= ITEMGET(5, 0) && lpObj->pInventory[n].m_Type < ITEMGET(6, 0) ) ||
; 1585 : 							lpObj->pInventory[n].m_Type == ITEMGET(13,12) ||
; 1586 : 							lpObj->pInventory[n].m_Type == ITEMGET(13,25) ||
; 1587 : 							lpObj->pInventory[n].m_Type == ITEMGET(13,27) )

  0561c	8b 45 f8	 mov	 eax, DWORD PTR _n$[ebp]
  0561f	69 c0 d4 00 00
	00		 imul	 eax, 212		; 000000d4H
  05625	8b 4d 08	 mov	 ecx, DWORD PTR _lpObj$[ebp]
  05628	8b 91 24 0e 00
	00		 mov	 edx, DWORD PTR [ecx+3620]
  0562e	0f bf 44 02 06	 movsx	 eax, WORD PTR [edx+eax+6]
  05633	3d 00 0a 00 00	 cmp	 eax, 2560		; 00000a00H
  05638	7c 1e		 jl	 SHORT $LN14@GObjExtIte
  0563a	8b 45 f8	 mov	 eax, DWORD PTR _n$[ebp]
  0563d	69 c0 d4 00 00
	00		 imul	 eax, 212		; 000000d4H
  05643	8b 4d 08	 mov	 ecx, DWORD PTR _lpObj$[ebp]
  05646	8b 91 24 0e 00
	00		 mov	 edx, DWORD PTR [ecx+3620]
  0564c	0f bf 44 02 06	 movsx	 eax, WORD PTR [edx+eax+6]
  05651	3d 00 0c 00 00	 cmp	 eax, 3072		; 00000c00H
  05656	7c 5a		 jl	 SHORT $LN15@GObjExtIte
$LN14@GObjExtIte:
  05658	8b 45 f8	 mov	 eax, DWORD PTR _n$[ebp]
  0565b	69 c0 d4 00 00
	00		 imul	 eax, 212		; 000000d4H
  05661	8b 4d 08	 mov	 ecx, DWORD PTR _lpObj$[ebp]
  05664	8b 91 24 0e 00
	00		 mov	 edx, DWORD PTR [ecx+3620]
  0566a	0f bf 44 02 06	 movsx	 eax, WORD PTR [edx+eax+6]
  0566f	3d 0c 1a 00 00	 cmp	 eax, 6668		; 00001a0cH
  05674	74 3c		 je	 SHORT $LN15@GObjExtIte
  05676	8b 45 f8	 mov	 eax, DWORD PTR _n$[ebp]
  05679	69 c0 d4 00 00
	00		 imul	 eax, 212		; 000000d4H
  0567f	8b 4d 08	 mov	 ecx, DWORD PTR _lpObj$[ebp]
  05682	8b 91 24 0e 00
	00		 mov	 edx, DWORD PTR [ecx+3620]
  05688	0f bf 44 02 06	 movsx	 eax, WORD PTR [edx+eax+6]
  0568d	3d 19 1a 00 00	 cmp	 eax, 6681		; 00001a19H
  05692	74 1e		 je	 SHORT $LN15@GObjExtIte
  05694	8b 45 f8	 mov	 eax, DWORD PTR _n$[ebp]
  05697	69 c0 d4 00 00
	00		 imul	 eax, 212		; 000000d4H
  0569d	8b 4d 08	 mov	 ecx, DWORD PTR _lpObj$[ebp]
  056a0	8b 91 24 0e 00
	00		 mov	 edx, DWORD PTR [ecx+3620]
  056a6	0f bf 44 02 06	 movsx	 eax, WORD PTR [edx+eax+6]
  056ab	3d 1b 1a 00 00	 cmp	 eax, 6683		; 00001a1bH
  056b0	75 7b		 jne	 SHORT $LN16@GObjExtIte
$LN15@GObjExtIte:

; 1588 : 						{
; 1589 : 							lpObj->m_MagicDamageMax += lpObj->m_MagicDamageMax * lpObj->pInventory[n].IsExtAttackRate2() / 100;

  056b2	8b 4d f8	 mov	 ecx, DWORD PTR _n$[ebp]
  056b5	69 c9 d4 00 00
	00		 imul	 ecx, 212		; 000000d4H
  056bb	8b 45 08	 mov	 eax, DWORD PTR _lpObj$[ebp]
  056be	03 88 24 0e 00
	00		 add	 ecx, DWORD PTR [eax+3620]
  056c4	e8 00 00 00 00	 call	 ?IsExtAttackRate2@CItem@@QAEHXZ ; CItem::IsExtAttackRate2
  056c9	8b 4d 08	 mov	 ecx, DWORD PTR _lpObj$[ebp]
  056cc	0f af 81 6c 04
	00 00		 imul	 eax, DWORD PTR [ecx+1132]
  056d3	99		 cdq
  056d4	b9 64 00 00 00	 mov	 ecx, 100		; 00000064H
  056d9	f7 f9		 idiv	 ecx
  056db	8b 55 08	 mov	 edx, DWORD PTR _lpObj$[ebp]
  056de	03 82 6c 04 00
	00		 add	 eax, DWORD PTR [edx+1132]
  056e4	8b 4d 08	 mov	 ecx, DWORD PTR _lpObj$[ebp]
  056e7	89 81 6c 04 00
	00		 mov	 DWORD PTR [ecx+1132], eax

; 1590 : 							lpObj->m_MagicDamageMin += lpObj->m_MagicDamageMin * lpObj->pInventory[n].IsExtAttackRate2() / 100;

  056ed	8b 4d f8	 mov	 ecx, DWORD PTR _n$[ebp]
  056f0	69 c9 d4 00 00
	00		 imul	 ecx, 212		; 000000d4H
  056f6	8b 45 08	 mov	 eax, DWORD PTR _lpObj$[ebp]
  056f9	03 88 24 0e 00
	00		 add	 ecx, DWORD PTR [eax+3620]
  056ff	e8 00 00 00 00	 call	 ?IsExtAttackRate2@CItem@@QAEHXZ ; CItem::IsExtAttackRate2
  05704	8b 4d 08	 mov	 ecx, DWORD PTR _lpObj$[ebp]
  05707	0f af 81 68 04
	00 00		 imul	 eax, DWORD PTR [ecx+1128]
  0570e	99		 cdq
  0570f	b9 64 00 00 00	 mov	 ecx, 100		; 00000064H
  05714	f7 f9		 idiv	 ecx
  05716	8b 55 08	 mov	 edx, DWORD PTR _lpObj$[ebp]
  05719	03 82 68 04 00
	00		 add	 eax, DWORD PTR [edx+1128]
  0571f	8b 4d 08	 mov	 ecx, DWORD PTR _lpObj$[ebp]
  05722	89 81 68 04 00
	00		 mov	 DWORD PTR [ecx+1128], eax

; 1591 : 						}
; 1592 : 						else 

  05728	e9 04 01 00 00	 jmp	 $LN10@GObjExtIte
$LN16@GObjExtIte:

; 1593 : 						{
; 1594 : 							if ( n == 0 || n == 9 )

  0572d	83 7d f8 00	 cmp	 DWORD PTR _n$[ebp], 0
  05731	74 06		 je	 SHORT $LN11@GObjExtIte
  05733	83 7d f8 09	 cmp	 DWORD PTR _n$[ebp], 9
  05737	75 76		 jne	 SHORT $LN12@GObjExtIte
$LN11@GObjExtIte:

; 1595 : 							{
; 1596 : 								lpObj->m_AttackDamageMinRight += lpObj->m_AttackDamageMinRight * lpObj->pInventory[n].IsExtAttackRate2() / 100;

  05739	8b 4d f8	 mov	 ecx, DWORD PTR _n$[ebp]
  0573c	69 c9 d4 00 00
	00		 imul	 ecx, 212		; 000000d4H
  05742	8b 45 08	 mov	 eax, DWORD PTR _lpObj$[ebp]
  05745	03 88 24 0e 00
	00		 add	 ecx, DWORD PTR [eax+3620]
  0574b	e8 00 00 00 00	 call	 ?IsExtAttackRate2@CItem@@QAEHXZ ; CItem::IsExtAttackRate2
  05750	8b 4d 08	 mov	 ecx, DWORD PTR _lpObj$[ebp]
  05753	0f af 81 84 04
	00 00		 imul	 eax, DWORD PTR [ecx+1156]
  0575a	99		 cdq
  0575b	b9 64 00 00 00	 mov	 ecx, 100		; 00000064H
  05760	f7 f9		 idiv	 ecx
  05762	8b 55 08	 mov	 edx, DWORD PTR _lpObj$[ebp]
  05765	03 82 84 04 00
	00		 add	 eax, DWORD PTR [edx+1156]
  0576b	8b 4d 08	 mov	 ecx, DWORD PTR _lpObj$[ebp]
  0576e	89 81 84 04 00
	00		 mov	 DWORD PTR [ecx+1156], eax

; 1597 : 								lpObj->m_AttackDamageMaxRight += lpObj->m_AttackDamageMaxRight * lpObj->pInventory[n].IsExtAttackRate2() / 100;

  05774	8b 4d f8	 mov	 ecx, DWORD PTR _n$[ebp]
  05777	69 c9 d4 00 00
	00		 imul	 ecx, 212		; 000000d4H
  0577d	8b 45 08	 mov	 eax, DWORD PTR _lpObj$[ebp]
  05780	03 88 24 0e 00
	00		 add	 ecx, DWORD PTR [eax+3620]
  05786	e8 00 00 00 00	 call	 ?IsExtAttackRate2@CItem@@QAEHXZ ; CItem::IsExtAttackRate2
  0578b	8b 4d 08	 mov	 ecx, DWORD PTR _lpObj$[ebp]
  0578e	0f af 81 80 04
	00 00		 imul	 eax, DWORD PTR [ecx+1152]
  05795	99		 cdq
  05796	b9 64 00 00 00	 mov	 ecx, 100		; 00000064H
  0579b	f7 f9		 idiv	 ecx
  0579d	8b 55 08	 mov	 edx, DWORD PTR _lpObj$[ebp]
  057a0	03 82 80 04 00
	00		 add	 eax, DWORD PTR [edx+1152]
  057a6	8b 4d 08	 mov	 ecx, DWORD PTR _lpObj$[ebp]
  057a9	89 81 80 04 00
	00		 mov	 DWORD PTR [ecx+1152], eax
$LN12@GObjExtIte:

; 1598 : 							}
; 1599 : 							
; 1600 : 							if ( n == 1 || n == 9 )

  057af	83 7d f8 01	 cmp	 DWORD PTR _n$[ebp], 1
  057b3	74 06		 je	 SHORT $LN9@GObjExtIte
  057b5	83 7d f8 09	 cmp	 DWORD PTR _n$[ebp], 9
  057b9	75 76		 jne	 SHORT $LN10@GObjExtIte
$LN9@GObjExtIte:

; 1601 : 							{
; 1602 : 								lpObj->m_AttackDamageMinLeft += lpObj->m_AttackDamageMinLeft * lpObj->pInventory[n].IsExtAttackRate2() / 100;

  057bb	8b 4d f8	 mov	 ecx, DWORD PTR _n$[ebp]
  057be	69 c9 d4 00 00
	00		 imul	 ecx, 212		; 000000d4H
  057c4	8b 45 08	 mov	 eax, DWORD PTR _lpObj$[ebp]
  057c7	03 88 24 0e 00
	00		 add	 ecx, DWORD PTR [eax+3620]
  057cd	e8 00 00 00 00	 call	 ?IsExtAttackRate2@CItem@@QAEHXZ ; CItem::IsExtAttackRate2
  057d2	8b 4d 08	 mov	 ecx, DWORD PTR _lpObj$[ebp]
  057d5	0f af 81 7c 04
	00 00		 imul	 eax, DWORD PTR [ecx+1148]
  057dc	99		 cdq
  057dd	b9 64 00 00 00	 mov	 ecx, 100		; 00000064H
  057e2	f7 f9		 idiv	 ecx
  057e4	8b 55 08	 mov	 edx, DWORD PTR _lpObj$[ebp]
  057e7	03 82 7c 04 00
	00		 add	 eax, DWORD PTR [edx+1148]
  057ed	8b 4d 08	 mov	 ecx, DWORD PTR _lpObj$[ebp]
  057f0	89 81 7c 04 00
	00		 mov	 DWORD PTR [ecx+1148], eax

; 1603 : 								lpObj->m_AttackDamageMaxLeft += lpObj->m_AttackDamageMaxLeft * lpObj->pInventory[n].IsExtAttackRate2() / 100;

  057f6	8b 4d f8	 mov	 ecx, DWORD PTR _n$[ebp]
  057f9	69 c9 d4 00 00
	00		 imul	 ecx, 212		; 000000d4H
  057ff	8b 45 08	 mov	 eax, DWORD PTR _lpObj$[ebp]
  05802	03 88 24 0e 00
	00		 add	 ecx, DWORD PTR [eax+3620]
  05808	e8 00 00 00 00	 call	 ?IsExtAttackRate2@CItem@@QAEHXZ ; CItem::IsExtAttackRate2
  0580d	8b 4d 08	 mov	 ecx, DWORD PTR _lpObj$[ebp]
  05810	0f af 81 78 04
	00 00		 imul	 eax, DWORD PTR [ecx+1144]
  05817	99		 cdq
  05818	b9 64 00 00 00	 mov	 ecx, 100		; 00000064H
  0581d	f7 f9		 idiv	 ecx
  0581f	8b 55 08	 mov	 edx, DWORD PTR _lpObj$[ebp]
  05822	03 82 78 04 00
	00		 add	 eax, DWORD PTR [edx+1144]
  05828	8b 4d 08	 mov	 ecx, DWORD PTR _lpObj$[ebp]
  0582b	89 81 78 04 00
	00		 mov	 DWORD PTR [ecx+1144], eax
$LN10@GObjExtIte:

; 1604 : 							}
; 1605 : 						}
; 1606 : 					}
; 1607 : 
; 1608 : 					lpObj->m_ExcelentDamage += lpObj->pInventory[n].IsExtExcellentDamage();

  05831	8b 4d f8	 mov	 ecx, DWORD PTR _n$[ebp]
  05834	69 c9 d4 00 00
	00		 imul	 ecx, 212		; 000000d4H
  0583a	8b 45 08	 mov	 eax, DWORD PTR _lpObj$[ebp]
  0583d	03 88 24 0e 00
	00		 add	 ecx, DWORD PTR [eax+3620]
  05843	e8 00 00 00 00	 call	 ?IsExtExcellentDamage@CItem@@QAEHXZ ; CItem::IsExtExcellentDamage
  05848	8b 4d 08	 mov	 ecx, DWORD PTR _lpObj$[ebp]
  0584b	03 81 c0 04 00
	00		 add	 eax, DWORD PTR [ecx+1216]
  05851	8b 55 08	 mov	 edx, DWORD PTR _lpObj$[ebp]
  05854	89 82 c0 04 00
	00		 mov	 DWORD PTR [edx+1216], eax

; 1609 : 					lpObj->m_AttackSpeed += lpObj->pInventory[n].IsExtAttackSpeed();

  0585a	8b 4d f8	 mov	 ecx, DWORD PTR _n$[ebp]
  0585d	69 c9 d4 00 00
	00		 imul	 ecx, 212		; 000000d4H
  05863	8b 45 08	 mov	 eax, DWORD PTR _lpObj$[ebp]
  05866	03 88 24 0e 00
	00		 add	 ecx, DWORD PTR [eax+3620]
  0586c	e8 00 00 00 00	 call	 ?IsExtAttackSpeed@CItem@@QAEHXZ ; CItem::IsExtAttackSpeed
  05871	8b 4d 08	 mov	 ecx, DWORD PTR _lpObj$[ebp]
  05874	03 81 8c 04 00
	00		 add	 eax, DWORD PTR [ecx+1164]
  0587a	8b 55 08	 mov	 edx, DWORD PTR _lpObj$[ebp]
  0587d	89 82 8c 04 00
	00		 mov	 DWORD PTR [edx+1164], eax

; 1610 : 					lpObj->m_MagicSpeed += lpObj->pInventory[n].IsExtAttackSpeed();

  05883	8b 4d f8	 mov	 ecx, DWORD PTR _n$[ebp]
  05886	69 c9 d4 00 00
	00		 imul	 ecx, 212		; 000000d4H
  0588c	8b 45 08	 mov	 eax, DWORD PTR _lpObj$[ebp]
  0588f	03 88 24 0e 00
	00		 add	 ecx, DWORD PTR [eax+3620]
  05895	e8 00 00 00 00	 call	 ?IsExtAttackSpeed@CItem@@QAEHXZ ; CItem::IsExtAttackSpeed
  0589a	8b 4d 08	 mov	 ecx, DWORD PTR _lpObj$[ebp]
  0589d	03 81 90 04 00
	00		 add	 eax, DWORD PTR [ecx+1168]
  058a3	8b 55 08	 mov	 edx, DWORD PTR _lpObj$[ebp]
  058a6	89 82 90 04 00
	00		 mov	 DWORD PTR [edx+1168], eax

; 1611 : 					lpObj->MonsterDieGetLife += lpObj->pInventory[n].IsExtMonsterDieLife();

  058ac	8b 4d f8	 mov	 ecx, DWORD PTR _n$[ebp]
  058af	69 c9 d4 00 00
	00		 imul	 ecx, 212		; 000000d4H
  058b5	8b 45 08	 mov	 eax, DWORD PTR _lpObj$[ebp]
  058b8	03 88 24 0e 00
	00		 add	 ecx, DWORD PTR [eax+3620]
  058be	e8 00 00 00 00	 call	 ?IsExtMonsterDieLife@CItem@@QAEHXZ ; CItem::IsExtMonsterDieLife
  058c3	8b 4d 08	 mov	 ecx, DWORD PTR _lpObj$[ebp]
  058c6	0f b6 91 74 01
	00 00		 movzx	 edx, BYTE PTR [ecx+372]
  058cd	03 d0		 add	 edx, eax
  058cf	8b 45 08	 mov	 eax, DWORD PTR _lpObj$[ebp]
  058d2	88 90 74 01 00
	00		 mov	 BYTE PTR [eax+372], dl

; 1612 : 					lpObj->MonsterDieGetMana += lpObj->pInventory[n].IsExtMonsterDieMana();

  058d8	8b 4d f8	 mov	 ecx, DWORD PTR _n$[ebp]
  058db	69 c9 d4 00 00
	00		 imul	 ecx, 212		; 000000d4H
  058e1	8b 45 08	 mov	 eax, DWORD PTR _lpObj$[ebp]
  058e4	03 88 24 0e 00
	00		 add	 ecx, DWORD PTR [eax+3620]
  058ea	e8 00 00 00 00	 call	 ?IsExtMonsterDieMana@CItem@@QAEHXZ ; CItem::IsExtMonsterDieMana
  058ef	8b 4d 08	 mov	 ecx, DWORD PTR _lpObj$[ebp]
  058f2	0f b6 91 75 01
	00 00		 movzx	 edx, BYTE PTR [ecx+373]
  058f9	03 d0		 add	 edx, eax
  058fb	8b 45 08	 mov	 eax, DWORD PTR _lpObj$[ebp]
  058fe	88 90 75 01 00
	00		 mov	 BYTE PTR [eax+373], dl
$LN27@GObjExtIte:

; 1613 : 				}
; 1614 : 			}
; 1615 : 		}
; 1616 : 	}

  05904	e9 af f9 ff ff	 jmp	 $LN32@GObjExtIte
$LN31@GObjExtIte:

; 1617 : 		
; 1618 : 	if ( lpObj->pInventory[1].IsItem() == TRUE )

  05909	8b 45 08	 mov	 eax, DWORD PTR _lpObj$[ebp]
  0590c	8b 88 24 0e 00
	00		 mov	 ecx, DWORD PTR [eax+3620]
  05912	81 c1 d4 00 00
	00		 add	 ecx, 212		; 000000d4H
  05918	e8 00 00 00 00	 call	 ?IsItem@CItem@@QAEHXZ	; CItem::IsItem
  0591d	83 f8 01	 cmp	 eax, 1
  05920	75 37		 jne	 SHORT $LN7@GObjExtIte

; 1619 : 	{
; 1620 : #if(FIX_SHIELD)
; 1621 : 		if((lpObj->pInventory[1].m_Type >= ITEMGET(6, 0) && lpObj->pInventory[1].m_Type < ITEMGET(7, 0))) //season4 add-on

  05922	8b 45 08	 mov	 eax, DWORD PTR _lpObj$[ebp]
  05925	8b 88 24 0e 00
	00		 mov	 ecx, DWORD PTR [eax+3620]
  0592b	0f bf 91 da 00
	00 00		 movsx	 edx, WORD PTR [ecx+218]
  05932	81 fa 00 0c 00
	00		 cmp	 edx, 3072		; 00000c00H
  05938	7c 1f		 jl	 SHORT $LN7@GObjExtIte
  0593a	8b 45 08	 mov	 eax, DWORD PTR _lpObj$[ebp]
  0593d	8b 88 24 0e 00
	00		 mov	 ecx, DWORD PTR [eax+3620]
  05943	0f bf 91 da 00
	00 00		 movsx	 edx, WORD PTR [ecx+218]
  0594a	81 fa 00 0e 00
	00		 cmp	 edx, 3584		; 00000e00H
  05950	7d 07		 jge	 SHORT $LN7@GObjExtIte

; 1622 : 		{
; 1623 : 			maxn2_loop = 10;

  05952	c7 45 b8 0a 00
	00 00		 mov	 DWORD PTR _maxn2_loop$[ebp], 10 ; 0000000aH
$LN7@GObjExtIte:

; 1624 : 		}
; 1625 : #else
; 1626 : 		if ( (lpObj->pInventory[1].m_Type >= ITEMGET(6, 0) && lpObj->pInventory[1].m_Type <= ITEMGET(6, 16)) || 
; 1627 : 			lpObj->pInventory[1].m_Type == ITEMGET(6, 21)) //season4 add-on
; 1628 : 		{
; 1629 : 			maxn2_loop = 10;
; 1630 : 		}
; 1631 : #endif
; 1632 : 	}
; 1633 : 
; 1634 : 	for ( i=0;i<maxn2_loop;i++)

  05959	c7 45 f4 00 00
	00 00		 mov	 DWORD PTR _i$[ebp], 0
  05960	eb 09		 jmp	 SHORT $LN6@GObjExtIte
$LN5@GObjExtIte:
  05962	8b 45 f4	 mov	 eax, DWORD PTR _i$[ebp]
  05965	83 c0 01	 add	 eax, 1
  05968	89 45 f4	 mov	 DWORD PTR _i$[ebp], eax
$LN6@GObjExtIte:
  0596b	8b 45 f4	 mov	 eax, DWORD PTR _i$[ebp]
  0596e	3b 45 b8	 cmp	 eax, DWORD PTR _maxn2_loop$[ebp]
  05971	0f 8d 0b 02 00
	00		 jge	 $LN4@GObjExtIte

; 1635 : 	{
; 1636 : 		n = temp_n2[i];

  05977	8b 45 f4	 mov	 eax, DWORD PTR _i$[ebp]
  0597a	8b 4c 85 bc	 mov	 ecx, DWORD PTR _temp_n2$[ebp+eax*4]
  0597e	89 4d f8	 mov	 DWORD PTR _n$[ebp], ecx

; 1637 : 
; 1638 : 		if ( max_count < 8 )

  05981	83 7d f0 08	 cmp	 DWORD PTR _max_count$[ebp], 8
  05985	0f 8d f2 01 00
	00		 jge	 $LN1@GObjExtIte

; 1639 : 		{
; 1640 : 			if ( lpObj->pInventory[n].IsItem() == TRUE &&
; 1641 : 				 lpObj->pInventory[n].IsExtItem() &&
; 1642 : 				 lpObj->pInventory[n].m_Durability != 0.0f &&
; 1643 : 				 lpObj->pInventory[n].m_IsValidItem == true )

  0598b	8b 4d f8	 mov	 ecx, DWORD PTR _n$[ebp]
  0598e	69 c9 d4 00 00
	00		 imul	 ecx, 212		; 000000d4H
  05994	8b 45 08	 mov	 eax, DWORD PTR _lpObj$[ebp]
  05997	03 88 24 0e 00
	00		 add	 ecx, DWORD PTR [eax+3620]
  0599d	e8 00 00 00 00	 call	 ?IsItem@CItem@@QAEHXZ	; CItem::IsItem
  059a2	83 f8 01	 cmp	 eax, 1
  059a5	0f 85 d2 01 00
	00		 jne	 $LN1@GObjExtIte
  059ab	8b 4d f8	 mov	 ecx, DWORD PTR _n$[ebp]
  059ae	69 c9 d4 00 00
	00		 imul	 ecx, 212		; 000000d4H
  059b4	8b 45 08	 mov	 eax, DWORD PTR _lpObj$[ebp]
  059b7	03 88 24 0e 00
	00		 add	 ecx, DWORD PTR [eax+3620]
  059bd	e8 00 00 00 00	 call	 ?IsExtItem@CItem@@QAEHXZ ; CItem::IsExtItem
  059c2	85 c0		 test	 eax, eax
  059c4	0f 84 b3 01 00
	00		 je	 $LN1@GObjExtIte
  059ca	8b 45 f8	 mov	 eax, DWORD PTR _n$[ebp]
  059cd	69 c0 d4 00 00
	00		 imul	 eax, 212		; 000000d4H
  059d3	8b 4d 08	 mov	 ecx, DWORD PTR _lpObj$[ebp]
  059d6	8b 91 24 0e 00
	00		 mov	 edx, DWORD PTR [ecx+3620]
  059dc	d9 44 02 24	 fld	 DWORD PTR [edx+eax+36]
  059e0	d9 ee		 fldz
  059e2	da e9		 fucompp
  059e4	df e0		 fnstsw	 ax
  059e6	f6 c4 44	 test	 ah, 68			; 00000044H
  059e9	0f 8b 8e 01 00
	00		 jnp	 $LN1@GObjExtIte
  059ef	8b 45 f8	 mov	 eax, DWORD PTR _n$[ebp]
  059f2	69 c0 d4 00 00
	00		 imul	 eax, 212		; 000000d4H
  059f8	8b 4d 08	 mov	 ecx, DWORD PTR _lpObj$[ebp]
  059fb	8b 91 24 0e 00
	00		 mov	 edx, DWORD PTR [ecx+3620]
  05a01	0f b6 84 02 b0
	00 00 00	 movzx	 eax, BYTE PTR [edx+eax+176]
  05a09	83 f8 01	 cmp	 eax, 1
  05a0c	0f 85 6b 01 00
	00		 jne	 $LN1@GObjExtIte

; 1644 : 			{
; 1645 : 				if ( n != 7 )

  05a12	83 7d f8 07	 cmp	 DWORD PTR _n$[ebp], 7
  05a16	0f 84 61 01 00
	00		 je	 $LN1@GObjExtIte

; 1646 : 				{
; 1647 : 					lpObj->AddLife += (short)(lpObj->MaxLife * lpObj->pInventory[n].IsExtLifeAdd()  / 100.0f);

  05a1c	8b 4d f8	 mov	 ecx, DWORD PTR _n$[ebp]
  05a1f	69 c9 d4 00 00
	00		 imul	 ecx, 212		; 000000d4H
  05a25	8b 45 08	 mov	 eax, DWORD PTR _lpObj$[ebp]
  05a28	03 88 24 0e 00
	00		 add	 ecx, DWORD PTR [eax+3620]
  05a2e	e8 00 00 00 00	 call	 ?IsExtLifeAdd@CItem@@QAEHXZ ; CItem::IsExtLifeAdd
  05a33	89 85 74 ff ff
	ff		 mov	 DWORD PTR tv854[ebp], eax
  05a39	db 85 74 ff ff
	ff		 fild	 DWORD PTR tv854[ebp]
  05a3f	8b 4d 08	 mov	 ecx, DWORD PTR _lpObj$[ebp]
  05a42	d8 89 00 01 00
	00		 fmul	 DWORD PTR [ecx+256]
  05a48	dc 35 00 00 00
	00		 fdiv	 QWORD PTR __real@4059000000000000
  05a4e	e8 00 00 00 00	 call	 __ftol2_sse
  05a53	0f bf d0	 movsx	 edx, ax
  05a56	8b 45 08	 mov	 eax, DWORD PTR _lpObj$[ebp]
  05a59	03 90 4c 01 00
	00		 add	 edx, DWORD PTR [eax+332]
  05a5f	8b 4d 08	 mov	 ecx, DWORD PTR _lpObj$[ebp]
  05a62	89 91 4c 01 00
	00		 mov	 DWORD PTR [ecx+332], edx

; 1648 : 					lpObj->AddMana += (short)(lpObj->MaxMana * lpObj->pInventory[n].IsExtManaAdd() / 100.0f);

  05a68	8b 4d f8	 mov	 ecx, DWORD PTR _n$[ebp]
  05a6b	69 c9 d4 00 00
	00		 imul	 ecx, 212		; 000000d4H
  05a71	8b 45 08	 mov	 eax, DWORD PTR _lpObj$[ebp]
  05a74	03 88 24 0e 00
	00		 add	 ecx, DWORD PTR [eax+3620]
  05a7a	e8 00 00 00 00	 call	 ?IsExtManaAdd@CItem@@QAEHXZ ; CItem::IsExtManaAdd
  05a7f	89 85 74 ff ff
	ff		 mov	 DWORD PTR tv865[ebp], eax
  05a85	db 85 74 ff ff
	ff		 fild	 DWORD PTR tv865[ebp]
  05a8b	8b 4d 08	 mov	 ecx, DWORD PTR _lpObj$[ebp]
  05a8e	d8 89 14 01 00
	00		 fmul	 DWORD PTR [ecx+276]
  05a94	dc 35 00 00 00
	00		 fdiv	 QWORD PTR __real@4059000000000000
  05a9a	e8 00 00 00 00	 call	 __ftol2_sse
  05a9f	0f bf d0	 movsx	 edx, ax
  05aa2	8b 45 08	 mov	 eax, DWORD PTR _lpObj$[ebp]
  05aa5	03 90 50 01 00
	00		 add	 edx, DWORD PTR [eax+336]
  05aab	8b 4d 08	 mov	 ecx, DWORD PTR _lpObj$[ebp]
  05aae	89 91 50 01 00
	00		 mov	 DWORD PTR [ecx+336], edx

; 1649 : 					lpObj->m_SuccessfulBlocking += lpObj->m_SuccessfulBlocking * lpObj->pInventory[n].IsExtDefenseSuccessfull() / 100;

  05ab4	8b 4d f8	 mov	 ecx, DWORD PTR _n$[ebp]
  05ab7	69 c9 d4 00 00
	00		 imul	 ecx, 212		; 000000d4H
  05abd	8b 45 08	 mov	 eax, DWORD PTR _lpObj$[ebp]
  05ac0	03 88 24 0e 00
	00		 add	 ecx, DWORD PTR [eax+3620]
  05ac6	e8 00 00 00 00	 call	 ?IsExtDefenseSuccessfull@CItem@@QAEHXZ ; CItem::IsExtDefenseSuccessfull
  05acb	8b 4d 08	 mov	 ecx, DWORD PTR _lpObj$[ebp]
  05ace	0f af 81 9c 04
	00 00		 imul	 eax, DWORD PTR [ecx+1180]
  05ad5	99		 cdq
  05ad6	b9 64 00 00 00	 mov	 ecx, 100		; 00000064H
  05adb	f7 f9		 idiv	 ecx
  05add	8b 55 08	 mov	 edx, DWORD PTR _lpObj$[ebp]
  05ae0	03 82 9c 04 00
	00		 add	 eax, DWORD PTR [edx+1180]
  05ae6	8b 4d 08	 mov	 ecx, DWORD PTR _lpObj$[ebp]
  05ae9	89 81 9c 04 00
	00		 mov	 DWORD PTR [ecx+1180], eax

; 1650 : 					lpObj->MonsterDieGetMoney += lpObj->pInventory[n].IsExtMonsterMoney();

  05aef	8b 4d f8	 mov	 ecx, DWORD PTR _n$[ebp]
  05af2	69 c9 d4 00 00
	00		 imul	 ecx, 212		; 000000d4H
  05af8	8b 45 08	 mov	 eax, DWORD PTR _lpObj$[ebp]
  05afb	03 88 24 0e 00
	00		 add	 ecx, DWORD PTR [eax+3620]
  05b01	e8 00 00 00 00	 call	 ?IsExtMonsterMoney@CItem@@QAEHXZ ; CItem::IsExtMonsterMoney
  05b06	8b 4d 08	 mov	 ecx, DWORD PTR _lpObj$[ebp]
  05b09	0f bf 91 72 01
	00 00		 movsx	 edx, WORD PTR [ecx+370]
  05b10	03 d0		 add	 edx, eax
  05b12	8b 45 08	 mov	 eax, DWORD PTR _lpObj$[ebp]
  05b15	66 89 90 72 01
	00 00		 mov	 WORD PTR [eax+370], dx

; 1651 : 					lpObj->DamageMinus += lpObj->pInventory[n].IsExtDamageMinus();

  05b1c	8b 4d f8	 mov	 ecx, DWORD PTR _n$[ebp]
  05b1f	69 c9 d4 00 00
	00		 imul	 ecx, 212		; 000000d4H
  05b25	8b 45 08	 mov	 eax, DWORD PTR _lpObj$[ebp]
  05b28	03 88 24 0e 00
	00		 add	 ecx, DWORD PTR [eax+3620]
  05b2e	e8 00 00 00 00	 call	 ?IsExtDamageMinus@CItem@@QAEHXZ ; CItem::IsExtDamageMinus
  05b33	8b 4d 08	 mov	 ecx, DWORD PTR _lpObj$[ebp]
  05b36	0f b6 91 70 01
	00 00		 movzx	 edx, BYTE PTR [ecx+368]
  05b3d	03 d0		 add	 edx, eax
  05b3f	8b 45 08	 mov	 eax, DWORD PTR _lpObj$[ebp]
  05b42	88 90 70 01 00
	00		 mov	 BYTE PTR [eax+368], dl

; 1652 : 					lpObj->DamageReflect += lpObj->pInventory[n].IsExtDamageReflect();

  05b48	8b 4d f8	 mov	 ecx, DWORD PTR _n$[ebp]
  05b4b	69 c9 d4 00 00
	00		 imul	 ecx, 212		; 000000d4H
  05b51	8b 45 08	 mov	 eax, DWORD PTR _lpObj$[ebp]
  05b54	03 88 24 0e 00
	00		 add	 ecx, DWORD PTR [eax+3620]
  05b5a	e8 00 00 00 00	 call	 ?IsExtDamageReflect@CItem@@QAEHXZ ; CItem::IsExtDamageReflect
  05b5f	8b 4d 08	 mov	 ecx, DWORD PTR _lpObj$[ebp]
  05b62	0f b6 91 71 01
	00 00		 movzx	 edx, BYTE PTR [ecx+369]
  05b69	03 d0		 add	 edx, eax
  05b6b	8b 45 08	 mov	 eax, DWORD PTR _lpObj$[ebp]
  05b6e	88 90 71 01 00
	00		 mov	 BYTE PTR [eax+369], dl

; 1653 : 					max_count++;

  05b74	8b 45 f0	 mov	 eax, DWORD PTR _max_count$[ebp]
  05b77	83 c0 01	 add	 eax, 1
  05b7a	89 45 f0	 mov	 DWORD PTR _max_count$[ebp], eax
$LN1@GObjExtIte:

; 1654 : 				}
; 1655 : 			}
; 1656 : 		}
; 1657 : 	}

  05b7d	e9 e0 fd ff ff	 jmp	 $LN5@GObjExtIte
$LN4@GObjExtIte:

; 1658 : }

  05b82	5f		 pop	 edi
  05b83	5e		 pop	 esi
  05b84	5b		 pop	 ebx
  05b85	8b 4d fc	 mov	 ecx, DWORD PTR __$ArrayPad$[ebp]
  05b88	33 cd		 xor	 ecx, ebp
  05b8a	e8 00 00 00 00	 call	 @__security_check_cookie@4
  05b8f	8b e5		 mov	 esp, ebp
  05b91	5d		 pop	 ebp
  05b92	c3		 ret	 0
?GObjExtItemApply@@YAXPAUOBJECTSTRUCT@@@Z ENDP		; GObjExtItemApply
_TEXT	ENDS
EXTRN	?SetItemPlusSpecialStat@CItem@@QAEXPAFH@Z:PROC	; CItem::SetItemPlusSpecialStat
EXTRN	?GetAddStatType@CItem@@QAEHXZ:PROC		; CItem::GetAddStatType
EXTRN	?IsSetItem@CItem@@QAEHXZ:PROC			; CItem::IsSetItem
; Function compile flags: /Odtp /ZI
_TEXT	SEGMENT
tv89 = -76						; size = 4
_AddStatType$233035 = -8				; size = 4
_i$233030 = -4						; size = 4
_lpObj$ = 8						; size = 4
?gObjCalcSetItemStat@@YAXPAUOBJECTSTRUCT@@@Z PROC	; gObjCalcSetItemStat

; 1661 : {

  05ba0	55		 push	 ebp
  05ba1	8b ec		 mov	 ebp, esp
  05ba3	83 ec 4c	 sub	 esp, 76			; 0000004cH
  05ba6	53		 push	 ebx
  05ba7	56		 push	 esi
  05ba8	57		 push	 edi

; 1662 : 	for ( int i=0;i<INVETORY_WEAR_SIZE;i++)

  05ba9	c7 45 fc 00 00
	00 00		 mov	 DWORD PTR _i$233030[ebp], 0
  05bb0	eb 09		 jmp	 SHORT $LN10@gObjCalcSe
$LN9@gObjCalcSe:
  05bb2	8b 45 fc	 mov	 eax, DWORD PTR _i$233030[ebp]
  05bb5	83 c0 01	 add	 eax, 1
  05bb8	89 45 fc	 mov	 DWORD PTR _i$233030[ebp], eax
$LN10@gObjCalcSe:
  05bbb	83 7d fc 0c	 cmp	 DWORD PTR _i$233030[ebp], 12 ; 0000000cH
  05bbf	0f 8d 42 01 00
	00		 jge	 $LN8@gObjCalcSe

; 1663 : 	{
; 1664 : 		if ( lpObj->pInventory[i].IsSetItem() && lpObj->pInventory[i].m_IsValidItem && lpObj->pInventory[i].m_Durability != 0.0f )

  05bc5	8b 4d fc	 mov	 ecx, DWORD PTR _i$233030[ebp]
  05bc8	69 c9 d4 00 00
	00		 imul	 ecx, 212		; 000000d4H
  05bce	8b 45 08	 mov	 eax, DWORD PTR _lpObj$[ebp]
  05bd1	03 88 24 0e 00
	00		 add	 ecx, DWORD PTR [eax+3620]
  05bd7	e8 00 00 00 00	 call	 ?IsSetItem@CItem@@QAEHXZ ; CItem::IsSetItem
  05bdc	85 c0		 test	 eax, eax
  05bde	0f 84 1e 01 00
	00		 je	 $LN5@gObjCalcSe
  05be4	8b 45 fc	 mov	 eax, DWORD PTR _i$233030[ebp]
  05be7	69 c0 d4 00 00
	00		 imul	 eax, 212		; 000000d4H
  05bed	8b 4d 08	 mov	 ecx, DWORD PTR _lpObj$[ebp]
  05bf0	8b 91 24 0e 00
	00		 mov	 edx, DWORD PTR [ecx+3620]
  05bf6	0f b6 84 02 b0
	00 00 00	 movzx	 eax, BYTE PTR [edx+eax+176]
  05bfe	85 c0		 test	 eax, eax
  05c00	0f 84 fc 00 00
	00		 je	 $LN5@gObjCalcSe
  05c06	8b 45 fc	 mov	 eax, DWORD PTR _i$233030[ebp]
  05c09	69 c0 d4 00 00
	00		 imul	 eax, 212		; 000000d4H
  05c0f	8b 4d 08	 mov	 ecx, DWORD PTR _lpObj$[ebp]
  05c12	8b 91 24 0e 00
	00		 mov	 edx, DWORD PTR [ecx+3620]
  05c18	d9 44 02 24	 fld	 DWORD PTR [edx+eax+36]
  05c1c	d9 ee		 fldz
  05c1e	da e9		 fucompp
  05c20	df e0		 fnstsw	 ax
  05c22	f6 c4 44	 test	 ah, 68			; 00000044H
  05c25	0f 8b d7 00 00
	00		 jnp	 $LN5@gObjCalcSe

; 1665 : 		{
; 1666 : 			int AddStatType = lpObj->pInventory[i].GetAddStatType();

  05c2b	8b 4d fc	 mov	 ecx, DWORD PTR _i$233030[ebp]
  05c2e	69 c9 d4 00 00
	00		 imul	 ecx, 212		; 000000d4H
  05c34	8b 45 08	 mov	 eax, DWORD PTR _lpObj$[ebp]
  05c37	03 88 24 0e 00
	00		 add	 ecx, DWORD PTR [eax+3620]
  05c3d	e8 00 00 00 00	 call	 ?GetAddStatType@CItem@@QAEHXZ ; CItem::GetAddStatType
  05c42	89 45 f8	 mov	 DWORD PTR _AddStatType$233035[ebp], eax

; 1667 : 
; 1668 : 			switch ( AddStatType )

  05c45	8b 45 f8	 mov	 eax, DWORD PTR _AddStatType$233035[ebp]
  05c48	89 45 b4	 mov	 DWORD PTR tv89[ebp], eax
  05c4b	8b 4d b4	 mov	 ecx, DWORD PTR tv89[ebp]
  05c4e	83 e9 01	 sub	 ecx, 1
  05c51	89 4d b4	 mov	 DWORD PTR tv89[ebp], ecx
  05c54	83 7d b4 03	 cmp	 DWORD PTR tv89[ebp], 3
  05c58	0f 87 a4 00 00
	00		 ja	 $LN5@gObjCalcSe
  05c5e	8b 55 b4	 mov	 edx, DWORD PTR tv89[ebp]
  05c61	ff 24 95 00 00
	00 00		 jmp	 DWORD PTR $LN13@gObjCalcSe[edx*4]
$LN4@gObjCalcSe:

; 1669 : 			{
; 1670 : 				case 1:
; 1671 : 					lpObj->pInventory[i].SetItemPlusSpecialStat(&lpObj->AddStrength, 196);

  05c68	68 c4 00 00 00	 push	 196			; 000000c4H
  05c6d	8b 45 08	 mov	 eax, DWORD PTR _lpObj$[ebp]
  05c70	05 20 01 00 00	 add	 eax, 288		; 00000120H
  05c75	50		 push	 eax
  05c76	8b 4d fc	 mov	 ecx, DWORD PTR _i$233030[ebp]
  05c79	69 c9 d4 00 00
	00		 imul	 ecx, 212		; 000000d4H
  05c7f	8b 55 08	 mov	 edx, DWORD PTR _lpObj$[ebp]
  05c82	03 8a 24 0e 00
	00		 add	 ecx, DWORD PTR [edx+3620]
  05c88	e8 00 00 00 00	 call	 ?SetItemPlusSpecialStat@CItem@@QAEXPAFH@Z ; CItem::SetItemPlusSpecialStat

; 1672 : 					break;

  05c8d	eb 73		 jmp	 SHORT $LN5@gObjCalcSe
$LN3@gObjCalcSe:

; 1673 : 				case 2:
; 1674 : 					lpObj->pInventory[i].SetItemPlusSpecialStat(&lpObj->AddDexterity, 197);

  05c8f	68 c5 00 00 00	 push	 197			; 000000c5H
  05c94	8b 45 08	 mov	 eax, DWORD PTR _lpObj$[ebp]
  05c97	05 22 01 00 00	 add	 eax, 290		; 00000122H
  05c9c	50		 push	 eax
  05c9d	8b 4d fc	 mov	 ecx, DWORD PTR _i$233030[ebp]
  05ca0	69 c9 d4 00 00
	00		 imul	 ecx, 212		; 000000d4H
  05ca6	8b 55 08	 mov	 edx, DWORD PTR _lpObj$[ebp]
  05ca9	03 8a 24 0e 00
	00		 add	 ecx, DWORD PTR [edx+3620]
  05caf	e8 00 00 00 00	 call	 ?SetItemPlusSpecialStat@CItem@@QAEXPAFH@Z ; CItem::SetItemPlusSpecialStat

; 1675 : 					break;

  05cb4	eb 4c		 jmp	 SHORT $LN5@gObjCalcSe
$LN2@gObjCalcSe:

; 1676 : 				case 3:
; 1677 : 					lpObj->pInventory[i].SetItemPlusSpecialStat(&lpObj->AddEnergy, 198);

  05cb6	68 c6 00 00 00	 push	 198			; 000000c6H
  05cbb	8b 45 08	 mov	 eax, DWORD PTR _lpObj$[ebp]
  05cbe	05 26 01 00 00	 add	 eax, 294		; 00000126H
  05cc3	50		 push	 eax
  05cc4	8b 4d fc	 mov	 ecx, DWORD PTR _i$233030[ebp]
  05cc7	69 c9 d4 00 00
	00		 imul	 ecx, 212		; 000000d4H
  05ccd	8b 55 08	 mov	 edx, DWORD PTR _lpObj$[ebp]
  05cd0	03 8a 24 0e 00
	00		 add	 ecx, DWORD PTR [edx+3620]
  05cd6	e8 00 00 00 00	 call	 ?SetItemPlusSpecialStat@CItem@@QAEXPAFH@Z ; CItem::SetItemPlusSpecialStat

; 1678 : 					break;

  05cdb	eb 25		 jmp	 SHORT $LN5@gObjCalcSe
$LN1@gObjCalcSe:

; 1679 : 				case 4:
; 1680 : 					lpObj->pInventory[i].SetItemPlusSpecialStat(&lpObj->AddVitality, 199);

  05cdd	68 c7 00 00 00	 push	 199			; 000000c7H
  05ce2	8b 45 08	 mov	 eax, DWORD PTR _lpObj$[ebp]
  05ce5	05 24 01 00 00	 add	 eax, 292		; 00000124H
  05cea	50		 push	 eax
  05ceb	8b 4d fc	 mov	 ecx, DWORD PTR _i$233030[ebp]
  05cee	69 c9 d4 00 00
	00		 imul	 ecx, 212		; 000000d4H
  05cf4	8b 55 08	 mov	 edx, DWORD PTR _lpObj$[ebp]
  05cf7	03 8a 24 0e 00
	00		 add	 ecx, DWORD PTR [edx+3620]
  05cfd	e8 00 00 00 00	 call	 ?SetItemPlusSpecialStat@CItem@@QAEXPAFH@Z ; CItem::SetItemPlusSpecialStat
$LN5@gObjCalcSe:

; 1681 : 					break;
; 1682 : 			}
; 1683 : 		}
; 1684 : 	}

  05d02	e9 ab fe ff ff	 jmp	 $LN9@gObjCalcSe
$LN8@gObjCalcSe:

; 1685 : }

  05d07	5f		 pop	 edi
  05d08	5e		 pop	 esi
  05d09	5b		 pop	 ebx
  05d0a	8b e5		 mov	 esp, ebp
  05d0c	5d		 pop	 ebp
  05d0d	c3		 ret	 0
  05d0e	8b ff		 npad	 2
$LN13@gObjCalcSe:
  05d10	00 00 00 00	 DD	 $LN4@gObjCalcSe
  05d14	00 00 00 00	 DD	 $LN3@gObjCalcSe
  05d18	00 00 00 00	 DD	 $LN2@gObjCalcSe
  05d1c	00 00 00 00	 DD	 $LN1@gObjCalcSe
?gObjCalcSetItemStat@@YAXPAUOBJECTSTRUCT@@@Z ENDP	; gObjCalcSetItemStat
_TEXT	ENDS
PUBLIC	??_C@_0BL@LIIMDDCM@?$LP?I?$LM?G?5?C?$KD?$LO?R?$LE?Y?5?$CFs?0?5Count?5?$DN?5?$CFd?$AA@ ; `string'
PUBLIC	??_C@_0CG@HNELGANH@?$LJ?$NN?A?v?$LP?$KB?5?$LA?$LA?$MA?$LK?5?$LM?$LM?F?$KO?$LA?$KB?5?$MA?$PL?$LP?k?$LF?G?$LO?z?$LE?Y?5?$LJ?$KL@ ; `string'
PUBLIC	??_C@_0CG@MJJCFDMJ@?$LO?g?$LM?U?$LP?$KB?5?$LA?$LA?$MA?$LK?5?$LM?$LM?F?$KO?$LA?$KB?5?$MA?$PL?$LP?k?$LF?G?$LO?z?$LE?Y?5?$LJ?$KL@ ; `string'
PUBLIC	?gObjGetSetItemOption@@YAXPAUOBJECTSTRUCT@@PAE1PAH@Z ; gObjGetSetItemOption
EXTRN	?GetSetOptionName@CSetItemOption@@QAEPADH@Z:PROC ; CSetItemOption::GetSetOptionName
EXTRN	?LogAddTD@@3P6AXPADZZA:DWORD			; LogAddTD
EXTRN	?GetWeaponType@CItem@@QAEHXZ:PROC		; CItem::GetWeaponType
EXTRN	?GetOptionTableIndex@CSetItemOption@@QAEHHH@Z:PROC ; CSetItemOption::GetOptionTableIndex
EXTRN	?gSetItemOption@@3VCSetItemOption@@A:BYTE	; gSetItemOption
EXTRN	?IsLuckyItemEquipment@LuckyItemManager@@QAEHH@Z:PROC ; LuckyItemManager::IsLuckyItemEquipment
EXTRN	?g_LuckyItemManager@@3ULuckyItemManager@@A:BYTE	; g_LuckyItemManager
;	COMDAT ??_C@_0BL@LIIMDDCM@?$LP?I?$LM?G?5?C?$KD?$LO?R?$LE?Y?5?$CFs?0?5Count?5?$DN?5?$CFd?$AA@
CONST	SEGMENT
??_C@_0BL@LIIMDDCM@?$LP?I?$LM?G?5?C?$KD?$LO?R?$LE?Y?5?$CFs?0?5Count?5?$DN?5?$CFd?$AA@ DB 0bfH
	DB	0c9H, 0bcH, 0c7H, ' ', 0c3H, 0a3H, 0beH, 0d2H, 0b4H, 0d9H, ' %'
	DB	's, Count = %d', 00H				; `string'
CONST	ENDS
;	COMDAT ??_C@_0CG@HNELGANH@?$LJ?$NN?A?v?$LP?$KB?5?$LA?$LA?$MA?$LK?5?$LM?$LM?F?$KO?$LA?$KB?5?$MA?$PL?$LP?k?$LF?G?$LO?z?$LE?Y?5?$LJ?$KL@
CONST	SEGMENT
??_C@_0CG@HNELGANH@?$LJ?$NN?A?v?$LP?$KB?5?$LA?$LA?$MA?$LK?5?$LM?$LM?F?$KO?$LA?$KB?5?$MA?$PL?$LP?k?$LF?G?$LO?z?$LE?Y?5?$LJ?$KL@ DB 0b9H
	DB	0ddH, 0c1H, 0f6H, 0bfH, 0a1H, ' ', 0b0H, 0b0H, 0c0H, 0baH, ' ', 0bcH
	DB	0bcH, 0c6H, 0aeH, 0b0H, 0a1H, ' ', 0c0H, 0fbH, 0bfH, 0ebH, 0b5H
	DB	0c7H, 0beH, 0faH, 0b4H, 0d9H, ' ', 0b9H, 0abH, 0bdH, 0c3H, '..'
	DB	'.', 00H					; `string'
CONST	ENDS
;	COMDAT ??_C@_0CG@MJJCFDMJ@?$LO?g?$LM?U?$LP?$KB?5?$LA?$LA?$MA?$LK?5?$LM?$LM?F?$KO?$LA?$KB?5?$MA?$PL?$LP?k?$LF?G?$LO?z?$LE?Y?5?$LJ?$KL@
CONST	SEGMENT
??_C@_0CG@MJJCFDMJ@?$LO?g?$LM?U?$LP?$KB?5?$LA?$LA?$MA?$LK?5?$LM?$LM?F?$KO?$LA?$KB?5?$MA?$PL?$LP?k?$LF?G?$LO?z?$LE?Y?5?$LJ?$KL@ DB 0beH
	DB	0e7H, 0bcH, 0d5H, 0bfH, 0a1H, ' ', 0b0H, 0b0H, 0c0H, 0baH, ' ', 0bcH
	DB	0bcH, 0c6H, 0aeH, 0b0H, 0a1H, ' ', 0c0H, 0fbH, 0bfH, 0ebH, 0b5H
	DB	0c7H, 0beH, 0faH, 0b4H, 0d9H, ' ', 0b9H, 0abH, 0bdH, 0c3H, '..'
	DB	'.', 00H					; `string'
; Function compile flags: /Odtp /ZI
CONST	ENDS
_TEXT	SEGMENT
_n$233075 = -28						; size = 4
_bFound$233074 = -24					; size = 4
_iSetItemOption$233060 = -20				; size = 4
_iSetItemType$233057 = -16				; size = 4
_i$233052 = -12						; size = 4
_RightRingSetOptionIndex$ = -8				; size = 4
_RightSetOptionIndex$ = -4				; size = 4
_lpObj$ = 8						; size = 4
_pSetOptionTable$ = 12					; size = 4
_pSetOptionCountTable$ = 16				; size = 4
_pSetOptionCount$ = 20					; size = 4
?gObjGetSetItemOption@@YAXPAUOBJECTSTRUCT@@PAE1PAH@Z PROC ; gObjGetSetItemOption

; 1688 : {

  05d20	55		 push	 ebp
  05d21	8b ec		 mov	 ebp, esp
  05d23	83 ec 5c	 sub	 esp, 92			; 0000005cH
  05d26	53		 push	 ebx
  05d27	56		 push	 esi
  05d28	57		 push	 edi

; 1689 : 	*pSetOptionCount = 0;

  05d29	8b 45 14	 mov	 eax, DWORD PTR _pSetOptionCount$[ebp]
  05d2c	c7 00 00 00 00
	00		 mov	 DWORD PTR [eax], 0

; 1690 : 	int RightSetOptionIndex = -1;

  05d32	c7 45 fc ff ff
	ff ff		 mov	 DWORD PTR _RightSetOptionIndex$[ebp], -1

; 1691 : 	int RightRingSetOptionIndex = -1;

  05d39	c7 45 f8 ff ff
	ff ff		 mov	 DWORD PTR _RightRingSetOptionIndex$[ebp], -1

; 1692 : 
; 1693 : 	for ( int i=0;i<INVETORY_WEAR_SIZE;i++)

  05d40	c7 45 f4 00 00
	00 00		 mov	 DWORD PTR _i$233052[ebp], 0
  05d47	eb 09		 jmp	 SHORT $LN22@gObjGetSet
$LN21@gObjGetSet:
  05d49	8b 45 f4	 mov	 eax, DWORD PTR _i$233052[ebp]
  05d4c	83 c0 01	 add	 eax, 1
  05d4f	89 45 f4	 mov	 DWORD PTR _i$233052[ebp], eax
$LN22@gObjGetSet:
  05d52	83 7d f4 0c	 cmp	 DWORD PTR _i$233052[ebp], 12 ; 0000000cH
  05d56	0f 8d 74 02 00
	00		 jge	 $LN20@gObjGetSet

; 1694 : 	{
; 1695 : #ifdef LUCKYITEM
; 1696 : 		if( g_LuckyItemManager.IsLuckyItemEquipment(lpObj->pInventory[i].m_Type) 
; 1697 : 			&& lpObj->pInventory[i].m_Durability == 0.0f )

  05d5c	8b 45 f4	 mov	 eax, DWORD PTR _i$233052[ebp]
  05d5f	69 c0 d4 00 00
	00		 imul	 eax, 212		; 000000d4H
  05d65	8b 4d 08	 mov	 ecx, DWORD PTR _lpObj$[ebp]
  05d68	8b 91 24 0e 00
	00		 mov	 edx, DWORD PTR [ecx+3620]
  05d6e	0f bf 44 02 06	 movsx	 eax, WORD PTR [edx+eax+6]
  05d73	50		 push	 eax
  05d74	b9 00 00 00 00	 mov	 ecx, OFFSET ?g_LuckyItemManager@@3ULuckyItemManager@@A ; g_LuckyItemManager
  05d79	e8 00 00 00 00	 call	 ?IsLuckyItemEquipment@LuckyItemManager@@QAEHH@Z ; LuckyItemManager::IsLuckyItemEquipment
  05d7e	85 c0		 test	 eax, eax
  05d80	74 23		 je	 SHORT $LN19@gObjGetSet
  05d82	8b 45 f4	 mov	 eax, DWORD PTR _i$233052[ebp]
  05d85	69 c0 d4 00 00
	00		 imul	 eax, 212		; 000000d4H
  05d8b	8b 4d 08	 mov	 ecx, DWORD PTR _lpObj$[ebp]
  05d8e	8b 91 24 0e 00
	00		 mov	 edx, DWORD PTR [ecx+3620]
  05d94	d9 44 02 24	 fld	 DWORD PTR [edx+eax+36]
  05d98	d9 ee		 fldz
  05d9a	da e9		 fucompp
  05d9c	df e0		 fnstsw	 ax
  05d9e	f6 c4 44	 test	 ah, 68			; 00000044H
  05da1	7a 02		 jp	 SHORT $LN19@gObjGetSet

; 1698 : 		{
; 1699 : 			continue;

  05da3	eb a4		 jmp	 SHORT $LN21@gObjGetSet
$LN19@gObjGetSet:

; 1700 : 		}
; 1701 : #endif
; 1702 : 		int iSetItemType = lpObj->pInventory[i].IsSetItem();

  05da5	8b 4d f4	 mov	 ecx, DWORD PTR _i$233052[ebp]
  05da8	69 c9 d4 00 00
	00		 imul	 ecx, 212		; 000000d4H
  05dae	8b 45 08	 mov	 eax, DWORD PTR _lpObj$[ebp]
  05db1	03 88 24 0e 00
	00		 add	 ecx, DWORD PTR [eax+3620]
  05db7	e8 00 00 00 00	 call	 ?IsSetItem@CItem@@QAEHXZ ; CItem::IsSetItem
  05dbc	89 45 f0	 mov	 DWORD PTR _iSetItemType$233057[ebp], eax

; 1703 : 
; 1704 : 		if ( iSetItemType )

  05dbf	83 7d f0 00	 cmp	 DWORD PTR _iSetItemType$233057[ebp], 0
  05dc3	0f 84 02 02 00
	00		 je	 $LN1@gObjGetSet

; 1705 : 		{
; 1706 : 			if ( lpObj->pInventory[i].m_IsValidItem )

  05dc9	8b 45 f4	 mov	 eax, DWORD PTR _i$233052[ebp]
  05dcc	69 c0 d4 00 00
	00		 imul	 eax, 212		; 000000d4H
  05dd2	8b 4d 08	 mov	 ecx, DWORD PTR _lpObj$[ebp]
  05dd5	8b 91 24 0e 00
	00		 mov	 edx, DWORD PTR [ecx+3620]
  05ddb	0f b6 84 02 b0
	00 00 00	 movzx	 eax, BYTE PTR [edx+eax+176]
  05de3	85 c0		 test	 eax, eax
  05de5	0f 84 e0 01 00
	00		 je	 $LN1@gObjGetSet

; 1707 : 			{
; 1708 : 				int iSetItemOption = gSetItemOption.GetOptionTableIndex(lpObj->pInventory[i].m_Type, iSetItemType );

  05deb	8b 45 f0	 mov	 eax, DWORD PTR _iSetItemType$233057[ebp]
  05dee	50		 push	 eax
  05def	8b 4d f4	 mov	 ecx, DWORD PTR _i$233052[ebp]
  05df2	69 c9 d4 00 00
	00		 imul	 ecx, 212		; 000000d4H
  05df8	8b 55 08	 mov	 edx, DWORD PTR _lpObj$[ebp]
  05dfb	8b 82 24 0e 00
	00		 mov	 eax, DWORD PTR [edx+3620]
  05e01	0f bf 4c 08 06	 movsx	 ecx, WORD PTR [eax+ecx+6]
  05e06	51		 push	 ecx
  05e07	b9 00 00 00 00	 mov	 ecx, OFFSET ?gSetItemOption@@3VCSetItemOption@@A ; gSetItemOption
  05e0c	e8 00 00 00 00	 call	 ?GetOptionTableIndex@CSetItemOption@@QAEHHH@Z ; CSetItemOption::GetOptionTableIndex
  05e11	89 45 ec	 mov	 DWORD PTR _iSetItemOption$233060[ebp], eax

; 1709 : 
; 1710 : 				if ( iSetItemOption != -1 )

  05e14	83 7d ec ff	 cmp	 DWORD PTR _iSetItemOption$233060[ebp], -1
  05e18	0f 84 ad 01 00
	00		 je	 $LN1@gObjGetSet

; 1711 : 				{
; 1712 : 					if ( i == 0 )

  05e1e	83 7d f4 00	 cmp	 DWORD PTR _i$233052[ebp], 0
  05e22	75 08		 jne	 SHORT $LN15@gObjGetSet

; 1713 : 					{
; 1714 : 						RightSetOptionIndex = iSetItemOption;

  05e24	8b 45 ec	 mov	 eax, DWORD PTR _iSetItemOption$233060[ebp]
  05e27	89 45 fc	 mov	 DWORD PTR _RightSetOptionIndex$[ebp], eax
  05e2a	eb 5b		 jmp	 SHORT $LN11@gObjGetSet
$LN15@gObjGetSet:

; 1715 : 					}
; 1716 : 					else if ( i == 1  )

  05e2c	83 7d f4 01	 cmp	 DWORD PTR _i$233052[ebp], 1
  05e30	75 55		 jne	 SHORT $LN11@gObjGetSet

; 1717 : 					{
; 1718 : 						if (  RightSetOptionIndex == iSetItemOption )

  05e32	8b 45 fc	 mov	 eax, DWORD PTR _RightSetOptionIndex$[ebp]
  05e35	3b 45 ec	 cmp	 eax, DWORD PTR _iSetItemOption$233060[ebp]
  05e38	75 4d		 jne	 SHORT $LN11@gObjGetSet

; 1719 : 						{
; 1720 : 							if ( lpObj->pInventory[0].GetWeaponType() == lpObj->pInventory[1].GetWeaponType() && lpObj->pInventory[0].IsSetItem() )

  05e3a	8b 45 08	 mov	 eax, DWORD PTR _lpObj$[ebp]
  05e3d	8b 88 24 0e 00
	00		 mov	 ecx, DWORD PTR [eax+3620]
  05e43	e8 00 00 00 00	 call	 ?GetWeaponType@CItem@@QAEHXZ ; CItem::GetWeaponType
  05e48	8b f0		 mov	 esi, eax
  05e4a	8b 4d 08	 mov	 ecx, DWORD PTR _lpObj$[ebp]
  05e4d	8b 89 24 0e 00
	00		 mov	 ecx, DWORD PTR [ecx+3620]
  05e53	81 c1 d4 00 00
	00		 add	 ecx, 212		; 000000d4H
  05e59	e8 00 00 00 00	 call	 ?GetWeaponType@CItem@@QAEHXZ ; CItem::GetWeaponType
  05e5e	3b f0		 cmp	 esi, eax
  05e60	75 25		 jne	 SHORT $LN11@gObjGetSet
  05e62	8b 45 08	 mov	 eax, DWORD PTR _lpObj$[ebp]
  05e65	8b 88 24 0e 00
	00		 mov	 ecx, DWORD PTR [eax+3620]
  05e6b	e8 00 00 00 00	 call	 ?IsSetItem@CItem@@QAEHXZ ; CItem::IsSetItem
  05e70	85 c0		 test	 eax, eax
  05e72	74 13		 je	 SHORT $LN11@gObjGetSet

; 1721 : 							{
; 1722 : 								LogAddTD("    ...");

  05e74	68 00 00 00 00	 push	 OFFSET ??_C@_0CG@MJJCFDMJ@?$LO?g?$LM?U?$LP?$KB?5?$LA?$LA?$MA?$LK?5?$LM?$LM?F?$KO?$LA?$KB?5?$MA?$PL?$LP?k?$LF?G?$LO?z?$LE?Y?5?$LJ?$KL@
  05e79	ff 15 00 00 00
	00		 call	 DWORD PTR ?LogAddTD@@3P6AXPADZZA ; LogAddTD
  05e7f	83 c4 04	 add	 esp, 4

; 1723 : 								continue;

  05e82	e9 c2 fe ff ff	 jmp	 $LN21@gObjGetSet
$LN11@gObjGetSet:

; 1724 : 							}
; 1725 : 						}
; 1726 : 					}
; 1727 : 					
; 1728 : 					if ( i == 10 )

  05e87	83 7d f4 0a	 cmp	 DWORD PTR _i$233052[ebp], 10 ; 0000000aH
  05e8b	75 08		 jne	 SHORT $LN10@gObjGetSet

; 1729 : 					{
; 1730 : 						RightRingSetOptionIndex = iSetItemOption;

  05e8d	8b 45 ec	 mov	 eax, DWORD PTR _iSetItemOption$233060[ebp]
  05e90	89 45 f8	 mov	 DWORD PTR _RightRingSetOptionIndex$[ebp], eax
  05e93	eb 5d		 jmp	 SHORT $LN6@gObjGetSet
$LN10@gObjGetSet:

; 1731 : 					}
; 1732 : 					else if ( i == 11   )

  05e95	83 7d f4 0b	 cmp	 DWORD PTR _i$233052[ebp], 11 ; 0000000bH
  05e99	75 57		 jne	 SHORT $LN6@gObjGetSet

; 1733 : 					{
; 1734 : 						if(RightRingSetOptionIndex == iSetItemOption) //season4 add-on (wz fix o/)

  05e9b	8b 45 f8	 mov	 eax, DWORD PTR _RightRingSetOptionIndex$[ebp]
  05e9e	3b 45 ec	 cmp	 eax, DWORD PTR _iSetItemOption$233060[ebp]
  05ea1	75 4f		 jne	 SHORT $LN6@gObjGetSet

; 1735 : 						{
; 1736 : 							if ( lpObj->pInventory[10].m_Type == lpObj->pInventory[11].m_Type && lpObj->pInventory[10].IsSetItem() )

  05ea3	8b 45 08	 mov	 eax, DWORD PTR _lpObj$[ebp]
  05ea6	8b 88 24 0e 00
	00		 mov	 ecx, DWORD PTR [eax+3620]
  05eac	0f bf 91 4e 08
	00 00		 movsx	 edx, WORD PTR [ecx+2126]
  05eb3	8b 45 08	 mov	 eax, DWORD PTR _lpObj$[ebp]
  05eb6	8b 88 24 0e 00
	00		 mov	 ecx, DWORD PTR [eax+3620]
  05ebc	0f bf 81 22 09
	00 00		 movsx	 eax, WORD PTR [ecx+2338]
  05ec3	3b d0		 cmp	 edx, eax
  05ec5	75 2b		 jne	 SHORT $LN6@gObjGetSet
  05ec7	8b 45 08	 mov	 eax, DWORD PTR _lpObj$[ebp]
  05eca	8b 88 24 0e 00
	00		 mov	 ecx, DWORD PTR [eax+3620]
  05ed0	81 c1 48 08 00
	00		 add	 ecx, 2120		; 00000848H
  05ed6	e8 00 00 00 00	 call	 ?IsSetItem@CItem@@QAEHXZ ; CItem::IsSetItem
  05edb	85 c0		 test	 eax, eax
  05edd	74 13		 je	 SHORT $LN6@gObjGetSet

; 1737 : 							{
; 1738 : 								LogAddTD("    ...");

  05edf	68 00 00 00 00	 push	 OFFSET ??_C@_0CG@HNELGANH@?$LJ?$NN?A?v?$LP?$KB?5?$LA?$LA?$MA?$LK?5?$LM?$LM?F?$KO?$LA?$KB?5?$MA?$PL?$LP?k?$LF?G?$LO?z?$LE?Y?5?$LJ?$KL@
  05ee4	ff 15 00 00 00
	00		 call	 DWORD PTR ?LogAddTD@@3P6AXPADZZA ; LogAddTD
  05eea	83 c4 04	 add	 esp, 4

; 1739 : 								continue;

  05eed	e9 57 fe ff ff	 jmp	 $LN21@gObjGetSet
$LN6@gObjGetSet:

; 1740 : 							}
; 1741 : 						}
; 1742 : 					}
; 1743 : 
; 1744 : 					BOOL bFound = FALSE;

  05ef2	c7 45 e8 00 00
	00 00		 mov	 DWORD PTR _bFound$233074[ebp], 0

; 1745 : 
; 1746 : 					for ( int n=0;n<*pSetOptionCount;n++)

  05ef9	c7 45 e4 00 00
	00 00		 mov	 DWORD PTR _n$233075[ebp], 0
  05f00	eb 09		 jmp	 SHORT $LN5@gObjGetSet
$LN4@gObjGetSet:
  05f02	8b 45 e4	 mov	 eax, DWORD PTR _n$233075[ebp]
  05f05	83 c0 01	 add	 eax, 1
  05f08	89 45 e4	 mov	 DWORD PTR _n$233075[ebp], eax
$LN5@gObjGetSet:
  05f0b	8b 45 14	 mov	 eax, DWORD PTR _pSetOptionCount$[ebp]
  05f0e	8b 4d e4	 mov	 ecx, DWORD PTR _n$233075[ebp]
  05f11	3b 08		 cmp	 ecx, DWORD PTR [eax]
  05f13	7d 53		 jge	 SHORT $LN3@gObjGetSet

; 1747 : 					{
; 1748 : 						if ( pSetOptionTable[n] == iSetItemOption )

  05f15	8b 45 0c	 mov	 eax, DWORD PTR _pSetOptionTable$[ebp]
  05f18	03 45 e4	 add	 eax, DWORD PTR _n$233075[ebp]
  05f1b	0f b6 08	 movzx	 ecx, BYTE PTR [eax]
  05f1e	3b 4d ec	 cmp	 ecx, DWORD PTR _iSetItemOption$233060[ebp]
  05f21	75 43		 jne	 SHORT $LN2@gObjGetSet

; 1749 : 						{
; 1750 : 							pSetOptionCountTable[n]++;

  05f23	8b 45 10	 mov	 eax, DWORD PTR _pSetOptionCountTable$[ebp]
  05f26	03 45 e4	 add	 eax, DWORD PTR _n$233075[ebp]
  05f29	8a 08		 mov	 cl, BYTE PTR [eax]
  05f2b	80 c1 01	 add	 cl, 1
  05f2e	8b 55 10	 mov	 edx, DWORD PTR _pSetOptionCountTable$[ebp]
  05f31	03 55 e4	 add	 edx, DWORD PTR _n$233075[ebp]
  05f34	88 0a		 mov	 BYTE PTR [edx], cl

; 1751 : 							bFound = TRUE;

  05f36	c7 45 e8 01 00
	00 00		 mov	 DWORD PTR _bFound$233074[ebp], 1

; 1752 : 
; 1753 : 							LogAddTD("  %s, Count = %d", gSetItemOption.GetSetOptionName(iSetItemOption), pSetOptionCountTable[n]);

  05f3d	8b 45 10	 mov	 eax, DWORD PTR _pSetOptionCountTable$[ebp]
  05f40	03 45 e4	 add	 eax, DWORD PTR _n$233075[ebp]
  05f43	0f b6 08	 movzx	 ecx, BYTE PTR [eax]
  05f46	51		 push	 ecx
  05f47	8b 55 ec	 mov	 edx, DWORD PTR _iSetItemOption$233060[ebp]
  05f4a	52		 push	 edx
  05f4b	b9 00 00 00 00	 mov	 ecx, OFFSET ?gSetItemOption@@3VCSetItemOption@@A ; gSetItemOption
  05f50	e8 00 00 00 00	 call	 ?GetSetOptionName@CSetItemOption@@QAEPADH@Z ; CSetItemOption::GetSetOptionName
  05f55	50		 push	 eax
  05f56	68 00 00 00 00	 push	 OFFSET ??_C@_0BL@LIIMDDCM@?$LP?I?$LM?G?5?C?$KD?$LO?R?$LE?Y?5?$CFs?0?5Count?5?$DN?5?$CFd?$AA@
  05f5b	ff 15 00 00 00
	00		 call	 DWORD PTR ?LogAddTD@@3P6AXPADZZA ; LogAddTD
  05f61	83 c4 0c	 add	 esp, 12			; 0000000cH

; 1754 : 
; 1755 : 							break;

  05f64	eb 02		 jmp	 SHORT $LN3@gObjGetSet
$LN2@gObjGetSet:

; 1756 : 						}
; 1757 : 					}

  05f66	eb 9a		 jmp	 SHORT $LN4@gObjGetSet
$LN3@gObjGetSet:

; 1758 : 
; 1759 : 					if ( bFound == FALSE )

  05f68	83 7d e8 00	 cmp	 DWORD PTR _bFound$233074[ebp], 0
  05f6c	75 5d		 jne	 SHORT $LN1@gObjGetSet

; 1760 : 					{
; 1761 : 						pSetOptionTable[*pSetOptionCount] = iSetItemOption;

  05f6e	8b 45 14	 mov	 eax, DWORD PTR _pSetOptionCount$[ebp]
  05f71	8b 08		 mov	 ecx, DWORD PTR [eax]
  05f73	8b 55 0c	 mov	 edx, DWORD PTR _pSetOptionTable$[ebp]
  05f76	8a 45 ec	 mov	 al, BYTE PTR _iSetItemOption$233060[ebp]
  05f79	88 04 0a	 mov	 BYTE PTR [edx+ecx], al

; 1762 : 						pSetOptionCountTable[*pSetOptionCount]++;

  05f7c	8b 45 14	 mov	 eax, DWORD PTR _pSetOptionCount$[ebp]
  05f7f	8b 08		 mov	 ecx, DWORD PTR [eax]
  05f81	8b 55 10	 mov	 edx, DWORD PTR _pSetOptionCountTable$[ebp]
  05f84	8a 04 0a	 mov	 al, BYTE PTR [edx+ecx]
  05f87	04 01		 add	 al, 1
  05f89	8b 4d 14	 mov	 ecx, DWORD PTR _pSetOptionCount$[ebp]
  05f8c	8b 11		 mov	 edx, DWORD PTR [ecx]
  05f8e	8b 4d 10	 mov	 ecx, DWORD PTR _pSetOptionCountTable$[ebp]
  05f91	88 04 11	 mov	 BYTE PTR [ecx+edx], al

; 1763 : 
; 1764 : 						LogAddTD("  %s, Count = %d", gSetItemOption.GetSetOptionName(iSetItemOption), pSetOptionCountTable[*pSetOptionCount]);

  05f94	8b 45 14	 mov	 eax, DWORD PTR _pSetOptionCount$[ebp]
  05f97	8b 08		 mov	 ecx, DWORD PTR [eax]
  05f99	8b 55 10	 mov	 edx, DWORD PTR _pSetOptionCountTable$[ebp]
  05f9c	0f b6 04 0a	 movzx	 eax, BYTE PTR [edx+ecx]
  05fa0	50		 push	 eax
  05fa1	8b 4d ec	 mov	 ecx, DWORD PTR _iSetItemOption$233060[ebp]
  05fa4	51		 push	 ecx
  05fa5	b9 00 00 00 00	 mov	 ecx, OFFSET ?gSetItemOption@@3VCSetItemOption@@A ; gSetItemOption
  05faa	e8 00 00 00 00	 call	 ?GetSetOptionName@CSetItemOption@@QAEPADH@Z ; CSetItemOption::GetSetOptionName
  05faf	50		 push	 eax
  05fb0	68 00 00 00 00	 push	 OFFSET ??_C@_0BL@LIIMDDCM@?$LP?I?$LM?G?5?C?$KD?$LO?R?$LE?Y?5?$CFs?0?5Count?5?$DN?5?$CFd?$AA@
  05fb5	ff 15 00 00 00
	00		 call	 DWORD PTR ?LogAddTD@@3P6AXPADZZA ; LogAddTD
  05fbb	83 c4 0c	 add	 esp, 12			; 0000000cH

; 1765 : 
; 1766 : 						*pSetOptionCount += 1;

  05fbe	8b 45 14	 mov	 eax, DWORD PTR _pSetOptionCount$[ebp]
  05fc1	8b 08		 mov	 ecx, DWORD PTR [eax]
  05fc3	83 c1 01	 add	 ecx, 1
  05fc6	8b 55 14	 mov	 edx, DWORD PTR _pSetOptionCount$[ebp]
  05fc9	89 0a		 mov	 DWORD PTR [edx], ecx
$LN1@gObjGetSet:

; 1767 : 					}
; 1768 : 				}
; 1769 : 			}
; 1770 : 		}
; 1771 : 	}

  05fcb	e9 79 fd ff ff	 jmp	 $LN21@gObjGetSet
$LN20@gObjGetSet:

; 1772 : }

  05fd0	5f		 pop	 edi
  05fd1	5e		 pop	 esi
  05fd2	5b		 pop	 ebx
  05fd3	8b e5		 mov	 esp, ebp
  05fd5	5d		 pop	 ebp
  05fd6	c3		 ret	 0
?gObjGetSetItemOption@@YAXPAUOBJECTSTRUCT@@PAE1PAH@Z ENDP ; gObjGetSetItemOption
_TEXT	ENDS
PUBLIC	?gObjSetItemPlusSpecial@@YAXPAUOBJECTSTRUCT@@HH@Z ; gObjSetItemPlusSpecial
PUBLIC	??_C@_0BK@POCCBAFD@?$FL?$CFs?$FN?$FL?$CFs?$FN?5?$LM?$LM?F?$KO?5?$CFs?$LP?I?$LM?G?5?$MA?$PL?$LP?k?$AA@ ; `string'
PUBLIC	??_C@_0M@CMDBHBEK@?G?$KO?$LP?I?$LM?G?5?$MA?$PL?$LP?k?$AA@ ; `string'
PUBLIC	?gObjSetItemStatPlusSpecial@@YAXPAUOBJECTSTRUCT@@HH@Z ; gObjSetItemStatPlusSpecial
PUBLIC	__$ArrayPad$
EXTRN	?LogAdd@@3P6AXPADZZA:DWORD			; LogAdd
EXTRN	?GetGetFullSetOption@CSetItemOption@@QAEHHAAH000000000HH@Z:PROC ; CSetItemOption::GetGetFullSetOption
EXTRN	?LogAddC@@3P6AXEPADZZA:DWORD			; LogAddC
EXTRN	?GetMaxSetOptionCount@CSetItemOption@@QAEHH@Z:PROC ; CSetItemOption::GetMaxSetOptionCount
EXTRN	?GetSetOption@CSetItemOption@@QAEHHHAAH000HH@Z:PROC ; CSetItemOption::GetSetOption
EXTRN	?IsRequireClass@CSetItemOption@@QAEHHHH@Z:PROC	; CSetItemOption::IsRequireClass
;	COMDAT ??_C@_0BK@POCCBAFD@?$FL?$CFs?$FN?$FL?$CFs?$FN?5?$LM?$LM?F?$KO?5?$CFs?$LP?I?$LM?G?5?$MA?$PL?$LP?k?$AA@
CONST	SEGMENT
??_C@_0BK@POCCBAFD@?$FL?$CFs?$FN?$FL?$CFs?$FN?5?$LM?$LM?F?$KO?5?$CFs?$LP?I?$LM?G?5?$MA?$PL?$LP?k?$AA@ DB '['
	DB	'%s][%s] ', 0bcH, 0bcH, 0c6H, 0aeH, ' %s', 0bfH, 0c9H, 0bcH, 0c7H
	DB	' ', 0c0H, 0fbH, 0bfH, 0ebH, 00H		; `string'
CONST	ENDS
;	COMDAT ??_C@_0M@CMDBHBEK@?G?$KO?$LP?I?$LM?G?5?$MA?$PL?$LP?k?$AA@
CONST	SEGMENT
??_C@_0M@CMDBHBEK@?G?$KO?$LP?I?$LM?G?5?$MA?$PL?$LP?k?$AA@ DB 0c7H, 0aeH, 0bfH
	DB	0c9H, 0bcH, 0c7H, ' ', 0c0H, 0fbH, 0bfH, 0ebH, 00H ; `string'
; Function compile flags: /Odtp /ZI
CONST	ENDS
_TEXT	SEGMENT
_tablecnt$233120 = -144					; size = 4
_OptionTableCount$233117 = -140				; size = 4
_OptionTableIndex$233116 = -136				; size = 4
_optioncount$233112 = -132				; size = 4
_tablecnt$233105 = -128					; size = 4
_OptionTableCount$233103 = -124				; size = 4
_OptionTableIndex$233102 = -120				; size = 4
_optioncount$233098 = -116				; size = 4
_opvalue5$ = -112					; size = 4
_opvalue4$ = -108					; size = 4
_opvalue3$ = -104					; size = 4
_opvalue2$ = -100					; size = 4
_opvalue1$ = -96					; size = 4
_op5$ = -92						; size = 4
_op4$ = -88						; size = 4
_op3$ = -84						; size = 4
_op2$ = -80						; size = 4
_op1$ = -76						; size = 4
_SetOptionCount$ = -72					; size = 4
_SetOptionCountTable$ = -68				; size = 29
_SetOptionTable$ = -36					; size = 29
__$ArrayPad$ = -4					; size = 4
_lpObj$ = 8						; size = 4
?gObjCalcSetItemOption@@YAXPAUOBJECTSTRUCT@@@Z PROC	; gObjCalcSetItemOption

; 1775 : {

  05fe0	55		 push	 ebp
  05fe1	8b ec		 mov	 ebp, esp
  05fe3	81 ec d0 00 00
	00		 sub	 esp, 208		; 000000d0H
  05fe9	a1 00 00 00 00	 mov	 eax, DWORD PTR ___security_cookie
  05fee	33 c5		 xor	 eax, ebp
  05ff0	89 45 fc	 mov	 DWORD PTR __$ArrayPad$[ebp], eax
  05ff3	53		 push	 ebx
  05ff4	56		 push	 esi
  05ff5	57		 push	 edi

; 1776 : 	BYTE SetOptionTable[29];
; 1777 : 	BYTE SetOptionCountTable[29];
; 1778 : 	int SetOptionCount = 0;

  05ff6	c7 45 b8 00 00
	00 00		 mov	 DWORD PTR _SetOptionCount$[ebp], 0

; 1779 : 	int op1;
; 1780 : 	int op2;
; 1781 : 	int op3;
; 1782 : 	int op4;
; 1783 : 	int op5;
; 1784 : 	int opvalue1;
; 1785 : 	int opvalue2;
; 1786 : 	int opvalue3;
; 1787 : 	int opvalue4;
; 1788 : 	int opvalue5;
; 1789 : 
; 1790 : 	memset(SetOptionTable, 0, sizeof(SetOptionTable));

  05ffd	6a 1d		 push	 29			; 0000001dH
  05fff	6a 00		 push	 0
  06001	8d 45 dc	 lea	 eax, DWORD PTR _SetOptionTable$[ebp]
  06004	50		 push	 eax
  06005	e8 00 00 00 00	 call	 _memset
  0600a	83 c4 0c	 add	 esp, 12			; 0000000cH

; 1791 : 	memset(SetOptionCountTable, 0, sizeof(SetOptionCountTable));

  0600d	6a 1d		 push	 29			; 0000001dH
  0600f	6a 00		 push	 0
  06011	8d 45 bc	 lea	 eax, DWORD PTR _SetOptionCountTable$[ebp]
  06014	50		 push	 eax
  06015	e8 00 00 00 00	 call	 _memset
  0601a	83 c4 0c	 add	 esp, 12			; 0000000cH

; 1792 : 	gObjGetSetItemOption(lpObj, SetOptionTable, SetOptionCountTable, &SetOptionCount);

  0601d	8d 45 b8	 lea	 eax, DWORD PTR _SetOptionCount$[ebp]
  06020	50		 push	 eax
  06021	8d 4d bc	 lea	 ecx, DWORD PTR _SetOptionCountTable$[ebp]
  06024	51		 push	 ecx
  06025	8d 55 dc	 lea	 edx, DWORD PTR _SetOptionTable$[ebp]
  06028	52		 push	 edx
  06029	8b 45 08	 mov	 eax, DWORD PTR _lpObj$[ebp]
  0602c	50		 push	 eax
  0602d	e8 00 00 00 00	 call	 ?gObjGetSetItemOption@@YAXPAUOBJECTSTRUCT@@PAE1PAH@Z ; gObjGetSetItemOption
  06032	83 c4 10	 add	 esp, 16			; 00000010H

; 1793 : 
; 1794 : 	for ( int optioncount=0;optioncount<SetOptionCount;optioncount++)

  06035	c7 45 8c 00 00
	00 00		 mov	 DWORD PTR _optioncount$233098[ebp], 0
  0603c	eb 09		 jmp	 SHORT $LN18@gObjCalcSe@2
$LN17@gObjCalcSe@2:
  0603e	8b 45 8c	 mov	 eax, DWORD PTR _optioncount$233098[ebp]
  06041	83 c0 01	 add	 eax, 1
  06044	89 45 8c	 mov	 DWORD PTR _optioncount$233098[ebp], eax
$LN18@gObjCalcSe@2:
  06047	8b 45 8c	 mov	 eax, DWORD PTR _optioncount$233098[ebp]
  0604a	3b 45 b8	 cmp	 eax, DWORD PTR _SetOptionCount$[ebp]
  0604d	0f 8d ad 01 00
	00		 jge	 $LN16@gObjCalcSe@2

; 1795 : 	{
; 1796 : 		int OptionTableIndex = SetOptionTable[optioncount];

  06053	8b 45 8c	 mov	 eax, DWORD PTR _optioncount$233098[ebp]
  06056	0f b6 4c 05 dc	 movzx	 ecx, BYTE PTR _SetOptionTable$[ebp+eax]
  0605b	89 4d 88	 mov	 DWORD PTR _OptionTableIndex$233102[ebp], ecx

; 1797 : 		int OptionTableCount = SetOptionCountTable[optioncount];

  0605e	8b 45 8c	 mov	 eax, DWORD PTR _optioncount$233098[ebp]
  06061	0f b6 4c 05 bc	 movzx	 ecx, BYTE PTR _SetOptionCountTable$[ebp+eax]
  06066	89 4d 84	 mov	 DWORD PTR _OptionTableCount$233103[ebp], ecx

; 1798 : 
; 1799 : 		if ( OptionTableCount >= 2 )

  06069	83 7d 84 02	 cmp	 DWORD PTR _OptionTableCount$233103[ebp], 2
  0606d	0f 8c 88 01 00
	00		 jl	 $LN15@gObjCalcSe@2

; 1800 : 		{
; 1801 : 			gSetItemOption.IsRequireClass(OptionTableIndex, lpObj->Class, lpObj->ChangeUP);

  06073	8b 45 08	 mov	 eax, DWORD PTR _lpObj$[ebp]
  06076	0f b6 88 bb 00
	00 00		 movzx	 ecx, BYTE PTR [eax+187]
  0607d	51		 push	 ecx
  0607e	8b 55 08	 mov	 edx, DWORD PTR _lpObj$[ebp]
  06081	0f b7 82 b8 00
	00 00		 movzx	 eax, WORD PTR [edx+184]
  06088	50		 push	 eax
  06089	8b 4d 88	 mov	 ecx, DWORD PTR _OptionTableIndex$233102[ebp]
  0608c	51		 push	 ecx
  0608d	b9 00 00 00 00	 mov	 ecx, OFFSET ?gSetItemOption@@3VCSetItemOption@@A ; gSetItemOption
  06092	e8 00 00 00 00	 call	 ?IsRequireClass@CSetItemOption@@QAEHHHH@Z ; CSetItemOption::IsRequireClass

; 1802 : 
; 1803 : 			for ( int tablecnt=0;tablecnt<(OptionTableCount-1);tablecnt++)

  06097	c7 45 80 00 00
	00 00		 mov	 DWORD PTR _tablecnt$233105[ebp], 0
  0609e	eb 09		 jmp	 SHORT $LN14@gObjCalcSe@2
$LN13@gObjCalcSe@2:
  060a0	8b 45 80	 mov	 eax, DWORD PTR _tablecnt$233105[ebp]
  060a3	83 c0 01	 add	 eax, 1
  060a6	89 45 80	 mov	 DWORD PTR _tablecnt$233105[ebp], eax
$LN14@gObjCalcSe@2:
  060a9	8b 45 84	 mov	 eax, DWORD PTR _OptionTableCount$233103[ebp]
  060ac	83 e8 01	 sub	 eax, 1
  060af	39 45 80	 cmp	 DWORD PTR _tablecnt$233105[ebp], eax
  060b2	7d 66		 jge	 SHORT $LN12@gObjCalcSe@2

; 1804 : 			{
; 1805 : 				if ( gSetItemOption.GetSetOption(OptionTableIndex, tablecnt,
; 1806 : 					op1, op2, opvalue1, opvalue2, lpObj->Class, lpObj->ChangeUP) )

  060b4	8b 45 08	 mov	 eax, DWORD PTR _lpObj$[ebp]
  060b7	0f b6 88 bb 00
	00 00		 movzx	 ecx, BYTE PTR [eax+187]
  060be	51		 push	 ecx
  060bf	8b 55 08	 mov	 edx, DWORD PTR _lpObj$[ebp]
  060c2	0f b7 82 b8 00
	00 00		 movzx	 eax, WORD PTR [edx+184]
  060c9	50		 push	 eax
  060ca	8d 4d 9c	 lea	 ecx, DWORD PTR _opvalue2$[ebp]
  060cd	51		 push	 ecx
  060ce	8d 55 a0	 lea	 edx, DWORD PTR _opvalue1$[ebp]
  060d1	52		 push	 edx
  060d2	8d 45 b0	 lea	 eax, DWORD PTR _op2$[ebp]
  060d5	50		 push	 eax
  060d6	8d 4d b4	 lea	 ecx, DWORD PTR _op1$[ebp]
  060d9	51		 push	 ecx
  060da	8b 55 80	 mov	 edx, DWORD PTR _tablecnt$233105[ebp]
  060dd	52		 push	 edx
  060de	8b 45 88	 mov	 eax, DWORD PTR _OptionTableIndex$233102[ebp]
  060e1	50		 push	 eax
  060e2	b9 00 00 00 00	 mov	 ecx, OFFSET ?gSetItemOption@@3VCSetItemOption@@A ; gSetItemOption
  060e7	e8 00 00 00 00	 call	 ?GetSetOption@CSetItemOption@@QAEHHHAAH000HH@Z ; CSetItemOption::GetSetOption
  060ec	85 c0		 test	 eax, eax
  060ee	74 28		 je	 SHORT $LN11@gObjCalcSe@2

; 1807 : 				{
; 1808 : 					gObjSetItemStatPlusSpecial(lpObj, op1, opvalue1);

  060f0	8b 45 a0	 mov	 eax, DWORD PTR _opvalue1$[ebp]
  060f3	50		 push	 eax
  060f4	8b 4d b4	 mov	 ecx, DWORD PTR _op1$[ebp]
  060f7	51		 push	 ecx
  060f8	8b 55 08	 mov	 edx, DWORD PTR _lpObj$[ebp]
  060fb	52		 push	 edx
  060fc	e8 00 00 00 00	 call	 ?gObjSetItemStatPlusSpecial@@YAXPAUOBJECTSTRUCT@@HH@Z ; gObjSetItemStatPlusSpecial
  06101	83 c4 0c	 add	 esp, 12			; 0000000cH

; 1809 : 					gObjSetItemStatPlusSpecial(lpObj, op2, opvalue2);

  06104	8b 45 9c	 mov	 eax, DWORD PTR _opvalue2$[ebp]
  06107	50		 push	 eax
  06108	8b 4d b0	 mov	 ecx, DWORD PTR _op2$[ebp]
  0610b	51		 push	 ecx
  0610c	8b 55 08	 mov	 edx, DWORD PTR _lpObj$[ebp]
  0610f	52		 push	 edx
  06110	e8 00 00 00 00	 call	 ?gObjSetItemStatPlusSpecial@@YAXPAUOBJECTSTRUCT@@HH@Z ; gObjSetItemStatPlusSpecial
  06115	83 c4 0c	 add	 esp, 12			; 0000000cH
$LN11@gObjCalcSe@2:

; 1810 : 				}
; 1811 : 			}

  06118	eb 86		 jmp	 SHORT $LN13@gObjCalcSe@2
$LN12@gObjCalcSe@2:

; 1812 : 
; 1813 : 			if ( gSetItemOption.GetMaxSetOptionCount(OptionTableIndex) < OptionTableCount )

  0611a	8b 45 88	 mov	 eax, DWORD PTR _OptionTableIndex$233102[ebp]
  0611d	50		 push	 eax
  0611e	b9 00 00 00 00	 mov	 ecx, OFFSET ?gSetItemOption@@3VCSetItemOption@@A ; gSetItemOption
  06123	e8 00 00 00 00	 call	 ?GetMaxSetOptionCount@CSetItemOption@@QAEHH@Z ; CSetItemOption::GetMaxSetOptionCount
  06128	3b 45 84	 cmp	 eax, DWORD PTR _OptionTableCount$233103[ebp]
  0612b	0f 8d ca 00 00
	00		 jge	 $LN15@gObjCalcSe@2

; 1814 : 			{
; 1815 : 				lpObj->IsFullSetItem = true;

  06131	8b 45 08	 mov	 eax, DWORD PTR _lpObj$[ebp]
  06134	c6 80 46 11 00
	00 01		 mov	 BYTE PTR [eax+4422], 1

; 1816 : 				LogAddC(2, " ");

  0613b	68 00 00 00 00	 push	 OFFSET ??_C@_0M@CMDBHBEK@?G?$KO?$LP?I?$LM?G?5?$MA?$PL?$LP?k?$AA@
  06140	6a 02		 push	 2
  06142	ff 15 00 00 00
	00		 call	 DWORD PTR ?LogAddC@@3P6AXEPADZZA ; LogAddC
  06148	83 c4 08	 add	 esp, 8

; 1817 : 
; 1818 : 				gSetItemOption.GetGetFullSetOption(OptionTableIndex, op1, op2, op3, op4, op5, opvalue1, opvalue2, opvalue3, opvalue4, opvalue5,	lpObj->Class, lpObj->ChangeUP);

  0614b	8b 45 08	 mov	 eax, DWORD PTR _lpObj$[ebp]
  0614e	0f b6 88 bb 00
	00 00		 movzx	 ecx, BYTE PTR [eax+187]
  06155	51		 push	 ecx
  06156	8b 55 08	 mov	 edx, DWORD PTR _lpObj$[ebp]
  06159	0f b7 82 b8 00
	00 00		 movzx	 eax, WORD PTR [edx+184]
  06160	50		 push	 eax
  06161	8d 4d 90	 lea	 ecx, DWORD PTR _opvalue5$[ebp]
  06164	51		 push	 ecx
  06165	8d 55 94	 lea	 edx, DWORD PTR _opvalue4$[ebp]
  06168	52		 push	 edx
  06169	8d 45 98	 lea	 eax, DWORD PTR _opvalue3$[ebp]
  0616c	50		 push	 eax
  0616d	8d 4d 9c	 lea	 ecx, DWORD PTR _opvalue2$[ebp]
  06170	51		 push	 ecx
  06171	8d 55 a0	 lea	 edx, DWORD PTR _opvalue1$[ebp]
  06174	52		 push	 edx
  06175	8d 45 a4	 lea	 eax, DWORD PTR _op5$[ebp]
  06178	50		 push	 eax
  06179	8d 4d a8	 lea	 ecx, DWORD PTR _op4$[ebp]
  0617c	51		 push	 ecx
  0617d	8d 55 ac	 lea	 edx, DWORD PTR _op3$[ebp]
  06180	52		 push	 edx
  06181	8d 45 b0	 lea	 eax, DWORD PTR _op2$[ebp]
  06184	50		 push	 eax
  06185	8d 4d b4	 lea	 ecx, DWORD PTR _op1$[ebp]
  06188	51		 push	 ecx
  06189	8b 55 88	 mov	 edx, DWORD PTR _OptionTableIndex$233102[ebp]
  0618c	52		 push	 edx
  0618d	b9 00 00 00 00	 mov	 ecx, OFFSET ?gSetItemOption@@3VCSetItemOption@@A ; gSetItemOption
  06192	e8 00 00 00 00	 call	 ?GetGetFullSetOption@CSetItemOption@@QAEHHAAH000000000HH@Z ; CSetItemOption::GetGetFullSetOption

; 1819 : 
; 1820 : 				gObjSetItemStatPlusSpecial(lpObj, op1, opvalue1);

  06197	8b 45 a0	 mov	 eax, DWORD PTR _opvalue1$[ebp]
  0619a	50		 push	 eax
  0619b	8b 4d b4	 mov	 ecx, DWORD PTR _op1$[ebp]
  0619e	51		 push	 ecx
  0619f	8b 55 08	 mov	 edx, DWORD PTR _lpObj$[ebp]
  061a2	52		 push	 edx
  061a3	e8 00 00 00 00	 call	 ?gObjSetItemStatPlusSpecial@@YAXPAUOBJECTSTRUCT@@HH@Z ; gObjSetItemStatPlusSpecial
  061a8	83 c4 0c	 add	 esp, 12			; 0000000cH

; 1821 : 				gObjSetItemStatPlusSpecial(lpObj, op2, opvalue2);

  061ab	8b 45 9c	 mov	 eax, DWORD PTR _opvalue2$[ebp]
  061ae	50		 push	 eax
  061af	8b 4d b0	 mov	 ecx, DWORD PTR _op2$[ebp]
  061b2	51		 push	 ecx
  061b3	8b 55 08	 mov	 edx, DWORD PTR _lpObj$[ebp]
  061b6	52		 push	 edx
  061b7	e8 00 00 00 00	 call	 ?gObjSetItemStatPlusSpecial@@YAXPAUOBJECTSTRUCT@@HH@Z ; gObjSetItemStatPlusSpecial
  061bc	83 c4 0c	 add	 esp, 12			; 0000000cH

; 1822 : 				gObjSetItemStatPlusSpecial(lpObj, op3, opvalue3);

  061bf	8b 45 98	 mov	 eax, DWORD PTR _opvalue3$[ebp]
  061c2	50		 push	 eax
  061c3	8b 4d ac	 mov	 ecx, DWORD PTR _op3$[ebp]
  061c6	51		 push	 ecx
  061c7	8b 55 08	 mov	 edx, DWORD PTR _lpObj$[ebp]
  061ca	52		 push	 edx
  061cb	e8 00 00 00 00	 call	 ?gObjSetItemStatPlusSpecial@@YAXPAUOBJECTSTRUCT@@HH@Z ; gObjSetItemStatPlusSpecial
  061d0	83 c4 0c	 add	 esp, 12			; 0000000cH

; 1823 : 				gObjSetItemStatPlusSpecial(lpObj, op4, opvalue4);

  061d3	8b 45 94	 mov	 eax, DWORD PTR _opvalue4$[ebp]
  061d6	50		 push	 eax
  061d7	8b 4d a8	 mov	 ecx, DWORD PTR _op4$[ebp]
  061da	51		 push	 ecx
  061db	8b 55 08	 mov	 edx, DWORD PTR _lpObj$[ebp]
  061de	52		 push	 edx
  061df	e8 00 00 00 00	 call	 ?gObjSetItemStatPlusSpecial@@YAXPAUOBJECTSTRUCT@@HH@Z ; gObjSetItemStatPlusSpecial
  061e4	83 c4 0c	 add	 esp, 12			; 0000000cH

; 1824 : 				gObjSetItemStatPlusSpecial(lpObj, op5, opvalue5);

  061e7	8b 45 90	 mov	 eax, DWORD PTR _opvalue5$[ebp]
  061ea	50		 push	 eax
  061eb	8b 4d a4	 mov	 ecx, DWORD PTR _op5$[ebp]
  061ee	51		 push	 ecx
  061ef	8b 55 08	 mov	 edx, DWORD PTR _lpObj$[ebp]
  061f2	52		 push	 edx
  061f3	e8 00 00 00 00	 call	 ?gObjSetItemStatPlusSpecial@@YAXPAUOBJECTSTRUCT@@HH@Z ; gObjSetItemStatPlusSpecial
  061f8	83 c4 0c	 add	 esp, 12			; 0000000cH
$LN15@gObjCalcSe@2:

; 1825 : 			}		
; 1826 : 		}
; 1827 : 	}

  061fb	e9 3e fe ff ff	 jmp	 $LN17@gObjCalcSe@2
$LN16@gObjCalcSe@2:

; 1828 : 
; 1829 : 	for (int optioncount=0;optioncount<SetOptionCount;optioncount++)

  06200	c7 85 7c ff ff
	ff 00 00 00 00	 mov	 DWORD PTR _optioncount$233112[ebp], 0
  0620a	eb 0f		 jmp	 SHORT $LN9@gObjCalcSe@2
$LN8@gObjCalcSe@2:
  0620c	8b 85 7c ff ff
	ff		 mov	 eax, DWORD PTR _optioncount$233112[ebp]
  06212	83 c0 01	 add	 eax, 1
  06215	89 85 7c ff ff
	ff		 mov	 DWORD PTR _optioncount$233112[ebp], eax
$LN9@gObjCalcSe@2:
  0621b	8b 85 7c ff ff
	ff		 mov	 eax, DWORD PTR _optioncount$233112[ebp]
  06221	3b 45 b8	 cmp	 eax, DWORD PTR _SetOptionCount$[ebp]
  06224	0f 8d e7 01 00
	00		 jge	 $LN19@gObjCalcSe@2

; 1830 : 	{
; 1831 : 		int OptionTableIndex = SetOptionTable[optioncount];

  0622a	8b 85 7c ff ff
	ff		 mov	 eax, DWORD PTR _optioncount$233112[ebp]
  06230	0f b6 4c 05 dc	 movzx	 ecx, BYTE PTR _SetOptionTable$[ebp+eax]
  06235	89 8d 78 ff ff
	ff		 mov	 DWORD PTR _OptionTableIndex$233116[ebp], ecx

; 1832 : 		int OptionTableCount = SetOptionCountTable[optioncount];

  0623b	8b 85 7c ff ff
	ff		 mov	 eax, DWORD PTR _optioncount$233112[ebp]
  06241	0f b6 4c 05 bc	 movzx	 ecx, BYTE PTR _SetOptionCountTable$[ebp+eax]
  06246	89 8d 74 ff ff
	ff		 mov	 DWORD PTR _OptionTableCount$233117[ebp], ecx

; 1833 : 
; 1834 : 		if ( OptionTableCount >= 2 )

  0624c	83 bd 74 ff ff
	ff 02		 cmp	 DWORD PTR _OptionTableCount$233117[ebp], 2
  06253	0f 8c b3 01 00
	00		 jl	 $LN6@gObjCalcSe@2

; 1835 : 		{
; 1836 : 			LogAdd("[%s][%s]  %s ",	lpObj->AccountID, lpObj->Name, gSetItemOption.GetSetOptionName(OptionTableIndex));

  06259	8b 85 78 ff ff
	ff		 mov	 eax, DWORD PTR _OptionTableIndex$233116[ebp]
  0625f	50		 push	 eax
  06260	b9 00 00 00 00	 mov	 ecx, OFFSET ?gSetItemOption@@3VCSetItemOption@@A ; gSetItemOption
  06265	e8 00 00 00 00	 call	 ?GetSetOptionName@CSetItemOption@@QAEPADH@Z ; CSetItemOption::GetSetOptionName
  0626a	50		 push	 eax
  0626b	8b 4d 08	 mov	 ecx, DWORD PTR _lpObj$[ebp]
  0626e	83 c1 77	 add	 ecx, 119		; 00000077H
  06271	51		 push	 ecx
  06272	8b 55 08	 mov	 edx, DWORD PTR _lpObj$[ebp]
  06275	83 c2 6c	 add	 edx, 108		; 0000006cH
  06278	52		 push	 edx
  06279	68 00 00 00 00	 push	 OFFSET ??_C@_0BK@POCCBAFD@?$FL?$CFs?$FN?$FL?$CFs?$FN?5?$LM?$LM?F?$KO?5?$CFs?$LP?I?$LM?G?5?$MA?$PL?$LP?k?$AA@
  0627e	ff 15 00 00 00
	00		 call	 DWORD PTR ?LogAdd@@3P6AXPADZZA ; LogAdd
  06284	83 c4 10	 add	 esp, 16			; 00000010H

; 1837 : 
; 1838 : 			for ( int tablecnt=0;tablecnt<(OptionTableCount-1);tablecnt++)

  06287	c7 85 70 ff ff
	ff 00 00 00 00	 mov	 DWORD PTR _tablecnt$233120[ebp], 0
  06291	eb 0f		 jmp	 SHORT $LN5@gObjCalcSe@2
$LN4@gObjCalcSe@2:
  06293	8b 85 70 ff ff
	ff		 mov	 eax, DWORD PTR _tablecnt$233120[ebp]
  06299	83 c0 01	 add	 eax, 1
  0629c	89 85 70 ff ff
	ff		 mov	 DWORD PTR _tablecnt$233120[ebp], eax
$LN5@gObjCalcSe@2:
  062a2	8b 85 74 ff ff
	ff		 mov	 eax, DWORD PTR _OptionTableCount$233117[ebp]
  062a8	83 e8 01	 sub	 eax, 1
  062ab	39 85 70 ff ff
	ff		 cmp	 DWORD PTR _tablecnt$233120[ebp], eax
  062b1	7d 6f		 jge	 SHORT $LN3@gObjCalcSe@2

; 1839 : 			{
; 1840 : 				if ( gSetItemOption.GetSetOption(OptionTableIndex, tablecnt, op1, op2, opvalue1, opvalue2, lpObj->Class, lpObj->ChangeUP) )

  062b3	8b 45 08	 mov	 eax, DWORD PTR _lpObj$[ebp]
  062b6	0f b6 88 bb 00
	00 00		 movzx	 ecx, BYTE PTR [eax+187]
  062bd	51		 push	 ecx
  062be	8b 55 08	 mov	 edx, DWORD PTR _lpObj$[ebp]
  062c1	0f b7 82 b8 00
	00 00		 movzx	 eax, WORD PTR [edx+184]
  062c8	50		 push	 eax
  062c9	8d 4d 9c	 lea	 ecx, DWORD PTR _opvalue2$[ebp]
  062cc	51		 push	 ecx
  062cd	8d 55 a0	 lea	 edx, DWORD PTR _opvalue1$[ebp]
  062d0	52		 push	 edx
  062d1	8d 45 b0	 lea	 eax, DWORD PTR _op2$[ebp]
  062d4	50		 push	 eax
  062d5	8d 4d b4	 lea	 ecx, DWORD PTR _op1$[ebp]
  062d8	51		 push	 ecx
  062d9	8b 95 70 ff ff
	ff		 mov	 edx, DWORD PTR _tablecnt$233120[ebp]
  062df	52		 push	 edx
  062e0	8b 85 78 ff ff
	ff		 mov	 eax, DWORD PTR _OptionTableIndex$233116[ebp]
  062e6	50		 push	 eax
  062e7	b9 00 00 00 00	 mov	 ecx, OFFSET ?gSetItemOption@@3VCSetItemOption@@A ; gSetItemOption
  062ec	e8 00 00 00 00	 call	 ?GetSetOption@CSetItemOption@@QAEHHHAAH000HH@Z ; CSetItemOption::GetSetOption
  062f1	85 c0		 test	 eax, eax
  062f3	74 28		 je	 SHORT $LN2@gObjCalcSe@2

; 1841 : 				{
; 1842 : 					gObjSetItemPlusSpecial(lpObj, op1, opvalue1);

  062f5	8b 45 a0	 mov	 eax, DWORD PTR _opvalue1$[ebp]
  062f8	50		 push	 eax
  062f9	8b 4d b4	 mov	 ecx, DWORD PTR _op1$[ebp]
  062fc	51		 push	 ecx
  062fd	8b 55 08	 mov	 edx, DWORD PTR _lpObj$[ebp]
  06300	52		 push	 edx
  06301	e8 00 00 00 00	 call	 ?gObjSetItemPlusSpecial@@YAXPAUOBJECTSTRUCT@@HH@Z ; gObjSetItemPlusSpecial
  06306	83 c4 0c	 add	 esp, 12			; 0000000cH

; 1843 : 					gObjSetItemPlusSpecial(lpObj, op2, opvalue2);

  06309	8b 45 9c	 mov	 eax, DWORD PTR _opvalue2$[ebp]
  0630c	50		 push	 eax
  0630d	8b 4d b0	 mov	 ecx, DWORD PTR _op2$[ebp]
  06310	51		 push	 ecx
  06311	8b 55 08	 mov	 edx, DWORD PTR _lpObj$[ebp]
  06314	52		 push	 edx
  06315	e8 00 00 00 00	 call	 ?gObjSetItemPlusSpecial@@YAXPAUOBJECTSTRUCT@@HH@Z ; gObjSetItemPlusSpecial
  0631a	83 c4 0c	 add	 esp, 12			; 0000000cH
$LN2@gObjCalcSe@2:

; 1844 : 				}
; 1845 : 			}

  0631d	e9 71 ff ff ff	 jmp	 $LN4@gObjCalcSe@2
$LN3@gObjCalcSe@2:

; 1846 : 				
; 1847 : 			if ( gSetItemOption.GetMaxSetOptionCount(OptionTableIndex) < OptionTableCount )

  06322	8b 85 78 ff ff
	ff		 mov	 eax, DWORD PTR _OptionTableIndex$233116[ebp]
  06328	50		 push	 eax
  06329	b9 00 00 00 00	 mov	 ecx, OFFSET ?gSetItemOption@@3VCSetItemOption@@A ; gSetItemOption
  0632e	e8 00 00 00 00	 call	 ?GetMaxSetOptionCount@CSetItemOption@@QAEHH@Z ; CSetItemOption::GetMaxSetOptionCount
  06333	3b 85 74 ff ff
	ff		 cmp	 eax, DWORD PTR _OptionTableCount$233117[ebp]
  06339	0f 8d cd 00 00
	00		 jge	 $LN6@gObjCalcSe@2

; 1848 : 			{
; 1849 : 				LogAddC(2, " ");

  0633f	68 00 00 00 00	 push	 OFFSET ??_C@_0M@CMDBHBEK@?G?$KO?$LP?I?$LM?G?5?$MA?$PL?$LP?k?$AA@
  06344	6a 02		 push	 2
  06346	ff 15 00 00 00
	00		 call	 DWORD PTR ?LogAddC@@3P6AXEPADZZA ; LogAddC
  0634c	83 c4 08	 add	 esp, 8

; 1850 : 				lpObj->IsFullSetItem = true;

  0634f	8b 45 08	 mov	 eax, DWORD PTR _lpObj$[ebp]
  06352	c6 80 46 11 00
	00 01		 mov	 BYTE PTR [eax+4422], 1

; 1851 : 
; 1852 : 				gSetItemOption.GetGetFullSetOption(OptionTableIndex, op1, op2, op3, op4, op5, opvalue1, opvalue2, opvalue3, opvalue4, opvalue5, lpObj->Class, lpObj->ChangeUP);

  06359	8b 45 08	 mov	 eax, DWORD PTR _lpObj$[ebp]
  0635c	0f b6 88 bb 00
	00 00		 movzx	 ecx, BYTE PTR [eax+187]
  06363	51		 push	 ecx
  06364	8b 55 08	 mov	 edx, DWORD PTR _lpObj$[ebp]
  06367	0f b7 82 b8 00
	00 00		 movzx	 eax, WORD PTR [edx+184]
  0636e	50		 push	 eax
  0636f	8d 4d 90	 lea	 ecx, DWORD PTR _opvalue5$[ebp]
  06372	51		 push	 ecx
  06373	8d 55 94	 lea	 edx, DWORD PTR _opvalue4$[ebp]
  06376	52		 push	 edx
  06377	8d 45 98	 lea	 eax, DWORD PTR _opvalue3$[ebp]
  0637a	50		 push	 eax
  0637b	8d 4d 9c	 lea	 ecx, DWORD PTR _opvalue2$[ebp]
  0637e	51		 push	 ecx
  0637f	8d 55 a0	 lea	 edx, DWORD PTR _opvalue1$[ebp]
  06382	52		 push	 edx
  06383	8d 45 a4	 lea	 eax, DWORD PTR _op5$[ebp]
  06386	50		 push	 eax
  06387	8d 4d a8	 lea	 ecx, DWORD PTR _op4$[ebp]
  0638a	51		 push	 ecx
  0638b	8d 55 ac	 lea	 edx, DWORD PTR _op3$[ebp]
  0638e	52		 push	 edx
  0638f	8d 45 b0	 lea	 eax, DWORD PTR _op2$[ebp]
  06392	50		 push	 eax
  06393	8d 4d b4	 lea	 ecx, DWORD PTR _op1$[ebp]
  06396	51		 push	 ecx
  06397	8b 95 78 ff ff
	ff		 mov	 edx, DWORD PTR _OptionTableIndex$233116[ebp]
  0639d	52		 push	 edx
  0639e	b9 00 00 00 00	 mov	 ecx, OFFSET ?gSetItemOption@@3VCSetItemOption@@A ; gSetItemOption
  063a3	e8 00 00 00 00	 call	 ?GetGetFullSetOption@CSetItemOption@@QAEHHAAH000000000HH@Z ; CSetItemOption::GetGetFullSetOption

; 1853 : 
; 1854 : 				gObjSetItemPlusSpecial(lpObj, op1, opvalue1);

  063a8	8b 45 a0	 mov	 eax, DWORD PTR _opvalue1$[ebp]
  063ab	50		 push	 eax
  063ac	8b 4d b4	 mov	 ecx, DWORD PTR _op1$[ebp]
  063af	51		 push	 ecx
  063b0	8b 55 08	 mov	 edx, DWORD PTR _lpObj$[ebp]
  063b3	52		 push	 edx
  063b4	e8 00 00 00 00	 call	 ?gObjSetItemPlusSpecial@@YAXPAUOBJECTSTRUCT@@HH@Z ; gObjSetItemPlusSpecial
  063b9	83 c4 0c	 add	 esp, 12			; 0000000cH

; 1855 : 				gObjSetItemPlusSpecial(lpObj, op2, opvalue2);

  063bc	8b 45 9c	 mov	 eax, DWORD PTR _opvalue2$[ebp]
  063bf	50		 push	 eax
  063c0	8b 4d b0	 mov	 ecx, DWORD PTR _op2$[ebp]
  063c3	51		 push	 ecx
  063c4	8b 55 08	 mov	 edx, DWORD PTR _lpObj$[ebp]
  063c7	52		 push	 edx
  063c8	e8 00 00 00 00	 call	 ?gObjSetItemPlusSpecial@@YAXPAUOBJECTSTRUCT@@HH@Z ; gObjSetItemPlusSpecial
  063cd	83 c4 0c	 add	 esp, 12			; 0000000cH

; 1856 : 				gObjSetItemPlusSpecial(lpObj, op3, opvalue3);

  063d0	8b 45 98	 mov	 eax, DWORD PTR _opvalue3$[ebp]
  063d3	50		 push	 eax
  063d4	8b 4d ac	 mov	 ecx, DWORD PTR _op3$[ebp]
  063d7	51		 push	 ecx
  063d8	8b 55 08	 mov	 edx, DWORD PTR _lpObj$[ebp]
  063db	52		 push	 edx
  063dc	e8 00 00 00 00	 call	 ?gObjSetItemPlusSpecial@@YAXPAUOBJECTSTRUCT@@HH@Z ; gObjSetItemPlusSpecial
  063e1	83 c4 0c	 add	 esp, 12			; 0000000cH

; 1857 : 				gObjSetItemPlusSpecial(lpObj, op4, opvalue4);

  063e4	8b 45 94	 mov	 eax, DWORD PTR _opvalue4$[ebp]
  063e7	50		 push	 eax
  063e8	8b 4d a8	 mov	 ecx, DWORD PTR _op4$[ebp]
  063eb	51		 push	 ecx
  063ec	8b 55 08	 mov	 edx, DWORD PTR _lpObj$[ebp]
  063ef	52		 push	 edx
  063f0	e8 00 00 00 00	 call	 ?gObjSetItemPlusSpecial@@YAXPAUOBJECTSTRUCT@@HH@Z ; gObjSetItemPlusSpecial
  063f5	83 c4 0c	 add	 esp, 12			; 0000000cH

; 1858 : 				gObjSetItemPlusSpecial(lpObj, op5, opvalue5);

  063f8	8b 45 90	 mov	 eax, DWORD PTR _opvalue5$[ebp]
  063fb	50		 push	 eax
  063fc	8b 4d a4	 mov	 ecx, DWORD PTR _op5$[ebp]
  063ff	51		 push	 ecx
  06400	8b 55 08	 mov	 edx, DWORD PTR _lpObj$[ebp]
  06403	52		 push	 edx
  06404	e8 00 00 00 00	 call	 ?gObjSetItemPlusSpecial@@YAXPAUOBJECTSTRUCT@@HH@Z ; gObjSetItemPlusSpecial
  06409	83 c4 0c	 add	 esp, 12			; 0000000cH
$LN6@gObjCalcSe@2:

; 1859 : 
; 1860 : 				/*if(g_bAbilityDebug == 1)
; 1861 : 				{
; 1862 : 					char szTemp[256];
; 1863 : 					strcpy(szTemp, "Apply FullSet Option");
; 1864 : 					GCServerMsgStringSend(szTemp, lpObj->m_Index, 1);
; 1865 : 				}*/
; 1866 : 			}		
; 1867 : 		}
; 1868 : 	}

  0640c	e9 fb fd ff ff	 jmp	 $LN8@gObjCalcSe@2
$LN19@gObjCalcSe@2:

; 1869 : }

  06411	5f		 pop	 edi
  06412	5e		 pop	 esi
  06413	5b		 pop	 ebx
  06414	8b 4d fc	 mov	 ecx, DWORD PTR __$ArrayPad$[ebp]
  06417	33 cd		 xor	 ecx, ebp
  06419	e8 00 00 00 00	 call	 @__security_check_cookie@4
  0641e	8b e5		 mov	 esp, ebp
  06420	5d		 pop	 ebp
  06421	c3		 ret	 0
?gObjCalcSetItemOption@@YAXPAUOBJECTSTRUCT@@@Z ENDP	; gObjCalcSetItemOption
; Function compile flags: /Odtp /ZI
tv66 = -68						; size = 4
_lpObj$ = 8						; size = 4
_option$ = 12						; size = 4
_ivalue$ = 16						; size = 4
?gObjSetItemStatPlusSpecial@@YAXPAUOBJECTSTRUCT@@HH@Z PROC ; gObjSetItemStatPlusSpecial

; 1872 : {

  06430	55		 push	 ebp
  06431	8b ec		 mov	 ebp, esp
  06433	83 ec 44	 sub	 esp, 68			; 00000044H
  06436	53		 push	 ebx
  06437	56		 push	 esi
  06438	57		 push	 edi

; 1873 : 	if ( option == -1 )

  06439	83 7d 0c ff	 cmp	 DWORD PTR _option$[ebp], -1
  0643d	75 05		 jne	 SHORT $LN9@gObjSetIte

; 1874 : 		return;

  0643f	e9 ac 00 00 00	 jmp	 $LN10@gObjSetIte
$LN9@gObjSetIte:

; 1875 : 
; 1876 : 	if(ivalue <= 0)

  06444	83 7d 10 00	 cmp	 DWORD PTR _ivalue$[ebp], 0
  06448	7f 05		 jg	 SHORT $LN8@gObjSetIte

; 1877 : 	{
; 1878 : 		return;

  0644a	e9 a1 00 00 00	 jmp	 $LN10@gObjSetIte
$LN8@gObjSetIte:

; 1879 : 	}
; 1880 : 
; 1881 : 	switch ( option )

  0644f	8b 45 0c	 mov	 eax, DWORD PTR _option$[ebp]
  06452	89 45 bc	 mov	 DWORD PTR tv66[ebp], eax
  06455	8b 4d bc	 mov	 ecx, DWORD PTR tv66[ebp]
  06458	81 e9 a0 00 00
	00		 sub	 ecx, 160		; 000000a0H
  0645e	89 4d bc	 mov	 DWORD PTR tv66[ebp], ecx
  06461	83 7d bc 04	 cmp	 DWORD PTR tv66[ebp], 4
  06465	0f 87 85 00 00
	00		 ja	 $LN10@gObjSetIte
  0646b	8b 55 bc	 mov	 edx, DWORD PTR tv66[ebp]
  0646e	ff 24 95 00 00
	00 00		 jmp	 DWORD PTR $LN12@gObjSetIte[edx*4]
$LN5@gObjSetIte:

; 1882 : 	{
; 1883 : 		case AT_SET_OPTION_IMPROVE_STRENGTH:
; 1884 : 			lpObj->AddStrength += ivalue;

  06475	8b 45 08	 mov	 eax, DWORD PTR _lpObj$[ebp]
  06478	0f bf 88 20 01
	00 00		 movsx	 ecx, WORD PTR [eax+288]
  0647f	03 4d 10	 add	 ecx, DWORD PTR _ivalue$[ebp]
  06482	8b 55 08	 mov	 edx, DWORD PTR _lpObj$[ebp]
  06485	66 89 8a 20 01
	00 00		 mov	 WORD PTR [edx+288], cx

; 1885 : 			break;

  0648c	eb 62		 jmp	 SHORT $LN10@gObjSetIte
$LN4@gObjSetIte:

; 1886 : 		case AT_SET_OPTION_IMPROVE_DEXTERITY:
; 1887 : 			lpObj->AddDexterity += ivalue;

  0648e	8b 45 08	 mov	 eax, DWORD PTR _lpObj$[ebp]
  06491	0f bf 88 22 01
	00 00		 movsx	 ecx, WORD PTR [eax+290]
  06498	03 4d 10	 add	 ecx, DWORD PTR _ivalue$[ebp]
  0649b	8b 55 08	 mov	 edx, DWORD PTR _lpObj$[ebp]
  0649e	66 89 8a 22 01
	00 00		 mov	 WORD PTR [edx+290], cx

; 1888 : 			break;

  064a5	eb 49		 jmp	 SHORT $LN10@gObjSetIte
$LN3@gObjSetIte:

; 1889 : 		case AT_SET_OPTION_IMPROVE_ENERGY:
; 1890 : 			lpObj->AddEnergy += ivalue;

  064a7	8b 45 08	 mov	 eax, DWORD PTR _lpObj$[ebp]
  064aa	0f bf 88 26 01
	00 00		 movsx	 ecx, WORD PTR [eax+294]
  064b1	03 4d 10	 add	 ecx, DWORD PTR _ivalue$[ebp]
  064b4	8b 55 08	 mov	 edx, DWORD PTR _lpObj$[ebp]
  064b7	66 89 8a 26 01
	00 00		 mov	 WORD PTR [edx+294], cx

; 1891 : 			break;

  064be	eb 30		 jmp	 SHORT $LN10@gObjSetIte
$LN2@gObjSetIte:

; 1892 : 		case AT_SET_OPTION_IMPROVE_VITALITY:
; 1893 : 			lpObj->AddVitality += ivalue;

  064c0	8b 45 08	 mov	 eax, DWORD PTR _lpObj$[ebp]
  064c3	0f bf 88 24 01
	00 00		 movsx	 ecx, WORD PTR [eax+292]
  064ca	03 4d 10	 add	 ecx, DWORD PTR _ivalue$[ebp]
  064cd	8b 55 08	 mov	 edx, DWORD PTR _lpObj$[ebp]
  064d0	66 89 8a 24 01
	00 00		 mov	 WORD PTR [edx+292], cx

; 1894 : 			break;

  064d7	eb 17		 jmp	 SHORT $LN10@gObjSetIte
$LN1@gObjSetIte:

; 1895 : 		case AT_SET_OPTION_IMPROVE_LEADERSHIP: //season4 add-on
; 1896 : 			lpObj->AddLeadership += ivalue;

  064d9	8b 45 08	 mov	 eax, DWORD PTR _lpObj$[ebp]
  064dc	0f b7 88 1a 01
	00 00		 movzx	 ecx, WORD PTR [eax+282]
  064e3	03 4d 10	 add	 ecx, DWORD PTR _ivalue$[ebp]
  064e6	8b 55 08	 mov	 edx, DWORD PTR _lpObj$[ebp]
  064e9	66 89 8a 1a 01
	00 00		 mov	 WORD PTR [edx+282], cx
$LN10@gObjSetIte:

; 1897 : 			break;
; 1898 : 	}
; 1899 : }

  064f0	5f		 pop	 edi
  064f1	5e		 pop	 esi
  064f2	5b		 pop	 ebx
  064f3	8b e5		 mov	 esp, ebp
  064f5	5d		 pop	 ebp
  064f6	c3		 ret	 0
  064f7	90		 npad	 1
$LN12@gObjSetIte:
  064f8	00 00 00 00	 DD	 $LN5@gObjSetIte
  064fc	00 00 00 00	 DD	 $LN4@gObjSetIte
  06500	00 00 00 00	 DD	 $LN3@gObjSetIte
  06504	00 00 00 00	 DD	 $LN2@gObjSetIte
  06508	00 00 00 00	 DD	 $LN1@gObjSetIte
?gObjSetItemStatPlusSpecial@@YAXPAUOBJECTSTRUCT@@HH@Z ENDP ; gObjSetItemStatPlusSpecial
; Function compile flags: /Odtp /ZI
tv66 = -68						; size = 4
_lpObj$ = 8						; size = 4
_option$ = 12						; size = 4
_ivalue$ = 16						; size = 4
?gObjSetItemPlusSpecial@@YAXPAUOBJECTSTRUCT@@HH@Z PROC	; gObjSetItemPlusSpecial

; 1902 : {

  06510	55		 push	 ebp
  06511	8b ec		 mov	 ebp, esp
  06513	83 ec 44	 sub	 esp, 68			; 00000044H
  06516	53		 push	 ebx
  06517	56		 push	 esi
  06518	57		 push	 edi

; 1903 : 	if ( option == -1 )

  06519	83 7d 0c ff	 cmp	 DWORD PTR _option$[ebp], -1
  0651d	75 05		 jne	 SHORT $LN35@gObjSetIte@2

; 1904 : 		return;

  0651f	e9 ec 03 00 00	 jmp	 $LN36@gObjSetIte@2
$LN35@gObjSetIte@2:

; 1905 : 
; 1906 : 	if(ivalue <= 0)

  06524	83 7d 10 00	 cmp	 DWORD PTR _ivalue$[ebp], 0
  06528	7f 05		 jg	 SHORT $LN34@gObjSetIte@2

; 1907 : 	{
; 1908 : 		return;

  0652a	e9 e1 03 00 00	 jmp	 $LN36@gObjSetIte@2
$LN34@gObjSetIte@2:

; 1909 : 	}
; 1910 : 
; 1911 : 	switch ( option )

  0652f	8b 45 0c	 mov	 eax, DWORD PTR _option$[ebp]
  06532	89 45 bc	 mov	 DWORD PTR tv66[ebp], eax
  06535	8b 4d bc	 mov	 ecx, DWORD PTR tv66[ebp]
  06538	81 e9 a5 00 00
	00		 sub	 ecx, 165		; 000000a5H
  0653e	89 4d bc	 mov	 DWORD PTR tv66[ebp], ecx
  06541	83 7d bc 1e	 cmp	 DWORD PTR tv66[ebp], 30	; 0000001eH
  06545	0f 87 c5 03 00
	00		 ja	 $LN36@gObjSetIte@2
  0654b	8b 55 bc	 mov	 edx, DWORD PTR tv66[ebp]
  0654e	ff 24 95 00 00
	00 00		 jmp	 DWORD PTR $LN38@gObjSetIte@2[edx*4]
$LN31@gObjSetIte@2:

; 1912 : 	{
; 1913 : 		case AT_SET_OPTION_DOUBLE_DAMAGE:
; 1914 : 			lpObj->SetOpDoubleDamage += ivalue;

  06555	8b 45 08	 mov	 eax, DWORD PTR _lpObj$[ebp]
  06558	0f b6 88 3f 11
	00 00		 movzx	 ecx, BYTE PTR [eax+4415]
  0655f	03 4d 10	 add	 ecx, DWORD PTR _ivalue$[ebp]
  06562	8b 55 08	 mov	 edx, DWORD PTR _lpObj$[ebp]
  06565	88 8a 3f 11 00
	00		 mov	 BYTE PTR [edx+4415], cl

; 1915 : 			break;

  0656b	e9 a0 03 00 00	 jmp	 $LN36@gObjSetIte@2
$LN30@gObjSetIte@2:

; 1916 : 		case AT_SET_OPTION_IMPROVE_SHIELD_DEFENCE:
; 1917 : 			lpObj->SetOpImproveSheldDefence += ivalue;

  06570	8b 45 08	 mov	 eax, DWORD PTR _lpObj$[ebp]
  06573	0f b6 88 43 11
	00 00		 movzx	 ecx, BYTE PTR [eax+4419]
  0657a	03 4d 10	 add	 ecx, DWORD PTR _ivalue$[ebp]
  0657d	8b 55 08	 mov	 edx, DWORD PTR _lpObj$[ebp]
  06580	88 8a 43 11 00
	00		 mov	 BYTE PTR [edx+4419], cl

; 1918 : 			break;

  06586	e9 85 03 00 00	 jmp	 $LN36@gObjSetIte@2
$LN29@gObjSetIte@2:

; 1919 : 		case AT_SET_OPTION_TWO_HAND_SWORD_IMPROVE_DAMAGE:
; 1920 : 			lpObj->SetOpTwoHandSwordImproveDamage += ivalue;

  0658b	8b 45 08	 mov	 eax, DWORD PTR _lpObj$[ebp]
  0658e	0f b6 88 40 11
	00 00		 movzx	 ecx, BYTE PTR [eax+4416]
  06595	03 4d 10	 add	 ecx, DWORD PTR _ivalue$[ebp]
  06598	8b 55 08	 mov	 edx, DWORD PTR _lpObj$[ebp]
  0659b	88 8a 40 11 00
	00		 mov	 BYTE PTR [edx+4416], cl

; 1921 : 			break;

  065a1	e9 6a 03 00 00	 jmp	 $LN36@gObjSetIte@2
$LN28@gObjSetIte@2:

; 1922 : 		case AT_SET_OPTION_IMPROVE_MINATTACKDAMAGE:
; 1923 : 			lpObj->SetOpAddMinAttackDamage += ivalue;

  065a6	8b 45 08	 mov	 eax, DWORD PTR _lpObj$[ebp]
  065a9	0f bf 88 32 11
	00 00		 movsx	 ecx, WORD PTR [eax+4402]
  065b0	03 4d 10	 add	 ecx, DWORD PTR _ivalue$[ebp]
  065b3	8b 55 08	 mov	 edx, DWORD PTR _lpObj$[ebp]
  065b6	66 89 8a 32 11
	00 00		 mov	 WORD PTR [edx+4402], cx

; 1924 : 			break;

  065bd	e9 4e 03 00 00	 jmp	 $LN36@gObjSetIte@2
$LN27@gObjSetIte@2:

; 1925 : 		case AT_SET_OPTION_IMPROVE_MAXATTACKDAMAGE:
; 1926 : 			lpObj->SetOpAddMaxAttackDamage += ivalue;

  065c2	8b 45 08	 mov	 eax, DWORD PTR _lpObj$[ebp]
  065c5	0f bf 88 34 11
	00 00		 movsx	 ecx, WORD PTR [eax+4404]
  065cc	03 4d 10	 add	 ecx, DWORD PTR _ivalue$[ebp]
  065cf	8b 55 08	 mov	 edx, DWORD PTR _lpObj$[ebp]
  065d2	66 89 8a 34 11
	00 00		 mov	 WORD PTR [edx+4404], cx

; 1927 : 			break;

  065d9	e9 32 03 00 00	 jmp	 $LN36@gObjSetIte@2
$LN26@gObjSetIte@2:

; 1928 : 		case AT_SET_OPTION_IMPROVE_MAGICDAMAGE:
; 1929 : 			lpObj->SetOpAddMagicPower += ivalue;

  065de	8b 45 08	 mov	 eax, DWORD PTR _lpObj$[ebp]
  065e1	0f bf 88 3c 11
	00 00		 movsx	 ecx, WORD PTR [eax+4412]
  065e8	03 4d 10	 add	 ecx, DWORD PTR _ivalue$[ebp]
  065eb	8b 55 08	 mov	 edx, DWORD PTR _lpObj$[ebp]
  065ee	66 89 8a 3c 11
	00 00		 mov	 WORD PTR [edx+4412], cx

; 1930 : 			break;

  065f5	e9 16 03 00 00	 jmp	 $LN36@gObjSetIte@2
$LN25@gObjSetIte@2:

; 1931 : 		case AT_SET_OPTION_IMPROVE_DAMAGE:
; 1932 : 			lpObj->SetOpAddDamage += ivalue;

  065fa	8b 45 08	 mov	 eax, DWORD PTR _lpObj$[ebp]
  065fd	0f bf 88 30 11
	00 00		 movsx	 ecx, WORD PTR [eax+4400]
  06604	03 4d 10	 add	 ecx, DWORD PTR _ivalue$[ebp]
  06607	8b 55 08	 mov	 edx, DWORD PTR _lpObj$[ebp]
  0660a	66 89 8a 30 11
	00 00		 mov	 WORD PTR [edx+4400], cx

; 1933 : 			break;

  06611	e9 fa 02 00 00	 jmp	 $LN36@gObjSetIte@2
$LN24@gObjSetIte@2:

; 1934 : 		case AT_SET_OPTION_IMPROVE_ATTACKRATE:
; 1935 : 			lpObj->SetOpImproveSuccessAttackRate += ivalue;

  06616	8b 45 08	 mov	 eax, DWORD PTR _lpObj$[ebp]
  06619	0f b6 88 41 11
	00 00		 movzx	 ecx, BYTE PTR [eax+4417]
  06620	03 4d 10	 add	 ecx, DWORD PTR _ivalue$[ebp]
  06623	8b 55 08	 mov	 edx, DWORD PTR _lpObj$[ebp]
  06626	88 8a 41 11 00
	00		 mov	 BYTE PTR [edx+4417], cl

; 1936 : 			break;

  0662c	e9 df 02 00 00	 jmp	 $LN36@gObjSetIte@2
$LN23@gObjSetIte@2:

; 1937 : 		case AT_SET_OPTION_IMPROVE_DEFENCE:
; 1938 : 			lpObj->SetOpAddDefence += ivalue;

  06631	8b 45 08	 mov	 eax, DWORD PTR _lpObj$[ebp]
  06634	0f bf 88 38 11
	00 00		 movsx	 ecx, WORD PTR [eax+4408]
  0663b	03 4d 10	 add	 ecx, DWORD PTR _ivalue$[ebp]
  0663e	8b 55 08	 mov	 edx, DWORD PTR _lpObj$[ebp]
  06641	66 89 8a 38 11
	00 00		 mov	 WORD PTR [edx+4408], cx

; 1939 : 			break;

  06648	e9 c3 02 00 00	 jmp	 $LN36@gObjSetIte@2
$LN22@gObjSetIte@2:

; 1940 : 		case AT_SET_OPTION_DEFENCE_IGNORE:
; 1941 : 			lpObj->SetOpIgnoreDefense += ivalue;

  0664d	8b 45 08	 mov	 eax, DWORD PTR _lpObj$[ebp]
  06650	0f b6 88 3e 11
	00 00		 movzx	 ecx, BYTE PTR [eax+4414]
  06657	03 4d 10	 add	 ecx, DWORD PTR _ivalue$[ebp]
  0665a	8b 55 08	 mov	 edx, DWORD PTR _lpObj$[ebp]
  0665d	88 8a 3e 11 00
	00		 mov	 BYTE PTR [edx+4414], cl

; 1942 : 			break;

  06663	e9 a8 02 00 00	 jmp	 $LN36@gObjSetIte@2
$LN21@gObjSetIte@2:

; 1943 : 		case AT_SET_OPTION_IMPROVE_MAXLIFE:
; 1944 : 			lpObj->AddLife += ivalue;

  06668	8b 45 08	 mov	 eax, DWORD PTR _lpObj$[ebp]
  0666b	8b 88 4c 01 00
	00		 mov	 ecx, DWORD PTR [eax+332]
  06671	03 4d 10	 add	 ecx, DWORD PTR _ivalue$[ebp]
  06674	8b 55 08	 mov	 edx, DWORD PTR _lpObj$[ebp]
  06677	89 8a 4c 01 00
	00		 mov	 DWORD PTR [edx+332], ecx

; 1945 : 			break;

  0667d	e9 8e 02 00 00	 jmp	 $LN36@gObjSetIte@2
$LN20@gObjSetIte@2:

; 1946 : 		case AT_SET_OPTION_IMPROVE_MAXMANA:
; 1947 : 			lpObj->AddMana += ivalue;

  06682	8b 45 08	 mov	 eax, DWORD PTR _lpObj$[ebp]
  06685	8b 88 50 01 00
	00		 mov	 ecx, DWORD PTR [eax+336]
  0668b	03 4d 10	 add	 ecx, DWORD PTR _ivalue$[ebp]
  0668e	8b 55 08	 mov	 edx, DWORD PTR _lpObj$[ebp]
  06691	89 8a 50 01 00
	00		 mov	 DWORD PTR [edx+336], ecx

; 1948 : 			break;

  06697	e9 74 02 00 00	 jmp	 $LN36@gObjSetIte@2
$LN19@gObjSetIte@2:

; 1949 : 		case AT_SET_OPTION_IMPROVE_MAXAG:
; 1950 : 			lpObj->AddBP += ivalue;

  0669c	8b 45 08	 mov	 eax, DWORD PTR _lpObj$[ebp]
  0669f	8b 88 30 01 00
	00		 mov	 ecx, DWORD PTR [eax+304]
  066a5	03 4d 10	 add	 ecx, DWORD PTR _ivalue$[ebp]
  066a8	8b 55 08	 mov	 edx, DWORD PTR _lpObj$[ebp]
  066ab	89 8a 30 01 00
	00		 mov	 DWORD PTR [edx+304], ecx

; 1951 : 			break;

  066b1	e9 5a 02 00 00	 jmp	 $LN36@gObjSetIte@2
$LN18@gObjSetIte@2:

; 1952 : 		case AT_SET_OPTION_IMPROVE_AG_VALUE:
; 1953 : 			lpObj->SetOpIncAGValue += ivalue;

  066b6	8b 45 08	 mov	 eax, DWORD PTR _lpObj$[ebp]
  066b9	0f bf 88 2e 11
	00 00		 movsx	 ecx, WORD PTR [eax+4398]
  066c0	03 4d 10	 add	 ecx, DWORD PTR _ivalue$[ebp]
  066c3	8b 55 08	 mov	 edx, DWORD PTR _lpObj$[ebp]
  066c6	66 89 8a 2e 11
	00 00		 mov	 WORD PTR [edx+4398], cx

; 1954 : 			break;

  066cd	e9 3e 02 00 00	 jmp	 $LN36@gObjSetIte@2
$LN17@gObjSetIte@2:

; 1955 : 		case AT_SET_OPTION_IMPROVE_CRITICALDAMAGE:
; 1956 : 			lpObj->SetOpAddCriticalDamage += ivalue;

  066d2	8b 45 08	 mov	 eax, DWORD PTR _lpObj$[ebp]
  066d5	0f bf 88 2a 11
	00 00		 movsx	 ecx, WORD PTR [eax+4394]
  066dc	03 4d 10	 add	 ecx, DWORD PTR _ivalue$[ebp]
  066df	8b 55 08	 mov	 edx, DWORD PTR _lpObj$[ebp]
  066e2	66 89 8a 2a 11
	00 00		 mov	 WORD PTR [edx+4394], cx

; 1957 : 			break;

  066e9	e9 22 02 00 00	 jmp	 $LN36@gObjSetIte@2
$LN16@gObjSetIte@2:

; 1958 : 		case AT_SET_OPTION_IMPROVE_CRITICALDAMAGE_SUCCESS:
; 1959 : 			lpObj->SetOpAddCriticalDamageSuccessRate += ivalue;

  066ee	8b 45 08	 mov	 eax, DWORD PTR _lpObj$[ebp]
  066f1	0f bf 88 2c 11
	00 00		 movsx	 ecx, WORD PTR [eax+4396]
  066f8	03 4d 10	 add	 ecx, DWORD PTR _ivalue$[ebp]
  066fb	8b 55 08	 mov	 edx, DWORD PTR _lpObj$[ebp]
  066fe	66 89 8a 2c 11
	00 00		 mov	 WORD PTR [edx+4396], cx

; 1960 : 			break;

  06705	e9 06 02 00 00	 jmp	 $LN36@gObjSetIte@2
$LN15@gObjSetIte@2:

; 1961 : 		case AT_SET_OPTION_IMPROVE_EX_DAMAGE:
; 1962 : 			lpObj->SetOpAddExDamage += ivalue;

  0670a	8b 45 08	 mov	 eax, DWORD PTR _lpObj$[ebp]
  0670d	0f bf 88 26 11
	00 00		 movsx	 ecx, WORD PTR [eax+4390]
  06714	03 4d 10	 add	 ecx, DWORD PTR _ivalue$[ebp]
  06717	8b 55 08	 mov	 edx, DWORD PTR _lpObj$[ebp]
  0671a	66 89 8a 26 11
	00 00		 mov	 WORD PTR [edx+4390], cx

; 1963 : 			break;

  06721	e9 ea 01 00 00	 jmp	 $LN36@gObjSetIte@2
$LN14@gObjSetIte@2:

; 1964 : 		case AT_SET_OPTION_IMPROVE_EX_DAMAGE_SUCCESS:
; 1965 : 			lpObj->SetOpAddExDamageSuccessRate += ivalue;

  06726	8b 45 08	 mov	 eax, DWORD PTR _lpObj$[ebp]
  06729	0f bf 88 28 11
	00 00		 movsx	 ecx, WORD PTR [eax+4392]
  06730	03 4d 10	 add	 ecx, DWORD PTR _ivalue$[ebp]
  06733	8b 55 08	 mov	 edx, DWORD PTR _lpObj$[ebp]
  06736	66 89 8a 28 11
	00 00		 mov	 WORD PTR [edx+4392], cx

; 1966 : 			break;

  0673d	e9 ce 01 00 00	 jmp	 $LN36@gObjSetIte@2
$LN13@gObjSetIte@2:

; 1967 : 		case AT_SET_OPTION_IMPROVE_SKILLDAMAGE:
; 1968 : 			lpObj->SetOpAddSkillAttack += ivalue;

  06742	8b 45 08	 mov	 eax, DWORD PTR _lpObj$[ebp]
  06745	0f bf 88 24 11
	00 00		 movsx	 ecx, WORD PTR [eax+4388]
  0674c	03 4d 10	 add	 ecx, DWORD PTR _ivalue$[ebp]
  0674f	8b 55 08	 mov	 edx, DWORD PTR _lpObj$[ebp]
  06752	66 89 8a 24 11
	00 00		 mov	 WORD PTR [edx+4388], cx

; 1969 : 			break;

  06759	e9 b2 01 00 00	 jmp	 $LN36@gObjSetIte@2
$LN12@gObjSetIte@2:

; 1970 : 		case AT_SET_OPTION_IMPROVE_ATTACKDAMAGE_WITH_DEX:
; 1971 : 			lpObj->SetOpAddAttackDamage += ( lpObj->Dexterity + lpObj->AddDexterity ) / ivalue;

  0675e	8b 45 08	 mov	 eax, DWORD PTR _lpObj$[ebp]
  06761	0f b7 80 f6 00
	00 00		 movzx	 eax, WORD PTR [eax+246]
  06768	8b 4d 08	 mov	 ecx, DWORD PTR _lpObj$[ebp]
  0676b	0f bf 91 22 01
	00 00		 movsx	 edx, WORD PTR [ecx+290]
  06772	03 c2		 add	 eax, edx
  06774	99		 cdq
  06775	f7 7d 10	 idiv	 DWORD PTR _ivalue$[ebp]
  06778	8b 4d 08	 mov	 ecx, DWORD PTR _lpObj$[ebp]
  0677b	0f bf 91 36 11
	00 00		 movsx	 edx, WORD PTR [ecx+4406]
  06782	03 d0		 add	 edx, eax
  06784	8b 45 08	 mov	 eax, DWORD PTR _lpObj$[ebp]
  06787	66 89 90 36 11
	00 00		 mov	 WORD PTR [eax+4406], dx

; 1972 : 			break;

  0678e	e9 7d 01 00 00	 jmp	 $LN36@gObjSetIte@2
$LN11@gObjSetIte@2:

; 1973 : 		case AT_SET_OPTION_IMPROVE_ATTACKDAMAGE_WITH_STR:
; 1974 : 			lpObj->SetOpAddAttackDamage += ( lpObj->Strength + lpObj->AddStrength ) / ivalue;

  06793	8b 45 08	 mov	 eax, DWORD PTR _lpObj$[ebp]
  06796	0f b7 80 f4 00
	00 00		 movzx	 eax, WORD PTR [eax+244]
  0679d	8b 4d 08	 mov	 ecx, DWORD PTR _lpObj$[ebp]
  067a0	0f bf 91 20 01
	00 00		 movsx	 edx, WORD PTR [ecx+288]
  067a7	03 c2		 add	 eax, edx
  067a9	99		 cdq
  067aa	f7 7d 10	 idiv	 DWORD PTR _ivalue$[ebp]
  067ad	8b 4d 08	 mov	 ecx, DWORD PTR _lpObj$[ebp]
  067b0	0f bf 91 36 11
	00 00		 movsx	 edx, WORD PTR [ecx+4406]
  067b7	03 d0		 add	 edx, eax
  067b9	8b 45 08	 mov	 eax, DWORD PTR _lpObj$[ebp]
  067bc	66 89 90 36 11
	00 00		 mov	 WORD PTR [eax+4406], dx

; 1975 : 			break;

  067c3	e9 48 01 00 00	 jmp	 $LN36@gObjSetIte@2
$LN10@gObjSetIte@2:

; 1976 : 		case AT_SET_OPTION_IMPROVE_MAGICDAMAGE_WITH_ENERGY:
; 1977 : 			lpObj->SetOpAddMagicPower += ( lpObj->Energy + lpObj->AddEnergy ) / ivalue;

  067c8	8b 45 08	 mov	 eax, DWORD PTR _lpObj$[ebp]
  067cb	0f b7 80 fa 00
	00 00		 movzx	 eax, WORD PTR [eax+250]
  067d2	8b 4d 08	 mov	 ecx, DWORD PTR _lpObj$[ebp]
  067d5	0f bf 91 26 01
	00 00		 movsx	 edx, WORD PTR [ecx+294]
  067dc	03 c2		 add	 eax, edx
  067de	99		 cdq
  067df	f7 7d 10	 idiv	 DWORD PTR _ivalue$[ebp]
  067e2	8b 4d 08	 mov	 ecx, DWORD PTR _lpObj$[ebp]
  067e5	0f bf 91 3c 11
	00 00		 movsx	 edx, WORD PTR [ecx+4412]
  067ec	03 d0		 add	 edx, eax
  067ee	8b 45 08	 mov	 eax, DWORD PTR _lpObj$[ebp]
  067f1	66 89 90 3c 11
	00 00		 mov	 WORD PTR [eax+4412], dx

; 1978 : 			break;

  067f8	e9 13 01 00 00	 jmp	 $LN36@gObjSetIte@2
$LN9@gObjSetIte@2:

; 1979 : 		case AT_SET_OPTION_IMPROVE_DEFENCE_WITH_DEX:
; 1980 : 			lpObj->SetOpAddDefence += lpObj->Dexterity + ( lpObj->AddDexterity  / ivalue );

  067fd	8b 45 08	 mov	 eax, DWORD PTR _lpObj$[ebp]
  06800	0f b7 88 f6 00
	00 00		 movzx	 ecx, WORD PTR [eax+246]
  06807	8b 55 08	 mov	 edx, DWORD PTR _lpObj$[ebp]
  0680a	0f bf 82 22 01
	00 00		 movsx	 eax, WORD PTR [edx+290]
  06811	99		 cdq
  06812	f7 7d 10	 idiv	 DWORD PTR _ivalue$[ebp]
  06815	03 c8		 add	 ecx, eax
  06817	8b 45 08	 mov	 eax, DWORD PTR _lpObj$[ebp]
  0681a	0f bf 90 38 11
	00 00		 movsx	 edx, WORD PTR [eax+4408]
  06821	03 d1		 add	 edx, ecx
  06823	8b 45 08	 mov	 eax, DWORD PTR _lpObj$[ebp]
  06826	66 89 90 38 11
	00 00		 mov	 WORD PTR [eax+4408], dx

; 1981 : 			break;

  0682d	e9 de 00 00 00	 jmp	 $LN36@gObjSetIte@2
$LN8@gObjSetIte@2:

; 1982 : 		case AT_SET_OPTION_IMPROVE_DEFENCE_WITH_VIT:
; 1983 : 			lpObj->SetOpAddDefence += ( lpObj->Vitality + lpObj->AddVitality ) / ivalue;

  06832	8b 45 08	 mov	 eax, DWORD PTR _lpObj$[ebp]
  06835	0f b7 80 f8 00
	00 00		 movzx	 eax, WORD PTR [eax+248]
  0683c	8b 4d 08	 mov	 ecx, DWORD PTR _lpObj$[ebp]
  0683f	0f bf 91 24 01
	00 00		 movsx	 edx, WORD PTR [ecx+292]
  06846	03 c2		 add	 eax, edx
  06848	99		 cdq
  06849	f7 7d 10	 idiv	 DWORD PTR _ivalue$[ebp]
  0684c	8b 4d 08	 mov	 ecx, DWORD PTR _lpObj$[ebp]
  0684f	0f bf 91 38 11
	00 00		 movsx	 edx, WORD PTR [ecx+4408]
  06856	03 d0		 add	 edx, eax
  06858	8b 45 08	 mov	 eax, DWORD PTR _lpObj$[ebp]
  0685b	66 89 90 38 11
	00 00		 mov	 WORD PTR [eax+4408], dx

; 1984 : 			break;

  06862	e9 a9 00 00 00	 jmp	 $LN36@gObjSetIte@2
$LN7@gObjSetIte@2:

; 1985 : 		case AT_SET_OPTION_FIRE_MASTERY:
; 1986 : 			lpObj->m_AddResistance[R_FIRE] += ivalue;

  06867	8b 45 08	 mov	 eax, DWORD PTR _lpObj$[ebp]
  0686a	0f be 88 02 05
	00 00		 movsx	 ecx, BYTE PTR [eax+1282]
  06871	03 4d 10	 add	 ecx, DWORD PTR _ivalue$[ebp]
  06874	8b 55 08	 mov	 edx, DWORD PTR _lpObj$[ebp]
  06877	88 8a 02 05 00
	00		 mov	 BYTE PTR [edx+1282], cl

; 1987 : 			break;

  0687d	e9 8e 00 00 00	 jmp	 $LN36@gObjSetIte@2
$LN6@gObjSetIte@2:

; 1988 : 		case AT_SET_OPTION_ICE_MASTERY:
; 1989 : 			lpObj->m_AddResistance[R_ICE] += ivalue;

  06882	8b 45 08	 mov	 eax, DWORD PTR _lpObj$[ebp]
  06885	0f be 88 ff 04
	00 00		 movsx	 ecx, BYTE PTR [eax+1279]
  0688c	03 4d 10	 add	 ecx, DWORD PTR _ivalue$[ebp]
  0688f	8b 55 08	 mov	 edx, DWORD PTR _lpObj$[ebp]
  06892	88 8a ff 04 00
	00		 mov	 BYTE PTR [edx+1279], cl

; 1990 : 			break;

  06898	eb 76		 jmp	 SHORT $LN36@gObjSetIte@2
$LN5@gObjSetIte@2:

; 1991 : 		case AT_SET_OPTION_THUNDER_MASTERY:
; 1992 : 			lpObj->m_AddResistance[R_LIGHTNING] += ivalue;

  0689a	8b 45 08	 mov	 eax, DWORD PTR _lpObj$[ebp]
  0689d	0f be 88 01 05
	00 00		 movsx	 ecx, BYTE PTR [eax+1281]
  068a4	03 4d 10	 add	 ecx, DWORD PTR _ivalue$[ebp]
  068a7	8b 55 08	 mov	 edx, DWORD PTR _lpObj$[ebp]
  068aa	88 8a 01 05 00
	00		 mov	 BYTE PTR [edx+1281], cl

; 1993 : 			break;

  068b0	eb 5e		 jmp	 SHORT $LN36@gObjSetIte@2
$LN4@gObjSetIte@2:

; 1994 : 		case AT_SET_OPTION_POSION_MASTERY:
; 1995 : 			lpObj->m_AddResistance[R_POISON] += ivalue;

  068b2	8b 45 08	 mov	 eax, DWORD PTR _lpObj$[ebp]
  068b5	0f be 88 00 05
	00 00		 movsx	 ecx, BYTE PTR [eax+1280]
  068bc	03 4d 10	 add	 ecx, DWORD PTR _ivalue$[ebp]
  068bf	8b 55 08	 mov	 edx, DWORD PTR _lpObj$[ebp]
  068c2	88 8a 00 05 00
	00		 mov	 BYTE PTR [edx+1280], cl

; 1996 : 			break;

  068c8	eb 46		 jmp	 SHORT $LN36@gObjSetIte@2
$LN3@gObjSetIte@2:

; 1997 : 		case AT_SET_OPTION_WATER_MASTERY:
; 1998 : 			lpObj->m_AddResistance[R_WATER] += ivalue;

  068ca	8b 45 08	 mov	 eax, DWORD PTR _lpObj$[ebp]
  068cd	0f be 88 05 05
	00 00		 movsx	 ecx, BYTE PTR [eax+1285]
  068d4	03 4d 10	 add	 ecx, DWORD PTR _ivalue$[ebp]
  068d7	8b 55 08	 mov	 edx, DWORD PTR _lpObj$[ebp]
  068da	88 8a 05 05 00
	00		 mov	 BYTE PTR [edx+1285], cl

; 1999 : 			break;

  068e0	eb 2e		 jmp	 SHORT $LN36@gObjSetIte@2
$LN2@gObjSetIte@2:

; 2000 : 		case AT_SET_OPTION_WIND_MASTERY:
; 2001 : 			lpObj->m_AddResistance[R_WIND] += ivalue;

  068e2	8b 45 08	 mov	 eax, DWORD PTR _lpObj$[ebp]
  068e5	0f be 88 04 05
	00 00		 movsx	 ecx, BYTE PTR [eax+1284]
  068ec	03 4d 10	 add	 ecx, DWORD PTR _ivalue$[ebp]
  068ef	8b 55 08	 mov	 edx, DWORD PTR _lpObj$[ebp]
  068f2	88 8a 04 05 00
	00		 mov	 BYTE PTR [edx+1284], cl

; 2002 : 			break;

  068f8	eb 16		 jmp	 SHORT $LN36@gObjSetIte@2
$LN1@gObjSetIte@2:

; 2003 : 		case AT_SET_OPTION_EARTH_MASTERY:
; 2004 : 			lpObj->m_AddResistance[R_EARTH] += ivalue;

  068fa	8b 45 08	 mov	 eax, DWORD PTR _lpObj$[ebp]
  068fd	0f be 88 03 05
	00 00		 movsx	 ecx, BYTE PTR [eax+1283]
  06904	03 4d 10	 add	 ecx, DWORD PTR _ivalue$[ebp]
  06907	8b 55 08	 mov	 edx, DWORD PTR _lpObj$[ebp]
  0690a	88 8a 03 05 00
	00		 mov	 BYTE PTR [edx+1283], cl
$LN36@gObjSetIte@2:

; 2005 : 			break;
; 2006 : 	}
; 2007 : }

  06910	5f		 pop	 edi
  06911	5e		 pop	 esi
  06912	5b		 pop	 ebx
  06913	8b e5		 mov	 esp, ebp
  06915	5d		 pop	 ebp
  06916	c3		 ret	 0
  06917	90		 npad	 1
$LN38@gObjSetIte@2:
  06918	00 00 00 00	 DD	 $LN28@gObjSetIte@2
  0691c	00 00 00 00	 DD	 $LN27@gObjSetIte@2
  06920	00 00 00 00	 DD	 $LN26@gObjSetIte@2
  06924	00 00 00 00	 DD	 $LN25@gObjSetIte@2
  06928	00 00 00 00	 DD	 $LN24@gObjSetIte@2
  0692c	00 00 00 00	 DD	 $LN23@gObjSetIte@2
  06930	00 00 00 00	 DD	 $LN21@gObjSetIte@2
  06934	00 00 00 00	 DD	 $LN20@gObjSetIte@2
  06938	00 00 00 00	 DD	 $LN19@gObjSetIte@2
  0693c	00 00 00 00	 DD	 $LN18@gObjSetIte@2
  06940	00 00 00 00	 DD	 $LN16@gObjSetIte@2
  06944	00 00 00 00	 DD	 $LN17@gObjSetIte@2
  06948	00 00 00 00	 DD	 $LN14@gObjSetIte@2
  0694c	00 00 00 00	 DD	 $LN15@gObjSetIte@2
  06950	00 00 00 00	 DD	 $LN13@gObjSetIte@2
  06954	00 00 00 00	 DD	 $LN31@gObjSetIte@2
  06958	00 00 00 00	 DD	 $LN22@gObjSetIte@2
  0695c	00 00 00 00	 DD	 $LN30@gObjSetIte@2
  06960	00 00 00 00	 DD	 $LN29@gObjSetIte@2
  06964	00 00 00 00	 DD	 $LN11@gObjSetIte@2
  06968	00 00 00 00	 DD	 $LN12@gObjSetIte@2
  0696c	00 00 00 00	 DD	 $LN9@gObjSetIte@2
  06970	00 00 00 00	 DD	 $LN8@gObjSetIte@2
  06974	00 00 00 00	 DD	 $LN10@gObjSetIte@2
  06978	00 00 00 00	 DD	 $LN6@gObjSetIte@2
  0697c	00 00 00 00	 DD	 $LN4@gObjSetIte@2
  06980	00 00 00 00	 DD	 $LN5@gObjSetIte@2
  06984	00 00 00 00	 DD	 $LN7@gObjSetIte@2
  06988	00 00 00 00	 DD	 $LN1@gObjSetIte@2
  0698c	00 00 00 00	 DD	 $LN2@gObjSetIte@2
  06990	00 00 00 00	 DD	 $LN3@gObjSetIte@2
?gObjSetItemPlusSpecial@@YAXPAUOBJECTSTRUCT@@HH@Z ENDP	; gObjSetItemPlusSpecial
_TEXT	ENDS
EXTRN	?gObjSetBP@@YAXH@Z:PROC				; gObjSetBP
EXTRN	?PlusSpecialSetRing@CItem@@QAEXPAE@Z:PROC	; CItem::PlusSpecialSetRing
EXTRN	?DCInfo@@3Vclassdef@@A:BYTE			; DCInfo
; Function compile flags: /Odtp /ZI
_TEXT	SEGMENT
tv429 = -68						; size = 4
tv420 = -68						; size = 4
_lpObj$ = 8						; size = 4
?gObjSetItemApply@@YAXPAUOBJECTSTRUCT@@@Z PROC		; gObjSetItemApply

; 2010 : {

  069a0	55		 push	 ebp
  069a1	8b ec		 mov	 ebp, esp
  069a3	83 ec 44	 sub	 esp, 68			; 00000044H
  069a6	53		 push	 ebx
  069a7	56		 push	 esi
  069a8	57		 push	 edi

; 2011 : 	lpObj->m_AttackDamageMinLeft += lpObj->SetOpAddAttackDamage;

  069a9	8b 45 08	 mov	 eax, DWORD PTR _lpObj$[ebp]
  069ac	0f bf 88 36 11
	00 00		 movsx	 ecx, WORD PTR [eax+4406]
  069b3	8b 55 08	 mov	 edx, DWORD PTR _lpObj$[ebp]
  069b6	03 8a 7c 04 00
	00		 add	 ecx, DWORD PTR [edx+1148]
  069bc	8b 45 08	 mov	 eax, DWORD PTR _lpObj$[ebp]
  069bf	89 88 7c 04 00
	00		 mov	 DWORD PTR [eax+1148], ecx

; 2012 : 	lpObj->m_AttackDamageMaxLeft += lpObj->SetOpAddAttackDamage;

  069c5	8b 45 08	 mov	 eax, DWORD PTR _lpObj$[ebp]
  069c8	0f bf 88 36 11
	00 00		 movsx	 ecx, WORD PTR [eax+4406]
  069cf	8b 55 08	 mov	 edx, DWORD PTR _lpObj$[ebp]
  069d2	03 8a 78 04 00
	00		 add	 ecx, DWORD PTR [edx+1144]
  069d8	8b 45 08	 mov	 eax, DWORD PTR _lpObj$[ebp]
  069db	89 88 78 04 00
	00		 mov	 DWORD PTR [eax+1144], ecx

; 2013 : 	lpObj->m_AttackDamageMinRight += lpObj->SetOpAddAttackDamage;

  069e1	8b 45 08	 mov	 eax, DWORD PTR _lpObj$[ebp]
  069e4	0f bf 88 36 11
	00 00		 movsx	 ecx, WORD PTR [eax+4406]
  069eb	8b 55 08	 mov	 edx, DWORD PTR _lpObj$[ebp]
  069ee	03 8a 84 04 00
	00		 add	 ecx, DWORD PTR [edx+1156]
  069f4	8b 45 08	 mov	 eax, DWORD PTR _lpObj$[ebp]
  069f7	89 88 84 04 00
	00		 mov	 DWORD PTR [eax+1156], ecx

; 2014 : 	lpObj->m_AttackDamageMaxRight += lpObj->SetOpAddAttackDamage;

  069fd	8b 45 08	 mov	 eax, DWORD PTR _lpObj$[ebp]
  06a00	0f bf 88 36 11
	00 00		 movsx	 ecx, WORD PTR [eax+4406]
  06a07	8b 55 08	 mov	 edx, DWORD PTR _lpObj$[ebp]
  06a0a	03 8a 80 04 00
	00		 add	 ecx, DWORD PTR [edx+1152]
  06a10	8b 45 08	 mov	 eax, DWORD PTR _lpObj$[ebp]
  06a13	89 88 80 04 00
	00		 mov	 DWORD PTR [eax+1152], ecx

; 2015 : 
; 2016 : 	lpObj->m_AttackDamageMinLeft += lpObj->SetOpAddMinAttackDamage;

  06a19	8b 45 08	 mov	 eax, DWORD PTR _lpObj$[ebp]
  06a1c	0f bf 88 32 11
	00 00		 movsx	 ecx, WORD PTR [eax+4402]
  06a23	8b 55 08	 mov	 edx, DWORD PTR _lpObj$[ebp]
  06a26	03 8a 7c 04 00
	00		 add	 ecx, DWORD PTR [edx+1148]
  06a2c	8b 45 08	 mov	 eax, DWORD PTR _lpObj$[ebp]
  06a2f	89 88 7c 04 00
	00		 mov	 DWORD PTR [eax+1148], ecx

; 2017 : 	lpObj->m_AttackDamageMinRight += lpObj->SetOpAddMinAttackDamage;

  06a35	8b 45 08	 mov	 eax, DWORD PTR _lpObj$[ebp]
  06a38	0f bf 88 32 11
	00 00		 movsx	 ecx, WORD PTR [eax+4402]
  06a3f	8b 55 08	 mov	 edx, DWORD PTR _lpObj$[ebp]
  06a42	03 8a 84 04 00
	00		 add	 ecx, DWORD PTR [edx+1156]
  06a48	8b 45 08	 mov	 eax, DWORD PTR _lpObj$[ebp]
  06a4b	89 88 84 04 00
	00		 mov	 DWORD PTR [eax+1156], ecx

; 2018 : 
; 2019 : 	lpObj->m_AttackDamageMaxLeft += lpObj->SetOpAddMaxAttackDamage;

  06a51	8b 45 08	 mov	 eax, DWORD PTR _lpObj$[ebp]
  06a54	0f bf 88 34 11
	00 00		 movsx	 ecx, WORD PTR [eax+4404]
  06a5b	8b 55 08	 mov	 edx, DWORD PTR _lpObj$[ebp]
  06a5e	03 8a 78 04 00
	00		 add	 ecx, DWORD PTR [edx+1144]
  06a64	8b 45 08	 mov	 eax, DWORD PTR _lpObj$[ebp]
  06a67	89 88 78 04 00
	00		 mov	 DWORD PTR [eax+1144], ecx

; 2020 : 	lpObj->m_AttackDamageMaxRight += lpObj->SetOpAddMaxAttackDamage;

  06a6d	8b 45 08	 mov	 eax, DWORD PTR _lpObj$[ebp]
  06a70	0f bf 88 34 11
	00 00		 movsx	 ecx, WORD PTR [eax+4404]
  06a77	8b 55 08	 mov	 edx, DWORD PTR _lpObj$[ebp]
  06a7a	03 8a 80 04 00
	00		 add	 ecx, DWORD PTR [edx+1152]
  06a80	8b 45 08	 mov	 eax, DWORD PTR _lpObj$[ebp]
  06a83	89 88 80 04 00
	00		 mov	 DWORD PTR [eax+1152], ecx

; 2021 : 
; 2022 : 	lpObj->m_MagicDamageMin += lpObj->m_MagicDamageMin * lpObj->SetOpAddMagicPower / 100;

  06a89	8b 45 08	 mov	 eax, DWORD PTR _lpObj$[ebp]
  06a8c	0f bf 88 3c 11
	00 00		 movsx	 ecx, WORD PTR [eax+4412]
  06a93	8b 55 08	 mov	 edx, DWORD PTR _lpObj$[ebp]
  06a96	8b c1		 mov	 eax, ecx
  06a98	0f af 82 68 04
	00 00		 imul	 eax, DWORD PTR [edx+1128]
  06a9f	99		 cdq
  06aa0	b9 64 00 00 00	 mov	 ecx, 100		; 00000064H
  06aa5	f7 f9		 idiv	 ecx
  06aa7	8b 55 08	 mov	 edx, DWORD PTR _lpObj$[ebp]
  06aaa	03 82 68 04 00
	00		 add	 eax, DWORD PTR [edx+1128]
  06ab0	8b 4d 08	 mov	 ecx, DWORD PTR _lpObj$[ebp]
  06ab3	89 81 68 04 00
	00		 mov	 DWORD PTR [ecx+1128], eax

; 2023 : 	lpObj->m_MagicDamageMax += lpObj->m_MagicDamageMax * lpObj->SetOpAddMagicPower / 100;

  06ab9	8b 45 08	 mov	 eax, DWORD PTR _lpObj$[ebp]
  06abc	0f bf 88 3c 11
	00 00		 movsx	 ecx, WORD PTR [eax+4412]
  06ac3	8b 55 08	 mov	 edx, DWORD PTR _lpObj$[ebp]
  06ac6	8b c1		 mov	 eax, ecx
  06ac8	0f af 82 6c 04
	00 00		 imul	 eax, DWORD PTR [edx+1132]
  06acf	99		 cdq
  06ad0	b9 64 00 00 00	 mov	 ecx, 100		; 00000064H
  06ad5	f7 f9		 idiv	 ecx
  06ad7	8b 55 08	 mov	 edx, DWORD PTR _lpObj$[ebp]
  06ada	03 82 6c 04 00
	00		 add	 eax, DWORD PTR [edx+1132]
  06ae0	8b 4d 08	 mov	 ecx, DWORD PTR _lpObj$[ebp]
  06ae3	89 81 6c 04 00
	00		 mov	 DWORD PTR [ecx+1132], eax

; 2024 : 
; 2025 : 	lpObj->AddLife += INT(lpObj->AddVitality * DCInfo.DefClass[lpObj->Class].VitalityToLife);

  06ae9	8b 45 08	 mov	 eax, DWORD PTR _lpObj$[ebp]
  06aec	0f bf 88 24 01
	00 00		 movsx	 ecx, WORD PTR [eax+292]
  06af3	89 4d bc	 mov	 DWORD PTR tv420[ebp], ecx
  06af6	db 45 bc	 fild	 DWORD PTR tv420[ebp]
  06af9	8b 55 08	 mov	 edx, DWORD PTR _lpObj$[ebp]
  06afc	0f b7 82 b8 00
	00 00		 movzx	 eax, WORD PTR [edx+184]
  06b03	69 c0 c8 0b 00
	00		 imul	 eax, 3016		; 00000bc8H
  06b09	d8 88 28 00 00
	00		 fmul	 DWORD PTR ?DCInfo@@3Vclassdef@@A[eax+40]
  06b0f	e8 00 00 00 00	 call	 __ftol2_sse
  06b14	8b 4d 08	 mov	 ecx, DWORD PTR _lpObj$[ebp]
  06b17	03 81 4c 01 00
	00		 add	 eax, DWORD PTR [ecx+332]
  06b1d	8b 55 08	 mov	 edx, DWORD PTR _lpObj$[ebp]
  06b20	89 82 4c 01 00
	00		 mov	 DWORD PTR [edx+332], eax

; 2026 : 	lpObj->AddMana += INT(lpObj->AddEnergy * DCInfo.DefClass[lpObj->Class].EnergyToMana);

  06b26	8b 45 08	 mov	 eax, DWORD PTR _lpObj$[ebp]
  06b29	0f bf 88 26 01
	00 00		 movsx	 ecx, WORD PTR [eax+294]
  06b30	89 4d bc	 mov	 DWORD PTR tv429[ebp], ecx
  06b33	db 45 bc	 fild	 DWORD PTR tv429[ebp]
  06b36	8b 55 08	 mov	 edx, DWORD PTR _lpObj$[ebp]
  06b39	0f b7 82 b8 00
	00 00		 movzx	 eax, WORD PTR [edx+184]
  06b40	69 c0 c8 0b 00
	00		 imul	 eax, 3016		; 00000bc8H
  06b46	d8 88 2c 00 00
	00		 fmul	 DWORD PTR ?DCInfo@@3Vclassdef@@A[eax+44]
  06b4c	e8 00 00 00 00	 call	 __ftol2_sse
  06b51	8b 4d 08	 mov	 ecx, DWORD PTR _lpObj$[ebp]
  06b54	03 81 50 01 00
	00		 add	 eax, DWORD PTR [ecx+336]
  06b5a	8b 55 08	 mov	 edx, DWORD PTR _lpObj$[ebp]
  06b5d	89 82 50 01 00
	00		 mov	 DWORD PTR [edx+336], eax

; 2027 : 
; 2028 : 	lpObj->m_CriticalDamage += lpObj->SetOpAddCriticalDamageSuccessRate;

  06b63	8b 45 08	 mov	 eax, DWORD PTR _lpObj$[ebp]
  06b66	0f bf 88 2c 11
	00 00		 movsx	 ecx, WORD PTR [eax+4396]
  06b6d	8b 55 08	 mov	 edx, DWORD PTR _lpObj$[ebp]
  06b70	03 8a bc 04 00
	00		 add	 ecx, DWORD PTR [edx+1212]
  06b76	8b 45 08	 mov	 eax, DWORD PTR _lpObj$[ebp]
  06b79	89 88 bc 04 00
	00		 mov	 DWORD PTR [eax+1212], ecx

; 2029 : 	lpObj->m_ExcelentDamage += lpObj->SetOpAddExDamageSuccessRate;

  06b7f	8b 45 08	 mov	 eax, DWORD PTR _lpObj$[ebp]
  06b82	0f bf 88 28 11
	00 00		 movsx	 ecx, WORD PTR [eax+4392]
  06b89	8b 55 08	 mov	 edx, DWORD PTR _lpObj$[ebp]
  06b8c	03 8a c0 04 00
	00		 add	 ecx, DWORD PTR [edx+1216]
  06b92	8b 45 08	 mov	 eax, DWORD PTR _lpObj$[ebp]
  06b95	89 88 c0 04 00
	00		 mov	 DWORD PTR [eax+1216], ecx

; 2030 : 
; 2031 : 	if ( lpObj->pInventory[10].IsSetItem() )

  06b9b	8b 45 08	 mov	 eax, DWORD PTR _lpObj$[ebp]
  06b9e	8b 88 24 0e 00
	00		 mov	 ecx, DWORD PTR [eax+3620]
  06ba4	81 c1 48 08 00
	00		 add	 ecx, 2120		; 00000848H
  06baa	e8 00 00 00 00	 call	 ?IsSetItem@CItem@@QAEHXZ ; CItem::IsSetItem
  06baf	85 c0		 test	 eax, eax
  06bb1	74 1d		 je	 SHORT $LN11@gObjSetIte@3

; 2032 : 	{
; 2033 : 		lpObj->pInventory[10].PlusSpecialSetRing((LPBYTE)lpObj->m_AddResistance);

  06bb3	8b 45 08	 mov	 eax, DWORD PTR _lpObj$[ebp]
  06bb6	05 ff 04 00 00	 add	 eax, 1279		; 000004ffH
  06bbb	50		 push	 eax
  06bbc	8b 4d 08	 mov	 ecx, DWORD PTR _lpObj$[ebp]
  06bbf	8b 89 24 0e 00
	00		 mov	 ecx, DWORD PTR [ecx+3620]
  06bc5	81 c1 48 08 00
	00		 add	 ecx, 2120		; 00000848H
  06bcb	e8 00 00 00 00	 call	 ?PlusSpecialSetRing@CItem@@QAEXPAE@Z ; CItem::PlusSpecialSetRing
$LN11@gObjSetIte@3:

; 2034 : 	}
; 2035 : 
; 2036 : 	if ( lpObj->pInventory[11].IsSetItem() )

  06bd0	8b 45 08	 mov	 eax, DWORD PTR _lpObj$[ebp]
  06bd3	8b 88 24 0e 00
	00		 mov	 ecx, DWORD PTR [eax+3620]
  06bd9	81 c1 1c 09 00
	00		 add	 ecx, 2332		; 0000091cH
  06bdf	e8 00 00 00 00	 call	 ?IsSetItem@CItem@@QAEHXZ ; CItem::IsSetItem
  06be4	85 c0		 test	 eax, eax
  06be6	74 1d		 je	 SHORT $LN10@gObjSetIte@3

; 2037 : 	{
; 2038 : 		lpObj->pInventory[11].PlusSpecialSetRing((LPBYTE)lpObj->m_AddResistance);

  06be8	8b 45 08	 mov	 eax, DWORD PTR _lpObj$[ebp]
  06beb	05 ff 04 00 00	 add	 eax, 1279		; 000004ffH
  06bf0	50		 push	 eax
  06bf1	8b 4d 08	 mov	 ecx, DWORD PTR _lpObj$[ebp]
  06bf4	8b 89 24 0e 00
	00		 mov	 ecx, DWORD PTR [ecx+3620]
  06bfa	81 c1 1c 09 00
	00		 add	 ecx, 2332		; 0000091cH
  06c00	e8 00 00 00 00	 call	 ?PlusSpecialSetRing@CItem@@QAEXPAE@Z ; CItem::PlusSpecialSetRing
$LN10@gObjSetIte@3:

; 2039 : 	}
; 2040 : 
; 2041 : 	if ( lpObj->pInventory[9].IsSetItem() )

  06c05	8b 45 08	 mov	 eax, DWORD PTR _lpObj$[ebp]
  06c08	8b 88 24 0e 00
	00		 mov	 ecx, DWORD PTR [eax+3620]
  06c0e	81 c1 74 07 00
	00		 add	 ecx, 1908		; 00000774H
  06c14	e8 00 00 00 00	 call	 ?IsSetItem@CItem@@QAEHXZ ; CItem::IsSetItem
  06c19	85 c0		 test	 eax, eax
  06c1b	74 1d		 je	 SHORT $LN9@gObjSetIte@3

; 2042 : 	{
; 2043 : 		lpObj->pInventory[9].PlusSpecialSetRing((LPBYTE)lpObj->m_AddResistance);

  06c1d	8b 45 08	 mov	 eax, DWORD PTR _lpObj$[ebp]
  06c20	05 ff 04 00 00	 add	 eax, 1279		; 000004ffH
  06c25	50		 push	 eax
  06c26	8b 4d 08	 mov	 ecx, DWORD PTR _lpObj$[ebp]
  06c29	8b 89 24 0e 00
	00		 mov	 ecx, DWORD PTR [ecx+3620]
  06c2f	81 c1 74 07 00
	00		 add	 ecx, 1908		; 00000774H
  06c35	e8 00 00 00 00	 call	 ?PlusSpecialSetRing@CItem@@QAEXPAE@Z ; CItem::PlusSpecialSetRing
$LN9@gObjSetIte@3:

; 2044 : 	}
; 2045 : 
; 2046 : 	if ( lpObj->SetOpTwoHandSwordImproveDamage )

  06c3a	8b 45 08	 mov	 eax, DWORD PTR _lpObj$[ebp]
  06c3d	0f b6 88 40 11
	00 00		 movzx	 ecx, BYTE PTR [eax+4416]
  06c44	85 c9		 test	 ecx, ecx
  06c46	0f 84 97 00 00
	00		 je	 $LN5@gObjSetIte@3

; 2047 : 	{
; 2048 : 		if ( !lpObj->pInventory[1].IsItem() && !lpObj->pInventory[0].IsItem() )

  06c4c	8b 45 08	 mov	 eax, DWORD PTR _lpObj$[ebp]
  06c4f	8b 88 24 0e 00
	00		 mov	 ecx, DWORD PTR [eax+3620]
  06c55	81 c1 d4 00 00
	00		 add	 ecx, 212		; 000000d4H
  06c5b	e8 00 00 00 00	 call	 ?IsItem@CItem@@QAEHXZ	; CItem::IsItem
  06c60	85 c0		 test	 eax, eax
  06c62	75 1c		 jne	 SHORT $LN7@gObjSetIte@3
  06c64	8b 45 08	 mov	 eax, DWORD PTR _lpObj$[ebp]
  06c67	8b 88 24 0e 00
	00		 mov	 ecx, DWORD PTR [eax+3620]
  06c6d	e8 00 00 00 00	 call	 ?IsItem@CItem@@QAEHXZ	; CItem::IsItem
  06c72	85 c0		 test	 eax, eax
  06c74	75 0a		 jne	 SHORT $LN7@gObjSetIte@3

; 2049 : 		{
; 2050 : 			lpObj->SetOpTwoHandSwordImproveDamage = 0;

  06c76	8b 45 08	 mov	 eax, DWORD PTR _lpObj$[ebp]
  06c79	c6 80 40 11 00
	00 00		 mov	 BYTE PTR [eax+4416], 0
$LN7@gObjSetIte@3:

; 2051 : 		}
; 2052 : 
; 2053 : 		if ( lpObj->pInventory[1].IsItem() && lpObj->pInventory[1].m_TwoHand == FALSE )

  06c80	8b 45 08	 mov	 eax, DWORD PTR _lpObj$[ebp]
  06c83	8b 88 24 0e 00
	00		 mov	 ecx, DWORD PTR [eax+3620]
  06c89	81 c1 d4 00 00
	00		 add	 ecx, 212		; 000000d4H
  06c8f	e8 00 00 00 00	 call	 ?IsItem@CItem@@QAEHXZ	; CItem::IsItem
  06c94	85 c0		 test	 eax, eax
  06c96	74 1e		 je	 SHORT $LN6@gObjSetIte@3
  06c98	8b 45 08	 mov	 eax, DWORD PTR _lpObj$[ebp]
  06c9b	8b 88 24 0e 00
	00		 mov	 ecx, DWORD PTR [eax+3620]
  06ca1	0f b6 91 e0 00
	00 00		 movzx	 edx, BYTE PTR [ecx+224]
  06ca8	85 d2		 test	 edx, edx
  06caa	75 0a		 jne	 SHORT $LN6@gObjSetIte@3

; 2054 : 		{
; 2055 : 			lpObj->SetOpTwoHandSwordImproveDamage = 0;

  06cac	8b 45 08	 mov	 eax, DWORD PTR _lpObj$[ebp]
  06caf	c6 80 40 11 00
	00 00		 mov	 BYTE PTR [eax+4416], 0
$LN6@gObjSetIte@3:

; 2056 : 		}
; 2057 : 
; 2058 : 		if ( lpObj->pInventory[0].IsItem() && lpObj->pInventory[0].m_TwoHand == FALSE )

  06cb6	8b 45 08	 mov	 eax, DWORD PTR _lpObj$[ebp]
  06cb9	8b 88 24 0e 00
	00		 mov	 ecx, DWORD PTR [eax+3620]
  06cbf	e8 00 00 00 00	 call	 ?IsItem@CItem@@QAEHXZ	; CItem::IsItem
  06cc4	85 c0		 test	 eax, eax
  06cc6	74 1b		 je	 SHORT $LN5@gObjSetIte@3
  06cc8	8b 45 08	 mov	 eax, DWORD PTR _lpObj$[ebp]
  06ccb	8b 88 24 0e 00
	00		 mov	 ecx, DWORD PTR [eax+3620]
  06cd1	0f b6 51 0c	 movzx	 edx, BYTE PTR [ecx+12]
  06cd5	85 d2		 test	 edx, edx
  06cd7	75 0a		 jne	 SHORT $LN5@gObjSetIte@3

; 2059 : 		{
; 2060 : 			lpObj->SetOpTwoHandSwordImproveDamage = 0;

  06cd9	8b 45 08	 mov	 eax, DWORD PTR _lpObj$[ebp]
  06cdc	c6 80 40 11 00
	00 00		 mov	 BYTE PTR [eax+4416], 0
$LN5@gObjSetIte@3:

; 2061 : 		}
; 2062 : 	}
; 2063 : 
; 2064 : 	if(lpObj->MLInfoLoad == 1 && lpObj->ChangeUP3rd == 0) //season4.5 add-on

  06ce3	8b 45 08	 mov	 eax, DWORD PTR _lpObj$[ebp]
  06ce6	83 b8 ec 00 00
	00 01		 cmp	 DWORD PTR [eax+236], 1
  06ced	75 7b		 jne	 SHORT $LN3@gObjSetIte@3
  06cef	8b 45 08	 mov	 eax, DWORD PTR _lpObj$[ebp]
  06cf2	0f b6 88 bc 00
	00 00		 movzx	 ecx, BYTE PTR [eax+188]
  06cf9	85 c9		 test	 ecx, ecx
  06cfb	75 6d		 jne	 SHORT $LN3@gObjSetIte@3

; 2065 : 	{
; 2066 : 		if ( (lpObj->MaxLife + lpObj->AddLife ) < lpObj->Life )

  06cfd	8b 45 08	 mov	 eax, DWORD PTR _lpObj$[ebp]
  06d00	db 80 4c 01 00
	00		 fild	 DWORD PTR [eax+332]
  06d06	8b 4d 08	 mov	 ecx, DWORD PTR _lpObj$[ebp]
  06d09	d8 81 00 01 00
	00		 fadd	 DWORD PTR [ecx+256]
  06d0f	8b 55 08	 mov	 edx, DWORD PTR _lpObj$[ebp]
  06d12	d9 82 fc 00 00
	00		 fld	 DWORD PTR [edx+252]
  06d18	de d9		 fcompp
  06d1a	df e0		 fnstsw	 ax
  06d1c	f6 c4 41	 test	 ah, 65			; 00000041H
  06d1f	75 49		 jne	 SHORT $LN3@gObjSetIte@3

; 2067 : 		{
; 2068 : 			lpObj->Life = lpObj->MaxLife + lpObj->AddLife;

  06d21	8b 45 08	 mov	 eax, DWORD PTR _lpObj$[ebp]
  06d24	db 80 4c 01 00
	00		 fild	 DWORD PTR [eax+332]
  06d2a	8b 4d 08	 mov	 ecx, DWORD PTR _lpObj$[ebp]
  06d2d	d8 81 00 01 00
	00		 fadd	 DWORD PTR [ecx+256]
  06d33	8b 55 08	 mov	 edx, DWORD PTR _lpObj$[ebp]
  06d36	d9 9a fc 00 00
	00		 fstp	 DWORD PTR [edx+252]

; 2069 : 			GCReFillSend(lpObj->m_Index, lpObj->Life, 0xFF, 0, lpObj->iShield);

  06d3c	8b 45 08	 mov	 eax, DWORD PTR _lpObj$[ebp]
  06d3f	8b 88 54 01 00
	00		 mov	 ecx, DWORD PTR [eax+340]
  06d45	51		 push	 ecx
  06d46	6a 00		 push	 0
  06d48	68 ff 00 00 00	 push	 255			; 000000ffH
  06d4d	8b 55 08	 mov	 edx, DWORD PTR _lpObj$[ebp]
  06d50	d9 82 fc 00 00
	00		 fld	 DWORD PTR [edx+252]
  06d56	e8 00 00 00 00	 call	 __ftol2_sse
  06d5b	50		 push	 eax
  06d5c	8b 45 08	 mov	 eax, DWORD PTR _lpObj$[ebp]
  06d5f	8b 08		 mov	 ecx, DWORD PTR [eax]
  06d61	51		 push	 ecx
  06d62	e8 00 00 00 00	 call	 ?GCReFillSend@@YAXHHEEH@Z ; GCReFillSend
  06d67	83 c4 14	 add	 esp, 20			; 00000014H
$LN3@gObjSetIte@3:

; 2070 : 		}
; 2071 : 	}
; 2072 : 
; 2073 : 	gObjSetBP(lpObj->m_Index);

  06d6a	8b 45 08	 mov	 eax, DWORD PTR _lpObj$[ebp]
  06d6d	8b 08		 mov	 ecx, DWORD PTR [eax]
  06d6f	51		 push	 ecx
  06d70	e8 00 00 00 00	 call	 ?gObjSetBP@@YAXH@Z	; gObjSetBP
  06d75	83 c4 04	 add	 esp, 4

; 2074 : 
; 2075 : 	if ( (lpObj->MaxMana + lpObj->AddMana ) < lpObj->Mana )

  06d78	8b 45 08	 mov	 eax, DWORD PTR _lpObj$[ebp]
  06d7b	db 80 50 01 00
	00		 fild	 DWORD PTR [eax+336]
  06d81	8b 4d 08	 mov	 ecx, DWORD PTR _lpObj$[ebp]
  06d84	d8 81 14 01 00
	00		 fadd	 DWORD PTR [ecx+276]
  06d8a	8b 55 08	 mov	 edx, DWORD PTR _lpObj$[ebp]
  06d8d	d9 82 10 01 00
	00		 fld	 DWORD PTR [edx+272]
  06d93	de d9		 fcompp
  06d95	df e0		 fnstsw	 ax
  06d97	f6 c4 41	 test	 ah, 65			; 00000041H
  06d9a	75 49		 jne	 SHORT $LN2@gObjSetIte@3

; 2076 : 	{
; 2077 : 		lpObj->Mana = lpObj->MaxMana + lpObj->AddMana;

  06d9c	8b 45 08	 mov	 eax, DWORD PTR _lpObj$[ebp]
  06d9f	db 80 50 01 00
	00		 fild	 DWORD PTR [eax+336]
  06da5	8b 4d 08	 mov	 ecx, DWORD PTR _lpObj$[ebp]
  06da8	d8 81 14 01 00
	00		 fadd	 DWORD PTR [ecx+276]
  06dae	8b 55 08	 mov	 edx, DWORD PTR _lpObj$[ebp]
  06db1	d9 9a 10 01 00
	00		 fstp	 DWORD PTR [edx+272]

; 2078 : 		GCManaSend(lpObj->m_Index, lpObj->Mana, 0xFF, 0, lpObj->BP);

  06db7	8b 45 08	 mov	 eax, DWORD PTR _lpObj$[ebp]
  06dba	8b 88 28 01 00
	00		 mov	 ecx, DWORD PTR [eax+296]
  06dc0	51		 push	 ecx
  06dc1	6a 00		 push	 0
  06dc3	68 ff 00 00 00	 push	 255			; 000000ffH
  06dc8	8b 55 08	 mov	 edx, DWORD PTR _lpObj$[ebp]
  06dcb	d9 82 10 01 00
	00		 fld	 DWORD PTR [edx+272]
  06dd1	e8 00 00 00 00	 call	 __ftol2_sse
  06dd6	50		 push	 eax
  06dd7	8b 45 08	 mov	 eax, DWORD PTR _lpObj$[ebp]
  06dda	8b 08		 mov	 ecx, DWORD PTR [eax]
  06ddc	51		 push	 ecx
  06ddd	e8 00 00 00 00	 call	 ?GCManaSend@@YAXHHEEH@Z	; GCManaSend
  06de2	83 c4 14	 add	 esp, 20			; 00000014H
$LN2@gObjSetIte@3:

; 2079 : 	}
; 2080 : 
; 2081 : 	lpObj->m_Defense += lpObj->SetOpAddDefence * 10 / 20;

  06de5	8b 45 08	 mov	 eax, DWORD PTR _lpObj$[ebp]
  06de8	0f bf 80 38 11
	00 00		 movsx	 eax, WORD PTR [eax+4408]
  06def	6b c0 0a	 imul	 eax, 10			; 0000000aH
  06df2	99		 cdq
  06df3	b9 14 00 00 00	 mov	 ecx, 20			; 00000014H
  06df8	f7 f9		 idiv	 ecx
  06dfa	8b 55 08	 mov	 edx, DWORD PTR _lpObj$[ebp]
  06dfd	03 82 94 04 00
	00		 add	 eax, DWORD PTR [edx+1172]
  06e03	8b 4d 08	 mov	 ecx, DWORD PTR _lpObj$[ebp]
  06e06	89 81 94 04 00
	00		 mov	 DWORD PTR [ecx+1172], eax

; 2082 : 	lpObj->m_Defense += lpObj->m_Defense * lpObj->SetOpAddDefenceRate / 100;

  06e0c	8b 45 08	 mov	 eax, DWORD PTR _lpObj$[ebp]
  06e0f	0f bf 88 3a 11
	00 00		 movsx	 ecx, WORD PTR [eax+4410]
  06e16	8b 55 08	 mov	 edx, DWORD PTR _lpObj$[ebp]
  06e19	8b c1		 mov	 eax, ecx
  06e1b	0f af 82 94 04
	00 00		 imul	 eax, DWORD PTR [edx+1172]
  06e22	99		 cdq
  06e23	b9 64 00 00 00	 mov	 ecx, 100		; 00000064H
  06e28	f7 f9		 idiv	 ecx
  06e2a	8b 55 08	 mov	 edx, DWORD PTR _lpObj$[ebp]
  06e2d	03 82 94 04 00
	00		 add	 eax, DWORD PTR [edx+1172]
  06e33	8b 4d 08	 mov	 ecx, DWORD PTR _lpObj$[ebp]
  06e36	89 81 94 04 00
	00		 mov	 DWORD PTR [ecx+1172], eax

; 2083 : 
; 2084 : 	if ( lpObj->pInventory[1].m_Type >= ITEMGET(6,0) && lpObj->pInventory[1].m_Type < ITEMGET(7,0) )

  06e3c	8b 45 08	 mov	 eax, DWORD PTR _lpObj$[ebp]
  06e3f	8b 88 24 0e 00
	00		 mov	 ecx, DWORD PTR [eax+3620]
  06e45	0f bf 91 da 00
	00 00		 movsx	 edx, WORD PTR [ecx+218]
  06e4c	81 fa 00 0c 00
	00		 cmp	 edx, 3072		; 00000c00H
  06e52	7c 48		 jl	 SHORT $LN1@gObjSetIte@3
  06e54	8b 45 08	 mov	 eax, DWORD PTR _lpObj$[ebp]
  06e57	8b 88 24 0e 00
	00		 mov	 ecx, DWORD PTR [eax+3620]
  06e5d	0f bf 91 da 00
	00 00		 movsx	 edx, WORD PTR [ecx+218]
  06e64	81 fa 00 0e 00
	00		 cmp	 edx, 3584		; 00000e00H
  06e6a	7d 30		 jge	 SHORT $LN1@gObjSetIte@3

; 2085 : 	{
; 2086 : 		lpObj->m_Defense += lpObj->m_Defense * lpObj->SetOpImproveSheldDefence / 100;

  06e6c	8b 45 08	 mov	 eax, DWORD PTR _lpObj$[ebp]
  06e6f	0f b6 88 43 11
	00 00		 movzx	 ecx, BYTE PTR [eax+4419]
  06e76	8b 55 08	 mov	 edx, DWORD PTR _lpObj$[ebp]
  06e79	8b c1		 mov	 eax, ecx
  06e7b	0f af 82 94 04
	00 00		 imul	 eax, DWORD PTR [edx+1172]
  06e82	99		 cdq
  06e83	b9 64 00 00 00	 mov	 ecx, 100		; 00000064H
  06e88	f7 f9		 idiv	 ecx
  06e8a	8b 55 08	 mov	 edx, DWORD PTR _lpObj$[ebp]
  06e8d	03 82 94 04 00
	00		 add	 eax, DWORD PTR [edx+1172]
  06e93	8b 4d 08	 mov	 ecx, DWORD PTR _lpObj$[ebp]
  06e96	89 81 94 04 00
	00		 mov	 DWORD PTR [ecx+1172], eax
$LN1@gObjSetIte@3:

; 2087 : 	}
; 2088 : 
; 2089 : 	//season4 removed... Why? :|
; 2090 : 	//lpObj->m_Defense += lpObj->m_MLPassiveSkill.m_iML_DefenseIncrease; //season3 add-on
; 2091 : }

  06e9c	5f		 pop	 edi
  06e9d	5e		 pop	 esi
  06e9e	5b		 pop	 ebx
  06e9f	8b e5		 mov	 esp, ebp
  06ea1	5d		 pop	 ebp
  06ea2	c3		 ret	 0
?gObjSetItemApply@@YAXPAUOBJECTSTRUCT@@@Z ENDP		; gObjSetItemApply
_TEXT	ENDS
EXTRN	?ItemAttribute@@3PAUITEM_ATTRIBUTE@@A:BYTE	; ItemAttribute
; Function compile flags: /Odtp /ZI
_TEXT	SEGMENT
_p$ = -4						; size = 4
_lpObj$ = 8						; size = 4
_lpItem$ = 12						; size = 4
_pos$ = 16						; size = 4
?gObjValidItem@@YAHPAUOBJECTSTRUCT@@PAVCItem@@H@Z PROC	; gObjValidItem

; 2094 : {

  06eb0	55		 push	 ebp
  06eb1	8b ec		 mov	 ebp, esp
  06eb3	83 ec 44	 sub	 esp, 68			; 00000044H
  06eb6	53		 push	 ebx
  06eb7	56		 push	 esi
  06eb8	57		 push	 edi

; 2095 : 	LPITEM_ATTRIBUTE p = &ItemAttribute[lpItem->m_Type];

  06eb9	8b 45 0c	 mov	 eax, DWORD PTR _lpItem$[ebp]
  06ebc	0f bf 48 06	 movsx	 ecx, WORD PTR [eax+6]
  06ec0	6b c9 70	 imul	 ecx, 112		; 00000070H
  06ec3	81 c1 00 00 00
	00		 add	 ecx, OFFSET ?ItemAttribute@@3PAUITEM_ATTRIBUTE@@A ; ItemAttribute
  06ec9	89 4d fc	 mov	 DWORD PTR _p$[ebp], ecx

; 2096 : 	
; 2097 : 	if ( p->RequireStrength != 0 )

  06ecc	8b 45 fc	 mov	 eax, DWORD PTR _p$[ebp]
  06ecf	0f b7 48 34	 movzx	 ecx, WORD PTR [eax+52]
  06ed3	85 c9		 test	 ecx, ecx
  06ed5	74 34		 je	 SHORT $LN15@gObjValidI

; 2098 : 	{
; 2099 : 		if ( (lpObj->Strength + lpObj->AddStrength) < ( lpItem->m_RequireStrength - lpItem->m_HJOpStrength ) )

  06ed7	8b 45 08	 mov	 eax, DWORD PTR _lpObj$[ebp]
  06eda	0f b7 88 f4 00
	00 00		 movzx	 ecx, WORD PTR [eax+244]
  06ee1	8b 55 08	 mov	 edx, DWORD PTR _lpObj$[ebp]
  06ee4	0f bf 82 20 01
	00 00		 movsx	 eax, WORD PTR [edx+288]
  06eeb	03 c8		 add	 ecx, eax
  06eed	8b 55 0c	 mov	 edx, DWORD PTR _lpItem$[ebp]
  06ef0	0f b7 42 4a	 movzx	 eax, WORD PTR [edx+74]
  06ef4	8b 55 0c	 mov	 edx, DWORD PTR _lpItem$[ebp]
  06ef7	0f b7 92 c6 00
	00 00		 movzx	 edx, WORD PTR [edx+198]
  06efe	2b c2		 sub	 eax, edx
  06f00	3b c8		 cmp	 ecx, eax
  06f02	7d 07		 jge	 SHORT $LN15@gObjValidI

; 2100 : 		{
; 2101 : 			return FALSE;

  06f04	33 c0		 xor	 eax, eax
  06f06	e9 44 01 00 00	 jmp	 $LN16@gObjValidI
$LN15@gObjValidI:

; 2102 : 		}
; 2103 : 	}
; 2104 : 
; 2105 : 	if ( p->RequireDexterity != 0 )

  06f0b	8b 45 fc	 mov	 eax, DWORD PTR _p$[ebp]
  06f0e	0f b7 48 36	 movzx	 ecx, WORD PTR [eax+54]
  06f12	85 c9		 test	 ecx, ecx
  06f14	74 34		 je	 SHORT $LN13@gObjValidI

; 2106 : 	{
; 2107 : 		if ( (lpObj->Dexterity + lpObj->AddDexterity) < ( lpItem->m_RequireDexterity - lpItem->m_HJOpDexterity ) )

  06f16	8b 45 08	 mov	 eax, DWORD PTR _lpObj$[ebp]
  06f19	0f b7 88 f6 00
	00 00		 movzx	 ecx, WORD PTR [eax+246]
  06f20	8b 55 08	 mov	 edx, DWORD PTR _lpObj$[ebp]
  06f23	0f bf 82 22 01
	00 00		 movsx	 eax, WORD PTR [edx+290]
  06f2a	03 c8		 add	 ecx, eax
  06f2c	8b 55 0c	 mov	 edx, DWORD PTR _lpItem$[ebp]
  06f2f	0f b7 42 4c	 movzx	 eax, WORD PTR [edx+76]
  06f33	8b 55 0c	 mov	 edx, DWORD PTR _lpItem$[ebp]
  06f36	0f b7 92 c8 00
	00 00		 movzx	 edx, WORD PTR [edx+200]
  06f3d	2b c2		 sub	 eax, edx
  06f3f	3b c8		 cmp	 ecx, eax
  06f41	7d 07		 jge	 SHORT $LN13@gObjValidI

; 2108 : 		{
; 2109 : 			return FALSE;

  06f43	33 c0		 xor	 eax, eax
  06f45	e9 05 01 00 00	 jmp	 $LN16@gObjValidI
$LN13@gObjValidI:

; 2110 : 		}
; 2111 : 	}
; 2112 : 
; 2113 : 
; 2114 : 	if ( p->RequireEnergy != 0 )

  06f4a	8b 45 fc	 mov	 eax, DWORD PTR _p$[ebp]
  06f4d	0f b7 48 38	 movzx	 ecx, WORD PTR [eax+56]
  06f51	85 c9		 test	 ecx, ecx
  06f53	74 28		 je	 SHORT $LN11@gObjValidI

; 2115 : 	{
; 2116 : 		if ( (lpObj->Energy + lpObj->AddEnergy) < lpItem->m_RequireEnergy )

  06f55	8b 45 08	 mov	 eax, DWORD PTR _lpObj$[ebp]
  06f58	0f b7 88 fa 00
	00 00		 movzx	 ecx, WORD PTR [eax+250]
  06f5f	8b 55 08	 mov	 edx, DWORD PTR _lpObj$[ebp]
  06f62	0f bf 82 26 01
	00 00		 movsx	 eax, WORD PTR [edx+294]
  06f69	03 c8		 add	 ecx, eax
  06f6b	8b 55 0c	 mov	 edx, DWORD PTR _lpItem$[ebp]
  06f6e	0f b7 42 4e	 movzx	 eax, WORD PTR [edx+78]
  06f72	3b c8		 cmp	 ecx, eax
  06f74	7d 07		 jge	 SHORT $LN11@gObjValidI

; 2117 : 		{
; 2118 : 			return FALSE;

  06f76	33 c0		 xor	 eax, eax
  06f78	e9 d2 00 00 00	 jmp	 $LN16@gObjValidI
$LN11@gObjValidI:

; 2119 : 		}
; 2120 : 	}
; 2121 : 
; 2122 : 	if ( p->RequireLeadership != 0 )

  06f7d	8b 45 fc	 mov	 eax, DWORD PTR _p$[ebp]
  06f80	83 78 6c 00	 cmp	 DWORD PTR [eax+108], 0
  06f84	74 28		 je	 SHORT $LN9@gObjValidI

; 2123 : 	{
; 2124 : 		if ( (lpObj->Leadership + lpObj->AddLeadership ) < lpItem->m_RequireLeaderShip )

  06f86	8b 45 08	 mov	 eax, DWORD PTR _lpObj$[ebp]
  06f89	0f b7 88 18 01
	00 00		 movzx	 ecx, WORD PTR [eax+280]
  06f90	8b 55 08	 mov	 edx, DWORD PTR _lpObj$[ebp]
  06f93	0f b7 82 1a 01
	00 00		 movzx	 eax, WORD PTR [edx+282]
  06f9a	03 c8		 add	 ecx, eax
  06f9c	8b 55 0c	 mov	 edx, DWORD PTR _lpItem$[ebp]
  06f9f	0f b7 42 54	 movzx	 eax, WORD PTR [edx+84]
  06fa3	3b c8		 cmp	 ecx, eax
  06fa5	7d 07		 jge	 SHORT $LN9@gObjValidI

; 2125 : 		{
; 2126 : 			return FALSE;

  06fa7	33 c0		 xor	 eax, eax
  06fa9	e9 a1 00 00 00	 jmp	 $LN16@gObjValidI
$LN9@gObjValidI:

; 2127 : 		}
; 2128 : 	}
; 2129 : 
; 2130 : 	if ( p->RequireLevel != 0 )

  06fae	8b 45 fc	 mov	 eax, DWORD PTR _p$[ebp]
  06fb1	0f b7 48 3a	 movzx	 ecx, WORD PTR [eax+58]
  06fb5	85 c9		 test	 ecx, ecx
  06fb7	74 19		 je	 SHORT $LN7@gObjValidI

; 2131 : 	{
; 2132 : 		if ( (lpObj->Level) < lpItem->m_RequireLevel )

  06fb9	8b 45 08	 mov	 eax, DWORD PTR _lpObj$[ebp]
  06fbc	0f bf 88 be 00
	00 00		 movsx	 ecx, WORD PTR [eax+190]
  06fc3	8b 55 0c	 mov	 edx, DWORD PTR _lpItem$[ebp]
  06fc6	0f b7 42 50	 movzx	 eax, WORD PTR [edx+80]
  06fca	3b c8		 cmp	 ecx, eax
  06fcc	7d 04		 jge	 SHORT $LN7@gObjValidI

; 2133 : 		{
; 2134 : 			return FALSE;

  06fce	33 c0		 xor	 eax, eax
  06fd0	eb 7d		 jmp	 SHORT $LN16@gObjValidI
$LN7@gObjValidI:

; 2135 : 		}
; 2136 : 	}
; 2137 : 
; 2138 : 	if ( lpItem->m_Type >= ITEMGET(0,0) && lpItem->m_Type <= ITEMGET(11, 0) )

  06fd2	8b 45 0c	 mov	 eax, DWORD PTR _lpItem$[ebp]
  06fd5	0f bf 48 06	 movsx	 ecx, WORD PTR [eax+6]
  06fd9	85 c9		 test	 ecx, ecx
  06fdb	7c 6d		 jl	 SHORT $LN5@gObjValidI
  06fdd	8b 45 0c	 mov	 eax, DWORD PTR _lpItem$[ebp]
  06fe0	0f bf 48 06	 movsx	 ecx, WORD PTR [eax+6]
  06fe4	81 f9 00 16 00
	00		 cmp	 ecx, 5632		; 00001600H
  06fea	7f 5e		 jg	 SHORT $LN5@gObjValidI

; 2139 : 	{
; 2140 : 		if ( p->RequireVitality )

  06fec	8b 45 fc	 mov	 eax, DWORD PTR _p$[ebp]
  06fef	0f b7 48 4c	 movzx	 ecx, WORD PTR [eax+76]
  06ff3	85 c9		 test	 ecx, ecx
  06ff5	74 25		 je	 SHORT $LN4@gObjValidI

; 2141 : 		{
; 2142 : 			if ( (lpObj->Vitality + lpObj->AddVitality ) < lpItem->m_RequireVitality )

  06ff7	8b 45 08	 mov	 eax, DWORD PTR _lpObj$[ebp]
  06ffa	0f b7 88 f8 00
	00 00		 movzx	 ecx, WORD PTR [eax+248]
  07001	8b 55 08	 mov	 edx, DWORD PTR _lpObj$[ebp]
  07004	0f bf 82 24 01
	00 00		 movsx	 eax, WORD PTR [edx+292]
  0700b	03 c8		 add	 ecx, eax
  0700d	8b 55 0c	 mov	 edx, DWORD PTR _lpItem$[ebp]
  07010	0f b7 42 52	 movzx	 eax, WORD PTR [edx+82]
  07014	3b c8		 cmp	 ecx, eax
  07016	7d 04		 jge	 SHORT $LN4@gObjValidI

; 2143 : 			{
; 2144 : 				return FALSE;

  07018	33 c0		 xor	 eax, eax
  0701a	eb 33		 jmp	 SHORT $LN16@gObjValidI
$LN4@gObjValidI:

; 2145 : 			}
; 2146 : 		}
; 2147 : 
; 2148 : 		if ( p->RequireLeadership )

  0701c	8b 45 fc	 mov	 eax, DWORD PTR _p$[ebp]
  0701f	83 78 6c 00	 cmp	 DWORD PTR [eax+108], 0
  07023	74 25		 je	 SHORT $LN5@gObjValidI

; 2149 : 		{
; 2150 : 			if ( (lpObj->Leadership + lpObj->AddLeadership ) < lpItem->m_RequireLeaderShip )

  07025	8b 45 08	 mov	 eax, DWORD PTR _lpObj$[ebp]
  07028	0f b7 88 18 01
	00 00		 movzx	 ecx, WORD PTR [eax+280]
  0702f	8b 55 08	 mov	 edx, DWORD PTR _lpObj$[ebp]
  07032	0f b7 82 1a 01
	00 00		 movzx	 eax, WORD PTR [edx+282]
  07039	03 c8		 add	 ecx, eax
  0703b	8b 55 0c	 mov	 edx, DWORD PTR _lpItem$[ebp]
  0703e	0f b7 42 54	 movzx	 eax, WORD PTR [edx+84]
  07042	3b c8		 cmp	 ecx, eax
  07044	7d 04		 jge	 SHORT $LN5@gObjValidI

; 2151 : 			{
; 2152 : 				return FALSE;

  07046	33 c0		 xor	 eax, eax
  07048	eb 05		 jmp	 SHORT $LN16@gObjValidI
$LN5@gObjValidI:

; 2153 : 			}
; 2154 : 		}
; 2155 : 	}
; 2156 : 
; 2157 : 	return TRUE;

  0704a	b8 01 00 00 00	 mov	 eax, 1
$LN16@gObjValidI:

; 2158 : }

  0704f	5f		 pop	 edi
  07050	5e		 pop	 esi
  07051	5b		 pop	 ebx
  07052	8b e5		 mov	 esp, ebp
  07054	5d		 pop	 ebp
  07055	c3		 ret	 0
?gObjValidItem@@YAHPAUOBJECTSTRUCT@@PAVCItem@@H@Z ENDP	; gObjValidItem
_TEXT	ENDS
EXTRN	?g_iShieldGageConstA@@3HA:DWORD			; g_iShieldGageConstA
EXTRN	?g_iShieldGageConstB@@3HA:DWORD			; g_iShieldGageConstB
; Function compile flags: /Odtp /ZI
_TEXT	SEGMENT
_iBaseLevel$ = -16					; size = 4
_iExpressionB$ = -12					; size = 4
_iExpressionA$ = -8					; size = 4
_iMaxShieldPoint$ = -4					; size = 4
_lpObj$ = 8						; size = 4
?gObjCalcShieldPoint@@YAXPAUOBJECTSTRUCT@@@Z PROC	; gObjCalcShieldPoint

; 2161 : {

  07060	55		 push	 ebp
  07061	8b ec		 mov	 ebp, esp
  07063	83 ec 50	 sub	 esp, 80			; 00000050H
  07066	53		 push	 ebx
  07067	56		 push	 esi
  07068	57		 push	 edi

; 2162 : 	int iMaxShieldPoint = 0;

  07069	c7 45 fc 00 00
	00 00		 mov	 DWORD PTR _iMaxShieldPoint$[ebp], 0

; 2163 : 	int iExpressionA;
; 2164 : 	int iExpressionB;
; 2165 : 	int iBaseLevel;
; 2166 : 
; 2167 : 	iExpressionA = ( lpObj->Strength + lpObj->AddStrength ) + ( lpObj->Dexterity + lpObj->AddDexterity ) + ( lpObj->Vitality + lpObj->AddVitality ) + (lpObj->Energy + lpObj->AddEnergy );

  07070	8b 45 08	 mov	 eax, DWORD PTR _lpObj$[ebp]
  07073	0f b7 88 f4 00
	00 00		 movzx	 ecx, WORD PTR [eax+244]
  0707a	8b 55 08	 mov	 edx, DWORD PTR _lpObj$[ebp]
  0707d	0f bf 82 20 01
	00 00		 movsx	 eax, WORD PTR [edx+288]
  07084	03 c8		 add	 ecx, eax
  07086	8b 55 08	 mov	 edx, DWORD PTR _lpObj$[ebp]
  07089	0f b7 82 f6 00
	00 00		 movzx	 eax, WORD PTR [edx+246]
  07090	8b 55 08	 mov	 edx, DWORD PTR _lpObj$[ebp]
  07093	0f bf 92 22 01
	00 00		 movsx	 edx, WORD PTR [edx+290]
  0709a	03 c2		 add	 eax, edx
  0709c	03 c8		 add	 ecx, eax
  0709e	8b 45 08	 mov	 eax, DWORD PTR _lpObj$[ebp]
  070a1	0f b7 90 f8 00
	00 00		 movzx	 edx, WORD PTR [eax+248]
  070a8	8b 45 08	 mov	 eax, DWORD PTR _lpObj$[ebp]
  070ab	0f bf 80 24 01
	00 00		 movsx	 eax, WORD PTR [eax+292]
  070b2	03 d0		 add	 edx, eax
  070b4	03 ca		 add	 ecx, edx
  070b6	8b 55 08	 mov	 edx, DWORD PTR _lpObj$[ebp]
  070b9	0f b7 82 fa 00
	00 00		 movzx	 eax, WORD PTR [edx+250]
  070c0	8b 55 08	 mov	 edx, DWORD PTR _lpObj$[ebp]
  070c3	0f bf 92 26 01
	00 00		 movsx	 edx, WORD PTR [edx+294]
  070ca	03 c2		 add	 eax, edx
  070cc	03 c8		 add	 ecx, eax
  070ce	89 4d f8	 mov	 DWORD PTR _iExpressionA$[ebp], ecx

; 2168 : 
; 2169 : 	if ( lpObj->Class == CLASS_DARKLORD )

  070d1	8b 45 08	 mov	 eax, DWORD PTR _lpObj$[ebp]
  070d4	0f b7 88 b8 00
	00 00		 movzx	 ecx, WORD PTR [eax+184]
  070db	83 f9 04	 cmp	 ecx, 4
  070de	75 1c		 jne	 SHORT $LN3@gObjCalcSh

; 2170 : 	{
; 2171 : 		iExpressionA += lpObj->Leadership + lpObj->AddLeadership;

  070e0	8b 45 08	 mov	 eax, DWORD PTR _lpObj$[ebp]
  070e3	0f b7 88 18 01
	00 00		 movzx	 ecx, WORD PTR [eax+280]
  070ea	8b 55 08	 mov	 edx, DWORD PTR _lpObj$[ebp]
  070ed	0f b7 82 1a 01
	00 00		 movzx	 eax, WORD PTR [edx+282]
  070f4	03 45 f8	 add	 eax, DWORD PTR _iExpressionA$[ebp]
  070f7	03 c1		 add	 eax, ecx
  070f9	89 45 f8	 mov	 DWORD PTR _iExpressionA$[ebp], eax
$LN3@gObjCalcSh:

; 2172 : 	}
; 2173 : 
; 2174 : 	if ( g_iShieldGageConstB == 0 )

  070fc	83 3d 00 00 00
	00 00		 cmp	 DWORD PTR ?g_iShieldGageConstB@@3HA, 0 ; g_iShieldGageConstB
  07103	75 0a		 jne	 SHORT $LN2@gObjCalcSh

; 2175 : 	{
; 2176 : 		g_iShieldGageConstB = 30;

  07105	c7 05 00 00 00
	00 1e 00 00 00	 mov	 DWORD PTR ?g_iShieldGageConstB@@3HA, 30 ; g_iShieldGageConstB, 0000001eH
$LN2@gObjCalcSh:

; 2177 : 	}
; 2178 : 
; 2179 : 	iBaseLevel = lpObj->Level + lpObj->MLevel;

  0710f	8b 45 08	 mov	 eax, DWORD PTR _lpObj$[ebp]
  07112	0f bf 88 be 00
	00 00		 movsx	 ecx, WORD PTR [eax+190]
  07119	8b 55 08	 mov	 edx, DWORD PTR _lpObj$[ebp]
  0711c	0f bf 82 d0 00
	00 00		 movsx	 eax, WORD PTR [edx+208]
  07123	03 c8		 add	 ecx, eax
  07125	89 4d f0	 mov	 DWORD PTR _iBaseLevel$[ebp], ecx

; 2180 : 
; 2181 : 	iExpressionB = ( iBaseLevel * iBaseLevel) / g_iShieldGageConstB;

  07128	8b 45 f0	 mov	 eax, DWORD PTR _iBaseLevel$[ebp]
  0712b	0f af 45 f0	 imul	 eax, DWORD PTR _iBaseLevel$[ebp]
  0712f	99		 cdq
  07130	f7 3d 00 00 00
	00		 idiv	 DWORD PTR ?g_iShieldGageConstB@@3HA ; g_iShieldGageConstB
  07136	89 45 f4	 mov	 DWORD PTR _iExpressionB$[ebp], eax

; 2182 : 
; 2183 : 	if ( g_iShieldGageConstA == 0 )

  07139	83 3d 00 00 00
	00 00		 cmp	 DWORD PTR ?g_iShieldGageConstA@@3HA, 0 ; g_iShieldGageConstA
  07140	75 0a		 jne	 SHORT $LN1@gObjCalcSh

; 2184 : 	{
; 2185 : 		g_iShieldGageConstA = 12;

  07142	c7 05 00 00 00
	00 0c 00 00 00	 mov	 DWORD PTR ?g_iShieldGageConstA@@3HA, 12 ; g_iShieldGageConstA, 0000000cH
$LN1@gObjCalcSh:

; 2186 : 	}
; 2187 : 
; 2188 : 	iMaxShieldPoint = ( iExpressionA * g_iShieldGageConstA ) / 10 + iExpressionB  + lpObj->m_Defense;

  0714c	8b 45 f8	 mov	 eax, DWORD PTR _iExpressionA$[ebp]
  0714f	0f af 05 00 00
	00 00		 imul	 eax, DWORD PTR ?g_iShieldGageConstA@@3HA ; g_iShieldGageConstA
  07156	99		 cdq
  07157	b9 0a 00 00 00	 mov	 ecx, 10			; 0000000aH
  0715c	f7 f9		 idiv	 ecx
  0715e	03 45 f4	 add	 eax, DWORD PTR _iExpressionB$[ebp]
  07161	8b 55 08	 mov	 edx, DWORD PTR _lpObj$[ebp]
  07164	03 82 94 04 00
	00		 add	 eax, DWORD PTR [edx+1172]
  0716a	89 45 fc	 mov	 DWORD PTR _iMaxShieldPoint$[ebp], eax

; 2189 : 	lpObj->iMaxShield = iMaxShieldPoint;

  0716d	8b 45 08	 mov	 eax, DWORD PTR _lpObj$[ebp]
  07170	8b 4d fc	 mov	 ecx, DWORD PTR _iMaxShieldPoint$[ebp]
  07173	89 88 58 01 00
	00		 mov	 DWORD PTR [eax+344], ecx

; 2190 : }

  07179	5f		 pop	 edi
  0717a	5e		 pop	 esi
  0717b	5b		 pop	 ebx
  0717c	8b e5		 mov	 esp, ebp
  0717e	5d		 pop	 ebp
  0717f	c3		 ret	 0
?gObjCalcShieldPoint@@YAXPAUOBJECTSTRUCT@@@Z ENDP	; gObjCalcShieldPoint
_TEXT	ENDS
PUBLIC	__real@00000000
PUBLIC	?gObjCalcMLSkillItemOption@@YAXPAUOBJECTSTRUCT@@@Z ; gObjCalcMLSkillItemOption
EXTRN	?GetDetailItemType@CItem@@QAEHXZ:PROC		; CItem::GetDetailItemType
;	COMDAT __real@00000000
CONST	SEGMENT
__real@00000000 DD 000000000r			; 0
; Function compile flags: /Odtp /ZI
CONST	ENDS
_TEXT	SEGMENT
_lpObj$ = 8						; size = 4
?gObjCalcMLSkillItemOption@@YAXPAUOBJECTSTRUCT@@@Z PROC	; gObjCalcMLSkillItemOption

; 2194 : {

  07180	55		 push	 ebp
  07181	8b ec		 mov	 ebp, esp
  07183	83 ec 40	 sub	 esp, 64			; 00000040H
  07186	53		 push	 ebx
  07187	56		 push	 esi
  07188	57		 push	 edi

; 2195 : 	if( lpObj->m_MPSkillOpt.MpsTwoHandSwordStrength > 0.0f )

  07189	8b 45 08	 mov	 eax, DWORD PTR _lpObj$[ebp]
  0718c	d9 80 70 26 00
	00		 fld	 DWORD PTR [eax+9840]
  07192	dc 1d 00 00 00
	00		 fcomp	 QWORD PTR __real@0000000000000000
  07198	df e0		 fnstsw	 ax
  0719a	f6 c4 41	 test	 ah, 65			; 00000041H
  0719d	75 35		 jne	 SHORT $LN67@gObjCalcML

; 2196 : 	{
; 2197 : 		if( lpObj->pInventory[0].GetDetailItemType() && lpObj->pInventory[1].GetDetailItemType() )

  0719f	8b 45 08	 mov	 eax, DWORD PTR _lpObj$[ebp]
  071a2	8b 88 24 0e 00
	00		 mov	 ecx, DWORD PTR [eax+3620]
  071a8	e8 00 00 00 00	 call	 ?GetDetailItemType@CItem@@QAEHXZ ; CItem::GetDetailItemType
  071ad	85 c0		 test	 eax, eax
  071af	74 23		 je	 SHORT $LN67@gObjCalcML
  071b1	8b 45 08	 mov	 eax, DWORD PTR _lpObj$[ebp]
  071b4	8b 88 24 0e 00
	00		 mov	 ecx, DWORD PTR [eax+3620]
  071ba	81 c1 d4 00 00
	00		 add	 ecx, 212		; 000000d4H
  071c0	e8 00 00 00 00	 call	 ?GetDetailItemType@CItem@@QAEHXZ ; CItem::GetDetailItemType
  071c5	85 c0		 test	 eax, eax
  071c7	74 0b		 je	 SHORT $LN67@gObjCalcML

; 2198 : 		{
; 2199 : 			lpObj->m_MPSkillOpt.MpsTwoHandSwordStrength = 0;

  071c9	8b 45 08	 mov	 eax, DWORD PTR _lpObj$[ebp]
  071cc	d9 ee		 fldz
  071ce	d9 98 70 26 00
	00		 fstp	 DWORD PTR [eax+9840]
$LN67@gObjCalcML:

; 2200 : 		}
; 2201 : 	}
; 2202 : 	// ----
; 2203 : 	if( lpObj->m_MPSkillOpt.MpsTwoHandSwordMastery > 0.0f )

  071d4	8b 45 08	 mov	 eax, DWORD PTR _lpObj$[ebp]
  071d7	d9 80 80 26 00
	00		 fld	 DWORD PTR [eax+9856]
  071dd	dc 1d 00 00 00
	00		 fcomp	 QWORD PTR __real@0000000000000000
  071e3	df e0		 fnstsw	 ax
  071e5	f6 c4 41	 test	 ah, 65			; 00000041H
  071e8	75 35		 jne	 SHORT $LN65@gObjCalcML

; 2204 : 	{
; 2205 : 		if( lpObj->pInventory[0].GetDetailItemType() && lpObj->pInventory[1].GetDetailItemType() )

  071ea	8b 45 08	 mov	 eax, DWORD PTR _lpObj$[ebp]
  071ed	8b 88 24 0e 00
	00		 mov	 ecx, DWORD PTR [eax+3620]
  071f3	e8 00 00 00 00	 call	 ?GetDetailItemType@CItem@@QAEHXZ ; CItem::GetDetailItemType
  071f8	85 c0		 test	 eax, eax
  071fa	74 23		 je	 SHORT $LN65@gObjCalcML
  071fc	8b 45 08	 mov	 eax, DWORD PTR _lpObj$[ebp]
  071ff	8b 88 24 0e 00
	00		 mov	 ecx, DWORD PTR [eax+3620]
  07205	81 c1 d4 00 00
	00		 add	 ecx, 212		; 000000d4H
  0720b	e8 00 00 00 00	 call	 ?GetDetailItemType@CItem@@QAEHXZ ; CItem::GetDetailItemType
  07210	85 c0		 test	 eax, eax
  07212	74 0b		 je	 SHORT $LN65@gObjCalcML

; 2206 : 		{
; 2207 : 			lpObj->m_MPSkillOpt.MpsTwoHandSwordMastery = 0;

  07214	8b 45 08	 mov	 eax, DWORD PTR _lpObj$[ebp]
  07217	d9 ee		 fldz
  07219	d9 98 80 26 00
	00		 fstp	 DWORD PTR [eax+9856]
$LN65@gObjCalcML:

; 2208 : 		}
; 2209 : 	}
; 2210 : 	// ----
; 2211 : 	if( lpObj->m_MPSkillOpt.MpsTwoHandStaffStrength > 0.0f )

  0721f	8b 45 08	 mov	 eax, DWORD PTR _lpObj$[ebp]
  07222	d9 80 94 26 00
	00		 fld	 DWORD PTR [eax+9876]
  07228	dc 1d 00 00 00
	00		 fcomp	 QWORD PTR __real@0000000000000000
  0722e	df e0		 fnstsw	 ax
  07230	f6 c4 41	 test	 ah, 65			; 00000041H
  07233	75 6c		 jne	 SHORT $LN63@gObjCalcML

; 2212 : 	{
; 2213 : 		if( lpObj->pInventory[0].GetDetailItemType() == 5 || lpObj->pInventory[1].GetDetailItemType() == 5 )

  07235	8b 45 08	 mov	 eax, DWORD PTR _lpObj$[ebp]
  07238	8b 88 24 0e 00
	00		 mov	 ecx, DWORD PTR [eax+3620]
  0723e	e8 00 00 00 00	 call	 ?GetDetailItemType@CItem@@QAEHXZ ; CItem::GetDetailItemType
  07243	83 f8 05	 cmp	 eax, 5
  07246	74 19		 je	 SHORT $LN62@gObjCalcML
  07248	8b 45 08	 mov	 eax, DWORD PTR _lpObj$[ebp]
  0724b	8b 88 24 0e 00
	00		 mov	 ecx, DWORD PTR [eax+3620]
  07251	81 c1 d4 00 00
	00		 add	 ecx, 212		; 000000d4H
  07257	e8 00 00 00 00	 call	 ?GetDetailItemType@CItem@@QAEHXZ ; CItem::GetDetailItemType
  0725c	83 f8 05	 cmp	 eax, 5
  0725f	75 40		 jne	 SHORT $LN63@gObjCalcML
$LN62@gObjCalcML:

; 2214 : 		{
; 2215 : 			lpObj->m_MagicDamageMin += lpObj->m_MPSkillOpt.MpsTwoHandStaffStrength;

  07261	8b 45 08	 mov	 eax, DWORD PTR _lpObj$[ebp]
  07264	db 80 68 04 00
	00		 fild	 DWORD PTR [eax+1128]
  0726a	8b 4d 08	 mov	 ecx, DWORD PTR _lpObj$[ebp]
  0726d	d8 81 94 26 00
	00		 fadd	 DWORD PTR [ecx+9876]
  07273	e8 00 00 00 00	 call	 __ftol2_sse
  07278	8b 55 08	 mov	 edx, DWORD PTR _lpObj$[ebp]
  0727b	89 82 68 04 00
	00		 mov	 DWORD PTR [edx+1128], eax

; 2216 : 			lpObj->m_MagicDamageMax += lpObj->m_MPSkillOpt.MpsTwoHandStaffStrength;

  07281	8b 45 08	 mov	 eax, DWORD PTR _lpObj$[ebp]
  07284	db 80 6c 04 00
	00		 fild	 DWORD PTR [eax+1132]
  0728a	8b 4d 08	 mov	 ecx, DWORD PTR _lpObj$[ebp]
  0728d	d8 81 94 26 00
	00		 fadd	 DWORD PTR [ecx+9876]
  07293	e8 00 00 00 00	 call	 __ftol2_sse
  07298	8b 55 08	 mov	 edx, DWORD PTR _lpObj$[ebp]
  0729b	89 82 6c 04 00
	00		 mov	 DWORD PTR [edx+1132], eax
$LN63@gObjCalcML:

; 2217 : 		}
; 2218 : 	}
; 2219 : 	// ----
; 2220 : 	if( lpObj->m_MPSkillOpt.MpsOneHandStaffStrength > 0.0f )

  072a1	8b 45 08	 mov	 eax, DWORD PTR _lpObj$[ebp]
  072a4	d9 80 98 26 00
	00		 fld	 DWORD PTR [eax+9880]
  072aa	dc 1d 00 00 00
	00		 fcomp	 QWORD PTR __real@0000000000000000
  072b0	df e0		 fnstsw	 ax
  072b2	f6 c4 41	 test	 ah, 65			; 00000041H
  072b5	75 6c		 jne	 SHORT $LN60@gObjCalcML

; 2221 : 	{
; 2222 : 		if( lpObj->pInventory[0].GetDetailItemType() == 4 || lpObj->pInventory[1].GetDetailItemType() == 4 )

  072b7	8b 45 08	 mov	 eax, DWORD PTR _lpObj$[ebp]
  072ba	8b 88 24 0e 00
	00		 mov	 ecx, DWORD PTR [eax+3620]
  072c0	e8 00 00 00 00	 call	 ?GetDetailItemType@CItem@@QAEHXZ ; CItem::GetDetailItemType
  072c5	83 f8 04	 cmp	 eax, 4
  072c8	74 19		 je	 SHORT $LN59@gObjCalcML
  072ca	8b 45 08	 mov	 eax, DWORD PTR _lpObj$[ebp]
  072cd	8b 88 24 0e 00
	00		 mov	 ecx, DWORD PTR [eax+3620]
  072d3	81 c1 d4 00 00
	00		 add	 ecx, 212		; 000000d4H
  072d9	e8 00 00 00 00	 call	 ?GetDetailItemType@CItem@@QAEHXZ ; CItem::GetDetailItemType
  072de	83 f8 04	 cmp	 eax, 4
  072e1	75 40		 jne	 SHORT $LN60@gObjCalcML
$LN59@gObjCalcML:

; 2223 : 		{
; 2224 : 			lpObj->m_MagicDamageMin += lpObj->m_MPSkillOpt.MpsOneHandStaffStrength;

  072e3	8b 45 08	 mov	 eax, DWORD PTR _lpObj$[ebp]
  072e6	db 80 68 04 00
	00		 fild	 DWORD PTR [eax+1128]
  072ec	8b 4d 08	 mov	 ecx, DWORD PTR _lpObj$[ebp]
  072ef	d8 81 98 26 00
	00		 fadd	 DWORD PTR [ecx+9880]
  072f5	e8 00 00 00 00	 call	 __ftol2_sse
  072fa	8b 55 08	 mov	 edx, DWORD PTR _lpObj$[ebp]
  072fd	89 82 68 04 00
	00		 mov	 DWORD PTR [edx+1128], eax

; 2225 : 			lpObj->m_MagicDamageMax += lpObj->m_MPSkillOpt.MpsOneHandStaffStrength;

  07303	8b 45 08	 mov	 eax, DWORD PTR _lpObj$[ebp]
  07306	db 80 6c 04 00
	00		 fild	 DWORD PTR [eax+1132]
  0730c	8b 4d 08	 mov	 ecx, DWORD PTR _lpObj$[ebp]
  0730f	d8 81 98 26 00
	00		 fadd	 DWORD PTR [ecx+9880]
  07315	e8 00 00 00 00	 call	 __ftol2_sse
  0731a	8b 55 08	 mov	 edx, DWORD PTR _lpObj$[ebp]
  0731d	89 82 6c 04 00
	00		 mov	 DWORD PTR [edx+1132], eax
$LN60@gObjCalcML:

; 2226 : 		}
; 2227 : 	}
; 2228 : 	// ----
; 2229 : 	if( lpObj->m_MPSkillOpt.MpsStickStrength > 0.0f )

  07323	8b 45 08	 mov	 eax, DWORD PTR _lpObj$[ebp]
  07326	d9 80 e8 26 00
	00		 fld	 DWORD PTR [eax+9960]
  0732c	dc 1d 00 00 00
	00		 fcomp	 QWORD PTR __real@0000000000000000
  07332	df e0		 fnstsw	 ax
  07334	f6 c4 41	 test	 ah, 65			; 00000041H
  07337	75 6c		 jne	 SHORT $LN57@gObjCalcML

; 2230 : 	{
; 2231 : 		if( lpObj->pInventory[0].GetDetailItemType() == 9 || lpObj->pInventory[1].GetDetailItemType() == 9 )

  07339	8b 45 08	 mov	 eax, DWORD PTR _lpObj$[ebp]
  0733c	8b 88 24 0e 00
	00		 mov	 ecx, DWORD PTR [eax+3620]
  07342	e8 00 00 00 00	 call	 ?GetDetailItemType@CItem@@QAEHXZ ; CItem::GetDetailItemType
  07347	83 f8 09	 cmp	 eax, 9
  0734a	74 19		 je	 SHORT $LN56@gObjCalcML
  0734c	8b 45 08	 mov	 eax, DWORD PTR _lpObj$[ebp]
  0734f	8b 88 24 0e 00
	00		 mov	 ecx, DWORD PTR [eax+3620]
  07355	81 c1 d4 00 00
	00		 add	 ecx, 212		; 000000d4H
  0735b	e8 00 00 00 00	 call	 ?GetDetailItemType@CItem@@QAEHXZ ; CItem::GetDetailItemType
  07360	83 f8 09	 cmp	 eax, 9
  07363	75 40		 jne	 SHORT $LN57@gObjCalcML
$LN56@gObjCalcML:

; 2232 : 		{
; 2233 : 			lpObj->m_MagicDamageMin += lpObj->m_MPSkillOpt.MpsStickStrength;

  07365	8b 45 08	 mov	 eax, DWORD PTR _lpObj$[ebp]
  07368	db 80 68 04 00
	00		 fild	 DWORD PTR [eax+1128]
  0736e	8b 4d 08	 mov	 ecx, DWORD PTR _lpObj$[ebp]
  07371	d8 81 e8 26 00
	00		 fadd	 DWORD PTR [ecx+9960]
  07377	e8 00 00 00 00	 call	 __ftol2_sse
  0737c	8b 55 08	 mov	 edx, DWORD PTR _lpObj$[ebp]
  0737f	89 82 68 04 00
	00		 mov	 DWORD PTR [edx+1128], eax

; 2234 : 			lpObj->m_MagicDamageMax += lpObj->m_MPSkillOpt.MpsStickStrength;

  07385	8b 45 08	 mov	 eax, DWORD PTR _lpObj$[ebp]
  07388	db 80 6c 04 00
	00		 fild	 DWORD PTR [eax+1132]
  0738e	8b 4d 08	 mov	 ecx, DWORD PTR _lpObj$[ebp]
  07391	d8 81 e8 26 00
	00		 fadd	 DWORD PTR [ecx+9960]
  07397	e8 00 00 00 00	 call	 __ftol2_sse
  0739c	8b 55 08	 mov	 edx, DWORD PTR _lpObj$[ebp]
  0739f	89 82 6c 04 00
	00		 mov	 DWORD PTR [edx+1132], eax
$LN57@gObjCalcML:

; 2235 : 		}
; 2236 : 	}
; 2237 : 	// ----
; 2238 : 	if( lpObj->m_MPSkillOpt.MpsShieldStrength > 0.0f )

  073a5	8b 45 08	 mov	 eax, DWORD PTR _lpObj$[ebp]
  073a8	d9 80 9c 26 00
	00		 fld	 DWORD PTR [eax+9884]
  073ae	dc 1d 00 00 00
	00		 fcomp	 QWORD PTR __real@0000000000000000
  073b4	df e0		 fnstsw	 ax
  073b6	f6 c4 41	 test	 ah, 65			; 00000041H
  073b9	75 4c		 jne	 SHORT $LN54@gObjCalcML

; 2239 : 	{
; 2240 : 		if( lpObj->pInventory[0].GetDetailItemType() == 6 || lpObj->pInventory[1].GetDetailItemType() == 6 )

  073bb	8b 45 08	 mov	 eax, DWORD PTR _lpObj$[ebp]
  073be	8b 88 24 0e 00
	00		 mov	 ecx, DWORD PTR [eax+3620]
  073c4	e8 00 00 00 00	 call	 ?GetDetailItemType@CItem@@QAEHXZ ; CItem::GetDetailItemType
  073c9	83 f8 06	 cmp	 eax, 6
  073cc	74 19		 je	 SHORT $LN53@gObjCalcML
  073ce	8b 45 08	 mov	 eax, DWORD PTR _lpObj$[ebp]
  073d1	8b 88 24 0e 00
	00		 mov	 ecx, DWORD PTR [eax+3620]
  073d7	81 c1 d4 00 00
	00		 add	 ecx, 212		; 000000d4H
  073dd	e8 00 00 00 00	 call	 ?GetDetailItemType@CItem@@QAEHXZ ; CItem::GetDetailItemType
  073e2	83 f8 06	 cmp	 eax, 6
  073e5	75 20		 jne	 SHORT $LN54@gObjCalcML
$LN53@gObjCalcML:

; 2241 : 		{
; 2242 : 			lpObj->m_Defense += lpObj->m_MPSkillOpt.MpsShieldStrength;

  073e7	8b 45 08	 mov	 eax, DWORD PTR _lpObj$[ebp]
  073ea	db 80 94 04 00
	00		 fild	 DWORD PTR [eax+1172]
  073f0	8b 4d 08	 mov	 ecx, DWORD PTR _lpObj$[ebp]
  073f3	d8 81 9c 26 00
	00		 fadd	 DWORD PTR [ecx+9884]
  073f9	e8 00 00 00 00	 call	 __ftol2_sse
  073fe	8b 55 08	 mov	 edx, DWORD PTR _lpObj$[ebp]
  07401	89 82 94 04 00
	00		 mov	 DWORD PTR [edx+1172], eax
$LN54@gObjCalcML:

; 2243 : 			//lpObj->m_Defense +=
; 2244 : 		}
; 2245 : 	}
; 2246 : 	// ----
; 2247 : 	//
; 2248 : 	// ----
; 2249 : 	if( lpObj->m_MPSkillOpt.MpsShieldStrength3 > 0.0f )

  07407	8b 45 08	 mov	 eax, DWORD PTR _lpObj$[ebp]
  0740a	d9 80 18 27 00
	00		 fld	 DWORD PTR [eax+10008]
  07410	dc 1d 00 00 00
	00		 fcomp	 QWORD PTR __real@0000000000000000
  07416	df e0		 fnstsw	 ax
  07418	f6 c4 41	 test	 ah, 65			; 00000041H
  0741b	75 4c		 jne	 SHORT $LN51@gObjCalcML

; 2250 : 	{
; 2251 : 		if( lpObj->pInventory[0].GetDetailItemType() == 6 || lpObj->pInventory[1].GetDetailItemType() == 6 )

  0741d	8b 45 08	 mov	 eax, DWORD PTR _lpObj$[ebp]
  07420	8b 88 24 0e 00
	00		 mov	 ecx, DWORD PTR [eax+3620]
  07426	e8 00 00 00 00	 call	 ?GetDetailItemType@CItem@@QAEHXZ ; CItem::GetDetailItemType
  0742b	83 f8 06	 cmp	 eax, 6
  0742e	74 19		 je	 SHORT $LN50@gObjCalcML
  07430	8b 45 08	 mov	 eax, DWORD PTR _lpObj$[ebp]
  07433	8b 88 24 0e 00
	00		 mov	 ecx, DWORD PTR [eax+3620]
  07439	81 c1 d4 00 00
	00		 add	 ecx, 212		; 000000d4H
  0743f	e8 00 00 00 00	 call	 ?GetDetailItemType@CItem@@QAEHXZ ; CItem::GetDetailItemType
  07444	83 f8 06	 cmp	 eax, 6
  07447	75 20		 jne	 SHORT $LN51@gObjCalcML
$LN50@gObjCalcML:

; 2252 : 		{
; 2253 : 			lpObj->m_Defense += lpObj->m_MPSkillOpt.MpsShieldStrength3;

  07449	8b 45 08	 mov	 eax, DWORD PTR _lpObj$[ebp]
  0744c	db 80 94 04 00
	00		 fild	 DWORD PTR [eax+1172]
  07452	8b 4d 08	 mov	 ecx, DWORD PTR _lpObj$[ebp]
  07455	d8 81 18 27 00
	00		 fadd	 DWORD PTR [ecx+10008]
  0745b	e8 00 00 00 00	 call	 __ftol2_sse
  07460	8b 55 08	 mov	 edx, DWORD PTR _lpObj$[ebp]
  07463	89 82 94 04 00
	00		 mov	 DWORD PTR [edx+1172], eax
$LN51@gObjCalcML:

; 2254 : 		}
; 2255 : 	}
; 2256 : 	// ----
; 2257 : 	if( lpObj->m_MPSkillOpt.MpsOneHandStaffMastery > 0.0f )

  07469	8b 45 08	 mov	 eax, DWORD PTR _lpObj$[ebp]
  0746c	d9 80 a0 26 00
	00		 fld	 DWORD PTR [eax+9888]
  07472	dc 1d 00 00 00
	00		 fcomp	 QWORD PTR __real@0000000000000000
  07478	df e0		 fnstsw	 ax
  0747a	f6 c4 41	 test	 ah, 65			; 00000041H
  0747d	75 4c		 jne	 SHORT $LN48@gObjCalcML

; 2258 : 	{
; 2259 : 		if( lpObj->pInventory[0].GetDetailItemType() == 4 || lpObj->pInventory[1].GetDetailItemType() == 4 )

  0747f	8b 45 08	 mov	 eax, DWORD PTR _lpObj$[ebp]
  07482	8b 88 24 0e 00
	00		 mov	 ecx, DWORD PTR [eax+3620]
  07488	e8 00 00 00 00	 call	 ?GetDetailItemType@CItem@@QAEHXZ ; CItem::GetDetailItemType
  0748d	83 f8 04	 cmp	 eax, 4
  07490	74 19		 je	 SHORT $LN47@gObjCalcML
  07492	8b 45 08	 mov	 eax, DWORD PTR _lpObj$[ebp]
  07495	8b 88 24 0e 00
	00		 mov	 ecx, DWORD PTR [eax+3620]
  0749b	81 c1 d4 00 00
	00		 add	 ecx, 212		; 000000d4H
  074a1	e8 00 00 00 00	 call	 ?GetDetailItemType@CItem@@QAEHXZ ; CItem::GetDetailItemType
  074a6	83 f8 04	 cmp	 eax, 4
  074a9	75 20		 jne	 SHORT $LN48@gObjCalcML
$LN47@gObjCalcML:

; 2260 : 		{
; 2261 : 			lpObj->m_AttackSpeed += lpObj->m_MPSkillOpt.MpsOneHandStaffMastery;

  074ab	8b 45 08	 mov	 eax, DWORD PTR _lpObj$[ebp]
  074ae	db 80 8c 04 00
	00		 fild	 DWORD PTR [eax+1164]
  074b4	8b 4d 08	 mov	 ecx, DWORD PTR _lpObj$[ebp]
  074b7	d8 81 a0 26 00
	00		 fadd	 DWORD PTR [ecx+9888]
  074bd	e8 00 00 00 00	 call	 __ftol2_sse
  074c2	8b 55 08	 mov	 edx, DWORD PTR _lpObj$[ebp]
  074c5	89 82 8c 04 00
	00		 mov	 DWORD PTR [edx+1164], eax
$LN48@gObjCalcML:

; 2262 : 		}
; 2263 : 	}
; 2264 : 	// ----
; 2265 : 	if( lpObj->m_MPSkillOpt.MpsTomeMastery > 0.0f )

  074cb	8b 45 08	 mov	 eax, DWORD PTR _lpObj$[ebp]
  074ce	d9 80 f4 26 00
	00		 fld	 DWORD PTR [eax+9972]
  074d4	dc 1d 00 00 00
	00		 fcomp	 QWORD PTR __real@0000000000000000
  074da	df e0		 fnstsw	 ax
  074dc	f6 c4 41	 test	 ah, 65			; 00000041H
  074df	75 4c		 jne	 SHORT $LN45@gObjCalcML

; 2266 : 	{
; 2267 : 		if( lpObj->pInventory[0].GetDetailItemType() == 10 || lpObj->pInventory[1].GetDetailItemType() == 10 )

  074e1	8b 45 08	 mov	 eax, DWORD PTR _lpObj$[ebp]
  074e4	8b 88 24 0e 00
	00		 mov	 ecx, DWORD PTR [eax+3620]
  074ea	e8 00 00 00 00	 call	 ?GetDetailItemType@CItem@@QAEHXZ ; CItem::GetDetailItemType
  074ef	83 f8 0a	 cmp	 eax, 10			; 0000000aH
  074f2	74 19		 je	 SHORT $LN44@gObjCalcML
  074f4	8b 45 08	 mov	 eax, DWORD PTR _lpObj$[ebp]
  074f7	8b 88 24 0e 00
	00		 mov	 ecx, DWORD PTR [eax+3620]
  074fd	81 c1 d4 00 00
	00		 add	 ecx, 212		; 000000d4H
  07503	e8 00 00 00 00	 call	 ?GetDetailItemType@CItem@@QAEHXZ ; CItem::GetDetailItemType
  07508	83 f8 0a	 cmp	 eax, 10			; 0000000aH
  0750b	75 20		 jne	 SHORT $LN45@gObjCalcML
$LN44@gObjCalcML:

; 2268 : 		{
; 2269 : 			lpObj->m_AttackSpeed += lpObj->m_MPSkillOpt.MpsTomeMastery;

  0750d	8b 45 08	 mov	 eax, DWORD PTR _lpObj$[ebp]
  07510	db 80 8c 04 00
	00		 fild	 DWORD PTR [eax+1164]
  07516	8b 4d 08	 mov	 ecx, DWORD PTR _lpObj$[ebp]
  07519	d8 81 f4 26 00
	00		 fadd	 DWORD PTR [ecx+9972]
  0751f	e8 00 00 00 00	 call	 __ftol2_sse
  07524	8b 55 08	 mov	 edx, DWORD PTR _lpObj$[ebp]
  07527	89 82 8c 04 00
	00		 mov	 DWORD PTR [edx+1164], eax
$LN45@gObjCalcML:

; 2270 : 		}
; 2271 : 	}
; 2272 : 	// ----
; 2273 : 	if( lpObj->m_MPSkillOpt.MpsTomeStrength > 0.0f )

  0752d	8b 45 08	 mov	 eax, DWORD PTR _lpObj$[ebp]
  07530	d9 80 ec 26 00
	00		 fld	 DWORD PTR [eax+9964]
  07536	dc 1d 00 00 00
	00		 fcomp	 QWORD PTR __real@0000000000000000
  0753c	df e0		 fnstsw	 ax
  0753e	f6 c4 41	 test	 ah, 65			; 00000041H
  07541	75 6c		 jne	 SHORT $LN42@gObjCalcML

; 2274 : 	{
; 2275 : 		if( lpObj->pInventory[0].GetDetailItemType() == 10 || lpObj->pInventory[1].GetDetailItemType() == 10 )

  07543	8b 45 08	 mov	 eax, DWORD PTR _lpObj$[ebp]
  07546	8b 88 24 0e 00
	00		 mov	 ecx, DWORD PTR [eax+3620]
  0754c	e8 00 00 00 00	 call	 ?GetDetailItemType@CItem@@QAEHXZ ; CItem::GetDetailItemType
  07551	83 f8 0a	 cmp	 eax, 10			; 0000000aH
  07554	74 19		 je	 SHORT $LN41@gObjCalcML
  07556	8b 45 08	 mov	 eax, DWORD PTR _lpObj$[ebp]
  07559	8b 88 24 0e 00
	00		 mov	 ecx, DWORD PTR [eax+3620]
  0755f	81 c1 d4 00 00
	00		 add	 ecx, 212		; 000000d4H
  07565	e8 00 00 00 00	 call	 ?GetDetailItemType@CItem@@QAEHXZ ; CItem::GetDetailItemType
  0756a	83 f8 0a	 cmp	 eax, 10			; 0000000aH
  0756d	75 40		 jne	 SHORT $LN42@gObjCalcML
$LN41@gObjCalcML:

; 2276 : 		{
; 2277 : 			lpObj->m_iSummonerBookSpellDamageMin += lpObj->m_MPSkillOpt.MpsTomeStrength;

  0756f	8b 45 08	 mov	 eax, DWORD PTR _lpObj$[ebp]
  07572	db 80 a4 04 00
	00		 fild	 DWORD PTR [eax+1188]
  07578	8b 4d 08	 mov	 ecx, DWORD PTR _lpObj$[ebp]
  0757b	d8 81 ec 26 00
	00		 fadd	 DWORD PTR [ecx+9964]
  07581	e8 00 00 00 00	 call	 __ftol2_sse
  07586	8b 55 08	 mov	 edx, DWORD PTR _lpObj$[ebp]
  07589	89 82 a4 04 00
	00		 mov	 DWORD PTR [edx+1188], eax

; 2278 : 			lpObj->m_iSummonerBookSpellDamageMax += lpObj->m_MPSkillOpt.MpsTomeStrength;

  0758f	8b 45 08	 mov	 eax, DWORD PTR _lpObj$[ebp]
  07592	db 80 a8 04 00
	00		 fild	 DWORD PTR [eax+1192]
  07598	8b 4d 08	 mov	 ecx, DWORD PTR _lpObj$[ebp]
  0759b	d8 81 ec 26 00
	00		 fadd	 DWORD PTR [ecx+9964]
  075a1	e8 00 00 00 00	 call	 __ftol2_sse
  075a6	8b 55 08	 mov	 edx, DWORD PTR _lpObj$[ebp]
  075a9	89 82 a8 04 00
	00		 mov	 DWORD PTR [edx+1192], eax
$LN42@gObjCalcML:

; 2279 : 		}
; 2280 : 	}
; 2281 : 	// ----
; 2282 : 	if( lpObj->m_MPSkillOpt.MpsTwoHandStaffMastery > 0.0f )

  075af	8b 45 08	 mov	 eax, DWORD PTR _lpObj$[ebp]
  075b2	d9 80 a4 26 00
	00		 fld	 DWORD PTR [eax+9892]
  075b8	dc 1d 00 00 00
	00		 fcomp	 QWORD PTR __real@0000000000000000
  075be	df e0		 fnstsw	 ax
  075c0	f6 c4 41	 test	 ah, 65			; 00000041H
  075c3	75 37		 jne	 SHORT $LN39@gObjCalcML

; 2283 : 	{
; 2284 : 		if( lpObj->pInventory[0].GetDetailItemType() != 5 && lpObj->pInventory[1].GetDetailItemType() != 5 )

  075c5	8b 45 08	 mov	 eax, DWORD PTR _lpObj$[ebp]
  075c8	8b 88 24 0e 00
	00		 mov	 ecx, DWORD PTR [eax+3620]
  075ce	e8 00 00 00 00	 call	 ?GetDetailItemType@CItem@@QAEHXZ ; CItem::GetDetailItemType
  075d3	83 f8 05	 cmp	 eax, 5
  075d6	74 24		 je	 SHORT $LN39@gObjCalcML
  075d8	8b 45 08	 mov	 eax, DWORD PTR _lpObj$[ebp]
  075db	8b 88 24 0e 00
	00		 mov	 ecx, DWORD PTR [eax+3620]
  075e1	81 c1 d4 00 00
	00		 add	 ecx, 212		; 000000d4H
  075e7	e8 00 00 00 00	 call	 ?GetDetailItemType@CItem@@QAEHXZ ; CItem::GetDetailItemType
  075ec	83 f8 05	 cmp	 eax, 5
  075ef	74 0b		 je	 SHORT $LN39@gObjCalcML

; 2285 : 		{
; 2286 : 			lpObj->m_MPSkillOpt.MpsTwoHandStaffMastery = 0;

  075f1	8b 45 08	 mov	 eax, DWORD PTR _lpObj$[ebp]
  075f4	d9 ee		 fldz
  075f6	d9 98 a4 26 00
	00		 fstp	 DWORD PTR [eax+9892]
$LN39@gObjCalcML:

; 2287 : 		}
; 2288 : 	}
; 2289 : 	// ----
; 2290 : 	if( lpObj->m_MPSkillOpt.MpsCrossbowMastery > 0.0f )

  075fc	8b 45 08	 mov	 eax, DWORD PTR _lpObj$[ebp]
  075ff	d9 80 b8 26 00
	00		 fld	 DWORD PTR [eax+9912]
  07605	dc 1d 00 00 00
	00		 fcomp	 QWORD PTR __real@0000000000000000
  0760b	df e0		 fnstsw	 ax
  0760d	f6 c4 41	 test	 ah, 65			; 00000041H
  07610	75 37		 jne	 SHORT $LN37@gObjCalcML

; 2291 : 	{
; 2292 : 		if( lpObj->pInventory[0].GetDetailItemType() != 8 && lpObj->pInventory[1].GetDetailItemType() != 8 )

  07612	8b 45 08	 mov	 eax, DWORD PTR _lpObj$[ebp]
  07615	8b 88 24 0e 00
	00		 mov	 ecx, DWORD PTR [eax+3620]
  0761b	e8 00 00 00 00	 call	 ?GetDetailItemType@CItem@@QAEHXZ ; CItem::GetDetailItemType
  07620	83 f8 08	 cmp	 eax, 8
  07623	74 24		 je	 SHORT $LN37@gObjCalcML
  07625	8b 45 08	 mov	 eax, DWORD PTR _lpObj$[ebp]
  07628	8b 88 24 0e 00
	00		 mov	 ecx, DWORD PTR [eax+3620]
  0762e	81 c1 d4 00 00
	00		 add	 ecx, 212		; 000000d4H
  07634	e8 00 00 00 00	 call	 ?GetDetailItemType@CItem@@QAEHXZ ; CItem::GetDetailItemType
  07639	83 f8 08	 cmp	 eax, 8
  0763c	74 0b		 je	 SHORT $LN37@gObjCalcML

; 2293 : 		{
; 2294 : 			lpObj->m_MPSkillOpt.MpsCrossbowMastery = 0;

  0763e	8b 45 08	 mov	 eax, DWORD PTR _lpObj$[ebp]
  07641	d9 ee		 fldz
  07643	d9 98 b8 26 00
	00		 fstp	 DWORD PTR [eax+9912]
$LN37@gObjCalcML:

; 2295 : 		}
; 2296 : 	}
; 2297 : 	// ----
; 2298 : 	if( lpObj->m_MPSkillOpt.MpsStickMastery > 0.0f )

  07649	8b 45 08	 mov	 eax, DWORD PTR _lpObj$[ebp]
  0764c	d9 80 f0 26 00
	00		 fld	 DWORD PTR [eax+9968]
  07652	dc 1d 00 00 00
	00		 fcomp	 QWORD PTR __real@0000000000000000
  07658	df e0		 fnstsw	 ax
  0765a	f6 c4 41	 test	 ah, 65			; 00000041H
  0765d	75 37		 jne	 SHORT $LN35@gObjCalcML

; 2299 : 	{
; 2300 : 		if( lpObj->pInventory[0].GetDetailItemType() != 9 && lpObj->pInventory[1].GetDetailItemType() != 9 )

  0765f	8b 45 08	 mov	 eax, DWORD PTR _lpObj$[ebp]
  07662	8b 88 24 0e 00
	00		 mov	 ecx, DWORD PTR [eax+3620]
  07668	e8 00 00 00 00	 call	 ?GetDetailItemType@CItem@@QAEHXZ ; CItem::GetDetailItemType
  0766d	83 f8 09	 cmp	 eax, 9
  07670	74 24		 je	 SHORT $LN35@gObjCalcML
  07672	8b 45 08	 mov	 eax, DWORD PTR _lpObj$[ebp]
  07675	8b 88 24 0e 00
	00		 mov	 ecx, DWORD PTR [eax+3620]
  0767b	81 c1 d4 00 00
	00		 add	 ecx, 212		; 000000d4H
  07681	e8 00 00 00 00	 call	 ?GetDetailItemType@CItem@@QAEHXZ ; CItem::GetDetailItemType
  07686	83 f8 09	 cmp	 eax, 9
  07689	74 0b		 je	 SHORT $LN35@gObjCalcML

; 2301 : 		{
; 2302 : 			lpObj->m_MPSkillOpt.MpsStickMastery = 0;

  0768b	8b 45 08	 mov	 eax, DWORD PTR _lpObj$[ebp]
  0768e	d9 ee		 fldz
  07690	d9 98 f0 26 00
	00		 fstp	 DWORD PTR [eax+9968]
$LN35@gObjCalcML:

; 2303 : 		}
; 2304 : 	}
; 2305 : 	// ----
; 2306 : 	if( lpObj->m_MPSkillOpt.MpsScepterMastery > 0.0f )

  07696	8b 45 08	 mov	 eax, DWORD PTR _lpObj$[ebp]
  07699	d9 80 14 27 00
	00		 fld	 DWORD PTR [eax+10004]
  0769f	dc 1d 00 00 00
	00		 fcomp	 QWORD PTR __real@0000000000000000
  076a5	df e0		 fnstsw	 ax
  076a7	f6 c4 41	 test	 ah, 65			; 00000041H
  076aa	75 37		 jne	 SHORT $LN33@gObjCalcML

; 2307 : 	{
; 2308 : 		if( lpObj->pInventory[0].GetDetailItemType() != 11 && lpObj->pInventory[1].GetDetailItemType() != 11 )

  076ac	8b 45 08	 mov	 eax, DWORD PTR _lpObj$[ebp]
  076af	8b 88 24 0e 00
	00		 mov	 ecx, DWORD PTR [eax+3620]
  076b5	e8 00 00 00 00	 call	 ?GetDetailItemType@CItem@@QAEHXZ ; CItem::GetDetailItemType
  076ba	83 f8 0b	 cmp	 eax, 11			; 0000000bH
  076bd	74 24		 je	 SHORT $LN33@gObjCalcML
  076bf	8b 45 08	 mov	 eax, DWORD PTR _lpObj$[ebp]
  076c2	8b 88 24 0e 00
	00		 mov	 ecx, DWORD PTR [eax+3620]
  076c8	81 c1 d4 00 00
	00		 add	 ecx, 212		; 000000d4H
  076ce	e8 00 00 00 00	 call	 ?GetDetailItemType@CItem@@QAEHXZ ; CItem::GetDetailItemType
  076d3	83 f8 0b	 cmp	 eax, 11			; 0000000bH
  076d6	74 0b		 je	 SHORT $LN33@gObjCalcML

; 2309 : 		{
; 2310 : 			lpObj->m_MPSkillOpt.MpsScepterMastery = 0;

  076d8	8b 45 08	 mov	 eax, DWORD PTR _lpObj$[ebp]
  076db	d9 ee		 fldz
  076dd	d9 98 14 27 00
	00		 fstp	 DWORD PTR [eax+10004]
$LN33@gObjCalcML:

; 2311 : 		}
; 2312 : 	}
; 2313 : 	// ----
; 2314 : 	if( lpObj->m_MPSkillOpt.MpsShieldMastery > 0.0f )

  076e3	8b 45 08	 mov	 eax, DWORD PTR _lpObj$[ebp]
  076e6	d9 80 a8 26 00
	00		 fld	 DWORD PTR [eax+9896]
  076ec	dc 1d 00 00 00
	00		 fcomp	 QWORD PTR __real@0000000000000000
  076f2	df e0		 fnstsw	 ax
  076f4	f6 c4 41	 test	 ah, 65			; 00000041H
  076f7	75 37		 jne	 SHORT $LN31@gObjCalcML

; 2315 : 	{
; 2316 : 		if( lpObj->pInventory[0].GetDetailItemType() != 6 && lpObj->pInventory[1].GetDetailItemType() != 6 )

  076f9	8b 45 08	 mov	 eax, DWORD PTR _lpObj$[ebp]
  076fc	8b 88 24 0e 00
	00		 mov	 ecx, DWORD PTR [eax+3620]
  07702	e8 00 00 00 00	 call	 ?GetDetailItemType@CItem@@QAEHXZ ; CItem::GetDetailItemType
  07707	83 f8 06	 cmp	 eax, 6
  0770a	74 24		 je	 SHORT $LN31@gObjCalcML
  0770c	8b 45 08	 mov	 eax, DWORD PTR _lpObj$[ebp]
  0770f	8b 88 24 0e 00
	00		 mov	 ecx, DWORD PTR [eax+3620]
  07715	81 c1 d4 00 00
	00		 add	 ecx, 212		; 000000d4H
  0771b	e8 00 00 00 00	 call	 ?GetDetailItemType@CItem@@QAEHXZ ; CItem::GetDetailItemType
  07720	83 f8 06	 cmp	 eax, 6
  07723	74 0b		 je	 SHORT $LN31@gObjCalcML

; 2317 : 		{
; 2318 : 			lpObj->m_MPSkillOpt.MpsShieldMastery = 0;

  07725	8b 45 08	 mov	 eax, DWORD PTR _lpObj$[ebp]
  07728	d9 ee		 fldz
  0772a	d9 98 a8 26 00
	00		 fstp	 DWORD PTR [eax+9896]
$LN31@gObjCalcML:

; 2319 : 		}
; 2320 : 	}
; 2321 : 	// ----
; 2322 : 	//
; 2323 : 	// ----
; 2324 : 	if( lpObj->m_MPSkillOpt.MpsShieldMastery3 > 0.0f )

  07730	8b 45 08	 mov	 eax, DWORD PTR _lpObj$[ebp]
  07733	d9 80 1c 27 00
	00		 fld	 DWORD PTR [eax+10012]
  07739	dc 1d 00 00 00
	00		 fcomp	 QWORD PTR __real@0000000000000000
  0773f	df e0		 fnstsw	 ax
  07741	f6 c4 41	 test	 ah, 65			; 00000041H
  07744	75 37		 jne	 SHORT $LN29@gObjCalcML

; 2325 : 	{
; 2326 : 		if( lpObj->pInventory[0].GetDetailItemType() != 6 && lpObj->pInventory[1].GetDetailItemType() != 6 )

  07746	8b 45 08	 mov	 eax, DWORD PTR _lpObj$[ebp]
  07749	8b 88 24 0e 00
	00		 mov	 ecx, DWORD PTR [eax+3620]
  0774f	e8 00 00 00 00	 call	 ?GetDetailItemType@CItem@@QAEHXZ ; CItem::GetDetailItemType
  07754	83 f8 06	 cmp	 eax, 6
  07757	74 24		 je	 SHORT $LN29@gObjCalcML
  07759	8b 45 08	 mov	 eax, DWORD PTR _lpObj$[ebp]
  0775c	8b 88 24 0e 00
	00		 mov	 ecx, DWORD PTR [eax+3620]
  07762	81 c1 d4 00 00
	00		 add	 ecx, 212		; 000000d4H
  07768	e8 00 00 00 00	 call	 ?GetDetailItemType@CItem@@QAEHXZ ; CItem::GetDetailItemType
  0776d	83 f8 06	 cmp	 eax, 6
  07770	74 0b		 je	 SHORT $LN29@gObjCalcML

; 2327 : 		{
; 2328 : 			lpObj->m_MPSkillOpt.MpsShieldMastery3 = 0;

  07772	8b 45 08	 mov	 eax, DWORD PTR _lpObj$[ebp]
  07775	d9 ee		 fldz
  07777	d9 98 1c 27 00
	00		 fstp	 DWORD PTR [eax+10012]
$LN29@gObjCalcML:

; 2329 : 		}
; 2330 : 	}
; 2331 : 	// ----
; 2332 : 	if( lpObj->m_MPSkillOpt.MpsOneHandSwordMastery > 0.0f )

  0777d	8b 45 08	 mov	 eax, DWORD PTR _lpObj$[ebp]
  07780	d9 80 84 26 00
	00		 fld	 DWORD PTR [eax+9860]
  07786	dc 1d 00 00 00
	00		 fcomp	 QWORD PTR __real@0000000000000000
  0778c	df e0		 fnstsw	 ax
  0778e	f6 c4 41	 test	 ah, 65			; 00000041H
  07791	75 4c		 jne	 SHORT $LN27@gObjCalcML

; 2333 : 	{
; 2334 : 		if( lpObj->pInventory[0].GetDetailItemType() == 1 && lpObj->pInventory[1].GetDetailItemType() == 1 )

  07793	8b 45 08	 mov	 eax, DWORD PTR _lpObj$[ebp]
  07796	8b 88 24 0e 00
	00		 mov	 ecx, DWORD PTR [eax+3620]
  0779c	e8 00 00 00 00	 call	 ?GetDetailItemType@CItem@@QAEHXZ ; CItem::GetDetailItemType
  077a1	83 f8 01	 cmp	 eax, 1
  077a4	75 39		 jne	 SHORT $LN27@gObjCalcML
  077a6	8b 45 08	 mov	 eax, DWORD PTR _lpObj$[ebp]
  077a9	8b 88 24 0e 00
	00		 mov	 ecx, DWORD PTR [eax+3620]
  077af	81 c1 d4 00 00
	00		 add	 ecx, 212		; 000000d4H
  077b5	e8 00 00 00 00	 call	 ?GetDetailItemType@CItem@@QAEHXZ ; CItem::GetDetailItemType
  077ba	83 f8 01	 cmp	 eax, 1
  077bd	75 20		 jne	 SHORT $LN27@gObjCalcML

; 2335 : 		{
; 2336 : 			lpObj->m_AttackSpeed += lpObj->m_MPSkillOpt.MpsOneHandSwordMastery;

  077bf	8b 45 08	 mov	 eax, DWORD PTR _lpObj$[ebp]
  077c2	db 80 8c 04 00
	00		 fild	 DWORD PTR [eax+1164]
  077c8	8b 4d 08	 mov	 ecx, DWORD PTR _lpObj$[ebp]
  077cb	d8 81 84 26 00
	00		 fadd	 DWORD PTR [ecx+9860]
  077d1	e8 00 00 00 00	 call	 __ftol2_sse
  077d6	8b 55 08	 mov	 edx, DWORD PTR _lpObj$[ebp]
  077d9	89 82 8c 04 00
	00		 mov	 DWORD PTR [edx+1164], eax
$LN27@gObjCalcML:

; 2337 : 		}
; 2338 : 	}
; 2339 : 	// ----
; 2340 : 	if( lpObj->m_MPSkillOpt.MpsOneHandSwordStrength > 0.0f )

  077df	8b 45 08	 mov	 eax, DWORD PTR _lpObj$[ebp]
  077e2	d9 80 74 26 00
	00		 fld	 DWORD PTR [eax+9844]
  077e8	dc 1d 00 00 00
	00		 fcomp	 QWORD PTR __real@0000000000000000
  077ee	df e0		 fnstsw	 ax
  077f0	f6 c4 41	 test	 ah, 65			; 00000041H
  077f3	75 37		 jne	 SHORT $LN25@gObjCalcML

; 2341 : 	{
; 2342 : 		if( lpObj->pInventory[0].GetDetailItemType() != 1 && lpObj->pInventory[1].GetDetailItemType() != 1 )

  077f5	8b 45 08	 mov	 eax, DWORD PTR _lpObj$[ebp]
  077f8	8b 88 24 0e 00
	00		 mov	 ecx, DWORD PTR [eax+3620]
  077fe	e8 00 00 00 00	 call	 ?GetDetailItemType@CItem@@QAEHXZ ; CItem::GetDetailItemType
  07803	83 f8 01	 cmp	 eax, 1
  07806	74 24		 je	 SHORT $LN25@gObjCalcML
  07808	8b 45 08	 mov	 eax, DWORD PTR _lpObj$[ebp]
  0780b	8b 88 24 0e 00
	00		 mov	 ecx, DWORD PTR [eax+3620]
  07811	81 c1 d4 00 00
	00		 add	 ecx, 212		; 000000d4H
  07817	e8 00 00 00 00	 call	 ?GetDetailItemType@CItem@@QAEHXZ ; CItem::GetDetailItemType
  0781c	83 f8 01	 cmp	 eax, 1
  0781f	74 0b		 je	 SHORT $LN25@gObjCalcML

; 2343 : 		{
; 2344 : 			lpObj->m_MPSkillOpt.MpsOneHandSwordStrength = 0;

  07821	8b 45 08	 mov	 eax, DWORD PTR _lpObj$[ebp]
  07824	d9 ee		 fldz
  07826	d9 98 74 26 00
	00		 fstp	 DWORD PTR [eax+9844]
$LN25@gObjCalcML:

; 2345 : 		}
; 2346 : 	}
; 2347 : 	// ----
; 2348 : 	if( lpObj->m_MPSkillOpt.MpsMaceStrength > 0.0f )

  0782c	8b 45 08	 mov	 eax, DWORD PTR _lpObj$[ebp]
  0782f	d9 80 78 26 00
	00		 fld	 DWORD PTR [eax+9848]
  07835	dc 1d 00 00 00
	00		 fcomp	 QWORD PTR __real@0000000000000000
  0783b	df e0		 fnstsw	 ax
  0783d	f6 c4 41	 test	 ah, 65			; 00000041H
  07840	75 37		 jne	 SHORT $LN23@gObjCalcML

; 2349 : 	{
; 2350 : 		if( lpObj->pInventory[0].GetDetailItemType() != 2 && lpObj->pInventory[1].GetDetailItemType() != 2 )

  07842	8b 45 08	 mov	 eax, DWORD PTR _lpObj$[ebp]
  07845	8b 88 24 0e 00
	00		 mov	 ecx, DWORD PTR [eax+3620]
  0784b	e8 00 00 00 00	 call	 ?GetDetailItemType@CItem@@QAEHXZ ; CItem::GetDetailItemType
  07850	83 f8 02	 cmp	 eax, 2
  07853	74 24		 je	 SHORT $LN23@gObjCalcML
  07855	8b 45 08	 mov	 eax, DWORD PTR _lpObj$[ebp]
  07858	8b 88 24 0e 00
	00		 mov	 ecx, DWORD PTR [eax+3620]
  0785e	81 c1 d4 00 00
	00		 add	 ecx, 212		; 000000d4H
  07864	e8 00 00 00 00	 call	 ?GetDetailItemType@CItem@@QAEHXZ ; CItem::GetDetailItemType
  07869	83 f8 02	 cmp	 eax, 2
  0786c	74 0b		 je	 SHORT $LN23@gObjCalcML

; 2351 : 		{
; 2352 : 			lpObj->m_MPSkillOpt.MpsMaceStrength = 0;

  0786e	8b 45 08	 mov	 eax, DWORD PTR _lpObj$[ebp]
  07871	d9 ee		 fldz
  07873	d9 98 78 26 00
	00		 fstp	 DWORD PTR [eax+9848]
$LN23@gObjCalcML:

; 2353 : 		}
; 2354 : 	}
; 2355 : 	// ----
; 2356 : 	if( lpObj->m_MPSkillOpt.MpsMaceMastery > 0.0f )

  07879	8b 45 08	 mov	 eax, DWORD PTR _lpObj$[ebp]
  0787c	d9 80 8c 26 00
	00		 fld	 DWORD PTR [eax+9868]
  07882	dc 1d 00 00 00
	00		 fcomp	 QWORD PTR __real@0000000000000000
  07888	df e0		 fnstsw	 ax
  0788a	f6 c4 41	 test	 ah, 65			; 00000041H
  0788d	75 37		 jne	 SHORT $LN21@gObjCalcML

; 2357 : 	{
; 2358 : 		if( lpObj->pInventory[0].GetDetailItemType() != 2 && lpObj->pInventory[1].GetDetailItemType() != 2 )

  0788f	8b 45 08	 mov	 eax, DWORD PTR _lpObj$[ebp]
  07892	8b 88 24 0e 00
	00		 mov	 ecx, DWORD PTR [eax+3620]
  07898	e8 00 00 00 00	 call	 ?GetDetailItemType@CItem@@QAEHXZ ; CItem::GetDetailItemType
  0789d	83 f8 02	 cmp	 eax, 2
  078a0	74 24		 je	 SHORT $LN21@gObjCalcML
  078a2	8b 45 08	 mov	 eax, DWORD PTR _lpObj$[ebp]
  078a5	8b 88 24 0e 00
	00		 mov	 ecx, DWORD PTR [eax+3620]
  078ab	81 c1 d4 00 00
	00		 add	 ecx, 212		; 000000d4H
  078b1	e8 00 00 00 00	 call	 ?GetDetailItemType@CItem@@QAEHXZ ; CItem::GetDetailItemType
  078b6	83 f8 02	 cmp	 eax, 2
  078b9	74 0b		 je	 SHORT $LN21@gObjCalcML

; 2359 : 		{
; 2360 : 			lpObj->m_MPSkillOpt.MpsMaceMastery = 0;

  078bb	8b 45 08	 mov	 eax, DWORD PTR _lpObj$[ebp]
  078be	d9 ee		 fldz
  078c0	d9 98 8c 26 00
	00		 fstp	 DWORD PTR [eax+9868]
$LN21@gObjCalcML:

; 2361 : 		}
; 2362 : 	}
; 2363 : 	// ----
; 2364 : 	if( lpObj->m_MPSkillOpt.MpsSpearStrength > 0.0f )

  078c6	8b 45 08	 mov	 eax, DWORD PTR _lpObj$[ebp]
  078c9	d9 80 7c 26 00
	00		 fld	 DWORD PTR [eax+9852]
  078cf	dc 1d 00 00 00
	00		 fcomp	 QWORD PTR __real@0000000000000000
  078d5	df e0		 fnstsw	 ax
  078d7	f6 c4 41	 test	 ah, 65			; 00000041H
  078da	75 37		 jne	 SHORT $LN19@gObjCalcML

; 2365 : 	{
; 2366 : 		if( lpObj->pInventory[0].GetDetailItemType() != 3 && lpObj->pInventory[1].GetDetailItemType() != 3 )

  078dc	8b 45 08	 mov	 eax, DWORD PTR _lpObj$[ebp]
  078df	8b 88 24 0e 00
	00		 mov	 ecx, DWORD PTR [eax+3620]
  078e5	e8 00 00 00 00	 call	 ?GetDetailItemType@CItem@@QAEHXZ ; CItem::GetDetailItemType
  078ea	83 f8 03	 cmp	 eax, 3
  078ed	74 24		 je	 SHORT $LN19@gObjCalcML
  078ef	8b 45 08	 mov	 eax, DWORD PTR _lpObj$[ebp]
  078f2	8b 88 24 0e 00
	00		 mov	 ecx, DWORD PTR [eax+3620]
  078f8	81 c1 d4 00 00
	00		 add	 ecx, 212		; 000000d4H
  078fe	e8 00 00 00 00	 call	 ?GetDetailItemType@CItem@@QAEHXZ ; CItem::GetDetailItemType
  07903	83 f8 03	 cmp	 eax, 3
  07906	74 0b		 je	 SHORT $LN19@gObjCalcML

; 2367 : 		{
; 2368 : 			lpObj->m_MPSkillOpt.MpsSpearStrength = 0;

  07908	8b 45 08	 mov	 eax, DWORD PTR _lpObj$[ebp]
  0790b	d9 ee		 fldz
  0790d	d9 98 7c 26 00
	00		 fstp	 DWORD PTR [eax+9852]
$LN19@gObjCalcML:

; 2369 : 		} 
; 2370 : 	}
; 2371 : 	// ----
; 2372 : 	if( lpObj->m_MPSkillOpt.MpsSpearMastery > 0.0f )

  07913	8b 45 08	 mov	 eax, DWORD PTR _lpObj$[ebp]
  07916	d9 80 88 26 00
	00		 fld	 DWORD PTR [eax+9864]
  0791c	dc 1d 00 00 00
	00		 fcomp	 QWORD PTR __real@0000000000000000
  07922	df e0		 fnstsw	 ax
  07924	f6 c4 41	 test	 ah, 65			; 00000041H
  07927	75 37		 jne	 SHORT $LN17@gObjCalcML

; 2373 : 	{
; 2374 : 		if( lpObj->pInventory[0].GetDetailItemType() != 3 && lpObj->pInventory[1].GetDetailItemType() != 3 )

  07929	8b 45 08	 mov	 eax, DWORD PTR _lpObj$[ebp]
  0792c	8b 88 24 0e 00
	00		 mov	 ecx, DWORD PTR [eax+3620]
  07932	e8 00 00 00 00	 call	 ?GetDetailItemType@CItem@@QAEHXZ ; CItem::GetDetailItemType
  07937	83 f8 03	 cmp	 eax, 3
  0793a	74 24		 je	 SHORT $LN17@gObjCalcML
  0793c	8b 45 08	 mov	 eax, DWORD PTR _lpObj$[ebp]
  0793f	8b 88 24 0e 00
	00		 mov	 ecx, DWORD PTR [eax+3620]
  07945	81 c1 d4 00 00
	00		 add	 ecx, 212		; 000000d4H
  0794b	e8 00 00 00 00	 call	 ?GetDetailItemType@CItem@@QAEHXZ ; CItem::GetDetailItemType
  07950	83 f8 03	 cmp	 eax, 3
  07953	74 0b		 je	 SHORT $LN17@gObjCalcML

; 2375 : 		{
; 2376 : 			lpObj->m_MPSkillOpt.MpsSpearMastery = 0;

  07955	8b 45 08	 mov	 eax, DWORD PTR _lpObj$[ebp]
  07958	d9 ee		 fldz
  0795a	d9 98 88 26 00
	00		 fstp	 DWORD PTR [eax+9864]
$LN17@gObjCalcML:

; 2377 : 		} 
; 2378 : 	}
; 2379 : 	// ----
; 2380 : 	if( lpObj->m_MPSkillOpt.MpsBowStrength > 0.0f )

  07960	8b 45 08	 mov	 eax, DWORD PTR _lpObj$[ebp]
  07963	d9 80 ac 26 00
	00		 fld	 DWORD PTR [eax+9900]
  07969	dc 1d 00 00 00
	00		 fcomp	 QWORD PTR __real@0000000000000000
  0796f	df e0		 fnstsw	 ax
  07971	f6 c4 41	 test	 ah, 65			; 00000041H
  07974	75 37		 jne	 SHORT $LN15@gObjCalcML

; 2381 : 	{
; 2382 : 		if( lpObj->pInventory[0].GetDetailItemType() != 7 && lpObj->pInventory[1].GetDetailItemType() != 7 )

  07976	8b 45 08	 mov	 eax, DWORD PTR _lpObj$[ebp]
  07979	8b 88 24 0e 00
	00		 mov	 ecx, DWORD PTR [eax+3620]
  0797f	e8 00 00 00 00	 call	 ?GetDetailItemType@CItem@@QAEHXZ ; CItem::GetDetailItemType
  07984	83 f8 07	 cmp	 eax, 7
  07987	74 24		 je	 SHORT $LN15@gObjCalcML
  07989	8b 45 08	 mov	 eax, DWORD PTR _lpObj$[ebp]
  0798c	8b 88 24 0e 00
	00		 mov	 ecx, DWORD PTR [eax+3620]
  07992	81 c1 d4 00 00
	00		 add	 ecx, 212		; 000000d4H
  07998	e8 00 00 00 00	 call	 ?GetDetailItemType@CItem@@QAEHXZ ; CItem::GetDetailItemType
  0799d	83 f8 07	 cmp	 eax, 7
  079a0	74 0b		 je	 SHORT $LN15@gObjCalcML

; 2383 : 		{
; 2384 : 			lpObj->m_MPSkillOpt.MpsBowStrength = 0;

  079a2	8b 45 08	 mov	 eax, DWORD PTR _lpObj$[ebp]
  079a5	d9 ee		 fldz
  079a7	d9 98 ac 26 00
	00		 fstp	 DWORD PTR [eax+9900]
$LN15@gObjCalcML:

; 2385 : 		} 
; 2386 : 	}
; 2387 : 	// ----
; 2388 : 	if( lpObj->m_MPSkillOpt.MpsScepterStrength > 0.0f )

  079ad	8b 45 08	 mov	 eax, DWORD PTR _lpObj$[ebp]
  079b0	d9 80 10 27 00
	00		 fld	 DWORD PTR [eax+10000]
  079b6	dc 1d 00 00 00
	00		 fcomp	 QWORD PTR __real@0000000000000000
  079bc	df e0		 fnstsw	 ax
  079be	f6 c4 41	 test	 ah, 65			; 00000041H
  079c1	75 37		 jne	 SHORT $LN13@gObjCalcML

; 2389 : 	{
; 2390 : 		if( lpObj->pInventory[0].GetDetailItemType() != 11 && lpObj->pInventory[1].GetDetailItemType() != 11 )

  079c3	8b 45 08	 mov	 eax, DWORD PTR _lpObj$[ebp]
  079c6	8b 88 24 0e 00
	00		 mov	 ecx, DWORD PTR [eax+3620]
  079cc	e8 00 00 00 00	 call	 ?GetDetailItemType@CItem@@QAEHXZ ; CItem::GetDetailItemType
  079d1	83 f8 0b	 cmp	 eax, 11			; 0000000bH
  079d4	74 24		 je	 SHORT $LN13@gObjCalcML
  079d6	8b 45 08	 mov	 eax, DWORD PTR _lpObj$[ebp]
  079d9	8b 88 24 0e 00
	00		 mov	 ecx, DWORD PTR [eax+3620]
  079df	81 c1 d4 00 00
	00		 add	 ecx, 212		; 000000d4H
  079e5	e8 00 00 00 00	 call	 ?GetDetailItemType@CItem@@QAEHXZ ; CItem::GetDetailItemType
  079ea	83 f8 0b	 cmp	 eax, 11			; 0000000bH
  079ed	74 0b		 je	 SHORT $LN13@gObjCalcML

; 2391 : 		{
; 2392 : 			lpObj->m_MPSkillOpt.MpsScepterStrength = 0;

  079ef	8b 45 08	 mov	 eax, DWORD PTR _lpObj$[ebp]
  079f2	d9 ee		 fldz
  079f4	d9 98 10 27 00
	00		 fstp	 DWORD PTR [eax+10000]
$LN13@gObjCalcML:

; 2393 : 		} 
; 2394 : 	}
; 2395 : 	// ----
; 2396 : 	if( lpObj->m_MPSkillOpt.MpsUseScepterPetStr > 0.0f )

  079fa	8b 45 08	 mov	 eax, DWORD PTR _lpObj$[ebp]
  079fd	d9 80 20 27 00
	00		 fld	 DWORD PTR [eax+10016]
  07a03	dc 1d 00 00 00
	00		 fcomp	 QWORD PTR __real@0000000000000000
  07a09	df e0		 fnstsw	 ax
  07a0b	f6 c4 41	 test	 ah, 65			; 00000041H
  07a0e	75 37		 jne	 SHORT $LN11@gObjCalcML

; 2397 : 	{
; 2398 : 		if( lpObj->pInventory[0].GetDetailItemType() != 11 && lpObj->pInventory[1].GetDetailItemType() != 11 )

  07a10	8b 45 08	 mov	 eax, DWORD PTR _lpObj$[ebp]
  07a13	8b 88 24 0e 00
	00		 mov	 ecx, DWORD PTR [eax+3620]
  07a19	e8 00 00 00 00	 call	 ?GetDetailItemType@CItem@@QAEHXZ ; CItem::GetDetailItemType
  07a1e	83 f8 0b	 cmp	 eax, 11			; 0000000bH
  07a21	74 24		 je	 SHORT $LN11@gObjCalcML
  07a23	8b 45 08	 mov	 eax, DWORD PTR _lpObj$[ebp]
  07a26	8b 88 24 0e 00
	00		 mov	 ecx, DWORD PTR [eax+3620]
  07a2c	81 c1 d4 00 00
	00		 add	 ecx, 212		; 000000d4H
  07a32	e8 00 00 00 00	 call	 ?GetDetailItemType@CItem@@QAEHXZ ; CItem::GetDetailItemType
  07a37	83 f8 0b	 cmp	 eax, 11			; 0000000bH
  07a3a	74 0b		 je	 SHORT $LN11@gObjCalcML

; 2399 : 		{
; 2400 : 			lpObj->m_MPSkillOpt.MpsUseScepterPetStr = 0;

  07a3c	8b 45 08	 mov	 eax, DWORD PTR _lpObj$[ebp]
  07a3f	d9 ee		 fldz
  07a41	d9 98 20 27 00
	00		 fstp	 DWORD PTR [eax+10016]
$LN11@gObjCalcML:

; 2401 : 		} 
; 2402 : 	}
; 2403 : 	// ----
; 2404 : 	if( lpObj->m_MPSkillOpt.MpsFistMastery > 0.0f )

  07a47	8b 45 08	 mov	 eax, DWORD PTR _lpObj$[ebp]
  07a4a	d9 80 98 27 00
	00		 fld	 DWORD PTR [eax+10136]
  07a50	dc 1d 00 00 00
	00		 fcomp	 QWORD PTR __real@0000000000000000
  07a56	df e0		 fnstsw	 ax
  07a58	f6 c4 41	 test	 ah, 65			; 00000041H
  07a5b	75 37		 jne	 SHORT $LN9@gObjCalcML

; 2405 : 	{
; 2406 : 		if( lpObj->pInventory[0].GetDetailItemType() != 12 && lpObj->pInventory[1].GetDetailItemType() != 12 )

  07a5d	8b 45 08	 mov	 eax, DWORD PTR _lpObj$[ebp]
  07a60	8b 88 24 0e 00
	00		 mov	 ecx, DWORD PTR [eax+3620]
  07a66	e8 00 00 00 00	 call	 ?GetDetailItemType@CItem@@QAEHXZ ; CItem::GetDetailItemType
  07a6b	83 f8 0c	 cmp	 eax, 12			; 0000000cH
  07a6e	74 24		 je	 SHORT $LN9@gObjCalcML
  07a70	8b 45 08	 mov	 eax, DWORD PTR _lpObj$[ebp]
  07a73	8b 88 24 0e 00
	00		 mov	 ecx, DWORD PTR [eax+3620]
  07a79	81 c1 d4 00 00
	00		 add	 ecx, 212		; 000000d4H
  07a7f	e8 00 00 00 00	 call	 ?GetDetailItemType@CItem@@QAEHXZ ; CItem::GetDetailItemType
  07a84	83 f8 0c	 cmp	 eax, 12			; 0000000cH
  07a87	74 0b		 je	 SHORT $LN9@gObjCalcML

; 2407 : 		{
; 2408 : 			lpObj->m_MPSkillOpt.MpsFistMastery = 0;

  07a89	8b 45 08	 mov	 eax, DWORD PTR _lpObj$[ebp]
  07a8c	d9 ee		 fldz
  07a8e	d9 98 98 27 00
	00		 fstp	 DWORD PTR [eax+10136]
$LN9@gObjCalcML:

; 2409 : 		} 
; 2410 : 	}
; 2411 : 	// ----
; 2412 : 	if( lpObj->m_MPSkillOpt.MpsFistStrength > 0.0f )

  07a94	8b 45 08	 mov	 eax, DWORD PTR _lpObj$[ebp]
  07a97	d9 80 94 27 00
	00		 fld	 DWORD PTR [eax+10132]
  07a9d	dc 1d 00 00 00
	00		 fcomp	 QWORD PTR __real@0000000000000000
  07aa3	df e0		 fnstsw	 ax
  07aa5	f6 c4 41	 test	 ah, 65			; 00000041H
  07aa8	75 37		 jne	 SHORT $LN7@gObjCalcML

; 2413 : 	{
; 2414 : 		if( lpObj->pInventory[0].GetDetailItemType() != 12 && lpObj->pInventory[1].GetDetailItemType() != 12 )

  07aaa	8b 45 08	 mov	 eax, DWORD PTR _lpObj$[ebp]
  07aad	8b 88 24 0e 00
	00		 mov	 ecx, DWORD PTR [eax+3620]
  07ab3	e8 00 00 00 00	 call	 ?GetDetailItemType@CItem@@QAEHXZ ; CItem::GetDetailItemType
  07ab8	83 f8 0c	 cmp	 eax, 12			; 0000000cH
  07abb	74 24		 je	 SHORT $LN7@gObjCalcML
  07abd	8b 45 08	 mov	 eax, DWORD PTR _lpObj$[ebp]
  07ac0	8b 88 24 0e 00
	00		 mov	 ecx, DWORD PTR [eax+3620]
  07ac6	81 c1 d4 00 00
	00		 add	 ecx, 212		; 000000d4H
  07acc	e8 00 00 00 00	 call	 ?GetDetailItemType@CItem@@QAEHXZ ; CItem::GetDetailItemType
  07ad1	83 f8 0c	 cmp	 eax, 12			; 0000000cH
  07ad4	74 0b		 je	 SHORT $LN7@gObjCalcML

; 2415 : 		{
; 2416 : 			lpObj->m_MPSkillOpt.MpsFistStrength = 0;

  07ad6	8b 45 08	 mov	 eax, DWORD PTR _lpObj$[ebp]
  07ad9	d9 ee		 fldz
  07adb	d9 98 94 27 00
	00		 fstp	 DWORD PTR [eax+10132]
$LN7@gObjCalcML:

; 2417 : 		} 
; 2418 : 	}
; 2419 : 	// ----
; 2420 : 	if( lpObj->m_MPSkillOpt.MpsCommandAttackInc > 0.0f )

  07ae1	8b 45 08	 mov	 eax, DWORD PTR _lpObj$[ebp]
  07ae4	d9 80 24 27 00
	00		 fld	 DWORD PTR [eax+10020]
  07aea	dc 1d 00 00 00
	00		 fcomp	 QWORD PTR __real@0000000000000000
  07af0	df e0		 fnstsw	 ax
  07af2	f6 c4 41	 test	 ah, 65			; 00000041H
  07af5	75 37		 jne	 SHORT $LN5@gObjCalcML

; 2421 : 	{
; 2422 : 		if( lpObj->pInventory[0].GetDetailItemType() != 11 && lpObj->pInventory[1].GetDetailItemType() != 11 )

  07af7	8b 45 08	 mov	 eax, DWORD PTR _lpObj$[ebp]
  07afa	8b 88 24 0e 00
	00		 mov	 ecx, DWORD PTR [eax+3620]
  07b00	e8 00 00 00 00	 call	 ?GetDetailItemType@CItem@@QAEHXZ ; CItem::GetDetailItemType
  07b05	83 f8 0b	 cmp	 eax, 11			; 0000000bH
  07b08	74 24		 je	 SHORT $LN5@gObjCalcML
  07b0a	8b 45 08	 mov	 eax, DWORD PTR _lpObj$[ebp]
  07b0d	8b 88 24 0e 00
	00		 mov	 ecx, DWORD PTR [eax+3620]
  07b13	81 c1 d4 00 00
	00		 add	 ecx, 212		; 000000d4H
  07b19	e8 00 00 00 00	 call	 ?GetDetailItemType@CItem@@QAEHXZ ; CItem::GetDetailItemType
  07b1e	83 f8 0b	 cmp	 eax, 11			; 0000000bH
  07b21	74 0b		 je	 SHORT $LN5@gObjCalcML

; 2423 : 		{
; 2424 : 			lpObj->m_MPSkillOpt.MpsCommandAttackInc = 0;

  07b23	8b 45 08	 mov	 eax, DWORD PTR _lpObj$[ebp]
  07b26	d9 ee		 fldz
  07b28	d9 98 24 27 00
	00		 fstp	 DWORD PTR [eax+10020]
$LN5@gObjCalcML:

; 2425 : 		} 
; 2426 : 	}
; 2427 : 	// ----
; 2428 : 	if( lpObj->m_MPSkillOpt.MpsBowMastery > 0.0f )

  07b2e	8b 45 08	 mov	 eax, DWORD PTR _lpObj$[ebp]
  07b31	d9 80 b0 26 00
	00		 fld	 DWORD PTR [eax+9904]
  07b37	dc 1d 00 00 00
	00		 fcomp	 QWORD PTR __real@0000000000000000
  07b3d	df e0		 fnstsw	 ax
  07b3f	f6 c4 41	 test	 ah, 65			; 00000041H
  07b42	75 4c		 jne	 SHORT $LN3@gObjCalcML

; 2429 : 	{
; 2430 : 		if( lpObj->pInventory[0].GetDetailItemType() != 7 && lpObj->pInventory[1].GetDetailItemType() != 7 )

  07b44	8b 45 08	 mov	 eax, DWORD PTR _lpObj$[ebp]
  07b47	8b 88 24 0e 00
	00		 mov	 ecx, DWORD PTR [eax+3620]
  07b4d	e8 00 00 00 00	 call	 ?GetDetailItemType@CItem@@QAEHXZ ; CItem::GetDetailItemType
  07b52	83 f8 07	 cmp	 eax, 7
  07b55	74 39		 je	 SHORT $LN3@gObjCalcML
  07b57	8b 45 08	 mov	 eax, DWORD PTR _lpObj$[ebp]
  07b5a	8b 88 24 0e 00
	00		 mov	 ecx, DWORD PTR [eax+3620]
  07b60	81 c1 d4 00 00
	00		 add	 ecx, 212		; 000000d4H
  07b66	e8 00 00 00 00	 call	 ?GetDetailItemType@CItem@@QAEHXZ ; CItem::GetDetailItemType
  07b6b	83 f8 07	 cmp	 eax, 7
  07b6e	74 20		 je	 SHORT $LN3@gObjCalcML

; 2431 : 		{
; 2432 : 			lpObj->m_AttackSpeed += lpObj->m_MPSkillOpt.MpsBowMastery;

  07b70	8b 45 08	 mov	 eax, DWORD PTR _lpObj$[ebp]
  07b73	db 80 8c 04 00
	00		 fild	 DWORD PTR [eax+1164]
  07b79	8b 4d 08	 mov	 ecx, DWORD PTR _lpObj$[ebp]
  07b7c	d8 81 b0 26 00
	00		 fadd	 DWORD PTR [ecx+9904]
  07b82	e8 00 00 00 00	 call	 __ftol2_sse
  07b87	8b 55 08	 mov	 edx, DWORD PTR _lpObj$[ebp]
  07b8a	89 82 8c 04 00
	00		 mov	 DWORD PTR [edx+1164], eax
$LN3@gObjCalcML:

; 2433 : 		}
; 2434 : 	}
; 2435 : 	// ----
; 2436 : 	if( lpObj->m_MPSkillOpt.MpsCrossbowStrength > 0.0f )

  07b90	8b 45 08	 mov	 eax, DWORD PTR _lpObj$[ebp]
  07b93	d9 80 b4 26 00
	00		 fld	 DWORD PTR [eax+9908]
  07b99	dc 1d 00 00 00
	00		 fcomp	 QWORD PTR __real@0000000000000000
  07b9f	df e0		 fnstsw	 ax
  07ba1	f6 c4 41	 test	 ah, 65			; 00000041H
  07ba4	75 37		 jne	 SHORT $LN1@gObjCalcML

; 2437 : 	{
; 2438 : 		if( lpObj->pInventory[0].GetDetailItemType() != 8 && lpObj->pInventory[1].GetDetailItemType() != 8 )

  07ba6	8b 45 08	 mov	 eax, DWORD PTR _lpObj$[ebp]
  07ba9	8b 88 24 0e 00
	00		 mov	 ecx, DWORD PTR [eax+3620]
  07baf	e8 00 00 00 00	 call	 ?GetDetailItemType@CItem@@QAEHXZ ; CItem::GetDetailItemType
  07bb4	83 f8 08	 cmp	 eax, 8
  07bb7	74 24		 je	 SHORT $LN1@gObjCalcML
  07bb9	8b 45 08	 mov	 eax, DWORD PTR _lpObj$[ebp]
  07bbc	8b 88 24 0e 00
	00		 mov	 ecx, DWORD PTR [eax+3620]
  07bc2	81 c1 d4 00 00
	00		 add	 ecx, 212		; 000000d4H
  07bc8	e8 00 00 00 00	 call	 ?GetDetailItemType@CItem@@QAEHXZ ; CItem::GetDetailItemType
  07bcd	83 f8 08	 cmp	 eax, 8
  07bd0	74 0b		 je	 SHORT $LN1@gObjCalcML

; 2439 : 		{
; 2440 : 			lpObj->m_MPSkillOpt.MpsCrossbowStrength = 0;

  07bd2	8b 45 08	 mov	 eax, DWORD PTR _lpObj$[ebp]
  07bd5	d9 ee		 fldz
  07bd7	d9 98 b4 26 00
	00		 fstp	 DWORD PTR [eax+9908]
$LN1@gObjCalcML:

; 2441 : 		}
; 2442 : 	}
; 2443 : 	// ----
; 2444 : 	//
; 2445 : }

  07bdd	5f		 pop	 edi
  07bde	5e		 pop	 esi
  07bdf	5b		 pop	 ebx
  07be0	8b e5		 mov	 esp, ebp
  07be2	5d		 pop	 ebp
  07be3	c3		 ret	 0
?gObjCalcMLSkillItemOption@@YAXPAUOBJECTSTRUCT@@@Z ENDP	; gObjCalcMLSkillItemOption
_TEXT	ENDS
END
