; Listing generated by Microsoft (R) Optimizing Compiler Version 16.00.40219.01 

	TITLE	D:\Projects\ExTeam6.3\Source\GameServer\GameServer\ObjUseSkill.cpp
	.686P
	.XMM
	include listing.inc
	.model	flat

INCLUDELIB LIBCMT
INCLUDELIB OLDNAMES

_DATA	SEGMENT
_g_iNpcUpDfLevel_CGATE DD 01H
	DD	02H
	DD	02dc6c0H
	DD	02H
	DD	03H
	DD	02dc6c0H
	DD	03H
	DD	04H
	DD	02dc6c0H
_g_iNpcUpDfLevel_CSTATUE DD 01H
	DD	03H
	DD	02dc6c0H
	DD	02H
	DD	05H
	DD	02dc6c0H
	DD	03H
	DD	07H
	DD	02dc6c0H
_g_iNpcUpMaxHP_CGATE DD 02625a0H
	DD	02H
	DD	0f4240H
	DD	03567e0H
	DD	03H
	DD	0f4240H
	DD	04f5880H
	DD	04H
	DD	0f4240H
_g_iNpcUpMaxHP_CSTATUE DD 02191c0H
	DD	03H
	DD	0f4240H
	DD	033e140H
	DD	05H
	DD	0f4240H
	DD	04c4b40H
	DD	07H
	DD	0f4240H
_g_iNpcUpRgLevel_CSTATUE DD 01H
	DD	03H
	DD	04c4b40H
	DD	02H
	DD	05H
	DD	04c4b40H
	DD	03H
	DD	07H
	DD	04c4b40H
_g_iCsUserReSpawnArea DD 023H
	DD	011H
	DD	090H
	DD	030H
	DD	04aH
	DD	090H
	DD	073H
	DD	09aH
	DD	023H
	DD	011H
	DD	090H
	DD	030H
_g_iNpcDefense_CGATE DD 064H
	DD	0b4H
	DD	012cH
	DD	0208H
_g_iNpcDefense_CSTATUE DD 050H
	DD	0b4H
	DD	0154H
	DD	0226H
_g_iCastleWallStepAxisY DD 071H
	DD	0a0H
	DD	0cbH
_g_sttBLOODCASTLE_LEVEL DD 0fH
	DD	050H
	DD	0aH
	DD	03cH
	DD	051H
	DD	082H
	DD	03dH
	DD	06eH
	DD	083H
	DD	0b4H
	DD	06fH
	DD	0a0H
	DD	0b5H
	DD	0e6H
	DD	0a1H
	DD	0d2H
	DD	0e7H
	DD	0118H
	DD	0d3H
	DD	0104H
	DD	0119H
	DD	014aH
	DD	0105H
	DD	0136H
	DD	014bH
	DD	0190H
	DD	0137H
	DD	0190H
	DD	0fH
	DD	0257H
	DD	0aH
	DD	0257H
_g_sttCHAOSCASTLE_LEVEL DD 0fH
	DD	031H
	DD	0fH
	DD	01dH
	DD	032H
	DD	077H
	DD	01eH
	DD	063H
	DD	078H
	DD	0b3H
	DD	064H
	DD	09fH
	DD	0b4H
	DD	0efH
	DD	0a0H
	DD	0dbH
	DD	0f0H
	DD	012bH
	DD	0dcH
	DD	0117H
	DD	012cH
	DD	0190H
	DD	0118H
	DD	0190H
	DD	0190H
	DD	0257H
	DD	0190H
	DD	0257H
_g_iChaosCastle_BlowOutDistance DD 03H
	DD	04H
	DD	03H
	DD	04H
	DD	02H
	DD	03H
	DD	00H
	DD	01H
_g_iChaosCastle_BlowOutDamage DD 0fH
	DD	0fH
	DD	0aH
	DD	05H
_g_iChaosCastle_EnterCost DD 061a8H
	DD	013880H
	DD	0249f0H
	DD	03d090H
	DD	061a80H
	DD	09eb10H
	DD	0f4240H
_g_iChaosCastle_GuardSetValue DD 09c4H
	DD	09c4H
	DD	09c4H
	DD	09c4H
	DD	09c4H
	DD	09c4H
	DD	09c4H
_g_iChaosCastle_MonsterItems DD 01c0dH
	DD	01H
	DD	01c0eH
	DD	02H
	DD	01c0dH
	DD	01H
	DD	01c0eH
	DD	03H
	DD	01c0dH
	DD	01H
	DD	01c0eH
	DD	03H
	DD	01c0dH
	DD	02H
	DD	01c0eH
	DD	02H
	DD	01c0dH
	DD	02H
	DD	01c0eH
	DD	03H
	DD	01c0dH
	DD	02H
	DD	01c0eH
	DD	03H
	DD	01c0dH
	DD	02H
	DD	01c0eH
	DD	04H
_g_iChaosCastle_MonsterItemsNewServer DD 00H
	DD	00H
	DD	01c0eH
	DD	02H
	DD	01c0dH
	DD	01H
	DD	01c0eH
	DD	01H
	DD	01c0dH
	DD	01H
	DD	01c0eH
	DD	02H
	DD	01c0dH
	DD	01H
	DD	01c0eH
	DD	02H
	DD	01c0dH
	DD	02H
	DD	01c0eH
	DD	01H
	DD	01c0dH
	DD	02H
	DD	01c0eH
	DD	02H
	DD	01c0dH
	DD	02H
	DD	01c0eH
	DD	03H
_g_iChaosCastle_GroundAxis DD 017H
	DD	04bH
	DD	02cH
	DD	06cH
_g_iChaosCastle_DamageAxis DD 017H
	DD	04bH
	DD	02cH
	DD	06cH
	DD	019H
	DD	04dH
	DD	02aH
	DD	06aH
	DD	01bH
	DD	04fH
	DD	028H
	DD	068H
	DD	01dH
	DD	051H
	DD	026H
	DD	066H
_g_iChaosCastle_MapHollowZone DD 017H
	DD	04bH
	DD	02cH
	DD	04cH
	DD	02bH
	DD	04dH
	DD	02cH
	DD	06cH
	DD	017H
	DD	06bH
	DD	02aH
	DD	06cH
	DD	017H
	DD	04dH
	DD	018H
	DD	06aH
	DD	017H
	DD	04bH
	DD	02cH
	DD	04cH
	DD	02bH
	DD	04dH
	DD	02cH
	DD	06cH
	DD	017H
	DD	06bH
	DD	02aH
	DD	06cH
	DD	017H
	DD	04dH
	DD	018H
	DD	06aH
	DD	019H
	DD	04dH
	DD	02aH
	DD	04eH
	DD	029H
	DD	04fH
	DD	02aH
	DD	06aH
	DD	019H
	DD	069H
	DD	028H
	DD	06aH
	DD	019H
	DD	04fH
	DD	01aH
	DD	068H
	DD	01bH
	DD	04fH
	DD	028H
	DD	050H
	DD	027H
	DD	051H
	DD	028H
	DD	068H
	DD	01bH
	DD	067H
	DD	026H
	DD	068H
	DD	01bH
	DD	051H
	DD	01cH
	DD	066H
_DATA	ENDS
PUBLIC	??_H@YGXPAXIHP6EPAX0@Z@Z			; `vector constructor iterator'
; Function compile flags: /Odtp /ZI
;	COMDAT ??_H@YGXPAXIHP6EPAX0@Z@Z
_TEXT	SEGMENT
___t$ = 8						; size = 4
___s$ = 12						; size = 4
___n$ = 16						; size = 4
___f$ = 20						; size = 4
??_H@YGXPAXIHP6EPAX0@Z@Z PROC				; `vector constructor iterator', COMDAT
  00000	55		 push	 ebp
  00001	8b ec		 mov	 ebp, esp
  00003	83 ec 40	 sub	 esp, 64			; 00000040H
  00006	53		 push	 ebx
  00007	56		 push	 esi
  00008	57		 push	 edi
$LN2@vector:
  00009	8b 45 10	 mov	 eax, DWORD PTR ___n$[ebp]
  0000c	83 e8 01	 sub	 eax, 1
  0000f	89 45 10	 mov	 DWORD PTR ___n$[ebp], eax
  00012	78 11		 js	 SHORT $LN3@vector
  00014	8b 4d 08	 mov	 ecx, DWORD PTR ___t$[ebp]
  00017	ff 55 14	 call	 DWORD PTR ___f$[ebp]
  0001a	8b 45 08	 mov	 eax, DWORD PTR ___t$[ebp]
  0001d	03 45 0c	 add	 eax, DWORD PTR ___s$[ebp]
  00020	89 45 08	 mov	 DWORD PTR ___t$[ebp], eax
  00023	eb e4		 jmp	 SHORT $LN2@vector
$LN3@vector:
  00025	5f		 pop	 edi
  00026	5e		 pop	 esi
  00027	5b		 pop	 ebx
  00028	8b e5		 mov	 esp, ebp
  0002a	5d		 pop	 ebp
  0002b	c2 10 00	 ret	 16			; 00000010H
??_H@YGXPAXIHP6EPAX0@Z@Z ENDP				; `vector constructor iterator'
_TEXT	ENDS
PUBLIC	??_7CObjUseSkill@@6B@				; CObjUseSkill::`vftable'
PUBLIC	??0CObjUseSkill@@QAE@XZ				; CObjUseSkill::CObjUseSkill
PUBLIC	??_R4CObjUseSkill@@6B@				; CObjUseSkill::`RTTI Complete Object Locator'
PUBLIC	??_R0?AVCObjUseSkill@@@8			; CObjUseSkill `RTTI Type Descriptor'
PUBLIC	??_R3CObjUseSkill@@8				; CObjUseSkill::`RTTI Class Hierarchy Descriptor'
PUBLIC	??_R2CObjUseSkill@@8				; CObjUseSkill::`RTTI Base Class Array'
PUBLIC	??_R1A@?0A@EA@CObjUseSkill@@8			; CObjUseSkill::`RTTI Base Class Descriptor at (0,-1,0,64)'
EXTRN	??_7type_info@@6B@:QWORD			; type_info::`vftable'
EXTRN	??_ECObjUseSkill@@UAEPAXI@Z:PROC		; CObjUseSkill::`vector deleting destructor'
;	COMDAT ??_R1A@?0A@EA@CObjUseSkill@@8
; File d:\projects\exteam6.3\source\gameserver\gameserver\objuseskill.cpp
rdata$r	SEGMENT
??_R1A@?0A@EA@CObjUseSkill@@8 DD FLAT:??_R0?AVCObjUseSkill@@@8 ; CObjUseSkill::`RTTI Base Class Descriptor at (0,-1,0,64)'
	DD	00H
	DD	00H
	DD	0ffffffffH
	DD	00H
	DD	040H
	DD	FLAT:??_R3CObjUseSkill@@8
rdata$r	ENDS
;	COMDAT ??_R2CObjUseSkill@@8
rdata$r	SEGMENT
??_R2CObjUseSkill@@8 DD FLAT:??_R1A@?0A@EA@CObjUseSkill@@8 ; CObjUseSkill::`RTTI Base Class Array'
rdata$r	ENDS
;	COMDAT ??_R3CObjUseSkill@@8
rdata$r	SEGMENT
??_R3CObjUseSkill@@8 DD 00H				; CObjUseSkill::`RTTI Class Hierarchy Descriptor'
	DD	00H
	DD	01H
	DD	FLAT:??_R2CObjUseSkill@@8
rdata$r	ENDS
;	COMDAT ??_R0?AVCObjUseSkill@@@8
_DATA	SEGMENT
??_R0?AVCObjUseSkill@@@8 DD FLAT:??_7type_info@@6B@	; CObjUseSkill `RTTI Type Descriptor'
	DD	00H
	DB	'.?AVCObjUseSkill@@', 00H
_DATA	ENDS
;	COMDAT ??_R4CObjUseSkill@@6B@
rdata$r	SEGMENT
??_R4CObjUseSkill@@6B@ DD 00H				; CObjUseSkill::`RTTI Complete Object Locator'
	DD	00H
	DD	00H
	DD	FLAT:??_R0?AVCObjUseSkill@@@8
	DD	FLAT:??_R3CObjUseSkill@@8
rdata$r	ENDS
;	COMDAT ??_7CObjUseSkill@@6B@
CONST	SEGMENT
??_7CObjUseSkill@@6B@ DD FLAT:??_R4CObjUseSkill@@6B@	; CObjUseSkill::`vftable'
	DD	FLAT:??_ECObjUseSkill@@UAEPAXI@Z
; Function compile flags: /Odtp /ZI
CONST	ENDS
_TEXT	SEGMENT
_this$ = -4						; size = 4
??0CObjUseSkill@@QAE@XZ PROC				; CObjUseSkill::CObjUseSkill
; _this$ = ecx

; 36   : {

  00000	55		 push	 ebp
  00001	8b ec		 mov	 ebp, esp
  00003	83 ec 44	 sub	 esp, 68			; 00000044H
  00006	53		 push	 ebx
  00007	56		 push	 esi
  00008	57		 push	 edi
  00009	89 4d fc	 mov	 DWORD PTR _this$[ebp], ecx
  0000c	8b 45 fc	 mov	 eax, DWORD PTR _this$[ebp]
  0000f	c7 00 00 00 00
	00		 mov	 DWORD PTR [eax], OFFSET ??_7CObjUseSkill@@6B@

; 37   : 
; 38   : }

  00015	8b 45 fc	 mov	 eax, DWORD PTR _this$[ebp]
  00018	5f		 pop	 edi
  00019	5e		 pop	 esi
  0001a	5b		 pop	 ebx
  0001b	8b e5		 mov	 esp, ebp
  0001d	5d		 pop	 ebp
  0001e	c3		 ret	 0
??0CObjUseSkill@@QAE@XZ ENDP				; CObjUseSkill::CObjUseSkill
_TEXT	ENDS
PUBLIC	??1CObjUseSkill@@UAE@XZ				; CObjUseSkill::~CObjUseSkill
EXTRN	??3@YAXPAX@Z:PROC				; operator delete
; Function compile flags: /Odtp /ZI
;	COMDAT ??_GCObjUseSkill@@UAEPAXI@Z
_TEXT	SEGMENT
_this$ = -4						; size = 4
___flags$ = 8						; size = 4
??_GCObjUseSkill@@UAEPAXI@Z PROC			; CObjUseSkill::`scalar deleting destructor', COMDAT
; _this$ = ecx
  00000	55		 push	 ebp
  00001	8b ec		 mov	 ebp, esp
  00003	83 ec 44	 sub	 esp, 68			; 00000044H
  00006	53		 push	 ebx
  00007	56		 push	 esi
  00008	57		 push	 edi
  00009	89 4d fc	 mov	 DWORD PTR _this$[ebp], ecx
  0000c	8b 4d fc	 mov	 ecx, DWORD PTR _this$[ebp]
  0000f	e8 00 00 00 00	 call	 ??1CObjUseSkill@@UAE@XZ	; CObjUseSkill::~CObjUseSkill
  00014	8b 45 08	 mov	 eax, DWORD PTR ___flags$[ebp]
  00017	83 e0 01	 and	 eax, 1
  0001a	74 0c		 je	 SHORT $LN1@scalar
  0001c	8b 45 fc	 mov	 eax, DWORD PTR _this$[ebp]
  0001f	50		 push	 eax
  00020	e8 00 00 00 00	 call	 ??3@YAXPAX@Z		; operator delete
  00025	83 c4 04	 add	 esp, 4
$LN1@scalar:
  00028	8b 45 fc	 mov	 eax, DWORD PTR _this$[ebp]
  0002b	5f		 pop	 edi
  0002c	5e		 pop	 esi
  0002d	5b		 pop	 ebx
  0002e	8b e5		 mov	 esp, ebp
  00030	5d		 pop	 ebp
  00031	c2 04 00	 ret	 4
??_GCObjUseSkill@@UAEPAXI@Z ENDP			; CObjUseSkill::`scalar deleting destructor'
; Function compile flags: /Odtp /ZI
_TEXT	ENDS
_TEXT	SEGMENT
_this$ = -4						; size = 4
??1CObjUseSkill@@UAE@XZ PROC				; CObjUseSkill::~CObjUseSkill
; _this$ = ecx

; 41   : {

  00020	55		 push	 ebp
  00021	8b ec		 mov	 ebp, esp
  00023	83 ec 44	 sub	 esp, 68			; 00000044H
  00026	53		 push	 ebx
  00027	56		 push	 esi
  00028	57		 push	 edi
  00029	89 4d fc	 mov	 DWORD PTR _this$[ebp], ecx
  0002c	8b 45 fc	 mov	 eax, DWORD PTR _this$[ebp]
  0002f	c7 00 00 00 00
	00		 mov	 DWORD PTR [eax], OFFSET ??_7CObjUseSkill@@6B@

; 42   : 
; 43   : }

  00035	5f		 pop	 edi
  00036	5e		 pop	 esi
  00037	5b		 pop	 ebx
  00038	8b e5		 mov	 esp, ebp
  0003a	5d		 pop	 ebp
  0003b	c3		 ret	 0
??1CObjUseSkill@@UAE@XZ ENDP				; CObjUseSkill::~CObjUseSkill
_TEXT	ENDS
PUBLIC	?sqrt@@YAMM@Z					; sqrt
PUBLIC	?GetTargetLinePath@CObjUseSkill@@QAEHHHHHPAH0H@Z ; CObjUseSkill::GetTargetLinePath
EXTRN	__fltused:DWORD
EXTRN	__ftol2_sse:PROC
; Function compile flags: /Odtp /ZI
_TEXT	SEGMENT
tv181 = -112						; size = 4
_count$ = -44						; size = 4
_dis$ = -40						; size = 4
_incy$ = -36						; size = 4
_incx$ = -32						; size = 4
_error$ = -28						; size = 4
_half$ = -24						; size = 4
_delta_y$ = -20						; size = 4
_delta_x$ = -16						; size = 4
_y$ = -12						; size = 4
_x$ = -8						; size = 4
_this$ = -4						; size = 4
_sx$ = 8						; size = 4
_sy$ = 12						; size = 4
_tx$ = 16						; size = 4
_ty$ = 20						; size = 4
_PathX$ = 24						; size = 4
_PathY$ = 28						; size = 4
_distance$ = 32						; size = 4
?GetTargetLinePath@CObjUseSkill@@QAEHHHHHPAH0H@Z PROC	; CObjUseSkill::GetTargetLinePath
; _this$ = ecx

; 46   : {

  00040	55		 push	 ebp
  00041	8b ec		 mov	 ebp, esp
  00043	83 ec 70	 sub	 esp, 112		; 00000070H
  00046	53		 push	 ebx
  00047	56		 push	 esi
  00048	57		 push	 edi
  00049	89 4d fc	 mov	 DWORD PTR _this$[ebp], ecx

; 47   : 	int x,y;
; 48   : 	int delta_x,delta_y;
; 49   : 	int half;
; 50   : 
; 51   : 	int error = 0;

  0004c	c7 45 e4 00 00
	00 00		 mov	 DWORD PTR _error$[ebp], 0

; 52   : 
; 53   : 	int incx = 1,incy = 1;

  00053	c7 45 e0 01 00
	00 00		 mov	 DWORD PTR _incx$[ebp], 1
  0005a	c7 45 dc 01 00
	00 00		 mov	 DWORD PTR _incy$[ebp], 1

; 54   : 	int dis;
; 55   : 	int count;
; 56   : 
; 57   : 	if(sx > tx)

  00061	8b 45 08	 mov	 eax, DWORD PTR _sx$[ebp]
  00064	3b 45 10	 cmp	 eax, DWORD PTR _tx$[ebp]
  00067	7e 12		 jle	 SHORT $LN26@GetTargetL

; 58   : 	{
; 59   : 		incx = -1;

  00069	c7 45 e0 ff ff
	ff ff		 mov	 DWORD PTR _incx$[ebp], -1

; 60   : 		delta_x = sx - tx;

  00070	8b 45 08	 mov	 eax, DWORD PTR _sx$[ebp]
  00073	2b 45 10	 sub	 eax, DWORD PTR _tx$[ebp]
  00076	89 45 f0	 mov	 DWORD PTR _delta_x$[ebp], eax

; 61   : 	}
; 62   : 	else

  00079	eb 09		 jmp	 SHORT $LN25@GetTargetL
$LN26@GetTargetL:

; 63   : 	{
; 64   : 		delta_x = tx - sx;

  0007b	8b 45 10	 mov	 eax, DWORD PTR _tx$[ebp]
  0007e	2b 45 08	 sub	 eax, DWORD PTR _sx$[ebp]
  00081	89 45 f0	 mov	 DWORD PTR _delta_x$[ebp], eax
$LN25@GetTargetL:

; 65   : 	}
; 66   : 
; 67   : 	if(sy > ty)

  00084	8b 45 0c	 mov	 eax, DWORD PTR _sy$[ebp]
  00087	3b 45 14	 cmp	 eax, DWORD PTR _ty$[ebp]
  0008a	7e 12		 jle	 SHORT $LN24@GetTargetL

; 68   : 	{
; 69   : 		incy = -1;

  0008c	c7 45 dc ff ff
	ff ff		 mov	 DWORD PTR _incy$[ebp], -1

; 70   : 		delta_y = sy - ty;

  00093	8b 45 0c	 mov	 eax, DWORD PTR _sy$[ebp]
  00096	2b 45 14	 sub	 eax, DWORD PTR _ty$[ebp]
  00099	89 45 ec	 mov	 DWORD PTR _delta_y$[ebp], eax

; 71   : 	}
; 72   : 	else

  0009c	eb 09		 jmp	 SHORT $LN23@GetTargetL
$LN24@GetTargetL:

; 73   : 	{
; 74   : 		delta_y = ty - sy;

  0009e	8b 45 14	 mov	 eax, DWORD PTR _ty$[ebp]
  000a1	2b 45 0c	 sub	 eax, DWORD PTR _sy$[ebp]
  000a4	89 45 ec	 mov	 DWORD PTR _delta_y$[ebp], eax
$LN23@GetTargetL:

; 75   : 	}
; 76   : 
; 77   : 	dis = (int)(sqrt((float)(delta_x * delta_x + delta_y * delta_y)));

  000a7	8b 45 f0	 mov	 eax, DWORD PTR _delta_x$[ebp]
  000aa	0f af 45 f0	 imul	 eax, DWORD PTR _delta_x$[ebp]
  000ae	8b 4d ec	 mov	 ecx, DWORD PTR _delta_y$[ebp]
  000b1	0f af 4d ec	 imul	 ecx, DWORD PTR _delta_y$[ebp]
  000b5	03 c1		 add	 eax, ecx
  000b7	89 45 90	 mov	 DWORD PTR tv181[ebp], eax
  000ba	db 45 90	 fild	 DWORD PTR tv181[ebp]
  000bd	51		 push	 ecx
  000be	d9 1c 24	 fstp	 DWORD PTR [esp]
  000c1	e8 00 00 00 00	 call	 ?sqrt@@YAMM@Z		; sqrt
  000c6	83 c4 04	 add	 esp, 4
  000c9	e8 00 00 00 00	 call	 __ftol2_sse
  000ce	89 45 d8	 mov	 DWORD PTR _dis$[ebp], eax

; 78   : 	dis = distance - dis;

  000d1	8b 45 20	 mov	 eax, DWORD PTR _distance$[ebp]
  000d4	2b 45 d8	 sub	 eax, DWORD PTR _dis$[ebp]
  000d7	89 45 d8	 mov	 DWORD PTR _dis$[ebp], eax

; 79   : 
; 80   : 	count = 0;

  000da	c7 45 d4 00 00
	00 00		 mov	 DWORD PTR _count$[ebp], 0

; 81   : 	PathX[count] = sx;

  000e1	8b 45 d4	 mov	 eax, DWORD PTR _count$[ebp]
  000e4	8b 4d 18	 mov	 ecx, DWORD PTR _PathX$[ebp]
  000e7	8b 55 08	 mov	 edx, DWORD PTR _sx$[ebp]
  000ea	89 14 81	 mov	 DWORD PTR [ecx+eax*4], edx

; 82   : 	PathY[count] = sy;

  000ed	8b 45 d4	 mov	 eax, DWORD PTR _count$[ebp]
  000f0	8b 4d 1c	 mov	 ecx, DWORD PTR _PathY$[ebp]
  000f3	8b 55 0c	 mov	 edx, DWORD PTR _sy$[ebp]
  000f6	89 14 81	 mov	 DWORD PTR [ecx+eax*4], edx

; 83   : 	count++;

  000f9	8b 45 d4	 mov	 eax, DWORD PTR _count$[ebp]
  000fc	83 c0 01	 add	 eax, 1
  000ff	89 45 d4	 mov	 DWORD PTR _count$[ebp], eax

; 84   : 
; 85   : 	if(delta_x > delta_y)

  00102	8b 45 f0	 mov	 eax, DWORD PTR _delta_x$[ebp]
  00105	3b 45 ec	 cmp	 eax, DWORD PTR _delta_y$[ebp]
  00108	0f 8e e8 00 00
	00		 jle	 $LN22@GetTargetL

; 86   : 	{
; 87   : 		y = sy;

  0010e	8b 45 0c	 mov	 eax, DWORD PTR _sy$[ebp]
  00111	89 45 f4	 mov	 DWORD PTR _y$[ebp], eax

; 88   : 		half = delta_x / 2;

  00114	8b 45 f0	 mov	 eax, DWORD PTR _delta_x$[ebp]
  00117	99		 cdq
  00118	2b c2		 sub	 eax, edx
  0011a	d1 f8		 sar	 eax, 1
  0011c	89 45 e8	 mov	 DWORD PTR _half$[ebp], eax

; 89   : 
; 90   : 		if(incx > 0)

  0011f	83 7d e0 00	 cmp	 DWORD PTR _incx$[ebp], 0
  00123	7e 67		 jle	 SHORT $LN21@GetTargetL

; 91   : 		{
; 92   : 			for(x = (sx+1); x <= (tx + dis); x++)

  00125	8b 45 08	 mov	 eax, DWORD PTR _sx$[ebp]
  00128	83 c0 01	 add	 eax, 1
  0012b	89 45 f8	 mov	 DWORD PTR _x$[ebp], eax
  0012e	eb 09		 jmp	 SHORT $LN20@GetTargetL
$LN19@GetTargetL:
  00130	8b 45 f8	 mov	 eax, DWORD PTR _x$[ebp]
  00133	83 c0 01	 add	 eax, 1
  00136	89 45 f8	 mov	 DWORD PTR _x$[ebp], eax
$LN20@GetTargetL:
  00139	8b 45 10	 mov	 eax, DWORD PTR _tx$[ebp]
  0013c	03 45 d8	 add	 eax, DWORD PTR _dis$[ebp]
  0013f	39 45 f8	 cmp	 DWORD PTR _x$[ebp], eax
  00142	7f 46		 jg	 SHORT $LN18@GetTargetL

; 93   : 			{
; 94   : 				error += delta_y;

  00144	8b 45 e4	 mov	 eax, DWORD PTR _error$[ebp]
  00147	03 45 ec	 add	 eax, DWORD PTR _delta_y$[ebp]
  0014a	89 45 e4	 mov	 DWORD PTR _error$[ebp], eax

; 95   : 
; 96   : 				if(error > half)

  0014d	8b 45 e4	 mov	 eax, DWORD PTR _error$[ebp]
  00150	3b 45 e8	 cmp	 eax, DWORD PTR _half$[ebp]
  00153	7e 12		 jle	 SHORT $LN17@GetTargetL

; 97   : 				{
; 98   : 					y += incy;

  00155	8b 45 f4	 mov	 eax, DWORD PTR _y$[ebp]
  00158	03 45 dc	 add	 eax, DWORD PTR _incy$[ebp]
  0015b	89 45 f4	 mov	 DWORD PTR _y$[ebp], eax

; 99   : 					error -= delta_x;

  0015e	8b 45 e4	 mov	 eax, DWORD PTR _error$[ebp]
  00161	2b 45 f0	 sub	 eax, DWORD PTR _delta_x$[ebp]
  00164	89 45 e4	 mov	 DWORD PTR _error$[ebp], eax
$LN17@GetTargetL:

; 100  : 				}
; 101  : 
; 102  : 				PathX[count] = x;

  00167	8b 45 d4	 mov	 eax, DWORD PTR _count$[ebp]
  0016a	8b 4d 18	 mov	 ecx, DWORD PTR _PathX$[ebp]
  0016d	8b 55 f8	 mov	 edx, DWORD PTR _x$[ebp]
  00170	89 14 81	 mov	 DWORD PTR [ecx+eax*4], edx

; 103  : 				PathY[count] = y;

  00173	8b 45 d4	 mov	 eax, DWORD PTR _count$[ebp]
  00176	8b 4d 1c	 mov	 ecx, DWORD PTR _PathY$[ebp]
  00179	8b 55 f4	 mov	 edx, DWORD PTR _y$[ebp]
  0017c	89 14 81	 mov	 DWORD PTR [ecx+eax*4], edx

; 104  : 
; 105  : 				count++;

  0017f	8b 45 d4	 mov	 eax, DWORD PTR _count$[ebp]
  00182	83 c0 01	 add	 eax, 1
  00185	89 45 d4	 mov	 DWORD PTR _count$[ebp], eax

; 106  : 			}

  00188	eb a6		 jmp	 SHORT $LN19@GetTargetL
$LN18@GetTargetL:

; 107  : 		}
; 108  : 		else

  0018a	eb 65		 jmp	 SHORT $LN13@GetTargetL
$LN21@GetTargetL:

; 109  : 		{
; 110  : 			for(x = (sx-1); x >= (tx - dis);x--)

  0018c	8b 45 08	 mov	 eax, DWORD PTR _sx$[ebp]
  0018f	83 e8 01	 sub	 eax, 1
  00192	89 45 f8	 mov	 DWORD PTR _x$[ebp], eax
  00195	eb 09		 jmp	 SHORT $LN15@GetTargetL
$LN14@GetTargetL:
  00197	8b 45 f8	 mov	 eax, DWORD PTR _x$[ebp]
  0019a	83 e8 01	 sub	 eax, 1
  0019d	89 45 f8	 mov	 DWORD PTR _x$[ebp], eax
$LN15@GetTargetL:
  001a0	8b 45 10	 mov	 eax, DWORD PTR _tx$[ebp]
  001a3	2b 45 d8	 sub	 eax, DWORD PTR _dis$[ebp]
  001a6	39 45 f8	 cmp	 DWORD PTR _x$[ebp], eax
  001a9	7c 46		 jl	 SHORT $LN13@GetTargetL

; 111  : 			{
; 112  : 				error += delta_y;

  001ab	8b 45 e4	 mov	 eax, DWORD PTR _error$[ebp]
  001ae	03 45 ec	 add	 eax, DWORD PTR _delta_y$[ebp]
  001b1	89 45 e4	 mov	 DWORD PTR _error$[ebp], eax

; 113  : 
; 114  : 				if(error > half)

  001b4	8b 45 e4	 mov	 eax, DWORD PTR _error$[ebp]
  001b7	3b 45 e8	 cmp	 eax, DWORD PTR _half$[ebp]
  001ba	7e 12		 jle	 SHORT $LN12@GetTargetL

; 115  : 				{
; 116  : 					y += incy;

  001bc	8b 45 f4	 mov	 eax, DWORD PTR _y$[ebp]
  001bf	03 45 dc	 add	 eax, DWORD PTR _incy$[ebp]
  001c2	89 45 f4	 mov	 DWORD PTR _y$[ebp], eax

; 117  : 					error -= delta_x;

  001c5	8b 45 e4	 mov	 eax, DWORD PTR _error$[ebp]
  001c8	2b 45 f0	 sub	 eax, DWORD PTR _delta_x$[ebp]
  001cb	89 45 e4	 mov	 DWORD PTR _error$[ebp], eax
$LN12@GetTargetL:

; 118  : 				}
; 119  : 
; 120  : 				PathX[count] = x;

  001ce	8b 45 d4	 mov	 eax, DWORD PTR _count$[ebp]
  001d1	8b 4d 18	 mov	 ecx, DWORD PTR _PathX$[ebp]
  001d4	8b 55 f8	 mov	 edx, DWORD PTR _x$[ebp]
  001d7	89 14 81	 mov	 DWORD PTR [ecx+eax*4], edx

; 121  : 				PathY[count] = y;

  001da	8b 45 d4	 mov	 eax, DWORD PTR _count$[ebp]
  001dd	8b 4d 1c	 mov	 ecx, DWORD PTR _PathY$[ebp]
  001e0	8b 55 f4	 mov	 edx, DWORD PTR _y$[ebp]
  001e3	89 14 81	 mov	 DWORD PTR [ecx+eax*4], edx

; 122  : 
; 123  : 				count++;

  001e6	8b 45 d4	 mov	 eax, DWORD PTR _count$[ebp]
  001e9	83 c0 01	 add	 eax, 1
  001ec	89 45 d4	 mov	 DWORD PTR _count$[ebp], eax

; 124  : 			}

  001ef	eb a6		 jmp	 SHORT $LN14@GetTargetL
$LN13@GetTargetL:

; 125  : 		}
; 126  : 	}
; 127  : 	else

  001f1	e9 e3 00 00 00	 jmp	 $LN2@GetTargetL
$LN22@GetTargetL:

; 128  : 	{
; 129  : 		x = sx;

  001f6	8b 45 08	 mov	 eax, DWORD PTR _sx$[ebp]
  001f9	89 45 f8	 mov	 DWORD PTR _x$[ebp], eax

; 130  : 		half = delta_y / 2;

  001fc	8b 45 ec	 mov	 eax, DWORD PTR _delta_y$[ebp]
  001ff	99		 cdq
  00200	2b c2		 sub	 eax, edx
  00202	d1 f8		 sar	 eax, 1
  00204	89 45 e8	 mov	 DWORD PTR _half$[ebp], eax

; 131  : 
; 132  : 		if(incy > 0)

  00207	83 7d dc 00	 cmp	 DWORD PTR _incy$[ebp], 0
  0020b	7e 67		 jle	 SHORT $LN10@GetTargetL

; 133  : 		{
; 134  : 			for(y = (sy+1); y <= (ty + dis);y++)

  0020d	8b 45 0c	 mov	 eax, DWORD PTR _sy$[ebp]
  00210	83 c0 01	 add	 eax, 1
  00213	89 45 f4	 mov	 DWORD PTR _y$[ebp], eax
  00216	eb 09		 jmp	 SHORT $LN9@GetTargetL
$LN8@GetTargetL:
  00218	8b 45 f4	 mov	 eax, DWORD PTR _y$[ebp]
  0021b	83 c0 01	 add	 eax, 1
  0021e	89 45 f4	 mov	 DWORD PTR _y$[ebp], eax
$LN9@GetTargetL:
  00221	8b 45 14	 mov	 eax, DWORD PTR _ty$[ebp]
  00224	03 45 d8	 add	 eax, DWORD PTR _dis$[ebp]
  00227	39 45 f4	 cmp	 DWORD PTR _y$[ebp], eax
  0022a	7f 46		 jg	 SHORT $LN7@GetTargetL

; 135  : 			{
; 136  : 				error += delta_x;

  0022c	8b 45 e4	 mov	 eax, DWORD PTR _error$[ebp]
  0022f	03 45 f0	 add	 eax, DWORD PTR _delta_x$[ebp]
  00232	89 45 e4	 mov	 DWORD PTR _error$[ebp], eax

; 137  : 
; 138  : 				if(error > half)

  00235	8b 45 e4	 mov	 eax, DWORD PTR _error$[ebp]
  00238	3b 45 e8	 cmp	 eax, DWORD PTR _half$[ebp]
  0023b	7e 12		 jle	 SHORT $LN6@GetTargetL

; 139  : 				{
; 140  : 					x += incx;

  0023d	8b 45 f8	 mov	 eax, DWORD PTR _x$[ebp]
  00240	03 45 e0	 add	 eax, DWORD PTR _incx$[ebp]
  00243	89 45 f8	 mov	 DWORD PTR _x$[ebp], eax

; 141  : 					error -= delta_y;

  00246	8b 45 e4	 mov	 eax, DWORD PTR _error$[ebp]
  00249	2b 45 ec	 sub	 eax, DWORD PTR _delta_y$[ebp]
  0024c	89 45 e4	 mov	 DWORD PTR _error$[ebp], eax
$LN6@GetTargetL:

; 142  : 				}
; 143  : 
; 144  : 				PathX[count] = x;

  0024f	8b 45 d4	 mov	 eax, DWORD PTR _count$[ebp]
  00252	8b 4d 18	 mov	 ecx, DWORD PTR _PathX$[ebp]
  00255	8b 55 f8	 mov	 edx, DWORD PTR _x$[ebp]
  00258	89 14 81	 mov	 DWORD PTR [ecx+eax*4], edx

; 145  : 				PathY[count] = y;

  0025b	8b 45 d4	 mov	 eax, DWORD PTR _count$[ebp]
  0025e	8b 4d 1c	 mov	 ecx, DWORD PTR _PathY$[ebp]
  00261	8b 55 f4	 mov	 edx, DWORD PTR _y$[ebp]
  00264	89 14 81	 mov	 DWORD PTR [ecx+eax*4], edx

; 146  : 				count++;

  00267	8b 45 d4	 mov	 eax, DWORD PTR _count$[ebp]
  0026a	83 c0 01	 add	 eax, 1
  0026d	89 45 d4	 mov	 DWORD PTR _count$[ebp], eax

; 147  : 			}

  00270	eb a6		 jmp	 SHORT $LN8@GetTargetL
$LN7@GetTargetL:

; 148  : 		}
; 149  : 		else

  00272	eb 65		 jmp	 SHORT $LN2@GetTargetL
$LN10@GetTargetL:

; 150  : 		{
; 151  : 			for(y = (sy-1);y >= (ty - dis);y--)

  00274	8b 45 0c	 mov	 eax, DWORD PTR _sy$[ebp]
  00277	83 e8 01	 sub	 eax, 1
  0027a	89 45 f4	 mov	 DWORD PTR _y$[ebp], eax
  0027d	eb 09		 jmp	 SHORT $LN4@GetTargetL
$LN3@GetTargetL:
  0027f	8b 45 f4	 mov	 eax, DWORD PTR _y$[ebp]
  00282	83 e8 01	 sub	 eax, 1
  00285	89 45 f4	 mov	 DWORD PTR _y$[ebp], eax
$LN4@GetTargetL:
  00288	8b 45 14	 mov	 eax, DWORD PTR _ty$[ebp]
  0028b	2b 45 d8	 sub	 eax, DWORD PTR _dis$[ebp]
  0028e	39 45 f4	 cmp	 DWORD PTR _y$[ebp], eax
  00291	7c 46		 jl	 SHORT $LN2@GetTargetL

; 152  : 			{
; 153  : 				error += delta_x;

  00293	8b 45 e4	 mov	 eax, DWORD PTR _error$[ebp]
  00296	03 45 f0	 add	 eax, DWORD PTR _delta_x$[ebp]
  00299	89 45 e4	 mov	 DWORD PTR _error$[ebp], eax

; 154  : 
; 155  : 				if(error > half)

  0029c	8b 45 e4	 mov	 eax, DWORD PTR _error$[ebp]
  0029f	3b 45 e8	 cmp	 eax, DWORD PTR _half$[ebp]
  002a2	7e 12		 jle	 SHORT $LN1@GetTargetL

; 156  : 				{
; 157  : 					x += incx;

  002a4	8b 45 f8	 mov	 eax, DWORD PTR _x$[ebp]
  002a7	03 45 e0	 add	 eax, DWORD PTR _incx$[ebp]
  002aa	89 45 f8	 mov	 DWORD PTR _x$[ebp], eax

; 158  : 					error -= delta_y;

  002ad	8b 45 e4	 mov	 eax, DWORD PTR _error$[ebp]
  002b0	2b 45 ec	 sub	 eax, DWORD PTR _delta_y$[ebp]
  002b3	89 45 e4	 mov	 DWORD PTR _error$[ebp], eax
$LN1@GetTargetL:

; 159  : 				}
; 160  : 
; 161  : 				PathX[count] = x;

  002b6	8b 45 d4	 mov	 eax, DWORD PTR _count$[ebp]
  002b9	8b 4d 18	 mov	 ecx, DWORD PTR _PathX$[ebp]
  002bc	8b 55 f8	 mov	 edx, DWORD PTR _x$[ebp]
  002bf	89 14 81	 mov	 DWORD PTR [ecx+eax*4], edx

; 162  : 				PathY[count] = y;

  002c2	8b 45 d4	 mov	 eax, DWORD PTR _count$[ebp]
  002c5	8b 4d 1c	 mov	 ecx, DWORD PTR _PathY$[ebp]
  002c8	8b 55 f4	 mov	 edx, DWORD PTR _y$[ebp]
  002cb	89 14 81	 mov	 DWORD PTR [ecx+eax*4], edx

; 163  : 				count++;

  002ce	8b 45 d4	 mov	 eax, DWORD PTR _count$[ebp]
  002d1	83 c0 01	 add	 eax, 1
  002d4	89 45 d4	 mov	 DWORD PTR _count$[ebp], eax

; 164  : 			}

  002d7	eb a6		 jmp	 SHORT $LN3@GetTargetL
$LN2@GetTargetL:

; 165  : 		}
; 166  : 	}
; 167  : 	return count;

  002d9	8b 45 d4	 mov	 eax, DWORD PTR _count$[ebp]

; 168  : }

  002dc	5f		 pop	 edi
  002dd	5e		 pop	 esi
  002de	5b		 pop	 ebx
  002df	8b e5		 mov	 esp, ebp
  002e1	5d		 pop	 ebp
  002e2	c2 1c 00	 ret	 28			; 0000001cH
?GetTargetLinePath@CObjUseSkill@@QAEHHHHHPAH0H@Z ENDP	; CObjUseSkill::GetTargetLinePath
_TEXT	ENDS
PUBLIC	??_C@_0DB@JJPLIMIC@?$FL?$CFs?$FN?$FL?$CFs?$FN?5?$CFs?5Apply?5Attack?5Speed?5P@ ; `string'
PUBLIC	??_C@_0EB@KGCLNBNA@?$FL?$CFs?$FN?$FL?$CFs?$FN?5?$CFs?5Attack?5Speed?5Is?5Wron@ ; `string'
PUBLIC	??_C@_0DE@ENPGLNLL@?$FL?$CFs?$FN?$FL?$CFs?$FN?5?$CFs?5Kick?5DetecHackCountL@ ; `string'
PUBLIC	?SpeedHackCheck@CObjUseSkill@@QAEHH@Z		; CObjUseSkill::SpeedHackCheck
EXTRN	?bIsIgnorePacketSpeedHackDetect@@3HA:DWORD	; bIsIgnorePacketSpeedHackDetect
EXTRN	?gSpeedHackPenalty@@3HA:DWORD			; gSpeedHackPenalty
EXTRN	?CloseClient@@YAXH@Z:PROC			; CloseClient
EXTRN	?LogAddTD@@3P6AXPADZZA:DWORD			; LogAddTD
EXTRN	?Get@CMsg@@QAEPADH@Z:PROC			; CMsg::Get
EXTRN	?lMsg@@3VCMsg@@A:BYTE				; lMsg
EXTRN	?gDetectedHackKickCount@@3HA:DWORD		; gDetectedHackKickCount
EXTRN	?gIsKickDetecHackCountLimit@@3HA:DWORD		; gIsKickDetecHackCountLimit
EXTRN	?gHackCheckCount@@3KA:DWORD			; gHackCheckCount
EXTRN	__imp__GetTickCount@0:PROC
EXTRN	?gObj@@3PAUOBJECTSTRUCT@@A:DWORD		; gObj
;	COMDAT ??_C@_0DB@JJPLIMIC@?$FL?$CFs?$FN?$FL?$CFs?$FN?5?$CFs?5Apply?5Attack?5Speed?5P@
CONST	SEGMENT
??_C@_0DB@JJPLIMIC@?$FL?$CFs?$FN?$FL?$CFs?$FN?5?$CFs?5Apply?5Attack?5Speed?5P@ DB '['
	DB	'%s][%s] %s Apply Attack Speed Penalty (%d left)', 00H ; `string'
CONST	ENDS
;	COMDAT ??_C@_0EB@KGCLNBNA@?$FL?$CFs?$FN?$FL?$CFs?$FN?5?$CFs?5Attack?5Speed?5Is?5Wron@
CONST	SEGMENT
??_C@_0EB@KGCLNBNA@?$FL?$CFs?$FN?$FL?$CFs?$FN?5?$CFs?5Attack?5Speed?5Is?5Wron@ DB '['
	DB	'%s][%s] %s Attack Speed Is Wrong MagicSkill (%d)(%d) Penalty '
	DB	'%d', 00H					; `string'
CONST	ENDS
;	COMDAT ??_C@_0DE@ENPGLNLL@?$FL?$CFs?$FN?$FL?$CFs?$FN?5?$CFs?5Kick?5DetecHackCountL@
CONST	SEGMENT
??_C@_0DE@ENPGLNLL@?$FL?$CFs?$FN?$FL?$CFs?$FN?5?$CFs?5Kick?5DetecHackCountL@ DB '['
	DB	'%s][%s] %s Kick DetecHackCountLimit Over User (%d)', 00H ; `string'
; Function compile flags: /Odtp /ZI
CONST	ENDS
_TEXT	SEGMENT
_iTimeCalc$ = -12					; size = 4
_lpObj$ = -8						; size = 4
_this$ = -4						; size = 4
_aIndex$ = 8						; size = 4
?SpeedHackCheck@CObjUseSkill@@QAEHH@Z PROC		; CObjUseSkill::SpeedHackCheck
; _this$ = ecx

; 171  : {

  002f0	55		 push	 ebp
  002f1	8b ec		 mov	 ebp, esp
  002f3	83 ec 4c	 sub	 esp, 76			; 0000004cH
  002f6	53		 push	 ebx
  002f7	56		 push	 esi
  002f8	57		 push	 edi
  002f9	89 4d fc	 mov	 DWORD PTR _this$[ebp], ecx

; 172  : 	LPOBJ lpObj = &gObj[aIndex];

  002fc	8b 45 08	 mov	 eax, DWORD PTR _aIndex$[ebp]
  002ff	69 c0 38 2b 00
	00		 imul	 eax, 11064		; 00002b38H
  00305	03 05 00 00 00
	00		 add	 eax, DWORD PTR ?gObj@@3PAUOBJECTSTRUCT@@A ; gObj
  0030b	89 45 f8	 mov	 DWORD PTR _lpObj$[ebp], eax

; 173  : 
; 174  : 	int iTimeCalc = GetTickCount() - lpObj->m_LastAttackTime;

  0030e	ff 15 00 00 00
	00		 call	 DWORD PTR __imp__GetTickCount@0
  00314	8b 4d f8	 mov	 ecx, DWORD PTR _lpObj$[ebp]
  00317	2b 81 6c 03 00
	00		 sub	 eax, DWORD PTR [ecx+876]
  0031d	89 45 f4	 mov	 DWORD PTR _iTimeCalc$[ebp], eax

; 175  : 
; 176  : 	if(lpObj->Type != OBJ_USER)

  00320	8b 45 f8	 mov	 eax, DWORD PTR _lpObj$[ebp]
  00323	0f b7 48 68	 movzx	 ecx, WORD PTR [eax+104]
  00327	83 f9 01	 cmp	 ecx, 1
  0032a	74 0a		 je	 SHORT $LN6@SpeedHackC

; 177  : 	{
; 178  : 		return TRUE;

  0032c	b8 01 00 00 00	 mov	 eax, 1
  00331	e9 e3 01 00 00	 jmp	 $LN7@SpeedHackC
$LN6@SpeedHackC:

; 179  : 	}
; 180  : 
; 181  : 	if(iTimeCalc < lpObj->m_DetectSpeedHackTime)

  00336	8b 45 f8	 mov	 eax, DWORD PTR _lpObj$[ebp]
  00339	8b 4d f4	 mov	 ecx, DWORD PTR _iTimeCalc$[ebp]
  0033c	3b 88 74 03 00
	00		 cmp	 ecx, DWORD PTR [eax+884]
  00342	0f 8d 34 01 00
	00		 jge	 $LN5@SpeedHackC

; 182  : 	{
; 183  : 		lpObj->m_DetectCount++;

  00348	8b 45 f8	 mov	 eax, DWORD PTR _lpObj$[ebp]
  0034b	8b 88 7c 03 00
	00		 mov	 ecx, DWORD PTR [eax+892]
  00351	83 c1 01	 add	 ecx, 1
  00354	8b 55 f8	 mov	 edx, DWORD PTR _lpObj$[ebp]
  00357	89 8a 7c 03 00
	00		 mov	 DWORD PTR [edx+892], ecx

; 184  : 		lpObj->m_SumLastAttackTime += iTimeCalc;

  0035d	8b 45 f8	 mov	 eax, DWORD PTR _lpObj$[ebp]
  00360	8b 88 78 03 00
	00		 mov	 ecx, DWORD PTR [eax+888]
  00366	03 4d f4	 add	 ecx, DWORD PTR _iTimeCalc$[ebp]
  00369	8b 55 f8	 mov	 edx, DWORD PTR _lpObj$[ebp]
  0036c	89 8a 78 03 00
	00		 mov	 DWORD PTR [edx+888], ecx

; 185  : 
; 186  : 		if(lpObj->m_DetectCount > gHackCheckCount)

  00372	8b 45 f8	 mov	 eax, DWORD PTR _lpObj$[ebp]
  00375	8b 88 7c 03 00
	00		 mov	 ecx, DWORD PTR [eax+892]
  0037b	3b 0d 00 00 00
	00		 cmp	 ecx, DWORD PTR ?gHackCheckCount@@3KA ; gHackCheckCount
  00381	0f 86 f3 00 00
	00		 jbe	 $LN4@SpeedHackC

; 187  : 		{
; 188  : 			lpObj->m_DetectedHackKickCount++;

  00387	8b 45 f8	 mov	 eax, DWORD PTR _lpObj$[ebp]
  0038a	8b 88 80 03 00
	00		 mov	 ecx, DWORD PTR [eax+896]
  00390	83 c1 01	 add	 ecx, 1
  00393	8b 55 f8	 mov	 edx, DWORD PTR _lpObj$[ebp]
  00396	89 8a 80 03 00
	00		 mov	 DWORD PTR [edx+896], ecx

; 189  : 
; 190  : 			if(gIsKickDetecHackCountLimit != 0 && lpObj->m_DetectedHackKickCount > gDetectedHackKickCount)

  0039c	83 3d 00 00 00
	00 00		 cmp	 DWORD PTR ?gIsKickDetecHackCountLimit@@3HA, 0 ; gIsKickDetecHackCountLimit
  003a3	74 65		 je	 SHORT $LN3@SpeedHackC
  003a5	8b 45 f8	 mov	 eax, DWORD PTR _lpObj$[ebp]
  003a8	8b 88 80 03 00
	00		 mov	 ecx, DWORD PTR [eax+896]
  003ae	3b 0d 00 00 00
	00		 cmp	 ecx, DWORD PTR ?gDetectedHackKickCount@@3HA ; gDetectedHackKickCount
  003b4	7e 54		 jle	 SHORT $LN3@SpeedHackC

; 191  : 			{
; 192  : 				LogAddTD("[%s][%s] %s Kick DetecHackCountLimit Over User (%d)", lpObj->AccountID,lpObj->Name,lMsg.Get(lpObj->Class+1900),lpObj->m_DetectedHackKickCount);

  003b6	8b 45 f8	 mov	 eax, DWORD PTR _lpObj$[ebp]
  003b9	8b 88 80 03 00
	00		 mov	 ecx, DWORD PTR [eax+896]
  003bf	51		 push	 ecx
  003c0	8b 55 f8	 mov	 edx, DWORD PTR _lpObj$[ebp]
  003c3	0f b7 82 b8 00
	00 00		 movzx	 eax, WORD PTR [edx+184]
  003ca	05 6c 07 00 00	 add	 eax, 1900		; 0000076cH
  003cf	50		 push	 eax
  003d0	b9 00 00 00 00	 mov	 ecx, OFFSET ?lMsg@@3VCMsg@@A ; lMsg
  003d5	e8 00 00 00 00	 call	 ?Get@CMsg@@QAEPADH@Z	; CMsg::Get
  003da	50		 push	 eax
  003db	8b 4d f8	 mov	 ecx, DWORD PTR _lpObj$[ebp]
  003de	83 c1 77	 add	 ecx, 119		; 00000077H
  003e1	51		 push	 ecx
  003e2	8b 55 f8	 mov	 edx, DWORD PTR _lpObj$[ebp]
  003e5	83 c2 6c	 add	 edx, 108		; 0000006cH
  003e8	52		 push	 edx
  003e9	68 00 00 00 00	 push	 OFFSET ??_C@_0DE@ENPGLNLL@?$FL?$CFs?$FN?$FL?$CFs?$FN?5?$CFs?5Kick?5DetecHackCountL@
  003ee	ff 15 00 00 00
	00		 call	 DWORD PTR ?LogAddTD@@3P6AXPADZZA ; LogAddTD
  003f4	83 c4 14	 add	 esp, 20			; 00000014H

; 193  : #ifndef SPEEDHACK_DEBUG
; 194  : 				CloseClient(aIndex);

  003f7	8b 45 08	 mov	 eax, DWORD PTR _aIndex$[ebp]
  003fa	50		 push	 eax
  003fb	e8 00 00 00 00	 call	 ?CloseClient@@YAXH@Z	; CloseClient
  00400	83 c4 04	 add	 esp, 4

; 195  : #endif
; 196  : 				return false;

  00403	33 c0		 xor	 eax, eax
  00405	e9 0f 01 00 00	 jmp	 $LN7@SpeedHackC
$LN3@SpeedHackC:

; 197  : 			}
; 198  : 
; 199  : 			lpObj->m_SpeedHackPenalty = gSpeedHackPenalty;

  0040a	8b 45 f8	 mov	 eax, DWORD PTR _lpObj$[ebp]
  0040d	8b 0d 00 00 00
	00		 mov	 ecx, DWORD PTR ?gSpeedHackPenalty@@3HA ; gSpeedHackPenalty
  00413	89 88 84 03 00
	00		 mov	 DWORD PTR [eax+900], ecx

; 200  : 			LogAddTD("[%s][%s] %s Attack Speed Is Wrong MagicSkill (%d)(%d) Penalty %d", lpObj->AccountID,lpObj->Name,lMsg.Get(lpObj->Class+1900),lpObj->m_DetectSpeedHackTime,lpObj->m_SumLastAttackTime / lpObj->m_DetectCount,lpObj->m_SpeedHackPenalty);

  00419	8b 45 f8	 mov	 eax, DWORD PTR _lpObj$[ebp]
  0041c	8b 88 84 03 00
	00		 mov	 ecx, DWORD PTR [eax+900]
  00422	51		 push	 ecx
  00423	8b 55 f8	 mov	 edx, DWORD PTR _lpObj$[ebp]
  00426	8b 4d f8	 mov	 ecx, DWORD PTR _lpObj$[ebp]
  00429	8b 82 78 03 00
	00		 mov	 eax, DWORD PTR [edx+888]
  0042f	33 d2		 xor	 edx, edx
  00431	f7 b1 7c 03 00
	00		 div	 DWORD PTR [ecx+892]
  00437	50		 push	 eax
  00438	8b 55 f8	 mov	 edx, DWORD PTR _lpObj$[ebp]
  0043b	8b 82 74 03 00
	00		 mov	 eax, DWORD PTR [edx+884]
  00441	50		 push	 eax
  00442	8b 4d f8	 mov	 ecx, DWORD PTR _lpObj$[ebp]
  00445	0f b7 91 b8 00
	00 00		 movzx	 edx, WORD PTR [ecx+184]
  0044c	81 c2 6c 07 00
	00		 add	 edx, 1900		; 0000076cH
  00452	52		 push	 edx
  00453	b9 00 00 00 00	 mov	 ecx, OFFSET ?lMsg@@3VCMsg@@A ; lMsg
  00458	e8 00 00 00 00	 call	 ?Get@CMsg@@QAEPADH@Z	; CMsg::Get
  0045d	50		 push	 eax
  0045e	8b 45 f8	 mov	 eax, DWORD PTR _lpObj$[ebp]
  00461	83 c0 77	 add	 eax, 119		; 00000077H
  00464	50		 push	 eax
  00465	8b 4d f8	 mov	 ecx, DWORD PTR _lpObj$[ebp]
  00468	83 c1 6c	 add	 ecx, 108		; 0000006cH
  0046b	51		 push	 ecx
  0046c	68 00 00 00 00	 push	 OFFSET ??_C@_0EB@KGCLNBNA@?$FL?$CFs?$FN?$FL?$CFs?$FN?5?$CFs?5Attack?5Speed?5Is?5Wron@
  00471	ff 15 00 00 00
	00		 call	 DWORD PTR ?LogAddTD@@3P6AXPADZZA ; LogAddTD
  00477	83 c4 1c	 add	 esp, 28			; 0000001cH
$LN4@SpeedHackC:

; 201  : 		}
; 202  : 	}
; 203  : 	else

  0047a	eb 1a		 jmp	 SHORT $LN2@SpeedHackC
$LN5@SpeedHackC:

; 204  : 	{
; 205  : 		lpObj->m_SumLastAttackTime = 0;

  0047c	8b 45 f8	 mov	 eax, DWORD PTR _lpObj$[ebp]
  0047f	c7 80 78 03 00
	00 00 00 00 00	 mov	 DWORD PTR [eax+888], 0

; 206  : 		lpObj->m_DetectCount = 0;

  00489	8b 45 f8	 mov	 eax, DWORD PTR _lpObj$[ebp]
  0048c	c7 80 7c 03 00
	00 00 00 00 00	 mov	 DWORD PTR [eax+892], 0
$LN2@SpeedHackC:

; 207  : 	}
; 208  : 
; 209  : 	lpObj->m_LastAttackTime = GetTickCount();

  00496	ff 15 00 00 00
	00		 call	 DWORD PTR __imp__GetTickCount@0
  0049c	8b 4d f8	 mov	 ecx, DWORD PTR _lpObj$[ebp]
  0049f	89 81 6c 03 00
	00		 mov	 DWORD PTR [ecx+876], eax

; 210  : 
; 211  : 	if(bIsIgnorePacketSpeedHackDetect != 0 && lpObj->m_SpeedHackPenalty > 0)

  004a5	83 3d 00 00 00
	00 00		 cmp	 DWORD PTR ?bIsIgnorePacketSpeedHackDetect@@3HA, 0 ; bIsIgnorePacketSpeedHackDetect
  004ac	74 66		 je	 SHORT $LN1@SpeedHackC
  004ae	8b 45 f8	 mov	 eax, DWORD PTR _lpObj$[ebp]
  004b1	83 b8 84 03 00
	00 00		 cmp	 DWORD PTR [eax+900], 0
  004b8	7e 5a		 jle	 SHORT $LN1@SpeedHackC

; 212  : 	{
; 213  : 		lpObj->m_SpeedHackPenalty--;

  004ba	8b 45 f8	 mov	 eax, DWORD PTR _lpObj$[ebp]
  004bd	8b 88 84 03 00
	00		 mov	 ecx, DWORD PTR [eax+900]
  004c3	83 e9 01	 sub	 ecx, 1
  004c6	8b 55 f8	 mov	 edx, DWORD PTR _lpObj$[ebp]
  004c9	89 8a 84 03 00
	00		 mov	 DWORD PTR [edx+900], ecx

; 214  : 		LogAddTD("[%s][%s] %s Apply Attack Speed Penalty (%d left)", lpObj->AccountID,lpObj->Name,lMsg.Get(lpObj->Class + 1900),lpObj->m_SpeedHackPenalty);

  004cf	8b 45 f8	 mov	 eax, DWORD PTR _lpObj$[ebp]
  004d2	8b 88 84 03 00
	00		 mov	 ecx, DWORD PTR [eax+900]
  004d8	51		 push	 ecx
  004d9	8b 55 f8	 mov	 edx, DWORD PTR _lpObj$[ebp]
  004dc	0f b7 82 b8 00
	00 00		 movzx	 eax, WORD PTR [edx+184]
  004e3	05 6c 07 00 00	 add	 eax, 1900		; 0000076cH
  004e8	50		 push	 eax
  004e9	b9 00 00 00 00	 mov	 ecx, OFFSET ?lMsg@@3VCMsg@@A ; lMsg
  004ee	e8 00 00 00 00	 call	 ?Get@CMsg@@QAEPADH@Z	; CMsg::Get
  004f3	50		 push	 eax
  004f4	8b 4d f8	 mov	 ecx, DWORD PTR _lpObj$[ebp]
  004f7	83 c1 77	 add	 ecx, 119		; 00000077H
  004fa	51		 push	 ecx
  004fb	8b 55 f8	 mov	 edx, DWORD PTR _lpObj$[ebp]
  004fe	83 c2 6c	 add	 edx, 108		; 0000006cH
  00501	52		 push	 edx
  00502	68 00 00 00 00	 push	 OFFSET ??_C@_0DB@JJPLIMIC@?$FL?$CFs?$FN?$FL?$CFs?$FN?5?$CFs?5Apply?5Attack?5Speed?5P@
  00507	ff 15 00 00 00
	00		 call	 DWORD PTR ?LogAddTD@@3P6AXPADZZA ; LogAddTD
  0050d	83 c4 14	 add	 esp, 20			; 00000014H

; 215  : 		return false;

  00510	33 c0		 xor	 eax, eax
  00512	eb 05		 jmp	 SHORT $LN7@SpeedHackC
$LN1@SpeedHackC:

; 216  : 	}
; 217  : 	return true;

  00514	b8 01 00 00 00	 mov	 eax, 1
$LN7@SpeedHackC:

; 218  : }

  00519	5f		 pop	 edi
  0051a	5e		 pop	 esi
  0051b	5b		 pop	 ebx
  0051c	8b e5		 mov	 esp, ebp
  0051e	5d		 pop	 ebp
  0051f	c2 04 00	 ret	 4
?SpeedHackCheck@CObjUseSkill@@QAEHH@Z ENDP		; CObjUseSkill::SpeedHackCheck
_TEXT	ENDS
PUBLIC	?EnableSkill@CObjUseSkill@@QAEHKH@Z		; CObjUseSkill::EnableSkill
EXTRN	?GetBaseMasterLevelSkill@CMasterLevelSkillTreeSystem@@QAEHH@Z:PROC ; CMasterLevelSkillTreeSystem::GetBaseMasterLevelSkill
EXTRN	?CheckRequireStatus@CMasterLevelSkillTreeSystem@@QAEHH@Z:PROC ; CMasterLevelSkillTreeSystem::CheckRequireStatus
EXTRN	?g_MasterSkillSystem@@3VCMasterLevelSkillTreeSystem@@A:BYTE ; g_MasterSkillSystem
; Function compile flags: /Odtp /ZI
_TEXT	SEGMENT
_GetBaseMasterLevelSkill$239935 = -8			; size = 4
_this$ = -4						; size = 4
_Skill$ = 8						; size = 4
_Level$ = 12						; size = 4
?EnableSkill@CObjUseSkill@@QAEHKH@Z PROC		; CObjUseSkill::EnableSkill
; _this$ = ecx

; 222  : {

  00530	55		 push	 ebp
  00531	8b ec		 mov	 ebp, esp
  00533	83 ec 48	 sub	 esp, 72			; 00000048H
  00536	53		 push	 ebx
  00537	56		 push	 esi
  00538	57		 push	 edi
  00539	89 4d fc	 mov	 DWORD PTR _this$[ebp], ecx

; 223  : 	if(g_MasterSkillSystem.CheckRequireStatus(Skill) != FALSE) //Season3 add-on

  0053c	8b 45 08	 mov	 eax, DWORD PTR _Skill$[ebp]
  0053f	50		 push	 eax
  00540	b9 00 00 00 00	 mov	 ecx, OFFSET ?g_MasterSkillSystem@@3VCMasterLevelSkillTreeSystem@@A ; g_MasterSkillSystem
  00545	e8 00 00 00 00	 call	 ?CheckRequireStatus@CMasterLevelSkillTreeSystem@@QAEHH@Z ; CMasterLevelSkillTreeSystem::CheckRequireStatus
  0054a	85 c0		 test	 eax, eax
  0054c	0f 84 fc 05 00
	00		 je	 $LN5@EnableSkil

; 224  : 	{
; 225  : 		int GetBaseMasterLevelSkill = g_MasterSkillSystem.GetBaseMasterLevelSkill(Skill);

  00552	8b 45 08	 mov	 eax, DWORD PTR _Skill$[ebp]
  00555	50		 push	 eax
  00556	b9 00 00 00 00	 mov	 ecx, OFFSET ?g_MasterSkillSystem@@3VCMasterLevelSkillTreeSystem@@A ; g_MasterSkillSystem
  0055b	e8 00 00 00 00	 call	 ?GetBaseMasterLevelSkill@CMasterLevelSkillTreeSystem@@QAEHH@Z ; CMasterLevelSkillTreeSystem::GetBaseMasterLevelSkill
  00560	89 45 f8	 mov	 DWORD PTR _GetBaseMasterLevelSkill$239935[ebp], eax

; 226  : 
; 227  : #ifdef DEBUG_CODE
; 228  : 		LogAddC(5,"GetBaseMasterLevelSkill: %d",GetBaseMasterLevelSkill);
; 229  : #endif
; 230  : 
; 231  : 		if(	 GetBaseMasterLevelSkill != 403
; 232  :           && GetBaseMasterLevelSkill != 388
; 233  :           && GetBaseMasterLevelSkill != 330
; 234  :           && GetBaseMasterLevelSkill != 413
; 235  :           && GetBaseMasterLevelSkill != 414
; 236  :           && GetBaseMasterLevelSkill != 481
; 237  :           && GetBaseMasterLevelSkill != 356
; 238  :           && GetBaseMasterLevelSkill != 382
; 239  :           && GetBaseMasterLevelSkill != 512
; 240  :           && GetBaseMasterLevelSkill != 508
; 241  :           && GetBaseMasterLevelSkill != 385
; 242  :           && GetBaseMasterLevelSkill != 391
; 243  :           && GetBaseMasterLevelSkill != 336
; 244  :           && GetBaseMasterLevelSkill != 331
; 245  :           && GetBaseMasterLevelSkill != 417
; 246  :           && GetBaseMasterLevelSkill != 420
; 247  :           && GetBaseMasterLevelSkill != 490
; 248  :           && GetBaseMasterLevelSkill != 482
; 249  :           && GetBaseMasterLevelSkill != 518
; 250  :           && GetBaseMasterLevelSkill != 487
; 251  :           && GetBaseMasterLevelSkill != 454
; 252  :           && GetBaseMasterLevelSkill != 455
; 253  :           && GetBaseMasterLevelSkill != 456
; 254  :           && GetBaseMasterLevelSkill != 458
; 255  :           && GetBaseMasterLevelSkill != 326
; 256  :           && GetBaseMasterLevelSkill != 327
; 257  :           && GetBaseMasterLevelSkill != 328
; 258  :           && GetBaseMasterLevelSkill != 329
; 259  :           && GetBaseMasterLevelSkill != 332
; 260  :           && GetBaseMasterLevelSkill != 333
; 261  :           && GetBaseMasterLevelSkill != 337
; 262  :           && GetBaseMasterLevelSkill != 339
; 263  :           && GetBaseMasterLevelSkill != 340
; 264  :           && GetBaseMasterLevelSkill != 342
; 265  :           && GetBaseMasterLevelSkill != 343
; 266  :           && GetBaseMasterLevelSkill != 344
; 267  :           && GetBaseMasterLevelSkill != 346
; 268  :           && GetBaseMasterLevelSkill != 360
; 269  :           && GetBaseMasterLevelSkill != 363
; 270  :           && GetBaseMasterLevelSkill != 376
; 271  :           && GetBaseMasterLevelSkill != 378
; 272  :           && GetBaseMasterLevelSkill != 379
; 273  :           && GetBaseMasterLevelSkill != 380
; 274  :           && GetBaseMasterLevelSkill != 381
; 275  :           && GetBaseMasterLevelSkill != 383
; 276  :           && GetBaseMasterLevelSkill != 384
; 277  :           && GetBaseMasterLevelSkill != 386
; 278  :           && GetBaseMasterLevelSkill != 387
; 279  :           && GetBaseMasterLevelSkill != 389
; 280  :           && GetBaseMasterLevelSkill != 390
; 281  :           && GetBaseMasterLevelSkill != 392
; 282  :           && GetBaseMasterLevelSkill != 393
; 283  :           && GetBaseMasterLevelSkill != 394
; 284  :           && GetBaseMasterLevelSkill != 395
; 285  :           && GetBaseMasterLevelSkill != 396
; 286  :           && GetBaseMasterLevelSkill != 404
; 287  :           && GetBaseMasterLevelSkill != 406
; 288  :           && GetBaseMasterLevelSkill != 411
; 289  :           && GetBaseMasterLevelSkill != 415
; 290  :           && GetBaseMasterLevelSkill != 416
; 291  :           && GetBaseMasterLevelSkill != 418
; 292  :           && GetBaseMasterLevelSkill != 419
; 293  :           && GetBaseMasterLevelSkill != 425
; 294  :           && GetBaseMasterLevelSkill != 426
; 295  :           && GetBaseMasterLevelSkill != 427
; 296  :           && GetBaseMasterLevelSkill != 428
; 297  :           && GetBaseMasterLevelSkill != 429
; 298  :           && GetBaseMasterLevelSkill != 430
; 299  :           && GetBaseMasterLevelSkill != 431
; 300  :           && GetBaseMasterLevelSkill != 432
; 301  :           && GetBaseMasterLevelSkill != 433
; 302  :           && GetBaseMasterLevelSkill != 434
; 303  :           && GetBaseMasterLevelSkill != 441
; 304  :           && GetBaseMasterLevelSkill != 459
; 305  :           && GetBaseMasterLevelSkill != 460
; 306  :           && GetBaseMasterLevelSkill != 461
; 307  :           && GetBaseMasterLevelSkill != 462
; 308  :           && GetBaseMasterLevelSkill != 466
; 309  :           && GetBaseMasterLevelSkill != 468
; 310  :           && GetBaseMasterLevelSkill != 469
; 311  :           && GetBaseMasterLevelSkill != 470
; 312  :           && GetBaseMasterLevelSkill != 472
; 313  :           && GetBaseMasterLevelSkill != 477
; 314  :           && GetBaseMasterLevelSkill != 479
; 315  :           && GetBaseMasterLevelSkill != 480
; 316  :           && GetBaseMasterLevelSkill != 483
; 317  :           && GetBaseMasterLevelSkill != 484
; 318  :           && GetBaseMasterLevelSkill != 486
; 319  :           && GetBaseMasterLevelSkill != 488
; 320  :           && GetBaseMasterLevelSkill != 489
; 321  :           && GetBaseMasterLevelSkill != 491
; 322  :           && GetBaseMasterLevelSkill != 492
; 323  :           && GetBaseMasterLevelSkill != 493
; 324  :           && GetBaseMasterLevelSkill != 494
; 325  :           && GetBaseMasterLevelSkill != 495
; 326  :           && GetBaseMasterLevelSkill != 497
; 327  :           && GetBaseMasterLevelSkill != 498
; 328  :           && GetBaseMasterLevelSkill != 499
; 329  :           && GetBaseMasterLevelSkill != 500
; 330  :           && GetBaseMasterLevelSkill != 501
; 331  :           && GetBaseMasterLevelSkill != 502
; 332  :           && GetBaseMasterLevelSkill != 509
; 333  :           && GetBaseMasterLevelSkill != 510
; 334  :           && GetBaseMasterLevelSkill != 514
; 335  :           && GetBaseMasterLevelSkill != 515
; 336  :           && GetBaseMasterLevelSkill != 516
; 337  :           && GetBaseMasterLevelSkill != 519
; 338  :           && GetBaseMasterLevelSkill != 520
; 339  :           && GetBaseMasterLevelSkill != 521
; 340  :           && GetBaseMasterLevelSkill != 523
; 341  :           && GetBaseMasterLevelSkill != 539
; 342  : 		  && GetBaseMasterLevelSkill != 551
; 343  :           && GetBaseMasterLevelSkill != 552
; 344  :           && GetBaseMasterLevelSkill != 554
; 345  :           && GetBaseMasterLevelSkill != 555
; 346  :           && GetBaseMasterLevelSkill != 558
; 347  : 		  && GetBaseMasterLevelSkill != 559
; 348  : 		  && GetBaseMasterLevelSkill != 560
; 349  : 		  && GetBaseMasterLevelSkill != 558
; 350  : 			)

  00563	81 7d f8 93 01
	00 00		 cmp	 DWORD PTR _GetBaseMasterLevelSkill$239935[ebp], 403 ; 00000193H
  0056a	0f 84 cf 05 00
	00		 je	 $LN4@EnableSkil
  00570	81 7d f8 84 01
	00 00		 cmp	 DWORD PTR _GetBaseMasterLevelSkill$239935[ebp], 388 ; 00000184H
  00577	0f 84 c2 05 00
	00		 je	 $LN4@EnableSkil
  0057d	81 7d f8 4a 01
	00 00		 cmp	 DWORD PTR _GetBaseMasterLevelSkill$239935[ebp], 330 ; 0000014aH
  00584	0f 84 b5 05 00
	00		 je	 $LN4@EnableSkil
  0058a	81 7d f8 9d 01
	00 00		 cmp	 DWORD PTR _GetBaseMasterLevelSkill$239935[ebp], 413 ; 0000019dH
  00591	0f 84 a8 05 00
	00		 je	 $LN4@EnableSkil
  00597	81 7d f8 9e 01
	00 00		 cmp	 DWORD PTR _GetBaseMasterLevelSkill$239935[ebp], 414 ; 0000019eH
  0059e	0f 84 9b 05 00
	00		 je	 $LN4@EnableSkil
  005a4	81 7d f8 e1 01
	00 00		 cmp	 DWORD PTR _GetBaseMasterLevelSkill$239935[ebp], 481 ; 000001e1H
  005ab	0f 84 8e 05 00
	00		 je	 $LN4@EnableSkil
  005b1	81 7d f8 64 01
	00 00		 cmp	 DWORD PTR _GetBaseMasterLevelSkill$239935[ebp], 356 ; 00000164H
  005b8	0f 84 81 05 00
	00		 je	 $LN4@EnableSkil
  005be	81 7d f8 7e 01
	00 00		 cmp	 DWORD PTR _GetBaseMasterLevelSkill$239935[ebp], 382 ; 0000017eH
  005c5	0f 84 74 05 00
	00		 je	 $LN4@EnableSkil
  005cb	81 7d f8 00 02
	00 00		 cmp	 DWORD PTR _GetBaseMasterLevelSkill$239935[ebp], 512 ; 00000200H
  005d2	0f 84 67 05 00
	00		 je	 $LN4@EnableSkil
  005d8	81 7d f8 fc 01
	00 00		 cmp	 DWORD PTR _GetBaseMasterLevelSkill$239935[ebp], 508 ; 000001fcH
  005df	0f 84 5a 05 00
	00		 je	 $LN4@EnableSkil
  005e5	81 7d f8 81 01
	00 00		 cmp	 DWORD PTR _GetBaseMasterLevelSkill$239935[ebp], 385 ; 00000181H
  005ec	0f 84 4d 05 00
	00		 je	 $LN4@EnableSkil
  005f2	81 7d f8 87 01
	00 00		 cmp	 DWORD PTR _GetBaseMasterLevelSkill$239935[ebp], 391 ; 00000187H
  005f9	0f 84 40 05 00
	00		 je	 $LN4@EnableSkil
  005ff	81 7d f8 50 01
	00 00		 cmp	 DWORD PTR _GetBaseMasterLevelSkill$239935[ebp], 336 ; 00000150H
  00606	0f 84 33 05 00
	00		 je	 $LN4@EnableSkil
  0060c	81 7d f8 4b 01
	00 00		 cmp	 DWORD PTR _GetBaseMasterLevelSkill$239935[ebp], 331 ; 0000014bH
  00613	0f 84 26 05 00
	00		 je	 $LN4@EnableSkil
  00619	81 7d f8 a1 01
	00 00		 cmp	 DWORD PTR _GetBaseMasterLevelSkill$239935[ebp], 417 ; 000001a1H
  00620	0f 84 19 05 00
	00		 je	 $LN4@EnableSkil
  00626	81 7d f8 a4 01
	00 00		 cmp	 DWORD PTR _GetBaseMasterLevelSkill$239935[ebp], 420 ; 000001a4H
  0062d	0f 84 0c 05 00
	00		 je	 $LN4@EnableSkil
  00633	81 7d f8 ea 01
	00 00		 cmp	 DWORD PTR _GetBaseMasterLevelSkill$239935[ebp], 490 ; 000001eaH
  0063a	0f 84 ff 04 00
	00		 je	 $LN4@EnableSkil
  00640	81 7d f8 e2 01
	00 00		 cmp	 DWORD PTR _GetBaseMasterLevelSkill$239935[ebp], 482 ; 000001e2H
  00647	0f 84 f2 04 00
	00		 je	 $LN4@EnableSkil
  0064d	81 7d f8 06 02
	00 00		 cmp	 DWORD PTR _GetBaseMasterLevelSkill$239935[ebp], 518 ; 00000206H
  00654	0f 84 e5 04 00
	00		 je	 $LN4@EnableSkil
  0065a	81 7d f8 e7 01
	00 00		 cmp	 DWORD PTR _GetBaseMasterLevelSkill$239935[ebp], 487 ; 000001e7H
  00661	0f 84 d8 04 00
	00		 je	 $LN4@EnableSkil
  00667	81 7d f8 c6 01
	00 00		 cmp	 DWORD PTR _GetBaseMasterLevelSkill$239935[ebp], 454 ; 000001c6H
  0066e	0f 84 cb 04 00
	00		 je	 $LN4@EnableSkil
  00674	81 7d f8 c7 01
	00 00		 cmp	 DWORD PTR _GetBaseMasterLevelSkill$239935[ebp], 455 ; 000001c7H
  0067b	0f 84 be 04 00
	00		 je	 $LN4@EnableSkil
  00681	81 7d f8 c8 01
	00 00		 cmp	 DWORD PTR _GetBaseMasterLevelSkill$239935[ebp], 456 ; 000001c8H
  00688	0f 84 b1 04 00
	00		 je	 $LN4@EnableSkil
  0068e	81 7d f8 ca 01
	00 00		 cmp	 DWORD PTR _GetBaseMasterLevelSkill$239935[ebp], 458 ; 000001caH
  00695	0f 84 a4 04 00
	00		 je	 $LN4@EnableSkil
  0069b	81 7d f8 46 01
	00 00		 cmp	 DWORD PTR _GetBaseMasterLevelSkill$239935[ebp], 326 ; 00000146H
  006a2	0f 84 97 04 00
	00		 je	 $LN4@EnableSkil
  006a8	81 7d f8 47 01
	00 00		 cmp	 DWORD PTR _GetBaseMasterLevelSkill$239935[ebp], 327 ; 00000147H
  006af	0f 84 8a 04 00
	00		 je	 $LN4@EnableSkil
  006b5	81 7d f8 48 01
	00 00		 cmp	 DWORD PTR _GetBaseMasterLevelSkill$239935[ebp], 328 ; 00000148H
  006bc	0f 84 7d 04 00
	00		 je	 $LN4@EnableSkil
  006c2	81 7d f8 49 01
	00 00		 cmp	 DWORD PTR _GetBaseMasterLevelSkill$239935[ebp], 329 ; 00000149H
  006c9	0f 84 70 04 00
	00		 je	 $LN4@EnableSkil
  006cf	81 7d f8 4c 01
	00 00		 cmp	 DWORD PTR _GetBaseMasterLevelSkill$239935[ebp], 332 ; 0000014cH
  006d6	0f 84 63 04 00
	00		 je	 $LN4@EnableSkil
  006dc	81 7d f8 4d 01
	00 00		 cmp	 DWORD PTR _GetBaseMasterLevelSkill$239935[ebp], 333 ; 0000014dH
  006e3	0f 84 56 04 00
	00		 je	 $LN4@EnableSkil
  006e9	81 7d f8 51 01
	00 00		 cmp	 DWORD PTR _GetBaseMasterLevelSkill$239935[ebp], 337 ; 00000151H
  006f0	0f 84 49 04 00
	00		 je	 $LN4@EnableSkil
  006f6	81 7d f8 53 01
	00 00		 cmp	 DWORD PTR _GetBaseMasterLevelSkill$239935[ebp], 339 ; 00000153H
  006fd	0f 84 3c 04 00
	00		 je	 $LN4@EnableSkil
  00703	81 7d f8 54 01
	00 00		 cmp	 DWORD PTR _GetBaseMasterLevelSkill$239935[ebp], 340 ; 00000154H
  0070a	0f 84 2f 04 00
	00		 je	 $LN4@EnableSkil
  00710	81 7d f8 56 01
	00 00		 cmp	 DWORD PTR _GetBaseMasterLevelSkill$239935[ebp], 342 ; 00000156H
  00717	0f 84 22 04 00
	00		 je	 $LN4@EnableSkil
  0071d	81 7d f8 57 01
	00 00		 cmp	 DWORD PTR _GetBaseMasterLevelSkill$239935[ebp], 343 ; 00000157H
  00724	0f 84 15 04 00
	00		 je	 $LN4@EnableSkil
  0072a	81 7d f8 58 01
	00 00		 cmp	 DWORD PTR _GetBaseMasterLevelSkill$239935[ebp], 344 ; 00000158H
  00731	0f 84 08 04 00
	00		 je	 $LN4@EnableSkil
  00737	81 7d f8 5a 01
	00 00		 cmp	 DWORD PTR _GetBaseMasterLevelSkill$239935[ebp], 346 ; 0000015aH
  0073e	0f 84 fb 03 00
	00		 je	 $LN4@EnableSkil
  00744	81 7d f8 68 01
	00 00		 cmp	 DWORD PTR _GetBaseMasterLevelSkill$239935[ebp], 360 ; 00000168H
  0074b	0f 84 ee 03 00
	00		 je	 $LN4@EnableSkil
  00751	81 7d f8 6b 01
	00 00		 cmp	 DWORD PTR _GetBaseMasterLevelSkill$239935[ebp], 363 ; 0000016bH
  00758	0f 84 e1 03 00
	00		 je	 $LN4@EnableSkil
  0075e	81 7d f8 78 01
	00 00		 cmp	 DWORD PTR _GetBaseMasterLevelSkill$239935[ebp], 376 ; 00000178H
  00765	0f 84 d4 03 00
	00		 je	 $LN4@EnableSkil
  0076b	81 7d f8 7a 01
	00 00		 cmp	 DWORD PTR _GetBaseMasterLevelSkill$239935[ebp], 378 ; 0000017aH
  00772	0f 84 c7 03 00
	00		 je	 $LN4@EnableSkil
  00778	81 7d f8 7b 01
	00 00		 cmp	 DWORD PTR _GetBaseMasterLevelSkill$239935[ebp], 379 ; 0000017bH
  0077f	0f 84 ba 03 00
	00		 je	 $LN4@EnableSkil
  00785	81 7d f8 7c 01
	00 00		 cmp	 DWORD PTR _GetBaseMasterLevelSkill$239935[ebp], 380 ; 0000017cH
  0078c	0f 84 ad 03 00
	00		 je	 $LN4@EnableSkil
  00792	81 7d f8 7d 01
	00 00		 cmp	 DWORD PTR _GetBaseMasterLevelSkill$239935[ebp], 381 ; 0000017dH
  00799	0f 84 a0 03 00
	00		 je	 $LN4@EnableSkil
  0079f	81 7d f8 7f 01
	00 00		 cmp	 DWORD PTR _GetBaseMasterLevelSkill$239935[ebp], 383 ; 0000017fH
  007a6	0f 84 93 03 00
	00		 je	 $LN4@EnableSkil
  007ac	81 7d f8 80 01
	00 00		 cmp	 DWORD PTR _GetBaseMasterLevelSkill$239935[ebp], 384 ; 00000180H
  007b3	0f 84 86 03 00
	00		 je	 $LN4@EnableSkil
  007b9	81 7d f8 82 01
	00 00		 cmp	 DWORD PTR _GetBaseMasterLevelSkill$239935[ebp], 386 ; 00000182H
  007c0	0f 84 79 03 00
	00		 je	 $LN4@EnableSkil
  007c6	81 7d f8 83 01
	00 00		 cmp	 DWORD PTR _GetBaseMasterLevelSkill$239935[ebp], 387 ; 00000183H
  007cd	0f 84 6c 03 00
	00		 je	 $LN4@EnableSkil
  007d3	81 7d f8 85 01
	00 00		 cmp	 DWORD PTR _GetBaseMasterLevelSkill$239935[ebp], 389 ; 00000185H
  007da	0f 84 5f 03 00
	00		 je	 $LN4@EnableSkil
  007e0	81 7d f8 86 01
	00 00		 cmp	 DWORD PTR _GetBaseMasterLevelSkill$239935[ebp], 390 ; 00000186H
  007e7	0f 84 52 03 00
	00		 je	 $LN4@EnableSkil
  007ed	81 7d f8 88 01
	00 00		 cmp	 DWORD PTR _GetBaseMasterLevelSkill$239935[ebp], 392 ; 00000188H
  007f4	0f 84 45 03 00
	00		 je	 $LN4@EnableSkil
  007fa	81 7d f8 89 01
	00 00		 cmp	 DWORD PTR _GetBaseMasterLevelSkill$239935[ebp], 393 ; 00000189H
  00801	0f 84 38 03 00
	00		 je	 $LN4@EnableSkil
  00807	81 7d f8 8a 01
	00 00		 cmp	 DWORD PTR _GetBaseMasterLevelSkill$239935[ebp], 394 ; 0000018aH
  0080e	0f 84 2b 03 00
	00		 je	 $LN4@EnableSkil
  00814	81 7d f8 8b 01
	00 00		 cmp	 DWORD PTR _GetBaseMasterLevelSkill$239935[ebp], 395 ; 0000018bH
  0081b	0f 84 1e 03 00
	00		 je	 $LN4@EnableSkil
  00821	81 7d f8 8c 01
	00 00		 cmp	 DWORD PTR _GetBaseMasterLevelSkill$239935[ebp], 396 ; 0000018cH
  00828	0f 84 11 03 00
	00		 je	 $LN4@EnableSkil
  0082e	81 7d f8 94 01
	00 00		 cmp	 DWORD PTR _GetBaseMasterLevelSkill$239935[ebp], 404 ; 00000194H
  00835	0f 84 04 03 00
	00		 je	 $LN4@EnableSkil
  0083b	81 7d f8 96 01
	00 00		 cmp	 DWORD PTR _GetBaseMasterLevelSkill$239935[ebp], 406 ; 00000196H
  00842	0f 84 f7 02 00
	00		 je	 $LN4@EnableSkil
  00848	81 7d f8 9b 01
	00 00		 cmp	 DWORD PTR _GetBaseMasterLevelSkill$239935[ebp], 411 ; 0000019bH
  0084f	0f 84 ea 02 00
	00		 je	 $LN4@EnableSkil
  00855	81 7d f8 9f 01
	00 00		 cmp	 DWORD PTR _GetBaseMasterLevelSkill$239935[ebp], 415 ; 0000019fH
  0085c	0f 84 dd 02 00
	00		 je	 $LN4@EnableSkil
  00862	81 7d f8 a0 01
	00 00		 cmp	 DWORD PTR _GetBaseMasterLevelSkill$239935[ebp], 416 ; 000001a0H
  00869	0f 84 d0 02 00
	00		 je	 $LN4@EnableSkil
  0086f	81 7d f8 a2 01
	00 00		 cmp	 DWORD PTR _GetBaseMasterLevelSkill$239935[ebp], 418 ; 000001a2H
  00876	0f 84 c3 02 00
	00		 je	 $LN4@EnableSkil
  0087c	81 7d f8 a3 01
	00 00		 cmp	 DWORD PTR _GetBaseMasterLevelSkill$239935[ebp], 419 ; 000001a3H
  00883	0f 84 b6 02 00
	00		 je	 $LN4@EnableSkil
  00889	81 7d f8 a9 01
	00 00		 cmp	 DWORD PTR _GetBaseMasterLevelSkill$239935[ebp], 425 ; 000001a9H
  00890	0f 84 a9 02 00
	00		 je	 $LN4@EnableSkil
  00896	81 7d f8 aa 01
	00 00		 cmp	 DWORD PTR _GetBaseMasterLevelSkill$239935[ebp], 426 ; 000001aaH
  0089d	0f 84 9c 02 00
	00		 je	 $LN4@EnableSkil
  008a3	81 7d f8 ab 01
	00 00		 cmp	 DWORD PTR _GetBaseMasterLevelSkill$239935[ebp], 427 ; 000001abH
  008aa	0f 84 8f 02 00
	00		 je	 $LN4@EnableSkil
  008b0	81 7d f8 ac 01
	00 00		 cmp	 DWORD PTR _GetBaseMasterLevelSkill$239935[ebp], 428 ; 000001acH
  008b7	0f 84 82 02 00
	00		 je	 $LN4@EnableSkil
  008bd	81 7d f8 ad 01
	00 00		 cmp	 DWORD PTR _GetBaseMasterLevelSkill$239935[ebp], 429 ; 000001adH
  008c4	0f 84 75 02 00
	00		 je	 $LN4@EnableSkil
  008ca	81 7d f8 ae 01
	00 00		 cmp	 DWORD PTR _GetBaseMasterLevelSkill$239935[ebp], 430 ; 000001aeH
  008d1	0f 84 68 02 00
	00		 je	 $LN4@EnableSkil
  008d7	81 7d f8 af 01
	00 00		 cmp	 DWORD PTR _GetBaseMasterLevelSkill$239935[ebp], 431 ; 000001afH
  008de	0f 84 5b 02 00
	00		 je	 $LN4@EnableSkil
  008e4	81 7d f8 b0 01
	00 00		 cmp	 DWORD PTR _GetBaseMasterLevelSkill$239935[ebp], 432 ; 000001b0H
  008eb	0f 84 4e 02 00
	00		 je	 $LN4@EnableSkil
  008f1	81 7d f8 b1 01
	00 00		 cmp	 DWORD PTR _GetBaseMasterLevelSkill$239935[ebp], 433 ; 000001b1H
  008f8	0f 84 41 02 00
	00		 je	 $LN4@EnableSkil
  008fe	81 7d f8 b2 01
	00 00		 cmp	 DWORD PTR _GetBaseMasterLevelSkill$239935[ebp], 434 ; 000001b2H
  00905	0f 84 34 02 00
	00		 je	 $LN4@EnableSkil
  0090b	81 7d f8 b9 01
	00 00		 cmp	 DWORD PTR _GetBaseMasterLevelSkill$239935[ebp], 441 ; 000001b9H
  00912	0f 84 27 02 00
	00		 je	 $LN4@EnableSkil
  00918	81 7d f8 cb 01
	00 00		 cmp	 DWORD PTR _GetBaseMasterLevelSkill$239935[ebp], 459 ; 000001cbH
  0091f	0f 84 1a 02 00
	00		 je	 $LN4@EnableSkil
  00925	81 7d f8 cc 01
	00 00		 cmp	 DWORD PTR _GetBaseMasterLevelSkill$239935[ebp], 460 ; 000001ccH
  0092c	0f 84 0d 02 00
	00		 je	 $LN4@EnableSkil
  00932	81 7d f8 cd 01
	00 00		 cmp	 DWORD PTR _GetBaseMasterLevelSkill$239935[ebp], 461 ; 000001cdH
  00939	0f 84 00 02 00
	00		 je	 $LN4@EnableSkil
  0093f	81 7d f8 ce 01
	00 00		 cmp	 DWORD PTR _GetBaseMasterLevelSkill$239935[ebp], 462 ; 000001ceH
  00946	0f 84 f3 01 00
	00		 je	 $LN4@EnableSkil
  0094c	81 7d f8 d2 01
	00 00		 cmp	 DWORD PTR _GetBaseMasterLevelSkill$239935[ebp], 466 ; 000001d2H
  00953	0f 84 e6 01 00
	00		 je	 $LN4@EnableSkil
  00959	81 7d f8 d4 01
	00 00		 cmp	 DWORD PTR _GetBaseMasterLevelSkill$239935[ebp], 468 ; 000001d4H
  00960	0f 84 d9 01 00
	00		 je	 $LN4@EnableSkil
  00966	81 7d f8 d5 01
	00 00		 cmp	 DWORD PTR _GetBaseMasterLevelSkill$239935[ebp], 469 ; 000001d5H
  0096d	0f 84 cc 01 00
	00		 je	 $LN4@EnableSkil
  00973	81 7d f8 d6 01
	00 00		 cmp	 DWORD PTR _GetBaseMasterLevelSkill$239935[ebp], 470 ; 000001d6H
  0097a	0f 84 bf 01 00
	00		 je	 $LN4@EnableSkil
  00980	81 7d f8 d8 01
	00 00		 cmp	 DWORD PTR _GetBaseMasterLevelSkill$239935[ebp], 472 ; 000001d8H
  00987	0f 84 b2 01 00
	00		 je	 $LN4@EnableSkil
  0098d	81 7d f8 dd 01
	00 00		 cmp	 DWORD PTR _GetBaseMasterLevelSkill$239935[ebp], 477 ; 000001ddH
  00994	0f 84 a5 01 00
	00		 je	 $LN4@EnableSkil
  0099a	81 7d f8 df 01
	00 00		 cmp	 DWORD PTR _GetBaseMasterLevelSkill$239935[ebp], 479 ; 000001dfH
  009a1	0f 84 98 01 00
	00		 je	 $LN4@EnableSkil
  009a7	81 7d f8 e0 01
	00 00		 cmp	 DWORD PTR _GetBaseMasterLevelSkill$239935[ebp], 480 ; 000001e0H
  009ae	0f 84 8b 01 00
	00		 je	 $LN4@EnableSkil
  009b4	81 7d f8 e3 01
	00 00		 cmp	 DWORD PTR _GetBaseMasterLevelSkill$239935[ebp], 483 ; 000001e3H
  009bb	0f 84 7e 01 00
	00		 je	 $LN4@EnableSkil
  009c1	81 7d f8 e4 01
	00 00		 cmp	 DWORD PTR _GetBaseMasterLevelSkill$239935[ebp], 484 ; 000001e4H
  009c8	0f 84 71 01 00
	00		 je	 $LN4@EnableSkil
  009ce	81 7d f8 e6 01
	00 00		 cmp	 DWORD PTR _GetBaseMasterLevelSkill$239935[ebp], 486 ; 000001e6H
  009d5	0f 84 64 01 00
	00		 je	 $LN4@EnableSkil
  009db	81 7d f8 e8 01
	00 00		 cmp	 DWORD PTR _GetBaseMasterLevelSkill$239935[ebp], 488 ; 000001e8H
  009e2	0f 84 57 01 00
	00		 je	 $LN4@EnableSkil
  009e8	81 7d f8 e9 01
	00 00		 cmp	 DWORD PTR _GetBaseMasterLevelSkill$239935[ebp], 489 ; 000001e9H
  009ef	0f 84 4a 01 00
	00		 je	 $LN4@EnableSkil
  009f5	81 7d f8 eb 01
	00 00		 cmp	 DWORD PTR _GetBaseMasterLevelSkill$239935[ebp], 491 ; 000001ebH
  009fc	0f 84 3d 01 00
	00		 je	 $LN4@EnableSkil
  00a02	81 7d f8 ec 01
	00 00		 cmp	 DWORD PTR _GetBaseMasterLevelSkill$239935[ebp], 492 ; 000001ecH
  00a09	0f 84 30 01 00
	00		 je	 $LN4@EnableSkil
  00a0f	81 7d f8 ed 01
	00 00		 cmp	 DWORD PTR _GetBaseMasterLevelSkill$239935[ebp], 493 ; 000001edH
  00a16	0f 84 23 01 00
	00		 je	 $LN4@EnableSkil
  00a1c	81 7d f8 ee 01
	00 00		 cmp	 DWORD PTR _GetBaseMasterLevelSkill$239935[ebp], 494 ; 000001eeH
  00a23	0f 84 16 01 00
	00		 je	 $LN4@EnableSkil
  00a29	81 7d f8 ef 01
	00 00		 cmp	 DWORD PTR _GetBaseMasterLevelSkill$239935[ebp], 495 ; 000001efH
  00a30	0f 84 09 01 00
	00		 je	 $LN4@EnableSkil
  00a36	81 7d f8 f1 01
	00 00		 cmp	 DWORD PTR _GetBaseMasterLevelSkill$239935[ebp], 497 ; 000001f1H
  00a3d	0f 84 fc 00 00
	00		 je	 $LN4@EnableSkil
  00a43	81 7d f8 f2 01
	00 00		 cmp	 DWORD PTR _GetBaseMasterLevelSkill$239935[ebp], 498 ; 000001f2H
  00a4a	0f 84 ef 00 00
	00		 je	 $LN4@EnableSkil
  00a50	81 7d f8 f3 01
	00 00		 cmp	 DWORD PTR _GetBaseMasterLevelSkill$239935[ebp], 499 ; 000001f3H
  00a57	0f 84 e2 00 00
	00		 je	 $LN4@EnableSkil
  00a5d	81 7d f8 f4 01
	00 00		 cmp	 DWORD PTR _GetBaseMasterLevelSkill$239935[ebp], 500 ; 000001f4H
  00a64	0f 84 d5 00 00
	00		 je	 $LN4@EnableSkil
  00a6a	81 7d f8 f5 01
	00 00		 cmp	 DWORD PTR _GetBaseMasterLevelSkill$239935[ebp], 501 ; 000001f5H
  00a71	0f 84 c8 00 00
	00		 je	 $LN4@EnableSkil
  00a77	81 7d f8 f6 01
	00 00		 cmp	 DWORD PTR _GetBaseMasterLevelSkill$239935[ebp], 502 ; 000001f6H
  00a7e	0f 84 bb 00 00
	00		 je	 $LN4@EnableSkil
  00a84	81 7d f8 fd 01
	00 00		 cmp	 DWORD PTR _GetBaseMasterLevelSkill$239935[ebp], 509 ; 000001fdH
  00a8b	0f 84 ae 00 00
	00		 je	 $LN4@EnableSkil
  00a91	81 7d f8 fe 01
	00 00		 cmp	 DWORD PTR _GetBaseMasterLevelSkill$239935[ebp], 510 ; 000001feH
  00a98	0f 84 a1 00 00
	00		 je	 $LN4@EnableSkil
  00a9e	81 7d f8 02 02
	00 00		 cmp	 DWORD PTR _GetBaseMasterLevelSkill$239935[ebp], 514 ; 00000202H
  00aa5	0f 84 94 00 00
	00		 je	 $LN4@EnableSkil
  00aab	81 7d f8 03 02
	00 00		 cmp	 DWORD PTR _GetBaseMasterLevelSkill$239935[ebp], 515 ; 00000203H
  00ab2	0f 84 87 00 00
	00		 je	 $LN4@EnableSkil
  00ab8	81 7d f8 04 02
	00 00		 cmp	 DWORD PTR _GetBaseMasterLevelSkill$239935[ebp], 516 ; 00000204H
  00abf	74 7e		 je	 SHORT $LN4@EnableSkil
  00ac1	81 7d f8 07 02
	00 00		 cmp	 DWORD PTR _GetBaseMasterLevelSkill$239935[ebp], 519 ; 00000207H
  00ac8	74 75		 je	 SHORT $LN4@EnableSkil
  00aca	81 7d f8 08 02
	00 00		 cmp	 DWORD PTR _GetBaseMasterLevelSkill$239935[ebp], 520 ; 00000208H
  00ad1	74 6c		 je	 SHORT $LN4@EnableSkil
  00ad3	81 7d f8 09 02
	00 00		 cmp	 DWORD PTR _GetBaseMasterLevelSkill$239935[ebp], 521 ; 00000209H
  00ada	74 63		 je	 SHORT $LN4@EnableSkil
  00adc	81 7d f8 0b 02
	00 00		 cmp	 DWORD PTR _GetBaseMasterLevelSkill$239935[ebp], 523 ; 0000020bH
  00ae3	74 5a		 je	 SHORT $LN4@EnableSkil
  00ae5	81 7d f8 1b 02
	00 00		 cmp	 DWORD PTR _GetBaseMasterLevelSkill$239935[ebp], 539 ; 0000021bH
  00aec	74 51		 je	 SHORT $LN4@EnableSkil
  00aee	81 7d f8 27 02
	00 00		 cmp	 DWORD PTR _GetBaseMasterLevelSkill$239935[ebp], 551 ; 00000227H
  00af5	74 48		 je	 SHORT $LN4@EnableSkil
  00af7	81 7d f8 28 02
	00 00		 cmp	 DWORD PTR _GetBaseMasterLevelSkill$239935[ebp], 552 ; 00000228H
  00afe	74 3f		 je	 SHORT $LN4@EnableSkil
  00b00	81 7d f8 2a 02
	00 00		 cmp	 DWORD PTR _GetBaseMasterLevelSkill$239935[ebp], 554 ; 0000022aH
  00b07	74 36		 je	 SHORT $LN4@EnableSkil
  00b09	81 7d f8 2b 02
	00 00		 cmp	 DWORD PTR _GetBaseMasterLevelSkill$239935[ebp], 555 ; 0000022bH
  00b10	74 2d		 je	 SHORT $LN4@EnableSkil
  00b12	81 7d f8 2e 02
	00 00		 cmp	 DWORD PTR _GetBaseMasterLevelSkill$239935[ebp], 558 ; 0000022eH
  00b19	74 24		 je	 SHORT $LN4@EnableSkil
  00b1b	81 7d f8 2f 02
	00 00		 cmp	 DWORD PTR _GetBaseMasterLevelSkill$239935[ebp], 559 ; 0000022fH
  00b22	74 1b		 je	 SHORT $LN4@EnableSkil
  00b24	81 7d f8 30 02
	00 00		 cmp	 DWORD PTR _GetBaseMasterLevelSkill$239935[ebp], 560 ; 00000230H
  00b2b	74 12		 je	 SHORT $LN4@EnableSkil
  00b2d	81 7d f8 2e 02
	00 00		 cmp	 DWORD PTR _GetBaseMasterLevelSkill$239935[ebp], 558 ; 0000022eH
  00b34	74 09		 je	 SHORT $LN4@EnableSkil

; 351  : 		{
; 352  : 			return false;

  00b36	33 c0		 xor	 eax, eax
  00b38	e9 d3 02 00 00	 jmp	 $LN6@EnableSkil

; 353  : 		}
; 354  : 		else

  00b3d	eb 0a		 jmp	 SHORT $LN3@EnableSkil
$LN4@EnableSkil:

; 355  : 		{
; 356  : 			return true;

  00b3f	b8 01 00 00 00	 mov	 eax, 1
  00b44	e9 c7 02 00 00	 jmp	 $LN6@EnableSkil
$LN3@EnableSkil:

; 357  : 		}
; 358  : 		
; 359  : 	}
; 360  : 	else if(Skill != AT_SKILL_STORM

  00b49	e9 bd 02 00 00	 jmp	 $LN2@EnableSkil
$LN5@EnableSkil:

; 361  : 		&& Skill != AT_SKILL_EVIL
; 362  : 		&& Skill != AT_SKILL_FLAME
; 363  : 		&& Skill != AT_SKILL_HELL
; 364  : 		&& Skill != AT_SKILL_BLAST
; 365  : 		&& Skill != AT_SKILL_INFERNO
; 366  : 		&& Skill != AT_SKILL_CROSSBOW
; 367  : 		&& Skill != AT_SKILL_DEVILFIRE
; 368  : 		&& Skill != AT_SKILL_FLASH
; 369  : 		&& Skill != AT_SKILL_WHEEL
; 370  : 		&& Skill != AT_SKILL_SWORD6
; 371  : 		&& Skill != AT_SKILL_KNIGHTSPEAR
; 372  : 		&& Skill != AT_SKILL_KNIGHTADDLIFE
; 373  : 		&& Skill != AT_SKILL_STRIKE
; 374  : 		&& Skill != AT_SKILL_KNIGHTDINORANT
; 375  : 		&& Skill != AT_SKILL_ELFHARDEN
; 376  : 		&& Skill != AT_SKILL_PENETRATION
; 377  : 		&& Skill != AT_SKILL_DEFENSEDOWN
; 378  : 		&& Skill != AT_SKILL_MAGICDEFENSE
; 379  : 		&& Skill != AT_SKILL_BLOWOFFURY
; 380  : 		&& Skill != AT_SKILL_EXPPOISON
; 381  : 		&& Skill != AT_SKILL_EXPICE
; 382  : 		&& Skill != AT_SKILL_EXPHELL
; 383  : 		&& Skill != AT_SKILL_ELECTRICSPARK
; 384  : 		&& Skill != AT_SKILL_DARKHORSE_ATTACK
; 385  : 		&& Skill != AT_SKILL_BRAND_OF_SKILL
; 386  : 		&& Skill != AT_SKILL_STUN
; 387  : 		&& Skill != AT_SKILL_REMOVAL_STUN
; 388  : 		&& Skill != AT_SKILL_ADD_MANA
; 389  : 		&& Skill != AT_SKILL_INVISIBLE 
; 390  : 		&& Skill != AT_SKILL_REMOVAL_INVISIBLE
; 391  : 		&& Skill != AT_SKILL_REMOVAL_MAGIC
; 392  : 		&& Skill != AT_SKILL_FENRIR_ATTACK
; 393  : 		&& Skill != AT_SKILL_INFINITY_ARROW
; 394  : 		&& Skill != AT_SKILL_FIRESCREAM
; 395  : 		&& Skill != 214
; 396  : 		&& Skill != 215
; 397  : 		&& Skill != 216
; 398  : 		&& Skill != 217
; 399  : 		&& Skill != 219
; 400  : 		&& Skill != 220
; 401  : 		&& Skill != 223
; 402  : 		&& Skill != 224
; 403  : 		&& Skill != 221
; 404  : 		&& Skill != 222
; 405  : 		//Season4 add-on
; 406  : 		&& Skill != 225
; 407  : 		&& Skill != 230
; 408  : 		&& Skill != 218
; 409  : 		&& Skill != 232
; 410  : 		&& Skill != 233
; 411  : 		&& Skill != 234
; 412  : 		&& Skill != 235
; 413  : 		&& Skill != 236
; 414  : 		&& Skill != 237
; 415  : 		&& Skill != 238
; 416  : 		&& Skill != 239
; 417  : 		&& Skill != 260
; 418  : 		&& Skill != 261
; 419  : 		&& Skill != 262
; 420  : 		&& Skill != 263
; 421  : 		&& Skill != 264
; 422  : 		&& Skill != 265
; 423  : 		&& Skill != 266
; 424  : 		&& Skill != 267
; 425  : 		&& Skill != 268
; 426  : 		&& Skill != 270
; 427  : 		)

  00b4e	83 7d 08 08	 cmp	 DWORD PTR _Skill$[ebp], 8
  00b52	0f 84 b3 02 00
	00		 je	 $LN2@EnableSkil
  00b58	83 7d 08 09	 cmp	 DWORD PTR _Skill$[ebp], 9
  00b5c	0f 84 a9 02 00
	00		 je	 $LN2@EnableSkil
  00b62	83 7d 08 05	 cmp	 DWORD PTR _Skill$[ebp], 5
  00b66	0f 84 9f 02 00
	00		 je	 $LN2@EnableSkil
  00b6c	83 7d 08 0a	 cmp	 DWORD PTR _Skill$[ebp], 10 ; 0000000aH
  00b70	0f 84 95 02 00
	00		 je	 $LN2@EnableSkil
  00b76	83 7d 08 0d	 cmp	 DWORD PTR _Skill$[ebp], 13 ; 0000000dH
  00b7a	0f 84 8b 02 00
	00		 je	 $LN2@EnableSkil
  00b80	83 7d 08 0e	 cmp	 DWORD PTR _Skill$[ebp], 14 ; 0000000eH
  00b84	0f 84 81 02 00
	00		 je	 $LN2@EnableSkil
  00b8a	83 7d 08 18	 cmp	 DWORD PTR _Skill$[ebp], 24 ; 00000018H
  00b8e	0f 84 77 02 00
	00		 je	 $LN2@EnableSkil
  00b94	83 7d 08 32	 cmp	 DWORD PTR _Skill$[ebp], 50 ; 00000032H
  00b98	0f 84 6d 02 00
	00		 je	 $LN2@EnableSkil
  00b9e	83 7d 08 0c	 cmp	 DWORD PTR _Skill$[ebp], 12 ; 0000000cH
  00ba2	0f 84 63 02 00
	00		 je	 $LN2@EnableSkil
  00ba8	83 7d 08 29	 cmp	 DWORD PTR _Skill$[ebp], 41 ; 00000029H
  00bac	0f 84 59 02 00
	00		 je	 $LN2@EnableSkil
  00bb2	83 7d 08 38	 cmp	 DWORD PTR _Skill$[ebp], 56 ; 00000038H
  00bb6	0f 84 4f 02 00
	00		 je	 $LN2@EnableSkil
  00bbc	83 7d 08 2f	 cmp	 DWORD PTR _Skill$[ebp], 47 ; 0000002fH
  00bc0	0f 84 45 02 00
	00		 je	 $LN2@EnableSkil
  00bc6	83 7d 08 30	 cmp	 DWORD PTR _Skill$[ebp], 48 ; 00000030H
  00bca	0f 84 3b 02 00
	00		 je	 $LN2@EnableSkil
  00bd0	83 7d 08 2b	 cmp	 DWORD PTR _Skill$[ebp], 43 ; 0000002bH
  00bd4	0f 84 31 02 00
	00		 je	 $LN2@EnableSkil
  00bda	83 7d 08 31	 cmp	 DWORD PTR _Skill$[ebp], 49 ; 00000031H
  00bde	0f 84 27 02 00
	00		 je	 $LN2@EnableSkil
  00be4	83 7d 08 33	 cmp	 DWORD PTR _Skill$[ebp], 51 ; 00000033H
  00be8	0f 84 1d 02 00
	00		 je	 $LN2@EnableSkil
  00bee	83 7d 08 34	 cmp	 DWORD PTR _Skill$[ebp], 52 ; 00000034H
  00bf2	0f 84 13 02 00
	00		 je	 $LN2@EnableSkil
  00bf8	83 7d 08 37	 cmp	 DWORD PTR _Skill$[ebp], 55 ; 00000037H
  00bfc	0f 84 09 02 00
	00		 je	 $LN2@EnableSkil
  00c02	83 7d 08 10	 cmp	 DWORD PTR _Skill$[ebp], 16 ; 00000010H
  00c06	0f 84 ff 01 00
	00		 je	 $LN2@EnableSkil
  00c0c	83 7d 08 2a	 cmp	 DWORD PTR _Skill$[ebp], 42 ; 0000002aH
  00c10	0f 84 f5 01 00
	00		 je	 $LN2@EnableSkil
  00c16	83 7d 08 26	 cmp	 DWORD PTR _Skill$[ebp], 38 ; 00000026H
  00c1a	0f 84 eb 01 00
	00		 je	 $LN2@EnableSkil
  00c20	83 7d 08 27	 cmp	 DWORD PTR _Skill$[ebp], 39 ; 00000027H
  00c24	0f 84 e1 01 00
	00		 je	 $LN2@EnableSkil
  00c2a	83 7d 08 28	 cmp	 DWORD PTR _Skill$[ebp], 40 ; 00000028H
  00c2e	0f 84 d7 01 00
	00		 je	 $LN2@EnableSkil
  00c34	83 7d 08 41	 cmp	 DWORD PTR _Skill$[ebp], 65 ; 00000041H
  00c38	0f 84 cd 01 00
	00		 je	 $LN2@EnableSkil
  00c3e	83 7d 08 3e	 cmp	 DWORD PTR _Skill$[ebp], 62 ; 0000003eH
  00c42	0f 84 c3 01 00
	00		 je	 $LN2@EnableSkil
  00c48	83 7d 08 4b	 cmp	 DWORD PTR _Skill$[ebp], 75 ; 0000004bH
  00c4c	0f 84 b9 01 00
	00		 je	 $LN2@EnableSkil
  00c52	83 7d 08 43	 cmp	 DWORD PTR _Skill$[ebp], 67 ; 00000043H
  00c56	0f 84 af 01 00
	00		 je	 $LN2@EnableSkil
  00c5c	83 7d 08 44	 cmp	 DWORD PTR _Skill$[ebp], 68 ; 00000044H
  00c60	0f 84 a5 01 00
	00		 je	 $LN2@EnableSkil
  00c66	83 7d 08 45	 cmp	 DWORD PTR _Skill$[ebp], 69 ; 00000045H
  00c6a	0f 84 9b 01 00
	00		 je	 $LN2@EnableSkil
  00c70	83 7d 08 46	 cmp	 DWORD PTR _Skill$[ebp], 70 ; 00000046H
  00c74	0f 84 91 01 00
	00		 je	 $LN2@EnableSkil
  00c7a	83 7d 08 47	 cmp	 DWORD PTR _Skill$[ebp], 71 ; 00000047H
  00c7e	0f 84 87 01 00
	00		 je	 $LN2@EnableSkil
  00c84	83 7d 08 48	 cmp	 DWORD PTR _Skill$[ebp], 72 ; 00000048H
  00c88	0f 84 7d 01 00
	00		 je	 $LN2@EnableSkil
  00c8e	83 7d 08 4c	 cmp	 DWORD PTR _Skill$[ebp], 76 ; 0000004cH
  00c92	0f 84 73 01 00
	00		 je	 $LN2@EnableSkil
  00c98	83 7d 08 4d	 cmp	 DWORD PTR _Skill$[ebp], 77 ; 0000004dH
  00c9c	0f 84 69 01 00
	00		 je	 $LN2@EnableSkil
  00ca2	83 7d 08 4e	 cmp	 DWORD PTR _Skill$[ebp], 78 ; 0000004eH
  00ca6	0f 84 5f 01 00
	00		 je	 $LN2@EnableSkil
  00cac	81 7d 08 d6 00
	00 00		 cmp	 DWORD PTR _Skill$[ebp], 214 ; 000000d6H
  00cb3	0f 84 52 01 00
	00		 je	 $LN2@EnableSkil
  00cb9	81 7d 08 d7 00
	00 00		 cmp	 DWORD PTR _Skill$[ebp], 215 ; 000000d7H
  00cc0	0f 84 45 01 00
	00		 je	 $LN2@EnableSkil
  00cc6	81 7d 08 d8 00
	00 00		 cmp	 DWORD PTR _Skill$[ebp], 216 ; 000000d8H
  00ccd	0f 84 38 01 00
	00		 je	 $LN2@EnableSkil
  00cd3	81 7d 08 d9 00
	00 00		 cmp	 DWORD PTR _Skill$[ebp], 217 ; 000000d9H
  00cda	0f 84 2b 01 00
	00		 je	 $LN2@EnableSkil
  00ce0	81 7d 08 db 00
	00 00		 cmp	 DWORD PTR _Skill$[ebp], 219 ; 000000dbH
  00ce7	0f 84 1e 01 00
	00		 je	 $LN2@EnableSkil
  00ced	81 7d 08 dc 00
	00 00		 cmp	 DWORD PTR _Skill$[ebp], 220 ; 000000dcH
  00cf4	0f 84 11 01 00
	00		 je	 $LN2@EnableSkil
  00cfa	81 7d 08 df 00
	00 00		 cmp	 DWORD PTR _Skill$[ebp], 223 ; 000000dfH
  00d01	0f 84 04 01 00
	00		 je	 $LN2@EnableSkil
  00d07	81 7d 08 e0 00
	00 00		 cmp	 DWORD PTR _Skill$[ebp], 224 ; 000000e0H
  00d0e	0f 84 f7 00 00
	00		 je	 $LN2@EnableSkil
  00d14	81 7d 08 dd 00
	00 00		 cmp	 DWORD PTR _Skill$[ebp], 221 ; 000000ddH
  00d1b	0f 84 ea 00 00
	00		 je	 $LN2@EnableSkil
  00d21	81 7d 08 de 00
	00 00		 cmp	 DWORD PTR _Skill$[ebp], 222 ; 000000deH
  00d28	0f 84 dd 00 00
	00		 je	 $LN2@EnableSkil
  00d2e	81 7d 08 e1 00
	00 00		 cmp	 DWORD PTR _Skill$[ebp], 225 ; 000000e1H
  00d35	0f 84 d0 00 00
	00		 je	 $LN2@EnableSkil
  00d3b	81 7d 08 e6 00
	00 00		 cmp	 DWORD PTR _Skill$[ebp], 230 ; 000000e6H
  00d42	0f 84 c3 00 00
	00		 je	 $LN2@EnableSkil
  00d48	81 7d 08 da 00
	00 00		 cmp	 DWORD PTR _Skill$[ebp], 218 ; 000000daH
  00d4f	0f 84 b6 00 00
	00		 je	 $LN2@EnableSkil
  00d55	81 7d 08 e8 00
	00 00		 cmp	 DWORD PTR _Skill$[ebp], 232 ; 000000e8H
  00d5c	0f 84 a9 00 00
	00		 je	 $LN2@EnableSkil
  00d62	81 7d 08 e9 00
	00 00		 cmp	 DWORD PTR _Skill$[ebp], 233 ; 000000e9H
  00d69	0f 84 9c 00 00
	00		 je	 $LN2@EnableSkil
  00d6f	81 7d 08 ea 00
	00 00		 cmp	 DWORD PTR _Skill$[ebp], 234 ; 000000eaH
  00d76	0f 84 8f 00 00
	00		 je	 $LN2@EnableSkil
  00d7c	81 7d 08 eb 00
	00 00		 cmp	 DWORD PTR _Skill$[ebp], 235 ; 000000ebH
  00d83	0f 84 82 00 00
	00		 je	 $LN2@EnableSkil
  00d89	81 7d 08 ec 00
	00 00		 cmp	 DWORD PTR _Skill$[ebp], 236 ; 000000ecH
  00d90	74 79		 je	 SHORT $LN2@EnableSkil
  00d92	81 7d 08 ed 00
	00 00		 cmp	 DWORD PTR _Skill$[ebp], 237 ; 000000edH
  00d99	74 70		 je	 SHORT $LN2@EnableSkil
  00d9b	81 7d 08 ee 00
	00 00		 cmp	 DWORD PTR _Skill$[ebp], 238 ; 000000eeH
  00da2	74 67		 je	 SHORT $LN2@EnableSkil
  00da4	81 7d 08 ef 00
	00 00		 cmp	 DWORD PTR _Skill$[ebp], 239 ; 000000efH
  00dab	74 5e		 je	 SHORT $LN2@EnableSkil
  00dad	81 7d 08 04 01
	00 00		 cmp	 DWORD PTR _Skill$[ebp], 260 ; 00000104H
  00db4	74 55		 je	 SHORT $LN2@EnableSkil
  00db6	81 7d 08 05 01
	00 00		 cmp	 DWORD PTR _Skill$[ebp], 261 ; 00000105H
  00dbd	74 4c		 je	 SHORT $LN2@EnableSkil
  00dbf	81 7d 08 06 01
	00 00		 cmp	 DWORD PTR _Skill$[ebp], 262 ; 00000106H
  00dc6	74 43		 je	 SHORT $LN2@EnableSkil
  00dc8	81 7d 08 07 01
	00 00		 cmp	 DWORD PTR _Skill$[ebp], 263 ; 00000107H
  00dcf	74 3a		 je	 SHORT $LN2@EnableSkil
  00dd1	81 7d 08 08 01
	00 00		 cmp	 DWORD PTR _Skill$[ebp], 264 ; 00000108H
  00dd8	74 31		 je	 SHORT $LN2@EnableSkil
  00dda	81 7d 08 09 01
	00 00		 cmp	 DWORD PTR _Skill$[ebp], 265 ; 00000109H
  00de1	74 28		 je	 SHORT $LN2@EnableSkil
  00de3	81 7d 08 0a 01
	00 00		 cmp	 DWORD PTR _Skill$[ebp], 266 ; 0000010aH
  00dea	74 1f		 je	 SHORT $LN2@EnableSkil
  00dec	81 7d 08 0b 01
	00 00		 cmp	 DWORD PTR _Skill$[ebp], 267 ; 0000010bH
  00df3	74 16		 je	 SHORT $LN2@EnableSkil
  00df5	81 7d 08 0c 01
	00 00		 cmp	 DWORD PTR _Skill$[ebp], 268 ; 0000010cH
  00dfc	74 0d		 je	 SHORT $LN2@EnableSkil
  00dfe	81 7d 08 0e 01
	00 00		 cmp	 DWORD PTR _Skill$[ebp], 270 ; 0000010eH
  00e05	74 04		 je	 SHORT $LN2@EnableSkil

; 428  : 	{
; 429  : 		return false;

  00e07	33 c0		 xor	 eax, eax
  00e09	eb 05		 jmp	 SHORT $LN6@EnableSkil
$LN2@EnableSkil:

; 430  : 	}
; 431  : 	return true;

  00e0b	b8 01 00 00 00	 mov	 eax, 1
$LN6@EnableSkil:

; 432  : }

  00e10	5f		 pop	 edi
  00e11	5e		 pop	 esi
  00e12	5b		 pop	 ebx
  00e13	8b e5		 mov	 esp, ebp
  00e15	5d		 pop	 ebp
  00e16	c2 08 00	 ret	 8
?EnableSkill@CObjUseSkill@@QAEHKH@Z ENDP		; CObjUseSkill::EnableSkill
_TEXT	ENDS
PUBLIC	__real@0000000000000000
PUBLIC	__real@3f800000
PUBLIC	__real@3ff0000000000000
PUBLIC	__real@4059000000000000
PUBLIC	?GetAddUseMana@CObjUseSkill@@QAEHPAUOBJECTSTRUCT@@PAVCMagicInf@@@Z ; CObjUseSkill::GetAddUseMana
PUBLIC	__real@00000000
PUBLIC	?GetUseMana@CObjUseSkill@@QAEHHPAVCMagicInf@@@Z	; CObjUseSkill::GetUseMana
EXTRN	?SkillGetMana@CMagicDamage@@QAEHH@Z:PROC	; CMagicDamage::SkillGetMana
EXTRN	?MagicDamageC@@3VCMagicDamage@@A:BYTE		; MagicDamageC
;	COMDAT __real@0000000000000000
CONST	SEGMENT
__real@0000000000000000 DQ 00000000000000000r	; 0
CONST	ENDS
;	COMDAT __real@3f800000
CONST	SEGMENT
__real@3f800000 DD 03f800000r			; 1
CONST	ENDS
;	COMDAT __real@3ff0000000000000
CONST	SEGMENT
__real@3ff0000000000000 DQ 03ff0000000000000r	; 1
CONST	ENDS
;	COMDAT __real@4059000000000000
CONST	SEGMENT
__real@4059000000000000 DQ 04059000000000000r	; 100
CONST	ENDS
;	COMDAT __real@00000000
CONST	SEGMENT
__real@00000000 DD 000000000r			; 0
; Function compile flags: /Odtp /ZI
CONST	ENDS
_TEXT	SEGMENT
tv144 = -84						; size = 4
_loc4$ = -16						; size = 4
_mana$ = -12						; size = 4
_lpObj$ = -8						; size = 4
_this$ = -4						; size = 4
_aIndex$ = 8						; size = 4
_lpMagic$ = 12						; size = 4
?GetUseMana@CObjUseSkill@@QAEHHPAVCMagicInf@@@Z PROC	; CObjUseSkill::GetUseMana
; _this$ = ecx

; 435  : {

  00e20	55		 push	 ebp
  00e21	8b ec		 mov	 ebp, esp
  00e23	83 ec 54	 sub	 esp, 84			; 00000054H
  00e26	53		 push	 ebx
  00e27	56		 push	 esi
  00e28	57		 push	 edi
  00e29	89 4d fc	 mov	 DWORD PTR _this$[ebp], ecx

; 436  : 	LPOBJ lpObj =&gObj[aIndex];

  00e2c	8b 45 08	 mov	 eax, DWORD PTR _aIndex$[ebp]
  00e2f	69 c0 38 2b 00
	00		 imul	 eax, 11064		; 00002b38H
  00e35	03 05 00 00 00
	00		 add	 eax, DWORD PTR ?gObj@@3PAUOBJECTSTRUCT@@A ; gObj
  00e3b	89 45 f8	 mov	 DWORD PTR _lpObj$[ebp], eax

; 437  : 	float mana = lpObj->Mana;

  00e3e	8b 45 f8	 mov	 eax, DWORD PTR _lpObj$[ebp]
  00e41	d9 80 10 01 00
	00		 fld	 DWORD PTR [eax+272]
  00e47	d9 5d f4	 fstp	 DWORD PTR _mana$[ebp]

; 438  : 
; 439  : 	if ( lpObj->Type != OBJ_USER )

  00e4a	8b 45 f8	 mov	 eax, DWORD PTR _lpObj$[ebp]
  00e4d	0f b7 48 68	 movzx	 ecx, WORD PTR [eax+104]
  00e51	83 f9 01	 cmp	 ecx, 1
  00e54	74 07		 je	 SHORT $LN4@GetUseMana

; 440  : 	{
; 441  : 		return 0;

  00e56	33 c0		 xor	 eax, eax
  00e58	e9 95 00 00 00	 jmp	 $LN5@GetUseMana
$LN4@GetUseMana:

; 442  : 	}
; 443  : 
; 444  : 	if ( lpMagic == NULL )

  00e5d	83 7d 0c 00	 cmp	 DWORD PTR _lpMagic$[ebp], 0
  00e61	75 07		 jne	 SHORT $LN3@GetUseMana

; 445  : 	{
; 446  : 		return 0;

  00e63	33 c0		 xor	 eax, eax
  00e65	e9 88 00 00 00	 jmp	 $LN5@GetUseMana
$LN3@GetUseMana:

; 447  : 	}
; 448  : 
; 449  : 	float loc4 = 0;

  00e6a	d9 ee		 fldz
  00e6c	d9 5d f0	 fstp	 DWORD PTR _loc4$[ebp]

; 450  : 
; 451  : 	loc4 = (float)(MagicDamageC.SkillGetMana(lpMagic->m_Skill) + this->GetAddUseMana(lpObj,lpMagic));

  00e6f	8b 45 0c	 mov	 eax, DWORD PTR _lpMagic$[ebp]
  00e72	8b 48 08	 mov	 ecx, DWORD PTR [eax+8]
  00e75	51		 push	 ecx
  00e76	b9 00 00 00 00	 mov	 ecx, OFFSET ?MagicDamageC@@3VCMagicDamage@@A ; MagicDamageC
  00e7b	e8 00 00 00 00	 call	 ?SkillGetMana@CMagicDamage@@QAEHH@Z ; CMagicDamage::SkillGetMana
  00e80	8b f0		 mov	 esi, eax
  00e82	8b 55 0c	 mov	 edx, DWORD PTR _lpMagic$[ebp]
  00e85	52		 push	 edx
  00e86	8b 45 f8	 mov	 eax, DWORD PTR _lpObj$[ebp]
  00e89	50		 push	 eax
  00e8a	8b 4d fc	 mov	 ecx, DWORD PTR _this$[ebp]
  00e8d	e8 00 00 00 00	 call	 ?GetAddUseMana@CObjUseSkill@@QAEHPAUOBJECTSTRUCT@@PAVCMagicInf@@@Z ; CObjUseSkill::GetAddUseMana
  00e92	03 f0		 add	 esi, eax
  00e94	89 75 ac	 mov	 DWORD PTR tv144[ebp], esi
  00e97	db 45 ac	 fild	 DWORD PTR tv144[ebp]
  00e9a	d9 5d f0	 fstp	 DWORD PTR _loc4$[ebp]

; 452  : 
; 453  : 	loc4 -= lpObj->m_MPSkillOpt.MpsDecreaseMana * loc4 / 100.0f;

  00e9d	8b 45 f8	 mov	 eax, DWORD PTR _lpObj$[ebp]
  00ea0	d9 80 60 27 00
	00		 fld	 DWORD PTR [eax+10080]
  00ea6	d8 4d f0	 fmul	 DWORD PTR _loc4$[ebp]
  00ea9	dc 35 00 00 00
	00		 fdiv	 QWORD PTR __real@4059000000000000
  00eaf	d8 6d f0	 fsubr	 DWORD PTR _loc4$[ebp]
  00eb2	d9 5d f0	 fstp	 DWORD PTR _loc4$[ebp]

; 454  : 
; 455  : 	if(loc4 < 1.0f)

  00eb5	d9 45 f0	 fld	 DWORD PTR _loc4$[ebp]
  00eb8	dc 1d 00 00 00
	00		 fcomp	 QWORD PTR __real@3ff0000000000000
  00ebe	df e0		 fnstsw	 ax
  00ec0	f6 c4 05	 test	 ah, 5
  00ec3	7a 05		 jp	 SHORT $LN2@GetUseMana

; 456  : 	{
; 457  : 		loc4 = 1.0f;

  00ec5	d9 e8		 fld1
  00ec7	d9 5d f0	 fstp	 DWORD PTR _loc4$[ebp]
$LN2@GetUseMana:

; 458  : 	}
; 459  : 
; 460  : 	mana -= loc4;

  00eca	d9 45 f4	 fld	 DWORD PTR _mana$[ebp]
  00ecd	d8 65 f0	 fsub	 DWORD PTR _loc4$[ebp]
  00ed0	d9 5d f4	 fstp	 DWORD PTR _mana$[ebp]

; 461  : 
; 462  : 	if(mana < 0.0f)

  00ed3	d9 45 f4	 fld	 DWORD PTR _mana$[ebp]
  00ed6	dc 1d 00 00 00
	00		 fcomp	 QWORD PTR __real@0000000000000000
  00edc	df e0		 fnstsw	 ax
  00ede	f6 c4 05	 test	 ah, 5
  00ee1	7a 07		 jp	 SHORT $LN1@GetUseMana

; 463  : 	{
; 464  : 		return -1;

  00ee3	b8 ff ff ff ff	 mov	 eax, -1
  00ee8	eb 08		 jmp	 SHORT $LN5@GetUseMana
$LN1@GetUseMana:

; 465  : 	}
; 466  : 	return (int)mana;

  00eea	d9 45 f4	 fld	 DWORD PTR _mana$[ebp]
  00eed	e8 00 00 00 00	 call	 __ftol2_sse
$LN5@GetUseMana:

; 467  : }

  00ef2	5f		 pop	 edi
  00ef3	5e		 pop	 esi
  00ef4	5b		 pop	 ebx
  00ef5	8b e5		 mov	 esp, ebp
  00ef7	5d		 pop	 ebp
  00ef8	c2 08 00	 ret	 8
?GetUseMana@CObjUseSkill@@QAEHHPAVCMagicInf@@@Z ENDP	; CObjUseSkill::GetUseMana
_TEXT	ENDS
PUBLIC	?GetInfinityArrowMPConsumptionPlus3@CSkillAdditionInfo@@QAEHXZ ; CSkillAdditionInfo::GetInfinityArrowMPConsumptionPlus3
PUBLIC	?GetInfinityArrowMPConsumptionPlus2@CSkillAdditionInfo@@QAEHXZ ; CSkillAdditionInfo::GetInfinityArrowMPConsumptionPlus2
PUBLIC	?GetInfinityArrowMPConsumptionPlus1@CSkillAdditionInfo@@QAEHXZ ; CSkillAdditionInfo::GetInfinityArrowMPConsumptionPlus1
PUBLIC	?GetInfinityArrowMPConsumptionPlus0@CSkillAdditionInfo@@QAEHXZ ; CSkillAdditionInfo::GetInfinityArrowMPConsumptionPlus0
EXTRN	?g_SkillAdditionInfo@@3VCSkillAdditionInfo@@A:BYTE ; g_SkillAdditionInfo
EXTRN	?gObjSearchActiveEffect@@YAEPAUOBJECTSTRUCT@@H@Z:PROC ; gObjSearchActiveEffect
; Function compile flags: /Odtp /ZI
_TEXT	SEGMENT
_Left$239999 = -20					; size = 4
_Right$239998 = -16					; size = 4
_iArrowLevel$239997 = -12				; size = 4
_iRetValue$ = -8					; size = 4
_this$ = -4						; size = 4
_lpObj$ = 8						; size = 4
_lpMagic$ = 12						; size = 4
?GetAddUseMana@CObjUseSkill@@QAEHPAUOBJECTSTRUCT@@PAVCMagicInf@@@Z PROC ; CObjUseSkill::GetAddUseMana
; _this$ = ecx

; 470  : {

  00f00	55		 push	 ebp
  00f01	8b ec		 mov	 ebp, esp
  00f03	83 ec 54	 sub	 esp, 84			; 00000054H
  00f06	53		 push	 ebx
  00f07	56		 push	 esi
  00f08	57		 push	 edi
  00f09	89 4d fc	 mov	 DWORD PTR _this$[ebp], ecx

; 471  : 	int iRetValue = 0;

  00f0c	c7 45 f8 00 00
	00 00		 mov	 DWORD PTR _iRetValue$[ebp], 0

; 472  : 
; 473  : 	if(lpObj->Class == CLASS_ELF && lpObj->Type == OBJ_USER && lpObj->ChangeUP == 1)

  00f13	8b 45 08	 mov	 eax, DWORD PTR _lpObj$[ebp]
  00f16	0f b7 88 b8 00
	00 00		 movzx	 ecx, WORD PTR [eax+184]
  00f1d	83 f9 02	 cmp	 ecx, 2
  00f20	0f 85 01 02 00
	00		 jne	 $LN21@GetAddUseM
  00f26	8b 45 08	 mov	 eax, DWORD PTR _lpObj$[ebp]
  00f29	0f b7 48 68	 movzx	 ecx, WORD PTR [eax+104]
  00f2d	83 f9 01	 cmp	 ecx, 1
  00f30	0f 85 f1 01 00
	00		 jne	 $LN21@GetAddUseM
  00f36	8b 45 08	 mov	 eax, DWORD PTR _lpObj$[ebp]
  00f39	0f b6 88 bb 00
	00 00		 movzx	 ecx, BYTE PTR [eax+187]
  00f40	83 f9 01	 cmp	 ecx, 1
  00f43	0f 85 de 01 00
	00		 jne	 $LN21@GetAddUseM

; 474  : 	{
; 475  : 		if(gObjSearchActiveEffect(lpObj, AT_INFINITY_ARROW) == 1 || gObjSearchActiveEffect(lpObj,BUFF_INFINITY_ARROW2)==TRUE)

  00f49	6a 06		 push	 6
  00f4b	8b 45 08	 mov	 eax, DWORD PTR _lpObj$[ebp]
  00f4e	50		 push	 eax
  00f4f	e8 00 00 00 00	 call	 ?gObjSearchActiveEffect@@YAEPAUOBJECTSTRUCT@@H@Z ; gObjSearchActiveEffect
  00f54	83 c4 08	 add	 esp, 8
  00f57	0f b6 c8	 movzx	 ecx, al
  00f5a	83 f9 01	 cmp	 ecx, 1
  00f5d	74 1d		 je	 SHORT $LN19@GetAddUseM
  00f5f	68 8f 00 00 00	 push	 143			; 0000008fH
  00f64	8b 45 08	 mov	 eax, DWORD PTR _lpObj$[ebp]
  00f67	50		 push	 eax
  00f68	e8 00 00 00 00	 call	 ?gObjSearchActiveEffect@@YAEPAUOBJECTSTRUCT@@H@Z ; gObjSearchActiveEffect
  00f6d	83 c4 08	 add	 esp, 8
  00f70	0f b6 c8	 movzx	 ecx, al
  00f73	83 f9 01	 cmp	 ecx, 1
  00f76	0f 85 ab 01 00
	00		 jne	 $LN21@GetAddUseM
$LN19@GetAddUseM:

; 476  : 		{
; 477  : 			if(lpMagic->m_Skill == AT_SKILL_CROSSBOW
; 478  : 				|| lpMagic->m_Skill == AT_SKILL_BOW
; 479  : 				|| lpMagic->m_Skill == AT_SKILL_ELFHARDEN
; 480  : 				|| lpMagic->m_Skill == AT_SKILL_PENETRATION
; 481  : 				|| lpMagic->m_Skill == AT_SKILL_5CROSSBOW
; 482  : 				|| g_MasterSkillSystem.GetBaseMasterLevelSkill(lpMagic->m_Skill) == 490)

  00f7c	8b 45 0c	 mov	 eax, DWORD PTR _lpMagic$[ebp]
  00f7f	83 78 08 18	 cmp	 DWORD PTR [eax+8], 24	; 00000018H
  00f83	74 40		 je	 SHORT $LN17@GetAddUseM
  00f85	8b 45 0c	 mov	 eax, DWORD PTR _lpMagic$[ebp]
  00f88	83 78 08 19	 cmp	 DWORD PTR [eax+8], 25	; 00000019H
  00f8c	74 37		 je	 SHORT $LN17@GetAddUseM
  00f8e	8b 45 0c	 mov	 eax, DWORD PTR _lpMagic$[ebp]
  00f91	83 78 08 33	 cmp	 DWORD PTR [eax+8], 51	; 00000033H
  00f95	74 2e		 je	 SHORT $LN17@GetAddUseM
  00f97	8b 45 0c	 mov	 eax, DWORD PTR _lpMagic$[ebp]
  00f9a	83 78 08 34	 cmp	 DWORD PTR [eax+8], 52	; 00000034H
  00f9e	74 25		 je	 SHORT $LN17@GetAddUseM
  00fa0	8b 45 0c	 mov	 eax, DWORD PTR _lpMagic$[ebp]
  00fa3	83 78 08 36	 cmp	 DWORD PTR [eax+8], 54	; 00000036H
  00fa7	74 1c		 je	 SHORT $LN17@GetAddUseM
  00fa9	8b 45 0c	 mov	 eax, DWORD PTR _lpMagic$[ebp]
  00fac	8b 48 08	 mov	 ecx, DWORD PTR [eax+8]
  00faf	51		 push	 ecx
  00fb0	b9 00 00 00 00	 mov	 ecx, OFFSET ?g_MasterSkillSystem@@3VCMasterLevelSkillTreeSystem@@A ; g_MasterSkillSystem
  00fb5	e8 00 00 00 00	 call	 ?GetBaseMasterLevelSkill@CMasterLevelSkillTreeSystem@@QAEHH@Z ; CMasterLevelSkillTreeSystem::GetBaseMasterLevelSkill
  00fba	3d ea 01 00 00	 cmp	 eax, 490		; 000001eaH
  00fbf	0f 85 62 01 00
	00		 jne	 $LN21@GetAddUseM
$LN17@GetAddUseM:

; 483  : 			{
; 484  : 				int iArrowLevel = 0;

  00fc5	c7 45 f4 00 00
	00 00		 mov	 DWORD PTR _iArrowLevel$239997[ebp], 0

; 485  : 
; 486  : 				CItem * Right = &lpObj->pInventory[0];

  00fcc	8b 45 08	 mov	 eax, DWORD PTR _lpObj$[ebp]
  00fcf	8b 88 24 0e 00
	00		 mov	 ecx, DWORD PTR [eax+3620]
  00fd5	89 4d f0	 mov	 DWORD PTR _Right$239998[ebp], ecx

; 487  : 				CItem * Left = &lpObj->pInventory[1];

  00fd8	8b 45 08	 mov	 eax, DWORD PTR _lpObj$[ebp]
  00fdb	8b 88 24 0e 00
	00		 mov	 ecx, DWORD PTR [eax+3620]
  00fe1	81 c1 d4 00 00
	00		 add	 ecx, 212		; 000000d4H
  00fe7	89 4d ec	 mov	 DWORD PTR _Left$239999[ebp], ecx

; 488  : 
; 489  : 				if(Right->m_Type >= ITEMGET(4,8) && Right->m_Type <= ITEMGET(4,14)
; 490  : 					|| Right->m_Type == ITEMGET(4,16)
; 491  : 					|| Right->m_Type == ITEMGET(4,18)
; 492  : 					|| Right->m_Type == ITEMGET(4,19))

  00fea	8b 45 f0	 mov	 eax, DWORD PTR _Right$239998[ebp]
  00fed	0f bf 48 06	 movsx	 ecx, WORD PTR [eax+6]
  00ff1	81 f9 08 08 00
	00		 cmp	 ecx, 2056		; 00000808H
  00ff7	7c 0f		 jl	 SHORT $LN14@GetAddUseM
  00ff9	8b 45 f0	 mov	 eax, DWORD PTR _Right$239998[ebp]
  00ffc	0f bf 48 06	 movsx	 ecx, WORD PTR [eax+6]
  01000	81 f9 0e 08 00
	00		 cmp	 ecx, 2062		; 0000080eH
  01006	7e 2d		 jle	 SHORT $LN15@GetAddUseM
$LN14@GetAddUseM:
  01008	8b 45 f0	 mov	 eax, DWORD PTR _Right$239998[ebp]
  0100b	0f bf 48 06	 movsx	 ecx, WORD PTR [eax+6]
  0100f	81 f9 10 08 00
	00		 cmp	 ecx, 2064		; 00000810H
  01015	74 1e		 je	 SHORT $LN15@GetAddUseM
  01017	8b 45 f0	 mov	 eax, DWORD PTR _Right$239998[ebp]
  0101a	0f bf 48 06	 movsx	 ecx, WORD PTR [eax+6]
  0101e	81 f9 12 08 00
	00		 cmp	 ecx, 2066		; 00000812H
  01024	74 0f		 je	 SHORT $LN15@GetAddUseM
  01026	8b 45 f0	 mov	 eax, DWORD PTR _Right$239998[ebp]
  01029	0f bf 48 06	 movsx	 ecx, WORD PTR [eax+6]
  0102d	81 f9 13 08 00
	00		 cmp	 ecx, 2067		; 00000813H
  01033	75 1e		 jne	 SHORT $LN16@GetAddUseM
$LN15@GetAddUseM:

; 493  : 				{
; 494  : 					if(Left->m_Type == ITEMGET(4,7))

  01035	8b 45 ec	 mov	 eax, DWORD PTR _Left$239999[ebp]
  01038	0f bf 48 06	 movsx	 ecx, WORD PTR [eax+6]
  0103c	81 f9 07 08 00
	00		 cmp	 ecx, 2055		; 00000807H
  01042	75 0a		 jne	 SHORT $LN13@GetAddUseM

; 495  : 					{
; 496  : 						iArrowLevel = Left->m_Level;

  01044	8b 45 ec	 mov	 eax, DWORD PTR _Left$239999[ebp]
  01047	0f bf 48 08	 movsx	 ecx, WORD PTR [eax+8]
  0104b	89 4d f4	 mov	 DWORD PTR _iArrowLevel$239997[ebp], ecx
$LN13@GetAddUseM:

; 497  : 					}
; 498  : 				}
; 499  : 				else if(Left->m_Type >= ITEMGET(4,0) && Left->m_Type <= ITEMGET(4,6)

  0104e	e9 82 00 00 00	 jmp	 $LN12@GetAddUseM
$LN16@GetAddUseM:

; 500  : 					|| Left->m_Type == ITEMGET(4,17)
; 501  : 					|| Left->m_Type == ITEMGET(4,20)
; 502  : 					|| Left->m_Type == ITEMGET(4,21)
; 503  : 					|| Left->m_Type == ITEMGET(4,22)
; 504  : 					|| Left->m_Type == ITEMGET(4,23)) //Season4 add-on

  01053	8b 45 ec	 mov	 eax, DWORD PTR _Left$239999[ebp]
  01056	0f bf 48 06	 movsx	 ecx, WORD PTR [eax+6]
  0105a	81 f9 00 08 00
	00		 cmp	 ecx, 2048		; 00000800H
  01060	7c 0f		 jl	 SHORT $LN9@GetAddUseM
  01062	8b 45 ec	 mov	 eax, DWORD PTR _Left$239999[ebp]
  01065	0f bf 48 06	 movsx	 ecx, WORD PTR [eax+6]
  01069	81 f9 06 08 00
	00		 cmp	 ecx, 2054		; 00000806H
  0106f	7e 4b		 jle	 SHORT $LN10@GetAddUseM
$LN9@GetAddUseM:
  01071	8b 45 ec	 mov	 eax, DWORD PTR _Left$239999[ebp]
  01074	0f bf 48 06	 movsx	 ecx, WORD PTR [eax+6]
  01078	81 f9 11 08 00
	00		 cmp	 ecx, 2065		; 00000811H
  0107e	74 3c		 je	 SHORT $LN10@GetAddUseM
  01080	8b 45 ec	 mov	 eax, DWORD PTR _Left$239999[ebp]
  01083	0f bf 48 06	 movsx	 ecx, WORD PTR [eax+6]
  01087	81 f9 14 08 00
	00		 cmp	 ecx, 2068		; 00000814H
  0108d	74 2d		 je	 SHORT $LN10@GetAddUseM
  0108f	8b 45 ec	 mov	 eax, DWORD PTR _Left$239999[ebp]
  01092	0f bf 48 06	 movsx	 ecx, WORD PTR [eax+6]
  01096	81 f9 15 08 00
	00		 cmp	 ecx, 2069		; 00000815H
  0109c	74 1e		 je	 SHORT $LN10@GetAddUseM
  0109e	8b 45 ec	 mov	 eax, DWORD PTR _Left$239999[ebp]
  010a1	0f bf 48 06	 movsx	 ecx, WORD PTR [eax+6]
  010a5	81 f9 16 08 00
	00		 cmp	 ecx, 2070		; 00000816H
  010ab	74 0f		 je	 SHORT $LN10@GetAddUseM
  010ad	8b 45 ec	 mov	 eax, DWORD PTR _Left$239999[ebp]
  010b0	0f bf 48 06	 movsx	 ecx, WORD PTR [eax+6]
  010b4	81 f9 17 08 00
	00		 cmp	 ecx, 2071		; 00000817H
  010ba	75 19		 jne	 SHORT $LN12@GetAddUseM
$LN10@GetAddUseM:

; 505  : 				{
; 506  : 					if(Right->m_Type == ITEMGET(4,15))

  010bc	8b 45 f0	 mov	 eax, DWORD PTR _Right$239998[ebp]
  010bf	0f bf 48 06	 movsx	 ecx, WORD PTR [eax+6]
  010c3	81 f9 0f 08 00
	00		 cmp	 ecx, 2063		; 0000080fH
  010c9	75 0a		 jne	 SHORT $LN12@GetAddUseM

; 507  : 					{
; 508  : 						iArrowLevel = Right->m_Level;

  010cb	8b 45 f0	 mov	 eax, DWORD PTR _Right$239998[ebp]
  010ce	0f bf 48 08	 movsx	 ecx, WORD PTR [eax+8]
  010d2	89 4d f4	 mov	 DWORD PTR _iArrowLevel$239997[ebp], ecx
$LN12@GetAddUseM:

; 509  : 					}
; 510  : 				}
; 511  : 
; 512  : 				if(iArrowLevel == 0)

  010d5	83 7d f4 00	 cmp	 DWORD PTR _iArrowLevel$239997[ebp], 0
  010d9	75 0f		 jne	 SHORT $LN7@GetAddUseM

; 513  : 				{
; 514  : 					iRetValue = g_SkillAdditionInfo.GetInfinityArrowMPConsumptionPlus0();

  010db	b9 00 00 00 00	 mov	 ecx, OFFSET ?g_SkillAdditionInfo@@3VCSkillAdditionInfo@@A ; g_SkillAdditionInfo
  010e0	e8 00 00 00 00	 call	 ?GetInfinityArrowMPConsumptionPlus0@CSkillAdditionInfo@@QAEHXZ ; CSkillAdditionInfo::GetInfinityArrowMPConsumptionPlus0
  010e5	89 45 f8	 mov	 DWORD PTR _iRetValue$[ebp], eax
  010e8	eb 3d		 jmp	 SHORT $LN21@GetAddUseM
$LN7@GetAddUseM:

; 515  : 				}
; 516  : 				else if(iArrowLevel == 1)

  010ea	83 7d f4 01	 cmp	 DWORD PTR _iArrowLevel$239997[ebp], 1
  010ee	75 0f		 jne	 SHORT $LN5@GetAddUseM

; 517  : 				{
; 518  : 					iRetValue = g_SkillAdditionInfo.GetInfinityArrowMPConsumptionPlus1();

  010f0	b9 00 00 00 00	 mov	 ecx, OFFSET ?g_SkillAdditionInfo@@3VCSkillAdditionInfo@@A ; g_SkillAdditionInfo
  010f5	e8 00 00 00 00	 call	 ?GetInfinityArrowMPConsumptionPlus1@CSkillAdditionInfo@@QAEHXZ ; CSkillAdditionInfo::GetInfinityArrowMPConsumptionPlus1
  010fa	89 45 f8	 mov	 DWORD PTR _iRetValue$[ebp], eax
  010fd	eb 28		 jmp	 SHORT $LN21@GetAddUseM
$LN5@GetAddUseM:

; 519  : 				}
; 520  : 				else if(iArrowLevel == 2)

  010ff	83 7d f4 02	 cmp	 DWORD PTR _iArrowLevel$239997[ebp], 2
  01103	75 0f		 jne	 SHORT $LN3@GetAddUseM

; 521  : 				{
; 522  : 					iRetValue = g_SkillAdditionInfo.GetInfinityArrowMPConsumptionPlus2();

  01105	b9 00 00 00 00	 mov	 ecx, OFFSET ?g_SkillAdditionInfo@@3VCSkillAdditionInfo@@A ; g_SkillAdditionInfo
  0110a	e8 00 00 00 00	 call	 ?GetInfinityArrowMPConsumptionPlus2@CSkillAdditionInfo@@QAEHXZ ; CSkillAdditionInfo::GetInfinityArrowMPConsumptionPlus2
  0110f	89 45 f8	 mov	 DWORD PTR _iRetValue$[ebp], eax
  01112	eb 13		 jmp	 SHORT $LN21@GetAddUseM
$LN3@GetAddUseM:

; 523  : 				}
; 524  : 				else if(iArrowLevel == 3) //season 4.5 add-on

  01114	83 7d f4 03	 cmp	 DWORD PTR _iArrowLevel$239997[ebp], 3
  01118	75 0d		 jne	 SHORT $LN21@GetAddUseM

; 525  : 				{
; 526  : 					iRetValue = g_SkillAdditionInfo.GetInfinityArrowMPConsumptionPlus3();

  0111a	b9 00 00 00 00	 mov	 ecx, OFFSET ?g_SkillAdditionInfo@@3VCSkillAdditionInfo@@A ; g_SkillAdditionInfo
  0111f	e8 00 00 00 00	 call	 ?GetInfinityArrowMPConsumptionPlus3@CSkillAdditionInfo@@QAEHXZ ; CSkillAdditionInfo::GetInfinityArrowMPConsumptionPlus3
  01124	89 45 f8	 mov	 DWORD PTR _iRetValue$[ebp], eax
$LN21@GetAddUseM:

; 527  : 				}
; 528  : 			}
; 529  : 		}
; 530  : 	}
; 531  : 	return iRetValue;

  01127	8b 45 f8	 mov	 eax, DWORD PTR _iRetValue$[ebp]

; 532  : }

  0112a	5f		 pop	 edi
  0112b	5e		 pop	 esi
  0112c	5b		 pop	 ebx
  0112d	8b e5		 mov	 esp, ebp
  0112f	5d		 pop	 ebp
  01130	c2 08 00	 ret	 8
?GetAddUseMana@CObjUseSkill@@QAEHPAUOBJECTSTRUCT@@PAVCMagicInf@@@Z ENDP ; CObjUseSkill::GetAddUseMana
; Function compile flags: /Odtp /ZI
; File d:\projects\exteam6.3\source\gameserver\gameserver\skilladditioninfo.h
_TEXT	ENDS
;	COMDAT ?GetInfinityArrowMPConsumptionPlus0@CSkillAdditionInfo@@QAEHXZ
_TEXT	SEGMENT
_this$ = -4						; size = 4
?GetInfinityArrowMPConsumptionPlus0@CSkillAdditionInfo@@QAEHXZ PROC ; CSkillAdditionInfo::GetInfinityArrowMPConsumptionPlus0, COMDAT
; _this$ = ecx

; 39   : 	int GetInfinityArrowMPConsumptionPlus0(){return this->m_iInfinityArrowMPConsumptionPlus0;}

  00000	55		 push	 ebp
  00001	8b ec		 mov	 ebp, esp
  00003	83 ec 44	 sub	 esp, 68			; 00000044H
  00006	53		 push	 ebx
  00007	56		 push	 esi
  00008	57		 push	 edi
  00009	89 4d fc	 mov	 DWORD PTR _this$[ebp], ecx
  0000c	8b 45 fc	 mov	 eax, DWORD PTR _this$[ebp]
  0000f	8b 40 0c	 mov	 eax, DWORD PTR [eax+12]
  00012	5f		 pop	 edi
  00013	5e		 pop	 esi
  00014	5b		 pop	 ebx
  00015	8b e5		 mov	 esp, ebp
  00017	5d		 pop	 ebp
  00018	c3		 ret	 0
?GetInfinityArrowMPConsumptionPlus0@CSkillAdditionInfo@@QAEHXZ ENDP ; CSkillAdditionInfo::GetInfinityArrowMPConsumptionPlus0
; Function compile flags: /Odtp /ZI
_TEXT	ENDS
;	COMDAT ?GetInfinityArrowMPConsumptionPlus1@CSkillAdditionInfo@@QAEHXZ
_TEXT	SEGMENT
_this$ = -4						; size = 4
?GetInfinityArrowMPConsumptionPlus1@CSkillAdditionInfo@@QAEHXZ PROC ; CSkillAdditionInfo::GetInfinityArrowMPConsumptionPlus1, COMDAT
; _this$ = ecx

; 41   : 	int GetInfinityArrowMPConsumptionPlus1(){return this->m_iInfinityArrowMPConsumptionPlus1;}

  00000	55		 push	 ebp
  00001	8b ec		 mov	 ebp, esp
  00003	83 ec 44	 sub	 esp, 68			; 00000044H
  00006	53		 push	 ebx
  00007	56		 push	 esi
  00008	57		 push	 edi
  00009	89 4d fc	 mov	 DWORD PTR _this$[ebp], ecx
  0000c	8b 45 fc	 mov	 eax, DWORD PTR _this$[ebp]
  0000f	8b 40 10	 mov	 eax, DWORD PTR [eax+16]
  00012	5f		 pop	 edi
  00013	5e		 pop	 esi
  00014	5b		 pop	 ebx
  00015	8b e5		 mov	 esp, ebp
  00017	5d		 pop	 ebp
  00018	c3		 ret	 0
?GetInfinityArrowMPConsumptionPlus1@CSkillAdditionInfo@@QAEHXZ ENDP ; CSkillAdditionInfo::GetInfinityArrowMPConsumptionPlus1
; Function compile flags: /Odtp /ZI
_TEXT	ENDS
;	COMDAT ?GetInfinityArrowMPConsumptionPlus2@CSkillAdditionInfo@@QAEHXZ
_TEXT	SEGMENT
_this$ = -4						; size = 4
?GetInfinityArrowMPConsumptionPlus2@CSkillAdditionInfo@@QAEHXZ PROC ; CSkillAdditionInfo::GetInfinityArrowMPConsumptionPlus2, COMDAT
; _this$ = ecx

; 43   : 	int GetInfinityArrowMPConsumptionPlus2(){return this->m_iInfinityArrowMPConsumptionPlus2;}

  00000	55		 push	 ebp
  00001	8b ec		 mov	 ebp, esp
  00003	83 ec 44	 sub	 esp, 68			; 00000044H
  00006	53		 push	 ebx
  00007	56		 push	 esi
  00008	57		 push	 edi
  00009	89 4d fc	 mov	 DWORD PTR _this$[ebp], ecx
  0000c	8b 45 fc	 mov	 eax, DWORD PTR _this$[ebp]
  0000f	8b 40 14	 mov	 eax, DWORD PTR [eax+20]
  00012	5f		 pop	 edi
  00013	5e		 pop	 esi
  00014	5b		 pop	 ebx
  00015	8b e5		 mov	 esp, ebp
  00017	5d		 pop	 ebp
  00018	c3		 ret	 0
?GetInfinityArrowMPConsumptionPlus2@CSkillAdditionInfo@@QAEHXZ ENDP ; CSkillAdditionInfo::GetInfinityArrowMPConsumptionPlus2
; Function compile flags: /Odtp /ZI
_TEXT	ENDS
;	COMDAT ?GetInfinityArrowMPConsumptionPlus3@CSkillAdditionInfo@@QAEHXZ
_TEXT	SEGMENT
_this$ = -4						; size = 4
?GetInfinityArrowMPConsumptionPlus3@CSkillAdditionInfo@@QAEHXZ PROC ; CSkillAdditionInfo::GetInfinityArrowMPConsumptionPlus3, COMDAT
; _this$ = ecx

; 45   : 	int GetInfinityArrowMPConsumptionPlus3(){return this->m_iInfinityArrowMPConsumptionPlus3;}

  00000	55		 push	 ebp
  00001	8b ec		 mov	 ebp, esp
  00003	83 ec 44	 sub	 esp, 68			; 00000044H
  00006	53		 push	 ebx
  00007	56		 push	 esi
  00008	57		 push	 edi
  00009	89 4d fc	 mov	 DWORD PTR _this$[ebp], ecx
  0000c	8b 45 fc	 mov	 eax, DWORD PTR _this$[ebp]
  0000f	8b 40 18	 mov	 eax, DWORD PTR [eax+24]
  00012	5f		 pop	 edi
  00013	5e		 pop	 esi
  00014	5b		 pop	 ebx
  00015	8b e5		 mov	 esp, ebp
  00017	5d		 pop	 ebp
  00018	c3		 ret	 0
?GetInfinityArrowMPConsumptionPlus3@CSkillAdditionInfo@@QAEHXZ ENDP ; CSkillAdditionInfo::GetInfinityArrowMPConsumptionPlus3
_TEXT	ENDS
PUBLIC	?GetUseBP@CObjUseSkill@@QAEHHPAVCMagicInf@@@Z	; CObjUseSkill::GetUseBP
EXTRN	?SkillGetBP@CMagicDamage@@QAEHH@Z:PROC		; CMagicDamage::SkillGetBP
; Function compile flags: /Odtp /ZI
; File d:\projects\exteam6.3\source\gameserver\gameserver\objuseskill.cpp
_TEXT	SEGMENT
_usingbp$ = -16						; size = 4
_bp$ = -12						; size = 4
_lpObj$ = -8						; size = 4
_this$ = -4						; size = 4
_aIndex$ = 8						; size = 4
_lpMagic$ = 12						; size = 4
?GetUseBP@CObjUseSkill@@QAEHHPAVCMagicInf@@@Z PROC	; CObjUseSkill::GetUseBP
; _this$ = ecx

; 535  : {

  01140	55		 push	 ebp
  01141	8b ec		 mov	 ebp, esp
  01143	83 ec 50	 sub	 esp, 80			; 00000050H
  01146	53		 push	 ebx
  01147	56		 push	 esi
  01148	57		 push	 edi
  01149	89 4d fc	 mov	 DWORD PTR _this$[ebp], ecx

; 536  : 	LPOBJ lpObj = &gObj[aIndex]; //2

  0114c	8b 45 08	 mov	 eax, DWORD PTR _aIndex$[ebp]
  0114f	69 c0 38 2b 00
	00		 imul	 eax, 11064		; 00002b38H
  01155	03 05 00 00 00
	00		 add	 eax, DWORD PTR ?gObj@@3PAUOBJECTSTRUCT@@A ; gObj
  0115b	89 45 f8	 mov	 DWORD PTR _lpObj$[ebp], eax

; 537  : 
; 538  : 	int bp = lpObj->BP; //3

  0115e	8b 45 f8	 mov	 eax, DWORD PTR _lpObj$[ebp]
  01161	8b 88 28 01 00
	00		 mov	 ecx, DWORD PTR [eax+296]
  01167	89 4d f4	 mov	 DWORD PTR _bp$[ebp], ecx

; 539  : 
; 540  : 	if(lpObj->Type != OBJ_USER)

  0116a	8b 45 f8	 mov	 eax, DWORD PTR _lpObj$[ebp]
  0116d	0f b7 48 68	 movzx	 ecx, WORD PTR [eax+104]
  01171	83 f9 01	 cmp	 ecx, 1
  01174	74 04		 je	 SHORT $LN4@GetUseBP

; 541  : 	{
; 542  : 		return 0;

  01176	33 c0		 xor	 eax, eax
  01178	eb 7f		 jmp	 SHORT $LN5@GetUseBP
$LN4@GetUseBP:

; 543  : 	}
; 544  : 
; 545  : 	if(lpMagic == 0)

  0117a	83 7d 0c 00	 cmp	 DWORD PTR _lpMagic$[ebp], 0
  0117e	75 04		 jne	 SHORT $LN3@GetUseBP

; 546  : 	{
; 547  : 		return 0;

  01180	33 c0		 xor	 eax, eax
  01182	eb 75		 jmp	 SHORT $LN5@GetUseBP
$LN3@GetUseBP:

; 548  : 	}
; 549  : 
; 550  : 	int usingbp = MagicDamageC.SkillGetBP(lpMagic->m_Skill); //4

  01184	8b 45 0c	 mov	 eax, DWORD PTR _lpMagic$[ebp]
  01187	8b 48 08	 mov	 ecx, DWORD PTR [eax+8]
  0118a	51		 push	 ecx
  0118b	b9 00 00 00 00	 mov	 ecx, OFFSET ?MagicDamageC@@3VCMagicDamage@@A ; MagicDamageC
  01190	e8 00 00 00 00	 call	 ?SkillGetBP@CMagicDamage@@QAEHH@Z ; CMagicDamage::SkillGetBP
  01195	89 45 f0	 mov	 DWORD PTR _usingbp$[ebp], eax

; 551  : 
; 552  : 	usingbp -= usingbp * lpObj->SetOpDecreaseAG / 100;

  01198	8b 45 f8	 mov	 eax, DWORD PTR _lpObj$[ebp]
  0119b	0f b6 88 44 11
	00 00		 movzx	 ecx, BYTE PTR [eax+4420]
  011a2	8b c1		 mov	 eax, ecx
  011a4	0f af 45 f0	 imul	 eax, DWORD PTR _usingbp$[ebp]
  011a8	99		 cdq
  011a9	b9 64 00 00 00	 mov	 ecx, 100		; 00000064H
  011ae	f7 f9		 idiv	 ecx
  011b0	8b 55 f0	 mov	 edx, DWORD PTR _usingbp$[ebp]
  011b3	2b d0		 sub	 edx, eax
  011b5	89 55 f0	 mov	 DWORD PTR _usingbp$[ebp], edx

; 553  : 
; 554  : 	if(lpObj->m_btSocketOpDecreaseAG > 0)

  011b8	8b 45 f8	 mov	 eax, DWORD PTR _lpObj$[ebp]
  011bb	0f b6 88 96 21
	00 00		 movzx	 ecx, BYTE PTR [eax+8598]
  011c2	85 c9		 test	 ecx, ecx
  011c4	7e 20		 jle	 SHORT $LN2@GetUseBP

; 555  : 	{
; 556  : 		usingbp -= usingbp * lpObj->m_btSocketOpDecreaseAG / 100;

  011c6	8b 45 f8	 mov	 eax, DWORD PTR _lpObj$[ebp]
  011c9	0f b6 88 96 21
	00 00		 movzx	 ecx, BYTE PTR [eax+8598]
  011d0	8b c1		 mov	 eax, ecx
  011d2	0f af 45 f0	 imul	 eax, DWORD PTR _usingbp$[ebp]
  011d6	99		 cdq
  011d7	b9 64 00 00 00	 mov	 ecx, 100		; 00000064H
  011dc	f7 f9		 idiv	 ecx
  011de	8b 55 f0	 mov	 edx, DWORD PTR _usingbp$[ebp]
  011e1	2b d0		 sub	 edx, eax
  011e3	89 55 f0	 mov	 DWORD PTR _usingbp$[ebp], edx
$LN2@GetUseBP:

; 557  : 	}
; 558  : 
; 559  : 	bp -= usingbp;

  011e6	8b 45 f4	 mov	 eax, DWORD PTR _bp$[ebp]
  011e9	2b 45 f0	 sub	 eax, DWORD PTR _usingbp$[ebp]
  011ec	89 45 f4	 mov	 DWORD PTR _bp$[ebp], eax

; 560  : 
; 561  : 	if(bp < 0)

  011ef	79 05		 jns	 SHORT $LN1@GetUseBP

; 562  : 	{
; 563  : 		return -1;

  011f1	83 c8 ff	 or	 eax, -1
  011f4	eb 03		 jmp	 SHORT $LN5@GetUseBP
$LN1@GetUseBP:

; 564  : 	}
; 565  : 
; 566  : 	return bp;

  011f6	8b 45 f4	 mov	 eax, DWORD PTR _bp$[ebp]
$LN5@GetUseBP:

; 567  : }

  011f9	5f		 pop	 edi
  011fa	5e		 pop	 esi
  011fb	5b		 pop	 ebx
  011fc	8b e5		 mov	 esp, ebp
  011fe	5d		 pop	 ebp
  011ff	c2 08 00	 ret	 8
?GetUseBP@CObjUseSkill@@QAEHHPAVCMagicInf@@@Z ENDP	; CObjUseSkill::GetUseBP
_TEXT	ENDS
PUBLIC	??_C@_0FO@JAMLMINI@?$FLInvalidTargetIndex?$FN?$FLCObjUseSkil@ ; `string'
PUBLIC	?SkillAreaMonsterAttack@CObjUseSkill@@QAEHHPAVCMagicInf@@EEHHHH@Z ; CObjUseSkill::SkillAreaMonsterAttack
PUBLIC	??_C@_0FO@IFELCABO@?$FLInvalidTargetIndex?$FN?$FLCObjUseSkil@ ; `string'
PUBLIC	?SkillEvilMonster@CObjUseSkill@@QAEHHHPAVCMagicInf@@@Z ; CObjUseSkill::SkillEvilMonster
PUBLIC	?SkillChaoticDiseier@CObjUseSkill@@QAEXHPAVCMagicInf@@EH@Z ; CObjUseSkill::SkillChaoticDiseier
PUBLIC	?SkillMultiShot@CObjUseSkill@@QAEXHPAVCMagicInf@@EH@Z ; CObjUseSkill::SkillMultiShot
PUBLIC	?SkillGiganticStormStart@CObjUseSkill@@QAEHHPAVCMagicInf@@EEH@Z ; CObjUseSkill::SkillGiganticStormStart
PUBLIC	?SkillFlameStrike@CObjUseSkill@@QAEXHPAVCMagicInf@@EH@Z ; CObjUseSkill::SkillFlameStrike
PUBLIC	?SkillStrikeOfDestructionStart@CObjUseSkill@@QAEHHPAVCMagicInf@@EEH@Z ; CObjUseSkill::SkillStrikeOfDestructionStart
PUBLIC	?SkillLightningShock@CObjUseSkill@@QAEHHHPAVCMagicInf@@@Z ; CObjUseSkill::SkillLightningShock
PUBLIC	?SkillPollutionStart@CObjUseSkill@@QAEHHPAVCMagicInf@@EEHH@Z ; CObjUseSkill::SkillPollutionStart
PUBLIC	?SkillInnovation@CObjUseSkill@@QAEHHPAVCMagicInf@@EEH@Z ; CObjUseSkill::SkillInnovation
PUBLIC	?SkillWeakness@CObjUseSkill@@QAEHHPAVCMagicInf@@EEH@Z ; CObjUseSkill::SkillWeakness
PUBLIC	?SkillSummonerBook@CObjUseSkill@@QAEHHPAVCMagicInf@@EEH@Z ; CObjUseSkill::SkillSummonerBook
PUBLIC	?SkillChainLightning@CObjUseSkill@@QAEHHHPAVCMagicInf@@@Z ; CObjUseSkill::SkillChainLightning
PUBLIC	?SkillDrainLife@CObjUseSkill@@QAEHHHPAVCMagicInf@@@Z ; CObjUseSkill::SkillDrainLife
PUBLIC	?SkillEletrictSurge@CObjUseSkill@@QAEHHHPAVCMagicInf@@@Z ; CObjUseSkill::SkillEletrictSurge
PUBLIC	?SkillFenrirAttack@CObjUseSkill@@QAEHHHPAVCMagicInf@@@Z ; CObjUseSkill::SkillFenrirAttack
PUBLIC	?SkillStun@CObjUseSkill@@QAEHHHPAVCMagicInf@@EEEE@Z ; CObjUseSkill::SkillStun
PUBLIC	?SkillDarkHorseAttack@CObjUseSkill@@QAEHHHPAVCMagicInf@@@Z ; CObjUseSkill::SkillDarkHorseAttack
PUBLIC	?SkillElectricSpark@CObjUseSkill@@QAEXHPAVCMagicInf@@EEEEH@Z ; CObjUseSkill::SkillElectricSpark
PUBLIC	?SkillWheel@CObjUseSkill@@QAEXHPAVCMagicInf@@HH@Z ; CObjUseSkill::SkillWheel
PUBLIC	?SkillBlowOfFury@CObjUseSkill@@QAEXHPAVCMagicInf@@EEEEHH@Z ; CObjUseSkill::SkillBlowOfFury
PUBLIC	?SkillSuddenIce@CObjUseSkill@@QAEHHPAVCMagicInf@@EEEEH@Z ; CObjUseSkill::SkillSuddenIce
PUBLIC	?SkillDeathPoison@CObjUseSkill@@QAEHHPAVCMagicInf@@EEEEH@Z ; CObjUseSkill::SkillDeathPoison
PUBLIC	?SkillDeathPoisonForMeDusa@CObjUseSkill@@QAEHHPAVCMagicInf@@EEH@Z ; CObjUseSkill::SkillDeathPoisonForMeDusa
PUBLIC	?SkillPowerSlash@CObjUseSkill@@QAEXHPAVCMagicInf@@EEEEH@Z ; CObjUseSkill::SkillPowerSlash
PUBLIC	??_C@_0BJ@CPAKELEB@?$FL?$CF?$FN?5?$LN?$LK?E?$LD?5?$LF?t?$LH?$LJ?$MA?L?$LN?C?$LA?$KD?5?$LP?$MA?$LJ?v?$AA@ ; `string'
PUBLIC	?RunningSkill@CObjUseSkill@@QAEHHHPAVCMagicInf@@H@Z ; CObjUseSkill::RunningSkill
PUBLIC	__$ArrayPad$
PUBLIC	?UseSkill@CObjUseSkill@@QAEXHPAVCMagicInf@@EEEEH@Z ; CObjUseSkill::UseSkill
EXTRN	?RunningSkill@CMasterLevelSkillTreeSystem@@QAEHPAUOBJECTSTRUCT@@HPAVCMagicInf@@HEEEE@Z:PROC ; CMasterLevelSkillTreeSystem::RunningSkill
EXTRN	?MsgSendV2@@YAXPAUOBJECTSTRUCT@@PAEH@Z:PROC	; MsgSendV2
EXTRN	?DataSend@@YAHHPAEK@Z:PROC			; DataSend
EXTRN	?PHeadSetBE@@YAXPAEEH@Z:PROC			; PHeadSetBE
EXTRN	?GCManaSend@@YAXHHEEH@Z:PROC			; GCManaSend
EXTRN	?gObjMagicBPUse@@YAHPAUOBJECTSTRUCT@@PAVCMagicInf@@@Z:PROC ; gObjMagicBPUse
EXTRN	?Check@CSkillDelay@@QAEHE@Z:PROC		; CSkillDelay::Check
EXTRN	?gObjGetMagicSearch@@YAPAVCMagicInf@@PAUOBJECTSTRUCT@@H@Z:PROC ; gObjGetMagicSearch
EXTRN	?g_ExLicense@@3VCExLicense@@A:BYTE		; g_ExLicense
EXTRN	?CheckCombo@CComboAttack@@QAEHHH@Z:PROC		; CComboAttack::CheckCombo
EXTRN	?gComboAttack@@3VCComboAttack@@A:DWORD		; gComboAttack
EXTRN	___security_cookie:DWORD
EXTRN	@__security_check_cookie@4:PROC
;	COMDAT ??_C@_0FO@JAMLMINI@?$FLInvalidTargetIndex?$FN?$FLCObjUseSkil@
CONST	SEGMENT
??_C@_0FO@JAMLMINI@?$FLInvalidTargetIndex?$FN?$FLCObjUseSkil@ DB '[Invali'
	DB	'dTargetIndex][CObjUseSkill.UseSkill][AT_SKILL_PHOENIXSHOT] In'
	DB	'dex :%d , AccountID : %s ', 00H		; `string'
CONST	ENDS
;	COMDAT ??_C@_0FO@IFELCABO@?$FLInvalidTargetIndex?$FN?$FLCObjUseSkil@
CONST	SEGMENT
??_C@_0FO@IFELCABO@?$FLInvalidTargetIndex?$FN?$FLCObjUseSkil@ DB '[Invali'
	DB	'dTargetIndex][CObjUseSkill.UseSkill][AT_SKILL_DRAGON_ROAR] In'
	DB	'dex :%d , AccountID : %s ', 00H		; `string'
CONST	ENDS
;	COMDAT ??_C@_0BJ@CPAKELEB@?$FL?$CF?$FN?5?$LN?$LK?E?$LD?5?$LF?t?$LH?$LJ?$MA?L?$LN?C?$LA?$KD?5?$LP?$MA?$LJ?v?$AA@
CONST	SEGMENT
??_C@_0BJ@CPAKELEB@?$FL?$CF?$FN?5?$LN?$LK?E?$LD?5?$LF?t?$LH?$LJ?$MA?L?$LN?C?$LA?$KD?5?$LP?$MA?$LJ?v?$AA@ DB '['
	DB	'%] ', 0bdH, 0baH, 0c5H, 0b3H, ' ', 0b5H, 0f4H, 0b7H, 0b9H, 0c0H
	DB	0ccH, 0bdH, 0c3H, 0b0H, 0a3H, ' ', 0bfH, 0c0H, 0b9H, 0f6H, 00H ; `string'
; Function compile flags: /Odtp /ZI
CONST	ENDS
_TEXT	SEGMENT
tv199 = -116						; size = 4
tv505 = -112						; size = 4
tv477 = -112						; size = 4
tv219 = -112						; size = 4
tv211 = -112						; size = 4
tv200 = -112						; size = 4
_GetBaseMasterLevelSkill$240086 = -44			; size = 4
_usebp$240052 = -40					; size = 4
_pMsg$ = -36						; size = 10
_usemana$ = -24						; size = 4
_lpMagic$240043 = -20					; size = 4
_bCombo$ = -16						; size = 4
_lpObj$ = -12						; size = 4
_this$ = -8						; size = 4
__$ArrayPad$ = -4					; size = 4
_aIndex$ = 8						; size = 4
_lpMagic$ = 12						; size = 4
_x$ = 16						; size = 1
_y$ = 20						; size = 1
_dir$ = 24						; size = 1
_TargetPos$ = 28					; size = 1
_aTargetIndex$ = 32					; size = 4
?UseSkill@CObjUseSkill@@QAEXHPAVCMagicInf@@EEEEH@Z PROC	; CObjUseSkill::UseSkill
; _this$ = ecx

; 570  : {

  01210	55		 push	 ebp
  01211	8b ec		 mov	 ebp, esp
  01213	83 ec 74	 sub	 esp, 116		; 00000074H
  01216	a1 00 00 00 00	 mov	 eax, DWORD PTR ___security_cookie
  0121b	33 c5		 xor	 eax, ebp
  0121d	89 45 fc	 mov	 DWORD PTR __$ArrayPad$[ebp], eax
  01220	53		 push	 ebx
  01221	56		 push	 esi
  01222	57		 push	 edi
  01223	89 4d f8	 mov	 DWORD PTR _this$[ebp], ecx

; 571  : 	LPOBJ lpObj = &gObj[aIndex];

  01226	8b 45 08	 mov	 eax, DWORD PTR _aIndex$[ebp]
  01229	69 c0 38 2b 00
	00		 imul	 eax, 11064		; 00002b38H
  0122f	03 05 00 00 00
	00		 add	 eax, DWORD PTR ?gObj@@3PAUOBJECTSTRUCT@@A ; gObj
  01235	89 45 f4	 mov	 DWORD PTR _lpObj$[ebp], eax

; 572  : 
; 573  : 	int bCombo = 0;

  01238	c7 45 f0 00 00
	00 00		 mov	 DWORD PTR _bCombo$[ebp], 0

; 574  : 
; 575  : 	if(gComboAttack.CheckCombo(aIndex,lpMagic->m_Skill))

  0123f	8b 45 0c	 mov	 eax, DWORD PTR _lpMagic$[ebp]
  01242	8b 48 08	 mov	 ecx, DWORD PTR [eax+8]
  01245	51		 push	 ecx
  01246	8b 55 08	 mov	 edx, DWORD PTR _aIndex$[ebp]
  01249	52		 push	 edx
  0124a	b9 00 00 00 00	 mov	 ecx, OFFSET ?gComboAttack@@3VCComboAttack@@A ; gComboAttack
  0124f	e8 00 00 00 00	 call	 ?CheckCombo@CComboAttack@@QAEHHH@Z ; CComboAttack::CheckCombo
  01254	85 c0		 test	 eax, eax
  01256	74 07		 je	 SHORT $LN76@UseSkill

; 576  : 	{
; 577  : 		bCombo = 1;

  01258	c7 45 f0 01 00
	00 00		 mov	 DWORD PTR _bCombo$[ebp], 1
$LN76@UseSkill:

; 578  : 	}
; 579  : 
; 580  : #if(DEV_COMBO_CUSTOM==TRUE)
; 581  : 	if(g_ExLicense.user.ComboCustom)

  0125f	0f b6 05 d8 00
	00 00		 movzx	 eax, BYTE PTR ?g_ExLicense@@3VCExLicense@@A+216
  01266	85 c0		 test	 eax, eax
  01268	74 10		 je	 SHORT $LN75@UseSkill

; 582  : 	{
; 583  : 		lpObj->NewCombo = bCombo;

  0126a	83 7d f0 00	 cmp	 DWORD PTR _bCombo$[ebp], 0
  0126e	0f 95 c0	 setne	 al
  01271	8b 4d f4	 mov	 ecx, DWORD PTR _lpObj$[ebp]
  01274	88 81 80 28 00
	00		 mov	 BYTE PTR [ecx+10368], al
$LN75@UseSkill:

; 584  : 	}
; 585  : #endif
; 586  : 
; 587  : 	if(lpObj->SkillHellFire2State && lpMagic->m_Skill != AT_SKILL_EXPHELL)

  0127a	8b 45 f4	 mov	 eax, DWORD PTR _lpObj$[ebp]
  0127d	0f b6 88 14 11
	00 00		 movzx	 ecx, BYTE PTR [eax+4372]
  01284	85 c9		 test	 ecx, ecx
  01286	74 3d		 je	 SHORT $LN74@UseSkill
  01288	8b 45 0c	 mov	 eax, DWORD PTR _lpMagic$[ebp]
  0128b	83 78 08 28	 cmp	 DWORD PTR [eax+8], 40	; 00000028H
  0128f	74 34		 je	 SHORT $LN74@UseSkill

; 588  : 	{
; 589  : 		CMagicInf * lpMagic = gObjGetMagicSearch(lpObj,AT_SKILL_EXPHELL);

  01291	6a 28		 push	 40			; 00000028H
  01293	8b 45 f4	 mov	 eax, DWORD PTR _lpObj$[ebp]
  01296	50		 push	 eax
  01297	e8 00 00 00 00	 call	 ?gObjGetMagicSearch@@YAPAVCMagicInf@@PAUOBJECTSTRUCT@@H@Z ; gObjGetMagicSearch
  0129c	83 c4 08	 add	 esp, 8
  0129f	89 45 ec	 mov	 DWORD PTR _lpMagic$240043[ebp], eax

; 590  : 
; 591  : 		if(lpMagic != 0)

  012a2	83 7d ec 00	 cmp	 DWORD PTR _lpMagic$240043[ebp], 0
  012a6	74 18		 je	 SHORT $LN73@UseSkill

; 592  : 		{
; 593  : 			gObjUseSkill.RunningSkill(lpObj->m_Index,0,lpMagic,0);

  012a8	6a 00		 push	 0
  012aa	8b 45 ec	 mov	 eax, DWORD PTR _lpMagic$240043[ebp]
  012ad	50		 push	 eax
  012ae	6a 00		 push	 0
  012b0	8b 4d f4	 mov	 ecx, DWORD PTR _lpObj$[ebp]
  012b3	8b 11		 mov	 edx, DWORD PTR [ecx]
  012b5	52		 push	 edx
  012b6	b9 00 00 00 00	 mov	 ecx, OFFSET ?gObjUseSkill@@3VCObjUseSkill@@A ; gObjUseSkill
  012bb	e8 00 00 00 00	 call	 ?RunningSkill@CObjUseSkill@@QAEHHHPAVCMagicInf@@H@Z ; CObjUseSkill::RunningSkill
$LN73@UseSkill:

; 594  : 		}
; 595  : 
; 596  : 		return;

  012c0	e9 ab 08 00 00	 jmp	 $LN77@UseSkill
$LN74@UseSkill:

; 597  : 	}
; 598  : 
; 599  : 	int usemana = this->GetUseMana(aIndex,lpMagic);

  012c5	8b 45 0c	 mov	 eax, DWORD PTR _lpMagic$[ebp]
  012c8	50		 push	 eax
  012c9	8b 4d 08	 mov	 ecx, DWORD PTR _aIndex$[ebp]
  012cc	51		 push	 ecx
  012cd	8b 4d f8	 mov	 ecx, DWORD PTR _this$[ebp]
  012d0	e8 00 00 00 00	 call	 ?GetUseMana@CObjUseSkill@@QAEHHPAVCMagicInf@@@Z ; CObjUseSkill::GetUseMana
  012d5	89 45 e8	 mov	 DWORD PTR _usemana$[ebp], eax

; 600  : 
; 601  : 	if(lpMagic->m_Skill == AT_SKILL_DARKHORSE_ATTACK) //season4 add-on

  012d8	8b 45 0c	 mov	 eax, DWORD PTR _lpMagic$[ebp]
  012db	83 78 08 3e	 cmp	 DWORD PTR [eax+8], 62	; 0000003eH
  012df	75 1e		 jne	 SHORT $LN72@UseSkill

; 602  : 	{
; 603  : 		usemana = (int)gObj[aIndex].Mana;

  012e1	8b 45 08	 mov	 eax, DWORD PTR _aIndex$[ebp]
  012e4	69 c0 38 2b 00
	00		 imul	 eax, 11064		; 00002b38H
  012ea	8b 0d 00 00 00
	00		 mov	 ecx, DWORD PTR ?gObj@@3PAUOBJECTSTRUCT@@A ; gObj
  012f0	d9 84 01 10 01
	00 00		 fld	 DWORD PTR [ecx+eax+272]
  012f7	e8 00 00 00 00	 call	 __ftol2_sse
  012fc	89 45 e8	 mov	 DWORD PTR _usemana$[ebp], eax
$LN72@UseSkill:

; 604  : 	}
; 605  : 
; 606  : 	PMSG_DURATION_MAGIC_SEND pMsg;
; 607  : 
; 608  : 	if(usemana >= 0)

  012ff	83 7d e8 00	 cmp	 DWORD PTR _usemana$[ebp], 0
  01303	0f 8c 67 08 00
	00		 jl	 $LN2@UseSkill

; 609  : 	{
; 610  : 		if(!gObj[aIndex].SkillDelay.Check(lpMagic->m_Skill))

  01309	8b 45 0c	 mov	 eax, DWORD PTR _lpMagic$[ebp]
  0130c	0f b6 48 08	 movzx	 ecx, BYTE PTR [eax+8]
  01310	51		 push	 ecx
  01311	8b 55 08	 mov	 edx, DWORD PTR _aIndex$[ebp]
  01314	69 d2 38 2b 00
	00		 imul	 edx, 11064		; 00002b38H
  0131a	a1 00 00 00 00	 mov	 eax, DWORD PTR ?gObj@@3PAUOBJECTSTRUCT@@A ; gObj
  0131f	8d 8c 10 7c 12
	00 00		 lea	 ecx, DWORD PTR [eax+edx+4732]
  01326	e8 00 00 00 00	 call	 ?Check@CSkillDelay@@QAEHE@Z ; CSkillDelay::Check
  0132b	85 c0		 test	 eax, eax
  0132d	75 27		 jne	 SHORT $LN70@UseSkill

; 611  : 		{
; 612  : 			LogAddTD("[%]   ",gObj[aIndex].AccountID);

  0132f	8b 45 08	 mov	 eax, DWORD PTR _aIndex$[ebp]
  01332	69 c0 38 2b 00
	00		 imul	 eax, 11064		; 00002b38H
  01338	8b 0d 00 00 00
	00		 mov	 ecx, DWORD PTR ?gObj@@3PAUOBJECTSTRUCT@@A ; gObj
  0133e	8d 54 01 6c	 lea	 edx, DWORD PTR [ecx+eax+108]
  01342	52		 push	 edx
  01343	68 00 00 00 00	 push	 OFFSET ??_C@_0BJ@CPAKELEB@?$FL?$CF?$FN?5?$LN?$LK?E?$LD?5?$LF?t?$LH?$LJ?$MA?L?$LN?C?$LA?$KD?5?$LP?$MA?$LJ?v?$AA@
  01348	ff 15 00 00 00
	00		 call	 DWORD PTR ?LogAddTD@@3P6AXPADZZA ; LogAddTD
  0134e	83 c4 08	 add	 esp, 8

; 613  : 			return;

  01351	e9 1a 08 00 00	 jmp	 $LN77@UseSkill
$LN70@UseSkill:

; 614  : 		}
; 615  : 
; 616  : 		int usebp = gObjMagicBPUse(&gObj[aIndex],lpMagic);

  01356	8b 45 0c	 mov	 eax, DWORD PTR _lpMagic$[ebp]
  01359	50		 push	 eax
  0135a	8b 4d 08	 mov	 ecx, DWORD PTR _aIndex$[ebp]
  0135d	69 c9 38 2b 00
	00		 imul	 ecx, 11064		; 00002b38H
  01363	03 0d 00 00 00
	00		 add	 ecx, DWORD PTR ?gObj@@3PAUOBJECTSTRUCT@@A ; gObj
  01369	51		 push	 ecx
  0136a	e8 00 00 00 00	 call	 ?gObjMagicBPUse@@YAHPAUOBJECTSTRUCT@@PAVCMagicInf@@@Z ; gObjMagicBPUse
  0136f	83 c4 08	 add	 esp, 8
  01372	89 45 d8	 mov	 DWORD PTR _usebp$240052[ebp], eax

; 617  : 
; 618  : 		if(usebp >= 0)

  01375	83 7d d8 00	 cmp	 DWORD PTR _usebp$240052[ebp], 0
  01379	0f 8c f9 01 00
	00		 jl	 $LN56@UseSkill

; 619  : 		{
; 620  : 			lpObj->UseMagicNumber = lpMagic->m_Skill;

  0137f	8b 45 f4	 mov	 eax, DWORD PTR _lpObj$[ebp]
  01382	8b 4d 0c	 mov	 ecx, DWORD PTR _lpMagic$[ebp]
  01385	8a 51 08	 mov	 dl, BYTE PTR [ecx+8]
  01388	88 90 cd 04 00
	00		 mov	 BYTE PTR [eax+1229], dl

; 621  : 			lpObj->UseMagicTime = GetTickCount();

  0138e	ff 15 00 00 00
	00		 call	 DWORD PTR __imp__GetTickCount@0
  01394	8b 4d f4	 mov	 ecx, DWORD PTR _lpObj$[ebp]
  01397	89 81 d0 04 00
	00		 mov	 DWORD PTR [ecx+1232], eax

; 622  : 			lpObj->UseMagicCount = 0;

  0139d	8b 45 f4	 mov	 eax, DWORD PTR _lpObj$[ebp]
  013a0	c6 80 d4 04 00
	00 00		 mov	 BYTE PTR [eax+1236], 0

; 623  : 
; 624  : 			lpObj->Mana = (float)usemana;

  013a7	db 45 e8	 fild	 DWORD PTR _usemana$[ebp]
  013aa	8b 45 f4	 mov	 eax, DWORD PTR _lpObj$[ebp]
  013ad	d9 98 10 01 00
	00		 fstp	 DWORD PTR [eax+272]

; 625  : 			lpObj->BP = usebp;

  013b3	8b 45 f4	 mov	 eax, DWORD PTR _lpObj$[ebp]
  013b6	8b 4d d8	 mov	 ecx, DWORD PTR _usebp$240052[ebp]
  013b9	89 88 28 01 00
	00		 mov	 DWORD PTR [eax+296], ecx

; 626  : 
; 627  : 			GCManaSend(lpObj->m_Index,lpObj->Mana,0xFF,0,lpObj->BP);

  013bf	8b 45 f4	 mov	 eax, DWORD PTR _lpObj$[ebp]
  013c2	8b 88 28 01 00
	00		 mov	 ecx, DWORD PTR [eax+296]
  013c8	51		 push	 ecx
  013c9	6a 00		 push	 0
  013cb	68 ff 00 00 00	 push	 255			; 000000ffH
  013d0	8b 55 f4	 mov	 edx, DWORD PTR _lpObj$[ebp]
  013d3	d9 82 10 01 00
	00		 fld	 DWORD PTR [edx+272]
  013d9	e8 00 00 00 00	 call	 __ftol2_sse
  013de	50		 push	 eax
  013df	8b 45 f4	 mov	 eax, DWORD PTR _lpObj$[ebp]
  013e2	8b 08		 mov	 ecx, DWORD PTR [eax]
  013e4	51		 push	 ecx
  013e5	e8 00 00 00 00	 call	 ?GCManaSend@@YAXHHEEH@Z	; GCManaSend
  013ea	83 c4 14	 add	 esp, 20			; 00000014H

; 628  : 
; 629  : 			PHeadSetBE((LPBYTE)&pMsg,0x1E,sizeof(pMsg));

  013ed	6a 0a		 push	 10			; 0000000aH
  013ef	6a 1e		 push	 30			; 0000001eH
  013f1	8d 45 dc	 lea	 eax, DWORD PTR _pMsg$[ebp]
  013f4	50		 push	 eax
  013f5	e8 00 00 00 00	 call	 ?PHeadSetBE@@YAXPAEEH@Z	; PHeadSetBE
  013fa	83 c4 0c	 add	 esp, 12			; 0000000cH

; 630  : 
; 631  : 			pMsg.MagicNumberH = SET_NUMBERH(lpMagic->m_Skill);

  013fd	8b 45 0c	 mov	 eax, DWORD PTR _lpMagic$[ebp]
  01400	8b 48 08	 mov	 ecx, DWORD PTR [eax+8]
  01403	c1 e9 08	 shr	 ecx, 8
  01406	88 4d df	 mov	 BYTE PTR _pMsg$[ebp+3], cl

; 632  : 			pMsg.MagicNumberL = SET_NUMBERL(lpMagic->m_Skill);

  01409	8b 45 0c	 mov	 eax, DWORD PTR _lpMagic$[ebp]
  0140c	8b 48 08	 mov	 ecx, DWORD PTR [eax+8]
  0140f	81 e1 ff 00 00
	00		 and	 ecx, 255		; 000000ffH
  01415	88 4d e0	 mov	 BYTE PTR _pMsg$[ebp+4], cl

; 633  : 
; 634  : 			pMsg.X = x;

  01418	8a 45 10	 mov	 al, BYTE PTR _x$[ebp]
  0141b	88 45 e3	 mov	 BYTE PTR _pMsg$[ebp+7], al

; 635  : 			pMsg.Y = y;

  0141e	8a 45 14	 mov	 al, BYTE PTR _y$[ebp]
  01421	88 45 e4	 mov	 BYTE PTR _pMsg$[ebp+8], al

; 636  : 			pMsg.Dir = dir;

  01424	8a 45 18	 mov	 al, BYTE PTR _dir$[ebp]
  01427	88 45 e5	 mov	 BYTE PTR _pMsg$[ebp+9], al

; 637  : 			pMsg.NumberH = SET_NUMBERH(aIndex);

  0142a	8b 45 08	 mov	 eax, DWORD PTR _aIndex$[ebp]
  0142d	c1 e8 08	 shr	 eax, 8
  01430	88 45 e1	 mov	 BYTE PTR _pMsg$[ebp+5], al

; 638  : 			pMsg.NumberL = SET_NUMBERL(aIndex);

  01433	8b 45 08	 mov	 eax, DWORD PTR _aIndex$[ebp]
  01436	25 ff 00 00 00	 and	 eax, 255		; 000000ffH
  0143b	88 45 e2	 mov	 BYTE PTR _pMsg$[ebp+6], al

; 639  : 
; 640  : 			if(lpObj->Type == OBJ_USER)

  0143e	8b 45 f4	 mov	 eax, DWORD PTR _lpObj$[ebp]
  01441	0f b7 48 68	 movzx	 ecx, WORD PTR [eax+104]
  01445	83 f9 01	 cmp	 ecx, 1
  01448	75 17		 jne	 SHORT $LN68@UseSkill

; 641  : 			{
; 642  : 				DataSend(lpObj->m_Index,(LPBYTE)&pMsg,pMsg.h.size);

  0144a	0f b6 45 dd	 movzx	 eax, BYTE PTR _pMsg$[ebp+1]
  0144e	50		 push	 eax
  0144f	8d 4d dc	 lea	 ecx, DWORD PTR _pMsg$[ebp]
  01452	51		 push	 ecx
  01453	8b 55 f4	 mov	 edx, DWORD PTR _lpObj$[ebp]
  01456	8b 02		 mov	 eax, DWORD PTR [edx]
  01458	50		 push	 eax
  01459	e8 00 00 00 00	 call	 ?DataSend@@YAHHPAEK@Z	; DataSend
  0145e	83 c4 0c	 add	 esp, 12			; 0000000cH
$LN68@UseSkill:

; 643  : 			}
; 644  : 
; 645  : 			if(CC_MAP_RANGE(lpObj->MapNumber))

  01461	8b 45 f4	 mov	 eax, DWORD PTR _lpObj$[ebp]
  01464	0f b6 88 49 01
	00 00		 movzx	 ecx, BYTE PTR [eax+329]
  0146b	83 f9 35	 cmp	 ecx, 53			; 00000035H
  0146e	75 09		 jne	 SHORT $LN81@UseSkill
  01470	c7 45 90 01 00
	00 00		 mov	 DWORD PTR tv200[ebp], 1
  01477	eb 33		 jmp	 SHORT $LN82@UseSkill
$LN81@UseSkill:
  01479	8b 55 f4	 mov	 edx, DWORD PTR _lpObj$[ebp]
  0147c	0f b6 82 49 01
	00 00		 movzx	 eax, BYTE PTR [edx+329]
  01483	83 f8 12	 cmp	 eax, 18			; 00000012H
  01486	7d 09		 jge	 SHORT $LN79@UseSkill
  01488	c7 45 8c 00 00
	00 00		 mov	 DWORD PTR tv199[ebp], 0
  0148f	eb 15		 jmp	 SHORT $LN80@UseSkill
$LN79@UseSkill:
  01491	8b 4d f4	 mov	 ecx, DWORD PTR _lpObj$[ebp]
  01494	0f b6 91 49 01
	00 00		 movzx	 edx, BYTE PTR [ecx+329]
  0149b	33 c0		 xor	 eax, eax
  0149d	83 fa 17	 cmp	 edx, 23			; 00000017H
  014a0	0f 9e c0	 setle	 al
  014a3	89 45 8c	 mov	 DWORD PTR tv199[ebp], eax
$LN80@UseSkill:
  014a6	8b 4d 8c	 mov	 ecx, DWORD PTR tv199[ebp]
  014a9	89 4d 90	 mov	 DWORD PTR tv200[ebp], ecx
$LN82@UseSkill:
  014ac	83 7d 90 00	 cmp	 DWORD PTR tv200[ebp], 0
  014b0	0f 84 ad 00 00
	00		 je	 $LN67@UseSkill

; 646  : 			{
; 647  : 				if(g_MasterSkillSystem.CheckRequireStatus(lpMagic->m_Skill) != FALSE) //Season3 add-on

  014b6	8b 45 0c	 mov	 eax, DWORD PTR _lpMagic$[ebp]
  014b9	8b 48 08	 mov	 ecx, DWORD PTR [eax+8]
  014bc	51		 push	 ecx
  014bd	b9 00 00 00 00	 mov	 ecx, OFFSET ?g_MasterSkillSystem@@3VCMasterLevelSkillTreeSystem@@A ; g_MasterSkillSystem
  014c2	e8 00 00 00 00	 call	 ?CheckRequireStatus@CMasterLevelSkillTreeSystem@@QAEHH@Z ; CMasterLevelSkillTreeSystem::CheckRequireStatus
  014c7	85 c0		 test	 eax, eax
  014c9	74 56		 je	 SHORT $LN66@UseSkill

; 648  : 				{
; 649  : 					int GetBaseMasterLevelSkill = g_MasterSkillSystem.GetBaseMasterLevelSkill(lpMagic->m_Skill);

  014cb	8b 45 0c	 mov	 eax, DWORD PTR _lpMagic$[ebp]
  014ce	8b 48 08	 mov	 ecx, DWORD PTR [eax+8]
  014d1	51		 push	 ecx
  014d2	b9 00 00 00 00	 mov	 ecx, OFFSET ?g_MasterSkillSystem@@3VCMasterLevelSkillTreeSystem@@A ; g_MasterSkillSystem
  014d7	e8 00 00 00 00	 call	 ?GetBaseMasterLevelSkill@CMasterLevelSkillTreeSystem@@QAEHH@Z ; CMasterLevelSkillTreeSystem::GetBaseMasterLevelSkill
  014dc	89 45 d4	 mov	 DWORD PTR _GetBaseMasterLevelSkill$240086[ebp], eax

; 650  : 					switch ( GetBaseMasterLevelSkill )

  014df	8b 45 d4	 mov	 eax, DWORD PTR _GetBaseMasterLevelSkill$240086[ebp]
  014e2	89 45 90	 mov	 DWORD PTR tv211[ebp], eax
  014e5	8b 4d 90	 mov	 ecx, DWORD PTR tv211[ebp]
  014e8	81 e9 64 01 00
	00		 sub	 ecx, 356		; 00000164H
  014ee	89 4d 90	 mov	 DWORD PTR tv211[ebp], ecx
  014f1	83 7d 90 40	 cmp	 DWORD PTR tv211[ebp], 64 ; 00000040H
  014f5	77 13		 ja	 SHORT $LN62@UseSkill
  014f7	8b 55 90	 mov	 edx, DWORD PTR tv211[ebp]
  014fa	0f b6 82 00 00
	00 00		 movzx	 eax, BYTE PTR $LN87@UseSkill[edx]
  01501	ff 24 85 00 00
	00 00		 jmp	 DWORD PTR $LN89@UseSkill[eax*4]
$LN63@UseSkill:

; 651  : 					{
; 652  : 						case 356:	//1.01.00
; 653  : 						case 360:
; 654  : 						case 363:
; 655  : 						case 403:
; 656  : 						case 404:
; 657  : 						case 406:
; 658  : 						case 413:
; 659  : 						case 417:
; 660  : 						case 420:
; 661  : 							break;

  01508	eb 15		 jmp	 SHORT $LN64@UseSkill
$LN62@UseSkill:

; 662  : 						default:
; 663  : 							MsgSendV2(lpObj,(LPBYTE)&pMsg,pMsg.h.size);

  0150a	0f b6 45 dd	 movzx	 eax, BYTE PTR _pMsg$[ebp+1]
  0150e	50		 push	 eax
  0150f	8d 4d dc	 lea	 ecx, DWORD PTR _pMsg$[ebp]
  01512	51		 push	 ecx
  01513	8b 55 f4	 mov	 edx, DWORD PTR _lpObj$[ebp]
  01516	52		 push	 edx
  01517	e8 00 00 00 00	 call	 ?MsgSendV2@@YAXPAUOBJECTSTRUCT@@PAEH@Z ; MsgSendV2
  0151c	83 c4 0c	 add	 esp, 12			; 0000000cH
$LN64@UseSkill:

; 664  : 					}
; 665  : 				}
; 666  : 				else

  0151f	eb 40		 jmp	 SHORT $LN59@UseSkill
$LN66@UseSkill:

; 667  : 				{
; 668  : 					switch ( lpMagic->m_Skill )

  01521	8b 45 0c	 mov	 eax, DWORD PTR _lpMagic$[ebp]
  01524	8b 48 08	 mov	 ecx, DWORD PTR [eax+8]
  01527	89 4d 90	 mov	 DWORD PTR tv219[ebp], ecx
  0152a	8b 55 90	 mov	 edx, DWORD PTR tv219[ebp]
  0152d	83 ea 10	 sub	 edx, 16			; 00000010H
  01530	89 55 90	 mov	 DWORD PTR tv219[ebp], edx
  01533	83 7d 90 20	 cmp	 DWORD PTR tv219[ebp], 32 ; 00000020H
  01537	77 13		 ja	 SHORT $LN57@UseSkill
  01539	8b 45 90	 mov	 eax, DWORD PTR tv219[ebp]
  0153c	0f b6 88 00 00
	00 00		 movzx	 ecx, BYTE PTR $LN88@UseSkill[eax]
  01543	ff 24 8d 00 00
	00 00		 jmp	 DWORD PTR $LN90@UseSkill[ecx*4]
$LN58@UseSkill:

; 669  : 					{
; 670  : 						case 16:
; 671  : 						case 26:
; 672  : 						case 27:
; 673  : 						case 28:
; 674  : 						case 48:
; 675  : 							break;

  0154a	eb 15		 jmp	 SHORT $LN59@UseSkill
$LN57@UseSkill:

; 676  : 						default:
; 677  : 							MsgSendV2(lpObj,(LPBYTE)&pMsg,pMsg.h.size);

  0154c	0f b6 45 dd	 movzx	 eax, BYTE PTR _pMsg$[ebp+1]
  01550	50		 push	 eax
  01551	8d 4d dc	 lea	 ecx, DWORD PTR _pMsg$[ebp]
  01554	51		 push	 ecx
  01555	8b 55 f4	 mov	 edx, DWORD PTR _lpObj$[ebp]
  01558	52		 push	 edx
  01559	e8 00 00 00 00	 call	 ?MsgSendV2@@YAXPAUOBJECTSTRUCT@@PAEH@Z ; MsgSendV2
  0155e	83 c4 0c	 add	 esp, 12			; 0000000cH
$LN59@UseSkill:

; 678  : 					}
; 679  : 				}
; 680  : 			}
; 681  : 			else

  01561	eb 15		 jmp	 SHORT $LN56@UseSkill
$LN67@UseSkill:

; 682  : 			{
; 683  : 				MsgSendV2(lpObj,(LPBYTE)&pMsg,pMsg.h.size);

  01563	0f b6 45 dd	 movzx	 eax, BYTE PTR _pMsg$[ebp+1]
  01567	50		 push	 eax
  01568	8d 4d dc	 lea	 ecx, DWORD PTR _pMsg$[ebp]
  0156b	51		 push	 ecx
  0156c	8b 55 f4	 mov	 edx, DWORD PTR _lpObj$[ebp]
  0156f	52		 push	 edx
  01570	e8 00 00 00 00	 call	 ?MsgSendV2@@YAXPAUOBJECTSTRUCT@@PAEH@Z ; MsgSendV2
  01575	83 c4 0c	 add	 esp, 12			; 0000000cH
$LN56@UseSkill:

; 684  : 			}
; 685  : 		}
; 686  : 		
; 687  : 		if(g_MasterSkillSystem.CheckRequireStatus(lpMagic->m_Skill) != FALSE) //Season3 add-on

  01578	8b 45 0c	 mov	 eax, DWORD PTR _lpMagic$[ebp]
  0157b	8b 48 08	 mov	 ecx, DWORD PTR [eax+8]
  0157e	51		 push	 ecx
  0157f	b9 00 00 00 00	 mov	 ecx, OFFSET ?g_MasterSkillSystem@@3VCMasterLevelSkillTreeSystem@@A ; g_MasterSkillSystem
  01584	e8 00 00 00 00	 call	 ?CheckRequireStatus@CMasterLevelSkillTreeSystem@@QAEHH@Z ; CMasterLevelSkillTreeSystem::CheckRequireStatus
  01589	85 c0		 test	 eax, eax
  0158b	74 33		 je	 SHORT $LN55@UseSkill

; 688  : 		{
; 689  : 			g_MasterSkillSystem.RunningSkill(lpObj, aTargetIndex, lpMagic, bCombo, x, y, dir, TargetPos);

  0158d	0f b6 45 1c	 movzx	 eax, BYTE PTR _TargetPos$[ebp]
  01591	50		 push	 eax
  01592	0f b6 4d 18	 movzx	 ecx, BYTE PTR _dir$[ebp]
  01596	51		 push	 ecx
  01597	0f b6 55 14	 movzx	 edx, BYTE PTR _y$[ebp]
  0159b	52		 push	 edx
  0159c	0f b6 45 10	 movzx	 eax, BYTE PTR _x$[ebp]
  015a0	50		 push	 eax
  015a1	8b 4d f0	 mov	 ecx, DWORD PTR _bCombo$[ebp]
  015a4	51		 push	 ecx
  015a5	8b 55 0c	 mov	 edx, DWORD PTR _lpMagic$[ebp]
  015a8	52		 push	 edx
  015a9	8b 45 20	 mov	 eax, DWORD PTR _aTargetIndex$[ebp]
  015ac	50		 push	 eax
  015ad	8b 4d f4	 mov	 ecx, DWORD PTR _lpObj$[ebp]
  015b0	51		 push	 ecx
  015b1	b9 00 00 00 00	 mov	 ecx, OFFSET ?g_MasterSkillSystem@@3VCMasterLevelSkillTreeSystem@@A ; g_MasterSkillSystem
  015b6	e8 00 00 00 00	 call	 ?RunningSkill@CMasterLevelSkillTreeSystem@@QAEHPAUOBJECTSTRUCT@@HPAVCMagicInf@@HEEEE@Z ; CMasterLevelSkillTreeSystem::RunningSkill

; 690  : 			return;

  015bb	e9 b0 05 00 00	 jmp	 $LN77@UseSkill
$LN55@UseSkill:

; 691  : 		}
; 692  : 
; 693  : 		if(lpMagic->m_Skill == AT_SKILL_SWORD6)

  015c0	8b 45 0c	 mov	 eax, DWORD PTR _lpMagic$[ebp]
  015c3	83 78 08 38	 cmp	 DWORD PTR [eax+8], 56	; 00000038H
  015c7	75 28		 jne	 SHORT $LN54@UseSkill

; 694  : 		{
; 695  : 			this->SkillPowerSlash(aIndex,lpMagic,x,y,dir,TargetPos,aTargetIndex);

  015c9	8b 45 20	 mov	 eax, DWORD PTR _aTargetIndex$[ebp]
  015cc	50		 push	 eax
  015cd	0f b6 4d 1c	 movzx	 ecx, BYTE PTR _TargetPos$[ebp]
  015d1	51		 push	 ecx
  015d2	0f b6 55 18	 movzx	 edx, BYTE PTR _dir$[ebp]
  015d6	52		 push	 edx
  015d7	0f b6 45 14	 movzx	 eax, BYTE PTR _y$[ebp]
  015db	50		 push	 eax
  015dc	0f b6 4d 10	 movzx	 ecx, BYTE PTR _x$[ebp]
  015e0	51		 push	 ecx
  015e1	8b 55 0c	 mov	 edx, DWORD PTR _lpMagic$[ebp]
  015e4	52		 push	 edx
  015e5	8b 45 08	 mov	 eax, DWORD PTR _aIndex$[ebp]
  015e8	50		 push	 eax
  015e9	8b 4d f8	 mov	 ecx, DWORD PTR _this$[ebp]
  015ec	e8 00 00 00 00	 call	 ?SkillPowerSlash@CObjUseSkill@@QAEXHPAVCMagicInf@@EEEEH@Z ; CObjUseSkill::SkillPowerSlash
$LN54@UseSkill:

; 696  : 		}
; 697  : 
; 698  : 		if(lpMagic->m_Skill == AT_SKILL_EXPPOISON)

  015f1	8b 45 0c	 mov	 eax, DWORD PTR _lpMagic$[ebp]
  015f4	83 78 08 26	 cmp	 DWORD PTR [eax+8], 38	; 00000026H
  015f8	75 5f		 jne	 SHORT $LN53@UseSkill

; 699  : 		{
; 700  : //			this->SkillDeathPoison(aIndex,lpMagic,x,y,dir,TargetPos,aTargetIndex);
; 701  : 			if( lpObj->Class == 561 )	//Medusa, 1.01.00 update

  015fa	8b 45 f4	 mov	 eax, DWORD PTR _lpObj$[ebp]
  015fd	0f b7 88 b8 00
	00 00		 movzx	 ecx, WORD PTR [eax+184]
  01604	81 f9 31 02 00
	00		 cmp	 ecx, 561		; 00000231H
  0160a	75 20		 jne	 SHORT $LN52@UseSkill

; 702  : 			{
; 703  : 				this->SkillDeathPoisonForMeDusa(aIndex, lpMagic, x, y, aTargetIndex);

  0160c	8b 45 20	 mov	 eax, DWORD PTR _aTargetIndex$[ebp]
  0160f	50		 push	 eax
  01610	0f b6 4d 14	 movzx	 ecx, BYTE PTR _y$[ebp]
  01614	51		 push	 ecx
  01615	0f b6 55 10	 movzx	 edx, BYTE PTR _x$[ebp]
  01619	52		 push	 edx
  0161a	8b 45 0c	 mov	 eax, DWORD PTR _lpMagic$[ebp]
  0161d	50		 push	 eax
  0161e	8b 4d 08	 mov	 ecx, DWORD PTR _aIndex$[ebp]
  01621	51		 push	 ecx
  01622	8b 4d f8	 mov	 ecx, DWORD PTR _this$[ebp]
  01625	e8 00 00 00 00	 call	 ?SkillDeathPoisonForMeDusa@CObjUseSkill@@QAEHHPAVCMagicInf@@EEH@Z ; CObjUseSkill::SkillDeathPoisonForMeDusa

; 704  : 			}
; 705  : 			else

  0162a	eb 28		 jmp	 SHORT $LN51@UseSkill
$LN52@UseSkill:

; 706  : 			{
; 707  : 				this->SkillDeathPoison(aIndex,lpMagic,x,y,dir,TargetPos,aTargetIndex);

  0162c	8b 45 20	 mov	 eax, DWORD PTR _aTargetIndex$[ebp]
  0162f	50		 push	 eax
  01630	0f b6 4d 1c	 movzx	 ecx, BYTE PTR _TargetPos$[ebp]
  01634	51		 push	 ecx
  01635	0f b6 55 18	 movzx	 edx, BYTE PTR _dir$[ebp]
  01639	52		 push	 edx
  0163a	0f b6 45 14	 movzx	 eax, BYTE PTR _y$[ebp]
  0163e	50		 push	 eax
  0163f	0f b6 4d 10	 movzx	 ecx, BYTE PTR _x$[ebp]
  01643	51		 push	 ecx
  01644	8b 55 0c	 mov	 edx, DWORD PTR _lpMagic$[ebp]
  01647	52		 push	 edx
  01648	8b 45 08	 mov	 eax, DWORD PTR _aIndex$[ebp]
  0164b	50		 push	 eax
  0164c	8b 4d f8	 mov	 ecx, DWORD PTR _this$[ebp]
  0164f	e8 00 00 00 00	 call	 ?SkillDeathPoison@CObjUseSkill@@QAEHHPAVCMagicInf@@EEEEH@Z ; CObjUseSkill::SkillDeathPoison
$LN51@UseSkill:

; 708  : 			}

  01654	e9 17 05 00 00	 jmp	 $LN2@UseSkill
$LN53@UseSkill:

; 709  : 		}
; 710  : 		else if(lpMagic->m_Skill == AT_SKILL_EXPICE)

  01659	8b 45 0c	 mov	 eax, DWORD PTR _lpMagic$[ebp]
  0165c	83 78 08 27	 cmp	 DWORD PTR [eax+8], 39	; 00000027H
  01660	75 2d		 jne	 SHORT $LN49@UseSkill

; 711  : 		{
; 712  : 			this->SkillSuddenIce(aIndex,lpMagic,x,y,dir,TargetPos,aTargetIndex);

  01662	8b 45 20	 mov	 eax, DWORD PTR _aTargetIndex$[ebp]
  01665	50		 push	 eax
  01666	0f b6 4d 1c	 movzx	 ecx, BYTE PTR _TargetPos$[ebp]
  0166a	51		 push	 ecx
  0166b	0f b6 55 18	 movzx	 edx, BYTE PTR _dir$[ebp]
  0166f	52		 push	 edx
  01670	0f b6 45 14	 movzx	 eax, BYTE PTR _y$[ebp]
  01674	50		 push	 eax
  01675	0f b6 4d 10	 movzx	 ecx, BYTE PTR _x$[ebp]
  01679	51		 push	 ecx
  0167a	8b 55 0c	 mov	 edx, DWORD PTR _lpMagic$[ebp]
  0167d	52		 push	 edx
  0167e	8b 45 08	 mov	 eax, DWORD PTR _aIndex$[ebp]
  01681	50		 push	 eax
  01682	8b 4d f8	 mov	 ecx, DWORD PTR _this$[ebp]
  01685	e8 00 00 00 00	 call	 ?SkillSuddenIce@CObjUseSkill@@QAEHHPAVCMagicInf@@EEEEH@Z ; CObjUseSkill::SkillSuddenIce
  0168a	e9 e1 04 00 00	 jmp	 $LN2@UseSkill
$LN49@UseSkill:

; 713  : 		}
; 714  : 		else if(lpMagic->m_Skill == AT_SKILL_BLOWOFFURY)

  0168f	8b 45 0c	 mov	 eax, DWORD PTR _lpMagic$[ebp]
  01692	83 78 08 2a	 cmp	 DWORD PTR [eax+8], 42	; 0000002aH
  01696	75 31		 jne	 SHORT $LN47@UseSkill

; 715  : 		{
; 716  : 			this->SkillBlowOfFury(aIndex,lpMagic,x,y,dir,TargetPos,aTargetIndex,bCombo);

  01698	8b 45 f0	 mov	 eax, DWORD PTR _bCombo$[ebp]
  0169b	50		 push	 eax
  0169c	8b 4d 20	 mov	 ecx, DWORD PTR _aTargetIndex$[ebp]
  0169f	51		 push	 ecx
  016a0	0f b6 55 1c	 movzx	 edx, BYTE PTR _TargetPos$[ebp]
  016a4	52		 push	 edx
  016a5	0f b6 45 18	 movzx	 eax, BYTE PTR _dir$[ebp]
  016a9	50		 push	 eax
  016aa	0f b6 4d 14	 movzx	 ecx, BYTE PTR _y$[ebp]
  016ae	51		 push	 ecx
  016af	0f b6 55 10	 movzx	 edx, BYTE PTR _x$[ebp]
  016b3	52		 push	 edx
  016b4	8b 45 0c	 mov	 eax, DWORD PTR _lpMagic$[ebp]
  016b7	50		 push	 eax
  016b8	8b 4d 08	 mov	 ecx, DWORD PTR _aIndex$[ebp]
  016bb	51		 push	 ecx
  016bc	8b 4d f8	 mov	 ecx, DWORD PTR _this$[ebp]
  016bf	e8 00 00 00 00	 call	 ?SkillBlowOfFury@CObjUseSkill@@QAEXHPAVCMagicInf@@EEEEHH@Z ; CObjUseSkill::SkillBlowOfFury
  016c4	e9 a7 04 00 00	 jmp	 $LN2@UseSkill
$LN47@UseSkill:

; 717  : 		}
; 718  : 		else if(lpMagic->m_Skill == AT_SKILL_WHEEL)

  016c9	8b 45 0c	 mov	 eax, DWORD PTR _lpMagic$[ebp]
  016cc	83 78 08 29	 cmp	 DWORD PTR [eax+8], 41	; 00000029H
  016d0	75 1d		 jne	 SHORT $LN45@UseSkill

; 719  : 		{
; 720  : 			this->SkillWheel(aIndex,lpMagic,aTargetIndex,bCombo);

  016d2	8b 45 f0	 mov	 eax, DWORD PTR _bCombo$[ebp]
  016d5	50		 push	 eax
  016d6	8b 4d 20	 mov	 ecx, DWORD PTR _aTargetIndex$[ebp]
  016d9	51		 push	 ecx
  016da	8b 55 0c	 mov	 edx, DWORD PTR _lpMagic$[ebp]
  016dd	52		 push	 edx
  016de	8b 45 08	 mov	 eax, DWORD PTR _aIndex$[ebp]
  016e1	50		 push	 eax
  016e2	8b 4d f8	 mov	 ecx, DWORD PTR _this$[ebp]
  016e5	e8 00 00 00 00	 call	 ?SkillWheel@CObjUseSkill@@QAEXHPAVCMagicInf@@HH@Z ; CObjUseSkill::SkillWheel
  016ea	e9 81 04 00 00	 jmp	 $LN2@UseSkill
$LN45@UseSkill:

; 721  : 		}
; 722  : 		else if(lpMagic->m_Skill == AT_SKILL_ELECTRICSPARK)

  016ef	8b 45 0c	 mov	 eax, DWORD PTR _lpMagic$[ebp]
  016f2	83 78 08 41	 cmp	 DWORD PTR [eax+8], 65	; 00000041H
  016f6	75 2d		 jne	 SHORT $LN43@UseSkill

; 723  : 		{
; 724  : 			this->SkillElectricSpark(aIndex,lpMagic,x,y,dir,TargetPos,aTargetIndex);

  016f8	8b 45 20	 mov	 eax, DWORD PTR _aTargetIndex$[ebp]
  016fb	50		 push	 eax
  016fc	0f b6 4d 1c	 movzx	 ecx, BYTE PTR _TargetPos$[ebp]
  01700	51		 push	 ecx
  01701	0f b6 55 18	 movzx	 edx, BYTE PTR _dir$[ebp]
  01705	52		 push	 edx
  01706	0f b6 45 14	 movzx	 eax, BYTE PTR _y$[ebp]
  0170a	50		 push	 eax
  0170b	0f b6 4d 10	 movzx	 ecx, BYTE PTR _x$[ebp]
  0170f	51		 push	 ecx
  01710	8b 55 0c	 mov	 edx, DWORD PTR _lpMagic$[ebp]
  01713	52		 push	 edx
  01714	8b 45 08	 mov	 eax, DWORD PTR _aIndex$[ebp]
  01717	50		 push	 eax
  01718	8b 4d f8	 mov	 ecx, DWORD PTR _this$[ebp]
  0171b	e8 00 00 00 00	 call	 ?SkillElectricSpark@CObjUseSkill@@QAEXHPAVCMagicInf@@EEEEH@Z ; CObjUseSkill::SkillElectricSpark
  01720	e9 4b 04 00 00	 jmp	 $LN2@UseSkill
$LN43@UseSkill:

; 725  : 		}
; 726  : 		else if(lpMagic->m_Skill == AT_SKILL_DARKHORSE_ATTACK)

  01725	8b 45 0c	 mov	 eax, DWORD PTR _lpMagic$[ebp]
  01728	83 78 08 3e	 cmp	 DWORD PTR [eax+8], 62	; 0000003eH
  0172c	75 1b		 jne	 SHORT $LN41@UseSkill

; 727  : 		{
; 728  : 			this->SkillDarkHorseAttack(lpObj->m_Index,aTargetIndex,lpMagic);

  0172e	8b 45 0c	 mov	 eax, DWORD PTR _lpMagic$[ebp]
  01731	50		 push	 eax
  01732	8b 4d 20	 mov	 ecx, DWORD PTR _aTargetIndex$[ebp]
  01735	51		 push	 ecx
  01736	8b 55 f4	 mov	 edx, DWORD PTR _lpObj$[ebp]
  01739	8b 02		 mov	 eax, DWORD PTR [edx]
  0173b	50		 push	 eax
  0173c	8b 4d f8	 mov	 ecx, DWORD PTR _this$[ebp]
  0173f	e8 00 00 00 00	 call	 ?SkillDarkHorseAttack@CObjUseSkill@@QAEHHHPAVCMagicInf@@@Z ; CObjUseSkill::SkillDarkHorseAttack
  01744	e9 27 04 00 00	 jmp	 $LN2@UseSkill
$LN41@UseSkill:

; 729  : 		}
; 730  : 		else if(lpMagic->m_Skill == AT_SKILL_STUN)

  01749	8b 45 0c	 mov	 eax, DWORD PTR _lpMagic$[ebp]
  0174c	83 78 08 43	 cmp	 DWORD PTR [eax+8], 67	; 00000043H
  01750	75 2d		 jne	 SHORT $LN39@UseSkill

; 731  : 		{
; 732  : 			this->SkillStun(aIndex,aTargetIndex,lpMagic,x,y,dir,TargetPos);

  01752	0f b6 45 1c	 movzx	 eax, BYTE PTR _TargetPos$[ebp]
  01756	50		 push	 eax
  01757	0f b6 4d 18	 movzx	 ecx, BYTE PTR _dir$[ebp]
  0175b	51		 push	 ecx
  0175c	0f b6 55 14	 movzx	 edx, BYTE PTR _y$[ebp]
  01760	52		 push	 edx
  01761	0f b6 45 10	 movzx	 eax, BYTE PTR _x$[ebp]
  01765	50		 push	 eax
  01766	8b 4d 0c	 mov	 ecx, DWORD PTR _lpMagic$[ebp]
  01769	51		 push	 ecx
  0176a	8b 55 20	 mov	 edx, DWORD PTR _aTargetIndex$[ebp]
  0176d	52		 push	 edx
  0176e	8b 45 08	 mov	 eax, DWORD PTR _aIndex$[ebp]
  01771	50		 push	 eax
  01772	8b 4d f8	 mov	 ecx, DWORD PTR _this$[ebp]
  01775	e8 00 00 00 00	 call	 ?SkillStun@CObjUseSkill@@QAEHHHPAVCMagicInf@@EEEE@Z ; CObjUseSkill::SkillStun
  0177a	e9 f1 03 00 00	 jmp	 $LN2@UseSkill
$LN39@UseSkill:

; 733  : 		}
; 734  : 		else if(lpMagic->m_Skill == AT_SKILL_FENRIR_ATTACK)

  0177f	8b 45 0c	 mov	 eax, DWORD PTR _lpMagic$[ebp]
  01782	83 78 08 4c	 cmp	 DWORD PTR [eax+8], 76	; 0000004cH
  01786	75 19		 jne	 SHORT $LN37@UseSkill

; 735  : 		{
; 736  : 			this->SkillFenrirAttack(aIndex,aTargetIndex,lpMagic);

  01788	8b 45 0c	 mov	 eax, DWORD PTR _lpMagic$[ebp]
  0178b	50		 push	 eax
  0178c	8b 4d 20	 mov	 ecx, DWORD PTR _aTargetIndex$[ebp]
  0178f	51		 push	 ecx
  01790	8b 55 08	 mov	 edx, DWORD PTR _aIndex$[ebp]
  01793	52		 push	 edx
  01794	8b 4d f8	 mov	 ecx, DWORD PTR _this$[ebp]
  01797	e8 00 00 00 00	 call	 ?SkillFenrirAttack@CObjUseSkill@@QAEHHHPAVCMagicInf@@@Z ; CObjUseSkill::SkillFenrirAttack
  0179c	e9 cf 03 00 00	 jmp	 $LN2@UseSkill
$LN37@UseSkill:

; 737  : 		}
; 738  : 		//Summoner Next
; 739  : 		else if(lpMagic->m_Skill == 216)

  017a1	8b 45 0c	 mov	 eax, DWORD PTR _lpMagic$[ebp]
  017a4	81 78 08 d8 00
	00 00		 cmp	 DWORD PTR [eax+8], 216	; 000000d8H
  017ab	75 19		 jne	 SHORT $LN35@UseSkill

; 740  : 		{
; 741  : 			this->SkillEletrictSurge(aIndex,aTargetIndex,lpMagic);

  017ad	8b 45 0c	 mov	 eax, DWORD PTR _lpMagic$[ebp]
  017b0	50		 push	 eax
  017b1	8b 4d 20	 mov	 ecx, DWORD PTR _aTargetIndex$[ebp]
  017b4	51		 push	 ecx
  017b5	8b 55 08	 mov	 edx, DWORD PTR _aIndex$[ebp]
  017b8	52		 push	 edx
  017b9	8b 4d f8	 mov	 ecx, DWORD PTR _this$[ebp]
  017bc	e8 00 00 00 00	 call	 ?SkillEletrictSurge@CObjUseSkill@@QAEHHHPAVCMagicInf@@@Z ; CObjUseSkill::SkillEletrictSurge
  017c1	e9 aa 03 00 00	 jmp	 $LN2@UseSkill
$LN35@UseSkill:

; 742  : 		}
; 743  : 		else if(lpMagic->m_Skill == 214)

  017c6	8b 45 0c	 mov	 eax, DWORD PTR _lpMagic$[ebp]
  017c9	81 78 08 d6 00
	00 00		 cmp	 DWORD PTR [eax+8], 214	; 000000d6H
  017d0	75 19		 jne	 SHORT $LN33@UseSkill

; 744  : 		{
; 745  : 			this->SkillDrainLife(aIndex,aTargetIndex,lpMagic);

  017d2	8b 45 0c	 mov	 eax, DWORD PTR _lpMagic$[ebp]
  017d5	50		 push	 eax
  017d6	8b 4d 20	 mov	 ecx, DWORD PTR _aTargetIndex$[ebp]
  017d9	51		 push	 ecx
  017da	8b 55 08	 mov	 edx, DWORD PTR _aIndex$[ebp]
  017dd	52		 push	 edx
  017de	8b 4d f8	 mov	 ecx, DWORD PTR _this$[ebp]
  017e1	e8 00 00 00 00	 call	 ?SkillDrainLife@CObjUseSkill@@QAEHHHPAVCMagicInf@@@Z ; CObjUseSkill::SkillDrainLife
  017e6	e9 85 03 00 00	 jmp	 $LN2@UseSkill
$LN33@UseSkill:

; 746  : 		}
; 747  : 		else if(lpMagic->m_Skill == 215)

  017eb	8b 45 0c	 mov	 eax, DWORD PTR _lpMagic$[ebp]
  017ee	81 78 08 d7 00
	00 00		 cmp	 DWORD PTR [eax+8], 215	; 000000d7H
  017f5	75 19		 jne	 SHORT $LN31@UseSkill

; 748  : 		{
; 749  : 			this->SkillChainLightning(aIndex,aTargetIndex,lpMagic);

  017f7	8b 45 0c	 mov	 eax, DWORD PTR _lpMagic$[ebp]
  017fa	50		 push	 eax
  017fb	8b 4d 20	 mov	 ecx, DWORD PTR _aTargetIndex$[ebp]
  017fe	51		 push	 ecx
  017ff	8b 55 08	 mov	 edx, DWORD PTR _aIndex$[ebp]
  01802	52		 push	 edx
  01803	8b 4d f8	 mov	 ecx, DWORD PTR _this$[ebp]
  01806	e8 00 00 00 00	 call	 ?SkillChainLightning@CObjUseSkill@@QAEHHHPAVCMagicInf@@@Z ; CObjUseSkill::SkillChainLightning
  0180b	e9 60 03 00 00	 jmp	 $LN2@UseSkill
$LN31@UseSkill:

; 750  : 		}
; 751  : 		else if(lpMagic->m_Skill == 223 || lpMagic->m_Skill == 224)

  01810	8b 45 0c	 mov	 eax, DWORD PTR _lpMagic$[ebp]
  01813	81 78 08 df 00
	00 00		 cmp	 DWORD PTR [eax+8], 223	; 000000dfH
  0181a	74 0c		 je	 SHORT $LN28@UseSkill
  0181c	8b 45 0c	 mov	 eax, DWORD PTR _lpMagic$[ebp]
  0181f	81 78 08 e0 00
	00 00		 cmp	 DWORD PTR [eax+8], 224	; 000000e0H
  01826	75 23		 jne	 SHORT $LN29@UseSkill
$LN28@UseSkill:

; 752  : 		{
; 753  : 			this->SkillSummonerBook(aIndex,lpMagic,x,y,aTargetIndex);

  01828	8b 45 20	 mov	 eax, DWORD PTR _aTargetIndex$[ebp]
  0182b	50		 push	 eax
  0182c	0f b6 4d 14	 movzx	 ecx, BYTE PTR _y$[ebp]
  01830	51		 push	 ecx
  01831	0f b6 55 10	 movzx	 edx, BYTE PTR _x$[ebp]
  01835	52		 push	 edx
  01836	8b 45 0c	 mov	 eax, DWORD PTR _lpMagic$[ebp]
  01839	50		 push	 eax
  0183a	8b 4d 08	 mov	 ecx, DWORD PTR _aIndex$[ebp]
  0183d	51		 push	 ecx
  0183e	8b 4d f8	 mov	 ecx, DWORD PTR _this$[ebp]
  01841	e8 00 00 00 00	 call	 ?SkillSummonerBook@CObjUseSkill@@QAEHHPAVCMagicInf@@EEH@Z ; CObjUseSkill::SkillSummonerBook
  01846	e9 25 03 00 00	 jmp	 $LN2@UseSkill
$LN29@UseSkill:

; 754  : 		}
; 755  : 		else if(lpMagic->m_Skill == 221)

  0184b	8b 45 0c	 mov	 eax, DWORD PTR _lpMagic$[ebp]
  0184e	81 78 08 dd 00
	00 00		 cmp	 DWORD PTR [eax+8], 221	; 000000ddH
  01855	75 23		 jne	 SHORT $LN26@UseSkill

; 756  : 		{
; 757  : 			this->SkillWeakness(aIndex,lpMagic,x,y,aTargetIndex);

  01857	8b 45 20	 mov	 eax, DWORD PTR _aTargetIndex$[ebp]
  0185a	50		 push	 eax
  0185b	0f b6 4d 14	 movzx	 ecx, BYTE PTR _y$[ebp]
  0185f	51		 push	 ecx
  01860	0f b6 55 10	 movzx	 edx, BYTE PTR _x$[ebp]
  01864	52		 push	 edx
  01865	8b 45 0c	 mov	 eax, DWORD PTR _lpMagic$[ebp]
  01868	50		 push	 eax
  01869	8b 4d 08	 mov	 ecx, DWORD PTR _aIndex$[ebp]
  0186c	51		 push	 ecx
  0186d	8b 4d f8	 mov	 ecx, DWORD PTR _this$[ebp]
  01870	e8 00 00 00 00	 call	 ?SkillWeakness@CObjUseSkill@@QAEHHPAVCMagicInf@@EEH@Z ; CObjUseSkill::SkillWeakness
  01875	e9 f6 02 00 00	 jmp	 $LN2@UseSkill
$LN26@UseSkill:

; 758  : 		}
; 759  : 		else if(lpMagic->m_Skill == 222)

  0187a	8b 45 0c	 mov	 eax, DWORD PTR _lpMagic$[ebp]
  0187d	81 78 08 de 00
	00 00		 cmp	 DWORD PTR [eax+8], 222	; 000000deH
  01884	75 23		 jne	 SHORT $LN24@UseSkill

; 760  : 		{
; 761  : 			this->SkillInnovation(aIndex,lpMagic,x,y,aTargetIndex);

  01886	8b 45 20	 mov	 eax, DWORD PTR _aTargetIndex$[ebp]
  01889	50		 push	 eax
  0188a	0f b6 4d 14	 movzx	 ecx, BYTE PTR _y$[ebp]
  0188e	51		 push	 ecx
  0188f	0f b6 55 10	 movzx	 edx, BYTE PTR _x$[ebp]
  01893	52		 push	 edx
  01894	8b 45 0c	 mov	 eax, DWORD PTR _lpMagic$[ebp]
  01897	50		 push	 eax
  01898	8b 4d 08	 mov	 ecx, DWORD PTR _aIndex$[ebp]
  0189b	51		 push	 ecx
  0189c	8b 4d f8	 mov	 ecx, DWORD PTR _this$[ebp]
  0189f	e8 00 00 00 00	 call	 ?SkillInnovation@CObjUseSkill@@QAEHHPAVCMagicInf@@EEH@Z ; CObjUseSkill::SkillInnovation
  018a4	e9 c7 02 00 00	 jmp	 $LN2@UseSkill
$LN24@UseSkill:

; 762  : 		}
; 763  : 		else if(lpMagic->m_Skill == 225) //season 4 add-on

  018a9	8b 45 0c	 mov	 eax, DWORD PTR _lpMagic$[ebp]
  018ac	81 78 08 e1 00
	00 00		 cmp	 DWORD PTR [eax+8], 225	; 000000e1H
  018b3	75 25		 jne	 SHORT $LN22@UseSkill

; 764  : 		{
; 765  : 			this->SkillPollutionStart(aIndex,lpMagic,x,y,aTargetIndex,59);

  018b5	6a 3b		 push	 59			; 0000003bH
  018b7	8b 45 20	 mov	 eax, DWORD PTR _aTargetIndex$[ebp]
  018ba	50		 push	 eax
  018bb	0f b6 4d 14	 movzx	 ecx, BYTE PTR _y$[ebp]
  018bf	51		 push	 ecx
  018c0	0f b6 55 10	 movzx	 edx, BYTE PTR _x$[ebp]
  018c4	52		 push	 edx
  018c5	8b 45 0c	 mov	 eax, DWORD PTR _lpMagic$[ebp]
  018c8	50		 push	 eax
  018c9	8b 4d 08	 mov	 ecx, DWORD PTR _aIndex$[ebp]
  018cc	51		 push	 ecx
  018cd	8b 4d f8	 mov	 ecx, DWORD PTR _this$[ebp]
  018d0	e8 00 00 00 00	 call	 ?SkillPollutionStart@CObjUseSkill@@QAEHHPAVCMagicInf@@EEHH@Z ; CObjUseSkill::SkillPollutionStart
  018d5	e9 96 02 00 00	 jmp	 $LN2@UseSkill
$LN22@UseSkill:

; 766  : 		}
; 767  : 		else if(lpMagic->m_Skill == 230) //season 4 add-on

  018da	8b 45 0c	 mov	 eax, DWORD PTR _lpMagic$[ebp]
  018dd	81 78 08 e6 00
	00 00		 cmp	 DWORD PTR [eax+8], 230	; 000000e6H
  018e4	75 19		 jne	 SHORT $LN20@UseSkill

; 768  : 		{
; 769  : 			this->SkillLightningShock(aIndex,aTargetIndex,lpMagic);

  018e6	8b 45 0c	 mov	 eax, DWORD PTR _lpMagic$[ebp]
  018e9	50		 push	 eax
  018ea	8b 4d 20	 mov	 ecx, DWORD PTR _aTargetIndex$[ebp]
  018ed	51		 push	 ecx
  018ee	8b 55 08	 mov	 edx, DWORD PTR _aIndex$[ebp]
  018f1	52		 push	 edx
  018f2	8b 4d f8	 mov	 ecx, DWORD PTR _this$[ebp]
  018f5	e8 00 00 00 00	 call	 ?SkillLightningShock@CObjUseSkill@@QAEHHHPAVCMagicInf@@@Z ; CObjUseSkill::SkillLightningShock
  018fa	e9 71 02 00 00	 jmp	 $LN2@UseSkill
$LN20@UseSkill:

; 770  : 		}
; 771  : 		else if(lpMagic->m_Skill == 232) //season 4 add-on

  018ff	8b 45 0c	 mov	 eax, DWORD PTR _lpMagic$[ebp]
  01902	81 78 08 e8 00
	00 00		 cmp	 DWORD PTR [eax+8], 232	; 000000e8H
  01909	75 23		 jne	 SHORT $LN18@UseSkill

; 772  : 		{
; 773  : 			this->SkillStrikeOfDestructionStart(aIndex,lpMagic,x,y,aTargetIndex);

  0190b	8b 45 20	 mov	 eax, DWORD PTR _aTargetIndex$[ebp]
  0190e	50		 push	 eax
  0190f	0f b6 4d 14	 movzx	 ecx, BYTE PTR _y$[ebp]
  01913	51		 push	 ecx
  01914	0f b6 55 10	 movzx	 edx, BYTE PTR _x$[ebp]
  01918	52		 push	 edx
  01919	8b 45 0c	 mov	 eax, DWORD PTR _lpMagic$[ebp]
  0191c	50		 push	 eax
  0191d	8b 4d 08	 mov	 ecx, DWORD PTR _aIndex$[ebp]
  01920	51		 push	 ecx
  01921	8b 4d f8	 mov	 ecx, DWORD PTR _this$[ebp]
  01924	e8 00 00 00 00	 call	 ?SkillStrikeOfDestructionStart@CObjUseSkill@@QAEHHPAVCMagicInf@@EEH@Z ; CObjUseSkill::SkillStrikeOfDestructionStart
  01929	e9 42 02 00 00	 jmp	 $LN2@UseSkill
$LN18@UseSkill:

; 774  : 		}
; 775  : 		else if(lpMagic->m_Skill == 236) //season 4 add-on

  0192e	8b 45 0c	 mov	 eax, DWORD PTR _lpMagic$[ebp]
  01931	81 78 08 ec 00
	00 00		 cmp	 DWORD PTR [eax+8], 236	; 000000ecH
  01938	75 1e		 jne	 SHORT $LN16@UseSkill

; 776  : 		{
; 777  : 			this->SkillFlameStrike(aIndex,lpMagic,TargetPos,aTargetIndex);

  0193a	8b 45 20	 mov	 eax, DWORD PTR _aTargetIndex$[ebp]
  0193d	50		 push	 eax
  0193e	0f b6 4d 1c	 movzx	 ecx, BYTE PTR _TargetPos$[ebp]
  01942	51		 push	 ecx
  01943	8b 55 0c	 mov	 edx, DWORD PTR _lpMagic$[ebp]
  01946	52		 push	 edx
  01947	8b 45 08	 mov	 eax, DWORD PTR _aIndex$[ebp]
  0194a	50		 push	 eax
  0194b	8b 4d f8	 mov	 ecx, DWORD PTR _this$[ebp]
  0194e	e8 00 00 00 00	 call	 ?SkillFlameStrike@CObjUseSkill@@QAEXHPAVCMagicInf@@EH@Z ; CObjUseSkill::SkillFlameStrike
  01953	e9 18 02 00 00	 jmp	 $LN2@UseSkill
$LN16@UseSkill:

; 778  : 		}
; 779  : 		else if(lpMagic->m_Skill == 237) //season 4 add-on

  01958	8b 45 0c	 mov	 eax, DWORD PTR _lpMagic$[ebp]
  0195b	81 78 08 ed 00
	00 00		 cmp	 DWORD PTR [eax+8], 237	; 000000edH
  01962	75 23		 jne	 SHORT $LN14@UseSkill

; 780  : 		{
; 781  : 			this->SkillGiganticStormStart(aIndex,lpMagic,x,y,aTargetIndex);

  01964	8b 45 20	 mov	 eax, DWORD PTR _aTargetIndex$[ebp]
  01967	50		 push	 eax
  01968	0f b6 4d 14	 movzx	 ecx, BYTE PTR _y$[ebp]
  0196c	51		 push	 ecx
  0196d	0f b6 55 10	 movzx	 edx, BYTE PTR _x$[ebp]
  01971	52		 push	 edx
  01972	8b 45 0c	 mov	 eax, DWORD PTR _lpMagic$[ebp]
  01975	50		 push	 eax
  01976	8b 4d 08	 mov	 ecx, DWORD PTR _aIndex$[ebp]
  01979	51		 push	 ecx
  0197a	8b 4d f8	 mov	 ecx, DWORD PTR _this$[ebp]
  0197d	e8 00 00 00 00	 call	 ?SkillGiganticStormStart@CObjUseSkill@@QAEHHPAVCMagicInf@@EEH@Z ; CObjUseSkill::SkillGiganticStormStart
  01982	e9 e9 01 00 00	 jmp	 $LN2@UseSkill
$LN14@UseSkill:

; 782  : 		}
; 783  : 		else if(lpMagic->m_Skill == 235) //season 4 add-on

  01987	8b 45 0c	 mov	 eax, DWORD PTR _lpMagic$[ebp]
  0198a	81 78 08 eb 00
	00 00		 cmp	 DWORD PTR [eax+8], 235	; 000000ebH
  01991	75 1e		 jne	 SHORT $LN12@UseSkill

; 784  : 		{
; 785  : 			this->SkillMultiShot(aIndex,lpMagic,TargetPos,aTargetIndex);

  01993	8b 45 20	 mov	 eax, DWORD PTR _aTargetIndex$[ebp]
  01996	50		 push	 eax
  01997	0f b6 4d 1c	 movzx	 ecx, BYTE PTR _TargetPos$[ebp]
  0199b	51		 push	 ecx
  0199c	8b 55 0c	 mov	 edx, DWORD PTR _lpMagic$[ebp]
  0199f	52		 push	 edx
  019a0	8b 45 08	 mov	 eax, DWORD PTR _aIndex$[ebp]
  019a3	50		 push	 eax
  019a4	8b 4d f8	 mov	 ecx, DWORD PTR _this$[ebp]
  019a7	e8 00 00 00 00	 call	 ?SkillMultiShot@CObjUseSkill@@QAEXHPAVCMagicInf@@EH@Z ; CObjUseSkill::SkillMultiShot
  019ac	e9 bf 01 00 00	 jmp	 $LN2@UseSkill
$LN12@UseSkill:

; 786  : 		}
; 787  : 		else if(lpMagic->m_Skill == 238) //season 4 add-on

  019b1	8b 45 0c	 mov	 eax, DWORD PTR _lpMagic$[ebp]
  019b4	81 78 08 ee 00
	00 00		 cmp	 DWORD PTR [eax+8], 238	; 000000eeH
  019bb	75 1e		 jne	 SHORT $LN10@UseSkill

; 788  : 		{
; 789  : 			this->SkillChaoticDiseier(aIndex,lpMagic,TargetPos,aTargetIndex);

  019bd	8b 45 20	 mov	 eax, DWORD PTR _aTargetIndex$[ebp]
  019c0	50		 push	 eax
  019c1	0f b6 4d 1c	 movzx	 ecx, BYTE PTR _TargetPos$[ebp]
  019c5	51		 push	 ecx
  019c6	8b 55 0c	 mov	 edx, DWORD PTR _lpMagic$[ebp]
  019c9	52		 push	 edx
  019ca	8b 45 08	 mov	 eax, DWORD PTR _aIndex$[ebp]
  019cd	50		 push	 eax
  019ce	8b 4d f8	 mov	 ecx, DWORD PTR _this$[ebp]
  019d1	e8 00 00 00 00	 call	 ?SkillChaoticDiseier@CObjUseSkill@@QAEXHPAVCMagicInf@@EH@Z ; CObjUseSkill::SkillChaoticDiseier
  019d6	e9 95 01 00 00	 jmp	 $LN2@UseSkill
$LN10@UseSkill:

; 790  : 		}
; 791  : 		else if(lpMagic->m_Skill == 9)

  019db	8b 45 0c	 mov	 eax, DWORD PTR _lpMagic$[ebp]
  019de	83 78 08 09	 cmp	 DWORD PTR [eax+8], 9
  019e2	75 38		 jne	 SHORT $LN8@UseSkill

; 792  : 		{
; 793  : 			if( gObj[aIndex].Class == 561 )	//Medusa, 1.01.00

  019e4	8b 45 08	 mov	 eax, DWORD PTR _aIndex$[ebp]
  019e7	69 c0 38 2b 00
	00		 imul	 eax, 11064		; 00002b38H
  019ed	8b 0d 00 00 00
	00		 mov	 ecx, DWORD PTR ?gObj@@3PAUOBJECTSTRUCT@@A ; gObj
  019f3	0f b7 94 01 b8
	00 00 00	 movzx	 edx, WORD PTR [ecx+eax+184]
  019fb	81 fa 31 02 00
	00		 cmp	 edx, 561		; 00000231H
  01a01	75 14		 jne	 SHORT $LN7@UseSkill

; 794  : 			{
; 795  : 				this->SkillEvilMonster(aIndex, aTargetIndex, lpMagic);

  01a03	8b 45 0c	 mov	 eax, DWORD PTR _lpMagic$[ebp]
  01a06	50		 push	 eax
  01a07	8b 4d 20	 mov	 ecx, DWORD PTR _aTargetIndex$[ebp]
  01a0a	51		 push	 ecx
  01a0b	8b 55 08	 mov	 edx, DWORD PTR _aIndex$[ebp]
  01a0e	52		 push	 edx
  01a0f	8b 4d f8	 mov	 ecx, DWORD PTR _this$[ebp]
  01a12	e8 00 00 00 00	 call	 ?SkillEvilMonster@CObjUseSkill@@QAEHHHPAVCMagicInf@@@Z ; CObjUseSkill::SkillEvilMonster
$LN7@UseSkill:

; 796  : 			}
; 797  : 		}

  01a17	e9 54 01 00 00	 jmp	 $LN2@UseSkill
$LN8@UseSkill:

; 798  : 		else if(lpMagic->m_Skill == 264)

  01a1c	8b 45 0c	 mov	 eax, DWORD PTR _lpMagic$[ebp]
  01a1f	81 78 08 08 01
	00 00		 cmp	 DWORD PTR [eax+8], 264	; 00000108H
  01a26	0f 85 9e 00 00
	00		 jne	 $LN5@UseSkill

; 799  : 		{
; 800  : 			if( !OBJMAX_RANGE(aTargetIndex) )

  01a2c	83 7d 20 00	 cmp	 DWORD PTR _aTargetIndex$[ebp], 0
  01a30	7d 09		 jge	 SHORT $LN83@UseSkill
  01a32	c7 45 90 00 00
	00 00		 mov	 DWORD PTR tv477[ebp], 0
  01a39	eb 0f		 jmp	 SHORT $LN84@UseSkill
$LN83@UseSkill:
  01a3b	33 c0		 xor	 eax, eax
  01a3d	81 7d 20 97 3a
	00 00		 cmp	 DWORD PTR _aTargetIndex$[ebp], 14999 ; 00003a97H
  01a44	0f 9e c0	 setle	 al
  01a47	89 45 90	 mov	 DWORD PTR tv477[ebp], eax
$LN84@UseSkill:
  01a4a	83 7d 90 00	 cmp	 DWORD PTR tv477[ebp], 0
  01a4e	75 2b		 jne	 SHORT $LN4@UseSkill

; 801  : 			{
; 802  : 				LogAddTD("[InvalidTargetIndex][CObjUseSkill.UseSkill][AT_SKILL_DRAGON_ROAR] Index :%d , AccountID : %s ",
; 803  : 					aIndex, gObj[aIndex].AccountID);

  01a50	8b 45 08	 mov	 eax, DWORD PTR _aIndex$[ebp]
  01a53	69 c0 38 2b 00
	00		 imul	 eax, 11064		; 00002b38H
  01a59	8b 0d 00 00 00
	00		 mov	 ecx, DWORD PTR ?gObj@@3PAUOBJECTSTRUCT@@A ; gObj
  01a5f	8d 54 01 6c	 lea	 edx, DWORD PTR [ecx+eax+108]
  01a63	52		 push	 edx
  01a64	8b 45 08	 mov	 eax, DWORD PTR _aIndex$[ebp]
  01a67	50		 push	 eax
  01a68	68 00 00 00 00	 push	 OFFSET ??_C@_0FO@IFELCABO@?$FLInvalidTargetIndex?$FN?$FLCObjUseSkil@
  01a6d	ff 15 00 00 00
	00		 call	 DWORD PTR ?LogAddTD@@3P6AXPADZZA ; LogAddTD
  01a73	83 c4 0c	 add	 esp, 12			; 0000000cH

; 804  : 				return;

  01a76	e9 f5 00 00 00	 jmp	 $LN77@UseSkill
$LN4@UseSkill:

; 805  : 			}
; 806  : 			// ----
; 807  : 			this->SkillAreaMonsterAttack(aIndex, lpMagic, gObj[aTargetIndex].X, gObj[aTargetIndex].Y, aTargetIndex, 3, 1, 0);

  01a7b	6a 00		 push	 0
  01a7d	6a 01		 push	 1
  01a7f	6a 03		 push	 3
  01a81	8b 45 20	 mov	 eax, DWORD PTR _aTargetIndex$[ebp]
  01a84	50		 push	 eax
  01a85	8b 4d 20	 mov	 ecx, DWORD PTR _aTargetIndex$[ebp]
  01a88	69 c9 38 2b 00
	00		 imul	 ecx, 11064		; 00002b38H
  01a8e	8b 15 00 00 00
	00		 mov	 edx, DWORD PTR ?gObj@@3PAUOBJECTSTRUCT@@A ; gObj
  01a94	0f b6 84 0a 46
	01 00 00	 movzx	 eax, BYTE PTR [edx+ecx+326]
  01a9c	50		 push	 eax
  01a9d	8b 4d 20	 mov	 ecx, DWORD PTR _aTargetIndex$[ebp]
  01aa0	69 c9 38 2b 00
	00		 imul	 ecx, 11064		; 00002b38H
  01aa6	8b 15 00 00 00
	00		 mov	 edx, DWORD PTR ?gObj@@3PAUOBJECTSTRUCT@@A ; gObj
  01aac	0f b6 84 0a 44
	01 00 00	 movzx	 eax, BYTE PTR [edx+ecx+324]
  01ab4	50		 push	 eax
  01ab5	8b 4d 0c	 mov	 ecx, DWORD PTR _lpMagic$[ebp]
  01ab8	51		 push	 ecx
  01ab9	8b 55 08	 mov	 edx, DWORD PTR _aIndex$[ebp]
  01abc	52		 push	 edx
  01abd	8b 4d f8	 mov	 ecx, DWORD PTR _this$[ebp]
  01ac0	e8 00 00 00 00	 call	 ?SkillAreaMonsterAttack@CObjUseSkill@@QAEHHPAVCMagicInf@@EEHHHH@Z ; CObjUseSkill::SkillAreaMonsterAttack
  01ac5	e9 a6 00 00 00	 jmp	 $LN2@UseSkill
$LN5@UseSkill:

; 808  : 		}
; 809  : 			// --
; 810  : 		else if(lpMagic->m_Skill == 270)	//-> AT_SKILL_PHOENIXSHOT

  01aca	8b 45 0c	 mov	 eax, DWORD PTR _lpMagic$[ebp]
  01acd	81 78 08 0e 01
	00 00		 cmp	 DWORD PTR [eax+8], 270	; 0000010eH
  01ad4	0f 85 96 00 00
	00		 jne	 $LN2@UseSkill

; 811  : 		{
; 812  : 			if( !OBJMAX_RANGE(aTargetIndex) )

  01ada	83 7d 20 00	 cmp	 DWORD PTR _aTargetIndex$[ebp], 0
  01ade	7d 09		 jge	 SHORT $LN85@UseSkill
  01ae0	c7 45 90 00 00
	00 00		 mov	 DWORD PTR tv505[ebp], 0
  01ae7	eb 0f		 jmp	 SHORT $LN86@UseSkill
$LN85@UseSkill:
  01ae9	33 c0		 xor	 eax, eax
  01aeb	81 7d 20 97 3a
	00 00		 cmp	 DWORD PTR _aTargetIndex$[ebp], 14999 ; 00003a97H
  01af2	0f 9e c0	 setle	 al
  01af5	89 45 90	 mov	 DWORD PTR tv505[ebp], eax
$LN86@UseSkill:
  01af8	83 7d 90 00	 cmp	 DWORD PTR tv505[ebp], 0
  01afc	75 28		 jne	 SHORT $LN1@UseSkill

; 813  : 			{
; 814  : 				LogAddTD("[InvalidTargetIndex][CObjUseSkill.UseSkill][AT_SKILL_PHOENIXSHOT] Index :%d , AccountID : %s ",
; 815  : 					aIndex, gObj[aIndex].AccountID);

  01afe	8b 45 08	 mov	 eax, DWORD PTR _aIndex$[ebp]
  01b01	69 c0 38 2b 00
	00		 imul	 eax, 11064		; 00002b38H
  01b07	8b 0d 00 00 00
	00		 mov	 ecx, DWORD PTR ?gObj@@3PAUOBJECTSTRUCT@@A ; gObj
  01b0d	8d 54 01 6c	 lea	 edx, DWORD PTR [ecx+eax+108]
  01b11	52		 push	 edx
  01b12	8b 45 08	 mov	 eax, DWORD PTR _aIndex$[ebp]
  01b15	50		 push	 eax
  01b16	68 00 00 00 00	 push	 OFFSET ??_C@_0FO@JAMLMINI@?$FLInvalidTargetIndex?$FN?$FLCObjUseSkil@
  01b1b	ff 15 00 00 00
	00		 call	 DWORD PTR ?LogAddTD@@3P6AXPADZZA ; LogAddTD
  01b21	83 c4 0c	 add	 esp, 12			; 0000000cH

; 816  : 				return;

  01b24	eb 4a		 jmp	 SHORT $LN77@UseSkill
$LN1@UseSkill:

; 817  : 			}
; 818  : 			// ----
; 819  : 			this->SkillAreaMonsterAttack(aIndex, lpMagic, gObj[aTargetIndex].X, gObj[aTargetIndex].Y, aTargetIndex, 2, 1, 0);

  01b26	6a 00		 push	 0
  01b28	6a 01		 push	 1
  01b2a	6a 02		 push	 2
  01b2c	8b 45 20	 mov	 eax, DWORD PTR _aTargetIndex$[ebp]
  01b2f	50		 push	 eax
  01b30	8b 4d 20	 mov	 ecx, DWORD PTR _aTargetIndex$[ebp]
  01b33	69 c9 38 2b 00
	00		 imul	 ecx, 11064		; 00002b38H
  01b39	8b 15 00 00 00
	00		 mov	 edx, DWORD PTR ?gObj@@3PAUOBJECTSTRUCT@@A ; gObj
  01b3f	0f b6 84 0a 46
	01 00 00	 movzx	 eax, BYTE PTR [edx+ecx+326]
  01b47	50		 push	 eax
  01b48	8b 4d 20	 mov	 ecx, DWORD PTR _aTargetIndex$[ebp]
  01b4b	69 c9 38 2b 00
	00		 imul	 ecx, 11064		; 00002b38H
  01b51	8b 15 00 00 00
	00		 mov	 edx, DWORD PTR ?gObj@@3PAUOBJECTSTRUCT@@A ; gObj
  01b57	0f b6 84 0a 44
	01 00 00	 movzx	 eax, BYTE PTR [edx+ecx+324]
  01b5f	50		 push	 eax
  01b60	8b 4d 0c	 mov	 ecx, DWORD PTR _lpMagic$[ebp]
  01b63	51		 push	 ecx
  01b64	8b 55 08	 mov	 edx, DWORD PTR _aIndex$[ebp]
  01b67	52		 push	 edx
  01b68	8b 4d f8	 mov	 ecx, DWORD PTR _this$[ebp]
  01b6b	e8 00 00 00 00	 call	 ?SkillAreaMonsterAttack@CObjUseSkill@@QAEHHPAVCMagicInf@@EEHHHH@Z ; CObjUseSkill::SkillAreaMonsterAttack
$LN2@UseSkill:
$LN77@UseSkill:

; 820  : 		}
; 821  : 	}
; 822  : }

  01b70	5f		 pop	 edi
  01b71	5e		 pop	 esi
  01b72	5b		 pop	 ebx
  01b73	8b 4d fc	 mov	 ecx, DWORD PTR __$ArrayPad$[ebp]
  01b76	33 cd		 xor	 ecx, ebp
  01b78	e8 00 00 00 00	 call	 @__security_check_cookie@4
  01b7d	8b e5		 mov	 esp, ebp
  01b7f	5d		 pop	 ebp
  01b80	c2 1c 00	 ret	 28			; 0000001cH
  01b83	90		 npad	 1
$LN89@UseSkill:
  01b84	00 00 00 00	 DD	 $LN63@UseSkill
  01b88	00 00 00 00	 DD	 $LN62@UseSkill
$LN87@UseSkill:
  01b8c	00		 DB	 0
  01b8d	01		 DB	 1
  01b8e	01		 DB	 1
  01b8f	01		 DB	 1
  01b90	00		 DB	 0
  01b91	01		 DB	 1
  01b92	01		 DB	 1
  01b93	00		 DB	 0
  01b94	01		 DB	 1
  01b95	01		 DB	 1
  01b96	01		 DB	 1
  01b97	01		 DB	 1
  01b98	01		 DB	 1
  01b99	01		 DB	 1
  01b9a	01		 DB	 1
  01b9b	01		 DB	 1
  01b9c	01		 DB	 1
  01b9d	01		 DB	 1
  01b9e	01		 DB	 1
  01b9f	01		 DB	 1
  01ba0	01		 DB	 1
  01ba1	01		 DB	 1
  01ba2	01		 DB	 1
  01ba3	01		 DB	 1
  01ba4	01		 DB	 1
  01ba5	01		 DB	 1
  01ba6	01		 DB	 1
  01ba7	01		 DB	 1
  01ba8	01		 DB	 1
  01ba9	01		 DB	 1
  01baa	01		 DB	 1
  01bab	01		 DB	 1
  01bac	01		 DB	 1
  01bad	01		 DB	 1
  01bae	01		 DB	 1
  01baf	01		 DB	 1
  01bb0	01		 DB	 1
  01bb1	01		 DB	 1
  01bb2	01		 DB	 1
  01bb3	01		 DB	 1
  01bb4	01		 DB	 1
  01bb5	01		 DB	 1
  01bb6	01		 DB	 1
  01bb7	01		 DB	 1
  01bb8	01		 DB	 1
  01bb9	01		 DB	 1
  01bba	01		 DB	 1
  01bbb	00		 DB	 0
  01bbc	00		 DB	 0
  01bbd	01		 DB	 1
  01bbe	00		 DB	 0
  01bbf	01		 DB	 1
  01bc0	01		 DB	 1
  01bc1	01		 DB	 1
  01bc2	01		 DB	 1
  01bc3	01		 DB	 1
  01bc4	01		 DB	 1
  01bc5	00		 DB	 0
  01bc6	01		 DB	 1
  01bc7	01		 DB	 1
  01bc8	01		 DB	 1
  01bc9	00		 DB	 0
  01bca	01		 DB	 1
  01bcb	01		 DB	 1
  01bcc	00		 DB	 0
  01bcd	8d 49 00	 npad	 3
$LN90@UseSkill:
  01bd0	00 00 00 00	 DD	 $LN58@UseSkill
  01bd4	00 00 00 00	 DD	 $LN57@UseSkill
$LN88@UseSkill:
  01bd8	00		 DB	 0
  01bd9	01		 DB	 1
  01bda	01		 DB	 1
  01bdb	01		 DB	 1
  01bdc	01		 DB	 1
  01bdd	01		 DB	 1
  01bde	01		 DB	 1
  01bdf	01		 DB	 1
  01be0	01		 DB	 1
  01be1	01		 DB	 1
  01be2	00		 DB	 0
  01be3	00		 DB	 0
  01be4	00		 DB	 0
  01be5	01		 DB	 1
  01be6	01		 DB	 1
  01be7	01		 DB	 1
  01be8	01		 DB	 1
  01be9	01		 DB	 1
  01bea	01		 DB	 1
  01beb	01		 DB	 1
  01bec	01		 DB	 1
  01bed	01		 DB	 1
  01bee	01		 DB	 1
  01bef	01		 DB	 1
  01bf0	01		 DB	 1
  01bf1	01		 DB	 1
  01bf2	01		 DB	 1
  01bf3	01		 DB	 1
  01bf4	01		 DB	 1
  01bf5	01		 DB	 1
  01bf6	01		 DB	 1
  01bf7	01		 DB	 1
  01bf8	00		 DB	 0
?UseSkill@CObjUseSkill@@QAEXHPAVCMagicInf@@EEEEH@Z ENDP	; CObjUseSkill::UseSkill
_TEXT	ENDS
PUBLIC	?UseSkill@CObjUseSkill@@QAEXHHPAVCMagicInf@@@Z	; CObjUseSkill::UseSkill
; Function compile flags: /Odtp /ZI
_TEXT	SEGMENT
_usebp$240179 = -28					; size = 4
_usemana$ = -24						; size = 4
_lpMagic$240173 = -20					; size = 4
_bCombo$ = -16						; size = 4
_lpTargetObj$ = -12					; size = 4
_lpObj$ = -8						; size = 4
_this$ = -4						; size = 4
_aIndex$ = 8						; size = 4
_aTargetIndex$ = 12					; size = 4
_lpMagic$ = 16						; size = 4
?UseSkill@CObjUseSkill@@QAEXHHPAVCMagicInf@@@Z PROC	; CObjUseSkill::UseSkill
; _this$ = ecx

; 826  : {

  01c00	55		 push	 ebp
  01c01	8b ec		 mov	 ebp, esp
  01c03	83 ec 5c	 sub	 esp, 92			; 0000005cH
  01c06	53		 push	 ebx
  01c07	56		 push	 esi
  01c08	57		 push	 edi
  01c09	89 4d fc	 mov	 DWORD PTR _this$[ebp], ecx

; 827  : 	LPOBJ lpObj = &gObj[aIndex];

  01c0c	8b 45 08	 mov	 eax, DWORD PTR _aIndex$[ebp]
  01c0f	69 c0 38 2b 00
	00		 imul	 eax, 11064		; 00002b38H
  01c15	03 05 00 00 00
	00		 add	 eax, DWORD PTR ?gObj@@3PAUOBJECTSTRUCT@@A ; gObj
  01c1b	89 45 f8	 mov	 DWORD PTR _lpObj$[ebp], eax

; 828  : 	LPOBJ lpTargetObj = &gObj[aTargetIndex];

  01c1e	8b 45 0c	 mov	 eax, DWORD PTR _aTargetIndex$[ebp]
  01c21	69 c0 38 2b 00
	00		 imul	 eax, 11064		; 00002b38H
  01c27	03 05 00 00 00
	00		 add	 eax, DWORD PTR ?gObj@@3PAUOBJECTSTRUCT@@A ; gObj
  01c2d	89 45 f4	 mov	 DWORD PTR _lpTargetObj$[ebp], eax

; 829  : 
; 830  : 	int bCombo = 0;

  01c30	c7 45 f0 00 00
	00 00		 mov	 DWORD PTR _bCombo$[ebp], 0

; 831  : 
; 832  : 	if(gComboAttack.CheckCombo(aIndex,lpMagic->m_Skill))

  01c37	8b 45 10	 mov	 eax, DWORD PTR _lpMagic$[ebp]
  01c3a	8b 48 08	 mov	 ecx, DWORD PTR [eax+8]
  01c3d	51		 push	 ecx
  01c3e	8b 55 08	 mov	 edx, DWORD PTR _aIndex$[ebp]
  01c41	52		 push	 edx
  01c42	b9 00 00 00 00	 mov	 ecx, OFFSET ?gComboAttack@@3VCComboAttack@@A ; gComboAttack
  01c47	e8 00 00 00 00	 call	 ?CheckCombo@CComboAttack@@QAEHHH@Z ; CComboAttack::CheckCombo
  01c4c	85 c0		 test	 eax, eax
  01c4e	74 07		 je	 SHORT $LN9@UseSkill@2

; 833  : 	{
; 834  : 		bCombo = 1;

  01c50	c7 45 f0 01 00
	00 00		 mov	 DWORD PTR _bCombo$[ebp], 1
$LN9@UseSkill@2:

; 835  : 	}
; 836  : 
; 837  : #if(DEV_COMBO_CUSTOM==TRUE)
; 838  : 	if(g_ExLicense.user.ComboCustom)

  01c57	0f b6 05 d8 00
	00 00		 movzx	 eax, BYTE PTR ?g_ExLicense@@3VCExLicense@@A+216
  01c5e	85 c0		 test	 eax, eax
  01c60	74 10		 je	 SHORT $LN8@UseSkill@2

; 839  : 	{
; 840  : 		lpObj->NewCombo = bCombo;

  01c62	83 7d f0 00	 cmp	 DWORD PTR _bCombo$[ebp], 0
  01c66	0f 95 c0	 setne	 al
  01c69	8b 4d f8	 mov	 ecx, DWORD PTR _lpObj$[ebp]
  01c6c	88 81 80 28 00
	00		 mov	 BYTE PTR [ecx+10368], al
$LN8@UseSkill@2:

; 841  : 	}
; 842  : #endif
; 843  : 
; 844  : 	if(lpObj->SkillHellFire2State && lpMagic->m_Skill != AT_SKILL_EXPHELL)

  01c72	8b 45 f8	 mov	 eax, DWORD PTR _lpObj$[ebp]
  01c75	0f b6 88 14 11
	00 00		 movzx	 ecx, BYTE PTR [eax+4372]
  01c7c	85 c9		 test	 ecx, ecx
  01c7e	74 3d		 je	 SHORT $LN7@UseSkill@2
  01c80	8b 45 10	 mov	 eax, DWORD PTR _lpMagic$[ebp]
  01c83	83 78 08 28	 cmp	 DWORD PTR [eax+8], 40	; 00000028H
  01c87	74 34		 je	 SHORT $LN7@UseSkill@2

; 845  : 	{
; 846  : 		CMagicInf * lpMagic = gObjGetMagicSearch(lpObj,AT_SKILL_EXPHELL);

  01c89	6a 28		 push	 40			; 00000028H
  01c8b	8b 45 f8	 mov	 eax, DWORD PTR _lpObj$[ebp]
  01c8e	50		 push	 eax
  01c8f	e8 00 00 00 00	 call	 ?gObjGetMagicSearch@@YAPAVCMagicInf@@PAUOBJECTSTRUCT@@H@Z ; gObjGetMagicSearch
  01c94	83 c4 08	 add	 esp, 8
  01c97	89 45 ec	 mov	 DWORD PTR _lpMagic$240173[ebp], eax

; 847  : 
; 848  : 		if(lpMagic != 0)

  01c9a	83 7d ec 00	 cmp	 DWORD PTR _lpMagic$240173[ebp], 0
  01c9e	74 18		 je	 SHORT $LN6@UseSkill@2

; 849  : 		{
; 850  : 			gObjUseSkill.RunningSkill(lpObj->m_Index,0,lpMagic,0);

  01ca0	6a 00		 push	 0
  01ca2	8b 45 ec	 mov	 eax, DWORD PTR _lpMagic$240173[ebp]
  01ca5	50		 push	 eax
  01ca6	6a 00		 push	 0
  01ca8	8b 4d f8	 mov	 ecx, DWORD PTR _lpObj$[ebp]
  01cab	8b 11		 mov	 edx, DWORD PTR [ecx]
  01cad	52		 push	 edx
  01cae	b9 00 00 00 00	 mov	 ecx, OFFSET ?gObjUseSkill@@3VCObjUseSkill@@A ; gObjUseSkill
  01cb3	e8 00 00 00 00	 call	 ?RunningSkill@CObjUseSkill@@QAEHHHPAVCMagicInf@@H@Z ; CObjUseSkill::RunningSkill
$LN6@UseSkill@2:

; 851  : 		}
; 852  : 
; 853  : 		return;

  01cb8	e9 64 01 00 00	 jmp	 $LN10@UseSkill@2
$LN7@UseSkill@2:

; 854  : 	}
; 855  : 
; 856  : 	if(lpMagic->m_Skill == AT_SKILL_EXPHELL && aTargetIndex != 58)

  01cbd	8b 45 10	 mov	 eax, DWORD PTR _lpMagic$[ebp]
  01cc0	83 78 08 28	 cmp	 DWORD PTR [eax+8], 40	; 00000028H
  01cc4	75 4b		 jne	 SHORT $LN5@UseSkill@2
  01cc6	83 7d 0c 3a	 cmp	 DWORD PTR _aTargetIndex$[ebp], 58 ; 0000003aH
  01cca	74 45		 je	 SHORT $LN5@UseSkill@2

; 857  : 	{
; 858  : 		this->RunningSkill(aIndex,aTargetIndex,lpMagic,bCombo);

  01ccc	8b 45 f0	 mov	 eax, DWORD PTR _bCombo$[ebp]
  01ccf	50		 push	 eax
  01cd0	8b 4d 10	 mov	 ecx, DWORD PTR _lpMagic$[ebp]
  01cd3	51		 push	 ecx
  01cd4	8b 55 0c	 mov	 edx, DWORD PTR _aTargetIndex$[ebp]
  01cd7	52		 push	 edx
  01cd8	8b 45 08	 mov	 eax, DWORD PTR _aIndex$[ebp]
  01cdb	50		 push	 eax
  01cdc	8b 4d fc	 mov	 ecx, DWORD PTR _this$[ebp]
  01cdf	e8 00 00 00 00	 call	 ?RunningSkill@CObjUseSkill@@QAEHHHPAVCMagicInf@@H@Z ; CObjUseSkill::RunningSkill

; 859  : 		lpObj->UseMagicNumber = lpMagic->m_Skill;

  01ce4	8b 45 f8	 mov	 eax, DWORD PTR _lpObj$[ebp]
  01ce7	8b 4d 10	 mov	 ecx, DWORD PTR _lpMagic$[ebp]
  01cea	8a 51 08	 mov	 dl, BYTE PTR [ecx+8]
  01ced	88 90 cd 04 00
	00		 mov	 BYTE PTR [eax+1229], dl

; 860  : 		lpObj->UseMagicTime = GetTickCount();

  01cf3	ff 15 00 00 00
	00		 call	 DWORD PTR __imp__GetTickCount@0
  01cf9	8b 4d f8	 mov	 ecx, DWORD PTR _lpObj$[ebp]
  01cfc	89 81 d0 04 00
	00		 mov	 DWORD PTR [ecx+1232], eax

; 861  : 		lpObj->UseMagicCount = 0;

  01d02	8b 45 f8	 mov	 eax, DWORD PTR _lpObj$[ebp]
  01d05	c6 80 d4 04 00
	00 00		 mov	 BYTE PTR [eax+1236], 0

; 862  : 		return;

  01d0c	e9 10 01 00 00	 jmp	 $LN10@UseSkill@2
$LN5@UseSkill@2:

; 863  : 	}
; 864  : 
; 865  : 	int usemana = this->GetUseMana(aIndex,lpMagic);

  01d11	8b 45 10	 mov	 eax, DWORD PTR _lpMagic$[ebp]
  01d14	50		 push	 eax
  01d15	8b 4d 08	 mov	 ecx, DWORD PTR _aIndex$[ebp]
  01d18	51		 push	 ecx
  01d19	8b 4d fc	 mov	 ecx, DWORD PTR _this$[ebp]
  01d1c	e8 00 00 00 00	 call	 ?GetUseMana@CObjUseSkill@@QAEHHPAVCMagicInf@@@Z ; CObjUseSkill::GetUseMana
  01d21	89 45 e8	 mov	 DWORD PTR _usemana$[ebp], eax

; 866  : 
; 867  : #ifdef DEBUG_CODE
; 868  : 	LogAddC(4,"usemana: %d ",usemana);
; 869  : #endif
; 870  : 
; 871  : 	if(usemana >= 0)

  01d24	83 7d e8 00	 cmp	 DWORD PTR _usemana$[ebp], 0
  01d28	0f 8c f3 00 00
	00		 jl	 $LN1@UseSkill@2

; 872  : 	{
; 873  : 		if(!gObj[aIndex].SkillDelay.Check(lpMagic->m_Skill))

  01d2e	8b 45 10	 mov	 eax, DWORD PTR _lpMagic$[ebp]
  01d31	0f b6 48 08	 movzx	 ecx, BYTE PTR [eax+8]
  01d35	51		 push	 ecx
  01d36	8b 55 08	 mov	 edx, DWORD PTR _aIndex$[ebp]
  01d39	69 d2 38 2b 00
	00		 imul	 edx, 11064		; 00002b38H
  01d3f	a1 00 00 00 00	 mov	 eax, DWORD PTR ?gObj@@3PAUOBJECTSTRUCT@@A ; gObj
  01d44	8d 8c 10 7c 12
	00 00		 lea	 ecx, DWORD PTR [eax+edx+4732]
  01d4b	e8 00 00 00 00	 call	 ?Check@CSkillDelay@@QAEHE@Z ; CSkillDelay::Check
  01d50	85 c0		 test	 eax, eax
  01d52	75 27		 jne	 SHORT $LN3@UseSkill@2

; 874  : 		{
; 875  : 			LogAddTD("[%]   ",gObj[aIndex].AccountID); //HermeX Fix

  01d54	8b 45 08	 mov	 eax, DWORD PTR _aIndex$[ebp]
  01d57	69 c0 38 2b 00
	00		 imul	 eax, 11064		; 00002b38H
  01d5d	8b 0d 00 00 00
	00		 mov	 ecx, DWORD PTR ?gObj@@3PAUOBJECTSTRUCT@@A ; gObj
  01d63	8d 54 01 6c	 lea	 edx, DWORD PTR [ecx+eax+108]
  01d67	52		 push	 edx
  01d68	68 00 00 00 00	 push	 OFFSET ??_C@_0BJ@CPAKELEB@?$FL?$CF?$FN?5?$LN?$LK?E?$LD?5?$LF?t?$LH?$LJ?$MA?L?$LN?C?$LA?$KD?5?$LP?$MA?$LJ?v?$AA@
  01d6d	ff 15 00 00 00
	00		 call	 DWORD PTR ?LogAddTD@@3P6AXPADZZA ; LogAddTD
  01d73	83 c4 08	 add	 esp, 8

; 876  : 			return;

  01d76	e9 a6 00 00 00	 jmp	 $LN10@UseSkill@2
$LN3@UseSkill@2:

; 877  : 		}
; 878  : 
; 879  : 		int usebp = this->GetUseBP(aIndex,lpMagic);

  01d7b	8b 45 10	 mov	 eax, DWORD PTR _lpMagic$[ebp]
  01d7e	50		 push	 eax
  01d7f	8b 4d 08	 mov	 ecx, DWORD PTR _aIndex$[ebp]
  01d82	51		 push	 ecx
  01d83	8b 4d fc	 mov	 ecx, DWORD PTR _this$[ebp]
  01d86	e8 00 00 00 00	 call	 ?GetUseBP@CObjUseSkill@@QAEHHPAVCMagicInf@@@Z ; CObjUseSkill::GetUseBP
  01d8b	89 45 e4	 mov	 DWORD PTR _usebp$240179[ebp], eax

; 880  : 
; 881  : 		if(usebp >= 0)

  01d8e	83 7d e4 00	 cmp	 DWORD PTR _usebp$240179[ebp], 0
  01d92	0f 8c 89 00 00
	00		 jl	 $LN1@UseSkill@2

; 882  : 		{
; 883  : 			if(this->RunningSkill(aIndex,aTargetIndex,lpMagic,bCombo)==1)

  01d98	8b 45 f0	 mov	 eax, DWORD PTR _bCombo$[ebp]
  01d9b	50		 push	 eax
  01d9c	8b 4d 10	 mov	 ecx, DWORD PTR _lpMagic$[ebp]
  01d9f	51		 push	 ecx
  01da0	8b 55 0c	 mov	 edx, DWORD PTR _aTargetIndex$[ebp]
  01da3	52		 push	 edx
  01da4	8b 45 08	 mov	 eax, DWORD PTR _aIndex$[ebp]
  01da7	50		 push	 eax
  01da8	8b 4d fc	 mov	 ecx, DWORD PTR _this$[ebp]
  01dab	e8 00 00 00 00	 call	 ?RunningSkill@CObjUseSkill@@QAEHHHPAVCMagicInf@@H@Z ; CObjUseSkill::RunningSkill
  01db0	83 f8 01	 cmp	 eax, 1
  01db3	75 6c		 jne	 SHORT $LN1@UseSkill@2

; 884  : 			{
; 885  : 				lpObj->UseMagicNumber = lpMagic->m_Skill;

  01db5	8b 45 f8	 mov	 eax, DWORD PTR _lpObj$[ebp]
  01db8	8b 4d 10	 mov	 ecx, DWORD PTR _lpMagic$[ebp]
  01dbb	8a 51 08	 mov	 dl, BYTE PTR [ecx+8]
  01dbe	88 90 cd 04 00
	00		 mov	 BYTE PTR [eax+1229], dl

; 886  : 				lpObj->UseMagicTime = GetTickCount();

  01dc4	ff 15 00 00 00
	00		 call	 DWORD PTR __imp__GetTickCount@0
  01dca	8b 4d f8	 mov	 ecx, DWORD PTR _lpObj$[ebp]
  01dcd	89 81 d0 04 00
	00		 mov	 DWORD PTR [ecx+1232], eax

; 887  : 				lpObj->UseMagicCount = 0;

  01dd3	8b 45 f8	 mov	 eax, DWORD PTR _lpObj$[ebp]
  01dd6	c6 80 d4 04 00
	00 00		 mov	 BYTE PTR [eax+1236], 0

; 888  : 
; 889  : 				lpObj->Mana = (float)usemana;

  01ddd	db 45 e8	 fild	 DWORD PTR _usemana$[ebp]
  01de0	8b 45 f8	 mov	 eax, DWORD PTR _lpObj$[ebp]
  01de3	d9 98 10 01 00
	00		 fstp	 DWORD PTR [eax+272]

; 890  : 				lpObj->BP = usebp;

  01de9	8b 45 f8	 mov	 eax, DWORD PTR _lpObj$[ebp]
  01dec	8b 4d e4	 mov	 ecx, DWORD PTR _usebp$240179[ebp]
  01def	89 88 28 01 00
	00		 mov	 DWORD PTR [eax+296], ecx

; 891  : 
; 892  : #ifdef DEBUG_CODE
; 893  : 				LogAddC(2,"lpObj->Mana: %d",lpObj->Mana);
; 894  : #endif
; 895  : 
; 896  : 				GCManaSend(aIndex,lpObj->Mana,0xFF,0,lpObj->BP);

  01df5	8b 45 f8	 mov	 eax, DWORD PTR _lpObj$[ebp]
  01df8	8b 88 28 01 00
	00		 mov	 ecx, DWORD PTR [eax+296]
  01dfe	51		 push	 ecx
  01dff	6a 00		 push	 0
  01e01	68 ff 00 00 00	 push	 255			; 000000ffH
  01e06	8b 55 f8	 mov	 edx, DWORD PTR _lpObj$[ebp]
  01e09	d9 82 10 01 00
	00		 fld	 DWORD PTR [edx+272]
  01e0f	e8 00 00 00 00	 call	 __ftol2_sse
  01e14	50		 push	 eax
  01e15	8b 45 08	 mov	 eax, DWORD PTR _aIndex$[ebp]
  01e18	50		 push	 eax
  01e19	e8 00 00 00 00	 call	 ?GCManaSend@@YAXHHEEH@Z	; GCManaSend
  01e1e	83 c4 14	 add	 esp, 20			; 00000014H
$LN1@UseSkill@2:
$LN10@UseSkill@2:

; 897  : 			}
; 898  : 		}
; 899  : 	}
; 900  : }

  01e21	5f		 pop	 edi
  01e22	5e		 pop	 esi
  01e23	5b		 pop	 ebx
  01e24	8b e5		 mov	 esp, ebp
  01e26	5d		 pop	 ebp
  01e27	c2 0c 00	 ret	 12			; 0000000cH
?UseSkill@CObjUseSkill@@QAEXHHPAVCMagicInf@@@Z ENDP	; CObjUseSkill::UseSkill
_TEXT	ENDS
PUBLIC	?SkillCharge@CObjUseSkill@@QAEHHPAVCMagicInf@@H@Z ; CObjUseSkill::SkillCharge
PUBLIC	?SkillMonkBarrageJustOneTarget@CObjUseSkill@@QAEXHPAVCMagicInf@@H@Z ; CObjUseSkill::SkillMonkBarrageJustOneTarget
PUBLIC	?SkillMonkBuffApplyParty@CObjUseSkill@@QAEHHPAVCMagicInf@@@Z ; CObjUseSkill::SkillMonkBuffApplyParty
PUBLIC	?SkillMonkBuff@CObjUseSkill@@QAEHHPAVCMagicInf@@@Z ; CObjUseSkill::SkillMonkBuff
PUBLIC	?SkillExpansionWizardry@CObjUseSkill@@QAEHHHPAVCMagicInf@@@Z ; CObjUseSkill::SkillExpansionWizardry
PUBLIC	?SkillSDRecovery@CObjUseSkill@@QAEXHHPAVCMagicInf@@@Z ; CObjUseSkill::SkillSDRecovery
PUBLIC	?SkillBerserker@CObjUseSkill@@QAEHHPAVCMagicInf@@@Z ; CObjUseSkill::SkillBerserker
PUBLIC	?SkillBlind@CObjUseSkill@@QAEHHHPAVCMagicInf@@@Z ; CObjUseSkill::SkillBlind
PUBLIC	?SkillSleep@CObjUseSkill@@QAEHHHPAVCMagicInf@@@Z ; CObjUseSkill::SkillSleep
PUBLIC	?SkillDamageReflection@CObjUseSkill@@QAEHHHPAVCMagicInf@@@Z ; CObjUseSkill::SkillDamageReflection
PUBLIC	?SkillInfinityArrow@CObjUseSkill@@QAEHHHPAVCMagicInf@@@Z ; CObjUseSkill::SkillInfinityArrow
PUBLIC	?SkillRemoveMagic@CObjUseSkill@@QAEHHHPAVCMagicInf@@@Z ; CObjUseSkill::SkillRemoveMagic
PUBLIC	?SkillRemoveCloaking@CObjUseSkill@@QAEHHHPAVCMagicInf@@@Z ; CObjUseSkill::SkillRemoveCloaking
PUBLIC	?SkillCloaking@CObjUseSkill@@QAEHHHPAVCMagicInf@@@Z ; CObjUseSkill::SkillCloaking
PUBLIC	?SkillAddMana@CObjUseSkill@@QAEHHHPAVCMagicInf@@@Z ; CObjUseSkill::SkillAddMana
PUBLIC	?SkillRemoveStun@CObjUseSkill@@QAEHHHPAVCMagicInf@@@Z ; CObjUseSkill::SkillRemoveStun
PUBLIC	?SkillBrandOfSkill@CObjUseSkill@@QAEHHHPAVCMagicInf@@@Z ; CObjUseSkill::SkillBrandOfSkill
PUBLIC	?SkillDarklordSpaceSplit@CObjUseSkill@@QAEHHHPAVCMagicInf@@@Z ; CObjUseSkill::SkillDarklordSpaceSplit
PUBLIC	?SkillMagumDeathCannon@CObjUseSkill@@QAEHHHPAVCMagicInf@@@Z ; CObjUseSkill::SkillMagumDeathCannon
PUBLIC	?SkillMagumOneFlash@CObjUseSkill@@QAEHHHPAVCMagicInf@@@Z ; CObjUseSkill::SkillMagumOneFlash
PUBLIC	?SkillElfRush@CObjUseSkill@@QAEHHHPAVCMagicInf@@@Z ; CObjUseSkill::SkillElfRush
PUBLIC	?SkillWizardJavalin@CObjUseSkill@@QAEHHHPAVCMagicInf@@@Z ; CObjUseSkill::SkillWizardJavalin
PUBLIC	?SkillKnightRush@CObjUseSkill@@QAEHHHPAVCMagicInf@@@Z ; CObjUseSkill::SkillKnightRush
PUBLIC	?SkillImmuneToHarm@CObjUseSkill@@QAEHHPAVCMagicInf@@@Z ; CObjUseSkill::SkillImmuneToHarm
PUBLIC	?SkillImmuneToMagic@CObjUseSkill@@QAEHHPAVCMagicInf@@@Z ; CObjUseSkill::SkillImmuneToMagic
PUBLIC	?SkillSummon@CObjUseSkill@@QAEHHHPAVCMagicInf@@@Z ; CObjUseSkill::SkillSummon
PUBLIC	?MaGumSkillDefenseDown@CObjUseSkill@@QAEXHHH@Z	; CObjUseSkill::MaGumSkillDefenseDown
PUBLIC	?SkillAddCriticalDamage@CObjUseSkill@@QAEXHH@Z	; CObjUseSkill::SkillAddCriticalDamage
PUBLIC	?SkillRecallParty@CObjUseSkill@@QAEXHH@Z	; CObjUseSkill::SkillRecallParty
PUBLIC	?SkillFireBurst@CObjUseSkill@@QAEHHHPAVCMagicInf@@@Z ; CObjUseSkill::SkillFireBurst
PUBLIC	?SkillSpear@CObjUseSkill@@QAEHHHPAVCMagicInf@@@Z ; CObjUseSkill::SkillSpear
PUBLIC	?SkillKnightBlow@CObjUseSkill@@QAEHHHPAVCMagicInf@@H@Z ; CObjUseSkill::SkillKnightBlow
PUBLIC	?SkillHellFire2@CObjUseSkill@@QAEHHHPAVCMagicInf@@@Z ; CObjUseSkill::SkillHellFire2
PUBLIC	?SkillMonsterCall@CObjUseSkill@@QAEHHHHH@Z	; CObjUseSkill::SkillMonsterCall
PUBLIC	?SkillAttack@CObjUseSkill@@QAEXHHH@Z		; CObjUseSkill::SkillAttack
PUBLIC	?SkillDefense@CObjUseSkill@@QAEXHHH@Z		; CObjUseSkill::SkillDefense
PUBLIC	?KnightSkillAddLife@CObjUseSkill@@QAEXHH@Z	; CObjUseSkill::KnightSkillAddLife
PUBLIC	?WizardMagicDefense@CObjUseSkill@@QAEXHHH@Z	; CObjUseSkill::WizardMagicDefense
PUBLIC	?SkillHealing@CObjUseSkill@@QAEXHHH@Z		; CObjUseSkill::SkillHealing
PUBLIC	?RemoveCloakingEffect@CObjUseSkill@@QAEHH@Z	; CObjUseSkill::RemoveCloakingEffect
EXTRN	?gObjAttack@@YAHPAUOBJECTSTRUCT@@0PAVCMagicInf@@HEHHEE@Z:PROC ; gObjAttack
EXTRN	?GCActionSend@@YAXPAUOBJECTSTRUCT@@EHH@Z:PROC	; GCActionSend
EXTRN	?IsItem@CItem@@QAEHXZ:PROC			; CItem::IsItem
; Function compile flags: /Odtp /ZI
_TEXT	SEGMENT
tv95 = -84						; size = 4
_MagicNumber$ = -16					; size = 4
_lpTargetObj$ = -12					; size = 4
_lpObj$ = -8						; size = 4
_this$ = -4						; size = 4
_aIndex$ = 8						; size = 4
_aTargetIndex$ = 12					; size = 4
_lpMagic$ = 16						; size = 4
_bCombo$ = 20						; size = 4
?RunningSkill@CObjUseSkill@@QAEHHHPAVCMagicInf@@H@Z PROC ; CObjUseSkill::RunningSkill
; _this$ = ecx

; 903  : {

  01e30	55		 push	 ebp
  01e31	8b ec		 mov	 ebp, esp
  01e33	83 ec 54	 sub	 esp, 84			; 00000054H
  01e36	53		 push	 ebx
  01e37	56		 push	 esi
  01e38	57		 push	 edi
  01e39	89 4d fc	 mov	 DWORD PTR _this$[ebp], ecx

; 904  : 	LPOBJ lpObj = &gObj[aIndex];

  01e3c	8b 45 08	 mov	 eax, DWORD PTR _aIndex$[ebp]
  01e3f	69 c0 38 2b 00
	00		 imul	 eax, 11064		; 00002b38H
  01e45	03 05 00 00 00
	00		 add	 eax, DWORD PTR ?gObj@@3PAUOBJECTSTRUCT@@A ; gObj
  01e4b	89 45 f8	 mov	 DWORD PTR _lpObj$[ebp], eax

; 905  : 	LPOBJ lpTargetObj = &gObj[aTargetIndex];

  01e4e	8b 45 0c	 mov	 eax, DWORD PTR _aTargetIndex$[ebp]
  01e51	69 c0 38 2b 00
	00		 imul	 eax, 11064		; 00002b38H
  01e57	03 05 00 00 00
	00		 add	 eax, DWORD PTR ?gObj@@3PAUOBJECTSTRUCT@@A ; gObj
  01e5d	89 45 f4	 mov	 DWORD PTR _lpTargetObj$[ebp], eax

; 906  : 	DWORD MagicNumber = lpMagic->m_Skill;

  01e60	8b 45 10	 mov	 eax, DWORD PTR _lpMagic$[ebp]
  01e63	8b 48 08	 mov	 ecx, DWORD PTR [eax+8]
  01e66	89 4d f0	 mov	 DWORD PTR _MagicNumber$[ebp], ecx

; 907  : 
; 908  : 	lpObj->m_SkillNumber = MagicNumber;

  01e69	8b 45 f8	 mov	 eax, DWORD PTR _lpObj$[ebp]
  01e6c	66 8b 4d f0	 mov	 cx, WORD PTR _MagicNumber$[ebp]
  01e70	66 89 88 d8 03
	00 00		 mov	 WORD PTR [eax+984], cx

; 909  : 
; 910  : 	if( (gObjSearchActiveEffect(lpObj, AT_INVISIBILITY) == TRUE) && ((lpObj->Authority&32) != 32) ) //season3 add-on

  01e77	6a 12		 push	 18			; 00000012H
  01e79	8b 45 f8	 mov	 eax, DWORD PTR _lpObj$[ebp]
  01e7c	50		 push	 eax
  01e7d	e8 00 00 00 00	 call	 ?gObjSearchActiveEffect@@YAEPAUOBJECTSTRUCT@@H@Z ; gObjSearchActiveEffect
  01e82	83 c4 08	 add	 esp, 8
  01e85	0f b6 c8	 movzx	 ecx, al
  01e88	83 f9 01	 cmp	 ecx, 1
  01e8b	75 1c		 jne	 SHORT $LN57@RunningSki
  01e8d	8b 45 f8	 mov	 eax, DWORD PTR _lpObj$[ebp]
  01e90	8b 88 0c 02 00
	00		 mov	 ecx, DWORD PTR [eax+524]
  01e96	83 e1 20	 and	 ecx, 32			; 00000020H
  01e99	75 0e		 jne	 SHORT $LN57@RunningSki

; 911  : 	{
; 912  : 		this->RemoveCloakingEffect(lpObj->m_Index);

  01e9b	8b 45 f8	 mov	 eax, DWORD PTR _lpObj$[ebp]
  01e9e	8b 08		 mov	 ecx, DWORD PTR [eax]
  01ea0	51		 push	 ecx
  01ea1	8b 4d fc	 mov	 ecx, DWORD PTR _this$[ebp]
  01ea4	e8 00 00 00 00	 call	 ?RemoveCloakingEffect@CObjUseSkill@@QAEHH@Z ; CObjUseSkill::RemoveCloakingEffect
$LN57@RunningSki:

; 913  : 	}
; 914  : 
; 915  : 	if(g_MasterSkillSystem.CheckRequireStatus(lpMagic->m_Skill) != FALSE) //Season3 add-on

  01ea9	8b 45 10	 mov	 eax, DWORD PTR _lpMagic$[ebp]
  01eac	8b 48 08	 mov	 ecx, DWORD PTR [eax+8]
  01eaf	51		 push	 ecx
  01eb0	b9 00 00 00 00	 mov	 ecx, OFFSET ?g_MasterSkillSystem@@3VCMasterLevelSkillTreeSystem@@A ; g_MasterSkillSystem
  01eb5	e8 00 00 00 00	 call	 ?CheckRequireStatus@CMasterLevelSkillTreeSystem@@QAEHH@Z ; CMasterLevelSkillTreeSystem::CheckRequireStatus
  01eba	85 c0		 test	 eax, eax
  01ebc	74 27		 je	 SHORT $LN56@RunningSki

; 916  : 	{
; 917  : 		return g_MasterSkillSystem.RunningSkill(lpObj, aTargetIndex, lpMagic, bCombo, 0, 0, 0, 0);

  01ebe	6a 00		 push	 0
  01ec0	6a 00		 push	 0
  01ec2	6a 00		 push	 0
  01ec4	6a 00		 push	 0
  01ec6	8b 45 14	 mov	 eax, DWORD PTR _bCombo$[ebp]
  01ec9	50		 push	 eax
  01eca	8b 4d 10	 mov	 ecx, DWORD PTR _lpMagic$[ebp]
  01ecd	51		 push	 ecx
  01ece	8b 55 0c	 mov	 edx, DWORD PTR _aTargetIndex$[ebp]
  01ed1	52		 push	 edx
  01ed2	8b 45 f8	 mov	 eax, DWORD PTR _lpObj$[ebp]
  01ed5	50		 push	 eax
  01ed6	b9 00 00 00 00	 mov	 ecx, OFFSET ?g_MasterSkillSystem@@3VCMasterLevelSkillTreeSystem@@A ; g_MasterSkillSystem
  01edb	e8 00 00 00 00	 call	 ?RunningSkill@CMasterLevelSkillTreeSystem@@QAEHPAUOBJECTSTRUCT@@HPAVCMagicInf@@HEEEE@Z ; CMasterLevelSkillTreeSystem::RunningSkill
  01ee0	e9 9e 06 00 00	 jmp	 $LN58@RunningSki
$LN56@RunningSki:

; 918  : 	}
; 919  : 
; 920  : 	switch(MagicNumber)

  01ee5	8b 45 f0	 mov	 eax, DWORD PTR _MagicNumber$[ebp]
  01ee8	89 45 ac	 mov	 DWORD PTR tv95[ebp], eax
  01eeb	81 7d ac 07 01
	00 00		 cmp	 DWORD PTR tv95[ebp], 263 ; 00000107H
  01ef2	77 34		 ja	 SHORT $LN60@RunningSki
  01ef4	81 7d ac 04 01
	00 00		 cmp	 DWORD PTR tv95[ebp], 260 ; 00000104H
  01efb	0f 83 0f 06 00
	00		 jae	 $LN4@RunningSki
  01f01	8b 4d ac	 mov	 ecx, DWORD PTR tv95[ebp]
  01f04	83 e9 01	 sub	 ecx, 1
  01f07	89 4d ac	 mov	 DWORD PTR tv95[ebp], ecx
  01f0a	81 7d ac e9 00
	00 00		 cmp	 DWORD PTR tv95[ebp], 233 ; 000000e9H
  01f11	0f 87 47 06 00
	00		 ja	 $LN1@RunningSki
  01f17	8b 55 ac	 mov	 edx, DWORD PTR tv95[ebp]
  01f1a	0f b6 82 00 00
	00 00		 movzx	 eax, BYTE PTR $LN61@RunningSki[edx]
  01f21	ff 24 85 00 00
	00 00		 jmp	 DWORD PTR $LN62@RunningSki[eax*4]
$LN60@RunningSki:
  01f28	8b 4d ac	 mov	 ecx, DWORD PTR tv95[ebp]
  01f2b	81 e9 09 01 00
	00		 sub	 ecx, 265		; 00000109H
  01f31	89 4d ac	 mov	 DWORD PTR tv95[ebp], ecx
  01f34	83 7d ac 04	 cmp	 DWORD PTR tv95[ebp], 4
  01f38	0f 87 20 06 00
	00		 ja	 $LN1@RunningSki
  01f3e	8b 55 ac	 mov	 edx, DWORD PTR tv95[ebp]
  01f41	ff 24 95 00 00
	00 00		 jmp	 DWORD PTR $LN63@RunningSki[edx*4]
$LN53@RunningSki:

; 921  : 	{
; 922  : 	case AT_SKILL_BLOCKING:
; 923  : 		if(lpObj->pInventory[1].IsItem() == 1)

  01f48	8b 45 f8	 mov	 eax, DWORD PTR _lpObj$[ebp]
  01f4b	8b 88 24 0e 00
	00		 mov	 ecx, DWORD PTR [eax+3620]
  01f51	81 c1 d4 00 00
	00		 add	 ecx, 212		; 000000d4H
  01f57	e8 00 00 00 00	 call	 ?IsItem@CItem@@QAEHXZ	; CItem::IsItem
  01f5c	83 f8 01	 cmp	 eax, 1
  01f5f	75 70		 jne	 SHORT $LN52@RunningSki

; 924  : 		{
; 925  : 			if(lpObj->pInventory[1].m_Type >= ITEMGET(6,4) && lpObj->pInventory[1].m_Type < ITEMGET(7,0))

  01f61	8b 45 f8	 mov	 eax, DWORD PTR _lpObj$[ebp]
  01f64	8b 88 24 0e 00
	00		 mov	 ecx, DWORD PTR [eax+3620]
  01f6a	0f bf 91 da 00
	00 00		 movsx	 edx, WORD PTR [ecx+218]
  01f71	81 fa 04 0c 00
	00		 cmp	 edx, 3076		; 00000c04H
  01f77	7c 58		 jl	 SHORT $LN52@RunningSki
  01f79	8b 45 f8	 mov	 eax, DWORD PTR _lpObj$[ebp]
  01f7c	8b 88 24 0e 00
	00		 mov	 ecx, DWORD PTR [eax+3620]
  01f82	0f bf 91 da 00
	00 00		 movsx	 edx, WORD PTR [ecx+218]
  01f89	81 fa 00 0e 00
	00		 cmp	 edx, 3584		; 00000e00H
  01f8f	7d 40		 jge	 SHORT $LN52@RunningSki

; 926  : 			{
; 927  : 				if(lpObj->pInventory[1].m_Option1 != 0)

  01f91	8b 45 f8	 mov	 eax, DWORD PTR _lpObj$[ebp]
  01f94	8b 88 24 0e 00
	00		 mov	 ecx, DWORD PTR [eax+3620]
  01f9a	0f b6 91 68 01
	00 00		 movzx	 edx, BYTE PTR [ecx+360]
  01fa1	85 d2		 test	 edx, edx
  01fa3	74 2c		 je	 SHORT $LN52@RunningSki

; 928  : 				{
; 929  : 					lpObj->m_SkillTime = GetTickCount() + 4000;

  01fa5	ff 15 00 00 00
	00		 call	 DWORD PTR __imp__GetTickCount@0
  01fab	05 a0 0f 00 00	 add	 eax, 4000		; 00000fa0H
  01fb0	8b 4d f8	 mov	 ecx, DWORD PTR _lpObj$[ebp]
  01fb3	89 81 dc 03 00
	00		 mov	 DWORD PTR [ecx+988], eax

; 930  : 					GCActionSend(lpObj,18,lpObj->m_Index,aTargetIndex);

  01fb9	8b 45 0c	 mov	 eax, DWORD PTR _aTargetIndex$[ebp]
  01fbc	50		 push	 eax
  01fbd	8b 4d f8	 mov	 ecx, DWORD PTR _lpObj$[ebp]
  01fc0	8b 11		 mov	 edx, DWORD PTR [ecx]
  01fc2	52		 push	 edx
  01fc3	6a 12		 push	 18			; 00000012H
  01fc5	8b 45 f8	 mov	 eax, DWORD PTR _lpObj$[ebp]
  01fc8	50		 push	 eax
  01fc9	e8 00 00 00 00	 call	 ?GCActionSend@@YAXPAUOBJECTSTRUCT@@EHH@Z ; GCActionSend
  01fce	83 c4 10	 add	 esp, 16			; 00000010H
$LN52@RunningSki:

; 931  : 				}
; 932  : 			}
; 933  : 		}
; 934  : 		break;

  01fd1	e9 a8 05 00 00	 jmp	 $LN54@RunningSki
$LN49@RunningSki:

; 935  : 	case AT_SKILL_POISON:
; 936  : 	case AT_SKILL_METEO:
; 937  : 	case AT_SKILL_THUNDER:
; 938  : 	case AT_SKILL_FIREBALL:
; 939  : 	case AT_SKILL_FLAME:
; 940  : 	case AT_SKILL_SLOW:
; 941  : 	case AT_SKILL_ENERGYBALL:
; 942  : 	case AT_SKILL_SWORD1:
; 943  : 	case AT_SKILL_SWORD2:
; 944  : 	case AT_SKILL_SWORD3:
; 945  : 	case AT_SKILL_SWORD4:
; 946  : 	case AT_SKILL_SWORD5:
; 947  : 	case AT_SKILL_CROSSBOW:
; 948  : 	case AT_SKILL_BOW:
; 949  : 	case AT_SKILL_WHEEL:
; 950  : 	case AT_SKILL_BLOWOFFURY:
; 951  : 	case AT_SKILL_KNIGHTSPEAR:
; 952  : 	case AT_SKILL_PENETRATION:
; 953  : 	case AT_SKILL_SWORD6:
; 954  : 		{
; 955  : 			gObjAttack(lpObj,lpTargetObj,lpMagic,1,0,0,0,0,0);

  01fd6	6a 00		 push	 0
  01fd8	6a 00		 push	 0
  01fda	6a 00		 push	 0
  01fdc	6a 00		 push	 0
  01fde	6a 00		 push	 0
  01fe0	6a 01		 push	 1
  01fe2	8b 45 10	 mov	 eax, DWORD PTR _lpMagic$[ebp]
  01fe5	50		 push	 eax
  01fe6	8b 4d f4	 mov	 ecx, DWORD PTR _lpTargetObj$[ebp]
  01fe9	51		 push	 ecx
  01fea	8b 55 f8	 mov	 edx, DWORD PTR _lpObj$[ebp]
  01fed	52		 push	 edx
  01fee	e8 00 00 00 00	 call	 ?gObjAttack@@YAHPAUOBJECTSTRUCT@@0PAVCMagicInf@@HEHHEE@Z ; gObjAttack
  01ff3	83 c4 24	 add	 esp, 36			; 00000024H

; 956  : 			break;

  01ff6	e9 83 05 00 00	 jmp	 $LN54@RunningSki
$LN48@RunningSki:

; 957  : 		}
; 958  : 	case AT_SKILL_HEALING:	this->SkillHealing(aIndex,aTargetIndex,lpMagic->m_Level);break;

  01ffb	8b 45 10	 mov	 eax, DWORD PTR _lpMagic$[ebp]
  01ffe	0f b6 48 04	 movzx	 ecx, BYTE PTR [eax+4]
  02002	51		 push	 ecx
  02003	8b 55 0c	 mov	 edx, DWORD PTR _aTargetIndex$[ebp]
  02006	52		 push	 edx
  02007	8b 45 08	 mov	 eax, DWORD PTR _aIndex$[ebp]
  0200a	50		 push	 eax
  0200b	8b 4d fc	 mov	 ecx, DWORD PTR _this$[ebp]
  0200e	e8 00 00 00 00	 call	 ?SkillHealing@CObjUseSkill@@QAEXHHH@Z ; CObjUseSkill::SkillHealing
  02013	e9 66 05 00 00	 jmp	 $LN54@RunningSki
$LN47@RunningSki:

; 959  : 	case AT_SKILL_MAGICDEFENSE:	this->WizardMagicDefense(aIndex,aTargetIndex,lpMagic->m_Level);break;

  02018	8b 45 10	 mov	 eax, DWORD PTR _lpMagic$[ebp]
  0201b	0f b6 48 04	 movzx	 ecx, BYTE PTR [eax+4]
  0201f	51		 push	 ecx
  02020	8b 55 0c	 mov	 edx, DWORD PTR _aTargetIndex$[ebp]
  02023	52		 push	 edx
  02024	8b 45 08	 mov	 eax, DWORD PTR _aIndex$[ebp]
  02027	50		 push	 eax
  02028	8b 4d fc	 mov	 ecx, DWORD PTR _this$[ebp]
  0202b	e8 00 00 00 00	 call	 ?WizardMagicDefense@CObjUseSkill@@QAEXHHH@Z ; CObjUseSkill::WizardMagicDefense
  02030	e9 49 05 00 00	 jmp	 $LN54@RunningSki
$LN46@RunningSki:

; 960  : 	case AT_SKILL_KNIGHTADDLIFE:	this->KnightSkillAddLife(aIndex,lpMagic->m_Level);break;

  02035	8b 45 10	 mov	 eax, DWORD PTR _lpMagic$[ebp]
  02038	0f b6 48 04	 movzx	 ecx, BYTE PTR [eax+4]
  0203c	51		 push	 ecx
  0203d	8b 55 08	 mov	 edx, DWORD PTR _aIndex$[ebp]
  02040	52		 push	 edx
  02041	8b 4d fc	 mov	 ecx, DWORD PTR _this$[ebp]
  02044	e8 00 00 00 00	 call	 ?KnightSkillAddLife@CObjUseSkill@@QAEXHH@Z ; CObjUseSkill::KnightSkillAddLife
  02049	e9 30 05 00 00	 jmp	 $LN54@RunningSki
$LN45@RunningSki:

; 961  : 	case AT_SKILL_DEFENSE:	this->SkillDefense(aIndex,aTargetIndex,lpMagic->m_Level);break;

  0204e	8b 45 10	 mov	 eax, DWORD PTR _lpMagic$[ebp]
  02051	0f b6 48 04	 movzx	 ecx, BYTE PTR [eax+4]
  02055	51		 push	 ecx
  02056	8b 55 0c	 mov	 edx, DWORD PTR _aTargetIndex$[ebp]
  02059	52		 push	 edx
  0205a	8b 45 08	 mov	 eax, DWORD PTR _aIndex$[ebp]
  0205d	50		 push	 eax
  0205e	8b 4d fc	 mov	 ecx, DWORD PTR _this$[ebp]
  02061	e8 00 00 00 00	 call	 ?SkillDefense@CObjUseSkill@@QAEXHHH@Z ; CObjUseSkill::SkillDefense
  02066	e9 13 05 00 00	 jmp	 $LN54@RunningSki
$LN44@RunningSki:

; 962  : 	case AT_SKILL_ATTACK:	this->SkillAttack(aIndex,aTargetIndex,lpMagic->m_Level);break;

  0206b	8b 45 10	 mov	 eax, DWORD PTR _lpMagic$[ebp]
  0206e	0f b6 48 04	 movzx	 ecx, BYTE PTR [eax+4]
  02072	51		 push	 ecx
  02073	8b 55 0c	 mov	 edx, DWORD PTR _aTargetIndex$[ebp]
  02076	52		 push	 edx
  02077	8b 45 08	 mov	 eax, DWORD PTR _aIndex$[ebp]
  0207a	50		 push	 eax
  0207b	8b 4d fc	 mov	 ecx, DWORD PTR _this$[ebp]
  0207e	e8 00 00 00 00	 call	 ?SkillAttack@CObjUseSkill@@QAEXHHH@Z ; CObjUseSkill::SkillAttack
  02083	e9 f6 04 00 00	 jmp	 $LN54@RunningSki
$LN43@RunningSki:

; 963  : 
; 964  : 	case AT_SKILL_CALLMON1:	return this->SkillMonsterCall(lpObj->m_Index,26,lpObj->X-1,lpObj->Y+1);

  02088	8b 45 f8	 mov	 eax, DWORD PTR _lpObj$[ebp]
  0208b	0f bf 88 46 01
	00 00		 movsx	 ecx, WORD PTR [eax+326]
  02092	83 c1 01	 add	 ecx, 1
  02095	51		 push	 ecx
  02096	8b 55 f8	 mov	 edx, DWORD PTR _lpObj$[ebp]
  02099	0f bf 82 44 01
	00 00		 movsx	 eax, WORD PTR [edx+324]
  020a0	83 e8 01	 sub	 eax, 1
  020a3	50		 push	 eax
  020a4	6a 1a		 push	 26			; 0000001aH
  020a6	8b 4d f8	 mov	 ecx, DWORD PTR _lpObj$[ebp]
  020a9	8b 11		 mov	 edx, DWORD PTR [ecx]
  020ab	52		 push	 edx
  020ac	8b 4d fc	 mov	 ecx, DWORD PTR _this$[ebp]
  020af	e8 00 00 00 00	 call	 ?SkillMonsterCall@CObjUseSkill@@QAEHHHHH@Z ; CObjUseSkill::SkillMonsterCall
  020b4	e9 ca 04 00 00	 jmp	 $LN58@RunningSki
$LN42@RunningSki:

; 965  : 	case AT_SKILL_CALLMON2:	return this->SkillMonsterCall(lpObj->m_Index,32,lpObj->X-1,lpObj->Y+1);

  020b9	8b 45 f8	 mov	 eax, DWORD PTR _lpObj$[ebp]
  020bc	0f bf 88 46 01
	00 00		 movsx	 ecx, WORD PTR [eax+326]
  020c3	83 c1 01	 add	 ecx, 1
  020c6	51		 push	 ecx
  020c7	8b 55 f8	 mov	 edx, DWORD PTR _lpObj$[ebp]
  020ca	0f bf 82 44 01
	00 00		 movsx	 eax, WORD PTR [edx+324]
  020d1	83 e8 01	 sub	 eax, 1
  020d4	50		 push	 eax
  020d5	6a 20		 push	 32			; 00000020H
  020d7	8b 4d f8	 mov	 ecx, DWORD PTR _lpObj$[ebp]
  020da	8b 11		 mov	 edx, DWORD PTR [ecx]
  020dc	52		 push	 edx
  020dd	8b 4d fc	 mov	 ecx, DWORD PTR _this$[ebp]
  020e0	e8 00 00 00 00	 call	 ?SkillMonsterCall@CObjUseSkill@@QAEHHHHH@Z ; CObjUseSkill::SkillMonsterCall
  020e5	e9 99 04 00 00	 jmp	 $LN58@RunningSki
$LN41@RunningSki:

; 966  : 	case AT_SKILL_CALLMON3:	return this->SkillMonsterCall(lpObj->m_Index,21,lpObj->X-1,lpObj->Y+1);

  020ea	8b 45 f8	 mov	 eax, DWORD PTR _lpObj$[ebp]
  020ed	0f bf 88 46 01
	00 00		 movsx	 ecx, WORD PTR [eax+326]
  020f4	83 c1 01	 add	 ecx, 1
  020f7	51		 push	 ecx
  020f8	8b 55 f8	 mov	 edx, DWORD PTR _lpObj$[ebp]
  020fb	0f bf 82 44 01
	00 00		 movsx	 eax, WORD PTR [edx+324]
  02102	83 e8 01	 sub	 eax, 1
  02105	50		 push	 eax
  02106	6a 15		 push	 21			; 00000015H
  02108	8b 4d f8	 mov	 ecx, DWORD PTR _lpObj$[ebp]
  0210b	8b 11		 mov	 edx, DWORD PTR [ecx]
  0210d	52		 push	 edx
  0210e	8b 4d fc	 mov	 ecx, DWORD PTR _this$[ebp]
  02111	e8 00 00 00 00	 call	 ?SkillMonsterCall@CObjUseSkill@@QAEHHHHH@Z ; CObjUseSkill::SkillMonsterCall
  02116	e9 68 04 00 00	 jmp	 $LN58@RunningSki
$LN40@RunningSki:

; 967  : 	case AT_SKILL_CALLMON4:	return this->SkillMonsterCall(lpObj->m_Index,20,lpObj->X-1,lpObj->Y+1);

  0211b	8b 45 f8	 mov	 eax, DWORD PTR _lpObj$[ebp]
  0211e	0f bf 88 46 01
	00 00		 movsx	 ecx, WORD PTR [eax+326]
  02125	83 c1 01	 add	 ecx, 1
  02128	51		 push	 ecx
  02129	8b 55 f8	 mov	 edx, DWORD PTR _lpObj$[ebp]
  0212c	0f bf 82 44 01
	00 00		 movsx	 eax, WORD PTR [edx+324]
  02133	83 e8 01	 sub	 eax, 1
  02136	50		 push	 eax
  02137	6a 14		 push	 20			; 00000014H
  02139	8b 4d f8	 mov	 ecx, DWORD PTR _lpObj$[ebp]
  0213c	8b 11		 mov	 edx, DWORD PTR [ecx]
  0213e	52		 push	 edx
  0213f	8b 4d fc	 mov	 ecx, DWORD PTR _this$[ebp]
  02142	e8 00 00 00 00	 call	 ?SkillMonsterCall@CObjUseSkill@@QAEHHHHH@Z ; CObjUseSkill::SkillMonsterCall
  02147	e9 37 04 00 00	 jmp	 $LN58@RunningSki
$LN39@RunningSki:

; 968  : 	case AT_SKILL_CALLMON5:	return this->SkillMonsterCall(lpObj->m_Index,10,lpObj->X-1,lpObj->Y+1);

  0214c	8b 45 f8	 mov	 eax, DWORD PTR _lpObj$[ebp]
  0214f	0f bf 88 46 01
	00 00		 movsx	 ecx, WORD PTR [eax+326]
  02156	83 c1 01	 add	 ecx, 1
  02159	51		 push	 ecx
  0215a	8b 55 f8	 mov	 edx, DWORD PTR _lpObj$[ebp]
  0215d	0f bf 82 44 01
	00 00		 movsx	 eax, WORD PTR [edx+324]
  02164	83 e8 01	 sub	 eax, 1
  02167	50		 push	 eax
  02168	6a 0a		 push	 10			; 0000000aH
  0216a	8b 4d f8	 mov	 ecx, DWORD PTR _lpObj$[ebp]
  0216d	8b 11		 mov	 edx, DWORD PTR [ecx]
  0216f	52		 push	 edx
  02170	8b 4d fc	 mov	 ecx, DWORD PTR _this$[ebp]
  02173	e8 00 00 00 00	 call	 ?SkillMonsterCall@CObjUseSkill@@QAEHHHHH@Z ; CObjUseSkill::SkillMonsterCall
  02178	e9 06 04 00 00	 jmp	 $LN58@RunningSki
$LN38@RunningSki:

; 969  : 	case AT_SKILL_CALLMON6:	return this->SkillMonsterCall(lpObj->m_Index,150,lpObj->X-1,lpObj->Y+1);

  0217d	8b 45 f8	 mov	 eax, DWORD PTR _lpObj$[ebp]
  02180	0f bf 88 46 01
	00 00		 movsx	 ecx, WORD PTR [eax+326]
  02187	83 c1 01	 add	 ecx, 1
  0218a	51		 push	 ecx
  0218b	8b 55 f8	 mov	 edx, DWORD PTR _lpObj$[ebp]
  0218e	0f bf 82 44 01
	00 00		 movsx	 eax, WORD PTR [edx+324]
  02195	83 e8 01	 sub	 eax, 1
  02198	50		 push	 eax
  02199	68 96 00 00 00	 push	 150			; 00000096H
  0219e	8b 4d f8	 mov	 ecx, DWORD PTR _lpObj$[ebp]
  021a1	8b 11		 mov	 edx, DWORD PTR [ecx]
  021a3	52		 push	 edx
  021a4	8b 4d fc	 mov	 ecx, DWORD PTR _this$[ebp]
  021a7	e8 00 00 00 00	 call	 ?SkillMonsterCall@CObjUseSkill@@QAEHHHHH@Z ; CObjUseSkill::SkillMonsterCall
  021ac	e9 d2 03 00 00	 jmp	 $LN58@RunningSki
$LN37@RunningSki:

; 970  : 	case AT_SKILL_CALLMON7:	return this->SkillMonsterCall(lpObj->m_Index,151,lpObj->X-1,lpObj->Y+1);

  021b1	8b 45 f8	 mov	 eax, DWORD PTR _lpObj$[ebp]
  021b4	0f bf 88 46 01
	00 00		 movsx	 ecx, WORD PTR [eax+326]
  021bb	83 c1 01	 add	 ecx, 1
  021be	51		 push	 ecx
  021bf	8b 55 f8	 mov	 edx, DWORD PTR _lpObj$[ebp]
  021c2	0f bf 82 44 01
	00 00		 movsx	 eax, WORD PTR [edx+324]
  021c9	83 e8 01	 sub	 eax, 1
  021cc	50		 push	 eax
  021cd	68 97 00 00 00	 push	 151			; 00000097H
  021d2	8b 4d f8	 mov	 ecx, DWORD PTR _lpObj$[ebp]
  021d5	8b 11		 mov	 edx, DWORD PTR [ecx]
  021d7	52		 push	 edx
  021d8	8b 4d fc	 mov	 ecx, DWORD PTR _this$[ebp]
  021db	e8 00 00 00 00	 call	 ?SkillMonsterCall@CObjUseSkill@@QAEHHHHH@Z ; CObjUseSkill::SkillMonsterCall
  021e0	e9 9e 03 00 00	 jmp	 $LN58@RunningSki
$LN36@RunningSki:

; 971  : 
; 972  : 	case AT_SKILL_EXPHELL:	return this->SkillHellFire2(lpObj->m_Index,aTargetIndex,lpMagic);

  021e5	8b 45 10	 mov	 eax, DWORD PTR _lpMagic$[ebp]
  021e8	50		 push	 eax
  021e9	8b 4d 0c	 mov	 ecx, DWORD PTR _aTargetIndex$[ebp]
  021ec	51		 push	 ecx
  021ed	8b 55 f8	 mov	 edx, DWORD PTR _lpObj$[ebp]
  021f0	8b 02		 mov	 eax, DWORD PTR [edx]
  021f2	50		 push	 eax
  021f3	8b 4d fc	 mov	 ecx, DWORD PTR _this$[ebp]
  021f6	e8 00 00 00 00	 call	 ?SkillHellFire2@CObjUseSkill@@QAEHHHPAVCMagicInf@@@Z ; CObjUseSkill::SkillHellFire2
  021fb	e9 83 03 00 00	 jmp	 $LN58@RunningSki
$LN35@RunningSki:

; 973  : 	case AT_SKILL_STRIKE:	return this->SkillKnightBlow(lpObj->m_Index,aTargetIndex,lpMagic,bCombo);

  02200	8b 45 14	 mov	 eax, DWORD PTR _bCombo$[ebp]
  02203	50		 push	 eax
  02204	8b 4d 10	 mov	 ecx, DWORD PTR _lpMagic$[ebp]
  02207	51		 push	 ecx
  02208	8b 55 0c	 mov	 edx, DWORD PTR _aTargetIndex$[ebp]
  0220b	52		 push	 edx
  0220c	8b 45 f8	 mov	 eax, DWORD PTR _lpObj$[ebp]
  0220f	8b 08		 mov	 ecx, DWORD PTR [eax]
  02211	51		 push	 ecx
  02212	8b 4d fc	 mov	 ecx, DWORD PTR _this$[ebp]
  02215	e8 00 00 00 00	 call	 ?SkillKnightBlow@CObjUseSkill@@QAEHHHPAVCMagicInf@@H@Z ; CObjUseSkill::SkillKnightBlow
  0221a	e9 64 03 00 00	 jmp	 $LN58@RunningSki
$LN34@RunningSki:

; 974  : 
; 975  : 	case AT_SKILL_SPEAR:	return this->SkillSpear(lpObj->m_Index,aTargetIndex,lpMagic);

  0221f	8b 45 10	 mov	 eax, DWORD PTR _lpMagic$[ebp]
  02222	50		 push	 eax
  02223	8b 4d 0c	 mov	 ecx, DWORD PTR _aTargetIndex$[ebp]
  02226	51		 push	 ecx
  02227	8b 55 f8	 mov	 edx, DWORD PTR _lpObj$[ebp]
  0222a	8b 02		 mov	 eax, DWORD PTR [edx]
  0222c	50		 push	 eax
  0222d	8b 4d fc	 mov	 ecx, DWORD PTR _this$[ebp]
  02230	e8 00 00 00 00	 call	 ?SkillSpear@CObjUseSkill@@QAEHHHPAVCMagicInf@@@Z ; CObjUseSkill::SkillSpear
  02235	e9 49 03 00 00	 jmp	 $LN58@RunningSki
$LN33@RunningSki:

; 976  : 	case AT_SKILL_FIREBURST:	return this->SkillFireBurst(lpObj->m_Index,aTargetIndex,lpMagic);

  0223a	8b 45 10	 mov	 eax, DWORD PTR _lpMagic$[ebp]
  0223d	50		 push	 eax
  0223e	8b 4d 0c	 mov	 ecx, DWORD PTR _aTargetIndex$[ebp]
  02241	51		 push	 ecx
  02242	8b 55 f8	 mov	 edx, DWORD PTR _lpObj$[ebp]
  02245	8b 02		 mov	 eax, DWORD PTR [edx]
  02247	50		 push	 eax
  02248	8b 4d fc	 mov	 ecx, DWORD PTR _this$[ebp]
  0224b	e8 00 00 00 00	 call	 ?SkillFireBurst@CObjUseSkill@@QAEHHHPAVCMagicInf@@@Z ; CObjUseSkill::SkillFireBurst
  02250	e9 2e 03 00 00	 jmp	 $LN58@RunningSki
$LN32@RunningSki:

; 977  : 	case AT_SKILL_DARKHORSE_ATTACK:	return this->SkillDarkHorseAttack(lpObj->m_Index,aTargetIndex,lpMagic);

  02255	8b 45 10	 mov	 eax, DWORD PTR _lpMagic$[ebp]
  02258	50		 push	 eax
  02259	8b 4d 0c	 mov	 ecx, DWORD PTR _aTargetIndex$[ebp]
  0225c	51		 push	 ecx
  0225d	8b 55 f8	 mov	 edx, DWORD PTR _lpObj$[ebp]
  02260	8b 02		 mov	 eax, DWORD PTR [edx]
  02262	50		 push	 eax
  02263	8b 4d fc	 mov	 ecx, DWORD PTR _this$[ebp]
  02266	e8 00 00 00 00	 call	 ?SkillDarkHorseAttack@CObjUseSkill@@QAEHHHPAVCMagicInf@@@Z ; CObjUseSkill::SkillDarkHorseAttack
  0226b	e9 13 03 00 00	 jmp	 $LN58@RunningSki
$LN31@RunningSki:

; 978  : 	case AT_SKILL_RECALL_PARTY:	this->SkillRecallParty(aIndex,lpMagic->m_Level);break;

  02270	8b 45 10	 mov	 eax, DWORD PTR _lpMagic$[ebp]
  02273	0f b6 48 04	 movzx	 ecx, BYTE PTR [eax+4]
  02277	51		 push	 ecx
  02278	8b 55 08	 mov	 edx, DWORD PTR _aIndex$[ebp]
  0227b	52		 push	 edx
  0227c	8b 4d fc	 mov	 ecx, DWORD PTR _this$[ebp]
  0227f	e8 00 00 00 00	 call	 ?SkillRecallParty@CObjUseSkill@@QAEXHH@Z ; CObjUseSkill::SkillRecallParty
  02284	e9 f5 02 00 00	 jmp	 $LN54@RunningSki
$LN30@RunningSki:

; 979  : 	case AT_SKILL_ADD_CRITICALDAMAGE:	this->SkillAddCriticalDamage(aIndex,lpMagic->m_Level);break;

  02289	8b 45 10	 mov	 eax, DWORD PTR _lpMagic$[ebp]
  0228c	0f b6 48 04	 movzx	 ecx, BYTE PTR [eax+4]
  02290	51		 push	 ecx
  02291	8b 55 08	 mov	 edx, DWORD PTR _aIndex$[ebp]
  02294	52		 push	 edx
  02295	8b 4d fc	 mov	 ecx, DWORD PTR _this$[ebp]
  02298	e8 00 00 00 00	 call	 ?SkillAddCriticalDamage@CObjUseSkill@@QAEXHH@Z ; CObjUseSkill::SkillAddCriticalDamage
  0229d	e9 dc 02 00 00	 jmp	 $LN54@RunningSki
$LN29@RunningSki:

; 980  : 
; 981  : 	case AT_SKILL_DEFENSEDOWN:	this->MaGumSkillDefenseDown(lpObj->m_Index,aTargetIndex,1);break;

  022a2	6a 01		 push	 1
  022a4	8b 45 0c	 mov	 eax, DWORD PTR _aTargetIndex$[ebp]
  022a7	50		 push	 eax
  022a8	8b 4d f8	 mov	 ecx, DWORD PTR _lpObj$[ebp]
  022ab	8b 11		 mov	 edx, DWORD PTR [ecx]
  022ad	52		 push	 edx
  022ae	8b 4d fc	 mov	 ecx, DWORD PTR _this$[ebp]
  022b1	e8 00 00 00 00	 call	 ?MaGumSkillDefenseDown@CObjUseSkill@@QAEXHHH@Z ; CObjUseSkill::MaGumSkillDefenseDown
  022b6	e9 c3 02 00 00	 jmp	 $LN54@RunningSki
$LN28@RunningSki:

; 982  : 
; 983  : 	case AT_SKILL_SUMMON:	this->SkillSummon(lpObj->m_Index,aTargetIndex,lpMagic);break;

  022bb	8b 45 10	 mov	 eax, DWORD PTR _lpMagic$[ebp]
  022be	50		 push	 eax
  022bf	8b 4d 0c	 mov	 ecx, DWORD PTR _aTargetIndex$[ebp]
  022c2	51		 push	 ecx
  022c3	8b 55 f8	 mov	 edx, DWORD PTR _lpObj$[ebp]
  022c6	8b 02		 mov	 eax, DWORD PTR [edx]
  022c8	50		 push	 eax
  022c9	8b 4d fc	 mov	 ecx, DWORD PTR _this$[ebp]
  022cc	e8 00 00 00 00	 call	 ?SkillSummon@CObjUseSkill@@QAEHHHPAVCMagicInf@@@Z ; CObjUseSkill::SkillSummon
  022d1	e9 a8 02 00 00	 jmp	 $LN54@RunningSki
$LN27@RunningSki:

; 984  : 	case AT_SKILL_IMMUNE_TO_MAGIC:	this->SkillImmuneToMagic(lpObj->m_Index,lpMagic);break;

  022d6	8b 45 10	 mov	 eax, DWORD PTR _lpMagic$[ebp]
  022d9	50		 push	 eax
  022da	8b 4d f8	 mov	 ecx, DWORD PTR _lpObj$[ebp]
  022dd	8b 11		 mov	 edx, DWORD PTR [ecx]
  022df	52		 push	 edx
  022e0	8b 4d fc	 mov	 ecx, DWORD PTR _this$[ebp]
  022e3	e8 00 00 00 00	 call	 ?SkillImmuneToMagic@CObjUseSkill@@QAEHHPAVCMagicInf@@@Z ; CObjUseSkill::SkillImmuneToMagic
  022e8	e9 91 02 00 00	 jmp	 $LN54@RunningSki
$LN26@RunningSki:

; 985  : 	case AT_SKILL_IMMUNE_TO_HARM:	this->SkillImmuneToHarm(lpObj->m_Index,lpMagic);break;

  022ed	8b 45 10	 mov	 eax, DWORD PTR _lpMagic$[ebp]
  022f0	50		 push	 eax
  022f1	8b 4d f8	 mov	 ecx, DWORD PTR _lpObj$[ebp]
  022f4	8b 11		 mov	 edx, DWORD PTR [ecx]
  022f6	52		 push	 edx
  022f7	8b 4d fc	 mov	 ecx, DWORD PTR _this$[ebp]
  022fa	e8 00 00 00 00	 call	 ?SkillImmuneToHarm@CObjUseSkill@@QAEHHPAVCMagicInf@@@Z ; CObjUseSkill::SkillImmuneToHarm
  022ff	e9 7a 02 00 00	 jmp	 $LN54@RunningSki
$LN25@RunningSki:

; 986  : 
; 987  : 	case AT_SKILL_RUSH:	this->SkillKnightRush(lpObj->m_Index,aTargetIndex,lpMagic);break;

  02304	8b 45 10	 mov	 eax, DWORD PTR _lpMagic$[ebp]
  02307	50		 push	 eax
  02308	8b 4d 0c	 mov	 ecx, DWORD PTR _aTargetIndex$[ebp]
  0230b	51		 push	 ecx
  0230c	8b 55 f8	 mov	 edx, DWORD PTR _lpObj$[ebp]
  0230f	8b 02		 mov	 eax, DWORD PTR [edx]
  02311	50		 push	 eax
  02312	8b 4d fc	 mov	 ecx, DWORD PTR _this$[ebp]
  02315	e8 00 00 00 00	 call	 ?SkillKnightRush@CObjUseSkill@@QAEHHHPAVCMagicInf@@@Z ; CObjUseSkill::SkillKnightRush
  0231a	e9 5f 02 00 00	 jmp	 $LN54@RunningSki
$LN24@RunningSki:

; 988  : 	case AT_SKILL_JAVALIN:	this->SkillWizardJavalin(lpObj->m_Index,aTargetIndex,lpMagic);break;

  0231f	8b 45 10	 mov	 eax, DWORD PTR _lpMagic$[ebp]
  02322	50		 push	 eax
  02323	8b 4d 0c	 mov	 ecx, DWORD PTR _aTargetIndex$[ebp]
  02326	51		 push	 ecx
  02327	8b 55 f8	 mov	 edx, DWORD PTR _lpObj$[ebp]
  0232a	8b 02		 mov	 eax, DWORD PTR [edx]
  0232c	50		 push	 eax
  0232d	8b 4d fc	 mov	 ecx, DWORD PTR _this$[ebp]
  02330	e8 00 00 00 00	 call	 ?SkillWizardJavalin@CObjUseSkill@@QAEHHHPAVCMagicInf@@@Z ; CObjUseSkill::SkillWizardJavalin
  02335	e9 44 02 00 00	 jmp	 $LN54@RunningSki
$LN23@RunningSki:

; 989  : 	case AT_SKILL_DEEPIMPACT:	this->SkillElfRush(lpObj->m_Index,aTargetIndex,lpMagic);break;

  0233a	8b 45 10	 mov	 eax, DWORD PTR _lpMagic$[ebp]
  0233d	50		 push	 eax
  0233e	8b 4d 0c	 mov	 ecx, DWORD PTR _aTargetIndex$[ebp]
  02341	51		 push	 ecx
  02342	8b 55 f8	 mov	 edx, DWORD PTR _lpObj$[ebp]
  02345	8b 02		 mov	 eax, DWORD PTR [edx]
  02347	50		 push	 eax
  02348	8b 4d fc	 mov	 ecx, DWORD PTR _this$[ebp]
  0234b	e8 00 00 00 00	 call	 ?SkillElfRush@CObjUseSkill@@QAEHHHPAVCMagicInf@@@Z ; CObjUseSkill::SkillElfRush
  02350	e9 29 02 00 00	 jmp	 $LN54@RunningSki
$LN22@RunningSki:

; 990  : 	case AT_SKILL_ONE_FLASH:	this->SkillMagumOneFlash(lpObj->m_Index,aTargetIndex,lpMagic);break;

  02355	8b 45 10	 mov	 eax, DWORD PTR _lpMagic$[ebp]
  02358	50		 push	 eax
  02359	8b 4d 0c	 mov	 ecx, DWORD PTR _aTargetIndex$[ebp]
  0235c	51		 push	 ecx
  0235d	8b 55 f8	 mov	 edx, DWORD PTR _lpObj$[ebp]
  02360	8b 02		 mov	 eax, DWORD PTR [edx]
  02362	50		 push	 eax
  02363	8b 4d fc	 mov	 ecx, DWORD PTR _this$[ebp]
  02366	e8 00 00 00 00	 call	 ?SkillMagumOneFlash@CObjUseSkill@@QAEHHHPAVCMagicInf@@@Z ; CObjUseSkill::SkillMagumOneFlash
  0236b	e9 0e 02 00 00	 jmp	 $LN54@RunningSki
$LN21@RunningSki:

; 991  : 	case AT_SKILL_DEATH_CANNON:	this->SkillMagumDeathCannon(lpObj->m_Index,aTargetIndex,lpMagic);break;

  02370	8b 45 10	 mov	 eax, DWORD PTR _lpMagic$[ebp]
  02373	50		 push	 eax
  02374	8b 4d 0c	 mov	 ecx, DWORD PTR _aTargetIndex$[ebp]
  02377	51		 push	 ecx
  02378	8b 55 f8	 mov	 edx, DWORD PTR _lpObj$[ebp]
  0237b	8b 02		 mov	 eax, DWORD PTR [edx]
  0237d	50		 push	 eax
  0237e	8b 4d fc	 mov	 ecx, DWORD PTR _this$[ebp]
  02381	e8 00 00 00 00	 call	 ?SkillMagumDeathCannon@CObjUseSkill@@QAEHHHPAVCMagicInf@@@Z ; CObjUseSkill::SkillMagumDeathCannon
  02386	e9 f3 01 00 00	 jmp	 $LN54@RunningSki
$LN20@RunningSki:

; 992  : 	case AT_SKILL_SPACE_SPLIT:	this->SkillDarklordSpaceSplit(lpObj->m_Index,aTargetIndex,lpMagic);break;

  0238b	8b 45 10	 mov	 eax, DWORD PTR _lpMagic$[ebp]
  0238e	50		 push	 eax
  0238f	8b 4d 0c	 mov	 ecx, DWORD PTR _aTargetIndex$[ebp]
  02392	51		 push	 ecx
  02393	8b 55 f8	 mov	 edx, DWORD PTR _lpObj$[ebp]
  02396	8b 02		 mov	 eax, DWORD PTR [edx]
  02398	50		 push	 eax
  02399	8b 4d fc	 mov	 ecx, DWORD PTR _this$[ebp]
  0239c	e8 00 00 00 00	 call	 ?SkillDarklordSpaceSplit@CObjUseSkill@@QAEHHHPAVCMagicInf@@@Z ; CObjUseSkill::SkillDarklordSpaceSplit
  023a1	e9 d8 01 00 00	 jmp	 $LN54@RunningSki
$LN19@RunningSki:

; 993  : 
; 994  : 	case AT_SKILL_BRAND_OF_SKILL:	this->SkillBrandOfSkill(aIndex,aTargetIndex,lpMagic);break;

  023a6	8b 45 10	 mov	 eax, DWORD PTR _lpMagic$[ebp]
  023a9	50		 push	 eax
  023aa	8b 4d 0c	 mov	 ecx, DWORD PTR _aTargetIndex$[ebp]
  023ad	51		 push	 ecx
  023ae	8b 55 08	 mov	 edx, DWORD PTR _aIndex$[ebp]
  023b1	52		 push	 edx
  023b2	8b 4d fc	 mov	 ecx, DWORD PTR _this$[ebp]
  023b5	e8 00 00 00 00	 call	 ?SkillBrandOfSkill@CObjUseSkill@@QAEHHHPAVCMagicInf@@@Z ; CObjUseSkill::SkillBrandOfSkill
  023ba	e9 bf 01 00 00	 jmp	 $LN54@RunningSki
$LN18@RunningSki:

; 995  : 
; 996  : 	case AT_SKILL_REMOVAL_STUN:	this->SkillRemoveStun(aIndex,aTargetIndex,lpMagic);break;

  023bf	8b 45 10	 mov	 eax, DWORD PTR _lpMagic$[ebp]
  023c2	50		 push	 eax
  023c3	8b 4d 0c	 mov	 ecx, DWORD PTR _aTargetIndex$[ebp]
  023c6	51		 push	 ecx
  023c7	8b 55 08	 mov	 edx, DWORD PTR _aIndex$[ebp]
  023ca	52		 push	 edx
  023cb	8b 4d fc	 mov	 ecx, DWORD PTR _this$[ebp]
  023ce	e8 00 00 00 00	 call	 ?SkillRemoveStun@CObjUseSkill@@QAEHHHPAVCMagicInf@@@Z ; CObjUseSkill::SkillRemoveStun
  023d3	e9 a6 01 00 00	 jmp	 $LN54@RunningSki
$LN17@RunningSki:

; 997  : 	case AT_SKILL_ADD_MANA:	this->SkillAddMana(aIndex,aTargetIndex,lpMagic);break;

  023d8	8b 45 10	 mov	 eax, DWORD PTR _lpMagic$[ebp]
  023db	50		 push	 eax
  023dc	8b 4d 0c	 mov	 ecx, DWORD PTR _aTargetIndex$[ebp]
  023df	51		 push	 ecx
  023e0	8b 55 08	 mov	 edx, DWORD PTR _aIndex$[ebp]
  023e3	52		 push	 edx
  023e4	8b 4d fc	 mov	 ecx, DWORD PTR _this$[ebp]
  023e7	e8 00 00 00 00	 call	 ?SkillAddMana@CObjUseSkill@@QAEHHHPAVCMagicInf@@@Z ; CObjUseSkill::SkillAddMana
  023ec	e9 8d 01 00 00	 jmp	 $LN54@RunningSki
$LN16@RunningSki:

; 998  : 	case AT_SKILL_INVISIBLE:	this->SkillCloaking(aIndex,aTargetIndex,lpMagic);break;

  023f1	8b 45 10	 mov	 eax, DWORD PTR _lpMagic$[ebp]
  023f4	50		 push	 eax
  023f5	8b 4d 0c	 mov	 ecx, DWORD PTR _aTargetIndex$[ebp]
  023f8	51		 push	 ecx
  023f9	8b 55 08	 mov	 edx, DWORD PTR _aIndex$[ebp]
  023fc	52		 push	 edx
  023fd	8b 4d fc	 mov	 ecx, DWORD PTR _this$[ebp]
  02400	e8 00 00 00 00	 call	 ?SkillCloaking@CObjUseSkill@@QAEHHHPAVCMagicInf@@@Z ; CObjUseSkill::SkillCloaking
  02405	e9 74 01 00 00	 jmp	 $LN54@RunningSki
$LN15@RunningSki:

; 999  : 	case AT_SKILL_REMOVAL_INVISIBLE:	this->SkillRemoveCloaking(aIndex,aTargetIndex,lpMagic);break;

  0240a	8b 45 10	 mov	 eax, DWORD PTR _lpMagic$[ebp]
  0240d	50		 push	 eax
  0240e	8b 4d 0c	 mov	 ecx, DWORD PTR _aTargetIndex$[ebp]
  02411	51		 push	 ecx
  02412	8b 55 08	 mov	 edx, DWORD PTR _aIndex$[ebp]
  02415	52		 push	 edx
  02416	8b 4d fc	 mov	 ecx, DWORD PTR _this$[ebp]
  02419	e8 00 00 00 00	 call	 ?SkillRemoveCloaking@CObjUseSkill@@QAEHHHPAVCMagicInf@@@Z ; CObjUseSkill::SkillRemoveCloaking
  0241e	e9 5b 01 00 00	 jmp	 $LN54@RunningSki
$LN14@RunningSki:

; 1000 : 	case AT_SKILL_REMOVAL_MAGIC:	this->SkillRemoveMagic(aIndex,aTargetIndex,lpMagic);break;

  02423	8b 45 10	 mov	 eax, DWORD PTR _lpMagic$[ebp]
  02426	50		 push	 eax
  02427	8b 4d 0c	 mov	 ecx, DWORD PTR _aTargetIndex$[ebp]
  0242a	51		 push	 ecx
  0242b	8b 55 08	 mov	 edx, DWORD PTR _aIndex$[ebp]
  0242e	52		 push	 edx
  0242f	8b 4d fc	 mov	 ecx, DWORD PTR _this$[ebp]
  02432	e8 00 00 00 00	 call	 ?SkillRemoveMagic@CObjUseSkill@@QAEHHHPAVCMagicInf@@@Z ; CObjUseSkill::SkillRemoveMagic
  02437	e9 42 01 00 00	 jmp	 $LN54@RunningSki
$LN13@RunningSki:

; 1001 : 
; 1002 : 	case AT_SKILL_INFINITY_ARROW:	this->SkillInfinityArrow(aIndex,aTargetIndex,lpMagic);break;

  0243c	8b 45 10	 mov	 eax, DWORD PTR _lpMagic$[ebp]
  0243f	50		 push	 eax
  02440	8b 4d 0c	 mov	 ecx, DWORD PTR _aTargetIndex$[ebp]
  02443	51		 push	 ecx
  02444	8b 55 08	 mov	 edx, DWORD PTR _aIndex$[ebp]
  02447	52		 push	 edx
  02448	8b 4d fc	 mov	 ecx, DWORD PTR _this$[ebp]
  0244b	e8 00 00 00 00	 call	 ?SkillInfinityArrow@CObjUseSkill@@QAEHHHPAVCMagicInf@@@Z ; CObjUseSkill::SkillInfinityArrow
  02450	e9 29 01 00 00	 jmp	 $LN54@RunningSki
$LN12@RunningSki:

; 1003 : 
; 1004 : 	case 217: this->SkillDamageReflection(aIndex,aTargetIndex,lpMagic);break; //Summoner Damage Reflection

  02455	8b 45 10	 mov	 eax, DWORD PTR _lpMagic$[ebp]
  02458	50		 push	 eax
  02459	8b 4d 0c	 mov	 ecx, DWORD PTR _aTargetIndex$[ebp]
  0245c	51		 push	 ecx
  0245d	8b 55 08	 mov	 edx, DWORD PTR _aIndex$[ebp]
  02460	52		 push	 edx
  02461	8b 4d fc	 mov	 ecx, DWORD PTR _this$[ebp]
  02464	e8 00 00 00 00	 call	 ?SkillDamageReflection@CObjUseSkill@@QAEHHHPAVCMagicInf@@@Z ; CObjUseSkill::SkillDamageReflection
  02469	e9 10 01 00 00	 jmp	 $LN54@RunningSki
$LN11@RunningSki:

; 1005 : 	case 219: this->SkillSleep(aIndex,aTargetIndex,lpMagic);break;

  0246e	8b 45 10	 mov	 eax, DWORD PTR _lpMagic$[ebp]
  02471	50		 push	 eax
  02472	8b 4d 0c	 mov	 ecx, DWORD PTR _aTargetIndex$[ebp]
  02475	51		 push	 ecx
  02476	8b 55 08	 mov	 edx, DWORD PTR _aIndex$[ebp]
  02479	52		 push	 edx
  0247a	8b 4d fc	 mov	 ecx, DWORD PTR _this$[ebp]
  0247d	e8 00 00 00 00	 call	 ?SkillSleep@CObjUseSkill@@QAEHHHPAVCMagicInf@@@Z ; CObjUseSkill::SkillSleep
  02482	e9 f7 00 00 00	 jmp	 $LN54@RunningSki
$LN10@RunningSki:

; 1006 : 	case 220: this->SkillBlind(aIndex,aTargetIndex,lpMagic);break;

  02487	8b 45 10	 mov	 eax, DWORD PTR _lpMagic$[ebp]
  0248a	50		 push	 eax
  0248b	8b 4d 0c	 mov	 ecx, DWORD PTR _aTargetIndex$[ebp]
  0248e	51		 push	 ecx
  0248f	8b 55 08	 mov	 edx, DWORD PTR _aIndex$[ebp]
  02492	52		 push	 edx
  02493	8b 4d fc	 mov	 ecx, DWORD PTR _this$[ebp]
  02496	e8 00 00 00 00	 call	 ?SkillBlind@CObjUseSkill@@QAEHHHPAVCMagicInf@@@Z ; CObjUseSkill::SkillBlind
  0249b	e9 de 00 00 00	 jmp	 $LN54@RunningSki
$LN9@RunningSki:

; 1007 : 
; 1008 : 		//Season4 add-on
; 1009 : 	case 218: this->SkillBerserker(lpObj->m_Index,lpMagic);break;

  024a0	8b 45 10	 mov	 eax, DWORD PTR _lpMagic$[ebp]
  024a3	50		 push	 eax
  024a4	8b 4d f8	 mov	 ecx, DWORD PTR _lpObj$[ebp]
  024a7	8b 11		 mov	 edx, DWORD PTR [ecx]
  024a9	52		 push	 edx
  024aa	8b 4d fc	 mov	 ecx, DWORD PTR _this$[ebp]
  024ad	e8 00 00 00 00	 call	 ?SkillBerserker@CObjUseSkill@@QAEHHPAVCMagicInf@@@Z ; CObjUseSkill::SkillBerserker
  024b2	e9 c7 00 00 00	 jmp	 $LN54@RunningSki
$LN8@RunningSki:

; 1010 : 	case 234: this->SkillSDRecovery(aIndex,aTargetIndex,lpMagic);break;

  024b7	8b 45 10	 mov	 eax, DWORD PTR _lpMagic$[ebp]
  024ba	50		 push	 eax
  024bb	8b 4d 0c	 mov	 ecx, DWORD PTR _aTargetIndex$[ebp]
  024be	51		 push	 ecx
  024bf	8b 55 08	 mov	 edx, DWORD PTR _aIndex$[ebp]
  024c2	52		 push	 edx
  024c3	8b 4d fc	 mov	 ecx, DWORD PTR _this$[ebp]
  024c6	e8 00 00 00 00	 call	 ?SkillSDRecovery@CObjUseSkill@@QAEXHHPAVCMagicInf@@@Z ; CObjUseSkill::SkillSDRecovery
  024cb	e9 ae 00 00 00	 jmp	 $LN54@RunningSki
$LN7@RunningSki:

; 1011 : 	case 233: this->SkillExpansionWizardry(aIndex,aTargetIndex,lpMagic);break;

  024d0	8b 45 10	 mov	 eax, DWORD PTR _lpMagic$[ebp]
  024d3	50		 push	 eax
  024d4	8b 4d 0c	 mov	 ecx, DWORD PTR _aTargetIndex$[ebp]
  024d7	51		 push	 ecx
  024d8	8b 55 08	 mov	 edx, DWORD PTR _aIndex$[ebp]
  024db	52		 push	 edx
  024dc	8b 4d fc	 mov	 ecx, DWORD PTR _this$[ebp]
  024df	e8 00 00 00 00	 call	 ?SkillExpansionWizardry@CObjUseSkill@@QAEHHHPAVCMagicInf@@@Z ; CObjUseSkill::SkillExpansionWizardry
  024e4	e9 95 00 00 00	 jmp	 $LN54@RunningSki
$LN6@RunningSki:

; 1012 : 
; 1013 : 	case 266:
; 1014 : 		{
; 1015 : 			this->SkillMonkBuff(aIndex, lpMagic);

  024e9	8b 45 10	 mov	 eax, DWORD PTR _lpMagic$[ebp]
  024ec	50		 push	 eax
  024ed	8b 4d 08	 mov	 ecx, DWORD PTR _aIndex$[ebp]
  024f0	51		 push	 ecx
  024f1	8b 4d fc	 mov	 ecx, DWORD PTR _this$[ebp]
  024f4	e8 00 00 00 00	 call	 ?SkillMonkBuff@CObjUseSkill@@QAEHHPAVCMagicInf@@@Z ; CObjUseSkill::SkillMonkBuff

; 1016 : 		}
; 1017 : 		break;

  024f9	e9 80 00 00 00	 jmp	 $LN54@RunningSki
$LN5@RunningSki:

; 1018 : 		// --
; 1019 : 	case 267:
; 1020 : 	case 268:
; 1021 : 		{
; 1022 : 			this->SkillMonkBuffApplyParty(aIndex, lpMagic);

  024fe	8b 45 10	 mov	 eax, DWORD PTR _lpMagic$[ebp]
  02501	50		 push	 eax
  02502	8b 4d 08	 mov	 ecx, DWORD PTR _aIndex$[ebp]
  02505	51		 push	 ecx
  02506	8b 4d fc	 mov	 ecx, DWORD PTR _this$[ebp]
  02509	e8 00 00 00 00	 call	 ?SkillMonkBuffApplyParty@CObjUseSkill@@QAEHHPAVCMagicInf@@@Z ; CObjUseSkill::SkillMonkBuffApplyParty

; 1023 : 		}
; 1024 : 		break;

  0250e	eb 6e		 jmp	 SHORT $LN54@RunningSki
$LN4@RunningSki:

; 1025 : 		// --
; 1026 : 	case 260:
; 1027 : 	case 261:
; 1028 : 	case 262:
; 1029 : 	case 263:
; 1030 : 		{
; 1031 : 			this->SkillMonkBarrageJustOneTarget(aIndex, lpMagic, aTargetIndex);

  02510	8b 45 0c	 mov	 eax, DWORD PTR _aTargetIndex$[ebp]
  02513	50		 push	 eax
  02514	8b 4d 10	 mov	 ecx, DWORD PTR _lpMagic$[ebp]
  02517	51		 push	 ecx
  02518	8b 55 08	 mov	 edx, DWORD PTR _aIndex$[ebp]
  0251b	52		 push	 edx
  0251c	8b 4d fc	 mov	 ecx, DWORD PTR _this$[ebp]
  0251f	e8 00 00 00 00	 call	 ?SkillMonkBarrageJustOneTarget@CObjUseSkill@@QAEXHPAVCMagicInf@@H@Z ; CObjUseSkill::SkillMonkBarrageJustOneTarget

; 1032 : 		}
; 1033 : 		break;

  02524	eb 58		 jmp	 SHORT $LN54@RunningSki
$LN3@RunningSki:

; 1034 : 		// --
; 1035 : 	case 265:
; 1036 : 		{
; 1037 : 			gObjAttack(lpObj, lpTargetObj, lpMagic, 1, 0, 0, 0, 0, 0);

  02526	6a 00		 push	 0
  02528	6a 00		 push	 0
  0252a	6a 00		 push	 0
  0252c	6a 00		 push	 0
  0252e	6a 00		 push	 0
  02530	6a 01		 push	 1
  02532	8b 45 10	 mov	 eax, DWORD PTR _lpMagic$[ebp]
  02535	50		 push	 eax
  02536	8b 4d f4	 mov	 ecx, DWORD PTR _lpTargetObj$[ebp]
  02539	51		 push	 ecx
  0253a	8b 55 f8	 mov	 edx, DWORD PTR _lpObj$[ebp]
  0253d	52		 push	 edx
  0253e	e8 00 00 00 00	 call	 ?gObjAttack@@YAHPAUOBJECTSTRUCT@@0PAVCMagicInf@@HEHHEE@Z ; gObjAttack
  02543	83 c4 24	 add	 esp, 36			; 00000024H

; 1038 : 		}
; 1039 : 		break;

  02546	eb 36		 jmp	 SHORT $LN54@RunningSki
$LN2@RunningSki:

; 1040 : 		// --
; 1041 : 	case 269:
; 1042 : 		{
; 1043 : 			this->SkillCharge(aIndex, lpMagic, aTargetIndex);

  02548	8b 45 0c	 mov	 eax, DWORD PTR _aTargetIndex$[ebp]
  0254b	50		 push	 eax
  0254c	8b 4d 10	 mov	 ecx, DWORD PTR _lpMagic$[ebp]
  0254f	51		 push	 ecx
  02550	8b 55 08	 mov	 edx, DWORD PTR _aIndex$[ebp]
  02553	52		 push	 edx
  02554	8b 4d fc	 mov	 ecx, DWORD PTR _this$[ebp]
  02557	e8 00 00 00 00	 call	 ?SkillCharge@CObjUseSkill@@QAEHHPAVCMagicInf@@H@Z ; CObjUseSkill::SkillCharge

; 1044 : 		}
; 1045 : 		break;

  0255c	eb 20		 jmp	 SHORT $LN54@RunningSki
$LN1@RunningSki:

; 1046 : 		// ----
; 1047 : 	default:	gObjAttack(lpObj,lpTargetObj,lpMagic,1,0,0,0,0,0);break;

  0255e	6a 00		 push	 0
  02560	6a 00		 push	 0
  02562	6a 00		 push	 0
  02564	6a 00		 push	 0
  02566	6a 00		 push	 0
  02568	6a 01		 push	 1
  0256a	8b 45 10	 mov	 eax, DWORD PTR _lpMagic$[ebp]
  0256d	50		 push	 eax
  0256e	8b 4d f4	 mov	 ecx, DWORD PTR _lpTargetObj$[ebp]
  02571	51		 push	 ecx
  02572	8b 55 f8	 mov	 edx, DWORD PTR _lpObj$[ebp]
  02575	52		 push	 edx
  02576	e8 00 00 00 00	 call	 ?gObjAttack@@YAHPAUOBJECTSTRUCT@@0PAVCMagicInf@@HEHHEE@Z ; gObjAttack
  0257b	83 c4 24	 add	 esp, 36			; 00000024H
$LN54@RunningSki:

; 1048 : 	}
; 1049 : 
; 1050 : 	return true;

  0257e	b8 01 00 00 00	 mov	 eax, 1
$LN58@RunningSki:

; 1051 : }

  02583	5f		 pop	 edi
  02584	5e		 pop	 esi
  02585	5b		 pop	 ebx
  02586	8b e5		 mov	 esp, ebp
  02588	5d		 pop	 ebp
  02589	c2 10 00	 ret	 16			; 00000010H
$LN62@RunningSki:
  0258c	00 00 00 00	 DD	 $LN49@RunningSki
  02590	00 00 00 00	 DD	 $LN47@RunningSki
  02594	00 00 00 00	 DD	 $LN53@RunningSki
  02598	00 00 00 00	 DD	 $LN48@RunningSki
  0259c	00 00 00 00	 DD	 $LN45@RunningSki
  025a0	00 00 00 00	 DD	 $LN44@RunningSki
  025a4	00 00 00 00	 DD	 $LN43@RunningSki
  025a8	00 00 00 00	 DD	 $LN42@RunningSki
  025ac	00 00 00 00	 DD	 $LN41@RunningSki
  025b0	00 00 00 00	 DD	 $LN40@RunningSki
  025b4	00 00 00 00	 DD	 $LN39@RunningSki
  025b8	00 00 00 00	 DD	 $LN38@RunningSki
  025bc	00 00 00 00	 DD	 $LN37@RunningSki
  025c0	00 00 00 00	 DD	 $LN36@RunningSki
  025c4	00 00 00 00	 DD	 $LN35@RunningSki
  025c8	00 00 00 00	 DD	 $LN25@RunningSki
  025cc	00 00 00 00	 DD	 $LN24@RunningSki
  025d0	00 00 00 00	 DD	 $LN23@RunningSki
  025d4	00 00 00 00	 DD	 $LN46@RunningSki
  025d8	00 00 00 00	 DD	 $LN29@RunningSki
  025dc	00 00 00 00	 DD	 $LN22@RunningSki
  025e0	00 00 00 00	 DD	 $LN34@RunningSki
  025e4	00 00 00 00	 DD	 $LN33@RunningSki
  025e8	00 00 00 00	 DD	 $LN32@RunningSki
  025ec	00 00 00 00	 DD	 $LN31@RunningSki
  025f0	00 00 00 00	 DD	 $LN30@RunningSki
  025f4	00 00 00 00	 DD	 $LN18@RunningSki
  025f8	00 00 00 00	 DD	 $LN17@RunningSki
  025fc	00 00 00 00	 DD	 $LN16@RunningSki
  02600	00 00 00 00	 DD	 $LN15@RunningSki
  02604	00 00 00 00	 DD	 $LN14@RunningSki
  02608	00 00 00 00	 DD	 $LN21@RunningSki
  0260c	00 00 00 00	 DD	 $LN20@RunningSki
  02610	00 00 00 00	 DD	 $LN19@RunningSki
  02614	00 00 00 00	 DD	 $LN13@RunningSki
  02618	00 00 00 00	 DD	 $LN28@RunningSki
  0261c	00 00 00 00	 DD	 $LN27@RunningSki
  02620	00 00 00 00	 DD	 $LN26@RunningSki
  02624	00 00 00 00	 DD	 $LN12@RunningSki
  02628	00 00 00 00	 DD	 $LN9@RunningSki
  0262c	00 00 00 00	 DD	 $LN11@RunningSki
  02630	00 00 00 00	 DD	 $LN10@RunningSki
  02634	00 00 00 00	 DD	 $LN7@RunningSki
  02638	00 00 00 00	 DD	 $LN8@RunningSki
  0263c	00 00 00 00	 DD	 $LN1@RunningSki
$LN61@RunningSki:
  02640	00		 DB	 0
  02641	00		 DB	 0
  02642	00		 DB	 0
  02643	00		 DB	 0
  02644	00		 DB	 0
  02645	2c		 DB	 44			; 0000002cH
  02646	00		 DB	 0
  02647	2c		 DB	 44			; 0000002cH
  02648	2c		 DB	 44			; 0000002cH
  02649	2c		 DB	 44			; 0000002cH
  0264a	2c		 DB	 44			; 0000002cH
  0264b	2c		 DB	 44			; 0000002cH
  0264c	2c		 DB	 44			; 0000002cH
  0264d	2c		 DB	 44			; 0000002cH
  0264e	2c		 DB	 44			; 0000002cH
  0264f	01		 DB	 1
  02650	00		 DB	 0
  02651	02		 DB	 2
  02652	00		 DB	 0
  02653	00		 DB	 0
  02654	00		 DB	 0
  02655	00		 DB	 0
  02656	00		 DB	 0
  02657	00		 DB	 0
  02658	00		 DB	 0
  02659	03		 DB	 3
  0265a	04		 DB	 4
  0265b	05		 DB	 5
  0265c	2c		 DB	 44			; 0000002cH
  0265d	06		 DB	 6
  0265e	07		 DB	 7
  0265f	08		 DB	 8
  02660	09		 DB	 9
  02661	0a		 DB	 10			; 0000000aH
  02662	0b		 DB	 11			; 0000000bH
  02663	0c		 DB	 12			; 0000000cH
  02664	2c		 DB	 44			; 0000002cH
  02665	2c		 DB	 44			; 0000002cH
  02666	2c		 DB	 44			; 0000002cH
  02667	0d		 DB	 13			; 0000000dH
  02668	00		 DB	 0
  02669	00		 DB	 0
  0266a	0e		 DB	 14			; 0000000eH
  0266b	0f		 DB	 15			; 0000000fH
  0266c	10		 DB	 16			; 00000010H
  0266d	11		 DB	 17			; 00000011H
  0266e	00		 DB	 0
  0266f	12		 DB	 18			; 00000012H
  02670	2c		 DB	 44			; 0000002cH
  02671	2c		 DB	 44			; 0000002cH
  02672	2c		 DB	 44			; 0000002cH
  02673	00		 DB	 0
  02674	2c		 DB	 44			; 0000002cH
  02675	2c		 DB	 44			; 0000002cH
  02676	13		 DB	 19			; 00000013H
  02677	00		 DB	 0
  02678	14		 DB	 20			; 00000014H
  02679	2c		 DB	 44			; 0000002cH
  0267a	2c		 DB	 44			; 0000002cH
  0267b	15		 DB	 21			; 00000015H
  0267c	16		 DB	 22			; 00000016H
  0267d	17		 DB	 23			; 00000017H
  0267e	18		 DB	 24			; 00000018H
  0267f	19		 DB	 25			; 00000019H
  02680	2c		 DB	 44			; 0000002cH
  02681	2c		 DB	 44			; 0000002cH
  02682	2c		 DB	 44			; 0000002cH
  02683	1a		 DB	 26			; 0000001aH
  02684	1b		 DB	 27			; 0000001bH
  02685	1c		 DB	 28			; 0000001cH
  02686	1d		 DB	 29			; 0000001dH
  02687	1e		 DB	 30			; 0000001eH
  02688	1f		 DB	 31			; 0000001fH
  02689	20		 DB	 32			; 00000020H
  0268a	21		 DB	 33			; 00000021H
  0268b	2c		 DB	 44			; 0000002cH
  0268c	22		 DB	 34			; 00000022H
  0268d	2c		 DB	 44			; 0000002cH
  0268e	2c		 DB	 44			; 0000002cH
  0268f	2c		 DB	 44			; 0000002cH
  02690	2c		 DB	 44			; 0000002cH
  02691	2c		 DB	 44			; 0000002cH
  02692	2c		 DB	 44			; 0000002cH
  02693	2c		 DB	 44			; 0000002cH
  02694	2c		 DB	 44			; 0000002cH
  02695	2c		 DB	 44			; 0000002cH
  02696	2c		 DB	 44			; 0000002cH
  02697	2c		 DB	 44			; 0000002cH
  02698	2c		 DB	 44			; 0000002cH
  02699	2c		 DB	 44			; 0000002cH
  0269a	2c		 DB	 44			; 0000002cH
  0269b	2c		 DB	 44			; 0000002cH
  0269c	2c		 DB	 44			; 0000002cH
  0269d	2c		 DB	 44			; 0000002cH
  0269e	2c		 DB	 44			; 0000002cH
  0269f	2c		 DB	 44			; 0000002cH
  026a0	2c		 DB	 44			; 0000002cH
  026a1	2c		 DB	 44			; 0000002cH
  026a2	2c		 DB	 44			; 0000002cH
  026a3	2c		 DB	 44			; 0000002cH
  026a4	2c		 DB	 44			; 0000002cH
  026a5	2c		 DB	 44			; 0000002cH
  026a6	2c		 DB	 44			; 0000002cH
  026a7	2c		 DB	 44			; 0000002cH
  026a8	2c		 DB	 44			; 0000002cH
  026a9	2c		 DB	 44			; 0000002cH
  026aa	2c		 DB	 44			; 0000002cH
  026ab	2c		 DB	 44			; 0000002cH
  026ac	2c		 DB	 44			; 0000002cH
  026ad	2c		 DB	 44			; 0000002cH
  026ae	2c		 DB	 44			; 0000002cH
  026af	2c		 DB	 44			; 0000002cH
  026b0	2c		 DB	 44			; 0000002cH
  026b1	2c		 DB	 44			; 0000002cH
  026b2	2c		 DB	 44			; 0000002cH
  026b3	2c		 DB	 44			; 0000002cH
  026b4	2c		 DB	 44			; 0000002cH
  026b5	2c		 DB	 44			; 0000002cH
  026b6	2c		 DB	 44			; 0000002cH
  026b7	2c		 DB	 44			; 0000002cH
  026b8	2c		 DB	 44			; 0000002cH
  026b9	2c		 DB	 44			; 0000002cH
  026ba	2c		 DB	 44			; 0000002cH
  026bb	2c		 DB	 44			; 0000002cH
  026bc	2c		 DB	 44			; 0000002cH
  026bd	2c		 DB	 44			; 0000002cH
  026be	2c		 DB	 44			; 0000002cH
  026bf	2c		 DB	 44			; 0000002cH
  026c0	2c		 DB	 44			; 0000002cH
  026c1	2c		 DB	 44			; 0000002cH
  026c2	2c		 DB	 44			; 0000002cH
  026c3	2c		 DB	 44			; 0000002cH
  026c4	2c		 DB	 44			; 0000002cH
  026c5	2c		 DB	 44			; 0000002cH
  026c6	2c		 DB	 44			; 0000002cH
  026c7	2c		 DB	 44			; 0000002cH
  026c8	2c		 DB	 44			; 0000002cH
  026c9	2c		 DB	 44			; 0000002cH
  026ca	2c		 DB	 44			; 0000002cH
  026cb	2c		 DB	 44			; 0000002cH
  026cc	2c		 DB	 44			; 0000002cH
  026cd	2c		 DB	 44			; 0000002cH
  026ce	2c		 DB	 44			; 0000002cH
  026cf	2c		 DB	 44			; 0000002cH
  026d0	2c		 DB	 44			; 0000002cH
  026d1	2c		 DB	 44			; 0000002cH
  026d2	2c		 DB	 44			; 0000002cH
  026d3	2c		 DB	 44			; 0000002cH
  026d4	2c		 DB	 44			; 0000002cH
  026d5	2c		 DB	 44			; 0000002cH
  026d6	2c		 DB	 44			; 0000002cH
  026d7	2c		 DB	 44			; 0000002cH
  026d8	2c		 DB	 44			; 0000002cH
  026d9	2c		 DB	 44			; 0000002cH
  026da	2c		 DB	 44			; 0000002cH
  026db	2c		 DB	 44			; 0000002cH
  026dc	2c		 DB	 44			; 0000002cH
  026dd	2c		 DB	 44			; 0000002cH
  026de	2c		 DB	 44			; 0000002cH
  026df	2c		 DB	 44			; 0000002cH
  026e0	2c		 DB	 44			; 0000002cH
  026e1	2c		 DB	 44			; 0000002cH
  026e2	2c		 DB	 44			; 0000002cH
  026e3	2c		 DB	 44			; 0000002cH
  026e4	2c		 DB	 44			; 0000002cH
  026e5	2c		 DB	 44			; 0000002cH
  026e6	2c		 DB	 44			; 0000002cH
  026e7	2c		 DB	 44			; 0000002cH
  026e8	2c		 DB	 44			; 0000002cH
  026e9	2c		 DB	 44			; 0000002cH
  026ea	2c		 DB	 44			; 0000002cH
  026eb	2c		 DB	 44			; 0000002cH
  026ec	2c		 DB	 44			; 0000002cH
  026ed	2c		 DB	 44			; 0000002cH
  026ee	2c		 DB	 44			; 0000002cH
  026ef	2c		 DB	 44			; 0000002cH
  026f0	2c		 DB	 44			; 0000002cH
  026f1	2c		 DB	 44			; 0000002cH
  026f2	2c		 DB	 44			; 0000002cH
  026f3	2c		 DB	 44			; 0000002cH
  026f4	2c		 DB	 44			; 0000002cH
  026f5	2c		 DB	 44			; 0000002cH
  026f6	2c		 DB	 44			; 0000002cH
  026f7	2c		 DB	 44			; 0000002cH
  026f8	2c		 DB	 44			; 0000002cH
  026f9	2c		 DB	 44			; 0000002cH
  026fa	2c		 DB	 44			; 0000002cH
  026fb	2c		 DB	 44			; 0000002cH
  026fc	2c		 DB	 44			; 0000002cH
  026fd	2c		 DB	 44			; 0000002cH
  026fe	2c		 DB	 44			; 0000002cH
  026ff	2c		 DB	 44			; 0000002cH
  02700	2c		 DB	 44			; 0000002cH
  02701	2c		 DB	 44			; 0000002cH
  02702	2c		 DB	 44			; 0000002cH
  02703	2c		 DB	 44			; 0000002cH
  02704	2c		 DB	 44			; 0000002cH
  02705	2c		 DB	 44			; 0000002cH
  02706	2c		 DB	 44			; 0000002cH
  02707	23		 DB	 35			; 00000023H
  02708	24		 DB	 36			; 00000024H
  02709	25		 DB	 37			; 00000025H
  0270a	2c		 DB	 44			; 0000002cH
  0270b	2c		 DB	 44			; 0000002cH
  0270c	2c		 DB	 44			; 0000002cH
  0270d	2c		 DB	 44			; 0000002cH
  0270e	2c		 DB	 44			; 0000002cH
  0270f	2c		 DB	 44			; 0000002cH
  02710	2c		 DB	 44			; 0000002cH
  02711	2c		 DB	 44			; 0000002cH
  02712	2c		 DB	 44			; 0000002cH
  02713	2c		 DB	 44			; 0000002cH
  02714	2c		 DB	 44			; 0000002cH
  02715	2c		 DB	 44			; 0000002cH
  02716	2c		 DB	 44			; 0000002cH
  02717	2c		 DB	 44			; 0000002cH
  02718	26		 DB	 38			; 00000026H
  02719	27		 DB	 39			; 00000027H
  0271a	28		 DB	 40			; 00000028H
  0271b	29		 DB	 41			; 00000029H
  0271c	2c		 DB	 44			; 0000002cH
  0271d	2c		 DB	 44			; 0000002cH
  0271e	2c		 DB	 44			; 0000002cH
  0271f	2c		 DB	 44			; 0000002cH
  02720	2c		 DB	 44			; 0000002cH
  02721	2c		 DB	 44			; 0000002cH
  02722	2c		 DB	 44			; 0000002cH
  02723	2c		 DB	 44			; 0000002cH
  02724	2c		 DB	 44			; 0000002cH
  02725	2c		 DB	 44			; 0000002cH
  02726	2c		 DB	 44			; 0000002cH
  02727	2c		 DB	 44			; 0000002cH
  02728	2a		 DB	 42			; 0000002aH
  02729	2b		 DB	 43			; 0000002bH
  0272a	8b ff		 npad	 2
$LN63@RunningSki:
  0272c	00 00 00 00	 DD	 $LN3@RunningSki
  02730	00 00 00 00	 DD	 $LN6@RunningSki
  02734	00 00 00 00	 DD	 $LN5@RunningSki
  02738	00 00 00 00	 DD	 $LN5@RunningSki
  0273c	00 00 00 00	 DD	 $LN2@RunningSki
?RunningSkill@CObjUseSkill@@QAEHHHPAVCMagicInf@@H@Z ENDP ; CObjUseSkill::RunningSkill
_TEXT	ENDS
PUBLIC	??_C@_0BN@OLMADCHD@?$LI?$LG?$LA?K?$LL?g?5?$LI?s?$LN?$LK?E?M?$LJ?f?$LO?n?$LH?B?$LA?$KI?$LM?R?5?3?5?$CFd?$AA@ ; `string'
EXTRN	?GCMagicAttackNumberSend@@YAXPAUOBJECTSTRUCT@@GHE@Z:PROC ; GCMagicAttackNumberSend
EXTRN	?gObjApplyBuffEffectDuration@@YAEPAUOBJECTSTRUCT@@HEHEHH@Z:PROC ; gObjApplyBuffEffectDuration
EXTRN	?retCalcSkillResistance@@YAHPAUOBJECTSTRUCT@@H@Z:PROC ; retCalcSkillResistance
EXTRN	?LogAdd@@3P6AXPADZZA:DWORD			; LogAdd
;	COMDAT ??_C@_0BN@OLMADCHD@?$LI?$LG?$LA?K?$LL?g?5?$LI?s?$LN?$LK?E?M?$LJ?f?$LO?n?$LH?B?$LA?$KI?$LM?R?5?3?5?$CFd?$AA@
CONST	SEGMENT
??_C@_0BN@OLMADCHD@?$LI?$LG?$LA?K?$LL?g?5?$LI?s?$LN?$LK?E?M?$LJ?f?$LO?n?$LH?B?$LA?$KI?$LM?R?5?3?5?$CFd?$AA@ DB 0b8H
	DB	0b6H, 0b0H, 0cbH, 0bbH, 0e7H, ' ', 0b8H, 0f3H, 0bdH, 0baH, 0c5H
	DB	0cdH, 0b9H, 0e6H, 0beH, 0eeH, 0b7H, 0c2H, 0b0H, 0a8H, 0bcH, 0d2H
	DB	' : %d', 00H					; `string'
; Function compile flags: /Odtp /ZI
CONST	ENDS
_TEXT	SEGMENT
_lpTargetObj$ = -16					; size = 4
_lpObj$ = -12						; size = 4
_skillSuccess$ = -8					; size = 4
_this$ = -4						; size = 4
_aIndex$ = 8						; size = 4
_aTargetIndex$ = 12					; size = 4
_skill_level$ = 16					; size = 4
?MaGumSkillDefenseDown@CObjUseSkill@@QAEXHHH@Z PROC	; CObjUseSkill::MaGumSkillDefenseDown
; _this$ = ecx

; 1054 : {

  02740	55		 push	 ebp
  02741	8b ec		 mov	 ebp, esp
  02743	83 ec 50	 sub	 esp, 80			; 00000050H
  02746	53		 push	 ebx
  02747	56		 push	 esi
  02748	57		 push	 edi
  02749	89 4d fc	 mov	 DWORD PTR _this$[ebp], ecx

; 1055 : 	int skillSuccess = 1;

  0274c	c7 45 f8 01 00
	00 00		 mov	 DWORD PTR _skillSuccess$[ebp], 1

; 1056 : 	LPOBJ lpObj = &gObj[aIndex];

  02753	8b 45 08	 mov	 eax, DWORD PTR _aIndex$[ebp]
  02756	69 c0 38 2b 00
	00		 imul	 eax, 11064		; 00002b38H
  0275c	03 05 00 00 00
	00		 add	 eax, DWORD PTR ?gObj@@3PAUOBJECTSTRUCT@@A ; gObj
  02762	89 45 f4	 mov	 DWORD PTR _lpObj$[ebp], eax

; 1057 : 	LPOBJ lpTargetObj = &gObj[aTargetIndex];

  02765	8b 45 0c	 mov	 eax, DWORD PTR _aTargetIndex$[ebp]
  02768	69 c0 38 2b 00
	00		 imul	 eax, 11064		; 00002b38H
  0276e	03 05 00 00 00
	00		 add	 eax, DWORD PTR ?gObj@@3PAUOBJECTSTRUCT@@A ; gObj
  02774	89 45 f0	 mov	 DWORD PTR _lpTargetObj$[ebp], eax

; 1058 : 
; 1059 : 	if(lpObj->Type == OBJ_USER && lpObj->Class != CLASS_MAGUMSA)

  02777	8b 45 f4	 mov	 eax, DWORD PTR _lpObj$[ebp]
  0277a	0f b7 48 68	 movzx	 ecx, WORD PTR [eax+104]
  0277e	83 f9 01	 cmp	 ecx, 1
  02781	75 11		 jne	 SHORT $LN2@MaGumSkill
  02783	8b 45 f4	 mov	 eax, DWORD PTR _lpObj$[ebp]
  02786	0f b7 88 b8 00
	00 00		 movzx	 ecx, WORD PTR [eax+184]
  0278d	83 f9 03	 cmp	 ecx, 3
  02790	74 02		 je	 SHORT $LN2@MaGumSkill

; 1060 : 	{
; 1061 : 		return;

  02792	eb 53		 jmp	 SHORT $LN3@MaGumSkill
$LN2@MaGumSkill:

; 1062 : 	}
; 1063 : 
; 1064 : 	LogAdd("  : %d",10); // HermeX Fix

  02794	6a 0a		 push	 10			; 0000000aH
  02796	68 00 00 00 00	 push	 OFFSET ??_C@_0BN@OLMADCHD@?$LI?$LG?$LA?K?$LL?g?5?$LI?s?$LN?$LK?E?M?$LJ?f?$LO?n?$LH?B?$LA?$KI?$LM?R?5?3?5?$CFd?$AA@
  0279b	ff 15 00 00 00
	00		 call	 DWORD PTR ?LogAdd@@3P6AXPADZZA ; LogAdd
  027a1	83 c4 08	 add	 esp, 8

; 1065 : 
; 1066 : 	if(retCalcSkillResistance(lpTargetObj,1))

  027a4	6a 01		 push	 1
  027a6	8b 45 f0	 mov	 eax, DWORD PTR _lpTargetObj$[ebp]
  027a9	50		 push	 eax
  027aa	e8 00 00 00 00	 call	 ?retCalcSkillResistance@@YAHPAUOBJECTSTRUCT@@H@Z ; retCalcSkillResistance
  027af	83 c4 08	 add	 esp, 8
  027b2	85 c0		 test	 eax, eax
  027b4	74 31		 je	 SHORT $LN3@MaGumSkill

; 1067 : 	{
; 1068 : 		gObjApplyBuffEffectDuration(lpTargetObj, AT_REDUCE_DEFENSE, 23, 10, 0, 0, 10); //Season3 add-on

  027b6	6a 0a		 push	 10			; 0000000aH
  027b8	6a 00		 push	 0
  027ba	6a 00		 push	 0
  027bc	6a 0a		 push	 10			; 0000000aH
  027be	6a 17		 push	 23			; 00000017H
  027c0	6a 3a		 push	 58			; 0000003aH
  027c2	8b 45 f0	 mov	 eax, DWORD PTR _lpTargetObj$[ebp]
  027c5	50		 push	 eax
  027c6	e8 00 00 00 00	 call	 ?gObjApplyBuffEffectDuration@@YAEPAUOBJECTSTRUCT@@HEHEHH@Z ; gObjApplyBuffEffectDuration
  027cb	83 c4 1c	 add	 esp, 28			; 0000001cH

; 1069 : 		GCMagicAttackNumberSend(lpObj,AT_SKILL_DEFENSEDOWN,lpTargetObj->m_Index,skillSuccess);

  027ce	0f b6 45 f8	 movzx	 eax, BYTE PTR _skillSuccess$[ebp]
  027d2	50		 push	 eax
  027d3	8b 4d f0	 mov	 ecx, DWORD PTR _lpTargetObj$[ebp]
  027d6	8b 11		 mov	 edx, DWORD PTR [ecx]
  027d8	52		 push	 edx
  027d9	6a 37		 push	 55			; 00000037H
  027db	8b 45 f4	 mov	 eax, DWORD PTR _lpObj$[ebp]
  027de	50		 push	 eax
  027df	e8 00 00 00 00	 call	 ?GCMagicAttackNumberSend@@YAXPAUOBJECTSTRUCT@@GHE@Z ; GCMagicAttackNumberSend
  027e4	83 c4 10	 add	 esp, 16			; 00000010H
$LN3@MaGumSkill:

; 1070 : 	}
; 1071 : }

  027e7	5f		 pop	 edi
  027e8	5e		 pop	 esi
  027e9	5b		 pop	 ebx
  027ea	8b e5		 mov	 esp, ebp
  027ec	5d		 pop	 ebp
  027ed	c2 0c 00	 ret	 12			; 0000000cH
?MaGumSkillDefenseDown@CObjUseSkill@@QAEXHHH@Z ENDP	; CObjUseSkill::MaGumSkillDefenseDown
_TEXT	ENDS
PUBLIC	__$ArrayPad$
EXTRN	?ExConfig@@3VcExConfigs@@A:BYTE			; ExConfig
EXTRN	?CheckUser@CExLicense@@QAE_NH@Z:PROC		; CExLicense::CheckUser
EXTRN	?gObjCalDistance@@YAHPAUOBJECTSTRUCT@@0@Z:PROC	; gObjCalDistance
EXTRN	?gParty@@3VPartyClass@@A:BYTE			; gParty
EXTRN	_memset:PROC
EXTRN	?DestroyGIocp@@YAXXZ:PROC			; DestroyGIocp
EXTRN	?szAuthKey@@3PADA:BYTE				; szAuthKey
; Function compile flags: /Odtp /ZI
_TEXT	SEGMENT
_n$240308 = -108					; size = 4
_iLifeTime$ = -104					; size = 4
_iaddLifepower$ = -100					; size = 4
_iaddlife$ = -96					; size = 4
_n$240284 = -92						; size = 4
_lpPartyObj$ = -88					; size = 4
_viewpercent$ = -84					; size = 4
_viewplayer$ = -80					; size = 4
_ApplyPartyIndex$ = -76					; size = 40
_dis$ = -36						; size = 4
_partycount$ = -32					; size = 4
_totallevel$ = -28					; size = 4
_partynum$ = -24					; size = 4
_number$ = -20						; size = 4
_lpObj$ = -16						; size = 4
_skillSuccess$ = -12					; size = 4
_this$ = -8						; size = 4
__$ArrayPad$ = -4					; size = 4
_aIndex$ = 8						; size = 4
_skill_level$ = 12					; size = 4
?KnightSkillAddLife@CObjUseSkill@@QAEXHH@Z PROC		; CObjUseSkill::KnightSkillAddLife
; _this$ = ecx

; 1074 : {

  027f0	55		 push	 ebp
  027f1	8b ec		 mov	 ebp, esp
  027f3	81 ec ac 00 00
	00		 sub	 esp, 172		; 000000acH
  027f9	a1 00 00 00 00	 mov	 eax, DWORD PTR ___security_cookie
  027fe	33 c5		 xor	 eax, ebp
  02800	89 45 fc	 mov	 DWORD PTR __$ArrayPad$[ebp], eax
  02803	53		 push	 ebx
  02804	56		 push	 esi
  02805	57		 push	 edi
  02806	89 4d f8	 mov	 DWORD PTR _this$[ebp], ecx

; 1075 : 	//int skillSuccess = true;
; 1076 : 	//LPOBJ lpObj = &gObj[aIndex];
; 1077 : 
; 1078 : 	//if (szAuthKey[14] != AUTHKEY14 )
; 1079 : 	//{
; 1080 : 	//	DestroyGIocp();
; 1081 : 	//}
; 1082 : 
; 1083 : 	//if(lpObj->Type != OBJ_USER && lpObj->m_RecallMon == -1)
; 1084 : 	//{
; 1085 : 	//	return;
; 1086 : 	//}
; 1087 : 
; 1088 : 	//if(lpObj->Class != CLASS_KNIGHT && lpObj->Class != CLASS_MAGUMSA)
; 1089 : 	//{
; 1090 : 	//	return;
; 1091 : 	//}
; 1092 : 
; 1093 : 	//int number;
; 1094 : 	//int partynum = 0;
; 1095 : 	//int totallevel = 0;
; 1096 : 	//int partycount;
; 1097 : 	//int dis;
; 1098 : 
; 1099 : 	//int ApplyPartyIndex[MAX_USER_IN_PARTY];
; 1100 : 
; 1101 : 	//int viewplayer = 0;
; 1102 : 	//int viewpercent = 0;
; 1103 : 
; 1104 : 	//LPOBJ lpPartyObj;
; 1105 : 
; 1106 : 	//memset(ApplyPartyIndex,-1,sizeof(ApplyPartyIndex));
; 1107 : 
; 1108 : 	//partynum = lpObj->PartyNumber;
; 1109 : 
; 1110 : 	//if(partynum != -1)
; 1111 : 	//{
; 1112 : 	//	partycount = gParty.m_PartyS[partynum].Count;
; 1113 : 
; 1114 : 	//	for(int n = 0; n < MAX_USER_IN_PARTY; n++)
; 1115 : 	//	{
; 1116 : 	//		number = gParty.m_PartyS[partynum].Number[n];
; 1117 : 
; 1118 : 	//		if(number >= 0)
; 1119 : 	//		{
; 1120 : 	//			lpPartyObj = &gObj[number];
; 1121 : 
; 1122 : 	//			if(lpObj->MapNumber == lpPartyObj->MapNumber)
; 1123 : 	//			{
; 1124 : 	//				dis = gObjCalDistance(lpObj,&gObj[number]);
; 1125 : 
; 1126 : 	//				if(dis < 10)
; 1127 : 	//				{
; 1128 : 	//					ApplyPartyIndex[n] = lpPartyObj->m_Index;
; 1129 : 	//					viewplayer++;
; 1130 : 	//				}
; 1131 : 	//			}
; 1132 : 	//		}
; 1133 : 	//	}
; 1134 : 	//}
; 1135 : 
; 1136 : 	//if(viewplayer > 1)
; 1137 : 	//{
; 1138 : 	//	if(viewplayer == 2)
; 1139 : 	//	{
; 1140 : 	//		viewpercent = 1;
; 1141 : 	//	}
; 1142 : 	//	else if(viewplayer == 3)
; 1143 : 	//	{
; 1144 : 	//		viewpercent = 2;
; 1145 : 	//	}
; 1146 : 	//	else if(viewplayer == 4)
; 1147 : 	//	{
; 1148 : 	//		viewpercent = 3;
; 1149 : 	//	}
; 1150 : 	//	else
; 1151 : 	//	{
; 1152 : 	//		viewpercent = 4;
; 1153 : 	//	}
; 1154 : 	//}
; 1155 : 
; 1156 : 	////int ExStartPowerHp = GetPrivateProfileInt("DakrKnight","HPStartPower",12,"..\\Data\\ExData\\Skills.ini");
; 1157 : 	////int ExVitality = GetPrivateProfileInt("DakrKnight","HPVitality",100,"..\\Data\\ExData\\Skills.ini");
; 1158 : 	////int ExEnergy = GetPrivateProfileInt("DakrKnight","HPEnergy",20,"..\\Data\\ExData\\Skills.ini");
; 1159 : 	////int ExMaxPowerHp = GetPrivateProfileInt("DakrKnight","HPMaxPower",200,"..\\Data\\ExData\\Skills.ini");
; 1160 : 
; 1161 : 	//int iaddLifepower = ExConfig.Skills.ExStartPowerHp + (lpObj->Vitality + lpObj->AddVitality) / ExConfig.Skills.ExVitality + (lpObj->Energy + lpObj->AddEnergy)/ExConfig.Skills.ExEnergy + viewpercent;
; 1162 : 	//int iLifeTime = 60 + (lpObj->Energy + lpObj->AddEnergy) / 10;
; 1163 : 	//int iaddlife;
; 1164 : 
; 1165 : 	//if(iaddLifepower > ExConfig.Skills.ExMaxPowerHp)
; 1166 : 	//	iaddLifepower = ExConfig.Skills.ExMaxPowerHp;
; 1167 : 	//
; 1168 : 
; 1169 : 	//if(partynum == -1)
; 1170 : 	//{
; 1171 : 	//	iaddlife = int(lpObj->MaxLife) * iaddLifepower / 100;
; 1172 : 	//	gObjApplyBuffEffectDuration(lpObj, AT_SWELL_LIFE, 4, iaddlife, 0, 0, iLifeTime); //season3 add-on
; 1173 : 	//	GCMagicAttackNumberSend(lpObj,AT_SKILL_KNIGHTADDLIFE,lpObj->m_Index,skillSuccess);
; 1174 : 	//}
; 1175 : 	//else
; 1176 : 	//{
; 1177 : 	//	for(int n = 0; n < MAX_USER_IN_PARTY; n++)
; 1178 : 	//	{
; 1179 : 	//		if(ApplyPartyIndex[n]!= -1)
; 1180 : 	//		{
; 1181 : 	//			lpPartyObj = &gObj[ApplyPartyIndex[n]];
; 1182 : 	//			iaddlife = int(lpPartyObj->MaxLife) * iaddLifepower / 100;
; 1183 : 	//			gObjApplyBuffEffectDuration(lpPartyObj, AT_SWELL_LIFE, 4, iaddlife, 0, 0, iLifeTime); //season3 add-on
; 1184 : 	//			GCMagicAttackNumberSend(lpObj,AT_SKILL_KNIGHTADDLIFE,lpPartyObj->m_Index,skillSuccess);
; 1185 : 	//		}
; 1186 : 	//	}
; 1187 : 	//}
; 1188 : 
; 1189 : 	int skillSuccess = true;

  02809	c7 45 f4 01 00
	00 00		 mov	 DWORD PTR _skillSuccess$[ebp], 1

; 1190 : 	LPOBJ lpObj = &gObj[aIndex];

  02810	8b 45 08	 mov	 eax, DWORD PTR _aIndex$[ebp]
  02813	69 c0 38 2b 00
	00		 imul	 eax, 11064		; 00002b38H
  02819	03 05 00 00 00
	00		 add	 eax, DWORD PTR ?gObj@@3PAUOBJECTSTRUCT@@A ; gObj
  0281f	89 45 f0	 mov	 DWORD PTR _lpObj$[ebp], eax

; 1191 : 
; 1192 : 	if (szAuthKey[14] != AUTHKEY14 )

  02822	0f be 05 0e 00
	00 00		 movsx	 eax, BYTE PTR ?szAuthKey@@3PADA+14
  02829	83 f8 e9	 cmp	 eax, -23		; ffffffe9H
  0282c	74 05		 je	 SHORT $LN28@KnightSkil

; 1193 : 	{
; 1194 : 		DestroyGIocp();

  0282e	e8 00 00 00 00	 call	 ?DestroyGIocp@@YAXXZ	; DestroyGIocp
$LN28@KnightSkil:

; 1195 : 	}
; 1196 : 
; 1197 : 	if(lpObj->Type != OBJ_USER && lpObj->m_RecallMon == -1)

  02833	8b 45 f0	 mov	 eax, DWORD PTR _lpObj$[ebp]
  02836	0f b7 48 68	 movzx	 ecx, WORD PTR [eax+104]
  0283a	83 f9 01	 cmp	 ecx, 1
  0283d	74 11		 je	 SHORT $LN27@KnightSkil
  0283f	8b 45 f0	 mov	 eax, DWORD PTR _lpObj$[ebp]
  02842	83 b8 50 04 00
	00 ff		 cmp	 DWORD PTR [eax+1104], -1
  02849	75 05		 jne	 SHORT $LN27@KnightSkil

; 1198 : 	{
; 1199 : 		return;

  0284b	e9 5d 03 00 00	 jmp	 $LN29@KnightSkil
$LN27@KnightSkil:

; 1200 : 	}
; 1201 : 
; 1202 : 	if(lpObj->Class != CLASS_KNIGHT && lpObj->Class != CLASS_MAGUMSA)

  02850	8b 45 f0	 mov	 eax, DWORD PTR _lpObj$[ebp]
  02853	0f b7 88 b8 00
	00 00		 movzx	 ecx, WORD PTR [eax+184]
  0285a	83 f9 01	 cmp	 ecx, 1
  0285d	74 14		 je	 SHORT $LN26@KnightSkil
  0285f	8b 45 f0	 mov	 eax, DWORD PTR _lpObj$[ebp]
  02862	0f b7 88 b8 00
	00 00		 movzx	 ecx, WORD PTR [eax+184]
  02869	83 f9 03	 cmp	 ecx, 3
  0286c	74 05		 je	 SHORT $LN26@KnightSkil

; 1203 : 	{
; 1204 : 		return;

  0286e	e9 3a 03 00 00	 jmp	 $LN29@KnightSkil
$LN26@KnightSkil:

; 1205 : 	}
; 1206 : 
; 1207 : 	int number;
; 1208 : 	int partynum = 0;

  02873	c7 45 e8 00 00
	00 00		 mov	 DWORD PTR _partynum$[ebp], 0

; 1209 : 	int totallevel = 0;

  0287a	c7 45 e4 00 00
	00 00		 mov	 DWORD PTR _totallevel$[ebp], 0

; 1210 : 	int partycount;
; 1211 : 	int dis;
; 1212 : 
; 1213 : 	int ApplyPartyIndex[MAX_USER_IN_PARTY];
; 1214 : 
; 1215 : 	int viewplayer = 0;

  02881	c7 45 b0 00 00
	00 00		 mov	 DWORD PTR _viewplayer$[ebp], 0

; 1216 : 	int viewpercent = 0;

  02888	c7 45 ac 00 00
	00 00		 mov	 DWORD PTR _viewpercent$[ebp], 0

; 1217 : 
; 1218 : 	LPOBJ lpPartyObj;
; 1219 : 
; 1220 : 	memset(ApplyPartyIndex,-1,sizeof(ApplyPartyIndex));

  0288f	6a 28		 push	 40			; 00000028H
  02891	6a ff		 push	 -1
  02893	8d 45 b4	 lea	 eax, DWORD PTR _ApplyPartyIndex$[ebp]
  02896	50		 push	 eax
  02897	e8 00 00 00 00	 call	 _memset
  0289c	83 c4 0c	 add	 esp, 12			; 0000000cH

; 1221 : 
; 1222 : 	partynum = lpObj->PartyNumber;

  0289f	8b 45 f0	 mov	 eax, DWORD PTR _lpObj$[ebp]
  028a2	8b 88 2c 04 00
	00		 mov	 ecx, DWORD PTR [eax+1068]
  028a8	89 4d e8	 mov	 DWORD PTR _partynum$[ebp], ecx

; 1223 : 
; 1224 : 	if(partynum != -1)

  028ab	83 7d e8 ff	 cmp	 DWORD PTR _partynum$[ebp], -1
  028af	0f 84 ad 00 00
	00		 je	 $LN22@KnightSkil

; 1225 : 	{
; 1226 : 		partycount = gParty.m_PartyS[partynum].Count;

  028b5	8b 45 e8	 mov	 eax, DWORD PTR _partynum$[ebp]
  028b8	6b c0 6c	 imul	 eax, 108		; 0000006cH
  028bb	8b 88 08 00 00
	00		 mov	 ecx, DWORD PTR ?gParty@@3VPartyClass@@A[eax+8]
  028c1	89 4d e0	 mov	 DWORD PTR _partycount$[ebp], ecx

; 1227 : 
; 1228 : 		for(int n = 0; n < MAX_USER_IN_PARTY; n++)

  028c4	c7 45 a4 00 00
	00 00		 mov	 DWORD PTR _n$240284[ebp], 0
  028cb	eb 09		 jmp	 SHORT $LN24@KnightSkil
$LN23@KnightSkil:
  028cd	8b 45 a4	 mov	 eax, DWORD PTR _n$240284[ebp]
  028d0	83 c0 01	 add	 eax, 1
  028d3	89 45 a4	 mov	 DWORD PTR _n$240284[ebp], eax
$LN24@KnightSkil:
  028d6	83 7d a4 0a	 cmp	 DWORD PTR _n$240284[ebp], 10 ; 0000000aH
  028da	0f 8d 82 00 00
	00		 jge	 $LN22@KnightSkil

; 1229 : 		{
; 1230 : 			number = gParty.m_PartyS[partynum].Number[n];

  028e0	8b 45 e8	 mov	 eax, DWORD PTR _partynum$[ebp]
  028e3	6b c0 6c	 imul	 eax, 108		; 0000006cH
  028e6	8b 4d a4	 mov	 ecx, DWORD PTR _n$240284[ebp]
  028e9	8b 94 88 0c 00
	00 00		 mov	 edx, DWORD PTR ?gParty@@3VPartyClass@@A[eax+ecx*4+12]
  028f0	89 55 ec	 mov	 DWORD PTR _number$[ebp], edx

; 1231 : 
; 1232 : 			if(number >= 0)

  028f3	83 7d ec 00	 cmp	 DWORD PTR _number$[ebp], 0
  028f7	7c 64		 jl	 SHORT $LN19@KnightSkil

; 1233 : 			{
; 1234 : 				lpPartyObj = &gObj[number];

  028f9	8b 45 ec	 mov	 eax, DWORD PTR _number$[ebp]
  028fc	69 c0 38 2b 00
	00		 imul	 eax, 11064		; 00002b38H
  02902	03 05 00 00 00
	00		 add	 eax, DWORD PTR ?gObj@@3PAUOBJECTSTRUCT@@A ; gObj
  02908	89 45 a8	 mov	 DWORD PTR _lpPartyObj$[ebp], eax

; 1235 : 
; 1236 : 				if(lpObj->MapNumber == lpPartyObj->MapNumber)

  0290b	8b 45 f0	 mov	 eax, DWORD PTR _lpObj$[ebp]
  0290e	0f b6 88 49 01
	00 00		 movzx	 ecx, BYTE PTR [eax+329]
  02915	8b 55 a8	 mov	 edx, DWORD PTR _lpPartyObj$[ebp]
  02918	0f b6 82 49 01
	00 00		 movzx	 eax, BYTE PTR [edx+329]
  0291f	3b c8		 cmp	 ecx, eax
  02921	75 3a		 jne	 SHORT $LN19@KnightSkil

; 1237 : 				{
; 1238 : 					dis = gObjCalDistance(lpObj,&gObj[number]);

  02923	8b 45 ec	 mov	 eax, DWORD PTR _number$[ebp]
  02926	69 c0 38 2b 00
	00		 imul	 eax, 11064		; 00002b38H
  0292c	03 05 00 00 00
	00		 add	 eax, DWORD PTR ?gObj@@3PAUOBJECTSTRUCT@@A ; gObj
  02932	50		 push	 eax
  02933	8b 4d f0	 mov	 ecx, DWORD PTR _lpObj$[ebp]
  02936	51		 push	 ecx
  02937	e8 00 00 00 00	 call	 ?gObjCalDistance@@YAHPAUOBJECTSTRUCT@@0@Z ; gObjCalDistance
  0293c	83 c4 08	 add	 esp, 8
  0293f	89 45 dc	 mov	 DWORD PTR _dis$[ebp], eax

; 1239 : 
; 1240 : 					if(dis < 10)

  02942	83 7d dc 0a	 cmp	 DWORD PTR _dis$[ebp], 10 ; 0000000aH
  02946	7d 15		 jge	 SHORT $LN19@KnightSkil

; 1241 : 					{
; 1242 : 						ApplyPartyIndex[n] = lpPartyObj->m_Index;

  02948	8b 45 a4	 mov	 eax, DWORD PTR _n$240284[ebp]
  0294b	8b 4d a8	 mov	 ecx, DWORD PTR _lpPartyObj$[ebp]
  0294e	8b 11		 mov	 edx, DWORD PTR [ecx]
  02950	89 54 85 b4	 mov	 DWORD PTR _ApplyPartyIndex$[ebp+eax*4], edx

; 1243 : 						viewplayer++;

  02954	8b 45 b0	 mov	 eax, DWORD PTR _viewplayer$[ebp]
  02957	83 c0 01	 add	 eax, 1
  0295a	89 45 b0	 mov	 DWORD PTR _viewplayer$[ebp], eax
$LN19@KnightSkil:

; 1244 : 					}
; 1245 : 				}
; 1246 : 			}
; 1247 : 		}

  0295d	e9 6b ff ff ff	 jmp	 $LN23@KnightSkil
$LN22@KnightSkil:

; 1248 : 	}
; 1249 : 
; 1250 : 	if(viewplayer > 1)

  02962	83 7d b0 01	 cmp	 DWORD PTR _viewplayer$[ebp], 1
  02966	7e 34		 jle	 SHORT $LN12@KnightSkil

; 1251 : 	{
; 1252 : 		if(viewplayer == 2)

  02968	83 7d b0 02	 cmp	 DWORD PTR _viewplayer$[ebp], 2
  0296c	75 09		 jne	 SHORT $LN17@KnightSkil

; 1253 : 		{
; 1254 : 			viewpercent = 1;

  0296e	c7 45 ac 01 00
	00 00		 mov	 DWORD PTR _viewpercent$[ebp], 1
  02975	eb 25		 jmp	 SHORT $LN12@KnightSkil
$LN17@KnightSkil:

; 1255 : 		}
; 1256 : 		else if(viewplayer == 3)

  02977	83 7d b0 03	 cmp	 DWORD PTR _viewplayer$[ebp], 3
  0297b	75 09		 jne	 SHORT $LN15@KnightSkil

; 1257 : 		{
; 1258 : 			viewpercent = 2;

  0297d	c7 45 ac 02 00
	00 00		 mov	 DWORD PTR _viewpercent$[ebp], 2
  02984	eb 16		 jmp	 SHORT $LN12@KnightSkil
$LN15@KnightSkil:

; 1259 : 		}
; 1260 : 		else if(viewplayer == 4)

  02986	83 7d b0 04	 cmp	 DWORD PTR _viewplayer$[ebp], 4
  0298a	75 09		 jne	 SHORT $LN13@KnightSkil

; 1261 : 		{
; 1262 : 			viewpercent = 3;

  0298c	c7 45 ac 03 00
	00 00		 mov	 DWORD PTR _viewpercent$[ebp], 3

; 1263 : 		}
; 1264 : 		else

  02993	eb 07		 jmp	 SHORT $LN12@KnightSkil
$LN13@KnightSkil:

; 1265 : 		{
; 1266 : 			viewpercent = 4;

  02995	c7 45 ac 04 00
	00 00		 mov	 DWORD PTR _viewpercent$[ebp], 4
$LN12@KnightSkil:

; 1267 : 		}
; 1268 : 	}
; 1269 : 	int iaddlife;
; 1270 : 	int iaddLifepower	= g_SkillAdditionInfo.SwellLifeEffectStart + (lpObj->Vitality + lpObj->AddVitality) / g_SkillAdditionInfo.SwellLifeEffectDiv1 + (lpObj->Energy + lpObj->AddEnergy)/ g_SkillAdditionInfo.SwellLifeEffectDiv2 + viewpercent;

  0299c	0f b7 0d 70 0b
	00 00		 movzx	 ecx, WORD PTR ?g_SkillAdditionInfo@@3VCSkillAdditionInfo@@A+2928
  029a3	8b 55 f0	 mov	 edx, DWORD PTR _lpObj$[ebp]
  029a6	0f b7 82 f8 00
	00 00		 movzx	 eax, WORD PTR [edx+248]
  029ad	8b 55 f0	 mov	 edx, DWORD PTR _lpObj$[ebp]
  029b0	0f bf 92 24 01
	00 00		 movsx	 edx, WORD PTR [edx+292]
  029b7	03 c2		 add	 eax, edx
  029b9	0f b7 35 72 0b
	00 00		 movzx	 esi, WORD PTR ?g_SkillAdditionInfo@@3VCSkillAdditionInfo@@A+2930
  029c0	99		 cdq
  029c1	f7 fe		 idiv	 esi
  029c3	03 c8		 add	 ecx, eax
  029c5	8b 45 f0	 mov	 eax, DWORD PTR _lpObj$[ebp]
  029c8	0f b7 80 fa 00
	00 00		 movzx	 eax, WORD PTR [eax+250]
  029cf	8b 55 f0	 mov	 edx, DWORD PTR _lpObj$[ebp]
  029d2	0f bf 92 26 01
	00 00		 movsx	 edx, WORD PTR [edx+294]
  029d9	03 c2		 add	 eax, edx
  029db	0f b7 35 74 0b
	00 00		 movzx	 esi, WORD PTR ?g_SkillAdditionInfo@@3VCSkillAdditionInfo@@A+2932
  029e2	99		 cdq
  029e3	f7 fe		 idiv	 esi
  029e5	03 4d ac	 add	 ecx, DWORD PTR _viewpercent$[ebp]
  029e8	03 c1		 add	 eax, ecx
  029ea	89 45 9c	 mov	 DWORD PTR _iaddLifepower$[ebp], eax

; 1271 : 
; 1272 : 	if( g_SkillAdditionInfo.SwellLifeEffectMax > 0 && iaddLifepower > g_SkillAdditionInfo.SwellLifeEffectMax )

  029ed	83 3d 78 0b 00
	00 00		 cmp	 DWORD PTR ?g_SkillAdditionInfo@@3VCSkillAdditionInfo@@A+2936, 0
  029f4	76 13		 jbe	 SHORT $LN11@KnightSkil
  029f6	8b 45 9c	 mov	 eax, DWORD PTR _iaddLifepower$[ebp]
  029f9	3b 05 78 0b 00
	00		 cmp	 eax, DWORD PTR ?g_SkillAdditionInfo@@3VCSkillAdditionInfo@@A+2936
  029ff	76 08		 jbe	 SHORT $LN11@KnightSkil

; 1273 : 	{
; 1274 : 		iaddLifepower = g_SkillAdditionInfo.SwellLifeEffectMax;

  02a01	a1 78 0b 00 00	 mov	 eax, DWORD PTR ?g_SkillAdditionInfo@@3VCSkillAdditionInfo@@A+2936
  02a06	89 45 9c	 mov	 DWORD PTR _iaddLifepower$[ebp], eax
$LN11@KnightSkil:

; 1275 : 	}
; 1276 : 
; 1277 : 	int iLifeTime		= g_SkillAdditionInfo.SwellLifeTimeStart + (lpObj->Energy + lpObj->AddEnergy) / g_SkillAdditionInfo.SwellLifeTimeDiv;

  02a09	0f b7 0d 7c 0b
	00 00		 movzx	 ecx, WORD PTR ?g_SkillAdditionInfo@@3VCSkillAdditionInfo@@A+2940
  02a10	8b 55 f0	 mov	 edx, DWORD PTR _lpObj$[ebp]
  02a13	0f b7 82 fa 00
	00 00		 movzx	 eax, WORD PTR [edx+250]
  02a1a	8b 55 f0	 mov	 edx, DWORD PTR _lpObj$[ebp]
  02a1d	0f bf 92 26 01
	00 00		 movsx	 edx, WORD PTR [edx+294]
  02a24	03 c2		 add	 eax, edx
  02a26	0f b7 35 7e 0b
	00 00		 movzx	 esi, WORD PTR ?g_SkillAdditionInfo@@3VCSkillAdditionInfo@@A+2942
  02a2d	99		 cdq
  02a2e	f7 fe		 idiv	 esi
  02a30	03 c8		 add	 ecx, eax
  02a32	89 4d 98	 mov	 DWORD PTR _iLifeTime$[ebp], ecx

; 1278 : 
; 1279 : 	if( g_SkillAdditionInfo.SwellLifeTimeMax > 0 && iLifeTime > g_SkillAdditionInfo.SwellLifeTimeMax )

  02a35	83 3d 80 0b 00
	00 00		 cmp	 DWORD PTR ?g_SkillAdditionInfo@@3VCSkillAdditionInfo@@A+2944, 0
  02a3c	76 13		 jbe	 SHORT $LN10@KnightSkil
  02a3e	8b 45 98	 mov	 eax, DWORD PTR _iLifeTime$[ebp]
  02a41	3b 05 80 0b 00
	00		 cmp	 eax, DWORD PTR ?g_SkillAdditionInfo@@3VCSkillAdditionInfo@@A+2944
  02a47	76 08		 jbe	 SHORT $LN10@KnightSkil

; 1280 : 	{
; 1281 : 		iLifeTime = g_SkillAdditionInfo.SwellLifeTimeMax;

  02a49	a1 80 0b 00 00	 mov	 eax, DWORD PTR ?g_SkillAdditionInfo@@3VCSkillAdditionInfo@@A+2944
  02a4e	89 45 98	 mov	 DWORD PTR _iLifeTime$[ebp], eax
$LN10@KnightSkil:

; 1282 : 	}
; 1283 : 	// ----
; 1284 : 	if(partynum == -1)

  02a51	83 7d e8 ff	 cmp	 DWORD PTR _partynum$[ebp], -1
  02a55	0f 85 c3 00 00
	00		 jne	 $LN9@KnightSkil

; 1285 : 	{
; 1286 : #ifdef PRIDEMU_CONFIG
; 1287 : 		if(g_ExLicense.CheckUser(eExUB::PrideMuLocal) || g_ExLicense.CheckUser(eExUB::PrideMu) || g_ExLicense.CheckUser(eExUB::Local3))

  02a5b	6a 1a		 push	 26			; 0000001aH
  02a5d	b9 00 00 00 00	 mov	 ecx, OFFSET ?g_ExLicense@@3VCExLicense@@A ; g_ExLicense
  02a62	e8 00 00 00 00	 call	 ?CheckUser@CExLicense@@QAE_NH@Z ; CExLicense::CheckUser
  02a67	0f b6 c0	 movzx	 eax, al
  02a6a	85 c0		 test	 eax, eax
  02a6c	75 26		 jne	 SHORT $LN7@KnightSkil
  02a6e	6a 11		 push	 17			; 00000011H
  02a70	b9 00 00 00 00	 mov	 ecx, OFFSET ?g_ExLicense@@3VCExLicense@@A ; g_ExLicense
  02a75	e8 00 00 00 00	 call	 ?CheckUser@CExLicense@@QAE_NH@Z ; CExLicense::CheckUser
  02a7a	0f b6 c0	 movzx	 eax, al
  02a7d	85 c0		 test	 eax, eax
  02a7f	75 13		 jne	 SHORT $LN7@KnightSkil
  02a81	6a 1c		 push	 28			; 0000001cH
  02a83	b9 00 00 00 00	 mov	 ecx, OFFSET ?g_ExLicense@@3VCExLicense@@A ; g_ExLicense
  02a88	e8 00 00 00 00	 call	 ?CheckUser@CExLicense@@QAE_NH@Z ; CExLicense::CheckUser
  02a8d	0f b6 c0	 movzx	 eax, al
  02a90	85 c0		 test	 eax, eax
  02a92	74 33		 je	 SHORT $LN8@KnightSkil
$LN7@KnightSkil:

; 1288 : 		{
; 1289 : 			iaddlife = int(lpObj->MaxLife) * iaddLifepower / 100;

  02a94	8b 45 f0	 mov	 eax, DWORD PTR _lpObj$[ebp]
  02a97	d9 80 00 01 00
	00		 fld	 DWORD PTR [eax+256]
  02a9d	e8 00 00 00 00	 call	 __ftol2_sse
  02aa2	0f af 45 9c	 imul	 eax, DWORD PTR _iaddLifepower$[ebp]
  02aa6	99		 cdq
  02aa7	b9 64 00 00 00	 mov	 ecx, 100		; 00000064H
  02aac	f7 f9		 idiv	 ecx
  02aae	89 45 a0	 mov	 DWORD PTR _iaddlife$[ebp], eax

; 1290 : 			iaddlife *= ExConfig.PrideMu.Fortitude / 100;

  02ab1	a1 6c 0b 00 00	 mov	 eax, DWORD PTR ?ExConfig@@3VcExConfigs@@A+2924
  02ab6	99		 cdq
  02ab7	b9 64 00 00 00	 mov	 ecx, 100		; 00000064H
  02abc	f7 f9		 idiv	 ecx
  02abe	0f af 45 a0	 imul	 eax, DWORD PTR _iaddlife$[ebp]
  02ac2	89 45 a0	 mov	 DWORD PTR _iaddlife$[ebp], eax

; 1291 : 		}
; 1292 : 		else

  02ac5	eb 1d		 jmp	 SHORT $LN6@KnightSkil
$LN8@KnightSkil:

; 1293 : 		{
; 1294 : 			iaddlife = int(lpObj->MaxLife) * iaddLifepower / 100;

  02ac7	8b 45 f0	 mov	 eax, DWORD PTR _lpObj$[ebp]
  02aca	d9 80 00 01 00
	00		 fld	 DWORD PTR [eax+256]
  02ad0	e8 00 00 00 00	 call	 __ftol2_sse
  02ad5	0f af 45 9c	 imul	 eax, DWORD PTR _iaddLifepower$[ebp]
  02ad9	99		 cdq
  02ada	b9 64 00 00 00	 mov	 ecx, 100		; 00000064H
  02adf	f7 f9		 idiv	 ecx
  02ae1	89 45 a0	 mov	 DWORD PTR _iaddlife$[ebp], eax
$LN6@KnightSkil:

; 1295 : 		}
; 1296 : #else
; 1297 : 		iaddlife = int(lpObj->MaxLife) * iaddLifepower / 100;
; 1298 : #endif
; 1299 : 		gObjApplyBuffEffectDuration(lpObj, AT_SWELL_LIFE, 4, iaddlife, 0, 0, iLifeTime);

  02ae4	8b 45 98	 mov	 eax, DWORD PTR _iLifeTime$[ebp]
  02ae7	50		 push	 eax
  02ae8	6a 00		 push	 0
  02aea	6a 00		 push	 0
  02aec	8b 4d a0	 mov	 ecx, DWORD PTR _iaddlife$[ebp]
  02aef	51		 push	 ecx
  02af0	6a 04		 push	 4
  02af2	6a 08		 push	 8
  02af4	8b 55 f0	 mov	 edx, DWORD PTR _lpObj$[ebp]
  02af7	52		 push	 edx
  02af8	e8 00 00 00 00	 call	 ?gObjApplyBuffEffectDuration@@YAEPAUOBJECTSTRUCT@@HEHEHH@Z ; gObjApplyBuffEffectDuration
  02afd	83 c4 1c	 add	 esp, 28			; 0000001cH

; 1300 : 		GCMagicAttackNumberSend(lpObj,AT_SKILL_KNIGHTADDLIFE,lpObj->m_Index,skillSuccess);

  02b00	0f b6 45 f4	 movzx	 eax, BYTE PTR _skillSuccess$[ebp]
  02b04	50		 push	 eax
  02b05	8b 4d f0	 mov	 ecx, DWORD PTR _lpObj$[ebp]
  02b08	8b 11		 mov	 edx, DWORD PTR [ecx]
  02b0a	52		 push	 edx
  02b0b	6a 30		 push	 48			; 00000030H
  02b0d	8b 45 f0	 mov	 eax, DWORD PTR _lpObj$[ebp]
  02b10	50		 push	 eax
  02b11	e8 00 00 00 00	 call	 ?GCMagicAttackNumberSend@@YAXPAUOBJECTSTRUCT@@GHE@Z ; GCMagicAttackNumberSend
  02b16	83 c4 10	 add	 esp, 16			; 00000010H

; 1301 : 	}
; 1302 : 	else

  02b19	e9 8f 00 00 00	 jmp	 $LN2@KnightSkil
$LN9@KnightSkil:

; 1303 : 	{
; 1304 : 		for(int n = 0; n < MAX_USER_IN_PARTY; n++)

  02b1e	c7 45 94 00 00
	00 00		 mov	 DWORD PTR _n$240308[ebp], 0
  02b25	eb 09		 jmp	 SHORT $LN4@KnightSkil
$LN3@KnightSkil:
  02b27	8b 45 94	 mov	 eax, DWORD PTR _n$240308[ebp]
  02b2a	83 c0 01	 add	 eax, 1
  02b2d	89 45 94	 mov	 DWORD PTR _n$240308[ebp], eax
$LN4@KnightSkil:
  02b30	83 7d 94 0a	 cmp	 DWORD PTR _n$240308[ebp], 10 ; 0000000aH
  02b34	7d 77		 jge	 SHORT $LN2@KnightSkil

; 1305 : 		{
; 1306 : 			if(ApplyPartyIndex[n]!= -1)

  02b36	8b 45 94	 mov	 eax, DWORD PTR _n$240308[ebp]
  02b39	83 7c 85 b4 ff	 cmp	 DWORD PTR _ApplyPartyIndex$[ebp+eax*4], -1
  02b3e	74 68		 je	 SHORT $LN1@KnightSkil

; 1307 : 			{
; 1308 : 				lpPartyObj = &gObj[ApplyPartyIndex[n]];

  02b40	8b 45 94	 mov	 eax, DWORD PTR _n$240308[ebp]
  02b43	8b 4c 85 b4	 mov	 ecx, DWORD PTR _ApplyPartyIndex$[ebp+eax*4]
  02b47	69 c9 38 2b 00
	00		 imul	 ecx, 11064		; 00002b38H
  02b4d	03 0d 00 00 00
	00		 add	 ecx, DWORD PTR ?gObj@@3PAUOBJECTSTRUCT@@A ; gObj
  02b53	89 4d a8	 mov	 DWORD PTR _lpPartyObj$[ebp], ecx

; 1309 : 				iaddlife = int(lpPartyObj->MaxLife) * iaddLifepower / 100;

  02b56	8b 45 a8	 mov	 eax, DWORD PTR _lpPartyObj$[ebp]
  02b59	d9 80 00 01 00
	00		 fld	 DWORD PTR [eax+256]
  02b5f	e8 00 00 00 00	 call	 __ftol2_sse
  02b64	0f af 45 9c	 imul	 eax, DWORD PTR _iaddLifepower$[ebp]
  02b68	99		 cdq
  02b69	b9 64 00 00 00	 mov	 ecx, 100		; 00000064H
  02b6e	f7 f9		 idiv	 ecx
  02b70	89 45 a0	 mov	 DWORD PTR _iaddlife$[ebp], eax

; 1310 : 
; 1311 : 				gObjApplyBuffEffectDuration(lpPartyObj, AT_SWELL_LIFE, 4, iaddlife, 0, 0, iLifeTime); //season3 add-on

  02b73	8b 45 98	 mov	 eax, DWORD PTR _iLifeTime$[ebp]
  02b76	50		 push	 eax
  02b77	6a 00		 push	 0
  02b79	6a 00		 push	 0
  02b7b	8b 4d a0	 mov	 ecx, DWORD PTR _iaddlife$[ebp]
  02b7e	51		 push	 ecx
  02b7f	6a 04		 push	 4
  02b81	6a 08		 push	 8
  02b83	8b 55 a8	 mov	 edx, DWORD PTR _lpPartyObj$[ebp]
  02b86	52		 push	 edx
  02b87	e8 00 00 00 00	 call	 ?gObjApplyBuffEffectDuration@@YAEPAUOBJECTSTRUCT@@HEHEHH@Z ; gObjApplyBuffEffectDuration
  02b8c	83 c4 1c	 add	 esp, 28			; 0000001cH

; 1312 : 				GCMagicAttackNumberSend(lpObj,AT_SKILL_KNIGHTADDLIFE,lpPartyObj->m_Index,skillSuccess);

  02b8f	0f b6 45 f4	 movzx	 eax, BYTE PTR _skillSuccess$[ebp]
  02b93	50		 push	 eax
  02b94	8b 4d a8	 mov	 ecx, DWORD PTR _lpPartyObj$[ebp]
  02b97	8b 11		 mov	 edx, DWORD PTR [ecx]
  02b99	52		 push	 edx
  02b9a	6a 30		 push	 48			; 00000030H
  02b9c	8b 45 f0	 mov	 eax, DWORD PTR _lpObj$[ebp]
  02b9f	50		 push	 eax
  02ba0	e8 00 00 00 00	 call	 ?GCMagicAttackNumberSend@@YAXPAUOBJECTSTRUCT@@GHE@Z ; GCMagicAttackNumberSend
  02ba5	83 c4 10	 add	 esp, 16			; 00000010H
$LN1@KnightSkil:

; 1313 : 			}
; 1314 : 		}

  02ba8	e9 7a ff ff ff	 jmp	 $LN3@KnightSkil
$LN2@KnightSkil:
$LN29@KnightSkil:

; 1315 : 	}
; 1316 : }

  02bad	5f		 pop	 edi
  02bae	5e		 pop	 esi
  02baf	5b		 pop	 ebx
  02bb0	8b 4d fc	 mov	 ecx, DWORD PTR __$ArrayPad$[ebp]
  02bb3	33 cd		 xor	 ecx, ebp
  02bb5	e8 00 00 00 00	 call	 @__security_check_cookie@4
  02bba	8b e5		 mov	 esp, ebp
  02bbc	5d		 pop	 ebp
  02bbd	c2 08 00	 ret	 8
?KnightSkillAddLife@CObjUseSkill@@QAEXHH@Z ENDP		; CObjUseSkill::KnightSkillAddLife
; Function compile flags: /Odtp /ZI
_WizardSkillDefenseTime$ = -28				; size = 4
_WizardSkillDefense$ = -24				; size = 4
_WizardManaRate$ = -20					; size = 4
_lpTargetObj$ = -16					; size = 4
_lpObj$ = -12						; size = 4
_skillSuccess$ = -8					; size = 4
_this$ = -4						; size = 4
_aIndex$ = 8						; size = 4
_aTargetIndex$ = 12					; size = 4
_skill_level$ = 16					; size = 4
?WizardMagicDefense@CObjUseSkill@@QAEXHHH@Z PROC	; CObjUseSkill::WizardMagicDefense
; _this$ = ecx

; 1320 : {

  02bc0	55		 push	 ebp
  02bc1	8b ec		 mov	 ebp, esp
  02bc3	83 ec 5c	 sub	 esp, 92			; 0000005cH
  02bc6	53		 push	 ebx
  02bc7	56		 push	 esi
  02bc8	57		 push	 edi
  02bc9	89 4d fc	 mov	 DWORD PTR _this$[ebp], ecx

; 1321 : 	//int skillSuccess = true;
; 1322 : 
; 1323 : 	//LPOBJ lpObj = &gObj[aIndex];
; 1324 : 	//LPOBJ lpTargetObj = &gObj[aTargetIndex];
; 1325 : 
; 1326 : 	//if(lpObj->Type != OBJ_USER && lpObj->m_RecallMon== -1)
; 1327 : 	//{
; 1328 : 	//	return;
; 1329 : 	//}
; 1330 : 
; 1331 : 	//if(lpObj->Class != CLASS_WIZARD && lpObj->Class != CLASS_MAGUMSA)
; 1332 : 	//{
; 1333 : 	//	return;
; 1334 : 	//}
; 1335 : 
; 1336 : 	//if(lpObj->PartyNumber != lpTargetObj->PartyNumber)
; 1337 : 	//{
; 1338 : 	//	return;
; 1339 : 	//}
; 1340 : 
; 1341 : 	//int WizardSkillDefense = 0;
; 1342 : 	//int WizardSkillDefenseTime = 0;
; 1343 : 
; 1344 : 	////int ExMSStartPower = GetPrivateProfileInt("DarkWizard","MSStartPower",10,"..\\Data\\ExData\\Skills.ini");
; 1345 : 	////int ExMSAgility = GetPrivateProfileInt("DarkWizard","MSAgility",50,"..\\Data\\ExData\\Skills.ini");
; 1346 : 	////int ExMSEnergy = GetPrivateProfileInt("DarkWizard","MSEnergy",200,"..\\Data\\ExData\\Skills.ini");
; 1347 : 	////int ExMSMaxPower = GetPrivateProfileInt("DarkWizard","MSMaxPower",50,"..\\Data\\ExData\\Skills.ini");
; 1348 : 
; 1349 : 	//WizardSkillDefense = ExConfig.Skills.ExMSStartPower + (lpObj->Dexterity + lpObj->AddDexterity) / ExConfig.Skills.ExMSAgility + (lpObj->Energy + lpObj->AddEnergy) / ExConfig.Skills.ExMSEnergy;
; 1350 : 	//WizardSkillDefenseTime = 60 + (lpObj->Energy + lpObj->AddEnergy) / 40;
; 1351 : 
