; Listing generated by Microsoft (R) Optimizing Compiler Version 16.00.40219.01 

	TITLE	D:\Projects\ExTeam6.3\Source\GameServer\GameServer\OffTrade.cpp
	.686P
	.XMM
	include listing.inc
	.model	flat

INCLUDELIB LIBCMT
INCLUDELIB OLDNAMES

PUBLIC	?gOffTrade@@3VcOffTrade@@A			; gOffTrade
_BSS	SEGMENT
?gOffTrade@@3VcOffTrade@@A DB 0cH DUP (?)		; gOffTrade
_BSS	ENDS
PUBLIC	??_H@YGXPAXIHP6EPAX0@Z@Z			; `vector constructor iterator'
; Function compile flags: /Odtp /ZI
;	COMDAT ??_H@YGXPAXIHP6EPAX0@Z@Z
_TEXT	SEGMENT
___t$ = 8						; size = 4
___s$ = 12						; size = 4
___n$ = 16						; size = 4
___f$ = 20						; size = 4
??_H@YGXPAXIHP6EPAX0@Z@Z PROC				; `vector constructor iterator', COMDAT
  00000	55		 push	 ebp
  00001	8b ec		 mov	 ebp, esp
  00003	83 ec 40	 sub	 esp, 64			; 00000040H
  00006	53		 push	 ebx
  00007	56		 push	 esi
  00008	57		 push	 edi
$LN2@vector:
  00009	8b 45 10	 mov	 eax, DWORD PTR ___n$[ebp]
  0000c	83 e8 01	 sub	 eax, 1
  0000f	89 45 10	 mov	 DWORD PTR ___n$[ebp], eax
  00012	78 11		 js	 SHORT $LN3@vector
  00014	8b 4d 08	 mov	 ecx, DWORD PTR ___t$[ebp]
  00017	ff 55 14	 call	 DWORD PTR ___f$[ebp]
  0001a	8b 45 08	 mov	 eax, DWORD PTR ___t$[ebp]
  0001d	03 45 0c	 add	 eax, DWORD PTR ___s$[ebp]
  00020	89 45 08	 mov	 DWORD PTR ___t$[ebp], eax
  00023	eb e4		 jmp	 SHORT $LN2@vector
$LN3@vector:
  00025	5f		 pop	 edi
  00026	5e		 pop	 esi
  00027	5b		 pop	 ebx
  00028	8b e5		 mov	 esp, ebp
  0002a	5d		 pop	 ebp
  0002b	c2 10 00	 ret	 16			; 00000010H
??_H@YGXPAXIHP6EPAX0@Z@Z ENDP				; `vector constructor iterator'
_TEXT	ENDS
PUBLIC	??_C@_0BE@CJGCNIFL@WorkOnlyLorenMarket?$AA@	; `string'
PUBLIC	??_C@_0O@CPNPILNB@OnlineOffSell?$AA@		; `string'
PUBLIC	??_C@_0N@MPKONGJK@OffTradeLife?$AA@		; `string'
PUBLIC	??_C@_0N@MHNHCPHF@OffTradeSoul?$AA@		; `string'
PUBLIC	??_C@_0O@OMPDGAJF@OffTradeBless?$AA@		; `string'
PUBLIC	??_C@_0O@EIHBNILD@OffTradeChaos?$AA@		; `string'
PUBLIC	??_C@_0P@ELADCPE@OffTradeGoblin?$AA@		; `string'
PUBLIC	??_C@_0P@JPGIFHDK@OffTradeWcoinP?$AA@		; `string'
PUBLIC	??_C@_0P@POIHBGKI@OffTradeWcoinC?$AA@		; `string'
PUBLIC	??_C@_0BA@EBACCJ@OffTradeCredits?$AA@		; `string'
PUBLIC	??_C@_0M@JNCKONMO@OffTradeZen?$AA@		; `string'
PUBLIC	??_C@_06POMJKEPM@Common?$AA@			; `string'
PUBLIC	??_C@_06CKGENIKG@Enable?$AA@			; `string'
PUBLIC	??_C@_0BM@PJALALIN@?4?4?2Data?2ExData?2OffTrade?4ini?$AA@ ; `string'
PUBLIC	?Load@cOffTrade@@QAEXXZ				; cOffTrade::Load
EXTRN	__imp__GetPrivateProfileIntA@16:PROC
;	COMDAT ??_C@_0BE@CJGCNIFL@WorkOnlyLorenMarket?$AA@
; File d:\projects\exteam6.3\source\gameserver\gameserver\offtrade.cpp
CONST	SEGMENT
??_C@_0BE@CJGCNIFL@WorkOnlyLorenMarket?$AA@ DB 'WorkOnlyLorenMarket', 00H ; `string'
CONST	ENDS
;	COMDAT ??_C@_0O@CPNPILNB@OnlineOffSell?$AA@
CONST	SEGMENT
??_C@_0O@CPNPILNB@OnlineOffSell?$AA@ DB 'OnlineOffSell', 00H ; `string'
CONST	ENDS
;	COMDAT ??_C@_0N@MPKONGJK@OffTradeLife?$AA@
CONST	SEGMENT
??_C@_0N@MPKONGJK@OffTradeLife?$AA@ DB 'OffTradeLife', 00H ; `string'
CONST	ENDS
;	COMDAT ??_C@_0N@MHNHCPHF@OffTradeSoul?$AA@
CONST	SEGMENT
??_C@_0N@MHNHCPHF@OffTradeSoul?$AA@ DB 'OffTradeSoul', 00H ; `string'
CONST	ENDS
;	COMDAT ??_C@_0O@OMPDGAJF@OffTradeBless?$AA@
CONST	SEGMENT
??_C@_0O@OMPDGAJF@OffTradeBless?$AA@ DB 'OffTradeBless', 00H ; `string'
CONST	ENDS
;	COMDAT ??_C@_0O@EIHBNILD@OffTradeChaos?$AA@
CONST	SEGMENT
??_C@_0O@EIHBNILD@OffTradeChaos?$AA@ DB 'OffTradeChaos', 00H ; `string'
CONST	ENDS
;	COMDAT ??_C@_0P@ELADCPE@OffTradeGoblin?$AA@
CONST	SEGMENT
??_C@_0P@ELADCPE@OffTradeGoblin?$AA@ DB 'OffTradeGoblin', 00H ; `string'
CONST	ENDS
;	COMDAT ??_C@_0P@JPGIFHDK@OffTradeWcoinP?$AA@
CONST	SEGMENT
??_C@_0P@JPGIFHDK@OffTradeWcoinP?$AA@ DB 'OffTradeWcoinP', 00H ; `string'
CONST	ENDS
;	COMDAT ??_C@_0P@POIHBGKI@OffTradeWcoinC?$AA@
CONST	SEGMENT
??_C@_0P@POIHBGKI@OffTradeWcoinC?$AA@ DB 'OffTradeWcoinC', 00H ; `string'
CONST	ENDS
;	COMDAT ??_C@_0BA@EBACCJ@OffTradeCredits?$AA@
CONST	SEGMENT
??_C@_0BA@EBACCJ@OffTradeCredits?$AA@ DB 'OffTradeCredits', 00H ; `string'
CONST	ENDS
;	COMDAT ??_C@_0M@JNCKONMO@OffTradeZen?$AA@
CONST	SEGMENT
??_C@_0M@JNCKONMO@OffTradeZen?$AA@ DB 'OffTradeZen', 00H ; `string'
CONST	ENDS
;	COMDAT ??_C@_06POMJKEPM@Common?$AA@
CONST	SEGMENT
??_C@_06POMJKEPM@Common?$AA@ DB 'Common', 00H		; `string'
CONST	ENDS
;	COMDAT ??_C@_06CKGENIKG@Enable?$AA@
CONST	SEGMENT
??_C@_06CKGENIKG@Enable?$AA@ DB 'Enable', 00H		; `string'
CONST	ENDS
;	COMDAT ??_C@_0BM@PJALALIN@?4?4?2Data?2ExData?2OffTrade?4ini?$AA@
CONST	SEGMENT
??_C@_0BM@PJALALIN@?4?4?2Data?2ExData?2OffTrade?4ini?$AA@ DB '..\Data\ExD'
	DB	'ata\OffTrade.ini', 00H			; `string'
; Function compile flags: /Odtp /ZI
CONST	ENDS
_TEXT	SEGMENT
_this$ = -4						; size = 4
?Load@cOffTrade@@QAEXXZ PROC				; cOffTrade::Load
; _this$ = ecx

; 23   : {

  00000	55		 push	 ebp
  00001	8b ec		 mov	 ebp, esp
  00003	83 ec 44	 sub	 esp, 68			; 00000044H
  00006	53		 push	 ebx
  00007	56		 push	 esi
  00008	57		 push	 edi
  00009	89 4d fc	 mov	 DWORD PTR _this$[ebp], ecx

; 24   : 	//CheckFile(OFFTRADE_DIR);
; 25   : 
; 26   : 	this->Enable = GetPrivateProfileInt("Common","Enable",1,OFFTRADE_DIR);

  0000c	68 00 00 00 00	 push	 OFFSET ??_C@_0BM@PJALALIN@?4?4?2Data?2ExData?2OffTrade?4ini?$AA@
  00011	6a 01		 push	 1
  00013	68 00 00 00 00	 push	 OFFSET ??_C@_06CKGENIKG@Enable?$AA@
  00018	68 00 00 00 00	 push	 OFFSET ??_C@_06POMJKEPM@Common?$AA@
  0001d	ff 15 00 00 00
	00		 call	 DWORD PTR __imp__GetPrivateProfileIntA@16
  00023	85 c0		 test	 eax, eax
  00025	0f 95 c0	 setne	 al
  00028	8b 4d fc	 mov	 ecx, DWORD PTR _this$[ebp]
  0002b	88 01		 mov	 BYTE PTR [ecx], al

; 27   : 
; 28   : 	this->OffTradeZen = GetPrivateProfileInt("Common","OffTradeZen",1,OFFTRADE_DIR);

  0002d	68 00 00 00 00	 push	 OFFSET ??_C@_0BM@PJALALIN@?4?4?2Data?2ExData?2OffTrade?4ini?$AA@
  00032	6a 01		 push	 1
  00034	68 00 00 00 00	 push	 OFFSET ??_C@_0M@JNCKONMO@OffTradeZen?$AA@
  00039	68 00 00 00 00	 push	 OFFSET ??_C@_06POMJKEPM@Common?$AA@
  0003e	ff 15 00 00 00
	00		 call	 DWORD PTR __imp__GetPrivateProfileIntA@16
  00044	85 c0		 test	 eax, eax
  00046	0f 95 c0	 setne	 al
  00049	8b 4d fc	 mov	 ecx, DWORD PTR _this$[ebp]
  0004c	88 41 01	 mov	 BYTE PTR [ecx+1], al

; 29   : 	this->OffTradeCredits = GetPrivateProfileInt("Common","OffTradeCredits",1,OFFTRADE_DIR);

  0004f	68 00 00 00 00	 push	 OFFSET ??_C@_0BM@PJALALIN@?4?4?2Data?2ExData?2OffTrade?4ini?$AA@
  00054	6a 01		 push	 1
  00056	68 00 00 00 00	 push	 OFFSET ??_C@_0BA@EBACCJ@OffTradeCredits?$AA@
  0005b	68 00 00 00 00	 push	 OFFSET ??_C@_06POMJKEPM@Common?$AA@
  00060	ff 15 00 00 00
	00		 call	 DWORD PTR __imp__GetPrivateProfileIntA@16
  00066	85 c0		 test	 eax, eax
  00068	0f 95 c0	 setne	 al
  0006b	8b 4d fc	 mov	 ecx, DWORD PTR _this$[ebp]
  0006e	88 41 02	 mov	 BYTE PTR [ecx+2], al

; 30   : 	this->OffTradeWcoinC = GetPrivateProfileInt("Common","OffTradeWcoinC",1,OFFTRADE_DIR);

  00071	68 00 00 00 00	 push	 OFFSET ??_C@_0BM@PJALALIN@?4?4?2Data?2ExData?2OffTrade?4ini?$AA@
  00076	6a 01		 push	 1
  00078	68 00 00 00 00	 push	 OFFSET ??_C@_0P@POIHBGKI@OffTradeWcoinC?$AA@
  0007d	68 00 00 00 00	 push	 OFFSET ??_C@_06POMJKEPM@Common?$AA@
  00082	ff 15 00 00 00
	00		 call	 DWORD PTR __imp__GetPrivateProfileIntA@16
  00088	85 c0		 test	 eax, eax
  0008a	0f 95 c0	 setne	 al
  0008d	8b 4d fc	 mov	 ecx, DWORD PTR _this$[ebp]
  00090	88 41 03	 mov	 BYTE PTR [ecx+3], al

; 31   : 	this->OffTradeWcoinP = GetPrivateProfileInt("Common","OffTradeWcoinP",1,OFFTRADE_DIR);

  00093	68 00 00 00 00	 push	 OFFSET ??_C@_0BM@PJALALIN@?4?4?2Data?2ExData?2OffTrade?4ini?$AA@
  00098	6a 01		 push	 1
  0009a	68 00 00 00 00	 push	 OFFSET ??_C@_0P@JPGIFHDK@OffTradeWcoinP?$AA@
  0009f	68 00 00 00 00	 push	 OFFSET ??_C@_06POMJKEPM@Common?$AA@
  000a4	ff 15 00 00 00
	00		 call	 DWORD PTR __imp__GetPrivateProfileIntA@16
  000aa	85 c0		 test	 eax, eax
  000ac	0f 95 c0	 setne	 al
  000af	8b 4d fc	 mov	 ecx, DWORD PTR _this$[ebp]
  000b2	88 41 04	 mov	 BYTE PTR [ecx+4], al

; 32   : 	this->OffTradeGoblin = GetPrivateProfileInt("Common","OffTradeGoblin",1,OFFTRADE_DIR);

  000b5	68 00 00 00 00	 push	 OFFSET ??_C@_0BM@PJALALIN@?4?4?2Data?2ExData?2OffTrade?4ini?$AA@
  000ba	6a 01		 push	 1
  000bc	68 00 00 00 00	 push	 OFFSET ??_C@_0P@ELADCPE@OffTradeGoblin?$AA@
  000c1	68 00 00 00 00	 push	 OFFSET ??_C@_06POMJKEPM@Common?$AA@
  000c6	ff 15 00 00 00
	00		 call	 DWORD PTR __imp__GetPrivateProfileIntA@16
  000cc	85 c0		 test	 eax, eax
  000ce	0f 95 c0	 setne	 al
  000d1	8b 4d fc	 mov	 ecx, DWORD PTR _this$[ebp]
  000d4	88 41 05	 mov	 BYTE PTR [ecx+5], al

; 33   : 
; 34   : 	this->OffTradeChaos = GetPrivateProfileInt("Common","OffTradeChaos",1,OFFTRADE_DIR);

  000d7	68 00 00 00 00	 push	 OFFSET ??_C@_0BM@PJALALIN@?4?4?2Data?2ExData?2OffTrade?4ini?$AA@
  000dc	6a 01		 push	 1
  000de	68 00 00 00 00	 push	 OFFSET ??_C@_0O@EIHBNILD@OffTradeChaos?$AA@
  000e3	68 00 00 00 00	 push	 OFFSET ??_C@_06POMJKEPM@Common?$AA@
  000e8	ff 15 00 00 00
	00		 call	 DWORD PTR __imp__GetPrivateProfileIntA@16
  000ee	85 c0		 test	 eax, eax
  000f0	0f 95 c0	 setne	 al
  000f3	8b 4d fc	 mov	 ecx, DWORD PTR _this$[ebp]
  000f6	88 41 06	 mov	 BYTE PTR [ecx+6], al

; 35   : 	this->OffTradeBless = GetPrivateProfileInt("Common","OffTradeBless",1,OFFTRADE_DIR);

  000f9	68 00 00 00 00	 push	 OFFSET ??_C@_0BM@PJALALIN@?4?4?2Data?2ExData?2OffTrade?4ini?$AA@
  000fe	6a 01		 push	 1
  00100	68 00 00 00 00	 push	 OFFSET ??_C@_0O@OMPDGAJF@OffTradeBless?$AA@
  00105	68 00 00 00 00	 push	 OFFSET ??_C@_06POMJKEPM@Common?$AA@
  0010a	ff 15 00 00 00
	00		 call	 DWORD PTR __imp__GetPrivateProfileIntA@16
  00110	85 c0		 test	 eax, eax
  00112	0f 95 c0	 setne	 al
  00115	8b 4d fc	 mov	 ecx, DWORD PTR _this$[ebp]
  00118	88 41 07	 mov	 BYTE PTR [ecx+7], al

; 36   : 	this->OffTradeSoul = GetPrivateProfileInt("Common","OffTradeSoul",1,OFFTRADE_DIR);

  0011b	68 00 00 00 00	 push	 OFFSET ??_C@_0BM@PJALALIN@?4?4?2Data?2ExData?2OffTrade?4ini?$AA@
  00120	6a 01		 push	 1
  00122	68 00 00 00 00	 push	 OFFSET ??_C@_0N@MHNHCPHF@OffTradeSoul?$AA@
  00127	68 00 00 00 00	 push	 OFFSET ??_C@_06POMJKEPM@Common?$AA@
  0012c	ff 15 00 00 00
	00		 call	 DWORD PTR __imp__GetPrivateProfileIntA@16
  00132	85 c0		 test	 eax, eax
  00134	0f 95 c0	 setne	 al
  00137	8b 4d fc	 mov	 ecx, DWORD PTR _this$[ebp]
  0013a	88 41 08	 mov	 BYTE PTR [ecx+8], al

; 37   : 	this->OffTradeLife = GetPrivateProfileInt("Common","OffTradeLife",1,OFFTRADE_DIR);

  0013d	68 00 00 00 00	 push	 OFFSET ??_C@_0BM@PJALALIN@?4?4?2Data?2ExData?2OffTrade?4ini?$AA@
  00142	6a 01		 push	 1
  00144	68 00 00 00 00	 push	 OFFSET ??_C@_0N@MPKONGJK@OffTradeLife?$AA@
  00149	68 00 00 00 00	 push	 OFFSET ??_C@_06POMJKEPM@Common?$AA@
  0014e	ff 15 00 00 00
	00		 call	 DWORD PTR __imp__GetPrivateProfileIntA@16
  00154	85 c0		 test	 eax, eax
  00156	0f 95 c0	 setne	 al
  00159	8b 4d fc	 mov	 ecx, DWORD PTR _this$[ebp]
  0015c	88 41 09	 mov	 BYTE PTR [ecx+9], al

; 38   : 
; 39   : 	this->OnlineOffSell = GetPrivateProfileInt("Common","OnlineOffSell",0,OFFTRADE_DIR);

  0015f	68 00 00 00 00	 push	 OFFSET ??_C@_0BM@PJALALIN@?4?4?2Data?2ExData?2OffTrade?4ini?$AA@
  00164	6a 00		 push	 0
  00166	68 00 00 00 00	 push	 OFFSET ??_C@_0O@CPNPILNB@OnlineOffSell?$AA@
  0016b	68 00 00 00 00	 push	 OFFSET ??_C@_06POMJKEPM@Common?$AA@
  00170	ff 15 00 00 00
	00		 call	 DWORD PTR __imp__GetPrivateProfileIntA@16
  00176	85 c0		 test	 eax, eax
  00178	0f 95 c0	 setne	 al
  0017b	8b 4d fc	 mov	 ecx, DWORD PTR _this$[ebp]
  0017e	88 41 0a	 mov	 BYTE PTR [ecx+10], al

; 40   : 
; 41   : 	this->WorkOnlyLorenMarket = GetPrivateProfileInt("Common","WorkOnlyLorenMarket",0,OFFTRADE_DIR);

  00181	68 00 00 00 00	 push	 OFFSET ??_C@_0BM@PJALALIN@?4?4?2Data?2ExData?2OffTrade?4ini?$AA@
  00186	6a 00		 push	 0
  00188	68 00 00 00 00	 push	 OFFSET ??_C@_0BE@CJGCNIFL@WorkOnlyLorenMarket?$AA@
  0018d	68 00 00 00 00	 push	 OFFSET ??_C@_06POMJKEPM@Common?$AA@
  00192	ff 15 00 00 00
	00		 call	 DWORD PTR __imp__GetPrivateProfileIntA@16
  00198	85 c0		 test	 eax, eax
  0019a	0f 95 c0	 setne	 al
  0019d	8b 4d fc	 mov	 ecx, DWORD PTR _this$[ebp]
  001a0	88 41 0b	 mov	 BYTE PTR [ecx+11], al

; 42   : 	
; 43   : }

  001a3	5f		 pop	 edi
  001a4	5e		 pop	 esi
  001a5	5b		 pop	 ebx
  001a6	8b e5		 mov	 esp, ebp
  001a8	5d		 pop	 ebp
  001a9	c3		 ret	 0
?Load@cOffTrade@@QAEXXZ ENDP				; cOffTrade::Load
_TEXT	ENDS
PUBLIC	??_C@_0P@JILNKLBJ@?4?3?3JOW?5SHOP?3?3?4?$AA@	; `string'
PUBLIC	??_C@_0L@ONKKMNJF@?4?3?3?$DP?$DP?$DP?$DP?3?3?4?$AA@ ; `string'
PUBLIC	??$sprintf_s@$0BAA@@@YAHAAY0BAA@DPBDZZ		; sprintf_s<256>
PUBLIC	__$ArrayPad$
PUBLIC	?CreateOffTrade@cOffTrade@@QAEXHH@Z		; cOffTrade::CreateOffTrade
EXTRN	?SendClose@ConnectEx@@QAEXHH@Z:PROC		; ConnectEx::SendClose
EXTRN	?g_ConnectEx@@3VConnectEx@@A:QWORD		; g_ConnectEx
EXTRN	?MessaageAllGlobal@@YAXPADZZ:PROC		; MessaageAllGlobal
EXTRN	?CheckUser@CExLicense@@QAE_NH@Z:PROC		; CExLicense::CheckUser
EXTRN	?g_ExLicense@@3VCExLicense@@A:BYTE		; g_ExLicense
EXTRN	_strcpy:PROC
EXTRN	?AllSendServerMsg@@YAXPAD@Z:PROC		; AllSendServerMsg
EXTRN	?GCServerMsgStringSend@@YAXPADHE@Z:PROC		; GCServerMsgStringSend
EXTRN	?g_PersonalShopEx@@3VPersonalShopEx@@A:BYTE	; g_PersonalShopEx
EXTRN	?MsgNormal@@YAXHPADZZ:PROC			; MsgNormal
EXTRN	?GetText@CExText@@QAEPADH@Z:PROC		; CExText::GetText
EXTRN	?g_ExText@@3VCExText@@A:BYTE			; g_ExText
EXTRN	?gObj@@3PAUOBJECTSTRUCT@@A:DWORD		; gObj
EXTRN	___security_cookie:DWORD
EXTRN	@__security_check_cookie@4:PROC
EXTRN	_memset:PROC
;	COMDAT ??_C@_0P@JILNKLBJ@?4?3?3JOW?5SHOP?3?3?4?$AA@
CONST	SEGMENT
??_C@_0P@JILNKLBJ@?4?3?3JOW?5SHOP?3?3?4?$AA@ DB '.::JOW SHOP::.', 00H ; `string'
CONST	ENDS
;	COMDAT ??_C@_0L@ONKKMNJF@?4?3?3?$DP?$DP?$DP?$DP?3?3?4?$AA@
CONST	SEGMENT
??_C@_0L@ONKKMNJF@?4?3?3?$DP?$DP?$DP?$DP?3?3?4?$AA@ DB '.::????::.', 00H ; `string'
; Function compile flags: /Odtp /ZI
CONST	ENDS
_TEXT	SEGMENT
_szBuff$222083 = -268					; size = 256
_lpObj$ = -12						; size = 4
_this$ = -8						; size = 4
__$ArrayPad$ = -4					; size = 4
_aIndex$ = 8						; size = 4
_type$ = 12						; size = 4
?CreateOffTrade@cOffTrade@@QAEXHH@Z PROC		; cOffTrade::CreateOffTrade
; _this$ = ecx

; 46   : {

  001b0	55		 push	 ebp
  001b1	8b ec		 mov	 ebp, esp
  001b3	81 ec 4c 01 00
	00		 sub	 esp, 332		; 0000014cH
  001b9	a1 00 00 00 00	 mov	 eax, DWORD PTR ___security_cookie
  001be	33 c5		 xor	 eax, ebp
  001c0	89 45 fc	 mov	 DWORD PTR __$ArrayPad$[ebp], eax
  001c3	53		 push	 ebx
  001c4	56		 push	 esi
  001c5	57		 push	 edi
  001c6	89 4d f8	 mov	 DWORD PTR _this$[ebp], ecx

; 47   : 	if(!this->Enable)return;

  001c9	8b 45 f8	 mov	 eax, DWORD PTR _this$[ebp]
  001cc	0f b6 08	 movzx	 ecx, BYTE PTR [eax]
  001cf	85 c9		 test	 ecx, ecx
  001d1	75 05		 jne	 SHORT $LN95@CreateOffT
  001d3	e9 2b 08 00 00	 jmp	 $LN96@CreateOffT
$LN95@CreateOffT:

; 48   : 
; 49   : 	LPOBJ lpObj = &gObj[aIndex];

  001d8	8b 45 08	 mov	 eax, DWORD PTR _aIndex$[ebp]
  001db	69 c0 38 2b 00
	00		 imul	 eax, 11064		; 00002b38H
  001e1	03 05 00 00 00
	00		 add	 eax, DWORD PTR ?gObj@@3PAUOBJECTSTRUCT@@A ; gObj
  001e7	89 45 f4	 mov	 DWORD PTR _lpObj$[ebp], eax

; 50   : 
; 51   : 	if(type == OFFZEN_DC)	//Check OffTrade Zen Enable

  001ea	83 7d 0c 01	 cmp	 DWORD PTR _type$[ebp], 1
  001ee	75 15		 jne	 SHORT $LN94@CreateOffT

; 52   : 	{
; 53   : 		if(!this->OffTradeZen) return;

  001f0	8b 45 f8	 mov	 eax, DWORD PTR _this$[ebp]
  001f3	0f b6 48 01	 movzx	 ecx, BYTE PTR [eax+1]
  001f7	85 c9		 test	 ecx, ecx
  001f9	75 05		 jne	 SHORT $LN93@CreateOffT
  001fb	e9 03 08 00 00	 jmp	 $LN96@CreateOffT
$LN93@CreateOffT:

; 54   : 	}

  00200	e9 cb 00 00 00	 jmp	 $LN92@CreateOffT
$LN94@CreateOffT:

; 55   : 	else if (type == OFFCR_DC)

  00205	83 7d 0c 02	 cmp	 DWORD PTR _type$[ebp], 2
  00209	75 15		 jne	 SHORT $LN91@CreateOffT

; 56   : 	{
; 57   : 		if(!this->OffTradeCredits) return;

  0020b	8b 45 f8	 mov	 eax, DWORD PTR _this$[ebp]
  0020e	0f b6 48 02	 movzx	 ecx, BYTE PTR [eax+2]
  00212	85 c9		 test	 ecx, ecx
  00214	75 05		 jne	 SHORT $LN90@CreateOffT
  00216	e9 e8 07 00 00	 jmp	 $LN96@CreateOffT
$LN90@CreateOffT:

; 58   : 	}

  0021b	e9 b0 00 00 00	 jmp	 $LN92@CreateOffT
$LN91@CreateOffT:

; 59   : 	else if (type == OFFWC_DC)

  00220	83 7d 0c 03	 cmp	 DWORD PTR _type$[ebp], 3
  00224	75 15		 jne	 SHORT $LN88@CreateOffT

; 60   : 	{
; 61   : 		if(!this->OffTradeWcoinC) return;

  00226	8b 45 f8	 mov	 eax, DWORD PTR _this$[ebp]
  00229	0f b6 48 03	 movzx	 ecx, BYTE PTR [eax+3]
  0022d	85 c9		 test	 ecx, ecx
  0022f	75 05		 jne	 SHORT $LN87@CreateOffT
  00231	e9 cd 07 00 00	 jmp	 $LN96@CreateOffT
$LN87@CreateOffT:

; 62   : 	}

  00236	e9 95 00 00 00	 jmp	 $LN92@CreateOffT
$LN88@CreateOffT:

; 63   : 	else if (type == OFFWP_DC)

  0023b	83 7d 0c 04	 cmp	 DWORD PTR _type$[ebp], 4
  0023f	75 12		 jne	 SHORT $LN85@CreateOffT

; 64   : 	{
; 65   : 		if(!this->OffTradeWcoinP) return;

  00241	8b 45 f8	 mov	 eax, DWORD PTR _this$[ebp]
  00244	0f b6 48 04	 movzx	 ecx, BYTE PTR [eax+4]
  00248	85 c9		 test	 ecx, ecx
  0024a	75 05		 jne	 SHORT $LN84@CreateOffT
  0024c	e9 b2 07 00 00	 jmp	 $LN96@CreateOffT
$LN84@CreateOffT:

; 66   : 	}

  00251	eb 7d		 jmp	 SHORT $LN92@CreateOffT
$LN85@CreateOffT:

; 67   : 	else if (type == OFFWG_DC)

  00253	83 7d 0c 05	 cmp	 DWORD PTR _type$[ebp], 5
  00257	75 12		 jne	 SHORT $LN82@CreateOffT

; 68   : 	{
; 69   : 		if(!this->OffTradeGoblin) return;

  00259	8b 45 f8	 mov	 eax, DWORD PTR _this$[ebp]
  0025c	0f b6 48 05	 movzx	 ecx, BYTE PTR [eax+5]
  00260	85 c9		 test	 ecx, ecx
  00262	75 05		 jne	 SHORT $LN81@CreateOffT
  00264	e9 9a 07 00 00	 jmp	 $LN96@CreateOffT
$LN81@CreateOffT:

; 70   : 	}

  00269	eb 65		 jmp	 SHORT $LN92@CreateOffT
$LN82@CreateOffT:

; 71   : 	else if (type == OFFCHAOS_DC)

  0026b	83 7d 0c 06	 cmp	 DWORD PTR _type$[ebp], 6
  0026f	75 12		 jne	 SHORT $LN79@CreateOffT

; 72   : 	{
; 73   : 		if(!this->OffTradeChaos) return;

  00271	8b 45 f8	 mov	 eax, DWORD PTR _this$[ebp]
  00274	0f b6 48 06	 movzx	 ecx, BYTE PTR [eax+6]
  00278	85 c9		 test	 ecx, ecx
  0027a	75 05		 jne	 SHORT $LN78@CreateOffT
  0027c	e9 82 07 00 00	 jmp	 $LN96@CreateOffT
$LN78@CreateOffT:

; 74   : 	}

  00281	eb 4d		 jmp	 SHORT $LN92@CreateOffT
$LN79@CreateOffT:

; 75   : 	else if (type == OFFBLESS_DC)

  00283	83 7d 0c 07	 cmp	 DWORD PTR _type$[ebp], 7
  00287	75 12		 jne	 SHORT $LN76@CreateOffT

; 76   : 	{
; 77   : 		if(!this->OffTradeBless) return;

  00289	8b 45 f8	 mov	 eax, DWORD PTR _this$[ebp]
  0028c	0f b6 48 07	 movzx	 ecx, BYTE PTR [eax+7]
  00290	85 c9		 test	 ecx, ecx
  00292	75 05		 jne	 SHORT $LN75@CreateOffT
  00294	e9 6a 07 00 00	 jmp	 $LN96@CreateOffT
$LN75@CreateOffT:

; 78   : 	}

  00299	eb 35		 jmp	 SHORT $LN92@CreateOffT
$LN76@CreateOffT:

; 79   : 	else if (type == OFFSOUL_DC)

  0029b	83 7d 0c 08	 cmp	 DWORD PTR _type$[ebp], 8
  0029f	75 12		 jne	 SHORT $LN73@CreateOffT

; 80   : 	{
; 81   : 		if(!this->OffTradeSoul) return;

  002a1	8b 45 f8	 mov	 eax, DWORD PTR _this$[ebp]
  002a4	0f b6 48 08	 movzx	 ecx, BYTE PTR [eax+8]
  002a8	85 c9		 test	 ecx, ecx
  002aa	75 05		 jne	 SHORT $LN72@CreateOffT
  002ac	e9 52 07 00 00	 jmp	 $LN96@CreateOffT
$LN72@CreateOffT:

; 82   : 	}

  002b1	eb 1d		 jmp	 SHORT $LN92@CreateOffT
$LN73@CreateOffT:

; 83   : 	else if (type == OFFLIFE_DC)

  002b3	83 7d 0c 09	 cmp	 DWORD PTR _type$[ebp], 9
  002b7	75 12		 jne	 SHORT $LN70@CreateOffT

; 84   : 	{
; 85   : 		if(!this->OffTradeLife) return;

  002b9	8b 45 f8	 mov	 eax, DWORD PTR _this$[ebp]
  002bc	0f b6 48 09	 movzx	 ecx, BYTE PTR [eax+9]
  002c0	85 c9		 test	 ecx, ecx
  002c2	75 05		 jne	 SHORT $LN69@CreateOffT
  002c4	e9 3a 07 00 00	 jmp	 $LN96@CreateOffT
$LN69@CreateOffT:

; 86   : 	}
; 87   : 	else

  002c9	eb 05		 jmp	 SHORT $LN92@CreateOffT
$LN70@CreateOffT:

; 88   : 	{
; 89   : 		return;

  002cb	e9 33 07 00 00	 jmp	 $LN96@CreateOffT
$LN92@CreateOffT:

; 90   : 	}
; 91   : 
; 92   : 	if(this->WorkOnlyLorenMarket && lpObj->MapNumber != 79)

  002d0	8b 45 f8	 mov	 eax, DWORD PTR _this$[ebp]
  002d3	0f b6 48 0b	 movzx	 ecx, BYTE PTR [eax+11]
  002d7	85 c9		 test	 ecx, ecx
  002d9	74 2d		 je	 SHORT $LN67@CreateOffT
  002db	8b 45 f4	 mov	 eax, DWORD PTR _lpObj$[ebp]
  002de	0f b6 88 49 01
	00 00		 movzx	 ecx, BYTE PTR [eax+329]
  002e5	83 f9 4f	 cmp	 ecx, 79			; 0000004fH
  002e8	74 1e		 je	 SHORT $LN67@CreateOffT

; 93   : 	{
; 94   : 		MsgNormal(aIndex,g_ExText.GetText(45));

  002ea	6a 2d		 push	 45			; 0000002dH
  002ec	b9 00 00 00 00	 mov	 ecx, OFFSET ?g_ExText@@3VCExText@@A ; g_ExText
  002f1	e8 00 00 00 00	 call	 ?GetText@CExText@@QAEPADH@Z ; CExText::GetText
  002f6	50		 push	 eax
  002f7	8b 45 08	 mov	 eax, DWORD PTR _aIndex$[ebp]
  002fa	50		 push	 eax
  002fb	e8 00 00 00 00	 call	 ?MsgNormal@@YAXHPADZZ	; MsgNormal
  00300	83 c4 08	 add	 esp, 8

; 95   : 		return;

  00303	e9 fb 06 00 00	 jmp	 $LN96@CreateOffT
$LN67@CreateOffT:

; 96   : 	}
; 97   : 
; 98   : 	if(lpObj->MapNumber == MAP_INDEX_CASTLESIEGE)

  00308	8b 45 f4	 mov	 eax, DWORD PTR _lpObj$[ebp]
  0030b	0f b6 88 49 01
	00 00		 movzx	 ecx, BYTE PTR [eax+329]
  00312	83 f9 1e	 cmp	 ecx, 30			; 0000001eH
  00315	75 1e		 jne	 SHORT $LN66@CreateOffT

; 99   : 	{
; 100  : 		MsgNormal(aIndex,g_ExText.GetText(46));

  00317	6a 2e		 push	 46			; 0000002eH
  00319	b9 00 00 00 00	 mov	 ecx, OFFSET ?g_ExText@@3VCExText@@A ; g_ExText
  0031e	e8 00 00 00 00	 call	 ?GetText@CExText@@QAEPADH@Z ; CExText::GetText
  00323	50		 push	 eax
  00324	8b 45 08	 mov	 eax, DWORD PTR _aIndex$[ebp]
  00327	50		 push	 eax
  00328	e8 00 00 00 00	 call	 ?MsgNormal@@YAXHPADZZ	; MsgNormal
  0032d	83 c4 08	 add	 esp, 8

; 101  : 		return;

  00330	e9 ce 06 00 00	 jmp	 $LN96@CreateOffT
$LN66@CreateOffT:

; 102  : 	}
; 103  : 
; 104  : 
; 105  : 	if(lpObj->m_bPShopOpen == false)

  00335	8b 45 f4	 mov	 eax, DWORD PTR _lpObj$[ebp]
  00338	0f b6 88 c4 0e
	00 00		 movzx	 ecx, BYTE PTR [eax+3780]
  0033f	85 c9		 test	 ecx, ecx
  00341	75 1e		 jne	 SHORT $LN65@CreateOffT

; 106  : 	{
; 107  : 		MsgNormal(aIndex,g_ExText.GetText(47));

  00343	6a 2f		 push	 47			; 0000002fH
  00345	b9 00 00 00 00	 mov	 ecx, OFFSET ?g_ExText@@3VCExText@@A ; g_ExText
  0034a	e8 00 00 00 00	 call	 ?GetText@CExText@@QAEPADH@Z ; CExText::GetText
  0034f	50		 push	 eax
  00350	8b 45 08	 mov	 eax, DWORD PTR _aIndex$[ebp]
  00353	50		 push	 eax
  00354	e8 00 00 00 00	 call	 ?MsgNormal@@YAXHPADZZ	; MsgNormal
  00359	83 c4 08	 add	 esp, 8

; 108  : 		return;

  0035c	e9 a2 06 00 00	 jmp	 $LN96@CreateOffT
$LN65@CreateOffT:

; 109  : 	}
; 110  : 
; 111  : 	if(lpObj->MapNumber==0 || lpObj->MapNumber==2 || lpObj->MapNumber==3 || lpObj->MapNumber==51 || lpObj->MapNumber==79)

  00361	8b 45 f4	 mov	 eax, DWORD PTR _lpObj$[ebp]
  00364	0f b6 88 49 01
	00 00		 movzx	 ecx, BYTE PTR [eax+329]
  0036b	85 c9		 test	 ecx, ecx
  0036d	74 40		 je	 SHORT $LN63@CreateOffT
  0036f	8b 45 f4	 mov	 eax, DWORD PTR _lpObj$[ebp]
  00372	0f b6 88 49 01
	00 00		 movzx	 ecx, BYTE PTR [eax+329]
  00379	83 f9 02	 cmp	 ecx, 2
  0037c	74 31		 je	 SHORT $LN63@CreateOffT
  0037e	8b 45 f4	 mov	 eax, DWORD PTR _lpObj$[ebp]
  00381	0f b6 88 49 01
	00 00		 movzx	 ecx, BYTE PTR [eax+329]
  00388	83 f9 03	 cmp	 ecx, 3
  0038b	74 22		 je	 SHORT $LN63@CreateOffT
  0038d	8b 45 f4	 mov	 eax, DWORD PTR _lpObj$[ebp]
  00390	0f b6 88 49 01
	00 00		 movzx	 ecx, BYTE PTR [eax+329]
  00397	83 f9 33	 cmp	 ecx, 51			; 00000033H
  0039a	74 13		 je	 SHORT $LN63@CreateOffT
  0039c	8b 45 f4	 mov	 eax, DWORD PTR _lpObj$[ebp]
  0039f	0f b6 88 49 01
	00 00		 movzx	 ecx, BYTE PTR [eax+329]
  003a6	83 f9 4f	 cmp	 ecx, 79			; 0000004fH
  003a9	0f 85 3b 06 00
	00		 jne	 $LN64@CreateOffT
$LN63@CreateOffT:

; 112  : 	{
; 113  : //#if(CUSTOM_PERSONAL_SHOP==TRUE)
; 114  : 		if(g_PersonalShopEx.Enable)

  003af	0f b6 05 00 00
	00 00		 movzx	 eax, BYTE PTR ?g_PersonalShopEx@@3VPersonalShopEx@@A
  003b6	85 c0		 test	 eax, eax
  003b8	0f 84 cb 01 00
	00		 je	 $LN62@CreateOffT

; 115  : 		{
; 116  : 			char szBuff[256] = { 0 };

  003be	c6 85 f4 fe ff
	ff 00		 mov	 BYTE PTR _szBuff$222083[ebp], 0
  003c5	68 ff 00 00 00	 push	 255			; 000000ffH
  003ca	6a 00		 push	 0
  003cc	8d 85 f5 fe ff
	ff		 lea	 eax, DWORD PTR _szBuff$222083[ebp+1]
  003d2	50		 push	 eax
  003d3	e8 00 00 00 00	 call	 _memset
  003d8	83 c4 0c	 add	 esp, 12			; 0000000cH

; 117  : 
; 118  : 			if(lpObj->MapNumber==0)

  003db	8b 45 f4	 mov	 eax, DWORD PTR _lpObj$[ebp]
  003de	0f b6 88 49 01
	00 00		 movzx	 ecx, BYTE PTR [eax+329]
  003e5	85 c9		 test	 ecx, ecx
  003e7	75 3e		 jne	 SHORT $LN61@CreateOffT

; 119  : 			{
; 120  : 				sprintf_s(szBuff,g_ExText.GetText(48),lpObj->Name,lpObj->X,lpObj->Y);

  003e9	8b 45 f4	 mov	 eax, DWORD PTR _lpObj$[ebp]
  003ec	0f bf 88 46 01
	00 00		 movsx	 ecx, WORD PTR [eax+326]
  003f3	51		 push	 ecx
  003f4	8b 55 f4	 mov	 edx, DWORD PTR _lpObj$[ebp]
  003f7	0f bf 82 44 01
	00 00		 movsx	 eax, WORD PTR [edx+324]
  003fe	50		 push	 eax
  003ff	8b 4d f4	 mov	 ecx, DWORD PTR _lpObj$[ebp]
  00402	83 c1 77	 add	 ecx, 119		; 00000077H
  00405	51		 push	 ecx
  00406	6a 30		 push	 48			; 00000030H
  00408	b9 00 00 00 00	 mov	 ecx, OFFSET ?g_ExText@@3VCExText@@A ; g_ExText
  0040d	e8 00 00 00 00	 call	 ?GetText@CExText@@QAEPADH@Z ; CExText::GetText
  00412	50		 push	 eax
  00413	8d 95 f4 fe ff
	ff		 lea	 edx, DWORD PTR _szBuff$222083[ebp]
  00419	52		 push	 edx
  0041a	e8 00 00 00 00	 call	 ??$sprintf_s@$0BAA@@@YAHAAY0BAA@DPBDZZ ; sprintf_s<256>
  0041f	83 c4 14	 add	 esp, 20			; 00000014H
  00422	e9 4e 01 00 00	 jmp	 $LN60@CreateOffT
$LN61@CreateOffT:

; 121  : 			}
; 122  : 			else if(lpObj->MapNumber==2)

  00427	8b 45 f4	 mov	 eax, DWORD PTR _lpObj$[ebp]
  0042a	0f b6 88 49 01
	00 00		 movzx	 ecx, BYTE PTR [eax+329]
  00431	83 f9 02	 cmp	 ecx, 2
  00434	75 3e		 jne	 SHORT $LN59@CreateOffT

; 123  : 			{
; 124  : 				sprintf_s(szBuff,g_ExText.GetText(49),lpObj->Name,lpObj->X,lpObj->Y);

  00436	8b 45 f4	 mov	 eax, DWORD PTR _lpObj$[ebp]
  00439	0f bf 88 46 01
	00 00		 movsx	 ecx, WORD PTR [eax+326]
  00440	51		 push	 ecx
  00441	8b 55 f4	 mov	 edx, DWORD PTR _lpObj$[ebp]
  00444	0f bf 82 44 01
	00 00		 movsx	 eax, WORD PTR [edx+324]
  0044b	50		 push	 eax
  0044c	8b 4d f4	 mov	 ecx, DWORD PTR _lpObj$[ebp]
  0044f	83 c1 77	 add	 ecx, 119		; 00000077H
  00452	51		 push	 ecx
  00453	6a 31		 push	 49			; 00000031H
  00455	b9 00 00 00 00	 mov	 ecx, OFFSET ?g_ExText@@3VCExText@@A ; g_ExText
  0045a	e8 00 00 00 00	 call	 ?GetText@CExText@@QAEPADH@Z ; CExText::GetText
  0045f	50		 push	 eax
  00460	8d 95 f4 fe ff
	ff		 lea	 edx, DWORD PTR _szBuff$222083[ebp]
  00466	52		 push	 edx
  00467	e8 00 00 00 00	 call	 ??$sprintf_s@$0BAA@@@YAHAAY0BAA@DPBDZZ ; sprintf_s<256>
  0046c	83 c4 14	 add	 esp, 20			; 00000014H
  0046f	e9 01 01 00 00	 jmp	 $LN60@CreateOffT
$LN59@CreateOffT:

; 125  : 			}
; 126  : 			else if(lpObj->MapNumber==3)

  00474	8b 45 f4	 mov	 eax, DWORD PTR _lpObj$[ebp]
  00477	0f b6 88 49 01
	00 00		 movzx	 ecx, BYTE PTR [eax+329]
  0047e	83 f9 03	 cmp	 ecx, 3
  00481	75 3e		 jne	 SHORT $LN57@CreateOffT

; 127  : 			{
; 128  : 				sprintf_s(szBuff,g_ExText.GetText(50),lpObj->Name,lpObj->X,lpObj->Y);

  00483	8b 45 f4	 mov	 eax, DWORD PTR _lpObj$[ebp]
  00486	0f bf 88 46 01
	00 00		 movsx	 ecx, WORD PTR [eax+326]
  0048d	51		 push	 ecx
  0048e	8b 55 f4	 mov	 edx, DWORD PTR _lpObj$[ebp]
  00491	0f bf 82 44 01
	00 00		 movsx	 eax, WORD PTR [edx+324]
  00498	50		 push	 eax
  00499	8b 4d f4	 mov	 ecx, DWORD PTR _lpObj$[ebp]
  0049c	83 c1 77	 add	 ecx, 119		; 00000077H
  0049f	51		 push	 ecx
  004a0	6a 32		 push	 50			; 00000032H
  004a2	b9 00 00 00 00	 mov	 ecx, OFFSET ?g_ExText@@3VCExText@@A ; g_ExText
  004a7	e8 00 00 00 00	 call	 ?GetText@CExText@@QAEPADH@Z ; CExText::GetText
  004ac	50		 push	 eax
  004ad	8d 95 f4 fe ff
	ff		 lea	 edx, DWORD PTR _szBuff$222083[ebp]
  004b3	52		 push	 edx
  004b4	e8 00 00 00 00	 call	 ??$sprintf_s@$0BAA@@@YAHAAY0BAA@DPBDZZ ; sprintf_s<256>
  004b9	83 c4 14	 add	 esp, 20			; 00000014H
  004bc	e9 b4 00 00 00	 jmp	 $LN60@CreateOffT
$LN57@CreateOffT:

; 129  : 			}
; 130  : 			else if(lpObj->MapNumber==51)

  004c1	8b 45 f4	 mov	 eax, DWORD PTR _lpObj$[ebp]
  004c4	0f b6 88 49 01
	00 00		 movzx	 ecx, BYTE PTR [eax+329]
  004cb	83 f9 33	 cmp	 ecx, 51			; 00000033H
  004ce	75 3b		 jne	 SHORT $LN55@CreateOffT

; 131  : 			{
; 132  : 				sprintf_s(szBuff,g_ExText.GetText(51),lpObj->Name,lpObj->X,lpObj->Y);

  004d0	8b 45 f4	 mov	 eax, DWORD PTR _lpObj$[ebp]
  004d3	0f bf 88 46 01
	00 00		 movsx	 ecx, WORD PTR [eax+326]
  004da	51		 push	 ecx
  004db	8b 55 f4	 mov	 edx, DWORD PTR _lpObj$[ebp]
  004de	0f bf 82 44 01
	00 00		 movsx	 eax, WORD PTR [edx+324]
  004e5	50		 push	 eax
  004e6	8b 4d f4	 mov	 ecx, DWORD PTR _lpObj$[ebp]
  004e9	83 c1 77	 add	 ecx, 119		; 00000077H
  004ec	51		 push	 ecx
  004ed	6a 33		 push	 51			; 00000033H
  004ef	b9 00 00 00 00	 mov	 ecx, OFFSET ?g_ExText@@3VCExText@@A ; g_ExText
  004f4	e8 00 00 00 00	 call	 ?GetText@CExText@@QAEPADH@Z ; CExText::GetText
  004f9	50		 push	 eax
  004fa	8d 95 f4 fe ff
	ff		 lea	 edx, DWORD PTR _szBuff$222083[ebp]
  00500	52		 push	 edx
  00501	e8 00 00 00 00	 call	 ??$sprintf_s@$0BAA@@@YAHAAY0BAA@DPBDZZ ; sprintf_s<256>
  00506	83 c4 14	 add	 esp, 20			; 00000014H
  00509	eb 6a		 jmp	 SHORT $LN60@CreateOffT
$LN55@CreateOffT:

; 133  : 			}
; 134  : 			else if(lpObj->MapNumber==79)

  0050b	8b 45 f4	 mov	 eax, DWORD PTR _lpObj$[ebp]
  0050e	0f b6 88 49 01
	00 00		 movzx	 ecx, BYTE PTR [eax+329]
  00515	83 f9 4f	 cmp	 ecx, 79			; 0000004fH
  00518	75 3b		 jne	 SHORT $LN53@CreateOffT

; 135  : 			{
; 136  : 				sprintf_s(szBuff,g_ExText.GetText(52),lpObj->Name,lpObj->X,lpObj->Y);

  0051a	8b 45 f4	 mov	 eax, DWORD PTR _lpObj$[ebp]
  0051d	0f bf 88 46 01
	00 00		 movsx	 ecx, WORD PTR [eax+326]
  00524	51		 push	 ecx
  00525	8b 55 f4	 mov	 edx, DWORD PTR _lpObj$[ebp]
  00528	0f bf 82 44 01
	00 00		 movsx	 eax, WORD PTR [edx+324]
  0052f	50		 push	 eax
  00530	8b 4d f4	 mov	 ecx, DWORD PTR _lpObj$[ebp]
  00533	83 c1 77	 add	 ecx, 119		; 00000077H
  00536	51		 push	 ecx
  00537	6a 34		 push	 52			; 00000034H
  00539	b9 00 00 00 00	 mov	 ecx, OFFSET ?g_ExText@@3VCExText@@A ; g_ExText
  0053e	e8 00 00 00 00	 call	 ?GetText@CExText@@QAEPADH@Z ; CExText::GetText
  00543	50		 push	 eax
  00544	8d 95 f4 fe ff
	ff		 lea	 edx, DWORD PTR _szBuff$222083[ebp]
  0054a	52		 push	 edx
  0054b	e8 00 00 00 00	 call	 ??$sprintf_s@$0BAA@@@YAHAAY0BAA@DPBDZZ ; sprintf_s<256>
  00550	83 c4 14	 add	 esp, 20			; 00000014H

; 137  : 			}
; 138  : 			else

  00553	eb 20		 jmp	 SHORT $LN60@CreateOffT
$LN53@CreateOffT:

; 139  : 			{
; 140  : 				GCServerMsgStringSend(g_ExText.GetText(53), aIndex, 1);

  00555	6a 01		 push	 1
  00557	8b 45 08	 mov	 eax, DWORD PTR _aIndex$[ebp]
  0055a	50		 push	 eax
  0055b	6a 35		 push	 53			; 00000035H
  0055d	b9 00 00 00 00	 mov	 ecx, OFFSET ?g_ExText@@3VCExText@@A ; g_ExText
  00562	e8 00 00 00 00	 call	 ?GetText@CExText@@QAEPADH@Z ; CExText::GetText
  00567	50		 push	 eax
  00568	e8 00 00 00 00	 call	 ?GCServerMsgStringSend@@YAXPADHE@Z ; GCServerMsgStringSend
  0056d	83 c4 0c	 add	 esp, 12			; 0000000cH

; 141  : 				return;

  00570	e9 8e 04 00 00	 jmp	 $LN96@CreateOffT
$LN60@CreateOffT:

; 142  : 			}
; 143  : 
; 144  : 			AllSendServerMsg(szBuff);

  00575	8d 85 f4 fe ff
	ff		 lea	 eax, DWORD PTR _szBuff$222083[ebp]
  0057b	50		 push	 eax
  0057c	e8 00 00 00 00	 call	 ?AllSendServerMsg@@YAXPAD@Z ; AllSendServerMsg
  00581	83 c4 04	 add	 esp, 4

; 145  : 		}
; 146  : 		else

  00584	e9 6e 03 00 00	 jmp	 $LN51@CreateOffT
$LN62@CreateOffT:

; 147  : 		{
; 148  : //#else
; 149  : 
; 150  : 
; 151  : 			if(type == OFFZEN_DC)

  00589	83 7d 0c 01	 cmp	 DWORD PTR _type$[ebp], 1
  0058d	75 23		 jne	 SHORT $LN50@CreateOffT

; 152  : 			{
; 153  : 				strcpy(lpObj->m_szPShopText,g_ExText.GetText(54));

  0058f	6a 36		 push	 54			; 00000036H
  00591	b9 00 00 00 00	 mov	 ecx, OFFSET ?g_ExText@@3VCExText@@A ; g_ExText
  00596	e8 00 00 00 00	 call	 ?GetText@CExText@@QAEPADH@Z ; CExText::GetText
  0059b	50		 push	 eax
  0059c	8b 45 f4	 mov	 eax, DWORD PTR _lpObj$[ebp]
  0059f	05 c8 0e 00 00	 add	 eax, 3784		; 00000ec8H
  005a4	50		 push	 eax
  005a5	e8 00 00 00 00	 call	 _strcpy
  005aa	83 c4 08	 add	 esp, 8
  005ad	e9 be 01 00 00	 jmp	 $LN49@CreateOffT
$LN50@CreateOffT:

; 154  : 			}
; 155  : 			else if(type == OFFCR_DC)

  005b2	83 7d 0c 02	 cmp	 DWORD PTR _type$[ebp], 2
  005b6	75 23		 jne	 SHORT $LN48@CreateOffT

; 156  : 			{
; 157  : 				strcpy(lpObj->m_szPShopText,g_ExText.GetText(55));

  005b8	6a 37		 push	 55			; 00000037H
  005ba	b9 00 00 00 00	 mov	 ecx, OFFSET ?g_ExText@@3VCExText@@A ; g_ExText
  005bf	e8 00 00 00 00	 call	 ?GetText@CExText@@QAEPADH@Z ; CExText::GetText
  005c4	50		 push	 eax
  005c5	8b 45 f4	 mov	 eax, DWORD PTR _lpObj$[ebp]
  005c8	05 c8 0e 00 00	 add	 eax, 3784		; 00000ec8H
  005cd	50		 push	 eax
  005ce	e8 00 00 00 00	 call	 _strcpy
  005d3	83 c4 08	 add	 esp, 8
  005d6	e9 95 01 00 00	 jmp	 $LN49@CreateOffT
$LN48@CreateOffT:

; 158  : 			}
; 159  : 			else if(type == OFFWC_DC)

  005db	83 7d 0c 03	 cmp	 DWORD PTR _type$[ebp], 3
  005df	75 4e		 jne	 SHORT $LN46@CreateOffT

; 160  : 			{
; 161  : 				if (g_ExLicense.CheckUser(eExUB::snaker))

  005e1	6a 1e		 push	 30			; 0000001eH
  005e3	b9 00 00 00 00	 mov	 ecx, OFFSET ?g_ExLicense@@3VCExLicense@@A ; g_ExLicense
  005e8	e8 00 00 00 00	 call	 ?CheckUser@CExLicense@@QAE_NH@Z ; CExLicense::CheckUser
  005ed	0f b6 c0	 movzx	 eax, al
  005f0	85 c0		 test	 eax, eax
  005f2	74 18		 je	 SHORT $LN45@CreateOffT

; 162  : 				{
; 163  : 					strcpy(lpObj->m_szPShopText,".::元宝商店::.");

  005f4	68 00 00 00 00	 push	 OFFSET ??_C@_0L@ONKKMNJF@?4?3?3?$DP?$DP?$DP?$DP?3?3?4?$AA@
  005f9	8b 45 f4	 mov	 eax, DWORD PTR _lpObj$[ebp]
  005fc	05 c8 0e 00 00	 add	 eax, 3784		; 00000ec8H
  00601	50		 push	 eax
  00602	e8 00 00 00 00	 call	 _strcpy
  00607	83 c4 08	 add	 esp, 8

; 164  : 				}
; 165  : 				else

  0060a	eb 1e		 jmp	 SHORT $LN44@CreateOffT
$LN45@CreateOffT:

; 166  : 				{
; 167  : 					strcpy(lpObj->m_szPShopText,g_ExText.GetText(56));

  0060c	6a 38		 push	 56			; 00000038H
  0060e	b9 00 00 00 00	 mov	 ecx, OFFSET ?g_ExText@@3VCExText@@A ; g_ExText
  00613	e8 00 00 00 00	 call	 ?GetText@CExText@@QAEPADH@Z ; CExText::GetText
  00618	50		 push	 eax
  00619	8b 45 f4	 mov	 eax, DWORD PTR _lpObj$[ebp]
  0061c	05 c8 0e 00 00	 add	 eax, 3784		; 00000ec8H
  00621	50		 push	 eax
  00622	e8 00 00 00 00	 call	 _strcpy
  00627	83 c4 08	 add	 esp, 8
$LN44@CreateOffT:

; 168  : 				}

  0062a	e9 41 01 00 00	 jmp	 $LN49@CreateOffT
$LN46@CreateOffT:

; 169  : 			}
; 170  : 			else if(type == OFFWP_DC)

  0062f	83 7d 0c 04	 cmp	 DWORD PTR _type$[ebp], 4
  00633	75 4e		 jne	 SHORT $LN42@CreateOffT

; 171  : 			{
; 172  : 				if (g_ExLicense.CheckUser(eExUB::snaker))

  00635	6a 1e		 push	 30			; 0000001eH
  00637	b9 00 00 00 00	 mov	 ecx, OFFSET ?g_ExLicense@@3VCExLicense@@A ; g_ExLicense
  0063c	e8 00 00 00 00	 call	 ?CheckUser@CExLicense@@QAE_NH@Z ; CExLicense::CheckUser
  00641	0f b6 c0	 movzx	 eax, al
  00644	85 c0		 test	 eax, eax
  00646	74 18		 je	 SHORT $LN41@CreateOffT

; 173  : 				{
; 174  : 					strcpy(lpObj->m_szPShopText,".::积分商店::.");

  00648	68 00 00 00 00	 push	 OFFSET ??_C@_0L@ONKKMNJF@?4?3?3?$DP?$DP?$DP?$DP?3?3?4?$AA@
  0064d	8b 45 f4	 mov	 eax, DWORD PTR _lpObj$[ebp]
  00650	05 c8 0e 00 00	 add	 eax, 3784		; 00000ec8H
  00655	50		 push	 eax
  00656	e8 00 00 00 00	 call	 _strcpy
  0065b	83 c4 08	 add	 esp, 8

; 175  : 				}
; 176  : 				else

  0065e	eb 1e		 jmp	 SHORT $LN40@CreateOffT
$LN41@CreateOffT:

; 177  : 				{
; 178  : 					strcpy(lpObj->m_szPShopText,g_ExText.GetText(57));

  00660	6a 39		 push	 57			; 00000039H
  00662	b9 00 00 00 00	 mov	 ecx, OFFSET ?g_ExText@@3VCExText@@A ; g_ExText
  00667	e8 00 00 00 00	 call	 ?GetText@CExText@@QAEPADH@Z ; CExText::GetText
  0066c	50		 push	 eax
  0066d	8b 45 f4	 mov	 eax, DWORD PTR _lpObj$[ebp]
  00670	05 c8 0e 00 00	 add	 eax, 3784		; 00000ec8H
  00675	50		 push	 eax
  00676	e8 00 00 00 00	 call	 _strcpy
  0067b	83 c4 08	 add	 esp, 8
$LN40@CreateOffT:

; 179  : 				}

  0067e	e9 ed 00 00 00	 jmp	 $LN49@CreateOffT
$LN42@CreateOffT:

; 180  : 			}
; 181  : 			else if(type == OFFWG_DC)

  00683	83 7d 0c 05	 cmp	 DWORD PTR _type$[ebp], 5
  00687	75 23		 jne	 SHORT $LN38@CreateOffT

; 182  : 			{
; 183  : 				strcpy(lpObj->m_szPShopText,g_ExText.GetText(58));

  00689	6a 3a		 push	 58			; 0000003aH
  0068b	b9 00 00 00 00	 mov	 ecx, OFFSET ?g_ExText@@3VCExText@@A ; g_ExText
  00690	e8 00 00 00 00	 call	 ?GetText@CExText@@QAEPADH@Z ; CExText::GetText
  00695	50		 push	 eax
  00696	8b 45 f4	 mov	 eax, DWORD PTR _lpObj$[ebp]
  00699	05 c8 0e 00 00	 add	 eax, 3784		; 00000ec8H
  0069e	50		 push	 eax
  0069f	e8 00 00 00 00	 call	 _strcpy
  006a4	83 c4 08	 add	 esp, 8
  006a7	e9 c4 00 00 00	 jmp	 $LN49@CreateOffT
$LN38@CreateOffT:

; 184  : 			}
; 185  : 			else if(type == OFFCHAOS_DC)

  006ac	83 7d 0c 06	 cmp	 DWORD PTR _type$[ebp], 6
  006b0	75 23		 jne	 SHORT $LN36@CreateOffT

; 186  : 			{
; 187  : 				strcpy(lpObj->m_szPShopText,g_ExText.GetText(59));

  006b2	6a 3b		 push	 59			; 0000003bH
  006b4	b9 00 00 00 00	 mov	 ecx, OFFSET ?g_ExText@@3VCExText@@A ; g_ExText
  006b9	e8 00 00 00 00	 call	 ?GetText@CExText@@QAEPADH@Z ; CExText::GetText
  006be	50		 push	 eax
  006bf	8b 45 f4	 mov	 eax, DWORD PTR _lpObj$[ebp]
  006c2	05 c8 0e 00 00	 add	 eax, 3784		; 00000ec8H
  006c7	50		 push	 eax
  006c8	e8 00 00 00 00	 call	 _strcpy
  006cd	83 c4 08	 add	 esp, 8
  006d0	e9 9b 00 00 00	 jmp	 $LN49@CreateOffT
$LN36@CreateOffT:

; 188  : 			}
; 189  : 			else if(type == OFFBLESS_DC)

  006d5	83 7d 0c 07	 cmp	 DWORD PTR _type$[ebp], 7
  006d9	75 20		 jne	 SHORT $LN34@CreateOffT

; 190  : 			{
; 191  : 				strcpy(lpObj->m_szPShopText,g_ExText.GetText(60));

  006db	6a 3c		 push	 60			; 0000003cH
  006dd	b9 00 00 00 00	 mov	 ecx, OFFSET ?g_ExText@@3VCExText@@A ; g_ExText
  006e2	e8 00 00 00 00	 call	 ?GetText@CExText@@QAEPADH@Z ; CExText::GetText
  006e7	50		 push	 eax
  006e8	8b 45 f4	 mov	 eax, DWORD PTR _lpObj$[ebp]
  006eb	05 c8 0e 00 00	 add	 eax, 3784		; 00000ec8H
  006f0	50		 push	 eax
  006f1	e8 00 00 00 00	 call	 _strcpy
  006f6	83 c4 08	 add	 esp, 8
  006f9	eb 75		 jmp	 SHORT $LN49@CreateOffT
$LN34@CreateOffT:

; 192  : 			}
; 193  : 			else if(type == OFFSOUL_DC)

  006fb	83 7d 0c 08	 cmp	 DWORD PTR _type$[ebp], 8
  006ff	75 20		 jne	 SHORT $LN32@CreateOffT

; 194  : 			{
; 195  : 				strcpy(lpObj->m_szPShopText,g_ExText.GetText(61));

  00701	6a 3d		 push	 61			; 0000003dH
  00703	b9 00 00 00 00	 mov	 ecx, OFFSET ?g_ExText@@3VCExText@@A ; g_ExText
  00708	e8 00 00 00 00	 call	 ?GetText@CExText@@QAEPADH@Z ; CExText::GetText
  0070d	50		 push	 eax
  0070e	8b 45 f4	 mov	 eax, DWORD PTR _lpObj$[ebp]
  00711	05 c8 0e 00 00	 add	 eax, 3784		; 00000ec8H
  00716	50		 push	 eax
  00717	e8 00 00 00 00	 call	 _strcpy
  0071c	83 c4 08	 add	 esp, 8
  0071f	eb 4f		 jmp	 SHORT $LN49@CreateOffT
$LN32@CreateOffT:

; 196  : 			}
; 197  : 			else if(type == OFFLIFE_DC)

  00721	83 7d 0c 09	 cmp	 DWORD PTR _type$[ebp], 9
  00725	75 49		 jne	 SHORT $LN49@CreateOffT

; 198  : 			{
; 199  : 	#ifdef PRIVATE_MODULE
; 200  : 				if(g_ExLicense.CheckUser(eExUB::Vadim))

  00727	6a 09		 push	 9
  00729	b9 00 00 00 00	 mov	 ecx, OFFSET ?g_ExLicense@@3VCExLicense@@A ; g_ExLicense
  0072e	e8 00 00 00 00	 call	 ?CheckUser@CExLicense@@QAE_NH@Z ; CExLicense::CheckUser
  00733	0f b6 c0	 movzx	 eax, al
  00736	85 c0		 test	 eax, eax
  00738	74 18		 je	 SHORT $LN29@CreateOffT

; 201  : 				{
; 202  : 					strcpy(lpObj->m_szPShopText,".::JOW SHOP::.");

  0073a	68 00 00 00 00	 push	 OFFSET ??_C@_0P@JILNKLBJ@?4?3?3JOW?5SHOP?3?3?4?$AA@
  0073f	8b 45 f4	 mov	 eax, DWORD PTR _lpObj$[ebp]
  00742	05 c8 0e 00 00	 add	 eax, 3784		; 00000ec8H
  00747	50		 push	 eax
  00748	e8 00 00 00 00	 call	 _strcpy
  0074d	83 c4 08	 add	 esp, 8

; 203  : 				}
; 204  : 				else

  00750	eb 1e		 jmp	 SHORT $LN49@CreateOffT
$LN29@CreateOffT:

; 205  : 				{
; 206  : 					strcpy(lpObj->m_szPShopText,g_ExText.GetText(62));

  00752	6a 3e		 push	 62			; 0000003eH
  00754	b9 00 00 00 00	 mov	 ecx, OFFSET ?g_ExText@@3VCExText@@A ; g_ExText
  00759	e8 00 00 00 00	 call	 ?GetText@CExText@@QAEPADH@Z ; CExText::GetText
  0075e	50		 push	 eax
  0075f	8b 45 f4	 mov	 eax, DWORD PTR _lpObj$[ebp]
  00762	05 c8 0e 00 00	 add	 eax, 3784		; 00000ec8H
  00767	50		 push	 eax
  00768	e8 00 00 00 00	 call	 _strcpy
  0076d	83 c4 08	 add	 esp, 8
$LN49@CreateOffT:

; 207  : 				}
; 208  : 	#else
; 209  : 				strcpy(lpObj->m_szPShopText,LIFE_SHOP);
; 210  : 	#endif
; 211  : 			}
; 212  : 
; 213  : 			if(lpObj->MapNumber==0)

  00770	8b 45 f4	 mov	 eax, DWORD PTR _lpObj$[ebp]
  00773	0f b6 88 49 01
	00 00		 movzx	 ecx, BYTE PTR [eax+329]
  0077a	85 c9		 test	 ecx, ecx
  0077c	75 41		 jne	 SHORT $LN27@CreateOffT

; 214  : 				MessaageAllGlobal(g_ExText.GetText(63),lpObj->m_szPShopText,lpObj->Name,lpObj->X,lpObj->Y);

  0077e	8b 45 f4	 mov	 eax, DWORD PTR _lpObj$[ebp]
  00781	0f bf 88 46 01
	00 00		 movsx	 ecx, WORD PTR [eax+326]
  00788	51		 push	 ecx
  00789	8b 55 f4	 mov	 edx, DWORD PTR _lpObj$[ebp]
  0078c	0f bf 82 44 01
	00 00		 movsx	 eax, WORD PTR [edx+324]
  00793	50		 push	 eax
  00794	8b 4d f4	 mov	 ecx, DWORD PTR _lpObj$[ebp]
  00797	83 c1 77	 add	 ecx, 119		; 00000077H
  0079a	51		 push	 ecx
  0079b	8b 55 f4	 mov	 edx, DWORD PTR _lpObj$[ebp]
  0079e	81 c2 c8 0e 00
	00		 add	 edx, 3784		; 00000ec8H
  007a4	52		 push	 edx
  007a5	6a 3f		 push	 63			; 0000003fH
  007a7	b9 00 00 00 00	 mov	 ecx, OFFSET ?g_ExText@@3VCExText@@A ; g_ExText
  007ac	e8 00 00 00 00	 call	 ?GetText@CExText@@QAEPADH@Z ; CExText::GetText
  007b1	50		 push	 eax
  007b2	e8 00 00 00 00	 call	 ?MessaageAllGlobal@@YAXPADZZ ; MessaageAllGlobal
  007b7	83 c4 14	 add	 esp, 20			; 00000014H
  007ba	e9 38 01 00 00	 jmp	 $LN51@CreateOffT
$LN27@CreateOffT:

; 215  : 			else if(lpObj->MapNumber==2)

  007bf	8b 45 f4	 mov	 eax, DWORD PTR _lpObj$[ebp]
  007c2	0f b6 88 49 01
	00 00		 movzx	 ecx, BYTE PTR [eax+329]
  007c9	83 f9 02	 cmp	 ecx, 2
  007cc	75 41		 jne	 SHORT $LN25@CreateOffT

; 216  : 				MessaageAllGlobal(g_ExText.GetText(64),lpObj->m_szPShopText,lpObj->Name,lpObj->X,lpObj->Y);

  007ce	8b 45 f4	 mov	 eax, DWORD PTR _lpObj$[ebp]
  007d1	0f bf 88 46 01
	00 00		 movsx	 ecx, WORD PTR [eax+326]
  007d8	51		 push	 ecx
  007d9	8b 55 f4	 mov	 edx, DWORD PTR _lpObj$[ebp]
  007dc	0f bf 82 44 01
	00 00		 movsx	 eax, WORD PTR [edx+324]
  007e3	50		 push	 eax
  007e4	8b 4d f4	 mov	 ecx, DWORD PTR _lpObj$[ebp]
  007e7	83 c1 77	 add	 ecx, 119		; 00000077H
  007ea	51		 push	 ecx
  007eb	8b 55 f4	 mov	 edx, DWORD PTR _lpObj$[ebp]
  007ee	81 c2 c8 0e 00
	00		 add	 edx, 3784		; 00000ec8H
  007f4	52		 push	 edx
  007f5	6a 40		 push	 64			; 00000040H
  007f7	b9 00 00 00 00	 mov	 ecx, OFFSET ?g_ExText@@3VCExText@@A ; g_ExText
  007fc	e8 00 00 00 00	 call	 ?GetText@CExText@@QAEPADH@Z ; CExText::GetText
  00801	50		 push	 eax
  00802	e8 00 00 00 00	 call	 ?MessaageAllGlobal@@YAXPADZZ ; MessaageAllGlobal
  00807	83 c4 14	 add	 esp, 20			; 00000014H
  0080a	e9 e8 00 00 00	 jmp	 $LN51@CreateOffT
$LN25@CreateOffT:

; 217  : 			else if(lpObj->MapNumber==3)

  0080f	8b 45 f4	 mov	 eax, DWORD PTR _lpObj$[ebp]
  00812	0f b6 88 49 01
	00 00		 movzx	 ecx, BYTE PTR [eax+329]
  00819	83 f9 03	 cmp	 ecx, 3
  0081c	75 41		 jne	 SHORT $LN23@CreateOffT

; 218  : 				MessaageAllGlobal(g_ExText.GetText(65),lpObj->m_szPShopText,lpObj->Name,lpObj->X,lpObj->Y);

  0081e	8b 45 f4	 mov	 eax, DWORD PTR _lpObj$[ebp]
  00821	0f bf 88 46 01
	00 00		 movsx	 ecx, WORD PTR [eax+326]
  00828	51		 push	 ecx
  00829	8b 55 f4	 mov	 edx, DWORD PTR _lpObj$[ebp]
  0082c	0f bf 82 44 01
	00 00		 movsx	 eax, WORD PTR [edx+324]
  00833	50		 push	 eax
  00834	8b 4d f4	 mov	 ecx, DWORD PTR _lpObj$[ebp]
  00837	83 c1 77	 add	 ecx, 119		; 00000077H
  0083a	51		 push	 ecx
  0083b	8b 55 f4	 mov	 edx, DWORD PTR _lpObj$[ebp]
  0083e	81 c2 c8 0e 00
	00		 add	 edx, 3784		; 00000ec8H
  00844	52		 push	 edx
  00845	6a 41		 push	 65			; 00000041H
  00847	b9 00 00 00 00	 mov	 ecx, OFFSET ?g_ExText@@3VCExText@@A ; g_ExText
  0084c	e8 00 00 00 00	 call	 ?GetText@CExText@@QAEPADH@Z ; CExText::GetText
  00851	50		 push	 eax
  00852	e8 00 00 00 00	 call	 ?MessaageAllGlobal@@YAXPADZZ ; MessaageAllGlobal
  00857	83 c4 14	 add	 esp, 20			; 00000014H
  0085a	e9 98 00 00 00	 jmp	 $LN51@CreateOffT
$LN23@CreateOffT:

; 219  : 			else if(lpObj->MapNumber==51)

  0085f	8b 45 f4	 mov	 eax, DWORD PTR _lpObj$[ebp]
  00862	0f b6 88 49 01
	00 00		 movzx	 ecx, BYTE PTR [eax+329]
  00869	83 f9 33	 cmp	 ecx, 51			; 00000033H
  0086c	75 3e		 jne	 SHORT $LN21@CreateOffT

; 220  : 				MessaageAllGlobal(g_ExText.GetText(66),lpObj->m_szPShopText,lpObj->Name,lpObj->X,lpObj->Y);

  0086e	8b 45 f4	 mov	 eax, DWORD PTR _lpObj$[ebp]
  00871	0f bf 88 46 01
	00 00		 movsx	 ecx, WORD PTR [eax+326]
  00878	51		 push	 ecx
  00879	8b 55 f4	 mov	 edx, DWORD PTR _lpObj$[ebp]
  0087c	0f bf 82 44 01
	00 00		 movsx	 eax, WORD PTR [edx+324]
  00883	50		 push	 eax
  00884	8b 4d f4	 mov	 ecx, DWORD PTR _lpObj$[ebp]
  00887	83 c1 77	 add	 ecx, 119		; 00000077H
  0088a	51		 push	 ecx
  0088b	8b 55 f4	 mov	 edx, DWORD PTR _lpObj$[ebp]
  0088e	81 c2 c8 0e 00
	00		 add	 edx, 3784		; 00000ec8H
  00894	52		 push	 edx
  00895	6a 42		 push	 66			; 00000042H
  00897	b9 00 00 00 00	 mov	 ecx, OFFSET ?g_ExText@@3VCExText@@A ; g_ExText
  0089c	e8 00 00 00 00	 call	 ?GetText@CExText@@QAEPADH@Z ; CExText::GetText
  008a1	50		 push	 eax
  008a2	e8 00 00 00 00	 call	 ?MessaageAllGlobal@@YAXPADZZ ; MessaageAllGlobal
  008a7	83 c4 14	 add	 esp, 20			; 00000014H
  008aa	eb 4b		 jmp	 SHORT $LN51@CreateOffT
$LN21@CreateOffT:

; 221  : 			else if(lpObj->MapNumber==79)

  008ac	8b 45 f4	 mov	 eax, DWORD PTR _lpObj$[ebp]
  008af	0f b6 88 49 01
	00 00		 movzx	 ecx, BYTE PTR [eax+329]
  008b6	83 f9 4f	 cmp	 ecx, 79			; 0000004fH
  008b9	75 3c		 jne	 SHORT $LN51@CreateOffT

; 222  : 				MessaageAllGlobal(g_ExText.GetText(67),lpObj->m_szPShopText,lpObj->Name,lpObj->X,lpObj->Y);

  008bb	8b 45 f4	 mov	 eax, DWORD PTR _lpObj$[ebp]
  008be	0f bf 88 46 01
	00 00		 movsx	 ecx, WORD PTR [eax+326]
  008c5	51		 push	 ecx
  008c6	8b 55 f4	 mov	 edx, DWORD PTR _lpObj$[ebp]
  008c9	0f bf 82 44 01
	00 00		 movsx	 eax, WORD PTR [edx+324]
  008d0	50		 push	 eax
  008d1	8b 4d f4	 mov	 ecx, DWORD PTR _lpObj$[ebp]
  008d4	83 c1 77	 add	 ecx, 119		; 00000077H
  008d7	51		 push	 ecx
  008d8	8b 55 f4	 mov	 edx, DWORD PTR _lpObj$[ebp]
  008db	81 c2 c8 0e 00
	00		 add	 edx, 3784		; 00000ec8H
  008e1	52		 push	 edx
  008e2	6a 43		 push	 67			; 00000043H
  008e4	b9 00 00 00 00	 mov	 ecx, OFFSET ?g_ExText@@3VCExText@@A ; g_ExText
  008e9	e8 00 00 00 00	 call	 ?GetText@CExText@@QAEPADH@Z ; CExText::GetText
  008ee	50		 push	 eax
  008ef	e8 00 00 00 00	 call	 ?MessaageAllGlobal@@YAXPADZZ ; MessaageAllGlobal
  008f4	83 c4 14	 add	 esp, 20			; 00000014H
$LN51@CreateOffT:

; 223  : 			//gObjCloseSet(aIndex, 2);
; 224  : 		}
; 225  : //#endif 
; 226  : #ifdef _RECONNECT_
; 227  : 
; 228  : 	if(type == OFFZEN_DC)

  008f7	83 7d 0c 01	 cmp	 DWORD PTR _type$[ebp], 1
  008fb	75 15		 jne	 SHORT $LN18@CreateOffT

; 229  : 	{
; 230  : 		g_ConnectEx.SendClose(aIndex,OFFZEN_DC);

  008fd	6a 01		 push	 1
  008ff	8b 45 08	 mov	 eax, DWORD PTR _aIndex$[ebp]
  00902	50		 push	 eax
  00903	b9 00 00 00 00	 mov	 ecx, OFFSET ?g_ConnectEx@@3VConnectEx@@A ; g_ConnectEx
  00908	e8 00 00 00 00	 call	 ?SendClose@ConnectEx@@QAEXHH@Z ; ConnectEx::SendClose
  0090d	e9 c4 00 00 00	 jmp	 $LN17@CreateOffT
$LN18@CreateOffT:

; 231  : 	}
; 232  : 	else if(type == OFFCR_DC)

  00912	83 7d 0c 02	 cmp	 DWORD PTR _type$[ebp], 2
  00916	75 15		 jne	 SHORT $LN16@CreateOffT

; 233  : 	{
; 234  : 		g_ConnectEx.SendClose(aIndex,OFFCR_DC);

  00918	6a 02		 push	 2
  0091a	8b 45 08	 mov	 eax, DWORD PTR _aIndex$[ebp]
  0091d	50		 push	 eax
  0091e	b9 00 00 00 00	 mov	 ecx, OFFSET ?g_ConnectEx@@3VConnectEx@@A ; g_ConnectEx
  00923	e8 00 00 00 00	 call	 ?SendClose@ConnectEx@@QAEXHH@Z ; ConnectEx::SendClose
  00928	e9 a9 00 00 00	 jmp	 $LN17@CreateOffT
$LN16@CreateOffT:

; 235  : 	}
; 236  : 	else if(type == OFFWC_DC)

  0092d	83 7d 0c 03	 cmp	 DWORD PTR _type$[ebp], 3
  00931	75 15		 jne	 SHORT $LN14@CreateOffT

; 237  : 	{
; 238  : 		g_ConnectEx.SendClose(aIndex,OFFWC_DC);

  00933	6a 03		 push	 3
  00935	8b 45 08	 mov	 eax, DWORD PTR _aIndex$[ebp]
  00938	50		 push	 eax
  00939	b9 00 00 00 00	 mov	 ecx, OFFSET ?g_ConnectEx@@3VConnectEx@@A ; g_ConnectEx
  0093e	e8 00 00 00 00	 call	 ?SendClose@ConnectEx@@QAEXHH@Z ; ConnectEx::SendClose
  00943	e9 8e 00 00 00	 jmp	 $LN17@CreateOffT
$LN14@CreateOffT:

; 239  : 	}
; 240  : 	else if(type == OFFWP_DC)

  00948	83 7d 0c 04	 cmp	 DWORD PTR _type$[ebp], 4
  0094c	75 12		 jne	 SHORT $LN12@CreateOffT

; 241  : 	{
; 242  : 		g_ConnectEx.SendClose(aIndex,OFFWP_DC);

  0094e	6a 04		 push	 4
  00950	8b 45 08	 mov	 eax, DWORD PTR _aIndex$[ebp]
  00953	50		 push	 eax
  00954	b9 00 00 00 00	 mov	 ecx, OFFSET ?g_ConnectEx@@3VConnectEx@@A ; g_ConnectEx
  00959	e8 00 00 00 00	 call	 ?SendClose@ConnectEx@@QAEXHH@Z ; ConnectEx::SendClose
  0095e	eb 76		 jmp	 SHORT $LN17@CreateOffT
$LN12@CreateOffT:

; 243  : 	}
; 244  : 	else if(type == OFFWG_DC)

  00960	83 7d 0c 05	 cmp	 DWORD PTR _type$[ebp], 5
  00964	75 12		 jne	 SHORT $LN10@CreateOffT

; 245  : 	{
; 246  : 		g_ConnectEx.SendClose(aIndex,OFFWG_DC);

  00966	6a 05		 push	 5
  00968	8b 45 08	 mov	 eax, DWORD PTR _aIndex$[ebp]
  0096b	50		 push	 eax
  0096c	b9 00 00 00 00	 mov	 ecx, OFFSET ?g_ConnectEx@@3VConnectEx@@A ; g_ConnectEx
  00971	e8 00 00 00 00	 call	 ?SendClose@ConnectEx@@QAEXHH@Z ; ConnectEx::SendClose
  00976	eb 5e		 jmp	 SHORT $LN17@CreateOffT
$LN10@CreateOffT:

; 247  : 	}
; 248  : 	else if(type == OFFCHAOS_DC)

  00978	83 7d 0c 06	 cmp	 DWORD PTR _type$[ebp], 6
  0097c	75 12		 jne	 SHORT $LN8@CreateOffT

; 249  : 	{
; 250  : 		g_ConnectEx.SendClose(aIndex,OFFCHAOS_DC);

  0097e	6a 06		 push	 6
  00980	8b 45 08	 mov	 eax, DWORD PTR _aIndex$[ebp]
  00983	50		 push	 eax
  00984	b9 00 00 00 00	 mov	 ecx, OFFSET ?g_ConnectEx@@3VConnectEx@@A ; g_ConnectEx
  00989	e8 00 00 00 00	 call	 ?SendClose@ConnectEx@@QAEXHH@Z ; ConnectEx::SendClose
  0098e	eb 46		 jmp	 SHORT $LN17@CreateOffT
$LN8@CreateOffT:

; 251  : 	}
; 252  : 	else if(type == OFFBLESS_DC)

  00990	83 7d 0c 07	 cmp	 DWORD PTR _type$[ebp], 7
  00994	75 12		 jne	 SHORT $LN6@CreateOffT

; 253  : 	{
; 254  : 		g_ConnectEx.SendClose(aIndex,OFFBLESS_DC);

  00996	6a 07		 push	 7
  00998	8b 45 08	 mov	 eax, DWORD PTR _aIndex$[ebp]
  0099b	50		 push	 eax
  0099c	b9 00 00 00 00	 mov	 ecx, OFFSET ?g_ConnectEx@@3VConnectEx@@A ; g_ConnectEx
  009a1	e8 00 00 00 00	 call	 ?SendClose@ConnectEx@@QAEXHH@Z ; ConnectEx::SendClose
  009a6	eb 2e		 jmp	 SHORT $LN17@CreateOffT
$LN6@CreateOffT:

; 255  : 	}
; 256  : 	else if(type == OFFSOUL_DC)

  009a8	83 7d 0c 08	 cmp	 DWORD PTR _type$[ebp], 8
  009ac	75 12		 jne	 SHORT $LN4@CreateOffT

; 257  : 	{
; 258  : 		g_ConnectEx.SendClose(aIndex,OFFSOUL_DC);

  009ae	6a 08		 push	 8
  009b0	8b 45 08	 mov	 eax, DWORD PTR _aIndex$[ebp]
  009b3	50		 push	 eax
  009b4	b9 00 00 00 00	 mov	 ecx, OFFSET ?g_ConnectEx@@3VConnectEx@@A ; g_ConnectEx
  009b9	e8 00 00 00 00	 call	 ?SendClose@ConnectEx@@QAEXHH@Z ; ConnectEx::SendClose
  009be	eb 16		 jmp	 SHORT $LN17@CreateOffT
$LN4@CreateOffT:

; 259  : 	}
; 260  : 	else if(type == OFFLIFE_DC)

  009c0	83 7d 0c 09	 cmp	 DWORD PTR _type$[ebp], 9
  009c4	75 10		 jne	 SHORT $LN17@CreateOffT

; 261  : 	{
; 262  : 		g_ConnectEx.SendClose(aIndex,OFFLIFE_DC);

  009c6	6a 09		 push	 9
  009c8	8b 45 08	 mov	 eax, DWORD PTR _aIndex$[ebp]
  009cb	50		 push	 eax
  009cc	b9 00 00 00 00	 mov	 ecx, OFFSET ?g_ConnectEx@@3VConnectEx@@A ; g_ConnectEx
  009d1	e8 00 00 00 00	 call	 ?SendClose@ConnectEx@@QAEXHH@Z ; ConnectEx::SendClose
$LN17@CreateOffT:

; 263  : 	}
; 264  : 		g_ConnectEx.SendClose(aIndex,type);

  009d6	8b 45 0c	 mov	 eax, DWORD PTR _type$[ebp]
  009d9	50		 push	 eax
  009da	8b 4d 08	 mov	 ecx, DWORD PTR _aIndex$[ebp]
  009dd	51		 push	 ecx
  009de	b9 00 00 00 00	 mov	 ecx, OFFSET ?g_ConnectEx@@3VConnectEx@@A ; g_ConnectEx
  009e3	e8 00 00 00 00	 call	 ?SendClose@ConnectEx@@QAEXHH@Z ; ConnectEx::SendClose

; 265  : #else
; 266  : 		CloseClient(aIndex);
; 267  : 		lpObj->OffTrade = type;
; 268  : #endif
; 269  : 	}
; 270  : 	else

  009e8	eb 19		 jmp	 SHORT $LN96@CreateOffT
$LN64@CreateOffT:

; 271  : 	{
; 272  : 		MsgNormal(aIndex,g_ExText.GetText(68));

  009ea	6a 44		 push	 68			; 00000044H
  009ec	b9 00 00 00 00	 mov	 ecx, OFFSET ?g_ExText@@3VCExText@@A ; g_ExText
  009f1	e8 00 00 00 00	 call	 ?GetText@CExText@@QAEPADH@Z ; CExText::GetText
  009f6	50		 push	 eax
  009f7	8b 45 08	 mov	 eax, DWORD PTR _aIndex$[ebp]
  009fa	50		 push	 eax
  009fb	e8 00 00 00 00	 call	 ?MsgNormal@@YAXHPADZZ	; MsgNormal
  00a00	83 c4 08	 add	 esp, 8
$LN96@CreateOffT:

; 273  : 	}
; 274  : }

  00a03	5f		 pop	 edi
  00a04	5e		 pop	 esi
  00a05	5b		 pop	 ebx
  00a06	8b 4d fc	 mov	 ecx, DWORD PTR __$ArrayPad$[ebp]
  00a09	33 cd		 xor	 ecx, ebp
  00a0b	e8 00 00 00 00	 call	 @__security_check_cookie@4
  00a10	8b e5		 mov	 esp, ebp
  00a12	5d		 pop	 ebp
  00a13	c2 08 00	 ret	 8
?CreateOffTrade@cOffTrade@@QAEXHH@Z ENDP		; cOffTrade::CreateOffTrade
_TEXT	ENDS
PUBLIC	?ConnectUser@cOffTrade@@QAEXPAD@Z		; cOffTrade::ConnectUser
EXTRN	?gObjDel@@YAFH@Z:PROC				; gObjDel
EXTRN	?GJPUserClose@@YAXPAD@Z:PROC			; GJPUserClose
EXTRN	?GD_OfflineAfk@CExGDManager@@QAEXHEE@Z:PROC	; CExGDManager::GD_OfflineAfk
EXTRN	?g_ExGDManager@@3VCExGDManager@@A:BYTE		; g_ExGDManager
EXTRN	_strcmp:PROC
; Function compile flags: /Odtp /ZI
_TEXT	SEGMENT
_lpObj$222161 = -12					; size = 4
_i$222157 = -8						; size = 4
_this$ = -4						; size = 4
_Acc$ = 8						; size = 4
?ConnectUser@cOffTrade@@QAEXPAD@Z PROC			; cOffTrade::ConnectUser
; _this$ = ecx

; 277  : {

  00a20	55		 push	 ebp
  00a21	8b ec		 mov	 ebp, esp
  00a23	83 ec 4c	 sub	 esp, 76			; 0000004cH
  00a26	53		 push	 ebx
  00a27	56		 push	 esi
  00a28	57		 push	 edi
  00a29	89 4d fc	 mov	 DWORD PTR _this$[ebp], ecx

; 278  : 	if(!this->Enable)return;

  00a2c	8b 45 fc	 mov	 eax, DWORD PTR _this$[ebp]
  00a2f	0f b6 08	 movzx	 ecx, BYTE PTR [eax]
  00a32	85 c9		 test	 ecx, ecx
  00a34	75 05		 jne	 SHORT $LN7@ConnectUse
  00a36	e9 9a 00 00 00	 jmp	 $LN8@ConnectUse
$LN7@ConnectUse:

; 279  : 
; 280  : 	for(int i = OBJ_MAXMONSTER; i<OBJMAX;i++)

  00a3b	c7 45 f8 c8 32
	00 00		 mov	 DWORD PTR _i$222157[ebp], 13000 ; 000032c8H
  00a42	eb 09		 jmp	 SHORT $LN6@ConnectUse
$LN5@ConnectUse:
  00a44	8b 45 f8	 mov	 eax, DWORD PTR _i$222157[ebp]
  00a47	83 c0 01	 add	 eax, 1
  00a4a	89 45 f8	 mov	 DWORD PTR _i$222157[ebp], eax
$LN6@ConnectUse:
  00a4d	81 7d f8 98 3a
	00 00		 cmp	 DWORD PTR _i$222157[ebp], 15000 ; 00003a98H
  00a54	7d 7f		 jge	 SHORT $LN8@ConnectUse

; 281  : 	{
; 282  : 		LPOBJ lpObj = &gObj[i];

  00a56	8b 45 f8	 mov	 eax, DWORD PTR _i$222157[ebp]
  00a59	69 c0 38 2b 00
	00		 imul	 eax, 11064		; 00002b38H
  00a5f	03 05 00 00 00
	00		 add	 eax, DWORD PTR ?gObj@@3PAUOBJECTSTRUCT@@A ; gObj
  00a65	89 45 f4	 mov	 DWORD PTR _lpObj$222161[ebp], eax

; 283  : 		if(lpObj->Connected == 3)

  00a68	8b 45 f4	 mov	 eax, DWORD PTR _lpObj$222161[ebp]
  00a6b	83 78 04 03	 cmp	 DWORD PTR [eax+4], 3
  00a6f	75 5f		 jne	 SHORT $LN3@ConnectUse

; 284  : 		{
; 285  : 			if(!strcmp(Acc,lpObj->AccountID))

  00a71	8b 45 f4	 mov	 eax, DWORD PTR _lpObj$222161[ebp]
  00a74	83 c0 6c	 add	 eax, 108		; 0000006cH
  00a77	50		 push	 eax
  00a78	8b 4d 08	 mov	 ecx, DWORD PTR _Acc$[ebp]
  00a7b	51		 push	 ecx
  00a7c	e8 00 00 00 00	 call	 _strcmp
  00a81	83 c4 08	 add	 esp, 8
  00a84	85 c0		 test	 eax, eax
  00a86	75 48		 jne	 SHORT $LN3@ConnectUse

; 286  : 			{
; 287  : 				if(lpObj->OffTrade != 0)

  00a88	8b 45 f4	 mov	 eax, DWORD PTR _lpObj$222161[ebp]
  00a8b	83 b8 ac 22 00
	00 00		 cmp	 DWORD PTR [eax+8876], 0
  00a92	74 3a		 je	 SHORT $LN1@ConnectUse

; 288  : 				{
; 289  : 					g_ExGDManager.GD_OfflineAfk(i, 0, 0);

  00a94	6a 00		 push	 0
  00a96	6a 00		 push	 0
  00a98	8b 45 f8	 mov	 eax, DWORD PTR _i$222157[ebp]
  00a9b	50		 push	 eax
  00a9c	b9 00 00 00 00	 mov	 ecx, OFFSET ?g_ExGDManager@@3VCExGDManager@@A ; g_ExGDManager
  00aa1	e8 00 00 00 00	 call	 ?GD_OfflineAfk@CExGDManager@@QAEXHEE@Z ; CExGDManager::GD_OfflineAfk

; 290  : 					GJPUserClose(lpObj->AccountID);

  00aa6	8b 45 f4	 mov	 eax, DWORD PTR _lpObj$222161[ebp]
  00aa9	83 c0 6c	 add	 eax, 108		; 0000006cH
  00aac	50		 push	 eax
  00aad	e8 00 00 00 00	 call	 ?GJPUserClose@@YAXPAD@Z	; GJPUserClose
  00ab2	83 c4 04	 add	 esp, 4

; 291  : 					gObjDel(i);

  00ab5	8b 45 f8	 mov	 eax, DWORD PTR _i$222157[ebp]
  00ab8	50		 push	 eax
  00ab9	e8 00 00 00 00	 call	 ?gObjDel@@YAFH@Z	; gObjDel
  00abe	83 c4 04	 add	 esp, 4

; 292  : 					lpObj->OffTrade = 0;

  00ac1	8b 45 f4	 mov	 eax, DWORD PTR _lpObj$222161[ebp]
  00ac4	c7 80 ac 22 00
	00 00 00 00 00	 mov	 DWORD PTR [eax+8876], 0
$LN1@ConnectUse:

; 293  : 				}
; 294  : 				return;

  00ace	eb 05		 jmp	 SHORT $LN8@ConnectUse
$LN3@ConnectUse:

; 295  : 			}
; 296  : 		}
; 297  : 	}

  00ad0	e9 6f ff ff ff	 jmp	 $LN5@ConnectUse
$LN8@ConnectUse:

; 298  : }

  00ad5	5f		 pop	 edi
  00ad6	5e		 pop	 esi
  00ad7	5b		 pop	 ebx
  00ad8	8b e5		 mov	 esp, ebp
  00ada	5d		 pop	 ebp
  00adb	c2 04 00	 ret	 4
?ConnectUser@cOffTrade@@QAEXPAD@Z ENDP			; cOffTrade::ConnectUser
_TEXT	ENDS
PUBLIC	?CheckOnlineUser@cOffTrade@@QAE_NH@Z		; cOffTrade::CheckOnlineUser
EXTRN	__imp__GetTickCount@0:PROC
; Function compile flags: /Odtp /ZI
_TEXT	SEGMENT
_lpObj$ = -8						; size = 4
_this$ = -4						; size = 4
_aIndex$ = 8						; size = 4
?CheckOnlineUser@cOffTrade@@QAE_NH@Z PROC		; cOffTrade::CheckOnlineUser
; _this$ = ecx

; 301  : {

  00ae0	55		 push	 ebp
  00ae1	8b ec		 mov	 ebp, esp
  00ae3	83 ec 48	 sub	 esp, 72			; 00000048H
  00ae6	53		 push	 ebx
  00ae7	56		 push	 esi
  00ae8	57		 push	 edi
  00ae9	89 4d fc	 mov	 DWORD PTR _this$[ebp], ecx

; 302  : 	if(!this->Enable) return false;

  00aec	8b 45 fc	 mov	 eax, DWORD PTR _this$[ebp]
  00aef	0f b6 08	 movzx	 ecx, BYTE PTR [eax]
  00af2	85 c9		 test	 ecx, ecx
  00af4	75 04		 jne	 SHORT $LN2@CheckOnlin
  00af6	32 c0		 xor	 al, al
  00af8	eb 30		 jmp	 SHORT $LN3@CheckOnlin
$LN2@CheckOnlin:

; 303  : 
; 304  : 	LPOBJ lpObj = &gObj[aIndex];

  00afa	8b 45 08	 mov	 eax, DWORD PTR _aIndex$[ebp]
  00afd	69 c0 38 2b 00
	00		 imul	 eax, 11064		; 00002b38H
  00b03	03 05 00 00 00
	00		 add	 eax, DWORD PTR ?gObj@@3PAUOBJECTSTRUCT@@A ; gObj
  00b09	89 45 f8	 mov	 DWORD PTR _lpObj$[ebp], eax

; 305  : 
; 306  : 	if(lpObj->OffTrade != 0)

  00b0c	8b 45 f8	 mov	 eax, DWORD PTR _lpObj$[ebp]
  00b0f	83 b8 ac 22 00
	00 00		 cmp	 DWORD PTR [eax+8876], 0
  00b16	74 10		 je	 SHORT $LN1@CheckOnlin

; 307  : 	{
; 308  : 		lpObj->CheckTick = GetTickCount();

  00b18	ff 15 00 00 00
	00		 call	 DWORD PTR __imp__GetTickCount@0
  00b1e	8b 4d f8	 mov	 ecx, DWORD PTR _lpObj$[ebp]
  00b21	89 41 40	 mov	 DWORD PTR [ecx+64], eax

; 309  : 		return true;

  00b24	b0 01		 mov	 al, 1
  00b26	eb 02		 jmp	 SHORT $LN3@CheckOnlin
$LN1@CheckOnlin:

; 310  : 	}
; 311  : 
; 312  : 	return false;

  00b28	32 c0		 xor	 al, al
$LN3@CheckOnlin:

; 313  : }

  00b2a	5f		 pop	 edi
  00b2b	5e		 pop	 esi
  00b2c	5b		 pop	 ebx
  00b2d	8b e5		 mov	 esp, ebp
  00b2f	5d		 pop	 ebp
  00b30	c2 04 00	 ret	 4
?CheckOnlineUser@cOffTrade@@QAE_NH@Z ENDP		; cOffTrade::CheckOnlineUser
_TEXT	ENDS
PUBLIC	??_C@_0EP@LICILKCE@?$FLPShop?$FN?5?$FL?$CFs?$FN?$FL?$CFs?$FN?5PShop?5Item?5Buy?5@ ; `string'
PUBLIC	??_C@_0EG@BJIIHLIN@?$FLPShop?$FN?5?$FL?$CFs?$FN?$FL?$CFs?$FN?5PShop?5Item?5Buy?5@ ; `string'
PUBLIC	??_C@_0EM@LDJMGAIA@?$FLPShop?$FN?5?$FL?$CFs?$FN?$FL?$CFs?$FN?5PShop?5Item?5Buy?5@ ; `string'
PUBLIC	??_C@_0EM@HBIPLAHE@?$FLPShop?$FN?5?$FL?$CFs?$FN?$FL?$CFs?$FN?5PShop?5Item?5Buy?5@ ; `string'
PUBLIC	??_C@_0EN@NDMMJDBF@?$FLPShop?$FN?5?$FL?$CFs?$FN?$FL?$CFs?$FN?5PShop?5Item?5Buy?5@ ; `string'
PUBLIC	??_C@_0EN@GNFBJJMH@?$FLPShop?$FN?5?$FL?$CFs?$FN?$FL?$CFs?$FN?5PShop?5Item?5Buy?5@ ; `string'
PUBLIC	??_C@_0EJ@PAFIAKNP@?$FLPShop?$FN?5?$FL?$CFs?$FN?$FL?$CFs?$FN?5PShop?5Item?5Buy?5@ ; `string'
PUBLIC	??_C@_0EJ@PFNLIOEJ@?$FLPShop?$FN?5?$FL?$CFs?$FN?$FL?$CFs?$FN?5PShop?5Item?5Buy?5@ ; `string'
PUBLIC	??_C@_0EJ@JEDEMPNL@?$FLPShop?$FN?5?$FL?$CFs?$FN?$FL?$CFs?$FN?5PShop?5Item?5Buy?5@ ; `string'
PUBLIC	??_C@_0EJ@FPHBPKEN@?$FLPShop?$FN?5?$FL?$CFs?$FN?$FL?$CFs?$FN?5PShop?5Item?5Buy?5@ ; `string'
PUBLIC	?CheckMoney@cOffTrade@@QAE_NHHH@Z		; cOffTrade::CheckMoney
EXTRN	?CGPShopAnsBuyItem@@YAXHHHE@Z:PROC		; CGPShopAnsBuyItem
EXTRN	?LogAddTD@@3P6AXPADZZA:DWORD			; LogAddTD
EXTRN	__fltused:DWORD
;	COMDAT ??_C@_0EP@LICILKCE@?$FLPShop?$FN?5?$FL?$CFs?$FN?$FL?$CFs?$FN?5PShop?5Item?5Buy?5@
CONST	SEGMENT
??_C@_0EP@LICILKCE@?$FLPShop?$FN?5?$FL?$CFs?$FN?$FL?$CFs?$FN?5PShop?5Item?5Buy?5@ DB '['
	DB	'PShop] [%s][%s] PShop Item Buy Request Failed : [%s][%s] Max '
	DB	'Zen In Inventory', 00H			; `string'
CONST	ENDS
;	COMDAT ??_C@_0EG@BJIIHLIN@?$FLPShop?$FN?5?$FL?$CFs?$FN?$FL?$CFs?$FN?5PShop?5Item?5Buy?5@
CONST	SEGMENT
??_C@_0EG@BJIIHLIN@?$FLPShop?$FN?5?$FL?$CFs?$FN?$FL?$CFs?$FN?5PShop?5Item?5Buy?5@ DB '['
	DB	'PShop] [%s][%s] PShop Item Buy Request Failed : [%s][%s] Lack'
	DB	' of Zen', 00H				; `string'
CONST	ENDS
;	COMDAT ??_C@_0EM@LDJMGAIA@?$FLPShop?$FN?5?$FL?$CFs?$FN?$FL?$CFs?$FN?5PShop?5Item?5Buy?5@
CONST	SEGMENT
??_C@_0EM@LDJMGAIA@?$FLPShop?$FN?5?$FL?$CFs?$FN?$FL?$CFs?$FN?5PShop?5Item?5Buy?5@ DB '['
	DB	'PShop] [%s][%s] PShop Item Buy Request Failed : [%s][%s] Lack'
	DB	' of Life Bank', 00H				; `string'
CONST	ENDS
;	COMDAT ??_C@_0EM@HBIPLAHE@?$FLPShop?$FN?5?$FL?$CFs?$FN?$FL?$CFs?$FN?5PShop?5Item?5Buy?5@
CONST	SEGMENT
??_C@_0EM@HBIPLAHE@?$FLPShop?$FN?5?$FL?$CFs?$FN?$FL?$CFs?$FN?5PShop?5Item?5Buy?5@ DB '['
	DB	'PShop] [%s][%s] PShop Item Buy Request Failed : [%s][%s] Lack'
	DB	' of Soul Bank', 00H				; `string'
CONST	ENDS
;	COMDAT ??_C@_0EN@NDMMJDBF@?$FLPShop?$FN?5?$FL?$CFs?$FN?$FL?$CFs?$FN?5PShop?5Item?5Buy?5@
CONST	SEGMENT
??_C@_0EN@NDMMJDBF@?$FLPShop?$FN?5?$FL?$CFs?$FN?$FL?$CFs?$FN?5PShop?5Item?5Buy?5@ DB '['
	DB	'PShop] [%s][%s] PShop Item Buy Request Failed : [%s][%s] Lack'
	DB	' of Bless Bank', 00H			; `string'
CONST	ENDS
;	COMDAT ??_C@_0EN@GNFBJJMH@?$FLPShop?$FN?5?$FL?$CFs?$FN?$FL?$CFs?$FN?5PShop?5Item?5Buy?5@
CONST	SEGMENT
??_C@_0EN@GNFBJJMH@?$FLPShop?$FN?5?$FL?$CFs?$FN?$FL?$CFs?$FN?5PShop?5Item?5Buy?5@ DB '['
	DB	'PShop] [%s][%s] PShop Item Buy Request Failed : [%s][%s] Lack'
	DB	' of Chaos Bank', 00H			; `string'
CONST	ENDS
;	COMDAT ??_C@_0EJ@PAFIAKNP@?$FLPShop?$FN?5?$FL?$CFs?$FN?$FL?$CFs?$FN?5PShop?5Item?5Buy?5@
CONST	SEGMENT
??_C@_0EJ@PAFIAKNP@?$FLPShop?$FN?5?$FL?$CFs?$FN?$FL?$CFs?$FN?5PShop?5Item?5Buy?5@ DB '['
	DB	'PShop] [%s][%s] PShop Item Buy Request Failed : [%s][%s] Lack'
	DB	' of WCoinG', 00H				; `string'
CONST	ENDS
;	COMDAT ??_C@_0EJ@PFNLIOEJ@?$FLPShop?$FN?5?$FL?$CFs?$FN?$FL?$CFs?$FN?5PShop?5Item?5Buy?5@
CONST	SEGMENT
??_C@_0EJ@PFNLIOEJ@?$FLPShop?$FN?5?$FL?$CFs?$FN?$FL?$CFs?$FN?5PShop?5Item?5Buy?5@ DB '['
	DB	'PShop] [%s][%s] PShop Item Buy Request Failed : [%s][%s] Lack'
	DB	' of WCoinP', 00H				; `string'
CONST	ENDS
;	COMDAT ??_C@_0EJ@JEDEMPNL@?$FLPShop?$FN?5?$FL?$CFs?$FN?$FL?$CFs?$FN?5PShop?5Item?5Buy?5@
CONST	SEGMENT
??_C@_0EJ@JEDEMPNL@?$FLPShop?$FN?5?$FL?$CFs?$FN?$FL?$CFs?$FN?5PShop?5Item?5Buy?5@ DB '['
	DB	'PShop] [%s][%s] PShop Item Buy Request Failed : [%s][%s] Lack'
	DB	' of WCoinC', 00H				; `string'
CONST	ENDS
;	COMDAT ??_C@_0EJ@FPHBPKEN@?$FLPShop?$FN?5?$FL?$CFs?$FN?$FL?$CFs?$FN?5PShop?5Item?5Buy?5@
CONST	SEGMENT
??_C@_0EJ@FPHBPKEN@?$FLPShop?$FN?5?$FL?$CFs?$FN?$FL?$CFs?$FN?5PShop?5Item?5Buy?5@ DB '['
	DB	'PShop] [%s][%s] PShop Item Buy Request Failed : [%s][%s] Lack'
	DB	' of ExCred', 00H				; `string'
; Function compile flags: /Odtp /ZI
CONST	ENDS
_TEXT	SEGMENT
_Value$ = -16						; size = 4
_lpObj$ = -12						; size = 4
_SourceObj$ = -8					; size = 4
_this$ = -4						; size = 4
_aSourceIndex$ = 8					; size = 4
_aIndex$ = 12						; size = 4
_ItemPos$ = 16						; size = 4
?CheckMoney@cOffTrade@@QAE_NHHH@Z PROC			; cOffTrade::CheckMoney
; _this$ = ecx

; 316  : {

  00b40	55		 push	 ebp
  00b41	8b ec		 mov	 ebp, esp
  00b43	83 ec 50	 sub	 esp, 80			; 00000050H
  00b46	53		 push	 ebx
  00b47	56		 push	 esi
  00b48	57		 push	 edi
  00b49	89 4d fc	 mov	 DWORD PTR _this$[ebp], ecx

; 317  : 	if(!this->Enable) return false;

  00b4c	8b 45 fc	 mov	 eax, DWORD PTR _this$[ebp]
  00b4f	0f b6 08	 movzx	 ecx, BYTE PTR [eax]
  00b52	85 c9		 test	 ecx, ecx
  00b54	75 07		 jne	 SHORT $LN27@CheckMoney
  00b56	32 c0		 xor	 al, al
  00b58	e9 4d 05 00 00	 jmp	 $LN28@CheckMoney
$LN27@CheckMoney:

; 318  : 
; 319  : 	LPOBJ SourceObj = &gObj[aSourceIndex];

  00b5d	8b 45 08	 mov	 eax, DWORD PTR _aSourceIndex$[ebp]
  00b60	69 c0 38 2b 00
	00		 imul	 eax, 11064		; 00002b38H
  00b66	03 05 00 00 00
	00		 add	 eax, DWORD PTR ?gObj@@3PAUOBJECTSTRUCT@@A ; gObj
  00b6c	89 45 f8	 mov	 DWORD PTR _SourceObj$[ebp], eax

; 320  : 	LPOBJ lpObj = &gObj[aIndex];

  00b6f	8b 45 0c	 mov	 eax, DWORD PTR _aIndex$[ebp]
  00b72	69 c0 38 2b 00
	00		 imul	 eax, 11064		; 00002b38H
  00b78	03 05 00 00 00
	00		 add	 eax, DWORD PTR ?gObj@@3PAUOBJECTSTRUCT@@A ; gObj
  00b7e	89 45 f4	 mov	 DWORD PTR _lpObj$[ebp], eax

; 321  : 
; 322  : 	int Value = lpObj->Inventory1[ItemPos].m_iPShopValue;

  00b81	8b 45 10	 mov	 eax, DWORD PTR _ItemPos$[ebp]
  00b84	69 c0 d4 00 00
	00		 imul	 eax, 212		; 000000d4H
  00b8a	8b 4d f4	 mov	 ecx, DWORD PTR _lpObj$[ebp]
  00b8d	8b 91 34 0e 00
	00		 mov	 edx, DWORD PTR [ecx+3636]
  00b93	8b 44 02 74	 mov	 eax, DWORD PTR [edx+eax+116]
  00b97	89 45 f0	 mov	 DWORD PTR _Value$[ebp], eax

; 323  : 
; 324  : 
; 325  : 	if(lpObj->OffTrade == OFFCR_DC)

  00b9a	8b 45 f4	 mov	 eax, DWORD PTR _lpObj$[ebp]
  00b9d	83 b8 ac 22 00
	00 02		 cmp	 DWORD PTR [eax+8876], 2
  00ba4	0f 85 80 00 00
	00		 jne	 $LN26@CheckMoney

; 326  : 	{
; 327  : 		if ( SourceObj->ExCred < Value )

  00baa	db 45 f0	 fild	 DWORD PTR _Value$[ebp]
  00bad	8b 45 f8	 mov	 eax, DWORD PTR _SourceObj$[ebp]
  00bb0	d9 80 a8 22 00
	00		 fld	 DWORD PTR [eax+8872]
  00bb6	de d9		 fcompp
  00bb8	df e0		 fnstsw	 ax
  00bba	f6 c4 05	 test	 ah, 5
  00bbd	7a 66		 jp	 SHORT $LN25@CheckMoney

; 328  : 		{
; 329  : 			LogAddTD("[PShop] [%s][%s] PShop Item Buy Request Failed : [%s][%s] Lack of ExCred",
; 330  : 				gObj[aSourceIndex].AccountID, 
; 331  : 				gObj[aSourceIndex].Name, 
; 332  : 				lpObj->AccountID, 
; 333  : 				lpObj->Name);

  00bbf	8b 45 f4	 mov	 eax, DWORD PTR _lpObj$[ebp]
  00bc2	83 c0 77	 add	 eax, 119		; 00000077H
  00bc5	50		 push	 eax
  00bc6	8b 4d f4	 mov	 ecx, DWORD PTR _lpObj$[ebp]
  00bc9	83 c1 6c	 add	 ecx, 108		; 0000006cH
  00bcc	51		 push	 ecx
  00bcd	8b 55 08	 mov	 edx, DWORD PTR _aSourceIndex$[ebp]
  00bd0	69 d2 38 2b 00
	00		 imul	 edx, 11064		; 00002b38H
  00bd6	a1 00 00 00 00	 mov	 eax, DWORD PTR ?gObj@@3PAUOBJECTSTRUCT@@A ; gObj
  00bdb	8d 4c 10 77	 lea	 ecx, DWORD PTR [eax+edx+119]
  00bdf	51		 push	 ecx
  00be0	8b 55 08	 mov	 edx, DWORD PTR _aSourceIndex$[ebp]
  00be3	69 d2 38 2b 00
	00		 imul	 edx, 11064		; 00002b38H
  00be9	a1 00 00 00 00	 mov	 eax, DWORD PTR ?gObj@@3PAUOBJECTSTRUCT@@A ; gObj
  00bee	8d 4c 10 6c	 lea	 ecx, DWORD PTR [eax+edx+108]
  00bf2	51		 push	 ecx
  00bf3	68 00 00 00 00	 push	 OFFSET ??_C@_0EJ@FPHBPKEN@?$FLPShop?$FN?5?$FL?$CFs?$FN?$FL?$CFs?$FN?5PShop?5Item?5Buy?5@
  00bf8	ff 15 00 00 00
	00		 call	 DWORD PTR ?LogAddTD@@3P6AXPADZZA ; LogAddTD
  00bfe	83 c4 14	 add	 esp, 20			; 00000014H

; 334  : 			//::CGPShopAnsBuyItem(aSourceIndex, lpObj->m_Index, 0, 7);
; 335  : 			MsgNormal(aSourceIndex,g_ExText.GetText(69),Value);

  00c01	8b 45 f0	 mov	 eax, DWORD PTR _Value$[ebp]
  00c04	50		 push	 eax
  00c05	6a 45		 push	 69			; 00000045H
  00c07	b9 00 00 00 00	 mov	 ecx, OFFSET ?g_ExText@@3VCExText@@A ; g_ExText
  00c0c	e8 00 00 00 00	 call	 ?GetText@CExText@@QAEPADH@Z ; CExText::GetText
  00c11	50		 push	 eax
  00c12	8b 4d 08	 mov	 ecx, DWORD PTR _aSourceIndex$[ebp]
  00c15	51		 push	 ecx
  00c16	e8 00 00 00 00	 call	 ?MsgNormal@@YAXHPADZZ	; MsgNormal
  00c1b	83 c4 0c	 add	 esp, 12			; 0000000cH

; 336  : 			return false;

  00c1e	32 c0		 xor	 al, al
  00c20	e9 85 04 00 00	 jmp	 $LN28@CheckMoney
$LN25@CheckMoney:

; 337  : 		}
; 338  : 	}

  00c25	e9 7e 04 00 00	 jmp	 $LN1@CheckMoney
$LN26@CheckMoney:

; 339  : 	else if(lpObj->OffTrade == OFFWC_DC)

  00c2a	8b 45 f4	 mov	 eax, DWORD PTR _lpObj$[ebp]
  00c2d	83 b8 ac 22 00
	00 03		 cmp	 DWORD PTR [eax+8876], 3
  00c34	75 7e		 jne	 SHORT $LN23@CheckMoney

; 340  : 	{
; 341  : 		if ( SourceObj->GameShop.WCoinC < Value )

  00c36	db 45 f0	 fild	 DWORD PTR _Value$[ebp]
  00c39	8b 45 f8	 mov	 eax, DWORD PTR _SourceObj$[ebp]
  00c3c	dc 98 00 23 00
	00		 fcomp	 QWORD PTR [eax+8960]
  00c42	df e0		 fnstsw	 ax
  00c44	f6 c4 41	 test	 ah, 65			; 00000041H
  00c47	75 66		 jne	 SHORT $LN22@CheckMoney

; 342  : 		{
; 343  : 			LogAddTD("[PShop] [%s][%s] PShop Item Buy Request Failed : [%s][%s] Lack of WCoinC",
; 344  : 				gObj[aSourceIndex].AccountID, 
; 345  : 				gObj[aSourceIndex].Name, 
; 346  : 				lpObj->AccountID, 
; 347  : 				lpObj->Name);

  00c49	8b 45 f4	 mov	 eax, DWORD PTR _lpObj$[ebp]
  00c4c	83 c0 77	 add	 eax, 119		; 00000077H
  00c4f	50		 push	 eax
  00c50	8b 4d f4	 mov	 ecx, DWORD PTR _lpObj$[ebp]
  00c53	83 c1 6c	 add	 ecx, 108		; 0000006cH
  00c56	51		 push	 ecx
  00c57	8b 55 08	 mov	 edx, DWORD PTR _aSourceIndex$[ebp]
  00c5a	69 d2 38 2b 00
	00		 imul	 edx, 11064		; 00002b38H
  00c60	a1 00 00 00 00	 mov	 eax, DWORD PTR ?gObj@@3PAUOBJECTSTRUCT@@A ; gObj
  00c65	8d 4c 10 77	 lea	 ecx, DWORD PTR [eax+edx+119]
  00c69	51		 push	 ecx
  00c6a	8b 55 08	 mov	 edx, DWORD PTR _aSourceIndex$[ebp]
  00c6d	69 d2 38 2b 00
	00		 imul	 edx, 11064		; 00002b38H
  00c73	a1 00 00 00 00	 mov	 eax, DWORD PTR ?gObj@@3PAUOBJECTSTRUCT@@A ; gObj
  00c78	8d 4c 10 6c	 lea	 ecx, DWORD PTR [eax+edx+108]
  00c7c	51		 push	 ecx
  00c7d	68 00 00 00 00	 push	 OFFSET ??_C@_0EJ@JEDEMPNL@?$FLPShop?$FN?5?$FL?$CFs?$FN?$FL?$CFs?$FN?5PShop?5Item?5Buy?5@
  00c82	ff 15 00 00 00
	00		 call	 DWORD PTR ?LogAddTD@@3P6AXPADZZA ; LogAddTD
  00c88	83 c4 14	 add	 esp, 20			; 00000014H

; 348  : 			MsgNormal(aSourceIndex,g_ExText.GetText(70),Value);

  00c8b	8b 45 f0	 mov	 eax, DWORD PTR _Value$[ebp]
  00c8e	50		 push	 eax
  00c8f	6a 46		 push	 70			; 00000046H
  00c91	b9 00 00 00 00	 mov	 ecx, OFFSET ?g_ExText@@3VCExText@@A ; g_ExText
  00c96	e8 00 00 00 00	 call	 ?GetText@CExText@@QAEPADH@Z ; CExText::GetText
  00c9b	50		 push	 eax
  00c9c	8b 4d 08	 mov	 ecx, DWORD PTR _aSourceIndex$[ebp]
  00c9f	51		 push	 ecx
  00ca0	e8 00 00 00 00	 call	 ?MsgNormal@@YAXHPADZZ	; MsgNormal
  00ca5	83 c4 0c	 add	 esp, 12			; 0000000cH

; 349  : 			return false;

  00ca8	32 c0		 xor	 al, al
  00caa	e9 fb 03 00 00	 jmp	 $LN28@CheckMoney
$LN22@CheckMoney:

; 350  : 		}
; 351  : 	}

  00caf	e9 f4 03 00 00	 jmp	 $LN1@CheckMoney
$LN23@CheckMoney:

; 352  : 	else if(lpObj->OffTrade == OFFWP_DC)

  00cb4	8b 45 f4	 mov	 eax, DWORD PTR _lpObj$[ebp]
  00cb7	83 b8 ac 22 00
	00 04		 cmp	 DWORD PTR [eax+8876], 4
  00cbe	75 7e		 jne	 SHORT $LN20@CheckMoney

; 353  : 	{
; 354  : 		if ( SourceObj->GameShop.WCoinP < Value )

  00cc0	db 45 f0	 fild	 DWORD PTR _Value$[ebp]
  00cc3	8b 45 f8	 mov	 eax, DWORD PTR _SourceObj$[ebp]
  00cc6	dc 98 f8 22 00
	00		 fcomp	 QWORD PTR [eax+8952]
  00ccc	df e0		 fnstsw	 ax
  00cce	f6 c4 41	 test	 ah, 65			; 00000041H
  00cd1	75 66		 jne	 SHORT $LN19@CheckMoney

; 355  : 		{
; 356  : 			LogAddTD("[PShop] [%s][%s] PShop Item Buy Request Failed : [%s][%s] Lack of WCoinP",
; 357  : 				gObj[aSourceIndex].AccountID, 
; 358  : 				gObj[aSourceIndex].Name, 
; 359  : 				lpObj->AccountID, 
; 360  : 				lpObj->Name);

  00cd3	8b 45 f4	 mov	 eax, DWORD PTR _lpObj$[ebp]
  00cd6	83 c0 77	 add	 eax, 119		; 00000077H
  00cd9	50		 push	 eax
  00cda	8b 4d f4	 mov	 ecx, DWORD PTR _lpObj$[ebp]
  00cdd	83 c1 6c	 add	 ecx, 108		; 0000006cH
  00ce0	51		 push	 ecx
  00ce1	8b 55 08	 mov	 edx, DWORD PTR _aSourceIndex$[ebp]
  00ce4	69 d2 38 2b 00
	00		 imul	 edx, 11064		; 00002b38H
  00cea	a1 00 00 00 00	 mov	 eax, DWORD PTR ?gObj@@3PAUOBJECTSTRUCT@@A ; gObj
  00cef	8d 4c 10 77	 lea	 ecx, DWORD PTR [eax+edx+119]
  00cf3	51		 push	 ecx
  00cf4	8b 55 08	 mov	 edx, DWORD PTR _aSourceIndex$[ebp]
  00cf7	69 d2 38 2b 00
	00		 imul	 edx, 11064		; 00002b38H
  00cfd	a1 00 00 00 00	 mov	 eax, DWORD PTR ?gObj@@3PAUOBJECTSTRUCT@@A ; gObj
  00d02	8d 4c 10 6c	 lea	 ecx, DWORD PTR [eax+edx+108]
  00d06	51		 push	 ecx
  00d07	68 00 00 00 00	 push	 OFFSET ??_C@_0EJ@PFNLIOEJ@?$FLPShop?$FN?5?$FL?$CFs?$FN?$FL?$CFs?$FN?5PShop?5Item?5Buy?5@
  00d0c	ff 15 00 00 00
	00		 call	 DWORD PTR ?LogAddTD@@3P6AXPADZZA ; LogAddTD
  00d12	83 c4 14	 add	 esp, 20			; 00000014H

; 361  : 			MsgNormal(aSourceIndex,g_ExText.GetText(71),Value);

  00d15	8b 45 f0	 mov	 eax, DWORD PTR _Value$[ebp]
  00d18	50		 push	 eax
  00d19	6a 47		 push	 71			; 00000047H
  00d1b	b9 00 00 00 00	 mov	 ecx, OFFSET ?g_ExText@@3VCExText@@A ; g_ExText
  00d20	e8 00 00 00 00	 call	 ?GetText@CExText@@QAEPADH@Z ; CExText::GetText
  00d25	50		 push	 eax
  00d26	8b 4d 08	 mov	 ecx, DWORD PTR _aSourceIndex$[ebp]
  00d29	51		 push	 ecx
  00d2a	e8 00 00 00 00	 call	 ?MsgNormal@@YAXHPADZZ	; MsgNormal
  00d2f	83 c4 0c	 add	 esp, 12			; 0000000cH

; 362  : 			return false;

  00d32	32 c0		 xor	 al, al
  00d34	e9 71 03 00 00	 jmp	 $LN28@CheckMoney
$LN19@CheckMoney:

; 363  : 		}
; 364  : 	}

  00d39	e9 6a 03 00 00	 jmp	 $LN1@CheckMoney
$LN20@CheckMoney:

; 365  : 	else if(lpObj->OffTrade == OFFWG_DC)

  00d3e	8b 45 f4	 mov	 eax, DWORD PTR _lpObj$[ebp]
  00d41	83 b8 ac 22 00
	00 05		 cmp	 DWORD PTR [eax+8876], 5
  00d48	75 7e		 jne	 SHORT $LN17@CheckMoney

; 366  : 	{
; 367  : 		if ( SourceObj->GameShop.GoblinPoint < Value )

  00d4a	db 45 f0	 fild	 DWORD PTR _Value$[ebp]
  00d4d	8b 45 f8	 mov	 eax, DWORD PTR _SourceObj$[ebp]
  00d50	dc 98 08 23 00
	00		 fcomp	 QWORD PTR [eax+8968]
  00d56	df e0		 fnstsw	 ax
  00d58	f6 c4 41	 test	 ah, 65			; 00000041H
  00d5b	75 66		 jne	 SHORT $LN16@CheckMoney

; 368  : 		{
; 369  : 			LogAddTD("[PShop] [%s][%s] PShop Item Buy Request Failed : [%s][%s] Lack of WCoinG",
; 370  : 				gObj[aSourceIndex].AccountID, 
; 371  : 				gObj[aSourceIndex].Name, 
; 372  : 				lpObj->AccountID, 
; 373  : 				lpObj->Name);

  00d5d	8b 45 f4	 mov	 eax, DWORD PTR _lpObj$[ebp]
  00d60	83 c0 77	 add	 eax, 119		; 00000077H
  00d63	50		 push	 eax
  00d64	8b 4d f4	 mov	 ecx, DWORD PTR _lpObj$[ebp]
  00d67	83 c1 6c	 add	 ecx, 108		; 0000006cH
  00d6a	51		 push	 ecx
  00d6b	8b 55 08	 mov	 edx, DWORD PTR _aSourceIndex$[ebp]
  00d6e	69 d2 38 2b 00
	00		 imul	 edx, 11064		; 00002b38H
  00d74	a1 00 00 00 00	 mov	 eax, DWORD PTR ?gObj@@3PAUOBJECTSTRUCT@@A ; gObj
  00d79	8d 4c 10 77	 lea	 ecx, DWORD PTR [eax+edx+119]
  00d7d	51		 push	 ecx
  00d7e	8b 55 08	 mov	 edx, DWORD PTR _aSourceIndex$[ebp]
  00d81	69 d2 38 2b 00
	00		 imul	 edx, 11064		; 00002b38H
  00d87	a1 00 00 00 00	 mov	 eax, DWORD PTR ?gObj@@3PAUOBJECTSTRUCT@@A ; gObj
  00d8c	8d 4c 10 6c	 lea	 ecx, DWORD PTR [eax+edx+108]
  00d90	51		 push	 ecx
  00d91	68 00 00 00 00	 push	 OFFSET ??_C@_0EJ@PAFIAKNP@?$FLPShop?$FN?5?$FL?$CFs?$FN?$FL?$CFs?$FN?5PShop?5Item?5Buy?5@
  00d96	ff 15 00 00 00
	00		 call	 DWORD PTR ?LogAddTD@@3P6AXPADZZA ; LogAddTD
  00d9c	83 c4 14	 add	 esp, 20			; 00000014H

; 374  : 			MsgNormal(aSourceIndex,g_ExText.GetText(72),Value);

  00d9f	8b 45 f0	 mov	 eax, DWORD PTR _Value$[ebp]
  00da2	50		 push	 eax
  00da3	6a 48		 push	 72			; 00000048H
  00da5	b9 00 00 00 00	 mov	 ecx, OFFSET ?g_ExText@@3VCExText@@A ; g_ExText
  00daa	e8 00 00 00 00	 call	 ?GetText@CExText@@QAEPADH@Z ; CExText::GetText
  00daf	50		 push	 eax
  00db0	8b 4d 08	 mov	 ecx, DWORD PTR _aSourceIndex$[ebp]
  00db3	51		 push	 ecx
  00db4	e8 00 00 00 00	 call	 ?MsgNormal@@YAXHPADZZ	; MsgNormal
  00db9	83 c4 0c	 add	 esp, 12			; 0000000cH

; 375  : 			return false;

  00dbc	32 c0		 xor	 al, al
  00dbe	e9 e7 02 00 00	 jmp	 $LN28@CheckMoney
$LN16@CheckMoney:

; 376  : 		}
; 377  : 	}

  00dc3	e9 e0 02 00 00	 jmp	 $LN1@CheckMoney
$LN17@CheckMoney:

; 378  : 	else if(lpObj->OffTrade == OFFCHAOS_DC)

  00dc8	8b 45 f4	 mov	 eax, DWORD PTR _lpObj$[ebp]
  00dcb	83 b8 ac 22 00
	00 06		 cmp	 DWORD PTR [eax+8876], 6
  00dd2	75 79		 jne	 SHORT $LN14@CheckMoney

; 379  : 	{
; 380  : 		if ( SourceObj->ChaosBank < Value )

  00dd4	8b 45 f8	 mov	 eax, DWORD PTR _SourceObj$[ebp]
  00dd7	8b 88 e0 27 00
	00		 mov	 ecx, DWORD PTR [eax+10208]
  00ddd	3b 4d f0	 cmp	 ecx, DWORD PTR _Value$[ebp]
  00de0	7d 66		 jge	 SHORT $LN13@CheckMoney

; 381  : 		{
; 382  : 			LogAddTD("[PShop] [%s][%s] PShop Item Buy Request Failed : [%s][%s] Lack of Chaos Bank",
; 383  : 				gObj[aSourceIndex].AccountID, 
; 384  : 				gObj[aSourceIndex].Name, 
; 385  : 				lpObj->AccountID, 
; 386  : 				lpObj->Name);

  00de2	8b 45 f4	 mov	 eax, DWORD PTR _lpObj$[ebp]
  00de5	83 c0 77	 add	 eax, 119		; 00000077H
  00de8	50		 push	 eax
  00de9	8b 4d f4	 mov	 ecx, DWORD PTR _lpObj$[ebp]
  00dec	83 c1 6c	 add	 ecx, 108		; 0000006cH
  00def	51		 push	 ecx
  00df0	8b 55 08	 mov	 edx, DWORD PTR _aSourceIndex$[ebp]
  00df3	69 d2 38 2b 00
	00		 imul	 edx, 11064		; 00002b38H
  00df9	a1 00 00 00 00	 mov	 eax, DWORD PTR ?gObj@@3PAUOBJECTSTRUCT@@A ; gObj
  00dfe	8d 4c 10 77	 lea	 ecx, DWORD PTR [eax+edx+119]
  00e02	51		 push	 ecx
  00e03	8b 55 08	 mov	 edx, DWORD PTR _aSourceIndex$[ebp]
  00e06	69 d2 38 2b 00
	00		 imul	 edx, 11064		; 00002b38H
  00e0c	a1 00 00 00 00	 mov	 eax, DWORD PTR ?gObj@@3PAUOBJECTSTRUCT@@A ; gObj
  00e11	8d 4c 10 6c	 lea	 ecx, DWORD PTR [eax+edx+108]
  00e15	51		 push	 ecx
  00e16	68 00 00 00 00	 push	 OFFSET ??_C@_0EN@GNFBJJMH@?$FLPShop?$FN?5?$FL?$CFs?$FN?$FL?$CFs?$FN?5PShop?5Item?5Buy?5@
  00e1b	ff 15 00 00 00
	00		 call	 DWORD PTR ?LogAddTD@@3P6AXPADZZA ; LogAddTD
  00e21	83 c4 14	 add	 esp, 20			; 00000014H

; 387  : 			MsgNormal(aSourceIndex,g_ExText.GetText(73),Value);

  00e24	8b 45 f0	 mov	 eax, DWORD PTR _Value$[ebp]
  00e27	50		 push	 eax
  00e28	6a 49		 push	 73			; 00000049H
  00e2a	b9 00 00 00 00	 mov	 ecx, OFFSET ?g_ExText@@3VCExText@@A ; g_ExText
  00e2f	e8 00 00 00 00	 call	 ?GetText@CExText@@QAEPADH@Z ; CExText::GetText
  00e34	50		 push	 eax
  00e35	8b 4d 08	 mov	 ecx, DWORD PTR _aSourceIndex$[ebp]
  00e38	51		 push	 ecx
  00e39	e8 00 00 00 00	 call	 ?MsgNormal@@YAXHPADZZ	; MsgNormal
  00e3e	83 c4 0c	 add	 esp, 12			; 0000000cH

; 388  : 			return false;

  00e41	32 c0		 xor	 al, al
  00e43	e9 62 02 00 00	 jmp	 $LN28@CheckMoney
$LN13@CheckMoney:

; 389  : 		}
; 390  : 	}

  00e48	e9 5b 02 00 00	 jmp	 $LN1@CheckMoney
$LN14@CheckMoney:

; 391  : 	else if(lpObj->OffTrade == OFFBLESS_DC)

  00e4d	8b 45 f4	 mov	 eax, DWORD PTR _lpObj$[ebp]
  00e50	83 b8 ac 22 00
	00 07		 cmp	 DWORD PTR [eax+8876], 7
  00e57	75 79		 jne	 SHORT $LN11@CheckMoney

; 392  : 	{
; 393  : 		if ( SourceObj->BlessBank < Value )

  00e59	8b 45 f8	 mov	 eax, DWORD PTR _SourceObj$[ebp]
  00e5c	8b 88 e4 27 00
	00		 mov	 ecx, DWORD PTR [eax+10212]
  00e62	3b 4d f0	 cmp	 ecx, DWORD PTR _Value$[ebp]
  00e65	7d 66		 jge	 SHORT $LN10@CheckMoney

; 394  : 		{
; 395  : 			LogAddTD("[PShop] [%s][%s] PShop Item Buy Request Failed : [%s][%s] Lack of Bless Bank",
; 396  : 				gObj[aSourceIndex].AccountID, gObj[aSourceIndex].Name, lpObj->AccountID, lpObj->Name);

  00e67	8b 45 f4	 mov	 eax, DWORD PTR _lpObj$[ebp]
  00e6a	83 c0 77	 add	 eax, 119		; 00000077H
  00e6d	50		 push	 eax
  00e6e	8b 4d f4	 mov	 ecx, DWORD PTR _lpObj$[ebp]
  00e71	83 c1 6c	 add	 ecx, 108		; 0000006cH
  00e74	51		 push	 ecx
  00e75	8b 55 08	 mov	 edx, DWORD PTR _aSourceIndex$[ebp]
  00e78	69 d2 38 2b 00
	00		 imul	 edx, 11064		; 00002b38H
  00e7e	a1 00 00 00 00	 mov	 eax, DWORD PTR ?gObj@@3PAUOBJECTSTRUCT@@A ; gObj
  00e83	8d 4c 10 77	 lea	 ecx, DWORD PTR [eax+edx+119]
  00e87	51		 push	 ecx
  00e88	8b 55 08	 mov	 edx, DWORD PTR _aSourceIndex$[ebp]
  00e8b	69 d2 38 2b 00
	00		 imul	 edx, 11064		; 00002b38H
  00e91	a1 00 00 00 00	 mov	 eax, DWORD PTR ?gObj@@3PAUOBJECTSTRUCT@@A ; gObj
  00e96	8d 4c 10 6c	 lea	 ecx, DWORD PTR [eax+edx+108]
  00e9a	51		 push	 ecx
  00e9b	68 00 00 00 00	 push	 OFFSET ??_C@_0EN@NDMMJDBF@?$FLPShop?$FN?5?$FL?$CFs?$FN?$FL?$CFs?$FN?5PShop?5Item?5Buy?5@
  00ea0	ff 15 00 00 00
	00		 call	 DWORD PTR ?LogAddTD@@3P6AXPADZZA ; LogAddTD
  00ea6	83 c4 14	 add	 esp, 20			; 00000014H

; 397  : 			MsgNormal(aSourceIndex,g_ExText.GetText(74),Value);

  00ea9	8b 45 f0	 mov	 eax, DWORD PTR _Value$[ebp]
  00eac	50		 push	 eax
  00ead	6a 4a		 push	 74			; 0000004aH
  00eaf	b9 00 00 00 00	 mov	 ecx, OFFSET ?g_ExText@@3VCExText@@A ; g_ExText
  00eb4	e8 00 00 00 00	 call	 ?GetText@CExText@@QAEPADH@Z ; CExText::GetText
  00eb9	50		 push	 eax
  00eba	8b 4d 08	 mov	 ecx, DWORD PTR _aSourceIndex$[ebp]
  00ebd	51		 push	 ecx
  00ebe	e8 00 00 00 00	 call	 ?MsgNormal@@YAXHPADZZ	; MsgNormal
  00ec3	83 c4 0c	 add	 esp, 12			; 0000000cH

; 398  : 			return false;

  00ec6	32 c0		 xor	 al, al
  00ec8	e9 dd 01 00 00	 jmp	 $LN28@CheckMoney
$LN10@CheckMoney:

; 399  : 		}
; 400  : 	}

  00ecd	e9 d6 01 00 00	 jmp	 $LN1@CheckMoney
$LN11@CheckMoney:

; 401  : 	else if(lpObj->OffTrade == OFFSOUL_DC)

  00ed2	8b 45 f4	 mov	 eax, DWORD PTR _lpObj$[ebp]
  00ed5	83 b8 ac 22 00
	00 08		 cmp	 DWORD PTR [eax+8876], 8
  00edc	75 79		 jne	 SHORT $LN8@CheckMoney

; 402  : 	{
; 403  : 		if ( SourceObj->SoulBank < Value )

  00ede	8b 45 f8	 mov	 eax, DWORD PTR _SourceObj$[ebp]
  00ee1	8b 88 e8 27 00
	00		 mov	 ecx, DWORD PTR [eax+10216]
  00ee7	3b 4d f0	 cmp	 ecx, DWORD PTR _Value$[ebp]
  00eea	7d 66		 jge	 SHORT $LN7@CheckMoney

; 404  : 		{
; 405  : 			LogAddTD("[PShop] [%s][%s] PShop Item Buy Request Failed : [%s][%s] Lack of Soul Bank",
; 406  : 				gObj[aSourceIndex].AccountID, gObj[aSourceIndex].Name, lpObj->AccountID, lpObj->Name);

  00eec	8b 45 f4	 mov	 eax, DWORD PTR _lpObj$[ebp]
  00eef	83 c0 77	 add	 eax, 119		; 00000077H
  00ef2	50		 push	 eax
  00ef3	8b 4d f4	 mov	 ecx, DWORD PTR _lpObj$[ebp]
  00ef6	83 c1 6c	 add	 ecx, 108		; 0000006cH
  00ef9	51		 push	 ecx
  00efa	8b 55 08	 mov	 edx, DWORD PTR _aSourceIndex$[ebp]
  00efd	69 d2 38 2b 00
	00		 imul	 edx, 11064		; 00002b38H
  00f03	a1 00 00 00 00	 mov	 eax, DWORD PTR ?gObj@@3PAUOBJECTSTRUCT@@A ; gObj
  00f08	8d 4c 10 77	 lea	 ecx, DWORD PTR [eax+edx+119]
  00f0c	51		 push	 ecx
  00f0d	8b 55 08	 mov	 edx, DWORD PTR _aSourceIndex$[ebp]
  00f10	69 d2 38 2b 00
	00		 imul	 edx, 11064		; 00002b38H
  00f16	a1 00 00 00 00	 mov	 eax, DWORD PTR ?gObj@@3PAUOBJECTSTRUCT@@A ; gObj
  00f1b	8d 4c 10 6c	 lea	 ecx, DWORD PTR [eax+edx+108]
  00f1f	51		 push	 ecx
  00f20	68 00 00 00 00	 push	 OFFSET ??_C@_0EM@HBIPLAHE@?$FLPShop?$FN?5?$FL?$CFs?$FN?$FL?$CFs?$FN?5PShop?5Item?5Buy?5@
  00f25	ff 15 00 00 00
	00		 call	 DWORD PTR ?LogAddTD@@3P6AXPADZZA ; LogAddTD
  00f2b	83 c4 14	 add	 esp, 20			; 00000014H

; 407  : 			MsgNormal(aSourceIndex,g_ExText.GetText(75),Value);

  00f2e	8b 45 f0	 mov	 eax, DWORD PTR _Value$[ebp]
  00f31	50		 push	 eax
  00f32	6a 4b		 push	 75			; 0000004bH
  00f34	b9 00 00 00 00	 mov	 ecx, OFFSET ?g_ExText@@3VCExText@@A ; g_ExText
  00f39	e8 00 00 00 00	 call	 ?GetText@CExText@@QAEPADH@Z ; CExText::GetText
  00f3e	50		 push	 eax
  00f3f	8b 4d 08	 mov	 ecx, DWORD PTR _aSourceIndex$[ebp]
  00f42	51		 push	 ecx
  00f43	e8 00 00 00 00	 call	 ?MsgNormal@@YAXHPADZZ	; MsgNormal
  00f48	83 c4 0c	 add	 esp, 12			; 0000000cH

; 408  : 			return false;

  00f4b	32 c0		 xor	 al, al
  00f4d	e9 58 01 00 00	 jmp	 $LN28@CheckMoney
$LN7@CheckMoney:

; 409  : 		}
; 410  : 	}

  00f52	e9 51 01 00 00	 jmp	 $LN1@CheckMoney
$LN8@CheckMoney:

; 411  : 	else if(lpObj->OffTrade == OFFLIFE_DC)

  00f57	8b 45 f4	 mov	 eax, DWORD PTR _lpObj$[ebp]
  00f5a	83 b8 ac 22 00
	00 09		 cmp	 DWORD PTR [eax+8876], 9
  00f61	75 79		 jne	 SHORT $LN5@CheckMoney

; 412  : 	{
; 413  : 		if ( SourceObj->LifeBank < Value )

  00f63	8b 45 f8	 mov	 eax, DWORD PTR _SourceObj$[ebp]
  00f66	8b 88 ec 27 00
	00		 mov	 ecx, DWORD PTR [eax+10220]
  00f6c	3b 4d f0	 cmp	 ecx, DWORD PTR _Value$[ebp]
  00f6f	7d 66		 jge	 SHORT $LN4@CheckMoney

; 414  : 		{
; 415  : 			LogAddTD("[PShop] [%s][%s] PShop Item Buy Request Failed : [%s][%s] Lack of Life Bank",
; 416  : 				gObj[aSourceIndex].AccountID, gObj[aSourceIndex].Name, lpObj->AccountID, lpObj->Name);

  00f71	8b 45 f4	 mov	 eax, DWORD PTR _lpObj$[ebp]
  00f74	83 c0 77	 add	 eax, 119		; 00000077H
  00f77	50		 push	 eax
  00f78	8b 4d f4	 mov	 ecx, DWORD PTR _lpObj$[ebp]
  00f7b	83 c1 6c	 add	 ecx, 108		; 0000006cH
  00f7e	51		 push	 ecx
  00f7f	8b 55 08	 mov	 edx, DWORD PTR _aSourceIndex$[ebp]
  00f82	69 d2 38 2b 00
	00		 imul	 edx, 11064		; 00002b38H
  00f88	a1 00 00 00 00	 mov	 eax, DWORD PTR ?gObj@@3PAUOBJECTSTRUCT@@A ; gObj
  00f8d	8d 4c 10 77	 lea	 ecx, DWORD PTR [eax+edx+119]
  00f91	51		 push	 ecx
  00f92	8b 55 08	 mov	 edx, DWORD PTR _aSourceIndex$[ebp]
  00f95	69 d2 38 2b 00
	00		 imul	 edx, 11064		; 00002b38H
  00f9b	a1 00 00 00 00	 mov	 eax, DWORD PTR ?gObj@@3PAUOBJECTSTRUCT@@A ; gObj
  00fa0	8d 4c 10 6c	 lea	 ecx, DWORD PTR [eax+edx+108]
  00fa4	51		 push	 ecx
  00fa5	68 00 00 00 00	 push	 OFFSET ??_C@_0EM@LDJMGAIA@?$FLPShop?$FN?5?$FL?$CFs?$FN?$FL?$CFs?$FN?5PShop?5Item?5Buy?5@
  00faa	ff 15 00 00 00
	00		 call	 DWORD PTR ?LogAddTD@@3P6AXPADZZA ; LogAddTD
  00fb0	83 c4 14	 add	 esp, 20			; 00000014H

; 417  : 			MsgNormal(aSourceIndex,g_ExText.GetText(76),Value);

  00fb3	8b 45 f0	 mov	 eax, DWORD PTR _Value$[ebp]
  00fb6	50		 push	 eax
  00fb7	6a 4c		 push	 76			; 0000004cH
  00fb9	b9 00 00 00 00	 mov	 ecx, OFFSET ?g_ExText@@3VCExText@@A ; g_ExText
  00fbe	e8 00 00 00 00	 call	 ?GetText@CExText@@QAEPADH@Z ; CExText::GetText
  00fc3	50		 push	 eax
  00fc4	8b 4d 08	 mov	 ecx, DWORD PTR _aSourceIndex$[ebp]
  00fc7	51		 push	 ecx
  00fc8	e8 00 00 00 00	 call	 ?MsgNormal@@YAXHPADZZ	; MsgNormal
  00fcd	83 c4 0c	 add	 esp, 12			; 0000000cH

; 418  : 			return false;

  00fd0	32 c0		 xor	 al, al
  00fd2	e9 d3 00 00 00	 jmp	 $LN28@CheckMoney
$LN4@CheckMoney:

; 419  : 		}
; 420  : 	}
; 421  : 	else

  00fd7	e9 cc 00 00 00	 jmp	 $LN1@CheckMoney
$LN5@CheckMoney:

; 422  : 	{
; 423  : 		if ( SourceObj->Money < Value )

  00fdc	8b 45 f8	 mov	 eax, DWORD PTR _SourceObj$[ebp]
  00fdf	8b 88 f0 00 00
	00		 mov	 ecx, DWORD PTR [eax+240]
  00fe5	3b 4d f0	 cmp	 ecx, DWORD PTR _Value$[ebp]
  00fe8	7d 44		 jge	 SHORT $LN2@CheckMoney

; 424  : 		{
; 425  : 			LogAddTD("[PShop] [%s][%s] PShop Item Buy Request Failed : [%s][%s] Lack of Zen",
; 426  : 				SourceObj->AccountID, 
; 427  : 				SourceObj->Name, 	
; 428  : 				lpObj->AccountID, 
; 429  : 				lpObj->Name);

  00fea	8b 45 f4	 mov	 eax, DWORD PTR _lpObj$[ebp]
  00fed	83 c0 77	 add	 eax, 119		; 00000077H
  00ff0	50		 push	 eax
  00ff1	8b 4d f4	 mov	 ecx, DWORD PTR _lpObj$[ebp]
  00ff4	83 c1 6c	 add	 ecx, 108		; 0000006cH
  00ff7	51		 push	 ecx
  00ff8	8b 55 f8	 mov	 edx, DWORD PTR _SourceObj$[ebp]
  00ffb	83 c2 77	 add	 edx, 119		; 00000077H
  00ffe	52		 push	 edx
  00fff	8b 45 f8	 mov	 eax, DWORD PTR _SourceObj$[ebp]
  01002	83 c0 6c	 add	 eax, 108		; 0000006cH
  01005	50		 push	 eax
  01006	68 00 00 00 00	 push	 OFFSET ??_C@_0EG@BJIIHLIN@?$FLPShop?$FN?5?$FL?$CFs?$FN?$FL?$CFs?$FN?5PShop?5Item?5Buy?5@
  0100b	ff 15 00 00 00
	00		 call	 DWORD PTR ?LogAddTD@@3P6AXPADZZA ; LogAddTD
  01011	83 c4 14	 add	 esp, 20			; 00000014H

; 430  : 
; 431  : 			::CGPShopAnsBuyItem(aSourceIndex, lpObj->m_Index, 0, 7);

  01014	6a 07		 push	 7
  01016	6a 00		 push	 0
  01018	8b 45 f4	 mov	 eax, DWORD PTR _lpObj$[ebp]
  0101b	8b 08		 mov	 ecx, DWORD PTR [eax]
  0101d	51		 push	 ecx
  0101e	8b 55 08	 mov	 edx, DWORD PTR _aSourceIndex$[ebp]
  01021	52		 push	 edx
  01022	e8 00 00 00 00	 call	 ?CGPShopAnsBuyItem@@YAXHHHE@Z ; CGPShopAnsBuyItem
  01027	83 c4 10	 add	 esp, 16			; 00000010H

; 432  : 			return false;

  0102a	32 c0		 xor	 al, al
  0102c	eb 7c		 jmp	 SHORT $LN28@CheckMoney
$LN2@CheckMoney:

; 433  : 		}
; 434  : #if(_CONFLICT_)
; 435  : 		
; 436  : 		if (Value > (MAX_ZEN - lpObj->Money))

  0102e	8b 45 f4	 mov	 eax, DWORD PTR _lpObj$[ebp]
  01031	b9 00 94 35 77	 mov	 ecx, 2000000000		; 77359400H
  01036	2b 88 f0 00 00
	00		 sub	 ecx, DWORD PTR [eax+240]
  0103c	39 4d f0	 cmp	 DWORD PTR _Value$[ebp], ecx
  0103f	7e 67		 jle	 SHORT $LN1@CheckMoney

; 437  : 		{
; 438  : 			LogAddTD("[PShop] [%s][%s] PShop Item Buy Request Failed : [%s][%s] Max Zen In Inventory",
; 439  : 			SourceObj->AccountID, 
; 440  : 			SourceObj->Name, 	
; 441  : 			lpObj->AccountID, 
; 442  : 			lpObj->Name);

  01041	8b 45 f4	 mov	 eax, DWORD PTR _lpObj$[ebp]
  01044	83 c0 77	 add	 eax, 119		; 00000077H
  01047	50		 push	 eax
  01048	8b 4d f4	 mov	 ecx, DWORD PTR _lpObj$[ebp]
  0104b	83 c1 6c	 add	 ecx, 108		; 0000006cH
  0104e	51		 push	 ecx
  0104f	8b 55 f8	 mov	 edx, DWORD PTR _SourceObj$[ebp]
  01052	83 c2 77	 add	 edx, 119		; 00000077H
  01055	52		 push	 edx
  01056	8b 45 f8	 mov	 eax, DWORD PTR _SourceObj$[ebp]
  01059	83 c0 6c	 add	 eax, 108		; 0000006cH
  0105c	50		 push	 eax
  0105d	68 00 00 00 00	 push	 OFFSET ??_C@_0EP@LICILKCE@?$FLPShop?$FN?5?$FL?$CFs?$FN?$FL?$CFs?$FN?5PShop?5Item?5Buy?5@
  01062	ff 15 00 00 00
	00		 call	 DWORD PTR ?LogAddTD@@3P6AXPADZZA ; LogAddTD
  01068	83 c4 14	 add	 esp, 20			; 00000014H

; 443  : 			MsgNormal(aSourceIndex,g_ExText.GetText(77), lpObj->Name);

  0106b	8b 45 f4	 mov	 eax, DWORD PTR _lpObj$[ebp]
  0106e	83 c0 77	 add	 eax, 119		; 00000077H
  01071	50		 push	 eax
  01072	6a 4d		 push	 77			; 0000004dH
  01074	b9 00 00 00 00	 mov	 ecx, OFFSET ?g_ExText@@3VCExText@@A ; g_ExText
  01079	e8 00 00 00 00	 call	 ?GetText@CExText@@QAEPADH@Z ; CExText::GetText
  0107e	50		 push	 eax
  0107f	8b 4d 08	 mov	 ecx, DWORD PTR _aSourceIndex$[ebp]
  01082	51		 push	 ecx
  01083	e8 00 00 00 00	 call	 ?MsgNormal@@YAXHPADZZ	; MsgNormal
  01088	83 c4 0c	 add	 esp, 12			; 0000000cH

; 444  : 			MsgNormal(aIndex,g_ExText.GetText(78));

  0108b	6a 4e		 push	 78			; 0000004eH
  0108d	b9 00 00 00 00	 mov	 ecx, OFFSET ?g_ExText@@3VCExText@@A ; g_ExText
  01092	e8 00 00 00 00	 call	 ?GetText@CExText@@QAEPADH@Z ; CExText::GetText
  01097	50		 push	 eax
  01098	8b 45 0c	 mov	 eax, DWORD PTR _aIndex$[ebp]
  0109b	50		 push	 eax
  0109c	e8 00 00 00 00	 call	 ?MsgNormal@@YAXHPADZZ	; MsgNormal
  010a1	83 c4 08	 add	 esp, 8

; 445  : 			return false;

  010a4	32 c0		 xor	 al, al
  010a6	eb 02		 jmp	 SHORT $LN28@CheckMoney
$LN1@CheckMoney:

; 446  : 		}
; 447  : #endif
; 448  : 	}
; 449  : 	return true;

  010a8	b0 01		 mov	 al, 1
$LN28@CheckMoney:

; 450  : }

  010aa	5f		 pop	 edi
  010ab	5e		 pop	 esi
  010ac	5b		 pop	 ebx
  010ad	8b e5		 mov	 esp, ebp
  010af	5d		 pop	 ebp
  010b0	c2 0c 00	 ret	 12			; 0000000cH
?CheckMoney@cOffTrade@@QAE_NHHH@Z ENDP			; cOffTrade::CheckMoney
_TEXT	ENDS
PUBLIC	?ValueUpdate@cOffTrade@@QAEXHHH@Z		; cOffTrade::ValueUpdate
EXTRN	?GCMoneySend@@YAXHK@Z:PROC			; GCMoneySend
EXTRN	?ExUserDataSend@@YAXH@Z:PROC			; ExUserDataSend
EXTRN	?GDSaveUserInfo@GameShop@@QAEXH@Z:PROC		; GameShop::GDSaveUserInfo
EXTRN	?gGameShop@@3VGameShop@@A:BYTE			; gGameShop
; Function compile flags: /Odtp /ZI
_TEXT	SEGMENT
_lpObj$ = -12						; size = 4
_SourceObj$ = -8					; size = 4
_this$ = -4						; size = 4
_aSourceIndex$ = 8					; size = 4
_aIndex$ = 12						; size = 4
_Value$ = 16						; size = 4
?ValueUpdate@cOffTrade@@QAEXHHH@Z PROC			; cOffTrade::ValueUpdate
; _this$ = ecx

; 453  : {

  010c0	55		 push	 ebp
  010c1	8b ec		 mov	 ebp, esp
  010c3	83 ec 4c	 sub	 esp, 76			; 0000004cH
  010c6	53		 push	 ebx
  010c7	56		 push	 esi
  010c8	57		 push	 edi
  010c9	89 4d fc	 mov	 DWORD PTR _this$[ebp], ecx

; 454  : 	if(!this->Enable) return;

  010cc	8b 45 fc	 mov	 eax, DWORD PTR _this$[ebp]
  010cf	0f b6 08	 movzx	 ecx, BYTE PTR [eax]
  010d2	85 c9		 test	 ecx, ecx
  010d4	75 05		 jne	 SHORT $LN17@ValueUpdat
  010d6	e9 ef 02 00 00	 jmp	 $LN18@ValueUpdat
$LN17@ValueUpdat:

; 455  : 
; 456  : 	LPOBJ SourceObj = &gObj[aSourceIndex];

  010db	8b 45 08	 mov	 eax, DWORD PTR _aSourceIndex$[ebp]
  010de	69 c0 38 2b 00
	00		 imul	 eax, 11064		; 00002b38H
  010e4	03 05 00 00 00
	00		 add	 eax, DWORD PTR ?gObj@@3PAUOBJECTSTRUCT@@A ; gObj
  010ea	89 45 f8	 mov	 DWORD PTR _SourceObj$[ebp], eax

; 457  : 	LPOBJ lpObj = &gObj[aIndex];

  010ed	8b 45 0c	 mov	 eax, DWORD PTR _aIndex$[ebp]
  010f0	69 c0 38 2b 00
	00		 imul	 eax, 11064		; 00002b38H
  010f6	03 05 00 00 00
	00		 add	 eax, DWORD PTR ?gObj@@3PAUOBJECTSTRUCT@@A ; gObj
  010fc	89 45 f4	 mov	 DWORD PTR _lpObj$[ebp], eax

; 458  : 
; 459  : 	if(lpObj->OffTrade == OFFCR_DC)

  010ff	8b 45 f4	 mov	 eax, DWORD PTR _lpObj$[ebp]
  01102	83 b8 ac 22 00
	00 02		 cmp	 DWORD PTR [eax+8876], 2
  01109	75 2f		 jne	 SHORT $LN16@ValueUpdat

; 460  : 	{
; 461  : 		SourceObj->ExCred -= Value;

  0110b	db 45 10	 fild	 DWORD PTR _Value$[ebp]
  0110e	8b 45 f8	 mov	 eax, DWORD PTR _SourceObj$[ebp]
  01111	d8 a8 a8 22 00
	00		 fsubr	 DWORD PTR [eax+8872]
  01117	8b 4d f8	 mov	 ecx, DWORD PTR _SourceObj$[ebp]
  0111a	d9 99 a8 22 00
	00		 fstp	 DWORD PTR [ecx+8872]

; 462  : 		lpObj->ExCred += Value;

  01120	db 45 10	 fild	 DWORD PTR _Value$[ebp]
  01123	8b 45 f4	 mov	 eax, DWORD PTR _lpObj$[ebp]
  01126	d8 80 a8 22 00
	00		 fadd	 DWORD PTR [eax+8872]
  0112c	8b 4d f4	 mov	 ecx, DWORD PTR _lpObj$[ebp]
  0112f	d9 99 a8 22 00
	00		 fstp	 DWORD PTR [ecx+8872]
  01135	e9 90 02 00 00	 jmp	 $LN1@ValueUpdat
$LN16@ValueUpdat:

; 463  : 	}
; 464  : 	else if(lpObj->OffTrade == OFFWC_DC)

  0113a	8b 45 f4	 mov	 eax, DWORD PTR _lpObj$[ebp]
  0113d	83 b8 ac 22 00
	00 03		 cmp	 DWORD PTR [eax+8876], 3
  01144	75 4b		 jne	 SHORT $LN14@ValueUpdat

; 465  : 	{
; 466  : 		SourceObj->GameShop.WCoinC -= Value;

  01146	db 45 10	 fild	 DWORD PTR _Value$[ebp]
  01149	8b 45 f8	 mov	 eax, DWORD PTR _SourceObj$[ebp]
  0114c	dc a8 00 23 00
	00		 fsubr	 QWORD PTR [eax+8960]
  01152	8b 4d f8	 mov	 ecx, DWORD PTR _SourceObj$[ebp]
  01155	dd 99 00 23 00
	00		 fstp	 QWORD PTR [ecx+8960]

; 467  : 		lpObj->GameShop.WCoinC += Value;

  0115b	db 45 10	 fild	 DWORD PTR _Value$[ebp]
  0115e	8b 45 f4	 mov	 eax, DWORD PTR _lpObj$[ebp]
  01161	dc 80 00 23 00
	00		 fadd	 QWORD PTR [eax+8960]
  01167	8b 4d f4	 mov	 ecx, DWORD PTR _lpObj$[ebp]
  0116a	dd 99 00 23 00
	00		 fstp	 QWORD PTR [ecx+8960]

; 468  : 		gGameShop.GDSaveUserInfo(aIndex);

  01170	8b 45 0c	 mov	 eax, DWORD PTR _aIndex$[ebp]
  01173	50		 push	 eax
  01174	b9 00 00 00 00	 mov	 ecx, OFFSET ?gGameShop@@3VGameShop@@A ; gGameShop
  01179	e8 00 00 00 00	 call	 ?GDSaveUserInfo@GameShop@@QAEXH@Z ; GameShop::GDSaveUserInfo

; 469  : 		gGameShop.GDSaveUserInfo(aSourceIndex);

  0117e	8b 45 08	 mov	 eax, DWORD PTR _aSourceIndex$[ebp]
  01181	50		 push	 eax
  01182	b9 00 00 00 00	 mov	 ecx, OFFSET ?gGameShop@@3VGameShop@@A ; gGameShop
  01187	e8 00 00 00 00	 call	 ?GDSaveUserInfo@GameShop@@QAEXH@Z ; GameShop::GDSaveUserInfo
  0118c	e9 39 02 00 00	 jmp	 $LN1@ValueUpdat
$LN14@ValueUpdat:

; 470  : 	}
; 471  : 	else if(lpObj->OffTrade == OFFWP_DC)

  01191	8b 45 f4	 mov	 eax, DWORD PTR _lpObj$[ebp]
  01194	83 b8 ac 22 00
	00 04		 cmp	 DWORD PTR [eax+8876], 4
  0119b	75 4b		 jne	 SHORT $LN12@ValueUpdat

; 472  : 	{
; 473  : 		SourceObj->GameShop.WCoinP -= Value;

  0119d	db 45 10	 fild	 DWORD PTR _Value$[ebp]
  011a0	8b 45 f8	 mov	 eax, DWORD PTR _SourceObj$[ebp]
  011a3	dc a8 f8 22 00
	00		 fsubr	 QWORD PTR [eax+8952]
  011a9	8b 4d f8	 mov	 ecx, DWORD PTR _SourceObj$[ebp]
  011ac	dd 99 f8 22 00
	00		 fstp	 QWORD PTR [ecx+8952]

; 474  : 		lpObj->GameShop.WCoinP += Value;

  011b2	db 45 10	 fild	 DWORD PTR _Value$[ebp]
  011b5	8b 45 f4	 mov	 eax, DWORD PTR _lpObj$[ebp]
  011b8	dc 80 f8 22 00
	00		 fadd	 QWORD PTR [eax+8952]
  011be	8b 4d f4	 mov	 ecx, DWORD PTR _lpObj$[ebp]
  011c1	dd 99 f8 22 00
	00		 fstp	 QWORD PTR [ecx+8952]

; 475  : 		gGameShop.GDSaveUserInfo(aIndex);

  011c7	8b 45 0c	 mov	 eax, DWORD PTR _aIndex$[ebp]
  011ca	50		 push	 eax
  011cb	b9 00 00 00 00	 mov	 ecx, OFFSET ?gGameShop@@3VGameShop@@A ; gGameShop
  011d0	e8 00 00 00 00	 call	 ?GDSaveUserInfo@GameShop@@QAEXH@Z ; GameShop::GDSaveUserInfo

; 476  : 		gGameShop.GDSaveUserInfo(aSourceIndex);

  011d5	8b 45 08	 mov	 eax, DWORD PTR _aSourceIndex$[ebp]
  011d8	50		 push	 eax
  011d9	b9 00 00 00 00	 mov	 ecx, OFFSET ?gGameShop@@3VGameShop@@A ; gGameShop
  011de	e8 00 00 00 00	 call	 ?GDSaveUserInfo@GameShop@@QAEXH@Z ; GameShop::GDSaveUserInfo
  011e3	e9 e2 01 00 00	 jmp	 $LN1@ValueUpdat
$LN12@ValueUpdat:

; 477  : 	}
; 478  : 	else if(lpObj->OffTrade == OFFWG_DC)

  011e8	8b 45 f4	 mov	 eax, DWORD PTR _lpObj$[ebp]
  011eb	83 b8 ac 22 00
	00 05		 cmp	 DWORD PTR [eax+8876], 5
  011f2	75 4b		 jne	 SHORT $LN10@ValueUpdat

; 479  : 	{
; 480  : 		SourceObj->GameShop.GoblinPoint -= Value;

  011f4	db 45 10	 fild	 DWORD PTR _Value$[ebp]
  011f7	8b 45 f8	 mov	 eax, DWORD PTR _SourceObj$[ebp]
  011fa	dc a8 08 23 00
	00		 fsubr	 QWORD PTR [eax+8968]
  01200	8b 4d f8	 mov	 ecx, DWORD PTR _SourceObj$[ebp]
  01203	dd 99 08 23 00
	00		 fstp	 QWORD PTR [ecx+8968]

; 481  : 		lpObj->GameShop.GoblinPoint += Value;

  01209	db 45 10	 fild	 DWORD PTR _Value$[ebp]
  0120c	8b 45 f4	 mov	 eax, DWORD PTR _lpObj$[ebp]
  0120f	dc 80 08 23 00
	00		 fadd	 QWORD PTR [eax+8968]
  01215	8b 4d f4	 mov	 ecx, DWORD PTR _lpObj$[ebp]
  01218	dd 99 08 23 00
	00		 fstp	 QWORD PTR [ecx+8968]

; 482  : 		gGameShop.GDSaveUserInfo(aIndex);

  0121e	8b 45 0c	 mov	 eax, DWORD PTR _aIndex$[ebp]
  01221	50		 push	 eax
  01222	b9 00 00 00 00	 mov	 ecx, OFFSET ?gGameShop@@3VGameShop@@A ; gGameShop
  01227	e8 00 00 00 00	 call	 ?GDSaveUserInfo@GameShop@@QAEXH@Z ; GameShop::GDSaveUserInfo

; 483  : 		gGameShop.GDSaveUserInfo(aSourceIndex);

  0122c	8b 45 08	 mov	 eax, DWORD PTR _aSourceIndex$[ebp]
  0122f	50		 push	 eax
  01230	b9 00 00 00 00	 mov	 ecx, OFFSET ?gGameShop@@3VGameShop@@A ; gGameShop
  01235	e8 00 00 00 00	 call	 ?GDSaveUserInfo@GameShop@@QAEXH@Z ; GameShop::GDSaveUserInfo
  0123a	e9 8b 01 00 00	 jmp	 $LN1@ValueUpdat
$LN10@ValueUpdat:

; 484  : 	}
; 485  : 	else if(lpObj->OffTrade == OFFCHAOS_DC)

  0123f	8b 45 f4	 mov	 eax, DWORD PTR _lpObj$[ebp]
  01242	83 b8 ac 22 00
	00 06		 cmp	 DWORD PTR [eax+8876], 6
  01249	75 3b		 jne	 SHORT $LN8@ValueUpdat

; 486  : 	{
; 487  : 		SourceObj->ChaosBank -= Value;

  0124b	8b 45 f8	 mov	 eax, DWORD PTR _SourceObj$[ebp]
  0124e	8b 88 e0 27 00
	00		 mov	 ecx, DWORD PTR [eax+10208]
  01254	2b 4d 10	 sub	 ecx, DWORD PTR _Value$[ebp]
  01257	8b 55 f8	 mov	 edx, DWORD PTR _SourceObj$[ebp]
  0125a	89 8a e0 27 00
	00		 mov	 DWORD PTR [edx+10208], ecx

; 488  : 		lpObj->ChaosBank += Value;

  01260	8b 45 f4	 mov	 eax, DWORD PTR _lpObj$[ebp]
  01263	8b 88 e0 27 00
	00		 mov	 ecx, DWORD PTR [eax+10208]
  01269	03 4d 10	 add	 ecx, DWORD PTR _Value$[ebp]
  0126c	8b 55 f4	 mov	 edx, DWORD PTR _lpObj$[ebp]
  0126f	89 8a e0 27 00
	00		 mov	 DWORD PTR [edx+10208], ecx

; 489  : 		ExUserDataSend(aSourceIndex);

  01275	8b 45 08	 mov	 eax, DWORD PTR _aSourceIndex$[ebp]
  01278	50		 push	 eax
  01279	e8 00 00 00 00	 call	 ?ExUserDataSend@@YAXH@Z	; ExUserDataSend
  0127e	83 c4 04	 add	 esp, 4
  01281	e9 44 01 00 00	 jmp	 $LN1@ValueUpdat
$LN8@ValueUpdat:

; 490  : 	}
; 491  : 	else if(lpObj->OffTrade == OFFBLESS_DC)

  01286	8b 45 f4	 mov	 eax, DWORD PTR _lpObj$[ebp]
  01289	83 b8 ac 22 00
	00 07		 cmp	 DWORD PTR [eax+8876], 7
  01290	75 3b		 jne	 SHORT $LN6@ValueUpdat

; 492  : 	{
; 493  : 		SourceObj->BlessBank -= Value;

  01292	8b 45 f8	 mov	 eax, DWORD PTR _SourceObj$[ebp]
  01295	8b 88 e4 27 00
	00		 mov	 ecx, DWORD PTR [eax+10212]
  0129b	2b 4d 10	 sub	 ecx, DWORD PTR _Value$[ebp]
  0129e	8b 55 f8	 mov	 edx, DWORD PTR _SourceObj$[ebp]
  012a1	89 8a e4 27 00
	00		 mov	 DWORD PTR [edx+10212], ecx

; 494  : 		lpObj->BlessBank += Value;

  012a7	8b 45 f4	 mov	 eax, DWORD PTR _lpObj$[ebp]
  012aa	8b 88 e4 27 00
	00		 mov	 ecx, DWORD PTR [eax+10212]
  012b0	03 4d 10	 add	 ecx, DWORD PTR _Value$[ebp]
  012b3	8b 55 f4	 mov	 edx, DWORD PTR _lpObj$[ebp]
  012b6	89 8a e4 27 00
	00		 mov	 DWORD PTR [edx+10212], ecx

; 495  : 		ExUserDataSend(aSourceIndex);

  012bc	8b 45 08	 mov	 eax, DWORD PTR _aSourceIndex$[ebp]
  012bf	50		 push	 eax
  012c0	e8 00 00 00 00	 call	 ?ExUserDataSend@@YAXH@Z	; ExUserDataSend
  012c5	83 c4 04	 add	 esp, 4
  012c8	e9 fd 00 00 00	 jmp	 $LN1@ValueUpdat
$LN6@ValueUpdat:

; 496  : 	}
; 497  : 	else if(lpObj->OffTrade == OFFSOUL_DC)

  012cd	8b 45 f4	 mov	 eax, DWORD PTR _lpObj$[ebp]
  012d0	83 b8 ac 22 00
	00 08		 cmp	 DWORD PTR [eax+8876], 8
  012d7	75 3b		 jne	 SHORT $LN4@ValueUpdat

; 498  : 	{
; 499  : 		SourceObj->SoulBank -= Value;

  012d9	8b 45 f8	 mov	 eax, DWORD PTR _SourceObj$[ebp]
  012dc	8b 88 e8 27 00
	00		 mov	 ecx, DWORD PTR [eax+10216]
  012e2	2b 4d 10	 sub	 ecx, DWORD PTR _Value$[ebp]
  012e5	8b 55 f8	 mov	 edx, DWORD PTR _SourceObj$[ebp]
  012e8	89 8a e8 27 00
	00		 mov	 DWORD PTR [edx+10216], ecx

; 500  : 		lpObj->SoulBank += Value;

  012ee	8b 45 f4	 mov	 eax, DWORD PTR _lpObj$[ebp]
  012f1	8b 88 e8 27 00
	00		 mov	 ecx, DWORD PTR [eax+10216]
  012f7	03 4d 10	 add	 ecx, DWORD PTR _Value$[ebp]
  012fa	8b 55 f4	 mov	 edx, DWORD PTR _lpObj$[ebp]
  012fd	89 8a e8 27 00
	00		 mov	 DWORD PTR [edx+10216], ecx

; 501  : 		ExUserDataSend(aSourceIndex);

  01303	8b 45 08	 mov	 eax, DWORD PTR _aSourceIndex$[ebp]
  01306	50		 push	 eax
  01307	e8 00 00 00 00	 call	 ?ExUserDataSend@@YAXH@Z	; ExUserDataSend
  0130c	83 c4 04	 add	 esp, 4
  0130f	e9 b6 00 00 00	 jmp	 $LN1@ValueUpdat
$LN4@ValueUpdat:

; 502  : 	}
; 503  : 	else if(lpObj->OffTrade == OFFLIFE_DC)

  01314	8b 45 f4	 mov	 eax, DWORD PTR _lpObj$[ebp]
  01317	83 b8 ac 22 00
	00 09		 cmp	 DWORD PTR [eax+8876], 9
  0131e	75 38		 jne	 SHORT $LN2@ValueUpdat

; 504  : 	{
; 505  : 		SourceObj->LifeBank -= Value;

  01320	8b 45 f8	 mov	 eax, DWORD PTR _SourceObj$[ebp]
  01323	8b 88 ec 27 00
	00		 mov	 ecx, DWORD PTR [eax+10220]
  01329	2b 4d 10	 sub	 ecx, DWORD PTR _Value$[ebp]
  0132c	8b 55 f8	 mov	 edx, DWORD PTR _SourceObj$[ebp]
  0132f	89 8a ec 27 00
	00		 mov	 DWORD PTR [edx+10220], ecx

; 506  : 		lpObj->LifeBank += Value;

  01335	8b 45 f4	 mov	 eax, DWORD PTR _lpObj$[ebp]
  01338	8b 88 ec 27 00
	00		 mov	 ecx, DWORD PTR [eax+10220]
  0133e	03 4d 10	 add	 ecx, DWORD PTR _Value$[ebp]
  01341	8b 55 f4	 mov	 edx, DWORD PTR _lpObj$[ebp]
  01344	89 8a ec 27 00
	00		 mov	 DWORD PTR [edx+10220], ecx

; 507  : 		ExUserDataSend(aSourceIndex);

  0134a	8b 45 08	 mov	 eax, DWORD PTR _aSourceIndex$[ebp]
  0134d	50		 push	 eax
  0134e	e8 00 00 00 00	 call	 ?ExUserDataSend@@YAXH@Z	; ExUserDataSend
  01353	83 c4 04	 add	 esp, 4

; 508  : 	}
; 509  : 	else

  01356	eb 72		 jmp	 SHORT $LN1@ValueUpdat
$LN2@ValueUpdat:

; 510  : 	{
; 511  : 		gObj[aSourceIndex].Money -= Value;

  01358	8b 45 08	 mov	 eax, DWORD PTR _aSourceIndex$[ebp]
  0135b	69 c0 38 2b 00
	00		 imul	 eax, 11064		; 00002b38H
  01361	8b 0d 00 00 00
	00		 mov	 ecx, DWORD PTR ?gObj@@3PAUOBJECTSTRUCT@@A ; gObj
  01367	8b 94 01 f0 00
	00 00		 mov	 edx, DWORD PTR [ecx+eax+240]
  0136e	2b 55 10	 sub	 edx, DWORD PTR _Value$[ebp]
  01371	8b 45 08	 mov	 eax, DWORD PTR _aSourceIndex$[ebp]
  01374	69 c0 38 2b 00
	00		 imul	 eax, 11064		; 00002b38H
  0137a	8b 0d 00 00 00
	00		 mov	 ecx, DWORD PTR ?gObj@@3PAUOBJECTSTRUCT@@A ; gObj
  01380	89 94 01 f0 00
	00 00		 mov	 DWORD PTR [ecx+eax+240], edx

; 512  : 		lpObj->Money += Value;

  01387	8b 45 f4	 mov	 eax, DWORD PTR _lpObj$[ebp]
  0138a	8b 88 f0 00 00
	00		 mov	 ecx, DWORD PTR [eax+240]
  01390	03 4d 10	 add	 ecx, DWORD PTR _Value$[ebp]
  01393	8b 55 f4	 mov	 edx, DWORD PTR _lpObj$[ebp]
  01396	89 8a f0 00 00
	00		 mov	 DWORD PTR [edx+240], ecx

; 513  : 		::GCMoneySend(aSourceIndex, SourceObj->Money);

  0139c	8b 45 f8	 mov	 eax, DWORD PTR _SourceObj$[ebp]
  0139f	8b 88 f0 00 00
	00		 mov	 ecx, DWORD PTR [eax+240]
  013a5	51		 push	 ecx
  013a6	8b 55 08	 mov	 edx, DWORD PTR _aSourceIndex$[ebp]
  013a9	52		 push	 edx
  013aa	e8 00 00 00 00	 call	 ?GCMoneySend@@YAXHK@Z	; GCMoneySend
  013af	83 c4 08	 add	 esp, 8

; 514  : 		::GCMoneySend(lpObj->m_Index, lpObj->Money);

  013b2	8b 45 f4	 mov	 eax, DWORD PTR _lpObj$[ebp]
  013b5	8b 88 f0 00 00
	00		 mov	 ecx, DWORD PTR [eax+240]
  013bb	51		 push	 ecx
  013bc	8b 55 f4	 mov	 edx, DWORD PTR _lpObj$[ebp]
  013bf	8b 02		 mov	 eax, DWORD PTR [edx]
  013c1	50		 push	 eax
  013c2	e8 00 00 00 00	 call	 ?GCMoneySend@@YAXHK@Z	; GCMoneySend
  013c7	83 c4 08	 add	 esp, 8
$LN1@ValueUpdat:
$LN18@ValueUpdat:

; 515  : 	}
; 516  : }

  013ca	5f		 pop	 edi
  013cb	5e		 pop	 esi
  013cc	5b		 pop	 ebx
  013cd	8b e5		 mov	 esp, ebp
  013cf	5d		 pop	 ebp
  013d0	c2 0c 00	 ret	 12			; 0000000cH
?ValueUpdate@cOffTrade@@QAEXHHH@Z ENDP			; cOffTrade::ValueUpdate
_TEXT	ENDS
PUBLIC	?UserOnlineOffSell@cOffTrade@@QAEXPAUOBJECTSTRUCT@@@Z ; cOffTrade::UserOnlineOffSell
; Function compile flags: /Odtp /ZI
_TEXT	SEGMENT
_this$ = -4						; size = 4
_lpObj$ = 8						; size = 4
?UserOnlineOffSell@cOffTrade@@QAEXPAUOBJECTSTRUCT@@@Z PROC ; cOffTrade::UserOnlineOffSell
; _this$ = ecx

; 519  : {

  013e0	55		 push	 ebp
  013e1	8b ec		 mov	 ebp, esp
  013e3	83 ec 44	 sub	 esp, 68			; 00000044H
  013e6	53		 push	 ebx
  013e7	56		 push	 esi
  013e8	57		 push	 edi
  013e9	89 4d fc	 mov	 DWORD PTR _this$[ebp], ecx

; 520  : 	if(!this->Enable || this->OnlineOffSell) return;

  013ec	8b 45 fc	 mov	 eax, DWORD PTR _this$[ebp]
  013ef	0f b6 08	 movzx	 ecx, BYTE PTR [eax]
  013f2	85 c9		 test	 ecx, ecx
  013f4	74 0b		 je	 SHORT $LN1@UserOnline
  013f6	8b 45 fc	 mov	 eax, DWORD PTR _this$[ebp]
  013f9	0f b6 48 0a	 movzx	 ecx, BYTE PTR [eax+10]
  013fd	85 c9		 test	 ecx, ecx
  013ff	74 02		 je	 SHORT $LN2@UserOnline
$LN1@UserOnline:
  01401	eb 3e		 jmp	 SHORT $LN3@UserOnline
$LN2@UserOnline:

; 521  : 
; 522  : 	g_ExGDManager.GD_OfflineAfk(lpObj->m_Index, 0, 0);

  01403	6a 00		 push	 0
  01405	6a 00		 push	 0
  01407	8b 45 08	 mov	 eax, DWORD PTR _lpObj$[ebp]
  0140a	8b 08		 mov	 ecx, DWORD PTR [eax]
  0140c	51		 push	 ecx
  0140d	b9 00 00 00 00	 mov	 ecx, OFFSET ?g_ExGDManager@@3VCExGDManager@@A ; g_ExGDManager
  01412	e8 00 00 00 00	 call	 ?GD_OfflineAfk@CExGDManager@@QAEXHEE@Z ; CExGDManager::GD_OfflineAfk

; 523  : 
; 524  : 	GJPUserClose(lpObj->AccountID);

  01417	8b 45 08	 mov	 eax, DWORD PTR _lpObj$[ebp]
  0141a	83 c0 6c	 add	 eax, 108		; 0000006cH
  0141d	50		 push	 eax
  0141e	e8 00 00 00 00	 call	 ?GJPUserClose@@YAXPAD@Z	; GJPUserClose
  01423	83 c4 04	 add	 esp, 4

; 525  : 	gObjDel(lpObj->m_Index);

  01426	8b 45 08	 mov	 eax, DWORD PTR _lpObj$[ebp]
  01429	8b 08		 mov	 ecx, DWORD PTR [eax]
  0142b	51		 push	 ecx
  0142c	e8 00 00 00 00	 call	 ?gObjDel@@YAFH@Z	; gObjDel
  01431	83 c4 04	 add	 esp, 4

; 526  : 	lpObj->OffTrade = 0;

  01434	8b 45 08	 mov	 eax, DWORD PTR _lpObj$[ebp]
  01437	c7 80 ac 22 00
	00 00 00 00 00	 mov	 DWORD PTR [eax+8876], 0
$LN3@UserOnline:

; 527  : }

  01441	5f		 pop	 edi
  01442	5e		 pop	 esi
  01443	5b		 pop	 ebx
  01444	8b e5		 mov	 esp, ebp
  01446	5d		 pop	 ebp
  01447	c2 04 00	 ret	 4
?UserOnlineOffSell@cOffTrade@@QAEXPAUOBJECTSTRUCT@@@Z ENDP ; cOffTrade::UserOnlineOffSell
_TEXT	ENDS
EXTRN	_vsprintf_s:PROC
; Function compile flags: /Odtp /ZI
; File d:\microsoft visual studio 10.0\vc\include\stdio.h
;	COMDAT ??$sprintf_s@$0BAA@@@YAHAAY0BAA@DPBDZZ
_TEXT	SEGMENT
__ArgList$ = -4						; size = 4
__Dest$ = 8						; size = 4
__Format$ = 12						; size = 4
??$sprintf_s@$0BAA@@@YAHAAY0BAA@DPBDZZ PROC		; sprintf_s<256>, COMDAT

; 323  : __DEFINE_CPP_OVERLOAD_SECURE_FUNC_0_1_ARGLIST(int, sprintf_s, vsprintf_s, _Deref_post_z_ char, _Dest, _In_z_ _Printf_format_string_ const char *, _Format)

  00000	55		 push	 ebp
  00001	8b ec		 mov	 ebp, esp
  00003	83 ec 44	 sub	 esp, 68			; 00000044H
  00006	53		 push	 ebx
  00007	56		 push	 esi
  00008	57		 push	 edi
  00009	8d 45 10	 lea	 eax, DWORD PTR __Format$[ebp+4]
  0000c	89 45 fc	 mov	 DWORD PTR __ArgList$[ebp], eax
  0000f	8b 45 fc	 mov	 eax, DWORD PTR __ArgList$[ebp]
  00012	50		 push	 eax
  00013	8b 4d 0c	 mov	 ecx, DWORD PTR __Format$[ebp]
  00016	51		 push	 ecx
  00017	68 00 01 00 00	 push	 256			; 00000100H
  0001c	8b 55 08	 mov	 edx, DWORD PTR __Dest$[ebp]
  0001f	52		 push	 edx
  00020	e8 00 00 00 00	 call	 _vsprintf_s
  00025	83 c4 10	 add	 esp, 16			; 00000010H
  00028	5f		 pop	 edi
  00029	5e		 pop	 esi
  0002a	5b		 pop	 ebx
  0002b	8b e5		 mov	 esp, ebp
  0002d	5d		 pop	 ebp
  0002e	c3		 ret	 0
??$sprintf_s@$0BAA@@@YAHAAY0BAA@DPBDZZ ENDP		; sprintf_s<256>
_TEXT	ENDS
END
