; Listing generated by Microsoft (R) Optimizing Compiler Version 16.00.40219.01 

	TITLE	D:\Projects\ExTeam6.3\Source\GameServer\GameServer\OnlineBonus.cpp
	.686P
	.XMM
	include listing.inc
	.model	flat

INCLUDELIB LIBCMT
INCLUDELIB OLDNAMES

PUBLIC	?gOnlineBonus@@3VOnlineBonus@@A			; gOnlineBonus
_BSS	SEGMENT
?gOnlineBonus@@3VOnlineBonus@@A DB 034H DUP (?)		; gOnlineBonus
_BSS	ENDS
PUBLIC	??_H@YGXPAXIHP6EPAX0@Z@Z			; `vector constructor iterator'
; Function compile flags: /Odtp /ZI
;	COMDAT ??_H@YGXPAXIHP6EPAX0@Z@Z
_TEXT	SEGMENT
___t$ = 8						; size = 4
___s$ = 12						; size = 4
___n$ = 16						; size = 4
___f$ = 20						; size = 4
??_H@YGXPAXIHP6EPAX0@Z@Z PROC				; `vector constructor iterator', COMDAT
  00000	55		 push	 ebp
  00001	8b ec		 mov	 ebp, esp
  00003	83 ec 40	 sub	 esp, 64			; 00000040H
  00006	53		 push	 ebx
  00007	56		 push	 esi
  00008	57		 push	 edi
$LN2@vector:
  00009	8b 45 10	 mov	 eax, DWORD PTR ___n$[ebp]
  0000c	83 e8 01	 sub	 eax, 1
  0000f	89 45 10	 mov	 DWORD PTR ___n$[ebp], eax
  00012	78 11		 js	 SHORT $LN3@vector
  00014	8b 4d 08	 mov	 ecx, DWORD PTR ___t$[ebp]
  00017	ff 55 14	 call	 DWORD PTR ___f$[ebp]
  0001a	8b 45 08	 mov	 eax, DWORD PTR ___t$[ebp]
  0001d	03 45 0c	 add	 eax, DWORD PTR ___s$[ebp]
  00020	89 45 08	 mov	 DWORD PTR ___t$[ebp], eax
  00023	eb e4		 jmp	 SHORT $LN2@vector
$LN3@vector:
  00025	5f		 pop	 edi
  00026	5e		 pop	 esi
  00027	5b		 pop	 ebx
  00028	8b e5		 mov	 esp, ebp
  0002a	5d		 pop	 ebp
  0002b	c2 10 00	 ret	 16			; 00000010H
??_H@YGXPAXIHP6EPAX0@Z@Z ENDP				; `vector constructor iterator'
_TEXT	ENDS
PUBLIC	??_C@_0M@PAACJAFK@ExCredBonus?$AA@		; `string'
PUBLIC	??_C@_0L@EGEAKPOA@ExCredTime?$AA@		; `string'
PUBLIC	??_C@_0N@ODLKFKJB@ExCredActive?$AA@		; `string'
PUBLIC	??_C@_0M@KMLGGEIB@GoblinBonus?$AA@		; `string'
PUBLIC	??_C@_0L@EBNOHAFL@GoblinTime?$AA@		; `string'
PUBLIC	??_C@_0N@PCOHOFDJ@GoblinActive?$AA@		; `string'
PUBLIC	??_C@_0M@GBNIINIE@WCoinPBonus?$AA@		; `string'
PUBLIC	??_C@_0L@PIDBOGKO@WCoinPTime?$AA@		; `string'
PUBLIC	??_C@_0N@ICEAHPFP@WCoinPActive?$AA@		; `string'
PUBLIC	??_C@_0M@DHOOALNH@WCoinCBonus?$AA@		; `string'
PUBLIC	??_C@_0L@HNHDJGJL@WCoinCTime?$AA@		; `string'
PUBLIC	??_C@_0N@HAHEEJJH@WCoinCActive?$AA@		; `string'
PUBLIC	??_C@_06MLPMCPDE@ExTeam?$AA@			; `string'
PUBLIC	??_C@_06CKGENIKG@Enable?$AA@			; `string'
PUBLIC	??_C@_0BP@MCKGBGNE@?4?4?2Data?2ExData?2OnlineBonus?4ini?$AA@ ; `string'
PUBLIC	?Load@OnlineBonus@@QAEXXZ			; OnlineBonus::Load
EXTRN	__imp__GetPrivateProfileIntA@16:PROC
;	COMDAT ??_C@_0M@PAACJAFK@ExCredBonus?$AA@
; File d:\projects\exteam6.3\source\gameserver\gameserver\onlinebonus.cpp
CONST	SEGMENT
??_C@_0M@PAACJAFK@ExCredBonus?$AA@ DB 'ExCredBonus', 00H ; `string'
CONST	ENDS
;	COMDAT ??_C@_0L@EGEAKPOA@ExCredTime?$AA@
CONST	SEGMENT
??_C@_0L@EGEAKPOA@ExCredTime?$AA@ DB 'ExCredTime', 00H	; `string'
CONST	ENDS
;	COMDAT ??_C@_0N@ODLKFKJB@ExCredActive?$AA@
CONST	SEGMENT
??_C@_0N@ODLKFKJB@ExCredActive?$AA@ DB 'ExCredActive', 00H ; `string'
CONST	ENDS
;	COMDAT ??_C@_0M@KMLGGEIB@GoblinBonus?$AA@
CONST	SEGMENT
??_C@_0M@KMLGGEIB@GoblinBonus?$AA@ DB 'GoblinBonus', 00H ; `string'
CONST	ENDS
;	COMDAT ??_C@_0L@EBNOHAFL@GoblinTime?$AA@
CONST	SEGMENT
??_C@_0L@EBNOHAFL@GoblinTime?$AA@ DB 'GoblinTime', 00H	; `string'
CONST	ENDS
;	COMDAT ??_C@_0N@PCOHOFDJ@GoblinActive?$AA@
CONST	SEGMENT
??_C@_0N@PCOHOFDJ@GoblinActive?$AA@ DB 'GoblinActive', 00H ; `string'
CONST	ENDS
;	COMDAT ??_C@_0M@GBNIINIE@WCoinPBonus?$AA@
CONST	SEGMENT
??_C@_0M@GBNIINIE@WCoinPBonus?$AA@ DB 'WCoinPBonus', 00H ; `string'
CONST	ENDS
;	COMDAT ??_C@_0L@PIDBOGKO@WCoinPTime?$AA@
CONST	SEGMENT
??_C@_0L@PIDBOGKO@WCoinPTime?$AA@ DB 'WCoinPTime', 00H	; `string'
CONST	ENDS
;	COMDAT ??_C@_0N@ICEAHPFP@WCoinPActive?$AA@
CONST	SEGMENT
??_C@_0N@ICEAHPFP@WCoinPActive?$AA@ DB 'WCoinPActive', 00H ; `string'
CONST	ENDS
;	COMDAT ??_C@_0M@DHOOALNH@WCoinCBonus?$AA@
CONST	SEGMENT
??_C@_0M@DHOOALNH@WCoinCBonus?$AA@ DB 'WCoinCBonus', 00H ; `string'
CONST	ENDS
;	COMDAT ??_C@_0L@HNHDJGJL@WCoinCTime?$AA@
CONST	SEGMENT
??_C@_0L@HNHDJGJL@WCoinCTime?$AA@ DB 'WCoinCTime', 00H	; `string'
CONST	ENDS
;	COMDAT ??_C@_0N@HAHEEJJH@WCoinCActive?$AA@
CONST	SEGMENT
??_C@_0N@HAHEEJJH@WCoinCActive?$AA@ DB 'WCoinCActive', 00H ; `string'
CONST	ENDS
;	COMDAT ??_C@_06MLPMCPDE@ExTeam?$AA@
CONST	SEGMENT
??_C@_06MLPMCPDE@ExTeam?$AA@ DB 'ExTeam', 00H		; `string'
CONST	ENDS
;	COMDAT ??_C@_06CKGENIKG@Enable?$AA@
CONST	SEGMENT
??_C@_06CKGENIKG@Enable?$AA@ DB 'Enable', 00H		; `string'
CONST	ENDS
;	COMDAT ??_C@_0BP@MCKGBGNE@?4?4?2Data?2ExData?2OnlineBonus?4ini?$AA@
CONST	SEGMENT
??_C@_0BP@MCKGBGNE@?4?4?2Data?2ExData?2OnlineBonus?4ini?$AA@ DB '..\Data\'
	DB	'ExData\OnlineBonus.ini', 00H		; `string'
; Function compile flags: /Odtp /ZI
CONST	ENDS
_TEXT	SEGMENT
_this$ = -4						; size = 4
?Load@OnlineBonus@@QAEXXZ PROC				; OnlineBonus::Load
; _this$ = ecx

; 13   : {

  00000	55		 push	 ebp
  00001	8b ec		 mov	 ebp, esp
  00003	83 ec 44	 sub	 esp, 68			; 00000044H
  00006	53		 push	 ebx
  00007	56		 push	 esi
  00008	57		 push	 edi
  00009	89 4d fc	 mov	 DWORD PTR _this$[ebp], ecx

; 14   : 	//CheckFile(ONLINEBONUS_DIR);
; 15   : 
; 16   : 	this->Enable = GetPrivateProfileInt("ExTeam","Enable",0,ONLINEBONUS_DIR); 

  0000c	68 00 00 00 00	 push	 OFFSET ??_C@_0BP@MCKGBGNE@?4?4?2Data?2ExData?2OnlineBonus?4ini?$AA@
  00011	6a 00		 push	 0
  00013	68 00 00 00 00	 push	 OFFSET ??_C@_06CKGENIKG@Enable?$AA@
  00018	68 00 00 00 00	 push	 OFFSET ??_C@_06MLPMCPDE@ExTeam?$AA@
  0001d	ff 15 00 00 00
	00		 call	 DWORD PTR __imp__GetPrivateProfileIntA@16
  00023	8b 4d fc	 mov	 ecx, DWORD PTR _this$[ebp]
  00026	89 01		 mov	 DWORD PTR [ecx], eax

; 17   : 
; 18   : 	this->WCoinCActive = GetPrivateProfileInt("ExTeam","WCoinCActive",0,ONLINEBONUS_DIR);

  00028	68 00 00 00 00	 push	 OFFSET ??_C@_0BP@MCKGBGNE@?4?4?2Data?2ExData?2OnlineBonus?4ini?$AA@
  0002d	6a 00		 push	 0
  0002f	68 00 00 00 00	 push	 OFFSET ??_C@_0N@HAHEEJJH@WCoinCActive?$AA@
  00034	68 00 00 00 00	 push	 OFFSET ??_C@_06MLPMCPDE@ExTeam?$AA@
  00039	ff 15 00 00 00
	00		 call	 DWORD PTR __imp__GetPrivateProfileIntA@16
  0003f	8b 4d fc	 mov	 ecx, DWORD PTR _this$[ebp]
  00042	89 41 04	 mov	 DWORD PTR [ecx+4], eax

; 19   : 	this->WCoinCTime = GetPrivateProfileInt("ExTeam","WCoinCTime",0,ONLINEBONUS_DIR) * 60;

  00045	68 00 00 00 00	 push	 OFFSET ??_C@_0BP@MCKGBGNE@?4?4?2Data?2ExData?2OnlineBonus?4ini?$AA@
  0004a	6a 00		 push	 0
  0004c	68 00 00 00 00	 push	 OFFSET ??_C@_0L@HNHDJGJL@WCoinCTime?$AA@
  00051	68 00 00 00 00	 push	 OFFSET ??_C@_06MLPMCPDE@ExTeam?$AA@
  00056	ff 15 00 00 00
	00		 call	 DWORD PTR __imp__GetPrivateProfileIntA@16
  0005c	6b c0 3c	 imul	 eax, 60			; 0000003cH
  0005f	8b 4d fc	 mov	 ecx, DWORD PTR _this$[ebp]
  00062	89 41 08	 mov	 DWORD PTR [ecx+8], eax

; 20   : 	this->WCoinCBonus = GetPrivateProfileInt("ExTeam","WCoinCBonus",0,ONLINEBONUS_DIR);

  00065	68 00 00 00 00	 push	 OFFSET ??_C@_0BP@MCKGBGNE@?4?4?2Data?2ExData?2OnlineBonus?4ini?$AA@
  0006a	6a 00		 push	 0
  0006c	68 00 00 00 00	 push	 OFFSET ??_C@_0M@DHOOALNH@WCoinCBonus?$AA@
  00071	68 00 00 00 00	 push	 OFFSET ??_C@_06MLPMCPDE@ExTeam?$AA@
  00076	ff 15 00 00 00
	00		 call	 DWORD PTR __imp__GetPrivateProfileIntA@16
  0007c	8b 4d fc	 mov	 ecx, DWORD PTR _this$[ebp]
  0007f	89 41 0c	 mov	 DWORD PTR [ecx+12], eax

; 21   : 
; 22   : 	this->WCoinPActive = GetPrivateProfileInt("ExTeam","WCoinPActive",0,ONLINEBONUS_DIR);

  00082	68 00 00 00 00	 push	 OFFSET ??_C@_0BP@MCKGBGNE@?4?4?2Data?2ExData?2OnlineBonus?4ini?$AA@
  00087	6a 00		 push	 0
  00089	68 00 00 00 00	 push	 OFFSET ??_C@_0N@ICEAHPFP@WCoinPActive?$AA@
  0008e	68 00 00 00 00	 push	 OFFSET ??_C@_06MLPMCPDE@ExTeam?$AA@
  00093	ff 15 00 00 00
	00		 call	 DWORD PTR __imp__GetPrivateProfileIntA@16
  00099	8b 4d fc	 mov	 ecx, DWORD PTR _this$[ebp]
  0009c	89 41 10	 mov	 DWORD PTR [ecx+16], eax

; 23   : 	this->WCoinPTime = GetPrivateProfileInt("ExTeam","WCoinPTime",0,ONLINEBONUS_DIR) * 60;

  0009f	68 00 00 00 00	 push	 OFFSET ??_C@_0BP@MCKGBGNE@?4?4?2Data?2ExData?2OnlineBonus?4ini?$AA@
  000a4	6a 00		 push	 0
  000a6	68 00 00 00 00	 push	 OFFSET ??_C@_0L@PIDBOGKO@WCoinPTime?$AA@
  000ab	68 00 00 00 00	 push	 OFFSET ??_C@_06MLPMCPDE@ExTeam?$AA@
  000b0	ff 15 00 00 00
	00		 call	 DWORD PTR __imp__GetPrivateProfileIntA@16
  000b6	6b c0 3c	 imul	 eax, 60			; 0000003cH
  000b9	8b 4d fc	 mov	 ecx, DWORD PTR _this$[ebp]
  000bc	89 41 14	 mov	 DWORD PTR [ecx+20], eax

; 24   : 	this->WCoinPBonus = GetPrivateProfileInt("ExTeam","WCoinPBonus",0,ONLINEBONUS_DIR);

  000bf	68 00 00 00 00	 push	 OFFSET ??_C@_0BP@MCKGBGNE@?4?4?2Data?2ExData?2OnlineBonus?4ini?$AA@
  000c4	6a 00		 push	 0
  000c6	68 00 00 00 00	 push	 OFFSET ??_C@_0M@GBNIINIE@WCoinPBonus?$AA@
  000cb	68 00 00 00 00	 push	 OFFSET ??_C@_06MLPMCPDE@ExTeam?$AA@
  000d0	ff 15 00 00 00
	00		 call	 DWORD PTR __imp__GetPrivateProfileIntA@16
  000d6	8b 4d fc	 mov	 ecx, DWORD PTR _this$[ebp]
  000d9	89 41 18	 mov	 DWORD PTR [ecx+24], eax

; 25   : 
; 26   : 	this->GoblinActive = GetPrivateProfileInt("ExTeam","GoblinActive",0,ONLINEBONUS_DIR);

  000dc	68 00 00 00 00	 push	 OFFSET ??_C@_0BP@MCKGBGNE@?4?4?2Data?2ExData?2OnlineBonus?4ini?$AA@
  000e1	6a 00		 push	 0
  000e3	68 00 00 00 00	 push	 OFFSET ??_C@_0N@PCOHOFDJ@GoblinActive?$AA@
  000e8	68 00 00 00 00	 push	 OFFSET ??_C@_06MLPMCPDE@ExTeam?$AA@
  000ed	ff 15 00 00 00
	00		 call	 DWORD PTR __imp__GetPrivateProfileIntA@16
  000f3	8b 4d fc	 mov	 ecx, DWORD PTR _this$[ebp]
  000f6	89 41 1c	 mov	 DWORD PTR [ecx+28], eax

; 27   : 	this->GoblinTime = GetPrivateProfileInt("ExTeam","GoblinTime",0,ONLINEBONUS_DIR) * 60;

  000f9	68 00 00 00 00	 push	 OFFSET ??_C@_0BP@MCKGBGNE@?4?4?2Data?2ExData?2OnlineBonus?4ini?$AA@
  000fe	6a 00		 push	 0
  00100	68 00 00 00 00	 push	 OFFSET ??_C@_0L@EBNOHAFL@GoblinTime?$AA@
  00105	68 00 00 00 00	 push	 OFFSET ??_C@_06MLPMCPDE@ExTeam?$AA@
  0010a	ff 15 00 00 00
	00		 call	 DWORD PTR __imp__GetPrivateProfileIntA@16
  00110	6b c0 3c	 imul	 eax, 60			; 0000003cH
  00113	8b 4d fc	 mov	 ecx, DWORD PTR _this$[ebp]
  00116	89 41 20	 mov	 DWORD PTR [ecx+32], eax

; 28   : 	this->GoblinBonus = GetPrivateProfileInt("ExTeam","GoblinBonus",0,ONLINEBONUS_DIR);

  00119	68 00 00 00 00	 push	 OFFSET ??_C@_0BP@MCKGBGNE@?4?4?2Data?2ExData?2OnlineBonus?4ini?$AA@
  0011e	6a 00		 push	 0
  00120	68 00 00 00 00	 push	 OFFSET ??_C@_0M@KMLGGEIB@GoblinBonus?$AA@
  00125	68 00 00 00 00	 push	 OFFSET ??_C@_06MLPMCPDE@ExTeam?$AA@
  0012a	ff 15 00 00 00
	00		 call	 DWORD PTR __imp__GetPrivateProfileIntA@16
  00130	8b 4d fc	 mov	 ecx, DWORD PTR _this$[ebp]
  00133	89 41 24	 mov	 DWORD PTR [ecx+36], eax

; 29   : 
; 30   : 	this->ExCredActive = GetPrivateProfileInt("ExTeam","ExCredActive",0,ONLINEBONUS_DIR);

  00136	68 00 00 00 00	 push	 OFFSET ??_C@_0BP@MCKGBGNE@?4?4?2Data?2ExData?2OnlineBonus?4ini?$AA@
  0013b	6a 00		 push	 0
  0013d	68 00 00 00 00	 push	 OFFSET ??_C@_0N@ODLKFKJB@ExCredActive?$AA@
  00142	68 00 00 00 00	 push	 OFFSET ??_C@_06MLPMCPDE@ExTeam?$AA@
  00147	ff 15 00 00 00
	00		 call	 DWORD PTR __imp__GetPrivateProfileIntA@16
  0014d	8b 4d fc	 mov	 ecx, DWORD PTR _this$[ebp]
  00150	89 41 28	 mov	 DWORD PTR [ecx+40], eax

; 31   : 	this->ExCredTime = GetPrivateProfileInt("ExTeam","ExCredTime",0,ONLINEBONUS_DIR) * 60;

  00153	68 00 00 00 00	 push	 OFFSET ??_C@_0BP@MCKGBGNE@?4?4?2Data?2ExData?2OnlineBonus?4ini?$AA@
  00158	6a 00		 push	 0
  0015a	68 00 00 00 00	 push	 OFFSET ??_C@_0L@EGEAKPOA@ExCredTime?$AA@
  0015f	68 00 00 00 00	 push	 OFFSET ??_C@_06MLPMCPDE@ExTeam?$AA@
  00164	ff 15 00 00 00
	00		 call	 DWORD PTR __imp__GetPrivateProfileIntA@16
  0016a	6b c0 3c	 imul	 eax, 60			; 0000003cH
  0016d	8b 4d fc	 mov	 ecx, DWORD PTR _this$[ebp]
  00170	89 41 2c	 mov	 DWORD PTR [ecx+44], eax

; 32   : 	this->ExCredBonus = GetPrivateProfileInt("ExTeam","ExCredBonus",0,ONLINEBONUS_DIR);

  00173	68 00 00 00 00	 push	 OFFSET ??_C@_0BP@MCKGBGNE@?4?4?2Data?2ExData?2OnlineBonus?4ini?$AA@
  00178	6a 00		 push	 0
  0017a	68 00 00 00 00	 push	 OFFSET ??_C@_0M@PAACJAFK@ExCredBonus?$AA@
  0017f	68 00 00 00 00	 push	 OFFSET ??_C@_06MLPMCPDE@ExTeam?$AA@
  00184	ff 15 00 00 00
	00		 call	 DWORD PTR __imp__GetPrivateProfileIntA@16
  0018a	8b 4d fc	 mov	 ecx, DWORD PTR _this$[ebp]
  0018d	89 41 30	 mov	 DWORD PTR [ecx+48], eax

; 33   : }

  00190	5f		 pop	 edi
  00191	5e		 pop	 esi
  00192	5b		 pop	 ebx
  00193	8b e5		 mov	 esp, ebp
  00195	5d		 pop	 ebp
  00196	c3		 ret	 0
?Load@OnlineBonus@@QAEXXZ ENDP				; OnlineBonus::Load
_TEXT	ENDS
PUBLIC	?TickTime@OnlineBonus@@QAEXH@Z			; OnlineBonus::TickTime
EXTRN	?ExUserDataSend@@YAXH@Z:PROC			; ExUserDataSend
EXTRN	?MessageChat@@YAXHPADZZ:PROC			; MessageChat
EXTRN	?GetText@CExText@@QAEPADH@Z:PROC		; CExText::GetText
EXTRN	?g_ExText@@3VCExText@@A:BYTE			; g_ExText
EXTRN	?GDSaveUserInfo@GameShop@@QAEXH@Z:PROC		; GameShop::GDSaveUserInfo
EXTRN	?gGameShop@@3VGameShop@@A:BYTE			; gGameShop
EXTRN	?gObj@@3PAUOBJECTSTRUCT@@A:DWORD		; gObj
EXTRN	__fltused:DWORD
; Function compile flags: /Odtp /ZI
_TEXT	SEGMENT
_lpObj$ = -8						; size = 4
_this$ = -4						; size = 4
_aIndex$ = 8						; size = 4
?TickTime@OnlineBonus@@QAEXH@Z PROC			; OnlineBonus::TickTime
; _this$ = ecx

; 36   : {

  001a0	55		 push	 ebp
  001a1	8b ec		 mov	 ebp, esp
  001a3	83 ec 48	 sub	 esp, 72			; 00000048H
  001a6	53		 push	 ebx
  001a7	56		 push	 esi
  001a8	57		 push	 edi
  001a9	89 4d fc	 mov	 DWORD PTR _this$[ebp], ecx

; 37   : 	if(!this->Enable) return;

  001ac	8b 45 fc	 mov	 eax, DWORD PTR _this$[ebp]
  001af	83 38 00	 cmp	 DWORD PTR [eax], 0
  001b2	75 05		 jne	 SHORT $LN12@TickTime
  001b4	e9 48 02 00 00	 jmp	 $LN13@TickTime
$LN12@TickTime:

; 38   : 
; 39   : 	LPOBJ lpObj = &gObj[aIndex];

  001b9	8b 45 08	 mov	 eax, DWORD PTR _aIndex$[ebp]
  001bc	69 c0 38 2b 00
	00		 imul	 eax, 11064		; 00002b38H
  001c2	03 05 00 00 00
	00		 add	 eax, DWORD PTR ?gObj@@3PAUOBJECTSTRUCT@@A ; gObj
  001c8	89 45 f8	 mov	 DWORD PTR _lpObj$[ebp], eax

; 40   : 
; 41   : 	if(lpObj->OffExp > 0 || lpObj->OffTrade > 0)

  001cb	8b 45 f8	 mov	 eax, DWORD PTR _lpObj$[ebp]
  001ce	83 b8 98 22 00
	00 00		 cmp	 DWORD PTR [eax+8856], 0
  001d5	7f 0c		 jg	 SHORT $LN10@TickTime
  001d7	8b 45 f8	 mov	 eax, DWORD PTR _lpObj$[ebp]
  001da	83 b8 ac 22 00
	00 00		 cmp	 DWORD PTR [eax+8876], 0
  001e1	7e 05		 jle	 SHORT $LN11@TickTime
$LN10@TickTime:

; 42   : 	{
; 43   : 		return;

  001e3	e9 19 02 00 00	 jmp	 $LN13@TickTime
$LN11@TickTime:

; 44   : 	}
; 45   : 
; 46   : 	if(lpObj->m_OfflineMode)

  001e8	8b 45 f8	 mov	 eax, DWORD PTR _lpObj$[ebp]
  001eb	0f b6 88 d4 28
	00 00		 movzx	 ecx, BYTE PTR [eax+10452]
  001f2	85 c9		 test	 ecx, ecx
  001f4	74 05		 je	 SHORT $LN9@TickTime

; 47   : 	{
; 48   : 		return;

  001f6	e9 06 02 00 00	 jmp	 $LN13@TickTime
$LN9@TickTime:

; 49   : 	}
; 50   : 
; 51   : 	if(this->WCoinCActive)

  001fb	8b 45 fc	 mov	 eax, DWORD PTR _this$[ebp]
  001fe	83 78 04 00	 cmp	 DWORD PTR [eax+4], 0
  00202	74 79		 je	 SHORT $LN7@TickTime

; 52   : 	{
; 53   : 		lpObj->WCoinCTick++;

  00204	8b 45 f8	 mov	 eax, DWORD PTR _lpObj$[ebp]
  00207	8b 88 d0 27 00
	00		 mov	 ecx, DWORD PTR [eax+10192]
  0020d	83 c1 01	 add	 ecx, 1
  00210	8b 55 f8	 mov	 edx, DWORD PTR _lpObj$[ebp]
  00213	89 8a d0 27 00
	00		 mov	 DWORD PTR [edx+10192], ecx

; 54   : 		if(lpObj->WCoinCTick >= this->WCoinCTime)

  00219	8b 45 f8	 mov	 eax, DWORD PTR _lpObj$[ebp]
  0021c	8b 4d fc	 mov	 ecx, DWORD PTR _this$[ebp]
  0021f	8b 90 d0 27 00
	00		 mov	 edx, DWORD PTR [eax+10192]
  00225	3b 51 08	 cmp	 edx, DWORD PTR [ecx+8]
  00228	7c 53		 jl	 SHORT $LN7@TickTime

; 55   : 		{
; 56   : 			lpObj->WCoinCTick = 0;

  0022a	8b 45 f8	 mov	 eax, DWORD PTR _lpObj$[ebp]
  0022d	c7 80 d0 27 00
	00 00 00 00 00	 mov	 DWORD PTR [eax+10192], 0

; 57   : 			lpObj->GameShop.WCoinC += this->WCoinCBonus;

  00237	8b 45 fc	 mov	 eax, DWORD PTR _this$[ebp]
  0023a	db 40 0c	 fild	 DWORD PTR [eax+12]
  0023d	8b 4d f8	 mov	 ecx, DWORD PTR _lpObj$[ebp]
  00240	dc 81 00 23 00
	00		 fadd	 QWORD PTR [ecx+8960]
  00246	8b 55 f8	 mov	 edx, DWORD PTR _lpObj$[ebp]
  00249	dd 9a 00 23 00
	00		 fstp	 QWORD PTR [edx+8960]

; 58   : 			gGameShop.GDSaveUserInfo(aIndex);

  0024f	8b 45 08	 mov	 eax, DWORD PTR _aIndex$[ebp]
  00252	50		 push	 eax
  00253	b9 00 00 00 00	 mov	 ecx, OFFSET ?gGameShop@@3VGameShop@@A ; gGameShop
  00258	e8 00 00 00 00	 call	 ?GDSaveUserInfo@GameShop@@QAEXH@Z ; GameShop::GDSaveUserInfo

; 59   : 			MessageChat(aIndex, g_ExText.GetText(88), this->WCoinCBonus);

  0025d	8b 45 fc	 mov	 eax, DWORD PTR _this$[ebp]
  00260	8b 48 0c	 mov	 ecx, DWORD PTR [eax+12]
  00263	51		 push	 ecx
  00264	6a 58		 push	 88			; 00000058H
  00266	b9 00 00 00 00	 mov	 ecx, OFFSET ?g_ExText@@3VCExText@@A ; g_ExText
  0026b	e8 00 00 00 00	 call	 ?GetText@CExText@@QAEPADH@Z ; CExText::GetText
  00270	50		 push	 eax
  00271	8b 55 08	 mov	 edx, DWORD PTR _aIndex$[ebp]
  00274	52		 push	 edx
  00275	e8 00 00 00 00	 call	 ?MessageChat@@YAXHPADZZ	; MessageChat
  0027a	83 c4 0c	 add	 esp, 12			; 0000000cH
$LN7@TickTime:

; 60   : 		}
; 61   : 	}
; 62   : 
; 63   : 	if(this->WCoinPActive)

  0027d	8b 45 fc	 mov	 eax, DWORD PTR _this$[ebp]
  00280	83 78 10 00	 cmp	 DWORD PTR [eax+16], 0
  00284	74 79		 je	 SHORT $LN5@TickTime

; 64   : 	{
; 65   : 		lpObj->WCoinPTick++;

  00286	8b 45 f8	 mov	 eax, DWORD PTR _lpObj$[ebp]
  00289	8b 88 d4 27 00
	00		 mov	 ecx, DWORD PTR [eax+10196]
  0028f	83 c1 01	 add	 ecx, 1
  00292	8b 55 f8	 mov	 edx, DWORD PTR _lpObj$[ebp]
  00295	89 8a d4 27 00
	00		 mov	 DWORD PTR [edx+10196], ecx

; 66   : 		if(lpObj->WCoinPTick >= this->WCoinPTime)

  0029b	8b 45 f8	 mov	 eax, DWORD PTR _lpObj$[ebp]
  0029e	8b 4d fc	 mov	 ecx, DWORD PTR _this$[ebp]
  002a1	8b 90 d4 27 00
	00		 mov	 edx, DWORD PTR [eax+10196]
  002a7	3b 51 14	 cmp	 edx, DWORD PTR [ecx+20]
  002aa	7c 53		 jl	 SHORT $LN5@TickTime

; 67   : 		{
; 68   : 			lpObj->WCoinPTick = 0;

  002ac	8b 45 f8	 mov	 eax, DWORD PTR _lpObj$[ebp]
  002af	c7 80 d4 27 00
	00 00 00 00 00	 mov	 DWORD PTR [eax+10196], 0

; 69   : 			lpObj->GameShop.WCoinP += this->WCoinPBonus;

  002b9	8b 45 fc	 mov	 eax, DWORD PTR _this$[ebp]
  002bc	db 40 18	 fild	 DWORD PTR [eax+24]
  002bf	8b 4d f8	 mov	 ecx, DWORD PTR _lpObj$[ebp]
  002c2	dc 81 f8 22 00
	00		 fadd	 QWORD PTR [ecx+8952]
  002c8	8b 55 f8	 mov	 edx, DWORD PTR _lpObj$[ebp]
  002cb	dd 9a f8 22 00
	00		 fstp	 QWORD PTR [edx+8952]

; 70   : 			gGameShop.GDSaveUserInfo(aIndex);

  002d1	8b 45 08	 mov	 eax, DWORD PTR _aIndex$[ebp]
  002d4	50		 push	 eax
  002d5	b9 00 00 00 00	 mov	 ecx, OFFSET ?gGameShop@@3VGameShop@@A ; gGameShop
  002da	e8 00 00 00 00	 call	 ?GDSaveUserInfo@GameShop@@QAEXH@Z ; GameShop::GDSaveUserInfo

; 71   : 			MessageChat(aIndex, g_ExText.GetText(89), this->WCoinPBonus);

  002df	8b 45 fc	 mov	 eax, DWORD PTR _this$[ebp]
  002e2	8b 48 18	 mov	 ecx, DWORD PTR [eax+24]
  002e5	51		 push	 ecx
  002e6	6a 59		 push	 89			; 00000059H
  002e8	b9 00 00 00 00	 mov	 ecx, OFFSET ?g_ExText@@3VCExText@@A ; g_ExText
  002ed	e8 00 00 00 00	 call	 ?GetText@CExText@@QAEPADH@Z ; CExText::GetText
  002f2	50		 push	 eax
  002f3	8b 55 08	 mov	 edx, DWORD PTR _aIndex$[ebp]
  002f6	52		 push	 edx
  002f7	e8 00 00 00 00	 call	 ?MessageChat@@YAXHPADZZ	; MessageChat
  002fc	83 c4 0c	 add	 esp, 12			; 0000000cH
$LN5@TickTime:

; 72   : 		}
; 73   : 	}
; 74   : 
; 75   : 	if(this->GoblinActive)

  002ff	8b 45 fc	 mov	 eax, DWORD PTR _this$[ebp]
  00302	83 78 1c 00	 cmp	 DWORD PTR [eax+28], 0
  00306	74 79		 je	 SHORT $LN3@TickTime

; 76   : 	{
; 77   : 		lpObj->GoblinTick++;

  00308	8b 45 f8	 mov	 eax, DWORD PTR _lpObj$[ebp]
  0030b	8b 88 d8 27 00
	00		 mov	 ecx, DWORD PTR [eax+10200]
  00311	83 c1 01	 add	 ecx, 1
  00314	8b 55 f8	 mov	 edx, DWORD PTR _lpObj$[ebp]
  00317	89 8a d8 27 00
	00		 mov	 DWORD PTR [edx+10200], ecx

; 78   : 		if(lpObj->GoblinTick == this->GoblinTime)

  0031d	8b 45 f8	 mov	 eax, DWORD PTR _lpObj$[ebp]
  00320	8b 4d fc	 mov	 ecx, DWORD PTR _this$[ebp]
  00323	8b 90 d8 27 00
	00		 mov	 edx, DWORD PTR [eax+10200]
  00329	3b 51 20	 cmp	 edx, DWORD PTR [ecx+32]
  0032c	75 53		 jne	 SHORT $LN3@TickTime

; 79   : 		{
; 80   : 			lpObj->GoblinTick = 0;

  0032e	8b 45 f8	 mov	 eax, DWORD PTR _lpObj$[ebp]
  00331	c7 80 d8 27 00
	00 00 00 00 00	 mov	 DWORD PTR [eax+10200], 0

; 81   : 			lpObj->GameShop.GoblinPoint += this->GoblinBonus;

  0033b	8b 45 fc	 mov	 eax, DWORD PTR _this$[ebp]
  0033e	db 40 24	 fild	 DWORD PTR [eax+36]
  00341	8b 4d f8	 mov	 ecx, DWORD PTR _lpObj$[ebp]
  00344	dc 81 08 23 00
	00		 fadd	 QWORD PTR [ecx+8968]
  0034a	8b 55 f8	 mov	 edx, DWORD PTR _lpObj$[ebp]
  0034d	dd 9a 08 23 00
	00		 fstp	 QWORD PTR [edx+8968]

; 82   : 			gGameShop.GDSaveUserInfo(aIndex);

  00353	8b 45 08	 mov	 eax, DWORD PTR _aIndex$[ebp]
  00356	50		 push	 eax
  00357	b9 00 00 00 00	 mov	 ecx, OFFSET ?gGameShop@@3VGameShop@@A ; gGameShop
  0035c	e8 00 00 00 00	 call	 ?GDSaveUserInfo@GameShop@@QAEXH@Z ; GameShop::GDSaveUserInfo

; 83   : 			MessageChat(aIndex, g_ExText.GetText(90), this->GoblinBonus);

  00361	8b 45 fc	 mov	 eax, DWORD PTR _this$[ebp]
  00364	8b 48 24	 mov	 ecx, DWORD PTR [eax+36]
  00367	51		 push	 ecx
  00368	6a 5a		 push	 90			; 0000005aH
  0036a	b9 00 00 00 00	 mov	 ecx, OFFSET ?g_ExText@@3VCExText@@A ; g_ExText
  0036f	e8 00 00 00 00	 call	 ?GetText@CExText@@QAEPADH@Z ; CExText::GetText
  00374	50		 push	 eax
  00375	8b 55 08	 mov	 edx, DWORD PTR _aIndex$[ebp]
  00378	52		 push	 edx
  00379	e8 00 00 00 00	 call	 ?MessageChat@@YAXHPADZZ	; MessageChat
  0037e	83 c4 0c	 add	 esp, 12			; 0000000cH
$LN3@TickTime:

; 84   : 		}
; 85   : 	}
; 86   : 
; 87   : 	if(this->ExCredActive)

  00381	8b 45 fc	 mov	 eax, DWORD PTR _this$[ebp]
  00384	83 78 28 00	 cmp	 DWORD PTR [eax+40], 0
  00388	74 77		 je	 SHORT $LN1@TickTime

; 88   : 	{
; 89   : 		lpObj->ExCredTick++;

  0038a	8b 45 f8	 mov	 eax, DWORD PTR _lpObj$[ebp]
  0038d	8b 88 dc 27 00
	00		 mov	 ecx, DWORD PTR [eax+10204]
  00393	83 c1 01	 add	 ecx, 1
  00396	8b 55 f8	 mov	 edx, DWORD PTR _lpObj$[ebp]
  00399	89 8a dc 27 00
	00		 mov	 DWORD PTR [edx+10204], ecx

; 90   : 		if(lpObj->ExCredTick >= this->ExCredTime)

  0039f	8b 45 f8	 mov	 eax, DWORD PTR _lpObj$[ebp]
  003a2	8b 4d fc	 mov	 ecx, DWORD PTR _this$[ebp]
  003a5	8b 90 dc 27 00
	00		 mov	 edx, DWORD PTR [eax+10204]
  003ab	3b 51 2c	 cmp	 edx, DWORD PTR [ecx+44]
  003ae	7c 51		 jl	 SHORT $LN1@TickTime

; 91   : 		{
; 92   : 			lpObj->ExCredTick = 0;

  003b0	8b 45 f8	 mov	 eax, DWORD PTR _lpObj$[ebp]
  003b3	c7 80 dc 27 00
	00 00 00 00 00	 mov	 DWORD PTR [eax+10204], 0

; 93   : 			lpObj->ExCred += this->ExCredBonus;

  003bd	8b 45 fc	 mov	 eax, DWORD PTR _this$[ebp]
  003c0	db 40 30	 fild	 DWORD PTR [eax+48]
  003c3	8b 4d f8	 mov	 ecx, DWORD PTR _lpObj$[ebp]
  003c6	d8 81 a8 22 00
	00		 fadd	 DWORD PTR [ecx+8872]
  003cc	8b 55 f8	 mov	 edx, DWORD PTR _lpObj$[ebp]
  003cf	d9 9a a8 22 00
	00		 fstp	 DWORD PTR [edx+8872]

; 94   : #ifndef FIX_DS_CRASH
; 95   : 			GJSetCharacterInfo(lpObj, lpObj->m_Index, 0);
; 96   : #endif
; 97   : 			ExUserDataSend(aIndex);

  003d5	8b 45 08	 mov	 eax, DWORD PTR _aIndex$[ebp]
  003d8	50		 push	 eax
  003d9	e8 00 00 00 00	 call	 ?ExUserDataSend@@YAXH@Z	; ExUserDataSend
  003de	83 c4 04	 add	 esp, 4

; 98   : 			MessageChat(aIndex, g_ExText.GetText(91),this->ExCredBonus);

  003e1	8b 45 fc	 mov	 eax, DWORD PTR _this$[ebp]
  003e4	8b 48 30	 mov	 ecx, DWORD PTR [eax+48]
  003e7	51		 push	 ecx
  003e8	6a 5b		 push	 91			; 0000005bH
  003ea	b9 00 00 00 00	 mov	 ecx, OFFSET ?g_ExText@@3VCExText@@A ; g_ExText
  003ef	e8 00 00 00 00	 call	 ?GetText@CExText@@QAEPADH@Z ; CExText::GetText
  003f4	50		 push	 eax
  003f5	8b 55 08	 mov	 edx, DWORD PTR _aIndex$[ebp]
  003f8	52		 push	 edx
  003f9	e8 00 00 00 00	 call	 ?MessageChat@@YAXHPADZZ	; MessageChat
  003fe	83 c4 0c	 add	 esp, 12			; 0000000cH
$LN1@TickTime:
$LN13@TickTime:

; 99   : 		}
; 100  : 	}
; 101  : }

  00401	5f		 pop	 edi
  00402	5e		 pop	 esi
  00403	5b		 pop	 ebx
  00404	8b e5		 mov	 esp, ebp
  00406	5d		 pop	 ebp
  00407	c2 04 00	 ret	 4
?TickTime@OnlineBonus@@QAEXH@Z ENDP			; OnlineBonus::TickTime
_TEXT	ENDS
END
