; Listing generated by Microsoft (R) Optimizing Compiler Version 16.00.40219.01 

	TITLE	D:\Projects\ExTeam6.3\Source\GameServer\GameServer\PremiumSystem.cpp
	.686P
	.XMM
	include listing.inc
	.model	flat

INCLUDELIB LIBCMT
INCLUDELIB OLDNAMES

PUBLIC	?Premium@@3VPremiumSystem@@A			; Premium
_BSS	SEGMENT
?Premium@@3VPremiumSystem@@A DB 02f14H DUP (?)		; Premium
_BSS	ENDS
PUBLIC	??_H@YGXPAXIHP6EPAX0@Z@Z			; `vector constructor iterator'
; Function compile flags: /Odtp /ZI
;	COMDAT ??_H@YGXPAXIHP6EPAX0@Z@Z
_TEXT	SEGMENT
___t$ = 8						; size = 4
___s$ = 12						; size = 4
___n$ = 16						; size = 4
___f$ = 20						; size = 4
??_H@YGXPAXIHP6EPAX0@Z@Z PROC				; `vector constructor iterator', COMDAT
  00000	55		 push	 ebp
  00001	8b ec		 mov	 ebp, esp
  00003	83 ec 40	 sub	 esp, 64			; 00000040H
  00006	53		 push	 ebx
  00007	56		 push	 esi
  00008	57		 push	 edi
$LN2@vector:
  00009	8b 45 10	 mov	 eax, DWORD PTR ___n$[ebp]
  0000c	83 e8 01	 sub	 eax, 1
  0000f	89 45 10	 mov	 DWORD PTR ___n$[ebp], eax
  00012	78 11		 js	 SHORT $LN3@vector
  00014	8b 4d 08	 mov	 ecx, DWORD PTR ___t$[ebp]
  00017	ff 55 14	 call	 DWORD PTR ___f$[ebp]
  0001a	8b 45 08	 mov	 eax, DWORD PTR ___t$[ebp]
  0001d	03 45 0c	 add	 eax, DWORD PTR ___s$[ebp]
  00020	89 45 08	 mov	 DWORD PTR ___t$[ebp], eax
  00023	eb e4		 jmp	 SHORT $LN2@vector
$LN3@vector:
  00025	5f		 pop	 edi
  00026	5e		 pop	 esi
  00027	5b		 pop	 ebx
  00028	8b e5		 mov	 esp, ebp
  0002a	5d		 pop	 ebp
  0002b	c2 10 00	 ret	 16			; 00000010H
??_H@YGXPAXIHP6EPAX0@Z@Z ENDP				; `vector constructor iterator'
_TEXT	ENDS
PUBLIC	??_C@_08OOHKHLPO@?$CFd?5?$CFd?5?$CFd?$AA@	; `string'
PUBLIC	??_C@_0BA@PIOFNAIM@LOAD?5FILE?5ERROR?$AA@	; `string'
PUBLIC	??_C@_01KDCPPGHE@r?$AA@				; `string'
PUBLIC	??_C@_05NFJELHBG@Price?$AA@			; `string'
PUBLIC	??_C@_05LPIJGKJ@Value?$AA@			; `string'
PUBLIC	??_C@_0BE@EIBMHJEK@PremiumServerEnable?$AA@	; `string'
PUBLIC	??_C@_0M@CENGECFJ@GoldPlusZen?$AA@		; `string'
PUBLIC	??_C@_0M@OMBDAKGM@GoldPlusExp?$AA@		; `string'
PUBLIC	??_C@_0O@MDGDFGII@SilverPlusZen?$AA@		; `string'
PUBLIC	??_C@_0O@LKGBOLN@SilverPlusExp?$AA@		; `string'
PUBLIC	??_C@_0O@BGLPJAEI@BronzePlusZen?$AA@		; `string'
PUBLIC	??_C@_08HPOKDCKD@PremType?$AA@			; `string'
PUBLIC	??_C@_0O@NOHKNIHN@BronzePlusExp?$AA@		; `string'
PUBLIC	??_C@_07HHKCFDII@PlusZen?$AA@			; `string'
PUBLIC	??_C@_07LPGHBLLN@PlusExp?$AA@			; `string'
PUBLIC	??_C@_06POMJKEPM@Common?$AA@			; `string'
PUBLIC	??_C@_06CKGENIKG@Enable?$AA@			; `string'
PUBLIC	??_C@_0CB@EKLIGDFP@?4?4?2Data?2ExData?2PremiumSystem?4ini@ ; `string'
PUBLIC	__$ArrayPad$
PUBLIC	?Loader@PremiumSystem@@QAEXXZ			; PremiumSystem::Loader
EXTRN	_fclose:PROC
EXTRN	_sscanf:PROC
EXTRN	?Ex_IsBadFileLine@@YA_NPADAAH@Z:PROC		; Ex_IsBadFileLine
EXTRN	_fgets:PROC
EXTRN	_feof:PROC
EXTRN	__imp__ExitProcess@4:PROC
EXTRN	__imp__MessageBoxA@16:PROC
EXTRN	_fopen:PROC
EXTRN	?CheckUser@CExLicense@@QAE_NH@Z:PROC		; CExLicense::CheckUser
EXTRN	__imp__GetPrivateProfileIntA@16:PROC
EXTRN	?g_ExLicense@@3VCExLicense@@A:BYTE		; g_ExLicense
EXTRN	___security_cookie:DWORD
EXTRN	@__security_check_cookie@4:PROC
;	COMDAT ??_C@_08OOHKHLPO@?$CFd?5?$CFd?5?$CFd?$AA@
; File d:\projects\exteam6.3\source\gameserver\gameserver\premiumsystem.cpp
CONST	SEGMENT
??_C@_08OOHKHLPO@?$CFd?5?$CFd?5?$CFd?$AA@ DB '%d %d %d', 00H ; `string'
CONST	ENDS
;	COMDAT ??_C@_0BA@PIOFNAIM@LOAD?5FILE?5ERROR?$AA@
CONST	SEGMENT
??_C@_0BA@PIOFNAIM@LOAD?5FILE?5ERROR?$AA@ DB 'LOAD FILE ERROR', 00H ; `string'
CONST	ENDS
;	COMDAT ??_C@_01KDCPPGHE@r?$AA@
CONST	SEGMENT
??_C@_01KDCPPGHE@r?$AA@ DB 'r', 00H			; `string'
CONST	ENDS
;	COMDAT ??_C@_05NFJELHBG@Price?$AA@
CONST	SEGMENT
??_C@_05NFJELHBG@Price?$AA@ DB 'Price', 00H		; `string'
CONST	ENDS
;	COMDAT ??_C@_05LPIJGKJ@Value?$AA@
CONST	SEGMENT
??_C@_05LPIJGKJ@Value?$AA@ DB 'Value', 00H		; `string'
CONST	ENDS
;	COMDAT ??_C@_0BE@EIBMHJEK@PremiumServerEnable?$AA@
CONST	SEGMENT
??_C@_0BE@EIBMHJEK@PremiumServerEnable?$AA@ DB 'PremiumServerEnable', 00H ; `string'
CONST	ENDS
;	COMDAT ??_C@_0M@CENGECFJ@GoldPlusZen?$AA@
CONST	SEGMENT
??_C@_0M@CENGECFJ@GoldPlusZen?$AA@ DB 'GoldPlusZen', 00H ; `string'
CONST	ENDS
;	COMDAT ??_C@_0M@OMBDAKGM@GoldPlusExp?$AA@
CONST	SEGMENT
??_C@_0M@OMBDAKGM@GoldPlusExp?$AA@ DB 'GoldPlusExp', 00H ; `string'
CONST	ENDS
;	COMDAT ??_C@_0O@MDGDFGII@SilverPlusZen?$AA@
CONST	SEGMENT
??_C@_0O@MDGDFGII@SilverPlusZen?$AA@ DB 'SilverPlusZen', 00H ; `string'
CONST	ENDS
;	COMDAT ??_C@_0O@LKGBOLN@SilverPlusExp?$AA@
CONST	SEGMENT
??_C@_0O@LKGBOLN@SilverPlusExp?$AA@ DB 'SilverPlusExp', 00H ; `string'
CONST	ENDS
;	COMDAT ??_C@_0O@BGLPJAEI@BronzePlusZen?$AA@
CONST	SEGMENT
??_C@_0O@BGLPJAEI@BronzePlusZen?$AA@ DB 'BronzePlusZen', 00H ; `string'
CONST	ENDS
;	COMDAT ??_C@_08HPOKDCKD@PremType?$AA@
CONST	SEGMENT
??_C@_08HPOKDCKD@PremType?$AA@ DB 'PremType', 00H	; `string'
CONST	ENDS
;	COMDAT ??_C@_0O@NOHKNIHN@BronzePlusExp?$AA@
CONST	SEGMENT
??_C@_0O@NOHKNIHN@BronzePlusExp?$AA@ DB 'BronzePlusExp', 00H ; `string'
CONST	ENDS
;	COMDAT ??_C@_07HHKCFDII@PlusZen?$AA@
CONST	SEGMENT
??_C@_07HHKCFDII@PlusZen?$AA@ DB 'PlusZen', 00H		; `string'
CONST	ENDS
;	COMDAT ??_C@_07LPGHBLLN@PlusExp?$AA@
CONST	SEGMENT
??_C@_07LPGHBLLN@PlusExp?$AA@ DB 'PlusExp', 00H		; `string'
CONST	ENDS
;	COMDAT ??_C@_06POMJKEPM@Common?$AA@
CONST	SEGMENT
??_C@_06POMJKEPM@Common?$AA@ DB 'Common', 00H		; `string'
CONST	ENDS
;	COMDAT ??_C@_06CKGENIKG@Enable?$AA@
CONST	SEGMENT
??_C@_06CKGENIKG@Enable?$AA@ DB 'Enable', 00H		; `string'
CONST	ENDS
;	COMDAT ??_C@_0CB@EKLIGDFP@?4?4?2Data?2ExData?2PremiumSystem?4ini@
CONST	SEGMENT
??_C@_0CB@EKLIGDFP@?4?4?2Data?2ExData?2PremiumSystem?4ini@ DB '..\Data\Ex'
	DB	'Data\PremiumSystem.ini', 00H		; `string'
; Function compile flags: /Odtp /ZI
CONST	ENDS
_TEXT	SEGMENT
_n$220558 = -288					; size = 12
_Flag$220551 = -276					; size = 4
_Buff$220550 = -272					; size = 256
_file$220546 = -16					; size = 4
_i$220542 = -12						; size = 4
_this$ = -8						; size = 4
__$ArrayPad$ = -4					; size = 4
?Loader@PremiumSystem@@QAEXXZ PROC			; PremiumSystem::Loader
; _this$ = ecx

; 16   : {

  00000	55		 push	 ebp
  00001	8b ec		 mov	 ebp, esp
  00003	81 ec 60 01 00
	00		 sub	 esp, 352		; 00000160H
  00009	a1 00 00 00 00	 mov	 eax, DWORD PTR ___security_cookie
  0000e	33 c5		 xor	 eax, ebp
  00010	89 45 fc	 mov	 DWORD PTR __$ArrayPad$[ebp], eax
  00013	53		 push	 ebx
  00014	56		 push	 esi
  00015	57		 push	 edi
  00016	89 4d f8	 mov	 DWORD PTR _this$[ebp], ecx

; 17   : 	if(g_ExLicense.user.PremiumEx == true)

  00019	0f b6 05 ea 00
	00 00		 movzx	 eax, BYTE PTR ?g_ExLicense@@3VCExLicense@@A+234
  00020	83 f8 01	 cmp	 eax, 1
  00023	75 05		 jne	 SHORT $LN14@Loader

; 18   : 	{
; 19   : 		return;

  00025	e9 46 04 00 00	 jmp	 $LN16@Loader
$LN14@Loader:

; 20   : 	}
; 21   : 
; 22   : 	this->Enable = GetPrivateProfileInt("Common","Enable",0,PREMIUM_DIR);

  0002a	68 00 00 00 00	 push	 OFFSET ??_C@_0CB@EKLIGDFP@?4?4?2Data?2ExData?2PremiumSystem?4ini@
  0002f	6a 00		 push	 0
  00031	68 00 00 00 00	 push	 OFFSET ??_C@_06CKGENIKG@Enable?$AA@
  00036	68 00 00 00 00	 push	 OFFSET ??_C@_06POMJKEPM@Common?$AA@
  0003b	ff 15 00 00 00
	00		 call	 DWORD PTR __imp__GetPrivateProfileIntA@16
  00041	8b 4d f8	 mov	 ecx, DWORD PTR _this$[ebp]
  00044	89 01		 mov	 DWORD PTR [ecx], eax

; 23   : 	this->PlusExp = GetPrivateProfileInt("Common","PlusExp",0,PREMIUM_DIR);

  00046	68 00 00 00 00	 push	 OFFSET ??_C@_0CB@EKLIGDFP@?4?4?2Data?2ExData?2PremiumSystem?4ini@
  0004b	6a 00		 push	 0
  0004d	68 00 00 00 00	 push	 OFFSET ??_C@_07LPGHBLLN@PlusExp?$AA@
  00052	68 00 00 00 00	 push	 OFFSET ??_C@_06POMJKEPM@Common?$AA@
  00057	ff 15 00 00 00
	00		 call	 DWORD PTR __imp__GetPrivateProfileIntA@16
  0005d	8b 4d f8	 mov	 ecx, DWORD PTR _this$[ebp]
  00060	89 41 04	 mov	 DWORD PTR [ecx+4], eax

; 24   : 	this->PlusZen = GetPrivateProfileInt("Common","PlusZen",0,PREMIUM_DIR);

  00063	68 00 00 00 00	 push	 OFFSET ??_C@_0CB@EKLIGDFP@?4?4?2Data?2ExData?2PremiumSystem?4ini@
  00068	6a 00		 push	 0
  0006a	68 00 00 00 00	 push	 OFFSET ??_C@_07HHKCFDII@PlusZen?$AA@
  0006f	68 00 00 00 00	 push	 OFFSET ??_C@_06POMJKEPM@Common?$AA@
  00074	ff 15 00 00 00
	00		 call	 DWORD PTR __imp__GetPrivateProfileIntA@16
  0007a	8b 4d f8	 mov	 ecx, DWORD PTR _this$[ebp]
  0007d	89 41 08	 mov	 DWORD PTR [ecx+8], eax

; 25   : 
; 26   : #ifdef PREM_TYPE
; 27   : 	if(g_ExLicense.CheckUser(eExUB::Local) || g_ExLicense.CheckUser(eExUB::ulasevich) || g_ExLicense.CheckUser(eExUB::ulasevich2))

  00080	6a 00		 push	 0
  00082	b9 00 00 00 00	 mov	 ecx, OFFSET ?g_ExLicense@@3VCExLicense@@A ; g_ExLicense
  00087	e8 00 00 00 00	 call	 ?CheckUser@CExLicense@@QAE_NH@Z ; CExLicense::CheckUser
  0008c	0f b6 c0	 movzx	 eax, al
  0008f	85 c0		 test	 eax, eax
  00091	75 2a		 jne	 SHORT $LN12@Loader
  00093	6a 17		 push	 23			; 00000017H
  00095	b9 00 00 00 00	 mov	 ecx, OFFSET ?g_ExLicense@@3VCExLicense@@A ; g_ExLicense
  0009a	e8 00 00 00 00	 call	 ?CheckUser@CExLicense@@QAE_NH@Z ; CExLicense::CheckUser
  0009f	0f b6 c0	 movzx	 eax, al
  000a2	85 c0		 test	 eax, eax
  000a4	75 17		 jne	 SHORT $LN12@Loader
  000a6	6a 24		 push	 36			; 00000024H
  000a8	b9 00 00 00 00	 mov	 ecx, OFFSET ?g_ExLicense@@3VCExLicense@@A ; g_ExLicense
  000ad	e8 00 00 00 00	 call	 ?CheckUser@CExLicense@@QAE_NH@Z ; CExLicense::CheckUser
  000b2	0f b6 c0	 movzx	 eax, al
  000b5	85 c0		 test	 eax, eax
  000b7	0f 84 ae 00 00
	00		 je	 $LN13@Loader
$LN12@Loader:

; 28   : 	{
; 29   : 		this->BronzePlusExp = GetPrivateProfileInt("PremType","BronzePlusExp",0,PREMIUM_DIR);

  000bd	68 00 00 00 00	 push	 OFFSET ??_C@_0CB@EKLIGDFP@?4?4?2Data?2ExData?2PremiumSystem?4ini@
  000c2	6a 00		 push	 0
  000c4	68 00 00 00 00	 push	 OFFSET ??_C@_0O@NOHKNIHN@BronzePlusExp?$AA@
  000c9	68 00 00 00 00	 push	 OFFSET ??_C@_08HPOKDCKD@PremType?$AA@
  000ce	ff 15 00 00 00
	00		 call	 DWORD PTR __imp__GetPrivateProfileIntA@16
  000d4	8b 4d f8	 mov	 ecx, DWORD PTR _this$[ebp]
  000d7	89 41 0c	 mov	 DWORD PTR [ecx+12], eax

; 30   : 		this->BronzePlusZen = GetPrivateProfileInt("PremType","BronzePlusZen",0,PREMIUM_DIR);

  000da	68 00 00 00 00	 push	 OFFSET ??_C@_0CB@EKLIGDFP@?4?4?2Data?2ExData?2PremiumSystem?4ini@
  000df	6a 00		 push	 0
  000e1	68 00 00 00 00	 push	 OFFSET ??_C@_0O@BGLPJAEI@BronzePlusZen?$AA@
  000e6	68 00 00 00 00	 push	 OFFSET ??_C@_08HPOKDCKD@PremType?$AA@
  000eb	ff 15 00 00 00
	00		 call	 DWORD PTR __imp__GetPrivateProfileIntA@16
  000f1	8b 4d f8	 mov	 ecx, DWORD PTR _this$[ebp]
  000f4	89 41 10	 mov	 DWORD PTR [ecx+16], eax

; 31   : 		this->SilverPlusExp = GetPrivateProfileInt("PremType","SilverPlusExp",0,PREMIUM_DIR);

  000f7	68 00 00 00 00	 push	 OFFSET ??_C@_0CB@EKLIGDFP@?4?4?2Data?2ExData?2PremiumSystem?4ini@
  000fc	6a 00		 push	 0
  000fe	68 00 00 00 00	 push	 OFFSET ??_C@_0O@LKGBOLN@SilverPlusExp?$AA@
  00103	68 00 00 00 00	 push	 OFFSET ??_C@_08HPOKDCKD@PremType?$AA@
  00108	ff 15 00 00 00
	00		 call	 DWORD PTR __imp__GetPrivateProfileIntA@16
  0010e	8b 4d f8	 mov	 ecx, DWORD PTR _this$[ebp]
  00111	89 41 14	 mov	 DWORD PTR [ecx+20], eax

; 32   : 		this->SilverPlusZen = GetPrivateProfileInt("PremType","SilverPlusZen",0,PREMIUM_DIR);

  00114	68 00 00 00 00	 push	 OFFSET ??_C@_0CB@EKLIGDFP@?4?4?2Data?2ExData?2PremiumSystem?4ini@
  00119	6a 00		 push	 0
  0011b	68 00 00 00 00	 push	 OFFSET ??_C@_0O@MDGDFGII@SilverPlusZen?$AA@
  00120	68 00 00 00 00	 push	 OFFSET ??_C@_08HPOKDCKD@PremType?$AA@
  00125	ff 15 00 00 00
	00		 call	 DWORD PTR __imp__GetPrivateProfileIntA@16
  0012b	8b 4d f8	 mov	 ecx, DWORD PTR _this$[ebp]
  0012e	89 41 18	 mov	 DWORD PTR [ecx+24], eax

; 33   : 		this->GoldPlusExp = GetPrivateProfileInt("PremType","GoldPlusExp",0,PREMIUM_DIR);

  00131	68 00 00 00 00	 push	 OFFSET ??_C@_0CB@EKLIGDFP@?4?4?2Data?2ExData?2PremiumSystem?4ini@
  00136	6a 00		 push	 0
  00138	68 00 00 00 00	 push	 OFFSET ??_C@_0M@OMBDAKGM@GoldPlusExp?$AA@
  0013d	68 00 00 00 00	 push	 OFFSET ??_C@_08HPOKDCKD@PremType?$AA@
  00142	ff 15 00 00 00
	00		 call	 DWORD PTR __imp__GetPrivateProfileIntA@16
  00148	8b 4d f8	 mov	 ecx, DWORD PTR _this$[ebp]
  0014b	89 41 1c	 mov	 DWORD PTR [ecx+28], eax

; 34   : 		this->GoldPlusZen = GetPrivateProfileInt("PremType","GoldPlusZen",0,PREMIUM_DIR);	

  0014e	68 00 00 00 00	 push	 OFFSET ??_C@_0CB@EKLIGDFP@?4?4?2Data?2ExData?2PremiumSystem?4ini@
  00153	6a 00		 push	 0
  00155	68 00 00 00 00	 push	 OFFSET ??_C@_0M@CENGECFJ@GoldPlusZen?$AA@
  0015a	68 00 00 00 00	 push	 OFFSET ??_C@_08HPOKDCKD@PremType?$AA@
  0015f	ff 15 00 00 00
	00		 call	 DWORD PTR __imp__GetPrivateProfileIntA@16
  00165	8b 4d f8	 mov	 ecx, DWORD PTR _this$[ebp]
  00168	89 41 20	 mov	 DWORD PTR [ecx+32], eax
$LN13@Loader:

; 35   : 	}
; 36   : #endif
; 37   : 
; 38   : 	this->m_PremiumServerEnable = GetPrivateProfileInt("Common","PremiumServerEnable",0,PREMIUM_DIR);	

  0016b	68 00 00 00 00	 push	 OFFSET ??_C@_0CB@EKLIGDFP@?4?4?2Data?2ExData?2PremiumSystem?4ini@
  00170	6a 00		 push	 0
  00172	68 00 00 00 00	 push	 OFFSET ??_C@_0BE@EIBMHJEK@PremiumServerEnable?$AA@
  00177	68 00 00 00 00	 push	 OFFSET ??_C@_06POMJKEPM@Common?$AA@
  0017c	ff 15 00 00 00
	00		 call	 DWORD PTR __imp__GetPrivateProfileIntA@16
  00182	85 c0		 test	 eax, eax
  00184	0f 95 c0	 setne	 al
  00187	8b 4d f8	 mov	 ecx, DWORD PTR _this$[ebp]
  0018a	88 81 10 2f 00
	00		 mov	 BYTE PTR [ecx+12048], al

; 39   : 
; 40   : 	if(g_ExLicense.CheckUser(eExUB::PrideMuLocal) || 
; 41   : 		g_ExLicense.CheckUser(eExUB::PrideMu) || 
; 42   : 		g_ExLicense.CheckUser(eExUB::drynea) || 
; 43   : 		g_ExLicense.CheckUser(eExUB::Local) || 
; 44   : 		g_ExLicense.CheckUser(eExUB::feqan)	||
; 45   : 		g_ExLicense.CheckUser(eExUB::MU2Play) || 
; 46   : 		g_ExLicense.CheckUser(eExUB::bassreflexive)	||
; 47   : 		g_ExLicense.CheckUser(eExUB::Escalate) ||
; 48   : 		g_ExLicense.CheckUser(eExUB::MedoniAndrei) ||
; 49   : 		g_ExLicense.CheckUser(eExUB::mu4you) ||
; 50   : 		g_ExLicense.CheckUser(eExUB::eternalmu) ||
; 51   : 		g_ExLicense.CheckUser(eExUB::NSGames)
; 52   : 		)

  00190	6a 1a		 push	 26			; 0000001aH
  00192	b9 00 00 00 00	 mov	 ecx, OFFSET ?g_ExLicense@@3VCExLicense@@A ; g_ExLicense
  00197	e8 00 00 00 00	 call	 ?CheckUser@CExLicense@@QAE_NH@Z ; CExLicense::CheckUser
  0019c	0f b6 c0	 movzx	 eax, al
  0019f	85 c0		 test	 eax, eax
  001a1	0f 85 e5 00 00
	00		 jne	 $LN10@Loader
  001a7	6a 11		 push	 17			; 00000011H
  001a9	b9 00 00 00 00	 mov	 ecx, OFFSET ?g_ExLicense@@3VCExLicense@@A ; g_ExLicense
  001ae	e8 00 00 00 00	 call	 ?CheckUser@CExLicense@@QAE_NH@Z ; CExLicense::CheckUser
  001b3	0f b6 c0	 movzx	 eax, al
  001b6	85 c0		 test	 eax, eax
  001b8	0f 85 ce 00 00
	00		 jne	 $LN10@Loader
  001be	6a 01		 push	 1
  001c0	b9 00 00 00 00	 mov	 ecx, OFFSET ?g_ExLicense@@3VCExLicense@@A ; g_ExLicense
  001c5	e8 00 00 00 00	 call	 ?CheckUser@CExLicense@@QAE_NH@Z ; CExLicense::CheckUser
  001ca	0f b6 c0	 movzx	 eax, al
  001cd	85 c0		 test	 eax, eax
  001cf	0f 85 b7 00 00
	00		 jne	 $LN10@Loader
  001d5	6a 00		 push	 0
  001d7	b9 00 00 00 00	 mov	 ecx, OFFSET ?g_ExLicense@@3VCExLicense@@A ; g_ExLicense
  001dc	e8 00 00 00 00	 call	 ?CheckUser@CExLicense@@QAE_NH@Z ; CExLicense::CheckUser
  001e1	0f b6 c0	 movzx	 eax, al
  001e4	85 c0		 test	 eax, eax
  001e6	0f 85 a0 00 00
	00		 jne	 $LN10@Loader
  001ec	6a 25		 push	 37			; 00000025H
  001ee	b9 00 00 00 00	 mov	 ecx, OFFSET ?g_ExLicense@@3VCExLicense@@A ; g_ExLicense
  001f3	e8 00 00 00 00	 call	 ?CheckUser@CExLicense@@QAE_NH@Z ; CExLicense::CheckUser
  001f8	0f b6 c0	 movzx	 eax, al
  001fb	85 c0		 test	 eax, eax
  001fd	0f 85 89 00 00
	00		 jne	 $LN10@Loader
  00203	6a 36		 push	 54			; 00000036H
  00205	b9 00 00 00 00	 mov	 ecx, OFFSET ?g_ExLicense@@3VCExLicense@@A ; g_ExLicense
  0020a	e8 00 00 00 00	 call	 ?CheckUser@CExLicense@@QAE_NH@Z ; CExLicense::CheckUser
  0020f	0f b6 c0	 movzx	 eax, al
  00212	85 c0		 test	 eax, eax
  00214	75 76		 jne	 SHORT $LN10@Loader
  00216	6a 35		 push	 53			; 00000035H
  00218	b9 00 00 00 00	 mov	 ecx, OFFSET ?g_ExLicense@@3VCExLicense@@A ; g_ExLicense
  0021d	e8 00 00 00 00	 call	 ?CheckUser@CExLicense@@QAE_NH@Z ; CExLicense::CheckUser
  00222	0f b6 c0	 movzx	 eax, al
  00225	85 c0		 test	 eax, eax
  00227	75 63		 jne	 SHORT $LN10@Loader
  00229	6a 40		 push	 64			; 00000040H
  0022b	b9 00 00 00 00	 mov	 ecx, OFFSET ?g_ExLicense@@3VCExLicense@@A ; g_ExLicense
  00230	e8 00 00 00 00	 call	 ?CheckUser@CExLicense@@QAE_NH@Z ; CExLicense::CheckUser
  00235	0f b6 c0	 movzx	 eax, al
  00238	85 c0		 test	 eax, eax
  0023a	75 50		 jne	 SHORT $LN10@Loader
  0023c	6a 32		 push	 50			; 00000032H
  0023e	b9 00 00 00 00	 mov	 ecx, OFFSET ?g_ExLicense@@3VCExLicense@@A ; g_ExLicense
  00243	e8 00 00 00 00	 call	 ?CheckUser@CExLicense@@QAE_NH@Z ; CExLicense::CheckUser
  00248	0f b6 c0	 movzx	 eax, al
  0024b	85 c0		 test	 eax, eax
  0024d	75 3d		 jne	 SHORT $LN10@Loader
  0024f	6a 4e		 push	 78			; 0000004eH
  00251	b9 00 00 00 00	 mov	 ecx, OFFSET ?g_ExLicense@@3VCExLicense@@A ; g_ExLicense
  00256	e8 00 00 00 00	 call	 ?CheckUser@CExLicense@@QAE_NH@Z ; CExLicense::CheckUser
  0025b	0f b6 c0	 movzx	 eax, al
  0025e	85 c0		 test	 eax, eax
  00260	75 2a		 jne	 SHORT $LN10@Loader
  00262	6a 4f		 push	 79			; 0000004fH
  00264	b9 00 00 00 00	 mov	 ecx, OFFSET ?g_ExLicense@@3VCExLicense@@A ; g_ExLicense
  00269	e8 00 00 00 00	 call	 ?CheckUser@CExLicense@@QAE_NH@Z ; CExLicense::CheckUser
  0026e	0f b6 c0	 movzx	 eax, al
  00271	85 c0		 test	 eax, eax
  00273	75 17		 jne	 SHORT $LN10@Loader
  00275	6a 51		 push	 81			; 00000051H
  00277	b9 00 00 00 00	 mov	 ecx, OFFSET ?g_ExLicense@@3VCExLicense@@A ; g_ExLicense
  0027c	e8 00 00 00 00	 call	 ?CheckUser@CExLicense@@QAE_NH@Z ; CExLicense::CheckUser
  00281	0f b6 c0	 movzx	 eax, al
  00284	85 c0		 test	 eax, eax
  00286	0f 84 e4 01 00
	00		 je	 $LN16@Loader
$LN10@Loader:

; 53   : 	{
; 54   : 		this->Value = GetPrivateProfileInt("Common","Value",0,PREMIUM_DIR);

  0028c	68 00 00 00 00	 push	 OFFSET ??_C@_0CB@EKLIGDFP@?4?4?2Data?2ExData?2PremiumSystem?4ini@
  00291	6a 00		 push	 0
  00293	68 00 00 00 00	 push	 OFFSET ??_C@_05LPIJGKJ@Value?$AA@
  00298	68 00 00 00 00	 push	 OFFSET ??_C@_06POMJKEPM@Common?$AA@
  0029d	ff 15 00 00 00
	00		 call	 DWORD PTR __imp__GetPrivateProfileIntA@16
  002a3	8b 4d f8	 mov	 ecx, DWORD PTR _this$[ebp]
  002a6	89 81 08 2f 00
	00		 mov	 DWORD PTR [ecx+12040], eax

; 55   : 		this->Price = GetPrivateProfileInt("Common","Price",0,PREMIUM_DIR); // Price			1 - Zen; 2 - ExCred; 3 - WCoinC; 4 - WCoinP; 5 - Goblin

  002ac	68 00 00 00 00	 push	 OFFSET ??_C@_0CB@EKLIGDFP@?4?4?2Data?2ExData?2PremiumSystem?4ini@
  002b1	6a 00		 push	 0
  002b3	68 00 00 00 00	 push	 OFFSET ??_C@_05NFJELHBG@Price?$AA@
  002b8	68 00 00 00 00	 push	 OFFSET ??_C@_06POMJKEPM@Common?$AA@
  002bd	ff 15 00 00 00
	00		 call	 DWORD PTR __imp__GetPrivateProfileIntA@16
  002c3	8b 4d f8	 mov	 ecx, DWORD PTR _this$[ebp]
  002c6	89 81 0c 2f 00
	00		 mov	 DWORD PTR [ecx+12044], eax

; 56   : 		for(int i(0);i<MAX_RES_PREM;i++)

  002cc	c7 45 f4 00 00
	00 00		 mov	 DWORD PTR _i$220542[ebp], 0
  002d3	eb 09		 jmp	 SHORT $LN9@Loader
$LN8@Loader:
  002d5	8b 45 f4	 mov	 eax, DWORD PTR _i$220542[ebp]
  002d8	83 c0 01	 add	 eax, 1
  002db	89 45 f4	 mov	 DWORD PTR _i$220542[ebp], eax
$LN9@Loader:
  002de	81 7d f4 e8 03
	00 00		 cmp	 DWORD PTR _i$220542[ebp], 1000 ; 000003e8H
  002e5	7d 35		 jge	 SHORT $LN7@Loader

; 57   : 		{
; 58   : 			this->NumberResPrem[i].Res = 0;

  002e7	8b 45 f4	 mov	 eax, DWORD PTR _i$220542[ebp]
  002ea	6b c0 0c	 imul	 eax, 12			; 0000000cH
  002ed	8b 4d f8	 mov	 ecx, DWORD PTR _this$[ebp]
  002f0	c7 44 01 24 00
	00 00 00	 mov	 DWORD PTR [ecx+eax+36], 0

; 59   : 			this->NumberResPrem[i].Exp = 0;

  002f8	8b 45 f4	 mov	 eax, DWORD PTR _i$220542[ebp]
  002fb	6b c0 0c	 imul	 eax, 12			; 0000000cH
  002fe	8b 4d f8	 mov	 ecx, DWORD PTR _this$[ebp]
  00301	c7 44 01 28 00
	00 00 00	 mov	 DWORD PTR [ecx+eax+40], 0

; 60   : 			this->NumberResPrem[i].Zen = 0;

  00309	8b 45 f4	 mov	 eax, DWORD PTR _i$220542[ebp]
  0030c	6b c0 0c	 imul	 eax, 12			; 0000000cH
  0030f	8b 4d f8	 mov	 ecx, DWORD PTR _this$[ebp]
  00312	c7 44 01 2c 00
	00 00 00	 mov	 DWORD PTR [ecx+eax+44], 0

; 61   : 		}

  0031a	eb b9		 jmp	 SHORT $LN8@Loader
$LN7@Loader:

; 62   : 		FILE * file = fopen(PREMIUM_DIR,"r");

  0031c	68 00 00 00 00	 push	 OFFSET ??_C@_01KDCPPGHE@r?$AA@
  00321	68 00 00 00 00	 push	 OFFSET ??_C@_0CB@EKLIGDFP@?4?4?2Data?2ExData?2PremiumSystem?4ini@
  00326	e8 00 00 00 00	 call	 _fopen
  0032b	83 c4 08	 add	 esp, 8
  0032e	89 45 f0	 mov	 DWORD PTR _file$220546[ebp], eax

; 63   : 		if(file == NULL)

  00331	83 7d f0 00	 cmp	 DWORD PTR _file$220546[ebp], 0
  00335	75 1c		 jne	 SHORT $LN6@Loader

; 64   : 		{
; 65   : 			MessageBoxA(0,PREMIUM_DIR,"LOAD FILE ERROR",0);

  00337	6a 00		 push	 0
  00339	68 00 00 00 00	 push	 OFFSET ??_C@_0BA@PIOFNAIM@LOAD?5FILE?5ERROR?$AA@
  0033e	68 00 00 00 00	 push	 OFFSET ??_C@_0CB@EKLIGDFP@?4?4?2Data?2ExData?2PremiumSystem?4ini@
  00343	6a 00		 push	 0
  00345	ff 15 00 00 00
	00		 call	 DWORD PTR __imp__MessageBoxA@16

; 66   : 			ExitProcess(0);

  0034b	6a 00		 push	 0
  0034d	ff 15 00 00 00
	00		 call	 DWORD PTR __imp__ExitProcess@4
$LN6@Loader:

; 67   : 		}
; 68   : 
; 69   : 		char Buff[256];
; 70   : 		int Flag = 0;

  00353	c7 85 ec fe ff
	ff 00 00 00 00	 mov	 DWORD PTR _Flag$220551[ebp], 0

; 71   : 		this->CountRes = 0;

  0035d	8b 45 f8	 mov	 eax, DWORD PTR _this$[ebp]
  00360	c7 80 04 2f 00
	00 00 00 00 00	 mov	 DWORD PTR [eax+12036], 0
$LN5@Loader:

; 72   : 
; 73   : 		while(!feof(file))

  0036a	8b 45 f0	 mov	 eax, DWORD PTR _file$220546[ebp]
  0036d	50		 push	 eax
  0036e	e8 00 00 00 00	 call	 _feof
  00373	83 c4 04	 add	 esp, 4
  00376	85 c0		 test	 eax, eax
  00378	0f 85 e6 00 00
	00		 jne	 $LN4@Loader

; 74   : 		{
; 75   : 			fgets(Buff,256,file);

  0037e	8b 45 f0	 mov	 eax, DWORD PTR _file$220546[ebp]
  00381	50		 push	 eax
  00382	68 00 01 00 00	 push	 256			; 00000100H
  00387	8d 8d f0 fe ff
	ff		 lea	 ecx, DWORD PTR _Buff$220550[ebp]
  0038d	51		 push	 ecx
  0038e	e8 00 00 00 00	 call	 _fgets
  00393	83 c4 0c	 add	 esp, 12			; 0000000cH

; 76   : 			if(Ex_IsBadFileLine(Buff, Flag))

  00396	8d 85 ec fe ff
	ff		 lea	 eax, DWORD PTR _Flag$220551[ebp]
  0039c	50		 push	 eax
  0039d	8d 8d f0 fe ff
	ff		 lea	 ecx, DWORD PTR _Buff$220550[ebp]
  003a3	51		 push	 ecx
  003a4	e8 00 00 00 00	 call	 ?Ex_IsBadFileLine@@YA_NPADAAH@Z ; Ex_IsBadFileLine
  003a9	83 c4 08	 add	 esp, 8
  003ac	0f b6 d0	 movzx	 edx, al
  003af	85 d2		 test	 edx, edx
  003b1	74 02		 je	 SHORT $LN3@Loader

; 77   : 				continue;

  003b3	eb b5		 jmp	 SHORT $LN5@Loader
$LN3@Loader:

; 78   : 			if(Flag == 1)

  003b5	83 bd ec fe ff
	ff 01		 cmp	 DWORD PTR _Flag$220551[ebp], 1
  003bc	0f 85 9d 00 00
	00		 jne	 $LN2@Loader

; 79   : 			{
; 80   : 				if(this->CountRes == MAX_RES_PREM) break;

  003c2	8b 45 f8	 mov	 eax, DWORD PTR _this$[ebp]
  003c5	81 b8 04 2f 00
	00 e8 03 00 00	 cmp	 DWORD PTR [eax+12036], 1000 ; 000003e8H
  003cf	75 05		 jne	 SHORT $LN1@Loader
  003d1	e9 8e 00 00 00	 jmp	 $LN4@Loader
$LN1@Loader:

; 81   : 				int n[3];
; 82   : 				sscanf(Buff, "%d %d %d", &n[0], &n[1], &n[2]);

  003d6	8d 85 e8 fe ff
	ff		 lea	 eax, DWORD PTR _n$220558[ebp+8]
  003dc	50		 push	 eax
  003dd	8d 8d e4 fe ff
	ff		 lea	 ecx, DWORD PTR _n$220558[ebp+4]
  003e3	51		 push	 ecx
  003e4	8d 95 e0 fe ff
	ff		 lea	 edx, DWORD PTR _n$220558[ebp]
  003ea	52		 push	 edx
  003eb	68 00 00 00 00	 push	 OFFSET ??_C@_08OOHKHLPO@?$CFd?5?$CFd?5?$CFd?$AA@
  003f0	8d 85 f0 fe ff
	ff		 lea	 eax, DWORD PTR _Buff$220550[ebp]
  003f6	50		 push	 eax
  003f7	e8 00 00 00 00	 call	 _sscanf
  003fc	83 c4 14	 add	 esp, 20			; 00000014H

; 83   : 				this->NumberResPrem[this->CountRes].Res = n[0];

  003ff	8b 45 f8	 mov	 eax, DWORD PTR _this$[ebp]
  00402	8b 88 04 2f 00
	00		 mov	 ecx, DWORD PTR [eax+12036]
  00408	6b c9 0c	 imul	 ecx, 12			; 0000000cH
  0040b	8b 55 f8	 mov	 edx, DWORD PTR _this$[ebp]
  0040e	8b 85 e0 fe ff
	ff		 mov	 eax, DWORD PTR _n$220558[ebp]
  00414	89 44 0a 24	 mov	 DWORD PTR [edx+ecx+36], eax

; 84   : 				this->NumberResPrem[this->CountRes].Exp = n[1];

  00418	8b 45 f8	 mov	 eax, DWORD PTR _this$[ebp]
  0041b	8b 88 04 2f 00
	00		 mov	 ecx, DWORD PTR [eax+12036]
  00421	6b c9 0c	 imul	 ecx, 12			; 0000000cH
  00424	8b 55 f8	 mov	 edx, DWORD PTR _this$[ebp]
  00427	8b 85 e4 fe ff
	ff		 mov	 eax, DWORD PTR _n$220558[ebp+4]
  0042d	89 44 0a 28	 mov	 DWORD PTR [edx+ecx+40], eax

; 85   : 				this->NumberResPrem[this->CountRes].Zen = n[2];

  00431	8b 45 f8	 mov	 eax, DWORD PTR _this$[ebp]
  00434	8b 88 04 2f 00
	00		 mov	 ecx, DWORD PTR [eax+12036]
  0043a	6b c9 0c	 imul	 ecx, 12			; 0000000cH
  0043d	8b 55 f8	 mov	 edx, DWORD PTR _this$[ebp]
  00440	8b 85 e8 fe ff
	ff		 mov	 eax, DWORD PTR _n$220558[ebp+8]
  00446	89 44 0a 2c	 mov	 DWORD PTR [edx+ecx+44], eax

; 86   : 				this->CountRes++;

  0044a	8b 45 f8	 mov	 eax, DWORD PTR _this$[ebp]
  0044d	8b 88 04 2f 00
	00		 mov	 ecx, DWORD PTR [eax+12036]
  00453	83 c1 01	 add	 ecx, 1
  00456	8b 55 f8	 mov	 edx, DWORD PTR _this$[ebp]
  00459	89 8a 04 2f 00
	00		 mov	 DWORD PTR [edx+12036], ecx
$LN2@Loader:

; 87   : 			}
; 88   : 		}

  0045f	e9 06 ff ff ff	 jmp	 $LN5@Loader
$LN4@Loader:

; 89   : 		fclose(file);

  00464	8b 45 f0	 mov	 eax, DWORD PTR _file$220546[ebp]
  00467	50		 push	 eax
  00468	e8 00 00 00 00	 call	 _fclose
  0046d	83 c4 04	 add	 esp, 4
$LN16@Loader:

; 90   : 	
; 91   : 	}
; 92   : 
; 93   : #ifdef _BUY_VIP_FOR_CRED_
; 94   : 	this->BuyVipCred = GetPrivateProfileInt("Common","BuyVipCred",1,PREMIUM_DIR);
; 95   : #endif
; 96   : }

  00470	5f		 pop	 edi
  00471	5e		 pop	 esi
  00472	5b		 pop	 ebx
  00473	8b 4d fc	 mov	 ecx, DWORD PTR __$ArrayPad$[ebp]
  00476	33 cd		 xor	 ecx, ebp
  00478	e8 00 00 00 00	 call	 @__security_check_cookie@4
  0047d	8b e5		 mov	 esp, ebp
  0047f	5d		 pop	 ebp
  00480	c3		 ret	 0
?Loader@PremiumSystem@@QAEXXZ ENDP			; PremiumSystem::Loader
_TEXT	ENDS
PUBLIC	??_C@_0BP@IGJHGDCF@?$EA?$FLPremium?5Status?$FN?5Time?5is?5over?$AA@ ; `string'
PUBLIC	?TickTime@PremiumSystem@@QAEXH@Z		; PremiumSystem::TickTime
EXTRN	?MessageChat@@YAXHPADZZ:PROC			; MessageChat
EXTRN	?gObj@@3PAUOBJECTSTRUCT@@A:DWORD		; gObj
;	COMDAT ??_C@_0BP@IGJHGDCF@?$EA?$FLPremium?5Status?$FN?5Time?5is?5over?$AA@
CONST	SEGMENT
??_C@_0BP@IGJHGDCF@?$EA?$FLPremium?5Status?$FN?5Time?5is?5over?$AA@ DB '@'
	DB	'[Premium Status] Time is over', 00H		; `string'
; Function compile flags: /Odtp /ZI
CONST	ENDS
_TEXT	SEGMENT
_lpObj$ = -8						; size = 4
_this$ = -4						; size = 4
_aIndex$ = 8						; size = 4
?TickTime@PremiumSystem@@QAEXH@Z PROC			; PremiumSystem::TickTime
; _this$ = ecx

; 99   : {

  00490	55		 push	 ebp
  00491	8b ec		 mov	 ebp, esp
  00493	83 ec 48	 sub	 esp, 72			; 00000048H
  00496	53		 push	 ebx
  00497	56		 push	 esi
  00498	57		 push	 edi
  00499	89 4d fc	 mov	 DWORD PTR _this$[ebp], ecx

; 100  : 	if(!this->Enable) return;

  0049c	8b 45 fc	 mov	 eax, DWORD PTR _this$[ebp]
  0049f	83 38 00	 cmp	 DWORD PTR [eax], 0
  004a2	75 05		 jne	 SHORT $LN8@TickTime
  004a4	e9 e1 00 00 00	 jmp	 $LN9@TickTime
$LN8@TickTime:

; 101  : 	LPOBJ lpObj = &gObj[aIndex];

  004a9	8b 45 08	 mov	 eax, DWORD PTR _aIndex$[ebp]
  004ac	69 c0 38 2b 00
	00		 imul	 eax, 11064		; 00002b38H
  004b2	03 05 00 00 00
	00		 add	 eax, DWORD PTR ?gObj@@3PAUOBJECTSTRUCT@@A ; gObj
  004b8	89 45 f8	 mov	 DWORD PTR _lpObj$[ebp], eax

; 102  : 	if(g_ExLicense.CheckUser(eExUB::PrideMuLocal) || g_ExLicense.CheckUser(eExUB::PrideMu) || g_ExLicense.CheckUser(eExUB::Local))

  004bb	6a 1a		 push	 26			; 0000001aH
  004bd	b9 00 00 00 00	 mov	 ecx, OFFSET ?g_ExLicense@@3VCExLicense@@A ; g_ExLicense
  004c2	e8 00 00 00 00	 call	 ?CheckUser@CExLicense@@QAE_NH@Z ; CExLicense::CheckUser
  004c7	0f b6 c0	 movzx	 eax, al
  004ca	85 c0		 test	 eax, eax
  004cc	75 26		 jne	 SHORT $LN6@TickTime
  004ce	6a 11		 push	 17			; 00000011H
  004d0	b9 00 00 00 00	 mov	 ecx, OFFSET ?g_ExLicense@@3VCExLicense@@A ; g_ExLicense
  004d5	e8 00 00 00 00	 call	 ?CheckUser@CExLicense@@QAE_NH@Z ; CExLicense::CheckUser
  004da	0f b6 c0	 movzx	 eax, al
  004dd	85 c0		 test	 eax, eax
  004df	75 13		 jne	 SHORT $LN6@TickTime
  004e1	6a 00		 push	 0
  004e3	b9 00 00 00 00	 mov	 ecx, OFFSET ?g_ExLicense@@3VCExLicense@@A ; g_ExLicense
  004e8	e8 00 00 00 00	 call	 ?CheckUser@CExLicense@@QAE_NH@Z ; CExLicense::CheckUser
  004ed	0f b6 c0	 movzx	 eax, al
  004f0	85 c0		 test	 eax, eax
  004f2	74 58		 je	 SHORT $LN7@TickTime
$LN6@TickTime:

; 103  : 	{
; 104  : 		if((lpObj->PremiumTime > 0) && (!lpObj->OffTrade) && (!lpObj->OffExp))

  004f4	8b 45 f8	 mov	 eax, DWORD PTR _lpObj$[ebp]
  004f7	83 b8 b8 22 00
	00 00		 cmp	 DWORD PTR [eax+8888], 0
  004fe	7e 4a		 jle	 SHORT $LN5@TickTime
  00500	8b 45 f8	 mov	 eax, DWORD PTR _lpObj$[ebp]
  00503	83 b8 ac 22 00
	00 00		 cmp	 DWORD PTR [eax+8876], 0
  0050a	75 3e		 jne	 SHORT $LN5@TickTime
  0050c	8b 45 f8	 mov	 eax, DWORD PTR _lpObj$[ebp]
  0050f	83 b8 98 22 00
	00 00		 cmp	 DWORD PTR [eax+8856], 0
  00516	75 32		 jne	 SHORT $LN5@TickTime

; 105  : 		{
; 106  : 			lpObj->PremiumTime--;

  00518	8b 45 f8	 mov	 eax, DWORD PTR _lpObj$[ebp]
  0051b	8b 88 b8 22 00
	00		 mov	 ecx, DWORD PTR [eax+8888]
  00521	83 e9 01	 sub	 ecx, 1
  00524	8b 55 f8	 mov	 edx, DWORD PTR _lpObj$[ebp]
  00527	89 8a b8 22 00
	00		 mov	 DWORD PTR [edx+8888], ecx

; 107  : 			if(lpObj->PremiumTime == 0)

  0052d	8b 45 f8	 mov	 eax, DWORD PTR _lpObj$[ebp]
  00530	83 b8 b8 22 00
	00 00		 cmp	 DWORD PTR [eax+8888], 0
  00537	75 11		 jne	 SHORT $LN5@TickTime

; 108  : 			{
; 109  : 				MessageChat(aIndex,"@[Premium Status] Time is over");

  00539	68 00 00 00 00	 push	 OFFSET ??_C@_0BP@IGJHGDCF@?$EA?$FLPremium?5Status?$FN?5Time?5is?5over?$AA@
  0053e	8b 45 08	 mov	 eax, DWORD PTR _aIndex$[ebp]
  00541	50		 push	 eax
  00542	e8 00 00 00 00	 call	 ?MessageChat@@YAXHPADZZ	; MessageChat
  00547	83 c4 08	 add	 esp, 8
$LN5@TickTime:

; 110  : 			}
; 111  : 		}
; 112  : 	}
; 113  : 	else

  0054a	eb 3e		 jmp	 SHORT $LN9@TickTime
$LN7@TickTime:

; 114  : 	{
; 115  : 		if(lpObj->PremiumTime > 0)

  0054c	8b 45 f8	 mov	 eax, DWORD PTR _lpObj$[ebp]
  0054f	83 b8 b8 22 00
	00 00		 cmp	 DWORD PTR [eax+8888], 0
  00556	7e 32		 jle	 SHORT $LN9@TickTime

; 116  : 		{
; 117  : 			lpObj->PremiumTime--;

  00558	8b 45 f8	 mov	 eax, DWORD PTR _lpObj$[ebp]
  0055b	8b 88 b8 22 00
	00		 mov	 ecx, DWORD PTR [eax+8888]
  00561	83 e9 01	 sub	 ecx, 1
  00564	8b 55 f8	 mov	 edx, DWORD PTR _lpObj$[ebp]
  00567	89 8a b8 22 00
	00		 mov	 DWORD PTR [edx+8888], ecx

; 118  : 			if(lpObj->PremiumTime == 0)

  0056d	8b 45 f8	 mov	 eax, DWORD PTR _lpObj$[ebp]
  00570	83 b8 b8 22 00
	00 00		 cmp	 DWORD PTR [eax+8888], 0
  00577	75 11		 jne	 SHORT $LN9@TickTime

; 119  : 			{
; 120  : 				MessageChat(aIndex,"@[Premium Status] Time is over");

  00579	68 00 00 00 00	 push	 OFFSET ??_C@_0BP@IGJHGDCF@?$EA?$FLPremium?5Status?$FN?5Time?5is?5over?$AA@
  0057e	8b 45 08	 mov	 eax, DWORD PTR _aIndex$[ebp]
  00581	50		 push	 eax
  00582	e8 00 00 00 00	 call	 ?MessageChat@@YAXHPADZZ	; MessageChat
  00587	83 c4 08	 add	 esp, 8
$LN9@TickTime:

; 121  : 			}
; 122  : 		}
; 123  : 	}
; 124  : }

  0058a	5f		 pop	 edi
  0058b	5e		 pop	 esi
  0058c	5b		 pop	 ebx
  0058d	8b e5		 mov	 esp, ebp
  0058f	5d		 pop	 ebp
  00590	c2 04 00	 ret	 4
?TickTime@PremiumSystem@@QAEXH@Z ENDP			; PremiumSystem::TickTime
_TEXT	ENDS
PUBLIC	?Exp@PremiumSystem@@QAEXPAUOBJECTSTRUCT@@AA_J@Z	; PremiumSystem::Exp
EXTRN	__alldiv:PROC
EXTRN	__allmul:PROC
; Function compile flags: /Odtp /ZI
_TEXT	SEGMENT
_i$220583 = -8						; size = 4
_this$ = -4						; size = 4
_lpObj$ = 8						; size = 4
_Experience$ = 12					; size = 4
?Exp@PremiumSystem@@QAEXPAUOBJECTSTRUCT@@AA_J@Z PROC	; PremiumSystem::Exp
; _this$ = ecx

; 127  : {

  005a0	55		 push	 ebp
  005a1	8b ec		 mov	 ebp, esp
  005a3	83 ec 48	 sub	 esp, 72			; 00000048H
  005a6	53		 push	 ebx
  005a7	56		 push	 esi
  005a8	57		 push	 edi
  005a9	89 4d fc	 mov	 DWORD PTR _this$[ebp], ecx

; 128  : 	if(!this->Enable) return;

  005ac	8b 45 fc	 mov	 eax, DWORD PTR _this$[ebp]
  005af	83 38 00	 cmp	 DWORD PTR [eax], 0
  005b2	75 05		 jne	 SHORT $LN15@Exp
  005b4	e9 04 02 00 00	 jmp	 $LN16@Exp
$LN15@Exp:

; 129  : 	if(lpObj->PremiumTime > 0)

  005b9	8b 45 08	 mov	 eax, DWORD PTR _lpObj$[ebp]
  005bc	83 b8 b8 22 00
	00 00		 cmp	 DWORD PTR [eax+8888], 0
  005c3	0f 8e f4 01 00
	00		 jle	 $LN16@Exp

; 130  : 	{
; 131  : 		if(g_ExLicense.CheckUser(eExUB::PrideMuLocal) || g_ExLicense.CheckUser(eExUB::PrideMu) || g_ExLicense.CheckUser(eExUB::Local3) || g_ExLicense.CheckUser(eExUB::Local))

  005c9	6a 1a		 push	 26			; 0000001aH
  005cb	b9 00 00 00 00	 mov	 ecx, OFFSET ?g_ExLicense@@3VCExLicense@@A ; g_ExLicense
  005d0	e8 00 00 00 00	 call	 ?CheckUser@CExLicense@@QAE_NH@Z ; CExLicense::CheckUser
  005d5	0f b6 c0	 movzx	 eax, al
  005d8	85 c0		 test	 eax, eax
  005da	75 39		 jne	 SHORT $LN12@Exp
  005dc	6a 11		 push	 17			; 00000011H
  005de	b9 00 00 00 00	 mov	 ecx, OFFSET ?g_ExLicense@@3VCExLicense@@A ; g_ExLicense
  005e3	e8 00 00 00 00	 call	 ?CheckUser@CExLicense@@QAE_NH@Z ; CExLicense::CheckUser
  005e8	0f b6 c0	 movzx	 eax, al
  005eb	85 c0		 test	 eax, eax
  005ed	75 26		 jne	 SHORT $LN12@Exp
  005ef	6a 1c		 push	 28			; 0000001cH
  005f1	b9 00 00 00 00	 mov	 ecx, OFFSET ?g_ExLicense@@3VCExLicense@@A ; g_ExLicense
  005f6	e8 00 00 00 00	 call	 ?CheckUser@CExLicense@@QAE_NH@Z ; CExLicense::CheckUser
  005fb	0f b6 c0	 movzx	 eax, al
  005fe	85 c0		 test	 eax, eax
  00600	75 13		 jne	 SHORT $LN12@Exp
  00602	6a 00		 push	 0
  00604	b9 00 00 00 00	 mov	 ecx, OFFSET ?g_ExLicense@@3VCExLicense@@A ; g_ExLicense
  00609	e8 00 00 00 00	 call	 ?CheckUser@CExLicense@@QAE_NH@Z ; CExLicense::CheckUser
  0060e	0f b6 c0	 movzx	 eax, al
  00611	85 c0		 test	 eax, eax
  00613	74 79		 je	 SHORT $LN13@Exp
$LN12@Exp:

; 132  : 		{
; 133  : 			for(int i=0;i<this->CountRes;i++)

  00615	c7 45 f8 00 00
	00 00		 mov	 DWORD PTR _i$220583[ebp], 0
  0061c	eb 09		 jmp	 SHORT $LN11@Exp
$LN10@Exp:
  0061e	8b 45 f8	 mov	 eax, DWORD PTR _i$220583[ebp]
  00621	83 c0 01	 add	 eax, 1
  00624	89 45 f8	 mov	 DWORD PTR _i$220583[ebp], eax
$LN11@Exp:
  00627	8b 45 fc	 mov	 eax, DWORD PTR _this$[ebp]
  0062a	8b 4d f8	 mov	 ecx, DWORD PTR _i$220583[ebp]
  0062d	3b 88 04 2f 00
	00		 cmp	 ecx, DWORD PTR [eax+12036]
  00633	7d 54		 jge	 SHORT $LN9@Exp

; 134  : 			{
; 135  : 				if(this->NumberResPrem[i].Res == lpObj->Reset)

  00635	8b 45 f8	 mov	 eax, DWORD PTR _i$220583[ebp]
  00638	6b c0 0c	 imul	 eax, 12			; 0000000cH
  0063b	8b 4d fc	 mov	 ecx, DWORD PTR _this$[ebp]
  0063e	8b 55 08	 mov	 edx, DWORD PTR _lpObj$[ebp]
  00641	8b 44 01 24	 mov	 eax, DWORD PTR [ecx+eax+36]
  00645	3b 82 90 22 00
	00		 cmp	 eax, DWORD PTR [edx+8848]
  0064b	75 3a		 jne	 SHORT $LN8@Exp

; 136  : 				{
; 137  : 					Experience += (( Experience * this->NumberResPrem[i].Exp ) / 100 );

  0064d	8b 45 f8	 mov	 eax, DWORD PTR _i$220583[ebp]
  00650	6b c0 0c	 imul	 eax, 12			; 0000000cH
  00653	8b 4d fc	 mov	 ecx, DWORD PTR _this$[ebp]
  00656	8b 44 01 28	 mov	 eax, DWORD PTR [ecx+eax+40]
  0065a	99		 cdq
  0065b	8b 4d 0c	 mov	 ecx, DWORD PTR _Experience$[ebp]
  0065e	52		 push	 edx
  0065f	50		 push	 eax
  00660	8b 51 04	 mov	 edx, DWORD PTR [ecx+4]
  00663	52		 push	 edx
  00664	8b 01		 mov	 eax, DWORD PTR [ecx]
  00666	50		 push	 eax
  00667	e8 00 00 00 00	 call	 __allmul
  0066c	6a 00		 push	 0
  0066e	6a 64		 push	 100			; 00000064H
  00670	52		 push	 edx
  00671	50		 push	 eax
  00672	e8 00 00 00 00	 call	 __alldiv
  00677	8b 4d 0c	 mov	 ecx, DWORD PTR _Experience$[ebp]
  0067a	03 01		 add	 eax, DWORD PTR [ecx]
  0067c	13 51 04	 adc	 edx, DWORD PTR [ecx+4]
  0067f	8b 4d 0c	 mov	 ecx, DWORD PTR _Experience$[ebp]
  00682	89 01		 mov	 DWORD PTR [ecx], eax
  00684	89 51 04	 mov	 DWORD PTR [ecx+4], edx
$LN8@Exp:

; 138  : 				}
; 139  : 			}

  00687	eb 95		 jmp	 SHORT $LN10@Exp
$LN9@Exp:

; 140  : 		}
; 141  : #ifdef PREM_TYPE
; 142  : 		else if(g_ExLicense.CheckUser(eExUB::Local) || g_ExLicense.CheckUser(eExUB::ulasevich) || g_ExLicense.CheckUser(eExUB::ulasevich2))

  00689	e9 2f 01 00 00	 jmp	 $LN16@Exp
$LN13@Exp:
  0068e	6a 00		 push	 0
  00690	b9 00 00 00 00	 mov	 ecx, OFFSET ?g_ExLicense@@3VCExLicense@@A ; g_ExLicense
  00695	e8 00 00 00 00	 call	 ?CheckUser@CExLicense@@QAE_NH@Z ; CExLicense::CheckUser
  0069a	0f b6 c0	 movzx	 eax, al
  0069d	85 c0		 test	 eax, eax
  0069f	75 2a		 jne	 SHORT $LN5@Exp
  006a1	6a 17		 push	 23			; 00000017H
  006a3	b9 00 00 00 00	 mov	 ecx, OFFSET ?g_ExLicense@@3VCExLicense@@A ; g_ExLicense
  006a8	e8 00 00 00 00	 call	 ?CheckUser@CExLicense@@QAE_NH@Z ; CExLicense::CheckUser
  006ad	0f b6 c0	 movzx	 eax, al
  006b0	85 c0		 test	 eax, eax
  006b2	75 17		 jne	 SHORT $LN5@Exp
  006b4	6a 24		 push	 36			; 00000024H
  006b6	b9 00 00 00 00	 mov	 ecx, OFFSET ?g_ExLicense@@3VCExLicense@@A ; g_ExLicense
  006bb	e8 00 00 00 00	 call	 ?CheckUser@CExLicense@@QAE_NH@Z ; CExLicense::CheckUser
  006c0	0f b6 c0	 movzx	 eax, al
  006c3	85 c0		 test	 eax, eax
  006c5	0f 84 bf 00 00
	00		 je	 $LN6@Exp
$LN5@Exp:

; 143  : 		{
; 144  : 			if (lpObj->PremiumTimeType == PREM_BRONZE)

  006cb	8b 45 08	 mov	 eax, DWORD PTR _lpObj$[ebp]
  006ce	83 b8 bc 22 00
	00 01		 cmp	 DWORD PTR [eax+8892], 1
  006d5	75 33		 jne	 SHORT $LN4@Exp

; 145  : 			{
; 146  : 				Experience += (( Experience * this->BronzePlusExp) / 100 );

  006d7	8b 45 fc	 mov	 eax, DWORD PTR _this$[ebp]
  006da	8b 40 0c	 mov	 eax, DWORD PTR [eax+12]
  006dd	99		 cdq
  006de	8b 4d 0c	 mov	 ecx, DWORD PTR _Experience$[ebp]
  006e1	52		 push	 edx
  006e2	50		 push	 eax
  006e3	8b 51 04	 mov	 edx, DWORD PTR [ecx+4]
  006e6	52		 push	 edx
  006e7	8b 01		 mov	 eax, DWORD PTR [ecx]
  006e9	50		 push	 eax
  006ea	e8 00 00 00 00	 call	 __allmul
  006ef	6a 00		 push	 0
  006f1	6a 64		 push	 100			; 00000064H
  006f3	52		 push	 edx
  006f4	50		 push	 eax
  006f5	e8 00 00 00 00	 call	 __alldiv
  006fa	8b 4d 0c	 mov	 ecx, DWORD PTR _Experience$[ebp]
  006fd	03 01		 add	 eax, DWORD PTR [ecx]
  006ff	13 51 04	 adc	 edx, DWORD PTR [ecx+4]
  00702	8b 4d 0c	 mov	 ecx, DWORD PTR _Experience$[ebp]
  00705	89 01		 mov	 DWORD PTR [ecx], eax
  00707	89 51 04	 mov	 DWORD PTR [ecx+4], edx
$LN4@Exp:

; 147  : 			}
; 148  : 			if (lpObj->PremiumTimeType == PREM_SILVER)

  0070a	8b 45 08	 mov	 eax, DWORD PTR _lpObj$[ebp]
  0070d	83 b8 bc 22 00
	00 02		 cmp	 DWORD PTR [eax+8892], 2
  00714	75 33		 jne	 SHORT $LN3@Exp

; 149  : 			{
; 150  : 				Experience += (( Experience * this->SilverPlusExp ) / 100 );

  00716	8b 45 fc	 mov	 eax, DWORD PTR _this$[ebp]
  00719	8b 40 14	 mov	 eax, DWORD PTR [eax+20]
  0071c	99		 cdq
  0071d	8b 4d 0c	 mov	 ecx, DWORD PTR _Experience$[ebp]
  00720	52		 push	 edx
  00721	50		 push	 eax
  00722	8b 51 04	 mov	 edx, DWORD PTR [ecx+4]
  00725	52		 push	 edx
  00726	8b 01		 mov	 eax, DWORD PTR [ecx]
  00728	50		 push	 eax
  00729	e8 00 00 00 00	 call	 __allmul
  0072e	6a 00		 push	 0
  00730	6a 64		 push	 100			; 00000064H
  00732	52		 push	 edx
  00733	50		 push	 eax
  00734	e8 00 00 00 00	 call	 __alldiv
  00739	8b 4d 0c	 mov	 ecx, DWORD PTR _Experience$[ebp]
  0073c	03 01		 add	 eax, DWORD PTR [ecx]
  0073e	13 51 04	 adc	 edx, DWORD PTR [ecx+4]
  00741	8b 4d 0c	 mov	 ecx, DWORD PTR _Experience$[ebp]
  00744	89 01		 mov	 DWORD PTR [ecx], eax
  00746	89 51 04	 mov	 DWORD PTR [ecx+4], edx
$LN3@Exp:

; 151  : 			}
; 152  : 			if (lpObj->PremiumTimeType == PREM_GOLD)

  00749	8b 45 08	 mov	 eax, DWORD PTR _lpObj$[ebp]
  0074c	83 b8 bc 22 00
	00 03		 cmp	 DWORD PTR [eax+8892], 3
  00753	75 33		 jne	 SHORT $LN2@Exp

; 153  : 			{
; 154  : 				Experience += (( Experience * this->GoldPlusExp) / 100 );

  00755	8b 45 fc	 mov	 eax, DWORD PTR _this$[ebp]
  00758	8b 40 1c	 mov	 eax, DWORD PTR [eax+28]
  0075b	99		 cdq
  0075c	8b 4d 0c	 mov	 ecx, DWORD PTR _Experience$[ebp]
  0075f	52		 push	 edx
  00760	50		 push	 eax
  00761	8b 51 04	 mov	 edx, DWORD PTR [ecx+4]
  00764	52		 push	 edx
  00765	8b 01		 mov	 eax, DWORD PTR [ecx]
  00767	50		 push	 eax
  00768	e8 00 00 00 00	 call	 __allmul
  0076d	6a 00		 push	 0
  0076f	6a 64		 push	 100			; 00000064H
  00771	52		 push	 edx
  00772	50		 push	 eax
  00773	e8 00 00 00 00	 call	 __alldiv
  00778	8b 4d 0c	 mov	 ecx, DWORD PTR _Experience$[ebp]
  0077b	03 01		 add	 eax, DWORD PTR [ecx]
  0077d	13 51 04	 adc	 edx, DWORD PTR [ecx+4]
  00780	8b 4d 0c	 mov	 ecx, DWORD PTR _Experience$[ebp]
  00783	89 01		 mov	 DWORD PTR [ecx], eax
  00785	89 51 04	 mov	 DWORD PTR [ecx+4], edx
$LN2@Exp:

; 155  : 			}
; 156  : 
; 157  : 		}
; 158  : #endif
; 159  : 		else 

  00788	eb 33		 jmp	 SHORT $LN16@Exp
$LN6@Exp:

; 160  : 		{
; 161  : 			Experience += (( Experience * this->PlusExp ) / 100 );

  0078a	8b 45 fc	 mov	 eax, DWORD PTR _this$[ebp]
  0078d	8b 40 04	 mov	 eax, DWORD PTR [eax+4]
  00790	99		 cdq
  00791	8b 4d 0c	 mov	 ecx, DWORD PTR _Experience$[ebp]
  00794	52		 push	 edx
  00795	50		 push	 eax
  00796	8b 51 04	 mov	 edx, DWORD PTR [ecx+4]
  00799	52		 push	 edx
  0079a	8b 01		 mov	 eax, DWORD PTR [ecx]
  0079c	50		 push	 eax
  0079d	e8 00 00 00 00	 call	 __allmul
  007a2	6a 00		 push	 0
  007a4	6a 64		 push	 100			; 00000064H
  007a6	52		 push	 edx
  007a7	50		 push	 eax
  007a8	e8 00 00 00 00	 call	 __alldiv
  007ad	8b 4d 0c	 mov	 ecx, DWORD PTR _Experience$[ebp]
  007b0	03 01		 add	 eax, DWORD PTR [ecx]
  007b2	13 51 04	 adc	 edx, DWORD PTR [ecx+4]
  007b5	8b 4d 0c	 mov	 ecx, DWORD PTR _Experience$[ebp]
  007b8	89 01		 mov	 DWORD PTR [ecx], eax
  007ba	89 51 04	 mov	 DWORD PTR [ecx+4], edx
$LN16@Exp:

; 162  : 		}
; 163  : 	}
; 164  : }

  007bd	5f		 pop	 edi
  007be	5e		 pop	 esi
  007bf	5b		 pop	 ebx
  007c0	8b e5		 mov	 esp, ebp
  007c2	5d		 pop	 ebp
  007c3	c2 08 00	 ret	 8
?Exp@PremiumSystem@@QAEXPAUOBJECTSTRUCT@@AA_J@Z ENDP	; PremiumSystem::Exp
_TEXT	ENDS
PUBLIC	__real@4059000000000000
PUBLIC	?Zen@PremiumSystem@@QAEXPAUOBJECTSTRUCT@@AAM@Z	; PremiumSystem::Zen
EXTRN	__fltused:DWORD
;	COMDAT __real@4059000000000000
CONST	SEGMENT
__real@4059000000000000 DQ 04059000000000000r	; 100
; Function compile flags: /Odtp /ZI
CONST	ENDS
_TEXT	SEGMENT
_i$220604 = -8						; size = 4
_this$ = -4						; size = 4
_lpObj$ = 8						; size = 4
_money$ = 12						; size = 4
?Zen@PremiumSystem@@QAEXPAUOBJECTSTRUCT@@AAM@Z PROC	; PremiumSystem::Zen
; _this$ = ecx

; 167  : {

  007d0	55		 push	 ebp
  007d1	8b ec		 mov	 ebp, esp
  007d3	83 ec 48	 sub	 esp, 72			; 00000048H
  007d6	53		 push	 ebx
  007d7	56		 push	 esi
  007d8	57		 push	 edi
  007d9	89 4d fc	 mov	 DWORD PTR _this$[ebp], ecx

; 168  : 	if(!this->Enable) return;

  007dc	8b 45 fc	 mov	 eax, DWORD PTR _this$[ebp]
  007df	83 38 00	 cmp	 DWORD PTR [eax], 0
  007e2	75 05		 jne	 SHORT $LN15@Zen
  007e4	e9 88 01 00 00	 jmp	 $LN16@Zen
$LN15@Zen:

; 169  : 	if(lpObj->PremiumTime > 0)

  007e9	8b 45 08	 mov	 eax, DWORD PTR _lpObj$[ebp]
  007ec	83 b8 b8 22 00
	00 00		 cmp	 DWORD PTR [eax+8888], 0
  007f3	0f 8e 78 01 00
	00		 jle	 $LN1@Zen

; 170  : 	{
; 171  : 
; 172  : 		if(g_ExLicense.CheckUser(eExUB::PrideMuLocal) || g_ExLicense.CheckUser(eExUB::PrideMu) || g_ExLicense.CheckUser(eExUB::Local3) || g_ExLicense.CheckUser(eExUB::Local))

  007f9	6a 1a		 push	 26			; 0000001aH
  007fb	b9 00 00 00 00	 mov	 ecx, OFFSET ?g_ExLicense@@3VCExLicense@@A ; g_ExLicense
  00800	e8 00 00 00 00	 call	 ?CheckUser@CExLicense@@QAE_NH@Z ; CExLicense::CheckUser
  00805	0f b6 c0	 movzx	 eax, al
  00808	85 c0		 test	 eax, eax
  0080a	75 39		 jne	 SHORT $LN12@Zen
  0080c	6a 11		 push	 17			; 00000011H
  0080e	b9 00 00 00 00	 mov	 ecx, OFFSET ?g_ExLicense@@3VCExLicense@@A ; g_ExLicense
  00813	e8 00 00 00 00	 call	 ?CheckUser@CExLicense@@QAE_NH@Z ; CExLicense::CheckUser
  00818	0f b6 c0	 movzx	 eax, al
  0081b	85 c0		 test	 eax, eax
  0081d	75 26		 jne	 SHORT $LN12@Zen
  0081f	6a 1c		 push	 28			; 0000001cH
  00821	b9 00 00 00 00	 mov	 ecx, OFFSET ?g_ExLicense@@3VCExLicense@@A ; g_ExLicense
  00826	e8 00 00 00 00	 call	 ?CheckUser@CExLicense@@QAE_NH@Z ; CExLicense::CheckUser
  0082b	0f b6 c0	 movzx	 eax, al
  0082e	85 c0		 test	 eax, eax
  00830	75 13		 jne	 SHORT $LN12@Zen
  00832	6a 00		 push	 0
  00834	b9 00 00 00 00	 mov	 ecx, OFFSET ?g_ExLicense@@3VCExLicense@@A ; g_ExLicense
  00839	e8 00 00 00 00	 call	 ?CheckUser@CExLicense@@QAE_NH@Z ; CExLicense::CheckUser
  0083e	0f b6 c0	 movzx	 eax, al
  00841	85 c0		 test	 eax, eax
  00843	74 61		 je	 SHORT $LN13@Zen
$LN12@Zen:

; 173  : 		{
; 174  : 			for(int i=0;i<this->CountRes;i++)

  00845	c7 45 f8 00 00
	00 00		 mov	 DWORD PTR _i$220604[ebp], 0
  0084c	eb 09		 jmp	 SHORT $LN11@Zen
$LN10@Zen:
  0084e	8b 45 f8	 mov	 eax, DWORD PTR _i$220604[ebp]
  00851	83 c0 01	 add	 eax, 1
  00854	89 45 f8	 mov	 DWORD PTR _i$220604[ebp], eax
$LN11@Zen:
  00857	8b 45 fc	 mov	 eax, DWORD PTR _this$[ebp]
  0085a	8b 4d f8	 mov	 ecx, DWORD PTR _i$220604[ebp]
  0085d	3b 88 04 2f 00
	00		 cmp	 ecx, DWORD PTR [eax+12036]
  00863	7d 3c		 jge	 SHORT $LN9@Zen

; 175  : 			{
; 176  : 				if(this->NumberResPrem[i].Res == lpObj->Reset)

  00865	8b 45 f8	 mov	 eax, DWORD PTR _i$220604[ebp]
  00868	6b c0 0c	 imul	 eax, 12			; 0000000cH
  0086b	8b 4d fc	 mov	 ecx, DWORD PTR _this$[ebp]
  0086e	8b 55 08	 mov	 edx, DWORD PTR _lpObj$[ebp]
  00871	8b 44 01 24	 mov	 eax, DWORD PTR [ecx+eax+36]
  00875	3b 82 90 22 00
	00		 cmp	 eax, DWORD PTR [edx+8848]
  0087b	75 22		 jne	 SHORT $LN8@Zen

; 177  : 				{
; 178  : 					money += (( money * this->NumberResPrem[i].Zen ) / 100 );

  0087d	8b 45 f8	 mov	 eax, DWORD PTR _i$220604[ebp]
  00880	6b c0 0c	 imul	 eax, 12			; 0000000cH
  00883	8b 4d fc	 mov	 ecx, DWORD PTR _this$[ebp]
  00886	db 44 01 2c	 fild	 DWORD PTR [ecx+eax+44]
  0088a	8b 55 0c	 mov	 edx, DWORD PTR _money$[ebp]
  0088d	d8 0a		 fmul	 DWORD PTR [edx]
  0088f	dc 35 00 00 00
	00		 fdiv	 QWORD PTR __real@4059000000000000
  00895	8b 45 0c	 mov	 eax, DWORD PTR _money$[ebp]
  00898	d8 00		 fadd	 DWORD PTR [eax]
  0089a	8b 4d 0c	 mov	 ecx, DWORD PTR _money$[ebp]
  0089d	d9 19		 fstp	 DWORD PTR [ecx]
$LN8@Zen:

; 179  : 				}
; 180  : 			}

  0089f	eb ad		 jmp	 SHORT $LN10@Zen
$LN9@Zen:

; 181  : 		}
; 182  : #ifdef PREM_TYPE
; 183  : 		else if(g_ExLicense.CheckUser(eExUB::Local) || g_ExLicense.CheckUser(eExUB::ulasevich) || g_ExLicense.CheckUser(eExUB::ulasevich2))

  008a1	e9 cb 00 00 00	 jmp	 $LN1@Zen
$LN13@Zen:
  008a6	6a 00		 push	 0
  008a8	b9 00 00 00 00	 mov	 ecx, OFFSET ?g_ExLicense@@3VCExLicense@@A ; g_ExLicense
  008ad	e8 00 00 00 00	 call	 ?CheckUser@CExLicense@@QAE_NH@Z ; CExLicense::CheckUser
  008b2	0f b6 c0	 movzx	 eax, al
  008b5	85 c0		 test	 eax, eax
  008b7	75 26		 jne	 SHORT $LN5@Zen
  008b9	6a 17		 push	 23			; 00000017H
  008bb	b9 00 00 00 00	 mov	 ecx, OFFSET ?g_ExLicense@@3VCExLicense@@A ; g_ExLicense
  008c0	e8 00 00 00 00	 call	 ?CheckUser@CExLicense@@QAE_NH@Z ; CExLicense::CheckUser
  008c5	0f b6 c0	 movzx	 eax, al
  008c8	85 c0		 test	 eax, eax
  008ca	75 13		 jne	 SHORT $LN5@Zen
  008cc	6a 24		 push	 36			; 00000024H
  008ce	b9 00 00 00 00	 mov	 ecx, OFFSET ?g_ExLicense@@3VCExLicense@@A ; g_ExLicense
  008d3	e8 00 00 00 00	 call	 ?CheckUser@CExLicense@@QAE_NH@Z ; CExLicense::CheckUser
  008d8	0f b6 c0	 movzx	 eax, al
  008db	85 c0		 test	 eax, eax
  008dd	74 77		 je	 SHORT $LN6@Zen
$LN5@Zen:

; 184  : 		{
; 185  : 			if (lpObj->PremiumTimeType == PREM_BRONZE)

  008df	8b 45 08	 mov	 eax, DWORD PTR _lpObj$[ebp]
  008e2	83 b8 bc 22 00
	00 01		 cmp	 DWORD PTR [eax+8892], 1
  008e9	75 1b		 jne	 SHORT $LN4@Zen

; 186  : 			{
; 187  : 				money += (( money * this->BronzePlusZen) / 100 );

  008eb	8b 45 fc	 mov	 eax, DWORD PTR _this$[ebp]
  008ee	db 40 10	 fild	 DWORD PTR [eax+16]
  008f1	8b 4d 0c	 mov	 ecx, DWORD PTR _money$[ebp]
  008f4	d8 09		 fmul	 DWORD PTR [ecx]
  008f6	dc 35 00 00 00
	00		 fdiv	 QWORD PTR __real@4059000000000000
  008fc	8b 55 0c	 mov	 edx, DWORD PTR _money$[ebp]
  008ff	d8 02		 fadd	 DWORD PTR [edx]
  00901	8b 45 0c	 mov	 eax, DWORD PTR _money$[ebp]
  00904	d9 18		 fstp	 DWORD PTR [eax]
$LN4@Zen:

; 188  : 			}
; 189  : 			if (lpObj->PremiumTimeType == PREM_SILVER)

  00906	8b 45 08	 mov	 eax, DWORD PTR _lpObj$[ebp]
  00909	83 b8 bc 22 00
	00 02		 cmp	 DWORD PTR [eax+8892], 2
  00910	75 1b		 jne	 SHORT $LN3@Zen

; 190  : 			{
; 191  : 				money += (( money * this->SilverPlusZen ) / 100 );

  00912	8b 45 fc	 mov	 eax, DWORD PTR _this$[ebp]
  00915	db 40 18	 fild	 DWORD PTR [eax+24]
  00918	8b 4d 0c	 mov	 ecx, DWORD PTR _money$[ebp]
  0091b	d8 09		 fmul	 DWORD PTR [ecx]
  0091d	dc 35 00 00 00
	00		 fdiv	 QWORD PTR __real@4059000000000000
  00923	8b 55 0c	 mov	 edx, DWORD PTR _money$[ebp]
  00926	d8 02		 fadd	 DWORD PTR [edx]
  00928	8b 45 0c	 mov	 eax, DWORD PTR _money$[ebp]
  0092b	d9 18		 fstp	 DWORD PTR [eax]
$LN3@Zen:

; 192  : 			}
; 193  : 			if (lpObj->PremiumTimeType == PREM_GOLD)

  0092d	8b 45 08	 mov	 eax, DWORD PTR _lpObj$[ebp]
  00930	83 b8 bc 22 00
	00 03		 cmp	 DWORD PTR [eax+8892], 3
  00937	75 1b		 jne	 SHORT $LN2@Zen

; 194  : 			{
; 195  : 				money += (( money * this->GoldPlusZen) / 100 );

  00939	8b 45 fc	 mov	 eax, DWORD PTR _this$[ebp]
  0093c	db 40 20	 fild	 DWORD PTR [eax+32]
  0093f	8b 4d 0c	 mov	 ecx, DWORD PTR _money$[ebp]
  00942	d8 09		 fmul	 DWORD PTR [ecx]
  00944	dc 35 00 00 00
	00		 fdiv	 QWORD PTR __real@4059000000000000
  0094a	8b 55 0c	 mov	 edx, DWORD PTR _money$[ebp]
  0094d	d8 02		 fadd	 DWORD PTR [edx]
  0094f	8b 45 0c	 mov	 eax, DWORD PTR _money$[ebp]
  00952	d9 18		 fstp	 DWORD PTR [eax]
$LN2@Zen:

; 196  : 			}
; 197  : 		}
; 198  : #endif
; 199  : 		else 

  00954	eb 1b		 jmp	 SHORT $LN1@Zen
$LN6@Zen:

; 200  : 		{
; 201  : 			money += (( money * this->PlusZen ) / 100 );

  00956	8b 45 fc	 mov	 eax, DWORD PTR _this$[ebp]
  00959	db 40 08	 fild	 DWORD PTR [eax+8]
  0095c	8b 4d 0c	 mov	 ecx, DWORD PTR _money$[ebp]
  0095f	d8 09		 fmul	 DWORD PTR [ecx]
  00961	dc 35 00 00 00
	00		 fdiv	 QWORD PTR __real@4059000000000000
  00967	8b 55 0c	 mov	 edx, DWORD PTR _money$[ebp]
  0096a	d8 02		 fadd	 DWORD PTR [edx]
  0096c	8b 45 0c	 mov	 eax, DWORD PTR _money$[ebp]
  0096f	d9 18		 fstp	 DWORD PTR [eax]
$LN1@Zen:
$LN16@Zen:

; 202  : 		}
; 203  : 	}
; 204  : }

  00971	5f		 pop	 edi
  00972	5e		 pop	 esi
  00973	5b		 pop	 ebx
  00974	8b e5		 mov	 esp, ebp
  00976	5d		 pop	 ebp
  00977	c2 08 00	 ret	 8
?Zen@PremiumSystem@@QAEXPAUOBJECTSTRUCT@@AAM@Z ENDP	; PremiumSystem::Zen
_TEXT	ENDS
PUBLIC	??_C@_0BK@GOEJIOGK@?$EA?$FLPremium?5Status?$FN?5?$CL?$CFd?5Day?$AA@ ; `string'
PUBLIC	??_C@_0N@ENCFKCNC@?1sellpremium?$AA@		; `string'
PUBLIC	??_C@_0CF@JDEKJDDL@?$EA?$FLPremium?5Status?$FN?5?$CL?$CFd?5Day?0?5Type?3@ ; `string'
PUBLIC	??_C@_0CH@LJHJGIOH@?$EA?$FLPremium?5Status?$FN?5?$CL?$CFd?5Day?0?5Type?3@ ; `string'
PUBLIC	??_C@_0CH@NBDFGILO@?$EA?$FLPremium?5Status?$FN?5?$CL?$CFd?5Day?0?5Type?3@ ; `string'
PUBLIC	??_C@_0BC@CGHJGLNF@?$FLSell?5Premium?$FN?5?$CFs?$AA@ ; `string'
PUBLIC	??_C@_05DIALNFFA@?$CFs?5?$CFd?$AA@		; `string'
PUBLIC	??_C@_0BB@LODEMFDJ@?1sellpremiumgold?$AA@	; `string'
PUBLIC	??_C@_0BD@JEHNDNK@?1sellpremiumsilver?$AA@	; `string'
PUBLIC	??_C@_0BD@GBALNDID@?1sellpremiumbronze?$AA@	; `string'
PUBLIC	__$ArrayPad$
PUBLIC	?ChatSell@PremiumSystem@@QAEXHPAE@Z		; PremiumSystem::ChatSell
EXTRN	?ExUserDataSend@@YAXH@Z:PROC			; ExUserDataSend
EXTRN	?MsgNormal@@YAXHPADZZ:PROC			; MsgNormal
EXTRN	_strcmp:PROC
EXTRN	_memcmp:PROC
EXTRN	_strlen:PROC
EXTRN	?CheckCommand@GMManager@@QAE_NHH@Z:PROC		; GMManager::CheckCommand
EXTRN	?g_GMManager@@3VGMManager@@A:BYTE		; g_GMManager
;	COMDAT ??_C@_0BK@GOEJIOGK@?$EA?$FLPremium?5Status?$FN?5?$CL?$CFd?5Day?$AA@
CONST	SEGMENT
??_C@_0BK@GOEJIOGK@?$EA?$FLPremium?5Status?$FN?5?$CL?$CFd?5Day?$AA@ DB '@'
	DB	'[Premium Status] +%d Day', 00H		; `string'
CONST	ENDS
;	COMDAT ??_C@_0N@ENCFKCNC@?1sellpremium?$AA@
CONST	SEGMENT
??_C@_0N@ENCFKCNC@?1sellpremium?$AA@ DB '/sellpremium', 00H ; `string'
CONST	ENDS
;	COMDAT ??_C@_0CF@JDEKJDDL@?$EA?$FLPremium?5Status?$FN?5?$CL?$CFd?5Day?0?5Type?3@
CONST	SEGMENT
??_C@_0CF@JDEKJDDL@?$EA?$FLPremium?5Status?$FN?5?$CL?$CFd?5Day?0?5Type?3@ DB '@'
	DB	'[Premium Status] +%d Day, Type:Gold', 00H	; `string'
CONST	ENDS
;	COMDAT ??_C@_0CH@LJHJGIOH@?$EA?$FLPremium?5Status?$FN?5?$CL?$CFd?5Day?0?5Type?3@
CONST	SEGMENT
??_C@_0CH@LJHJGIOH@?$EA?$FLPremium?5Status?$FN?5?$CL?$CFd?5Day?0?5Type?3@ DB '@'
	DB	'[Premium Status] +%d Day, Type:Silver', 00H	; `string'
CONST	ENDS
;	COMDAT ??_C@_0CH@NBDFGILO@?$EA?$FLPremium?5Status?$FN?5?$CL?$CFd?5Day?0?5Type?3@
CONST	SEGMENT
??_C@_0CH@NBDFGILO@?$EA?$FLPremium?5Status?$FN?5?$CL?$CFd?5Day?0?5Type?3@ DB '@'
	DB	'[Premium Status] +%d Day, Type:Bronze', 00H	; `string'
CONST	ENDS
;	COMDAT ??_C@_0BC@CGHJGLNF@?$FLSell?5Premium?$FN?5?$CFs?$AA@
CONST	SEGMENT
??_C@_0BC@CGHJGLNF@?$FLSell?5Premium?$FN?5?$CFs?$AA@ DB '[Sell Premium] %'
	DB	's', 00H					; `string'
CONST	ENDS
;	COMDAT ??_C@_05DIALNFFA@?$CFs?5?$CFd?$AA@
CONST	SEGMENT
??_C@_05DIALNFFA@?$CFs?5?$CFd?$AA@ DB '%s %d', 00H	; `string'
CONST	ENDS
;	COMDAT ??_C@_0BB@LODEMFDJ@?1sellpremiumgold?$AA@
CONST	SEGMENT
??_C@_0BB@LODEMFDJ@?1sellpremiumgold?$AA@ DB '/sellpremiumgold', 00H ; `string'
CONST	ENDS
;	COMDAT ??_C@_0BD@JEHNDNK@?1sellpremiumsilver?$AA@
CONST	SEGMENT
??_C@_0BD@JEHNDNK@?1sellpremiumsilver?$AA@ DB '/sellpremiumsilver', 00H ; `string'
CONST	ENDS
;	COMDAT ??_C@_0BD@GBALNDID@?1sellpremiumbronze?$AA@
CONST	SEGMENT
??_C@_0BD@GBALNDID@?1sellpremiumbronze?$AA@ DB '/sellpremiumbronze', 00H ; `string'
; Function compile flags: /Odtp /ZI
CONST	ENDS
_TEXT	SEGMENT
_sObj$220696 = -536					; size = 4
_i$220692 = -532					; size = 4
_Day$220688 = -528					; size = 4
_sName$220687 = -524					; size = 100
_SellCmd$220682 = -424					; size = 13
_sObj$220678 = -408					; size = 4
_i$220674 = -404					; size = 4
_Day$220670 = -400					; size = 4
_sName$220669 = -396					; size = 100
_sObj$220663 = -296					; size = 4
_i$220659 = -292					; size = 4
_Day$220655 = -288					; size = 4
_sName$220654 = -284					; size = 100
_sObj$220647 = -184					; size = 4
_i$220643 = -180					; size = 4
_Day$220638 = -176					; size = 4
_sName$220637 = -172					; size = 100
_SellCmdGold$220632 = -72				; size = 17
_SellCmdSilver$220630 = -52				; size = 19
_SellCmdBronze$220628 = -32				; size = 19
_lpObj$ = -12						; size = 4
_this$ = -8						; size = 4
__$ArrayPad$ = -4					; size = 4
_aIndex$ = 8						; size = 4
_Protocol$ = 12						; size = 4
?ChatSell@PremiumSystem@@QAEXHPAE@Z PROC		; PremiumSystem::ChatSell
; _this$ = ecx

; 207  : {

  00980	55		 push	 ebp
  00981	8b ec		 mov	 ebp, esp
  00983	81 ec 58 02 00
	00		 sub	 esp, 600		; 00000258H
  00989	a1 00 00 00 00	 mov	 eax, DWORD PTR ___security_cookie
  0098e	33 c5		 xor	 eax, ebp
  00990	89 45 fc	 mov	 DWORD PTR __$ArrayPad$[ebp], eax
  00993	53		 push	 ebx
  00994	56		 push	 esi
  00995	57		 push	 edi
  00996	89 4d f8	 mov	 DWORD PTR _this$[ebp], ecx

; 208  : 	if(!this->Enable) return;

  00999	8b 45 f8	 mov	 eax, DWORD PTR _this$[ebp]
  0099c	83 38 00	 cmp	 DWORD PTR [eax], 0
  0099f	75 05		 jne	 SHORT $LN40@ChatSell
  009a1	e9 42 07 00 00	 jmp	 $LN41@ChatSell
$LN40@ChatSell:

; 209  : 	LPOBJ lpObj = &gObj[aIndex];

  009a6	8b 45 08	 mov	 eax, DWORD PTR _aIndex$[ebp]
  009a9	69 c0 38 2b 00
	00		 imul	 eax, 11064		; 00002b38H
  009af	03 05 00 00 00
	00		 add	 eax, DWORD PTR ?gObj@@3PAUOBJECTSTRUCT@@A ; gObj
  009b5	89 45 f4	 mov	 DWORD PTR _lpObj$[ebp], eax

; 210  : 	if(lpObj->Authority == 8 || lpObj->Authority == 32)

  009b8	8b 45 f4	 mov	 eax, DWORD PTR _lpObj$[ebp]
  009bb	83 b8 0c 02 00
	00 08		 cmp	 DWORD PTR [eax+524], 8
  009c2	74 10		 je	 SHORT $LN38@ChatSell
  009c4	8b 45 f4	 mov	 eax, DWORD PTR _lpObj$[ebp]
  009c7	83 b8 0c 02 00
	00 20		 cmp	 DWORD PTR [eax+524], 32	; 00000020H
  009ce	0f 85 14 07 00
	00		 jne	 $LN41@ChatSell
$LN38@ChatSell:

; 211  : 	{
; 212  : 		// ----
; 213  : 		if(!g_GMManager.CheckCommand(aIndex, egm_cmd_sellpremium))

  009d4	6a 01		 push	 1
  009d6	8b 45 08	 mov	 eax, DWORD PTR _aIndex$[ebp]
  009d9	50		 push	 eax
  009da	b9 00 00 00 00	 mov	 ecx, OFFSET ?g_GMManager@@3VGMManager@@A ; g_GMManager
  009df	e8 00 00 00 00	 call	 ?CheckCommand@GMManager@@QAE_NHH@Z ; GMManager::CheckCommand
  009e4	0f b6 c8	 movzx	 ecx, al
  009e7	85 c9		 test	 ecx, ecx
  009e9	75 05		 jne	 SHORT $LN37@ChatSell

; 214  : 		{
; 215  : 			return;

  009eb	e9 f8 06 00 00	 jmp	 $LN41@ChatSell
$LN37@ChatSell:

; 216  : 		}
; 217  : 		// ----
; 218  : 		if(g_ExLicense.CheckUser(eExUB::ulasevich) || g_ExLicense.CheckUser(eExUB::ulasevich2) || g_ExLicense.CheckUser(eExUB::Local))

  009f0	6a 17		 push	 23			; 00000017H
  009f2	b9 00 00 00 00	 mov	 ecx, OFFSET ?g_ExLicense@@3VCExLicense@@A ; g_ExLicense
  009f7	e8 00 00 00 00	 call	 ?CheckUser@CExLicense@@QAE_NH@Z ; CExLicense::CheckUser
  009fc	0f b6 c0	 movzx	 eax, al
  009ff	85 c0		 test	 eax, eax
  00a01	75 2a		 jne	 SHORT $LN35@ChatSell
  00a03	6a 24		 push	 36			; 00000024H
  00a05	b9 00 00 00 00	 mov	 ecx, OFFSET ?g_ExLicense@@3VCExLicense@@A ; g_ExLicense
  00a0a	e8 00 00 00 00	 call	 ?CheckUser@CExLicense@@QAE_NH@Z ; CExLicense::CheckUser
  00a0f	0f b6 c0	 movzx	 eax, al
  00a12	85 c0		 test	 eax, eax
  00a14	75 17		 jne	 SHORT $LN35@ChatSell
  00a16	6a 00		 push	 0
  00a18	b9 00 00 00 00	 mov	 ecx, OFFSET ?g_ExLicense@@3VCExLicense@@A ; g_ExLicense
  00a1d	e8 00 00 00 00	 call	 ?CheckUser@CExLicense@@QAE_NH@Z ; CExLicense::CheckUser
  00a22	0f b6 c0	 movzx	 eax, al
  00a25	85 c0		 test	 eax, eax
  00a27	0f 84 0a 05 00
	00		 je	 $LN36@ChatSell
$LN35@ChatSell:

; 219  : 		{
; 220  : #ifdef PREM_TYPE
; 221  : 			char SellCmdBronze[] = "/sellpremiumbronze";

  00a2d	a1 00 00 00 00	 mov	 eax, DWORD PTR ??_C@_0BD@GBALNDID@?1sellpremiumbronze?$AA@
  00a32	89 45 e0	 mov	 DWORD PTR _SellCmdBronze$220628[ebp], eax
  00a35	8b 0d 04 00 00
	00		 mov	 ecx, DWORD PTR ??_C@_0BD@GBALNDID@?1sellpremiumbronze?$AA@+4
  00a3b	89 4d e4	 mov	 DWORD PTR _SellCmdBronze$220628[ebp+4], ecx
  00a3e	8b 15 08 00 00
	00		 mov	 edx, DWORD PTR ??_C@_0BD@GBALNDID@?1sellpremiumbronze?$AA@+8
  00a44	89 55 e8	 mov	 DWORD PTR _SellCmdBronze$220628[ebp+8], edx
  00a47	a1 0c 00 00 00	 mov	 eax, DWORD PTR ??_C@_0BD@GBALNDID@?1sellpremiumbronze?$AA@+12
  00a4c	89 45 ec	 mov	 DWORD PTR _SellCmdBronze$220628[ebp+12], eax
  00a4f	66 8b 0d 10 00
	00 00		 mov	 cx, WORD PTR ??_C@_0BD@GBALNDID@?1sellpremiumbronze?$AA@+16
  00a56	66 89 4d f0	 mov	 WORD PTR _SellCmdBronze$220628[ebp+16], cx
  00a5a	8a 15 12 00 00
	00		 mov	 dl, BYTE PTR ??_C@_0BD@GBALNDID@?1sellpremiumbronze?$AA@+18
  00a60	88 55 f2	 mov	 BYTE PTR _SellCmdBronze$220628[ebp+18], dl

; 222  : 			char SellCmdSilver[] = "/sellpremiumsilver";

  00a63	a1 00 00 00 00	 mov	 eax, DWORD PTR ??_C@_0BD@JEHNDNK@?1sellpremiumsilver?$AA@
  00a68	89 45 cc	 mov	 DWORD PTR _SellCmdSilver$220630[ebp], eax
  00a6b	8b 0d 04 00 00
	00		 mov	 ecx, DWORD PTR ??_C@_0BD@JEHNDNK@?1sellpremiumsilver?$AA@+4
  00a71	89 4d d0	 mov	 DWORD PTR _SellCmdSilver$220630[ebp+4], ecx
  00a74	8b 15 08 00 00
	00		 mov	 edx, DWORD PTR ??_C@_0BD@JEHNDNK@?1sellpremiumsilver?$AA@+8
  00a7a	89 55 d4	 mov	 DWORD PTR _SellCmdSilver$220630[ebp+8], edx
  00a7d	a1 0c 00 00 00	 mov	 eax, DWORD PTR ??_C@_0BD@JEHNDNK@?1sellpremiumsilver?$AA@+12
  00a82	89 45 d8	 mov	 DWORD PTR _SellCmdSilver$220630[ebp+12], eax
  00a85	66 8b 0d 10 00
	00 00		 mov	 cx, WORD PTR ??_C@_0BD@JEHNDNK@?1sellpremiumsilver?$AA@+16
  00a8c	66 89 4d dc	 mov	 WORD PTR _SellCmdSilver$220630[ebp+16], cx
  00a90	8a 15 12 00 00
	00		 mov	 dl, BYTE PTR ??_C@_0BD@JEHNDNK@?1sellpremiumsilver?$AA@+18
  00a96	88 55 de	 mov	 BYTE PTR _SellCmdSilver$220630[ebp+18], dl

; 223  : 			char SellCmdGold[] = "/sellpremiumgold";

  00a99	a1 00 00 00 00	 mov	 eax, DWORD PTR ??_C@_0BB@LODEMFDJ@?1sellpremiumgold?$AA@
  00a9e	89 45 b8	 mov	 DWORD PTR _SellCmdGold$220632[ebp], eax
  00aa1	8b 0d 04 00 00
	00		 mov	 ecx, DWORD PTR ??_C@_0BB@LODEMFDJ@?1sellpremiumgold?$AA@+4
  00aa7	89 4d bc	 mov	 DWORD PTR _SellCmdGold$220632[ebp+4], ecx
  00aaa	8b 15 08 00 00
	00		 mov	 edx, DWORD PTR ??_C@_0BB@LODEMFDJ@?1sellpremiumgold?$AA@+8
  00ab0	89 55 c0	 mov	 DWORD PTR _SellCmdGold$220632[ebp+8], edx
  00ab3	a1 0c 00 00 00	 mov	 eax, DWORD PTR ??_C@_0BB@LODEMFDJ@?1sellpremiumgold?$AA@+12
  00ab8	89 45 c4	 mov	 DWORD PTR _SellCmdGold$220632[ebp+12], eax
  00abb	8a 0d 10 00 00
	00		 mov	 cl, BYTE PTR ??_C@_0BB@LODEMFDJ@?1sellpremiumgold?$AA@+16
  00ac1	88 4d c8	 mov	 BYTE PTR _SellCmdGold$220632[ebp+16], cl

; 224  : 			if(!memcmp(&Protocol[13],SellCmdBronze,strlen(SellCmdBronze)))

  00ac4	8d 45 e0	 lea	 eax, DWORD PTR _SellCmdBronze$220628[ebp]
  00ac7	50		 push	 eax
  00ac8	e8 00 00 00 00	 call	 _strlen
  00acd	83 c4 04	 add	 esp, 4
  00ad0	50		 push	 eax
  00ad1	8d 4d e0	 lea	 ecx, DWORD PTR _SellCmdBronze$220628[ebp]
  00ad4	51		 push	 ecx
  00ad5	8b 55 0c	 mov	 edx, DWORD PTR _Protocol$[ebp]
  00ad8	83 c2 0d	 add	 edx, 13			; 0000000dH
  00adb	52		 push	 edx
  00adc	e8 00 00 00 00	 call	 _memcmp
  00ae1	83 c4 0c	 add	 esp, 12			; 0000000cH
  00ae4	85 c0		 test	 eax, eax
  00ae6	0f 85 52 01 00
	00		 jne	 $LN34@ChatSell

; 225  : 			{
; 226  : 				if(strlen((char*)Protocol+13+strlen(SellCmdBronze))>15)return;

  00aec	8d 45 e0	 lea	 eax, DWORD PTR _SellCmdBronze$220628[ebp]
  00aef	50		 push	 eax
  00af0	e8 00 00 00 00	 call	 _strlen
  00af5	83 c4 04	 add	 esp, 4
  00af8	8b 4d 0c	 mov	 ecx, DWORD PTR _Protocol$[ebp]
  00afb	8d 54 01 0d	 lea	 edx, DWORD PTR [ecx+eax+13]
  00aff	52		 push	 edx
  00b00	e8 00 00 00 00	 call	 _strlen
  00b05	83 c4 04	 add	 esp, 4
  00b08	83 f8 0f	 cmp	 eax, 15			; 0000000fH
  00b0b	76 05		 jbe	 SHORT $LN33@ChatSell
  00b0d	e9 d6 05 00 00	 jmp	 $LN41@ChatSell
$LN33@ChatSell:

; 227  : 				char sName[100];
; 228  : 				unsigned int Day;
; 229  : 				sscanf((char*)Protocol+13+strlen(SellCmdBronze),"%s %d",&sName,&Day);

  00b12	8d 85 50 ff ff
	ff		 lea	 eax, DWORD PTR _Day$220638[ebp]
  00b18	50		 push	 eax
  00b19	8d 8d 54 ff ff
	ff		 lea	 ecx, DWORD PTR _sName$220637[ebp]
  00b1f	51		 push	 ecx
  00b20	68 00 00 00 00	 push	 OFFSET ??_C@_05DIALNFFA@?$CFs?5?$CFd?$AA@
  00b25	8d 55 e0	 lea	 edx, DWORD PTR _SellCmdBronze$220628[ebp]
  00b28	52		 push	 edx
  00b29	e8 00 00 00 00	 call	 _strlen
  00b2e	83 c4 04	 add	 esp, 4
  00b31	8b 4d 0c	 mov	 ecx, DWORD PTR _Protocol$[ebp]
  00b34	8d 54 01 0d	 lea	 edx, DWORD PTR [ecx+eax+13]
  00b38	52		 push	 edx
  00b39	e8 00 00 00 00	 call	 _sscanf
  00b3e	83 c4 10	 add	 esp, 16			; 00000010H

; 230  : 				if(Day < 0 || Day > 10000) return;

  00b41	83 bd 50 ff ff
	ff 00		 cmp	 DWORD PTR _Day$220638[ebp], 0
  00b48	72 0c		 jb	 SHORT $LN31@ChatSell
  00b4a	81 bd 50 ff ff
	ff 10 27 00 00	 cmp	 DWORD PTR _Day$220638[ebp], 10000 ; 00002710H
  00b54	76 05		 jbe	 SHORT $LN32@ChatSell
$LN31@ChatSell:
  00b56	e9 8d 05 00 00	 jmp	 $LN41@ChatSell
$LN32@ChatSell:

; 231  : 				for(int i=OBJ_STARTUSERINDEX;i<OBJMAX;i++)

  00b5b	c7 85 4c ff ff
	ff b0 36 00 00	 mov	 DWORD PTR _i$220643[ebp], 14000 ; 000036b0H
  00b65	eb 0f		 jmp	 SHORT $LN30@ChatSell
$LN29@ChatSell:
  00b67	8b 85 4c ff ff
	ff		 mov	 eax, DWORD PTR _i$220643[ebp]
  00b6d	83 c0 01	 add	 eax, 1
  00b70	89 85 4c ff ff
	ff		 mov	 DWORD PTR _i$220643[ebp], eax
$LN30@ChatSell:
  00b76	81 bd 4c ff ff
	ff 98 3a 00 00	 cmp	 DWORD PTR _i$220643[ebp], 15000 ; 00003a98H
  00b80	0f 8d b8 00 00
	00		 jge	 $LN34@ChatSell

; 232  : 				{
; 233  : 					LPOBJ sObj = &gObj[i];

  00b86	8b 85 4c ff ff
	ff		 mov	 eax, DWORD PTR _i$220643[ebp]
  00b8c	69 c0 38 2b 00
	00		 imul	 eax, 11064		; 00002b38H
  00b92	03 05 00 00 00
	00		 add	 eax, DWORD PTR ?gObj@@3PAUOBJECTSTRUCT@@A ; gObj
  00b98	89 85 48 ff ff
	ff		 mov	 DWORD PTR _sObj$220647[ebp], eax

; 234  : 					if(!strcmp(sObj->Name,sName))

  00b9e	8d 85 54 ff ff
	ff		 lea	 eax, DWORD PTR _sName$220637[ebp]
  00ba4	50		 push	 eax
  00ba5	8b 8d 48 ff ff
	ff		 mov	 ecx, DWORD PTR _sObj$220647[ebp]
  00bab	83 c1 77	 add	 ecx, 119		; 00000077H
  00bae	51		 push	 ecx
  00baf	e8 00 00 00 00	 call	 _strcmp
  00bb4	83 c4 08	 add	 esp, 8
  00bb7	85 c0		 test	 eax, eax
  00bb9	75 7e		 jne	 SHORT $LN27@ChatSell

; 235  : 					{
; 236  : 						sObj->PremiumTime += ( Day * 86400 );

  00bbb	8b 85 50 ff ff
	ff		 mov	 eax, DWORD PTR _Day$220638[ebp]
  00bc1	69 c0 80 51 01
	00		 imul	 eax, 86400		; 00015180H
  00bc7	8b 8d 48 ff ff
	ff		 mov	 ecx, DWORD PTR _sObj$220647[ebp]
  00bcd	03 81 b8 22 00
	00		 add	 eax, DWORD PTR [ecx+8888]
  00bd3	8b 95 48 ff ff
	ff		 mov	 edx, DWORD PTR _sObj$220647[ebp]
  00bd9	89 82 b8 22 00
	00		 mov	 DWORD PTR [edx+8888], eax

; 237  : 						sObj->PremiumTimeType = PREM_BRONZE;

  00bdf	8b 85 48 ff ff
	ff		 mov	 eax, DWORD PTR _sObj$220647[ebp]
  00be5	c7 80 bc 22 00
	00 01 00 00 00	 mov	 DWORD PTR [eax+8892], 1

; 238  : 						MsgNormal(aIndex,"[Sell Premium] %s",sObj->Name);

  00bef	8b 85 48 ff ff
	ff		 mov	 eax, DWORD PTR _sObj$220647[ebp]
  00bf5	83 c0 77	 add	 eax, 119		; 00000077H
  00bf8	50		 push	 eax
  00bf9	68 00 00 00 00	 push	 OFFSET ??_C@_0BC@CGHJGLNF@?$FLSell?5Premium?$FN?5?$CFs?$AA@
  00bfe	8b 4d 08	 mov	 ecx, DWORD PTR _aIndex$[ebp]
  00c01	51		 push	 ecx
  00c02	e8 00 00 00 00	 call	 ?MsgNormal@@YAXHPADZZ	; MsgNormal
  00c07	83 c4 0c	 add	 esp, 12			; 0000000cH

; 239  : 						MessageChat(i,"@[Premium Status] +%d Day, Type:Bronze",Day);

  00c0a	8b 85 50 ff ff
	ff		 mov	 eax, DWORD PTR _Day$220638[ebp]
  00c10	50		 push	 eax
  00c11	68 00 00 00 00	 push	 OFFSET ??_C@_0CH@NBDFGILO@?$EA?$FLPremium?5Status?$FN?5?$CL?$CFd?5Day?0?5Type?3@
  00c16	8b 8d 4c ff ff
	ff		 mov	 ecx, DWORD PTR _i$220643[ebp]
  00c1c	51		 push	 ecx
  00c1d	e8 00 00 00 00	 call	 ?MessageChat@@YAXHPADZZ	; MessageChat
  00c22	83 c4 0c	 add	 esp, 12			; 0000000cH

; 240  : 						ExUserDataSend(i);

  00c25	8b 85 4c ff ff
	ff		 mov	 eax, DWORD PTR _i$220643[ebp]
  00c2b	50		 push	 eax
  00c2c	e8 00 00 00 00	 call	 ?ExUserDataSend@@YAXH@Z	; ExUserDataSend
  00c31	83 c4 04	 add	 esp, 4

; 241  : 						return;

  00c34	e9 af 04 00 00	 jmp	 $LN41@ChatSell
$LN27@ChatSell:

; 242  : 					}
; 243  : 				}

  00c39	e9 29 ff ff ff	 jmp	 $LN29@ChatSell
$LN34@ChatSell:

; 244  : 			}
; 245  : 			if(!memcmp(&Protocol[13],SellCmdSilver,strlen(SellCmdSilver)))

  00c3e	8d 45 cc	 lea	 eax, DWORD PTR _SellCmdSilver$220630[ebp]
  00c41	50		 push	 eax
  00c42	e8 00 00 00 00	 call	 _strlen
  00c47	83 c4 04	 add	 esp, 4
  00c4a	50		 push	 eax
  00c4b	8d 4d cc	 lea	 ecx, DWORD PTR _SellCmdSilver$220630[ebp]
  00c4e	51		 push	 ecx
  00c4f	8b 55 0c	 mov	 edx, DWORD PTR _Protocol$[ebp]
  00c52	83 c2 0d	 add	 edx, 13			; 0000000dH
  00c55	52		 push	 edx
  00c56	e8 00 00 00 00	 call	 _memcmp
  00c5b	83 c4 0c	 add	 esp, 12			; 0000000cH
  00c5e	85 c0		 test	 eax, eax
  00c60	0f 85 52 01 00
	00		 jne	 $LN26@ChatSell

; 246  : 			{
; 247  : 				if(strlen((char*)Protocol+13+strlen(SellCmdSilver))>15)return;

  00c66	8d 45 cc	 lea	 eax, DWORD PTR _SellCmdSilver$220630[ebp]
  00c69	50		 push	 eax
  00c6a	e8 00 00 00 00	 call	 _strlen
  00c6f	83 c4 04	 add	 esp, 4
  00c72	8b 4d 0c	 mov	 ecx, DWORD PTR _Protocol$[ebp]
  00c75	8d 54 01 0d	 lea	 edx, DWORD PTR [ecx+eax+13]
  00c79	52		 push	 edx
  00c7a	e8 00 00 00 00	 call	 _strlen
  00c7f	83 c4 04	 add	 esp, 4
  00c82	83 f8 0f	 cmp	 eax, 15			; 0000000fH
  00c85	76 05		 jbe	 SHORT $LN25@ChatSell
  00c87	e9 5c 04 00 00	 jmp	 $LN41@ChatSell
$LN25@ChatSell:

; 248  : 				char sName[100];
; 249  : 				unsigned int Day;
; 250  : 				sscanf((char*)Protocol+13+strlen(SellCmdSilver),"%s %d",&sName,&Day);

  00c8c	8d 85 e0 fe ff
	ff		 lea	 eax, DWORD PTR _Day$220655[ebp]
  00c92	50		 push	 eax
  00c93	8d 8d e4 fe ff
	ff		 lea	 ecx, DWORD PTR _sName$220654[ebp]
  00c99	51		 push	 ecx
  00c9a	68 00 00 00 00	 push	 OFFSET ??_C@_05DIALNFFA@?$CFs?5?$CFd?$AA@
  00c9f	8d 55 cc	 lea	 edx, DWORD PTR _SellCmdSilver$220630[ebp]
  00ca2	52		 push	 edx
  00ca3	e8 00 00 00 00	 call	 _strlen
  00ca8	83 c4 04	 add	 esp, 4
  00cab	8b 4d 0c	 mov	 ecx, DWORD PTR _Protocol$[ebp]
  00cae	8d 54 01 0d	 lea	 edx, DWORD PTR [ecx+eax+13]
  00cb2	52		 push	 edx
  00cb3	e8 00 00 00 00	 call	 _sscanf
  00cb8	83 c4 10	 add	 esp, 16			; 00000010H

; 251  : 				if(Day < 0 || Day > 10000) return;

  00cbb	83 bd e0 fe ff
	ff 00		 cmp	 DWORD PTR _Day$220655[ebp], 0
  00cc2	72 0c		 jb	 SHORT $LN23@ChatSell
  00cc4	81 bd e0 fe ff
	ff 10 27 00 00	 cmp	 DWORD PTR _Day$220655[ebp], 10000 ; 00002710H
  00cce	76 05		 jbe	 SHORT $LN24@ChatSell
$LN23@ChatSell:
  00cd0	e9 13 04 00 00	 jmp	 $LN41@ChatSell
$LN24@ChatSell:

; 252  : 				for(int i=OBJ_STARTUSERINDEX;i<OBJMAX;i++)

  00cd5	c7 85 dc fe ff
	ff b0 36 00 00	 mov	 DWORD PTR _i$220659[ebp], 14000 ; 000036b0H
  00cdf	eb 0f		 jmp	 SHORT $LN22@ChatSell
$LN21@ChatSell:
  00ce1	8b 85 dc fe ff
	ff		 mov	 eax, DWORD PTR _i$220659[ebp]
  00ce7	83 c0 01	 add	 eax, 1
  00cea	89 85 dc fe ff
	ff		 mov	 DWORD PTR _i$220659[ebp], eax
$LN22@ChatSell:
  00cf0	81 bd dc fe ff
	ff 98 3a 00 00	 cmp	 DWORD PTR _i$220659[ebp], 15000 ; 00003a98H
  00cfa	0f 8d b8 00 00
	00		 jge	 $LN26@ChatSell

; 253  : 				{
; 254  : 					LPOBJ sObj = &gObj[i];

  00d00	8b 85 dc fe ff
	ff		 mov	 eax, DWORD PTR _i$220659[ebp]
  00d06	69 c0 38 2b 00
	00		 imul	 eax, 11064		; 00002b38H
  00d0c	03 05 00 00 00
	00		 add	 eax, DWORD PTR ?gObj@@3PAUOBJECTSTRUCT@@A ; gObj
  00d12	89 85 d8 fe ff
	ff		 mov	 DWORD PTR _sObj$220663[ebp], eax

; 255  : 					if(!strcmp(sObj->Name,sName))

  00d18	8d 85 e4 fe ff
	ff		 lea	 eax, DWORD PTR _sName$220654[ebp]
  00d1e	50		 push	 eax
  00d1f	8b 8d d8 fe ff
	ff		 mov	 ecx, DWORD PTR _sObj$220663[ebp]
  00d25	83 c1 77	 add	 ecx, 119		; 00000077H
  00d28	51		 push	 ecx
  00d29	e8 00 00 00 00	 call	 _strcmp
  00d2e	83 c4 08	 add	 esp, 8
  00d31	85 c0		 test	 eax, eax
  00d33	75 7e		 jne	 SHORT $LN19@ChatSell

; 256  : 					{
; 257  : 						sObj->PremiumTime += ( Day * 86400 );

  00d35	8b 85 e0 fe ff
	ff		 mov	 eax, DWORD PTR _Day$220655[ebp]
  00d3b	69 c0 80 51 01
	00		 imul	 eax, 86400		; 00015180H
  00d41	8b 8d d8 fe ff
	ff		 mov	 ecx, DWORD PTR _sObj$220663[ebp]
  00d47	03 81 b8 22 00
	00		 add	 eax, DWORD PTR [ecx+8888]
  00d4d	8b 95 d8 fe ff
	ff		 mov	 edx, DWORD PTR _sObj$220663[ebp]
  00d53	89 82 b8 22 00
	00		 mov	 DWORD PTR [edx+8888], eax

; 258  : 						sObj->PremiumTimeType = PREM_SILVER;

  00d59	8b 85 d8 fe ff
	ff		 mov	 eax, DWORD PTR _sObj$220663[ebp]
  00d5f	c7 80 bc 22 00
	00 02 00 00 00	 mov	 DWORD PTR [eax+8892], 2

; 259  : 						MsgNormal(aIndex,"[Sell Premium] %s",sObj->Name);

  00d69	8b 85 d8 fe ff
	ff		 mov	 eax, DWORD PTR _sObj$220663[ebp]
  00d6f	83 c0 77	 add	 eax, 119		; 00000077H
  00d72	50		 push	 eax
  00d73	68 00 00 00 00	 push	 OFFSET ??_C@_0BC@CGHJGLNF@?$FLSell?5Premium?$FN?5?$CFs?$AA@
  00d78	8b 4d 08	 mov	 ecx, DWORD PTR _aIndex$[ebp]
  00d7b	51		 push	 ecx
  00d7c	e8 00 00 00 00	 call	 ?MsgNormal@@YAXHPADZZ	; MsgNormal
  00d81	83 c4 0c	 add	 esp, 12			; 0000000cH

; 260  : 						MessageChat(i,"@[Premium Status] +%d Day, Type:Silver",Day);

  00d84	8b 85 e0 fe ff
	ff		 mov	 eax, DWORD PTR _Day$220655[ebp]
  00d8a	50		 push	 eax
  00d8b	68 00 00 00 00	 push	 OFFSET ??_C@_0CH@LJHJGIOH@?$EA?$FLPremium?5Status?$FN?5?$CL?$CFd?5Day?0?5Type?3@
  00d90	8b 8d dc fe ff
	ff		 mov	 ecx, DWORD PTR _i$220659[ebp]
  00d96	51		 push	 ecx
  00d97	e8 00 00 00 00	 call	 ?MessageChat@@YAXHPADZZ	; MessageChat
  00d9c	83 c4 0c	 add	 esp, 12			; 0000000cH

; 261  : 						ExUserDataSend(i);

  00d9f	8b 85 dc fe ff
	ff		 mov	 eax, DWORD PTR _i$220659[ebp]
  00da5	50		 push	 eax
  00da6	e8 00 00 00 00	 call	 ?ExUserDataSend@@YAXH@Z	; ExUserDataSend
  00dab	83 c4 04	 add	 esp, 4

; 262  : 						return;

  00dae	e9 35 03 00 00	 jmp	 $LN41@ChatSell
$LN19@ChatSell:

; 263  : 					}
; 264  : 				}

  00db3	e9 29 ff ff ff	 jmp	 $LN21@ChatSell
$LN26@ChatSell:

; 265  : 			}
; 266  : 			if(!memcmp(&Protocol[13],SellCmdGold,strlen(SellCmdGold)))

  00db8	8d 45 b8	 lea	 eax, DWORD PTR _SellCmdGold$220632[ebp]
  00dbb	50		 push	 eax
  00dbc	e8 00 00 00 00	 call	 _strlen
  00dc1	83 c4 04	 add	 esp, 4
  00dc4	50		 push	 eax
  00dc5	8d 4d b8	 lea	 ecx, DWORD PTR _SellCmdGold$220632[ebp]
  00dc8	51		 push	 ecx
  00dc9	8b 55 0c	 mov	 edx, DWORD PTR _Protocol$[ebp]
  00dcc	83 c2 0d	 add	 edx, 13			; 0000000dH
  00dcf	52		 push	 edx
  00dd0	e8 00 00 00 00	 call	 _memcmp
  00dd5	83 c4 0c	 add	 esp, 12			; 0000000cH
  00dd8	85 c0		 test	 eax, eax
  00dda	0f 85 52 01 00
	00		 jne	 $LN18@ChatSell

; 267  : 			{
; 268  : 				if(strlen((char*)Protocol+13+strlen(SellCmdGold))>15)return;

  00de0	8d 45 b8	 lea	 eax, DWORD PTR _SellCmdGold$220632[ebp]
  00de3	50		 push	 eax
  00de4	e8 00 00 00 00	 call	 _strlen
  00de9	83 c4 04	 add	 esp, 4
  00dec	8b 4d 0c	 mov	 ecx, DWORD PTR _Protocol$[ebp]
  00def	8d 54 01 0d	 lea	 edx, DWORD PTR [ecx+eax+13]
  00df3	52		 push	 edx
  00df4	e8 00 00 00 00	 call	 _strlen
  00df9	83 c4 04	 add	 esp, 4
  00dfc	83 f8 0f	 cmp	 eax, 15			; 0000000fH
  00dff	76 05		 jbe	 SHORT $LN17@ChatSell
  00e01	e9 e2 02 00 00	 jmp	 $LN41@ChatSell
$LN17@ChatSell:

; 269  : 				char sName[100];
; 270  : 				unsigned int Day;
; 271  : 				sscanf((char*)Protocol+13+strlen(SellCmdGold),"%s %d",&sName,&Day);

  00e06	8d 85 70 fe ff
	ff		 lea	 eax, DWORD PTR _Day$220670[ebp]
  00e0c	50		 push	 eax
  00e0d	8d 8d 74 fe ff
	ff		 lea	 ecx, DWORD PTR _sName$220669[ebp]
  00e13	51		 push	 ecx
  00e14	68 00 00 00 00	 push	 OFFSET ??_C@_05DIALNFFA@?$CFs?5?$CFd?$AA@
  00e19	8d 55 b8	 lea	 edx, DWORD PTR _SellCmdGold$220632[ebp]
  00e1c	52		 push	 edx
  00e1d	e8 00 00 00 00	 call	 _strlen
  00e22	83 c4 04	 add	 esp, 4
  00e25	8b 4d 0c	 mov	 ecx, DWORD PTR _Protocol$[ebp]
  00e28	8d 54 01 0d	 lea	 edx, DWORD PTR [ecx+eax+13]
  00e2c	52		 push	 edx
  00e2d	e8 00 00 00 00	 call	 _sscanf
  00e32	83 c4 10	 add	 esp, 16			; 00000010H

; 272  : 				if(Day < 0 || Day > 10000) return;

  00e35	83 bd 70 fe ff
	ff 00		 cmp	 DWORD PTR _Day$220670[ebp], 0
  00e3c	72 0c		 jb	 SHORT $LN15@ChatSell
  00e3e	81 bd 70 fe ff
	ff 10 27 00 00	 cmp	 DWORD PTR _Day$220670[ebp], 10000 ; 00002710H
  00e48	76 05		 jbe	 SHORT $LN16@ChatSell
$LN15@ChatSell:
  00e4a	e9 99 02 00 00	 jmp	 $LN41@ChatSell
$LN16@ChatSell:

; 273  : 				for(int i=OBJ_STARTUSERINDEX;i<OBJMAX;i++)

  00e4f	c7 85 6c fe ff
	ff b0 36 00 00	 mov	 DWORD PTR _i$220674[ebp], 14000 ; 000036b0H
  00e59	eb 0f		 jmp	 SHORT $LN14@ChatSell
$LN13@ChatSell:
  00e5b	8b 85 6c fe ff
	ff		 mov	 eax, DWORD PTR _i$220674[ebp]
  00e61	83 c0 01	 add	 eax, 1
  00e64	89 85 6c fe ff
	ff		 mov	 DWORD PTR _i$220674[ebp], eax
$LN14@ChatSell:
  00e6a	81 bd 6c fe ff
	ff 98 3a 00 00	 cmp	 DWORD PTR _i$220674[ebp], 15000 ; 00003a98H
  00e74	0f 8d b8 00 00
	00		 jge	 $LN18@ChatSell

; 274  : 				{
; 275  : 					LPOBJ sObj = &gObj[i];

  00e7a	8b 85 6c fe ff
	ff		 mov	 eax, DWORD PTR _i$220674[ebp]
  00e80	69 c0 38 2b 00
	00		 imul	 eax, 11064		; 00002b38H
  00e86	03 05 00 00 00
	00		 add	 eax, DWORD PTR ?gObj@@3PAUOBJECTSTRUCT@@A ; gObj
  00e8c	89 85 68 fe ff
	ff		 mov	 DWORD PTR _sObj$220678[ebp], eax

; 276  : 					if(!strcmp(sObj->Name,sName))

  00e92	8d 85 74 fe ff
	ff		 lea	 eax, DWORD PTR _sName$220669[ebp]
  00e98	50		 push	 eax
  00e99	8b 8d 68 fe ff
	ff		 mov	 ecx, DWORD PTR _sObj$220678[ebp]
  00e9f	83 c1 77	 add	 ecx, 119		; 00000077H
  00ea2	51		 push	 ecx
  00ea3	e8 00 00 00 00	 call	 _strcmp
  00ea8	83 c4 08	 add	 esp, 8
  00eab	85 c0		 test	 eax, eax
  00ead	75 7e		 jne	 SHORT $LN11@ChatSell

; 277  : 					{
; 278  : 						sObj->PremiumTime += ( Day * 86400 );

  00eaf	8b 85 70 fe ff
	ff		 mov	 eax, DWORD PTR _Day$220670[ebp]
  00eb5	69 c0 80 51 01
	00		 imul	 eax, 86400		; 00015180H
  00ebb	8b 8d 68 fe ff
	ff		 mov	 ecx, DWORD PTR _sObj$220678[ebp]
  00ec1	03 81 b8 22 00
	00		 add	 eax, DWORD PTR [ecx+8888]
  00ec7	8b 95 68 fe ff
	ff		 mov	 edx, DWORD PTR _sObj$220678[ebp]
  00ecd	89 82 b8 22 00
	00		 mov	 DWORD PTR [edx+8888], eax

; 279  : 						sObj->PremiumTimeType = PREM_GOLD;

  00ed3	8b 85 68 fe ff
	ff		 mov	 eax, DWORD PTR _sObj$220678[ebp]
  00ed9	c7 80 bc 22 00
	00 03 00 00 00	 mov	 DWORD PTR [eax+8892], 3

; 280  : 						MsgNormal(aIndex,"[Sell Premium] %s",sObj->Name);

  00ee3	8b 85 68 fe ff
	ff		 mov	 eax, DWORD PTR _sObj$220678[ebp]
  00ee9	83 c0 77	 add	 eax, 119		; 00000077H
  00eec	50		 push	 eax
  00eed	68 00 00 00 00	 push	 OFFSET ??_C@_0BC@CGHJGLNF@?$FLSell?5Premium?$FN?5?$CFs?$AA@
  00ef2	8b 4d 08	 mov	 ecx, DWORD PTR _aIndex$[ebp]
  00ef5	51		 push	 ecx
  00ef6	e8 00 00 00 00	 call	 ?MsgNormal@@YAXHPADZZ	; MsgNormal
  00efb	83 c4 0c	 add	 esp, 12			; 0000000cH

; 281  : 						MessageChat(i,"@[Premium Status] +%d Day, Type:Gold",Day);

  00efe	8b 85 70 fe ff
	ff		 mov	 eax, DWORD PTR _Day$220670[ebp]
  00f04	50		 push	 eax
  00f05	68 00 00 00 00	 push	 OFFSET ??_C@_0CF@JDEKJDDL@?$EA?$FLPremium?5Status?$FN?5?$CL?$CFd?5Day?0?5Type?3@
  00f0a	8b 8d 6c fe ff
	ff		 mov	 ecx, DWORD PTR _i$220674[ebp]
  00f10	51		 push	 ecx
  00f11	e8 00 00 00 00	 call	 ?MessageChat@@YAXHPADZZ	; MessageChat
  00f16	83 c4 0c	 add	 esp, 12			; 0000000cH

; 282  : 						ExUserDataSend(i);

  00f19	8b 85 6c fe ff
	ff		 mov	 eax, DWORD PTR _i$220674[ebp]
  00f1f	50		 push	 eax
  00f20	e8 00 00 00 00	 call	 ?ExUserDataSend@@YAXH@Z	; ExUserDataSend
  00f25	83 c4 04	 add	 esp, 4

; 283  : 						return;

  00f28	e9 bb 01 00 00	 jmp	 $LN41@ChatSell
$LN11@ChatSell:

; 284  : 					}
; 285  : 				}

  00f2d	e9 29 ff ff ff	 jmp	 $LN13@ChatSell
$LN18@ChatSell:

; 286  : 			}
; 287  : #endif
; 288  : 		}
; 289  : 		else

  00f32	e9 b1 01 00 00	 jmp	 $LN41@ChatSell
$LN36@ChatSell:

; 290  : 		{
; 291  : 			char SellCmd[] = "/sellpremium";

  00f37	a1 00 00 00 00	 mov	 eax, DWORD PTR ??_C@_0N@ENCFKCNC@?1sellpremium?$AA@
  00f3c	89 85 58 fe ff
	ff		 mov	 DWORD PTR _SellCmd$220682[ebp], eax
  00f42	8b 0d 04 00 00
	00		 mov	 ecx, DWORD PTR ??_C@_0N@ENCFKCNC@?1sellpremium?$AA@+4
  00f48	89 8d 5c fe ff
	ff		 mov	 DWORD PTR _SellCmd$220682[ebp+4], ecx
  00f4e	8b 15 08 00 00
	00		 mov	 edx, DWORD PTR ??_C@_0N@ENCFKCNC@?1sellpremium?$AA@+8
  00f54	89 95 60 fe ff
	ff		 mov	 DWORD PTR _SellCmd$220682[ebp+8], edx
  00f5a	a0 0c 00 00 00	 mov	 al, BYTE PTR ??_C@_0N@ENCFKCNC@?1sellpremium?$AA@+12
  00f5f	88 85 64 fe ff
	ff		 mov	 BYTE PTR _SellCmd$220682[ebp+12], al

; 292  : 			if(!memcmp(&Protocol[13],SellCmd,strlen(SellCmd)))

  00f65	8d 85 58 fe ff
	ff		 lea	 eax, DWORD PTR _SellCmd$220682[ebp]
  00f6b	50		 push	 eax
  00f6c	e8 00 00 00 00	 call	 _strlen
  00f71	83 c4 04	 add	 esp, 4
  00f74	50		 push	 eax
  00f75	8d 8d 58 fe ff
	ff		 lea	 ecx, DWORD PTR _SellCmd$220682[ebp]
  00f7b	51		 push	 ecx
  00f7c	8b 55 0c	 mov	 edx, DWORD PTR _Protocol$[ebp]
  00f7f	83 c2 0d	 add	 edx, 13			; 0000000dH
  00f82	52		 push	 edx
  00f83	e8 00 00 00 00	 call	 _memcmp
  00f88	83 c4 0c	 add	 esp, 12			; 0000000cH
  00f8b	85 c0		 test	 eax, eax
  00f8d	0f 85 55 01 00
	00		 jne	 $LN41@ChatSell

; 293  : 			{
; 294  : 				if(strlen((char*)Protocol+13+strlen(SellCmd))>15)return;

  00f93	8d 85 58 fe ff
	ff		 lea	 eax, DWORD PTR _SellCmd$220682[ebp]
  00f99	50		 push	 eax
  00f9a	e8 00 00 00 00	 call	 _strlen
  00f9f	83 c4 04	 add	 esp, 4
  00fa2	8b 4d 0c	 mov	 ecx, DWORD PTR _Protocol$[ebp]
  00fa5	8d 54 01 0d	 lea	 edx, DWORD PTR [ecx+eax+13]
  00fa9	52		 push	 edx
  00faa	e8 00 00 00 00	 call	 _strlen
  00faf	83 c4 04	 add	 esp, 4
  00fb2	83 f8 0f	 cmp	 eax, 15			; 0000000fH
  00fb5	76 05		 jbe	 SHORT $LN8@ChatSell
  00fb7	e9 2c 01 00 00	 jmp	 $LN41@ChatSell
$LN8@ChatSell:

; 295  : 				char sName[100];
; 296  : 				unsigned int Day;
; 297  : 				sscanf((char*)Protocol+13+strlen(SellCmd),"%s %d",&sName,&Day);

  00fbc	8d 85 f0 fd ff
	ff		 lea	 eax, DWORD PTR _Day$220688[ebp]
  00fc2	50		 push	 eax
  00fc3	8d 8d f4 fd ff
	ff		 lea	 ecx, DWORD PTR _sName$220687[ebp]
  00fc9	51		 push	 ecx
  00fca	68 00 00 00 00	 push	 OFFSET ??_C@_05DIALNFFA@?$CFs?5?$CFd?$AA@
  00fcf	8d 95 58 fe ff
	ff		 lea	 edx, DWORD PTR _SellCmd$220682[ebp]
  00fd5	52		 push	 edx
  00fd6	e8 00 00 00 00	 call	 _strlen
  00fdb	83 c4 04	 add	 esp, 4
  00fde	8b 4d 0c	 mov	 ecx, DWORD PTR _Protocol$[ebp]
  00fe1	8d 54 01 0d	 lea	 edx, DWORD PTR [ecx+eax+13]
  00fe5	52		 push	 edx
  00fe6	e8 00 00 00 00	 call	 _sscanf
  00feb	83 c4 10	 add	 esp, 16			; 00000010H

; 298  : 				if(Day < 0 || Day > 10000) return;

  00fee	83 bd f0 fd ff
	ff 00		 cmp	 DWORD PTR _Day$220688[ebp], 0
  00ff5	72 0c		 jb	 SHORT $LN6@ChatSell
  00ff7	81 bd f0 fd ff
	ff 10 27 00 00	 cmp	 DWORD PTR _Day$220688[ebp], 10000 ; 00002710H
  01001	76 05		 jbe	 SHORT $LN7@ChatSell
$LN6@ChatSell:
  01003	e9 e0 00 00 00	 jmp	 $LN41@ChatSell
$LN7@ChatSell:

; 299  : 				for(int i=OBJ_STARTUSERINDEX;i<OBJMAX;i++)

  01008	c7 85 ec fd ff
	ff b0 36 00 00	 mov	 DWORD PTR _i$220692[ebp], 14000 ; 000036b0H
  01012	eb 0f		 jmp	 SHORT $LN5@ChatSell
$LN4@ChatSell:
  01014	8b 85 ec fd ff
	ff		 mov	 eax, DWORD PTR _i$220692[ebp]
  0101a	83 c0 01	 add	 eax, 1
  0101d	89 85 ec fd ff
	ff		 mov	 DWORD PTR _i$220692[ebp], eax
$LN5@ChatSell:
  01023	81 bd ec fd ff
	ff 98 3a 00 00	 cmp	 DWORD PTR _i$220692[ebp], 15000 ; 00003a98H
  0102d	0f 8d b5 00 00
	00		 jge	 $LN41@ChatSell

; 300  : 				{
; 301  : 					LPOBJ sObj = &gObj[i];

  01033	8b 85 ec fd ff
	ff		 mov	 eax, DWORD PTR _i$220692[ebp]
  01039	69 c0 38 2b 00
	00		 imul	 eax, 11064		; 00002b38H
  0103f	03 05 00 00 00
	00		 add	 eax, DWORD PTR ?gObj@@3PAUOBJECTSTRUCT@@A ; gObj
  01045	89 85 e8 fd ff
	ff		 mov	 DWORD PTR _sObj$220696[ebp], eax

; 302  : 					if(sObj->Connected == PLAYER_PLAYING)

  0104b	8b 85 e8 fd ff
	ff		 mov	 eax, DWORD PTR _sObj$220696[ebp]
  01051	83 78 04 03	 cmp	 DWORD PTR [eax+4], 3
  01055	0f 85 88 00 00
	00		 jne	 $LN2@ChatSell

; 303  : 					{
; 304  : 						if(!strcmp(sObj->Name,sName))

  0105b	8d 85 f4 fd ff
	ff		 lea	 eax, DWORD PTR _sName$220687[ebp]
  01061	50		 push	 eax
  01062	8b 8d e8 fd ff
	ff		 mov	 ecx, DWORD PTR _sObj$220696[ebp]
  01068	83 c1 77	 add	 ecx, 119		; 00000077H
  0106b	51		 push	 ecx
  0106c	e8 00 00 00 00	 call	 _strcmp
  01071	83 c4 08	 add	 esp, 8
  01074	85 c0		 test	 eax, eax
  01076	75 6b		 jne	 SHORT $LN2@ChatSell

; 305  : 						{
; 306  : 							sObj->PremiumTime += ( Day * 86400 );

  01078	8b 85 f0 fd ff
	ff		 mov	 eax, DWORD PTR _Day$220688[ebp]
  0107e	69 c0 80 51 01
	00		 imul	 eax, 86400		; 00015180H
  01084	8b 8d e8 fd ff
	ff		 mov	 ecx, DWORD PTR _sObj$220696[ebp]
  0108a	03 81 b8 22 00
	00		 add	 eax, DWORD PTR [ecx+8888]
  01090	8b 95 e8 fd ff
	ff		 mov	 edx, DWORD PTR _sObj$220696[ebp]
  01096	89 82 b8 22 00
	00		 mov	 DWORD PTR [edx+8888], eax

; 307  : 							MsgNormal(aIndex,"[Sell Premium] %s",sObj->Name);

  0109c	8b 85 e8 fd ff
	ff		 mov	 eax, DWORD PTR _sObj$220696[ebp]
  010a2	83 c0 77	 add	 eax, 119		; 00000077H
  010a5	50		 push	 eax
  010a6	68 00 00 00 00	 push	 OFFSET ??_C@_0BC@CGHJGLNF@?$FLSell?5Premium?$FN?5?$CFs?$AA@
  010ab	8b 4d 08	 mov	 ecx, DWORD PTR _aIndex$[ebp]
  010ae	51		 push	 ecx
  010af	e8 00 00 00 00	 call	 ?MsgNormal@@YAXHPADZZ	; MsgNormal
  010b4	83 c4 0c	 add	 esp, 12			; 0000000cH

; 308  : 							MessageChat(i,"@[Premium Status] +%d Day",Day);

  010b7	8b 85 f0 fd ff
	ff		 mov	 eax, DWORD PTR _Day$220688[ebp]
  010bd	50		 push	 eax
  010be	68 00 00 00 00	 push	 OFFSET ??_C@_0BK@GOEJIOGK@?$EA?$FLPremium?5Status?$FN?5?$CL?$CFd?5Day?$AA@
  010c3	8b 8d ec fd ff
	ff		 mov	 ecx, DWORD PTR _i$220692[ebp]
  010c9	51		 push	 ecx
  010ca	e8 00 00 00 00	 call	 ?MessageChat@@YAXHPADZZ	; MessageChat
  010cf	83 c4 0c	 add	 esp, 12			; 0000000cH

; 309  : 							ExUserDataSend(i);

  010d2	8b 85 ec fd ff
	ff		 mov	 eax, DWORD PTR _i$220692[ebp]
  010d8	50		 push	 eax
  010d9	e8 00 00 00 00	 call	 ?ExUserDataSend@@YAXH@Z	; ExUserDataSend
  010de	83 c4 04	 add	 esp, 4

; 310  : 							return;

  010e1	eb 05		 jmp	 SHORT $LN41@ChatSell
$LN2@ChatSell:

; 311  : 						}
; 312  : 					}
; 313  : 				}

  010e3	e9 2c ff ff ff	 jmp	 $LN4@ChatSell
$LN41@ChatSell:

; 314  : 			}	
; 315  : 		}
; 316  : 	}
; 317  : }

  010e8	5f		 pop	 edi
  010e9	5e		 pop	 esi
  010ea	5b		 pop	 ebx
  010eb	8b 4d fc	 mov	 ecx, DWORD PTR __$ArrayPad$[ebp]
  010ee	33 cd		 xor	 ecx, ebp
  010f0	e8 00 00 00 00	 call	 @__security_check_cookie@4
  010f5	8b e5		 mov	 esp, ebp
  010f7	5d		 pop	 ebp
  010f8	c2 08 00	 ret	 8
?ChatSell@PremiumSystem@@QAEXHPAE@Z ENDP		; PremiumSystem::ChatSell
_TEXT	ENDS
PUBLIC	??_C@_0BK@EMBGLNEK@?$EA?$FLPremium?5Status?$FN?5Min?3?5?$CFd?$AA@ ; `string'
PUBLIC	??_C@_0BK@HOGFNKCF@?$EA?$FLPremium?5Status?$FN?5Day?3?5?$CFd?$AA@ ; `string'
PUBLIC	??_C@_0BJ@DIOJMKBK@?$EA?$FLPremium?5Status?$FN?5Active?$AA@ ; `string'
PUBLIC	?ConnectInfo@PremiumSystem@@QAEXH@Z		; PremiumSystem::ConnectInfo
;	COMDAT ??_C@_0BK@EMBGLNEK@?$EA?$FLPremium?5Status?$FN?5Min?3?5?$CFd?$AA@
CONST	SEGMENT
??_C@_0BK@EMBGLNEK@?$EA?$FLPremium?5Status?$FN?5Min?3?5?$CFd?$AA@ DB '@[P'
	DB	'remium Status] Min: %d', 00H		; `string'
CONST	ENDS
;	COMDAT ??_C@_0BK@HOGFNKCF@?$EA?$FLPremium?5Status?$FN?5Day?3?5?$CFd?$AA@
CONST	SEGMENT
??_C@_0BK@HOGFNKCF@?$EA?$FLPremium?5Status?$FN?5Day?3?5?$CFd?$AA@ DB '@[P'
	DB	'remium Status] Day: %d', 00H		; `string'
CONST	ENDS
;	COMDAT ??_C@_0BJ@DIOJMKBK@?$EA?$FLPremium?5Status?$FN?5Active?$AA@
CONST	SEGMENT
??_C@_0BJ@DIOJMKBK@?$EA?$FLPremium?5Status?$FN?5Active?$AA@ DB '@[Premium'
	DB	' Status] Active', 00H			; `string'
; Function compile flags: /Odtp /ZI
CONST	ENDS
_TEXT	SEGMENT
_lpObj$ = -8						; size = 4
_this$ = -4						; size = 4
_aIndex$ = 8						; size = 4
?ConnectInfo@PremiumSystem@@QAEXH@Z PROC		; PremiumSystem::ConnectInfo
; _this$ = ecx

; 320  : {

  01100	55		 push	 ebp
  01101	8b ec		 mov	 ebp, esp
  01103	83 ec 48	 sub	 esp, 72			; 00000048H
  01106	53		 push	 ebx
  01107	56		 push	 esi
  01108	57		 push	 edi
  01109	89 4d fc	 mov	 DWORD PTR _this$[ebp], ecx

; 321  : 	if(!this->Enable) return;

  0110c	8b 45 fc	 mov	 eax, DWORD PTR _this$[ebp]
  0110f	83 38 00	 cmp	 DWORD PTR [eax], 0
  01112	75 05		 jne	 SHORT $LN5@ConnectInf
  01114	e9 00 01 00 00	 jmp	 $LN6@ConnectInf
$LN5@ConnectInf:

; 322  : 	LPOBJ lpObj = &gObj[aIndex];

  01119	8b 45 08	 mov	 eax, DWORD PTR _aIndex$[ebp]
  0111c	69 c0 38 2b 00
	00		 imul	 eax, 11064		; 00002b38H
  01122	03 05 00 00 00
	00		 add	 eax, DWORD PTR ?gObj@@3PAUOBJECTSTRUCT@@A ; gObj
  01128	89 45 f8	 mov	 DWORD PTR _lpObj$[ebp], eax

; 323  : 	if(lpObj->PremiumTime > 0)

  0112b	8b 45 f8	 mov	 eax, DWORD PTR _lpObj$[ebp]
  0112e	83 b8 b8 22 00
	00 00		 cmp	 DWORD PTR [eax+8888], 0
  01135	0f 8e de 00 00
	00		 jle	 $LN6@ConnectInf

; 324  : 	{
; 325  : #ifdef DRYNEA_31_10
; 326  : #else
; 327  : 		if(g_ExLicense.CheckUser(eExUB::drynea))
; 328  : 		{
; 329  : 		}
; 330  : 		else
; 331  : 		{
; 332  : #endif
; 333  : 			MessageChat(aIndex,"@[Premium Status] Active");

  0113b	68 00 00 00 00	 push	 OFFSET ??_C@_0BJ@DIOJMKBK@?$EA?$FLPremium?5Status?$FN?5Active?$AA@
  01140	8b 45 08	 mov	 eax, DWORD PTR _aIndex$[ebp]
  01143	50		 push	 eax
  01144	e8 00 00 00 00	 call	 ?MessageChat@@YAXHPADZZ	; MessageChat
  01149	83 c4 08	 add	 esp, 8

; 334  : #ifdef DRYNEA_31_10
; 335  : 			if(g_ExLicense.CheckUser(eExUB::SILVER1) || g_ExLicense.CheckUser(eExUB::SILVER2) || g_ExLicense.CheckUser(eExUB::PrideMuLocal) || g_ExLicense.CheckUser(eExUB::PrideMuLocal) || g_ExLicense.CheckUser(eExUB::PrideMu) || g_ExLicense.CheckUser(eExUB::drynea) || g_ExLicense.CheckUser(eExUB::Local3))

  0114c	6a 07		 push	 7
  0114e	b9 00 00 00 00	 mov	 ecx, OFFSET ?g_ExLicense@@3VCExLicense@@A ; g_ExLicense
  01153	e8 00 00 00 00	 call	 ?CheckUser@CExLicense@@QAE_NH@Z ; CExLicense::CheckUser
  01158	0f b6 c0	 movzx	 eax, al
  0115b	85 c0		 test	 eax, eax
  0115d	75 72		 jne	 SHORT $LN2@ConnectInf
  0115f	6a 08		 push	 8
  01161	b9 00 00 00 00	 mov	 ecx, OFFSET ?g_ExLicense@@3VCExLicense@@A ; g_ExLicense
  01166	e8 00 00 00 00	 call	 ?CheckUser@CExLicense@@QAE_NH@Z ; CExLicense::CheckUser
  0116b	0f b6 c0	 movzx	 eax, al
  0116e	85 c0		 test	 eax, eax
  01170	75 5f		 jne	 SHORT $LN2@ConnectInf
  01172	6a 1a		 push	 26			; 0000001aH
  01174	b9 00 00 00 00	 mov	 ecx, OFFSET ?g_ExLicense@@3VCExLicense@@A ; g_ExLicense
  01179	e8 00 00 00 00	 call	 ?CheckUser@CExLicense@@QAE_NH@Z ; CExLicense::CheckUser
  0117e	0f b6 c0	 movzx	 eax, al
  01181	85 c0		 test	 eax, eax
  01183	75 4c		 jne	 SHORT $LN2@ConnectInf
  01185	6a 1a		 push	 26			; 0000001aH
  01187	b9 00 00 00 00	 mov	 ecx, OFFSET ?g_ExLicense@@3VCExLicense@@A ; g_ExLicense
  0118c	e8 00 00 00 00	 call	 ?CheckUser@CExLicense@@QAE_NH@Z ; CExLicense::CheckUser
  01191	0f b6 c0	 movzx	 eax, al
  01194	85 c0		 test	 eax, eax
  01196	75 39		 jne	 SHORT $LN2@ConnectInf
  01198	6a 11		 push	 17			; 00000011H
  0119a	b9 00 00 00 00	 mov	 ecx, OFFSET ?g_ExLicense@@3VCExLicense@@A ; g_ExLicense
  0119f	e8 00 00 00 00	 call	 ?CheckUser@CExLicense@@QAE_NH@Z ; CExLicense::CheckUser
  011a4	0f b6 c0	 movzx	 eax, al
  011a7	85 c0		 test	 eax, eax
  011a9	75 26		 jne	 SHORT $LN2@ConnectInf
  011ab	6a 01		 push	 1
  011ad	b9 00 00 00 00	 mov	 ecx, OFFSET ?g_ExLicense@@3VCExLicense@@A ; g_ExLicense
  011b2	e8 00 00 00 00	 call	 ?CheckUser@CExLicense@@QAE_NH@Z ; CExLicense::CheckUser
  011b7	0f b6 c0	 movzx	 eax, al
  011ba	85 c0		 test	 eax, eax
  011bc	75 13		 jne	 SHORT $LN2@ConnectInf
  011be	6a 1c		 push	 28			; 0000001cH
  011c0	b9 00 00 00 00	 mov	 ecx, OFFSET ?g_ExLicense@@3VCExLicense@@A ; g_ExLicense
  011c5	e8 00 00 00 00	 call	 ?CheckUser@CExLicense@@QAE_NH@Z ; CExLicense::CheckUser
  011ca	0f b6 c0	 movzx	 eax, al
  011cd	85 c0		 test	 eax, eax
  011cf	74 25		 je	 SHORT $LN3@ConnectInf
$LN2@ConnectInf:

; 336  : #else
; 337  : 			if(g_ExLicense.CheckUser(eExUB::SILVER1) || g_ExLicense.CheckUser(eExUB::SILVER2) || g_ExLicense.CheckUser(eExUB::PrideMuLocal) || g_ExLicense.CheckUser(eExUB::PrideMuLocal) || g_ExLicense.CheckUser(eExUB::PrideMu) || g_ExLicense.CheckUser(eExUB::Local3) || g_ExLicense.CheckUser(eExUB::Local))
; 338  : #endif
; 339  : 			{
; 340  : 				MessageChat(aIndex,"@[Premium Status] Day: %d",(lpObj->PremiumTime/(60 * 60 * 24)));

  011d1	8b 45 f8	 mov	 eax, DWORD PTR _lpObj$[ebp]
  011d4	8b 80 b8 22 00
	00		 mov	 eax, DWORD PTR [eax+8888]
  011da	99		 cdq
  011db	b9 80 51 01 00	 mov	 ecx, 86400		; 00015180H
  011e0	f7 f9		 idiv	 ecx
  011e2	50		 push	 eax
  011e3	68 00 00 00 00	 push	 OFFSET ??_C@_0BK@HOGFNKCF@?$EA?$FLPremium?5Status?$FN?5Day?3?5?$CFd?$AA@
  011e8	8b 55 08	 mov	 edx, DWORD PTR _aIndex$[ebp]
  011eb	52		 push	 edx
  011ec	e8 00 00 00 00	 call	 ?MessageChat@@YAXHPADZZ	; MessageChat
  011f1	83 c4 0c	 add	 esp, 12			; 0000000cH

; 341  : 			}
; 342  : 			else 

  011f4	eb 23		 jmp	 SHORT $LN6@ConnectInf
$LN3@ConnectInf:

; 343  : 			{
; 344  : 				MessageChat(aIndex,"@[Premium Status] Min: %d",(lpObj->PremiumTime/60));

  011f6	8b 45 f8	 mov	 eax, DWORD PTR _lpObj$[ebp]
  011f9	8b 80 b8 22 00
	00		 mov	 eax, DWORD PTR [eax+8888]
  011ff	99		 cdq
  01200	b9 3c 00 00 00	 mov	 ecx, 60			; 0000003cH
  01205	f7 f9		 idiv	 ecx
  01207	50		 push	 eax
  01208	68 00 00 00 00	 push	 OFFSET ??_C@_0BK@EMBGLNEK@?$EA?$FLPremium?5Status?$FN?5Min?3?5?$CFd?$AA@
  0120d	8b 55 08	 mov	 edx, DWORD PTR _aIndex$[ebp]
  01210	52		 push	 edx
  01211	e8 00 00 00 00	 call	 ?MessageChat@@YAXHPADZZ	; MessageChat
  01216	83 c4 0c	 add	 esp, 12			; 0000000cH
$LN6@ConnectInf:

; 345  : 			}
; 346  : #ifdef DRYNEA_31_10
; 347  : #else
; 348  : 		}
; 349  : #endif
; 350  : 	}
; 351  : }

  01219	5f		 pop	 edi
  0121a	5e		 pop	 esi
  0121b	5b		 pop	 ebx
  0121c	8b e5		 mov	 esp, ebp
  0121e	5d		 pop	 ebp
  0121f	c2 04 00	 ret	 4
?ConnectInfo@PremiumSystem@@QAEXH@Z ENDP		; PremiumSystem::ConnectInfo
_TEXT	ENDS
PUBLIC	?CheckPremium@PremiumSystem@@QAE_NH@Z		; PremiumSystem::CheckPremium
; Function compile flags: /Odtp /ZI
_TEXT	SEGMENT
_lpObj$ = -8						; size = 4
_this$ = -4						; size = 4
_aIndex$ = 8						; size = 4
?CheckPremium@PremiumSystem@@QAE_NH@Z PROC		; PremiumSystem::CheckPremium
; _this$ = ecx

; 354  : {

  01230	55		 push	 ebp
  01231	8b ec		 mov	 ebp, esp
  01233	83 ec 48	 sub	 esp, 72			; 00000048H
  01236	53		 push	 ebx
  01237	56		 push	 esi
  01238	57		 push	 edi
  01239	89 4d fc	 mov	 DWORD PTR _this$[ebp], ecx

; 355  : 	if(!this->Enable) return false;

  0123c	8b 45 fc	 mov	 eax, DWORD PTR _this$[ebp]
  0123f	83 38 00	 cmp	 DWORD PTR [eax], 0
  01242	75 04		 jne	 SHORT $LN2@CheckPremi
  01244	32 c0		 xor	 al, al
  01246	eb 24		 jmp	 SHORT $LN3@CheckPremi
$LN2@CheckPremi:

; 356  : 	LPOBJ lpObj = &gObj[aIndex];

  01248	8b 45 08	 mov	 eax, DWORD PTR _aIndex$[ebp]
  0124b	69 c0 38 2b 00
	00		 imul	 eax, 11064		; 00002b38H
  01251	03 05 00 00 00
	00		 add	 eax, DWORD PTR ?gObj@@3PAUOBJECTSTRUCT@@A ; gObj
  01257	89 45 f8	 mov	 DWORD PTR _lpObj$[ebp], eax

; 357  : 	if(lpObj->PremiumTime > 0)

  0125a	8b 45 f8	 mov	 eax, DWORD PTR _lpObj$[ebp]
  0125d	83 b8 b8 22 00
	00 00		 cmp	 DWORD PTR [eax+8888], 0
  01264	7e 04		 jle	 SHORT $LN1@CheckPremi

; 358  : 	{
; 359  : 		return true;

  01266	b0 01		 mov	 al, 1
  01268	eb 02		 jmp	 SHORT $LN3@CheckPremi
$LN1@CheckPremi:

; 360  : 	}
; 361  : 	return false;

  0126a	32 c0		 xor	 al, al
$LN3@CheckPremi:

; 362  : }

  0126c	5f		 pop	 edi
  0126d	5e		 pop	 esi
  0126e	5b		 pop	 ebx
  0126f	8b e5		 mov	 esp, ebp
  01271	5d		 pop	 ebp
  01272	c2 04 00	 ret	 4
?CheckPremium@PremiumSystem@@QAE_NH@Z ENDP		; PremiumSystem::CheckPremium
_TEXT	ENDS
PUBLIC	?CheckPremiumServer@PremiumSystem@@QAE_NH@Z	; PremiumSystem::CheckPremiumServer
; Function compile flags: /Odtp /ZI
_TEXT	SEGMENT
tv67 = -76						; size = 4
_lpUser$220726 = -8					; size = 4
_this$ = -4						; size = 4
_aIndex$ = 8						; size = 4
?CheckPremiumServer@PremiumSystem@@QAE_NH@Z PROC	; PremiumSystem::CheckPremiumServer
; _this$ = ecx

; 393  : {

  01280	55		 push	 ebp
  01281	8b ec		 mov	 ebp, esp
  01283	83 ec 4c	 sub	 esp, 76			; 0000004cH
  01286	53		 push	 ebx
  01287	56		 push	 esi
  01288	57		 push	 edi
  01289	89 4d fc	 mov	 DWORD PTR _this$[ebp], ecx

; 394  : 	if(!OBJMAX_RANGE(aIndex))

  0128c	83 7d 08 00	 cmp	 DWORD PTR _aIndex$[ebp], 0
  01290	7d 09		 jge	 SHORT $LN6@CheckPremi@2
  01292	c7 45 b4 00 00
	00 00		 mov	 DWORD PTR tv67[ebp], 0
  01299	eb 0f		 jmp	 SHORT $LN7@CheckPremi@2
$LN6@CheckPremi@2:
  0129b	33 c0		 xor	 eax, eax
  0129d	81 7d 08 97 3a
	00 00		 cmp	 DWORD PTR _aIndex$[ebp], 14999 ; 00003a97H
  012a4	0f 9e c0	 setle	 al
  012a7	89 45 b4	 mov	 DWORD PTR tv67[ebp], eax
$LN7@CheckPremi@2:
  012aa	83 7d b4 00	 cmp	 DWORD PTR tv67[ebp], 0
  012ae	75 04		 jne	 SHORT $LN3@CheckPremi@2

; 395  : 	{
; 396  : 		return false;

  012b0	32 c0		 xor	 al, al
  012b2	eb 32		 jmp	 SHORT $LN4@CheckPremi@2
$LN3@CheckPremi@2:

; 397  : 	}
; 398  : 
; 399  : 	if(this->m_PremiumServerEnable)

  012b4	8b 45 fc	 mov	 eax, DWORD PTR _this$[ebp]
  012b7	0f b6 88 10 2f
	00 00		 movzx	 ecx, BYTE PTR [eax+12048]
  012be	85 c9		 test	 ecx, ecx
  012c0	74 22		 je	 SHORT $LN2@CheckPremi@2

; 400  : 	{
; 401  : 		LPOBJ lpUser = &gObj[aIndex];

  012c2	8b 45 08	 mov	 eax, DWORD PTR _aIndex$[ebp]
  012c5	69 c0 38 2b 00
	00		 imul	 eax, 11064		; 00002b38H
  012cb	03 05 00 00 00
	00		 add	 eax, DWORD PTR ?gObj@@3PAUOBJECTSTRUCT@@A ; gObj
  012d1	89 45 f8	 mov	 DWORD PTR _lpUser$220726[ebp], eax

; 402  : 
; 403  : 		if(lpUser->PremiumTime <= 0)

  012d4	8b 45 f8	 mov	 eax, DWORD PTR _lpUser$220726[ebp]
  012d7	83 b8 b8 22 00
	00 00		 cmp	 DWORD PTR [eax+8888], 0
  012de	7f 04		 jg	 SHORT $LN2@CheckPremi@2

; 404  : 		{
; 405  : 			return false;

  012e0	32 c0		 xor	 al, al
  012e2	eb 02		 jmp	 SHORT $LN4@CheckPremi@2
$LN2@CheckPremi@2:

; 406  : 		}
; 407  : 	}
; 408  : 
; 409  : 	return true;

  012e4	b0 01		 mov	 al, 1
$LN4@CheckPremi@2:

; 410  : }

  012e6	5f		 pop	 edi
  012e7	5e		 pop	 esi
  012e8	5b		 pop	 ebx
  012e9	8b e5		 mov	 esp, ebp
  012eb	5d		 pop	 ebp
  012ec	c2 04 00	 ret	 4
?CheckPremiumServer@PremiumSystem@@QAE_NH@Z ENDP	; PremiumSystem::CheckPremiumServer
_TEXT	ENDS
END
