; Listing generated by Microsoft (R) Optimizing Compiler Version 16.00.40219.01 

	TITLE	D:\Projects\ExTeam6.3\Source\GameServer\GameServer\PremiumSystemEx.cpp
	.686P
	.XMM
	include listing.inc
	.model	flat

INCLUDELIB LIBCMT
INCLUDELIB OLDNAMES

_DATA	SEGMENT
_g_iNpcUpDfLevel_CGATE DD 01H
	DD	02H
	DD	02dc6c0H
	DD	02H
	DD	03H
	DD	02dc6c0H
	DD	03H
	DD	04H
	DD	02dc6c0H
_g_iNpcUpDfLevel_CSTATUE DD 01H
	DD	03H
	DD	02dc6c0H
	DD	02H
	DD	05H
	DD	02dc6c0H
	DD	03H
	DD	07H
	DD	02dc6c0H
_g_iNpcUpMaxHP_CGATE DD 02625a0H
	DD	02H
	DD	0f4240H
	DD	03567e0H
	DD	03H
	DD	0f4240H
	DD	04f5880H
	DD	04H
	DD	0f4240H
_g_iNpcUpMaxHP_CSTATUE DD 02191c0H
	DD	03H
	DD	0f4240H
	DD	033e140H
	DD	05H
	DD	0f4240H
	DD	04c4b40H
	DD	07H
	DD	0f4240H
_g_iNpcUpRgLevel_CSTATUE DD 01H
	DD	03H
	DD	04c4b40H
	DD	02H
	DD	05H
	DD	04c4b40H
	DD	03H
	DD	07H
	DD	04c4b40H
_g_iCsUserReSpawnArea DD 023H
	DD	011H
	DD	090H
	DD	030H
	DD	04aH
	DD	090H
	DD	073H
	DD	09aH
	DD	023H
	DD	011H
	DD	090H
	DD	030H
_g_iNpcDefense_CGATE DD 064H
	DD	0b4H
	DD	012cH
	DD	0208H
_g_iNpcDefense_CSTATUE DD 050H
	DD	0b4H
	DD	0154H
	DD	0226H
_g_iCastleWallStepAxisY DD 071H
	DD	0a0H
	DD	0cbH
_DATA	ENDS
PUBLIC	??_H@YGXPAXIHP6EPAX0@Z@Z			; `vector constructor iterator'
; Function compile flags: /Odtp /ZI
;	COMDAT ??_H@YGXPAXIHP6EPAX0@Z@Z
_TEXT	SEGMENT
___t$ = 8						; size = 4
___s$ = 12						; size = 4
___n$ = 16						; size = 4
___f$ = 20						; size = 4
??_H@YGXPAXIHP6EPAX0@Z@Z PROC				; `vector constructor iterator', COMDAT
  00000	55		 push	 ebp
  00001	8b ec		 mov	 ebp, esp
  00003	83 ec 40	 sub	 esp, 64			; 00000040H
  00006	53		 push	 ebx
  00007	56		 push	 esi
  00008	57		 push	 edi
$LN2@vector:
  00009	8b 45 10	 mov	 eax, DWORD PTR ___n$[ebp]
  0000c	83 e8 01	 sub	 eax, 1
  0000f	89 45 10	 mov	 DWORD PTR ___n$[ebp], eax
  00012	78 11		 js	 SHORT $LN3@vector
  00014	8b 4d 08	 mov	 ecx, DWORD PTR ___t$[ebp]
  00017	ff 55 14	 call	 DWORD PTR ___f$[ebp]
  0001a	8b 45 08	 mov	 eax, DWORD PTR ___t$[ebp]
  0001d	03 45 0c	 add	 eax, DWORD PTR ___s$[ebp]
  00020	89 45 08	 mov	 DWORD PTR ___t$[ebp], eax
  00023	eb e4		 jmp	 SHORT $LN2@vector
$LN3@vector:
  00025	5f		 pop	 edi
  00026	5e		 pop	 esi
  00027	5b		 pop	 ebx
  00028	8b e5		 mov	 esp, ebp
  0002a	5d		 pop	 ebp
  0002b	c2 10 00	 ret	 16			; 00000010H
??_H@YGXPAXIHP6EPAX0@Z@Z ENDP				; `vector constructor iterator'
_TEXT	ENDS
PUBLIC	?Init@PremiumSystemEx@@QAEXXZ			; PremiumSystemEx::Init
PUBLIC	??0PremiumSystemEx@@QAE@XZ			; PremiumSystemEx::PremiumSystemEx
; Function compile flags: /Odtp /ZI
; File d:\projects\exteam6.3\source\gameserver\gameserver\premiumsystemex.cpp
_TEXT	SEGMENT
_this$ = -4						; size = 4
??0PremiumSystemEx@@QAE@XZ PROC				; PremiumSystemEx::PremiumSystemEx
; _this$ = ecx

; 22   : {

  00000	55		 push	 ebp
  00001	8b ec		 mov	 ebp, esp
  00003	83 ec 44	 sub	 esp, 68			; 00000044H
  00006	53		 push	 ebx
  00007	56		 push	 esi
  00008	57		 push	 edi
  00009	89 4d fc	 mov	 DWORD PTR _this$[ebp], ecx

; 23   : 	this->Init();

  0000c	8b 4d fc	 mov	 ecx, DWORD PTR _this$[ebp]
  0000f	e8 00 00 00 00	 call	 ?Init@PremiumSystemEx@@QAEXXZ ; PremiumSystemEx::Init

; 24   : }

  00014	8b 45 fc	 mov	 eax, DWORD PTR _this$[ebp]
  00017	5f		 pop	 edi
  00018	5e		 pop	 esi
  00019	5b		 pop	 ebx
  0001a	8b e5		 mov	 esp, ebp
  0001c	5d		 pop	 ebp
  0001d	c3		 ret	 0
??0PremiumSystemEx@@QAE@XZ ENDP				; PremiumSystemEx::PremiumSystemEx
_TEXT	ENDS
PUBLIC	??1PremiumSystemEx@@QAE@XZ			; PremiumSystemEx::~PremiumSystemEx
; Function compile flags: /Odtp /ZI
_TEXT	SEGMENT
_this$ = -4						; size = 4
??1PremiumSystemEx@@QAE@XZ PROC				; PremiumSystemEx::~PremiumSystemEx
; _this$ = ecx

; 28   : {

  00020	55		 push	 ebp
  00021	8b ec		 mov	 ebp, esp
  00023	83 ec 44	 sub	 esp, 68			; 00000044H
  00026	53		 push	 ebx
  00027	56		 push	 esi
  00028	57		 push	 edi
  00029	89 4d fc	 mov	 DWORD PTR _this$[ebp], ecx

; 29   : 	// ----
; 30   : }

  0002c	5f		 pop	 edi
  0002d	5e		 pop	 esi
  0002e	5b		 pop	 ebx
  0002f	8b e5		 mov	 esp, ebp
  00031	5d		 pop	 ebp
  00032	c3		 ret	 0
??1PremiumSystemEx@@QAE@XZ ENDP				; PremiumSystemEx::~PremiumSystemEx
; Function compile flags: /Odtp /ZI
_this$ = -4						; size = 4
?Init@PremiumSystemEx@@QAEXXZ PROC			; PremiumSystemEx::Init
; _this$ = ecx

; 34   : {

  00040	55		 push	 ebp
  00041	8b ec		 mov	 ebp, esp
  00043	83 ec 44	 sub	 esp, 68			; 00000044H
  00046	53		 push	 ebx
  00047	56		 push	 esi
  00048	57		 push	 edi
  00049	89 4d fc	 mov	 DWORD PTR _this$[ebp], ecx

; 35   : 	this->ActiveSystem = false;

  0004c	8b 45 fc	 mov	 eax, DWORD PTR _this$[ebp]
  0004f	c6 00 00	 mov	 BYTE PTR [eax], 0

; 36   : 
; 37   : 	this->Plus1ExpProcent = 0;

  00052	8b 45 fc	 mov	 eax, DWORD PTR _this$[ebp]
  00055	c7 40 04 00 00
	00 00		 mov	 DWORD PTR [eax+4], 0

; 38   : 	this->Plus1DropZenProcent = 0;

  0005c	8b 45 fc	 mov	 eax, DWORD PTR _this$[ebp]
  0005f	c7 40 08 00 00
	00 00		 mov	 DWORD PTR [eax+8], 0

; 39   : 	this->Plus1DamageProcent = 0;

  00066	8b 45 fc	 mov	 eax, DWORD PTR _this$[ebp]
  00069	c7 40 0c 00 00
	00 00		 mov	 DWORD PTR [eax+12], 0

; 40   : 	this->Plus1DefenceProcent = 0;

  00070	8b 45 fc	 mov	 eax, DWORD PTR _this$[ebp]
  00073	c7 40 10 00 00
	00 00		 mov	 DWORD PTR [eax+16], 0

; 41   : 	this->Plus1WizardDamageProcent = 0;

  0007a	8b 45 fc	 mov	 eax, DWORD PTR _this$[ebp]
  0007d	c7 40 14 00 00
	00 00		 mov	 DWORD PTR [eax+20], 0

; 42   : 	this->Buy1CreditDay = 0;

  00084	8b 45 fc	 mov	 eax, DWORD PTR _this$[ebp]
  00087	c7 40 18 00 00
	00 00		 mov	 DWORD PTR [eax+24], 0

; 43   : 
; 44   : 	this->Plus2ExpProcent = 0;

  0008e	8b 45 fc	 mov	 eax, DWORD PTR _this$[ebp]
  00091	c7 40 1c 00 00
	00 00		 mov	 DWORD PTR [eax+28], 0

; 45   : 	this->Plus2DropZenProcent = 0;

  00098	8b 45 fc	 mov	 eax, DWORD PTR _this$[ebp]
  0009b	c7 40 20 00 00
	00 00		 mov	 DWORD PTR [eax+32], 0

; 46   : 	this->Plus2DamageProcent = 0;

  000a2	8b 45 fc	 mov	 eax, DWORD PTR _this$[ebp]
  000a5	c7 40 24 00 00
	00 00		 mov	 DWORD PTR [eax+36], 0

; 47   : 	this->Plus2DefenceProcent = 0;

  000ac	8b 45 fc	 mov	 eax, DWORD PTR _this$[ebp]
  000af	c7 40 28 00 00
	00 00		 mov	 DWORD PTR [eax+40], 0

; 48   : 	this->Plus2WizardDamageProcent = 0;

  000b6	8b 45 fc	 mov	 eax, DWORD PTR _this$[ebp]
  000b9	c7 40 2c 00 00
	00 00		 mov	 DWORD PTR [eax+44], 0

; 49   : 	this->Buy2CreditDay = 0;

  000c0	8b 45 fc	 mov	 eax, DWORD PTR _this$[ebp]
  000c3	c7 40 30 00 00
	00 00		 mov	 DWORD PTR [eax+48], 0

; 50   : 
; 51   : 	this->Plus3ExpProcent = 0;

  000ca	8b 45 fc	 mov	 eax, DWORD PTR _this$[ebp]
  000cd	c7 40 34 00 00
	00 00		 mov	 DWORD PTR [eax+52], 0

; 52   : 	this->Plus3DropZenProcent = 0;

  000d4	8b 45 fc	 mov	 eax, DWORD PTR _this$[ebp]
  000d7	c7 40 38 00 00
	00 00		 mov	 DWORD PTR [eax+56], 0

; 53   : 	this->Plus3DamageProcent = 0;

  000de	8b 45 fc	 mov	 eax, DWORD PTR _this$[ebp]
  000e1	c7 40 3c 00 00
	00 00		 mov	 DWORD PTR [eax+60], 0

; 54   : 	this->Plus3DefenceProcent = 0;

  000e8	8b 45 fc	 mov	 eax, DWORD PTR _this$[ebp]
  000eb	c7 40 40 00 00
	00 00		 mov	 DWORD PTR [eax+64], 0

; 55   : 	this->Plus3WizardDamageProcent = 0;

  000f2	8b 45 fc	 mov	 eax, DWORD PTR _this$[ebp]
  000f5	c7 40 44 00 00
	00 00		 mov	 DWORD PTR [eax+68], 0

; 56   : 	this->Buy3CreditDay = 0;

  000fc	8b 45 fc	 mov	 eax, DWORD PTR _this$[ebp]
  000ff	c7 40 48 00 00
	00 00		 mov	 DWORD PTR [eax+72], 0

; 57   : 
; 58   : 	this->Buy1WCoinDay = 0;

  00106	8b 45 fc	 mov	 eax, DWORD PTR _this$[ebp]
  00109	c7 40 54 00 00
	00 00		 mov	 DWORD PTR [eax+84], 0

; 59   : 	this->Buy2WCoinDay = 0;

  00110	8b 45 fc	 mov	 eax, DWORD PTR _this$[ebp]
  00113	c7 40 58 00 00
	00 00		 mov	 DWORD PTR [eax+88], 0

; 60   : 	this->Buy3WCoinDay = 0;

  0011a	8b 45 fc	 mov	 eax, DWORD PTR _this$[ebp]
  0011d	c7 40 5c 00 00
	00 00		 mov	 DWORD PTR [eax+92], 0

; 61   : }

  00124	5f		 pop	 edi
  00125	5e		 pop	 esi
  00126	5b		 pop	 ebx
  00127	8b e5		 mov	 esp, ebp
  00129	5d		 pop	 ebp
  0012a	c3		 ret	 0
?Init@PremiumSystemEx@@QAEXXZ ENDP			; PremiumSystemEx::Init
_TEXT	ENDS
PUBLIC	?CheckValue@PremiumSystemEx@@QAEXXZ		; PremiumSystemEx::CheckValue
PUBLIC	?Read@PremiumSystemEx@@QAEXPAD@Z		; PremiumSystemEx::Read
PUBLIC	??_C@_0BL@JIAOHBMA@ExData?2PremiumSystemEx?4ini?$AA@ ; `string'
PUBLIC	?Load@PremiumSystemEx@@QAEXXZ			; PremiumSystemEx::Load
EXTRN	?GetNewPath@CDirPath@@QAEPADPAD@Z:PROC		; CDirPath::GetNewPath
EXTRN	?gDirPath@@3VCDirPath@@A:BYTE			; gDirPath
EXTRN	?g_ExLicense@@3VCExLicense@@A:BYTE		; g_ExLicense
;	COMDAT ??_C@_0BL@JIAOHBMA@ExData?2PremiumSystemEx?4ini?$AA@
CONST	SEGMENT
??_C@_0BL@JIAOHBMA@ExData?2PremiumSystemEx?4ini?$AA@ DB 'ExData\PremiumSy'
	DB	'stemEx.ini', 00H				; `string'
; Function compile flags: /Odtp /ZI
CONST	ENDS
_TEXT	SEGMENT
_this$ = -4						; size = 4
?Load@PremiumSystemEx@@QAEXXZ PROC			; PremiumSystemEx::Load
; _this$ = ecx

; 65   : {

  00130	55		 push	 ebp
  00131	8b ec		 mov	 ebp, esp
  00133	83 ec 44	 sub	 esp, 68			; 00000044H
  00136	53		 push	 ebx
  00137	56		 push	 esi
  00138	57		 push	 edi
  00139	89 4d fc	 mov	 DWORD PTR _this$[ebp], ecx

; 66   : 	this->Init();

  0013c	8b 4d fc	 mov	 ecx, DWORD PTR _this$[ebp]
  0013f	e8 00 00 00 00	 call	 ?Init@PremiumSystemEx@@QAEXXZ ; PremiumSystemEx::Init

; 67   : 
; 68   : 	if(g_ExLicense.user.PremiumEx == false)

  00144	0f b6 05 ea 00
	00 00		 movzx	 eax, BYTE PTR ?g_ExLicense@@3VCExLicense@@A+234
  0014b	85 c0		 test	 eax, eax
  0014d	75 02		 jne	 SHORT $LN1@Load

; 69   : 	{
; 70   : 		return;

  0014f	eb 20		 jmp	 SHORT $LN2@Load
$LN1@Load:

; 71   : 	}
; 72   : 
; 73   : 	this->Read(gDirPath.GetNewPath("ExData\\PremiumSystemEx.ini"));

  00151	68 00 00 00 00	 push	 OFFSET ??_C@_0BL@JIAOHBMA@ExData?2PremiumSystemEx?4ini?$AA@
  00156	b9 00 00 00 00	 mov	 ecx, OFFSET ?gDirPath@@3VCDirPath@@A ; gDirPath
  0015b	e8 00 00 00 00	 call	 ?GetNewPath@CDirPath@@QAEPADPAD@Z ; CDirPath::GetNewPath
  00160	50		 push	 eax
  00161	8b 4d fc	 mov	 ecx, DWORD PTR _this$[ebp]
  00164	e8 00 00 00 00	 call	 ?Read@PremiumSystemEx@@QAEXPAD@Z ; PremiumSystemEx::Read

; 74   : 
; 75   : 	this->CheckValue();

  00169	8b 4d fc	 mov	 ecx, DWORD PTR _this$[ebp]
  0016c	e8 00 00 00 00	 call	 ?CheckValue@PremiumSystemEx@@QAEXXZ ; PremiumSystemEx::CheckValue
$LN2@Load:

; 76   : }

  00171	5f		 pop	 edi
  00172	5e		 pop	 esi
  00173	5b		 pop	 ebx
  00174	8b e5		 mov	 esp, ebp
  00176	5d		 pop	 ebp
  00177	c3		 ret	 0
?Load@PremiumSystemEx@@QAEXXZ ENDP			; PremiumSystemEx::Load
_TEXT	ENDS
PUBLIC	??_C@_0N@PBKANAPF@Buy3WCoinDay?$AA@		; `string'
PUBLIC	??_C@_0N@BOGCLLML@Buy2WCoinDay?$AA@		; `string'
PUBLIC	??_C@_0N@PFFFAAMI@Buy1WCoinDay?$AA@		; `string'
PUBLIC	??_C@_0BN@OOAELOPG@OfflineModePickUpPremiumRang?$AA@ ; `string'
PUBLIC	??_C@_0CB@KCGGNELK@OfflineModeAttackFreePremiumRang@ ; `string'
PUBLIC	??_C@_0O@ONDOMJAN@Buy3CreditDay?$AA@		; `string'
PUBLIC	??_C@_0BJ@MFJBFKHL@Plus3WizardDamageProcent?$AA@ ; `string'
PUBLIC	??_C@_0BE@BIKGIMAL@Plus3DefenceProcent?$AA@	; `string'
PUBLIC	??_C@_0BD@LOPKOFKG@Plus3DamageProcent?$AA@	; `string'
PUBLIC	??_C@_0BE@BPAPFMKH@Plus3DropZenProcent?$AA@	; `string'
PUBLIC	??_C@_0BA@GILCNFHE@Plus3ExpProcent?$AA@		; `string'
PUBLIC	??_C@_0O@CMLABGMN@Buy2CreditDay?$AA@		; `string'
PUBLIC	??_C@_0BJ@FKELNJOF@Plus2WizardDamageProcent?$AA@ ; `string'
PUBLIC	??_C@_0BE@LGMOBNJK@Plus2DefenceProcent?$AA@	; `string'
PUBLIC	??_C@_0BD@HABDOEO@Plus2DamageProcent?$AA@	; `string'
PUBLIC	??_C@_0BE@LBGHMNDG@Plus2DropZenProcent?$AA@	; `string'
PUBLIC	??_C@_0BA@PDBHJJBL@Plus2ExpProcent?$AA@		; `string'
PUBLIC	??_C@_0O@LFFCHAMM@Buy1CreditDay?$AA@		; `string'
PUBLIC	??_C@_0BJ@CBFFFLAG@Plus1WizardDamageProcent?$AA@ ; `string'
PUBLIC	??_C@_0BD@BGHMFEDH@Plus1DamageProcent?$AA@	; `string'
PUBLIC	??_C@_0BE@JIKPHJME@Plus1DropZenProcent?$AA@	; `string'
PUBLIC	??_C@_0BA@IEIJELOL@Plus1ExpProcent?$AA@		; `string'
PUBLIC	??_C@_06POMJKEPM@Common?$AA@			; `string'
PUBLIC	??_C@_0N@ENJHELDG@ActiveSystem?$AA@		; `string'
EXTRN	__imp__GetPrivateProfileIntA@16:PROC
;	COMDAT ??_C@_0N@PBKANAPF@Buy3WCoinDay?$AA@
CONST	SEGMENT
??_C@_0N@PBKANAPF@Buy3WCoinDay?$AA@ DB 'Buy3WCoinDay', 00H ; `string'
CONST	ENDS
;	COMDAT ??_C@_0N@BOGCLLML@Buy2WCoinDay?$AA@
CONST	SEGMENT
??_C@_0N@BOGCLLML@Buy2WCoinDay?$AA@ DB 'Buy2WCoinDay', 00H ; `string'
CONST	ENDS
;	COMDAT ??_C@_0N@PFFFAAMI@Buy1WCoinDay?$AA@
CONST	SEGMENT
??_C@_0N@PFFFAAMI@Buy1WCoinDay?$AA@ DB 'Buy1WCoinDay', 00H ; `string'
CONST	ENDS
;	COMDAT ??_C@_0BN@OOAELOPG@OfflineModePickUpPremiumRang?$AA@
CONST	SEGMENT
??_C@_0BN@OOAELOPG@OfflineModePickUpPremiumRang?$AA@ DB 'OfflineModePickU'
	DB	'pPremiumRang', 00H				; `string'
CONST	ENDS
;	COMDAT ??_C@_0CB@KCGGNELK@OfflineModeAttackFreePremiumRang@
CONST	SEGMENT
??_C@_0CB@KCGGNELK@OfflineModeAttackFreePremiumRang@ DB 'OfflineModeAttac'
	DB	'kFreePremiumRang', 00H			; `string'
CONST	ENDS
;	COMDAT ??_C@_0O@ONDOMJAN@Buy3CreditDay?$AA@
CONST	SEGMENT
??_C@_0O@ONDOMJAN@Buy3CreditDay?$AA@ DB 'Buy3CreditDay', 00H ; `string'
CONST	ENDS
;	COMDAT ??_C@_0BJ@MFJBFKHL@Plus3WizardDamageProcent?$AA@
CONST	SEGMENT
??_C@_0BJ@MFJBFKHL@Plus3WizardDamageProcent?$AA@ DB 'Plus3WizardDamagePro'
	DB	'cent', 00H					; `string'
CONST	ENDS
;	COMDAT ??_C@_0BE@BIKGIMAL@Plus3DefenceProcent?$AA@
CONST	SEGMENT
??_C@_0BE@BIKGIMAL@Plus3DefenceProcent?$AA@ DB 'Plus3DefenceProcent', 00H ; `string'
CONST	ENDS
;	COMDAT ??_C@_0BD@LOPKOFKG@Plus3DamageProcent?$AA@
CONST	SEGMENT
??_C@_0BD@LOPKOFKG@Plus3DamageProcent?$AA@ DB 'Plus3DamageProcent', 00H ; `string'
CONST	ENDS
;	COMDAT ??_C@_0BE@BPAPFMKH@Plus3DropZenProcent?$AA@
CONST	SEGMENT
??_C@_0BE@BPAPFMKH@Plus3DropZenProcent?$AA@ DB 'Plus3DropZenProcent', 00H ; `string'
CONST	ENDS
;	COMDAT ??_C@_0BA@GILCNFHE@Plus3ExpProcent?$AA@
CONST	SEGMENT
??_C@_0BA@GILCNFHE@Plus3ExpProcent?$AA@ DB 'Plus3ExpProcent', 00H ; `string'
CONST	ENDS
;	COMDAT ??_C@_0O@CMLABGMN@Buy2CreditDay?$AA@
CONST	SEGMENT
??_C@_0O@CMLABGMN@Buy2CreditDay?$AA@ DB 'Buy2CreditDay', 00H ; `string'
CONST	ENDS
;	COMDAT ??_C@_0BJ@FKELNJOF@Plus2WizardDamageProcent?$AA@
CONST	SEGMENT
??_C@_0BJ@FKELNJOF@Plus2WizardDamageProcent?$AA@ DB 'Plus2WizardDamagePro'
	DB	'cent', 00H					; `string'
CONST	ENDS
;	COMDAT ??_C@_0BE@LGMOBNJK@Plus2DefenceProcent?$AA@
CONST	SEGMENT
??_C@_0BE@LGMOBNJK@Plus2DefenceProcent?$AA@ DB 'Plus2DefenceProcent', 00H ; `string'
CONST	ENDS
;	COMDAT ??_C@_0BD@HABDOEO@Plus2DamageProcent?$AA@
CONST	SEGMENT
??_C@_0BD@HABDOEO@Plus2DamageProcent?$AA@ DB 'Plus2DamageProcent', 00H ; `string'
CONST	ENDS
;	COMDAT ??_C@_0BE@LBGHMNDG@Plus2DropZenProcent?$AA@
CONST	SEGMENT
??_C@_0BE@LBGHMNDG@Plus2DropZenProcent?$AA@ DB 'Plus2DropZenProcent', 00H ; `string'
CONST	ENDS
;	COMDAT ??_C@_0BA@PDBHJJBL@Plus2ExpProcent?$AA@
CONST	SEGMENT
??_C@_0BA@PDBHJJBL@Plus2ExpProcent?$AA@ DB 'Plus2ExpProcent', 00H ; `string'
CONST	ENDS
;	COMDAT ??_C@_0O@LFFCHAMM@Buy1CreditDay?$AA@
CONST	SEGMENT
??_C@_0O@LFFCHAMM@Buy1CreditDay?$AA@ DB 'Buy1CreditDay', 00H ; `string'
CONST	ENDS
;	COMDAT ??_C@_0BJ@CBFFFLAG@Plus1WizardDamageProcent?$AA@
CONST	SEGMENT
??_C@_0BJ@CBFFFLAG@Plus1WizardDamageProcent?$AA@ DB 'Plus1WizardDamagePro'
	DB	'cent', 00H					; `string'
CONST	ENDS
;	COMDAT ??_C@_0BD@BGHMFEDH@Plus1DamageProcent?$AA@
CONST	SEGMENT
??_C@_0BD@BGHMFEDH@Plus1DamageProcent?$AA@ DB 'Plus1DamageProcent', 00H ; `string'
CONST	ENDS
;	COMDAT ??_C@_0BE@JIKPHJME@Plus1DropZenProcent?$AA@
CONST	SEGMENT
??_C@_0BE@JIKPHJME@Plus1DropZenProcent?$AA@ DB 'Plus1DropZenProcent', 00H ; `string'
CONST	ENDS
;	COMDAT ??_C@_0BA@IEIJELOL@Plus1ExpProcent?$AA@
CONST	SEGMENT
??_C@_0BA@IEIJELOL@Plus1ExpProcent?$AA@ DB 'Plus1ExpProcent', 00H ; `string'
CONST	ENDS
;	COMDAT ??_C@_06POMJKEPM@Common?$AA@
CONST	SEGMENT
??_C@_06POMJKEPM@Common?$AA@ DB 'Common', 00H		; `string'
CONST	ENDS
;	COMDAT ??_C@_0N@ENJHELDG@ActiveSystem?$AA@
CONST	SEGMENT
??_C@_0N@ENJHELDG@ActiveSystem?$AA@ DB 'ActiveSystem', 00H ; `string'
; Function compile flags: /Odtp /ZI
CONST	ENDS
_TEXT	SEGMENT
_this$ = -4						; size = 4
_File$ = 8						; size = 4
?Read@PremiumSystemEx@@QAEXPAD@Z PROC			; PremiumSystemEx::Read
; _this$ = ecx

; 80   : {

  00180	55		 push	 ebp
  00181	8b ec		 mov	 ebp, esp
  00183	83 ec 44	 sub	 esp, 68			; 00000044H
  00186	53		 push	 ebx
  00187	56		 push	 esi
  00188	57		 push	 edi
  00189	89 4d fc	 mov	 DWORD PTR _this$[ebp], ecx

; 81   : 	this->ActiveSystem = GetPrivateProfileInt("Common", "ActiveSystem", 0, File);

  0018c	8b 45 08	 mov	 eax, DWORD PTR _File$[ebp]
  0018f	50		 push	 eax
  00190	6a 00		 push	 0
  00192	68 00 00 00 00	 push	 OFFSET ??_C@_0N@ENJHELDG@ActiveSystem?$AA@
  00197	68 00 00 00 00	 push	 OFFSET ??_C@_06POMJKEPM@Common?$AA@
  0019c	ff 15 00 00 00
	00		 call	 DWORD PTR __imp__GetPrivateProfileIntA@16
  001a2	85 c0		 test	 eax, eax
  001a4	0f 95 c1	 setne	 cl
  001a7	8b 55 fc	 mov	 edx, DWORD PTR _this$[ebp]
  001aa	88 0a		 mov	 BYTE PTR [edx], cl

; 82   : 
; 83   : 	this->Plus1ExpProcent = GetPrivateProfileInt("Common", "Plus1ExpProcent", 0, File);

  001ac	8b 45 08	 mov	 eax, DWORD PTR _File$[ebp]
  001af	50		 push	 eax
  001b0	6a 00		 push	 0
  001b2	68 00 00 00 00	 push	 OFFSET ??_C@_0BA@IEIJELOL@Plus1ExpProcent?$AA@
  001b7	68 00 00 00 00	 push	 OFFSET ??_C@_06POMJKEPM@Common?$AA@
  001bc	ff 15 00 00 00
	00		 call	 DWORD PTR __imp__GetPrivateProfileIntA@16
  001c2	8b 4d fc	 mov	 ecx, DWORD PTR _this$[ebp]
  001c5	89 41 04	 mov	 DWORD PTR [ecx+4], eax

; 84   : 	this->Plus1DropZenProcent = GetPrivateProfileInt("Common", "Plus1DropZenProcent", 0, File);

  001c8	8b 45 08	 mov	 eax, DWORD PTR _File$[ebp]
  001cb	50		 push	 eax
  001cc	6a 00		 push	 0
  001ce	68 00 00 00 00	 push	 OFFSET ??_C@_0BE@JIKPHJME@Plus1DropZenProcent?$AA@
  001d3	68 00 00 00 00	 push	 OFFSET ??_C@_06POMJKEPM@Common?$AA@
  001d8	ff 15 00 00 00
	00		 call	 DWORD PTR __imp__GetPrivateProfileIntA@16
  001de	8b 4d fc	 mov	 ecx, DWORD PTR _this$[ebp]
  001e1	89 41 08	 mov	 DWORD PTR [ecx+8], eax

; 85   : 	this->Plus1DamageProcent = GetPrivateProfileInt("Common", "Plus1DamageProcent", 0, File);

  001e4	8b 45 08	 mov	 eax, DWORD PTR _File$[ebp]
  001e7	50		 push	 eax
  001e8	6a 00		 push	 0
  001ea	68 00 00 00 00	 push	 OFFSET ??_C@_0BD@BGHMFEDH@Plus1DamageProcent?$AA@
  001ef	68 00 00 00 00	 push	 OFFSET ??_C@_06POMJKEPM@Common?$AA@
  001f4	ff 15 00 00 00
	00		 call	 DWORD PTR __imp__GetPrivateProfileIntA@16
  001fa	8b 4d fc	 mov	 ecx, DWORD PTR _this$[ebp]
  001fd	89 41 0c	 mov	 DWORD PTR [ecx+12], eax

; 86   : 	this->Plus1DefenceProcent = GetPrivateProfileInt("Common", "Plus1DamageProcent", 0, File);

  00200	8b 45 08	 mov	 eax, DWORD PTR _File$[ebp]
  00203	50		 push	 eax
  00204	6a 00		 push	 0
  00206	68 00 00 00 00	 push	 OFFSET ??_C@_0BD@BGHMFEDH@Plus1DamageProcent?$AA@
  0020b	68 00 00 00 00	 push	 OFFSET ??_C@_06POMJKEPM@Common?$AA@
  00210	ff 15 00 00 00
	00		 call	 DWORD PTR __imp__GetPrivateProfileIntA@16
  00216	8b 4d fc	 mov	 ecx, DWORD PTR _this$[ebp]
  00219	89 41 10	 mov	 DWORD PTR [ecx+16], eax

; 87   : 	this->Plus1WizardDamageProcent = GetPrivateProfileInt("Common", "Plus1WizardDamageProcent", 0, File);

  0021c	8b 45 08	 mov	 eax, DWORD PTR _File$[ebp]
  0021f	50		 push	 eax
  00220	6a 00		 push	 0
  00222	68 00 00 00 00	 push	 OFFSET ??_C@_0BJ@CBFFFLAG@Plus1WizardDamageProcent?$AA@
  00227	68 00 00 00 00	 push	 OFFSET ??_C@_06POMJKEPM@Common?$AA@
  0022c	ff 15 00 00 00
	00		 call	 DWORD PTR __imp__GetPrivateProfileIntA@16
  00232	8b 4d fc	 mov	 ecx, DWORD PTR _this$[ebp]
  00235	89 41 14	 mov	 DWORD PTR [ecx+20], eax

; 88   : 	this->Buy1CreditDay = GetPrivateProfileInt("Common", "Buy1CreditDay", 0, File);

  00238	8b 45 08	 mov	 eax, DWORD PTR _File$[ebp]
  0023b	50		 push	 eax
  0023c	6a 00		 push	 0
  0023e	68 00 00 00 00	 push	 OFFSET ??_C@_0O@LFFCHAMM@Buy1CreditDay?$AA@
  00243	68 00 00 00 00	 push	 OFFSET ??_C@_06POMJKEPM@Common?$AA@
  00248	ff 15 00 00 00
	00		 call	 DWORD PTR __imp__GetPrivateProfileIntA@16
  0024e	8b 4d fc	 mov	 ecx, DWORD PTR _this$[ebp]
  00251	89 41 18	 mov	 DWORD PTR [ecx+24], eax

; 89   : 
; 90   : 	this->Plus2ExpProcent = GetPrivateProfileInt("Common", "Plus2ExpProcent", 0, File);

  00254	8b 45 08	 mov	 eax, DWORD PTR _File$[ebp]
  00257	50		 push	 eax
  00258	6a 00		 push	 0
  0025a	68 00 00 00 00	 push	 OFFSET ??_C@_0BA@PDBHJJBL@Plus2ExpProcent?$AA@
  0025f	68 00 00 00 00	 push	 OFFSET ??_C@_06POMJKEPM@Common?$AA@
  00264	ff 15 00 00 00
	00		 call	 DWORD PTR __imp__GetPrivateProfileIntA@16
  0026a	8b 4d fc	 mov	 ecx, DWORD PTR _this$[ebp]
  0026d	89 41 1c	 mov	 DWORD PTR [ecx+28], eax

; 91   : 	this->Plus2DropZenProcent = GetPrivateProfileInt("Common", "Plus2DropZenProcent", 0, File);

  00270	8b 45 08	 mov	 eax, DWORD PTR _File$[ebp]
  00273	50		 push	 eax
  00274	6a 00		 push	 0
  00276	68 00 00 00 00	 push	 OFFSET ??_C@_0BE@LBGHMNDG@Plus2DropZenProcent?$AA@
  0027b	68 00 00 00 00	 push	 OFFSET ??_C@_06POMJKEPM@Common?$AA@
  00280	ff 15 00 00 00
	00		 call	 DWORD PTR __imp__GetPrivateProfileIntA@16
  00286	8b 4d fc	 mov	 ecx, DWORD PTR _this$[ebp]
  00289	89 41 20	 mov	 DWORD PTR [ecx+32], eax

; 92   : 	this->Plus2DamageProcent = GetPrivateProfileInt("Common", "Plus2DamageProcent", 0, File);

  0028c	8b 45 08	 mov	 eax, DWORD PTR _File$[ebp]
  0028f	50		 push	 eax
  00290	6a 00		 push	 0
  00292	68 00 00 00 00	 push	 OFFSET ??_C@_0BD@HABDOEO@Plus2DamageProcent?$AA@
  00297	68 00 00 00 00	 push	 OFFSET ??_C@_06POMJKEPM@Common?$AA@
  0029c	ff 15 00 00 00
	00		 call	 DWORD PTR __imp__GetPrivateProfileIntA@16
  002a2	8b 4d fc	 mov	 ecx, DWORD PTR _this$[ebp]
  002a5	89 41 24	 mov	 DWORD PTR [ecx+36], eax

; 93   : 	this->Plus2DefenceProcent = GetPrivateProfileInt("Common", "Plus2DefenceProcent", 0, File);

  002a8	8b 45 08	 mov	 eax, DWORD PTR _File$[ebp]
  002ab	50		 push	 eax
  002ac	6a 00		 push	 0
  002ae	68 00 00 00 00	 push	 OFFSET ??_C@_0BE@LGMOBNJK@Plus2DefenceProcent?$AA@
  002b3	68 00 00 00 00	 push	 OFFSET ??_C@_06POMJKEPM@Common?$AA@
  002b8	ff 15 00 00 00
	00		 call	 DWORD PTR __imp__GetPrivateProfileIntA@16
  002be	8b 4d fc	 mov	 ecx, DWORD PTR _this$[ebp]
  002c1	89 41 28	 mov	 DWORD PTR [ecx+40], eax

; 94   : 	this->Plus2WizardDamageProcent = GetPrivateProfileInt("Common", "Plus2WizardDamageProcent", 0, File);

  002c4	8b 45 08	 mov	 eax, DWORD PTR _File$[ebp]
  002c7	50		 push	 eax
  002c8	6a 00		 push	 0
  002ca	68 00 00 00 00	 push	 OFFSET ??_C@_0BJ@FKELNJOF@Plus2WizardDamageProcent?$AA@
  002cf	68 00 00 00 00	 push	 OFFSET ??_C@_06POMJKEPM@Common?$AA@
  002d4	ff 15 00 00 00
	00		 call	 DWORD PTR __imp__GetPrivateProfileIntA@16
  002da	8b 4d fc	 mov	 ecx, DWORD PTR _this$[ebp]
  002dd	89 41 2c	 mov	 DWORD PTR [ecx+44], eax

; 95   : 	this->Buy2CreditDay = GetPrivateProfileInt("Common", "Buy2CreditDay", 0, File);

  002e0	8b 45 08	 mov	 eax, DWORD PTR _File$[ebp]
  002e3	50		 push	 eax
  002e4	6a 00		 push	 0
  002e6	68 00 00 00 00	 push	 OFFSET ??_C@_0O@CMLABGMN@Buy2CreditDay?$AA@
  002eb	68 00 00 00 00	 push	 OFFSET ??_C@_06POMJKEPM@Common?$AA@
  002f0	ff 15 00 00 00
	00		 call	 DWORD PTR __imp__GetPrivateProfileIntA@16
  002f6	8b 4d fc	 mov	 ecx, DWORD PTR _this$[ebp]
  002f9	89 41 30	 mov	 DWORD PTR [ecx+48], eax

; 96   : 
; 97   : 	this->Plus3ExpProcent = GetPrivateProfileInt("Common", "Plus3ExpProcent", 0, File);

  002fc	8b 45 08	 mov	 eax, DWORD PTR _File$[ebp]
  002ff	50		 push	 eax
  00300	6a 00		 push	 0
  00302	68 00 00 00 00	 push	 OFFSET ??_C@_0BA@GILCNFHE@Plus3ExpProcent?$AA@
  00307	68 00 00 00 00	 push	 OFFSET ??_C@_06POMJKEPM@Common?$AA@
  0030c	ff 15 00 00 00
	00		 call	 DWORD PTR __imp__GetPrivateProfileIntA@16
  00312	8b 4d fc	 mov	 ecx, DWORD PTR _this$[ebp]
  00315	89 41 34	 mov	 DWORD PTR [ecx+52], eax

; 98   : 	this->Plus3DropZenProcent = GetPrivateProfileInt("Common", "Plus3DropZenProcent", 0, File);

  00318	8b 45 08	 mov	 eax, DWORD PTR _File$[ebp]
  0031b	50		 push	 eax
  0031c	6a 00		 push	 0
  0031e	68 00 00 00 00	 push	 OFFSET ??_C@_0BE@BPAPFMKH@Plus3DropZenProcent?$AA@
  00323	68 00 00 00 00	 push	 OFFSET ??_C@_06POMJKEPM@Common?$AA@
  00328	ff 15 00 00 00
	00		 call	 DWORD PTR __imp__GetPrivateProfileIntA@16
  0032e	8b 4d fc	 mov	 ecx, DWORD PTR _this$[ebp]
  00331	89 41 38	 mov	 DWORD PTR [ecx+56], eax

; 99   : 	this->Plus3DamageProcent = GetPrivateProfileInt("Common", "Plus3DamageProcent", 0, File);

  00334	8b 45 08	 mov	 eax, DWORD PTR _File$[ebp]
  00337	50		 push	 eax
  00338	6a 00		 push	 0
  0033a	68 00 00 00 00	 push	 OFFSET ??_C@_0BD@LOPKOFKG@Plus3DamageProcent?$AA@
  0033f	68 00 00 00 00	 push	 OFFSET ??_C@_06POMJKEPM@Common?$AA@
  00344	ff 15 00 00 00
	00		 call	 DWORD PTR __imp__GetPrivateProfileIntA@16
  0034a	8b 4d fc	 mov	 ecx, DWORD PTR _this$[ebp]
  0034d	89 41 3c	 mov	 DWORD PTR [ecx+60], eax

; 100  : 	this->Plus3DefenceProcent = GetPrivateProfileInt("Common", "Plus3DefenceProcent", 0, File);

  00350	8b 45 08	 mov	 eax, DWORD PTR _File$[ebp]
  00353	50		 push	 eax
  00354	6a 00		 push	 0
  00356	68 00 00 00 00	 push	 OFFSET ??_C@_0BE@BIKGIMAL@Plus3DefenceProcent?$AA@
  0035b	68 00 00 00 00	 push	 OFFSET ??_C@_06POMJKEPM@Common?$AA@
  00360	ff 15 00 00 00
	00		 call	 DWORD PTR __imp__GetPrivateProfileIntA@16
  00366	8b 4d fc	 mov	 ecx, DWORD PTR _this$[ebp]
  00369	89 41 40	 mov	 DWORD PTR [ecx+64], eax

; 101  : 	this->Plus3WizardDamageProcent = GetPrivateProfileInt("Common", "Plus3WizardDamageProcent", 0, File);

  0036c	8b 45 08	 mov	 eax, DWORD PTR _File$[ebp]
  0036f	50		 push	 eax
  00370	6a 00		 push	 0
  00372	68 00 00 00 00	 push	 OFFSET ??_C@_0BJ@MFJBFKHL@Plus3WizardDamageProcent?$AA@
  00377	68 00 00 00 00	 push	 OFFSET ??_C@_06POMJKEPM@Common?$AA@
  0037c	ff 15 00 00 00
	00		 call	 DWORD PTR __imp__GetPrivateProfileIntA@16
  00382	8b 4d fc	 mov	 ecx, DWORD PTR _this$[ebp]
  00385	89 41 44	 mov	 DWORD PTR [ecx+68], eax

; 102  : 	this->Buy3CreditDay = GetPrivateProfileInt("Common", "Buy3CreditDay", 0, File);

  00388	8b 45 08	 mov	 eax, DWORD PTR _File$[ebp]
  0038b	50		 push	 eax
  0038c	6a 00		 push	 0
  0038e	68 00 00 00 00	 push	 OFFSET ??_C@_0O@ONDOMJAN@Buy3CreditDay?$AA@
  00393	68 00 00 00 00	 push	 OFFSET ??_C@_06POMJKEPM@Common?$AA@
  00398	ff 15 00 00 00
	00		 call	 DWORD PTR __imp__GetPrivateProfileIntA@16
  0039e	8b 4d fc	 mov	 ecx, DWORD PTR _this$[ebp]
  003a1	89 41 48	 mov	 DWORD PTR [ecx+72], eax

; 103  : 
; 104  : 	this->m_iOfflineModeAttackFreePremiumRang = GetPrivateProfileInt("Common", "OfflineModeAttackFreePremiumRang", 0, File);

  003a4	8b 45 08	 mov	 eax, DWORD PTR _File$[ebp]
  003a7	50		 push	 eax
  003a8	6a 00		 push	 0
  003aa	68 00 00 00 00	 push	 OFFSET ??_C@_0CB@KCGGNELK@OfflineModeAttackFreePremiumRang@
  003af	68 00 00 00 00	 push	 OFFSET ??_C@_06POMJKEPM@Common?$AA@
  003b4	ff 15 00 00 00
	00		 call	 DWORD PTR __imp__GetPrivateProfileIntA@16
  003ba	8b 4d fc	 mov	 ecx, DWORD PTR _this$[ebp]
  003bd	89 41 4c	 mov	 DWORD PTR [ecx+76], eax

; 105  : 	this->m_iOfflineModePickUpPremiumRang = GetPrivateProfileInt("Common", "OfflineModePickUpPremiumRang", 0, File);

  003c0	8b 45 08	 mov	 eax, DWORD PTR _File$[ebp]
  003c3	50		 push	 eax
  003c4	6a 00		 push	 0
  003c6	68 00 00 00 00	 push	 OFFSET ??_C@_0BN@OOAELOPG@OfflineModePickUpPremiumRang?$AA@
  003cb	68 00 00 00 00	 push	 OFFSET ??_C@_06POMJKEPM@Common?$AA@
  003d0	ff 15 00 00 00
	00		 call	 DWORD PTR __imp__GetPrivateProfileIntA@16
  003d6	8b 4d fc	 mov	 ecx, DWORD PTR _this$[ebp]
  003d9	89 41 50	 mov	 DWORD PTR [ecx+80], eax

; 106  : 
; 107  : 	this->Buy1WCoinDay = GetPrivateProfileInt("Common", "Buy1WCoinDay", 0, File);

  003dc	8b 45 08	 mov	 eax, DWORD PTR _File$[ebp]
  003df	50		 push	 eax
  003e0	6a 00		 push	 0
  003e2	68 00 00 00 00	 push	 OFFSET ??_C@_0N@PFFFAAMI@Buy1WCoinDay?$AA@
  003e7	68 00 00 00 00	 push	 OFFSET ??_C@_06POMJKEPM@Common?$AA@
  003ec	ff 15 00 00 00
	00		 call	 DWORD PTR __imp__GetPrivateProfileIntA@16
  003f2	8b 4d fc	 mov	 ecx, DWORD PTR _this$[ebp]
  003f5	89 41 54	 mov	 DWORD PTR [ecx+84], eax

; 108  : 	this->Buy2WCoinDay = GetPrivateProfileInt("Common", "Buy2WCoinDay", 0, File);

  003f8	8b 45 08	 mov	 eax, DWORD PTR _File$[ebp]
  003fb	50		 push	 eax
  003fc	6a 00		 push	 0
  003fe	68 00 00 00 00	 push	 OFFSET ??_C@_0N@BOGCLLML@Buy2WCoinDay?$AA@
  00403	68 00 00 00 00	 push	 OFFSET ??_C@_06POMJKEPM@Common?$AA@
  00408	ff 15 00 00 00
	00		 call	 DWORD PTR __imp__GetPrivateProfileIntA@16
  0040e	8b 4d fc	 mov	 ecx, DWORD PTR _this$[ebp]
  00411	89 41 58	 mov	 DWORD PTR [ecx+88], eax

; 109  : 	this->Buy3WCoinDay = GetPrivateProfileInt("Common", "Buy3WCoinDay", 0, File);

  00414	8b 45 08	 mov	 eax, DWORD PTR _File$[ebp]
  00417	50		 push	 eax
  00418	6a 00		 push	 0
  0041a	68 00 00 00 00	 push	 OFFSET ??_C@_0N@PBKANAPF@Buy3WCoinDay?$AA@
  0041f	68 00 00 00 00	 push	 OFFSET ??_C@_06POMJKEPM@Common?$AA@
  00424	ff 15 00 00 00
	00		 call	 DWORD PTR __imp__GetPrivateProfileIntA@16
  0042a	8b 4d fc	 mov	 ecx, DWORD PTR _this$[ebp]
  0042d	89 41 5c	 mov	 DWORD PTR [ecx+92], eax

; 110  : }

  00430	5f		 pop	 edi
  00431	5e		 pop	 esi
  00432	5b		 pop	 ebx
  00433	8b e5		 mov	 esp, ebp
  00435	5d		 pop	 ebp
  00436	c2 04 00	 ret	 4
?Read@PremiumSystemEx@@QAEXPAD@Z ENDP			; PremiumSystemEx::Read
; Function compile flags: /Odtp /ZI
_this$ = -4						; size = 4
?CheckValue@PremiumSystemEx@@QAEXXZ PROC		; PremiumSystemEx::CheckValue
; _this$ = ecx

; 114  : {

  00440	55		 push	 ebp
  00441	8b ec		 mov	 ebp, esp
  00443	83 ec 44	 sub	 esp, 68			; 00000044H
  00446	53		 push	 ebx
  00447	56		 push	 esi
  00448	57		 push	 edi
  00449	89 4d fc	 mov	 DWORD PTR _this$[ebp], ecx

; 115  : 	if(this->Plus1ExpProcent < 0)

  0044c	8b 45 fc	 mov	 eax, DWORD PTR _this$[ebp]
  0044f	83 78 04 00	 cmp	 DWORD PTR [eax+4], 0
  00453	7d 0a		 jge	 SHORT $LN21@CheckValue

; 116  : 	{
; 117  : 		this->Plus1ExpProcent = 0;

  00455	8b 45 fc	 mov	 eax, DWORD PTR _this$[ebp]
  00458	c7 40 04 00 00
	00 00		 mov	 DWORD PTR [eax+4], 0
$LN21@CheckValue:

; 118  : 	}
; 119  : 	if(this->Plus1DropZenProcent < 0)

  0045f	8b 45 fc	 mov	 eax, DWORD PTR _this$[ebp]
  00462	83 78 08 00	 cmp	 DWORD PTR [eax+8], 0
  00466	7d 0a		 jge	 SHORT $LN20@CheckValue

; 120  : 	{
; 121  : 		this->Plus1DropZenProcent = 0;

  00468	8b 45 fc	 mov	 eax, DWORD PTR _this$[ebp]
  0046b	c7 40 08 00 00
	00 00		 mov	 DWORD PTR [eax+8], 0
$LN20@CheckValue:

; 122  : 	}
; 123  : 	if(this->Plus1DamageProcent < 0)

  00472	8b 45 fc	 mov	 eax, DWORD PTR _this$[ebp]
  00475	83 78 0c 00	 cmp	 DWORD PTR [eax+12], 0
  00479	7d 0a		 jge	 SHORT $LN19@CheckValue

; 124  : 	{
; 125  : 		this->Plus1DamageProcent = 0;

  0047b	8b 45 fc	 mov	 eax, DWORD PTR _this$[ebp]
  0047e	c7 40 0c 00 00
	00 00		 mov	 DWORD PTR [eax+12], 0
$LN19@CheckValue:

; 126  : 	}
; 127  : 	if(this->Plus1DefenceProcent < 0)

  00485	8b 45 fc	 mov	 eax, DWORD PTR _this$[ebp]
  00488	83 78 10 00	 cmp	 DWORD PTR [eax+16], 0
  0048c	7d 0a		 jge	 SHORT $LN18@CheckValue

; 128  : 	{
; 129  : 		this->Plus1DefenceProcent = 0;

  0048e	8b 45 fc	 mov	 eax, DWORD PTR _this$[ebp]
  00491	c7 40 10 00 00
	00 00		 mov	 DWORD PTR [eax+16], 0
$LN18@CheckValue:

; 130  : 	}
; 131  : 	if(this->Plus1WizardDamageProcent < 0)

  00498	8b 45 fc	 mov	 eax, DWORD PTR _this$[ebp]
  0049b	83 78 14 00	 cmp	 DWORD PTR [eax+20], 0
  0049f	7d 0a		 jge	 SHORT $LN17@CheckValue

; 132  : 	{
; 133  : 		this->Plus1WizardDamageProcent = 0;

  004a1	8b 45 fc	 mov	 eax, DWORD PTR _this$[ebp]
  004a4	c7 40 14 00 00
	00 00		 mov	 DWORD PTR [eax+20], 0
$LN17@CheckValue:

; 134  : 	}
; 135  : 	// ----
; 136  : 	if(this->Plus2ExpProcent < 0)

  004ab	8b 45 fc	 mov	 eax, DWORD PTR _this$[ebp]
  004ae	83 78 1c 00	 cmp	 DWORD PTR [eax+28], 0
  004b2	7d 0a		 jge	 SHORT $LN16@CheckValue

; 137  : 	{
; 138  : 		this->Plus2ExpProcent = 0;

  004b4	8b 45 fc	 mov	 eax, DWORD PTR _this$[ebp]
  004b7	c7 40 1c 00 00
	00 00		 mov	 DWORD PTR [eax+28], 0
$LN16@CheckValue:

; 139  : 	}
; 140  : 	if(this->Plus2DropZenProcent < 0)

  004be	8b 45 fc	 mov	 eax, DWORD PTR _this$[ebp]
  004c1	83 78 20 00	 cmp	 DWORD PTR [eax+32], 0
  004c5	7d 0a		 jge	 SHORT $LN15@CheckValue

; 141  : 	{
; 142  : 		this->Plus2DropZenProcent = 0;

  004c7	8b 45 fc	 mov	 eax, DWORD PTR _this$[ebp]
  004ca	c7 40 20 00 00
	00 00		 mov	 DWORD PTR [eax+32], 0
$LN15@CheckValue:

; 143  : 	}
; 144  : 	if(this->Plus2DamageProcent < 0)

  004d1	8b 45 fc	 mov	 eax, DWORD PTR _this$[ebp]
  004d4	83 78 24 00	 cmp	 DWORD PTR [eax+36], 0
  004d8	7d 0a		 jge	 SHORT $LN14@CheckValue

; 145  : 	{
; 146  : 		this->Plus2DamageProcent = 0;

  004da	8b 45 fc	 mov	 eax, DWORD PTR _this$[ebp]
  004dd	c7 40 24 00 00
	00 00		 mov	 DWORD PTR [eax+36], 0
$LN14@CheckValue:

; 147  : 	}
; 148  : 	if(this->Plus2DefenceProcent < 0)

  004e4	8b 45 fc	 mov	 eax, DWORD PTR _this$[ebp]
  004e7	83 78 28 00	 cmp	 DWORD PTR [eax+40], 0
  004eb	7d 0a		 jge	 SHORT $LN13@CheckValue

; 149  : 	{
; 150  : 		this->Plus2DefenceProcent = 0;

  004ed	8b 45 fc	 mov	 eax, DWORD PTR _this$[ebp]
  004f0	c7 40 28 00 00
	00 00		 mov	 DWORD PTR [eax+40], 0
$LN13@CheckValue:

; 151  : 	}
; 152  : 	if(this->Plus2WizardDamageProcent < 0)

  004f7	8b 45 fc	 mov	 eax, DWORD PTR _this$[ebp]
  004fa	83 78 2c 00	 cmp	 DWORD PTR [eax+44], 0
  004fe	7d 0a		 jge	 SHORT $LN12@CheckValue

; 153  : 	{
; 154  : 		this->Plus2WizardDamageProcent = 0;

  00500	8b 45 fc	 mov	 eax, DWORD PTR _this$[ebp]
  00503	c7 40 2c 00 00
	00 00		 mov	 DWORD PTR [eax+44], 0
$LN12@CheckValue:

; 155  : 	}
; 156  : 	// ----
; 157  : 	if(this->Plus3ExpProcent < 0)

  0050a	8b 45 fc	 mov	 eax, DWORD PTR _this$[ebp]
  0050d	83 78 34 00	 cmp	 DWORD PTR [eax+52], 0
  00511	7d 0a		 jge	 SHORT $LN11@CheckValue

; 158  : 	{
; 159  : 		this->Plus3ExpProcent = 0;

  00513	8b 45 fc	 mov	 eax, DWORD PTR _this$[ebp]
  00516	c7 40 34 00 00
	00 00		 mov	 DWORD PTR [eax+52], 0
$LN11@CheckValue:

; 160  : 	}
; 161  : 	if(this->Plus3DropZenProcent < 0)

  0051d	8b 45 fc	 mov	 eax, DWORD PTR _this$[ebp]
  00520	83 78 38 00	 cmp	 DWORD PTR [eax+56], 0
  00524	7d 0a		 jge	 SHORT $LN10@CheckValue

; 162  : 	{
; 163  : 		this->Plus3DropZenProcent = 0;

  00526	8b 45 fc	 mov	 eax, DWORD PTR _this$[ebp]
  00529	c7 40 38 00 00
	00 00		 mov	 DWORD PTR [eax+56], 0
$LN10@CheckValue:

; 164  : 	}
; 165  : 	if(this->Plus3DamageProcent < 0)

  00530	8b 45 fc	 mov	 eax, DWORD PTR _this$[ebp]
  00533	83 78 3c 00	 cmp	 DWORD PTR [eax+60], 0
  00537	7d 0a		 jge	 SHORT $LN9@CheckValue

; 166  : 	{
; 167  : 		this->Plus3DamageProcent = 0;

  00539	8b 45 fc	 mov	 eax, DWORD PTR _this$[ebp]
  0053c	c7 40 3c 00 00
	00 00		 mov	 DWORD PTR [eax+60], 0
$LN9@CheckValue:

; 168  : 	}
; 169  : 	if(this->Plus3DefenceProcent < 0)

  00543	8b 45 fc	 mov	 eax, DWORD PTR _this$[ebp]
  00546	83 78 40 00	 cmp	 DWORD PTR [eax+64], 0
  0054a	7d 0a		 jge	 SHORT $LN8@CheckValue

; 170  : 	{
; 171  : 		this->Plus3DefenceProcent = 0;

  0054c	8b 45 fc	 mov	 eax, DWORD PTR _this$[ebp]
  0054f	c7 40 40 00 00
	00 00		 mov	 DWORD PTR [eax+64], 0
$LN8@CheckValue:

; 172  : 	}
; 173  : 	if(this->Plus3WizardDamageProcent < 0)

  00556	8b 45 fc	 mov	 eax, DWORD PTR _this$[ebp]
  00559	83 78 44 00	 cmp	 DWORD PTR [eax+68], 0
  0055d	7d 0a		 jge	 SHORT $LN7@CheckValue

; 174  : 	{
; 175  : 		this->Plus3WizardDamageProcent = 0;

  0055f	8b 45 fc	 mov	 eax, DWORD PTR _this$[ebp]
  00562	c7 40 44 00 00
	00 00		 mov	 DWORD PTR [eax+68], 0
$LN7@CheckValue:

; 176  : 	}
; 177  : 
; 178  : 	if(this->Buy1CreditDay < 0)

  00569	8b 45 fc	 mov	 eax, DWORD PTR _this$[ebp]
  0056c	83 78 18 00	 cmp	 DWORD PTR [eax+24], 0
  00570	7d 0a		 jge	 SHORT $LN6@CheckValue

; 179  : 	{
; 180  : 		this->Buy1CreditDay = 0;

  00572	8b 45 fc	 mov	 eax, DWORD PTR _this$[ebp]
  00575	c7 40 18 00 00
	00 00		 mov	 DWORD PTR [eax+24], 0
$LN6@CheckValue:

; 181  : 	}
; 182  : 	if(this->Buy2CreditDay < 0)

  0057c	8b 45 fc	 mov	 eax, DWORD PTR _this$[ebp]
  0057f	83 78 30 00	 cmp	 DWORD PTR [eax+48], 0
  00583	7d 0a		 jge	 SHORT $LN5@CheckValue

; 183  : 	{
; 184  : 		this->Buy2CreditDay = 0;

  00585	8b 45 fc	 mov	 eax, DWORD PTR _this$[ebp]
  00588	c7 40 30 00 00
	00 00		 mov	 DWORD PTR [eax+48], 0
$LN5@CheckValue:

; 185  : 	}
; 186  : 	if(this->Buy3CreditDay < 0)

  0058f	8b 45 fc	 mov	 eax, DWORD PTR _this$[ebp]
  00592	83 78 48 00	 cmp	 DWORD PTR [eax+72], 0
  00596	7d 0a		 jge	 SHORT $LN4@CheckValue

; 187  : 	{
; 188  : 		this->Buy3CreditDay = 0;

  00598	8b 45 fc	 mov	 eax, DWORD PTR _this$[ebp]
  0059b	c7 40 48 00 00
	00 00		 mov	 DWORD PTR [eax+72], 0
$LN4@CheckValue:

; 189  : 	}
; 190  : 
; 191  : 	if(this->Buy1WCoinDay < 0)

  005a2	8b 45 fc	 mov	 eax, DWORD PTR _this$[ebp]
  005a5	83 78 54 00	 cmp	 DWORD PTR [eax+84], 0
  005a9	7d 0a		 jge	 SHORT $LN3@CheckValue

; 192  : 	{
; 193  : 		this->Buy1WCoinDay = 0;

  005ab	8b 45 fc	 mov	 eax, DWORD PTR _this$[ebp]
  005ae	c7 40 54 00 00
	00 00		 mov	 DWORD PTR [eax+84], 0
$LN3@CheckValue:

; 194  : 	}
; 195  : 	if(this->Buy2WCoinDay < 0)

  005b5	8b 45 fc	 mov	 eax, DWORD PTR _this$[ebp]
  005b8	83 78 58 00	 cmp	 DWORD PTR [eax+88], 0
  005bc	7d 0a		 jge	 SHORT $LN2@CheckValue

; 196  : 	{
; 197  : 		this->Buy2WCoinDay = 0;

  005be	8b 45 fc	 mov	 eax, DWORD PTR _this$[ebp]
  005c1	c7 40 58 00 00
	00 00		 mov	 DWORD PTR [eax+88], 0
$LN2@CheckValue:

; 198  : 	}
; 199  : 	if(this->Buy3WCoinDay < 0)

  005c8	8b 45 fc	 mov	 eax, DWORD PTR _this$[ebp]
  005cb	83 78 5c 00	 cmp	 DWORD PTR [eax+92], 0
  005cf	7d 0a		 jge	 SHORT $LN22@CheckValue

; 200  : 	{
; 201  : 		this->Buy3WCoinDay = 0;

  005d1	8b 45 fc	 mov	 eax, DWORD PTR _this$[ebp]
  005d4	c7 40 5c 00 00
	00 00		 mov	 DWORD PTR [eax+92], 0
$LN22@CheckValue:

; 202  : 	}
; 203  : }

  005db	5f		 pop	 edi
  005dc	5e		 pop	 esi
  005dd	5b		 pop	 ebx
  005de	8b e5		 mov	 esp, ebp
  005e0	5d		 pop	 ebp
  005e1	c3		 ret	 0
?CheckValue@PremiumSystemEx@@QAEXXZ ENDP		; PremiumSystemEx::CheckValue
_TEXT	ENDS
PUBLIC	??_C@_0O@CKAEPJAF@error?5?3?5?$CFs?5?$CFd?$AA@	; `string'
PUBLIC	??_C@_0EH@LMMDDEHM@d?3?2projects?2exteam6?43?2source?2gam@ ; `string'
PUBLIC	?__LINE__Var@?1??UserCalculatorPlus@PremiumSystemEx@@QAEXH@Z@4JA ; `PremiumSystemEx::UserCalculatorPlus'::`2'::__LINE__Var
PUBLIC	?UserCalculatorPlus@PremiumSystemEx@@QAEXH@Z	; PremiumSystemEx::UserCalculatorPlus
EXTRN	?gObj@@3PAUOBJECTSTRUCT@@A:DWORD		; gObj
EXTRN	?LogAdd@@3P6AXPADZZA:DWORD			; LogAdd
;	COMDAT ??_C@_0O@CKAEPJAF@error?5?3?5?$CFs?5?$CFd?$AA@
CONST	SEGMENT
??_C@_0O@CKAEPJAF@error?5?3?5?$CFs?5?$CFd?$AA@ DB 'error : %s %d', 00H ; `string'
CONST	ENDS
;	COMDAT ??_C@_0EH@LMMDDEHM@d?3?2projects?2exteam6?43?2source?2gam@
CONST	SEGMENT
??_C@_0EH@LMMDDEHM@d?3?2projects?2exteam6?43?2source?2gam@ DB 'd:\project'
	DB	's\exteam6.3\source\gameserver\gameserver\premiumsystemex.cpp', 00H ; `string'
CONST	ENDS
;	COMDAT ?__LINE__Var@?1??UserCalculatorPlus@PremiumSystemEx@@QAEXH@Z@4JA
_DATA	SEGMENT
?__LINE__Var@?1??UserCalculatorPlus@PremiumSystemEx@@QAEXH@Z@4JA DD 0cfH ; `PremiumSystemEx::UserCalculatorPlus'::`2'::__LINE__Var
; Function compile flags: /Odtp /ZI
_DATA	ENDS
_TEXT	SEGMENT
tv69 = -76						; size = 4
_lpUser$ = -8						; size = 4
_this$ = -4						; size = 4
_aIndex$ = 8						; size = 4
?UserCalculatorPlus@PremiumSystemEx@@QAEXH@Z PROC	; PremiumSystemEx::UserCalculatorPlus
; _this$ = ecx

; 207  : {

  005f0	55		 push	 ebp
  005f1	8b ec		 mov	 ebp, esp
  005f3	83 ec 4c	 sub	 esp, 76			; 0000004cH
  005f6	53		 push	 ebx
  005f7	56		 push	 esi
  005f8	57		 push	 edi
  005f9	89 4d fc	 mov	 DWORD PTR _this$[ebp], ecx

; 208  : 	if(!this->ActiveSystem)

  005fc	8b 45 fc	 mov	 eax, DWORD PTR _this$[ebp]
  005ff	0f b6 08	 movzx	 ecx, BYTE PTR [eax]
  00602	85 c9		 test	 ecx, ecx
  00604	75 05		 jne	 SHORT $LN10@UserCalcul

; 209  : 	{
; 210  : 		return;

  00606	e9 ac 04 00 00	 jmp	 $LN11@UserCalcul
$LN10@UserCalcul:

; 211  : 	}
; 212  : 
; 213  : 	if ( OBJMAX_RANGE(aIndex) == FALSE )

  0060b	83 7d 08 00	 cmp	 DWORD PTR _aIndex$[ebp], 0
  0060f	7d 09		 jge	 SHORT $LN13@UserCalcul
  00611	c7 45 b4 00 00
	00 00		 mov	 DWORD PTR tv69[ebp], 0
  00618	eb 0f		 jmp	 SHORT $LN14@UserCalcul
$LN13@UserCalcul:
  0061a	33 c0		 xor	 eax, eax
  0061c	81 7d 08 97 3a
	00 00		 cmp	 DWORD PTR _aIndex$[ebp], 14999 ; 00003a97H
  00623	0f 9e c0	 setle	 al
  00626	89 45 b4	 mov	 DWORD PTR tv69[ebp], eax
$LN14@UserCalcul:
  00629	83 7d b4 00	 cmp	 DWORD PTR tv69[ebp], 0
  0062d	75 21		 jne	 SHORT $LN9@UserCalcul

; 214  : 	{
; 215  : 		LogAdd("error : %s %d", __FILE__, __LINE__ );

  0062f	a1 00 00 00 00	 mov	 eax, DWORD PTR ?__LINE__Var@?1??UserCalculatorPlus@PremiumSystemEx@@QAEXH@Z@4JA
  00634	83 c0 08	 add	 eax, 8
  00637	50		 push	 eax
  00638	68 00 00 00 00	 push	 OFFSET ??_C@_0EH@LMMDDEHM@d?3?2projects?2exteam6?43?2source?2gam@
  0063d	68 00 00 00 00	 push	 OFFSET ??_C@_0O@CKAEPJAF@error?5?3?5?$CFs?5?$CFd?$AA@
  00642	ff 15 00 00 00
	00		 call	 DWORD PTR ?LogAdd@@3P6AXPADZZA ; LogAdd
  00648	83 c4 0c	 add	 esp, 12			; 0000000cH

; 216  : 		return;

  0064b	e9 67 04 00 00	 jmp	 $LN11@UserCalcul
$LN9@UserCalcul:

; 217  : 	}
; 218  : 
; 219  : 	LPOBJ lpUser = &gObj[aIndex];

  00650	8b 45 08	 mov	 eax, DWORD PTR _aIndex$[ebp]
  00653	69 c0 38 2b 00
	00		 imul	 eax, 11064		; 00002b38H
  00659	03 05 00 00 00
	00		 add	 eax, DWORD PTR ?gObj@@3PAUOBJECTSTRUCT@@A ; gObj
  0065f	89 45 f8	 mov	 DWORD PTR _lpUser$[ebp], eax

; 220  : 
; 221  : 	if(lpUser->Connected < PLAYER_PLAYING)

  00662	8b 45 f8	 mov	 eax, DWORD PTR _lpUser$[ebp]
  00665	83 78 04 03	 cmp	 DWORD PTR [eax+4], 3
  00669	7d 05		 jge	 SHORT $LN8@UserCalcul

; 222  : 	{
; 223  : 		return;

  0066b	e9 47 04 00 00	 jmp	 $LN11@UserCalcul
$LN8@UserCalcul:

; 224  : 	}
; 225  : 
; 226  : 	if(lpUser->PremiumTimeType <= 0 || lpUser->PremiumTimeType <= 0)

  00670	8b 45 f8	 mov	 eax, DWORD PTR _lpUser$[ebp]
  00673	83 b8 bc 22 00
	00 00		 cmp	 DWORD PTR [eax+8892], 0
  0067a	7e 0c		 jle	 SHORT $LN6@UserCalcul
  0067c	8b 45 f8	 mov	 eax, DWORD PTR _lpUser$[ebp]
  0067f	83 b8 bc 22 00
	00 00		 cmp	 DWORD PTR [eax+8892], 0
  00686	7f 05		 jg	 SHORT $LN7@UserCalcul
$LN6@UserCalcul:

; 227  : 	{
; 228  : 		return;

  00688	e9 2a 04 00 00	 jmp	 $LN11@UserCalcul
$LN7@UserCalcul:

; 229  : 	}
; 230  : 
; 231  : 	if(lpUser->PremiumTimeType == eVip1)

  0068d	8b 45 f8	 mov	 eax, DWORD PTR _lpUser$[ebp]
  00690	83 b8 bc 22 00
	00 01		 cmp	 DWORD PTR [eax+8892], 1
  00697	0f 85 55 01 00
	00		 jne	 $LN5@UserCalcul

; 232  : 	{
; 233  : 		lpUser->m_AttackDamageMinRight	+= ( lpUser->m_AttackDamageMinRight * this->Plus1DamageProcent ) / 100;

  0069d	8b 45 f8	 mov	 eax, DWORD PTR _lpUser$[ebp]
  006a0	8b 4d fc	 mov	 ecx, DWORD PTR _this$[ebp]
  006a3	8b 80 84 04 00
	00		 mov	 eax, DWORD PTR [eax+1156]
  006a9	0f af 41 0c	 imul	 eax, DWORD PTR [ecx+12]
  006ad	99		 cdq
  006ae	b9 64 00 00 00	 mov	 ecx, 100		; 00000064H
  006b3	f7 f9		 idiv	 ecx
  006b5	8b 55 f8	 mov	 edx, DWORD PTR _lpUser$[ebp]
  006b8	03 82 84 04 00
	00		 add	 eax, DWORD PTR [edx+1156]
  006be	8b 4d f8	 mov	 ecx, DWORD PTR _lpUser$[ebp]
  006c1	89 81 84 04 00
	00		 mov	 DWORD PTR [ecx+1156], eax

; 234  : 		lpUser->m_AttackDamageMaxRight	+= ( lpUser->m_AttackDamageMaxRight * this->Plus1DamageProcent ) / 100;

  006c7	8b 45 f8	 mov	 eax, DWORD PTR _lpUser$[ebp]
  006ca	8b 4d fc	 mov	 ecx, DWORD PTR _this$[ebp]
  006cd	8b 80 80 04 00
	00		 mov	 eax, DWORD PTR [eax+1152]
  006d3	0f af 41 0c	 imul	 eax, DWORD PTR [ecx+12]
  006d7	99		 cdq
  006d8	b9 64 00 00 00	 mov	 ecx, 100		; 00000064H
  006dd	f7 f9		 idiv	 ecx
  006df	8b 55 f8	 mov	 edx, DWORD PTR _lpUser$[ebp]
  006e2	03 82 80 04 00
	00		 add	 eax, DWORD PTR [edx+1152]
  006e8	8b 4d f8	 mov	 ecx, DWORD PTR _lpUser$[ebp]
  006eb	89 81 80 04 00
	00		 mov	 DWORD PTR [ecx+1152], eax

; 235  : 		lpUser->m_AttackDamageMinLeft	+= ( lpUser->m_AttackDamageMinLeft * this->Plus1DamageProcent ) / 100;

  006f1	8b 45 f8	 mov	 eax, DWORD PTR _lpUser$[ebp]
  006f4	8b 4d fc	 mov	 ecx, DWORD PTR _this$[ebp]
  006f7	8b 80 7c 04 00
	00		 mov	 eax, DWORD PTR [eax+1148]
  006fd	0f af 41 0c	 imul	 eax, DWORD PTR [ecx+12]
  00701	99		 cdq
  00702	b9 64 00 00 00	 mov	 ecx, 100		; 00000064H
  00707	f7 f9		 idiv	 ecx
  00709	8b 55 f8	 mov	 edx, DWORD PTR _lpUser$[ebp]
  0070c	03 82 7c 04 00
	00		 add	 eax, DWORD PTR [edx+1148]
  00712	8b 4d f8	 mov	 ecx, DWORD PTR _lpUser$[ebp]
  00715	89 81 7c 04 00
	00		 mov	 DWORD PTR [ecx+1148], eax

; 236  : 		lpUser->m_AttackDamageMaxLeft	+= ( lpUser->m_AttackDamageMaxLeft * this->Plus1DamageProcent ) / 100;

  0071b	8b 45 f8	 mov	 eax, DWORD PTR _lpUser$[ebp]
  0071e	8b 4d fc	 mov	 ecx, DWORD PTR _this$[ebp]
  00721	8b 80 78 04 00
	00		 mov	 eax, DWORD PTR [eax+1144]
  00727	0f af 41 0c	 imul	 eax, DWORD PTR [ecx+12]
  0072b	99		 cdq
  0072c	b9 64 00 00 00	 mov	 ecx, 100		; 00000064H
  00731	f7 f9		 idiv	 ecx
  00733	8b 55 f8	 mov	 edx, DWORD PTR _lpUser$[ebp]
  00736	03 82 78 04 00
	00		 add	 eax, DWORD PTR [edx+1144]
  0073c	8b 4d f8	 mov	 ecx, DWORD PTR _lpUser$[ebp]
  0073f	89 81 78 04 00
	00		 mov	 DWORD PTR [ecx+1144], eax

; 237  : 		lpUser->m_Defense				+= ( lpUser->m_Defense * this->Plus1DefenceProcent ) / 100;

  00745	8b 45 f8	 mov	 eax, DWORD PTR _lpUser$[ebp]
  00748	8b 4d fc	 mov	 ecx, DWORD PTR _this$[ebp]
  0074b	8b 80 94 04 00
	00		 mov	 eax, DWORD PTR [eax+1172]
  00751	0f af 41 10	 imul	 eax, DWORD PTR [ecx+16]
  00755	99		 cdq
  00756	b9 64 00 00 00	 mov	 ecx, 100		; 00000064H
  0075b	f7 f9		 idiv	 ecx
  0075d	8b 55 f8	 mov	 edx, DWORD PTR _lpUser$[ebp]
  00760	03 82 94 04 00
	00		 add	 eax, DWORD PTR [edx+1172]
  00766	8b 4d f8	 mov	 ecx, DWORD PTR _lpUser$[ebp]
  00769	89 81 94 04 00
	00		 mov	 DWORD PTR [ecx+1172], eax

; 238  : 		lpUser->m_MagicDefense			+= ( lpUser->m_MagicDefense * this->Plus1DefenceProcent ) / 100;

  0076f	8b 45 f8	 mov	 eax, DWORD PTR _lpUser$[ebp]
  00772	8b 4d fc	 mov	 ecx, DWORD PTR _this$[ebp]
  00775	8b 80 98 04 00
	00		 mov	 eax, DWORD PTR [eax+1176]
  0077b	0f af 41 10	 imul	 eax, DWORD PTR [ecx+16]
  0077f	99		 cdq
  00780	b9 64 00 00 00	 mov	 ecx, 100		; 00000064H
  00785	f7 f9		 idiv	 ecx
  00787	8b 55 f8	 mov	 edx, DWORD PTR _lpUser$[ebp]
  0078a	03 82 98 04 00
	00		 add	 eax, DWORD PTR [edx+1176]
  00790	8b 4d f8	 mov	 ecx, DWORD PTR _lpUser$[ebp]
  00793	89 81 98 04 00
	00		 mov	 DWORD PTR [ecx+1176], eax

; 239  : 		lpUser->m_MagicDamageMin		+= ( lpUser->m_MagicDamageMin * this->Plus1WizardDamageProcent ) / 100;

  00799	8b 45 f8	 mov	 eax, DWORD PTR _lpUser$[ebp]
  0079c	8b 4d fc	 mov	 ecx, DWORD PTR _this$[ebp]
  0079f	8b 80 68 04 00
	00		 mov	 eax, DWORD PTR [eax+1128]
  007a5	0f af 41 14	 imul	 eax, DWORD PTR [ecx+20]
  007a9	99		 cdq
  007aa	b9 64 00 00 00	 mov	 ecx, 100		; 00000064H
  007af	f7 f9		 idiv	 ecx
  007b1	8b 55 f8	 mov	 edx, DWORD PTR _lpUser$[ebp]
  007b4	03 82 68 04 00
	00		 add	 eax, DWORD PTR [edx+1128]
  007ba	8b 4d f8	 mov	 ecx, DWORD PTR _lpUser$[ebp]
  007bd	89 81 68 04 00
	00		 mov	 DWORD PTR [ecx+1128], eax

; 240  : 		lpUser->m_MagicDamageMax		+= ( lpUser->m_MagicDamageMax * this->Plus1WizardDamageProcent ) / 100;

  007c3	8b 45 f8	 mov	 eax, DWORD PTR _lpUser$[ebp]
  007c6	8b 4d fc	 mov	 ecx, DWORD PTR _this$[ebp]
  007c9	8b 80 6c 04 00
	00		 mov	 eax, DWORD PTR [eax+1132]
  007cf	0f af 41 14	 imul	 eax, DWORD PTR [ecx+20]
  007d3	99		 cdq
  007d4	b9 64 00 00 00	 mov	 ecx, 100		; 00000064H
  007d9	f7 f9		 idiv	 ecx
  007db	8b 55 f8	 mov	 edx, DWORD PTR _lpUser$[ebp]
  007de	03 82 6c 04 00
	00		 add	 eax, DWORD PTR [edx+1132]
  007e4	8b 4d f8	 mov	 ecx, DWORD PTR _lpUser$[ebp]
  007e7	89 81 6c 04 00
	00		 mov	 DWORD PTR [ecx+1132], eax
  007ed	e9 c5 02 00 00	 jmp	 $LN11@UserCalcul
$LN5@UserCalcul:

; 241  : 	}
; 242  : 	else if(lpUser->PremiumTimeType == eVip2)

  007f2	8b 45 f8	 mov	 eax, DWORD PTR _lpUser$[ebp]
  007f5	83 b8 bc 22 00
	00 02		 cmp	 DWORD PTR [eax+8892], 2
  007fc	0f 85 55 01 00
	00		 jne	 $LN3@UserCalcul

; 243  : 	{
; 244  : 		lpUser->m_AttackDamageMinRight	+= ( lpUser->m_AttackDamageMinRight * this->Plus2DamageProcent ) / 100;

  00802	8b 45 f8	 mov	 eax, DWORD PTR _lpUser$[ebp]
  00805	8b 4d fc	 mov	 ecx, DWORD PTR _this$[ebp]
  00808	8b 80 84 04 00
	00		 mov	 eax, DWORD PTR [eax+1156]
  0080e	0f af 41 24	 imul	 eax, DWORD PTR [ecx+36]
  00812	99		 cdq
  00813	b9 64 00 00 00	 mov	 ecx, 100		; 00000064H
  00818	f7 f9		 idiv	 ecx
  0081a	8b 55 f8	 mov	 edx, DWORD PTR _lpUser$[ebp]
  0081d	03 82 84 04 00
	00		 add	 eax, DWORD PTR [edx+1156]
  00823	8b 4d f8	 mov	 ecx, DWORD PTR _lpUser$[ebp]
  00826	89 81 84 04 00
	00		 mov	 DWORD PTR [ecx+1156], eax

; 245  : 		lpUser->m_AttackDamageMaxRight	+= ( lpUser->m_AttackDamageMaxRight * this->Plus2DamageProcent ) / 100;

  0082c	8b 45 f8	 mov	 eax, DWORD PTR _lpUser$[ebp]
  0082f	8b 4d fc	 mov	 ecx, DWORD PTR _this$[ebp]
  00832	8b 80 80 04 00
	00		 mov	 eax, DWORD PTR [eax+1152]
  00838	0f af 41 24	 imul	 eax, DWORD PTR [ecx+36]
  0083c	99		 cdq
  0083d	b9 64 00 00 00	 mov	 ecx, 100		; 00000064H
  00842	f7 f9		 idiv	 ecx
  00844	8b 55 f8	 mov	 edx, DWORD PTR _lpUser$[ebp]
  00847	03 82 80 04 00
	00		 add	 eax, DWORD PTR [edx+1152]
  0084d	8b 4d f8	 mov	 ecx, DWORD PTR _lpUser$[ebp]
  00850	89 81 80 04 00
	00		 mov	 DWORD PTR [ecx+1152], eax

; 246  : 		lpUser->m_AttackDamageMinLeft	+= ( lpUser->m_AttackDamageMinLeft * this->Plus2DamageProcent ) / 100;

  00856	8b 45 f8	 mov	 eax, DWORD PTR _lpUser$[ebp]
  00859	8b 4d fc	 mov	 ecx, DWORD PTR _this$[ebp]
  0085c	8b 80 7c 04 00
	00		 mov	 eax, DWORD PTR [eax+1148]
  00862	0f af 41 24	 imul	 eax, DWORD PTR [ecx+36]
  00866	99		 cdq
  00867	b9 64 00 00 00	 mov	 ecx, 100		; 00000064H
  0086c	f7 f9		 idiv	 ecx
  0086e	8b 55 f8	 mov	 edx, DWORD PTR _lpUser$[ebp]
  00871	03 82 7c 04 00
	00		 add	 eax, DWORD PTR [edx+1148]
  00877	8b 4d f8	 mov	 ecx, DWORD PTR _lpUser$[ebp]
  0087a	89 81 7c 04 00
	00		 mov	 DWORD PTR [ecx+1148], eax

; 247  : 		lpUser->m_AttackDamageMaxLeft	+= ( lpUser->m_AttackDamageMaxLeft * this->Plus2DamageProcent ) / 100;

  00880	8b 45 f8	 mov	 eax, DWORD PTR _lpUser$[ebp]
  00883	8b 4d fc	 mov	 ecx, DWORD PTR _this$[ebp]
  00886	8b 80 78 04 00
	00		 mov	 eax, DWORD PTR [eax+1144]
  0088c	0f af 41 24	 imul	 eax, DWORD PTR [ecx+36]
  00890	99		 cdq
  00891	b9 64 00 00 00	 mov	 ecx, 100		; 00000064H
  00896	f7 f9		 idiv	 ecx
  00898	8b 55 f8	 mov	 edx, DWORD PTR _lpUser$[ebp]
  0089b	03 82 78 04 00
	00		 add	 eax, DWORD PTR [edx+1144]
  008a1	8b 4d f8	 mov	 ecx, DWORD PTR _lpUser$[ebp]
  008a4	89 81 78 04 00
	00		 mov	 DWORD PTR [ecx+1144], eax

; 248  : 		lpUser->m_Defense				+= ( lpUser->m_Defense * this->Plus2DefenceProcent ) / 100;

  008aa	8b 45 f8	 mov	 eax, DWORD PTR _lpUser$[ebp]
  008ad	8b 4d fc	 mov	 ecx, DWORD PTR _this$[ebp]
  008b0	8b 80 94 04 00
	00		 mov	 eax, DWORD PTR [eax+1172]
  008b6	0f af 41 28	 imul	 eax, DWORD PTR [ecx+40]
  008ba	99		 cdq
  008bb	b9 64 00 00 00	 mov	 ecx, 100		; 00000064H
  008c0	f7 f9		 idiv	 ecx
  008c2	8b 55 f8	 mov	 edx, DWORD PTR _lpUser$[ebp]
  008c5	03 82 94 04 00
	00		 add	 eax, DWORD PTR [edx+1172]
  008cb	8b 4d f8	 mov	 ecx, DWORD PTR _lpUser$[ebp]
  008ce	89 81 94 04 00
	00		 mov	 DWORD PTR [ecx+1172], eax

; 249  : 		lpUser->m_MagicDefense			+= ( lpUser->m_MagicDefense * this->Plus2DefenceProcent ) / 100;

  008d4	8b 45 f8	 mov	 eax, DWORD PTR _lpUser$[ebp]
  008d7	8b 4d fc	 mov	 ecx, DWORD PTR _this$[ebp]
  008da	8b 80 98 04 00
	00		 mov	 eax, DWORD PTR [eax+1176]
  008e0	0f af 41 28	 imul	 eax, DWORD PTR [ecx+40]
  008e4	99		 cdq
  008e5	b9 64 00 00 00	 mov	 ecx, 100		; 00000064H
  008ea	f7 f9		 idiv	 ecx
  008ec	8b 55 f8	 mov	 edx, DWORD PTR _lpUser$[ebp]
  008ef	03 82 98 04 00
	00		 add	 eax, DWORD PTR [edx+1176]
  008f5	8b 4d f8	 mov	 ecx, DWORD PTR _lpUser$[ebp]
  008f8	89 81 98 04 00
	00		 mov	 DWORD PTR [ecx+1176], eax

; 250  : 		lpUser->m_MagicDamageMin		+= ( lpUser->m_MagicDamageMin * this->Plus2WizardDamageProcent ) / 100;

  008fe	8b 45 f8	 mov	 eax, DWORD PTR _lpUser$[ebp]
  00901	8b 4d fc	 mov	 ecx, DWORD PTR _this$[ebp]
  00904	8b 80 68 04 00
	00		 mov	 eax, DWORD PTR [eax+1128]
  0090a	0f af 41 2c	 imul	 eax, DWORD PTR [ecx+44]
  0090e	99		 cdq
  0090f	b9 64 00 00 00	 mov	 ecx, 100		; 00000064H
  00914	f7 f9		 idiv	 ecx
  00916	8b 55 f8	 mov	 edx, DWORD PTR _lpUser$[ebp]
  00919	03 82 68 04 00
	00		 add	 eax, DWORD PTR [edx+1128]
  0091f	8b 4d f8	 mov	 ecx, DWORD PTR _lpUser$[ebp]
  00922	89 81 68 04 00
	00		 mov	 DWORD PTR [ecx+1128], eax

; 251  : 		lpUser->m_MagicDamageMax		+= ( lpUser->m_MagicDamageMax * this->Plus2WizardDamageProcent ) / 100;

  00928	8b 45 f8	 mov	 eax, DWORD PTR _lpUser$[ebp]
  0092b	8b 4d fc	 mov	 ecx, DWORD PTR _this$[ebp]
  0092e	8b 80 6c 04 00
	00		 mov	 eax, DWORD PTR [eax+1132]
  00934	0f af 41 2c	 imul	 eax, DWORD PTR [ecx+44]
  00938	99		 cdq
  00939	b9 64 00 00 00	 mov	 ecx, 100		; 00000064H
  0093e	f7 f9		 idiv	 ecx
  00940	8b 55 f8	 mov	 edx, DWORD PTR _lpUser$[ebp]
  00943	03 82 6c 04 00
	00		 add	 eax, DWORD PTR [edx+1132]
  00949	8b 4d f8	 mov	 ecx, DWORD PTR _lpUser$[ebp]
  0094c	89 81 6c 04 00
	00		 mov	 DWORD PTR [ecx+1132], eax
  00952	e9 60 01 00 00	 jmp	 $LN11@UserCalcul
$LN3@UserCalcul:

; 252  : 	}
; 253  : 	else if(lpUser->PremiumTimeType == eVip3)

  00957	8b 45 f8	 mov	 eax, DWORD PTR _lpUser$[ebp]
  0095a	83 b8 bc 22 00
	00 03		 cmp	 DWORD PTR [eax+8892], 3
  00961	0f 85 50 01 00
	00		 jne	 $LN11@UserCalcul

; 254  : 	{
; 255  : 		lpUser->m_AttackDamageMinRight	+= ( lpUser->m_AttackDamageMinRight * this->Plus3DamageProcent ) / 100;

  00967	8b 45 f8	 mov	 eax, DWORD PTR _lpUser$[ebp]
  0096a	8b 4d fc	 mov	 ecx, DWORD PTR _this$[ebp]
  0096d	8b 80 84 04 00
	00		 mov	 eax, DWORD PTR [eax+1156]
  00973	0f af 41 3c	 imul	 eax, DWORD PTR [ecx+60]
  00977	99		 cdq
  00978	b9 64 00 00 00	 mov	 ecx, 100		; 00000064H
  0097d	f7 f9		 idiv	 ecx
  0097f	8b 55 f8	 mov	 edx, DWORD PTR _lpUser$[ebp]
  00982	03 82 84 04 00
	00		 add	 eax, DWORD PTR [edx+1156]
  00988	8b 4d f8	 mov	 ecx, DWORD PTR _lpUser$[ebp]
  0098b	89 81 84 04 00
	00		 mov	 DWORD PTR [ecx+1156], eax

; 256  : 		lpUser->m_AttackDamageMaxRight	+= ( lpUser->m_AttackDamageMaxRight * this->Plus3DamageProcent ) / 100;

  00991	8b 45 f8	 mov	 eax, DWORD PTR _lpUser$[ebp]
  00994	8b 4d fc	 mov	 ecx, DWORD PTR _this$[ebp]
  00997	8b 80 80 04 00
	00		 mov	 eax, DWORD PTR [eax+1152]
  0099d	0f af 41 3c	 imul	 eax, DWORD PTR [ecx+60]
  009a1	99		 cdq
  009a2	b9 64 00 00 00	 mov	 ecx, 100		; 00000064H
  009a7	f7 f9		 idiv	 ecx
  009a9	8b 55 f8	 mov	 edx, DWORD PTR _lpUser$[ebp]
  009ac	03 82 80 04 00
	00		 add	 eax, DWORD PTR [edx+1152]
  009b2	8b 4d f8	 mov	 ecx, DWORD PTR _lpUser$[ebp]
  009b5	89 81 80 04 00
	00		 mov	 DWORD PTR [ecx+1152], eax

; 257  : 		lpUser->m_AttackDamageMinLeft	+= ( lpUser->m_AttackDamageMinLeft * this->Plus3DamageProcent ) / 100;

  009bb	8b 45 f8	 mov	 eax, DWORD PTR _lpUser$[ebp]
  009be	8b 4d fc	 mov	 ecx, DWORD PTR _this$[ebp]
  009c1	8b 80 7c 04 00
	00		 mov	 eax, DWORD PTR [eax+1148]
  009c7	0f af 41 3c	 imul	 eax, DWORD PTR [ecx+60]
  009cb	99		 cdq
  009cc	b9 64 00 00 00	 mov	 ecx, 100		; 00000064H
  009d1	f7 f9		 idiv	 ecx
  009d3	8b 55 f8	 mov	 edx, DWORD PTR _lpUser$[ebp]
  009d6	03 82 7c 04 00
	00		 add	 eax, DWORD PTR [edx+1148]
  009dc	8b 4d f8	 mov	 ecx, DWORD PTR _lpUser$[ebp]
  009df	89 81 7c 04 00
	00		 mov	 DWORD PTR [ecx+1148], eax

; 258  : 		lpUser->m_AttackDamageMaxLeft	+= ( lpUser->m_AttackDamageMaxLeft * this->Plus3DamageProcent ) / 100;

  009e5	8b 45 f8	 mov	 eax, DWORD PTR _lpUser$[ebp]
  009e8	8b 4d fc	 mov	 ecx, DWORD PTR _this$[ebp]
  009eb	8b 80 78 04 00
	00		 mov	 eax, DWORD PTR [eax+1144]
  009f1	0f af 41 3c	 imul	 eax, DWORD PTR [ecx+60]
  009f5	99		 cdq
  009f6	b9 64 00 00 00	 mov	 ecx, 100		; 00000064H
  009fb	f7 f9		 idiv	 ecx
  009fd	8b 55 f8	 mov	 edx, DWORD PTR _lpUser$[ebp]
  00a00	03 82 78 04 00
	00		 add	 eax, DWORD PTR [edx+1144]
  00a06	8b 4d f8	 mov	 ecx, DWORD PTR _lpUser$[ebp]
  00a09	89 81 78 04 00
	00		 mov	 DWORD PTR [ecx+1144], eax

; 259  : 		lpUser->m_Defense				+= ( lpUser->m_Defense * this->Plus3DefenceProcent ) / 100;

  00a0f	8b 45 f8	 mov	 eax, DWORD PTR _lpUser$[ebp]
  00a12	8b 4d fc	 mov	 ecx, DWORD PTR _this$[ebp]
  00a15	8b 80 94 04 00
	00		 mov	 eax, DWORD PTR [eax+1172]
  00a1b	0f af 41 40	 imul	 eax, DWORD PTR [ecx+64]
  00a1f	99		 cdq
  00a20	b9 64 00 00 00	 mov	 ecx, 100		; 00000064H
  00a25	f7 f9		 idiv	 ecx
  00a27	8b 55 f8	 mov	 edx, DWORD PTR _lpUser$[ebp]
  00a2a	03 82 94 04 00
	00		 add	 eax, DWORD PTR [edx+1172]
  00a30	8b 4d f8	 mov	 ecx, DWORD PTR _lpUser$[ebp]
  00a33	89 81 94 04 00
	00		 mov	 DWORD PTR [ecx+1172], eax

; 260  : 		lpUser->m_MagicDefense			+= ( lpUser->m_MagicDefense * this->Plus3DefenceProcent ) / 100;

  00a39	8b 45 f8	 mov	 eax, DWORD PTR _lpUser$[ebp]
  00a3c	8b 4d fc	 mov	 ecx, DWORD PTR _this$[ebp]
  00a3f	8b 80 98 04 00
	00		 mov	 eax, DWORD PTR [eax+1176]
  00a45	0f af 41 40	 imul	 eax, DWORD PTR [ecx+64]
  00a49	99		 cdq
  00a4a	b9 64 00 00 00	 mov	 ecx, 100		; 00000064H
  00a4f	f7 f9		 idiv	 ecx
  00a51	8b 55 f8	 mov	 edx, DWORD PTR _lpUser$[ebp]
  00a54	03 82 98 04 00
	00		 add	 eax, DWORD PTR [edx+1176]
  00a5a	8b 4d f8	 mov	 ecx, DWORD PTR _lpUser$[ebp]
  00a5d	89 81 98 04 00
	00		 mov	 DWORD PTR [ecx+1176], eax

; 261  : 		lpUser->m_MagicDamageMin		+= ( lpUser->m_MagicDamageMin * this->Plus3WizardDamageProcent ) / 100;

  00a63	8b 45 f8	 mov	 eax, DWORD PTR _lpUser$[ebp]
  00a66	8b 4d fc	 mov	 ecx, DWORD PTR _this$[ebp]
  00a69	8b 80 68 04 00
	00		 mov	 eax, DWORD PTR [eax+1128]
  00a6f	0f af 41 44	 imul	 eax, DWORD PTR [ecx+68]
  00a73	99		 cdq
  00a74	b9 64 00 00 00	 mov	 ecx, 100		; 00000064H
  00a79	f7 f9		 idiv	 ecx
  00a7b	8b 55 f8	 mov	 edx, DWORD PTR _lpUser$[ebp]
  00a7e	03 82 68 04 00
	00		 add	 eax, DWORD PTR [edx+1128]
  00a84	8b 4d f8	 mov	 ecx, DWORD PTR _lpUser$[ebp]
  00a87	89 81 68 04 00
	00		 mov	 DWORD PTR [ecx+1128], eax

; 262  : 		lpUser->m_MagicDamageMax		+= ( lpUser->m_MagicDamageMax * this->Plus3WizardDamageProcent ) / 100;

  00a8d	8b 45 f8	 mov	 eax, DWORD PTR _lpUser$[ebp]
  00a90	8b 4d fc	 mov	 ecx, DWORD PTR _this$[ebp]
  00a93	8b 80 6c 04 00
	00		 mov	 eax, DWORD PTR [eax+1132]
  00a99	0f af 41 44	 imul	 eax, DWORD PTR [ecx+68]
  00a9d	99		 cdq
  00a9e	b9 64 00 00 00	 mov	 ecx, 100		; 00000064H
  00aa3	f7 f9		 idiv	 ecx
  00aa5	8b 55 f8	 mov	 edx, DWORD PTR _lpUser$[ebp]
  00aa8	03 82 6c 04 00
	00		 add	 eax, DWORD PTR [edx+1132]
  00aae	8b 4d f8	 mov	 ecx, DWORD PTR _lpUser$[ebp]
  00ab1	89 81 6c 04 00
	00		 mov	 DWORD PTR [ecx+1132], eax
$LN11@UserCalcul:

; 263  : 	}
; 264  : }

  00ab7	5f		 pop	 edi
  00ab8	5e		 pop	 esi
  00ab9	5b		 pop	 ebx
  00aba	8b e5		 mov	 esp, ebp
  00abc	5d		 pop	 ebp
  00abd	c2 04 00	 ret	 4
?UserCalculatorPlus@PremiumSystemEx@@QAEXH@Z ENDP	; PremiumSystemEx::UserCalculatorPlus
_TEXT	ENDS
PUBLIC	?__LINE__Var@?1??UserExpPlus@PremiumSystemEx@@QAEHH@Z@4JA ; `PremiumSystemEx::UserExpPlus'::`2'::__LINE__Var
PUBLIC	?UserExpPlus@PremiumSystemEx@@QAEHH@Z		; PremiumSystemEx::UserExpPlus
;	COMDAT ?__LINE__Var@?1??UserExpPlus@PremiumSystemEx@@QAEHH@Z@4JA
_DATA	SEGMENT
?__LINE__Var@?1??UserExpPlus@PremiumSystemEx@@QAEHH@Z@4JA DD 010cH ; `PremiumSystemEx::UserExpPlus'::`2'::__LINE__Var
; Function compile flags: /Odtp /ZI
_DATA	ENDS
_TEXT	SEGMENT
tv69 = -80						; size = 4
_Result$ = -12						; size = 4
_lpUser$ = -8						; size = 4
_this$ = -4						; size = 4
_aIndex$ = 8						; size = 4
?UserExpPlus@PremiumSystemEx@@QAEHH@Z PROC		; PremiumSystemEx::UserExpPlus
; _this$ = ecx

; 268  : {

  00ac0	55		 push	 ebp
  00ac1	8b ec		 mov	 ebp, esp
  00ac3	83 ec 50	 sub	 esp, 80			; 00000050H
  00ac6	53		 push	 ebx
  00ac7	56		 push	 esi
  00ac8	57		 push	 edi
  00ac9	89 4d fc	 mov	 DWORD PTR _this$[ebp], ecx

; 269  : 	if(!this->ActiveSystem)

  00acc	8b 45 fc	 mov	 eax, DWORD PTR _this$[ebp]
  00acf	0f b6 08	 movzx	 ecx, BYTE PTR [eax]
  00ad2	85 c9		 test	 ecx, ecx
  00ad4	75 07		 jne	 SHORT $LN10@UserExpPlu

; 270  : 	{
; 271  : 		return 0;

  00ad6	33 c0		 xor	 eax, eax
  00ad8	e9 cf 00 00 00	 jmp	 $LN11@UserExpPlu
$LN10@UserExpPlu:

; 272  : 	}
; 273  : 
; 274  : 	if ( OBJMAX_RANGE(aIndex) == FALSE )

  00add	83 7d 08 00	 cmp	 DWORD PTR _aIndex$[ebp], 0
  00ae1	7d 09		 jge	 SHORT $LN13@UserExpPlu
  00ae3	c7 45 b0 00 00
	00 00		 mov	 DWORD PTR tv69[ebp], 0
  00aea	eb 0f		 jmp	 SHORT $LN14@UserExpPlu
$LN13@UserExpPlu:
  00aec	33 c0		 xor	 eax, eax
  00aee	81 7d 08 97 3a
	00 00		 cmp	 DWORD PTR _aIndex$[ebp], 14999 ; 00003a97H
  00af5	0f 9e c0	 setle	 al
  00af8	89 45 b0	 mov	 DWORD PTR tv69[ebp], eax
$LN14@UserExpPlu:
  00afb	83 7d b0 00	 cmp	 DWORD PTR tv69[ebp], 0
  00aff	75 23		 jne	 SHORT $LN9@UserExpPlu

; 275  : 	{
; 276  : 		LogAdd("error : %s %d", __FILE__, __LINE__ );

  00b01	a1 00 00 00 00	 mov	 eax, DWORD PTR ?__LINE__Var@?1??UserExpPlus@PremiumSystemEx@@QAEHH@Z@4JA
  00b06	83 c0 08	 add	 eax, 8
  00b09	50		 push	 eax
  00b0a	68 00 00 00 00	 push	 OFFSET ??_C@_0EH@LMMDDEHM@d?3?2projects?2exteam6?43?2source?2gam@
  00b0f	68 00 00 00 00	 push	 OFFSET ??_C@_0O@CKAEPJAF@error?5?3?5?$CFs?5?$CFd?$AA@
  00b14	ff 15 00 00 00
	00		 call	 DWORD PTR ?LogAdd@@3P6AXPADZZA ; LogAdd
  00b1a	83 c4 0c	 add	 esp, 12			; 0000000cH

; 277  : 		return 0;

  00b1d	33 c0		 xor	 eax, eax
  00b1f	e9 88 00 00 00	 jmp	 $LN11@UserExpPlu
$LN9@UserExpPlu:

; 278  : 	}
; 279  : 
; 280  : 	LPOBJ lpUser = &gObj[aIndex];

  00b24	8b 45 08	 mov	 eax, DWORD PTR _aIndex$[ebp]
  00b27	69 c0 38 2b 00
	00		 imul	 eax, 11064		; 00002b38H
  00b2d	03 05 00 00 00
	00		 add	 eax, DWORD PTR ?gObj@@3PAUOBJECTSTRUCT@@A ; gObj
  00b33	89 45 f8	 mov	 DWORD PTR _lpUser$[ebp], eax

; 281  : 
; 282  : 	if(lpUser->Connected < PLAYER_PLAYING)

  00b36	8b 45 f8	 mov	 eax, DWORD PTR _lpUser$[ebp]
  00b39	83 78 04 03	 cmp	 DWORD PTR [eax+4], 3
  00b3d	7d 04		 jge	 SHORT $LN8@UserExpPlu

; 283  : 	{
; 284  : 		return 0;

  00b3f	33 c0		 xor	 eax, eax
  00b41	eb 69		 jmp	 SHORT $LN11@UserExpPlu
$LN8@UserExpPlu:

; 285  : 	}
; 286  : 
; 287  : 	if(lpUser->PremiumTimeType <= 0 || lpUser->PremiumTimeType <= 0)

  00b43	8b 45 f8	 mov	 eax, DWORD PTR _lpUser$[ebp]
  00b46	83 b8 bc 22 00
	00 00		 cmp	 DWORD PTR [eax+8892], 0
  00b4d	7e 0c		 jle	 SHORT $LN6@UserExpPlu
  00b4f	8b 45 f8	 mov	 eax, DWORD PTR _lpUser$[ebp]
  00b52	83 b8 bc 22 00
	00 00		 cmp	 DWORD PTR [eax+8892], 0
  00b59	7f 04		 jg	 SHORT $LN7@UserExpPlu
$LN6@UserExpPlu:

; 288  : 	{
; 289  : 		return 0;

  00b5b	33 c0		 xor	 eax, eax
  00b5d	eb 4d		 jmp	 SHORT $LN11@UserExpPlu
$LN7@UserExpPlu:

; 290  : 	}
; 291  : 	
; 292  : 	int Result = 0;

  00b5f	c7 45 f4 00 00
	00 00		 mov	 DWORD PTR _Result$[ebp], 0

; 293  : 
; 294  : 	if(lpUser->PremiumTimeType == eVip1)

  00b66	8b 45 f8	 mov	 eax, DWORD PTR _lpUser$[ebp]
  00b69	83 b8 bc 22 00
	00 01		 cmp	 DWORD PTR [eax+8892], 1
  00b70	75 0b		 jne	 SHORT $LN5@UserExpPlu

; 295  : 	{
; 296  : 		Result = this->Plus1ExpProcent;

  00b72	8b 45 fc	 mov	 eax, DWORD PTR _this$[ebp]
  00b75	8b 48 04	 mov	 ecx, DWORD PTR [eax+4]
  00b78	89 4d f4	 mov	 DWORD PTR _Result$[ebp], ecx
  00b7b	eb 2c		 jmp	 SHORT $LN4@UserExpPlu
$LN5@UserExpPlu:

; 297  : 	}
; 298  : 	else if(lpUser->PremiumTimeType == eVip2)

  00b7d	8b 45 f8	 mov	 eax, DWORD PTR _lpUser$[ebp]
  00b80	83 b8 bc 22 00
	00 02		 cmp	 DWORD PTR [eax+8892], 2
  00b87	75 0b		 jne	 SHORT $LN3@UserExpPlu

; 299  : 	{
; 300  : 		Result = this->Plus2ExpProcent;

  00b89	8b 45 fc	 mov	 eax, DWORD PTR _this$[ebp]
  00b8c	8b 48 1c	 mov	 ecx, DWORD PTR [eax+28]
  00b8f	89 4d f4	 mov	 DWORD PTR _Result$[ebp], ecx
  00b92	eb 15		 jmp	 SHORT $LN4@UserExpPlu
$LN3@UserExpPlu:

; 301  : 	}
; 302  : 	else if(lpUser->PremiumTimeType == eVip3)

  00b94	8b 45 f8	 mov	 eax, DWORD PTR _lpUser$[ebp]
  00b97	83 b8 bc 22 00
	00 03		 cmp	 DWORD PTR [eax+8892], 3
  00b9e	75 09		 jne	 SHORT $LN4@UserExpPlu

; 303  : 	{
; 304  : 		Result = this->Plus3ExpProcent;

  00ba0	8b 45 fc	 mov	 eax, DWORD PTR _this$[ebp]
  00ba3	8b 48 34	 mov	 ecx, DWORD PTR [eax+52]
  00ba6	89 4d f4	 mov	 DWORD PTR _Result$[ebp], ecx
$LN4@UserExpPlu:

; 305  : 	}
; 306  : 
; 307  : 	return Result;

  00ba9	8b 45 f4	 mov	 eax, DWORD PTR _Result$[ebp]
$LN11@UserExpPlu:

; 308  : }

  00bac	5f		 pop	 edi
  00bad	5e		 pop	 esi
  00bae	5b		 pop	 ebx
  00baf	8b e5		 mov	 esp, ebp
  00bb1	5d		 pop	 ebp
  00bb2	c2 04 00	 ret	 4
?UserExpPlus@PremiumSystemEx@@QAEHH@Z ENDP		; PremiumSystemEx::UserExpPlus
_TEXT	ENDS
PUBLIC	__real@4059000000000000
PUBLIC	?__LINE__Var@?1??UserZenPlus@PremiumSystemEx@@QAEXHAAM@Z@4JA ; `PremiumSystemEx::UserZenPlus'::`2'::__LINE__Var
PUBLIC	?UserZenPlus@PremiumSystemEx@@QAEXHAAM@Z	; PremiumSystemEx::UserZenPlus
EXTRN	__fltused:DWORD
;	COMDAT __real@4059000000000000
CONST	SEGMENT
__real@4059000000000000 DQ 04059000000000000r	; 100
CONST	ENDS
;	COMDAT ?__LINE__Var@?1??UserZenPlus@PremiumSystemEx@@QAEXHAAM@Z@4JA
_DATA	SEGMENT
?__LINE__Var@?1??UserZenPlus@PremiumSystemEx@@QAEXHAAM@Z@4JA DD 0138H ; `PremiumSystemEx::UserZenPlus'::`2'::__LINE__Var
; Function compile flags: /Odtp /ZI
_DATA	ENDS
_TEXT	SEGMENT
tv69 = -80						; size = 4
_ZenPlus$ = -12						; size = 4
_lpUser$ = -8						; size = 4
_this$ = -4						; size = 4
_aIndex$ = 8						; size = 4
_Money$ = 12						; size = 4
?UserZenPlus@PremiumSystemEx@@QAEXHAAM@Z PROC		; PremiumSystemEx::UserZenPlus
; _this$ = ecx

; 312  : {

  00bc0	55		 push	 ebp
  00bc1	8b ec		 mov	 ebp, esp
  00bc3	83 ec 50	 sub	 esp, 80			; 00000050H
  00bc6	53		 push	 ebx
  00bc7	56		 push	 esi
  00bc8	57		 push	 edi
  00bc9	89 4d fc	 mov	 DWORD PTR _this$[ebp], ecx

; 313  : 	if(!this->ActiveSystem)

  00bcc	8b 45 fc	 mov	 eax, DWORD PTR _this$[ebp]
  00bcf	0f b6 08	 movzx	 ecx, BYTE PTR [eax]
  00bd2	85 c9		 test	 ecx, ecx
  00bd4	75 05		 jne	 SHORT $LN10@UserZenPlu

; 314  : 	{
; 315  : 		return;

  00bd6	e9 de 00 00 00	 jmp	 $LN11@UserZenPlu
$LN10@UserZenPlu:

; 316  : 	}
; 317  : 
; 318  : 	if ( OBJMAX_RANGE(aIndex) == FALSE )

  00bdb	83 7d 08 00	 cmp	 DWORD PTR _aIndex$[ebp], 0
  00bdf	7d 09		 jge	 SHORT $LN13@UserZenPlu
  00be1	c7 45 b0 00 00
	00 00		 mov	 DWORD PTR tv69[ebp], 0
  00be8	eb 0f		 jmp	 SHORT $LN14@UserZenPlu
$LN13@UserZenPlu:
  00bea	33 c0		 xor	 eax, eax
  00bec	81 7d 08 97 3a
	00 00		 cmp	 DWORD PTR _aIndex$[ebp], 14999 ; 00003a97H
  00bf3	0f 9e c0	 setle	 al
  00bf6	89 45 b0	 mov	 DWORD PTR tv69[ebp], eax
$LN14@UserZenPlu:
  00bf9	83 7d b0 00	 cmp	 DWORD PTR tv69[ebp], 0
  00bfd	75 21		 jne	 SHORT $LN9@UserZenPlu

; 319  : 	{
; 320  : 		LogAdd("error : %s %d", __FILE__, __LINE__ );

  00bff	a1 00 00 00 00	 mov	 eax, DWORD PTR ?__LINE__Var@?1??UserZenPlus@PremiumSystemEx@@QAEXHAAM@Z@4JA
  00c04	83 c0 08	 add	 eax, 8
  00c07	50		 push	 eax
  00c08	68 00 00 00 00	 push	 OFFSET ??_C@_0EH@LMMDDEHM@d?3?2projects?2exteam6?43?2source?2gam@
  00c0d	68 00 00 00 00	 push	 OFFSET ??_C@_0O@CKAEPJAF@error?5?3?5?$CFs?5?$CFd?$AA@
  00c12	ff 15 00 00 00
	00		 call	 DWORD PTR ?LogAdd@@3P6AXPADZZA ; LogAdd
  00c18	83 c4 0c	 add	 esp, 12			; 0000000cH

; 321  : 		return;

  00c1b	e9 99 00 00 00	 jmp	 $LN11@UserZenPlu
$LN9@UserZenPlu:

; 322  : 	}
; 323  : 
; 324  : 	LPOBJ lpUser = &gObj[aIndex];

  00c20	8b 45 08	 mov	 eax, DWORD PTR _aIndex$[ebp]
  00c23	69 c0 38 2b 00
	00		 imul	 eax, 11064		; 00002b38H
  00c29	03 05 00 00 00
	00		 add	 eax, DWORD PTR ?gObj@@3PAUOBJECTSTRUCT@@A ; gObj
  00c2f	89 45 f8	 mov	 DWORD PTR _lpUser$[ebp], eax

; 325  : 
; 326  : 	if(lpUser->Connected < PLAYER_PLAYING)

  00c32	8b 45 f8	 mov	 eax, DWORD PTR _lpUser$[ebp]
  00c35	83 78 04 03	 cmp	 DWORD PTR [eax+4], 3
  00c39	7d 02		 jge	 SHORT $LN8@UserZenPlu

; 327  : 	{
; 328  : 		return;

  00c3b	eb 7c		 jmp	 SHORT $LN11@UserZenPlu
$LN8@UserZenPlu:

; 329  : 	}
; 330  : 
; 331  : 	if(lpUser->PremiumTimeType <= 0 || lpUser->PremiumTimeType <= 0)

  00c3d	8b 45 f8	 mov	 eax, DWORD PTR _lpUser$[ebp]
  00c40	83 b8 bc 22 00
	00 00		 cmp	 DWORD PTR [eax+8892], 0
  00c47	7e 0c		 jle	 SHORT $LN6@UserZenPlu
  00c49	8b 45 f8	 mov	 eax, DWORD PTR _lpUser$[ebp]
  00c4c	83 b8 bc 22 00
	00 00		 cmp	 DWORD PTR [eax+8892], 0
  00c53	7f 02		 jg	 SHORT $LN7@UserZenPlu
$LN6@UserZenPlu:

; 332  : 	{
; 333  : 		return;

  00c55	eb 62		 jmp	 SHORT $LN11@UserZenPlu
$LN7@UserZenPlu:

; 334  : 	}
; 335  : 
; 336  : 	int ZenPlus = 0;

  00c57	c7 45 f4 00 00
	00 00		 mov	 DWORD PTR _ZenPlus$[ebp], 0

; 337  : 
; 338  : 	if(lpUser->PremiumTimeType == eVip1)

  00c5e	8b 45 f8	 mov	 eax, DWORD PTR _lpUser$[ebp]
  00c61	83 b8 bc 22 00
	00 01		 cmp	 DWORD PTR [eax+8892], 1
  00c68	75 0b		 jne	 SHORT $LN5@UserZenPlu

; 339  : 	{
; 340  : 		ZenPlus = this->Plus1DropZenProcent;

  00c6a	8b 45 fc	 mov	 eax, DWORD PTR _this$[ebp]
  00c6d	8b 48 08	 mov	 ecx, DWORD PTR [eax+8]
  00c70	89 4d f4	 mov	 DWORD PTR _ZenPlus$[ebp], ecx
  00c73	eb 2c		 jmp	 SHORT $LN1@UserZenPlu
$LN5@UserZenPlu:

; 341  : 	}
; 342  : 	else if(lpUser->PremiumTimeType == eVip2)

  00c75	8b 45 f8	 mov	 eax, DWORD PTR _lpUser$[ebp]
  00c78	83 b8 bc 22 00
	00 02		 cmp	 DWORD PTR [eax+8892], 2
  00c7f	75 0b		 jne	 SHORT $LN3@UserZenPlu

; 343  : 	{
; 344  : 		ZenPlus = this->Plus2DropZenProcent;

  00c81	8b 45 fc	 mov	 eax, DWORD PTR _this$[ebp]
  00c84	8b 48 20	 mov	 ecx, DWORD PTR [eax+32]
  00c87	89 4d f4	 mov	 DWORD PTR _ZenPlus$[ebp], ecx
  00c8a	eb 15		 jmp	 SHORT $LN1@UserZenPlu
$LN3@UserZenPlu:

; 345  : 	}
; 346  : 	else if(lpUser->PremiumTimeType == eVip3)

  00c8c	8b 45 f8	 mov	 eax, DWORD PTR _lpUser$[ebp]
  00c8f	83 b8 bc 22 00
	00 03		 cmp	 DWORD PTR [eax+8892], 3
  00c96	75 09		 jne	 SHORT $LN1@UserZenPlu

; 347  : 	{
; 348  : 		ZenPlus = this->Plus3DropZenProcent;

  00c98	8b 45 fc	 mov	 eax, DWORD PTR _this$[ebp]
  00c9b	8b 48 38	 mov	 ecx, DWORD PTR [eax+56]
  00c9e	89 4d f4	 mov	 DWORD PTR _ZenPlus$[ebp], ecx
$LN1@UserZenPlu:

; 349  : 	}
; 350  : 
; 351  : 	Money += ( Money * ZenPlus ) / 100.0f;

  00ca1	db 45 f4	 fild	 DWORD PTR _ZenPlus$[ebp]
  00ca4	8b 45 0c	 mov	 eax, DWORD PTR _Money$[ebp]
  00ca7	d8 08		 fmul	 DWORD PTR [eax]
  00ca9	dc 35 00 00 00
	00		 fdiv	 QWORD PTR __real@4059000000000000
  00caf	8b 4d 0c	 mov	 ecx, DWORD PTR _Money$[ebp]
  00cb2	d8 01		 fadd	 DWORD PTR [ecx]
  00cb4	8b 55 0c	 mov	 edx, DWORD PTR _Money$[ebp]
  00cb7	d9 1a		 fstp	 DWORD PTR [edx]
$LN11@UserZenPlu:

; 352  : }

  00cb9	5f		 pop	 edi
  00cba	5e		 pop	 esi
  00cbb	5b		 pop	 ebx
  00cbc	8b e5		 mov	 esp, ebp
  00cbe	5d		 pop	 ebp
  00cbf	c2 08 00	 ret	 8
?UserZenPlus@PremiumSystemEx@@QAEXHAAM@Z ENDP		; PremiumSystemEx::UserZenPlus
_TEXT	ENDS
PUBLIC	?InfoMessage@PremiumSystemEx@@QAEXH@Z		; PremiumSystemEx::InfoMessage
PUBLIC	?__LINE__Var@?1??UserConnect@PremiumSystemEx@@QAEXH@Z@4JA ; `PremiumSystemEx::UserConnect'::`2'::__LINE__Var
PUBLIC	?UserConnect@PremiumSystemEx@@QAEXH@Z		; PremiumSystemEx::UserConnect
;	COMDAT ?__LINE__Var@?1??UserConnect@PremiumSystemEx@@QAEXH@Z@4JA
_DATA	SEGMENT
?__LINE__Var@?1??UserConnect@PremiumSystemEx@@QAEXH@Z@4JA DD 0164H ; `PremiumSystemEx::UserConnect'::`2'::__LINE__Var
; Function compile flags: /Odtp /ZI
_DATA	ENDS
_TEXT	SEGMENT
tv69 = -76						; size = 4
_lpUser$ = -8						; size = 4
_this$ = -4						; size = 4
_aIndex$ = 8						; size = 4
?UserConnect@PremiumSystemEx@@QAEXH@Z PROC		; PremiumSystemEx::UserConnect
; _this$ = ecx

; 356  : {

  00cd0	55		 push	 ebp
  00cd1	8b ec		 mov	 ebp, esp
  00cd3	83 ec 4c	 sub	 esp, 76			; 0000004cH
  00cd6	53		 push	 ebx
  00cd7	56		 push	 esi
  00cd8	57		 push	 edi
  00cd9	89 4d fc	 mov	 DWORD PTR _this$[ebp], ecx

; 357  : 	if(!this->ActiveSystem)

  00cdc	8b 45 fc	 mov	 eax, DWORD PTR _this$[ebp]
  00cdf	0f b6 08	 movzx	 ecx, BYTE PTR [eax]
  00ce2	85 c9		 test	 ecx, ecx
  00ce4	75 05		 jne	 SHORT $LN5@UserConnec

; 358  : 	{
; 359  : 		return;

  00ce6	e9 85 00 00 00	 jmp	 $LN6@UserConnec
$LN5@UserConnec:

; 360  : 	}
; 361  : 
; 362  : 	if ( OBJMAX_RANGE(aIndex) == FALSE )

  00ceb	83 7d 08 00	 cmp	 DWORD PTR _aIndex$[ebp], 0
  00cef	7d 09		 jge	 SHORT $LN8@UserConnec
  00cf1	c7 45 b4 00 00
	00 00		 mov	 DWORD PTR tv69[ebp], 0
  00cf8	eb 0f		 jmp	 SHORT $LN9@UserConnec
$LN8@UserConnec:
  00cfa	33 c0		 xor	 eax, eax
  00cfc	81 7d 08 97 3a
	00 00		 cmp	 DWORD PTR _aIndex$[ebp], 14999 ; 00003a97H
  00d03	0f 9e c0	 setle	 al
  00d06	89 45 b4	 mov	 DWORD PTR tv69[ebp], eax
$LN9@UserConnec:
  00d09	83 7d b4 00	 cmp	 DWORD PTR tv69[ebp], 0
  00d0d	75 1e		 jne	 SHORT $LN4@UserConnec

; 363  : 	{
; 364  : 		LogAdd("error : %s %d", __FILE__, __LINE__ );

  00d0f	a1 00 00 00 00	 mov	 eax, DWORD PTR ?__LINE__Var@?1??UserConnect@PremiumSystemEx@@QAEXH@Z@4JA
  00d14	83 c0 08	 add	 eax, 8
  00d17	50		 push	 eax
  00d18	68 00 00 00 00	 push	 OFFSET ??_C@_0EH@LMMDDEHM@d?3?2projects?2exteam6?43?2source?2gam@
  00d1d	68 00 00 00 00	 push	 OFFSET ??_C@_0O@CKAEPJAF@error?5?3?5?$CFs?5?$CFd?$AA@
  00d22	ff 15 00 00 00
	00		 call	 DWORD PTR ?LogAdd@@3P6AXPADZZA ; LogAdd
  00d28	83 c4 0c	 add	 esp, 12			; 0000000cH

; 365  : 		return;

  00d2b	eb 43		 jmp	 SHORT $LN6@UserConnec
$LN4@UserConnec:

; 366  : 	}
; 367  : 
; 368  : 	LPOBJ lpUser = &gObj[aIndex];

  00d2d	8b 45 08	 mov	 eax, DWORD PTR _aIndex$[ebp]
  00d30	69 c0 38 2b 00
	00		 imul	 eax, 11064		; 00002b38H
  00d36	03 05 00 00 00
	00		 add	 eax, DWORD PTR ?gObj@@3PAUOBJECTSTRUCT@@A ; gObj
  00d3c	89 45 f8	 mov	 DWORD PTR _lpUser$[ebp], eax

; 369  : 
; 370  : 	if(lpUser->Connected < PLAYER_PLAYING)

  00d3f	8b 45 f8	 mov	 eax, DWORD PTR _lpUser$[ebp]
  00d42	83 78 04 03	 cmp	 DWORD PTR [eax+4], 3
  00d46	7d 02		 jge	 SHORT $LN3@UserConnec

; 371  : 	{
; 372  : 		return;

  00d48	eb 26		 jmp	 SHORT $LN6@UserConnec
$LN3@UserConnec:

; 373  : 	}
; 374  : 
; 375  : 	if(lpUser->PremiumTimeType <= 0 || lpUser->PremiumTime <= 0)

  00d4a	8b 45 f8	 mov	 eax, DWORD PTR _lpUser$[ebp]
  00d4d	83 b8 bc 22 00
	00 00		 cmp	 DWORD PTR [eax+8892], 0
  00d54	7e 0c		 jle	 SHORT $LN1@UserConnec
  00d56	8b 45 f8	 mov	 eax, DWORD PTR _lpUser$[ebp]
  00d59	83 b8 b8 22 00
	00 00		 cmp	 DWORD PTR [eax+8888], 0
  00d60	7f 02		 jg	 SHORT $LN2@UserConnec
$LN1@UserConnec:

; 376  : 	{
; 377  : 		return;

  00d62	eb 0c		 jmp	 SHORT $LN6@UserConnec
$LN2@UserConnec:

; 378  : 	}
; 379  : 
; 380  : 	/*if(lpUser->PremiumTimeType == eVip1)
; 381  : 	{
; 382  : 		g_BuffManagerEx.AddExBuffData(aIndex, AT_VIP_SILVER, lpUser->PremiumTime);
; 383  : 	}
; 384  : 	else if(lpUser->PremiumTimeType == eVip2)
; 385  : 	{
; 386  : 		g_BuffManagerEx.AddExBuffData(aIndex, AT_VIP_GOLD, lpUser->PremiumTime);
; 387  : 	}
; 388  : 	else if(lpUser->PremiumTimeType == eVip3)
; 389  : 	{
; 390  : 		g_BuffManagerEx.AddExBuffData(aIndex, AT_VIP_PLATINUM, lpUser->PremiumTime);
; 391  : 	}*/
; 392  : 
; 393  : 	this->InfoMessage(aIndex);

  00d64	8b 45 08	 mov	 eax, DWORD PTR _aIndex$[ebp]
  00d67	50		 push	 eax
  00d68	8b 4d fc	 mov	 ecx, DWORD PTR _this$[ebp]
  00d6b	e8 00 00 00 00	 call	 ?InfoMessage@PremiumSystemEx@@QAEXH@Z ; PremiumSystemEx::InfoMessage
$LN6@UserConnec:

; 394  : }

  00d70	5f		 pop	 edi
  00d71	5e		 pop	 esi
  00d72	5b		 pop	 ebx
  00d73	8b e5		 mov	 esp, ebp
  00d75	5d		 pop	 ebp
  00d76	c2 04 00	 ret	 4
?UserConnect@PremiumSystemEx@@QAEXH@Z ENDP		; PremiumSystemEx::UserConnect
_TEXT	ENDS
PUBLIC	?__LINE__Var@?1??PremiumTime@PremiumSystemEx@@QAEXH@Z@4JA ; `PremiumSystemEx::PremiumTime'::`2'::__LINE__Var
PUBLIC	?PremiumTime@PremiumSystemEx@@QAEXH@Z		; PremiumSystemEx::PremiumTime
EXTRN	?MessageChat@@YAXHPADZZ:PROC			; MessageChat
EXTRN	?GetText@CExText@@QAEPADH@Z:PROC		; CExText::GetText
EXTRN	?g_ExText@@3VCExText@@A:BYTE			; g_ExText
EXTRN	?ExUserDataSend@@YAXH@Z:PROC			; ExUserDataSend
;	COMDAT ?__LINE__Var@?1??PremiumTime@PremiumSystemEx@@QAEXH@Z@4JA
_DATA	SEGMENT
?__LINE__Var@?1??PremiumTime@PremiumSystemEx@@QAEXH@Z@4JA DD 018eH ; `PremiumSystemEx::PremiumTime'::`2'::__LINE__Var
; Function compile flags: /Odtp /ZI
_DATA	ENDS
_TEXT	SEGMENT
tv69 = -76						; size = 4
_lpUser$ = -8						; size = 4
_this$ = -4						; size = 4
_aIndex$ = 8						; size = 4
?PremiumTime@PremiumSystemEx@@QAEXH@Z PROC		; PremiumSystemEx::PremiumTime
; _this$ = ecx

; 398  : {

  00d80	55		 push	 ebp
  00d81	8b ec		 mov	 ebp, esp
  00d83	83 ec 4c	 sub	 esp, 76			; 0000004cH
  00d86	53		 push	 ebx
  00d87	56		 push	 esi
  00d88	57		 push	 edi
  00d89	89 4d fc	 mov	 DWORD PTR _this$[ebp], ecx

; 399  : 	if(!this->ActiveSystem)

  00d8c	8b 45 fc	 mov	 eax, DWORD PTR _this$[ebp]
  00d8f	0f b6 08	 movzx	 ecx, BYTE PTR [eax]
  00d92	85 c9		 test	 ecx, ecx
  00d94	75 05		 jne	 SHORT $LN6@PremiumTim

; 400  : 	{
; 401  : 		return;

  00d96	e9 df 00 00 00	 jmp	 $LN7@PremiumTim
$LN6@PremiumTim:

; 402  : 	}
; 403  : 
; 404  : 	if ( OBJMAX_RANGE(aIndex) == FALSE )

  00d9b	83 7d 08 00	 cmp	 DWORD PTR _aIndex$[ebp], 0
  00d9f	7d 09		 jge	 SHORT $LN9@PremiumTim
  00da1	c7 45 b4 00 00
	00 00		 mov	 DWORD PTR tv69[ebp], 0
  00da8	eb 0f		 jmp	 SHORT $LN10@PremiumTim
$LN9@PremiumTim:
  00daa	33 c0		 xor	 eax, eax
  00dac	81 7d 08 97 3a
	00 00		 cmp	 DWORD PTR _aIndex$[ebp], 14999 ; 00003a97H
  00db3	0f 9e c0	 setle	 al
  00db6	89 45 b4	 mov	 DWORD PTR tv69[ebp], eax
$LN10@PremiumTim:
  00db9	83 7d b4 00	 cmp	 DWORD PTR tv69[ebp], 0
  00dbd	75 21		 jne	 SHORT $LN5@PremiumTim

; 405  : 	{
; 406  : 		LogAdd("error : %s %d", __FILE__, __LINE__ );

  00dbf	a1 00 00 00 00	 mov	 eax, DWORD PTR ?__LINE__Var@?1??PremiumTime@PremiumSystemEx@@QAEXH@Z@4JA
  00dc4	83 c0 08	 add	 eax, 8
  00dc7	50		 push	 eax
  00dc8	68 00 00 00 00	 push	 OFFSET ??_C@_0EH@LMMDDEHM@d?3?2projects?2exteam6?43?2source?2gam@
  00dcd	68 00 00 00 00	 push	 OFFSET ??_C@_0O@CKAEPJAF@error?5?3?5?$CFs?5?$CFd?$AA@
  00dd2	ff 15 00 00 00
	00		 call	 DWORD PTR ?LogAdd@@3P6AXPADZZA ; LogAdd
  00dd8	83 c4 0c	 add	 esp, 12			; 0000000cH

; 407  : 		return;

  00ddb	e9 9a 00 00 00	 jmp	 $LN7@PremiumTim
$LN5@PremiumTim:

; 408  : 	}
; 409  : 
; 410  : 	LPOBJ lpUser = &gObj[aIndex];

  00de0	8b 45 08	 mov	 eax, DWORD PTR _aIndex$[ebp]
  00de3	69 c0 38 2b 00
	00		 imul	 eax, 11064		; 00002b38H
  00de9	03 05 00 00 00
	00		 add	 eax, DWORD PTR ?gObj@@3PAUOBJECTSTRUCT@@A ; gObj
  00def	89 45 f8	 mov	 DWORD PTR _lpUser$[ebp], eax

; 411  : 
; 412  : 	if(lpUser->Connected < PLAYER_PLAYING)

  00df2	8b 45 f8	 mov	 eax, DWORD PTR _lpUser$[ebp]
  00df5	83 78 04 03	 cmp	 DWORD PTR [eax+4], 3
  00df9	7d 02		 jge	 SHORT $LN4@PremiumTim

; 413  : 	{
; 414  : 		return;

  00dfb	eb 7d		 jmp	 SHORT $LN7@PremiumTim
$LN4@PremiumTim:

; 415  : 	}
; 416  : 
; 417  : 	if(lpUser->PremiumTimeType <= 0 || lpUser->PremiumTime <= 0)

  00dfd	8b 45 f8	 mov	 eax, DWORD PTR _lpUser$[ebp]
  00e00	83 b8 bc 22 00
	00 00		 cmp	 DWORD PTR [eax+8892], 0
  00e07	7e 0c		 jle	 SHORT $LN2@PremiumTim
  00e09	8b 45 f8	 mov	 eax, DWORD PTR _lpUser$[ebp]
  00e0c	83 b8 b8 22 00
	00 00		 cmp	 DWORD PTR [eax+8888], 0
  00e13	7f 02		 jg	 SHORT $LN3@PremiumTim
$LN2@PremiumTim:

; 418  : 	{
; 419  : 		return;

  00e15	eb 63		 jmp	 SHORT $LN7@PremiumTim
$LN3@PremiumTim:

; 420  : 	}
; 421  : 
; 422  : 	lpUser->PremiumTime--;

  00e17	8b 45 f8	 mov	 eax, DWORD PTR _lpUser$[ebp]
  00e1a	8b 88 b8 22 00
	00		 mov	 ecx, DWORD PTR [eax+8888]
  00e20	83 e9 01	 sub	 ecx, 1
  00e23	8b 55 f8	 mov	 edx, DWORD PTR _lpUser$[ebp]
  00e26	89 8a b8 22 00
	00		 mov	 DWORD PTR [edx+8888], ecx

; 423  : 
; 424  : 	if(lpUser->PremiumTime <= 0)

  00e2c	8b 45 f8	 mov	 eax, DWORD PTR _lpUser$[ebp]
  00e2f	83 b8 b8 22 00
	00 00		 cmp	 DWORD PTR [eax+8888], 0
  00e36	7f 42		 jg	 SHORT $LN7@PremiumTim

; 425  : 	{
; 426  : 		lpUser->PremiumTimeType = 0;

  00e38	8b 45 f8	 mov	 eax, DWORD PTR _lpUser$[ebp]
  00e3b	c7 80 bc 22 00
	00 00 00 00 00	 mov	 DWORD PTR [eax+8892], 0

; 427  : 		lpUser->PremiumTime = 0;

  00e45	8b 45 f8	 mov	 eax, DWORD PTR _lpUser$[ebp]
  00e48	c7 80 b8 22 00
	00 00 00 00 00	 mov	 DWORD PTR [eax+8888], 0

; 428  : 		ExUserDataSend(aIndex);

  00e52	8b 45 08	 mov	 eax, DWORD PTR _aIndex$[ebp]
  00e55	50		 push	 eax
  00e56	e8 00 00 00 00	 call	 ?ExUserDataSend@@YAXH@Z	; ExUserDataSend
  00e5b	83 c4 04	 add	 esp, 4

; 429  : 
; 430  : 		MessageChat(aIndex, g_ExText.GetText(252));

  00e5e	68 fc 00 00 00	 push	 252			; 000000fcH
  00e63	b9 00 00 00 00	 mov	 ecx, OFFSET ?g_ExText@@3VCExText@@A ; g_ExText
  00e68	e8 00 00 00 00	 call	 ?GetText@CExText@@QAEPADH@Z ; CExText::GetText
  00e6d	50		 push	 eax
  00e6e	8b 45 08	 mov	 eax, DWORD PTR _aIndex$[ebp]
  00e71	50		 push	 eax
  00e72	e8 00 00 00 00	 call	 ?MessageChat@@YAXHPADZZ	; MessageChat
  00e77	83 c4 08	 add	 esp, 8
$LN7@PremiumTim:

; 431  : 	}
; 432  : 
; 433  : }

  00e7a	5f		 pop	 edi
  00e7b	5e		 pop	 esi
  00e7c	5b		 pop	 ebx
  00e7d	8b e5		 mov	 esp, ebp
  00e7f	5d		 pop	 ebp
  00e80	c2 04 00	 ret	 4
?PremiumTime@PremiumSystemEx@@QAEXH@Z ENDP		; PremiumSystemEx::PremiumTime
_TEXT	ENDS
PUBLIC	?UserBuff@PremiumSystemEx@@QAEXH@Z		; PremiumSystemEx::UserBuff
PUBLIC	?__LINE__Var@?1??CG_RecvBuy@PremiumSystemEx@@QAEXHPAUCG_PREMIUM_BUY@@@Z@4JA ; `PremiumSystemEx::CG_RecvBuy'::`2'::__LINE__Var
PUBLIC	?CG_RecvBuy@PremiumSystemEx@@QAEXHPAUCG_PREMIUM_BUY@@@Z ; PremiumSystemEx::CG_RecvBuy
EXTRN	?GDSaveUserInfo@GameShop@@QAEXH@Z:PROC		; GameShop::GDSaveUserInfo
EXTRN	?gGameShop@@3VGameShop@@A:BYTE			; gGameShop
EXTRN	?CheckUser@CExLicense@@QAE_NH@Z:PROC		; CExLicense::CheckUser
;	COMDAT ?__LINE__Var@?1??CG_RecvBuy@PremiumSystemEx@@QAEXHPAUCG_PREMIUM_BUY@@@Z@4JA
_DATA	SEGMENT
?__LINE__Var@?1??CG_RecvBuy@PremiumSystemEx@@QAEXHPAUCG_PREMIUM_BUY@@@Z@4JA DD 01b5H ; `PremiumSystemEx::CG_RecvBuy'::`2'::__LINE__Var
; Function compile flags: /Odtp /ZI
_DATA	ENDS
_TEXT	SEGMENT
tv69 = -96						; size = 4
_iPriceType$ = -28					; size = 4
_NeedWCoin$ = -24					; size = 4
_iPremiumDay$ = -20					; size = 4
_iPremiumType$ = -16					; size = 4
_NeedCredit$ = -12					; size = 4
_lpUser$ = -8						; size = 4
_this$ = -4						; size = 4
_aIndex$ = 8						; size = 4
_Recv$ = 12						; size = 4
?CG_RecvBuy@PremiumSystemEx@@QAEXHPAUCG_PREMIUM_BUY@@@Z PROC ; PremiumSystemEx::CG_RecvBuy
; _this$ = ecx

; 437  : {

  00e90	55		 push	 ebp
  00e91	8b ec		 mov	 ebp, esp
  00e93	83 ec 60	 sub	 esp, 96			; 00000060H
  00e96	53		 push	 ebx
  00e97	56		 push	 esi
  00e98	57		 push	 edi
  00e99	89 4d fc	 mov	 DWORD PTR _this$[ebp], ecx

; 438  : 	if(!this->ActiveSystem)

  00e9c	8b 45 fc	 mov	 eax, DWORD PTR _this$[ebp]
  00e9f	0f b6 08	 movzx	 ecx, BYTE PTR [eax]
  00ea2	85 c9		 test	 ecx, ecx
  00ea4	75 05		 jne	 SHORT $LN38@CG_RecvBuy

; 439  : 	{
; 440  : 		return;

  00ea6	e9 ba 03 00 00	 jmp	 $LN39@CG_RecvBuy
$LN38@CG_RecvBuy:

; 441  : 	}
; 442  : 
; 443  : 	if ( OBJMAX_RANGE(aIndex) == FALSE )

  00eab	83 7d 08 00	 cmp	 DWORD PTR _aIndex$[ebp], 0
  00eaf	7d 09		 jge	 SHORT $LN41@CG_RecvBuy
  00eb1	c7 45 a0 00 00
	00 00		 mov	 DWORD PTR tv69[ebp], 0
  00eb8	eb 0f		 jmp	 SHORT $LN42@CG_RecvBuy
$LN41@CG_RecvBuy:
  00eba	33 c0		 xor	 eax, eax
  00ebc	81 7d 08 97 3a
	00 00		 cmp	 DWORD PTR _aIndex$[ebp], 14999 ; 00003a97H
  00ec3	0f 9e c0	 setle	 al
  00ec6	89 45 a0	 mov	 DWORD PTR tv69[ebp], eax
$LN42@CG_RecvBuy:
  00ec9	83 7d a0 00	 cmp	 DWORD PTR tv69[ebp], 0
  00ecd	75 21		 jne	 SHORT $LN37@CG_RecvBuy

; 444  : 	{
; 445  : 		LogAdd("error : %s %d", __FILE__, __LINE__ );

  00ecf	a1 00 00 00 00	 mov	 eax, DWORD PTR ?__LINE__Var@?1??CG_RecvBuy@PremiumSystemEx@@QAEXHPAUCG_PREMIUM_BUY@@@Z@4JA
  00ed4	83 c0 08	 add	 eax, 8
  00ed7	50		 push	 eax
  00ed8	68 00 00 00 00	 push	 OFFSET ??_C@_0EH@LMMDDEHM@d?3?2projects?2exteam6?43?2source?2gam@
  00edd	68 00 00 00 00	 push	 OFFSET ??_C@_0O@CKAEPJAF@error?5?3?5?$CFs?5?$CFd?$AA@
  00ee2	ff 15 00 00 00
	00		 call	 DWORD PTR ?LogAdd@@3P6AXPADZZA ; LogAdd
  00ee8	83 c4 0c	 add	 esp, 12			; 0000000cH

; 446  : 		return;

  00eeb	e9 75 03 00 00	 jmp	 $LN39@CG_RecvBuy
$LN37@CG_RecvBuy:

; 447  : 	}
; 448  : 
; 449  : 	LPOBJ lpUser = &gObj[aIndex];

  00ef0	8b 45 08	 mov	 eax, DWORD PTR _aIndex$[ebp]
  00ef3	69 c0 38 2b 00
	00		 imul	 eax, 11064		; 00002b38H
  00ef9	03 05 00 00 00
	00		 add	 eax, DWORD PTR ?gObj@@3PAUOBJECTSTRUCT@@A ; gObj
  00eff	89 45 f8	 mov	 DWORD PTR _lpUser$[ebp], eax

; 450  : 
; 451  : 	if(lpUser->Connected < PLAYER_PLAYING)

  00f02	8b 45 f8	 mov	 eax, DWORD PTR _lpUser$[ebp]
  00f05	83 78 04 03	 cmp	 DWORD PTR [eax+4], 3
  00f09	7d 05		 jge	 SHORT $LN36@CG_RecvBuy

; 452  : 	{
; 453  : 		return;

  00f0b	e9 55 03 00 00	 jmp	 $LN39@CG_RecvBuy
$LN36@CG_RecvBuy:

; 454  : 	}
; 455  : 
; 456  : 	int NeedCredit = 0;

  00f10	c7 45 f4 00 00
	00 00		 mov	 DWORD PTR _NeedCredit$[ebp], 0

; 457  : 	int iPremiumType = Recv->PremiumType;

  00f17	8b 45 0c	 mov	 eax, DWORD PTR _Recv$[ebp]
  00f1a	0f b6 48 04	 movzx	 ecx, BYTE PTR [eax+4]
  00f1e	89 4d f0	 mov	 DWORD PTR _iPremiumType$[ebp], ecx

; 458  : 	int iPremiumDay = Recv->PremiumDay;

  00f21	8b 45 0c	 mov	 eax, DWORD PTR _Recv$[ebp]
  00f24	0f b7 48 06	 movzx	 ecx, WORD PTR [eax+6]
  00f28	89 4d ec	 mov	 DWORD PTR _iPremiumDay$[ebp], ecx

; 459  : 
; 460  : 	int NeedWCoin = 0;

  00f2b	c7 45 e8 00 00
	00 00		 mov	 DWORD PTR _NeedWCoin$[ebp], 0

; 461  : 	int iPriceType = 0;

  00f32	c7 45 e4 00 00
	00 00		 mov	 DWORD PTR _iPriceType$[ebp], 0

; 462  : 
; 463  : 	if(iPremiumType < 1 || iPremiumType > 3)

  00f39	83 7d f0 01	 cmp	 DWORD PTR _iPremiumType$[ebp], 1
  00f3d	7c 06		 jl	 SHORT $LN34@CG_RecvBuy
  00f3f	83 7d f0 03	 cmp	 DWORD PTR _iPremiumType$[ebp], 3
  00f43	7e 05		 jle	 SHORT $LN35@CG_RecvBuy
$LN34@CG_RecvBuy:

; 464  : 	{
; 465  : 		return;

  00f45	e9 1b 03 00 00	 jmp	 $LN39@CG_RecvBuy
$LN35@CG_RecvBuy:

; 466  : 	}
; 467  : 
; 468  : 	if(iPremiumDay <= 0 || iPremiumDay > 100)

  00f4a	83 7d ec 00	 cmp	 DWORD PTR _iPremiumDay$[ebp], 0
  00f4e	7e 06		 jle	 SHORT $LN32@CG_RecvBuy
  00f50	83 7d ec 64	 cmp	 DWORD PTR _iPremiumDay$[ebp], 100 ; 00000064H
  00f54	7e 05		 jle	 SHORT $LN33@CG_RecvBuy
$LN32@CG_RecvBuy:

; 469  : 	{
; 470  : 		return;

  00f56	e9 0a 03 00 00	 jmp	 $LN39@CG_RecvBuy
$LN33@CG_RecvBuy:

; 471  : 	}
; 472  : 
; 473  : 	if(iPremiumType == eVip1)

  00f5b	83 7d f0 01	 cmp	 DWORD PTR _iPremiumType$[ebp], 1
  00f5f	75 13		 jne	 SHORT $LN31@CG_RecvBuy

; 474  : 	{
; 475  : 		NeedCredit = this->Buy1CreditDay * Recv->PremiumDay;

  00f61	8b 45 0c	 mov	 eax, DWORD PTR _Recv$[ebp]
  00f64	0f b7 48 06	 movzx	 ecx, WORD PTR [eax+6]
  00f68	8b 55 fc	 mov	 edx, DWORD PTR _this$[ebp]
  00f6b	0f af 4a 18	 imul	 ecx, DWORD PTR [edx+24]
  00f6f	89 4d f4	 mov	 DWORD PTR _NeedCredit$[ebp], ecx
  00f72	eb 2a		 jmp	 SHORT $LN28@CG_RecvBuy
$LN31@CG_RecvBuy:

; 476  : 	}
; 477  : 	else if(iPremiumType == eVip2)

  00f74	83 7d f0 02	 cmp	 DWORD PTR _iPremiumType$[ebp], 2
  00f78	75 13		 jne	 SHORT $LN29@CG_RecvBuy

; 478  : 	{
; 479  : 		NeedCredit = this->Buy2CreditDay * Recv->PremiumDay;

  00f7a	8b 45 0c	 mov	 eax, DWORD PTR _Recv$[ebp]
  00f7d	0f b7 48 06	 movzx	 ecx, WORD PTR [eax+6]
  00f81	8b 55 fc	 mov	 edx, DWORD PTR _this$[ebp]
  00f84	0f af 4a 30	 imul	 ecx, DWORD PTR [edx+48]
  00f88	89 4d f4	 mov	 DWORD PTR _NeedCredit$[ebp], ecx

; 480  : 	}	
; 481  : 	else

  00f8b	eb 11		 jmp	 SHORT $LN28@CG_RecvBuy
$LN29@CG_RecvBuy:

; 482  : 	{
; 483  : 		NeedCredit = this->Buy3CreditDay * Recv->PremiumDay;

  00f8d	8b 45 0c	 mov	 eax, DWORD PTR _Recv$[ebp]
  00f90	0f b7 48 06	 movzx	 ecx, WORD PTR [eax+6]
  00f94	8b 55 fc	 mov	 edx, DWORD PTR _this$[ebp]
  00f97	0f af 4a 48	 imul	 ecx, DWORD PTR [edx+72]
  00f9b	89 4d f4	 mov	 DWORD PTR _NeedCredit$[ebp], ecx
$LN28@CG_RecvBuy:

; 484  : 	}
; 485  : 
; 486  : 	if(g_ExLicense.CheckUser(eExUB::Gredy) || g_ExLicense.CheckUser(eExUB::GredyLocal) || g_ExLicense.CheckUser(eExUB::Gredy2))

  00f9e	6a 20		 push	 32			; 00000020H
  00fa0	b9 00 00 00 00	 mov	 ecx, OFFSET ?g_ExLicense@@3VCExLicense@@A ; g_ExLicense
  00fa5	e8 00 00 00 00	 call	 ?CheckUser@CExLicense@@QAE_NH@Z ; CExLicense::CheckUser
  00faa	0f b6 c0	 movzx	 eax, al
  00fad	85 c0		 test	 eax, eax
  00faf	75 26		 jne	 SHORT $LN26@CG_RecvBuy
  00fb1	6a 21		 push	 33			; 00000021H
  00fb3	b9 00 00 00 00	 mov	 ecx, OFFSET ?g_ExLicense@@3VCExLicense@@A ; g_ExLicense
  00fb8	e8 00 00 00 00	 call	 ?CheckUser@CExLicense@@QAE_NH@Z ; CExLicense::CheckUser
  00fbd	0f b6 c0	 movzx	 eax, al
  00fc0	85 c0		 test	 eax, eax
  00fc2	75 13		 jne	 SHORT $LN26@CG_RecvBuy
  00fc4	6a 22		 push	 34			; 00000022H
  00fc6	b9 00 00 00 00	 mov	 ecx, OFFSET ?g_ExLicense@@3VCExLicense@@A ; g_ExLicense
  00fcb	e8 00 00 00 00	 call	 ?CheckUser@CExLicense@@QAE_NH@Z ; CExLicense::CheckUser
  00fd0	0f b6 c0	 movzx	 eax, al
  00fd3	85 c0		 test	 eax, eax
  00fd5	74 4d		 je	 SHORT $LN22@CG_RecvBuy
$LN26@CG_RecvBuy:

; 487  : 	{
; 488  : 		iPriceType = Recv->PriceType;

  00fd7	8b 45 0c	 mov	 eax, DWORD PTR _Recv$[ebp]
  00fda	0f b6 48 08	 movzx	 ecx, BYTE PTR [eax+8]
  00fde	89 4d e4	 mov	 DWORD PTR _iPriceType$[ebp], ecx

; 489  : 
; 490  : 		if(iPremiumType == eVip1)

  00fe1	83 7d f0 01	 cmp	 DWORD PTR _iPremiumType$[ebp], 1
  00fe5	75 13		 jne	 SHORT $LN25@CG_RecvBuy

; 491  : 		{
; 492  : 			NeedWCoin = this->Buy1WCoinDay * Recv->PremiumDay;

  00fe7	8b 45 0c	 mov	 eax, DWORD PTR _Recv$[ebp]
  00fea	0f b7 48 06	 movzx	 ecx, WORD PTR [eax+6]
  00fee	8b 55 fc	 mov	 edx, DWORD PTR _this$[ebp]
  00ff1	0f af 4a 54	 imul	 ecx, DWORD PTR [edx+84]
  00ff5	89 4d e8	 mov	 DWORD PTR _NeedWCoin$[ebp], ecx
  00ff8	eb 2a		 jmp	 SHORT $LN22@CG_RecvBuy
$LN25@CG_RecvBuy:

; 493  : 		}
; 494  : 		else if(iPremiumType == eVip2)

  00ffa	83 7d f0 02	 cmp	 DWORD PTR _iPremiumType$[ebp], 2
  00ffe	75 13		 jne	 SHORT $LN23@CG_RecvBuy

; 495  : 		{
; 496  : 			NeedWCoin = this->Buy2WCoinDay * Recv->PremiumDay;

  01000	8b 45 0c	 mov	 eax, DWORD PTR _Recv$[ebp]
  01003	0f b7 48 06	 movzx	 ecx, WORD PTR [eax+6]
  01007	8b 55 fc	 mov	 edx, DWORD PTR _this$[ebp]
  0100a	0f af 4a 58	 imul	 ecx, DWORD PTR [edx+88]
  0100e	89 4d e8	 mov	 DWORD PTR _NeedWCoin$[ebp], ecx

; 497  : 		}	
; 498  : 		else

  01011	eb 11		 jmp	 SHORT $LN22@CG_RecvBuy
$LN23@CG_RecvBuy:

; 499  : 		{
; 500  : 			NeedWCoin = this->Buy3WCoinDay * Recv->PremiumDay;

  01013	8b 45 0c	 mov	 eax, DWORD PTR _Recv$[ebp]
  01016	0f b7 48 06	 movzx	 ecx, WORD PTR [eax+6]
  0101a	8b 55 fc	 mov	 edx, DWORD PTR _this$[ebp]
  0101d	0f af 4a 5c	 imul	 ecx, DWORD PTR [edx+92]
  01021	89 4d e8	 mov	 DWORD PTR _NeedWCoin$[ebp], ecx
$LN22@CG_RecvBuy:

; 501  : 		}
; 502  : 	}
; 503  : 
; 504  : 	if(iPriceType == 0)

  01024	83 7d e4 00	 cmp	 DWORD PTR _iPriceType$[ebp], 0
  01028	0f 85 ad 00 00
	00		 jne	 $LN21@CG_RecvBuy

; 505  : 	{
; 506  : 		if(g_ExLicense.CheckUser(eExUB::Artem) || g_ExLicense.CheckUser(eExUB::Artem2))

  0102e	6a 30		 push	 48			; 00000030H
  01030	b9 00 00 00 00	 mov	 ecx, OFFSET ?g_ExLicense@@3VCExLicense@@A ; g_ExLicense
  01035	e8 00 00 00 00	 call	 ?CheckUser@CExLicense@@QAE_NH@Z ; CExLicense::CheckUser
  0103a	0f b6 c0	 movzx	 eax, al
  0103d	85 c0		 test	 eax, eax
  0103f	75 13		 jne	 SHORT $LN19@CG_RecvBuy
  01041	6a 31		 push	 49			; 00000031H
  01043	b9 00 00 00 00	 mov	 ecx, OFFSET ?g_ExLicense@@3VCExLicense@@A ; g_ExLicense
  01048	e8 00 00 00 00	 call	 ?CheckUser@CExLicense@@QAE_NH@Z ; CExLicense::CheckUser
  0104d	0f b6 c0	 movzx	 eax, al
  01050	85 c0		 test	 eax, eax
  01052	74 1a		 je	 SHORT $LN20@CG_RecvBuy
$LN19@CG_RecvBuy:

; 507  : 		{
; 508  : 			if(NeedCredit >  lpUser->GameShop.WCoinC)

  01054	db 45 f4	 fild	 DWORD PTR _NeedCredit$[ebp]
  01057	8b 45 f8	 mov	 eax, DWORD PTR _lpUser$[ebp]
  0105a	dc 98 00 23 00
	00		 fcomp	 QWORD PTR [eax+8960]
  01060	df e0		 fnstsw	 ax
  01062	f6 c4 41	 test	 ah, 65			; 00000041H
  01065	75 05		 jne	 SHORT $LN18@CG_RecvBuy

; 509  : 			{
; 510  : 				return;

  01067	e9 f9 01 00 00	 jmp	 $LN39@CG_RecvBuy
$LN18@CG_RecvBuy:

; 511  : 			}
; 512  : 		}
; 513  : 		else

  0106c	eb 6b		 jmp	 SHORT $LN13@CG_RecvBuy
$LN20@CG_RecvBuy:

; 514  : 		{
; 515  : 			if(NeedCredit > lpUser->ExCred)

  0106e	db 45 f4	 fild	 DWORD PTR _NeedCredit$[ebp]
  01071	8b 45 f8	 mov	 eax, DWORD PTR _lpUser$[ebp]
  01074	d9 80 a8 22 00
	00		 fld	 DWORD PTR [eax+8872]
  0107a	de d9		 fcompp
  0107c	df e0		 fnstsw	 ax
  0107e	f6 c4 05	 test	 ah, 5
  01081	7a 05		 jp	 SHORT $LN16@CG_RecvBuy

; 516  : 			{
; 517  : 				return;

  01083	e9 dd 01 00 00	 jmp	 $LN39@CG_RecvBuy
$LN16@CG_RecvBuy:

; 518  : 			}
; 519  : 
; 520  : 			if(g_ExLicense.CheckUser(eExUB::Gredy) || g_ExLicense.CheckUser(eExUB::GredyLocal) || g_ExLicense.CheckUser(eExUB::Gredy2))

  01088	6a 20		 push	 32			; 00000020H
  0108a	b9 00 00 00 00	 mov	 ecx, OFFSET ?g_ExLicense@@3VCExLicense@@A ; g_ExLicense
  0108f	e8 00 00 00 00	 call	 ?CheckUser@CExLicense@@QAE_NH@Z ; CExLicense::CheckUser
  01094	0f b6 c0	 movzx	 eax, al
  01097	85 c0		 test	 eax, eax
  01099	75 26		 jne	 SHORT $LN14@CG_RecvBuy
  0109b	6a 21		 push	 33			; 00000021H
  0109d	b9 00 00 00 00	 mov	 ecx, OFFSET ?g_ExLicense@@3VCExLicense@@A ; g_ExLicense
  010a2	e8 00 00 00 00	 call	 ?CheckUser@CExLicense@@QAE_NH@Z ; CExLicense::CheckUser
  010a7	0f b6 c0	 movzx	 eax, al
  010aa	85 c0		 test	 eax, eax
  010ac	75 13		 jne	 SHORT $LN14@CG_RecvBuy
  010ae	6a 22		 push	 34			; 00000022H
  010b0	b9 00 00 00 00	 mov	 ecx, OFFSET ?g_ExLicense@@3VCExLicense@@A ; g_ExLicense
  010b5	e8 00 00 00 00	 call	 ?CheckUser@CExLicense@@QAE_NH@Z ; CExLicense::CheckUser
  010ba	0f b6 c0	 movzx	 eax, al
  010bd	85 c0		 test	 eax, eax
  010bf	74 18		 je	 SHORT $LN13@CG_RecvBuy
$LN14@CG_RecvBuy:

; 521  : 			{
; 522  : 				if(NeedWCoin > lpUser->GameShop.WCoinC)

  010c1	db 45 e8	 fild	 DWORD PTR _NeedWCoin$[ebp]
  010c4	8b 45 f8	 mov	 eax, DWORD PTR _lpUser$[ebp]
  010c7	dc 98 00 23 00
	00		 fcomp	 QWORD PTR [eax+8960]
  010cd	df e0		 fnstsw	 ax
  010cf	f6 c4 41	 test	 ah, 65			; 00000041H
  010d2	75 05		 jne	 SHORT $LN13@CG_RecvBuy

; 523  : 				{
; 524  : 					return;

  010d4	e9 8c 01 00 00	 jmp	 $LN39@CG_RecvBuy
$LN13@CG_RecvBuy:

; 525  : 				}
; 526  : 			}
; 527  : 		}

  010d9	eb 1e		 jmp	 SHORT $LN10@CG_RecvBuy
$LN21@CG_RecvBuy:

; 528  : 	}
; 529  : 	else if(iPriceType == 1)

  010db	83 7d e4 01	 cmp	 DWORD PTR _iPriceType$[ebp], 1
  010df	75 18		 jne	 SHORT $LN10@CG_RecvBuy

; 530  : 	{
; 531  : 		if(NeedWCoin > lpUser->GameShop.WCoinC)

  010e1	db 45 e8	 fild	 DWORD PTR _NeedWCoin$[ebp]
  010e4	8b 45 f8	 mov	 eax, DWORD PTR _lpUser$[ebp]
  010e7	dc 98 00 23 00
	00		 fcomp	 QWORD PTR [eax+8960]
  010ed	df e0		 fnstsw	 ax
  010ef	f6 c4 41	 test	 ah, 65			; 00000041H
  010f2	75 05		 jne	 SHORT $LN10@CG_RecvBuy

; 532  : 		{
; 533  : 			return;

  010f4	e9 6c 01 00 00	 jmp	 $LN39@CG_RecvBuy
$LN10@CG_RecvBuy:

; 534  : 		}
; 535  : 	}
; 536  : 
; 537  : 	if(iPremiumType != lpUser->PremiumTimeType)

  010f9	8b 45 f8	 mov	 eax, DWORD PTR _lpUser$[ebp]
  010fc	8b 4d f0	 mov	 ecx, DWORD PTR _iPremiumType$[ebp]
  010ff	3b 88 bc 22 00
	00		 cmp	 ecx, DWORD PTR [eax+8892]
  01105	74 1a		 je	 SHORT $LN9@CG_RecvBuy

; 538  : 	{
; 539  : 		/*if(lpUser->PremiumTimeType == eVip1)
; 540  : 		{
; 541  : 			g_BuffManagerEx.DeleteExBuffData(aIndex, AT_VIP_SILVER);
; 542  : 		}
; 543  : 		else if(lpUser->PremiumTimeType == eVip2)
; 544  : 		{
; 545  : 			g_BuffManagerEx.DeleteExBuffData(aIndex, AT_VIP_GOLD);
; 546  : 		}
; 547  : 		else if(lpUser->PremiumTimeType == eVip3)
; 548  : 		{
; 549  : 			g_BuffManagerEx.DeleteExBuffData(aIndex, AT_VIP_PLATINUM);
; 550  : 		}*/
; 551  : 
; 552  : 		lpUser->PremiumTimeType = 0;

  01107	8b 45 f8	 mov	 eax, DWORD PTR _lpUser$[ebp]
  0110a	c7 80 bc 22 00
	00 00 00 00 00	 mov	 DWORD PTR [eax+8892], 0

; 553  : 		lpUser->PremiumTime = 0;

  01114	8b 45 f8	 mov	 eax, DWORD PTR _lpUser$[ebp]
  01117	c7 80 b8 22 00
	00 00 00 00 00	 mov	 DWORD PTR [eax+8888], 0
$LN9@CG_RecvBuy:

; 554  : 	}
; 555  : 
; 556  : 	if(iPriceType == 0)

  01121	83 7d e4 00	 cmp	 DWORD PTR _iPriceType$[ebp], 0
  01125	0f 85 be 00 00
	00		 jne	 $LN8@CG_RecvBuy

; 557  : 	{
; 558  : 		if(g_ExLicense.CheckUser(eExUB::Artem) || g_ExLicense.CheckUser(eExUB::Artem2))

  0112b	6a 30		 push	 48			; 00000030H
  0112d	b9 00 00 00 00	 mov	 ecx, OFFSET ?g_ExLicense@@3VCExLicense@@A ; g_ExLicense
  01132	e8 00 00 00 00	 call	 ?CheckUser@CExLicense@@QAE_NH@Z ; CExLicense::CheckUser
  01137	0f b6 c0	 movzx	 eax, al
  0113a	85 c0		 test	 eax, eax
  0113c	75 13		 jne	 SHORT $LN6@CG_RecvBuy
  0113e	6a 31		 push	 49			; 00000031H
  01140	b9 00 00 00 00	 mov	 ecx, OFFSET ?g_ExLicense@@3VCExLicense@@A ; g_ExLicense
  01145	e8 00 00 00 00	 call	 ?CheckUser@CExLicense@@QAE_NH@Z ; CExLicense::CheckUser
  0114a	0f b6 c0	 movzx	 eax, al
  0114d	85 c0		 test	 eax, eax
  0114f	74 25		 je	 SHORT $LN7@CG_RecvBuy
$LN6@CG_RecvBuy:

; 559  : 		{
; 560  : 			lpUser->GameShop.WCoinC -= NeedCredit;

  01151	db 45 f4	 fild	 DWORD PTR _NeedCredit$[ebp]
  01154	8b 45 f8	 mov	 eax, DWORD PTR _lpUser$[ebp]
  01157	dc a8 00 23 00
	00		 fsubr	 QWORD PTR [eax+8960]
  0115d	8b 4d f8	 mov	 ecx, DWORD PTR _lpUser$[ebp]
  01160	dd 99 00 23 00
	00		 fstp	 QWORD PTR [ecx+8960]

; 561  : 			gGameShop.GDSaveUserInfo(aIndex);

  01166	8b 45 08	 mov	 eax, DWORD PTR _aIndex$[ebp]
  01169	50		 push	 eax
  0116a	b9 00 00 00 00	 mov	 ecx, OFFSET ?gGameShop@@3VGameShop@@A ; gGameShop
  0116f	e8 00 00 00 00	 call	 ?GDSaveUserInfo@GameShop@@QAEXH@Z ; GameShop::GDSaveUserInfo

; 562  : 		}
; 563  : 		else

  01174	eb 71		 jmp	 SHORT $LN4@CG_RecvBuy
$LN7@CG_RecvBuy:

; 564  : 		{
; 565  : 			lpUser->ExCred -= NeedCredit;

  01176	db 45 f4	 fild	 DWORD PTR _NeedCredit$[ebp]
  01179	8b 45 f8	 mov	 eax, DWORD PTR _lpUser$[ebp]
  0117c	d8 a8 a8 22 00
	00		 fsubr	 DWORD PTR [eax+8872]
  01182	8b 4d f8	 mov	 ecx, DWORD PTR _lpUser$[ebp]
  01185	d9 99 a8 22 00
	00		 fstp	 DWORD PTR [ecx+8872]

; 566  : 
; 567  : 			if(g_ExLicense.CheckUser(eExUB::Gredy) || g_ExLicense.CheckUser(eExUB::GredyLocal) || g_ExLicense.CheckUser(eExUB::Gredy2))

  0118b	6a 20		 push	 32			; 00000020H
  0118d	b9 00 00 00 00	 mov	 ecx, OFFSET ?g_ExLicense@@3VCExLicense@@A ; g_ExLicense
  01192	e8 00 00 00 00	 call	 ?CheckUser@CExLicense@@QAE_NH@Z ; CExLicense::CheckUser
  01197	0f b6 c0	 movzx	 eax, al
  0119a	85 c0		 test	 eax, eax
  0119c	75 26		 jne	 SHORT $LN3@CG_RecvBuy
  0119e	6a 21		 push	 33			; 00000021H
  011a0	b9 00 00 00 00	 mov	 ecx, OFFSET ?g_ExLicense@@3VCExLicense@@A ; g_ExLicense
  011a5	e8 00 00 00 00	 call	 ?CheckUser@CExLicense@@QAE_NH@Z ; CExLicense::CheckUser
  011aa	0f b6 c0	 movzx	 eax, al
  011ad	85 c0		 test	 eax, eax
  011af	75 13		 jne	 SHORT $LN3@CG_RecvBuy
  011b1	6a 22		 push	 34			; 00000022H
  011b3	b9 00 00 00 00	 mov	 ecx, OFFSET ?g_ExLicense@@3VCExLicense@@A ; g_ExLicense
  011b8	e8 00 00 00 00	 call	 ?CheckUser@CExLicense@@QAE_NH@Z ; CExLicense::CheckUser
  011bd	0f b6 c0	 movzx	 eax, al
  011c0	85 c0		 test	 eax, eax
  011c2	74 23		 je	 SHORT $LN4@CG_RecvBuy
$LN3@CG_RecvBuy:

; 568  : 			{
; 569  : 				lpUser->GameShop.WCoinC -= NeedWCoin;

  011c4	db 45 e8	 fild	 DWORD PTR _NeedWCoin$[ebp]
  011c7	8b 45 f8	 mov	 eax, DWORD PTR _lpUser$[ebp]
  011ca	dc a8 00 23 00
	00		 fsubr	 QWORD PTR [eax+8960]
  011d0	8b 4d f8	 mov	 ecx, DWORD PTR _lpUser$[ebp]
  011d3	dd 99 00 23 00
	00		 fstp	 QWORD PTR [ecx+8960]

; 570  : 				gGameShop.GDSaveUserInfo(aIndex);

  011d9	8b 45 08	 mov	 eax, DWORD PTR _aIndex$[ebp]
  011dc	50		 push	 eax
  011dd	b9 00 00 00 00	 mov	 ecx, OFFSET ?gGameShop@@3VGameShop@@A ; gGameShop
  011e2	e8 00 00 00 00	 call	 ?GDSaveUserInfo@GameShop@@QAEXH@Z ; GameShop::GDSaveUserInfo
$LN4@CG_RecvBuy:

; 571  : 			}
; 572  : 		}

  011e7	eb 29		 jmp	 SHORT $LN1@CG_RecvBuy
$LN8@CG_RecvBuy:

; 573  : 	}
; 574  : 	else if(iPriceType == 1)

  011e9	83 7d e4 01	 cmp	 DWORD PTR _iPriceType$[ebp], 1
  011ed	75 23		 jne	 SHORT $LN1@CG_RecvBuy

; 575  : 	{
; 576  : 		lpUser->GameShop.WCoinC -= NeedWCoin;

  011ef	db 45 e8	 fild	 DWORD PTR _NeedWCoin$[ebp]
  011f2	8b 45 f8	 mov	 eax, DWORD PTR _lpUser$[ebp]
  011f5	dc a8 00 23 00
	00		 fsubr	 QWORD PTR [eax+8960]
  011fb	8b 4d f8	 mov	 ecx, DWORD PTR _lpUser$[ebp]
  011fe	dd 99 00 23 00
	00		 fstp	 QWORD PTR [ecx+8960]

; 577  : 		gGameShop.GDSaveUserInfo(aIndex);

  01204	8b 45 08	 mov	 eax, DWORD PTR _aIndex$[ebp]
  01207	50		 push	 eax
  01208	b9 00 00 00 00	 mov	 ecx, OFFSET ?gGameShop@@3VGameShop@@A ; gGameShop
  0120d	e8 00 00 00 00	 call	 ?GDSaveUserInfo@GameShop@@QAEXH@Z ; GameShop::GDSaveUserInfo
$LN1@CG_RecvBuy:

; 578  : 	}
; 579  : 
; 580  : 	lpUser->PremiumTimeType = Recv->PremiumType;

  01212	8b 45 0c	 mov	 eax, DWORD PTR _Recv$[ebp]
  01215	0f b6 48 04	 movzx	 ecx, BYTE PTR [eax+4]
  01219	8b 55 f8	 mov	 edx, DWORD PTR _lpUser$[ebp]
  0121c	89 8a bc 22 00
	00		 mov	 DWORD PTR [edx+8892], ecx

; 581  : 	lpUser->PremiumTime += Recv->PremiumDay * 86400;

  01222	8b 45 0c	 mov	 eax, DWORD PTR _Recv$[ebp]
  01225	0f b7 48 06	 movzx	 ecx, WORD PTR [eax+6]
  01229	69 c9 80 51 01
	00		 imul	 ecx, 86400		; 00015180H
  0122f	8b 55 f8	 mov	 edx, DWORD PTR _lpUser$[ebp]
  01232	03 8a b8 22 00
	00		 add	 ecx, DWORD PTR [edx+8888]
  01238	8b 45 f8	 mov	 eax, DWORD PTR _lpUser$[ebp]
  0123b	89 88 b8 22 00
	00		 mov	 DWORD PTR [eax+8888], ecx

; 582  : 
; 583  : 	/*if(lpUser->PremiumType == eVip1)
; 584  : 	{
; 585  : 		g_BuffManagerEx.AddExBuffData(aIndex, AT_VIP_SILVER, lpUser->PremiumTime);
; 586  : 	}
; 587  : 	else if(lpUser->PremiumType == eVip2)
; 588  : 	{
; 589  : 		g_BuffManagerEx.AddExBuffData(aIndex, AT_VIP_GOLD, lpUser->PremiumTime);
; 590  : 	}
; 591  : 	else if(lpUser->PremiumType == eVip3)
; 592  : 	{
; 593  : 		g_BuffManagerEx.AddExBuffData(aIndex, AT_VIP_PLATINUM, lpUser->PremiumTime);
; 594  : 	}*/
; 595  : 
; 596  : 	this->InfoMessage(aIndex);

  01241	8b 45 08	 mov	 eax, DWORD PTR _aIndex$[ebp]
  01244	50		 push	 eax
  01245	8b 4d fc	 mov	 ecx, DWORD PTR _this$[ebp]
  01248	e8 00 00 00 00	 call	 ?InfoMessage@PremiumSystemEx@@QAEXH@Z ; PremiumSystemEx::InfoMessage

; 597  : 
; 598  : 	ExUserDataSend(aIndex);

  0124d	8b 45 08	 mov	 eax, DWORD PTR _aIndex$[ebp]
  01250	50		 push	 eax
  01251	e8 00 00 00 00	 call	 ?ExUserDataSend@@YAXH@Z	; ExUserDataSend
  01256	83 c4 04	 add	 esp, 4

; 599  : 
; 600  : 	this->UserBuff(aIndex);

  01259	8b 45 08	 mov	 eax, DWORD PTR _aIndex$[ebp]
  0125c	50		 push	 eax
  0125d	8b 4d fc	 mov	 ecx, DWORD PTR _this$[ebp]
  01260	e8 00 00 00 00	 call	 ?UserBuff@PremiumSystemEx@@QAEXH@Z ; PremiumSystemEx::UserBuff
$LN39@CG_RecvBuy:

; 601  : }

  01265	5f		 pop	 edi
  01266	5e		 pop	 esi
  01267	5b		 pop	 ebx
  01268	8b e5		 mov	 esp, ebp
  0126a	5d		 pop	 ebp
  0126b	c2 08 00	 ret	 8
?CG_RecvBuy@PremiumSystemEx@@QAEXHPAUCG_PREMIUM_BUY@@@Z ENDP ; PremiumSystemEx::CG_RecvBuy
_TEXT	ENDS
PUBLIC	?set@PBMSG_HEAD2@@QAEXPAEEEE@Z			; PBMSG_HEAD2::set
PUBLIC	?__LINE__Var@?1??GC_Send@PremiumSystemEx@@QAEXHPAUCG_SEND_OPEND_WIN@@@Z@4JA ; `PremiumSystemEx::GC_Send'::`2'::__LINE__Var
PUBLIC	__$ArrayPad$
PUBLIC	?GC_Send@PremiumSystemEx@@QAEXHPAUCG_SEND_OPEND_WIN@@@Z ; PremiumSystemEx::GC_Send
EXTRN	?DataSend@@YAHHPAEK@Z:PROC			; DataSend
EXTRN	___security_cookie:DWORD
EXTRN	@__security_check_cookie@4:PROC
;	COMDAT ?__LINE__Var@?1??GC_Send@PremiumSystemEx@@QAEXHPAUCG_SEND_OPEND_WIN@@@Z@4JA
_DATA	SEGMENT
?__LINE__Var@?1??GC_Send@PremiumSystemEx@@QAEXHPAUCG_SEND_OPEND_WIN@@@Z@4JA DD 025dH ; `PremiumSystemEx::GC_Send'::`2'::__LINE__Var
; Function compile flags: /Odtp /ZI
_DATA	ENDS
_TEXT	SEGMENT
tv155 = -124						; size = 4
tv153 = -120						; size = 4
tv69 = -116						; size = 4
tv150 = -114						; size = 2
_pSend$ = -48						; size = 36
_lpUser$ = -12						; size = 4
_this$ = -8						; size = 4
__$ArrayPad$ = -4					; size = 4
_aIndex$ = 8						; size = 4
_Recv$ = 12						; size = 4
?GC_Send@PremiumSystemEx@@QAEXHPAUCG_SEND_OPEND_WIN@@@Z PROC ; PremiumSystemEx::GC_Send
; _this$ = ecx

; 605  : {

  01270	55		 push	 ebp
  01271	8b ec		 mov	 ebp, esp
  01273	83 ec 7c	 sub	 esp, 124		; 0000007cH
  01276	a1 00 00 00 00	 mov	 eax, DWORD PTR ___security_cookie
  0127b	33 c5		 xor	 eax, ebp
  0127d	89 45 fc	 mov	 DWORD PTR __$ArrayPad$[ebp], eax
  01280	53		 push	 ebx
  01281	56		 push	 esi
  01282	57		 push	 edi
  01283	89 4d f8	 mov	 DWORD PTR _this$[ebp], ecx

; 606  : 	if(!this->ActiveSystem)

  01286	8b 45 f8	 mov	 eax, DWORD PTR _this$[ebp]
  01289	0f b6 08	 movzx	 ecx, BYTE PTR [eax]
  0128c	85 c9		 test	 ecx, ecx
  0128e	75 05		 jne	 SHORT $LN4@GC_Send

; 607  : 	{
; 608  : 		return;

  01290	e9 14 01 00 00	 jmp	 $LN5@GC_Send
$LN4@GC_Send:

; 609  : 	}
; 610  : 
; 611  : 	if ( OBJMAX_RANGE(aIndex) == FALSE )

  01295	83 7d 08 00	 cmp	 DWORD PTR _aIndex$[ebp], 0
  01299	7d 09		 jge	 SHORT $LN7@GC_Send
  0129b	c7 45 8c 00 00
	00 00		 mov	 DWORD PTR tv69[ebp], 0
  012a2	eb 0f		 jmp	 SHORT $LN8@GC_Send
$LN7@GC_Send:
  012a4	33 c0		 xor	 eax, eax
  012a6	81 7d 08 97 3a
	00 00		 cmp	 DWORD PTR _aIndex$[ebp], 14999 ; 00003a97H
  012ad	0f 9e c0	 setle	 al
  012b0	89 45 8c	 mov	 DWORD PTR tv69[ebp], eax
$LN8@GC_Send:
  012b3	83 7d 8c 00	 cmp	 DWORD PTR tv69[ebp], 0
  012b7	75 21		 jne	 SHORT $LN3@GC_Send

; 612  : 	{
; 613  : 		LogAdd("error : %s %d", __FILE__, __LINE__ );

  012b9	a1 00 00 00 00	 mov	 eax, DWORD PTR ?__LINE__Var@?1??GC_Send@PremiumSystemEx@@QAEXHPAUCG_SEND_OPEND_WIN@@@Z@4JA
  012be	83 c0 08	 add	 eax, 8
  012c1	50		 push	 eax
  012c2	68 00 00 00 00	 push	 OFFSET ??_C@_0EH@LMMDDEHM@d?3?2projects?2exteam6?43?2source?2gam@
  012c7	68 00 00 00 00	 push	 OFFSET ??_C@_0O@CKAEPJAF@error?5?3?5?$CFs?5?$CFd?$AA@
  012cc	ff 15 00 00 00
	00		 call	 DWORD PTR ?LogAdd@@3P6AXPADZZA ; LogAdd
  012d2	83 c4 0c	 add	 esp, 12			; 0000000cH

; 614  : 		return;

  012d5	e9 cf 00 00 00	 jmp	 $LN5@GC_Send
$LN3@GC_Send:

; 615  : 	}
; 616  : 
; 617  : 	LPOBJ lpUser = &gObj[aIndex];

  012da	8b 45 08	 mov	 eax, DWORD PTR _aIndex$[ebp]
  012dd	69 c0 38 2b 00
	00		 imul	 eax, 11064		; 00002b38H
  012e3	03 05 00 00 00
	00		 add	 eax, DWORD PTR ?gObj@@3PAUOBJECTSTRUCT@@A ; gObj
  012e9	89 45 f4	 mov	 DWORD PTR _lpUser$[ebp], eax

; 618  : 
; 619  : 	if(lpUser->Connected < PLAYER_PLAYING)

  012ec	8b 45 f4	 mov	 eax, DWORD PTR _lpUser$[ebp]
  012ef	83 78 04 03	 cmp	 DWORD PTR [eax+4], 3
  012f3	7d 05		 jge	 SHORT $LN2@GC_Send

; 620  : 	{
; 621  : 		return;

  012f5	e9 af 00 00 00	 jmp	 $LN5@GC_Send
$LN2@GC_Send:

; 622  : 	}
; 623  : 
; 624  : 	if(Recv->Result != 1)

  012fa	8b 45 0c	 mov	 eax, DWORD PTR _Recv$[ebp]
  012fd	0f b6 48 04	 movzx	 ecx, BYTE PTR [eax+4]
  01301	83 f9 01	 cmp	 ecx, 1
  01304	74 05		 je	 SHORT $LN1@GC_Send

; 625  : 	{
; 626  : 		return;

  01306	e9 9e 00 00 00	 jmp	 $LN5@GC_Send
$LN1@GC_Send:

; 627  : 	}
; 628  : 
; 629  : 	ExUserDataSend(aIndex);

  0130b	8b 45 08	 mov	 eax, DWORD PTR _aIndex$[ebp]
  0130e	50		 push	 eax
  0130f	e8 00 00 00 00	 call	 ?ExUserDataSend@@YAXH@Z	; ExUserDataSend
  01314	83 c4 04	 add	 esp, 4

; 630  : 
; 631  : 	GC_PREMIUM_SEND pSend;
; 632  : 	pSend.h.set((LPBYTE)&pSend, 0xFB, 0x09, sizeof(pSend));

  01317	6a 24		 push	 36			; 00000024H
  01319	6a 09		 push	 9
  0131b	68 fb 00 00 00	 push	 251			; 000000fbH
  01320	8d 45 d0	 lea	 eax, DWORD PTR _pSend$[ebp]
  01323	50		 push	 eax
  01324	8d 4d d0	 lea	 ecx, DWORD PTR _pSend$[ebp]
  01327	e8 00 00 00 00	 call	 ?set@PBMSG_HEAD2@@QAEXPAEEEE@Z ; PBMSG_HEAD2::set

; 633  : 	pSend.Buy1CreditDay = this->Buy1CreditDay;

  0132c	8b 45 f8	 mov	 eax, DWORD PTR _this$[ebp]
  0132f	8b 48 18	 mov	 ecx, DWORD PTR [eax+24]
  01332	89 4d d4	 mov	 DWORD PTR _pSend$[ebp+4], ecx

; 634  : 	pSend.Buy2CreditDay = this->Buy2CreditDay;

  01335	8b 45 f8	 mov	 eax, DWORD PTR _this$[ebp]
  01338	8b 48 30	 mov	 ecx, DWORD PTR [eax+48]
  0133b	89 4d d8	 mov	 DWORD PTR _pSend$[ebp+8], ecx

; 635  : 	pSend.Buy3CreditDay = this->Buy3CreditDay;

  0133e	8b 45 f8	 mov	 eax, DWORD PTR _this$[ebp]
  01341	8b 48 48	 mov	 ecx, DWORD PTR [eax+72]
  01344	89 4d dc	 mov	 DWORD PTR _pSend$[ebp+12], ecx

; 636  : 	pSend.UserCredit = (WORD)lpUser->ExCred;

  01347	8b 45 f4	 mov	 eax, DWORD PTR _lpUser$[ebp]
  0134a	d9 80 a8 22 00
	00		 fld	 DWORD PTR [eax+8872]
  01350	d9 7d 8e	 fnstcw	 WORD PTR tv150[ebp]
  01353	0f b7 45 8e	 movzx	 eax, WORD PTR tv150[ebp]
  01357	0d 00 0c 00 00	 or	 eax, 3072		; 00000c00H
  0135c	89 45 88	 mov	 DWORD PTR tv153[ebp], eax
  0135f	d9 6d 88	 fldcw	 WORD PTR tv153[ebp]
  01362	db 5d 84	 fistp	 DWORD PTR tv155[ebp]
  01365	d9 6d 8e	 fldcw	 WORD PTR tv150[ebp]
  01368	66 8b 4d 84	 mov	 cx, WORD PTR tv155[ebp]
  0136c	66 89 4d e0	 mov	 WORD PTR _pSend$[ebp+16], cx

; 637  : 	pSend.OfflineModePickUpPremiumRang = this->m_iOfflineModePickUpPremiumRang;

  01370	8b 45 f8	 mov	 eax, DWORD PTR _this$[ebp]
  01373	8b 48 50	 mov	 ecx, DWORD PTR [eax+80]
  01376	89 4d e4	 mov	 DWORD PTR _pSend$[ebp+20], ecx

; 638  : 	pSend.Buy1WCoinDay = this->Buy1WCoinDay;

  01379	8b 45 f8	 mov	 eax, DWORD PTR _this$[ebp]
  0137c	8b 48 54	 mov	 ecx, DWORD PTR [eax+84]
  0137f	89 4d e8	 mov	 DWORD PTR _pSend$[ebp+24], ecx

; 639  : 	pSend.Buy2WCoinDay = this->Buy2WCoinDay;

  01382	8b 45 f8	 mov	 eax, DWORD PTR _this$[ebp]
  01385	8b 48 58	 mov	 ecx, DWORD PTR [eax+88]
  01388	89 4d ec	 mov	 DWORD PTR _pSend$[ebp+28], ecx

; 640  : 	pSend.Buy3WCoinDay = this->Buy3WCoinDay;

  0138b	8b 45 f8	 mov	 eax, DWORD PTR _this$[ebp]
  0138e	8b 48 5c	 mov	 ecx, DWORD PTR [eax+92]
  01391	89 4d f0	 mov	 DWORD PTR _pSend$[ebp+32], ecx

; 641  : 	DataSend(aIndex, (LPBYTE)&pSend, pSend.h.size);

  01394	0f b6 45 d1	 movzx	 eax, BYTE PTR _pSend$[ebp+1]
  01398	50		 push	 eax
  01399	8d 4d d0	 lea	 ecx, DWORD PTR _pSend$[ebp]
  0139c	51		 push	 ecx
  0139d	8b 55 08	 mov	 edx, DWORD PTR _aIndex$[ebp]
  013a0	52		 push	 edx
  013a1	e8 00 00 00 00	 call	 ?DataSend@@YAHHPAEK@Z	; DataSend
  013a6	83 c4 0c	 add	 esp, 12			; 0000000cH
$LN5@GC_Send:

; 642  : }

  013a9	5f		 pop	 edi
  013aa	5e		 pop	 esi
  013ab	5b		 pop	 ebx
  013ac	8b 4d fc	 mov	 ecx, DWORD PTR __$ArrayPad$[ebp]
  013af	33 cd		 xor	 ecx, ebp
  013b1	e8 00 00 00 00	 call	 @__security_check_cookie@4
  013b6	8b e5		 mov	 esp, ebp
  013b8	5d		 pop	 ebp
  013b9	c2 08 00	 ret	 8
?GC_Send@PremiumSystemEx@@QAEXHPAUCG_SEND_OPEND_WIN@@@Z ENDP ; PremiumSystemEx::GC_Send
; Function compile flags: /Odtp /ZI
; File d:\projects\exteam6.3\source\gameserver\include\prodef.h
_TEXT	ENDS
;	COMDAT ?set@PBMSG_HEAD2@@QAEXPAEEEE@Z
_TEXT	SEGMENT
_this$ = -4						; size = 4
_lpBuf$ = 8						; size = 4
_head$ = 12						; size = 1
_sub$ = 16						; size = 1
_size$ = 20						; size = 1
?set@PBMSG_HEAD2@@QAEXPAEEEE@Z PROC			; PBMSG_HEAD2::set, COMDAT
; _this$ = ecx

; 104  : 	{

  00000	55		 push	 ebp
  00001	8b ec		 mov	 ebp, esp
  00003	83 ec 44	 sub	 esp, 68			; 00000044H
  00006	53		 push	 ebx
  00007	56		 push	 esi
  00008	57		 push	 edi
  00009	89 4d fc	 mov	 DWORD PTR _this$[ebp], ecx

; 105  : 		lpBuf[0] = 0xC1;

  0000c	8b 45 08	 mov	 eax, DWORD PTR _lpBuf$[ebp]
  0000f	c6 00 c1	 mov	 BYTE PTR [eax], 193	; 000000c1H

; 106  : 		lpBuf[1] = size;

  00012	8b 45 08	 mov	 eax, DWORD PTR _lpBuf$[ebp]
  00015	8a 4d 14	 mov	 cl, BYTE PTR _size$[ebp]
  00018	88 48 01	 mov	 BYTE PTR [eax+1], cl

; 107  : 		lpBuf[2] = head;

  0001b	8b 45 08	 mov	 eax, DWORD PTR _lpBuf$[ebp]
  0001e	8a 4d 0c	 mov	 cl, BYTE PTR _head$[ebp]
  00021	88 48 02	 mov	 BYTE PTR [eax+2], cl

; 108  : 		lpBuf[3] = sub;

  00024	8b 45 08	 mov	 eax, DWORD PTR _lpBuf$[ebp]
  00027	8a 4d 10	 mov	 cl, BYTE PTR _sub$[ebp]
  0002a	88 48 03	 mov	 BYTE PTR [eax+3], cl

; 109  : 	};

  0002d	5f		 pop	 edi
  0002e	5e		 pop	 esi
  0002f	5b		 pop	 ebx
  00030	8b e5		 mov	 esp, ebp
  00032	5d		 pop	 ebp
  00033	c2 10 00	 ret	 16			; 00000010H
?set@PBMSG_HEAD2@@QAEXPAEEEE@Z ENDP			; PBMSG_HEAD2::set
_TEXT	ENDS
PUBLIC	?__LINE__Var@?1??InfoMessage@PremiumSystemEx@@QAEXH@Z@4JA ; `PremiumSystemEx::InfoMessage'::`2'::__LINE__Var
;	COMDAT ?__LINE__Var@?1??InfoMessage@PremiumSystemEx@@QAEXH@Z@4JA
; File d:\projects\exteam6.3\source\gameserver\gameserver\premiumsystemex.cpp
_DATA	SEGMENT
?__LINE__Var@?1??InfoMessage@PremiumSystemEx@@QAEXH@Z@4JA DD 0286H ; `PremiumSystemEx::InfoMessage'::`2'::__LINE__Var
; Function compile flags: /Odtp /ZI
_DATA	ENDS
_TEXT	SEGMENT
tv67 = -76						; size = 4
_lpUser$ = -8						; size = 4
_this$ = -4						; size = 4
_aIndex$ = 8						; size = 4
?InfoMessage@PremiumSystemEx@@QAEXH@Z PROC		; PremiumSystemEx::InfoMessage
; _this$ = ecx

; 646  : {

  013c0	55		 push	 ebp
  013c1	8b ec		 mov	 ebp, esp
  013c3	83 ec 4c	 sub	 esp, 76			; 0000004cH
  013c6	53		 push	 ebx
  013c7	56		 push	 esi
  013c8	57		 push	 edi
  013c9	89 4d fc	 mov	 DWORD PTR _this$[ebp], ecx

; 647  : 	if ( OBJMAX_RANGE(aIndex) == FALSE )

  013cc	83 7d 08 00	 cmp	 DWORD PTR _aIndex$[ebp], 0
  013d0	7d 09		 jge	 SHORT $LN12@InfoMessag
  013d2	c7 45 b4 00 00
	00 00		 mov	 DWORD PTR tv67[ebp], 0
  013d9	eb 0f		 jmp	 SHORT $LN13@InfoMessag
$LN12@InfoMessag:
  013db	33 c0		 xor	 eax, eax
  013dd	81 7d 08 97 3a
	00 00		 cmp	 DWORD PTR _aIndex$[ebp], 14999 ; 00003a97H
  013e4	0f 9e c0	 setle	 al
  013e7	89 45 b4	 mov	 DWORD PTR tv67[ebp], eax
$LN13@InfoMessag:
  013ea	83 7d b4 00	 cmp	 DWORD PTR tv67[ebp], 0
  013ee	75 21		 jne	 SHORT $LN9@InfoMessag

; 648  : 	{
; 649  : 		LogAdd("error : %s %d", __FILE__, __LINE__ );

  013f0	a1 00 00 00 00	 mov	 eax, DWORD PTR ?__LINE__Var@?1??InfoMessage@PremiumSystemEx@@QAEXH@Z@4JA
  013f5	83 c0 03	 add	 eax, 3
  013f8	50		 push	 eax
  013f9	68 00 00 00 00	 push	 OFFSET ??_C@_0EH@LMMDDEHM@d?3?2projects?2exteam6?43?2source?2gam@
  013fe	68 00 00 00 00	 push	 OFFSET ??_C@_0O@CKAEPJAF@error?5?3?5?$CFs?5?$CFd?$AA@
  01403	ff 15 00 00 00
	00		 call	 DWORD PTR ?LogAdd@@3P6AXPADZZA ; LogAdd
  01409	83 c4 0c	 add	 esp, 12			; 0000000cH

; 650  : 		return;

  0140c	e9 be 02 00 00	 jmp	 $LN10@InfoMessag
$LN9@InfoMessag:

; 651  : 	}
; 652  : 
; 653  : 	LPOBJ lpUser = &gObj[aIndex];

  01411	8b 45 08	 mov	 eax, DWORD PTR _aIndex$[ebp]
  01414	69 c0 38 2b 00
	00		 imul	 eax, 11064		; 00002b38H
  0141a	03 05 00 00 00
	00		 add	 eax, DWORD PTR ?gObj@@3PAUOBJECTSTRUCT@@A ; gObj
  01420	89 45 f8	 mov	 DWORD PTR _lpUser$[ebp], eax

; 654  : 
; 655  : 	if(lpUser->Connected < PLAYER_PLAYING)

  01423	8b 45 f8	 mov	 eax, DWORD PTR _lpUser$[ebp]
  01426	83 78 04 03	 cmp	 DWORD PTR [eax+4], 3
  0142a	7d 05		 jge	 SHORT $LN8@InfoMessag

; 656  : 	{
; 657  : 		return;

  0142c	e9 9e 02 00 00	 jmp	 $LN10@InfoMessag
$LN8@InfoMessag:

; 658  : 	}
; 659  : 
; 660  : 	if(lpUser->PremiumTimeType <= 0 || lpUser->PremiumTime <= 0)

  01431	8b 45 f8	 mov	 eax, DWORD PTR _lpUser$[ebp]
  01434	83 b8 bc 22 00
	00 00		 cmp	 DWORD PTR [eax+8892], 0
  0143b	7e 0c		 jle	 SHORT $LN6@InfoMessag
  0143d	8b 45 f8	 mov	 eax, DWORD PTR _lpUser$[ebp]
  01440	83 b8 b8 22 00
	00 00		 cmp	 DWORD PTR [eax+8888], 0
  01447	7f 05		 jg	 SHORT $LN7@InfoMessag
$LN6@InfoMessag:

; 661  : 	{
; 662  : 		return;

  01449	e9 81 02 00 00	 jmp	 $LN10@InfoMessag
$LN7@InfoMessag:

; 663  : 	}
; 664  : 
; 665  : 	if(lpUser->PremiumTimeType == eVip1)

  0144e	8b 45 f8	 mov	 eax, DWORD PTR _lpUser$[ebp]
  01451	83 b8 bc 22 00
	00 01		 cmp	 DWORD PTR [eax+8892], 1
  01458	0f 85 b4 00 00
	00		 jne	 $LN5@InfoMessag

; 666  : 	{
; 667  : 		MessageChat(aIndex, g_ExText.GetText(246), Plus1ExpProcent);

  0145e	8b 45 fc	 mov	 eax, DWORD PTR _this$[ebp]
  01461	8b 48 04	 mov	 ecx, DWORD PTR [eax+4]
  01464	51		 push	 ecx
  01465	68 f6 00 00 00	 push	 246			; 000000f6H
  0146a	b9 00 00 00 00	 mov	 ecx, OFFSET ?g_ExText@@3VCExText@@A ; g_ExText
  0146f	e8 00 00 00 00	 call	 ?GetText@CExText@@QAEPADH@Z ; CExText::GetText
  01474	50		 push	 eax
  01475	8b 55 08	 mov	 edx, DWORD PTR _aIndex$[ebp]
  01478	52		 push	 edx
  01479	e8 00 00 00 00	 call	 ?MessageChat@@YAXHPADZZ	; MessageChat
  0147e	83 c4 0c	 add	 esp, 12			; 0000000cH

; 668  : 		MessageChat(aIndex, g_ExText.GetText(247), Plus1DropZenProcent);

  01481	8b 45 fc	 mov	 eax, DWORD PTR _this$[ebp]
  01484	8b 48 08	 mov	 ecx, DWORD PTR [eax+8]
  01487	51		 push	 ecx
  01488	68 f7 00 00 00	 push	 247			; 000000f7H
  0148d	b9 00 00 00 00	 mov	 ecx, OFFSET ?g_ExText@@3VCExText@@A ; g_ExText
  01492	e8 00 00 00 00	 call	 ?GetText@CExText@@QAEPADH@Z ; CExText::GetText
  01497	50		 push	 eax
  01498	8b 55 08	 mov	 edx, DWORD PTR _aIndex$[ebp]
  0149b	52		 push	 edx
  0149c	e8 00 00 00 00	 call	 ?MessageChat@@YAXHPADZZ	; MessageChat
  014a1	83 c4 0c	 add	 esp, 12			; 0000000cH

; 669  : 		MessageChat(aIndex, g_ExText.GetText(248), Plus1DamageProcent);

  014a4	8b 45 fc	 mov	 eax, DWORD PTR _this$[ebp]
  014a7	8b 48 0c	 mov	 ecx, DWORD PTR [eax+12]
  014aa	51		 push	 ecx
  014ab	68 f8 00 00 00	 push	 248			; 000000f8H
  014b0	b9 00 00 00 00	 mov	 ecx, OFFSET ?g_ExText@@3VCExText@@A ; g_ExText
  014b5	e8 00 00 00 00	 call	 ?GetText@CExText@@QAEPADH@Z ; CExText::GetText
  014ba	50		 push	 eax
  014bb	8b 55 08	 mov	 edx, DWORD PTR _aIndex$[ebp]
  014be	52		 push	 edx
  014bf	e8 00 00 00 00	 call	 ?MessageChat@@YAXHPADZZ	; MessageChat
  014c4	83 c4 0c	 add	 esp, 12			; 0000000cH

; 670  : 		MessageChat(aIndex, g_ExText.GetText(249), Plus1WizardDamageProcent);

  014c7	8b 45 fc	 mov	 eax, DWORD PTR _this$[ebp]
  014ca	8b 48 14	 mov	 ecx, DWORD PTR [eax+20]
  014cd	51		 push	 ecx
  014ce	68 f9 00 00 00	 push	 249			; 000000f9H
  014d3	b9 00 00 00 00	 mov	 ecx, OFFSET ?g_ExText@@3VCExText@@A ; g_ExText
  014d8	e8 00 00 00 00	 call	 ?GetText@CExText@@QAEPADH@Z ; CExText::GetText
  014dd	50		 push	 eax
  014de	8b 55 08	 mov	 edx, DWORD PTR _aIndex$[ebp]
  014e1	52		 push	 edx
  014e2	e8 00 00 00 00	 call	 ?MessageChat@@YAXHPADZZ	; MessageChat
  014e7	83 c4 0c	 add	 esp, 12			; 0000000cH

; 671  : 		MessageChat(aIndex, g_ExText.GetText(250), Plus1DefenceProcent);

  014ea	8b 45 fc	 mov	 eax, DWORD PTR _this$[ebp]
  014ed	8b 48 10	 mov	 ecx, DWORD PTR [eax+16]
  014f0	51		 push	 ecx
  014f1	68 fa 00 00 00	 push	 250			; 000000faH
  014f6	b9 00 00 00 00	 mov	 ecx, OFFSET ?g_ExText@@3VCExText@@A ; g_ExText
  014fb	e8 00 00 00 00	 call	 ?GetText@CExText@@QAEPADH@Z ; CExText::GetText
  01500	50		 push	 eax
  01501	8b 55 08	 mov	 edx, DWORD PTR _aIndex$[ebp]
  01504	52		 push	 edx
  01505	e8 00 00 00 00	 call	 ?MessageChat@@YAXHPADZZ	; MessageChat
  0150a	83 c4 0c	 add	 esp, 12			; 0000000cH
  0150d	e9 83 01 00 00	 jmp	 $LN4@InfoMessag
$LN5@InfoMessag:

; 672  : 	}
; 673  : 	else if(lpUser->PremiumTimeType == eVip2)

  01512	8b 45 f8	 mov	 eax, DWORD PTR _lpUser$[ebp]
  01515	83 b8 bc 22 00
	00 02		 cmp	 DWORD PTR [eax+8892], 2
  0151c	0f 85 b4 00 00
	00		 jne	 $LN3@InfoMessag

; 674  : 	{
; 675  : 		MessageChat(aIndex, g_ExText.GetText(246), Plus2ExpProcent);

  01522	8b 45 fc	 mov	 eax, DWORD PTR _this$[ebp]
  01525	8b 48 1c	 mov	 ecx, DWORD PTR [eax+28]
  01528	51		 push	 ecx
  01529	68 f6 00 00 00	 push	 246			; 000000f6H
  0152e	b9 00 00 00 00	 mov	 ecx, OFFSET ?g_ExText@@3VCExText@@A ; g_ExText
  01533	e8 00 00 00 00	 call	 ?GetText@CExText@@QAEPADH@Z ; CExText::GetText
  01538	50		 push	 eax
  01539	8b 55 08	 mov	 edx, DWORD PTR _aIndex$[ebp]
  0153c	52		 push	 edx
  0153d	e8 00 00 00 00	 call	 ?MessageChat@@YAXHPADZZ	; MessageChat
  01542	83 c4 0c	 add	 esp, 12			; 0000000cH

; 676  : 		MessageChat(aIndex, g_ExText.GetText(247), Plus2DropZenProcent);

  01545	8b 45 fc	 mov	 eax, DWORD PTR _this$[ebp]
  01548	8b 48 20	 mov	 ecx, DWORD PTR [eax+32]
  0154b	51		 push	 ecx
  0154c	68 f7 00 00 00	 push	 247			; 000000f7H
  01551	b9 00 00 00 00	 mov	 ecx, OFFSET ?g_ExText@@3VCExText@@A ; g_ExText
  01556	e8 00 00 00 00	 call	 ?GetText@CExText@@QAEPADH@Z ; CExText::GetText
  0155b	50		 push	 eax
  0155c	8b 55 08	 mov	 edx, DWORD PTR _aIndex$[ebp]
  0155f	52		 push	 edx
  01560	e8 00 00 00 00	 call	 ?MessageChat@@YAXHPADZZ	; MessageChat
  01565	83 c4 0c	 add	 esp, 12			; 0000000cH

; 677  : 		MessageChat(aIndex, g_ExText.GetText(248), Plus2DamageProcent);

  01568	8b 45 fc	 mov	 eax, DWORD PTR _this$[ebp]
  0156b	8b 48 24	 mov	 ecx, DWORD PTR [eax+36]
  0156e	51		 push	 ecx
  0156f	68 f8 00 00 00	 push	 248			; 000000f8H
  01574	b9 00 00 00 00	 mov	 ecx, OFFSET ?g_ExText@@3VCExText@@A ; g_ExText
  01579	e8 00 00 00 00	 call	 ?GetText@CExText@@QAEPADH@Z ; CExText::GetText
  0157e	50		 push	 eax
  0157f	8b 55 08	 mov	 edx, DWORD PTR _aIndex$[ebp]
  01582	52		 push	 edx
  01583	e8 00 00 00 00	 call	 ?MessageChat@@YAXHPADZZ	; MessageChat
  01588	83 c4 0c	 add	 esp, 12			; 0000000cH

; 678  : 		MessageChat(aIndex, g_ExText.GetText(249), Plus2WizardDamageProcent);

  0158b	8b 45 fc	 mov	 eax, DWORD PTR _this$[ebp]
  0158e	8b 48 2c	 mov	 ecx, DWORD PTR [eax+44]
  01591	51		 push	 ecx
  01592	68 f9 00 00 00	 push	 249			; 000000f9H
  01597	b9 00 00 00 00	 mov	 ecx, OFFSET ?g_ExText@@3VCExText@@A ; g_ExText
  0159c	e8 00 00 00 00	 call	 ?GetText@CExText@@QAEPADH@Z ; CExText::GetText
  015a1	50		 push	 eax
  015a2	8b 55 08	 mov	 edx, DWORD PTR _aIndex$[ebp]
  015a5	52		 push	 edx
  015a6	e8 00 00 00 00	 call	 ?MessageChat@@YAXHPADZZ	; MessageChat
  015ab	83 c4 0c	 add	 esp, 12			; 0000000cH

; 679  : 		MessageChat(aIndex, g_ExText.GetText(250), Plus2DefenceProcent);

  015ae	8b 45 fc	 mov	 eax, DWORD PTR _this$[ebp]
  015b1	8b 48 28	 mov	 ecx, DWORD PTR [eax+40]
  015b4	51		 push	 ecx
  015b5	68 fa 00 00 00	 push	 250			; 000000faH
  015ba	b9 00 00 00 00	 mov	 ecx, OFFSET ?g_ExText@@3VCExText@@A ; g_ExText
  015bf	e8 00 00 00 00	 call	 ?GetText@CExText@@QAEPADH@Z ; CExText::GetText
  015c4	50		 push	 eax
  015c5	8b 55 08	 mov	 edx, DWORD PTR _aIndex$[ebp]
  015c8	52		 push	 edx
  015c9	e8 00 00 00 00	 call	 ?MessageChat@@YAXHPADZZ	; MessageChat
  015ce	83 c4 0c	 add	 esp, 12			; 0000000cH
  015d1	e9 bf 00 00 00	 jmp	 $LN4@InfoMessag
$LN3@InfoMessag:

; 680  : 	}
; 681  : 	else if(lpUser->PremiumTimeType == eVip3)

  015d6	8b 45 f8	 mov	 eax, DWORD PTR _lpUser$[ebp]
  015d9	83 b8 bc 22 00
	00 03		 cmp	 DWORD PTR [eax+8892], 3
  015e0	0f 85 af 00 00
	00		 jne	 $LN4@InfoMessag

; 682  : 	{
; 683  : 		MessageChat(aIndex, g_ExText.GetText(246), Plus3ExpProcent);

  015e6	8b 45 fc	 mov	 eax, DWORD PTR _this$[ebp]
  015e9	8b 48 34	 mov	 ecx, DWORD PTR [eax+52]
  015ec	51		 push	 ecx
  015ed	68 f6 00 00 00	 push	 246			; 000000f6H
  015f2	b9 00 00 00 00	 mov	 ecx, OFFSET ?g_ExText@@3VCExText@@A ; g_ExText
  015f7	e8 00 00 00 00	 call	 ?GetText@CExText@@QAEPADH@Z ; CExText::GetText
  015fc	50		 push	 eax
  015fd	8b 55 08	 mov	 edx, DWORD PTR _aIndex$[ebp]
  01600	52		 push	 edx
  01601	e8 00 00 00 00	 call	 ?MessageChat@@YAXHPADZZ	; MessageChat
  01606	83 c4 0c	 add	 esp, 12			; 0000000cH

; 684  : 		MessageChat(aIndex, g_ExText.GetText(247), Plus3DropZenProcent);

  01609	8b 45 fc	 mov	 eax, DWORD PTR _this$[ebp]
  0160c	8b 48 38	 mov	 ecx, DWORD PTR [eax+56]
  0160f	51		 push	 ecx
  01610	68 f7 00 00 00	 push	 247			; 000000f7H
  01615	b9 00 00 00 00	 mov	 ecx, OFFSET ?g_ExText@@3VCExText@@A ; g_ExText
  0161a	e8 00 00 00 00	 call	 ?GetText@CExText@@QAEPADH@Z ; CExText::GetText
  0161f	50		 push	 eax
  01620	8b 55 08	 mov	 edx, DWORD PTR _aIndex$[ebp]
  01623	52		 push	 edx
  01624	e8 00 00 00 00	 call	 ?MessageChat@@YAXHPADZZ	; MessageChat
  01629	83 c4 0c	 add	 esp, 12			; 0000000cH

; 685  : 		MessageChat(aIndex, g_ExText.GetText(248), Plus3DamageProcent);

  0162c	8b 45 fc	 mov	 eax, DWORD PTR _this$[ebp]
  0162f	8b 48 3c	 mov	 ecx, DWORD PTR [eax+60]
  01632	51		 push	 ecx
  01633	68 f8 00 00 00	 push	 248			; 000000f8H
  01638	b9 00 00 00 00	 mov	 ecx, OFFSET ?g_ExText@@3VCExText@@A ; g_ExText
  0163d	e8 00 00 00 00	 call	 ?GetText@CExText@@QAEPADH@Z ; CExText::GetText
  01642	50		 push	 eax
  01643	8b 55 08	 mov	 edx, DWORD PTR _aIndex$[ebp]
  01646	52		 push	 edx
  01647	e8 00 00 00 00	 call	 ?MessageChat@@YAXHPADZZ	; MessageChat
  0164c	83 c4 0c	 add	 esp, 12			; 0000000cH

; 686  : 		MessageChat(aIndex, g_ExText.GetText(249), Plus3WizardDamageProcent);

  0164f	8b 45 fc	 mov	 eax, DWORD PTR _this$[ebp]
  01652	8b 48 44	 mov	 ecx, DWORD PTR [eax+68]
  01655	51		 push	 ecx
  01656	68 f9 00 00 00	 push	 249			; 000000f9H
  0165b	b9 00 00 00 00	 mov	 ecx, OFFSET ?g_ExText@@3VCExText@@A ; g_ExText
  01660	e8 00 00 00 00	 call	 ?GetText@CExText@@QAEPADH@Z ; CExText::GetText
  01665	50		 push	 eax
  01666	8b 55 08	 mov	 edx, DWORD PTR _aIndex$[ebp]
  01669	52		 push	 edx
  0166a	e8 00 00 00 00	 call	 ?MessageChat@@YAXHPADZZ	; MessageChat
  0166f	83 c4 0c	 add	 esp, 12			; 0000000cH

; 687  : 		MessageChat(aIndex, g_ExText.GetText(250), Plus3DefenceProcent);

  01672	8b 45 fc	 mov	 eax, DWORD PTR _this$[ebp]
  01675	8b 48 40	 mov	 ecx, DWORD PTR [eax+64]
  01678	51		 push	 ecx
  01679	68 fa 00 00 00	 push	 250			; 000000faH
  0167e	b9 00 00 00 00	 mov	 ecx, OFFSET ?g_ExText@@3VCExText@@A ; g_ExText
  01683	e8 00 00 00 00	 call	 ?GetText@CExText@@QAEPADH@Z ; CExText::GetText
  01688	50		 push	 eax
  01689	8b 55 08	 mov	 edx, DWORD PTR _aIndex$[ebp]
  0168c	52		 push	 edx
  0168d	e8 00 00 00 00	 call	 ?MessageChat@@YAXHPADZZ	; MessageChat
  01692	83 c4 0c	 add	 esp, 12			; 0000000cH
$LN4@InfoMessag:

; 688  : 	}
; 689  : 
; 690  : 	MessageChat(aIndex,g_ExText.GetText(251),(lpUser->PremiumTime/60));

  01695	8b 45 f8	 mov	 eax, DWORD PTR _lpUser$[ebp]
  01698	8b 80 b8 22 00
	00		 mov	 eax, DWORD PTR [eax+8888]
  0169e	99		 cdq
  0169f	b9 3c 00 00 00	 mov	 ecx, 60			; 0000003cH
  016a4	f7 f9		 idiv	 ecx
  016a6	50		 push	 eax
  016a7	68 fb 00 00 00	 push	 251			; 000000fbH
  016ac	b9 00 00 00 00	 mov	 ecx, OFFSET ?g_ExText@@3VCExText@@A ; g_ExText
  016b1	e8 00 00 00 00	 call	 ?GetText@CExText@@QAEPADH@Z ; CExText::GetText
  016b6	50		 push	 eax
  016b7	8b 55 08	 mov	 edx, DWORD PTR _aIndex$[ebp]
  016ba	52		 push	 edx
  016bb	e8 00 00 00 00	 call	 ?MessageChat@@YAXHPADZZ	; MessageChat
  016c0	83 c4 0c	 add	 esp, 12			; 0000000cH

; 691  : 
; 692  : 	this->UserBuff(aIndex);

  016c3	8b 45 08	 mov	 eax, DWORD PTR _aIndex$[ebp]
  016c6	50		 push	 eax
  016c7	8b 4d fc	 mov	 ecx, DWORD PTR _this$[ebp]
  016ca	e8 00 00 00 00	 call	 ?UserBuff@PremiumSystemEx@@QAEXH@Z ; PremiumSystemEx::UserBuff
$LN10@InfoMessag:

; 693  : }

  016cf	5f		 pop	 edi
  016d0	5e		 pop	 esi
  016d1	5b		 pop	 ebx
  016d2	8b e5		 mov	 esp, ebp
  016d4	5d		 pop	 ebp
  016d5	c2 04 00	 ret	 4
?InfoMessage@PremiumSystemEx@@QAEXH@Z ENDP		; PremiumSystemEx::InfoMessage
_TEXT	ENDS
PUBLIC	?__LINE__Var@?1??GC_Config@PremiumSystemEx@@QAEXH@Z@4JA ; `PremiumSystemEx::GC_Config'::`2'::__LINE__Var
PUBLIC	__$ArrayPad$
PUBLIC	?GC_Config@PremiumSystemEx@@QAEXH@Z		; PremiumSystemEx::GC_Config
;	COMDAT ?__LINE__Var@?1??GC_Config@PremiumSystemEx@@QAEXH@Z@4JA
_DATA	SEGMENT
?__LINE__Var@?1??GC_Config@PremiumSystemEx@@QAEXH@Z@4JA DD 02b8H ; `PremiumSystemEx::GC_Config'::`2'::__LINE__Var
; Function compile flags: /Odtp /ZI
_DATA	ENDS
_TEXT	SEGMENT
tv69 = -88						; size = 4
_pSend$ = -20						; size = 12
_this$ = -8						; size = 4
__$ArrayPad$ = -4					; size = 4
_aIndex$ = 8						; size = 4
?GC_Config@PremiumSystemEx@@QAEXH@Z PROC		; PremiumSystemEx::GC_Config
; _this$ = ecx

; 696  : {

  016e0	55		 push	 ebp
  016e1	8b ec		 mov	 ebp, esp
  016e3	83 ec 58	 sub	 esp, 88			; 00000058H
  016e6	a1 00 00 00 00	 mov	 eax, DWORD PTR ___security_cookie
  016eb	33 c5		 xor	 eax, ebp
  016ed	89 45 fc	 mov	 DWORD PTR __$ArrayPad$[ebp], eax
  016f0	53		 push	 ebx
  016f1	56		 push	 esi
  016f2	57		 push	 edi
  016f3	89 4d f8	 mov	 DWORD PTR _this$[ebp], ecx

; 697  : 	if(!this->ActiveSystem)

  016f6	8b 45 f8	 mov	 eax, DWORD PTR _this$[ebp]
  016f9	0f b6 08	 movzx	 ecx, BYTE PTR [eax]
  016fc	85 c9		 test	 ecx, ecx
  016fe	75 05		 jne	 SHORT $LN2@GC_Config

; 698  : 	{
; 699  : 		return;

  01700	e9 81 00 00 00	 jmp	 $LN3@GC_Config
$LN2@GC_Config:

; 700  : 	}
; 701  : 
; 702  : 	if ( OBJMAX_RANGE(aIndex) == FALSE )

  01705	83 7d 08 00	 cmp	 DWORD PTR _aIndex$[ebp], 0
  01709	7d 09		 jge	 SHORT $LN5@GC_Config
  0170b	c7 45 a8 00 00
	00 00		 mov	 DWORD PTR tv69[ebp], 0
  01712	eb 0f		 jmp	 SHORT $LN6@GC_Config
$LN5@GC_Config:
  01714	33 c0		 xor	 eax, eax
  01716	81 7d 08 97 3a
	00 00		 cmp	 DWORD PTR _aIndex$[ebp], 14999 ; 00003a97H
  0171d	0f 9e c0	 setle	 al
  01720	89 45 a8	 mov	 DWORD PTR tv69[ebp], eax
$LN6@GC_Config:
  01723	83 7d a8 00	 cmp	 DWORD PTR tv69[ebp], 0
  01727	75 1e		 jne	 SHORT $LN1@GC_Config

; 703  : 	{
; 704  : 		LogAdd("error : %s %d", __FILE__, __LINE__ );

  01729	a1 00 00 00 00	 mov	 eax, DWORD PTR ?__LINE__Var@?1??GC_Config@PremiumSystemEx@@QAEXH@Z@4JA
  0172e	83 c0 08	 add	 eax, 8
  01731	50		 push	 eax
  01732	68 00 00 00 00	 push	 OFFSET ??_C@_0EH@LMMDDEHM@d?3?2projects?2exteam6?43?2source?2gam@
  01737	68 00 00 00 00	 push	 OFFSET ??_C@_0O@CKAEPJAF@error?5?3?5?$CFs?5?$CFd?$AA@
  0173c	ff 15 00 00 00
	00		 call	 DWORD PTR ?LogAdd@@3P6AXPADZZA ; LogAdd
  01742	83 c4 0c	 add	 esp, 12			; 0000000cH

; 705  : 		return;

  01745	eb 3f		 jmp	 SHORT $LN3@GC_Config
$LN1@GC_Config:

; 706  : 	}
; 707  : 
; 708  : 	GC_PREMIUM_CONFIG pSend;
; 709  : 	pSend.h.set((LPBYTE)&pSend, 0xFB, 0xAD, sizeof(pSend));

  01747	6a 0c		 push	 12			; 0000000cH
  01749	68 ad 00 00 00	 push	 173			; 000000adH
  0174e	68 fb 00 00 00	 push	 251			; 000000fbH
  01753	8d 45 ec	 lea	 eax, DWORD PTR _pSend$[ebp]
  01756	50		 push	 eax
  01757	8d 4d ec	 lea	 ecx, DWORD PTR _pSend$[ebp]
  0175a	e8 00 00 00 00	 call	 ?set@PBMSG_HEAD2@@QAEXPAEEEE@Z ; PBMSG_HEAD2::set

; 710  : 	pSend.OfflineModeAttackFreePremiumRang = this->m_iOfflineModeAttackFreePremiumRang;

  0175f	8b 45 f8	 mov	 eax, DWORD PTR _this$[ebp]
  01762	8b 48 4c	 mov	 ecx, DWORD PTR [eax+76]
  01765	89 4d f0	 mov	 DWORD PTR _pSend$[ebp+4], ecx

; 711  : 	pSend.OfflineModePickUpPremiumRang = this->m_iOfflineModePickUpPremiumRang;

  01768	8b 45 f8	 mov	 eax, DWORD PTR _this$[ebp]
  0176b	8b 48 50	 mov	 ecx, DWORD PTR [eax+80]
  0176e	89 4d f4	 mov	 DWORD PTR _pSend$[ebp+8], ecx

; 712  : 	DataSend(aIndex, (LPBYTE)&pSend, pSend.h.size);

  01771	0f b6 45 ed	 movzx	 eax, BYTE PTR _pSend$[ebp+1]
  01775	50		 push	 eax
  01776	8d 4d ec	 lea	 ecx, DWORD PTR _pSend$[ebp]
  01779	51		 push	 ecx
  0177a	8b 55 08	 mov	 edx, DWORD PTR _aIndex$[ebp]
  0177d	52		 push	 edx
  0177e	e8 00 00 00 00	 call	 ?DataSend@@YAHHPAEK@Z	; DataSend
  01783	83 c4 0c	 add	 esp, 12			; 0000000cH
$LN3@GC_Config:

; 713  : }

  01786	5f		 pop	 edi
  01787	5e		 pop	 esi
  01788	5b		 pop	 ebx
  01789	8b 4d fc	 mov	 ecx, DWORD PTR __$ArrayPad$[ebp]
  0178c	33 cd		 xor	 ecx, ebp
  0178e	e8 00 00 00 00	 call	 @__security_check_cookie@4
  01793	8b e5		 mov	 esp, ebp
  01795	5d		 pop	 ebp
  01796	c2 04 00	 ret	 4
?GC_Config@PremiumSystemEx@@QAEXH@Z ENDP		; PremiumSystemEx::GC_Config
_TEXT	ENDS
EXTRN	?gObjApplyBuffEffectDuration@@YAEPAUOBJECTSTRUCT@@HEHEHH@Z:PROC ; gObjApplyBuffEffectDuration
; Function compile flags: /Odtp /ZI
_TEXT	SEGMENT
tv69 = -76						; size = 4
_lpUser$ = -8						; size = 4
_this$ = -4						; size = 4
_aIndex$ = 8						; size = 4
?UserBuff@PremiumSystemEx@@QAEXH@Z PROC			; PremiumSystemEx::UserBuff
; _this$ = ecx

; 722  : {

  017a0	55		 push	 ebp
  017a1	8b ec		 mov	 ebp, esp
  017a3	83 ec 4c	 sub	 esp, 76			; 0000004cH
  017a6	53		 push	 ebx
  017a7	56		 push	 esi
  017a8	57		 push	 edi
  017a9	89 4d fc	 mov	 DWORD PTR _this$[ebp], ecx

; 723  : 	if(!this->ActiveSystem)

  017ac	8b 45 fc	 mov	 eax, DWORD PTR _this$[ebp]
  017af	0f b6 08	 movzx	 ecx, BYTE PTR [eax]
  017b2	85 c9		 test	 ecx, ecx
  017b4	75 05		 jne	 SHORT $LN7@UserBuff

; 724  : 	{
; 725  : 		return;

  017b6	e9 cc 00 00 00	 jmp	 $LN8@UserBuff
$LN7@UserBuff:

; 726  : 	}
; 727  : 
; 728  : 	if(!OBJMAX_RANGE(aIndex))

  017bb	83 7d 08 00	 cmp	 DWORD PTR _aIndex$[ebp], 0
  017bf	7d 09		 jge	 SHORT $LN10@UserBuff
  017c1	c7 45 b4 00 00
	00 00		 mov	 DWORD PTR tv69[ebp], 0
  017c8	eb 0f		 jmp	 SHORT $LN11@UserBuff
$LN10@UserBuff:
  017ca	33 c0		 xor	 eax, eax
  017cc	81 7d 08 97 3a
	00 00		 cmp	 DWORD PTR _aIndex$[ebp], 14999 ; 00003a97H
  017d3	0f 9e c0	 setle	 al
  017d6	89 45 b4	 mov	 DWORD PTR tv69[ebp], eax
$LN11@UserBuff:
  017d9	83 7d b4 00	 cmp	 DWORD PTR tv69[ebp], 0
  017dd	75 05		 jne	 SHORT $LN6@UserBuff

; 729  : 	{
; 730  : 		return;

  017df	e9 a3 00 00 00	 jmp	 $LN8@UserBuff
$LN6@UserBuff:

; 731  : 	}
; 732  : 
; 733  : 	LPOBJ lpUser = &gObj[aIndex];

  017e4	8b 45 08	 mov	 eax, DWORD PTR _aIndex$[ebp]
  017e7	69 c0 38 2b 00
	00		 imul	 eax, 11064		; 00002b38H
  017ed	03 05 00 00 00
	00		 add	 eax, DWORD PTR ?gObj@@3PAUOBJECTSTRUCT@@A ; gObj
  017f3	89 45 f8	 mov	 DWORD PTR _lpUser$[ebp], eax

; 734  : 
; 735  : 	if(lpUser->PremiumTimeType == eVip1)

  017f6	8b 45 f8	 mov	 eax, DWORD PTR _lpUser$[ebp]
  017f9	83 b8 bc 22 00
	00 01		 cmp	 DWORD PTR [eax+8892], 1
  01800	75 25		 jne	 SHORT $LN5@UserBuff

; 736  : 	{
; 737  : 		gObjApplyBuffEffectDuration(lpUser, AT_VIP_SILVER, 0, 0, 0, 0, lpUser->PremiumTime);

  01802	8b 45 f8	 mov	 eax, DWORD PTR _lpUser$[ebp]
  01805	8b 88 b8 22 00
	00		 mov	 ecx, DWORD PTR [eax+8888]
  0180b	51		 push	 ecx
  0180c	6a 00		 push	 0
  0180e	6a 00		 push	 0
  01810	6a 00		 push	 0
  01812	6a 00		 push	 0
  01814	68 be 00 00 00	 push	 190			; 000000beH
  01819	8b 55 f8	 mov	 edx, DWORD PTR _lpUser$[ebp]
  0181c	52		 push	 edx
  0181d	e8 00 00 00 00	 call	 ?gObjApplyBuffEffectDuration@@YAEPAUOBJECTSTRUCT@@HEHEHH@Z ; gObjApplyBuffEffectDuration
  01822	83 c4 1c	 add	 esp, 28			; 0000001cH
  01825	eb 60		 jmp	 SHORT $LN8@UserBuff
$LN5@UserBuff:

; 738  : 	}
; 739  : 	else if(lpUser->PremiumTimeType == eVip2)

  01827	8b 45 f8	 mov	 eax, DWORD PTR _lpUser$[ebp]
  0182a	83 b8 bc 22 00
	00 02		 cmp	 DWORD PTR [eax+8892], 2
  01831	75 25		 jne	 SHORT $LN3@UserBuff

; 740  : 	{
; 741  : 		gObjApplyBuffEffectDuration(lpUser, AT_VIP_GOLD, 0, 0, 0, 0, lpUser->PremiumTime);

  01833	8b 45 f8	 mov	 eax, DWORD PTR _lpUser$[ebp]
  01836	8b 88 b8 22 00
	00		 mov	 ecx, DWORD PTR [eax+8888]
  0183c	51		 push	 ecx
  0183d	6a 00		 push	 0
  0183f	6a 00		 push	 0
  01841	6a 00		 push	 0
  01843	6a 00		 push	 0
  01845	68 bf 00 00 00	 push	 191			; 000000bfH
  0184a	8b 55 f8	 mov	 edx, DWORD PTR _lpUser$[ebp]
  0184d	52		 push	 edx
  0184e	e8 00 00 00 00	 call	 ?gObjApplyBuffEffectDuration@@YAEPAUOBJECTSTRUCT@@HEHEHH@Z ; gObjApplyBuffEffectDuration
  01853	83 c4 1c	 add	 esp, 28			; 0000001cH
  01856	eb 2f		 jmp	 SHORT $LN8@UserBuff
$LN3@UserBuff:

; 742  : 	}
; 743  : 	else if(lpUser->PremiumTimeType == eVip3)

  01858	8b 45 f8	 mov	 eax, DWORD PTR _lpUser$[ebp]
  0185b	83 b8 bc 22 00
	00 03		 cmp	 DWORD PTR [eax+8892], 3
  01862	75 23		 jne	 SHORT $LN8@UserBuff

; 744  : 	{
; 745  : 		gObjApplyBuffEffectDuration(lpUser, AT_VIP_PLATINUM, 0, 0, 0, 0, lpUser->PremiumTime);

  01864	8b 45 f8	 mov	 eax, DWORD PTR _lpUser$[ebp]
  01867	8b 88 b8 22 00
	00		 mov	 ecx, DWORD PTR [eax+8888]
  0186d	51		 push	 ecx
  0186e	6a 00		 push	 0
  01870	6a 00		 push	 0
  01872	6a 00		 push	 0
  01874	6a 00		 push	 0
  01876	68 c0 00 00 00	 push	 192			; 000000c0H
  0187b	8b 55 f8	 mov	 edx, DWORD PTR _lpUser$[ebp]
  0187e	52		 push	 edx
  0187f	e8 00 00 00 00	 call	 ?gObjApplyBuffEffectDuration@@YAEPAUOBJECTSTRUCT@@HEHEHH@Z ; gObjApplyBuffEffectDuration
  01884	83 c4 1c	 add	 esp, 28			; 0000001cH
$LN8@UserBuff:

; 746  : 	}
; 747  : }

  01887	5f		 pop	 edi
  01888	5e		 pop	 esi
  01889	5b		 pop	 ebx
  0188a	8b e5		 mov	 esp, ebp
  0188c	5d		 pop	 ebp
  0188d	c2 04 00	 ret	 4
?UserBuff@PremiumSystemEx@@QAEXH@Z ENDP			; PremiumSystemEx::UserBuff
_TEXT	ENDS
EXTRN	_atexit:PROC
; Function compile flags: /Odtp /ZI
;	COMDAT ??__Eg_PremiumSystemEx@@YAXXZ
text$yc	SEGMENT
??__Eg_PremiumSystemEx@@YAXXZ PROC			; `dynamic initializer for 'g_PremiumSystemEx'', COMDAT

; 18   : PremiumSystemEx g_PremiumSystemEx;

  00000	55		 push	 ebp
  00001	8b ec		 mov	 ebp, esp
  00003	83 ec 40	 sub	 esp, 64			; 00000040H
  00006	53		 push	 ebx
  00007	56		 push	 esi
  00008	57		 push	 edi
  00009	b9 00 00 00 00	 mov	 ecx, OFFSET ?g_PremiumSystemEx@@3VPremiumSystemEx@@A ; g_PremiumSystemEx
  0000e	e8 00 00 00 00	 call	 ??0PremiumSystemEx@@QAE@XZ ; PremiumSystemEx::PremiumSystemEx
  00013	68 00 00 00 00	 push	 OFFSET ??__Fg_PremiumSystemEx@@YAXXZ ; `dynamic atexit destructor for 'g_PremiumSystemEx''
  00018	e8 00 00 00 00	 call	 _atexit
  0001d	83 c4 04	 add	 esp, 4
  00020	5f		 pop	 edi
  00021	5e		 pop	 esi
  00022	5b		 pop	 ebx
  00023	8b e5		 mov	 esp, ebp
  00025	5d		 pop	 ebp
  00026	c3		 ret	 0
??__Eg_PremiumSystemEx@@YAXXZ ENDP			; `dynamic initializer for 'g_PremiumSystemEx''
; Function compile flags: /Odtp /ZI
text$yc	ENDS
;	COMDAT ??__Fg_PremiumSystemEx@@YAXXZ
text$yd	SEGMENT
??__Fg_PremiumSystemEx@@YAXXZ PROC			; `dynamic atexit destructor for 'g_PremiumSystemEx'', COMDAT
  00000	55		 push	 ebp
  00001	8b ec		 mov	 ebp, esp
  00003	83 ec 40	 sub	 esp, 64			; 00000040H
  00006	53		 push	 ebx
  00007	56		 push	 esi
  00008	57		 push	 edi
  00009	b9 00 00 00 00	 mov	 ecx, OFFSET ?g_PremiumSystemEx@@3VPremiumSystemEx@@A ; g_PremiumSystemEx
  0000e	e8 00 00 00 00	 call	 ??1PremiumSystemEx@@QAE@XZ ; PremiumSystemEx::~PremiumSystemEx
  00013	5f		 pop	 edi
  00014	5e		 pop	 esi
  00015	5b		 pop	 ebx
  00016	8b e5		 mov	 esp, ebp
  00018	5d		 pop	 ebp
  00019	c3		 ret	 0
??__Fg_PremiumSystemEx@@YAXXZ ENDP			; `dynamic atexit destructor for 'g_PremiumSystemEx''
text$yd	ENDS
PUBLIC	?g_PremiumSystemEx@@3VPremiumSystemEx@@A	; g_PremiumSystemEx
_BSS	SEGMENT
?g_PremiumSystemEx@@3VPremiumSystemEx@@A DB 064H DUP (?) ; g_PremiumSystemEx
_BSS	ENDS
CRT$XCU	SEGMENT
_g_PremiumSystemEx$initializer$ DD FLAT:??__Eg_PremiumSystemEx@@YAXXZ
CRT$XCU	ENDS
END
