; Listing generated by Microsoft (R) Optimizing Compiler Version 16.00.40219.01 

	TITLE	D:\Projects\ExTeam6.3\Source\GameServer\GameServer\PvPMapSystem.cpp
	.686P
	.XMM
	include listing.inc
	.model	flat

INCLUDELIB LIBCMT
INCLUDELIB OLDNAMES

PUBLIC	?PvPMapSystem@@3VcPvPMapSystem@@A		; PvPMapSystem
_BSS	SEGMENT
?PvPMapSystem@@3VcPvPMapSystem@@A DB 088cH DUP (?)	; PvPMapSystem
_BSS	ENDS
PUBLIC	??_H@YGXPAXIHP6EPAX0@Z@Z			; `vector constructor iterator'
; Function compile flags: /Odtp /ZI
;	COMDAT ??_H@YGXPAXIHP6EPAX0@Z@Z
_TEXT	SEGMENT
___t$ = 8						; size = 4
___s$ = 12						; size = 4
___n$ = 16						; size = 4
___f$ = 20						; size = 4
??_H@YGXPAXIHP6EPAX0@Z@Z PROC				; `vector constructor iterator', COMDAT
  00000	55		 push	 ebp
  00001	8b ec		 mov	 ebp, esp
  00003	83 ec 40	 sub	 esp, 64			; 00000040H
  00006	53		 push	 ebx
  00007	56		 push	 esi
  00008	57		 push	 edi
$LN2@vector:
  00009	8b 45 10	 mov	 eax, DWORD PTR ___n$[ebp]
  0000c	83 e8 01	 sub	 eax, 1
  0000f	89 45 10	 mov	 DWORD PTR ___n$[ebp], eax
  00012	78 11		 js	 SHORT $LN3@vector
  00014	8b 4d 08	 mov	 ecx, DWORD PTR ___t$[ebp]
  00017	ff 55 14	 call	 DWORD PTR ___f$[ebp]
  0001a	8b 45 08	 mov	 eax, DWORD PTR ___t$[ebp]
  0001d	03 45 0c	 add	 eax, DWORD PTR ___s$[ebp]
  00020	89 45 08	 mov	 DWORD PTR ___t$[ebp], eax
  00023	eb e4		 jmp	 SHORT $LN2@vector
$LN3@vector:
  00025	5f		 pop	 edi
  00026	5e		 pop	 esi
  00027	5b		 pop	 ebx
  00028	8b e5		 mov	 esp, ebp
  0002a	5d		 pop	 ebp
  0002b	c2 10 00	 ret	 16			; 00000010H
??_H@YGXPAXIHP6EPAX0@Z@Z ENDP				; `vector constructor iterator'
_TEXT	ENDS
PUBLIC	??_C@_0BC@HDIJPDCG@?$CFd?5?$CFd?5?$CFd?5?$CFd?5?$CFd?5?$CFd?$AA@ ; `string'
PUBLIC	??_C@_0BA@PIOFNAIM@LOAD?5FILE?5ERROR?$AA@	; `string'
PUBLIC	??_C@_01KDCPPGHE@r?$AA@				; `string'
PUBLIC	??_C@_0L@DPINDAGE@LoraRingY2?$AA@		; `string'
PUBLIC	??_C@_0L@DOEPFKFD@LoraRingX2?$AA@		; `string'
PUBLIC	??_C@_0L@BEKAGDKH@LoraRingY1?$AA@		; `string'
PUBLIC	??_C@_0L@BFGCAJJA@LoraRingX1?$AA@		; `string'
PUBLIC	??_C@_0P@JCALJFB@EnableLoraRing?$AA@		; `string'
PUBLIC	??_C@_06POMJKEPM@Common?$AA@			; `string'
PUBLIC	??_C@_0N@DOLHPFKI@EnablePvPMap?$AA@		; `string'
PUBLIC	??_C@_0BN@IMCLPOND@?4?4?2Data?2ExData?2PvPSystem?4ini?$AA@ ; `string'
PUBLIC	__$ArrayPad$
PUBLIC	?LoadConfig@cPvPMapSystem@@QAEXXZ		; cPvPMapSystem::LoadConfig
EXTRN	_fclose:PROC
EXTRN	_sscanf:PROC
EXTRN	?Ex_IsBadFileLine@@YA_NPADAAH@Z:PROC		; Ex_IsBadFileLine
EXTRN	_fgets:PROC
EXTRN	_feof:PROC
EXTRN	__imp__MessageBoxA@16:PROC
EXTRN	_fopen:PROC
EXTRN	__imp__GetPrivateProfileIntA@16:PROC
EXTRN	___security_cookie:DWORD
EXTRN	@__security_check_cookie@4:PROC
;	COMDAT ??_C@_0BC@HDIJPDCG@?$CFd?5?$CFd?5?$CFd?5?$CFd?5?$CFd?5?$CFd?$AA@
; File d:\projects\exteam6.3\source\gameserver\gameserver\pvpmapsystem.cpp
CONST	SEGMENT
??_C@_0BC@HDIJPDCG@?$CFd?5?$CFd?5?$CFd?5?$CFd?5?$CFd?5?$CFd?$AA@ DB '%d %'
	DB	'd %d %d %d %d', 00H				; `string'
CONST	ENDS
;	COMDAT ??_C@_0BA@PIOFNAIM@LOAD?5FILE?5ERROR?$AA@
CONST	SEGMENT
??_C@_0BA@PIOFNAIM@LOAD?5FILE?5ERROR?$AA@ DB 'LOAD FILE ERROR', 00H ; `string'
CONST	ENDS
;	COMDAT ??_C@_01KDCPPGHE@r?$AA@
CONST	SEGMENT
??_C@_01KDCPPGHE@r?$AA@ DB 'r', 00H			; `string'
CONST	ENDS
;	COMDAT ??_C@_0L@DPINDAGE@LoraRingY2?$AA@
CONST	SEGMENT
??_C@_0L@DPINDAGE@LoraRingY2?$AA@ DB 'LoraRingY2', 00H	; `string'
CONST	ENDS
;	COMDAT ??_C@_0L@DOEPFKFD@LoraRingX2?$AA@
CONST	SEGMENT
??_C@_0L@DOEPFKFD@LoraRingX2?$AA@ DB 'LoraRingX2', 00H	; `string'
CONST	ENDS
;	COMDAT ??_C@_0L@BEKAGDKH@LoraRingY1?$AA@
CONST	SEGMENT
??_C@_0L@BEKAGDKH@LoraRingY1?$AA@ DB 'LoraRingY1', 00H	; `string'
CONST	ENDS
;	COMDAT ??_C@_0L@BFGCAJJA@LoraRingX1?$AA@
CONST	SEGMENT
??_C@_0L@BFGCAJJA@LoraRingX1?$AA@ DB 'LoraRingX1', 00H	; `string'
CONST	ENDS
;	COMDAT ??_C@_0P@JCALJFB@EnableLoraRing?$AA@
CONST	SEGMENT
??_C@_0P@JCALJFB@EnableLoraRing?$AA@ DB 'EnableLoraRing', 00H ; `string'
CONST	ENDS
;	COMDAT ??_C@_06POMJKEPM@Common?$AA@
CONST	SEGMENT
??_C@_06POMJKEPM@Common?$AA@ DB 'Common', 00H		; `string'
CONST	ENDS
;	COMDAT ??_C@_0N@DOLHPFKI@EnablePvPMap?$AA@
CONST	SEGMENT
??_C@_0N@DOLHPFKI@EnablePvPMap?$AA@ DB 'EnablePvPMap', 00H ; `string'
CONST	ENDS
;	COMDAT ??_C@_0BN@IMCLPOND@?4?4?2Data?2ExData?2PvPSystem?4ini?$AA@
CONST	SEGMENT
??_C@_0BN@IMCLPOND@?4?4?2Data?2ExData?2PvPSystem?4ini?$AA@ DB '..\Data\Ex'
	DB	'Data\PvPSystem.ini', 00H			; `string'
; Function compile flags: /Odtp /ZI
CONST	ENDS
_TEXT	SEGMENT
_n$218967 = -300					; size = 24
_Flag$ = -276						; size = 4
_Buff$ = -272						; size = 256
_file$ = -16						; size = 4
_i$218951 = -12						; size = 4
_this$ = -8						; size = 4
__$ArrayPad$ = -4					; size = 4
?LoadConfig@cPvPMapSystem@@QAEXXZ PROC			; cPvPMapSystem::LoadConfig
; _this$ = ecx

; 10   : {

  00000	55		 push	 ebp
  00001	8b ec		 mov	 ebp, esp
  00003	81 ec 6c 01 00
	00		 sub	 esp, 364		; 0000016cH
  00009	a1 00 00 00 00	 mov	 eax, DWORD PTR ___security_cookie
  0000e	33 c5		 xor	 eax, ebp
  00010	89 45 fc	 mov	 DWORD PTR __$ArrayPad$[ebp], eax
  00013	53		 push	 ebx
  00014	56		 push	 esi
  00015	57		 push	 edi
  00016	89 4d f8	 mov	 DWORD PTR _this$[ebp], ecx

; 11   : 	this->EnablePvPMap = GetPrivateProfileInt("Common","EnablePvPMap",0,PVPMAPSYSTEM_DIR);

  00019	68 00 00 00 00	 push	 OFFSET ??_C@_0BN@IMCLPOND@?4?4?2Data?2ExData?2PvPSystem?4ini?$AA@
  0001e	6a 00		 push	 0
  00020	68 00 00 00 00	 push	 OFFSET ??_C@_0N@DOLHPFKI@EnablePvPMap?$AA@
  00025	68 00 00 00 00	 push	 OFFSET ??_C@_06POMJKEPM@Common?$AA@
  0002a	ff 15 00 00 00
	00		 call	 DWORD PTR __imp__GetPrivateProfileIntA@16
  00030	8b 4d f8	 mov	 ecx, DWORD PTR _this$[ebp]
  00033	89 01		 mov	 DWORD PTR [ecx], eax

; 12   : 	this->EnableLoraRing = GetPrivateProfileInt("Common","EnableLoraRing",0,PVPMAPSYSTEM_DIR);

  00035	68 00 00 00 00	 push	 OFFSET ??_C@_0BN@IMCLPOND@?4?4?2Data?2ExData?2PvPSystem?4ini?$AA@
  0003a	6a 00		 push	 0
  0003c	68 00 00 00 00	 push	 OFFSET ??_C@_0P@JCALJFB@EnableLoraRing?$AA@
  00041	68 00 00 00 00	 push	 OFFSET ??_C@_06POMJKEPM@Common?$AA@
  00046	ff 15 00 00 00
	00		 call	 DWORD PTR __imp__GetPrivateProfileIntA@16
  0004c	8b 4d f8	 mov	 ecx, DWORD PTR _this$[ebp]
  0004f	89 41 04	 mov	 DWORD PTR [ecx+4], eax

; 13   : 
; 14   : 	//lpObj->X >= 137 && lpObj->X <= 144 && lpObj->Y >= 124 && lpObj->Y <= 131
; 15   : 	this->m_LoraRingX1 = GetPrivateProfileInt("Common","LoraRingX1",137,PVPMAPSYSTEM_DIR);

  00052	68 00 00 00 00	 push	 OFFSET ??_C@_0BN@IMCLPOND@?4?4?2Data?2ExData?2PvPSystem?4ini?$AA@
  00057	68 89 00 00 00	 push	 137			; 00000089H
  0005c	68 00 00 00 00	 push	 OFFSET ??_C@_0L@BFGCAJJA@LoraRingX1?$AA@
  00061	68 00 00 00 00	 push	 OFFSET ??_C@_06POMJKEPM@Common?$AA@
  00066	ff 15 00 00 00
	00		 call	 DWORD PTR __imp__GetPrivateProfileIntA@16
  0006c	8b 4d f8	 mov	 ecx, DWORD PTR _this$[ebp]
  0006f	89 81 7c 08 00
	00		 mov	 DWORD PTR [ecx+2172], eax

; 16   : 	this->m_LoraRingY1 = GetPrivateProfileInt("Common","LoraRingY1",124,PVPMAPSYSTEM_DIR);

  00075	68 00 00 00 00	 push	 OFFSET ??_C@_0BN@IMCLPOND@?4?4?2Data?2ExData?2PvPSystem?4ini?$AA@
  0007a	6a 7c		 push	 124			; 0000007cH
  0007c	68 00 00 00 00	 push	 OFFSET ??_C@_0L@BEKAGDKH@LoraRingY1?$AA@
  00081	68 00 00 00 00	 push	 OFFSET ??_C@_06POMJKEPM@Common?$AA@
  00086	ff 15 00 00 00
	00		 call	 DWORD PTR __imp__GetPrivateProfileIntA@16
  0008c	8b 4d f8	 mov	 ecx, DWORD PTR _this$[ebp]
  0008f	89 81 80 08 00
	00		 mov	 DWORD PTR [ecx+2176], eax

; 17   : 	this->m_LoraRingX2 = GetPrivateProfileInt("Common","LoraRingX2",144,PVPMAPSYSTEM_DIR);

  00095	68 00 00 00 00	 push	 OFFSET ??_C@_0BN@IMCLPOND@?4?4?2Data?2ExData?2PvPSystem?4ini?$AA@
  0009a	68 90 00 00 00	 push	 144			; 00000090H
  0009f	68 00 00 00 00	 push	 OFFSET ??_C@_0L@DOEPFKFD@LoraRingX2?$AA@
  000a4	68 00 00 00 00	 push	 OFFSET ??_C@_06POMJKEPM@Common?$AA@
  000a9	ff 15 00 00 00
	00		 call	 DWORD PTR __imp__GetPrivateProfileIntA@16
  000af	8b 4d f8	 mov	 ecx, DWORD PTR _this$[ebp]
  000b2	89 81 84 08 00
	00		 mov	 DWORD PTR [ecx+2180], eax

; 18   : 	this->m_LoraRingY2 = GetPrivateProfileInt("Common","LoraRingY2",131,PVPMAPSYSTEM_DIR);

  000b8	68 00 00 00 00	 push	 OFFSET ??_C@_0BN@IMCLPOND@?4?4?2Data?2ExData?2PvPSystem?4ini?$AA@
  000bd	68 83 00 00 00	 push	 131			; 00000083H
  000c2	68 00 00 00 00	 push	 OFFSET ??_C@_0L@DPINDAGE@LoraRingY2?$AA@
  000c7	68 00 00 00 00	 push	 OFFSET ??_C@_06POMJKEPM@Common?$AA@
  000cc	ff 15 00 00 00
	00		 call	 DWORD PTR __imp__GetPrivateProfileIntA@16
  000d2	8b 4d f8	 mov	 ecx, DWORD PTR _this$[ebp]
  000d5	89 81 88 08 00
	00		 mov	 DWORD PTR [ecx+2184], eax

; 19   : 
; 20   : 	for(int i(0);i<MAX_NUMBER_MAP;i++)

  000db	c7 45 f4 00 00
	00 00		 mov	 DWORD PTR _i$218951[ebp], 0
  000e2	eb 09		 jmp	 SHORT $LN9@LoadConfig
$LN8@LoadConfig:
  000e4	8b 45 f4	 mov	 eax, DWORD PTR _i$218951[ebp]
  000e7	83 c0 01	 add	 eax, 1
  000ea	89 45 f4	 mov	 DWORD PTR _i$218951[ebp], eax
$LN9@LoadConfig:
  000ed	83 7d f4 5a	 cmp	 DWORD PTR _i$218951[ebp], 90 ; 0000005aH
  000f1	7d 24		 jge	 SHORT $LN7@LoadConfig

; 21   : 	{
; 22   : 		this->PvP[i].Map = 0;

  000f3	8b 45 f4	 mov	 eax, DWORD PTR _i$218951[ebp]
  000f6	6b c0 18	 imul	 eax, 24			; 00000018H
  000f9	8b 4d f8	 mov	 ecx, DWORD PTR _this$[ebp]
  000fc	c7 44 01 08 00
	00 00 00	 mov	 DWORD PTR [ecx+eax+8], 0

; 23   : 		this->PvP[i].Status = 0;

  00104	8b 45 f4	 mov	 eax, DWORD PTR _i$218951[ebp]
  00107	6b c0 18	 imul	 eax, 24			; 00000018H
  0010a	8b 4d f8	 mov	 ecx, DWORD PTR _this$[ebp]
  0010d	c7 44 01 0c 00
	00 00 00	 mov	 DWORD PTR [ecx+eax+12], 0

; 24   : 	}

  00115	eb cd		 jmp	 SHORT $LN8@LoadConfig
$LN7@LoadConfig:

; 25   : 
; 26   : 	FILE * file = fopen(PVPMAPSYSTEM_DIR,"r");

  00117	68 00 00 00 00	 push	 OFFSET ??_C@_01KDCPPGHE@r?$AA@
  0011c	68 00 00 00 00	 push	 OFFSET ??_C@_0BN@IMCLPOND@?4?4?2Data?2ExData?2PvPSystem?4ini?$AA@
  00121	e8 00 00 00 00	 call	 _fopen
  00126	83 c4 08	 add	 esp, 8
  00129	89 45 f0	 mov	 DWORD PTR _file$[ebp], eax

; 27   : 	if(file == NULL)

  0012c	83 7d f0 00	 cmp	 DWORD PTR _file$[ebp], 0
  00130	75 1d		 jne	 SHORT $LN6@LoadConfig

; 28   : 	{
; 29   : 		MessageBoxA(0,PVPMAPSYSTEM_DIR,"LOAD FILE ERROR",0);

  00132	6a 00		 push	 0
  00134	68 00 00 00 00	 push	 OFFSET ??_C@_0BA@PIOFNAIM@LOAD?5FILE?5ERROR?$AA@
  00139	68 00 00 00 00	 push	 OFFSET ??_C@_0BN@IMCLPOND@?4?4?2Data?2ExData?2PvPSystem?4ini?$AA@
  0013e	6a 00		 push	 0
  00140	ff 15 00 00 00
	00		 call	 DWORD PTR __imp__MessageBoxA@16

; 30   : 		this->EnablePvPMap = false;

  00146	8b 45 f8	 mov	 eax, DWORD PTR _this$[ebp]
  00149	c7 00 00 00 00
	00		 mov	 DWORD PTR [eax], 0
$LN6@LoadConfig:

; 31   : 	}
; 32   : 	if(!this->EnablePvPMap)return;

  0014f	8b 45 f8	 mov	 eax, DWORD PTR _this$[ebp]
  00152	83 38 00	 cmp	 DWORD PTR [eax], 0
  00155	75 05		 jne	 SHORT $LN5@LoadConfig
  00157	e9 08 02 00 00	 jmp	 $LN10@LoadConfig
$LN5@LoadConfig:

; 33   : 
; 34   : 	char Buff[256];
; 35   : 	int Flag = 0;

  0015c	c7 85 ec fe ff
	ff 00 00 00 00	 mov	 DWORD PTR _Flag$[ebp], 0

; 36   : 	this->pCount = 0;

  00166	8b 45 f8	 mov	 eax, DWORD PTR _this$[ebp]
  00169	c7 80 78 08 00
	00 00 00 00 00	 mov	 DWORD PTR [eax+2168], 0

; 37   : 
; 38   : #ifdef _CONFLICT_
; 39   : #ifdef _FIX_PK_IN_DUEL_
; 40   : 	this->PvP[this->pCount].Map		= 64;

  00173	8b 45 f8	 mov	 eax, DWORD PTR _this$[ebp]
  00176	8b 88 78 08 00
	00		 mov	 ecx, DWORD PTR [eax+2168]
  0017c	6b c9 18	 imul	 ecx, 24			; 00000018H
  0017f	8b 55 f8	 mov	 edx, DWORD PTR _this$[ebp]
  00182	c7 44 0a 08 40
	00 00 00	 mov	 DWORD PTR [edx+ecx+8], 64 ; 00000040H

; 41   : 	this->PvP[this->pCount].Status	= 1;

  0018a	8b 45 f8	 mov	 eax, DWORD PTR _this$[ebp]
  0018d	8b 88 78 08 00
	00		 mov	 ecx, DWORD PTR [eax+2168]
  00193	6b c9 18	 imul	 ecx, 24			; 00000018H
  00196	8b 55 f8	 mov	 edx, DWORD PTR _this$[ebp]
  00199	c7 44 0a 0c 01
	00 00 00	 mov	 DWORD PTR [edx+ecx+12], 1

; 42   : #if UPDATE_PVP == 1
; 43   : 	this->PvP[this->pCount].X1		= 0;

  001a1	8b 45 f8	 mov	 eax, DWORD PTR _this$[ebp]
  001a4	8b 88 78 08 00
	00		 mov	 ecx, DWORD PTR [eax+2168]
  001aa	6b c9 18	 imul	 ecx, 24			; 00000018H
  001ad	8b 55 f8	 mov	 edx, DWORD PTR _this$[ebp]
  001b0	c7 44 0a 10 00
	00 00 00	 mov	 DWORD PTR [edx+ecx+16], 0

; 44   : 	this->PvP[this->pCount].Y1		= 0;

  001b8	8b 45 f8	 mov	 eax, DWORD PTR _this$[ebp]
  001bb	8b 88 78 08 00
	00		 mov	 ecx, DWORD PTR [eax+2168]
  001c1	6b c9 18	 imul	 ecx, 24			; 00000018H
  001c4	8b 55 f8	 mov	 edx, DWORD PTR _this$[ebp]
  001c7	c7 44 0a 18 00
	00 00 00	 mov	 DWORD PTR [edx+ecx+24], 0

; 45   : 	this->PvP[this->pCount].X2		= 255;

  001cf	8b 45 f8	 mov	 eax, DWORD PTR _this$[ebp]
  001d2	8b 88 78 08 00
	00		 mov	 ecx, DWORD PTR [eax+2168]
  001d8	6b c9 18	 imul	 ecx, 24			; 00000018H
  001db	8b 55 f8	 mov	 edx, DWORD PTR _this$[ebp]
  001de	c7 44 0a 14 ff
	00 00 00	 mov	 DWORD PTR [edx+ecx+20], 255 ; 000000ffH

; 46   : 	this->PvP[this->pCount].Y2		= 255;

  001e6	8b 45 f8	 mov	 eax, DWORD PTR _this$[ebp]
  001e9	8b 88 78 08 00
	00		 mov	 ecx, DWORD PTR [eax+2168]
  001ef	6b c9 18	 imul	 ecx, 24			; 00000018H
  001f2	8b 55 f8	 mov	 edx, DWORD PTR _this$[ebp]
  001f5	c7 44 0a 1c ff
	00 00 00	 mov	 DWORD PTR [edx+ecx+28], 255 ; 000000ffH

; 47   : #endif
; 48   : 	this->pCount++;

  001fd	8b 45 f8	 mov	 eax, DWORD PTR _this$[ebp]
  00200	8b 88 78 08 00
	00		 mov	 ecx, DWORD PTR [eax+2168]
  00206	83 c1 01	 add	 ecx, 1
  00209	8b 55 f8	 mov	 edx, DWORD PTR _this$[ebp]
  0020c	89 8a 78 08 00
	00		 mov	 DWORD PTR [edx+2168], ecx
$LN4@LoadConfig:

; 49   : #endif
; 50   : #endif
; 51   : 	while(!feof(file)) // Проверяем есть ли строка в документе

  00212	8b 45 f0	 mov	 eax, DWORD PTR _file$[ebp]
  00215	50		 push	 eax
  00216	e8 00 00 00 00	 call	 _feof
  0021b	83 c4 04	 add	 esp, 4
  0021e	85 c0		 test	 eax, eax
  00220	0f 85 32 01 00
	00		 jne	 $LN3@LoadConfig

; 52   : 	{
; 53   : 		fgets(Buff,256,file);//Функция читает текущую строку

  00226	8b 45 f0	 mov	 eax, DWORD PTR _file$[ebp]
  00229	50		 push	 eax
  0022a	68 00 01 00 00	 push	 256			; 00000100H
  0022f	8d 8d f0 fe ff
	ff		 lea	 ecx, DWORD PTR _Buff$[ebp]
  00235	51		 push	 ecx
  00236	e8 00 00 00 00	 call	 _fgets
  0023b	83 c4 0c	 add	 esp, 12			; 0000000cH

; 54   : 		if(Ex_IsBadFileLine(Buff, Flag)) //Вспомогательная функция

  0023e	8d 85 ec fe ff
	ff		 lea	 eax, DWORD PTR _Flag$[ebp]
  00244	50		 push	 eax
  00245	8d 8d f0 fe ff
	ff		 lea	 ecx, DWORD PTR _Buff$[ebp]
  0024b	51		 push	 ecx
  0024c	e8 00 00 00 00	 call	 ?Ex_IsBadFileLine@@YA_NPADAAH@Z ; Ex_IsBadFileLine
  00251	83 c4 08	 add	 esp, 8
  00254	0f b6 d0	 movzx	 edx, al
  00257	85 d2		 test	 edx, edx
  00259	74 02		 je	 SHORT $LN2@LoadConfig

; 55   : 			continue;

  0025b	eb b5		 jmp	 SHORT $LN4@LoadConfig
$LN2@LoadConfig:

; 56   : 		if(Flag == 1)

  0025d	83 bd ec fe ff
	ff 01		 cmp	 DWORD PTR _Flag$[ebp], 1
  00264	0f 85 e9 00 00
	00		 jne	 $LN1@LoadConfig

; 57   : 		{
; 58   : 			int n[6];
; 59   : #if UPDATE_PVP == 1
; 60   : 			sscanf(Buff, "%d %d %d %d %d %d", &n[0], &n[1], &n[2], &n[3], &n[4], &n[5]);

  0026a	8d 85 e8 fe ff
	ff		 lea	 eax, DWORD PTR _n$218967[ebp+20]
  00270	50		 push	 eax
  00271	8d 8d e4 fe ff
	ff		 lea	 ecx, DWORD PTR _n$218967[ebp+16]
  00277	51		 push	 ecx
  00278	8d 95 e0 fe ff
	ff		 lea	 edx, DWORD PTR _n$218967[ebp+12]
  0027e	52		 push	 edx
  0027f	8d 85 dc fe ff
	ff		 lea	 eax, DWORD PTR _n$218967[ebp+8]
  00285	50		 push	 eax
  00286	8d 8d d8 fe ff
	ff		 lea	 ecx, DWORD PTR _n$218967[ebp+4]
  0028c	51		 push	 ecx
  0028d	8d 95 d4 fe ff
	ff		 lea	 edx, DWORD PTR _n$218967[ebp]
  00293	52		 push	 edx
  00294	68 00 00 00 00	 push	 OFFSET ??_C@_0BC@HDIJPDCG@?$CFd?5?$CFd?5?$CFd?5?$CFd?5?$CFd?5?$CFd?$AA@
  00299	8d 85 f0 fe ff
	ff		 lea	 eax, DWORD PTR _Buff$[ebp]
  0029f	50		 push	 eax
  002a0	e8 00 00 00 00	 call	 _sscanf
  002a5	83 c4 20	 add	 esp, 32			; 00000020H

; 61   : 			this->PvP[this->pCount].Map		= n[0];

  002a8	8b 45 f8	 mov	 eax, DWORD PTR _this$[ebp]
  002ab	8b 88 78 08 00
	00		 mov	 ecx, DWORD PTR [eax+2168]
  002b1	6b c9 18	 imul	 ecx, 24			; 00000018H
  002b4	8b 55 f8	 mov	 edx, DWORD PTR _this$[ebp]
  002b7	8b 85 d4 fe ff
	ff		 mov	 eax, DWORD PTR _n$218967[ebp]
  002bd	89 44 0a 08	 mov	 DWORD PTR [edx+ecx+8], eax

; 62   : 			this->PvP[this->pCount].Status	= n[1];

  002c1	8b 45 f8	 mov	 eax, DWORD PTR _this$[ebp]
  002c4	8b 88 78 08 00
	00		 mov	 ecx, DWORD PTR [eax+2168]
  002ca	6b c9 18	 imul	 ecx, 24			; 00000018H
  002cd	8b 55 f8	 mov	 edx, DWORD PTR _this$[ebp]
  002d0	8b 85 d8 fe ff
	ff		 mov	 eax, DWORD PTR _n$218967[ebp+4]
  002d6	89 44 0a 0c	 mov	 DWORD PTR [edx+ecx+12], eax

; 63   : 			this->PvP[this->pCount].X1		= n[2];

  002da	8b 45 f8	 mov	 eax, DWORD PTR _this$[ebp]
  002dd	8b 88 78 08 00
	00		 mov	 ecx, DWORD PTR [eax+2168]
  002e3	6b c9 18	 imul	 ecx, 24			; 00000018H
  002e6	8b 55 f8	 mov	 edx, DWORD PTR _this$[ebp]
  002e9	8b 85 dc fe ff
	ff		 mov	 eax, DWORD PTR _n$218967[ebp+8]
  002ef	89 44 0a 10	 mov	 DWORD PTR [edx+ecx+16], eax

; 64   : 			this->PvP[this->pCount].Y1		= n[3];

  002f3	8b 45 f8	 mov	 eax, DWORD PTR _this$[ebp]
  002f6	8b 88 78 08 00
	00		 mov	 ecx, DWORD PTR [eax+2168]
  002fc	6b c9 18	 imul	 ecx, 24			; 00000018H
  002ff	8b 55 f8	 mov	 edx, DWORD PTR _this$[ebp]
  00302	8b 85 e0 fe ff
	ff		 mov	 eax, DWORD PTR _n$218967[ebp+12]
  00308	89 44 0a 18	 mov	 DWORD PTR [edx+ecx+24], eax

; 65   : 			this->PvP[this->pCount].X2		= n[4];

  0030c	8b 45 f8	 mov	 eax, DWORD PTR _this$[ebp]
  0030f	8b 88 78 08 00
	00		 mov	 ecx, DWORD PTR [eax+2168]
  00315	6b c9 18	 imul	 ecx, 24			; 00000018H
  00318	8b 55 f8	 mov	 edx, DWORD PTR _this$[ebp]
  0031b	8b 85 e4 fe ff
	ff		 mov	 eax, DWORD PTR _n$218967[ebp+16]
  00321	89 44 0a 14	 mov	 DWORD PTR [edx+ecx+20], eax

; 66   : 			this->PvP[this->pCount].Y2		= n[5];

  00325	8b 45 f8	 mov	 eax, DWORD PTR _this$[ebp]
  00328	8b 88 78 08 00
	00		 mov	 ecx, DWORD PTR [eax+2168]
  0032e	6b c9 18	 imul	 ecx, 24			; 00000018H
  00331	8b 55 f8	 mov	 edx, DWORD PTR _this$[ebp]
  00334	8b 85 e8 fe ff
	ff		 mov	 eax, DWORD PTR _n$218967[ebp+20]
  0033a	89 44 0a 1c	 mov	 DWORD PTR [edx+ecx+28], eax

; 67   : #else
; 68   : 			sscanf(Buff, "%d %d", &n[0], &n[1]);
; 69   : 			this->PvP[this->pCount].Map = n[0];
; 70   : 			this->PvP[this->pCount].Status = n[1];
; 71   : #endif
; 72   : 			this->pCount++;

  0033e	8b 45 f8	 mov	 eax, DWORD PTR _this$[ebp]
  00341	8b 88 78 08 00
	00		 mov	 ecx, DWORD PTR [eax+2168]
  00347	83 c1 01	 add	 ecx, 1
  0034a	8b 55 f8	 mov	 edx, DWORD PTR _this$[ebp]
  0034d	89 8a 78 08 00
	00		 mov	 DWORD PTR [edx+2168], ecx
$LN1@LoadConfig:

; 73   : 		}
; 74   : 	}

  00353	e9 ba fe ff ff	 jmp	 $LN4@LoadConfig
$LN3@LoadConfig:

; 75   : 	fclose(file);

  00358	8b 45 f0	 mov	 eax, DWORD PTR _file$[ebp]
  0035b	50		 push	 eax
  0035c	e8 00 00 00 00	 call	 _fclose
  00361	83 c4 04	 add	 esp, 4
$LN10@LoadConfig:

; 76   : }

  00364	5f		 pop	 edi
  00365	5e		 pop	 esi
  00366	5b		 pop	 ebx
  00367	8b 4d fc	 mov	 ecx, DWORD PTR __$ArrayPad$[ebp]
  0036a	33 cd		 xor	 ecx, ebp
  0036c	e8 00 00 00 00	 call	 @__security_check_cookie@4
  00371	8b e5		 mov	 esp, ebp
  00373	5d		 pop	 ebp
  00374	c3		 ret	 0
?LoadConfig@cPvPMapSystem@@QAEXXZ ENDP			; cPvPMapSystem::LoadConfig
_TEXT	ENDS
PUBLIC	?CheckAttackMap@cPvPMapSystem@@QAE_NPAUOBJECTSTRUCT@@0@Z ; cPvPMapSystem::CheckAttackMap
; Function compile flags: /Odtp /ZI
_TEXT	SEGMENT
_i$218976 = -8						; size = 4
_this$ = -4						; size = 4
_lpObj$ = 8						; size = 4
_lpTargetObj$ = 12					; size = 4
?CheckAttackMap@cPvPMapSystem@@QAE_NPAUOBJECTSTRUCT@@0@Z PROC ; cPvPMapSystem::CheckAttackMap
; _this$ = ecx

; 79   : {

  00380	55		 push	 ebp
  00381	8b ec		 mov	 ebp, esp
  00383	83 ec 48	 sub	 esp, 72			; 00000048H
  00386	53		 push	 ebx
  00387	56		 push	 esi
  00388	57		 push	 edi
  00389	89 4d fc	 mov	 DWORD PTR _this$[ebp], ecx

; 80   : 	if(!this->EnablePvPMap) return true;

  0038c	8b 45 fc	 mov	 eax, DWORD PTR _this$[ebp]
  0038f	83 38 00	 cmp	 DWORD PTR [eax], 0
  00392	75 07		 jne	 SHORT $LN7@CheckAttac
  00394	b0 01		 mov	 al, 1
  00396	e9 dc 00 00 00	 jmp	 $LN8@CheckAttac
$LN7@CheckAttac:

; 81   : 	if(lpObj->Type == OBJ_USER && lpTargetObj->Type == OBJ_USER)

  0039b	8b 45 08	 mov	 eax, DWORD PTR _lpObj$[ebp]
  0039e	0f b7 48 68	 movzx	 ecx, WORD PTR [eax+104]
  003a2	83 f9 01	 cmp	 ecx, 1
  003a5	0f 85 ca 00 00
	00		 jne	 $LN6@CheckAttac
  003ab	8b 45 0c	 mov	 eax, DWORD PTR _lpTargetObj$[ebp]
  003ae	0f b7 48 68	 movzx	 ecx, WORD PTR [eax+104]
  003b2	83 f9 01	 cmp	 ecx, 1
  003b5	0f 85 ba 00 00
	00		 jne	 $LN6@CheckAttac

; 82   : 	{
; 83   : 		for(int i=0;i<this->pCount;i++)

  003bb	c7 45 f8 00 00
	00 00		 mov	 DWORD PTR _i$218976[ebp], 0
  003c2	eb 09		 jmp	 SHORT $LN5@CheckAttac
$LN4@CheckAttac:
  003c4	8b 45 f8	 mov	 eax, DWORD PTR _i$218976[ebp]
  003c7	83 c0 01	 add	 eax, 1
  003ca	89 45 f8	 mov	 DWORD PTR _i$218976[ebp], eax
$LN5@CheckAttac:
  003cd	8b 45 fc	 mov	 eax, DWORD PTR _this$[ebp]
  003d0	8b 4d f8	 mov	 ecx, DWORD PTR _i$218976[ebp]
  003d3	3b 88 78 08 00
	00		 cmp	 ecx, DWORD PTR [eax+2168]
  003d9	0f 8d 96 00 00
	00		 jge	 $LN6@CheckAttac

; 84   : 		{
; 85   : 			if(this->PvP[i].Map == lpObj->MapNumber && this->PvP[i].Status == 2)

  003df	8b 45 f8	 mov	 eax, DWORD PTR _i$218976[ebp]
  003e2	6b c0 18	 imul	 eax, 24			; 00000018H
  003e5	8b 4d 08	 mov	 ecx, DWORD PTR _lpObj$[ebp]
  003e8	0f b6 91 49 01
	00 00		 movzx	 edx, BYTE PTR [ecx+329]
  003ef	8b 4d fc	 mov	 ecx, DWORD PTR _this$[ebp]
  003f2	39 54 01 08	 cmp	 DWORD PTR [ecx+eax+8], edx
  003f6	75 78		 jne	 SHORT $LN2@CheckAttac
  003f8	8b 45 f8	 mov	 eax, DWORD PTR _i$218976[ebp]
  003fb	6b c0 18	 imul	 eax, 24			; 00000018H
  003fe	8b 4d fc	 mov	 ecx, DWORD PTR _this$[ebp]
  00401	83 7c 01 0c 02	 cmp	 DWORD PTR [ecx+eax+12], 2
  00406	75 68		 jne	 SHORT $LN2@CheckAttac

; 86   : 			{
; 87   : 				if(		(lpObj->X >= this->PvP[i].X1 && lpObj->X <= this->PvP[i].X2)
; 88   : 					&&	(lpObj->Y >= this->PvP[i].Y1 && lpObj->Y <= this->PvP[i].Y2) )

  00408	8b 45 08	 mov	 eax, DWORD PTR _lpObj$[ebp]
  0040b	0f bf 88 44 01
	00 00		 movsx	 ecx, WORD PTR [eax+324]
  00412	8b 55 f8	 mov	 edx, DWORD PTR _i$218976[ebp]
  00415	6b d2 18	 imul	 edx, 24			; 00000018H
  00418	8b 45 fc	 mov	 eax, DWORD PTR _this$[ebp]
  0041b	3b 4c 10 10	 cmp	 ecx, DWORD PTR [eax+edx+16]
  0041f	7c 4f		 jl	 SHORT $LN2@CheckAttac
  00421	8b 45 08	 mov	 eax, DWORD PTR _lpObj$[ebp]
  00424	0f bf 88 44 01
	00 00		 movsx	 ecx, WORD PTR [eax+324]
  0042b	8b 55 f8	 mov	 edx, DWORD PTR _i$218976[ebp]
  0042e	6b d2 18	 imul	 edx, 24			; 00000018H
  00431	8b 45 fc	 mov	 eax, DWORD PTR _this$[ebp]
  00434	3b 4c 10 14	 cmp	 ecx, DWORD PTR [eax+edx+20]
  00438	7f 36		 jg	 SHORT $LN2@CheckAttac
  0043a	8b 45 08	 mov	 eax, DWORD PTR _lpObj$[ebp]
  0043d	0f bf 88 46 01
	00 00		 movsx	 ecx, WORD PTR [eax+326]
  00444	8b 55 f8	 mov	 edx, DWORD PTR _i$218976[ebp]
  00447	6b d2 18	 imul	 edx, 24			; 00000018H
  0044a	8b 45 fc	 mov	 eax, DWORD PTR _this$[ebp]
  0044d	3b 4c 10 18	 cmp	 ecx, DWORD PTR [eax+edx+24]
  00451	7c 1d		 jl	 SHORT $LN2@CheckAttac
  00453	8b 45 08	 mov	 eax, DWORD PTR _lpObj$[ebp]
  00456	0f bf 88 46 01
	00 00		 movsx	 ecx, WORD PTR [eax+326]
  0045d	8b 55 f8	 mov	 edx, DWORD PTR _i$218976[ebp]
  00460	6b d2 18	 imul	 edx, 24			; 00000018H
  00463	8b 45 fc	 mov	 eax, DWORD PTR _this$[ebp]
  00466	3b 4c 10 1c	 cmp	 ecx, DWORD PTR [eax+edx+28]
  0046a	7f 04		 jg	 SHORT $LN2@CheckAttac

; 89   : 				{
; 90   : 					return false;

  0046c	32 c0		 xor	 al, al
  0046e	eb 07		 jmp	 SHORT $LN8@CheckAttac
$LN2@CheckAttac:

; 91   : 				}
; 92   : 			}
; 93   : 		}

  00470	e9 4f ff ff ff	 jmp	 $LN4@CheckAttac
$LN6@CheckAttac:

; 94   : 	}
; 95   : 	return true;

  00475	b0 01		 mov	 al, 1
$LN8@CheckAttac:

; 96   : }

  00477	5f		 pop	 edi
  00478	5e		 pop	 esi
  00479	5b		 pop	 ebx
  0047a	8b e5		 mov	 esp, ebp
  0047c	5d		 pop	 ebp
  0047d	c2 08 00	 ret	 8
?CheckAttackMap@cPvPMapSystem@@QAE_NPAUOBJECTSTRUCT@@0@Z ENDP ; cPvPMapSystem::CheckAttackMap
_TEXT	ENDS
PUBLIC	?CheckPkMap@cPvPMapSystem@@QAE_NPAUOBJECTSTRUCT@@0@Z ; cPvPMapSystem::CheckPkMap
; Function compile flags: /Odtp /ZI
_TEXT	SEGMENT
_i$218991 = -8						; size = 4
_this$ = -4						; size = 4
_lpObj$ = 8						; size = 4
_lpTargetObj$ = 12					; size = 4
?CheckPkMap@cPvPMapSystem@@QAE_NPAUOBJECTSTRUCT@@0@Z PROC ; cPvPMapSystem::CheckPkMap
; _this$ = ecx

; 99   : {

  00480	55		 push	 ebp
  00481	8b ec		 mov	 ebp, esp
  00483	83 ec 48	 sub	 esp, 72			; 00000048H
  00486	53		 push	 ebx
  00487	56		 push	 esi
  00488	57		 push	 edi
  00489	89 4d fc	 mov	 DWORD PTR _this$[ebp], ecx

; 100  : 	if(!this->EnablePvPMap) return true;

  0048c	8b 45 fc	 mov	 eax, DWORD PTR _this$[ebp]
  0048f	83 38 00	 cmp	 DWORD PTR [eax], 0
  00492	75 07		 jne	 SHORT $LN9@CheckPkMap
  00494	b0 01		 mov	 al, 1
  00496	e9 4e 01 00 00	 jmp	 $LN10@CheckPkMap
$LN9@CheckPkMap:

; 101  : 	if(lpObj->Type == OBJ_USER && lpTargetObj->Type == OBJ_USER)

  0049b	8b 45 08	 mov	 eax, DWORD PTR _lpObj$[ebp]
  0049e	0f b7 48 68	 movzx	 ecx, WORD PTR [eax+104]
  004a2	83 f9 01	 cmp	 ecx, 1
  004a5	0f 85 3c 01 00
	00		 jne	 $LN8@CheckPkMap
  004ab	8b 45 0c	 mov	 eax, DWORD PTR _lpTargetObj$[ebp]
  004ae	0f b7 48 68	 movzx	 ecx, WORD PTR [eax+104]
  004b2	83 f9 01	 cmp	 ecx, 1
  004b5	0f 85 2c 01 00
	00		 jne	 $LN8@CheckPkMap

; 102  : 	{
; 103  : 		if(this->EnableLoraRing)

  004bb	8b 45 fc	 mov	 eax, DWORD PTR _this$[ebp]
  004be	83 78 04 00	 cmp	 DWORD PTR [eax+4], 0
  004c2	74 69		 je	 SHORT $LN7@CheckPkMap

; 104  : 		{
; 105  : 			if(lpObj->MapNumber==0 && lpObj->X >= this->m_LoraRingX1 && lpObj->X <= this->m_LoraRingX2 && lpObj->Y >= this->m_LoraRingY1 && lpObj->Y <= this->m_LoraRingY2) return false;

  004c4	8b 45 08	 mov	 eax, DWORD PTR _lpObj$[ebp]
  004c7	0f b6 88 49 01
	00 00		 movzx	 ecx, BYTE PTR [eax+329]
  004ce	85 c9		 test	 ecx, ecx
  004d0	75 5b		 jne	 SHORT $LN7@CheckPkMap
  004d2	8b 45 08	 mov	 eax, DWORD PTR _lpObj$[ebp]
  004d5	0f bf 88 44 01
	00 00		 movsx	 ecx, WORD PTR [eax+324]
  004dc	8b 55 fc	 mov	 edx, DWORD PTR _this$[ebp]
  004df	3b 8a 7c 08 00
	00		 cmp	 ecx, DWORD PTR [edx+2172]
  004e5	7c 46		 jl	 SHORT $LN7@CheckPkMap
  004e7	8b 45 08	 mov	 eax, DWORD PTR _lpObj$[ebp]
  004ea	0f bf 88 44 01
	00 00		 movsx	 ecx, WORD PTR [eax+324]
  004f1	8b 55 fc	 mov	 edx, DWORD PTR _this$[ebp]
  004f4	3b 8a 84 08 00
	00		 cmp	 ecx, DWORD PTR [edx+2180]
  004fa	7f 31		 jg	 SHORT $LN7@CheckPkMap
  004fc	8b 45 08	 mov	 eax, DWORD PTR _lpObj$[ebp]
  004ff	0f bf 88 46 01
	00 00		 movsx	 ecx, WORD PTR [eax+326]
  00506	8b 55 fc	 mov	 edx, DWORD PTR _this$[ebp]
  00509	3b 8a 80 08 00
	00		 cmp	 ecx, DWORD PTR [edx+2176]
  0050f	7c 1c		 jl	 SHORT $LN7@CheckPkMap
  00511	8b 45 08	 mov	 eax, DWORD PTR _lpObj$[ebp]
  00514	0f bf 88 46 01
	00 00		 movsx	 ecx, WORD PTR [eax+326]
  0051b	8b 55 fc	 mov	 edx, DWORD PTR _this$[ebp]
  0051e	3b 8a 88 08 00
	00		 cmp	 ecx, DWORD PTR [edx+2184]
  00524	7f 07		 jg	 SHORT $LN7@CheckPkMap
  00526	32 c0		 xor	 al, al
  00528	e9 bc 00 00 00	 jmp	 $LN10@CheckPkMap
$LN7@CheckPkMap:

; 106  : 		}
; 107  : 		for(int i=0;i<this->pCount;i++)

  0052d	c7 45 f8 00 00
	00 00		 mov	 DWORD PTR _i$218991[ebp], 0
  00534	eb 09		 jmp	 SHORT $LN5@CheckPkMap
$LN4@CheckPkMap:
  00536	8b 45 f8	 mov	 eax, DWORD PTR _i$218991[ebp]
  00539	83 c0 01	 add	 eax, 1
  0053c	89 45 f8	 mov	 DWORD PTR _i$218991[ebp], eax
$LN5@CheckPkMap:
  0053f	8b 45 fc	 mov	 eax, DWORD PTR _this$[ebp]
  00542	8b 4d f8	 mov	 ecx, DWORD PTR _i$218991[ebp]
  00545	3b 88 78 08 00
	00		 cmp	 ecx, DWORD PTR [eax+2168]
  0054b	0f 8d 96 00 00
	00		 jge	 $LN8@CheckPkMap

; 108  : 		{
; 109  : 			if(this->PvP[i].Map == lpObj->MapNumber && this->PvP[i].Status == 1)

  00551	8b 45 f8	 mov	 eax, DWORD PTR _i$218991[ebp]
  00554	6b c0 18	 imul	 eax, 24			; 00000018H
  00557	8b 4d 08	 mov	 ecx, DWORD PTR _lpObj$[ebp]
  0055a	0f b6 91 49 01
	00 00		 movzx	 edx, BYTE PTR [ecx+329]
  00561	8b 4d fc	 mov	 ecx, DWORD PTR _this$[ebp]
  00564	39 54 01 08	 cmp	 DWORD PTR [ecx+eax+8], edx
  00568	75 78		 jne	 SHORT $LN2@CheckPkMap
  0056a	8b 45 f8	 mov	 eax, DWORD PTR _i$218991[ebp]
  0056d	6b c0 18	 imul	 eax, 24			; 00000018H
  00570	8b 4d fc	 mov	 ecx, DWORD PTR _this$[ebp]
  00573	83 7c 01 0c 01	 cmp	 DWORD PTR [ecx+eax+12], 1
  00578	75 68		 jne	 SHORT $LN2@CheckPkMap

; 110  : 			{
; 111  : 				if(		(lpObj->X >= this->PvP[i].X1 && lpObj->X <= this->PvP[i].X2)
; 112  : 					&&	(lpObj->Y >= this->PvP[i].Y1 && lpObj->Y <= this->PvP[i].Y2) )

  0057a	8b 45 08	 mov	 eax, DWORD PTR _lpObj$[ebp]
  0057d	0f bf 88 44 01
	00 00		 movsx	 ecx, WORD PTR [eax+324]
  00584	8b 55 f8	 mov	 edx, DWORD PTR _i$218991[ebp]
  00587	6b d2 18	 imul	 edx, 24			; 00000018H
  0058a	8b 45 fc	 mov	 eax, DWORD PTR _this$[ebp]
  0058d	3b 4c 10 10	 cmp	 ecx, DWORD PTR [eax+edx+16]
  00591	7c 4f		 jl	 SHORT $LN2@CheckPkMap
  00593	8b 45 08	 mov	 eax, DWORD PTR _lpObj$[ebp]
  00596	0f bf 88 44 01
	00 00		 movsx	 ecx, WORD PTR [eax+324]
  0059d	8b 55 f8	 mov	 edx, DWORD PTR _i$218991[ebp]
  005a0	6b d2 18	 imul	 edx, 24			; 00000018H
  005a3	8b 45 fc	 mov	 eax, DWORD PTR _this$[ebp]
  005a6	3b 4c 10 14	 cmp	 ecx, DWORD PTR [eax+edx+20]
  005aa	7f 36		 jg	 SHORT $LN2@CheckPkMap
  005ac	8b 45 08	 mov	 eax, DWORD PTR _lpObj$[ebp]
  005af	0f bf 88 46 01
	00 00		 movsx	 ecx, WORD PTR [eax+326]
  005b6	8b 55 f8	 mov	 edx, DWORD PTR _i$218991[ebp]
  005b9	6b d2 18	 imul	 edx, 24			; 00000018H
  005bc	8b 45 fc	 mov	 eax, DWORD PTR _this$[ebp]
  005bf	3b 4c 10 18	 cmp	 ecx, DWORD PTR [eax+edx+24]
  005c3	7c 1d		 jl	 SHORT $LN2@CheckPkMap
  005c5	8b 45 08	 mov	 eax, DWORD PTR _lpObj$[ebp]
  005c8	0f bf 88 46 01
	00 00		 movsx	 ecx, WORD PTR [eax+326]
  005cf	8b 55 f8	 mov	 edx, DWORD PTR _i$218991[ebp]
  005d2	6b d2 18	 imul	 edx, 24			; 00000018H
  005d5	8b 45 fc	 mov	 eax, DWORD PTR _this$[ebp]
  005d8	3b 4c 10 1c	 cmp	 ecx, DWORD PTR [eax+edx+28]
  005dc	7f 04		 jg	 SHORT $LN2@CheckPkMap

; 113  : 				{
; 114  : 					return false;

  005de	32 c0		 xor	 al, al
  005e0	eb 07		 jmp	 SHORT $LN10@CheckPkMap
$LN2@CheckPkMap:

; 115  : 				}
; 116  : 			}
; 117  : 		}

  005e2	e9 4f ff ff ff	 jmp	 $LN4@CheckPkMap
$LN8@CheckPkMap:

; 118  : 	}
; 119  : 	return true;

  005e7	b0 01		 mov	 al, 1
$LN10@CheckPkMap:

; 120  : }

  005e9	5f		 pop	 edi
  005ea	5e		 pop	 esi
  005eb	5b		 pop	 ebx
  005ec	8b e5		 mov	 esp, ebp
  005ee	5d		 pop	 ebp
  005ef	c2 08 00	 ret	 8
?CheckPkMap@cPvPMapSystem@@QAE_NPAUOBJECTSTRUCT@@0@Z ENDP ; cPvPMapSystem::CheckPkMap
_TEXT	ENDS
PUBLIC	?CheckPvPMap@cPvPMapSystem@@QAE_NPAUOBJECTSTRUCT@@@Z ; cPvPMapSystem::CheckPvPMap
; Function compile flags: /Odtp /ZI
_TEXT	SEGMENT
_i$219003 = -8						; size = 4
_this$ = -4						; size = 4
_lpObj$ = 8						; size = 4
?CheckPvPMap@cPvPMapSystem@@QAE_NPAUOBJECTSTRUCT@@@Z PROC ; cPvPMapSystem::CheckPvPMap
; _this$ = ecx

; 123  : {

  00600	55		 push	 ebp
  00601	8b ec		 mov	 ebp, esp
  00603	83 ec 48	 sub	 esp, 72			; 00000048H
  00606	53		 push	 ebx
  00607	56		 push	 esi
  00608	57		 push	 edi
  00609	89 4d fc	 mov	 DWORD PTR _this$[ebp], ecx

; 124  : 	if(!this->EnablePvPMap) return true;

  0060c	8b 45 fc	 mov	 eax, DWORD PTR _this$[ebp]
  0060f	83 38 00	 cmp	 DWORD PTR [eax], 0
  00612	75 07		 jne	 SHORT $LN7@CheckPvPMa
  00614	b0 01		 mov	 al, 1
  00616	e9 cc 00 00 00	 jmp	 $LN8@CheckPvPMa
$LN7@CheckPvPMa:

; 125  : 
; 126  : 	if(lpObj->Type == OBJ_USER)

  0061b	8b 45 08	 mov	 eax, DWORD PTR _lpObj$[ebp]
  0061e	0f b7 48 68	 movzx	 ecx, WORD PTR [eax+104]
  00622	83 f9 01	 cmp	 ecx, 1
  00625	0f 85 ba 00 00
	00		 jne	 $LN6@CheckPvPMa

; 127  : 	{
; 128  : 		for(int i=0;i<this->pCount;i++)

  0062b	c7 45 f8 00 00
	00 00		 mov	 DWORD PTR _i$219003[ebp], 0
  00632	eb 09		 jmp	 SHORT $LN5@CheckPvPMa
$LN4@CheckPvPMa:
  00634	8b 45 f8	 mov	 eax, DWORD PTR _i$219003[ebp]
  00637	83 c0 01	 add	 eax, 1
  0063a	89 45 f8	 mov	 DWORD PTR _i$219003[ebp], eax
$LN5@CheckPvPMa:
  0063d	8b 45 fc	 mov	 eax, DWORD PTR _this$[ebp]
  00640	8b 4d f8	 mov	 ecx, DWORD PTR _i$219003[ebp]
  00643	3b 88 78 08 00
	00		 cmp	 ecx, DWORD PTR [eax+2168]
  00649	0f 8d 96 00 00
	00		 jge	 $LN6@CheckPvPMa

; 129  : 		{
; 130  : 			if(this->PvP[i].Map == lpObj->MapNumber && this->PvP[i].Status == 2)

  0064f	8b 45 f8	 mov	 eax, DWORD PTR _i$219003[ebp]
  00652	6b c0 18	 imul	 eax, 24			; 00000018H
  00655	8b 4d 08	 mov	 ecx, DWORD PTR _lpObj$[ebp]
  00658	0f b6 91 49 01
	00 00		 movzx	 edx, BYTE PTR [ecx+329]
  0065f	8b 4d fc	 mov	 ecx, DWORD PTR _this$[ebp]
  00662	39 54 01 08	 cmp	 DWORD PTR [ecx+eax+8], edx
  00666	75 78		 jne	 SHORT $LN2@CheckPvPMa
  00668	8b 45 f8	 mov	 eax, DWORD PTR _i$219003[ebp]
  0066b	6b c0 18	 imul	 eax, 24			; 00000018H
  0066e	8b 4d fc	 mov	 ecx, DWORD PTR _this$[ebp]
  00671	83 7c 01 0c 02	 cmp	 DWORD PTR [ecx+eax+12], 2
  00676	75 68		 jne	 SHORT $LN2@CheckPvPMa

; 131  : 			{
; 132  : 				if(	(lpObj->X >= this->PvP[i].X1 && lpObj->X <= this->PvP[i].X2) &&	
; 133  : 					(lpObj->Y >= this->PvP[i].Y1 && lpObj->Y <= this->PvP[i].Y2) )

  00678	8b 45 08	 mov	 eax, DWORD PTR _lpObj$[ebp]
  0067b	0f bf 88 44 01
	00 00		 movsx	 ecx, WORD PTR [eax+324]
  00682	8b 55 f8	 mov	 edx, DWORD PTR _i$219003[ebp]
  00685	6b d2 18	 imul	 edx, 24			; 00000018H
  00688	8b 45 fc	 mov	 eax, DWORD PTR _this$[ebp]
  0068b	3b 4c 10 10	 cmp	 ecx, DWORD PTR [eax+edx+16]
  0068f	7c 4f		 jl	 SHORT $LN2@CheckPvPMa
  00691	8b 45 08	 mov	 eax, DWORD PTR _lpObj$[ebp]
  00694	0f bf 88 44 01
	00 00		 movsx	 ecx, WORD PTR [eax+324]
  0069b	8b 55 f8	 mov	 edx, DWORD PTR _i$219003[ebp]
  0069e	6b d2 18	 imul	 edx, 24			; 00000018H
  006a1	8b 45 fc	 mov	 eax, DWORD PTR _this$[ebp]
  006a4	3b 4c 10 14	 cmp	 ecx, DWORD PTR [eax+edx+20]
  006a8	7f 36		 jg	 SHORT $LN2@CheckPvPMa
  006aa	8b 45 08	 mov	 eax, DWORD PTR _lpObj$[ebp]
  006ad	0f bf 88 46 01
	00 00		 movsx	 ecx, WORD PTR [eax+326]
  006b4	8b 55 f8	 mov	 edx, DWORD PTR _i$219003[ebp]
  006b7	6b d2 18	 imul	 edx, 24			; 00000018H
  006ba	8b 45 fc	 mov	 eax, DWORD PTR _this$[ebp]
  006bd	3b 4c 10 18	 cmp	 ecx, DWORD PTR [eax+edx+24]
  006c1	7c 1d		 jl	 SHORT $LN2@CheckPvPMa
  006c3	8b 45 08	 mov	 eax, DWORD PTR _lpObj$[ebp]
  006c6	0f bf 88 46 01
	00 00		 movsx	 ecx, WORD PTR [eax+326]
  006cd	8b 55 f8	 mov	 edx, DWORD PTR _i$219003[ebp]
  006d0	6b d2 18	 imul	 edx, 24			; 00000018H
  006d3	8b 45 fc	 mov	 eax, DWORD PTR _this$[ebp]
  006d6	3b 4c 10 1c	 cmp	 ecx, DWORD PTR [eax+edx+28]
  006da	7f 04		 jg	 SHORT $LN2@CheckPvPMa

; 134  : 				{
; 135  : 					return false;

  006dc	32 c0		 xor	 al, al
  006de	eb 07		 jmp	 SHORT $LN8@CheckPvPMa
$LN2@CheckPvPMa:

; 136  : 				}
; 137  : 			}
; 138  : 		}

  006e0	e9 4f ff ff ff	 jmp	 $LN4@CheckPvPMa
$LN6@CheckPvPMa:

; 139  : 	}
; 140  : 
; 141  : 	return true;

  006e5	b0 01		 mov	 al, 1
$LN8@CheckPvPMa:

; 142  : }

  006e7	5f		 pop	 edi
  006e8	5e		 pop	 esi
  006e9	5b		 pop	 ebx
  006ea	8b e5		 mov	 esp, ebp
  006ec	5d		 pop	 ebp
  006ed	c2 04 00	 ret	 4
?CheckPvPMap@cPvPMapSystem@@QAE_NPAUOBJECTSTRUCT@@@Z ENDP ; cPvPMapSystem::CheckPvPMap
_TEXT	ENDS
END
