; Listing generated by Microsoft (R) Optimizing Compiler Version 16.00.40219.01 

	TITLE	D:\Projects\ExTeam6.3\Source\GameServer\GameServer\QuestInfo.cpp
	.686P
	.XMM
	include listing.inc
	.model	flat

INCLUDELIB LIBCMT
INCLUDELIB OLDNAMES

PUBLIC	?QuestBitMask@@3PAEA				; QuestBitMask
PUBLIC	?sQuestString@@3PAY0DC@DA			; sQuestString
_BSS	SEGMENT
?QuestBitMask@@3PAEA DB 08H DUP (?)			; QuestBitMask
_BSS	ENDS
_DATA	SEGMENT
_g_iNpcUpDfLevel_CGATE DD 01H
	DD	02H
	DD	02dc6c0H
	DD	02H
	DD	03H
	DD	02dc6c0H
	DD	03H
	DD	04H
	DD	02dc6c0H
_g_iNpcUpDfLevel_CSTATUE DD 01H
	DD	03H
	DD	02dc6c0H
	DD	02H
	DD	05H
	DD	02dc6c0H
	DD	03H
	DD	07H
	DD	02dc6c0H
_g_iNpcUpMaxHP_CGATE DD 02625a0H
	DD	02H
	DD	0f4240H
	DD	03567e0H
	DD	03H
	DD	0f4240H
	DD	04f5880H
	DD	04H
	DD	0f4240H
_g_iNpcUpMaxHP_CSTATUE DD 02191c0H
	DD	03H
	DD	0f4240H
	DD	033e140H
	DD	05H
	DD	0f4240H
	DD	04c4b40H
	DD	07H
	DD	0f4240H
_g_iNpcUpRgLevel_CSTATUE DD 01H
	DD	03H
	DD	04c4b40H
	DD	02H
	DD	05H
	DD	04c4b40H
	DD	03H
	DD	07H
	DD	04c4b40H
_g_iCsUserReSpawnArea DD 023H
	DD	011H
	DD	090H
	DD	030H
	DD	04aH
	DD	090H
	DD	073H
	DD	09aH
	DD	023H
	DD	011H
	DD	090H
	DD	030H
_g_iNpcDefense_CGATE DD 064H
	DD	0b4H
	DD	012cH
	DD	0208H
_g_iNpcDefense_CSTATUE DD 050H
	DD	0b4H
	DD	0154H
	DD	0226H
_g_iCastleWallStepAxisY DD 071H
	DD	0a0H
	DD	0cbH
?sQuestString@@3PAY0DC@DA DB 'None', 00H		; sQuestString
	ORG $+45
	DB	'Accept', 00H
	ORG $+43
	DB	'Clear', 00H
	ORG $+44
	DB	'None', 00H
	ORG $+45
_DATA	ENDS
PUBLIC	??_H@YGXPAXIHP6EPAX0@Z@Z			; `vector constructor iterator'
; Function compile flags: /Odtp /ZI
;	COMDAT ??_H@YGXPAXIHP6EPAX0@Z@Z
_TEXT	SEGMENT
___t$ = 8						; size = 4
___s$ = 12						; size = 4
___n$ = 16						; size = 4
___f$ = 20						; size = 4
??_H@YGXPAXIHP6EPAX0@Z@Z PROC				; `vector constructor iterator', COMDAT
  00000	55		 push	 ebp
  00001	8b ec		 mov	 ebp, esp
  00003	83 ec 40	 sub	 esp, 64			; 00000040H
  00006	53		 push	 ebx
  00007	56		 push	 esi
  00008	57		 push	 edi
$LN2@vector:
  00009	8b 45 10	 mov	 eax, DWORD PTR ___n$[ebp]
  0000c	83 e8 01	 sub	 eax, 1
  0000f	89 45 10	 mov	 DWORD PTR ___n$[ebp], eax
  00012	78 11		 js	 SHORT $LN3@vector
  00014	8b 4d 08	 mov	 ecx, DWORD PTR ___t$[ebp]
  00017	ff 55 14	 call	 DWORD PTR ___f$[ebp]
  0001a	8b 45 08	 mov	 eax, DWORD PTR ___t$[ebp]
  0001d	03 45 0c	 add	 eax, DWORD PTR ___s$[ebp]
  00020	89 45 08	 mov	 DWORD PTR ___t$[ebp], eax
  00023	eb e4		 jmp	 SHORT $LN2@vector
$LN3@vector:
  00025	5f		 pop	 edi
  00026	5e		 pop	 esi
  00027	5b		 pop	 ebx
  00028	8b e5		 mov	 esp, ebp
  0002a	5d		 pop	 ebp
  0002b	c2 10 00	 ret	 16			; 00000010H
??_H@YGXPAXIHP6EPAX0@Z@Z ENDP				; `vector constructor iterator'
_TEXT	ENDS
PUBLIC	?Init@CQuestInfo@@QAEXXZ			; CQuestInfo::Init
PUBLIC	??_7CQuestInfo@@6B@				; CQuestInfo::`vftable'
PUBLIC	??0CQuestInfo@@QAE@XZ				; CQuestInfo::CQuestInfo
PUBLIC	??_R4CQuestInfo@@6B@				; CQuestInfo::`RTTI Complete Object Locator'
PUBLIC	??_R0?AVCQuestInfo@@@8				; CQuestInfo `RTTI Type Descriptor'
PUBLIC	??_R3CQuestInfo@@8				; CQuestInfo::`RTTI Class Hierarchy Descriptor'
PUBLIC	??_R2CQuestInfo@@8				; CQuestInfo::`RTTI Base Class Array'
PUBLIC	??_R1A@?0A@EA@CQuestInfo@@8			; CQuestInfo::`RTTI Base Class Descriptor at (0,-1,0,64)'
EXTRN	??_7type_info@@6B@:QWORD			; type_info::`vftable'
EXTRN	??_ECQuestInfo@@UAEPAXI@Z:PROC			; CQuestInfo::`vector deleting destructor'
;	COMDAT ??_R1A@?0A@EA@CQuestInfo@@8
; File d:\projects\exteam6.3\source\gameserver\gameserver\questinfo.cpp
rdata$r	SEGMENT
??_R1A@?0A@EA@CQuestInfo@@8 DD FLAT:??_R0?AVCQuestInfo@@@8 ; CQuestInfo::`RTTI Base Class Descriptor at (0,-1,0,64)'
	DD	00H
	DD	00H
	DD	0ffffffffH
	DD	00H
	DD	040H
	DD	FLAT:??_R3CQuestInfo@@8
rdata$r	ENDS
;	COMDAT ??_R2CQuestInfo@@8
rdata$r	SEGMENT
??_R2CQuestInfo@@8 DD FLAT:??_R1A@?0A@EA@CQuestInfo@@8	; CQuestInfo::`RTTI Base Class Array'
rdata$r	ENDS
;	COMDAT ??_R3CQuestInfo@@8
rdata$r	SEGMENT
??_R3CQuestInfo@@8 DD 00H				; CQuestInfo::`RTTI Class Hierarchy Descriptor'
	DD	00H
	DD	01H
	DD	FLAT:??_R2CQuestInfo@@8
rdata$r	ENDS
;	COMDAT ??_R0?AVCQuestInfo@@@8
_DATA	SEGMENT
??_R0?AVCQuestInfo@@@8 DD FLAT:??_7type_info@@6B@	; CQuestInfo `RTTI Type Descriptor'
	DD	00H
	DB	'.?AVCQuestInfo@@', 00H
_DATA	ENDS
;	COMDAT ??_R4CQuestInfo@@6B@
rdata$r	SEGMENT
??_R4CQuestInfo@@6B@ DD 00H				; CQuestInfo::`RTTI Complete Object Locator'
	DD	00H
	DD	00H
	DD	FLAT:??_R0?AVCQuestInfo@@@8
	DD	FLAT:??_R3CQuestInfo@@8
rdata$r	ENDS
;	COMDAT ??_7CQuestInfo@@6B@
CONST	SEGMENT
??_7CQuestInfo@@6B@ DD FLAT:??_R4CQuestInfo@@6B@	; CQuestInfo::`vftable'
	DD	FLAT:??_ECQuestInfo@@UAEPAXI@Z
; Function compile flags: /Odtp /ZI
CONST	ENDS
_TEXT	SEGMENT
_this$ = -4						; size = 4
??0CQuestInfo@@QAE@XZ PROC				; CQuestInfo::CQuestInfo
; _this$ = ecx

; 27   : {

  00000	55		 push	 ebp
  00001	8b ec		 mov	 ebp, esp
  00003	83 ec 44	 sub	 esp, 68			; 00000044H
  00006	53		 push	 ebx
  00007	56		 push	 esi
  00008	57		 push	 edi
  00009	89 4d fc	 mov	 DWORD PTR _this$[ebp], ecx
  0000c	8b 45 fc	 mov	 eax, DWORD PTR _this$[ebp]
  0000f	c7 00 00 00 00
	00		 mov	 DWORD PTR [eax], OFFSET ??_7CQuestInfo@@6B@

; 28   : 	QuestBitMask[0]=0xFC;

  00015	c6 05 00 00 00
	00 fc		 mov	 BYTE PTR ?QuestBitMask@@3PAEA, 252 ; 000000fcH

; 29   : 	QuestBitMask[1]=0xFC;

  0001c	c6 05 01 00 00
	00 fc		 mov	 BYTE PTR ?QuestBitMask@@3PAEA+1, 252 ; 000000fcH

; 30   : 	QuestBitMask[2]=0xF3;

  00023	c6 05 02 00 00
	00 f3		 mov	 BYTE PTR ?QuestBitMask@@3PAEA+2, 243 ; 000000f3H

; 31   : 	QuestBitMask[3]=0xF3;

  0002a	c6 05 03 00 00
	00 f3		 mov	 BYTE PTR ?QuestBitMask@@3PAEA+3, 243 ; 000000f3H

; 32   : 	QuestBitMask[4]=0xCF;

  00031	c6 05 04 00 00
	00 cf		 mov	 BYTE PTR ?QuestBitMask@@3PAEA+4, 207 ; 000000cfH

; 33   : 	QuestBitMask[5]=0xCF;

  00038	c6 05 05 00 00
	00 cf		 mov	 BYTE PTR ?QuestBitMask@@3PAEA+5, 207 ; 000000cfH

; 34   : 	QuestBitMask[6]=0x3F;

  0003f	c6 05 06 00 00
	00 3f		 mov	 BYTE PTR ?QuestBitMask@@3PAEA+6, 63 ; 0000003fH

; 35   : 	QuestBitMask[7]=0x3F;

  00046	c6 05 07 00 00
	00 3f		 mov	 BYTE PTR ?QuestBitMask@@3PAEA+7, 63 ; 0000003fH

; 36   : 
; 37   : 	this->Init();

  0004d	8b 4d fc	 mov	 ecx, DWORD PTR _this$[ebp]
  00050	e8 00 00 00 00	 call	 ?Init@CQuestInfo@@QAEXXZ ; CQuestInfo::Init

; 38   : }

  00055	8b 45 fc	 mov	 eax, DWORD PTR _this$[ebp]
  00058	5f		 pop	 edi
  00059	5e		 pop	 esi
  0005a	5b		 pop	 ebx
  0005b	8b e5		 mov	 esp, ebp
  0005d	5d		 pop	 ebp
  0005e	c3		 ret	 0
??0CQuestInfo@@QAE@XZ ENDP				; CQuestInfo::CQuestInfo
_TEXT	ENDS
PUBLIC	??1CQuestInfo@@UAE@XZ				; CQuestInfo::~CQuestInfo
EXTRN	??3@YAXPAX@Z:PROC				; operator delete
; Function compile flags: /Odtp /ZI
;	COMDAT ??_GCQuestInfo@@UAEPAXI@Z
_TEXT	SEGMENT
_this$ = -4						; size = 4
___flags$ = 8						; size = 4
??_GCQuestInfo@@UAEPAXI@Z PROC				; CQuestInfo::`scalar deleting destructor', COMDAT
; _this$ = ecx
  00000	55		 push	 ebp
  00001	8b ec		 mov	 ebp, esp
  00003	83 ec 44	 sub	 esp, 68			; 00000044H
  00006	53		 push	 ebx
  00007	56		 push	 esi
  00008	57		 push	 edi
  00009	89 4d fc	 mov	 DWORD PTR _this$[ebp], ecx
  0000c	8b 4d fc	 mov	 ecx, DWORD PTR _this$[ebp]
  0000f	e8 00 00 00 00	 call	 ??1CQuestInfo@@UAE@XZ	; CQuestInfo::~CQuestInfo
  00014	8b 45 08	 mov	 eax, DWORD PTR ___flags$[ebp]
  00017	83 e0 01	 and	 eax, 1
  0001a	74 0c		 je	 SHORT $LN1@scalar
  0001c	8b 45 fc	 mov	 eax, DWORD PTR _this$[ebp]
  0001f	50		 push	 eax
  00020	e8 00 00 00 00	 call	 ??3@YAXPAX@Z		; operator delete
  00025	83 c4 04	 add	 esp, 4
$LN1@scalar:
  00028	8b 45 fc	 mov	 eax, DWORD PTR _this$[ebp]
  0002b	5f		 pop	 edi
  0002c	5e		 pop	 esi
  0002d	5b		 pop	 ebx
  0002e	8b e5		 mov	 esp, ebp
  00030	5d		 pop	 ebp
  00031	c2 04 00	 ret	 4
??_GCQuestInfo@@UAEPAXI@Z ENDP				; CQuestInfo::`scalar deleting destructor'
; Function compile flags: /Odtp /ZI
_TEXT	ENDS
_TEXT	SEGMENT
_this$ = -4						; size = 4
??1CQuestInfo@@UAE@XZ PROC				; CQuestInfo::~CQuestInfo
; _this$ = ecx

; 42   : {

  00060	55		 push	 ebp
  00061	8b ec		 mov	 ebp, esp
  00063	83 ec 44	 sub	 esp, 68			; 00000044H
  00066	53		 push	 ebx
  00067	56		 push	 esi
  00068	57		 push	 edi
  00069	89 4d fc	 mov	 DWORD PTR _this$[ebp], ecx
  0006c	8b 45 fc	 mov	 eax, DWORD PTR _this$[ebp]
  0006f	c7 00 00 00 00
	00		 mov	 DWORD PTR [eax], OFFSET ??_7CQuestInfo@@6B@

; 43   : 	return;
; 44   : }

  00075	5f		 pop	 edi
  00076	5e		 pop	 esi
  00077	5b		 pop	 ebx
  00078	8b e5		 mov	 esp, ebp
  0007a	5d		 pop	 ebp
  0007b	c3		 ret	 0
??1CQuestInfo@@UAE@XZ ENDP				; CQuestInfo::~CQuestInfo
_TEXT	ENDS
EXTRN	_memset:PROC
; Function compile flags: /Odtp /ZI
_TEXT	SEGMENT
_i$231525 = -8						; size = 4
_this$ = -4						; size = 4
?Init@CQuestInfo@@QAEXXZ PROC				; CQuestInfo::Init
; _this$ = ecx

; 47   : {

  00080	55		 push	 ebp
  00081	8b ec		 mov	 ebp, esp
  00083	83 ec 48	 sub	 esp, 72			; 00000048H
  00086	53		 push	 ebx
  00087	56		 push	 esi
  00088	57		 push	 edi
  00089	89 4d fc	 mov	 DWORD PTR _this$[ebp], ecx

; 48   : 	this->m_QuestCount = 0;

  0008c	8b 45 fc	 mov	 eax, DWORD PTR _this$[ebp]
  0008f	c7 40 04 00 00
	00 00		 mov	 DWORD PTR [eax+4], 0

; 49   : 	memset(this->QuestInfo, -1, sizeof(this->QuestInfo));

  00096	68 80 45 03 00	 push	 214400			; 00034580H
  0009b	6a ff		 push	 -1
  0009d	8b 45 fc	 mov	 eax, DWORD PTR _this$[ebp]
  000a0	83 c0 08	 add	 eax, 8
  000a3	50		 push	 eax
  000a4	e8 00 00 00 00	 call	 _memset
  000a9	83 c4 0c	 add	 esp, 12			; 0000000cH

; 50   : 
; 51   : 	for ( int i=0;i<MAX_QUEST_INFO;i++)

  000ac	c7 45 f8 00 00
	00 00		 mov	 DWORD PTR _i$231525[ebp], 0
  000b3	eb 09		 jmp	 SHORT $LN3@Init
$LN2@Init:
  000b5	8b 45 f8	 mov	 eax, DWORD PTR _i$231525[ebp]
  000b8	83 c0 01	 add	 eax, 1
  000bb	89 45 f8	 mov	 DWORD PTR _i$231525[ebp], eax
$LN3@Init:
  000be	81 7d f8 c8 00
	00 00		 cmp	 DWORD PTR _i$231525[ebp], 200 ; 000000c8H
  000c5	7d 2d		 jge	 SHORT $LN4@Init

; 52   : 	{
; 53   : 		this->QuestInfo[i].QuestConditionCount=0;

  000c7	8b 45 f8	 mov	 eax, DWORD PTR _i$231525[ebp]
  000ca	69 c0 30 04 00
	00		 imul	 eax, 1072		; 00000430H
  000d0	8b 4d fc	 mov	 ecx, DWORD PTR _this$[ebp]
  000d3	c7 84 01 1c 03
	00 00 00 00 00
	00		 mov	 DWORD PTR [ecx+eax+796], 0

; 54   : 		this->QuestInfo[i].QuestSubInfoCount= 0;

  000de	8b 45 f8	 mov	 eax, DWORD PTR _i$231525[ebp]
  000e1	69 c0 30 04 00
	00		 imul	 eax, 1072		; 00000430H
  000e7	8b 4d fc	 mov	 ecx, DWORD PTR _this$[ebp]
  000ea	c7 44 01 48 00
	00 00 00	 mov	 DWORD PTR [ecx+eax+72], 0

; 55   : 	}

  000f2	eb c1		 jmp	 SHORT $LN2@Init
$LN4@Init:

; 56   : }

  000f4	5f		 pop	 edi
  000f5	5e		 pop	 esi
  000f6	5b		 pop	 ebx
  000f7	8b e5		 mov	 esp, ebp
  000f9	5d		 pop	 ebp
  000fa	c3		 ret	 0
?Init@CQuestInfo@@QAEXXZ ENDP				; CQuestInfo::Init
_TEXT	ENDS
PUBLIC	?InitQuestItem@CQuestInfo@@QAEXXZ		; CQuestInfo::InitQuestItem
PUBLIC	??_C@_0BF@JAOCNINL@Quest?5Info?5Read?5Fail?$AA@	; `string'
PUBLIC	??_C@_0CO@IPPCPA@?$FLQuest?$FN?5?$CI?$CFs?$CJ?5Load?5?3?5Index?5?$CFd?0?5Su@ ; `string'
PUBLIC	??_C@_03JBJLGPFL@end?$AA@			; `string'
PUBLIC	??_C@_0O@NOCIMNHO@load?5error?5?$CFs?$AA@	; `string'
PUBLIC	??_C@_01KDCPPGHE@r?$AA@				; `string'
PUBLIC	?LoadQuestInfo@CQuestInfo@@QAEHPAD@Z		; CQuestInfo::LoadQuestInfo
EXTRN	_fclose:PROC
EXTRN	?LogAdd@@3P6AXPADZZA:DWORD			; LogAdd
EXTRN	_strcmp:PROC
EXTRN	_strcpy:PROC
EXTRN	?MsgBox@@YAXPADZZ:PROC				; MsgBox
EXTRN	_fopen:PROC
EXTRN	__ftol2_sse:PROC
_BSS	SEGMENT
_TokenString DB	064H DUP (?)
_TokenNumber DD	01H DUP (?)
_SMDFile DD	01H DUP (?)
_BSS	ENDS
;	COMDAT ??_C@_0BF@JAOCNINL@Quest?5Info?5Read?5Fail?$AA@
CONST	SEGMENT
??_C@_0BF@JAOCNINL@Quest?5Info?5Read?5Fail?$AA@ DB 'Quest Info Read Fail', 00H ; `string'
CONST	ENDS
;	COMDAT ??_C@_0CO@IPPCPA@?$FLQuest?$FN?5?$CI?$CFs?$CJ?5Load?5?3?5Index?5?$CFd?0?5Su@
CONST	SEGMENT
??_C@_0CO@IPPCPA@?$FLQuest?$FN?5?$CI?$CFs?$CJ?5Load?5?3?5Index?5?$CFd?0?5Su@ DB '['
	DB	'Quest] (%s) Load : Index %d, SubInfoCount %d', 00H ; `string'
CONST	ENDS
;	COMDAT ??_C@_03JBJLGPFL@end?$AA@
CONST	SEGMENT
??_C@_03JBJLGPFL@end?$AA@ DB 'end', 00H			; `string'
CONST	ENDS
;	COMDAT ??_C@_0O@NOCIMNHO@load?5error?5?$CFs?$AA@
CONST	SEGMENT
??_C@_0O@NOCIMNHO@load?5error?5?$CFs?$AA@ DB 'load error %s', 00H ; `string'
CONST	ENDS
;	COMDAT ??_C@_01KDCPPGHE@r?$AA@
CONST	SEGMENT
??_C@_01KDCPPGHE@r?$AA@ DB 'r', 00H			; `string'
; Function compile flags: /Odtp /ZI
CONST	ENDS
_TEXT	SEGMENT
tv752 = -108						; size = 4
tv740 = -108						; size = 4
tv728 = -108						; size = 4
tv716 = -108						; size = 4
tv704 = -108						; size = 4
tv692 = -108						; size = 4
tv680 = -108						; size = 4
tv750 = -104						; size = 4
tv738 = -104						; size = 4
tv726 = -104						; size = 4
tv714 = -104						; size = 4
tv702 = -104						; size = 4
tv690 = -104						; size = 4
tv678 = -104						; size = 4
tv747 = -98						; size = 2
tv735 = -98						; size = 2
tv723 = -98						; size = 2
tv711 = -98						; size = 2
tv699 = -98						; size = 2
tv687 = -98						; size = 2
tv675 = -98						; size = 2
_iFailInfoCount$231561 = -32				; size = 4
_iQuestIndex$231557 = -28				; size = 4
_iSubInfoCount$231550 = -24				; size = 4
_iQuestIndex$231546 = -20				; size = 4
_Type$231544 = -16					; size = 4
_n$ = -12						; size = 4
_Token$ = -8						; size = 4
_this$ = -4						; size = 4
_filename$ = 8						; size = 4
?LoadQuestInfo@CQuestInfo@@QAEHPAD@Z PROC		; CQuestInfo::LoadQuestInfo
; _this$ = ecx

; 59   : {

  00100	55		 push	 ebp
  00101	8b ec		 mov	 ebp, esp
  00103	83 ec 6c	 sub	 esp, 108		; 0000006cH
  00106	53		 push	 ebx
  00107	56		 push	 esi
  00108	57		 push	 edi
  00109	89 4d fc	 mov	 DWORD PTR _this$[ebp], ecx

; 60   : 	int Token;
; 61   : 	int n;
; 62   : 
; 63   : 	SMDFile = fopen(filename, "r");	//ok

  0010c	68 00 00 00 00	 push	 OFFSET ??_C@_01KDCPPGHE@r?$AA@
  00111	8b 45 08	 mov	 eax, DWORD PTR _filename$[ebp]
  00114	50		 push	 eax
  00115	e8 00 00 00 00	 call	 _fopen
  0011a	83 c4 08	 add	 esp, 8
  0011d	a3 00 00 00 00	 mov	 DWORD PTR _SMDFile, eax

; 64   : 
; 65   : 	if ( SMDFile == NULL )

  00122	83 3d 00 00 00
	00 00		 cmp	 DWORD PTR _SMDFile, 0
  00129	75 18		 jne	 SHORT $LN18@LoadQuestI

; 66   : 	{
; 67   : 		MsgBox("load error %s", filename);

  0012b	8b 45 08	 mov	 eax, DWORD PTR _filename$[ebp]
  0012e	50		 push	 eax
  0012f	68 00 00 00 00	 push	 OFFSET ??_C@_0O@NOCIMNHO@load?5error?5?$CFs?$AA@
  00134	e8 00 00 00 00	 call	 ?MsgBox@@YAXPADZZ	; MsgBox
  00139	83 c4 08	 add	 esp, 8

; 68   : 		return false;

  0013c	33 c0		 xor	 eax, eax
  0013e	e9 90 08 00 00	 jmp	 $LN19@LoadQuestI
$LN18@LoadQuestI:

; 69   : 	}
; 70   : 
; 71   : 	this->Init();

  00143	8b 4d fc	 mov	 ecx, DWORD PTR _this$[ebp]
  00146	e8 00 00 00 00	 call	 ?Init@CQuestInfo@@QAEXXZ ; CQuestInfo::Init

; 72   : 
; 73   : 	n = 0;

  0014b	c7 45 f4 00 00
	00 00		 mov	 DWORD PTR _n$[ebp], 0
$LN17@LoadQuestI:

; 74   : 
; 75   : 	while ( true )

  00152	b8 01 00 00 00	 mov	 eax, 1
  00157	85 c0		 test	 eax, eax
  00159	0f 84 59 08 00
	00		 je	 $LN16@LoadQuestI

; 76   : 	{
; 77   : 		Token = GetToken();

  0015f	e8 00 00 00 00	 call	 ?GetToken@@YA?AW4SMDToken@@XZ ; GetToken
  00164	89 45 f8	 mov	 DWORD PTR _Token$[ebp], eax

; 78   : 
; 79   : 		if ( Token == 2 )

  00167	83 7d f8 02	 cmp	 DWORD PTR _Token$[ebp], 2
  0016b	75 0a		 jne	 SHORT $LN15@LoadQuestI

; 80   : 		{
; 81   : 			break;

  0016d	e9 46 08 00 00	 jmp	 $LN16@LoadQuestI

; 82   : 		}
; 83   : 		else

  00172	e9 3c 08 00 00	 jmp	 $LN1@LoadQuestI
$LN15@LoadQuestI:

; 84   : 		{
; 85   : 			if ( Token == 1 )

  00177	83 7d f8 01	 cmp	 DWORD PTR _Token$[ebp], 1
  0017b	0f 85 32 08 00
	00		 jne	 $LN1@LoadQuestI

; 86   : 			{
; 87   : 				int Type = TokenNumber;

  00181	d9 05 00 00 00
	00		 fld	 DWORD PTR _TokenNumber
  00187	e8 00 00 00 00	 call	 __ftol2_sse
  0018c	89 45 f0	 mov	 DWORD PTR _Type$231544[ebp], eax

; 88   : 
; 89   : 				if ( Type == 0 )

  0018f	83 7d f0 00	 cmp	 DWORD PTR _Type$231544[ebp], 0
  00193	0f 85 17 06 00
	00		 jne	 $LN12@LoadQuestI

; 90   : 				{
; 91   : 					Token = GetToken();

  00199	e8 00 00 00 00	 call	 ?GetToken@@YA?AW4SMDToken@@XZ ; GetToken
  0019e	89 45 f8	 mov	 DWORD PTR _Token$[ebp], eax

; 92   : 					int iQuestIndex = TokenNumber;

  001a1	d9 05 00 00 00
	00		 fld	 DWORD PTR _TokenNumber
  001a7	e8 00 00 00 00	 call	 __ftol2_sse
  001ac	89 45 ec	 mov	 DWORD PTR _iQuestIndex$231546[ebp], eax

; 93   : 					this->QuestInfo[iQuestIndex].QuestIndex = iQuestIndex;

  001af	8b 45 ec	 mov	 eax, DWORD PTR _iQuestIndex$231546[ebp]
  001b2	69 c0 30 04 00
	00		 imul	 eax, 1072		; 00000430H
  001b8	8b 4d fc	 mov	 ecx, DWORD PTR _this$[ebp]
  001bb	8b 55 ec	 mov	 edx, DWORD PTR _iQuestIndex$231546[ebp]
  001be	89 54 01 3c	 mov	 DWORD PTR [ecx+eax+60], edx

; 94   : 
; 95   : 					Token = GetToken();

  001c2	e8 00 00 00 00	 call	 ?GetToken@@YA?AW4SMDToken@@XZ ; GetToken
  001c7	89 45 f8	 mov	 DWORD PTR _Token$[ebp], eax

; 96   : 					this->QuestInfo[iQuestIndex].QuestStartType = TokenNumber;

  001ca	d9 05 00 00 00
	00		 fld	 DWORD PTR _TokenNumber
  001d0	e8 00 00 00 00	 call	 __ftol2_sse
  001d5	8b 4d ec	 mov	 ecx, DWORD PTR _iQuestIndex$231546[ebp]
  001d8	69 c9 30 04 00
	00		 imul	 ecx, 1072		; 00000430H
  001de	8b 55 fc	 mov	 edx, DWORD PTR _this$[ebp]
  001e1	89 44 0a 40	 mov	 DWORD PTR [edx+ecx+64], eax

; 97   : 
; 98   : 					Token = GetToken();

  001e5	e8 00 00 00 00	 call	 ?GetToken@@YA?AW4SMDToken@@XZ ; GetToken
  001ea	89 45 f8	 mov	 DWORD PTR _Token$[ebp], eax

; 99   : 					this->QuestInfo[iQuestIndex].QuestStartSubType = TokenNumber;

  001ed	d9 05 00 00 00
	00		 fld	 DWORD PTR _TokenNumber
  001f3	e8 00 00 00 00	 call	 __ftol2_sse
  001f8	8b 4d ec	 mov	 ecx, DWORD PTR _iQuestIndex$231546[ebp]
  001fb	69 c9 30 04 00
	00		 imul	 ecx, 1072		; 00000430H
  00201	8b 55 fc	 mov	 edx, DWORD PTR _this$[ebp]
  00204	89 44 0a 44	 mov	 DWORD PTR [edx+ecx+68], eax

; 100  : 
; 101  : 					Token = GetToken();

  00208	e8 00 00 00 00	 call	 ?GetToken@@YA?AW4SMDToken@@XZ ; GetToken
  0020d	89 45 f8	 mov	 DWORD PTR _Token$[ebp], eax

; 102  : 					strcpy( this->QuestInfo[iQuestIndex].Name, TokenString);

  00210	68 00 00 00 00	 push	 OFFSET _TokenString
  00215	8b 45 ec	 mov	 eax, DWORD PTR _iQuestIndex$231546[ebp]
  00218	69 c0 30 04 00
	00		 imul	 eax, 1072		; 00000430H
  0021e	8b 4d fc	 mov	 ecx, DWORD PTR _this$[ebp]
  00221	8d 54 01 08	 lea	 edx, DWORD PTR [ecx+eax+8]
  00225	52		 push	 edx
  00226	e8 00 00 00 00	 call	 _strcpy
  0022b	83 c4 08	 add	 esp, 8

; 103  : 
; 104  : 					this->QuestInfo[iQuestIndex].QuestSubInfoCount = 0;

  0022e	8b 45 ec	 mov	 eax, DWORD PTR _iQuestIndex$231546[ebp]
  00231	69 c0 30 04 00
	00		 imul	 eax, 1072		; 00000430H
  00237	8b 4d fc	 mov	 ecx, DWORD PTR _this$[ebp]
  0023a	c7 44 01 48 00
	00 00 00	 mov	 DWORD PTR [ecx+eax+72], 0
$LN11@LoadQuestI:

; 105  : 
; 106  : 					while ( true )

  00242	b8 01 00 00 00	 mov	 eax, 1
  00247	85 c0		 test	 eax, eax
  00249	0f 84 19 05 00
	00		 je	 $LN10@LoadQuestI

; 107  : 					{
; 108  : 						int iSubInfoCount = this->QuestInfo[iQuestIndex].QuestSubInfoCount;

  0024f	8b 45 ec	 mov	 eax, DWORD PTR _iQuestIndex$231546[ebp]
  00252	69 c0 30 04 00
	00		 imul	 eax, 1072		; 00000430H
  00258	8b 4d fc	 mov	 ecx, DWORD PTR _this$[ebp]
  0025b	8b 54 01 48	 mov	 edx, DWORD PTR [ecx+eax+72]
  0025f	89 55 e8	 mov	 DWORD PTR _iSubInfoCount$231550[ebp], edx

; 109  : 
; 110  : 						Token = GetToken();

  00262	e8 00 00 00 00	 call	 ?GetToken@@YA?AW4SMDToken@@XZ ; GetToken
  00267	89 45 f8	 mov	 DWORD PTR _Token$[ebp], eax

; 111  : 
; 112  : 						if ( Token == 0 )

  0026a	83 7d f8 00	 cmp	 DWORD PTR _Token$[ebp], 0
  0026e	75 1b		 jne	 SHORT $LN8@LoadQuestI

; 113  : 						{
; 114  : 							if ( strcmp("end", TokenString) == 0 )

  00270	68 00 00 00 00	 push	 OFFSET _TokenString
  00275	68 00 00 00 00	 push	 OFFSET ??_C@_03JBJLGPFL@end?$AA@
  0027a	e8 00 00 00 00	 call	 _strcmp
  0027f	83 c4 08	 add	 esp, 8
  00282	85 c0		 test	 eax, eax
  00284	75 05		 jne	 SHORT $LN8@LoadQuestI

; 115  : 							{
; 116  : 								break;

  00286	e9 dd 04 00 00	 jmp	 $LN10@LoadQuestI
$LN8@LoadQuestI:

; 117  : 							}
; 118  : 						}
; 119  : 						this->QuestInfo[iQuestIndex].QuestSubInfo[iSubInfoCount].QuestType = TokenNumber;

  0028b	d9 05 00 00 00
	00		 fld	 DWORD PTR _TokenNumber
  00291	e8 00 00 00 00	 call	 __ftol2_sse
  00296	8b 4d ec	 mov	 ecx, DWORD PTR _iQuestIndex$231546[ebp]
  00299	69 c9 30 04 00
	00		 imul	 ecx, 1072		; 00000430H
  0029f	8b 55 fc	 mov	 edx, DWORD PTR _this$[ebp]
  002a2	8d 4c 0a 08	 lea	 ecx, DWORD PTR [edx+ecx+8]
  002a6	8b 55 e8	 mov	 edx, DWORD PTR _iSubInfoCount$231550[ebp]
  002a9	6b d2 48	 imul	 edx, 72			; 00000048H
  002ac	89 44 11 44	 mov	 DWORD PTR [ecx+edx+68], eax

; 120  : 
; 121  : 						Token = GetToken();

  002b0	e8 00 00 00 00	 call	 ?GetToken@@YA?AW4SMDToken@@XZ ; GetToken
  002b5	89 45 f8	 mov	 DWORD PTR _Token$[ebp], eax

; 122  : 						this->QuestInfo[iQuestIndex].QuestSubInfo[iSubInfoCount].NeedType = TokenNumber;

  002b8	d9 05 00 00 00
	00		 fld	 DWORD PTR _TokenNumber
  002be	e8 00 00 00 00	 call	 __ftol2_sse
  002c3	8b 4d ec	 mov	 ecx, DWORD PTR _iQuestIndex$231546[ebp]
  002c6	69 c9 30 04 00
	00		 imul	 ecx, 1072		; 00000430H
  002cc	8b 55 fc	 mov	 edx, DWORD PTR _this$[ebp]
  002cf	8d 4c 0a 08	 lea	 ecx, DWORD PTR [edx+ecx+8]
  002d3	8b 55 e8	 mov	 edx, DWORD PTR _iSubInfoCount$231550[ebp]
  002d6	6b d2 48	 imul	 edx, 72			; 00000048H
  002d9	89 44 11 48	 mov	 DWORD PTR [ecx+edx+72], eax

; 123  : 
; 124  : 						Token = GetToken();

  002dd	e8 00 00 00 00	 call	 ?GetToken@@YA?AW4SMDToken@@XZ ; GetToken
  002e2	89 45 f8	 mov	 DWORD PTR _Token$[ebp], eax

; 125  : 						this->QuestInfo[iQuestIndex].QuestSubInfo[iSubInfoCount].NeedSubType = TokenNumber;

  002e5	d9 05 00 00 00
	00		 fld	 DWORD PTR _TokenNumber
  002eb	e8 00 00 00 00	 call	 __ftol2_sse
  002f0	8b 4d ec	 mov	 ecx, DWORD PTR _iQuestIndex$231546[ebp]
  002f3	69 c9 30 04 00
	00		 imul	 ecx, 1072		; 00000430H
  002f9	8b 55 fc	 mov	 edx, DWORD PTR _this$[ebp]
  002fc	8d 4c 0a 08	 lea	 ecx, DWORD PTR [edx+ecx+8]
  00300	8b 55 e8	 mov	 edx, DWORD PTR _iSubInfoCount$231550[ebp]
  00303	6b d2 48	 imul	 edx, 72			; 00000048H
  00306	89 44 11 4c	 mov	 DWORD PTR [ecx+edx+76], eax

; 126  : 
; 127  : 						Token = GetToken();

  0030a	e8 00 00 00 00	 call	 ?GetToken@@YA?AW4SMDToken@@XZ ; GetToken
  0030f	89 45 f8	 mov	 DWORD PTR _Token$[ebp], eax

; 128  : 						this->QuestInfo[iQuestIndex].QuestSubInfo[iSubInfoCount].ItemLevel = TokenNumber;

  00312	d9 05 00 00 00
	00		 fld	 DWORD PTR _TokenNumber
  00318	e8 00 00 00 00	 call	 __ftol2_sse
  0031d	8b 4d ec	 mov	 ecx, DWORD PTR _iQuestIndex$231546[ebp]
  00320	69 c9 30 04 00
	00		 imul	 ecx, 1072		; 00000430H
  00326	8b 55 fc	 mov	 edx, DWORD PTR _this$[ebp]
  00329	8d 4c 0a 08	 lea	 ecx, DWORD PTR [edx+ecx+8]
  0032d	8b 55 e8	 mov	 edx, DWORD PTR _iSubInfoCount$231550[ebp]
  00330	6b d2 48	 imul	 edx, 72			; 00000048H
  00333	89 44 11 50	 mov	 DWORD PTR [ecx+edx+80], eax

; 129  : 
; 130  : 						Token = GetToken();

  00337	e8 00 00 00 00	 call	 ?GetToken@@YA?AW4SMDToken@@XZ ; GetToken
  0033c	89 45 f8	 mov	 DWORD PTR _Token$[ebp], eax

; 131  : 						this->QuestInfo[iQuestIndex].QuestSubInfo[iSubInfoCount].NeedNumber = TokenNumber;

  0033f	d9 05 00 00 00
	00		 fld	 DWORD PTR _TokenNumber
  00345	e8 00 00 00 00	 call	 __ftol2_sse
  0034a	8b 4d ec	 mov	 ecx, DWORD PTR _iQuestIndex$231546[ebp]
  0034d	69 c9 30 04 00
	00		 imul	 ecx, 1072		; 00000430H
  00353	8b 55 fc	 mov	 edx, DWORD PTR _this$[ebp]
  00356	8d 4c 0a 08	 lea	 ecx, DWORD PTR [edx+ecx+8]
  0035a	8b 55 e8	 mov	 edx, DWORD PTR _iSubInfoCount$231550[ebp]
  0035d	6b d2 48	 imul	 edx, 72			; 00000048H
  00360	89 44 11 54	 mov	 DWORD PTR [ecx+edx+84], eax

; 132  : 
; 133  : 						Token = GetToken();

  00364	e8 00 00 00 00	 call	 ?GetToken@@YA?AW4SMDToken@@XZ ; GetToken
  00369	89 45 f8	 mov	 DWORD PTR _Token$[ebp], eax

; 134  : 						this->QuestInfo[iQuestIndex].QuestSubInfo[iSubInfoCount].NeedTargetMinLevel = TokenNumber;

  0036c	d9 05 00 00 00
	00		 fld	 DWORD PTR _TokenNumber
  00372	e8 00 00 00 00	 call	 __ftol2_sse
  00377	8b 4d ec	 mov	 ecx, DWORD PTR _iQuestIndex$231546[ebp]
  0037a	69 c9 30 04 00
	00		 imul	 ecx, 1072		; 00000430H
  00380	8b 55 fc	 mov	 edx, DWORD PTR _this$[ebp]
  00383	8d 4c 0a 08	 lea	 ecx, DWORD PTR [edx+ecx+8]
  00387	8b 55 e8	 mov	 edx, DWORD PTR _iSubInfoCount$231550[ebp]
  0038a	6b d2 48	 imul	 edx, 72			; 00000048H
  0038d	89 44 11 58	 mov	 DWORD PTR [ecx+edx+88], eax

; 135  : 
; 136  : 						Token = GetToken();

  00391	e8 00 00 00 00	 call	 ?GetToken@@YA?AW4SMDToken@@XZ ; GetToken
  00396	89 45 f8	 mov	 DWORD PTR _Token$[ebp], eax

; 137  : 						this->QuestInfo[iQuestIndex].QuestSubInfo[iSubInfoCount].NeedTargetMaxLevel = TokenNumber;

  00399	d9 05 00 00 00
	00		 fld	 DWORD PTR _TokenNumber
  0039f	e8 00 00 00 00	 call	 __ftol2_sse
  003a4	8b 4d ec	 mov	 ecx, DWORD PTR _iQuestIndex$231546[ebp]
  003a7	69 c9 30 04 00
	00		 imul	 ecx, 1072		; 00000430H
  003ad	8b 55 fc	 mov	 edx, DWORD PTR _this$[ebp]
  003b0	8d 4c 0a 08	 lea	 ecx, DWORD PTR [edx+ecx+8]
  003b4	8b 55 e8	 mov	 edx, DWORD PTR _iSubInfoCount$231550[ebp]
  003b7	6b d2 48	 imul	 edx, 72			; 00000048H
  003ba	89 44 11 5c	 mov	 DWORD PTR [ecx+edx+92], eax

; 138  : 
; 139  : 						Token = GetToken();

  003be	e8 00 00 00 00	 call	 ?GetToken@@YA?AW4SMDToken@@XZ ; GetToken
  003c3	89 45 f8	 mov	 DWORD PTR _Token$[ebp], eax

; 140  : 						this->QuestInfo[iQuestIndex].QuestSubInfo[iSubInfoCount].NeedDropRate = TokenNumber;

  003c6	d9 05 00 00 00
	00		 fld	 DWORD PTR _TokenNumber
  003cc	e8 00 00 00 00	 call	 __ftol2_sse
  003d1	8b 4d ec	 mov	 ecx, DWORD PTR _iQuestIndex$231546[ebp]
  003d4	69 c9 30 04 00
	00		 imul	 ecx, 1072		; 00000430H
  003da	8b 55 fc	 mov	 edx, DWORD PTR _this$[ebp]
  003dd	8d 4c 0a 08	 lea	 ecx, DWORD PTR [edx+ecx+8]
  003e1	8b 55 e8	 mov	 edx, DWORD PTR _iSubInfoCount$231550[ebp]
  003e4	6b d2 48	 imul	 edx, 72			; 00000048H
  003e7	89 44 11 60	 mov	 DWORD PTR [ecx+edx+96], eax

; 141  : 
; 142  : 						Token = GetToken();

  003eb	e8 00 00 00 00	 call	 ?GetToken@@YA?AW4SMDToken@@XZ ; GetToken
  003f0	89 45 f8	 mov	 DWORD PTR _Token$[ebp], eax

; 143  : 						this->QuestInfo[iQuestIndex].QuestSubInfo[iSubInfoCount].RewardType = TokenNumber;

  003f3	d9 05 00 00 00
	00		 fld	 DWORD PTR _TokenNumber
  003f9	e8 00 00 00 00	 call	 __ftol2_sse
  003fe	8b 4d ec	 mov	 ecx, DWORD PTR _iQuestIndex$231546[ebp]
  00401	69 c9 30 04 00
	00		 imul	 ecx, 1072		; 00000430H
  00407	8b 55 fc	 mov	 edx, DWORD PTR _this$[ebp]
  0040a	8d 4c 0a 08	 lea	 ecx, DWORD PTR [edx+ecx+8]
  0040e	8b 55 e8	 mov	 edx, DWORD PTR _iSubInfoCount$231550[ebp]
  00411	6b d2 48	 imul	 edx, 72			; 00000048H
  00414	89 44 11 64	 mov	 DWORD PTR [ecx+edx+100], eax

; 144  : 
; 145  : 						Token = GetToken();

  00418	e8 00 00 00 00	 call	 ?GetToken@@YA?AW4SMDToken@@XZ ; GetToken
  0041d	89 45 f8	 mov	 DWORD PTR _Token$[ebp], eax

; 146  : 						this->QuestInfo[iQuestIndex].QuestSubInfo[iSubInfoCount].RewardSubType = TokenNumber;

  00420	d9 05 00 00 00
	00		 fld	 DWORD PTR _TokenNumber
  00426	e8 00 00 00 00	 call	 __ftol2_sse
  0042b	8b 4d ec	 mov	 ecx, DWORD PTR _iQuestIndex$231546[ebp]
  0042e	69 c9 30 04 00
	00		 imul	 ecx, 1072		; 00000430H
  00434	8b 55 fc	 mov	 edx, DWORD PTR _this$[ebp]
  00437	8d 4c 0a 08	 lea	 ecx, DWORD PTR [edx+ecx+8]
  0043b	8b 55 e8	 mov	 edx, DWORD PTR _iSubInfoCount$231550[ebp]
  0043e	6b d2 48	 imul	 edx, 72			; 00000048H
  00441	89 44 11 68	 mov	 DWORD PTR [ecx+edx+104], eax

; 147  : 
; 148  : 						Token = GetToken();

  00445	e8 00 00 00 00	 call	 ?GetToken@@YA?AW4SMDToken@@XZ ; GetToken
  0044a	89 45 f8	 mov	 DWORD PTR _Token$[ebp], eax

; 149  : 						this->QuestInfo[iQuestIndex].QuestSubInfo[iSubInfoCount].RewardCount = TokenNumber;

  0044d	d9 05 00 00 00
	00		 fld	 DWORD PTR _TokenNumber
  00453	e8 00 00 00 00	 call	 __ftol2_sse
  00458	8b 4d ec	 mov	 ecx, DWORD PTR _iQuestIndex$231546[ebp]
  0045b	69 c9 30 04 00
	00		 imul	 ecx, 1072		; 00000430H
  00461	8b 55 fc	 mov	 edx, DWORD PTR _this$[ebp]
  00464	8d 4c 0a 08	 lea	 ecx, DWORD PTR [edx+ecx+8]
  00468	8b 55 e8	 mov	 edx, DWORD PTR _iSubInfoCount$231550[ebp]
  0046b	6b d2 48	 imul	 edx, 72			; 00000048H
  0046e	89 44 11 6c	 mov	 DWORD PTR [ecx+edx+108], eax

; 150  : 
; 151  : 						Token = GetToken();

  00472	e8 00 00 00 00	 call	 ?GetToken@@YA?AW4SMDToken@@XZ ; GetToken
  00477	89 45 f8	 mov	 DWORD PTR _Token$[ebp], eax

; 152  : 						this->QuestInfo[iQuestIndex].QuestSubInfo[iSubInfoCount].LinkConditionIndex = TokenNumber;

  0047a	d9 05 00 00 00
	00		 fld	 DWORD PTR _TokenNumber
  00480	e8 00 00 00 00	 call	 __ftol2_sse
  00485	8b 4d ec	 mov	 ecx, DWORD PTR _iQuestIndex$231546[ebp]
  00488	69 c9 30 04 00
	00		 imul	 ecx, 1072		; 00000430H
  0048e	8b 55 fc	 mov	 edx, DWORD PTR _this$[ebp]
  00491	8d 4c 0a 08	 lea	 ecx, DWORD PTR [edx+ecx+8]
  00495	8b 55 e8	 mov	 edx, DWORD PTR _iSubInfoCount$231550[ebp]
  00498	6b d2 48	 imul	 edx, 72			; 00000048H
  0049b	89 44 11 70	 mov	 DWORD PTR [ecx+edx+112], eax

; 153  : 
; 154  : 						Token = GetToken();

  0049f	e8 00 00 00 00	 call	 ?GetToken@@YA?AW4SMDToken@@XZ ; GetToken
  004a4	89 45 f8	 mov	 DWORD PTR _Token$[ebp], eax

; 155  : 						this->QuestInfo[iQuestIndex].QuestSubInfo[iSubInfoCount].ContextBeforeReg = TokenNumber;

  004a7	d9 05 00 00 00
	00		 fld	 DWORD PTR _TokenNumber
  004ad	e8 00 00 00 00	 call	 __ftol2_sse
  004b2	8b 4d ec	 mov	 ecx, DWORD PTR _iQuestIndex$231546[ebp]
  004b5	69 c9 30 04 00
	00		 imul	 ecx, 1072		; 00000430H
  004bb	8b 55 fc	 mov	 edx, DWORD PTR _this$[ebp]
  004be	8d 4c 0a 08	 lea	 ecx, DWORD PTR [edx+ecx+8]
  004c2	8b 55 e8	 mov	 edx, DWORD PTR _iSubInfoCount$231550[ebp]
  004c5	6b d2 48	 imul	 edx, 72			; 00000048H
  004c8	89 44 11 74	 mov	 DWORD PTR [ecx+edx+116], eax

; 156  : 
; 157  : 						Token = GetToken();

  004cc	e8 00 00 00 00	 call	 ?GetToken@@YA?AW4SMDToken@@XZ ; GetToken
  004d1	89 45 f8	 mov	 DWORD PTR _Token$[ebp], eax

; 158  : 						this->QuestInfo[iQuestIndex].QuestSubInfo[iSubInfoCount].ContextAfterReg = TokenNumber;

  004d4	d9 05 00 00 00
	00		 fld	 DWORD PTR _TokenNumber
  004da	e8 00 00 00 00	 call	 __ftol2_sse
  004df	8b 4d ec	 mov	 ecx, DWORD PTR _iQuestIndex$231546[ebp]
  004e2	69 c9 30 04 00
	00		 imul	 ecx, 1072		; 00000430H
  004e8	8b 55 fc	 mov	 edx, DWORD PTR _this$[ebp]
  004eb	8d 4c 0a 08	 lea	 ecx, DWORD PTR [edx+ecx+8]
  004ef	8b 55 e8	 mov	 edx, DWORD PTR _iSubInfoCount$231550[ebp]
  004f2	6b d2 48	 imul	 edx, 72			; 00000048H
  004f5	89 44 11 78	 mov	 DWORD PTR [ecx+edx+120], eax

; 159  : 
; 160  : 						Token = GetToken();

  004f9	e8 00 00 00 00	 call	 ?GetToken@@YA?AW4SMDToken@@XZ ; GetToken
  004fe	89 45 f8	 mov	 DWORD PTR _Token$[ebp], eax

; 161  : 						this->QuestInfo[iQuestIndex].QuestSubInfo[iSubInfoCount].ContextCompleteQuest = TokenNumber;

  00501	d9 05 00 00 00
	00		 fld	 DWORD PTR _TokenNumber
  00507	e8 00 00 00 00	 call	 __ftol2_sse
  0050c	8b 4d ec	 mov	 ecx, DWORD PTR _iQuestIndex$231546[ebp]
  0050f	69 c9 30 04 00
	00		 imul	 ecx, 1072		; 00000430H
  00515	8b 55 fc	 mov	 edx, DWORD PTR _this$[ebp]
  00518	8d 4c 0a 08	 lea	 ecx, DWORD PTR [edx+ecx+8]
  0051c	8b 55 e8	 mov	 edx, DWORD PTR _iSubInfoCount$231550[ebp]
  0051f	6b d2 48	 imul	 edx, 72			; 00000048H
  00522	89 44 11 7c	 mov	 DWORD PTR [ecx+edx+124], eax

; 162  : 
; 163  : 						Token = GetToken();

  00526	e8 00 00 00 00	 call	 ?GetToken@@YA?AW4SMDToken@@XZ ; GetToken
  0052b	89 45 f8	 mov	 DWORD PTR _Token$[ebp], eax

; 164  : 						this->QuestInfo[iQuestIndex].QuestSubInfo[iSubInfoCount].ContextQuestClear = TokenNumber;

  0052e	d9 05 00 00 00
	00		 fld	 DWORD PTR _TokenNumber
  00534	e8 00 00 00 00	 call	 __ftol2_sse
  00539	8b 4d ec	 mov	 ecx, DWORD PTR _iQuestIndex$231546[ebp]
  0053c	69 c9 30 04 00
	00		 imul	 ecx, 1072		; 00000430H
  00542	8b 55 fc	 mov	 edx, DWORD PTR _this$[ebp]
  00545	8d 4c 0a 08	 lea	 ecx, DWORD PTR [edx+ecx+8]
  00549	8b 55 e8	 mov	 edx, DWORD PTR _iSubInfoCount$231550[ebp]
  0054c	6b d2 48	 imul	 edx, 72			; 00000048H
  0054f	89 84 11 80 00
	00 00		 mov	 DWORD PTR [ecx+edx+128], eax

; 165  : 
; 166  : 						Token = GetToken();

  00556	e8 00 00 00 00	 call	 ?GetToken@@YA?AW4SMDToken@@XZ ; GetToken
  0055b	89 45 f8	 mov	 DWORD PTR _Token$[ebp], eax

; 167  : 						this->QuestInfo[iQuestIndex].QuestSubInfo[iSubInfoCount].RequireClass[CLASS_WIZARD] = TokenNumber;

  0055e	d9 05 00 00 00
	00		 fld	 DWORD PTR _TokenNumber
  00564	d9 7d 9e	 fnstcw	 WORD PTR tv675[ebp]
  00567	0f b7 45 9e	 movzx	 eax, WORD PTR tv675[ebp]
  0056b	0d 00 0c 00 00	 or	 eax, 3072		; 00000c00H
  00570	89 45 98	 mov	 DWORD PTR tv678[ebp], eax
  00573	d9 6d 98	 fldcw	 WORD PTR tv678[ebp]
  00576	db 5d 94	 fistp	 DWORD PTR tv680[ebp]
  00579	d9 6d 9e	 fldcw	 WORD PTR tv675[ebp]
  0057c	8a 45 94	 mov	 al, BYTE PTR tv680[ebp]
  0057f	8b 4d ec	 mov	 ecx, DWORD PTR _iQuestIndex$231546[ebp]
  00582	69 c9 30 04 00
	00		 imul	 ecx, 1072		; 00000430H
  00588	8b 55 fc	 mov	 edx, DWORD PTR _this$[ebp]
  0058b	8d 4c 0a 08	 lea	 ecx, DWORD PTR [edx+ecx+8]
  0058f	8b 55 e8	 mov	 edx, DWORD PTR _iSubInfoCount$231550[ebp]
  00592	6b d2 48	 imul	 edx, 72			; 00000048H
  00595	88 84 11 84 00
	00 00		 mov	 BYTE PTR [ecx+edx+132], al

; 168  : 
; 169  : 						Token = GetToken();

  0059c	e8 00 00 00 00	 call	 ?GetToken@@YA?AW4SMDToken@@XZ ; GetToken
  005a1	89 45 f8	 mov	 DWORD PTR _Token$[ebp], eax

; 170  : 						this->QuestInfo[iQuestIndex].QuestSubInfo[iSubInfoCount].RequireClass[CLASS_KNIGHT] = TokenNumber;

  005a4	d9 05 00 00 00
	00		 fld	 DWORD PTR _TokenNumber
  005aa	d9 7d 9e	 fnstcw	 WORD PTR tv687[ebp]
  005ad	0f b7 45 9e	 movzx	 eax, WORD PTR tv687[ebp]
  005b1	0d 00 0c 00 00	 or	 eax, 3072		; 00000c00H
  005b6	89 45 98	 mov	 DWORD PTR tv690[ebp], eax
  005b9	d9 6d 98	 fldcw	 WORD PTR tv690[ebp]
  005bc	db 5d 94	 fistp	 DWORD PTR tv692[ebp]
  005bf	d9 6d 9e	 fldcw	 WORD PTR tv687[ebp]
  005c2	8a 45 94	 mov	 al, BYTE PTR tv692[ebp]
  005c5	8b 4d ec	 mov	 ecx, DWORD PTR _iQuestIndex$231546[ebp]
  005c8	69 c9 30 04 00
	00		 imul	 ecx, 1072		; 00000430H
  005ce	8b 55 fc	 mov	 edx, DWORD PTR _this$[ebp]
  005d1	8d 4c 0a 08	 lea	 ecx, DWORD PTR [edx+ecx+8]
  005d5	8b 55 e8	 mov	 edx, DWORD PTR _iSubInfoCount$231550[ebp]
  005d8	6b d2 48	 imul	 edx, 72			; 00000048H
  005db	88 84 11 85 00
	00 00		 mov	 BYTE PTR [ecx+edx+133], al

; 171  : 
; 172  : 						Token = GetToken();

  005e2	e8 00 00 00 00	 call	 ?GetToken@@YA?AW4SMDToken@@XZ ; GetToken
  005e7	89 45 f8	 mov	 DWORD PTR _Token$[ebp], eax

; 173  : 						this->QuestInfo[iQuestIndex].QuestSubInfo[iSubInfoCount].RequireClass[CLASS_ELF] = TokenNumber;

  005ea	d9 05 00 00 00
	00		 fld	 DWORD PTR _TokenNumber
  005f0	d9 7d 9e	 fnstcw	 WORD PTR tv699[ebp]
  005f3	0f b7 45 9e	 movzx	 eax, WORD PTR tv699[ebp]
  005f7	0d 00 0c 00 00	 or	 eax, 3072		; 00000c00H
  005fc	89 45 98	 mov	 DWORD PTR tv702[ebp], eax
  005ff	d9 6d 98	 fldcw	 WORD PTR tv702[ebp]
  00602	db 5d 94	 fistp	 DWORD PTR tv704[ebp]
  00605	d9 6d 9e	 fldcw	 WORD PTR tv699[ebp]
  00608	8a 45 94	 mov	 al, BYTE PTR tv704[ebp]
  0060b	8b 4d ec	 mov	 ecx, DWORD PTR _iQuestIndex$231546[ebp]
  0060e	69 c9 30 04 00
	00		 imul	 ecx, 1072		; 00000430H
  00614	8b 55 fc	 mov	 edx, DWORD PTR _this$[ebp]
  00617	8d 4c 0a 08	 lea	 ecx, DWORD PTR [edx+ecx+8]
  0061b	8b 55 e8	 mov	 edx, DWORD PTR _iSubInfoCount$231550[ebp]
  0061e	6b d2 48	 imul	 edx, 72			; 00000048H
  00621	88 84 11 86 00
	00 00		 mov	 BYTE PTR [ecx+edx+134], al

; 174  : 
; 175  : 						Token = GetToken();

  00628	e8 00 00 00 00	 call	 ?GetToken@@YA?AW4SMDToken@@XZ ; GetToken
  0062d	89 45 f8	 mov	 DWORD PTR _Token$[ebp], eax

; 176  : 						this->QuestInfo[iQuestIndex].QuestSubInfo[iSubInfoCount].RequireClass[CLASS_MAGUMSA] = TokenNumber;

  00630	d9 05 00 00 00
	00		 fld	 DWORD PTR _TokenNumber
  00636	d9 7d 9e	 fnstcw	 WORD PTR tv711[ebp]
  00639	0f b7 45 9e	 movzx	 eax, WORD PTR tv711[ebp]
  0063d	0d 00 0c 00 00	 or	 eax, 3072		; 00000c00H
  00642	89 45 98	 mov	 DWORD PTR tv714[ebp], eax
  00645	d9 6d 98	 fldcw	 WORD PTR tv714[ebp]
  00648	db 5d 94	 fistp	 DWORD PTR tv716[ebp]
  0064b	d9 6d 9e	 fldcw	 WORD PTR tv711[ebp]
  0064e	8a 45 94	 mov	 al, BYTE PTR tv716[ebp]
  00651	8b 4d ec	 mov	 ecx, DWORD PTR _iQuestIndex$231546[ebp]
  00654	69 c9 30 04 00
	00		 imul	 ecx, 1072		; 00000430H
  0065a	8b 55 fc	 mov	 edx, DWORD PTR _this$[ebp]
  0065d	8d 4c 0a 08	 lea	 ecx, DWORD PTR [edx+ecx+8]
  00661	8b 55 e8	 mov	 edx, DWORD PTR _iSubInfoCount$231550[ebp]
  00664	6b d2 48	 imul	 edx, 72			; 00000048H
  00667	88 84 11 87 00
	00 00		 mov	 BYTE PTR [ecx+edx+135], al

; 177  : 
; 178  : 						Token = GetToken();

  0066e	e8 00 00 00 00	 call	 ?GetToken@@YA?AW4SMDToken@@XZ ; GetToken
  00673	89 45 f8	 mov	 DWORD PTR _Token$[ebp], eax

; 179  : 						this->QuestInfo[iQuestIndex].QuestSubInfo[iSubInfoCount].RequireClass[CLASS_DARKLORD] = TokenNumber;

  00676	d9 05 00 00 00
	00		 fld	 DWORD PTR _TokenNumber
  0067c	d9 7d 9e	 fnstcw	 WORD PTR tv723[ebp]
  0067f	0f b7 45 9e	 movzx	 eax, WORD PTR tv723[ebp]
  00683	0d 00 0c 00 00	 or	 eax, 3072		; 00000c00H
  00688	89 45 98	 mov	 DWORD PTR tv726[ebp], eax
  0068b	d9 6d 98	 fldcw	 WORD PTR tv726[ebp]
  0068e	db 5d 94	 fistp	 DWORD PTR tv728[ebp]
  00691	d9 6d 9e	 fldcw	 WORD PTR tv723[ebp]
  00694	8a 45 94	 mov	 al, BYTE PTR tv728[ebp]
  00697	8b 4d ec	 mov	 ecx, DWORD PTR _iQuestIndex$231546[ebp]
  0069a	69 c9 30 04 00
	00		 imul	 ecx, 1072		; 00000430H
  006a0	8b 55 fc	 mov	 edx, DWORD PTR _this$[ebp]
  006a3	8d 4c 0a 08	 lea	 ecx, DWORD PTR [edx+ecx+8]
  006a7	8b 55 e8	 mov	 edx, DWORD PTR _iSubInfoCount$231550[ebp]
  006aa	6b d2 48	 imul	 edx, 72			; 00000048H
  006ad	88 84 11 88 00
	00 00		 mov	 BYTE PTR [ecx+edx+136], al

; 180  : 
; 181  : 						Token = GetToken();

  006b4	e8 00 00 00 00	 call	 ?GetToken@@YA?AW4SMDToken@@XZ ; GetToken
  006b9	89 45 f8	 mov	 DWORD PTR _Token$[ebp], eax

; 182  : 						this->QuestInfo[iQuestIndex].QuestSubInfo[iSubInfoCount].RequireClass[CLASS_SUMMONER] = TokenNumber;

  006bc	d9 05 00 00 00
	00		 fld	 DWORD PTR _TokenNumber
  006c2	d9 7d 9e	 fnstcw	 WORD PTR tv735[ebp]
  006c5	0f b7 45 9e	 movzx	 eax, WORD PTR tv735[ebp]
  006c9	0d 00 0c 00 00	 or	 eax, 3072		; 00000c00H
  006ce	89 45 98	 mov	 DWORD PTR tv738[ebp], eax
  006d1	d9 6d 98	 fldcw	 WORD PTR tv738[ebp]
  006d4	db 5d 94	 fistp	 DWORD PTR tv740[ebp]
  006d7	d9 6d 9e	 fldcw	 WORD PTR tv735[ebp]
  006da	8a 45 94	 mov	 al, BYTE PTR tv740[ebp]
  006dd	8b 4d ec	 mov	 ecx, DWORD PTR _iQuestIndex$231546[ebp]
  006e0	69 c9 30 04 00
	00		 imul	 ecx, 1072		; 00000430H
  006e6	8b 55 fc	 mov	 edx, DWORD PTR _this$[ebp]
  006e9	8d 4c 0a 08	 lea	 ecx, DWORD PTR [edx+ecx+8]
  006ed	8b 55 e8	 mov	 edx, DWORD PTR _iSubInfoCount$231550[ebp]
  006f0	6b d2 48	 imul	 edx, 72			; 00000048H
  006f3	88 84 11 89 00
	00 00		 mov	 BYTE PTR [ecx+edx+137], al

; 183  : 
; 184  : 						Token = GetToken();

  006fa	e8 00 00 00 00	 call	 ?GetToken@@YA?AW4SMDToken@@XZ ; GetToken
  006ff	89 45 f8	 mov	 DWORD PTR _Token$[ebp], eax

; 185  : 						this->QuestInfo[iQuestIndex].QuestSubInfo[iSubInfoCount].RequireClass[CLASS_MONK] = TokenNumber;

  00702	d9 05 00 00 00
	00		 fld	 DWORD PTR _TokenNumber
  00708	d9 7d 9e	 fnstcw	 WORD PTR tv747[ebp]
  0070b	0f b7 45 9e	 movzx	 eax, WORD PTR tv747[ebp]
  0070f	0d 00 0c 00 00	 or	 eax, 3072		; 00000c00H
  00714	89 45 98	 mov	 DWORD PTR tv750[ebp], eax
  00717	d9 6d 98	 fldcw	 WORD PTR tv750[ebp]
  0071a	db 5d 94	 fistp	 DWORD PTR tv752[ebp]
  0071d	d9 6d 9e	 fldcw	 WORD PTR tv747[ebp]
  00720	8a 45 94	 mov	 al, BYTE PTR tv752[ebp]
  00723	8b 4d ec	 mov	 ecx, DWORD PTR _iQuestIndex$231546[ebp]
  00726	69 c9 30 04 00
	00		 imul	 ecx, 1072		; 00000430H
  0072c	8b 55 fc	 mov	 edx, DWORD PTR _this$[ebp]
  0072f	8d 4c 0a 08	 lea	 ecx, DWORD PTR [edx+ecx+8]
  00733	8b 55 e8	 mov	 edx, DWORD PTR _iSubInfoCount$231550[ebp]
  00736	6b d2 48	 imul	 edx, 72			; 00000048H
  00739	88 84 11 8a 00
	00 00		 mov	 BYTE PTR [ecx+edx+138], al

; 186  : 
; 187  : 						this->QuestInfo[iQuestIndex].QuestSubInfoCount++;

  00740	8b 45 ec	 mov	 eax, DWORD PTR _iQuestIndex$231546[ebp]
  00743	69 c0 30 04 00
	00		 imul	 eax, 1072		; 00000430H
  00749	8b 4d fc	 mov	 ecx, DWORD PTR _this$[ebp]
  0074c	8b 54 01 48	 mov	 edx, DWORD PTR [ecx+eax+72]
  00750	83 c2 01	 add	 edx, 1
  00753	8b 45 ec	 mov	 eax, DWORD PTR _iQuestIndex$231546[ebp]
  00756	69 c0 30 04 00
	00		 imul	 eax, 1072		; 00000430H
  0075c	8b 4d fc	 mov	 ecx, DWORD PTR _this$[ebp]
  0075f	89 54 01 48	 mov	 DWORD PTR [ecx+eax+72], edx

; 188  : 
; 189  : 					
; 190  : 					}

  00763	e9 da fa ff ff	 jmp	 $LN11@LoadQuestI
$LN10@LoadQuestI:

; 191  : 					
; 192  : 					LogAdd("[Quest] (%s) Load : Index %d, SubInfoCount %d",	this->QuestInfo[iQuestIndex].Name, iQuestIndex,	this->QuestInfo[iQuestIndex].QuestSubInfoCount );

  00768	8b 45 ec	 mov	 eax, DWORD PTR _iQuestIndex$231546[ebp]
  0076b	69 c0 30 04 00
	00		 imul	 eax, 1072		; 00000430H
  00771	8b 4d fc	 mov	 ecx, DWORD PTR _this$[ebp]
  00774	8b 54 01 48	 mov	 edx, DWORD PTR [ecx+eax+72]
  00778	52		 push	 edx
  00779	8b 45 ec	 mov	 eax, DWORD PTR _iQuestIndex$231546[ebp]
  0077c	50		 push	 eax
  0077d	8b 4d ec	 mov	 ecx, DWORD PTR _iQuestIndex$231546[ebp]
  00780	69 c9 30 04 00
	00		 imul	 ecx, 1072		; 00000430H
  00786	8b 55 fc	 mov	 edx, DWORD PTR _this$[ebp]
  00789	8d 44 0a 08	 lea	 eax, DWORD PTR [edx+ecx+8]
  0078d	50		 push	 eax
  0078e	68 00 00 00 00	 push	 OFFSET ??_C@_0CO@IPPCPA@?$FLQuest?$FN?5?$CI?$CFs?$CJ?5Load?5?3?5Index?5?$CFd?0?5Su@
  00793	ff 15 00 00 00
	00		 call	 DWORD PTR ?LogAdd@@3P6AXPADZZA ; LogAdd
  00799	83 c4 10	 add	 esp, 16			; 00000010H

; 193  : 					this->m_QuestCount++;

  0079c	8b 45 fc	 mov	 eax, DWORD PTR _this$[ebp]
  0079f	8b 48 04	 mov	 ecx, DWORD PTR [eax+4]
  007a2	83 c1 01	 add	 ecx, 1
  007a5	8b 55 fc	 mov	 edx, DWORD PTR _this$[ebp]
  007a8	89 4a 04	 mov	 DWORD PTR [edx+4], ecx
  007ab	e9 03 02 00 00	 jmp	 $LN1@LoadQuestI
$LN12@LoadQuestI:

; 194  : 				}
; 195  : 				else if ( Type == 1 )

  007b0	83 7d f0 01	 cmp	 DWORD PTR _Type$231544[ebp], 1
  007b4	0f 85 da 01 00
	00		 jne	 $LN6@LoadQuestI

; 196  : 				{
; 197  : 					Token = GetToken();

  007ba	e8 00 00 00 00	 call	 ?GetToken@@YA?AW4SMDToken@@XZ ; GetToken
  007bf	89 45 f8	 mov	 DWORD PTR _Token$[ebp], eax

; 198  : 					int iQuestIndex = TokenNumber;

  007c2	d9 05 00 00 00
	00		 fld	 DWORD PTR _TokenNumber
  007c8	e8 00 00 00 00	 call	 __ftol2_sse
  007cd	89 45 e4	 mov	 DWORD PTR _iQuestIndex$231557[ebp], eax
$LN5@LoadQuestI:

; 199  : 
; 200  : 					while ( true )

  007d0	b8 01 00 00 00	 mov	 eax, 1
  007d5	85 c0		 test	 eax, eax
  007d7	0f 84 b5 01 00
	00		 je	 $LN4@LoadQuestI

; 201  : 					{
; 202  : 						auto iFailInfoCount = this->QuestInfo[iQuestIndex].QuestConditionCount;

  007dd	8b 45 e4	 mov	 eax, DWORD PTR _iQuestIndex$231557[ebp]
  007e0	69 c0 30 04 00
	00		 imul	 eax, 1072		; 00000430H
  007e6	8b 4d fc	 mov	 ecx, DWORD PTR _this$[ebp]
  007e9	8b 94 01 1c 03
	00 00		 mov	 edx, DWORD PTR [ecx+eax+796]
  007f0	89 55 e0	 mov	 DWORD PTR _iFailInfoCount$231561[ebp], edx

; 203  : 						Token = GetToken();

  007f3	e8 00 00 00 00	 call	 ?GetToken@@YA?AW4SMDToken@@XZ ; GetToken
  007f8	89 45 f8	 mov	 DWORD PTR _Token$[ebp], eax

; 204  : 
; 205  : 						if ( Token == 0 )

  007fb	83 7d f8 00	 cmp	 DWORD PTR _Token$[ebp], 0
  007ff	75 1b		 jne	 SHORT $LN2@LoadQuestI

; 206  : 						{
; 207  : 							if ( strcmp("end", TokenString) == 0 )

  00801	68 00 00 00 00	 push	 OFFSET _TokenString
  00806	68 00 00 00 00	 push	 OFFSET ??_C@_03JBJLGPFL@end?$AA@
  0080b	e8 00 00 00 00	 call	 _strcmp
  00810	83 c4 08	 add	 esp, 8
  00813	85 c0		 test	 eax, eax
  00815	75 05		 jne	 SHORT $LN2@LoadQuestI

; 208  : 							{
; 209  : 								break;

  00817	e9 76 01 00 00	 jmp	 $LN4@LoadQuestI
$LN2@LoadQuestI:

; 210  : 							}
; 211  : 						}
; 212  : 							this->QuestInfo[iQuestIndex].QuestCondition[iFailInfoCount].Index = TokenNumber;

  0081c	d9 05 00 00 00
	00		 fld	 DWORD PTR _TokenNumber
  00822	e8 00 00 00 00	 call	 __ftol2_sse
  00827	8b 4d e4	 mov	 ecx, DWORD PTR _iQuestIndex$231557[ebp]
  0082a	69 c9 30 04 00
	00		 imul	 ecx, 1072		; 00000430H
  00830	8b 55 fc	 mov	 edx, DWORD PTR _this$[ebp]
  00833	8d 4c 0a 08	 lea	 ecx, DWORD PTR [edx+ecx+8]
  00837	8b 55 e0	 mov	 edx, DWORD PTR _iFailInfoCount$231561[ebp]
  0083a	6b d2 1c	 imul	 edx, 28			; 0000001cH
  0083d	89 84 11 18 03
	00 00		 mov	 DWORD PTR [ecx+edx+792], eax

; 213  : 
; 214  : 							Token = GetToken();

  00844	e8 00 00 00 00	 call	 ?GetToken@@YA?AW4SMDToken@@XZ ; GetToken
  00849	89 45 f8	 mov	 DWORD PTR _Token$[ebp], eax

; 215  : 							this->QuestInfo[iQuestIndex].QuestCondition[iFailInfoCount].NeedQuestIndex = TokenNumber;

  0084c	d9 05 00 00 00
	00		 fld	 DWORD PTR _TokenNumber
  00852	e8 00 00 00 00	 call	 __ftol2_sse
  00857	8b 4d e4	 mov	 ecx, DWORD PTR _iQuestIndex$231557[ebp]
  0085a	69 c9 30 04 00
	00		 imul	 ecx, 1072		; 00000430H
  00860	8b 55 fc	 mov	 edx, DWORD PTR _this$[ebp]
  00863	8d 4c 0a 08	 lea	 ecx, DWORD PTR [edx+ecx+8]
  00867	8b 55 e0	 mov	 edx, DWORD PTR _iFailInfoCount$231561[ebp]
  0086a	6b d2 1c	 imul	 edx, 28			; 0000001cH
  0086d	89 84 11 1c 03
	00 00		 mov	 DWORD PTR [ecx+edx+796], eax

; 216  : 
; 217  : 							Token = GetToken();

  00874	e8 00 00 00 00	 call	 ?GetToken@@YA?AW4SMDToken@@XZ ; GetToken
  00879	89 45 f8	 mov	 DWORD PTR _Token$[ebp], eax

; 218  : 							this->QuestInfo[iQuestIndex].QuestCondition[iFailInfoCount].MinLevel = TokenNumber;

  0087c	d9 05 00 00 00
	00		 fld	 DWORD PTR _TokenNumber
  00882	e8 00 00 00 00	 call	 __ftol2_sse
  00887	8b 4d e4	 mov	 ecx, DWORD PTR _iQuestIndex$231557[ebp]
  0088a	69 c9 30 04 00
	00		 imul	 ecx, 1072		; 00000430H
  00890	8b 55 fc	 mov	 edx, DWORD PTR _this$[ebp]
  00893	8d 4c 0a 08	 lea	 ecx, DWORD PTR [edx+ecx+8]
  00897	8b 55 e0	 mov	 edx, DWORD PTR _iFailInfoCount$231561[ebp]
  0089a	6b d2 1c	 imul	 edx, 28			; 0000001cH
  0089d	89 84 11 20 03
	00 00		 mov	 DWORD PTR [ecx+edx+800], eax

; 219  : 
; 220  : 							Token = GetToken();

  008a4	e8 00 00 00 00	 call	 ?GetToken@@YA?AW4SMDToken@@XZ ; GetToken
  008a9	89 45 f8	 mov	 DWORD PTR _Token$[ebp], eax

; 221  : 							this->QuestInfo[iQuestIndex].QuestCondition[iFailInfoCount].MaxLevel = TokenNumber;

  008ac	d9 05 00 00 00
	00		 fld	 DWORD PTR _TokenNumber
  008b2	e8 00 00 00 00	 call	 __ftol2_sse
  008b7	8b 4d e4	 mov	 ecx, DWORD PTR _iQuestIndex$231557[ebp]
  008ba	69 c9 30 04 00
	00		 imul	 ecx, 1072		; 00000430H
  008c0	8b 55 fc	 mov	 edx, DWORD PTR _this$[ebp]
  008c3	8d 4c 0a 08	 lea	 ecx, DWORD PTR [edx+ecx+8]
  008c7	8b 55 e0	 mov	 edx, DWORD PTR _iFailInfoCount$231561[ebp]
  008ca	6b d2 1c	 imul	 edx, 28			; 0000001cH
  008cd	89 84 11 24 03
	00 00		 mov	 DWORD PTR [ecx+edx+804], eax

; 222  : 
; 223  : 							Token = GetToken();

  008d4	e8 00 00 00 00	 call	 ?GetToken@@YA?AW4SMDToken@@XZ ; GetToken
  008d9	89 45 f8	 mov	 DWORD PTR _Token$[ebp], eax

; 224  : 							this->QuestInfo[iQuestIndex].QuestCondition[iFailInfoCount].ReqStr = TokenNumber;

  008dc	d9 05 00 00 00
	00		 fld	 DWORD PTR _TokenNumber
  008e2	e8 00 00 00 00	 call	 __ftol2_sse
  008e7	8b 4d e4	 mov	 ecx, DWORD PTR _iQuestIndex$231557[ebp]
  008ea	69 c9 30 04 00
	00		 imul	 ecx, 1072		; 00000430H
  008f0	8b 55 fc	 mov	 edx, DWORD PTR _this$[ebp]
  008f3	8d 4c 0a 08	 lea	 ecx, DWORD PTR [edx+ecx+8]
  008f7	8b 55 e0	 mov	 edx, DWORD PTR _iFailInfoCount$231561[ebp]
  008fa	6b d2 1c	 imul	 edx, 28			; 0000001cH
  008fd	89 84 11 28 03
	00 00		 mov	 DWORD PTR [ecx+edx+808], eax

; 225  : 
; 226  : 							Token = GetToken();

  00904	e8 00 00 00 00	 call	 ?GetToken@@YA?AW4SMDToken@@XZ ; GetToken
  00909	89 45 f8	 mov	 DWORD PTR _Token$[ebp], eax

; 227  : 							this->QuestInfo[iQuestIndex].QuestCondition[iFailInfoCount].NeedZen = TokenNumber;

  0090c	d9 05 00 00 00
	00		 fld	 DWORD PTR _TokenNumber
  00912	e8 00 00 00 00	 call	 __ftol2_sse
  00917	8b 4d e4	 mov	 ecx, DWORD PTR _iQuestIndex$231557[ebp]
  0091a	69 c9 30 04 00
	00		 imul	 ecx, 1072		; 00000430H
  00920	8b 55 fc	 mov	 edx, DWORD PTR _this$[ebp]
  00923	8d 4c 0a 08	 lea	 ecx, DWORD PTR [edx+ecx+8]
  00927	8b 55 e0	 mov	 edx, DWORD PTR _iFailInfoCount$231561[ebp]
  0092a	6b d2 1c	 imul	 edx, 28			; 0000001cH
  0092d	89 84 11 2c 03
	00 00		 mov	 DWORD PTR [ecx+edx+812], eax

; 228  : 
; 229  : 							Token = GetToken();

  00934	e8 00 00 00 00	 call	 ?GetToken@@YA?AW4SMDToken@@XZ ; GetToken
  00939	89 45 f8	 mov	 DWORD PTR _Token$[ebp], eax

; 230  : 							this->QuestInfo[iQuestIndex].QuestCondition[iFailInfoCount].StartContext = TokenNumber;

  0093c	d9 05 00 00 00
	00		 fld	 DWORD PTR _TokenNumber
  00942	e8 00 00 00 00	 call	 __ftol2_sse
  00947	8b 4d e4	 mov	 ecx, DWORD PTR _iQuestIndex$231557[ebp]
  0094a	69 c9 30 04 00
	00		 imul	 ecx, 1072		; 00000430H
  00950	8b 55 fc	 mov	 edx, DWORD PTR _this$[ebp]
  00953	8d 4c 0a 08	 lea	 ecx, DWORD PTR [edx+ecx+8]
  00957	8b 55 e0	 mov	 edx, DWORD PTR _iFailInfoCount$231561[ebp]
  0095a	6b d2 1c	 imul	 edx, 28			; 0000001cH
  0095d	89 84 11 30 03
	00 00		 mov	 DWORD PTR [ecx+edx+816], eax

; 231  : 
; 232  : 							this->QuestInfo[iQuestIndex].QuestConditionCount++;

  00964	8b 45 e4	 mov	 eax, DWORD PTR _iQuestIndex$231557[ebp]
  00967	69 c0 30 04 00
	00		 imul	 eax, 1072		; 00000430H
  0096d	8b 4d fc	 mov	 ecx, DWORD PTR _this$[ebp]
  00970	8b 94 01 1c 03
	00 00		 mov	 edx, DWORD PTR [ecx+eax+796]
  00977	83 c2 01	 add	 edx, 1
  0097a	8b 45 e4	 mov	 eax, DWORD PTR _iQuestIndex$231557[ebp]
  0097d	69 c0 30 04 00
	00		 imul	 eax, 1072		; 00000430H
  00983	8b 4d fc	 mov	 ecx, DWORD PTR _this$[ebp]
  00986	89 94 01 1c 03
	00 00		 mov	 DWORD PTR [ecx+eax+796], edx

; 233  : 						
; 234  : 					}

  0098d	e9 3e fe ff ff	 jmp	 $LN5@LoadQuestI
$LN4@LoadQuestI:

; 235  : 				}
; 236  : 				else

  00992	eb 1f		 jmp	 SHORT $LN1@LoadQuestI
$LN6@LoadQuestI:

; 237  : 				{
; 238  : 					MsgBox("Quest Info Read Fail");

  00994	68 00 00 00 00	 push	 OFFSET ??_C@_0BF@JAOCNINL@Quest?5Info?5Read?5Fail?$AA@
  00999	e8 00 00 00 00	 call	 ?MsgBox@@YAXPADZZ	; MsgBox
  0099e	83 c4 04	 add	 esp, 4

; 239  : 					fclose(SMDFile);

  009a1	a1 00 00 00 00	 mov	 eax, DWORD PTR _SMDFile
  009a6	50		 push	 eax
  009a7	e8 00 00 00 00	 call	 _fclose
  009ac	83 c4 04	 add	 esp, 4

; 240  : 					return false;

  009af	33 c0		 xor	 eax, eax
  009b1	eb 20		 jmp	 SHORT $LN19@LoadQuestI
$LN1@LoadQuestI:

; 241  : 				}
; 242  : 			}
; 243  : 		}
; 244  : 	}

  009b3	e9 9a f7 ff ff	 jmp	 $LN17@LoadQuestI
$LN16@LoadQuestI:

; 245  : 
; 246  : 	fclose(SMDFile);

  009b8	a1 00 00 00 00	 mov	 eax, DWORD PTR _SMDFile
  009bd	50		 push	 eax
  009be	e8 00 00 00 00	 call	 _fclose
  009c3	83 c4 04	 add	 esp, 4

; 247  : 	this->InitQuestItem();

  009c6	8b 4d fc	 mov	 ecx, DWORD PTR _this$[ebp]
  009c9	e8 00 00 00 00	 call	 ?InitQuestItem@CQuestInfo@@QAEXXZ ; CQuestInfo::InitQuestItem

; 248  : 	return true;

  009ce	b8 01 00 00 00	 mov	 eax, 1
$LN19@LoadQuestI:

; 249  : }

  009d3	5f		 pop	 edi
  009d4	5e		 pop	 esi
  009d5	5b		 pop	 ebx
  009d6	8b e5		 mov	 esp, ebp
  009d8	5d		 pop	 ebp
  009d9	c2 04 00	 ret	 4
?LoadQuestInfo@CQuestInfo@@QAEHPAD@Z ENDP		; CQuestInfo::LoadQuestInfo
_TEXT	ENDS
PUBLIC	__$ArrayPad$
EXTRN	_isalnum:PROC
EXTRN	_isalpha:PROC
EXTRN	_atof:PROC
EXTRN	_isdigit:PROC
EXTRN	_getc:PROC
EXTRN	_ungetc:PROC
EXTRN	_isspace:PROC
EXTRN	_fgetc:PROC
EXTRN	___security_cookie:DWORD
EXTRN	__fltused:DWORD
EXTRN	@__security_check_cookie@4:PROC
_BSS	SEGMENT
_CurrentToken DD 01H DUP (?)
; Function compile flags: /Odtp /ZI
; File d:\projects\exteam6.3\source\gameserver\include\readscript.h
_BSS	ENDS
_TEXT	SEGMENT
tv90 = -180						; size = 4
_TempString$ = -112					; size = 100
_p$ = -12						; size = 4
_ch$ = -5						; size = 1
__$ArrayPad$ = -4					; size = 4
?GetToken@@YA?AW4SMDToken@@XZ PROC			; GetToken

; 24   : {

  009e0	55		 push	 ebp
  009e1	8b ec		 mov	 ebp, esp
  009e3	81 ec b4 00 00
	00		 sub	 esp, 180		; 000000b4H
  009e9	a1 00 00 00 00	 mov	 eax, DWORD PTR ___security_cookie
  009ee	33 c5		 xor	 eax, ebp
  009f0	89 45 fc	 mov	 DWORD PTR __$ArrayPad$[ebp], eax
  009f3	53		 push	 ebx
  009f4	56		 push	 esi
  009f5	57		 push	 edi

; 25   : 	char ch;
; 26   : 	char* p;
; 27   : 	char TempString[100];
; 28   : 
; 29   : 	TokenString[0]=0;

  009f6	c6 05 00 00 00
	00 00		 mov	 BYTE PTR _TokenString, 0
$LN31@GetToken:

; 30   : 
; 31   : 	do
; 32   : 	{
; 33   : 		if ((ch=fgetc(SMDFile)) == -1)

  009fd	a1 00 00 00 00	 mov	 eax, DWORD PTR _SMDFile
  00a02	50		 push	 eax
  00a03	e8 00 00 00 00	 call	 _fgetc
  00a08	83 c4 04	 add	 esp, 4
  00a0b	88 45 fb	 mov	 BYTE PTR _ch$[ebp], al
  00a0e	0f be 4d fb	 movsx	 ecx, BYTE PTR _ch$[ebp]
  00a12	83 f9 ff	 cmp	 ecx, -1
  00a15	75 0c		 jne	 SHORT $LN28@GetToken

; 34   : 		{
; 35   : 			return END;	// End of FILE (EOF)

  00a17	b8 02 00 00 00	 mov	 eax, 2
  00a1c	e9 f7 02 00 00	 jmp	 $LN32@GetToken

; 36   : 		}
; 37   : 		else

  00a21	eb 5b		 jmp	 SHORT $LN22@GetToken
$LN28@GetToken:

; 38   : 		{	
; 39   : 			if (ch=='/')		// this is /

  00a23	0f be 45 fb	 movsx	 eax, BYTE PTR _ch$[ebp]
  00a27	83 f8 2f	 cmp	 eax, 47			; 0000002fH
  00a2a	75 52		 jne	 SHORT $LN22@GetToken

; 40   : 			{
; 41   : 				if((ch=fgetc(SMDFile)) == '/')

  00a2c	a1 00 00 00 00	 mov	 eax, DWORD PTR _SMDFile
  00a31	50		 push	 eax
  00a32	e8 00 00 00 00	 call	 _fgetc
  00a37	83 c4 04	 add	 esp, 4
  00a3a	88 45 fb	 mov	 BYTE PTR _ch$[ebp], al
  00a3d	0f be 4d fb	 movsx	 ecx, BYTE PTR _ch$[ebp]
  00a41	83 f9 2f	 cmp	 ecx, 47			; 0000002fH
  00a44	75 38		 jne	 SHORT $LN22@GetToken
$LN24@GetToken:

; 42   : 				{
; 43   : 					while ((ch != '\n') && (ch != -1))	// End of Line (EOL)

  00a46	0f be 45 fb	 movsx	 eax, BYTE PTR _ch$[ebp]
  00a4a	83 f8 0a	 cmp	 eax, 10			; 0000000aH
  00a4d	74 1c		 je	 SHORT $LN23@GetToken
  00a4f	0f be 45 fb	 movsx	 eax, BYTE PTR _ch$[ebp]
  00a53	83 f8 ff	 cmp	 eax, -1
  00a56	74 13		 je	 SHORT $LN23@GetToken

; 44   : 					{
; 45   : 						ch=fgetc(SMDFile);

  00a58	a1 00 00 00 00	 mov	 eax, DWORD PTR _SMDFile
  00a5d	50		 push	 eax
  00a5e	e8 00 00 00 00	 call	 _fgetc
  00a63	83 c4 04	 add	 esp, 4
  00a66	88 45 fb	 mov	 BYTE PTR _ch$[ebp], al

; 46   : 					}

  00a69	eb db		 jmp	 SHORT $LN24@GetToken
$LN23@GetToken:

; 47   : 	
; 48   : 					if (ch == -1)

  00a6b	0f be 45 fb	 movsx	 eax, BYTE PTR _ch$[ebp]
  00a6f	83 f8 ff	 cmp	 eax, -1
  00a72	75 0a		 jne	 SHORT $LN22@GetToken

; 49   : 					{
; 50   : 						return END;	// End of FILE

  00a74	b8 02 00 00 00	 mov	 eax, 2
  00a79	e9 9a 02 00 00	 jmp	 $LN32@GetToken
$LN22@GetToken:

; 51   : 					}
; 52   : 				}
; 53   : 			}
; 54   : 		}
; 55   : 	}
; 56   : 	while (isspace(ch) != 0);

  00a7e	0f be 45 fb	 movsx	 eax, BYTE PTR _ch$[ebp]
  00a82	50		 push	 eax
  00a83	e8 00 00 00 00	 call	 _isspace
  00a88	83 c4 04	 add	 esp, 4
  00a8b	85 c0		 test	 eax, eax
  00a8d	0f 85 6a ff ff
	ff		 jne	 $LN31@GetToken

; 57   : 
; 58   : 	
; 59   : 	switch(ch)

  00a93	0f be 45 fb	 movsx	 eax, BYTE PTR _ch$[ebp]
  00a97	89 85 4c ff ff
	ff		 mov	 DWORD PTR tv90[ebp], eax
  00a9d	8b 8d 4c ff ff
	ff		 mov	 ecx, DWORD PTR tv90[ebp]
  00aa3	83 e9 22	 sub	 ecx, 34			; 00000022H
  00aa6	89 8d 4c ff ff
	ff		 mov	 DWORD PTR tv90[ebp], ecx
  00aac	83 bd 4c ff ff
	ff 5b		 cmp	 DWORD PTR tv90[ebp], 91	; 0000005bH
  00ab3	0f 87 a3 01 00
	00		 ja	 $LN6@GetToken
  00ab9	8b 95 4c ff ff
	ff		 mov	 edx, DWORD PTR tv90[ebp]
  00abf	0f b6 82 00 00
	00 00		 movzx	 eax, BYTE PTR $LN34@GetToken[edx]
  00ac6	ff 24 85 00 00
	00 00		 jmp	 DWORD PTR $LN35@GetToken[eax*4]
$LN19@GetToken:

; 60   : 	{
; 61   : 
; 62   : 	case 0x23:	// #
; 63   : 		return CurrentToken=COMMAND;

  00acd	c7 05 00 00 00
	00 23 00 00 00	 mov	 DWORD PTR _CurrentToken, 35 ; 00000023H
  00ad7	a1 00 00 00 00	 mov	 eax, DWORD PTR _CurrentToken
  00adc	e9 37 02 00 00	 jmp	 $LN32@GetToken

; 64   : 		break;

  00ae1	e9 30 02 00 00	 jmp	 $LN20@GetToken
$LN18@GetToken:

; 65   : 	
; 66   : 	case 0x3B:	// ;
; 67   : 		return CurrentToken=SEMICOLON;

  00ae6	c7 05 00 00 00
	00 3b 00 00 00	 mov	 DWORD PTR _CurrentToken, 59 ; 0000003bH
  00af0	a1 00 00 00 00	 mov	 eax, DWORD PTR _CurrentToken
  00af5	e9 1e 02 00 00	 jmp	 $LN32@GetToken

; 68   : 		break;

  00afa	e9 17 02 00 00	 jmp	 $LN20@GetToken
$LN17@GetToken:

; 69   : 	
; 70   : 	case 0x2C:	// ,
; 71   : 
; 72   : 		return CurrentToken=COMMA;

  00aff	c7 05 00 00 00
	00 2c 00 00 00	 mov	 DWORD PTR _CurrentToken, 44 ; 0000002cH
  00b09	a1 00 00 00 00	 mov	 eax, DWORD PTR _CurrentToken
  00b0e	e9 05 02 00 00	 jmp	 $LN32@GetToken

; 73   : 		break;

  00b13	e9 fe 01 00 00	 jmp	 $LN20@GetToken
$LN16@GetToken:

; 74   : 	
; 75   : 	case 0x7B:	// {
; 76   : 		return CurrentToken = LP;

  00b18	c7 05 00 00 00
	00 7b 00 00 00	 mov	 DWORD PTR _CurrentToken, 123 ; 0000007bH
  00b22	a1 00 00 00 00	 mov	 eax, DWORD PTR _CurrentToken
  00b27	e9 ec 01 00 00	 jmp	 $LN32@GetToken

; 77   : 		break;

  00b2c	e9 e5 01 00 00	 jmp	 $LN20@GetToken
$LN15@GetToken:

; 78   : 
; 79   : 	case 0x7D:	// }
; 80   : 		return CurrentToken = RP;

  00b31	c7 05 00 00 00
	00 7d 00 00 00	 mov	 DWORD PTR _CurrentToken, 125 ; 0000007dH
  00b3b	a1 00 00 00 00	 mov	 eax, DWORD PTR _CurrentToken
  00b40	e9 d3 01 00 00	 jmp	 $LN32@GetToken

; 81   : 		break;

  00b45	e9 cc 01 00 00	 jmp	 $LN20@GetToken
$LN14@GetToken:

; 82   : 	// Nice Index Table :)	by Deathway
; 83   : 	// Numbers Case
; 84   : 	case 0x2D:	//-
; 85   : 	case 0x2E:	//.
; 86   : 	case '0':	//0
; 87   : 	case '1':	//1
; 88   : 	case '2':	//2
; 89   : 	case '3':	//3
; 90   : 	case '4':	//4		
; 91   : 	case '5':	//5
; 92   : 	case '6':	//6
; 93   : 	case '7':	//7
; 94   : 	case '8':	//8
; 95   : 	case '9':	//9
; 96   : 		ungetc(ch, SMDFile);

  00b4a	a1 00 00 00 00	 mov	 eax, DWORD PTR _SMDFile
  00b4f	50		 push	 eax
  00b50	0f be 4d fb	 movsx	 ecx, BYTE PTR _ch$[ebp]
  00b54	51		 push	 ecx
  00b55	e8 00 00 00 00	 call	 _ungetc
  00b5a	83 c4 08	 add	 esp, 8

; 97   : 		p = TempString;

  00b5d	8d 45 90	 lea	 eax, DWORD PTR _TempString$[ebp]
  00b60	89 45 f4	 mov	 DWORD PTR _p$[ebp], eax
$LN13@GetToken:

; 98   : 		
; 99   : 		while (((ch=getc(SMDFile)) != -1) && ((ch == 0x2E) || (isdigit(ch) != 0) || (ch == 0x2D)))  // 2e '.'  2D '-'

  00b63	a1 00 00 00 00	 mov	 eax, DWORD PTR _SMDFile
  00b68	50		 push	 eax
  00b69	e8 00 00 00 00	 call	 _getc
  00b6e	83 c4 04	 add	 esp, 4
  00b71	88 45 fb	 mov	 BYTE PTR _ch$[ebp], al
  00b74	0f be 4d fb	 movsx	 ecx, BYTE PTR _ch$[ebp]
  00b78	83 f9 ff	 cmp	 ecx, -1
  00b7b	74 36		 je	 SHORT $LN12@GetToken
  00b7d	0f be 45 fb	 movsx	 eax, BYTE PTR _ch$[ebp]
  00b81	83 f8 2e	 cmp	 eax, 46			; 0000002eH
  00b84	74 1a		 je	 SHORT $LN11@GetToken
  00b86	0f be 45 fb	 movsx	 eax, BYTE PTR _ch$[ebp]
  00b8a	50		 push	 eax
  00b8b	e8 00 00 00 00	 call	 _isdigit
  00b90	83 c4 04	 add	 esp, 4
  00b93	85 c0		 test	 eax, eax
  00b95	75 09		 jne	 SHORT $LN11@GetToken
  00b97	0f be 45 fb	 movsx	 eax, BYTE PTR _ch$[ebp]
  00b9b	83 f8 2d	 cmp	 eax, 45			; 0000002dH
  00b9e	75 13		 jne	 SHORT $LN12@GetToken
$LN11@GetToken:

; 100  : 		{
; 101  : 			*p = ch;	// Construct a String

  00ba0	8b 45 f4	 mov	 eax, DWORD PTR _p$[ebp]
  00ba3	8a 4d fb	 mov	 cl, BYTE PTR _ch$[ebp]
  00ba6	88 08		 mov	 BYTE PTR [eax], cl

; 102  : 			p++;

  00ba8	8b 45 f4	 mov	 eax, DWORD PTR _p$[ebp]
  00bab	83 c0 01	 add	 eax, 1
  00bae	89 45 f4	 mov	 DWORD PTR _p$[ebp], eax

; 103  : 		}		

  00bb1	eb b0		 jmp	 SHORT $LN13@GetToken
$LN12@GetToken:

; 104  : 		*p = 0;

  00bb3	8b 45 f4	 mov	 eax, DWORD PTR _p$[ebp]
  00bb6	c6 00 00	 mov	 BYTE PTR [eax], 0

; 105  : 		TokenNumber = atof( TempString);	// Select the first Byte as Main ID

  00bb9	8d 45 90	 lea	 eax, DWORD PTR _TempString$[ebp]
  00bbc	50		 push	 eax
  00bbd	e8 00 00 00 00	 call	 _atof
  00bc2	83 c4 04	 add	 esp, 4
  00bc5	d9 1d 00 00 00
	00		 fstp	 DWORD PTR _TokenNumber

; 106  : 		return CurrentToken  = NUMBER ;

  00bcb	c7 05 00 00 00
	00 01 00 00 00	 mov	 DWORD PTR _CurrentToken, 1
  00bd5	a1 00 00 00 00	 mov	 eax, DWORD PTR _CurrentToken
  00bda	e9 39 01 00 00	 jmp	 $LN32@GetToken

; 107  : 		break;

  00bdf	e9 32 01 00 00	 jmp	 $LN20@GetToken
$LN10@GetToken:

; 108  : 
; 109  : 	case '\"':	// "	String Case
; 110  : 		p=&TokenString[0];

  00be4	c7 45 f4 00 00
	00 00		 mov	 DWORD PTR _p$[ebp], OFFSET _TokenString
$LN9@GetToken:

; 111  : 		
; 112  : 		while (((ch=getc(SMDFile)) != -1 ) && (ch != 0x22))	// nice

  00beb	a1 00 00 00 00	 mov	 eax, DWORD PTR _SMDFile
  00bf0	50		 push	 eax
  00bf1	e8 00 00 00 00	 call	 _getc
  00bf6	83 c4 04	 add	 esp, 4
  00bf9	88 45 fb	 mov	 BYTE PTR _ch$[ebp], al
  00bfc	0f be 4d fb	 movsx	 ecx, BYTE PTR _ch$[ebp]
  00c00	83 f9 ff	 cmp	 ecx, -1
  00c03	74 1c		 je	 SHORT $LN8@GetToken
  00c05	0f be 45 fb	 movsx	 eax, BYTE PTR _ch$[ebp]
  00c09	83 f8 22	 cmp	 eax, 34			; 00000022H
  00c0c	74 13		 je	 SHORT $LN8@GetToken

; 113  : 		{
; 114  : 			*p = ch;

  00c0e	8b 45 f4	 mov	 eax, DWORD PTR _p$[ebp]
  00c11	8a 4d fb	 mov	 cl, BYTE PTR _ch$[ebp]
  00c14	88 08		 mov	 BYTE PTR [eax], cl

; 115  : 			p++;

  00c16	8b 45 f4	 mov	 eax, DWORD PTR _p$[ebp]
  00c19	83 c0 01	 add	 eax, 1
  00c1c	89 45 f4	 mov	 DWORD PTR _p$[ebp], eax

; 116  : 		}

  00c1f	eb ca		 jmp	 SHORT $LN9@GetToken
$LN8@GetToken:

; 117  : 		if (ch != 0x22 )

  00c21	0f be 45 fb	 movsx	 eax, BYTE PTR _ch$[ebp]
  00c25	83 f8 22	 cmp	 eax, 34			; 00000022H
  00c28	74 13		 je	 SHORT $LN7@GetToken

; 118  : 		{
; 119  : 			ungetc(ch, SMDFile);

  00c2a	a1 00 00 00 00	 mov	 eax, DWORD PTR _SMDFile
  00c2f	50		 push	 eax
  00c30	0f be 4d fb	 movsx	 ecx, BYTE PTR _ch$[ebp]
  00c34	51		 push	 ecx
  00c35	e8 00 00 00 00	 call	 _ungetc
  00c3a	83 c4 08	 add	 esp, 8
$LN7@GetToken:

; 120  : 		}
; 121  : 		*p = 0;

  00c3d	8b 45 f4	 mov	 eax, DWORD PTR _p$[ebp]
  00c40	c6 00 00	 mov	 BYTE PTR [eax], 0

; 122  : 		return CurrentToken = NAME;

  00c43	c7 05 00 00 00
	00 00 00 00 00	 mov	 DWORD PTR _CurrentToken, 0
  00c4d	a1 00 00 00 00	 mov	 eax, DWORD PTR _CurrentToken
  00c52	e9 c1 00 00 00	 jmp	 $LN32@GetToken

; 123  : 		break;

  00c57	e9 ba 00 00 00	 jmp	 $LN20@GetToken
$LN6@GetToken:

; 124  : 
; 125  : 	default:	// Others
; 126  : 		if (isalpha(ch))

  00c5c	0f be 45 fb	 movsx	 eax, BYTE PTR _ch$[ebp]
  00c60	50		 push	 eax
  00c61	e8 00 00 00 00	 call	 _isalpha
  00c66	83 c4 04	 add	 esp, 4
  00c69	85 c0		 test	 eax, eax
  00c6b	0f 84 94 00 00
	00		 je	 $LN5@GetToken

; 127  : 		{
; 128  : 			p=&TokenString[0];

  00c71	c7 45 f4 00 00
	00 00		 mov	 DWORD PTR _p$[ebp], OFFSET _TokenString

; 129  : 			*p=ch;

  00c78	8b 45 f4	 mov	 eax, DWORD PTR _p$[ebp]
  00c7b	8a 4d fb	 mov	 cl, BYTE PTR _ch$[ebp]
  00c7e	88 08		 mov	 BYTE PTR [eax], cl

; 130  : 			p++;

  00c80	8b 45 f4	 mov	 eax, DWORD PTR _p$[ebp]
  00c83	83 c0 01	 add	 eax, 1
  00c86	89 45 f4	 mov	 DWORD PTR _p$[ebp], eax
$LN4@GetToken:

; 131  : 
; 132  : 			while ( ((ch=getc(SMDFile)) != -1) && ( (ch == 0x2E) || (ch == 0x5F) || (isalnum(ch) != 0) ) )

  00c89	a1 00 00 00 00	 mov	 eax, DWORD PTR _SMDFile
  00c8e	50		 push	 eax
  00c8f	e8 00 00 00 00	 call	 _getc
  00c94	83 c4 04	 add	 esp, 4
  00c97	88 45 fb	 mov	 BYTE PTR _ch$[ebp], al
  00c9a	0f be 4d fb	 movsx	 ecx, BYTE PTR _ch$[ebp]
  00c9e	83 f9 ff	 cmp	 ecx, -1
  00ca1	74 36		 je	 SHORT $LN3@GetToken
  00ca3	0f be 45 fb	 movsx	 eax, BYTE PTR _ch$[ebp]
  00ca7	83 f8 2e	 cmp	 eax, 46			; 0000002eH
  00caa	74 1a		 je	 SHORT $LN2@GetToken
  00cac	0f be 45 fb	 movsx	 eax, BYTE PTR _ch$[ebp]
  00cb0	83 f8 5f	 cmp	 eax, 95			; 0000005fH
  00cb3	74 11		 je	 SHORT $LN2@GetToken
  00cb5	0f be 45 fb	 movsx	 eax, BYTE PTR _ch$[ebp]
  00cb9	50		 push	 eax
  00cba	e8 00 00 00 00	 call	 _isalnum
  00cbf	83 c4 04	 add	 esp, 4
  00cc2	85 c0		 test	 eax, eax
  00cc4	74 13		 je	 SHORT $LN3@GetToken
$LN2@GetToken:

; 133  : 			{
; 134  : 				*p=ch;

  00cc6	8b 45 f4	 mov	 eax, DWORD PTR _p$[ebp]
  00cc9	8a 4d fb	 mov	 cl, BYTE PTR _ch$[ebp]
  00ccc	88 08		 mov	 BYTE PTR [eax], cl

; 135  : 				p++;

  00cce	8b 45 f4	 mov	 eax, DWORD PTR _p$[ebp]
  00cd1	83 c0 01	 add	 eax, 1
  00cd4	89 45 f4	 mov	 DWORD PTR _p$[ebp], eax

; 136  : 				
; 137  : 			}

  00cd7	eb b0		 jmp	 SHORT $LN4@GetToken
$LN3@GetToken:

; 138  : 
; 139  : 			ungetc(ch, SMDFile);

  00cd9	a1 00 00 00 00	 mov	 eax, DWORD PTR _SMDFile
  00cde	50		 push	 eax
  00cdf	0f be 4d fb	 movsx	 ecx, BYTE PTR _ch$[ebp]
  00ce3	51		 push	 ecx
  00ce4	e8 00 00 00 00	 call	 _ungetc
  00ce9	83 c4 08	 add	 esp, 8

; 140  : 			*p=0;

  00cec	8b 45 f4	 mov	 eax, DWORD PTR _p$[ebp]
  00cef	c6 00 00	 mov	 BYTE PTR [eax], 0

; 141  : 			CurrentToken=NAME;

  00cf2	c7 05 00 00 00
	00 00 00 00 00	 mov	 DWORD PTR _CurrentToken, 0

; 142  : 			return CurrentToken;

  00cfc	a1 00 00 00 00	 mov	 eax, DWORD PTR _CurrentToken
  00d01	eb 15		 jmp	 SHORT $LN32@GetToken

; 143  : 		}
; 144  : 		else

  00d03	eb 11		 jmp	 SHORT $LN1@GetToken
$LN5@GetToken:

; 145  : 		{
; 146  : 			return CurrentToken = SMD_ERROR; // '<'

  00d05	c7 05 00 00 00
	00 3c 00 00 00	 mov	 DWORD PTR _CurrentToken, 60 ; 0000003cH
  00d0f	a1 00 00 00 00	 mov	 eax, DWORD PTR _CurrentToken
  00d14	eb 02		 jmp	 SHORT $LN32@GetToken
$LN1@GetToken:
$LN20@GetToken:

; 147  : 		}
; 148  : 		break;
; 149  : 
; 150  : 	}
; 151  : 
; 152  : 	return NAME;

  00d16	33 c0		 xor	 eax, eax
$LN32@GetToken:

; 153  : }

  00d18	5f		 pop	 edi
  00d19	5e		 pop	 esi
  00d1a	5b		 pop	 ebx
  00d1b	8b 4d fc	 mov	 ecx, DWORD PTR __$ArrayPad$[ebp]
  00d1e	33 cd		 xor	 ecx, ebp
  00d20	e8 00 00 00 00	 call	 @__security_check_cookie@4
  00d25	8b e5		 mov	 esp, ebp
  00d27	5d		 pop	 ebp
  00d28	c3		 ret	 0
  00d29	8d 49 00	 npad	 3
$LN35@GetToken:
  00d2c	00 00 00 00	 DD	 $LN10@GetToken
  00d30	00 00 00 00	 DD	 $LN19@GetToken
  00d34	00 00 00 00	 DD	 $LN17@GetToken
  00d38	00 00 00 00	 DD	 $LN14@GetToken
  00d3c	00 00 00 00	 DD	 $LN18@GetToken
  00d40	00 00 00 00	 DD	 $LN16@GetToken
  00d44	00 00 00 00	 DD	 $LN15@GetToken
  00d48	00 00 00 00	 DD	 $LN6@GetToken
$LN34@GetToken:
  00d4c	00		 DB	 0
  00d4d	01		 DB	 1
  00d4e	07		 DB	 7
  00d4f	07		 DB	 7
  00d50	07		 DB	 7
  00d51	07		 DB	 7
  00d52	07		 DB	 7
  00d53	07		 DB	 7
  00d54	07		 DB	 7
  00d55	07		 DB	 7
  00d56	02		 DB	 2
  00d57	03		 DB	 3
  00d58	03		 DB	 3
  00d59	07		 DB	 7
  00d5a	03		 DB	 3
  00d5b	03		 DB	 3
  00d5c	03		 DB	 3
  00d5d	03		 DB	 3
  00d5e	03		 DB	 3
  00d5f	03		 DB	 3
  00d60	03		 DB	 3
  00d61	03		 DB	 3
  00d62	03		 DB	 3
  00d63	03		 DB	 3
  00d64	07		 DB	 7
  00d65	04		 DB	 4
  00d66	07		 DB	 7
  00d67	07		 DB	 7
  00d68	07		 DB	 7
  00d69	07		 DB	 7
  00d6a	07		 DB	 7
  00d6b	07		 DB	 7
  00d6c	07		 DB	 7
  00d6d	07		 DB	 7
  00d6e	07		 DB	 7
  00d6f	07		 DB	 7
  00d70	07		 DB	 7
  00d71	07		 DB	 7
  00d72	07		 DB	 7
  00d73	07		 DB	 7
  00d74	07		 DB	 7
  00d75	07		 DB	 7
  00d76	07		 DB	 7
  00d77	07		 DB	 7
  00d78	07		 DB	 7
  00d79	07		 DB	 7
  00d7a	07		 DB	 7
  00d7b	07		 DB	 7
  00d7c	07		 DB	 7
  00d7d	07		 DB	 7
  00d7e	07		 DB	 7
  00d7f	07		 DB	 7
  00d80	07		 DB	 7
  00d81	07		 DB	 7
  00d82	07		 DB	 7
  00d83	07		 DB	 7
  00d84	07		 DB	 7
  00d85	07		 DB	 7
  00d86	07		 DB	 7
  00d87	07		 DB	 7
  00d88	07		 DB	 7
  00d89	07		 DB	 7
  00d8a	07		 DB	 7
  00d8b	07		 DB	 7
  00d8c	07		 DB	 7
  00d8d	07		 DB	 7
  00d8e	07		 DB	 7
  00d8f	07		 DB	 7
  00d90	07		 DB	 7
  00d91	07		 DB	 7
  00d92	07		 DB	 7
  00d93	07		 DB	 7
  00d94	07		 DB	 7
  00d95	07		 DB	 7
  00d96	07		 DB	 7
  00d97	07		 DB	 7
  00d98	07		 DB	 7
  00d99	07		 DB	 7
  00d9a	07		 DB	 7
  00d9b	07		 DB	 7
  00d9c	07		 DB	 7
  00d9d	07		 DB	 7
  00d9e	07		 DB	 7
  00d9f	07		 DB	 7
  00da0	07		 DB	 7
  00da1	07		 DB	 7
  00da2	07		 DB	 7
  00da3	07		 DB	 7
  00da4	07		 DB	 7
  00da5	05		 DB	 5
  00da6	07		 DB	 7
  00da7	06		 DB	 6
?GetToken@@YA?AW4SMDToken@@XZ ENDP			; GetToken
_TEXT	ENDS
PUBLIC	__$ArrayPad$
PUBLIC	?LoadQuestInfo@CQuestInfo@@QAEHPADH@Z		; CQuestInfo::LoadQuestInfo
EXTRN	??1CWzMemScript@@UAE@XZ:PROC			; CWzMemScript::~CWzMemScript
EXTRN	?GetString@CWzMemScript@@QAEPADXZ:PROC		; CWzMemScript::GetString
EXTRN	?GetNumber@CWzMemScript@@QAEHXZ:PROC		; CWzMemScript::GetNumber
EXTRN	?GetToken@CWzMemScript@@QAE?AW4SMDToken@@XZ:PROC ; CWzMemScript::GetToken
EXTRN	?SetBuffer@CWzMemScript@@QAEHPADH@Z:PROC	; CWzMemScript::SetBuffer
EXTRN	??0CWzMemScript@@QAE@XZ:PROC			; CWzMemScript::CWzMemScript
EXTRN	___CxxFrameHandler3:PROC
xdata$x	SEGMENT
__unwindtable$?LoadQuestInfo@CQuestInfo@@QAEHPADH@Z DD 0ffffffffH
	DD	FLAT:__unwindfunclet$?LoadQuestInfo@CQuestInfo@@QAEHPADH@Z$0
__ehfuncinfo$?LoadQuestInfo@CQuestInfo@@QAEHPADH@Z DD 019930522H
	DD	01H
	DD	FLAT:__unwindtable$?LoadQuestInfo@CQuestInfo@@QAEHPADH@Z
	DD	2 DUP(00H)
	DD	2 DUP(00H)
	DD	00H
	DD	01H
; Function compile flags: /Odtp /ZI
; File d:\projects\exteam6.3\source\gameserver\gameserver\questinfo.cpp
xdata$x	ENDS
_TEXT	SEGMENT
$T232309 = -252						; size = 4
$T232310 = -248						; size = 4
_iFailInfoCount$231602 = -180				; size = 4
_iQuestIndex$231597 = -176				; size = 4
_iSubInfoCount$231592 = -172				; size = 4
_iQuestIndex$231587 = -168				; size = 4
_Type$231585 = -164					; size = 4
_n$ = -160						; size = 4
_Token$ = -156						; size = 4
_WzMemScript$ = -152					; size = 132
_this$ = -20						; size = 4
__$ArrayPad$ = -16					; size = 4
__$EHRec$ = -12						; size = 12
_Buffer$ = 8						; size = 4
_iSize$ = 12						; size = 4
?LoadQuestInfo@CQuestInfo@@QAEHPADH@Z PROC		; CQuestInfo::LoadQuestInfo
; _this$ = ecx

; 253  : {

  00db0	55		 push	 ebp
  00db1	8b ec		 mov	 ebp, esp
  00db3	6a ff		 push	 -1
  00db5	68 00 00 00 00	 push	 __ehhandler$?LoadQuestInfo@CQuestInfo@@QAEHPADH@Z
  00dba	64 a1 00 00 00
	00		 mov	 eax, DWORD PTR fs:0
  00dc0	50		 push	 eax
  00dc1	81 ec f0 00 00
	00		 sub	 esp, 240		; 000000f0H
  00dc7	a1 00 00 00 00	 mov	 eax, DWORD PTR ___security_cookie
  00dcc	33 c5		 xor	 eax, ebp
  00dce	89 45 f0	 mov	 DWORD PTR __$ArrayPad$[ebp], eax
  00dd1	53		 push	 ebx
  00dd2	56		 push	 esi
  00dd3	57		 push	 edi
  00dd4	50		 push	 eax
  00dd5	8d 45 f4	 lea	 eax, DWORD PTR __$EHRec$[ebp]
  00dd8	64 a3 00 00 00
	00		 mov	 DWORD PTR fs:0, eax
  00dde	89 4d ec	 mov	 DWORD PTR _this$[ebp], ecx

; 254  : 	CWzMemScript WzMemScript;

  00de1	8d 8d 68 ff ff
	ff		 lea	 ecx, DWORD PTR _WzMemScript$[ebp]
  00de7	e8 00 00 00 00	 call	 ??0CWzMemScript@@QAE@XZ	; CWzMemScript::CWzMemScript
  00dec	c7 45 fc 00 00
	00 00		 mov	 DWORD PTR __$EHRec$[ebp+8], 0

; 255  : 	int Token;
; 256  : 	int n;
; 257  : 
; 258  : 	WzMemScript.SetBuffer(Buffer, iSize);

  00df3	8b 45 0c	 mov	 eax, DWORD PTR _iSize$[ebp]
  00df6	50		 push	 eax
  00df7	8b 4d 08	 mov	 ecx, DWORD PTR _Buffer$[ebp]
  00dfa	51		 push	 ecx
  00dfb	8d 8d 68 ff ff
	ff		 lea	 ecx, DWORD PTR _WzMemScript$[ebp]
  00e01	e8 00 00 00 00	 call	 ?SetBuffer@CWzMemScript@@QAEHPADH@Z ; CWzMemScript::SetBuffer

; 259  : 	this->Init();

  00e06	8b 4d ec	 mov	 ecx, DWORD PTR _this$[ebp]
  00e09	e8 00 00 00 00	 call	 ?Init@CQuestInfo@@QAEXXZ ; CQuestInfo::Init

; 260  : 
; 261  : 	n = 0;

  00e0e	c7 85 60 ff ff
	ff 00 00 00 00	 mov	 DWORD PTR _n$[ebp], 0
$LN17@LoadQuestI@2:

; 262  : 
; 263  : 	while ( true )

  00e18	b8 01 00 00 00	 mov	 eax, 1
  00e1d	85 c0		 test	 eax, eax
  00e1f	0f 84 3a 0a 00
	00		 je	 $LN16@LoadQuestI@2

; 264  : 	{
; 265  : 		Token = WzMemScript.GetToken();

  00e25	8d 8d 68 ff ff
	ff		 lea	 ecx, DWORD PTR _WzMemScript$[ebp]
  00e2b	e8 00 00 00 00	 call	 ?GetToken@CWzMemScript@@QAE?AW4SMDToken@@XZ ; CWzMemScript::GetToken
  00e30	89 85 64 ff ff
	ff		 mov	 DWORD PTR _Token$[ebp], eax

; 266  : 
; 267  : 		if ( Token == 2 )

  00e36	83 bd 64 ff ff
	ff 02		 cmp	 DWORD PTR _Token$[ebp], 2
  00e3d	75 0a		 jne	 SHORT $LN15@LoadQuestI@2

; 268  : 		{
; 269  : 			break;

  00e3f	e9 1b 0a 00 00	 jmp	 $LN16@LoadQuestI@2

; 270  : 		}
; 271  : 		else

  00e44	e9 11 0a 00 00	 jmp	 $LN14@LoadQuestI@2
$LN15@LoadQuestI@2:

; 272  : 		{
; 273  : 			if ( Token == 1 )

  00e49	83 bd 64 ff ff
	ff 01		 cmp	 DWORD PTR _Token$[ebp], 1
  00e50	0f 85 04 0a 00
	00		 jne	 $LN14@LoadQuestI@2

; 274  : 			{
; 275  : 				int Type = WzMemScript.GetNumber();

  00e56	8d 8d 68 ff ff
	ff		 lea	 ecx, DWORD PTR _WzMemScript$[ebp]
  00e5c	e8 00 00 00 00	 call	 ?GetNumber@CWzMemScript@@QAEHXZ ; CWzMemScript::GetNumber
  00e61	89 85 5c ff ff
	ff		 mov	 DWORD PTR _Type$231585[ebp], eax

; 276  : 
; 277  : 				if ( Type == 0 )

  00e67	83 bd 5c ff ff
	ff 00		 cmp	 DWORD PTR _Type$231585[ebp], 0
  00e6e	0f 85 35 07 00
	00		 jne	 $LN12@LoadQuestI@2

; 278  : 				{
; 279  : 					Token = WzMemScript.GetToken();

  00e74	8d 8d 68 ff ff
	ff		 lea	 ecx, DWORD PTR _WzMemScript$[ebp]
  00e7a	e8 00 00 00 00	 call	 ?GetToken@CWzMemScript@@QAE?AW4SMDToken@@XZ ; CWzMemScript::GetToken
  00e7f	89 85 64 ff ff
	ff		 mov	 DWORD PTR _Token$[ebp], eax

; 280  : 					auto iQuestIndex = WzMemScript.GetNumber();

  00e85	8d 8d 68 ff ff
	ff		 lea	 ecx, DWORD PTR _WzMemScript$[ebp]
  00e8b	e8 00 00 00 00	 call	 ?GetNumber@CWzMemScript@@QAEHXZ ; CWzMemScript::GetNumber
  00e90	89 85 58 ff ff
	ff		 mov	 DWORD PTR _iQuestIndex$231587[ebp], eax

; 281  : 					this->QuestInfo[iQuestIndex].QuestIndex = iQuestIndex;

  00e96	8b 85 58 ff ff
	ff		 mov	 eax, DWORD PTR _iQuestIndex$231587[ebp]
  00e9c	69 c0 30 04 00
	00		 imul	 eax, 1072		; 00000430H
  00ea2	8b 4d ec	 mov	 ecx, DWORD PTR _this$[ebp]
  00ea5	8b 95 58 ff ff
	ff		 mov	 edx, DWORD PTR _iQuestIndex$231587[ebp]
  00eab	89 54 01 3c	 mov	 DWORD PTR [ecx+eax+60], edx

; 282  : 
; 283  : 					Token = WzMemScript.GetToken();

  00eaf	8d 8d 68 ff ff
	ff		 lea	 ecx, DWORD PTR _WzMemScript$[ebp]
  00eb5	e8 00 00 00 00	 call	 ?GetToken@CWzMemScript@@QAE?AW4SMDToken@@XZ ; CWzMemScript::GetToken
  00eba	89 85 64 ff ff
	ff		 mov	 DWORD PTR _Token$[ebp], eax

; 284  : 					this->QuestInfo[iQuestIndex].QuestStartType = WzMemScript.GetNumber();

  00ec0	8d 8d 68 ff ff
	ff		 lea	 ecx, DWORD PTR _WzMemScript$[ebp]
  00ec6	e8 00 00 00 00	 call	 ?GetNumber@CWzMemScript@@QAEHXZ ; CWzMemScript::GetNumber
  00ecb	8b 8d 58 ff ff
	ff		 mov	 ecx, DWORD PTR _iQuestIndex$231587[ebp]
  00ed1	69 c9 30 04 00
	00		 imul	 ecx, 1072		; 00000430H
  00ed7	8b 55 ec	 mov	 edx, DWORD PTR _this$[ebp]
  00eda	89 44 0a 40	 mov	 DWORD PTR [edx+ecx+64], eax

; 285  : 
; 286  : 					Token = WzMemScript.GetToken();

  00ede	8d 8d 68 ff ff
	ff		 lea	 ecx, DWORD PTR _WzMemScript$[ebp]
  00ee4	e8 00 00 00 00	 call	 ?GetToken@CWzMemScript@@QAE?AW4SMDToken@@XZ ; CWzMemScript::GetToken
  00ee9	89 85 64 ff ff
	ff		 mov	 DWORD PTR _Token$[ebp], eax

; 287  : 					this->QuestInfo[iQuestIndex].QuestStartSubType = WzMemScript.GetNumber();

  00eef	8d 8d 68 ff ff
	ff		 lea	 ecx, DWORD PTR _WzMemScript$[ebp]
  00ef5	e8 00 00 00 00	 call	 ?GetNumber@CWzMemScript@@QAEHXZ ; CWzMemScript::GetNumber
  00efa	8b 8d 58 ff ff
	ff		 mov	 ecx, DWORD PTR _iQuestIndex$231587[ebp]
  00f00	69 c9 30 04 00
	00		 imul	 ecx, 1072		; 00000430H
  00f06	8b 55 ec	 mov	 edx, DWORD PTR _this$[ebp]
  00f09	89 44 0a 44	 mov	 DWORD PTR [edx+ecx+68], eax

; 288  : 
; 289  : 					Token = WzMemScript.GetToken();

  00f0d	8d 8d 68 ff ff
	ff		 lea	 ecx, DWORD PTR _WzMemScript$[ebp]
  00f13	e8 00 00 00 00	 call	 ?GetToken@CWzMemScript@@QAE?AW4SMDToken@@XZ ; CWzMemScript::GetToken
  00f18	89 85 64 ff ff
	ff		 mov	 DWORD PTR _Token$[ebp], eax

; 290  : 					strcpy( this->QuestInfo[iQuestIndex].Name, WzMemScript.GetString());

  00f1e	8d 8d 68 ff ff
	ff		 lea	 ecx, DWORD PTR _WzMemScript$[ebp]
  00f24	e8 00 00 00 00	 call	 ?GetString@CWzMemScript@@QAEPADXZ ; CWzMemScript::GetString
  00f29	50		 push	 eax
  00f2a	8b 85 58 ff ff
	ff		 mov	 eax, DWORD PTR _iQuestIndex$231587[ebp]
  00f30	69 c0 30 04 00
	00		 imul	 eax, 1072		; 00000430H
  00f36	8b 4d ec	 mov	 ecx, DWORD PTR _this$[ebp]
  00f39	8d 54 01 08	 lea	 edx, DWORD PTR [ecx+eax+8]
  00f3d	52		 push	 edx
  00f3e	e8 00 00 00 00	 call	 _strcpy
  00f43	83 c4 08	 add	 esp, 8

; 291  : 
; 292  : 					this->QuestInfo[iQuestIndex].QuestSubInfoCount = 0;

  00f46	8b 85 58 ff ff
	ff		 mov	 eax, DWORD PTR _iQuestIndex$231587[ebp]
  00f4c	69 c0 30 04 00
	00		 imul	 eax, 1072		; 00000430H
  00f52	8b 4d ec	 mov	 ecx, DWORD PTR _this$[ebp]
  00f55	c7 44 01 48 00
	00 00 00	 mov	 DWORD PTR [ecx+eax+72], 0
$LN11@LoadQuestI@2:

; 293  : 
; 294  : 					while ( true )

  00f5d	b8 01 00 00 00	 mov	 eax, 1
  00f62	85 c0		 test	 eax, eax
  00f64	0f 84 ee 05 00
	00		 je	 $LN10@LoadQuestI@2

; 295  : 					{
; 296  : 						int iSubInfoCount = this->QuestInfo[iQuestIndex].QuestSubInfoCount;

  00f6a	8b 85 58 ff ff
	ff		 mov	 eax, DWORD PTR _iQuestIndex$231587[ebp]
  00f70	69 c0 30 04 00
	00		 imul	 eax, 1072		; 00000430H
  00f76	8b 4d ec	 mov	 ecx, DWORD PTR _this$[ebp]
  00f79	8b 54 01 48	 mov	 edx, DWORD PTR [ecx+eax+72]
  00f7d	89 95 54 ff ff
	ff		 mov	 DWORD PTR _iSubInfoCount$231592[ebp], edx

; 297  : 
; 298  : 						Token = WzMemScript.GetToken();

  00f83	8d 8d 68 ff ff
	ff		 lea	 ecx, DWORD PTR _WzMemScript$[ebp]
  00f89	e8 00 00 00 00	 call	 ?GetToken@CWzMemScript@@QAE?AW4SMDToken@@XZ ; CWzMemScript::GetToken
  00f8e	89 85 64 ff ff
	ff		 mov	 DWORD PTR _Token$[ebp], eax

; 299  : 
; 300  : 						if ( Token == 0 )

  00f94	83 bd 64 ff ff
	ff 00		 cmp	 DWORD PTR _Token$[ebp], 0
  00f9b	75 22		 jne	 SHORT $LN9@LoadQuestI@2

; 301  : 						{
; 302  : 							if ( strcmp("end", WzMemScript.GetString()) == 0 )

  00f9d	8d 8d 68 ff ff
	ff		 lea	 ecx, DWORD PTR _WzMemScript$[ebp]
  00fa3	e8 00 00 00 00	 call	 ?GetString@CWzMemScript@@QAEPADXZ ; CWzMemScript::GetString
  00fa8	50		 push	 eax
  00fa9	68 00 00 00 00	 push	 OFFSET ??_C@_03JBJLGPFL@end?$AA@
  00fae	e8 00 00 00 00	 call	 _strcmp
  00fb3	83 c4 08	 add	 esp, 8
  00fb6	85 c0		 test	 eax, eax
  00fb8	75 05		 jne	 SHORT $LN9@LoadQuestI@2

; 303  : 							{
; 304  : 								break;

  00fba	e9 99 05 00 00	 jmp	 $LN10@LoadQuestI@2
$LN9@LoadQuestI@2:

; 305  : 							}
; 306  : 						}
; 307  : 						this->QuestInfo[iQuestIndex].QuestSubInfo[iSubInfoCount].QuestType = WzMemScript.GetNumber();

  00fbf	8d 8d 68 ff ff
	ff		 lea	 ecx, DWORD PTR _WzMemScript$[ebp]
  00fc5	e8 00 00 00 00	 call	 ?GetNumber@CWzMemScript@@QAEHXZ ; CWzMemScript::GetNumber
  00fca	8b 8d 58 ff ff
	ff		 mov	 ecx, DWORD PTR _iQuestIndex$231587[ebp]
  00fd0	69 c9 30 04 00
	00		 imul	 ecx, 1072		; 00000430H
  00fd6	8b 55 ec	 mov	 edx, DWORD PTR _this$[ebp]
  00fd9	8d 4c 0a 08	 lea	 ecx, DWORD PTR [edx+ecx+8]
  00fdd	8b 95 54 ff ff
	ff		 mov	 edx, DWORD PTR _iSubInfoCount$231592[ebp]
  00fe3	6b d2 48	 imul	 edx, 72			; 00000048H
  00fe6	89 44 11 44	 mov	 DWORD PTR [ecx+edx+68], eax

; 308  : 
; 309  : 						Token = WzMemScript.GetToken();

  00fea	8d 8d 68 ff ff
	ff		 lea	 ecx, DWORD PTR _WzMemScript$[ebp]
  00ff0	e8 00 00 00 00	 call	 ?GetToken@CWzMemScript@@QAE?AW4SMDToken@@XZ ; CWzMemScript::GetToken
  00ff5	89 85 64 ff ff
	ff		 mov	 DWORD PTR _Token$[ebp], eax

; 310  : 						this->QuestInfo[iQuestIndex].QuestSubInfo[iSubInfoCount].NeedType = WzMemScript.GetNumber();

  00ffb	8d 8d 68 ff ff
	ff		 lea	 ecx, DWORD PTR _WzMemScript$[ebp]
  01001	e8 00 00 00 00	 call	 ?GetNumber@CWzMemScript@@QAEHXZ ; CWzMemScript::GetNumber
  01006	8b 8d 58 ff ff
	ff		 mov	 ecx, DWORD PTR _iQuestIndex$231587[ebp]
  0100c	69 c9 30 04 00
	00		 imul	 ecx, 1072		; 00000430H
  01012	8b 55 ec	 mov	 edx, DWORD PTR _this$[ebp]
  01015	8d 4c 0a 08	 lea	 ecx, DWORD PTR [edx+ecx+8]
  01019	8b 95 54 ff ff
	ff		 mov	 edx, DWORD PTR _iSubInfoCount$231592[ebp]
  0101f	6b d2 48	 imul	 edx, 72			; 00000048H
  01022	89 44 11 48	 mov	 DWORD PTR [ecx+edx+72], eax

; 311  : 
; 312  : 						Token = WzMemScript.GetToken();

  01026	8d 8d 68 ff ff
	ff		 lea	 ecx, DWORD PTR _WzMemScript$[ebp]
  0102c	e8 00 00 00 00	 call	 ?GetToken@CWzMemScript@@QAE?AW4SMDToken@@XZ ; CWzMemScript::GetToken
  01031	89 85 64 ff ff
	ff		 mov	 DWORD PTR _Token$[ebp], eax

; 313  : 						this->QuestInfo[iQuestIndex].QuestSubInfo[iSubInfoCount].NeedSubType = WzMemScript.GetNumber();

  01037	8d 8d 68 ff ff
	ff		 lea	 ecx, DWORD PTR _WzMemScript$[ebp]
  0103d	e8 00 00 00 00	 call	 ?GetNumber@CWzMemScript@@QAEHXZ ; CWzMemScript::GetNumber
  01042	8b 8d 58 ff ff
	ff		 mov	 ecx, DWORD PTR _iQuestIndex$231587[ebp]
  01048	69 c9 30 04 00
	00		 imul	 ecx, 1072		; 00000430H
  0104e	8b 55 ec	 mov	 edx, DWORD PTR _this$[ebp]
  01051	8d 4c 0a 08	 lea	 ecx, DWORD PTR [edx+ecx+8]
  01055	8b 95 54 ff ff
	ff		 mov	 edx, DWORD PTR _iSubInfoCount$231592[ebp]
  0105b	6b d2 48	 imul	 edx, 72			; 00000048H
  0105e	89 44 11 4c	 mov	 DWORD PTR [ecx+edx+76], eax

; 314  : 
; 315  : 						Token = WzMemScript.GetToken();

  01062	8d 8d 68 ff ff
	ff		 lea	 ecx, DWORD PTR _WzMemScript$[ebp]
  01068	e8 00 00 00 00	 call	 ?GetToken@CWzMemScript@@QAE?AW4SMDToken@@XZ ; CWzMemScript::GetToken
  0106d	89 85 64 ff ff
	ff		 mov	 DWORD PTR _Token$[ebp], eax

; 316  : 						this->QuestInfo[iQuestIndex].QuestSubInfo[iSubInfoCount].ItemLevel = WzMemScript.GetNumber();

  01073	8d 8d 68 ff ff
	ff		 lea	 ecx, DWORD PTR _WzMemScript$[ebp]
  01079	e8 00 00 00 00	 call	 ?GetNumber@CWzMemScript@@QAEHXZ ; CWzMemScript::GetNumber
  0107e	8b 8d 58 ff ff
	ff		 mov	 ecx, DWORD PTR _iQuestIndex$231587[ebp]
  01084	69 c9 30 04 00
	00		 imul	 ecx, 1072		; 00000430H
  0108a	8b 55 ec	 mov	 edx, DWORD PTR _this$[ebp]
  0108d	8d 4c 0a 08	 lea	 ecx, DWORD PTR [edx+ecx+8]
  01091	8b 95 54 ff ff
	ff		 mov	 edx, DWORD PTR _iSubInfoCount$231592[ebp]
  01097	6b d2 48	 imul	 edx, 72			; 00000048H
  0109a	89 44 11 50	 mov	 DWORD PTR [ecx+edx+80], eax

; 317  : 
; 318  : 						Token = WzMemScript.GetToken();

  0109e	8d 8d 68 ff ff
	ff		 lea	 ecx, DWORD PTR _WzMemScript$[ebp]
  010a4	e8 00 00 00 00	 call	 ?GetToken@CWzMemScript@@QAE?AW4SMDToken@@XZ ; CWzMemScript::GetToken
  010a9	89 85 64 ff ff
	ff		 mov	 DWORD PTR _Token$[ebp], eax

; 319  : 						this->QuestInfo[iQuestIndex].QuestSubInfo[iSubInfoCount].NeedNumber = WzMemScript.GetNumber();

  010af	8d 8d 68 ff ff
	ff		 lea	 ecx, DWORD PTR _WzMemScript$[ebp]
  010b5	e8 00 00 00 00	 call	 ?GetNumber@CWzMemScript@@QAEHXZ ; CWzMemScript::GetNumber
  010ba	8b 8d 58 ff ff
	ff		 mov	 ecx, DWORD PTR _iQuestIndex$231587[ebp]
  010c0	69 c9 30 04 00
	00		 imul	 ecx, 1072		; 00000430H
  010c6	8b 55 ec	 mov	 edx, DWORD PTR _this$[ebp]
  010c9	8d 4c 0a 08	 lea	 ecx, DWORD PTR [edx+ecx+8]
  010cd	8b 95 54 ff ff
	ff		 mov	 edx, DWORD PTR _iSubInfoCount$231592[ebp]
  010d3	6b d2 48	 imul	 edx, 72			; 00000048H
  010d6	89 44 11 54	 mov	 DWORD PTR [ecx+edx+84], eax

; 320  : 
; 321  : 						Token = WzMemScript.GetToken();

  010da	8d 8d 68 ff ff
	ff		 lea	 ecx, DWORD PTR _WzMemScript$[ebp]
  010e0	e8 00 00 00 00	 call	 ?GetToken@CWzMemScript@@QAE?AW4SMDToken@@XZ ; CWzMemScript::GetToken
  010e5	89 85 64 ff ff
	ff		 mov	 DWORD PTR _Token$[ebp], eax

; 322  : 						this->QuestInfo[iQuestIndex].QuestSubInfo[iSubInfoCount].NeedTargetMinLevel = WzMemScript.GetNumber();

  010eb	8d 8d 68 ff ff
	ff		 lea	 ecx, DWORD PTR _WzMemScript$[ebp]
  010f1	e8 00 00 00 00	 call	 ?GetNumber@CWzMemScript@@QAEHXZ ; CWzMemScript::GetNumber
  010f6	8b 8d 58 ff ff
	ff		 mov	 ecx, DWORD PTR _iQuestIndex$231587[ebp]
  010fc	69 c9 30 04 00
	00		 imul	 ecx, 1072		; 00000430H
  01102	8b 55 ec	 mov	 edx, DWORD PTR _this$[ebp]
  01105	8d 4c 0a 08	 lea	 ecx, DWORD PTR [edx+ecx+8]
  01109	8b 95 54 ff ff
	ff		 mov	 edx, DWORD PTR _iSubInfoCount$231592[ebp]
  0110f	6b d2 48	 imul	 edx, 72			; 00000048H
  01112	89 44 11 58	 mov	 DWORD PTR [ecx+edx+88], eax

; 323  : 
; 324  : 						Token = WzMemScript.GetToken();

  01116	8d 8d 68 ff ff
	ff		 lea	 ecx, DWORD PTR _WzMemScript$[ebp]
  0111c	e8 00 00 00 00	 call	 ?GetToken@CWzMemScript@@QAE?AW4SMDToken@@XZ ; CWzMemScript::GetToken
  01121	89 85 64 ff ff
	ff		 mov	 DWORD PTR _Token$[ebp], eax

; 325  : 						this->QuestInfo[iQuestIndex].QuestSubInfo[iSubInfoCount].NeedTargetMaxLevel = WzMemScript.GetNumber();

  01127	8d 8d 68 ff ff
	ff		 lea	 ecx, DWORD PTR _WzMemScript$[ebp]
  0112d	e8 00 00 00 00	 call	 ?GetNumber@CWzMemScript@@QAEHXZ ; CWzMemScript::GetNumber
  01132	8b 8d 58 ff ff
	ff		 mov	 ecx, DWORD PTR _iQuestIndex$231587[ebp]
  01138	69 c9 30 04 00
	00		 imul	 ecx, 1072		; 00000430H
  0113e	8b 55 ec	 mov	 edx, DWORD PTR _this$[ebp]
  01141	8d 4c 0a 08	 lea	 ecx, DWORD PTR [edx+ecx+8]
  01145	8b 95 54 ff ff
	ff		 mov	 edx, DWORD PTR _iSubInfoCount$231592[ebp]
  0114b	6b d2 48	 imul	 edx, 72			; 00000048H
  0114e	89 44 11 5c	 mov	 DWORD PTR [ecx+edx+92], eax

; 326  : 
; 327  : 						Token = WzMemScript.GetToken();

  01152	8d 8d 68 ff ff
	ff		 lea	 ecx, DWORD PTR _WzMemScript$[ebp]
  01158	e8 00 00 00 00	 call	 ?GetToken@CWzMemScript@@QAE?AW4SMDToken@@XZ ; CWzMemScript::GetToken
  0115d	89 85 64 ff ff
	ff		 mov	 DWORD PTR _Token$[ebp], eax

; 328  : 						this->QuestInfo[iQuestIndex].QuestSubInfo[iSubInfoCount].NeedDropRate = WzMemScript.GetNumber();

  01163	8d 8d 68 ff ff
	ff		 lea	 ecx, DWORD PTR _WzMemScript$[ebp]
  01169	e8 00 00 00 00	 call	 ?GetNumber@CWzMemScript@@QAEHXZ ; CWzMemScript::GetNumber
  0116e	8b 8d 58 ff ff
	ff		 mov	 ecx, DWORD PTR _iQuestIndex$231587[ebp]
  01174	69 c9 30 04 00
	00		 imul	 ecx, 1072		; 00000430H
  0117a	8b 55 ec	 mov	 edx, DWORD PTR _this$[ebp]
  0117d	8d 4c 0a 08	 lea	 ecx, DWORD PTR [edx+ecx+8]
  01181	8b 95 54 ff ff
	ff		 mov	 edx, DWORD PTR _iSubInfoCount$231592[ebp]
  01187	6b d2 48	 imul	 edx, 72			; 00000048H
  0118a	89 44 11 60	 mov	 DWORD PTR [ecx+edx+96], eax

; 329  : 
; 330  : 						Token = WzMemScript.GetToken();

  0118e	8d 8d 68 ff ff
	ff		 lea	 ecx, DWORD PTR _WzMemScript$[ebp]
  01194	e8 00 00 00 00	 call	 ?GetToken@CWzMemScript@@QAE?AW4SMDToken@@XZ ; CWzMemScript::GetToken
  01199	89 85 64 ff ff
	ff		 mov	 DWORD PTR _Token$[ebp], eax

; 331  : 						this->QuestInfo[iQuestIndex].QuestSubInfo[iSubInfoCount].RewardType = WzMemScript.GetNumber();

  0119f	8d 8d 68 ff ff
	ff		 lea	 ecx, DWORD PTR _WzMemScript$[ebp]
  011a5	e8 00 00 00 00	 call	 ?GetNumber@CWzMemScript@@QAEHXZ ; CWzMemScript::GetNumber
  011aa	8b 8d 58 ff ff
	ff		 mov	 ecx, DWORD PTR _iQuestIndex$231587[ebp]
  011b0	69 c9 30 04 00
	00		 imul	 ecx, 1072		; 00000430H
  011b6	8b 55 ec	 mov	 edx, DWORD PTR _this$[ebp]
  011b9	8d 4c 0a 08	 lea	 ecx, DWORD PTR [edx+ecx+8]
  011bd	8b 95 54 ff ff
	ff		 mov	 edx, DWORD PTR _iSubInfoCount$231592[ebp]
  011c3	6b d2 48	 imul	 edx, 72			; 00000048H
  011c6	89 44 11 64	 mov	 DWORD PTR [ecx+edx+100], eax

; 332  : 
; 333  : 						Token = WzMemScript.GetToken();

  011ca	8d 8d 68 ff ff
	ff		 lea	 ecx, DWORD PTR _WzMemScript$[ebp]
  011d0	e8 00 00 00 00	 call	 ?GetToken@CWzMemScript@@QAE?AW4SMDToken@@XZ ; CWzMemScript::GetToken
  011d5	89 85 64 ff ff
	ff		 mov	 DWORD PTR _Token$[ebp], eax

; 334  : 						this->QuestInfo[iQuestIndex].QuestSubInfo[iSubInfoCount].RewardSubType = WzMemScript.GetNumber();

  011db	8d 8d 68 ff ff
	ff		 lea	 ecx, DWORD PTR _WzMemScript$[ebp]
  011e1	e8 00 00 00 00	 call	 ?GetNumber@CWzMemScript@@QAEHXZ ; CWzMemScript::GetNumber
  011e6	8b 8d 58 ff ff
	ff		 mov	 ecx, DWORD PTR _iQuestIndex$231587[ebp]
  011ec	69 c9 30 04 00
	00		 imul	 ecx, 1072		; 00000430H
  011f2	8b 55 ec	 mov	 edx, DWORD PTR _this$[ebp]
  011f5	8d 4c 0a 08	 lea	 ecx, DWORD PTR [edx+ecx+8]
  011f9	8b 95 54 ff ff
	ff		 mov	 edx, DWORD PTR _iSubInfoCount$231592[ebp]
  011ff	6b d2 48	 imul	 edx, 72			; 00000048H
  01202	89 44 11 68	 mov	 DWORD PTR [ecx+edx+104], eax

; 335  : 
; 336  : 						Token = WzMemScript.GetToken();

  01206	8d 8d 68 ff ff
	ff		 lea	 ecx, DWORD PTR _WzMemScript$[ebp]
  0120c	e8 00 00 00 00	 call	 ?GetToken@CWzMemScript@@QAE?AW4SMDToken@@XZ ; CWzMemScript::GetToken
  01211	89 85 64 ff ff
	ff		 mov	 DWORD PTR _Token$[ebp], eax

; 337  : 						this->QuestInfo[iQuestIndex].QuestSubInfo[iSubInfoCount].RewardCount = WzMemScript.GetNumber();

  01217	8d 8d 68 ff ff
	ff		 lea	 ecx, DWORD PTR _WzMemScript$[ebp]
  0121d	e8 00 00 00 00	 call	 ?GetNumber@CWzMemScript@@QAEHXZ ; CWzMemScript::GetNumber
  01222	8b 8d 58 ff ff
	ff		 mov	 ecx, DWORD PTR _iQuestIndex$231587[ebp]
  01228	69 c9 30 04 00
	00		 imul	 ecx, 1072		; 00000430H
  0122e	8b 55 ec	 mov	 edx, DWORD PTR _this$[ebp]
  01231	8d 4c 0a 08	 lea	 ecx, DWORD PTR [edx+ecx+8]
  01235	8b 95 54 ff ff
	ff		 mov	 edx, DWORD PTR _iSubInfoCount$231592[ebp]
  0123b	6b d2 48	 imul	 edx, 72			; 00000048H
  0123e	89 44 11 6c	 mov	 DWORD PTR [ecx+edx+108], eax

; 338  : 
; 339  : 						Token = WzMemScript.GetToken();

  01242	8d 8d 68 ff ff
	ff		 lea	 ecx, DWORD PTR _WzMemScript$[ebp]
  01248	e8 00 00 00 00	 call	 ?GetToken@CWzMemScript@@QAE?AW4SMDToken@@XZ ; CWzMemScript::GetToken
  0124d	89 85 64 ff ff
	ff		 mov	 DWORD PTR _Token$[ebp], eax

; 340  : 						this->QuestInfo[iQuestIndex].QuestSubInfo[iSubInfoCount].LinkConditionIndex = WzMemScript.GetNumber();

  01253	8d 8d 68 ff ff
	ff		 lea	 ecx, DWORD PTR _WzMemScript$[ebp]
  01259	e8 00 00 00 00	 call	 ?GetNumber@CWzMemScript@@QAEHXZ ; CWzMemScript::GetNumber
  0125e	8b 8d 58 ff ff
	ff		 mov	 ecx, DWORD PTR _iQuestIndex$231587[ebp]
  01264	69 c9 30 04 00
	00		 imul	 ecx, 1072		; 00000430H
  0126a	8b 55 ec	 mov	 edx, DWORD PTR _this$[ebp]
  0126d	8d 4c 0a 08	 lea	 ecx, DWORD PTR [edx+ecx+8]
  01271	8b 95 54 ff ff
	ff		 mov	 edx, DWORD PTR _iSubInfoCount$231592[ebp]
  01277	6b d2 48	 imul	 edx, 72			; 00000048H
  0127a	89 44 11 70	 mov	 DWORD PTR [ecx+edx+112], eax

; 341  : 
; 342  : 						Token = WzMemScript.GetToken();

  0127e	8d 8d 68 ff ff
	ff		 lea	 ecx, DWORD PTR _WzMemScript$[ebp]
  01284	e8 00 00 00 00	 call	 ?GetToken@CWzMemScript@@QAE?AW4SMDToken@@XZ ; CWzMemScript::GetToken
  01289	89 85 64 ff ff
	ff		 mov	 DWORD PTR _Token$[ebp], eax

; 343  : 						this->QuestInfo[iQuestIndex].QuestSubInfo[iSubInfoCount].ContextBeforeReg = WzMemScript.GetNumber();

  0128f	8d 8d 68 ff ff
	ff		 lea	 ecx, DWORD PTR _WzMemScript$[ebp]
  01295	e8 00 00 00 00	 call	 ?GetNumber@CWzMemScript@@QAEHXZ ; CWzMemScript::GetNumber
  0129a	8b 8d 58 ff ff
	ff		 mov	 ecx, DWORD PTR _iQuestIndex$231587[ebp]
  012a0	69 c9 30 04 00
	00		 imul	 ecx, 1072		; 00000430H
  012a6	8b 55 ec	 mov	 edx, DWORD PTR _this$[ebp]
  012a9	8d 4c 0a 08	 lea	 ecx, DWORD PTR [edx+ecx+8]
  012ad	8b 95 54 ff ff
	ff		 mov	 edx, DWORD PTR _iSubInfoCount$231592[ebp]
  012b3	6b d2 48	 imul	 edx, 72			; 00000048H
  012b6	89 44 11 74	 mov	 DWORD PTR [ecx+edx+116], eax

; 344  : 
; 345  : 						Token = WzMemScript.GetToken();

  012ba	8d 8d 68 ff ff
	ff		 lea	 ecx, DWORD PTR _WzMemScript$[ebp]
  012c0	e8 00 00 00 00	 call	 ?GetToken@CWzMemScript@@QAE?AW4SMDToken@@XZ ; CWzMemScript::GetToken
  012c5	89 85 64 ff ff
	ff		 mov	 DWORD PTR _Token$[ebp], eax

; 346  : 						this->QuestInfo[iQuestIndex].QuestSubInfo[iSubInfoCount].ContextAfterReg = WzMemScript.GetNumber();

  012cb	8d 8d 68 ff ff
	ff		 lea	 ecx, DWORD PTR _WzMemScript$[ebp]
  012d1	e8 00 00 00 00	 call	 ?GetNumber@CWzMemScript@@QAEHXZ ; CWzMemScript::GetNumber
  012d6	8b 8d 58 ff ff
	ff		 mov	 ecx, DWORD PTR _iQuestIndex$231587[ebp]
  012dc	69 c9 30 04 00
	00		 imul	 ecx, 1072		; 00000430H
  012e2	8b 55 ec	 mov	 edx, DWORD PTR _this$[ebp]
  012e5	8d 4c 0a 08	 lea	 ecx, DWORD PTR [edx+ecx+8]
  012e9	8b 95 54 ff ff
	ff		 mov	 edx, DWORD PTR _iSubInfoCount$231592[ebp]
  012ef	6b d2 48	 imul	 edx, 72			; 00000048H
  012f2	89 44 11 78	 mov	 DWORD PTR [ecx+edx+120], eax

; 347  : 
; 348  : 						Token = WzMemScript.GetToken();

  012f6	8d 8d 68 ff ff
	ff		 lea	 ecx, DWORD PTR _WzMemScript$[ebp]
  012fc	e8 00 00 00 00	 call	 ?GetToken@CWzMemScript@@QAE?AW4SMDToken@@XZ ; CWzMemScript::GetToken
  01301	89 85 64 ff ff
	ff		 mov	 DWORD PTR _Token$[ebp], eax

; 349  : 						this->QuestInfo[iQuestIndex].QuestSubInfo[iSubInfoCount].ContextCompleteQuest = WzMemScript.GetNumber();

  01307	8d 8d 68 ff ff
	ff		 lea	 ecx, DWORD PTR _WzMemScript$[ebp]
  0130d	e8 00 00 00 00	 call	 ?GetNumber@CWzMemScript@@QAEHXZ ; CWzMemScript::GetNumber
  01312	8b 8d 58 ff ff
	ff		 mov	 ecx, DWORD PTR _iQuestIndex$231587[ebp]
  01318	69 c9 30 04 00
	00		 imul	 ecx, 1072		; 00000430H
  0131e	8b 55 ec	 mov	 edx, DWORD PTR _this$[ebp]
  01321	8d 4c 0a 08	 lea	 ecx, DWORD PTR [edx+ecx+8]
  01325	8b 95 54 ff ff
	ff		 mov	 edx, DWORD PTR _iSubInfoCount$231592[ebp]
  0132b	6b d2 48	 imul	 edx, 72			; 00000048H
  0132e	89 44 11 7c	 mov	 DWORD PTR [ecx+edx+124], eax

; 350  : 
; 351  : 						Token = WzMemScript.GetToken();

  01332	8d 8d 68 ff ff
	ff		 lea	 ecx, DWORD PTR _WzMemScript$[ebp]
  01338	e8 00 00 00 00	 call	 ?GetToken@CWzMemScript@@QAE?AW4SMDToken@@XZ ; CWzMemScript::GetToken
  0133d	89 85 64 ff ff
	ff		 mov	 DWORD PTR _Token$[ebp], eax

; 352  : 						this->QuestInfo[iQuestIndex].QuestSubInfo[iSubInfoCount].ContextQuestClear = WzMemScript.GetNumber();

  01343	8d 8d 68 ff ff
	ff		 lea	 ecx, DWORD PTR _WzMemScript$[ebp]
  01349	e8 00 00 00 00	 call	 ?GetNumber@CWzMemScript@@QAEHXZ ; CWzMemScript::GetNumber
  0134e	8b 8d 58 ff ff
	ff		 mov	 ecx, DWORD PTR _iQuestIndex$231587[ebp]
  01354	69 c9 30 04 00
	00		 imul	 ecx, 1072		; 00000430H
  0135a	8b 55 ec	 mov	 edx, DWORD PTR _this$[ebp]
  0135d	8d 4c 0a 08	 lea	 ecx, DWORD PTR [edx+ecx+8]
  01361	8b 95 54 ff ff
	ff		 mov	 edx, DWORD PTR _iSubInfoCount$231592[ebp]
  01367	6b d2 48	 imul	 edx, 72			; 00000048H
  0136a	89 84 11 80 00
	00 00		 mov	 DWORD PTR [ecx+edx+128], eax

; 353  : 
; 354  : 						Token = WzMemScript.GetToken();

  01371	8d 8d 68 ff ff
	ff		 lea	 ecx, DWORD PTR _WzMemScript$[ebp]
  01377	e8 00 00 00 00	 call	 ?GetToken@CWzMemScript@@QAE?AW4SMDToken@@XZ ; CWzMemScript::GetToken
  0137c	89 85 64 ff ff
	ff		 mov	 DWORD PTR _Token$[ebp], eax

; 355  : 						this->QuestInfo[iQuestIndex].QuestSubInfo[iSubInfoCount].RequireClass[CLASS_WIZARD] = WzMemScript.GetNumber();

  01382	8d 8d 68 ff ff
	ff		 lea	 ecx, DWORD PTR _WzMemScript$[ebp]
  01388	e8 00 00 00 00	 call	 ?GetNumber@CWzMemScript@@QAEHXZ ; CWzMemScript::GetNumber
  0138d	8b 8d 58 ff ff
	ff		 mov	 ecx, DWORD PTR _iQuestIndex$231587[ebp]
  01393	69 c9 30 04 00
	00		 imul	 ecx, 1072		; 00000430H
  01399	8b 55 ec	 mov	 edx, DWORD PTR _this$[ebp]
  0139c	8d 4c 0a 08	 lea	 ecx, DWORD PTR [edx+ecx+8]
  013a0	8b 95 54 ff ff
	ff		 mov	 edx, DWORD PTR _iSubInfoCount$231592[ebp]
  013a6	6b d2 48	 imul	 edx, 72			; 00000048H
  013a9	88 84 11 84 00
	00 00		 mov	 BYTE PTR [ecx+edx+132], al

; 356  : 
; 357  : 						Token = WzMemScript.GetToken();

  013b0	8d 8d 68 ff ff
	ff		 lea	 ecx, DWORD PTR _WzMemScript$[ebp]
  013b6	e8 00 00 00 00	 call	 ?GetToken@CWzMemScript@@QAE?AW4SMDToken@@XZ ; CWzMemScript::GetToken
  013bb	89 85 64 ff ff
	ff		 mov	 DWORD PTR _Token$[ebp], eax

; 358  : 						this->QuestInfo[iQuestIndex].QuestSubInfo[iSubInfoCount].RequireClass[CLASS_KNIGHT] = WzMemScript.GetNumber();

  013c1	8d 8d 68 ff ff
	ff		 lea	 ecx, DWORD PTR _WzMemScript$[ebp]
  013c7	e8 00 00 00 00	 call	 ?GetNumber@CWzMemScript@@QAEHXZ ; CWzMemScript::GetNumber
  013cc	8b 8d 58 ff ff
	ff		 mov	 ecx, DWORD PTR _iQuestIndex$231587[ebp]
  013d2	69 c9 30 04 00
	00		 imul	 ecx, 1072		; 00000430H
  013d8	8b 55 ec	 mov	 edx, DWORD PTR _this$[ebp]
  013db	8d 4c 0a 08	 lea	 ecx, DWORD PTR [edx+ecx+8]
  013df	8b 95 54 ff ff
	ff		 mov	 edx, DWORD PTR _iSubInfoCount$231592[ebp]
  013e5	6b d2 48	 imul	 edx, 72			; 00000048H
  013e8	88 84 11 85 00
	00 00		 mov	 BYTE PTR [ecx+edx+133], al

; 359  : 
; 360  : 						Token = WzMemScript.GetToken();

  013ef	8d 8d 68 ff ff
	ff		 lea	 ecx, DWORD PTR _WzMemScript$[ebp]
  013f5	e8 00 00 00 00	 call	 ?GetToken@CWzMemScript@@QAE?AW4SMDToken@@XZ ; CWzMemScript::GetToken
  013fa	89 85 64 ff ff
	ff		 mov	 DWORD PTR _Token$[ebp], eax

; 361  : 						this->QuestInfo[iQuestIndex].QuestSubInfo[iSubInfoCount].RequireClass[CLASS_ELF] = WzMemScript.GetNumber();

  01400	8d 8d 68 ff ff
	ff		 lea	 ecx, DWORD PTR _WzMemScript$[ebp]
  01406	e8 00 00 00 00	 call	 ?GetNumber@CWzMemScript@@QAEHXZ ; CWzMemScript::GetNumber
  0140b	8b 8d 58 ff ff
	ff		 mov	 ecx, DWORD PTR _iQuestIndex$231587[ebp]
  01411	69 c9 30 04 00
	00		 imul	 ecx, 1072		; 00000430H
  01417	8b 55 ec	 mov	 edx, DWORD PTR _this$[ebp]
  0141a	8d 4c 0a 08	 lea	 ecx, DWORD PTR [edx+ecx+8]
  0141e	8b 95 54 ff ff
	ff		 mov	 edx, DWORD PTR _iSubInfoCount$231592[ebp]
  01424	6b d2 48	 imul	 edx, 72			; 00000048H
  01427	88 84 11 86 00
	00 00		 mov	 BYTE PTR [ecx+edx+134], al

; 362  : 
; 363  : 						Token = WzMemScript.GetToken();

  0142e	8d 8d 68 ff ff
	ff		 lea	 ecx, DWORD PTR _WzMemScript$[ebp]
  01434	e8 00 00 00 00	 call	 ?GetToken@CWzMemScript@@QAE?AW4SMDToken@@XZ ; CWzMemScript::GetToken
  01439	89 85 64 ff ff
	ff		 mov	 DWORD PTR _Token$[ebp], eax

; 364  : 						this->QuestInfo[iQuestIndex].QuestSubInfo[iSubInfoCount].RequireClass[CLASS_MAGUMSA] = WzMemScript.GetNumber();

  0143f	8d 8d 68 ff ff
	ff		 lea	 ecx, DWORD PTR _WzMemScript$[ebp]
  01445	e8 00 00 00 00	 call	 ?GetNumber@CWzMemScript@@QAEHXZ ; CWzMemScript::GetNumber
  0144a	8b 8d 58 ff ff
	ff		 mov	 ecx, DWORD PTR _iQuestIndex$231587[ebp]
  01450	69 c9 30 04 00
	00		 imul	 ecx, 1072		; 00000430H
  01456	8b 55 ec	 mov	 edx, DWORD PTR _this$[ebp]
  01459	8d 4c 0a 08	 lea	 ecx, DWORD PTR [edx+ecx+8]
  0145d	8b 95 54 ff ff
	ff		 mov	 edx, DWORD PTR _iSubInfoCount$231592[ebp]
  01463	6b d2 48	 imul	 edx, 72			; 00000048H
  01466	88 84 11 87 00
	00 00		 mov	 BYTE PTR [ecx+edx+135], al

; 365  : 
; 366  : 						Token = WzMemScript.GetToken();

  0146d	8d 8d 68 ff ff
	ff		 lea	 ecx, DWORD PTR _WzMemScript$[ebp]
  01473	e8 00 00 00 00	 call	 ?GetToken@CWzMemScript@@QAE?AW4SMDToken@@XZ ; CWzMemScript::GetToken
  01478	89 85 64 ff ff
	ff		 mov	 DWORD PTR _Token$[ebp], eax

; 367  : 						this->QuestInfo[iQuestIndex].QuestSubInfo[iSubInfoCount].RequireClass[CLASS_DARKLORD] = WzMemScript.GetNumber();

  0147e	8d 8d 68 ff ff
	ff		 lea	 ecx, DWORD PTR _WzMemScript$[ebp]
  01484	e8 00 00 00 00	 call	 ?GetNumber@CWzMemScript@@QAEHXZ ; CWzMemScript::GetNumber
  01489	8b 8d 58 ff ff
	ff		 mov	 ecx, DWORD PTR _iQuestIndex$231587[ebp]
  0148f	69 c9 30 04 00
	00		 imul	 ecx, 1072		; 00000430H
  01495	8b 55 ec	 mov	 edx, DWORD PTR _this$[ebp]
  01498	8d 4c 0a 08	 lea	 ecx, DWORD PTR [edx+ecx+8]
  0149c	8b 95 54 ff ff
	ff		 mov	 edx, DWORD PTR _iSubInfoCount$231592[ebp]
  014a2	6b d2 48	 imul	 edx, 72			; 00000048H
  014a5	88 84 11 88 00
	00 00		 mov	 BYTE PTR [ecx+edx+136], al

; 368  : 
; 369  : 						Token = WzMemScript.GetToken();

  014ac	8d 8d 68 ff ff
	ff		 lea	 ecx, DWORD PTR _WzMemScript$[ebp]
  014b2	e8 00 00 00 00	 call	 ?GetToken@CWzMemScript@@QAE?AW4SMDToken@@XZ ; CWzMemScript::GetToken
  014b7	89 85 64 ff ff
	ff		 mov	 DWORD PTR _Token$[ebp], eax

; 370  : 						this->QuestInfo[iQuestIndex].QuestSubInfo[iSubInfoCount].RequireClass[CLASS_SUMMONER] = WzMemScript.GetNumber();

  014bd	8d 8d 68 ff ff
	ff		 lea	 ecx, DWORD PTR _WzMemScript$[ebp]
  014c3	e8 00 00 00 00	 call	 ?GetNumber@CWzMemScript@@QAEHXZ ; CWzMemScript::GetNumber
  014c8	8b 8d 58 ff ff
	ff		 mov	 ecx, DWORD PTR _iQuestIndex$231587[ebp]
  014ce	69 c9 30 04 00
	00		 imul	 ecx, 1072		; 00000430H
  014d4	8b 55 ec	 mov	 edx, DWORD PTR _this$[ebp]
  014d7	8d 4c 0a 08	 lea	 ecx, DWORD PTR [edx+ecx+8]
  014db	8b 95 54 ff ff
	ff		 mov	 edx, DWORD PTR _iSubInfoCount$231592[ebp]
  014e1	6b d2 48	 imul	 edx, 72			; 00000048H
  014e4	88 84 11 89 00
	00 00		 mov	 BYTE PTR [ecx+edx+137], al

; 371  : 
; 372  : 						Token = WzMemScript.GetToken();

  014eb	8d 8d 68 ff ff
	ff		 lea	 ecx, DWORD PTR _WzMemScript$[ebp]
  014f1	e8 00 00 00 00	 call	 ?GetToken@CWzMemScript@@QAE?AW4SMDToken@@XZ ; CWzMemScript::GetToken
  014f6	89 85 64 ff ff
	ff		 mov	 DWORD PTR _Token$[ebp], eax

; 373  : 						this->QuestInfo[iQuestIndex].QuestSubInfo[iSubInfoCount].RequireClass[CLASS_MONK] = WzMemScript.GetNumber();

  014fc	8d 8d 68 ff ff
	ff		 lea	 ecx, DWORD PTR _WzMemScript$[ebp]
  01502	e8 00 00 00 00	 call	 ?GetNumber@CWzMemScript@@QAEHXZ ; CWzMemScript::GetNumber
  01507	8b 8d 58 ff ff
	ff		 mov	 ecx, DWORD PTR _iQuestIndex$231587[ebp]
  0150d	69 c9 30 04 00
	00		 imul	 ecx, 1072		; 00000430H
  01513	8b 55 ec	 mov	 edx, DWORD PTR _this$[ebp]
  01516	8d 4c 0a 08	 lea	 ecx, DWORD PTR [edx+ecx+8]
  0151a	8b 95 54 ff ff
	ff		 mov	 edx, DWORD PTR _iSubInfoCount$231592[ebp]
  01520	6b d2 48	 imul	 edx, 72			; 00000048H
  01523	88 84 11 8a 00
	00 00		 mov	 BYTE PTR [ecx+edx+138], al

; 374  : 
; 375  : 						this->QuestInfo[iQuestIndex].QuestSubInfoCount++;

  0152a	8b 85 58 ff ff
	ff		 mov	 eax, DWORD PTR _iQuestIndex$231587[ebp]
  01530	69 c0 30 04 00
	00		 imul	 eax, 1072		; 00000430H
  01536	8b 4d ec	 mov	 ecx, DWORD PTR _this$[ebp]
  01539	8b 54 01 48	 mov	 edx, DWORD PTR [ecx+eax+72]
  0153d	83 c2 01	 add	 edx, 1
  01540	8b 85 58 ff ff
	ff		 mov	 eax, DWORD PTR _iQuestIndex$231587[ebp]
  01546	69 c0 30 04 00
	00		 imul	 eax, 1072		; 00000430H
  0154c	8b 4d ec	 mov	 ecx, DWORD PTR _this$[ebp]
  0154f	89 54 01 48	 mov	 DWORD PTR [ecx+eax+72], edx

; 376  : 
; 377  : 					
; 378  : 					}

  01553	e9 05 fa ff ff	 jmp	 $LN11@LoadQuestI@2
$LN10@LoadQuestI@2:

; 379  : 					
; 380  : 					LogAdd("[Quest] (%s) Load : Index %d, SubInfoCount %d",	this->QuestInfo[iQuestIndex].Name, iQuestIndex,	this->QuestInfo[iQuestIndex].QuestSubInfoCount );

  01558	8b 85 58 ff ff
	ff		 mov	 eax, DWORD PTR _iQuestIndex$231587[ebp]
  0155e	69 c0 30 04 00
	00		 imul	 eax, 1072		; 00000430H
  01564	8b 4d ec	 mov	 ecx, DWORD PTR _this$[ebp]
  01567	8b 54 01 48	 mov	 edx, DWORD PTR [ecx+eax+72]
  0156b	52		 push	 edx
  0156c	8b 85 58 ff ff
	ff		 mov	 eax, DWORD PTR _iQuestIndex$231587[ebp]
  01572	50		 push	 eax
  01573	8b 8d 58 ff ff
	ff		 mov	 ecx, DWORD PTR _iQuestIndex$231587[ebp]
  01579	69 c9 30 04 00
	00		 imul	 ecx, 1072		; 00000430H
  0157f	8b 55 ec	 mov	 edx, DWORD PTR _this$[ebp]
  01582	8d 44 0a 08	 lea	 eax, DWORD PTR [edx+ecx+8]
  01586	50		 push	 eax
  01587	68 00 00 00 00	 push	 OFFSET ??_C@_0CO@IPPCPA@?$FLQuest?$FN?5?$CI?$CFs?$CJ?5Load?5?3?5Index?5?$CFd?0?5Su@
  0158c	ff 15 00 00 00
	00		 call	 DWORD PTR ?LogAdd@@3P6AXPADZZA ; LogAdd
  01592	83 c4 10	 add	 esp, 16			; 00000010H

; 381  : 					this->m_QuestCount++;

  01595	8b 45 ec	 mov	 eax, DWORD PTR _this$[ebp]
  01598	8b 48 04	 mov	 ecx, DWORD PTR [eax+4]
  0159b	83 c1 01	 add	 ecx, 1
  0159e	8b 55 ec	 mov	 edx, DWORD PTR _this$[ebp]
  015a1	89 4a 04	 mov	 DWORD PTR [edx+4], ecx
  015a4	e9 b1 02 00 00	 jmp	 $LN14@LoadQuestI@2
$LN12@LoadQuestI@2:

; 382  : 				}
; 383  : 				else if ( Type == 1 )

  015a9	83 bd 5c ff ff
	ff 01		 cmp	 DWORD PTR _Type$231585[ebp], 1
  015b0	0f 85 65 02 00
	00		 jne	 $LN6@LoadQuestI@2

; 384  : 				{
; 385  : 					Token = WzMemScript.GetToken();

  015b6	8d 8d 68 ff ff
	ff		 lea	 ecx, DWORD PTR _WzMemScript$[ebp]
  015bc	e8 00 00 00 00	 call	 ?GetToken@CWzMemScript@@QAE?AW4SMDToken@@XZ ; CWzMemScript::GetToken
  015c1	89 85 64 ff ff
	ff		 mov	 DWORD PTR _Token$[ebp], eax

; 386  : 					auto iQuestIndex = WzMemScript.GetNumber();

  015c7	8d 8d 68 ff ff
	ff		 lea	 ecx, DWORD PTR _WzMemScript$[ebp]
  015cd	e8 00 00 00 00	 call	 ?GetNumber@CWzMemScript@@QAEHXZ ; CWzMemScript::GetNumber
  015d2	89 85 50 ff ff
	ff		 mov	 DWORD PTR _iQuestIndex$231597[ebp], eax
$LN5@LoadQuestI@2:

; 387  : 
; 388  : 					while ( true )

  015d8	b8 01 00 00 00	 mov	 eax, 1
  015dd	85 c0		 test	 eax, eax
  015df	0f 84 34 02 00
	00		 je	 $LN4@LoadQuestI@2

; 389  : 					{
; 390  : 						auto iFailInfoCount = this->QuestInfo[iQuestIndex].QuestConditionCount;

  015e5	8b 85 50 ff ff
	ff		 mov	 eax, DWORD PTR _iQuestIndex$231597[ebp]
  015eb	69 c0 30 04 00
	00		 imul	 eax, 1072		; 00000430H
  015f1	8b 4d ec	 mov	 ecx, DWORD PTR _this$[ebp]
  015f4	8b 94 01 1c 03
	00 00		 mov	 edx, DWORD PTR [ecx+eax+796]
  015fb	89 95 4c ff ff
	ff		 mov	 DWORD PTR _iFailInfoCount$231602[ebp], edx

; 391  : 						Token = WzMemScript.GetToken();

  01601	8d 8d 68 ff ff
	ff		 lea	 ecx, DWORD PTR _WzMemScript$[ebp]
  01607	e8 00 00 00 00	 call	 ?GetToken@CWzMemScript@@QAE?AW4SMDToken@@XZ ; CWzMemScript::GetToken
  0160c	89 85 64 ff ff
	ff		 mov	 DWORD PTR _Token$[ebp], eax

; 392  : 
; 393  : 						if ( Token == 0 )

  01612	83 bd 64 ff ff
	ff 00		 cmp	 DWORD PTR _Token$[ebp], 0
  01619	75 22		 jne	 SHORT $LN3@LoadQuestI@2

; 394  : 						{
; 395  : 							if ( strcmp("end", WzMemScript.GetString()) == 0 )

  0161b	8d 8d 68 ff ff
	ff		 lea	 ecx, DWORD PTR _WzMemScript$[ebp]
  01621	e8 00 00 00 00	 call	 ?GetString@CWzMemScript@@QAEPADXZ ; CWzMemScript::GetString
  01626	50		 push	 eax
  01627	68 00 00 00 00	 push	 OFFSET ??_C@_03JBJLGPFL@end?$AA@
  0162c	e8 00 00 00 00	 call	 _strcmp
  01631	83 c4 08	 add	 esp, 8
  01634	85 c0		 test	 eax, eax
  01636	75 05		 jne	 SHORT $LN3@LoadQuestI@2

; 396  : 							{
; 397  : 								break;

  01638	e9 dc 01 00 00	 jmp	 $LN4@LoadQuestI@2
$LN3@LoadQuestI@2:

; 398  : 							}
; 399  : 						}	
; 400  : 							this->QuestInfo[iQuestIndex].QuestCondition[iFailInfoCount].Index = WzMemScript.GetNumber();

  0163d	8d 8d 68 ff ff
	ff		 lea	 ecx, DWORD PTR _WzMemScript$[ebp]
  01643	e8 00 00 00 00	 call	 ?GetNumber@CWzMemScript@@QAEHXZ ; CWzMemScript::GetNumber
  01648	8b 8d 50 ff ff
	ff		 mov	 ecx, DWORD PTR _iQuestIndex$231597[ebp]
  0164e	69 c9 30 04 00
	00		 imul	 ecx, 1072		; 00000430H
  01654	8b 55 ec	 mov	 edx, DWORD PTR _this$[ebp]
  01657	8d 4c 0a 08	 lea	 ecx, DWORD PTR [edx+ecx+8]
  0165b	8b 95 4c ff ff
	ff		 mov	 edx, DWORD PTR _iFailInfoCount$231602[ebp]
  01661	6b d2 1c	 imul	 edx, 28			; 0000001cH
  01664	89 84 11 18 03
	00 00		 mov	 DWORD PTR [ecx+edx+792], eax

; 401  : 
; 402  : 							Token = WzMemScript.GetToken();

  0166b	8d 8d 68 ff ff
	ff		 lea	 ecx, DWORD PTR _WzMemScript$[ebp]
  01671	e8 00 00 00 00	 call	 ?GetToken@CWzMemScript@@QAE?AW4SMDToken@@XZ ; CWzMemScript::GetToken
  01676	89 85 64 ff ff
	ff		 mov	 DWORD PTR _Token$[ebp], eax

; 403  : 							this->QuestInfo[iQuestIndex].QuestCondition[iFailInfoCount].NeedQuestIndex = WzMemScript.GetNumber();

  0167c	8d 8d 68 ff ff
	ff		 lea	 ecx, DWORD PTR _WzMemScript$[ebp]
  01682	e8 00 00 00 00	 call	 ?GetNumber@CWzMemScript@@QAEHXZ ; CWzMemScript::GetNumber
  01687	8b 8d 50 ff ff
	ff		 mov	 ecx, DWORD PTR _iQuestIndex$231597[ebp]
  0168d	69 c9 30 04 00
	00		 imul	 ecx, 1072		; 00000430H
  01693	8b 55 ec	 mov	 edx, DWORD PTR _this$[ebp]
  01696	8d 4c 0a 08	 lea	 ecx, DWORD PTR [edx+ecx+8]
  0169a	8b 95 4c ff ff
	ff		 mov	 edx, DWORD PTR _iFailInfoCount$231602[ebp]
  016a0	6b d2 1c	 imul	 edx, 28			; 0000001cH
  016a3	89 84 11 1c 03
	00 00		 mov	 DWORD PTR [ecx+edx+796], eax

; 404  : 
; 405  : 							Token = WzMemScript.GetToken();

  016aa	8d 8d 68 ff ff
	ff		 lea	 ecx, DWORD PTR _WzMemScript$[ebp]
  016b0	e8 00 00 00 00	 call	 ?GetToken@CWzMemScript@@QAE?AW4SMDToken@@XZ ; CWzMemScript::GetToken
  016b5	89 85 64 ff ff
	ff		 mov	 DWORD PTR _Token$[ebp], eax

; 406  : 							this->QuestInfo[iQuestIndex].QuestCondition[iFailInfoCount].MinLevel = WzMemScript.GetNumber();

  016bb	8d 8d 68 ff ff
	ff		 lea	 ecx, DWORD PTR _WzMemScript$[ebp]
  016c1	e8 00 00 00 00	 call	 ?GetNumber@CWzMemScript@@QAEHXZ ; CWzMemScript::GetNumber
  016c6	8b 8d 50 ff ff
	ff		 mov	 ecx, DWORD PTR _iQuestIndex$231597[ebp]
  016cc	69 c9 30 04 00
	00		 imul	 ecx, 1072		; 00000430H
  016d2	8b 55 ec	 mov	 edx, DWORD PTR _this$[ebp]
  016d5	8d 4c 0a 08	 lea	 ecx, DWORD PTR [edx+ecx+8]
  016d9	8b 95 4c ff ff
	ff		 mov	 edx, DWORD PTR _iFailInfoCount$231602[ebp]
  016df	6b d2 1c	 imul	 edx, 28			; 0000001cH
  016e2	89 84 11 20 03
	00 00		 mov	 DWORD PTR [ecx+edx+800], eax

; 407  : 
; 408  : 							Token = WzMemScript.GetToken();

  016e9	8d 8d 68 ff ff
	ff		 lea	 ecx, DWORD PTR _WzMemScript$[ebp]
  016ef	e8 00 00 00 00	 call	 ?GetToken@CWzMemScript@@QAE?AW4SMDToken@@XZ ; CWzMemScript::GetToken
  016f4	89 85 64 ff ff
	ff		 mov	 DWORD PTR _Token$[ebp], eax

; 409  : 							this->QuestInfo[iQuestIndex].QuestCondition[iFailInfoCount].MaxLevel = WzMemScript.GetNumber();

  016fa	8d 8d 68 ff ff
	ff		 lea	 ecx, DWORD PTR _WzMemScript$[ebp]
  01700	e8 00 00 00 00	 call	 ?GetNumber@CWzMemScript@@QAEHXZ ; CWzMemScript::GetNumber
  01705	8b 8d 50 ff ff
	ff		 mov	 ecx, DWORD PTR _iQuestIndex$231597[ebp]
  0170b	69 c9 30 04 00
	00		 imul	 ecx, 1072		; 00000430H
  01711	8b 55 ec	 mov	 edx, DWORD PTR _this$[ebp]
  01714	8d 4c 0a 08	 lea	 ecx, DWORD PTR [edx+ecx+8]
  01718	8b 95 4c ff ff
	ff		 mov	 edx, DWORD PTR _iFailInfoCount$231602[ebp]
  0171e	6b d2 1c	 imul	 edx, 28			; 0000001cH
  01721	89 84 11 24 03
	00 00		 mov	 DWORD PTR [ecx+edx+804], eax

; 410  : 
; 411  : 							Token = WzMemScript.GetToken();

  01728	8d 8d 68 ff ff
	ff		 lea	 ecx, DWORD PTR _WzMemScript$[ebp]
  0172e	e8 00 00 00 00	 call	 ?GetToken@CWzMemScript@@QAE?AW4SMDToken@@XZ ; CWzMemScript::GetToken
  01733	89 85 64 ff ff
	ff		 mov	 DWORD PTR _Token$[ebp], eax

; 412  : 							this->QuestInfo[iQuestIndex].QuestCondition[iFailInfoCount].ReqStr = WzMemScript.GetNumber();

  01739	8d 8d 68 ff ff
	ff		 lea	 ecx, DWORD PTR _WzMemScript$[ebp]
  0173f	e8 00 00 00 00	 call	 ?GetNumber@CWzMemScript@@QAEHXZ ; CWzMemScript::GetNumber
  01744	8b 8d 50 ff ff
	ff		 mov	 ecx, DWORD PTR _iQuestIndex$231597[ebp]
  0174a	69 c9 30 04 00
	00		 imul	 ecx, 1072		; 00000430H
  01750	8b 55 ec	 mov	 edx, DWORD PTR _this$[ebp]
  01753	8d 4c 0a 08	 lea	 ecx, DWORD PTR [edx+ecx+8]
  01757	8b 95 4c ff ff
	ff		 mov	 edx, DWORD PTR _iFailInfoCount$231602[ebp]
  0175d	6b d2 1c	 imul	 edx, 28			; 0000001cH
  01760	89 84 11 28 03
	00 00		 mov	 DWORD PTR [ecx+edx+808], eax

; 413  : 
; 414  : 							Token = WzMemScript.GetToken();

  01767	8d 8d 68 ff ff
	ff		 lea	 ecx, DWORD PTR _WzMemScript$[ebp]
  0176d	e8 00 00 00 00	 call	 ?GetToken@CWzMemScript@@QAE?AW4SMDToken@@XZ ; CWzMemScript::GetToken
  01772	89 85 64 ff ff
	ff		 mov	 DWORD PTR _Token$[ebp], eax

; 415  : 							this->QuestInfo[iQuestIndex].QuestCondition[iFailInfoCount].NeedZen = WzMemScript.GetNumber();

  01778	8d 8d 68 ff ff
	ff		 lea	 ecx, DWORD PTR _WzMemScript$[ebp]
  0177e	e8 00 00 00 00	 call	 ?GetNumber@CWzMemScript@@QAEHXZ ; CWzMemScript::GetNumber
  01783	8b 8d 50 ff ff
	ff		 mov	 ecx, DWORD PTR _iQuestIndex$231597[ebp]
  01789	69 c9 30 04 00
	00		 imul	 ecx, 1072		; 00000430H
  0178f	8b 55 ec	 mov	 edx, DWORD PTR _this$[ebp]
  01792	8d 4c 0a 08	 lea	 ecx, DWORD PTR [edx+ecx+8]
  01796	8b 95 4c ff ff
	ff		 mov	 edx, DWORD PTR _iFailInfoCount$231602[ebp]
  0179c	6b d2 1c	 imul	 edx, 28			; 0000001cH
  0179f	89 84 11 2c 03
	00 00		 mov	 DWORD PTR [ecx+edx+812], eax

; 416  : 
; 417  : 							Token = WzMemScript.GetToken();

  017a6	8d 8d 68 ff ff
	ff		 lea	 ecx, DWORD PTR _WzMemScript$[ebp]
  017ac	e8 00 00 00 00	 call	 ?GetToken@CWzMemScript@@QAE?AW4SMDToken@@XZ ; CWzMemScript::GetToken
  017b1	89 85 64 ff ff
	ff		 mov	 DWORD PTR _Token$[ebp], eax

; 418  : 							this->QuestInfo[iQuestIndex].QuestCondition[iFailInfoCount].StartContext = WzMemScript.GetNumber();

  017b7	8d 8d 68 ff ff
	ff		 lea	 ecx, DWORD PTR _WzMemScript$[ebp]
  017bd	e8 00 00 00 00	 call	 ?GetNumber@CWzMemScript@@QAEHXZ ; CWzMemScript::GetNumber
  017c2	8b 8d 50 ff ff
	ff		 mov	 ecx, DWORD PTR _iQuestIndex$231597[ebp]
  017c8	69 c9 30 04 00
	00		 imul	 ecx, 1072		; 00000430H
  017ce	8b 55 ec	 mov	 edx, DWORD PTR _this$[ebp]
  017d1	8d 4c 0a 08	 lea	 ecx, DWORD PTR [edx+ecx+8]
  017d5	8b 95 4c ff ff
	ff		 mov	 edx, DWORD PTR _iFailInfoCount$231602[ebp]
  017db	6b d2 1c	 imul	 edx, 28			; 0000001cH
  017de	89 84 11 30 03
	00 00		 mov	 DWORD PTR [ecx+edx+816], eax

; 419  : 
; 420  : 							this->QuestInfo[iQuestIndex].QuestConditionCount++;

  017e5	8b 85 50 ff ff
	ff		 mov	 eax, DWORD PTR _iQuestIndex$231597[ebp]
  017eb	69 c0 30 04 00
	00		 imul	 eax, 1072		; 00000430H
  017f1	8b 4d ec	 mov	 ecx, DWORD PTR _this$[ebp]
  017f4	8b 94 01 1c 03
	00 00		 mov	 edx, DWORD PTR [ecx+eax+796]
  017fb	83 c2 01	 add	 edx, 1
  017fe	8b 85 50 ff ff
	ff		 mov	 eax, DWORD PTR _iQuestIndex$231597[ebp]
  01804	69 c0 30 04 00
	00		 imul	 eax, 1072		; 00000430H
  0180a	8b 4d ec	 mov	 ecx, DWORD PTR _this$[ebp]
  0180d	89 94 01 1c 03
	00 00		 mov	 DWORD PTR [ecx+eax+796], edx

; 421  : 						
; 422  : 					}

  01814	e9 bf fd ff ff	 jmp	 $LN5@LoadQuestI@2
$LN4@LoadQuestI@2:

; 423  : 				}
; 424  : 				else

  01819	eb 3f		 jmp	 SHORT $LN14@LoadQuestI@2
$LN6@LoadQuestI@2:

; 425  : 				{
; 426  : 					MsgBox("Quest Info Read Fail");

  0181b	68 00 00 00 00	 push	 OFFSET ??_C@_0BF@JAOCNINL@Quest?5Info?5Read?5Fail?$AA@
  01820	e8 00 00 00 00	 call	 ?MsgBox@@YAXPADZZ	; MsgBox
  01825	83 c4 04	 add	 esp, 4

; 427  : 					fclose(SMDFile);

  01828	a1 00 00 00 00	 mov	 eax, DWORD PTR _SMDFile
  0182d	50		 push	 eax
  0182e	e8 00 00 00 00	 call	 _fclose
  01833	83 c4 04	 add	 esp, 4

; 428  : 					return false;

  01836	c7 85 04 ff ff
	ff 00 00 00 00	 mov	 DWORD PTR $T232309[ebp], 0
  01840	c7 45 fc ff ff
	ff ff		 mov	 DWORD PTR __$EHRec$[ebp+8], -1
  01847	8d 8d 68 ff ff
	ff		 lea	 ecx, DWORD PTR _WzMemScript$[ebp]
  0184d	e8 00 00 00 00	 call	 ??1CWzMemScript@@UAE@XZ	; CWzMemScript::~CWzMemScript
  01852	8b 85 04 ff ff
	ff		 mov	 eax, DWORD PTR $T232309[ebp]
  01858	eb 2f		 jmp	 SHORT $LN18@LoadQuestI@2
$LN14@LoadQuestI@2:

; 429  : 				}
; 430  : 			}
; 431  : 		}
; 432  : 	}

  0185a	e9 b9 f5 ff ff	 jmp	 $LN17@LoadQuestI@2
$LN16@LoadQuestI@2:

; 433  : 
; 434  : 	this->InitQuestItem();

  0185f	8b 4d ec	 mov	 ecx, DWORD PTR _this$[ebp]
  01862	e8 00 00 00 00	 call	 ?InitQuestItem@CQuestInfo@@QAEXXZ ; CQuestInfo::InitQuestItem

; 435  : 	return true;

  01867	c7 85 08 ff ff
	ff 01 00 00 00	 mov	 DWORD PTR $T232310[ebp], 1
  01871	c7 45 fc ff ff
	ff ff		 mov	 DWORD PTR __$EHRec$[ebp+8], -1
  01878	8d 8d 68 ff ff
	ff		 lea	 ecx, DWORD PTR _WzMemScript$[ebp]
  0187e	e8 00 00 00 00	 call	 ??1CWzMemScript@@UAE@XZ	; CWzMemScript::~CWzMemScript
  01883	8b 85 08 ff ff
	ff		 mov	 eax, DWORD PTR $T232310[ebp]
$LN18@LoadQuestI@2:

; 436  : }

  01889	8b 4d f4	 mov	 ecx, DWORD PTR __$EHRec$[ebp]
  0188c	64 89 0d 00 00
	00 00		 mov	 DWORD PTR fs:0, ecx
  01893	59		 pop	 ecx
  01894	5f		 pop	 edi
  01895	5e		 pop	 esi
  01896	5b		 pop	 ebx
  01897	8b 4d f0	 mov	 ecx, DWORD PTR __$ArrayPad$[ebp]
  0189a	33 cd		 xor	 ecx, ebp
  0189c	e8 00 00 00 00	 call	 @__security_check_cookie@4
  018a1	8b e5		 mov	 esp, ebp
  018a3	5d		 pop	 ebp
  018a4	c2 08 00	 ret	 8
_TEXT	ENDS
text$x	SEGMENT
__unwindfunclet$?LoadQuestInfo@CQuestInfo@@QAEHPADH@Z$0:
  00000	8d 8d 68 ff ff
	ff		 lea	 ecx, DWORD PTR _WzMemScript$[ebp]
  00006	e9 00 00 00 00	 jmp	 ??1CWzMemScript@@UAE@XZ	; CWzMemScript::~CWzMemScript
__ehhandler$?LoadQuestInfo@CQuestInfo@@QAEHPADH@Z:
  0000b	8b 54 24 08	 mov	 edx, DWORD PTR [esp+8]
  0000f	8d 42 0c	 lea	 eax, DWORD PTR [edx+12]
  00012	8b 8a 00 ff ff
	ff		 mov	 ecx, DWORD PTR [edx-256]
  00018	33 c8		 xor	 ecx, eax
  0001a	e8 00 00 00 00	 call	 @__security_check_cookie@4
  0001f	8b 4a fc	 mov	 ecx, DWORD PTR [edx-4]
  00022	33 c8		 xor	 ecx, eax
  00024	e8 00 00 00 00	 call	 @__security_check_cookie@4
  00029	b8 00 00 00 00	 mov	 eax, OFFSET __ehfuncinfo$?LoadQuestInfo@CQuestInfo@@QAEHPADH@Z
  0002e	e9 00 00 00 00	 jmp	 ___CxxFrameHandler3
text$x	ENDS
?LoadQuestInfo@CQuestInfo@@QAEHPADH@Z ENDP		; CQuestInfo::LoadQuestInfo
PUBLIC	??_C@_0BK@EGHNLLGE@?$FLQuest?$FN?5?$FLSetQuestItem?$FN?5?$CFs?$AA@ ; `string'
PUBLIC	?GetQuestInfo@CQuestInfo@@QAEPAUQUEST_INFO@@H@Z	; CQuestInfo::GetQuestInfo
PUBLIC	?GetQeustCount@CQuestInfo@@QAEHXZ		; CQuestInfo::GetQeustCount
EXTRN	?LogAddTD@@3P6AXPADZZA:DWORD			; LogAddTD
EXTRN	?ItemAttribute@@3PAUITEM_ATTRIBUTE@@A:BYTE	; ItemAttribute
;	COMDAT ??_C@_0BK@EGHNLLGE@?$FLQuest?$FN?5?$FLSetQuestItem?$FN?5?$CFs?$AA@
CONST	SEGMENT
??_C@_0BK@EGHNLLGE@?$FLQuest?$FN?5?$FLSetQuestItem?$FN?5?$CFs?$AA@ DB '[Q'
	DB	'uest] [SetQuestItem] %s', 00H		; `string'
; Function compile flags: /Odtp /ZI
CONST	ENDS
_TEXT	SEGMENT
_p$231627 = -32						; size = 4
_n$231621 = -28						; size = 4
_i$231616 = -24						; size = 4
_lpSubInfo$ = -20					; size = 4
_lpQuestInfo$ = -16					; size = 4
_foundquest$ = -12					; size = 4
_questcount$ = -8					; size = 4
_this$ = -4						; size = 4
?InitQuestItem@CQuestInfo@@QAEXXZ PROC			; CQuestInfo::InitQuestItem
; _this$ = ecx

; 440  : {

  018b0	55		 push	 ebp
  018b1	8b ec		 mov	 ebp, esp
  018b3	83 ec 60	 sub	 esp, 96			; 00000060H
  018b6	53		 push	 ebx
  018b7	56		 push	 esi
  018b8	57		 push	 edi
  018b9	89 4d fc	 mov	 DWORD PTR _this$[ebp], ecx

; 441  : 	int questcount = this->GetQeustCount();

  018bc	8b 4d fc	 mov	 ecx, DWORD PTR _this$[ebp]
  018bf	e8 00 00 00 00	 call	 ?GetQeustCount@CQuestInfo@@QAEHXZ ; CQuestInfo::GetQeustCount
  018c4	89 45 f8	 mov	 DWORD PTR _questcount$[ebp], eax

; 442  : 	int foundquest = 0;

  018c7	c7 45 f4 00 00
	00 00		 mov	 DWORD PTR _foundquest$[ebp], 0

; 443  : 	LPQUEST_INFO lpQuestInfo;
; 444  : 	LPQUEST_SUB_INFO lpSubInfo;
; 445  : 
; 446  : 	for (int i=0;i<MAX_QUEST_INFO;i++)

  018ce	c7 45 e8 00 00
	00 00		 mov	 DWORD PTR _i$231616[ebp], 0
  018d5	eb 09		 jmp	 SHORT $LN10@InitQuestI
$LN9@InitQuestI:
  018d7	8b 45 e8	 mov	 eax, DWORD PTR _i$231616[ebp]
  018da	83 c0 01	 add	 eax, 1
  018dd	89 45 e8	 mov	 DWORD PTR _i$231616[ebp], eax
$LN10@InitQuestI:
  018e0	81 7d e8 c8 00
	00 00		 cmp	 DWORD PTR _i$231616[ebp], 200 ; 000000c8H
  018e7	0f 8d a0 00 00
	00		 jge	 $LN11@InitQuestI

; 447  : 	{
; 448  : 		lpQuestInfo = this->GetQuestInfo(i);

  018ed	8b 45 e8	 mov	 eax, DWORD PTR _i$231616[ebp]
  018f0	50		 push	 eax
  018f1	8b 4d fc	 mov	 ecx, DWORD PTR _this$[ebp]
  018f4	e8 00 00 00 00	 call	 ?GetQuestInfo@CQuestInfo@@QAEPAUQUEST_INFO@@H@Z ; CQuestInfo::GetQuestInfo
  018f9	89 45 f0	 mov	 DWORD PTR _lpQuestInfo$[ebp], eax

; 449  : 
; 450  : 		if ( lpQuestInfo == NULL )

  018fc	83 7d f0 00	 cmp	 DWORD PTR _lpQuestInfo$[ebp], 0
  01900	75 02		 jne	 SHORT $LN7@InitQuestI

; 451  : 		{
; 452  : 			continue;

  01902	eb d3		 jmp	 SHORT $LN9@InitQuestI
$LN7@InitQuestI:

; 453  : 		}
; 454  : 
; 455  : 		for ( int n=0;n<lpQuestInfo->QuestSubInfoCount;n++)

  01904	c7 45 e4 00 00
	00 00		 mov	 DWORD PTR _n$231621[ebp], 0
  0190b	eb 09		 jmp	 SHORT $LN6@InitQuestI
$LN5@InitQuestI:
  0190d	8b 45 e4	 mov	 eax, DWORD PTR _n$231621[ebp]
  01910	83 c0 01	 add	 eax, 1
  01913	89 45 e4	 mov	 DWORD PTR _n$231621[ebp], eax
$LN6@InitQuestI:
  01916	8b 45 f0	 mov	 eax, DWORD PTR _lpQuestInfo$[ebp]
  01919	8b 4d e4	 mov	 ecx, DWORD PTR _n$231621[ebp]
  0191c	3b 48 40	 cmp	 ecx, DWORD PTR [eax+64]
  0191f	7d 54		 jge	 SHORT $LN4@InitQuestI

; 456  : 		{
; 457  : 			lpSubInfo = &lpQuestInfo->QuestSubInfo[n];

  01921	8b 45 e4	 mov	 eax, DWORD PTR _n$231621[ebp]
  01924	6b c0 48	 imul	 eax, 72			; 00000048H
  01927	8b 4d f0	 mov	 ecx, DWORD PTR _lpQuestInfo$[ebp]
  0192a	8d 54 01 44	 lea	 edx, DWORD PTR [ecx+eax+68]
  0192e	89 55 ec	 mov	 DWORD PTR _lpSubInfo$[ebp], edx

; 458  : 
; 459  : 			if ( lpSubInfo != NULL )

  01931	83 7d ec 00	 cmp	 DWORD PTR _lpSubInfo$[ebp], 0
  01935	74 3c		 je	 SHORT $LN3@InitQuestI

; 460  : 			{
; 461  : 				if ( lpSubInfo->QuestType == 1 )

  01937	8b 45 ec	 mov	 eax, DWORD PTR _lpSubInfo$[ebp]
  0193a	83 38 01	 cmp	 DWORD PTR [eax], 1
  0193d	75 34		 jne	 SHORT $LN3@InitQuestI

; 462  : 				{
; 463  : 					LPITEM_ATTRIBUTE p = &ItemAttribute[ITEMGET(lpSubInfo->NeedType, lpSubInfo->NeedSubType) ];

  0193f	8b 45 ec	 mov	 eax, DWORD PTR _lpSubInfo$[ebp]
  01942	8b 48 04	 mov	 ecx, DWORD PTR [eax+4]
  01945	c1 e1 09	 shl	 ecx, 9
  01948	8b 55 ec	 mov	 edx, DWORD PTR _lpSubInfo$[ebp]
  0194b	03 4a 08	 add	 ecx, DWORD PTR [edx+8]
  0194e	6b c9 70	 imul	 ecx, 112		; 00000070H
  01951	81 c1 00 00 00
	00		 add	 ecx, OFFSET ?ItemAttribute@@3PAUITEM_ATTRIBUTE@@A ; ItemAttribute
  01957	89 4d e0	 mov	 DWORD PTR _p$231627[ebp], ecx

; 464  : 					p->QuestItem = TRUE;

  0195a	8b 45 e0	 mov	 eax, DWORD PTR _p$231627[ebp]
  0195d	c6 40 60 01	 mov	 BYTE PTR [eax+96], 1

; 465  : 					LogAddTD("[Quest] [SetQuestItem] %s", p->Name);

  01961	8b 45 e0	 mov	 eax, DWORD PTR _p$231627[ebp]
  01964	50		 push	 eax
  01965	68 00 00 00 00	 push	 OFFSET ??_C@_0BK@EGHNLLGE@?$FLQuest?$FN?5?$FLSetQuestItem?$FN?5?$CFs?$AA@
  0196a	ff 15 00 00 00
	00		 call	 DWORD PTR ?LogAddTD@@3P6AXPADZZA ; LogAddTD
  01970	83 c4 08	 add	 esp, 8
$LN3@InitQuestI:

; 466  : 				}
; 467  : 			}
; 468  : 		}

  01973	eb 98		 jmp	 SHORT $LN5@InitQuestI
$LN4@InitQuestI:

; 469  : 
; 470  : 		foundquest++;

  01975	8b 45 f4	 mov	 eax, DWORD PTR _foundquest$[ebp]
  01978	83 c0 01	 add	 eax, 1
  0197b	89 45 f4	 mov	 DWORD PTR _foundquest$[ebp], eax

; 471  : 
; 472  : 		if ( foundquest == questcount )

  0197e	8b 45 f4	 mov	 eax, DWORD PTR _foundquest$[ebp]
  01981	3b 45 f8	 cmp	 eax, DWORD PTR _questcount$[ebp]
  01984	75 02		 jne	 SHORT $LN1@InitQuestI

; 473  : 		{
; 474  : 			return;

  01986	eb 05		 jmp	 SHORT $LN11@InitQuestI
$LN1@InitQuestI:

; 475  : 		}
; 476  : 	}

  01988	e9 4a ff ff ff	 jmp	 $LN9@InitQuestI
$LN11@InitQuestI:

; 477  : }

  0198d	5f		 pop	 edi
  0198e	5e		 pop	 esi
  0198f	5b		 pop	 ebx
  01990	8b e5		 mov	 esp, ebp
  01992	5d		 pop	 ebp
  01993	c3		 ret	 0
?InitQuestItem@CQuestInfo@@QAEXXZ ENDP			; CQuestInfo::InitQuestItem
; Function compile flags: /Odtp /ZI
; File d:\projects\exteam6.3\source\gameserver\gameserver\questinfo.h
_TEXT	ENDS
;	COMDAT ?GetQeustCount@CQuestInfo@@QAEHXZ
_TEXT	SEGMENT
_this$ = -4						; size = 4
?GetQeustCount@CQuestInfo@@QAEHXZ PROC			; CQuestInfo::GetQeustCount, COMDAT
; _this$ = ecx

; 102  : 	int GetQeustCount(){return m_QuestCount;}

  00000	55		 push	 ebp
  00001	8b ec		 mov	 ebp, esp
  00003	83 ec 44	 sub	 esp, 68			; 00000044H
  00006	53		 push	 ebx
  00007	56		 push	 esi
  00008	57		 push	 edi
  00009	89 4d fc	 mov	 DWORD PTR _this$[ebp], ecx
  0000c	8b 45 fc	 mov	 eax, DWORD PTR _this$[ebp]
  0000f	8b 40 04	 mov	 eax, DWORD PTR [eax+4]
  00012	5f		 pop	 edi
  00013	5e		 pop	 esi
  00014	5b		 pop	 ebx
  00015	8b e5		 mov	 esp, ebp
  00017	5d		 pop	 ebp
  00018	c3		 ret	 0
?GetQeustCount@CQuestInfo@@QAEHXZ ENDP			; CQuestInfo::GetQeustCount
_TEXT	ENDS
PUBLIC	?IsQuest@CQuestInfo@@QAEHH@Z			; CQuestInfo::IsQuest
; Function compile flags: /Odtp /ZI
; File d:\projects\exteam6.3\source\gameserver\gameserver\questinfo.cpp
_TEXT	SEGMENT
_this$ = -4						; size = 4
_QuestIndex$ = 8					; size = 4
?IsQuest@CQuestInfo@@QAEHH@Z PROC			; CQuestInfo::IsQuest
; _this$ = ecx

; 481  : {

  019a0	55		 push	 ebp
  019a1	8b ec		 mov	 ebp, esp
  019a3	83 ec 44	 sub	 esp, 68			; 00000044H
  019a6	53		 push	 ebx
  019a7	56		 push	 esi
  019a8	57		 push	 edi
  019a9	89 4d fc	 mov	 DWORD PTR _this$[ebp], ecx

; 482  : 	if ( QuestIndex < 0 || QuestIndex > MAX_QUEST_INFO )

  019ac	83 7d 08 00	 cmp	 DWORD PTR _QuestIndex$[ebp], 0
  019b0	7c 09		 jl	 SHORT $LN2@IsQuest
  019b2	81 7d 08 c8 00
	00 00		 cmp	 DWORD PTR _QuestIndex$[ebp], 200 ; 000000c8H
  019b9	7e 04		 jle	 SHORT $LN3@IsQuest
$LN2@IsQuest:

; 483  : 	{
; 484  : 		return false;

  019bb	33 c0		 xor	 eax, eax
  019bd	eb 1c		 jmp	 SHORT $LN4@IsQuest
$LN3@IsQuest:

; 485  : 	}
; 486  : 
; 487  : 	if ( this->QuestInfo[QuestIndex].QuestIndex == -1 )

  019bf	8b 45 08	 mov	 eax, DWORD PTR _QuestIndex$[ebp]
  019c2	69 c0 30 04 00
	00		 imul	 eax, 1072		; 00000430H
  019c8	8b 4d fc	 mov	 ecx, DWORD PTR _this$[ebp]
  019cb	83 7c 01 3c ff	 cmp	 DWORD PTR [ecx+eax+60], -1
  019d0	75 04		 jne	 SHORT $LN1@IsQuest

; 488  : 	{
; 489  : 		return false;

  019d2	33 c0		 xor	 eax, eax
  019d4	eb 05		 jmp	 SHORT $LN4@IsQuest
$LN1@IsQuest:

; 490  : 	}
; 491  : 
; 492  : 	return true;

  019d6	b8 01 00 00 00	 mov	 eax, 1
$LN4@IsQuest:

; 493  : }

  019db	5f		 pop	 edi
  019dc	5e		 pop	 esi
  019dd	5b		 pop	 ebx
  019de	8b e5		 mov	 esp, ebp
  019e0	5d		 pop	 ebp
  019e1	c2 04 00	 ret	 4
?IsQuest@CQuestInfo@@QAEHH@Z ENDP			; CQuestInfo::IsQuest
_TEXT	ENDS
PUBLIC	?GetQuestState@CQuestInfo@@QAEHPAUOBJECTSTRUCT@@H@Z ; CQuestInfo::GetQuestState
; Function compile flags: /Odtp /ZI
_TEXT	SEGMENT
_shift$ = -12						; size = 4
_index$ = -8						; size = 4
_this$ = -4						; size = 4
_lpObj$ = 8						; size = 4
_QuestIndex$ = 12					; size = 4
?GetQuestState@CQuestInfo@@QAEHPAUOBJECTSTRUCT@@H@Z PROC ; CQuestInfo::GetQuestState
; _this$ = ecx

; 497  : {

  019f0	55		 push	 ebp
  019f1	8b ec		 mov	 ebp, esp
  019f3	83 ec 4c	 sub	 esp, 76			; 0000004cH
  019f6	53		 push	 ebx
  019f7	56		 push	 esi
  019f8	57		 push	 edi
  019f9	89 4d fc	 mov	 DWORD PTR _this$[ebp], ecx

; 498  : 	if ( QuestIndex < 0 || QuestIndex > MAX_QUEST_INFO )

  019fc	83 7d 0c 00	 cmp	 DWORD PTR _QuestIndex$[ebp], 0
  01a00	7c 09		 jl	 SHORT $LN1@GetQuestSt
  01a02	81 7d 0c c8 00
	00 00		 cmp	 DWORD PTR _QuestIndex$[ebp], 200 ; 000000c8H
  01a09	7e 04		 jle	 SHORT $LN2@GetQuestSt
$LN1@GetQuestSt:

; 499  : 	{
; 500  : 		return false;

  01a0b	33 c0		 xor	 eax, eax
  01a0d	eb 38		 jmp	 SHORT $LN3@GetQuestSt
$LN2@GetQuestSt:

; 501  : 	}
; 502  : 
; 503  : 	int index = (QuestIndex) /4;

  01a0f	8b 45 0c	 mov	 eax, DWORD PTR _QuestIndex$[ebp]
  01a12	99		 cdq
  01a13	83 e2 03	 and	 edx, 3
  01a16	03 c2		 add	 eax, edx
  01a18	c1 f8 02	 sar	 eax, 2
  01a1b	89 45 f8	 mov	 DWORD PTR _index$[ebp], eax

; 504  : 	int shift = (QuestIndex % 4) *2;

  01a1e	8b 45 0c	 mov	 eax, DWORD PTR _QuestIndex$[ebp]
  01a21	25 03 00 00 80	 and	 eax, -2147483645	; 80000003H
  01a26	79 05		 jns	 SHORT $LN5@GetQuestSt
  01a28	48		 dec	 eax
  01a29	83 c8 fc	 or	 eax, -4			; fffffffcH
  01a2c	40		 inc	 eax
$LN5@GetQuestSt:
  01a2d	d1 e0		 shl	 eax, 1
  01a2f	89 45 f4	 mov	 DWORD PTR _shift$[ebp], eax

; 505  : 	return (lpObj->m_Quest[index] >> shift) &3;

  01a32	8b 45 08	 mov	 eax, DWORD PTR _lpObj$[ebp]
  01a35	03 45 f8	 add	 eax, DWORD PTR _index$[ebp]
  01a38	0f b6 80 8c 10
	00 00		 movzx	 eax, BYTE PTR [eax+4236]
  01a3f	8b 4d f4	 mov	 ecx, DWORD PTR _shift$[ebp]
  01a42	d3 f8		 sar	 eax, cl
  01a44	83 e0 03	 and	 eax, 3
$LN3@GetQuestSt:

; 506  : }

  01a47	5f		 pop	 edi
  01a48	5e		 pop	 esi
  01a49	5b		 pop	 ebx
  01a4a	8b e5		 mov	 esp, ebp
  01a4c	5d		 pop	 ebp
  01a4d	c2 08 00	 ret	 8
?GetQuestState@CQuestInfo@@QAEHPAUOBJECTSTRUCT@@H@Z ENDP ; CQuestInfo::GetQuestState
_TEXT	ENDS
PUBLIC	?GetQuestStateBYTE@CQuestInfo@@QAEEPAUOBJECTSTRUCT@@H@Z ; CQuestInfo::GetQuestStateBYTE
; Function compile flags: /Odtp /ZI
_TEXT	SEGMENT
_index$ = -8						; size = 4
_this$ = -4						; size = 4
_lpObj$ = 8						; size = 4
_QuestIndex$ = 12					; size = 4
?GetQuestStateBYTE@CQuestInfo@@QAEEPAUOBJECTSTRUCT@@H@Z PROC ; CQuestInfo::GetQuestStateBYTE
; _this$ = ecx

; 509  : {

  01a50	55		 push	 ebp
  01a51	8b ec		 mov	 ebp, esp
  01a53	83 ec 48	 sub	 esp, 72			; 00000048H
  01a56	53		 push	 ebx
  01a57	56		 push	 esi
  01a58	57		 push	 edi
  01a59	89 4d fc	 mov	 DWORD PTR _this$[ebp], ecx

; 510  : 	if ( QuestIndex < 0 || QuestIndex > MAX_QUEST_INFO )

  01a5c	83 7d 0c 00	 cmp	 DWORD PTR _QuestIndex$[ebp], 0
  01a60	7c 09		 jl	 SHORT $LN1@GetQuestSt@2
  01a62	81 7d 0c c8 00
	00 00		 cmp	 DWORD PTR _QuestIndex$[ebp], 200 ; 000000c8H
  01a69	7e 04		 jle	 SHORT $LN2@GetQuestSt@2
$LN1@GetQuestSt@2:

; 511  : 	{
; 512  : 		return false;

  01a6b	32 c0		 xor	 al, al
  01a6d	eb 1b		 jmp	 SHORT $LN3@GetQuestSt@2
$LN2@GetQuestSt@2:

; 513  : 	}
; 514  : 	
; 515  : 	int index = (QuestIndex / 4);

  01a6f	8b 45 0c	 mov	 eax, DWORD PTR _QuestIndex$[ebp]
  01a72	99		 cdq
  01a73	83 e2 03	 and	 edx, 3
  01a76	03 c2		 add	 eax, edx
  01a78	c1 f8 02	 sar	 eax, 2
  01a7b	89 45 f8	 mov	 DWORD PTR _index$[ebp], eax

; 516  : 	return lpObj->m_Quest[index];

  01a7e	8b 45 08	 mov	 eax, DWORD PTR _lpObj$[ebp]
  01a81	03 45 f8	 add	 eax, DWORD PTR _index$[ebp]
  01a84	8a 80 8c 10 00
	00		 mov	 al, BYTE PTR [eax+4236]
$LN3@GetQuestSt@2:

; 517  : }

  01a8a	5f		 pop	 edi
  01a8b	5e		 pop	 esi
  01a8c	5b		 pop	 ebx
  01a8d	8b e5		 mov	 esp, ebp
  01a8f	5d		 pop	 ebp
  01a90	c2 08 00	 ret	 8
?GetQuestStateBYTE@CQuestInfo@@QAEEPAUOBJECTSTRUCT@@H@Z ENDP ; CQuestInfo::GetQuestStateBYTE
_TEXT	ENDS
PUBLIC	??_C@_0CB@KKBMLGHJ@?$FLQuest?$FN?5ClearQuest?5?$FL?$CFs?$FN?$FL?$CFs?$FN?5?$CI?$CFs?$CJ@ ; `string'
PUBLIC	?QuestClear@CQuestInfo@@QAEHPAUOBJECTSTRUCT@@H@Z ; CQuestInfo::QuestClear
PUBLIC	?QuestClearConditionCheck@CQuestInfo@@QAEEPAUOBJECTSTRUCT@@H@Z ; CQuestInfo::QuestClearConditionCheck
PUBLIC	??_C@_0CC@BPALCPGE@?$FLQuest?$FN?5AcceptQuest?5?$FL?$CFs?$FN?$FL?$CFs?$FN?5?$CI?$CFs@ ; `string'
PUBLIC	?QuestAccept@CQuestInfo@@QAEHPAUOBJECTSTRUCT@@H@Z ; CQuestInfo::QuestAccept
PUBLIC	?QuestRunConditionCheck@CQuestInfo@@QAEEPAUOBJECTSTRUCT@@H@Z ; CQuestInfo::QuestRunConditionCheck
PUBLIC	?SetQuestState@CQuestInfo@@QAEEPAUOBJECTSTRUCT@@HH@Z ; CQuestInfo::SetQuestState
;	COMDAT ??_C@_0CB@KKBMLGHJ@?$FLQuest?$FN?5ClearQuest?5?$FL?$CFs?$FN?$FL?$CFs?$FN?5?$CI?$CFs?$CJ@
CONST	SEGMENT
??_C@_0CB@KKBMLGHJ@?$FLQuest?$FN?5ClearQuest?5?$FL?$CFs?$FN?$FL?$CFs?$FN?5?$CI?$CFs?$CJ@ DB '['
	DB	'Quest] ClearQuest [%s][%s] (%s)', 00H	; `string'
CONST	ENDS
;	COMDAT ??_C@_0CC@BPALCPGE@?$FLQuest?$FN?5AcceptQuest?5?$FL?$CFs?$FN?$FL?$CFs?$FN?5?$CI?$CFs@
CONST	SEGMENT
??_C@_0CC@BPALCPGE@?$FLQuest?$FN?5AcceptQuest?5?$FL?$CFs?$FN?$FL?$CFs?$FN?5?$CI?$CFs@ DB '['
	DB	'Quest] AcceptQuest [%s][%s] (%s)', 00H	; `string'
; Function compile flags: /Odtp /ZI
CONST	ENDS
_TEXT	SEGMENT
_shift$ = -20						; size = 4
_index$ = -16						; size = 4
_btCond$231670 = -10					; size = 1
_btCond$231665 = -9					; size = 1
_QuestState$ = -8					; size = 4
_this$ = -4						; size = 4
_lpObj$ = 8						; size = 4
_QuestIndex$ = 12					; size = 4
_State$ = 16						; size = 4
?SetQuestState@CQuestInfo@@QAEEPAUOBJECTSTRUCT@@HH@Z PROC ; CQuestInfo::SetQuestState
; _this$ = ecx

; 520  : {

  01aa0	55		 push	 ebp
  01aa1	8b ec		 mov	 ebp, esp
  01aa3	83 ec 54	 sub	 esp, 84			; 00000054H
  01aa6	53		 push	 ebx
  01aa7	56		 push	 esi
  01aa8	57		 push	 edi
  01aa9	89 4d fc	 mov	 DWORD PTR _this$[ebp], ecx

; 521  : 	if ( QuestIndex < 0 || QuestIndex > MAX_QUEST_INFO )

  01aac	83 7d 0c 00	 cmp	 DWORD PTR _QuestIndex$[ebp], 0
  01ab0	7c 09		 jl	 SHORT $LN8@SetQuestSt
  01ab2	81 7d 0c c8 00
	00 00		 cmp	 DWORD PTR _QuestIndex$[ebp], 200 ; 000000c8H
  01ab9	7e 07		 jle	 SHORT $LN9@SetQuestSt
$LN8@SetQuestSt:

; 522  : 	{
; 523  : 		return -1;

  01abb	0c ff		 or	 al, 255			; 000000ffH
  01abd	e9 63 01 00 00	 jmp	 $LN10@SetQuestSt
$LN9@SetQuestSt:

; 524  : 	}
; 525  : 
; 526  : 	int QuestState = this->GetQuestState(lpObj, QuestIndex);

  01ac2	8b 45 0c	 mov	 eax, DWORD PTR _QuestIndex$[ebp]
  01ac5	50		 push	 eax
  01ac6	8b 4d 08	 mov	 ecx, DWORD PTR _lpObj$[ebp]
  01ac9	51		 push	 ecx
  01aca	8b 4d fc	 mov	 ecx, DWORD PTR _this$[ebp]
  01acd	e8 00 00 00 00	 call	 ?GetQuestState@CQuestInfo@@QAEHPAUOBJECTSTRUCT@@H@Z ; CQuestInfo::GetQuestState
  01ad2	89 45 f8	 mov	 DWORD PTR _QuestState$[ebp], eax

; 527  : 
; 528  : 	if ( QuestState == 3 || QuestState == 0)

  01ad5	83 7d f8 03	 cmp	 DWORD PTR _QuestState$[ebp], 3
  01ad9	74 06		 je	 SHORT $LN6@SetQuestSt
  01adb	83 7d f8 00	 cmp	 DWORD PTR _QuestState$[ebp], 0
  01adf	75 65		 jne	 SHORT $LN7@SetQuestSt
$LN6@SetQuestSt:

; 529  : 	{
; 530  : 		BYTE btCond = this->QuestRunConditionCheck(lpObj, QuestIndex);

  01ae1	8b 45 0c	 mov	 eax, DWORD PTR _QuestIndex$[ebp]
  01ae4	50		 push	 eax
  01ae5	8b 4d 08	 mov	 ecx, DWORD PTR _lpObj$[ebp]
  01ae8	51		 push	 ecx
  01ae9	8b 4d fc	 mov	 ecx, DWORD PTR _this$[ebp]
  01aec	e8 00 00 00 00	 call	 ?QuestRunConditionCheck@CQuestInfo@@QAEEPAUOBJECTSTRUCT@@H@Z ; CQuestInfo::QuestRunConditionCheck
  01af1	88 45 f7	 mov	 BYTE PTR _btCond$231665[ebp], al

; 531  : 
; 532  : 		if ( btCond != 0 )

  01af4	0f b6 45 f7	 movzx	 eax, BYTE PTR _btCond$231665[ebp]
  01af8	85 c0		 test	 eax, eax
  01afa	74 08		 je	 SHORT $LN5@SetQuestSt

; 533  : 		{
; 534  : 			return btCond;

  01afc	8a 45 f7	 mov	 al, BYTE PTR _btCond$231665[ebp]
  01aff	e9 21 01 00 00	 jmp	 $LN10@SetQuestSt
$LN5@SetQuestSt:

; 535  : 		}
; 536  : 
; 537  : 		this->QuestAccept(lpObj, QuestIndex);

  01b04	8b 45 0c	 mov	 eax, DWORD PTR _QuestIndex$[ebp]
  01b07	50		 push	 eax
  01b08	8b 4d 08	 mov	 ecx, DWORD PTR _lpObj$[ebp]
  01b0b	51		 push	 ecx
  01b0c	8b 4d fc	 mov	 ecx, DWORD PTR _this$[ebp]
  01b0f	e8 00 00 00 00	 call	 ?QuestAccept@CQuestInfo@@QAEHPAUOBJECTSTRUCT@@H@Z ; CQuestInfo::QuestAccept

; 538  : 		LogAddTD("[Quest] AcceptQuest [%s][%s] (%s)", lpObj->AccountID, lpObj->Name, this->GetQuestInfo(QuestIndex)->Name);

  01b14	8b 45 0c	 mov	 eax, DWORD PTR _QuestIndex$[ebp]
  01b17	50		 push	 eax
  01b18	8b 4d fc	 mov	 ecx, DWORD PTR _this$[ebp]
  01b1b	e8 00 00 00 00	 call	 ?GetQuestInfo@CQuestInfo@@QAEPAUQUEST_INFO@@H@Z ; CQuestInfo::GetQuestInfo
  01b20	50		 push	 eax
  01b21	8b 4d 08	 mov	 ecx, DWORD PTR _lpObj$[ebp]
  01b24	83 c1 77	 add	 ecx, 119		; 00000077H
  01b27	51		 push	 ecx
  01b28	8b 55 08	 mov	 edx, DWORD PTR _lpObj$[ebp]
  01b2b	83 c2 6c	 add	 edx, 108		; 0000006cH
  01b2e	52		 push	 edx
  01b2f	68 00 00 00 00	 push	 OFFSET ??_C@_0CC@BPALCPGE@?$FLQuest?$FN?5AcceptQuest?5?$FL?$CFs?$FN?$FL?$CFs?$FN?5?$CI?$CFs@
  01b34	ff 15 00 00 00
	00		 call	 DWORD PTR ?LogAddTD@@3P6AXPADZZA ; LogAddTD
  01b3a	83 c4 10	 add	 esp, 16			; 00000010H

; 539  : 		State = 1;

  01b3d	c7 45 10 01 00
	00 00		 mov	 DWORD PTR _State$[ebp], 1
  01b44	eb 6f		 jmp	 SHORT $LN4@SetQuestSt
$LN7@SetQuestSt:

; 540  : 	}
; 541  : 	else if ( QuestState == 1 )

  01b46	83 7d f8 01	 cmp	 DWORD PTR _QuestState$[ebp], 1
  01b4a	75 65		 jne	 SHORT $LN3@SetQuestSt

; 542  : 	{
; 543  : 		BYTE btCond = this->QuestClearConditionCheck(lpObj, QuestIndex);

  01b4c	8b 45 0c	 mov	 eax, DWORD PTR _QuestIndex$[ebp]
  01b4f	50		 push	 eax
  01b50	8b 4d 08	 mov	 ecx, DWORD PTR _lpObj$[ebp]
  01b53	51		 push	 ecx
  01b54	8b 4d fc	 mov	 ecx, DWORD PTR _this$[ebp]
  01b57	e8 00 00 00 00	 call	 ?QuestClearConditionCheck@CQuestInfo@@QAEEPAUOBJECTSTRUCT@@H@Z ; CQuestInfo::QuestClearConditionCheck
  01b5c	88 45 f6	 mov	 BYTE PTR _btCond$231670[ebp], al

; 544  : 
; 545  : 		if ( btCond != 0 )

  01b5f	0f b6 45 f6	 movzx	 eax, BYTE PTR _btCond$231670[ebp]
  01b63	85 c0		 test	 eax, eax
  01b65	74 08		 je	 SHORT $LN2@SetQuestSt

; 546  : 		{
; 547  : 			return btCond;

  01b67	8a 45 f6	 mov	 al, BYTE PTR _btCond$231670[ebp]
  01b6a	e9 b6 00 00 00	 jmp	 $LN10@SetQuestSt
$LN2@SetQuestSt:

; 548  : 		}
; 549  : 
; 550  : 		this->QuestClear(lpObj, QuestIndex);

  01b6f	8b 45 0c	 mov	 eax, DWORD PTR _QuestIndex$[ebp]
  01b72	50		 push	 eax
  01b73	8b 4d 08	 mov	 ecx, DWORD PTR _lpObj$[ebp]
  01b76	51		 push	 ecx
  01b77	8b 4d fc	 mov	 ecx, DWORD PTR _this$[ebp]
  01b7a	e8 00 00 00 00	 call	 ?QuestClear@CQuestInfo@@QAEHPAUOBJECTSTRUCT@@H@Z ; CQuestInfo::QuestClear

; 551  : 		State = 2;

  01b7f	c7 45 10 02 00
	00 00		 mov	 DWORD PTR _State$[ebp], 2

; 552  : 		LogAddTD("[Quest] ClearQuest [%s][%s] (%s)", lpObj->AccountID, lpObj->Name,	this->GetQuestInfo(QuestIndex)->Name);

  01b86	8b 45 0c	 mov	 eax, DWORD PTR _QuestIndex$[ebp]
  01b89	50		 push	 eax
  01b8a	8b 4d fc	 mov	 ecx, DWORD PTR _this$[ebp]
  01b8d	e8 00 00 00 00	 call	 ?GetQuestInfo@CQuestInfo@@QAEPAUQUEST_INFO@@H@Z ; CQuestInfo::GetQuestInfo
  01b92	50		 push	 eax
  01b93	8b 4d 08	 mov	 ecx, DWORD PTR _lpObj$[ebp]
  01b96	83 c1 77	 add	 ecx, 119		; 00000077H
  01b99	51		 push	 ecx
  01b9a	8b 55 08	 mov	 edx, DWORD PTR _lpObj$[ebp]
  01b9d	83 c2 6c	 add	 edx, 108		; 0000006cH
  01ba0	52		 push	 edx
  01ba1	68 00 00 00 00	 push	 OFFSET ??_C@_0CB@KKBMLGHJ@?$FLQuest?$FN?5ClearQuest?5?$FL?$CFs?$FN?$FL?$CFs?$FN?5?$CI?$CFs?$CJ@
  01ba6	ff 15 00 00 00
	00		 call	 DWORD PTR ?LogAddTD@@3P6AXPADZZA ; LogAddTD
  01bac	83 c4 10	 add	 esp, 16			; 00000010H

; 553  : 	}
; 554  : 	else

  01baf	eb 04		 jmp	 SHORT $LN4@SetQuestSt
$LN3@SetQuestSt:

; 555  : 	{
; 556  : 		return -1;

  01bb1	0c ff		 or	 al, 255			; 000000ffH
  01bb3	eb 70		 jmp	 SHORT $LN10@SetQuestSt
$LN4@SetQuestSt:

; 557  : 	}
; 558  : 
; 559  : 	int index = (QuestIndex / 4);

  01bb5	8b 45 0c	 mov	 eax, DWORD PTR _QuestIndex$[ebp]
  01bb8	99		 cdq
  01bb9	83 e2 03	 and	 edx, 3
  01bbc	03 c2		 add	 eax, edx
  01bbe	c1 f8 02	 sar	 eax, 2
  01bc1	89 45 f0	 mov	 DWORD PTR _index$[ebp], eax

; 560  : 	int shift =  (QuestIndex % 4) *2;

  01bc4	8b 45 0c	 mov	 eax, DWORD PTR _QuestIndex$[ebp]
  01bc7	25 03 00 00 80	 and	 eax, -2147483645	; 80000003H
  01bcc	79 05		 jns	 SHORT $LN12@SetQuestSt
  01bce	48		 dec	 eax
  01bcf	83 c8 fc	 or	 eax, -4			; fffffffcH
  01bd2	40		 inc	 eax
$LN12@SetQuestSt:
  01bd3	d1 e0		 shl	 eax, 1
  01bd5	89 45 ec	 mov	 DWORD PTR _shift$[ebp], eax

; 561  : 	lpObj->m_Quest[index] &= QuestBitMask[shift];

  01bd8	8b 45 ec	 mov	 eax, DWORD PTR _shift$[ebp]
  01bdb	0f b6 88 00 00
	00 00		 movzx	 ecx, BYTE PTR ?QuestBitMask@@3PAEA[eax]
  01be2	8b 55 08	 mov	 edx, DWORD PTR _lpObj$[ebp]
  01be5	03 55 f0	 add	 edx, DWORD PTR _index$[ebp]
  01be8	0f b6 82 8c 10
	00 00		 movzx	 eax, BYTE PTR [edx+4236]
  01bef	23 c1		 and	 eax, ecx
  01bf1	8b 4d 08	 mov	 ecx, DWORD PTR _lpObj$[ebp]
  01bf4	03 4d f0	 add	 ecx, DWORD PTR _index$[ebp]
  01bf7	88 81 8c 10 00
	00		 mov	 BYTE PTR [ecx+4236], al

; 562  : 	lpObj->m_Quest[index] |= (State&3) << shift;

  01bfd	8b 45 10	 mov	 eax, DWORD PTR _State$[ebp]
  01c00	83 e0 03	 and	 eax, 3
  01c03	8b 4d ec	 mov	 ecx, DWORD PTR _shift$[ebp]
  01c06	d3 e0		 shl	 eax, cl
  01c08	8b 4d 08	 mov	 ecx, DWORD PTR _lpObj$[ebp]
  01c0b	03 4d f0	 add	 ecx, DWORD PTR _index$[ebp]
  01c0e	0f b6 91 8c 10
	00 00		 movzx	 edx, BYTE PTR [ecx+4236]
  01c15	0b d0		 or	 edx, eax
  01c17	8b 45 08	 mov	 eax, DWORD PTR _lpObj$[ebp]
  01c1a	03 45 f0	 add	 eax, DWORD PTR _index$[ebp]
  01c1d	88 90 8c 10 00
	00		 mov	 BYTE PTR [eax+4236], dl

; 563  : 	return 0;

  01c23	32 c0		 xor	 al, al
$LN10@SetQuestSt:

; 564  : }

  01c25	5f		 pop	 edi
  01c26	5e		 pop	 esi
  01c27	5b		 pop	 ebx
  01c28	8b e5		 mov	 esp, ebp
  01c2a	5d		 pop	 ebp
  01c2b	c2 0c 00	 ret	 12			; 0000000cH
?SetQuestState@CQuestInfo@@QAEEPAUOBJECTSTRUCT@@HH@Z ENDP ; CQuestInfo::SetQuestState
_TEXT	ENDS
PUBLIC	?ReSetQuestState@CQuestInfo@@QAEEPAUOBJECTSTRUCT@@H@Z ; CQuestInfo::ReSetQuestState
; Function compile flags: /Odtp /ZI
_TEXT	SEGMENT
_shift$ = -16						; size = 4
_index$ = -12						; size = 4
_State$ = -8						; size = 4
_this$ = -4						; size = 4
_lpObj$ = 8						; size = 4
_QuestIndex$ = 12					; size = 4
?ReSetQuestState@CQuestInfo@@QAEEPAUOBJECTSTRUCT@@H@Z PROC ; CQuestInfo::ReSetQuestState
; _this$ = ecx

; 567  : {

  01c30	55		 push	 ebp
  01c31	8b ec		 mov	 ebp, esp
  01c33	83 ec 50	 sub	 esp, 80			; 00000050H
  01c36	53		 push	 ebx
  01c37	56		 push	 esi
  01c38	57		 push	 edi
  01c39	89 4d fc	 mov	 DWORD PTR _this$[ebp], ecx

; 568  : 	int State = 3;

  01c3c	c7 45 f8 03 00
	00 00		 mov	 DWORD PTR _State$[ebp], 3

; 569  : 	int index = (QuestIndex/4);

  01c43	8b 45 0c	 mov	 eax, DWORD PTR _QuestIndex$[ebp]
  01c46	99		 cdq
  01c47	83 e2 03	 and	 edx, 3
  01c4a	03 c2		 add	 eax, edx
  01c4c	c1 f8 02	 sar	 eax, 2
  01c4f	89 45 f4	 mov	 DWORD PTR _index$[ebp], eax

; 570  : 	int shift = (QuestIndex % 4)*2;

  01c52	8b 45 0c	 mov	 eax, DWORD PTR _QuestIndex$[ebp]
  01c55	25 03 00 00 80	 and	 eax, -2147483645	; 80000003H
  01c5a	79 05		 jns	 SHORT $LN3@ReSetQuest
  01c5c	48		 dec	 eax
  01c5d	83 c8 fc	 or	 eax, -4			; fffffffcH
  01c60	40		 inc	 eax
$LN3@ReSetQuest:
  01c61	d1 e0		 shl	 eax, 1
  01c63	89 45 f0	 mov	 DWORD PTR _shift$[ebp], eax

; 571  : 	lpObj->m_Quest[index] &= QuestBitMask[shift];

  01c66	8b 45 f0	 mov	 eax, DWORD PTR _shift$[ebp]
  01c69	0f b6 88 00 00
	00 00		 movzx	 ecx, BYTE PTR ?QuestBitMask@@3PAEA[eax]
  01c70	8b 55 08	 mov	 edx, DWORD PTR _lpObj$[ebp]
  01c73	03 55 f4	 add	 edx, DWORD PTR _index$[ebp]
  01c76	0f b6 82 8c 10
	00 00		 movzx	 eax, BYTE PTR [edx+4236]
  01c7d	23 c1		 and	 eax, ecx
  01c7f	8b 4d 08	 mov	 ecx, DWORD PTR _lpObj$[ebp]
  01c82	03 4d f4	 add	 ecx, DWORD PTR _index$[ebp]
  01c85	88 81 8c 10 00
	00		 mov	 BYTE PTR [ecx+4236], al

; 572  : 	lpObj->m_Quest[index] |= (State&3) << shift;

  01c8b	8b 45 f8	 mov	 eax, DWORD PTR _State$[ebp]
  01c8e	83 e0 03	 and	 eax, 3
  01c91	8b 4d f0	 mov	 ecx, DWORD PTR _shift$[ebp]
  01c94	d3 e0		 shl	 eax, cl
  01c96	8b 4d 08	 mov	 ecx, DWORD PTR _lpObj$[ebp]
  01c99	03 4d f4	 add	 ecx, DWORD PTR _index$[ebp]
  01c9c	0f b6 91 8c 10
	00 00		 movzx	 edx, BYTE PTR [ecx+4236]
  01ca3	0b d0		 or	 edx, eax
  01ca5	8b 45 08	 mov	 eax, DWORD PTR _lpObj$[ebp]
  01ca8	03 45 f4	 add	 eax, DWORD PTR _index$[ebp]
  01cab	88 90 8c 10 00
	00		 mov	 BYTE PTR [eax+4236], dl

; 573  : 
; 574  : 	return 0;

  01cb1	32 c0		 xor	 al, al

; 575  : }

  01cb3	5f		 pop	 edi
  01cb4	5e		 pop	 esi
  01cb5	5b		 pop	 ebx
  01cb6	8b e5		 mov	 esp, ebp
  01cb8	5d		 pop	 ebp
  01cb9	c2 08 00	 ret	 8
?ReSetQuestState@CQuestInfo@@QAEEPAUOBJECTSTRUCT@@H@Z ENDP ; CQuestInfo::ReSetQuestState
; Function compile flags: /Odtp /ZI
_this$ = -4						; size = 4
_QuestIndex$ = 8					; size = 4
?GetQuestInfo@CQuestInfo@@QAEPAUQUEST_INFO@@H@Z PROC	; CQuestInfo::GetQuestInfo
; _this$ = ecx

; 578  : {

  01cc0	55		 push	 ebp
  01cc1	8b ec		 mov	 ebp, esp
  01cc3	83 ec 44	 sub	 esp, 68			; 00000044H
  01cc6	53		 push	 ebx
  01cc7	56		 push	 esi
  01cc8	57		 push	 edi
  01cc9	89 4d fc	 mov	 DWORD PTR _this$[ebp], ecx

; 579  : 	if ( QuestIndex < 0 || QuestIndex > MAX_QUEST_INFO )

  01ccc	83 7d 08 00	 cmp	 DWORD PTR _QuestIndex$[ebp], 0
  01cd0	7c 09		 jl	 SHORT $LN2@GetQuestIn
  01cd2	81 7d 08 c8 00
	00 00		 cmp	 DWORD PTR _QuestIndex$[ebp], 200 ; 000000c8H
  01cd9	7e 04		 jle	 SHORT $LN3@GetQuestIn
$LN2@GetQuestIn:

; 580  : 	{
; 581  : 		return false;

  01cdb	33 c0		 xor	 eax, eax
  01cdd	eb 27		 jmp	 SHORT $LN4@GetQuestIn
$LN3@GetQuestIn:

; 582  : 	}
; 583  : 	
; 584  : 	if ( this->QuestInfo[QuestIndex].QuestIndex == -1 )

  01cdf	8b 45 08	 mov	 eax, DWORD PTR _QuestIndex$[ebp]
  01ce2	69 c0 30 04 00
	00		 imul	 eax, 1072		; 00000430H
  01ce8	8b 4d fc	 mov	 ecx, DWORD PTR _this$[ebp]
  01ceb	83 7c 01 3c ff	 cmp	 DWORD PTR [ecx+eax+60], -1
  01cf0	75 04		 jne	 SHORT $LN1@GetQuestIn

; 585  : 	{
; 586  : 		return NULL;

  01cf2	33 c0		 xor	 eax, eax
  01cf4	eb 10		 jmp	 SHORT $LN4@GetQuestIn
$LN1@GetQuestIn:

; 587  : 	}
; 588  : 
; 589  : 	return &this->QuestInfo[QuestIndex];

  01cf6	8b 45 08	 mov	 eax, DWORD PTR _QuestIndex$[ebp]
  01cf9	69 c0 30 04 00
	00		 imul	 eax, 1072		; 00000430H
  01cff	8b 4d fc	 mov	 ecx, DWORD PTR _this$[ebp]
  01d02	8d 44 01 08	 lea	 eax, DWORD PTR [ecx+eax+8]
$LN4@GetQuestIn:

; 590  : }

  01d06	5f		 pop	 edi
  01d07	5e		 pop	 esi
  01d08	5b		 pop	 ebx
  01d09	8b e5		 mov	 esp, ebp
  01d0b	5d		 pop	 ebp
  01d0c	c2 04 00	 ret	 4
?GetQuestInfo@CQuestInfo@@QAEPAUQUEST_INFO@@H@Z ENDP	; CQuestInfo::GetQuestInfo
_TEXT	ENDS
PUBLIC	?GetSubquestInfo@CQuestInfo@@QAEPAUQUEST_SUB_INFO@@PAUOBJECTSTRUCT@@PAUQUEST_INFO@@H@Z ; CQuestInfo::GetSubquestInfo
; Function compile flags: /Odtp /ZI
_TEXT	SEGMENT
_requireclass$ = -20					; size = 4
_ChangeUP$ = -16					; size = 4
_Class$ = -12						; size = 4
_lpSubInfo$ = -8					; size = 4
_this$ = -4						; size = 4
_lpObj$ = 8						; size = 4
_lpQuestInfo$ = 12					; size = 4
_subquestindex$ = 16					; size = 4
?GetSubquestInfo@CQuestInfo@@QAEPAUQUEST_SUB_INFO@@PAUOBJECTSTRUCT@@PAUQUEST_INFO@@H@Z PROC ; CQuestInfo::GetSubquestInfo
; _this$ = ecx

; 593  : {

  01d10	55		 push	 ebp
  01d11	8b ec		 mov	 ebp, esp
  01d13	83 ec 54	 sub	 esp, 84			; 00000054H
  01d16	53		 push	 ebx
  01d17	56		 push	 esi
  01d18	57		 push	 edi
  01d19	89 4d fc	 mov	 DWORD PTR _this$[ebp], ecx

; 594  : 	if ( lpQuestInfo == NULL )

  01d1c	83 7d 0c 00	 cmp	 DWORD PTR _lpQuestInfo$[ebp], 0
  01d20	75 04		 jne	 SHORT $LN6@GetSubques

; 595  : 	{
; 596  : 		return NULL;

  01d22	33 c0		 xor	 eax, eax
  01d24	eb 69		 jmp	 SHORT $LN7@GetSubques
$LN6@GetSubques:

; 597  : 	}
; 598  : 
; 599  : 	if ( subquestindex < 0 || subquestindex > MAX_SUBINFO_QUEST )

  01d26	83 7d 10 00	 cmp	 DWORD PTR _subquestindex$[ebp], 0
  01d2a	7c 06		 jl	 SHORT $LN4@GetSubques
  01d2c	83 7d 10 0a	 cmp	 DWORD PTR _subquestindex$[ebp], 10 ; 0000000aH
  01d30	7e 04		 jle	 SHORT $LN5@GetSubques
$LN4@GetSubques:

; 600  : 	{
; 601  : 		return NULL;

  01d32	33 c0		 xor	 eax, eax
  01d34	eb 59		 jmp	 SHORT $LN7@GetSubques
$LN5@GetSubques:

; 602  : 	}
; 603  : 
; 604  : 	LPQUEST_SUB_INFO lpSubInfo = &lpQuestInfo->QuestSubInfo[subquestindex];

  01d36	8b 45 10	 mov	 eax, DWORD PTR _subquestindex$[ebp]
  01d39	6b c0 48	 imul	 eax, 72			; 00000048H
  01d3c	8b 4d 0c	 mov	 ecx, DWORD PTR _lpQuestInfo$[ebp]
  01d3f	8d 54 01 44	 lea	 edx, DWORD PTR [ecx+eax+68]
  01d43	89 55 f8	 mov	 DWORD PTR _lpSubInfo$[ebp], edx

; 605  : 	int Class = lpObj->Class;

  01d46	8b 45 08	 mov	 eax, DWORD PTR _lpObj$[ebp]
  01d49	0f b7 88 b8 00
	00 00		 movzx	 ecx, WORD PTR [eax+184]
  01d50	89 4d f4	 mov	 DWORD PTR _Class$[ebp], ecx

; 606  : 	int ChangeUP = lpObj->ChangeUP;

  01d53	8b 45 08	 mov	 eax, DWORD PTR _lpObj$[ebp]
  01d56	0f b6 88 bb 00
	00 00		 movzx	 ecx, BYTE PTR [eax+187]
  01d5d	89 4d f0	 mov	 DWORD PTR _ChangeUP$[ebp], ecx

; 607  : 	int requireclass = lpSubInfo->RequireClass[Class];

  01d60	8b 45 f8	 mov	 eax, DWORD PTR _lpSubInfo$[ebp]
  01d63	03 45 f4	 add	 eax, DWORD PTR _Class$[ebp]
  01d66	0f b6 48 40	 movzx	 ecx, BYTE PTR [eax+64]
  01d6a	89 4d ec	 mov	 DWORD PTR _requireclass$[ebp], ecx

; 608  : 
; 609  : 	if ( requireclass == 0 )

  01d6d	83 7d ec 00	 cmp	 DWORD PTR _requireclass$[ebp], 0
  01d71	75 04		 jne	 SHORT $LN3@GetSubques

; 610  : 	{
; 611  : 		return NULL;

  01d73	33 c0		 xor	 eax, eax
  01d75	eb 18		 jmp	 SHORT $LN7@GetSubques
$LN3@GetSubques:

; 612  : 	}
; 613  : 
; 614  : 	if ( requireclass > 1 )

  01d77	83 7d ec 01	 cmp	 DWORD PTR _requireclass$[ebp], 1
  01d7b	7e 0f		 jle	 SHORT $LN2@GetSubques

; 615  : 	{
; 616  : 		if ( requireclass != (ChangeUP + 1) )

  01d7d	8b 45 f0	 mov	 eax, DWORD PTR _ChangeUP$[ebp]
  01d80	83 c0 01	 add	 eax, 1
  01d83	39 45 ec	 cmp	 DWORD PTR _requireclass$[ebp], eax
  01d86	74 04		 je	 SHORT $LN2@GetSubques

; 617  : 		{
; 618  : 			return NULL;

  01d88	33 c0		 xor	 eax, eax
  01d8a	eb 03		 jmp	 SHORT $LN7@GetSubques
$LN2@GetSubques:

; 619  : 		}
; 620  : 	}
; 621  : 
; 622  : 	return lpSubInfo;

  01d8c	8b 45 f8	 mov	 eax, DWORD PTR _lpSubInfo$[ebp]
$LN7@GetSubques:

; 623  : }

  01d8f	5f		 pop	 edi
  01d90	5e		 pop	 esi
  01d91	5b		 pop	 ebx
  01d92	8b e5		 mov	 esp, ebp
  01d94	5d		 pop	 ebp
  01d95	c2 0c 00	 ret	 12			; 0000000cH
?GetSubquestInfo@CQuestInfo@@QAEPAUQUEST_SUB_INFO@@PAUOBJECTSTRUCT@@PAUQUEST_INFO@@H@Z ENDP ; CQuestInfo::GetSubquestInfo
_TEXT	ENDS
PUBLIC	?GetQuestCondition@CQuestInfo@@QAEPAUQUEST_CONDITION@@PAUQUEST_INFO@@H@Z ; CQuestInfo::GetQuestCondition
; Function compile flags: /Odtp /ZI
_TEXT	SEGMENT
_this$ = -4						; size = 4
_lpQuestInfo$ = 8					; size = 4
_conditionindex$ = 12					; size = 4
?GetQuestCondition@CQuestInfo@@QAEPAUQUEST_CONDITION@@PAUQUEST_INFO@@H@Z PROC ; CQuestInfo::GetQuestCondition
; _this$ = ecx

; 626  : {

  01da0	55		 push	 ebp
  01da1	8b ec		 mov	 ebp, esp
  01da3	83 ec 44	 sub	 esp, 68			; 00000044H
  01da6	53		 push	 ebx
  01da7	56		 push	 esi
  01da8	57		 push	 edi
  01da9	89 4d fc	 mov	 DWORD PTR _this$[ebp], ecx

; 627  : 	if ( lpQuestInfo == NULL )

  01dac	83 7d 08 00	 cmp	 DWORD PTR _lpQuestInfo$[ebp], 0
  01db0	75 04		 jne	 SHORT $LN3@GetQuestCo

; 628  : 	{
; 629  : 		return NULL;

  01db2	33 c0		 xor	 eax, eax
  01db4	eb 20		 jmp	 SHORT $LN4@GetQuestCo
$LN3@GetQuestCo:

; 630  : 	}
; 631  : 
; 632  : 	if ( conditionindex < 0 || conditionindex > MAX_CONDITION_QUEST )

  01db6	83 7d 0c 00	 cmp	 DWORD PTR _conditionindex$[ebp], 0
  01dba	7c 06		 jl	 SHORT $LN1@GetQuestCo
  01dbc	83 7d 0c 0a	 cmp	 DWORD PTR _conditionindex$[ebp], 10 ; 0000000aH
  01dc0	7e 04		 jle	 SHORT $LN2@GetQuestCo
$LN1@GetQuestCo:

; 633  : 	{
; 634  : 		return NULL;

  01dc2	33 c0		 xor	 eax, eax
  01dc4	eb 10		 jmp	 SHORT $LN4@GetQuestCo
$LN2@GetQuestCo:

; 635  : 	}
; 636  : 
; 637  : 	return &lpQuestInfo->QuestCondition[conditionindex];

  01dc6	8b 45 0c	 mov	 eax, DWORD PTR _conditionindex$[ebp]
  01dc9	6b c0 1c	 imul	 eax, 28			; 0000001cH
  01dcc	8b 4d 08	 mov	 ecx, DWORD PTR _lpQuestInfo$[ebp]
  01dcf	8d 84 01 18 03
	00 00		 lea	 eax, DWORD PTR [ecx+eax+792]
$LN4@GetQuestCo:

; 638  : }

  01dd6	5f		 pop	 edi
  01dd7	5e		 pop	 esi
  01dd8	5b		 pop	 ebx
  01dd9	8b e5		 mov	 esp, ebp
  01ddb	5d		 pop	 ebp
  01ddc	c2 08 00	 ret	 8
?GetQuestCondition@CQuestInfo@@QAEPAUQUEST_CONDITION@@PAUQUEST_INFO@@H@Z ENDP ; CQuestInfo::GetQuestCondition
_TEXT	ENDS
EXTRN	?gObjGetItemCountInIventory@@YAHHHHH@Z:PROC	; gObjGetItemCountInIventory
; Function compile flags: /Odtp /ZI
_TEXT	SEGMENT
_NumberItemQuestFound$231732 = -32			; size = 4
_subquest$231726 = -28					; size = 4
_bFoundSubQuest$ = -24					; size = 4
_lpSubInfo$ = -20					; size = 4
_concount$ = -16					; size = 4
_subquestcount$ = -12					; size = 4
_lpQuestInfo$ = -8					; size = 4
_this$ = -4						; size = 4
_lpObj$ = 8						; size = 4
_QuestIndex$ = 12					; size = 4
?QuestClearConditionCheck@CQuestInfo@@QAEEPAUOBJECTSTRUCT@@H@Z PROC ; CQuestInfo::QuestClearConditionCheck
; _this$ = ecx

; 641  : {

  01de0	55		 push	 ebp
  01de1	8b ec		 mov	 ebp, esp
  01de3	83 ec 60	 sub	 esp, 96			; 00000060H
  01de6	53		 push	 ebx
  01de7	56		 push	 esi
  01de8	57		 push	 edi
  01de9	89 4d fc	 mov	 DWORD PTR _this$[ebp], ecx

; 642  : 	LPQUEST_INFO lpQuestInfo = this->GetQuestInfo(QuestIndex);

  01dec	8b 45 0c	 mov	 eax, DWORD PTR _QuestIndex$[ebp]
  01def	50		 push	 eax
  01df0	8b 4d fc	 mov	 ecx, DWORD PTR _this$[ebp]
  01df3	e8 00 00 00 00	 call	 ?GetQuestInfo@CQuestInfo@@QAEPAUQUEST_INFO@@H@Z ; CQuestInfo::GetQuestInfo
  01df8	89 45 f8	 mov	 DWORD PTR _lpQuestInfo$[ebp], eax

; 643  : 
; 644  : 	if ( lpQuestInfo == NULL )

  01dfb	83 7d f8 00	 cmp	 DWORD PTR _lpQuestInfo$[ebp], 0
  01dff	75 07		 jne	 SHORT $LN8@QuestClear

; 645  : 	{
; 646  : 		return -1;

  01e01	0c ff		 or	 al, 255			; 000000ffH
  01e03	e9 a5 00 00 00	 jmp	 $LN9@QuestClear
$LN8@QuestClear:

; 647  : 	}
; 648  : 
; 649  : 	int subquestcount = lpQuestInfo->QuestSubInfoCount;

  01e08	8b 45 f8	 mov	 eax, DWORD PTR _lpQuestInfo$[ebp]
  01e0b	8b 48 40	 mov	 ecx, DWORD PTR [eax+64]
  01e0e	89 4d f4	 mov	 DWORD PTR _subquestcount$[ebp], ecx

; 650  : 	int concount = lpQuestInfo->QuestConditionCount;

  01e11	8b 45 f8	 mov	 eax, DWORD PTR _lpQuestInfo$[ebp]
  01e14	8b 88 14 03 00
	00		 mov	 ecx, DWORD PTR [eax+788]
  01e1a	89 4d f0	 mov	 DWORD PTR _concount$[ebp], ecx

; 651  : 	LPQUEST_SUB_INFO lpSubInfo;
; 652  : 	BOOL bFoundSubQuest = FALSE;

  01e1d	c7 45 e8 00 00
	00 00		 mov	 DWORD PTR _bFoundSubQuest$[ebp], 0

; 653  : 	
; 654  : 	for ( int subquest=0;subquest<subquestcount;subquest++)

  01e24	c7 45 e4 00 00
	00 00		 mov	 DWORD PTR _subquest$231726[ebp], 0
  01e2b	eb 09		 jmp	 SHORT $LN7@QuestClear
$LN6@QuestClear:
  01e2d	8b 45 e4	 mov	 eax, DWORD PTR _subquest$231726[ebp]
  01e30	83 c0 01	 add	 eax, 1
  01e33	89 45 e4	 mov	 DWORD PTR _subquest$231726[ebp], eax
$LN7@QuestClear:
  01e36	8b 45 e4	 mov	 eax, DWORD PTR _subquest$231726[ebp]
  01e39	3b 45 f4	 cmp	 eax, DWORD PTR _subquestcount$[ebp]
  01e3c	7d 63		 jge	 SHORT $LN5@QuestClear

; 655  : 	{
; 656  : 		lpSubInfo = this->GetSubquestInfo(lpObj, lpQuestInfo, subquest);

  01e3e	8b 45 e4	 mov	 eax, DWORD PTR _subquest$231726[ebp]
  01e41	50		 push	 eax
  01e42	8b 4d f8	 mov	 ecx, DWORD PTR _lpQuestInfo$[ebp]
  01e45	51		 push	 ecx
  01e46	8b 55 08	 mov	 edx, DWORD PTR _lpObj$[ebp]
  01e49	52		 push	 edx
  01e4a	8b 4d fc	 mov	 ecx, DWORD PTR _this$[ebp]
  01e4d	e8 00 00 00 00	 call	 ?GetSubquestInfo@CQuestInfo@@QAEPAUQUEST_SUB_INFO@@PAUOBJECTSTRUCT@@PAUQUEST_INFO@@H@Z ; CQuestInfo::GetSubquestInfo
  01e52	89 45 ec	 mov	 DWORD PTR _lpSubInfo$[ebp], eax

; 657  : 
; 658  : 		if ( lpSubInfo != NULL )

  01e55	83 7d ec 00	 cmp	 DWORD PTR _lpSubInfo$[ebp], 0
  01e59	74 44		 je	 SHORT $LN4@QuestClear

; 659  : 		{
; 660  : 			bFoundSubQuest = TRUE;

  01e5b	c7 45 e8 01 00
	00 00		 mov	 DWORD PTR _bFoundSubQuest$[ebp], 1

; 661  : 
; 662  : 			if ( lpSubInfo->QuestType == 1 )

  01e62	8b 45 ec	 mov	 eax, DWORD PTR _lpSubInfo$[ebp]
  01e65	83 38 01	 cmp	 DWORD PTR [eax], 1
  01e68	75 35		 jne	 SHORT $LN4@QuestClear

; 663  : 			{
; 664  : 				int NumberItemQuestFound = gObjGetItemCountInIventory(lpObj->m_Index, lpSubInfo->NeedType, lpSubInfo->NeedSubType, lpSubInfo->ItemLevel);

  01e6a	8b 45 ec	 mov	 eax, DWORD PTR _lpSubInfo$[ebp]
  01e6d	8b 48 0c	 mov	 ecx, DWORD PTR [eax+12]
  01e70	51		 push	 ecx
  01e71	8b 55 ec	 mov	 edx, DWORD PTR _lpSubInfo$[ebp]
  01e74	8b 42 08	 mov	 eax, DWORD PTR [edx+8]
  01e77	50		 push	 eax
  01e78	8b 4d ec	 mov	 ecx, DWORD PTR _lpSubInfo$[ebp]
  01e7b	8b 51 04	 mov	 edx, DWORD PTR [ecx+4]
  01e7e	52		 push	 edx
  01e7f	8b 45 08	 mov	 eax, DWORD PTR _lpObj$[ebp]
  01e82	8b 08		 mov	 ecx, DWORD PTR [eax]
  01e84	51		 push	 ecx
  01e85	e8 00 00 00 00	 call	 ?gObjGetItemCountInIventory@@YAHHHHH@Z ; gObjGetItemCountInIventory
  01e8a	83 c4 10	 add	 esp, 16			; 00000010H
  01e8d	89 45 e0	 mov	 DWORD PTR _NumberItemQuestFound$231732[ebp], eax

; 665  : 
; 666  : 				if ( NumberItemQuestFound < lpSubInfo->NeedNumber)

  01e90	8b 45 ec	 mov	 eax, DWORD PTR _lpSubInfo$[ebp]
  01e93	8b 4d e0	 mov	 ecx, DWORD PTR _NumberItemQuestFound$231732[ebp]
  01e96	3b 48 10	 cmp	 ecx, DWORD PTR [eax+16]
  01e99	7d 04		 jge	 SHORT $LN4@QuestClear

; 667  : 				{
; 668  : 					return 1;

  01e9b	b0 01		 mov	 al, 1
  01e9d	eb 0e		 jmp	 SHORT $LN9@QuestClear
$LN4@QuestClear:

; 669  : 				}
; 670  : 			}
; 671  : 		}
; 672  : 	}

  01e9f	eb 8c		 jmp	 SHORT $LN6@QuestClear
$LN5@QuestClear:

; 673  : 
; 674  : 	if ( bFoundSubQuest == FALSE )

  01ea1	83 7d e8 00	 cmp	 DWORD PTR _bFoundSubQuest$[ebp], 0
  01ea5	75 04		 jne	 SHORT $LN1@QuestClear

; 675  : 	{
; 676  : 		return -1;

  01ea7	0c ff		 or	 al, 255			; 000000ffH
  01ea9	eb 02		 jmp	 SHORT $LN9@QuestClear
$LN1@QuestClear:

; 677  : 	}
; 678  : 
; 679  : 	return 0;

  01eab	32 c0		 xor	 al, al
$LN9@QuestClear:

; 680  : }

  01ead	5f		 pop	 edi
  01eae	5e		 pop	 esi
  01eaf	5b		 pop	 ebx
  01eb0	8b e5		 mov	 esp, ebp
  01eb2	5d		 pop	 ebp
  01eb3	c2 08 00	 ret	 8
?QuestClearConditionCheck@CQuestInfo@@QAEEPAUOBJECTSTRUCT@@H@Z ENDP ; CQuestInfo::QuestClearConditionCheck
_TEXT	ENDS
PUBLIC	?CompareCondition@CQuestInfo@@QAEHPAUOBJECTSTRUCT@@PAUQUEST_CONDITION@@@Z ; CQuestInfo::CompareCondition
; Function compile flags: /Odtp /ZI
_TEXT	SEGMENT
_i$231752 = -36						; size = 4
_subquest$231747 = -32					; size = 4
_bFoundSubQuest$ = -28					; size = 4
_lpCondition$ = -24					; size = 4
_lpSubInfo$ = -20					; size = 4
_concount$ = -16					; size = 4
_subquestcount$ = -12					; size = 4
_lpQuestInfo$ = -8					; size = 4
_this$ = -4						; size = 4
_lpObj$ = 8						; size = 4
_QuestIndex$ = 12					; size = 4
?QuestRunConditionCheck@CQuestInfo@@QAEEPAUOBJECTSTRUCT@@H@Z PROC ; CQuestInfo::QuestRunConditionCheck
; _this$ = ecx

; 683  : {

  01ec0	55		 push	 ebp
  01ec1	8b ec		 mov	 ebp, esp
  01ec3	83 ec 64	 sub	 esp, 100		; 00000064H
  01ec6	53		 push	 ebx
  01ec7	56		 push	 esi
  01ec8	57		 push	 edi
  01ec9	89 4d fc	 mov	 DWORD PTR _this$[ebp], ecx

; 684  : 	LPQUEST_INFO lpQuestInfo = this->GetQuestInfo(QuestIndex);

  01ecc	8b 45 0c	 mov	 eax, DWORD PTR _QuestIndex$[ebp]
  01ecf	50		 push	 eax
  01ed0	8b 4d fc	 mov	 ecx, DWORD PTR _this$[ebp]
  01ed3	e8 00 00 00 00	 call	 ?GetQuestInfo@CQuestInfo@@QAEPAUQUEST_INFO@@H@Z ; CQuestInfo::GetQuestInfo
  01ed8	89 45 f8	 mov	 DWORD PTR _lpQuestInfo$[ebp], eax

; 685  : 
; 686  : 	if ( lpQuestInfo == NULL )

  01edb	83 7d f8 00	 cmp	 DWORD PTR _lpQuestInfo$[ebp], 0
  01edf	75 07		 jne	 SHORT $LN16@QuestRunCo

; 687  : 	{
; 688  : 		return -1;

  01ee1	0c ff		 or	 al, 255			; 000000ffH
  01ee3	e9 0c 01 00 00	 jmp	 $LN17@QuestRunCo
$LN16@QuestRunCo:

; 689  : 	}
; 690  : 
; 691  : 	int subquestcount = lpQuestInfo->QuestSubInfoCount;

  01ee8	8b 45 f8	 mov	 eax, DWORD PTR _lpQuestInfo$[ebp]
  01eeb	8b 48 40	 mov	 ecx, DWORD PTR [eax+64]
  01eee	89 4d f4	 mov	 DWORD PTR _subquestcount$[ebp], ecx

; 692  : 	int concount = lpQuestInfo->QuestConditionCount;

  01ef1	8b 45 f8	 mov	 eax, DWORD PTR _lpQuestInfo$[ebp]
  01ef4	8b 88 14 03 00
	00		 mov	 ecx, DWORD PTR [eax+788]
  01efa	89 4d f0	 mov	 DWORD PTR _concount$[ebp], ecx

; 693  : 	LPQUEST_SUB_INFO lpSubInfo;
; 694  : 	LPQUEST_CONDITION lpCondition;
; 695  : 	BOOL bFoundSubQuest = FALSE;

  01efd	c7 45 e4 00 00
	00 00		 mov	 DWORD PTR _bFoundSubQuest$[ebp], 0

; 696  : 
; 697  : 
; 698  : 	for ( int subquest=0;subquest<subquestcount;subquest++)

  01f04	c7 45 e0 00 00
	00 00		 mov	 DWORD PTR _subquest$231747[ebp], 0
  01f0b	eb 09		 jmp	 SHORT $LN15@QuestRunCo
$LN14@QuestRunCo:
  01f0d	8b 45 e0	 mov	 eax, DWORD PTR _subquest$231747[ebp]
  01f10	83 c0 01	 add	 eax, 1
  01f13	89 45 e0	 mov	 DWORD PTR _subquest$231747[ebp], eax
$LN15@QuestRunCo:
  01f16	8b 45 e0	 mov	 eax, DWORD PTR _subquest$231747[ebp]
  01f19	3b 45 f4	 cmp	 eax, DWORD PTR _subquestcount$[ebp]
  01f1c	0f 8d c6 00 00
	00		 jge	 $LN13@QuestRunCo

; 699  : 	{
; 700  : 		lpSubInfo = this->GetSubquestInfo(lpObj, lpQuestInfo, subquest);

  01f22	8b 45 e0	 mov	 eax, DWORD PTR _subquest$231747[ebp]
  01f25	50		 push	 eax
  01f26	8b 4d f8	 mov	 ecx, DWORD PTR _lpQuestInfo$[ebp]
  01f29	51		 push	 ecx
  01f2a	8b 55 08	 mov	 edx, DWORD PTR _lpObj$[ebp]
  01f2d	52		 push	 edx
  01f2e	8b 4d fc	 mov	 ecx, DWORD PTR _this$[ebp]
  01f31	e8 00 00 00 00	 call	 ?GetSubquestInfo@CQuestInfo@@QAEPAUQUEST_SUB_INFO@@PAUOBJECTSTRUCT@@PAUQUEST_INFO@@H@Z ; CQuestInfo::GetSubquestInfo
  01f36	89 45 ec	 mov	 DWORD PTR _lpSubInfo$[ebp], eax

; 701  : 
; 702  : 		if ( lpSubInfo != NULL )

  01f39	83 7d ec 00	 cmp	 DWORD PTR _lpSubInfo$[ebp], 0
  01f3d	0f 84 a0 00 00
	00		 je	 $LN12@QuestRunCo

; 703  : 		{
; 704  : 			bFoundSubQuest = TRUE;

  01f43	c7 45 e4 01 00
	00 00		 mov	 DWORD PTR _bFoundSubQuest$[ebp], 1

; 705  : 
; 706  : 			for ( int i=0;i<concount;i++)

  01f4a	c7 45 dc 00 00
	00 00		 mov	 DWORD PTR _i$231752[ebp], 0
  01f51	eb 09		 jmp	 SHORT $LN11@QuestRunCo
$LN10@QuestRunCo:
  01f53	8b 45 dc	 mov	 eax, DWORD PTR _i$231752[ebp]
  01f56	83 c0 01	 add	 eax, 1
  01f59	89 45 dc	 mov	 DWORD PTR _i$231752[ebp], eax
$LN11@QuestRunCo:
  01f5c	8b 45 dc	 mov	 eax, DWORD PTR _i$231752[ebp]
  01f5f	3b 45 f0	 cmp	 eax, DWORD PTR _concount$[ebp]
  01f62	7d 7f		 jge	 SHORT $LN12@QuestRunCo

; 707  : 			{
; 708  : 				lpCondition = this->GetQuestCondition(lpQuestInfo, i);

  01f64	8b 45 dc	 mov	 eax, DWORD PTR _i$231752[ebp]
  01f67	50		 push	 eax
  01f68	8b 4d f8	 mov	 ecx, DWORD PTR _lpQuestInfo$[ebp]
  01f6b	51		 push	 ecx
  01f6c	8b 4d fc	 mov	 ecx, DWORD PTR _this$[ebp]
  01f6f	e8 00 00 00 00	 call	 ?GetQuestCondition@CQuestInfo@@QAEPAUQUEST_CONDITION@@PAUQUEST_INFO@@H@Z ; CQuestInfo::GetQuestCondition
  01f74	89 45 e8	 mov	 DWORD PTR _lpCondition$[ebp], eax

; 709  : 
; 710  : 				if ( lpCondition != NULL && lpCondition->Index == -1)

  01f77	83 7d e8 00	 cmp	 DWORD PTR _lpCondition$[ebp], 0
  01f7b	74 26		 je	 SHORT $LN8@QuestRunCo
  01f7d	8b 45 e8	 mov	 eax, DWORD PTR _lpCondition$[ebp]
  01f80	83 38 ff	 cmp	 DWORD PTR [eax], -1
  01f83	75 1e		 jne	 SHORT $LN8@QuestRunCo

; 711  : 				{
; 712  : 					if ( this->CompareCondition(lpObj, lpCondition) == FALSE )

  01f85	8b 45 e8	 mov	 eax, DWORD PTR _lpCondition$[ebp]
  01f88	50		 push	 eax
  01f89	8b 4d 08	 mov	 ecx, DWORD PTR _lpObj$[ebp]
  01f8c	51		 push	 ecx
  01f8d	8b 4d fc	 mov	 ecx, DWORD PTR _this$[ebp]
  01f90	e8 00 00 00 00	 call	 ?CompareCondition@CQuestInfo@@QAEHPAUOBJECTSTRUCT@@PAUQUEST_CONDITION@@@Z ; CQuestInfo::CompareCondition
  01f95	85 c0		 test	 eax, eax
  01f97	75 08		 jne	 SHORT $LN7@QuestRunCo

; 713  : 					{
; 714  : 						return lpCondition->StartContext;

  01f99	8b 45 e8	 mov	 eax, DWORD PTR _lpCondition$[ebp]
  01f9c	8a 40 18	 mov	 al, BYTE PTR [eax+24]
  01f9f	eb 53		 jmp	 SHORT $LN17@QuestRunCo
$LN7@QuestRunCo:

; 715  : 					}
; 716  : 				}

  01fa1	eb 3b		 jmp	 SHORT $LN6@QuestRunCo
$LN8@QuestRunCo:

; 717  : 				else if ( lpCondition != NULL && lpCondition->Index == lpSubInfo->LinkConditionIndex )

  01fa3	83 7d e8 00	 cmp	 DWORD PTR _lpCondition$[ebp], 0
  01fa7	74 2b		 je	 SHORT $LN5@QuestRunCo
  01fa9	8b 45 e8	 mov	 eax, DWORD PTR _lpCondition$[ebp]
  01fac	8b 4d ec	 mov	 ecx, DWORD PTR _lpSubInfo$[ebp]
  01faf	8b 10		 mov	 edx, DWORD PTR [eax]
  01fb1	3b 51 2c	 cmp	 edx, DWORD PTR [ecx+44]
  01fb4	75 1e		 jne	 SHORT $LN5@QuestRunCo

; 718  : 				{
; 719  : 					if ( this->CompareCondition(lpObj, lpCondition) == 0)

  01fb6	8b 45 e8	 mov	 eax, DWORD PTR _lpCondition$[ebp]
  01fb9	50		 push	 eax
  01fba	8b 4d 08	 mov	 ecx, DWORD PTR _lpObj$[ebp]
  01fbd	51		 push	 ecx
  01fbe	8b 4d fc	 mov	 ecx, DWORD PTR _this$[ebp]
  01fc1	e8 00 00 00 00	 call	 ?CompareCondition@CQuestInfo@@QAEHPAUOBJECTSTRUCT@@PAUQUEST_CONDITION@@@Z ; CQuestInfo::CompareCondition
  01fc6	85 c0		 test	 eax, eax
  01fc8	75 08		 jne	 SHORT $LN4@QuestRunCo

; 720  : 					{
; 721  : 						return lpCondition->StartContext;

  01fca	8b 45 e8	 mov	 eax, DWORD PTR _lpCondition$[ebp]
  01fcd	8a 40 18	 mov	 al, BYTE PTR [eax+24]
  01fd0	eb 22		 jmp	 SHORT $LN17@QuestRunCo
$LN4@QuestRunCo:

; 722  : 					}
; 723  : 				}

  01fd2	eb 0a		 jmp	 SHORT $LN6@QuestRunCo
$LN5@QuestRunCo:

; 724  : 				else if ( lpCondition == NULL )

  01fd4	83 7d e8 00	 cmp	 DWORD PTR _lpCondition$[ebp], 0
  01fd8	75 04		 jne	 SHORT $LN6@QuestRunCo

; 725  : 				{
; 726  : 					return -1;

  01fda	0c ff		 or	 al, 255			; 000000ffH
  01fdc	eb 16		 jmp	 SHORT $LN17@QuestRunCo
$LN6@QuestRunCo:

; 727  : 				}
; 728  : 			}

  01fde	e9 70 ff ff ff	 jmp	 $LN10@QuestRunCo
$LN12@QuestRunCo:

; 729  : 
; 730  : 		}
; 731  : 	}

  01fe3	e9 25 ff ff ff	 jmp	 $LN14@QuestRunCo
$LN13@QuestRunCo:

; 732  : 
; 733  : 	if ( bFoundSubQuest == FALSE )

  01fe8	83 7d e4 00	 cmp	 DWORD PTR _bFoundSubQuest$[ebp], 0
  01fec	75 04		 jne	 SHORT $LN1@QuestRunCo

; 734  : 	{
; 735  : 		return -1;

  01fee	0c ff		 or	 al, 255			; 000000ffH
  01ff0	eb 02		 jmp	 SHORT $LN17@QuestRunCo
$LN1@QuestRunCo:

; 736  : 	}
; 737  : 
; 738  : 	return 0;

  01ff2	32 c0		 xor	 al, al
$LN17@QuestRunCo:

; 739  : }

  01ff4	5f		 pop	 edi
  01ff5	5e		 pop	 esi
  01ff6	5b		 pop	 ebx
  01ff7	8b e5		 mov	 esp, ebp
  01ff9	5d		 pop	 ebp
  01ffa	c2 08 00	 ret	 8
?QuestRunConditionCheck@CQuestInfo@@QAEEPAUOBJECTSTRUCT@@H@Z ENDP ; CQuestInfo::QuestRunConditionCheck
; Function compile flags: /Odtp /ZI
_this$ = -4						; size = 4
_lpObj$ = 8						; size = 4
_lpCondition$ = 12					; size = 4
?CompareCondition@CQuestInfo@@QAEHPAUOBJECTSTRUCT@@PAUQUEST_CONDITION@@@Z PROC ; CQuestInfo::CompareCondition
; _this$ = ecx

; 742  : {

  02000	55		 push	 ebp
  02001	8b ec		 mov	 ebp, esp
  02003	83 ec 44	 sub	 esp, 68			; 00000044H
  02006	53		 push	 ebx
  02007	56		 push	 esi
  02008	57		 push	 edi
  02009	89 4d fc	 mov	 DWORD PTR _this$[ebp], ecx

; 743  : 	if ( lpCondition->NeedQuestIndex != -1 )

  0200c	8b 45 0c	 mov	 eax, DWORD PTR _lpCondition$[ebp]
  0200f	83 78 04 ff	 cmp	 DWORD PTR [eax+4], -1
  02013	74 1c		 je	 SHORT $LN8@CompareCon

; 744  : 	{
; 745  : 		if ( this->GetQuestState(lpObj, lpCondition->NeedQuestIndex) != 2 )

  02015	8b 45 0c	 mov	 eax, DWORD PTR _lpCondition$[ebp]
  02018	8b 48 04	 mov	 ecx, DWORD PTR [eax+4]
  0201b	51		 push	 ecx
  0201c	8b 55 08	 mov	 edx, DWORD PTR _lpObj$[ebp]
  0201f	52		 push	 edx
  02020	8b 4d fc	 mov	 ecx, DWORD PTR _this$[ebp]
  02023	e8 00 00 00 00	 call	 ?GetQuestState@CQuestInfo@@QAEHPAUOBJECTSTRUCT@@H@Z ; CQuestInfo::GetQuestState
  02028	83 f8 02	 cmp	 eax, 2
  0202b	74 04		 je	 SHORT $LN8@CompareCon

; 746  : 		{
; 747  : 			return FALSE;

  0202d	33 c0		 xor	 eax, eax
  0202f	eb 7a		 jmp	 SHORT $LN9@CompareCon
$LN8@CompareCon:

; 748  : 		}
; 749  : 	}
; 750  : 
; 751  : 	if ( lpCondition->MinLevel != 0 )

  02031	8b 45 0c	 mov	 eax, DWORD PTR _lpCondition$[ebp]
  02034	83 78 08 00	 cmp	 DWORD PTR [eax+8], 0
  02038	74 16		 je	 SHORT $LN6@CompareCon

; 752  : 	{
; 753  : 		if ( lpCondition->MinLevel > lpObj->Level )

  0203a	8b 45 08	 mov	 eax, DWORD PTR _lpObj$[ebp]
  0203d	0f bf 88 be 00
	00 00		 movsx	 ecx, WORD PTR [eax+190]
  02044	8b 55 0c	 mov	 edx, DWORD PTR _lpCondition$[ebp]
  02047	39 4a 08	 cmp	 DWORD PTR [edx+8], ecx
  0204a	7e 04		 jle	 SHORT $LN6@CompareCon

; 754  : 		{
; 755  : 			return FALSE;

  0204c	33 c0		 xor	 eax, eax
  0204e	eb 5b		 jmp	 SHORT $LN9@CompareCon
$LN6@CompareCon:

; 756  : 		}
; 757  : 	}
; 758  : 
; 759  : 	if ( lpCondition->MaxLevel != 0 )

  02050	8b 45 0c	 mov	 eax, DWORD PTR _lpCondition$[ebp]
  02053	83 78 0c 00	 cmp	 DWORD PTR [eax+12], 0
  02057	74 16		 je	 SHORT $LN4@CompareCon

; 760  : 	{
; 761  : 		if ( lpCondition->MaxLevel < lpObj->Level )

  02059	8b 45 08	 mov	 eax, DWORD PTR _lpObj$[ebp]
  0205c	0f bf 88 be 00
	00 00		 movsx	 ecx, WORD PTR [eax+190]
  02063	8b 55 0c	 mov	 edx, DWORD PTR _lpCondition$[ebp]
  02066	39 4a 0c	 cmp	 DWORD PTR [edx+12], ecx
  02069	7d 04		 jge	 SHORT $LN4@CompareCon

; 762  : 		{
; 763  : 			return FALSE;

  0206b	33 c0		 xor	 eax, eax
  0206d	eb 3c		 jmp	 SHORT $LN9@CompareCon
$LN4@CompareCon:

; 764  : 		}
; 765  : 	}
; 766  : 
; 767  : 	if ( lpCondition->NeedZen > lpObj->Money )

  0206f	8b 45 0c	 mov	 eax, DWORD PTR _lpCondition$[ebp]
  02072	8b 4d 08	 mov	 ecx, DWORD PTR _lpObj$[ebp]
  02075	8b 50 14	 mov	 edx, DWORD PTR [eax+20]
  02078	3b 91 f0 00 00
	00		 cmp	 edx, DWORD PTR [ecx+240]
  0207e	7e 04		 jle	 SHORT $LN2@CompareCon

; 768  : 	{
; 769  : 		return FALSE;

  02080	33 c0		 xor	 eax, eax
  02082	eb 27		 jmp	 SHORT $LN9@CompareCon
$LN2@CompareCon:

; 770  : 	}
; 771  : 
; 772  : 	if ( lpCondition->ReqStr > lpObj->Strength + lpObj->AddStrength)

  02084	8b 45 08	 mov	 eax, DWORD PTR _lpObj$[ebp]
  02087	0f b7 88 f4 00
	00 00		 movzx	 ecx, WORD PTR [eax+244]
  0208e	8b 55 08	 mov	 edx, DWORD PTR _lpObj$[ebp]
  02091	0f bf 82 20 01
	00 00		 movsx	 eax, WORD PTR [edx+288]
  02098	03 c8		 add	 ecx, eax
  0209a	8b 55 0c	 mov	 edx, DWORD PTR _lpCondition$[ebp]
  0209d	39 4a 10	 cmp	 DWORD PTR [edx+16], ecx
  020a0	7e 04		 jle	 SHORT $LN1@CompareCon

; 773  : 	{
; 774  : 		return FALSE;

  020a2	33 c0		 xor	 eax, eax
  020a4	eb 05		 jmp	 SHORT $LN9@CompareCon
$LN1@CompareCon:

; 775  : 	}
; 776  : 
; 777  : 	return TRUE;

  020a6	b8 01 00 00 00	 mov	 eax, 1
$LN9@CompareCon:

; 778  : 
; 779  : }

  020ab	5f		 pop	 edi
  020ac	5e		 pop	 esi
  020ad	5b		 pop	 ebx
  020ae	8b e5		 mov	 esp, ebp
  020b0	5d		 pop	 ebp
  020b1	c2 08 00	 ret	 8
?CompareCondition@CQuestInfo@@QAEHPAUOBJECTSTRUCT@@PAUQUEST_CONDITION@@@Z ENDP ; CQuestInfo::CompareCondition
_TEXT	ENDS
PUBLIC	?GCSendQuestKillCountInfo@CQuestInfo@@QAEHHH@Z	; CQuestInfo::GCSendQuestKillCountInfo
PUBLIC	?NpcTalk@CQuestInfo@@QAEHPAUOBJECTSTRUCT@@0@Z	; CQuestInfo::NpcTalk
EXTRN	?GCSendQuestInfo@@YAXHH@Z:PROC			; GCSendQuestInfo
; Function compile flags: /Odtp /ZI
_TEXT	SEGMENT
_loc10$231805 = -40					; size = 4
_lpSubInfo$231801 = -36					; size = 4
_n$231797 = -32						; size = 4
_i$231787 = -28						; size = 4
_questindex$ = -24					; size = 4
_queststate$ = -20					; size = 4
_lpQuestInfo$ = -16					; size = 4
_foundquest$ = -12					; size = 4
_questcount$ = -8					; size = 4
_this$ = -4						; size = 4
_lpNpc$ = 8						; size = 4
_lpObj$ = 12						; size = 4
?NpcTalk@CQuestInfo@@QAEHPAUOBJECTSTRUCT@@0@Z PROC	; CQuestInfo::NpcTalk
; _this$ = ecx

; 782  : {

  020c0	55		 push	 ebp
  020c1	8b ec		 mov	 ebp, esp
  020c3	83 ec 68	 sub	 esp, 104		; 00000068H
  020c6	53		 push	 ebx
  020c7	56		 push	 esi
  020c8	57		 push	 edi
  020c9	89 4d fc	 mov	 DWORD PTR _this$[ebp], ecx

; 783  : 	int questcount = this->GetQeustCount();

  020cc	8b 4d fc	 mov	 ecx, DWORD PTR _this$[ebp]
  020cf	e8 00 00 00 00	 call	 ?GetQeustCount@CQuestInfo@@QAEHXZ ; CQuestInfo::GetQeustCount
  020d4	89 45 f8	 mov	 DWORD PTR _questcount$[ebp], eax

; 784  : 	int foundquest = 0;

  020d7	c7 45 f4 00 00
	00 00		 mov	 DWORD PTR _foundquest$[ebp], 0

; 785  : 	LPQUEST_INFO lpQuestInfo;
; 786  : 	int queststate = -1;

  020de	c7 45 ec ff ff
	ff ff		 mov	 DWORD PTR _queststate$[ebp], -1

; 787  : 	int questindex = -1;

  020e5	c7 45 e8 ff ff
	ff ff		 mov	 DWORD PTR _questindex$[ebp], -1

; 788  : 
; 789  : 	for ( int i = 0; i<MAX_QUEST_INFO;i++)

  020ec	c7 45 e4 00 00
	00 00		 mov	 DWORD PTR _i$231787[ebp], 0
  020f3	eb 09		 jmp	 SHORT $LN16@NpcTalk
$LN15@NpcTalk:
  020f5	8b 45 e4	 mov	 eax, DWORD PTR _i$231787[ebp]
  020f8	83 c0 01	 add	 eax, 1
  020fb	89 45 e4	 mov	 DWORD PTR _i$231787[ebp], eax
$LN16@NpcTalk:
  020fe	81 7d e4 c8 00
	00 00		 cmp	 DWORD PTR _i$231787[ebp], 200 ; 000000c8H
  02105	0f 8d da 00 00
	00		 jge	 $LN14@NpcTalk

; 790  : 	{
; 791  : 		lpQuestInfo = this->GetQuestInfo(i);

  0210b	8b 45 e4	 mov	 eax, DWORD PTR _i$231787[ebp]
  0210e	50		 push	 eax
  0210f	8b 4d fc	 mov	 ecx, DWORD PTR _this$[ebp]
  02112	e8 00 00 00 00	 call	 ?GetQuestInfo@CQuestInfo@@QAEPAUQUEST_INFO@@H@Z ; CQuestInfo::GetQuestInfo
  02117	89 45 f0	 mov	 DWORD PTR _lpQuestInfo$[ebp], eax

; 792  : 
; 793  : 		if ( lpQuestInfo == NULL )

  0211a	83 7d f0 00	 cmp	 DWORD PTR _lpQuestInfo$[ebp], 0
  0211e	75 02		 jne	 SHORT $LN13@NpcTalk

; 794  : 		{
; 795  : 			continue;

  02120	eb d3		 jmp	 SHORT $LN15@NpcTalk
$LN13@NpcTalk:

; 796  : 		}
; 797  : 
; 798  : 		if ( lpQuestInfo->QuestStartType == 2 )

  02122	8b 45 f0	 mov	 eax, DWORD PTR _lpQuestInfo$[ebp]
  02125	83 78 38 02	 cmp	 DWORD PTR [eax+56], 2
  02129	0f 85 9e 00 00
	00		 jne	 $LN12@NpcTalk

; 799  : 		{
; 800  : 			if ( lpNpc->Class == lpQuestInfo->QuestStartSubType)

  0212f	8b 45 08	 mov	 eax, DWORD PTR _lpNpc$[ebp]
  02132	0f b7 88 b8 00
	00 00		 movzx	 ecx, WORD PTR [eax+184]
  02139	8b 55 f0	 mov	 edx, DWORD PTR _lpQuestInfo$[ebp]
  0213c	3b 4a 3c	 cmp	 ecx, DWORD PTR [edx+60]
  0213f	0f 85 88 00 00
	00		 jne	 $LN12@NpcTalk

; 801  : 			{
; 802  : 				if ( queststate == -1 )

  02145	83 7d ec ff	 cmp	 DWORD PTR _queststate$[ebp], -1
  02149	75 21		 jne	 SHORT $LN10@NpcTalk

; 803  : 				{
; 804  : 					questindex = lpQuestInfo->QuestIndex;

  0214b	8b 45 f0	 mov	 eax, DWORD PTR _lpQuestInfo$[ebp]
  0214e	8b 48 34	 mov	 ecx, DWORD PTR [eax+52]
  02151	89 4d e8	 mov	 DWORD PTR _questindex$[ebp], ecx

; 805  : 					queststate = this->GetQuestState(lpObj, lpQuestInfo->QuestIndex);

  02154	8b 45 f0	 mov	 eax, DWORD PTR _lpQuestInfo$[ebp]
  02157	8b 48 34	 mov	 ecx, DWORD PTR [eax+52]
  0215a	51		 push	 ecx
  0215b	8b 55 0c	 mov	 edx, DWORD PTR _lpObj$[ebp]
  0215e	52		 push	 edx
  0215f	8b 4d fc	 mov	 ecx, DWORD PTR _this$[ebp]
  02162	e8 00 00 00 00	 call	 ?GetQuestState@CQuestInfo@@QAEHPAUOBJECTSTRUCT@@H@Z ; CQuestInfo::GetQuestState
  02167	89 45 ec	 mov	 DWORD PTR _queststate$[ebp], eax
  0216a	eb 61		 jmp	 SHORT $LN12@NpcTalk
$LN10@NpcTalk:

; 806  : 				}
; 807  : 				else if ( queststate == 2 )

  0216c	83 7d ec 02	 cmp	 DWORD PTR _queststate$[ebp], 2
  02170	75 5b		 jne	 SHORT $LN12@NpcTalk

; 808  : 				{
; 809  : 					for ( int n=0;n<lpQuestInfo->QuestSubInfoCount ;n++)

  02172	c7 45 e0 00 00
	00 00		 mov	 DWORD PTR _n$231797[ebp], 0
  02179	eb 09		 jmp	 SHORT $LN7@NpcTalk
$LN6@NpcTalk:
  0217b	8b 45 e0	 mov	 eax, DWORD PTR _n$231797[ebp]
  0217e	83 c0 01	 add	 eax, 1
  02181	89 45 e0	 mov	 DWORD PTR _n$231797[ebp], eax
$LN7@NpcTalk:
  02184	8b 45 f0	 mov	 eax, DWORD PTR _lpQuestInfo$[ebp]
  02187	8b 4d e0	 mov	 ecx, DWORD PTR _n$231797[ebp]
  0218a	3b 48 40	 cmp	 ecx, DWORD PTR [eax+64]
  0218d	7d 3e		 jge	 SHORT $LN12@NpcTalk

; 810  : 					{
; 811  : 						LPQUEST_SUB_INFO lpSubInfo = this->GetSubquestInfo(lpObj, lpQuestInfo, n);

  0218f	8b 45 e0	 mov	 eax, DWORD PTR _n$231797[ebp]
  02192	50		 push	 eax
  02193	8b 4d f0	 mov	 ecx, DWORD PTR _lpQuestInfo$[ebp]
  02196	51		 push	 ecx
  02197	8b 55 0c	 mov	 edx, DWORD PTR _lpObj$[ebp]
  0219a	52		 push	 edx
  0219b	8b 4d fc	 mov	 ecx, DWORD PTR _this$[ebp]
  0219e	e8 00 00 00 00	 call	 ?GetSubquestInfo@CQuestInfo@@QAEPAUQUEST_SUB_INFO@@PAUOBJECTSTRUCT@@PAUQUEST_INFO@@H@Z ; CQuestInfo::GetSubquestInfo
  021a3	89 45 dc	 mov	 DWORD PTR _lpSubInfo$231801[ebp], eax

; 812  : 
; 813  : 						if ( lpSubInfo != NULL )

  021a6	83 7d dc 00	 cmp	 DWORD PTR _lpSubInfo$231801[ebp], 0
  021aa	74 1f		 je	 SHORT $LN4@NpcTalk

; 814  : 						{
; 815  : 							questindex = lpQuestInfo->QuestIndex;

  021ac	8b 45 f0	 mov	 eax, DWORD PTR _lpQuestInfo$[ebp]
  021af	8b 48 34	 mov	 ecx, DWORD PTR [eax+52]
  021b2	89 4d e8	 mov	 DWORD PTR _questindex$[ebp], ecx

; 816  : 							queststate = this->GetQuestState(lpObj, lpQuestInfo->QuestIndex);

  021b5	8b 45 f0	 mov	 eax, DWORD PTR _lpQuestInfo$[ebp]
  021b8	8b 48 34	 mov	 ecx, DWORD PTR [eax+52]
  021bb	51		 push	 ecx
  021bc	8b 55 0c	 mov	 edx, DWORD PTR _lpObj$[ebp]
  021bf	52		 push	 edx
  021c0	8b 4d fc	 mov	 ecx, DWORD PTR _this$[ebp]
  021c3	e8 00 00 00 00	 call	 ?GetQuestState@CQuestInfo@@QAEHPAUOBJECTSTRUCT@@H@Z ; CQuestInfo::GetQuestState
  021c8	89 45 ec	 mov	 DWORD PTR _queststate$[ebp], eax
$LN4@NpcTalk:

; 817  : 						}
; 818  : 					}

  021cb	eb ae		 jmp	 SHORT $LN6@NpcTalk
$LN12@NpcTalk:

; 819  : 				}
; 820  : 			}
; 821  : 		}
; 822  : 
; 823  : 		foundquest++;

  021cd	8b 45 f4	 mov	 eax, DWORD PTR _foundquest$[ebp]
  021d0	83 c0 01	 add	 eax, 1
  021d3	89 45 f4	 mov	 DWORD PTR _foundquest$[ebp], eax

; 824  : 
; 825  : 		if ( foundquest == questcount )

  021d6	8b 45 f4	 mov	 eax, DWORD PTR _foundquest$[ebp]
  021d9	3b 45 f8	 cmp	 eax, DWORD PTR _questcount$[ebp]
  021dc	75 02		 jne	 SHORT $LN3@NpcTalk

; 826  : 		{
; 827  : 			break;

  021de	eb 05		 jmp	 SHORT $LN14@NpcTalk
$LN3@NpcTalk:

; 828  : 		}
; 829  : 	}

  021e0	e9 10 ff ff ff	 jmp	 $LN15@NpcTalk
$LN14@NpcTalk:

; 830  : 
; 831  : 	if ( queststate != -1 )

  021e5	83 7d ec ff	 cmp	 DWORD PTR _queststate$[ebp], -1
  021e9	0f 84 86 00 00
	00		 je	 $LN2@NpcTalk

; 832  : 	{
; 833  : 		int loc10 = this->GCSendQuestKillCountInfo(questindex, lpObj->m_Index);

  021ef	8b 45 0c	 mov	 eax, DWORD PTR _lpObj$[ebp]
  021f2	8b 08		 mov	 ecx, DWORD PTR [eax]
  021f4	51		 push	 ecx
  021f5	8b 55 e8	 mov	 edx, DWORD PTR _questindex$[ebp]
  021f8	52		 push	 edx
  021f9	8b 4d fc	 mov	 ecx, DWORD PTR _this$[ebp]
  021fc	e8 00 00 00 00	 call	 ?GCSendQuestKillCountInfo@CQuestInfo@@QAEHHH@Z ; CQuestInfo::GCSendQuestKillCountInfo
  02201	89 45 d8	 mov	 DWORD PTR _loc10$231805[ebp], eax

; 834  : 		
; 835  : 		if(loc10 == 0)

  02204	83 7d d8 00	 cmp	 DWORD PTR _loc10$231805[ebp], 0
  02208	75 07		 jne	 SHORT $LN1@NpcTalk

; 836  : 		{
; 837  : 			return true;

  0220a	b8 01 00 00 00	 mov	 eax, 1
  0220f	eb 66		 jmp	 SHORT $LN17@NpcTalk
$LN1@NpcTalk:

; 838  : 		}
; 839  : 		
; 840  : 		GCSendQuestInfo(lpObj->m_Index, questindex);

  02211	8b 45 e8	 mov	 eax, DWORD PTR _questindex$[ebp]
  02214	50		 push	 eax
  02215	8b 4d 0c	 mov	 ecx, DWORD PTR _lpObj$[ebp]
  02218	8b 11		 mov	 edx, DWORD PTR [ecx]
  0221a	52		 push	 edx
  0221b	e8 00 00 00 00	 call	 ?GCSendQuestInfo@@YAXHH@Z ; GCSendQuestInfo
  02220	83 c4 08	 add	 esp, 8

; 841  : 		lpObj->m_IfState.type = 10;

  02223	8b 45 0c	 mov	 eax, DWORD PTR _lpObj$[ebp]
  02226	8b 88 1c 0e 00
	00		 mov	 ecx, DWORD PTR [eax+3612]
  0222c	81 e1 3f 00 ff
	ff		 and	 ecx, -65473		; ffff003fH
  02232	81 c9 80 02 00
	00		 or	 ecx, 640		; 00000280H
  02238	8b 55 0c	 mov	 edx, DWORD PTR _lpObj$[ebp]
  0223b	89 8a 1c 0e 00
	00		 mov	 DWORD PTR [edx+3612], ecx

; 842  : 		lpObj->m_IfState.state = 0;

  02241	8b 45 0c	 mov	 eax, DWORD PTR _lpObj$[ebp]
  02244	8b 88 1c 0e 00
	00		 mov	 ecx, DWORD PTR [eax+3612]
  0224a	83 e1 c3	 and	 ecx, -61		; ffffffc3H
  0224d	8b 55 0c	 mov	 edx, DWORD PTR _lpObj$[ebp]
  02250	89 8a 1c 0e 00
	00		 mov	 DWORD PTR [edx+3612], ecx

; 843  : 		lpObj->m_IfState.use = 1;

  02256	8b 45 0c	 mov	 eax, DWORD PTR _lpObj$[ebp]
  02259	8b 88 1c 0e 00
	00		 mov	 ecx, DWORD PTR [eax+3612]
  0225f	83 e1 fc	 and	 ecx, -4			; fffffffcH
  02262	83 c9 01	 or	 ecx, 1
  02265	8b 55 0c	 mov	 edx, DWORD PTR _lpObj$[ebp]
  02268	89 8a 1c 0e 00
	00		 mov	 DWORD PTR [edx+3612], ecx

; 844  : 		return true;

  0226e	b8 01 00 00 00	 mov	 eax, 1
  02273	eb 02		 jmp	 SHORT $LN17@NpcTalk
$LN2@NpcTalk:

; 845  : 	}
; 846  : 
; 847  : 	return false;

  02275	33 c0		 xor	 eax, eax
$LN17@NpcTalk:

; 848  : }

  02277	5f		 pop	 edi
  02278	5e		 pop	 esi
  02279	5b		 pop	 ebx
  0227a	8b e5		 mov	 esp, ebp
  0227c	5d		 pop	 ebp
  0227d	c2 08 00	 ret	 8
?NpcTalk@CQuestInfo@@QAEHPAUOBJECTSTRUCT@@0@Z ENDP	; CQuestInfo::NpcTalk
_TEXT	ENDS
PUBLIC	??_C@_0DE@CLGCKBPA@?$FLQuest?$FN?5Quest?5Item?5Drop?5?$FL?$CFs?$FN?3?5?$FL?$CF@ ; `string'
PUBLIC	__real@00000000
PUBLIC	?MonsterItemDropParty@CQuestInfo@@QAEHPAUOBJECTSTRUCT@@0@Z ; CQuestInfo::MonsterItemDropParty
PUBLIC	?MonsterItemDrop@CQuestInfo@@QAEHPAUOBJECTSTRUCT@@@Z ; CQuestInfo::MonsterItemDrop
EXTRN	?ItemSerialCreateSend@@YAXHEEEHEEEEEHEE@Z:PROC	; ItemSerialCreateSend
EXTRN	?ItemGetNumberMake@@YAHHH@Z:PROC		; ItemGetNumberMake
EXTRN	_rand:PROC
EXTRN	?GetPartyCount@PartyClass@@QAEHH@Z:PROC		; PartyClass::GetPartyCount
EXTRN	?gParty@@3VPartyClass@@A:BYTE			; gParty
EXTRN	?gObj@@3PAUOBJECTSTRUCT@@A:DWORD		; gObj
EXTRN	?gObjMonsterTopHitDamageUser@@YAHPAUOBJECTSTRUCT@@@Z:PROC ; gObjMonsterTopHitDamageUser
;	COMDAT ??_C@_0DE@CLGCKBPA@?$FLQuest?$FN?5Quest?5Item?5Drop?5?$FL?$CFs?$FN?3?5?$FL?$CF@
CONST	SEGMENT
??_C@_0DE@CLGCKBPA@?$FLQuest?$FN?5Quest?5Item?5Drop?5?$FL?$CFs?$FN?3?5?$FL?$CF@ DB '['
	DB	'Quest] Quest Item Drop [%s]: [%s][%s] (%s) (%d,%d)', 00H ; `string'
CONST	ENDS
;	COMDAT __real@00000000
CONST	SEGMENT
__real@00000000 DD 000000000r			; 0
; Function compile flags: /Odtp /ZI
CONST	ENDS
_TEXT	SEGMENT
tv277 = -156						; size = 4
tv275 = -152						; size = 4
tv272 = -146						; size = 2
_itemcount$231845 = -80					; size = 4
_n$231834 = -76						; size = 4
_i$231829 = -72						; size = 4
_Option3$ = -68						; size = 4
_Option2$ = -64						; size = 4
_Option1$ = -60						; size = 4
_dur$ = -56						; size = 4
_y$ = -52						; size = 4
_x$ = -48						; size = 4
_level$ = -44						; size = 4
_type$ = -40						; size = 4
_lpSubInfo$ = -36					; size = 4
_lpQuestInfo$ = -32					; size = 4
_foundquest$ = -28					; size = 4
_questcount$ = -24					; size = 4
_lpTarget$ = -20					; size = 4
_MaxHitUserInParty$231815 = -16				; size = 4
_partycount$ = -12					; size = 4
_MaxHitUser$ = -8					; size = 4
_this$ = -4						; size = 4
_lpObj$ = 8						; size = 4
?MonsterItemDrop@CQuestInfo@@QAEHPAUOBJECTSTRUCT@@@Z PROC ; CQuestInfo::MonsterItemDrop
; _this$ = ecx

; 851  : {

  02280	55		 push	 ebp
  02281	8b ec		 mov	 ebp, esp
  02283	81 ec 9c 00 00
	00		 sub	 esp, 156		; 0000009cH
  02289	53		 push	 ebx
  0228a	56		 push	 esi
  0228b	57		 push	 edi
  0228c	89 4d fc	 mov	 DWORD PTR _this$[ebp], ecx

; 852  : 	int MaxHitUser = gObjMonsterTopHitDamageUser(lpObj); //loc1

  0228f	8b 45 08	 mov	 eax, DWORD PTR _lpObj$[ebp]
  02292	50		 push	 eax
  02293	e8 00 00 00 00	 call	 ?gObjMonsterTopHitDamageUser@@YAHPAUOBJECTSTRUCT@@@Z ; gObjMonsterTopHitDamageUser
  02298	83 c4 04	 add	 esp, 4
  0229b	89 45 f8	 mov	 DWORD PTR _MaxHitUser$[ebp], eax

; 853  : 
; 854  : 	if ( MaxHitUser == -1 )

  0229e	83 7d f8 ff	 cmp	 DWORD PTR _MaxHitUser$[ebp], -1
  022a2	75 07		 jne	 SHORT $LN18@MonsterIte

; 855  : 	{
; 856  : 		return false;

  022a4	33 c0		 xor	 eax, eax
  022a6	e9 e0 02 00 00	 jmp	 $LN19@MonsterIte
$LN18@MonsterIte:

; 857  : 	}
; 858  : 
; 859  : 	int partycount = gParty.GetPartyCount(gObj[MaxHitUser].PartyNumber); //loc3

  022ab	8b 45 f8	 mov	 eax, DWORD PTR _MaxHitUser$[ebp]
  022ae	69 c0 38 2b 00
	00		 imul	 eax, 11064		; 00002b38H
  022b4	8b 0d 00 00 00
	00		 mov	 ecx, DWORD PTR ?gObj@@3PAUOBJECTSTRUCT@@A ; gObj
  022ba	8b 94 01 2c 04
	00 00		 mov	 edx, DWORD PTR [ecx+eax+1068]
  022c1	52		 push	 edx
  022c2	b9 00 00 00 00	 mov	 ecx, OFFSET ?gParty@@3VPartyClass@@A ; gParty
  022c7	e8 00 00 00 00	 call	 ?GetPartyCount@PartyClass@@QAEHH@Z ; PartyClass::GetPartyCount
  022cc	89 45 f4	 mov	 DWORD PTR _partycount$[ebp], eax

; 860  : 
; 861  : 	if ( partycount > 0 ) //Season 2.5 changed

  022cf	83 7d f4 00	 cmp	 DWORD PTR _partycount$[ebp], 0
  022d3	7e 27		 jle	 SHORT $LN17@MonsterIte

; 862  : 	{
; 863  : 		int MaxHitUserInParty = this->MonsterItemDropParty(lpObj,&gObj[MaxHitUser]);

  022d5	8b 45 f8	 mov	 eax, DWORD PTR _MaxHitUser$[ebp]
  022d8	69 c0 38 2b 00
	00		 imul	 eax, 11064		; 00002b38H
  022de	03 05 00 00 00
	00		 add	 eax, DWORD PTR ?gObj@@3PAUOBJECTSTRUCT@@A ; gObj
  022e4	50		 push	 eax
  022e5	8b 4d 08	 mov	 ecx, DWORD PTR _lpObj$[ebp]
  022e8	51		 push	 ecx
  022e9	8b 4d fc	 mov	 ecx, DWORD PTR _this$[ebp]
  022ec	e8 00 00 00 00	 call	 ?MonsterItemDropParty@CQuestInfo@@QAEHPAUOBJECTSTRUCT@@0@Z ; CQuestInfo::MonsterItemDropParty
  022f1	89 45 f0	 mov	 DWORD PTR _MaxHitUserInParty$231815[ebp], eax

; 864  : 		return MaxHitUserInParty;

  022f4	8b 45 f0	 mov	 eax, DWORD PTR _MaxHitUserInParty$231815[ebp]
  022f7	e9 8f 02 00 00	 jmp	 $LN19@MonsterIte
$LN17@MonsterIte:

; 865  : 	}
; 866  : 
; 867  : 	LPOBJ lpTarget = &gObj[MaxHitUser];

  022fc	8b 45 f8	 mov	 eax, DWORD PTR _MaxHitUser$[ebp]
  022ff	69 c0 38 2b 00
	00		 imul	 eax, 11064		; 00002b38H
  02305	03 05 00 00 00
	00		 add	 eax, DWORD PTR ?gObj@@3PAUOBJECTSTRUCT@@A ; gObj
  0230b	89 45 ec	 mov	 DWORD PTR _lpTarget$[ebp], eax

; 868  : 	int questcount = this->GetQeustCount();

  0230e	8b 4d fc	 mov	 ecx, DWORD PTR _this$[ebp]
  02311	e8 00 00 00 00	 call	 ?GetQeustCount@CQuestInfo@@QAEHXZ ; CQuestInfo::GetQeustCount
  02316	89 45 e8	 mov	 DWORD PTR _questcount$[ebp], eax

; 869  : 	int foundquest = 0;

  02319	c7 45 e4 00 00
	00 00		 mov	 DWORD PTR _foundquest$[ebp], 0

; 870  : 	LPQUEST_INFO lpQuestInfo;
; 871  : 	LPQUEST_SUB_INFO lpSubInfo;
; 872  : 	int type;
; 873  : 	int level;
; 874  : 	int x;
; 875  : 	int y;
; 876  : 	float dur = 0;

  02320	d9 ee		 fldz
  02322	d9 5d c8	 fstp	 DWORD PTR _dur$[ebp]

; 877  : 	int Option1 = 0;

  02325	c7 45 c4 00 00
	00 00		 mov	 DWORD PTR _Option1$[ebp], 0

; 878  : 	int Option2 = 0;

  0232c	c7 45 c0 00 00
	00 00		 mov	 DWORD PTR _Option2$[ebp], 0

; 879  : 	int Option3 = 0;

  02333	c7 45 bc 00 00
	00 00		 mov	 DWORD PTR _Option3$[ebp], 0

; 880  : 
; 881  : 	for ( int i=0;i<MAX_QUEST_INFO;i++)

  0233a	c7 45 b8 00 00
	00 00		 mov	 DWORD PTR _i$231829[ebp], 0
  02341	eb 09		 jmp	 SHORT $LN16@MonsterIte
$LN15@MonsterIte:
  02343	8b 45 b8	 mov	 eax, DWORD PTR _i$231829[ebp]
  02346	83 c0 01	 add	 eax, 1
  02349	89 45 b8	 mov	 DWORD PTR _i$231829[ebp], eax
$LN16@MonsterIte:
  0234c	81 7d b8 c8 00
	00 00		 cmp	 DWORD PTR _i$231829[ebp], 200 ; 000000c8H
  02353	0f 8d 30 02 00
	00		 jge	 $LN14@MonsterIte

; 882  : 	{
; 883  : 		lpQuestInfo = this->GetQuestInfo(i);

  02359	8b 45 b8	 mov	 eax, DWORD PTR _i$231829[ebp]
  0235c	50		 push	 eax
  0235d	8b 4d fc	 mov	 ecx, DWORD PTR _this$[ebp]
  02360	e8 00 00 00 00	 call	 ?GetQuestInfo@CQuestInfo@@QAEPAUQUEST_INFO@@H@Z ; CQuestInfo::GetQuestInfo
  02365	89 45 e0	 mov	 DWORD PTR _lpQuestInfo$[ebp], eax

; 884  : 
; 885  : 		if ( lpQuestInfo == NULL )

  02368	83 7d e0 00	 cmp	 DWORD PTR _lpQuestInfo$[ebp], 0
  0236c	75 02		 jne	 SHORT $LN13@MonsterIte

; 886  : 		{
; 887  : 			continue;

  0236e	eb d3		 jmp	 SHORT $LN15@MonsterIte
$LN13@MonsterIte:

; 888  : 		}
; 889  : 
; 890  : 		for ( int n =0;n<lpQuestInfo->QuestSubInfoCount;n++)

  02370	c7 45 b4 00 00
	00 00		 mov	 DWORD PTR _n$231834[ebp], 0
  02377	eb 09		 jmp	 SHORT $LN12@MonsterIte
$LN11@MonsterIte:
  02379	8b 45 b4	 mov	 eax, DWORD PTR _n$231834[ebp]
  0237c	83 c0 01	 add	 eax, 1
  0237f	89 45 b4	 mov	 DWORD PTR _n$231834[ebp], eax
$LN12@MonsterIte:
  02382	8b 45 e0	 mov	 eax, DWORD PTR _lpQuestInfo$[ebp]
  02385	8b 4d b4	 mov	 ecx, DWORD PTR _n$231834[ebp]
  02388	3b 48 40	 cmp	 ecx, DWORD PTR [eax+64]
  0238b	0f 8d e0 01 00
	00		 jge	 $LN10@MonsterIte

; 891  : 		{
; 892  : 			lpSubInfo = this->GetSubquestInfo(lpTarget, lpQuestInfo, n);

  02391	8b 45 b4	 mov	 eax, DWORD PTR _n$231834[ebp]
  02394	50		 push	 eax
  02395	8b 4d e0	 mov	 ecx, DWORD PTR _lpQuestInfo$[ebp]
  02398	51		 push	 ecx
  02399	8b 55 ec	 mov	 edx, DWORD PTR _lpTarget$[ebp]
  0239c	52		 push	 edx
  0239d	8b 4d fc	 mov	 ecx, DWORD PTR _this$[ebp]
  023a0	e8 00 00 00 00	 call	 ?GetSubquestInfo@CQuestInfo@@QAEPAUQUEST_SUB_INFO@@PAUOBJECTSTRUCT@@PAUQUEST_INFO@@H@Z ; CQuestInfo::GetSubquestInfo
  023a5	89 45 dc	 mov	 DWORD PTR _lpSubInfo$[ebp], eax

; 893  : 			
; 894  : 			if ( lpSubInfo != NULL )

  023a8	83 7d dc 00	 cmp	 DWORD PTR _lpSubInfo$[ebp], 0
  023ac	0f 84 ba 01 00
	00		 je	 $LN3@MonsterIte

; 895  : 			{
; 896  : 				if ( lpSubInfo->QuestType == 1 )

  023b2	8b 45 dc	 mov	 eax, DWORD PTR _lpSubInfo$[ebp]
  023b5	83 38 01	 cmp	 DWORD PTR [eax], 1
  023b8	0f 85 ae 01 00
	00		 jne	 $LN3@MonsterIte

; 897  : 				{
; 898  : 					if( (lpSubInfo->NeedTargetMinLevel > 0) && (lpObj->Level >= lpSubInfo->NeedTargetMinLevel) && (lpObj->Level <= lpSubInfo->NeedTargetMaxLevel) || (lpSubInfo->NeedTargetMinLevel == -1) && (lpObj->Class == lpSubInfo->NeedTargetMaxLevel))

  023be	8b 45 dc	 mov	 eax, DWORD PTR _lpSubInfo$[ebp]
  023c1	83 78 14 00	 cmp	 DWORD PTR [eax+20], 0
  023c5	7e 24		 jle	 SHORT $LN5@MonsterIte
  023c7	8b 45 08	 mov	 eax, DWORD PTR _lpObj$[ebp]
  023ca	0f bf 88 be 00
	00 00		 movsx	 ecx, WORD PTR [eax+190]
  023d1	8b 55 dc	 mov	 edx, DWORD PTR _lpSubInfo$[ebp]
  023d4	3b 4a 14	 cmp	 ecx, DWORD PTR [edx+20]
  023d7	7c 12		 jl	 SHORT $LN5@MonsterIte
  023d9	8b 45 08	 mov	 eax, DWORD PTR _lpObj$[ebp]
  023dc	0f bf 88 be 00
	00 00		 movsx	 ecx, WORD PTR [eax+190]
  023e3	8b 55 dc	 mov	 edx, DWORD PTR _lpSubInfo$[ebp]
  023e6	3b 4a 18	 cmp	 ecx, DWORD PTR [edx+24]
  023e9	7e 23		 jle	 SHORT $LN6@MonsterIte
$LN5@MonsterIte:
  023eb	8b 45 dc	 mov	 eax, DWORD PTR _lpSubInfo$[ebp]
  023ee	83 78 14 ff	 cmp	 DWORD PTR [eax+20], -1
  023f2	0f 85 74 01 00
	00		 jne	 $LN3@MonsterIte
  023f8	8b 45 08	 mov	 eax, DWORD PTR _lpObj$[ebp]
  023fb	0f b7 88 b8 00
	00 00		 movzx	 ecx, WORD PTR [eax+184]
  02402	8b 55 dc	 mov	 edx, DWORD PTR _lpSubInfo$[ebp]
  02405	3b 4a 18	 cmp	 ecx, DWORD PTR [edx+24]
  02408	0f 85 5e 01 00
	00		 jne	 $LN3@MonsterIte
$LN6@MonsterIte:

; 899  : 					{
; 900  : 						if ( this->GetQuestState(lpTarget, lpQuestInfo->QuestIndex) == TRUE )

  0240e	8b 45 e0	 mov	 eax, DWORD PTR _lpQuestInfo$[ebp]
  02411	8b 48 34	 mov	 ecx, DWORD PTR [eax+52]
  02414	51		 push	 ecx
  02415	8b 55 ec	 mov	 edx, DWORD PTR _lpTarget$[ebp]
  02418	52		 push	 edx
  02419	8b 4d fc	 mov	 ecx, DWORD PTR _this$[ebp]
  0241c	e8 00 00 00 00	 call	 ?GetQuestState@CQuestInfo@@QAEHPAUOBJECTSTRUCT@@H@Z ; CQuestInfo::GetQuestState
  02421	83 f8 01	 cmp	 eax, 1
  02424	0f 85 42 01 00
	00		 jne	 $LN3@MonsterIte

; 901  : 						{
; 902  : 							if ( (rand() % ITEM_QUEST_DROP_PROBABILITY) < lpSubInfo->NeedDropRate)

  0242a	e8 00 00 00 00	 call	 _rand
  0242f	99		 cdq
  02430	b9 e8 03 00 00	 mov	 ecx, 1000		; 000003e8H
  02435	f7 f9		 idiv	 ecx
  02437	8b 45 dc	 mov	 eax, DWORD PTR _lpSubInfo$[ebp]
  0243a	3b 50 1c	 cmp	 edx, DWORD PTR [eax+28]
  0243d	0f 8d 29 01 00
	00		 jge	 $LN3@MonsterIte

; 903  : 							{
; 904  : 									int itemcount = gObjGetItemCountInIventory(MaxHitUser, lpSubInfo->NeedType,
; 905  : 										lpSubInfo->NeedSubType, lpSubInfo->ItemLevel);

  02443	8b 45 dc	 mov	 eax, DWORD PTR _lpSubInfo$[ebp]
  02446	8b 48 0c	 mov	 ecx, DWORD PTR [eax+12]
  02449	51		 push	 ecx
  0244a	8b 55 dc	 mov	 edx, DWORD PTR _lpSubInfo$[ebp]
  0244d	8b 42 08	 mov	 eax, DWORD PTR [edx+8]
  02450	50		 push	 eax
  02451	8b 4d dc	 mov	 ecx, DWORD PTR _lpSubInfo$[ebp]
  02454	8b 51 04	 mov	 edx, DWORD PTR [ecx+4]
  02457	52		 push	 edx
  02458	8b 45 f8	 mov	 eax, DWORD PTR _MaxHitUser$[ebp]
  0245b	50		 push	 eax
  0245c	e8 00 00 00 00	 call	 ?gObjGetItemCountInIventory@@YAHHHHH@Z ; gObjGetItemCountInIventory
  02461	83 c4 10	 add	 esp, 16			; 00000010H
  02464	89 45 b0	 mov	 DWORD PTR _itemcount$231845[ebp], eax

; 906  : 
; 907  : 									if ( itemcount >= lpSubInfo->NeedNumber)

  02467	8b 45 dc	 mov	 eax, DWORD PTR _lpSubInfo$[ebp]
  0246a	8b 4d b0	 mov	 ecx, DWORD PTR _itemcount$231845[ebp]
  0246d	3b 48 10	 cmp	 ecx, DWORD PTR [eax+16]
  02470	7c 05		 jl	 SHORT $LN2@MonsterIte

; 908  : 									{
; 909  : 										continue;

  02472	e9 02 ff ff ff	 jmp	 $LN11@MonsterIte
$LN2@MonsterIte:

; 910  : 									}
; 911  : 
; 912  : 									dur = 0;

  02477	d9 ee		 fldz
  02479	d9 5d c8	 fstp	 DWORD PTR _dur$[ebp]

; 913  : 									x = lpObj->X;

  0247c	8b 45 08	 mov	 eax, DWORD PTR _lpObj$[ebp]
  0247f	0f bf 88 44 01
	00 00		 movsx	 ecx, WORD PTR [eax+324]
  02486	89 4d d0	 mov	 DWORD PTR _x$[ebp], ecx

; 914  : 									y = lpObj->Y;

  02489	8b 45 08	 mov	 eax, DWORD PTR _lpObj$[ebp]
  0248c	0f bf 88 46 01
	00 00		 movsx	 ecx, WORD PTR [eax+326]
  02493	89 4d cc	 mov	 DWORD PTR _y$[ebp], ecx

; 915  : 									level = lpSubInfo->ItemLevel;

  02496	8b 45 dc	 mov	 eax, DWORD PTR _lpSubInfo$[ebp]
  02499	8b 48 0c	 mov	 ecx, DWORD PTR [eax+12]
  0249c	89 4d d4	 mov	 DWORD PTR _level$[ebp], ecx

; 916  : 									type = ItemGetNumberMake(lpSubInfo->NeedType, lpSubInfo->NeedSubType);

  0249f	8b 45 dc	 mov	 eax, DWORD PTR _lpSubInfo$[ebp]
  024a2	8b 48 08	 mov	 ecx, DWORD PTR [eax+8]
  024a5	51		 push	 ecx
  024a6	8b 55 dc	 mov	 edx, DWORD PTR _lpSubInfo$[ebp]
  024a9	8b 42 04	 mov	 eax, DWORD PTR [edx+4]
  024ac	50		 push	 eax
  024ad	e8 00 00 00 00	 call	 ?ItemGetNumberMake@@YAHHH@Z ; ItemGetNumberMake
  024b2	83 c4 08	 add	 esp, 8
  024b5	89 45 d8	 mov	 DWORD PTR _type$[ebp], eax

; 917  : 									ItemSerialCreateSend(lpObj->m_Index, lpObj->MapNumber, x, y, type, level, dur, Option1,	Option2, Option3, MaxHitUser, 0, 0);

  024b8	6a 00		 push	 0
  024ba	6a 00		 push	 0
  024bc	8b 45 f8	 mov	 eax, DWORD PTR _MaxHitUser$[ebp]
  024bf	50		 push	 eax
  024c0	0f b6 4d bc	 movzx	 ecx, BYTE PTR _Option3$[ebp]
  024c4	51		 push	 ecx
  024c5	0f b6 55 c0	 movzx	 edx, BYTE PTR _Option2$[ebp]
  024c9	52		 push	 edx
  024ca	0f b6 45 c4	 movzx	 eax, BYTE PTR _Option1$[ebp]
  024ce	50		 push	 eax
  024cf	d9 45 c8	 fld	 DWORD PTR _dur$[ebp]
  024d2	d9 bd 6e ff ff
	ff		 fnstcw	 WORD PTR tv272[ebp]
  024d8	0f b7 85 6e ff
	ff ff		 movzx	 eax, WORD PTR tv272[ebp]
  024df	0d 00 0c 00 00	 or	 eax, 3072		; 00000c00H
  024e4	89 85 68 ff ff
	ff		 mov	 DWORD PTR tv275[ebp], eax
  024ea	d9 ad 68 ff ff
	ff		 fldcw	 WORD PTR tv275[ebp]
  024f0	db 9d 64 ff ff
	ff		 fistp	 DWORD PTR tv277[ebp]
  024f6	d9 ad 6e ff ff
	ff		 fldcw	 WORD PTR tv272[ebp]
  024fc	0f b6 8d 64 ff
	ff ff		 movzx	 ecx, BYTE PTR tv277[ebp]
  02503	51		 push	 ecx
  02504	0f b6 55 d4	 movzx	 edx, BYTE PTR _level$[ebp]
  02508	52		 push	 edx
  02509	8b 45 d8	 mov	 eax, DWORD PTR _type$[ebp]
  0250c	50		 push	 eax
  0250d	0f b6 4d cc	 movzx	 ecx, BYTE PTR _y$[ebp]
  02511	51		 push	 ecx
  02512	0f b6 55 d0	 movzx	 edx, BYTE PTR _x$[ebp]
  02516	52		 push	 edx
  02517	8b 45 08	 mov	 eax, DWORD PTR _lpObj$[ebp]
  0251a	0f b6 88 49 01
	00 00		 movzx	 ecx, BYTE PTR [eax+329]
  02521	51		 push	 ecx
  02522	8b 55 08	 mov	 edx, DWORD PTR _lpObj$[ebp]
  02525	8b 02		 mov	 eax, DWORD PTR [edx]
  02527	50		 push	 eax
  02528	e8 00 00 00 00	 call	 ?ItemSerialCreateSend@@YAXHEEEHEEEEEHEE@Z ; ItemSerialCreateSend
  0252d	83 c4 34	 add	 esp, 52			; 00000034H

; 918  : 									LogAddTD("[Quest] Quest Item Drop [%s]: [%s][%s] (%s) (%d,%d)", lpObj->Name, lpTarget->AccountID, lpTarget->Name, lpQuestInfo->Name, lpSubInfo->NeedType, lpSubInfo->NeedSubType);

  02530	8b 45 dc	 mov	 eax, DWORD PTR _lpSubInfo$[ebp]
  02533	8b 48 08	 mov	 ecx, DWORD PTR [eax+8]
  02536	51		 push	 ecx
  02537	8b 55 dc	 mov	 edx, DWORD PTR _lpSubInfo$[ebp]
  0253a	8b 42 04	 mov	 eax, DWORD PTR [edx+4]
  0253d	50		 push	 eax
  0253e	8b 4d e0	 mov	 ecx, DWORD PTR _lpQuestInfo$[ebp]
  02541	51		 push	 ecx
  02542	8b 55 ec	 mov	 edx, DWORD PTR _lpTarget$[ebp]
  02545	83 c2 77	 add	 edx, 119		; 00000077H
  02548	52		 push	 edx
  02549	8b 45 ec	 mov	 eax, DWORD PTR _lpTarget$[ebp]
  0254c	83 c0 6c	 add	 eax, 108		; 0000006cH
  0254f	50		 push	 eax
  02550	8b 4d 08	 mov	 ecx, DWORD PTR _lpObj$[ebp]
  02553	83 c1 77	 add	 ecx, 119		; 00000077H
  02556	51		 push	 ecx
  02557	68 00 00 00 00	 push	 OFFSET ??_C@_0DE@CLGCKBPA@?$FLQuest?$FN?5Quest?5Item?5Drop?5?$FL?$CFs?$FN?3?5?$FL?$CF@
  0255c	ff 15 00 00 00
	00		 call	 DWORD PTR ?LogAddTD@@3P6AXPADZZA ; LogAddTD
  02562	83 c4 1c	 add	 esp, 28			; 0000001cH

; 919  : 									return true;

  02565	b8 01 00 00 00	 mov	 eax, 1
  0256a	eb 1f		 jmp	 SHORT $LN19@MonsterIte
$LN3@MonsterIte:

; 920  : 							}
; 921  : 						}
; 922  : 					}
; 923  : 				}
; 924  : 			}
; 925  : 		}

  0256c	e9 08 fe ff ff	 jmp	 $LN11@MonsterIte
$LN10@MonsterIte:

; 926  : 
; 927  : 		foundquest++;

  02571	8b 45 e4	 mov	 eax, DWORD PTR _foundquest$[ebp]
  02574	83 c0 01	 add	 eax, 1
  02577	89 45 e4	 mov	 DWORD PTR _foundquest$[ebp], eax

; 928  : 
; 929  : 		if ( foundquest == questcount )

  0257a	8b 45 e4	 mov	 eax, DWORD PTR _foundquest$[ebp]
  0257d	3b 45 e8	 cmp	 eax, DWORD PTR _questcount$[ebp]
  02580	75 02		 jne	 SHORT $LN1@MonsterIte

; 930  : 		{
; 931  : 			break;

  02582	eb 05		 jmp	 SHORT $LN14@MonsterIte
$LN1@MonsterIte:

; 932  : 		}
; 933  : 	}

  02584	e9 ba fd ff ff	 jmp	 $LN15@MonsterIte
$LN14@MonsterIte:

; 934  : 
; 935  : 	return false;

  02589	33 c0		 xor	 eax, eax
$LN19@MonsterIte:

; 936  : }

  0258b	5f		 pop	 edi
  0258c	5e		 pop	 esi
  0258d	5b		 pop	 ebx
  0258e	8b e5		 mov	 esp, ebp
  02590	5d		 pop	 ebp
  02591	c2 04 00	 ret	 4
?MonsterItemDrop@CQuestInfo@@QAEHPAUOBJECTSTRUCT@@@Z ENDP ; CQuestInfo::MonsterItemDrop
_TEXT	ENDS
PUBLIC	??_C@_0DL@ODHGIMOD@?$FLQuest?$FN?5Quest?5Item?5Drop?$CIParty?$CJ?5?$FL@ ; `string'
;	COMDAT ??_C@_0DL@ODHGIMOD@?$FLQuest?$FN?5Quest?5Item?5Drop?$CIParty?$CJ?5?$FL@
CONST	SEGMENT
??_C@_0DL@ODHGIMOD@?$FLQuest?$FN?5Quest?5Item?5Drop?$CIParty?$CJ?5?$FL@ DB '['
	DB	'Quest] Quest Item Drop(Party) [%s]: [%s][%s] (%s) (%d,%d)', 00H ; `string'
; Function compile flags: /Odtp /ZI
CONST	ENDS
_TEXT	SEGMENT
tv257 = -152						; size = 4
tv255 = -148						; size = 4
tv252 = -142						; size = 2
_j$ = -76						; size = 4
_i$ = -72						; size = 4
_n$ = -68						; size = 4
_loc16$ = -64						; size = 4
_LocalPartyNumber$ = -60				; size = 4
_TargetPartyNumber$ = -56				; size = 4
_Option3$ = -52						; size = 4
_Option2$ = -48						; size = 4
_Option1$ = -44						; size = 4
_dur$ = -40						; size = 4
_y$ = -36						; size = 4
_x$ = -32						; size = 4
_level$ = -28						; size = 4
_type$ = -24						; size = 4
_lpSubInfo$ = -20					; size = 4
_lpQuestInfo$ = -16					; size = 4
_foundquest$ = -12					; size = 4
_questcount$ = -8					; size = 4
_this$ = -4						; size = 4
_lpObj$ = 8						; size = 4
_lpTargetObj$ = 12					; size = 4
?MonsterItemDropParty@CQuestInfo@@QAEHPAUOBJECTSTRUCT@@0@Z PROC ; CQuestInfo::MonsterItemDropParty
; _this$ = ecx

; 939  : {

  025a0	55		 push	 ebp
  025a1	8b ec		 mov	 ebp, esp
  025a3	81 ec 98 00 00
	00		 sub	 esp, 152		; 00000098H
  025a9	53		 push	 ebx
  025aa	56		 push	 esi
  025ab	57		 push	 edi
  025ac	89 4d fc	 mov	 DWORD PTR _this$[ebp], ecx

; 940  : 	int questcount = this->GetQeustCount(); //loc1

  025af	8b 4d fc	 mov	 ecx, DWORD PTR _this$[ebp]
  025b2	e8 00 00 00 00	 call	 ?GetQeustCount@CQuestInfo@@QAEHXZ ; CQuestInfo::GetQeustCount
  025b7	89 45 f8	 mov	 DWORD PTR _questcount$[ebp], eax

; 941  : 	int foundquest = 0; //loc2

  025ba	c7 45 f4 00 00
	00 00		 mov	 DWORD PTR _foundquest$[ebp], 0

; 942  : 	LPQUEST_INFO lpQuestInfo;
; 943  : 	LPQUEST_SUB_INFO lpSubInfo;
; 944  : 	int type;
; 945  : 	int level;
; 946  : 	int x;
; 947  : 	int y;
; 948  : 	float dur = 0; //loc10

  025c1	d9 ee		 fldz
  025c3	d9 5d d8	 fstp	 DWORD PTR _dur$[ebp]

; 949  : 	int Option1 = 0; //loc11

  025c6	c7 45 d4 00 00
	00 00		 mov	 DWORD PTR _Option1$[ebp], 0

; 950  : 	int Option2 = 0; //loc12

  025cd	c7 45 d0 00 00
	00 00		 mov	 DWORD PTR _Option2$[ebp], 0

; 951  : 	int Option3 = 0; //loc13

  025d4	c7 45 cc 00 00
	00 00		 mov	 DWORD PTR _Option3$[ebp], 0

; 952  : 	int TargetPartyNumber = lpTargetObj->PartyNumber; //loc14

  025db	8b 45 0c	 mov	 eax, DWORD PTR _lpTargetObj$[ebp]
  025de	8b 88 2c 04 00
	00		 mov	 ecx, DWORD PTR [eax+1068]
  025e4	89 4d c8	 mov	 DWORD PTR _TargetPartyNumber$[ebp], ecx

; 953  : 	int LocalPartyNumber; //loc15
; 954  : 
; 955  : 	if(TargetPartyNumber < 0)

  025e7	83 7d c8 00	 cmp	 DWORD PTR _TargetPartyNumber$[ebp], 0
  025eb	7d 07		 jge	 SHORT $LN21@MonsterIte@2

; 956  : 	{
; 957  : 		return false;

  025ed	33 c0		 xor	 eax, eax
  025ef	e9 92 02 00 00	 jmp	 $LN22@MonsterIte@2
$LN21@MonsterIte@2:

; 958  : 	}
; 959  : 
; 960  : 	LPOBJ loc16; //loc16
; 961  : 
; 962  : 	int n; //loc17
; 963  : 	int i; //loc18
; 964  : 	int j; //loc19
; 965  : 
; 966  : 	for ( n=0;n<MAX_USER_IN_PARTY;n++)

  025f4	c7 45 bc 00 00
	00 00		 mov	 DWORD PTR _n$[ebp], 0
  025fb	eb 09		 jmp	 SHORT $LN20@MonsterIte@2
$LN19@MonsterIte@2:
  025fd	8b 45 bc	 mov	 eax, DWORD PTR _n$[ebp]
  02600	83 c0 01	 add	 eax, 1
  02603	89 45 bc	 mov	 DWORD PTR _n$[ebp], eax
$LN20@MonsterIte@2:
  02606	83 7d bc 0a	 cmp	 DWORD PTR _n$[ebp], 10	; 0000000aH
  0260a	0f 8d 74 02 00
	00		 jge	 $LN18@MonsterIte@2

; 967  : 	{
; 968  : 		LocalPartyNumber = gParty.m_PartyS[TargetPartyNumber].Number[n];

  02610	8b 45 c8	 mov	 eax, DWORD PTR _TargetPartyNumber$[ebp]
  02613	6b c0 6c	 imul	 eax, 108		; 0000006cH
  02616	8b 4d bc	 mov	 ecx, DWORD PTR _n$[ebp]
  02619	8b 94 88 0c 00
	00 00		 mov	 edx, DWORD PTR ?gParty@@3VPartyClass@@A[eax+ecx*4+12]
  02620	89 55 c4	 mov	 DWORD PTR _LocalPartyNumber$[ebp], edx

; 969  : 
; 970  : 		if(LocalPartyNumber < 0)

  02623	83 7d c4 00	 cmp	 DWORD PTR _LocalPartyNumber$[ebp], 0
  02627	7d 02		 jge	 SHORT $LN17@MonsterIte@2

; 971  : 		{
; 972  : 			continue;

  02629	eb d2		 jmp	 SHORT $LN19@MonsterIte@2
$LN17@MonsterIte@2:

; 973  : 		}
; 974  : 
; 975  : 		if (gObj[LocalPartyNumber].MapNumber != lpTargetObj->MapNumber)

  0262b	8b 45 c4	 mov	 eax, DWORD PTR _LocalPartyNumber$[ebp]
  0262e	69 c0 38 2b 00
	00		 imul	 eax, 11064		; 00002b38H
  02634	8b 0d 00 00 00
	00		 mov	 ecx, DWORD PTR ?gObj@@3PAUOBJECTSTRUCT@@A ; gObj
  0263a	0f b6 94 01 49
	01 00 00	 movzx	 edx, BYTE PTR [ecx+eax+329]
  02642	8b 45 0c	 mov	 eax, DWORD PTR _lpTargetObj$[ebp]
  02645	0f b6 88 49 01
	00 00		 movzx	 ecx, BYTE PTR [eax+329]
  0264c	3b d1		 cmp	 edx, ecx
  0264e	74 02		 je	 SHORT $LN16@MonsterIte@2

; 976  : 		{
; 977  : 			continue;

  02650	eb ab		 jmp	 SHORT $LN19@MonsterIte@2
$LN16@MonsterIte@2:

; 978  : 		}
; 979  : 
; 980  : 		loc16 = &gObj[LocalPartyNumber];

  02652	8b 45 c4	 mov	 eax, DWORD PTR _LocalPartyNumber$[ebp]
  02655	69 c0 38 2b 00
	00		 imul	 eax, 11064		; 00002b38H
  0265b	03 05 00 00 00
	00		 add	 eax, DWORD PTR ?gObj@@3PAUOBJECTSTRUCT@@A ; gObj
  02661	89 45 c0	 mov	 DWORD PTR _loc16$[ebp], eax

; 981  : 
; 982  : 		for ( i=0;i<MAX_QUEST_INFO;i++)

  02664	c7 45 b8 00 00
	00 00		 mov	 DWORD PTR _i$[ebp], 0
  0266b	eb 09		 jmp	 SHORT $LN15@MonsterIte@2
$LN14@MonsterIte@2:
  0266d	8b 45 b8	 mov	 eax, DWORD PTR _i$[ebp]
  02670	83 c0 01	 add	 eax, 1
  02673	89 45 b8	 mov	 DWORD PTR _i$[ebp], eax
$LN15@MonsterIte@2:
  02676	81 7d b8 c8 00
	00 00		 cmp	 DWORD PTR _i$[ebp], 200	; 000000c8H
  0267d	0f 8d fc 01 00
	00		 jge	 $LN13@MonsterIte@2

; 983  : 		{
; 984  : 			lpQuestInfo = this->GetQuestInfo(i);

  02683	8b 45 b8	 mov	 eax, DWORD PTR _i$[ebp]
  02686	50		 push	 eax
  02687	8b 4d fc	 mov	 ecx, DWORD PTR _this$[ebp]
  0268a	e8 00 00 00 00	 call	 ?GetQuestInfo@CQuestInfo@@QAEPAUQUEST_INFO@@H@Z ; CQuestInfo::GetQuestInfo
  0268f	89 45 f0	 mov	 DWORD PTR _lpQuestInfo$[ebp], eax

; 985  : 
; 986  : 			if ( lpQuestInfo == NULL )

  02692	83 7d f0 00	 cmp	 DWORD PTR _lpQuestInfo$[ebp], 0
  02696	75 02		 jne	 SHORT $LN12@MonsterIte@2

; 987  : 			{
; 988  : 				continue;

  02698	eb d3		 jmp	 SHORT $LN14@MonsterIte@2
$LN12@MonsterIte@2:

; 989  : 			}
; 990  : 
; 991  : 			for ( j=0;j<lpQuestInfo->QuestSubInfoCount;j++)

  0269a	c7 45 b4 00 00
	00 00		 mov	 DWORD PTR _j$[ebp], 0
  026a1	eb 09		 jmp	 SHORT $LN11@MonsterIte@2
$LN10@MonsterIte@2:
  026a3	8b 45 b4	 mov	 eax, DWORD PTR _j$[ebp]
  026a6	83 c0 01	 add	 eax, 1
  026a9	89 45 b4	 mov	 DWORD PTR _j$[ebp], eax
$LN11@MonsterIte@2:
  026ac	8b 45 f0	 mov	 eax, DWORD PTR _lpQuestInfo$[ebp]
  026af	8b 4d b4	 mov	 ecx, DWORD PTR _j$[ebp]
  026b2	3b 48 40	 cmp	 ecx, DWORD PTR [eax+64]
  026b5	0f 8d ac 01 00
	00		 jge	 $LN9@MonsterIte@2

; 992  : 			{
; 993  : 				lpSubInfo = this->GetSubquestInfo(loc16, lpQuestInfo, j);

  026bb	8b 45 b4	 mov	 eax, DWORD PTR _j$[ebp]
  026be	50		 push	 eax
  026bf	8b 4d f0	 mov	 ecx, DWORD PTR _lpQuestInfo$[ebp]
  026c2	51		 push	 ecx
  026c3	8b 55 c0	 mov	 edx, DWORD PTR _loc16$[ebp]
  026c6	52		 push	 edx
  026c7	8b 4d fc	 mov	 ecx, DWORD PTR _this$[ebp]
  026ca	e8 00 00 00 00	 call	 ?GetSubquestInfo@CQuestInfo@@QAEPAUQUEST_SUB_INFO@@PAUOBJECTSTRUCT@@PAUQUEST_INFO@@H@Z ; CQuestInfo::GetSubquestInfo
  026cf	89 45 ec	 mov	 DWORD PTR _lpSubInfo$[ebp], eax

; 994  : 			
; 995  : 				if ( lpSubInfo == NULL )

  026d2	83 7d ec 00	 cmp	 DWORD PTR _lpSubInfo$[ebp], 0
  026d6	75 02		 jne	 SHORT $LN8@MonsterIte@2

; 996  : 				{
; 997  : 					continue;

  026d8	eb c9		 jmp	 SHORT $LN10@MonsterIte@2
$LN8@MonsterIte@2:

; 998  : 				}
; 999  : 				
; 1000 : 				if ( lpSubInfo->QuestType == 1 )

  026da	8b 45 ec	 mov	 eax, DWORD PTR _lpSubInfo$[ebp]
  026dd	83 38 01	 cmp	 DWORD PTR [eax], 1
  026e0	0f 85 7c 01 00
	00		 jne	 $LN2@MonsterIte@2

; 1001 : 				{
; 1002 : 					if( (lpSubInfo->NeedTargetMinLevel > 0) && (lpObj->Level >= lpSubInfo->NeedTargetMinLevel) && (lpObj->Level <= lpSubInfo->NeedTargetMaxLevel) || (lpSubInfo->NeedTargetMinLevel == -1) && (lpObj->Class == lpSubInfo->NeedTargetMaxLevel))

  026e6	8b 45 ec	 mov	 eax, DWORD PTR _lpSubInfo$[ebp]
  026e9	83 78 14 00	 cmp	 DWORD PTR [eax+20], 0
  026ed	7e 24		 jle	 SHORT $LN4@MonsterIte@2
  026ef	8b 45 08	 mov	 eax, DWORD PTR _lpObj$[ebp]
  026f2	0f bf 88 be 00
	00 00		 movsx	 ecx, WORD PTR [eax+190]
  026f9	8b 55 ec	 mov	 edx, DWORD PTR _lpSubInfo$[ebp]
  026fc	3b 4a 14	 cmp	 ecx, DWORD PTR [edx+20]
  026ff	7c 12		 jl	 SHORT $LN4@MonsterIte@2
  02701	8b 45 08	 mov	 eax, DWORD PTR _lpObj$[ebp]
  02704	0f bf 88 be 00
	00 00		 movsx	 ecx, WORD PTR [eax+190]
  0270b	8b 55 ec	 mov	 edx, DWORD PTR _lpSubInfo$[ebp]
  0270e	3b 4a 18	 cmp	 ecx, DWORD PTR [edx+24]
  02711	7e 23		 jle	 SHORT $LN5@MonsterIte@2
$LN4@MonsterIte@2:
  02713	8b 45 ec	 mov	 eax, DWORD PTR _lpSubInfo$[ebp]
  02716	83 78 14 ff	 cmp	 DWORD PTR [eax+20], -1
  0271a	0f 85 42 01 00
	00		 jne	 $LN2@MonsterIte@2
  02720	8b 45 08	 mov	 eax, DWORD PTR _lpObj$[ebp]
  02723	0f b7 88 b8 00
	00 00		 movzx	 ecx, WORD PTR [eax+184]
  0272a	8b 55 ec	 mov	 edx, DWORD PTR _lpSubInfo$[ebp]
  0272d	3b 4a 18	 cmp	 ecx, DWORD PTR [edx+24]
  02730	0f 85 2c 01 00
	00		 jne	 $LN2@MonsterIte@2
$LN5@MonsterIte@2:

; 1003 : 					{
; 1004 : 						if ( this->GetQuestState(loc16, lpQuestInfo->QuestIndex) == TRUE )

  02736	8b 45 f0	 mov	 eax, DWORD PTR _lpQuestInfo$[ebp]
  02739	8b 48 34	 mov	 ecx, DWORD PTR [eax+52]
  0273c	51		 push	 ecx
  0273d	8b 55 c0	 mov	 edx, DWORD PTR _loc16$[ebp]
  02740	52		 push	 edx
  02741	8b 4d fc	 mov	 ecx, DWORD PTR _this$[ebp]
  02744	e8 00 00 00 00	 call	 ?GetQuestState@CQuestInfo@@QAEHPAUOBJECTSTRUCT@@H@Z ; CQuestInfo::GetQuestState
  02749	83 f8 01	 cmp	 eax, 1
  0274c	0f 85 10 01 00
	00		 jne	 $LN2@MonsterIte@2

; 1005 : 						{
; 1006 : 							if ( (rand() % ITEM_QUEST_DROP_PROBABILITY) < lpSubInfo->NeedDropRate)

  02752	e8 00 00 00 00	 call	 _rand
  02757	99		 cdq
  02758	b9 e8 03 00 00	 mov	 ecx, 1000		; 000003e8H
  0275d	f7 f9		 idiv	 ecx
  0275f	8b 45 ec	 mov	 eax, DWORD PTR _lpSubInfo$[ebp]
  02762	3b 50 1c	 cmp	 edx, DWORD PTR [eax+28]
  02765	0f 8d f7 00 00
	00		 jge	 $LN2@MonsterIte@2

; 1007 : 							{
; 1008 : 								dur = 0;

  0276b	d9 ee		 fldz
  0276d	d9 5d d8	 fstp	 DWORD PTR _dur$[ebp]

; 1009 : 								x = lpTargetObj->X;

  02770	8b 45 0c	 mov	 eax, DWORD PTR _lpTargetObj$[ebp]
  02773	0f bf 88 44 01
	00 00		 movsx	 ecx, WORD PTR [eax+324]
  0277a	89 4d e0	 mov	 DWORD PTR _x$[ebp], ecx

; 1010 : 								y = lpTargetObj->Y;

  0277d	8b 45 0c	 mov	 eax, DWORD PTR _lpTargetObj$[ebp]
  02780	0f bf 88 46 01
	00 00		 movsx	 ecx, WORD PTR [eax+326]
  02787	89 4d dc	 mov	 DWORD PTR _y$[ebp], ecx

; 1011 : 								level = lpSubInfo->ItemLevel;

  0278a	8b 45 ec	 mov	 eax, DWORD PTR _lpSubInfo$[ebp]
  0278d	8b 48 0c	 mov	 ecx, DWORD PTR [eax+12]
  02790	89 4d e4	 mov	 DWORD PTR _level$[ebp], ecx

; 1012 : 								type = ItemGetNumberMake(lpSubInfo->NeedType, lpSubInfo->NeedSubType);

  02793	8b 45 ec	 mov	 eax, DWORD PTR _lpSubInfo$[ebp]
  02796	8b 48 08	 mov	 ecx, DWORD PTR [eax+8]
  02799	51		 push	 ecx
  0279a	8b 55 ec	 mov	 edx, DWORD PTR _lpSubInfo$[ebp]
  0279d	8b 42 04	 mov	 eax, DWORD PTR [edx+4]
  027a0	50		 push	 eax
  027a1	e8 00 00 00 00	 call	 ?ItemGetNumberMake@@YAHHH@Z ; ItemGetNumberMake
  027a6	83 c4 08	 add	 esp, 8
  027a9	89 45 e8	 mov	 DWORD PTR _type$[ebp], eax

; 1013 : 								ItemSerialCreateSend(lpTargetObj->m_Index, lpTargetObj->MapNumber, x, y, type, level, dur, Option1, Option2, Option3, lpTargetObj->m_Index, 0, 0);

  027ac	6a 00		 push	 0
  027ae	6a 00		 push	 0
  027b0	8b 45 0c	 mov	 eax, DWORD PTR _lpTargetObj$[ebp]
  027b3	8b 08		 mov	 ecx, DWORD PTR [eax]
  027b5	51		 push	 ecx
  027b6	0f b6 55 cc	 movzx	 edx, BYTE PTR _Option3$[ebp]
  027ba	52		 push	 edx
  027bb	0f b6 45 d0	 movzx	 eax, BYTE PTR _Option2$[ebp]
  027bf	50		 push	 eax
  027c0	0f b6 4d d4	 movzx	 ecx, BYTE PTR _Option1$[ebp]
  027c4	51		 push	 ecx
  027c5	d9 45 d8	 fld	 DWORD PTR _dur$[ebp]
  027c8	d9 bd 72 ff ff
	ff		 fnstcw	 WORD PTR tv252[ebp]
  027ce	0f b7 85 72 ff
	ff ff		 movzx	 eax, WORD PTR tv252[ebp]
  027d5	0d 00 0c 00 00	 or	 eax, 3072		; 00000c00H
  027da	89 85 6c ff ff
	ff		 mov	 DWORD PTR tv255[ebp], eax
  027e0	d9 ad 6c ff ff
	ff		 fldcw	 WORD PTR tv255[ebp]
  027e6	db 9d 68 ff ff
	ff		 fistp	 DWORD PTR tv257[ebp]
  027ec	d9 ad 72 ff ff
	ff		 fldcw	 WORD PTR tv252[ebp]
  027f2	0f b6 95 68 ff
	ff ff		 movzx	 edx, BYTE PTR tv257[ebp]
  027f9	52		 push	 edx
  027fa	0f b6 45 e4	 movzx	 eax, BYTE PTR _level$[ebp]
  027fe	50		 push	 eax
  027ff	8b 4d e8	 mov	 ecx, DWORD PTR _type$[ebp]
  02802	51		 push	 ecx
  02803	0f b6 55 dc	 movzx	 edx, BYTE PTR _y$[ebp]
  02807	52		 push	 edx
  02808	0f b6 45 e0	 movzx	 eax, BYTE PTR _x$[ebp]
  0280c	50		 push	 eax
  0280d	8b 4d 0c	 mov	 ecx, DWORD PTR _lpTargetObj$[ebp]
  02810	0f b6 91 49 01
	00 00		 movzx	 edx, BYTE PTR [ecx+329]
  02817	52		 push	 edx
  02818	8b 45 0c	 mov	 eax, DWORD PTR _lpTargetObj$[ebp]
  0281b	8b 08		 mov	 ecx, DWORD PTR [eax]
  0281d	51		 push	 ecx
  0281e	e8 00 00 00 00	 call	 ?ItemSerialCreateSend@@YAXHEEEHEEEEEHEE@Z ; ItemSerialCreateSend
  02823	83 c4 34	 add	 esp, 52			; 00000034H

; 1014 : 								LogAddTD("[Quest] Quest Item Drop(Party) [%s]: [%s][%s] (%s) (%d,%d)", lpObj->Name,	lpTargetObj->AccountID, lpTargetObj->Name, lpQuestInfo->Name, lpSubInfo->NeedType, lpSubInfo->NeedSubType);

  02826	8b 45 ec	 mov	 eax, DWORD PTR _lpSubInfo$[ebp]
  02829	8b 48 08	 mov	 ecx, DWORD PTR [eax+8]
  0282c	51		 push	 ecx
  0282d	8b 55 ec	 mov	 edx, DWORD PTR _lpSubInfo$[ebp]
  02830	8b 42 04	 mov	 eax, DWORD PTR [edx+4]
  02833	50		 push	 eax
  02834	8b 4d f0	 mov	 ecx, DWORD PTR _lpQuestInfo$[ebp]
  02837	51		 push	 ecx
  02838	8b 55 0c	 mov	 edx, DWORD PTR _lpTargetObj$[ebp]
  0283b	83 c2 77	 add	 edx, 119		; 00000077H
  0283e	52		 push	 edx
  0283f	8b 45 0c	 mov	 eax, DWORD PTR _lpTargetObj$[ebp]
  02842	83 c0 6c	 add	 eax, 108		; 0000006cH
  02845	50		 push	 eax
  02846	8b 4d 08	 mov	 ecx, DWORD PTR _lpObj$[ebp]
  02849	83 c1 77	 add	 ecx, 119		; 00000077H
  0284c	51		 push	 ecx
  0284d	68 00 00 00 00	 push	 OFFSET ??_C@_0DL@ODHGIMOD@?$FLQuest?$FN?5Quest?5Item?5Drop?$CIParty?$CJ?5?$FL@
  02852	ff 15 00 00 00
	00		 call	 DWORD PTR ?LogAddTD@@3P6AXPADZZA ; LogAddTD
  02858	83 c4 1c	 add	 esp, 28			; 0000001cH

; 1015 : 								return true;

  0285b	b8 01 00 00 00	 mov	 eax, 1
  02860	eb 24		 jmp	 SHORT $LN22@MonsterIte@2
$LN2@MonsterIte@2:

; 1016 : 							}
; 1017 : 						}
; 1018 : 					}					
; 1019 : 				}
; 1020 : 			}

  02862	e9 3c fe ff ff	 jmp	 $LN10@MonsterIte@2
$LN9@MonsterIte@2:

; 1021 : 
; 1022 : 			foundquest++;

  02867	8b 45 f4	 mov	 eax, DWORD PTR _foundquest$[ebp]
  0286a	83 c0 01	 add	 eax, 1
  0286d	89 45 f4	 mov	 DWORD PTR _foundquest$[ebp], eax

; 1023 : 
; 1024 : 			if ( foundquest == questcount )

  02870	8b 45 f4	 mov	 eax, DWORD PTR _foundquest$[ebp]
  02873	3b 45 f8	 cmp	 eax, DWORD PTR _questcount$[ebp]
  02876	75 02		 jne	 SHORT $LN1@MonsterIte@2

; 1025 : 			{
; 1026 : 				break;

  02878	eb 05		 jmp	 SHORT $LN13@MonsterIte@2
$LN1@MonsterIte@2:

; 1027 : 			}
; 1028 : 
; 1029 : 		}

  0287a	e9 ee fd ff ff	 jmp	 $LN14@MonsterIte@2
$LN13@MonsterIte@2:

; 1030 : 	}

  0287f	e9 79 fd ff ff	 jmp	 $LN19@MonsterIte@2
$LN18@MonsterIte@2:

; 1031 : 
; 1032 : 	return false;

  02884	33 c0		 xor	 eax, eax
$LN22@MonsterIte@2:

; 1033 : }

  02886	5f		 pop	 edi
  02887	5e		 pop	 esi
  02888	5b		 pop	 ebx
  02889	8b e5		 mov	 esp, ebp
  0288b	5d		 pop	 ebp
  0288c	c2 08 00	 ret	 8
?MonsterItemDropParty@CQuestInfo@@QAEHPAUOBJECTSTRUCT@@0@Z ENDP ; CQuestInfo::MonsterItemDropParty
_TEXT	ENDS
PUBLIC	??_C@_0DM@DEIPHGLI@?$FLQuest?$FN?5Quest?5Accept?5?9?5MonsterKi@ ; `string'
EXTRN	?GCMoneySend@@YAXHK@Z:PROC			; GCMoneySend
;	COMDAT ??_C@_0DM@DEIPHGLI@?$FLQuest?$FN?5Quest?5Accept?5?9?5MonsterKi@
CONST	SEGMENT
??_C@_0DM@DEIPHGLI@?$FLQuest?$FN?5Quest?5Accept?5?9?5MonsterKi@ DB '[Ques'
	DB	't] Quest Accept - MonsterKillCount Set (%s) : [%s][%s]', 00H ; `string'
; Function compile flags: /Odtp /ZI
CONST	ENDS
_TEXT	SEGMENT
_n$231920 = -40						; size = 4
_n$231911 = -36						; size = 4
_subquest$231906 = -32					; size = 4
_NeedZen$ = -28						; size = 4
_lpCondition$ = -24					; size = 4
_lpSubInfo$ = -20					; size = 4
_concount$ = -16					; size = 4
_subquestcount$ = -12					; size = 4
_lpQuestInfo$ = -8					; size = 4
_this$ = -4						; size = 4
_lpObj$ = 8						; size = 4
_QuestIndex$ = 12					; size = 4
?QuestAccept@CQuestInfo@@QAEHPAUOBJECTSTRUCT@@H@Z PROC	; CQuestInfo::QuestAccept
; _this$ = ecx

; 1036 : {

  02890	55		 push	 ebp
  02891	8b ec		 mov	 ebp, esp
  02893	83 ec 68	 sub	 esp, 104		; 00000068H
  02896	53		 push	 ebx
  02897	56		 push	 esi
  02898	57		 push	 edi
  02899	89 4d fc	 mov	 DWORD PTR _this$[ebp], ecx

; 1037 : 	LPQUEST_INFO lpQuestInfo = this->GetQuestInfo(QuestIndex);

  0289c	8b 45 0c	 mov	 eax, DWORD PTR _QuestIndex$[ebp]
  0289f	50		 push	 eax
  028a0	8b 4d fc	 mov	 ecx, DWORD PTR _this$[ebp]
  028a3	e8 00 00 00 00	 call	 ?GetQuestInfo@CQuestInfo@@QAEPAUQUEST_INFO@@H@Z ; CQuestInfo::GetQuestInfo
  028a8	89 45 f8	 mov	 DWORD PTR _lpQuestInfo$[ebp], eax

; 1038 : 
; 1039 : 	if ( lpQuestInfo == NULL )

  028ab	83 7d f8 00	 cmp	 DWORD PTR _lpQuestInfo$[ebp], 0
  028af	75 0a		 jne	 SHORT $LN17@QuestAccep

; 1040 : 	{
; 1041 : 		return 0xFF;

  028b1	b8 ff 00 00 00	 mov	 eax, 255		; 000000ffH
  028b6	e9 90 01 00 00	 jmp	 $LN18@QuestAccep
$LN17@QuestAccep:

; 1042 : 	}
; 1043 : 
; 1044 : 	int subquestcount = lpQuestInfo->QuestSubInfoCount;

  028bb	8b 45 f8	 mov	 eax, DWORD PTR _lpQuestInfo$[ebp]
  028be	8b 48 40	 mov	 ecx, DWORD PTR [eax+64]
  028c1	89 4d f4	 mov	 DWORD PTR _subquestcount$[ebp], ecx

; 1045 : 	int concount = lpQuestInfo->QuestConditionCount;

  028c4	8b 45 f8	 mov	 eax, DWORD PTR _lpQuestInfo$[ebp]
  028c7	8b 88 14 03 00
	00		 mov	 ecx, DWORD PTR [eax+788]
  028cd	89 4d f0	 mov	 DWORD PTR _concount$[ebp], ecx

; 1046 : 	LPQUEST_SUB_INFO lpSubInfo;
; 1047 : 	LPQUEST_CONDITION lpCondition;
; 1048 : 	int NeedZen = 0;

  028d0	c7 45 e4 00 00
	00 00		 mov	 DWORD PTR _NeedZen$[ebp], 0

; 1049 : 
; 1050 : 	for ( int subquest=0;subquest<subquestcount;subquest++)

  028d7	c7 45 e0 00 00
	00 00		 mov	 DWORD PTR _subquest$231906[ebp], 0
  028de	eb 09		 jmp	 SHORT $LN16@QuestAccep
$LN15@QuestAccep:
  028e0	8b 45 e0	 mov	 eax, DWORD PTR _subquest$231906[ebp]
  028e3	83 c0 01	 add	 eax, 1
  028e6	89 45 e0	 mov	 DWORD PTR _subquest$231906[ebp], eax
$LN16@QuestAccep:
  028e9	8b 45 e0	 mov	 eax, DWORD PTR _subquest$231906[ebp]
  028ec	3b 45 f4	 cmp	 eax, DWORD PTR _subquestcount$[ebp]
  028ef	0f 8d 24 01 00
	00		 jge	 $LN14@QuestAccep

; 1051 : 	{
; 1052 : 		lpSubInfo = this->GetSubquestInfo(lpObj, lpQuestInfo, subquest);

  028f5	8b 45 e0	 mov	 eax, DWORD PTR _subquest$231906[ebp]
  028f8	50		 push	 eax
  028f9	8b 4d f8	 mov	 ecx, DWORD PTR _lpQuestInfo$[ebp]
  028fc	51		 push	 ecx
  028fd	8b 55 08	 mov	 edx, DWORD PTR _lpObj$[ebp]
  02900	52		 push	 edx
  02901	8b 4d fc	 mov	 ecx, DWORD PTR _this$[ebp]
  02904	e8 00 00 00 00	 call	 ?GetSubquestInfo@CQuestInfo@@QAEPAUQUEST_SUB_INFO@@PAUOBJECTSTRUCT@@PAUQUEST_INFO@@H@Z ; CQuestInfo::GetSubquestInfo
  02909	89 45 ec	 mov	 DWORD PTR _lpSubInfo$[ebp], eax

; 1053 : 
; 1054 : 		if ( lpSubInfo != NULL )

  0290c	83 7d ec 00	 cmp	 DWORD PTR _lpSubInfo$[ebp], 0
  02910	0f 84 fe 00 00
	00		 je	 $LN13@QuestAccep

; 1055 : 		{
; 1056 : 			for ( int n = 0;n<concount;n++)

  02916	c7 45 dc 00 00
	00 00		 mov	 DWORD PTR _n$231911[ebp], 0
  0291d	eb 09		 jmp	 SHORT $LN12@QuestAccep
$LN11@QuestAccep:
  0291f	8b 45 dc	 mov	 eax, DWORD PTR _n$231911[ebp]
  02922	83 c0 01	 add	 eax, 1
  02925	89 45 dc	 mov	 DWORD PTR _n$231911[ebp], eax
$LN12@QuestAccep:
  02928	8b 45 dc	 mov	 eax, DWORD PTR _n$231911[ebp]
  0292b	3b 45 f0	 cmp	 eax, DWORD PTR _concount$[ebp]
  0292e	7d 50		 jge	 SHORT $LN10@QuestAccep

; 1057 : 			{
; 1058 : 				lpCondition = this->GetQuestCondition(lpQuestInfo, n);

  02930	8b 45 dc	 mov	 eax, DWORD PTR _n$231911[ebp]
  02933	50		 push	 eax
  02934	8b 4d f8	 mov	 ecx, DWORD PTR _lpQuestInfo$[ebp]
  02937	51		 push	 ecx
  02938	8b 4d fc	 mov	 ecx, DWORD PTR _this$[ebp]
  0293b	e8 00 00 00 00	 call	 ?GetQuestCondition@CQuestInfo@@QAEPAUQUEST_CONDITION@@PAUQUEST_INFO@@H@Z ; CQuestInfo::GetQuestCondition
  02940	89 45 e8	 mov	 DWORD PTR _lpCondition$[ebp], eax

; 1059 : 
; 1060 : 				if(lpCondition != 0 && lpCondition->Index == -1) //Season 2.5 changed

  02943	83 7d e8 00	 cmp	 DWORD PTR _lpCondition$[ebp], 0
  02947	74 16		 je	 SHORT $LN9@QuestAccep
  02949	8b 45 e8	 mov	 eax, DWORD PTR _lpCondition$[ebp]
  0294c	83 38 ff	 cmp	 DWORD PTR [eax], -1
  0294f	75 0e		 jne	 SHORT $LN9@QuestAccep

; 1061 : 				{
; 1062 : 					NeedZen += lpCondition->NeedZen;

  02951	8b 45 e8	 mov	 eax, DWORD PTR _lpCondition$[ebp]
  02954	8b 4d e4	 mov	 ecx, DWORD PTR _NeedZen$[ebp]
  02957	03 48 14	 add	 ecx, DWORD PTR [eax+20]
  0295a	89 4d e4	 mov	 DWORD PTR _NeedZen$[ebp], ecx
  0295d	eb 1f		 jmp	 SHORT $LN8@QuestAccep
$LN9@QuestAccep:

; 1063 : 				}
; 1064 : 				else if(lpCondition != 0 && (lpCondition->Index == lpSubInfo->LinkConditionIndex)) //season 2.5 add-on

  0295f	83 7d e8 00	 cmp	 DWORD PTR _lpCondition$[ebp], 0
  02963	74 19		 je	 SHORT $LN8@QuestAccep
  02965	8b 45 e8	 mov	 eax, DWORD PTR _lpCondition$[ebp]
  02968	8b 4d ec	 mov	 ecx, DWORD PTR _lpSubInfo$[ebp]
  0296b	8b 10		 mov	 edx, DWORD PTR [eax]
  0296d	3b 51 2c	 cmp	 edx, DWORD PTR [ecx+44]
  02970	75 0c		 jne	 SHORT $LN8@QuestAccep

; 1065 : 				{
; 1066 : 					NeedZen += lpCondition->NeedZen;

  02972	8b 45 e8	 mov	 eax, DWORD PTR _lpCondition$[ebp]
  02975	8b 4d e4	 mov	 ecx, DWORD PTR _NeedZen$[ebp]
  02978	03 48 14	 add	 ecx, DWORD PTR [eax+20]
  0297b	89 4d e4	 mov	 DWORD PTR _NeedZen$[ebp], ecx
$LN8@QuestAccep:

; 1067 : 				}
; 1068 : 			}

  0297e	eb 9f		 jmp	 SHORT $LN11@QuestAccep
$LN10@QuestAccep:

; 1069 : 
; 1070 : 			if(lpSubInfo->QuestType == 2) //season 2.5 add-on

  02980	8b 45 ec	 mov	 eax, DWORD PTR _lpSubInfo$[ebp]
  02983	83 38 02	 cmp	 DWORD PTR [eax], 2
  02986	0f 85 88 00 00
	00		 jne	 $LN13@QuestAccep

; 1071 : 			{
; 1072 : 				if(lpObj->m_i3rdQuestIndex == -1)

  0298c	8b 45 08	 mov	 eax, DWORD PTR _lpObj$[ebp]
  0298f	83 b8 60 10 00
	00 ff		 cmp	 DWORD PTR [eax+4192], -1
  02996	75 0c		 jne	 SHORT $LN5@QuestAccep

; 1073 : 				{
; 1074 : 					lpObj->m_i3rdQuestIndex = QuestIndex;

  02998	8b 45 08	 mov	 eax, DWORD PTR _lpObj$[ebp]
  0299b	8b 4d 0c	 mov	 ecx, DWORD PTR _QuestIndex$[ebp]
  0299e	89 88 60 10 00
	00		 mov	 DWORD PTR [eax+4192], ecx
$LN5@QuestAccep:

; 1075 : 				}
; 1076 : 
; 1077 : 				for ( int n = 0;n<5;n++)

  029a4	c7 45 d8 00 00
	00 00		 mov	 DWORD PTR _n$231920[ebp], 0
  029ab	eb 09		 jmp	 SHORT $LN4@QuestAccep
$LN3@QuestAccep:
  029ad	8b 45 d8	 mov	 eax, DWORD PTR _n$231920[ebp]
  029b0	83 c0 01	 add	 eax, 1
  029b3	89 45 d8	 mov	 DWORD PTR _n$231920[ebp], eax
$LN4@QuestAccep:
  029b6	83 7d d8 05	 cmp	 DWORD PTR _n$231920[ebp], 5
  029ba	7d 38		 jge	 SHORT $LN2@QuestAccep

; 1078 : 				{
; 1079 : 					if(lpObj->MonsterKillInfo[n].MonIndex == -1)

  029bc	8b 45 d8	 mov	 eax, DWORD PTR _n$231920[ebp]
  029bf	8b 4d 08	 mov	 ecx, DWORD PTR _lpObj$[ebp]
  029c2	83 bc c1 64 10
	00 00 ff	 cmp	 DWORD PTR [ecx+eax*8+4196], -1
  029ca	75 26		 jne	 SHORT $LN1@QuestAccep

; 1080 : 					{
; 1081 : 						lpObj->MonsterKillInfo[n].MonIndex = lpSubInfo->NeedType;

  029cc	8b 45 d8	 mov	 eax, DWORD PTR _n$231920[ebp]
  029cf	8b 4d 08	 mov	 ecx, DWORD PTR _lpObj$[ebp]
  029d2	8b 55 ec	 mov	 edx, DWORD PTR _lpSubInfo$[ebp]
  029d5	8b 52 04	 mov	 edx, DWORD PTR [edx+4]
  029d8	89 94 c1 64 10
	00 00		 mov	 DWORD PTR [ecx+eax*8+4196], edx

; 1082 : 						lpObj->MonsterKillInfo[n].KillCount = 0;

  029df	8b 45 d8	 mov	 eax, DWORD PTR _n$231920[ebp]
  029e2	8b 4d 08	 mov	 ecx, DWORD PTR _lpObj$[ebp]
  029e5	c7 84 c1 68 10
	00 00 00 00 00
	00		 mov	 DWORD PTR [ecx+eax*8+4200], 0

; 1083 : 						break;

  029f0	eb 02		 jmp	 SHORT $LN2@QuestAccep
$LN1@QuestAccep:

; 1084 : 					}
; 1085 : 				}

  029f2	eb b9		 jmp	 SHORT $LN3@QuestAccep
$LN2@QuestAccep:

; 1086 : 
; 1087 : 				LogAddTD("[Quest] Quest Accept - MonsterKillCount Set (%s) : [%s][%s]", lpQuestInfo, lpObj->AccountID, lpObj->Name);

  029f4	8b 45 08	 mov	 eax, DWORD PTR _lpObj$[ebp]
  029f7	83 c0 77	 add	 eax, 119		; 00000077H
  029fa	50		 push	 eax
  029fb	8b 4d 08	 mov	 ecx, DWORD PTR _lpObj$[ebp]
  029fe	83 c1 6c	 add	 ecx, 108		; 0000006cH
  02a01	51		 push	 ecx
  02a02	8b 55 f8	 mov	 edx, DWORD PTR _lpQuestInfo$[ebp]
  02a05	52		 push	 edx
  02a06	68 00 00 00 00	 push	 OFFSET ??_C@_0DM@DEIPHGLI@?$FLQuest?$FN?5Quest?5Accept?5?9?5MonsterKi@
  02a0b	ff 15 00 00 00
	00		 call	 DWORD PTR ?LogAddTD@@3P6AXPADZZA ; LogAddTD
  02a11	83 c4 10	 add	 esp, 16			; 00000010H
$LN13@QuestAccep:

; 1088 : 			}
; 1089 : 
; 1090 : 		}
; 1091 : 	}

  02a14	e9 c7 fe ff ff	 jmp	 $LN15@QuestAccep
$LN14@QuestAccep:

; 1092 : 
; 1093 : 	lpObj->Money -= NeedZen;

  02a19	8b 45 08	 mov	 eax, DWORD PTR _lpObj$[ebp]
  02a1c	8b 88 f0 00 00
	00		 mov	 ecx, DWORD PTR [eax+240]
  02a22	2b 4d e4	 sub	 ecx, DWORD PTR _NeedZen$[ebp]
  02a25	8b 55 08	 mov	 edx, DWORD PTR _lpObj$[ebp]
  02a28	89 8a f0 00 00
	00		 mov	 DWORD PTR [edx+240], ecx

; 1094 : 	GCMoneySend(lpObj->m_Index, lpObj->Money);

  02a2e	8b 45 08	 mov	 eax, DWORD PTR _lpObj$[ebp]
  02a31	8b 88 f0 00 00
	00		 mov	 ecx, DWORD PTR [eax+240]
  02a37	51		 push	 ecx
  02a38	8b 55 08	 mov	 edx, DWORD PTR _lpObj$[ebp]
  02a3b	8b 02		 mov	 eax, DWORD PTR [edx]
  02a3d	50		 push	 eax
  02a3e	e8 00 00 00 00	 call	 ?GCMoneySend@@YAXHK@Z	; GCMoneySend
  02a43	83 c4 08	 add	 esp, 8

; 1095 : 	return true;

  02a46	b8 01 00 00 00	 mov	 eax, 1
$LN18@QuestAccep:

; 1096 : }

  02a4b	5f		 pop	 edi
  02a4c	5e		 pop	 esi
  02a4d	5b		 pop	 ebx
  02a4e	8b e5		 mov	 esp, ebp
  02a50	5d		 pop	 ebp
  02a51	c2 08 00	 ret	 8
?QuestAccept@CQuestInfo@@QAEHPAUOBJECTSTRUCT@@H@Z ENDP	; CQuestInfo::QuestAccept
_TEXT	ENDS
PUBLIC	??_C@_0ED@KLNCEAII@?$FLQuest?$FN?5Quest?5Clear?5?$CI?$CFs?$CJ?5?3?5?$FL?$CFs?$FN?$FL@ ; `string'
PUBLIC	??_C@_0DN@GBDKNIEG@?$FLQuest?$FN?5Quest?5Clear?5?9?5MonsterKil@ ; `string'
PUBLIC	??_C@_0DP@MIGJKFOH@?$FLQuest?$FN?5Quest?5Clear?5?$CI?$CFs?$CJ?5?3?5?$FL?$CFs?$FN?$FL@ ; `string'
PUBLIC	??_C@_0CP@JAPDAPMO@?$FLQuest?$FN?5Quest?5Clear?5?$CI?$CFs?$CJ?5?3?5?$FL?$CFs?$FN?$FL@ ; `string'
PUBLIC	??_C@_0DK@CADKKHAN@?$FLQuest?$FN?5Quest?5Clear?5?$CI?$CFs?$CJ?5?3?5?$FL?$CFs?$FN?$FL@ ; `string'
PUBLIC	??_C@_0DA@FJIJPLFD@?$FLQuest?$FN?5Quest?5Clear?5?$CI?$CFs?$CJ?5?3?5?$FL?$CFs?$FN?$FL@ ; `string'
PUBLIC	??_C@_0DK@OGOONICP@?$FLQuest?$FN?5Quest?5Clear?5?$CI?$CFs?$CJ?5?3?5?$FL?$CFs?$FN?$FL@ ; `string'
EXTRN	?gObjDelteItemCountInInventory@@YAXHHHH@Z:PROC	; gObjDelteItemCountInInventory
EXTRN	?gObjMakePreviewCharSet@@YAXH@Z:PROC		; gObjMakePreviewCharSet
EXTRN	?GCSendQuestPrize@@YAXHEE@Z:PROC		; GCSendQuestPrize
EXTRN	?DestroyGIocp@@YAXXZ:PROC			; DestroyGIocp
EXTRN	?szAuthKey@@3PADA:BYTE				; szAuthKey
;	COMDAT ??_C@_0ED@KLNCEAII@?$FLQuest?$FN?5Quest?5Clear?5?$CI?$CFs?$CJ?5?3?5?$FL?$CFs?$FN?$FL@
CONST	SEGMENT
??_C@_0ED@KLNCEAII@?$FLQuest?$FN?5Quest?5Clear?5?$CI?$CFs?$CJ?5?3?5?$FL?$CFs?$FN?$FL@ DB '['
	DB	'Quest] Quest Clear (%s) : [%s][%s] Stat(%d,%d), Class:%d Plus'
	DB	'Stat', 00H					; `string'
CONST	ENDS
;	COMDAT ??_C@_0DN@GBDKNIEG@?$FLQuest?$FN?5Quest?5Clear?5?9?5MonsterKil@
CONST	SEGMENT
??_C@_0DN@GBDKNIEG@?$FLQuest?$FN?5Quest?5Clear?5?9?5MonsterKil@ DB '[Ques'
	DB	't] Quest Clear - MonsterKillCount Reset (%s) : [%s][%s]', 00H ; `string'
CONST	ENDS
;	COMDAT ??_C@_0DP@MIGJKFOH@?$FLQuest?$FN?5Quest?5Clear?5?$CI?$CFs?$CJ?5?3?5?$FL?$CFs?$FN?$FL@
CONST	SEGMENT
??_C@_0DP@MIGJKFOH@?$FLQuest?$FN?5Quest?5Clear?5?$CI?$CFs?$CJ?5?3?5?$FL?$CFs?$FN?$FL@ DB '['
	DB	'Quest] Quest Clear (%s) : [%s][%s] Class:%d(%d), 3rd ChangeUp'
	DB	00H						; `string'
CONST	ENDS
;	COMDAT ??_C@_0CP@JAPDAPMO@?$FLQuest?$FN?5Quest?5Clear?5?$CI?$CFs?$CJ?5?3?5?$FL?$CFs?$FN?$FL@
CONST	SEGMENT
??_C@_0CP@JAPDAPMO@?$FLQuest?$FN?5Quest?5Clear?5?$CI?$CFs?$CJ?5?3?5?$FL?$CFs?$FN?$FL@ DB '['
	DB	'Quest] Quest Clear (%s) : [%s][%s] ComboSkill', 00H ; `string'
CONST	ENDS
;	COMDAT ??_C@_0DK@CADKKHAN@?$FLQuest?$FN?5Quest?5Clear?5?$CI?$CFs?$CJ?5?3?5?$FL?$CFs?$FN?$FL@
CONST	SEGMENT
??_C@_0DK@CADKKHAN@?$FLQuest?$FN?5Quest?5Clear?5?$CI?$CFs?$CJ?5?3?5?$FL?$CFs?$FN?$FL@ DB '['
	DB	'Quest] Quest Clear (%s) : [%s][%s] Stat(%d,%d), PlusStat', 00H ; `string'
CONST	ENDS
;	COMDAT ??_C@_0DA@FJIJPLFD@?$FLQuest?$FN?5Quest?5Clear?5?$CI?$CFs?$CJ?5?3?5?$FL?$CFs?$FN?$FL@
CONST	SEGMENT
??_C@_0DA@FJIJPLFD@?$FLQuest?$FN?5Quest?5Clear?5?$CI?$CFs?$CJ?5?3?5?$FL?$CFs?$FN?$FL@ DB '['
	DB	'Quest] Quest Clear (%s) : [%s][%s] Stat(%d,%d)', 00H ; `string'
CONST	ENDS
;	COMDAT ??_C@_0DK@OGOONICP@?$FLQuest?$FN?5Quest?5Clear?5?$CI?$CFs?$CJ?5?3?5?$FL?$CFs?$FN?$FL@
CONST	SEGMENT
??_C@_0DK@OGOONICP@?$FLQuest?$FN?5Quest?5Clear?5?$CI?$CFs?$CJ?5?3?5?$FL?$CFs?$FN?$FL@ DB '['
	DB	'Quest] Quest Clear (%s) : [%s][%s] Stat(%d,%d), ChangeUp', 00H ; `string'
; Function compile flags: /Odtp /ZI
CONST	ENDS
_TEXT	SEGMENT
_n$231963 = -40						; size = 4
_btClass$231958 = -33					; size = 1
_level$231950 = -32					; size = 4
_btClass$231943 = -25					; size = 1
_subquest$231937 = -24					; size = 4
_lpSubInfo$ = -20					; size = 4
_concount$ = -16					; size = 4
_subquestcount$ = -12					; size = 4
_lpQuestInfo$ = -8					; size = 4
_this$ = -4						; size = 4
_lpObj$ = 8						; size = 4
_QuestIndex$ = 12					; size = 4
?QuestClear@CQuestInfo@@QAEHPAUOBJECTSTRUCT@@H@Z PROC	; CQuestInfo::QuestClear
; _this$ = ecx

; 1099 : {

  02a60	55		 push	 ebp
  02a61	8b ec		 mov	 ebp, esp
  02a63	83 ec 68	 sub	 esp, 104		; 00000068H
  02a66	53		 push	 ebx
  02a67	56		 push	 esi
  02a68	57		 push	 edi
  02a69	89 4d fc	 mov	 DWORD PTR _this$[ebp], ecx

; 1100 : 	LPQUEST_INFO lpQuestInfo = this->GetQuestInfo(QuestIndex);

  02a6c	8b 45 0c	 mov	 eax, DWORD PTR _QuestIndex$[ebp]
  02a6f	50		 push	 eax
  02a70	8b 4d fc	 mov	 ecx, DWORD PTR _this$[ebp]
  02a73	e8 00 00 00 00	 call	 ?GetQuestInfo@CQuestInfo@@QAEPAUQUEST_INFO@@H@Z ; CQuestInfo::GetQuestInfo
  02a78	89 45 f8	 mov	 DWORD PTR _lpQuestInfo$[ebp], eax

; 1101 : 
; 1102 : 	if ( szAuthKey[18] != AUTHKEY18 )

  02a7b	0f be 05 12 00
	00 00		 movsx	 eax, BYTE PTR ?szAuthKey@@3PADA+18
  02a82	83 f8 db	 cmp	 eax, -37		; ffffffdbH
  02a85	74 05		 je	 SHORT $LN23@QuestClear@2

; 1103 : 	{
; 1104 : 		DestroyGIocp();

  02a87	e8 00 00 00 00	 call	 ?DestroyGIocp@@YAXXZ	; DestroyGIocp
$LN23@QuestClear@2:

; 1105 : 	}
; 1106 : 
; 1107 : 	if ( lpQuestInfo == NULL )

  02a8c	83 7d f8 00	 cmp	 DWORD PTR _lpQuestInfo$[ebp], 0
  02a90	75 0a		 jne	 SHORT $LN22@QuestClear@2

; 1108 : 	{
; 1109 : 		return 0xFF;

  02a92	b8 ff 00 00 00	 mov	 eax, 255		; 000000ffH
  02a97	e9 90 04 00 00	 jmp	 $LN24@QuestClear@2
$LN22@QuestClear@2:

; 1110 : 	}
; 1111 : 
; 1112 : 	int subquestcount = lpQuestInfo->QuestSubInfoCount;

  02a9c	8b 45 f8	 mov	 eax, DWORD PTR _lpQuestInfo$[ebp]
  02a9f	8b 48 40	 mov	 ecx, DWORD PTR [eax+64]
  02aa2	89 4d f4	 mov	 DWORD PTR _subquestcount$[ebp], ecx

; 1113 : 	int concount = lpQuestInfo->QuestConditionCount;

  02aa5	8b 45 f8	 mov	 eax, DWORD PTR _lpQuestInfo$[ebp]
  02aa8	8b 88 14 03 00
	00		 mov	 ecx, DWORD PTR [eax+788]
  02aae	89 4d f0	 mov	 DWORD PTR _concount$[ebp], ecx

; 1114 : 	LPQUEST_SUB_INFO lpSubInfo;
; 1115 : 
; 1116 : 	for ( int subquest=0;subquest<subquestcount;subquest++)

  02ab1	c7 45 e8 00 00
	00 00		 mov	 DWORD PTR _subquest$231937[ebp], 0
  02ab8	eb 09		 jmp	 SHORT $LN21@QuestClear@2
$LN20@QuestClear@2:
  02aba	8b 45 e8	 mov	 eax, DWORD PTR _subquest$231937[ebp]
  02abd	83 c0 01	 add	 eax, 1
  02ac0	89 45 e8	 mov	 DWORD PTR _subquest$231937[ebp], eax
$LN21@QuestClear@2:
  02ac3	8b 45 e8	 mov	 eax, DWORD PTR _subquest$231937[ebp]
  02ac6	3b 45 f4	 cmp	 eax, DWORD PTR _subquestcount$[ebp]
  02ac9	0f 8d 58 04 00
	00		 jge	 $LN19@QuestClear@2

; 1117 : 	{
; 1118 : 		lpSubInfo = this->GetSubquestInfo(lpObj, lpQuestInfo, subquest);

  02acf	8b 45 e8	 mov	 eax, DWORD PTR _subquest$231937[ebp]
  02ad2	50		 push	 eax
  02ad3	8b 4d f8	 mov	 ecx, DWORD PTR _lpQuestInfo$[ebp]
  02ad6	51		 push	 ecx
  02ad7	8b 55 08	 mov	 edx, DWORD PTR _lpObj$[ebp]
  02ada	52		 push	 edx
  02adb	8b 4d fc	 mov	 ecx, DWORD PTR _this$[ebp]
  02ade	e8 00 00 00 00	 call	 ?GetSubquestInfo@CQuestInfo@@QAEPAUQUEST_SUB_INFO@@PAUOBJECTSTRUCT@@PAUQUEST_INFO@@H@Z ; CQuestInfo::GetSubquestInfo
  02ae3	89 45 ec	 mov	 DWORD PTR _lpSubInfo$[ebp], eax

; 1119 : 
; 1120 : 		if ( lpSubInfo != NULL )

  02ae6	83 7d ec 00	 cmp	 DWORD PTR _lpSubInfo$[ebp], 0
  02aea	0f 84 32 04 00
	00		 je	 $LN18@QuestClear@2

; 1121 : 		{
; 1122 : 			if ( lpSubInfo->RewardType == QUEST_COMPENSATION_CHANGEUP )

  02af0	8b 45 ec	 mov	 eax, DWORD PTR _lpSubInfo$[ebp]
  02af3	81 78 20 c9 00
	00 00		 cmp	 DWORD PTR [eax+32], 201	; 000000c9H
  02afa	0f 85 de 00 00
	00		 jne	 $LN17@QuestClear@2

; 1123 : 			{
; 1124 : 				lpObj->LevelUpPoint += lpSubInfo->RewardCount;

  02b00	8b 45 08	 mov	 eax, DWORD PTR _lpObj$[ebp]
  02b03	8b 88 c0 00 00
	00		 mov	 ecx, DWORD PTR [eax+192]
  02b09	8b 55 ec	 mov	 edx, DWORD PTR _lpSubInfo$[ebp]
  02b0c	03 4a 28	 add	 ecx, DWORD PTR [edx+40]
  02b0f	8b 45 08	 mov	 eax, DWORD PTR _lpObj$[ebp]
  02b12	89 88 c0 00 00
	00		 mov	 DWORD PTR [eax+192], ecx

; 1125 : 				GCSendQuestPrize(lpObj->m_Index, QUEST_COMPENSATION_STATUP, lpSubInfo->RewardCount );

  02b18	8b 45 ec	 mov	 eax, DWORD PTR _lpSubInfo$[ebp]
  02b1b	0f b6 48 28	 movzx	 ecx, BYTE PTR [eax+40]
  02b1f	51		 push	 ecx
  02b20	68 c8 00 00 00	 push	 200			; 000000c8H
  02b25	8b 55 08	 mov	 edx, DWORD PTR _lpObj$[ebp]
  02b28	8b 02		 mov	 eax, DWORD PTR [edx]
  02b2a	50		 push	 eax
  02b2b	e8 00 00 00 00	 call	 ?GCSendQuestPrize@@YAXHEE@Z ; GCSendQuestPrize
  02b30	83 c4 0c	 add	 esp, 12			; 0000000cH

; 1126 : 				lpObj->ChangeUP = 1;

  02b33	8b 45 08	 mov	 eax, DWORD PTR _lpObj$[ebp]
  02b36	c6 80 bb 00 00
	00 01		 mov	 BYTE PTR [eax+187], 1

; 1127 : 				lpObj->DbClass |= 1;

  02b3d	8b 45 08	 mov	 eax, DWORD PTR _lpObj$[ebp]
  02b40	0f b6 88 ba 00
	00 00		 movzx	 ecx, BYTE PTR [eax+186]
  02b47	83 c9 01	 or	 ecx, 1
  02b4a	8b 55 08	 mov	 edx, DWORD PTR _lpObj$[ebp]
  02b4d	88 8a ba 00 00
	00		 mov	 BYTE PTR [edx+186], cl

; 1128 : 				gObjMakePreviewCharSet(lpObj->m_Index);

  02b53	8b 45 08	 mov	 eax, DWORD PTR _lpObj$[ebp]
  02b56	8b 08		 mov	 ecx, DWORD PTR [eax]
  02b58	51		 push	 ecx
  02b59	e8 00 00 00 00	 call	 ?gObjMakePreviewCharSet@@YAXH@Z ; gObjMakePreviewCharSet
  02b5e	83 c4 04	 add	 esp, 4

; 1129 : 				BYTE btClass = (lpObj->Class<<5)&0xE0;

  02b61	8b 45 08	 mov	 eax, DWORD PTR _lpObj$[ebp]
  02b64	0f b7 88 b8 00
	00 00		 movzx	 ecx, WORD PTR [eax+184]
  02b6b	c1 e1 05	 shl	 ecx, 5
  02b6e	81 e1 e0 00 00
	00		 and	 ecx, 224		; 000000e0H
  02b74	88 4d e7	 mov	 BYTE PTR _btClass$231943[ebp], cl

; 1130 : 				btClass |= (lpObj->ChangeUP<<4)&0x10;

  02b77	8b 45 08	 mov	 eax, DWORD PTR _lpObj$[ebp]
  02b7a	0f b6 88 bb 00
	00 00		 movzx	 ecx, BYTE PTR [eax+187]
  02b81	c1 e1 04	 shl	 ecx, 4
  02b84	83 e1 10	 and	 ecx, 16			; 00000010H
  02b87	0f b6 55 e7	 movzx	 edx, BYTE PTR _btClass$231943[ebp]
  02b8b	0b d1		 or	 edx, ecx
  02b8d	88 55 e7	 mov	 BYTE PTR _btClass$231943[ebp], dl

; 1131 : 				GCSendQuestPrize(lpObj->m_Index, QUEST_COMPENSATION_CHANGEUP, btClass);

  02b90	0f b6 45 e7	 movzx	 eax, BYTE PTR _btClass$231943[ebp]
  02b94	50		 push	 eax
  02b95	68 c9 00 00 00	 push	 201			; 000000c9H
  02b9a	8b 4d 08	 mov	 ecx, DWORD PTR _lpObj$[ebp]
  02b9d	8b 11		 mov	 edx, DWORD PTR [ecx]
  02b9f	52		 push	 edx
  02ba0	e8 00 00 00 00	 call	 ?GCSendQuestPrize@@YAXHEE@Z ; GCSendQuestPrize
  02ba5	83 c4 0c	 add	 esp, 12			; 0000000cH

; 1132 : 				LogAddTD("[Quest] Quest Clear (%s) : [%s][%s] Stat(%d,%d), ChangeUp",
; 1133 : 					lpQuestInfo->Name, lpObj->AccountID, lpObj->Name, lpObj->LevelUpPoint,
; 1134 : 					lpSubInfo->RewardCount );

  02ba8	8b 45 ec	 mov	 eax, DWORD PTR _lpSubInfo$[ebp]
  02bab	8b 48 28	 mov	 ecx, DWORD PTR [eax+40]
  02bae	51		 push	 ecx
  02baf	8b 55 08	 mov	 edx, DWORD PTR _lpObj$[ebp]
  02bb2	8b 82 c0 00 00
	00		 mov	 eax, DWORD PTR [edx+192]
  02bb8	50		 push	 eax
  02bb9	8b 4d 08	 mov	 ecx, DWORD PTR _lpObj$[ebp]
  02bbc	83 c1 77	 add	 ecx, 119		; 00000077H
  02bbf	51		 push	 ecx
  02bc0	8b 55 08	 mov	 edx, DWORD PTR _lpObj$[ebp]
  02bc3	83 c2 6c	 add	 edx, 108		; 0000006cH
  02bc6	52		 push	 edx
  02bc7	8b 45 f8	 mov	 eax, DWORD PTR _lpQuestInfo$[ebp]
  02bca	50		 push	 eax
  02bcb	68 00 00 00 00	 push	 OFFSET ??_C@_0DK@OGOONICP@?$FLQuest?$FN?5Quest?5Clear?5?$CI?$CFs?$CJ?5?3?5?$FL?$CFs?$FN?$FL@
  02bd0	ff 15 00 00 00
	00		 call	 DWORD PTR ?LogAddTD@@3P6AXPADZZA ; LogAddTD
  02bd6	83 c4 18	 add	 esp, 24			; 00000018H
  02bd9	e9 2d 02 00 00	 jmp	 $LN7@QuestClear@2
$LN17@QuestClear@2:

; 1135 : 			}
; 1136 : 			else if ( lpSubInfo->RewardType == QUEST_COMPENSATION_STATUP )

  02bde	8b 45 ec	 mov	 eax, DWORD PTR _lpSubInfo$[ebp]
  02be1	81 78 20 c8 00
	00 00		 cmp	 DWORD PTR [eax+32], 200	; 000000c8H
  02be8	75 69		 jne	 SHORT $LN15@QuestClear@2

; 1137 : 			{
; 1138 : 				lpObj->LevelUpPoint += lpSubInfo->RewardCount;

  02bea	8b 45 08	 mov	 eax, DWORD PTR _lpObj$[ebp]
  02bed	8b 88 c0 00 00
	00		 mov	 ecx, DWORD PTR [eax+192]
  02bf3	8b 55 ec	 mov	 edx, DWORD PTR _lpSubInfo$[ebp]
  02bf6	03 4a 28	 add	 ecx, DWORD PTR [edx+40]
  02bf9	8b 45 08	 mov	 eax, DWORD PTR _lpObj$[ebp]
  02bfc	89 88 c0 00 00
	00		 mov	 DWORD PTR [eax+192], ecx

; 1139 : 				GCSendQuestPrize(lpObj->m_Index, QUEST_COMPENSATION_STATUP, lpSubInfo->RewardCount );

  02c02	8b 45 ec	 mov	 eax, DWORD PTR _lpSubInfo$[ebp]
  02c05	0f b6 48 28	 movzx	 ecx, BYTE PTR [eax+40]
  02c09	51		 push	 ecx
  02c0a	68 c8 00 00 00	 push	 200			; 000000c8H
  02c0f	8b 55 08	 mov	 edx, DWORD PTR _lpObj$[ebp]
  02c12	8b 02		 mov	 eax, DWORD PTR [edx]
  02c14	50		 push	 eax
  02c15	e8 00 00 00 00	 call	 ?GCSendQuestPrize@@YAXHEE@Z ; GCSendQuestPrize
  02c1a	83 c4 0c	 add	 esp, 12			; 0000000cH

; 1140 : 				LogAddTD("[Quest] Quest Clear (%s) : [%s][%s] Stat(%d,%d)",
; 1141 : 					lpQuestInfo->Name, lpObj->AccountID, lpObj->Name, lpObj->LevelUpPoint,
; 1142 : 					lpSubInfo->RewardCount );

  02c1d	8b 45 ec	 mov	 eax, DWORD PTR _lpSubInfo$[ebp]
  02c20	8b 48 28	 mov	 ecx, DWORD PTR [eax+40]
  02c23	51		 push	 ecx
  02c24	8b 55 08	 mov	 edx, DWORD PTR _lpObj$[ebp]
  02c27	8b 82 c0 00 00
	00		 mov	 eax, DWORD PTR [edx+192]
  02c2d	50		 push	 eax
  02c2e	8b 4d 08	 mov	 ecx, DWORD PTR _lpObj$[ebp]
  02c31	83 c1 77	 add	 ecx, 119		; 00000077H
  02c34	51		 push	 ecx
  02c35	8b 55 08	 mov	 edx, DWORD PTR _lpObj$[ebp]
  02c38	83 c2 6c	 add	 edx, 108		; 0000006cH
  02c3b	52		 push	 edx
  02c3c	8b 45 f8	 mov	 eax, DWORD PTR _lpQuestInfo$[ebp]
  02c3f	50		 push	 eax
  02c40	68 00 00 00 00	 push	 OFFSET ??_C@_0DA@FJIJPLFD@?$FLQuest?$FN?5Quest?5Clear?5?$CI?$CFs?$CJ?5?3?5?$FL?$CFs?$FN?$FL@
  02c45	ff 15 00 00 00
	00		 call	 DWORD PTR ?LogAddTD@@3P6AXPADZZA ; LogAddTD
  02c4b	83 c4 18	 add	 esp, 24			; 00000018H
  02c4e	e9 b8 01 00 00	 jmp	 $LN7@QuestClear@2
$LN15@QuestClear@2:

; 1143 : 			}
; 1144 : 			else if ( lpSubInfo->RewardType == QUEST_COMPENSATION_PLUSSSTAT )

  02c53	8b 45 ec	 mov	 eax, DWORD PTR _lpSubInfo$[ebp]
  02c56	81 78 20 ca 00
	00 00		 cmp	 DWORD PTR [eax+32], 202	; 000000caH
  02c5d	0f 85 8a 00 00
	00		 jne	 $LN13@QuestClear@2

; 1145 : 			{
; 1146 : 				int level = lpObj->Level - QUEST_MINLEVEL_PLUSSTAT;

  02c63	8b 45 08	 mov	 eax, DWORD PTR _lpObj$[ebp]
  02c66	0f bf 88 be 00
	00 00		 movsx	 ecx, WORD PTR [eax+190]
  02c6d	81 e9 dc 00 00
	00		 sub	 ecx, 220		; 000000dcH
  02c73	89 4d e0	 mov	 DWORD PTR _level$231950[ebp], ecx

; 1147 : 
; 1148 : 				if ( level <= 0 )

  02c76	83 7d e0 00	 cmp	 DWORD PTR _level$231950[ebp], 0
  02c7a	7f 07		 jg	 SHORT $LN12@QuestClear@2

; 1149 : 				{
; 1150 : 					level = 0;

  02c7c	c7 45 e0 00 00
	00 00		 mov	 DWORD PTR _level$231950[ebp], 0
$LN12@QuestClear@2:

; 1151 : 				}
; 1152 : 
; 1153 : 				lpObj->LevelUpPoint += level;

  02c83	8b 45 08	 mov	 eax, DWORD PTR _lpObj$[ebp]
  02c86	8b 88 c0 00 00
	00		 mov	 ecx, DWORD PTR [eax+192]
  02c8c	03 4d e0	 add	 ecx, DWORD PTR _level$231950[ebp]
  02c8f	8b 55 08	 mov	 edx, DWORD PTR _lpObj$[ebp]
  02c92	89 8a c0 00 00
	00		 mov	 DWORD PTR [edx+192], ecx

; 1154 : 				lpObj->PlusStatQuestClear = true;

  02c98	8b 45 08	 mov	 eax, DWORD PTR _lpObj$[ebp]
  02c9b	c6 80 a5 00 00
	00 01		 mov	 BYTE PTR [eax+165], 1

; 1155 : 				GCSendQuestPrize(lpObj->m_Index, QUEST_COMPENSATION_PLUSSSTAT, level );

  02ca2	0f b6 45 e0	 movzx	 eax, BYTE PTR _level$231950[ebp]
  02ca6	50		 push	 eax
  02ca7	68 ca 00 00 00	 push	 202			; 000000caH
  02cac	8b 4d 08	 mov	 ecx, DWORD PTR _lpObj$[ebp]
  02caf	8b 11		 mov	 edx, DWORD PTR [ecx]
  02cb1	52		 push	 edx
  02cb2	e8 00 00 00 00	 call	 ?GCSendQuestPrize@@YAXHEE@Z ; GCSendQuestPrize
  02cb7	83 c4 0c	 add	 esp, 12			; 0000000cH

; 1156 : 				LogAddTD("[Quest] Quest Clear (%s) : [%s][%s] Stat(%d,%d), PlusStat",
; 1157 : 					lpQuestInfo->Name, lpObj->AccountID, lpObj->Name, lpObj->LevelUpPoint, level);

  02cba	8b 45 e0	 mov	 eax, DWORD PTR _level$231950[ebp]
  02cbd	50		 push	 eax
  02cbe	8b 4d 08	 mov	 ecx, DWORD PTR _lpObj$[ebp]
  02cc1	8b 91 c0 00 00
	00		 mov	 edx, DWORD PTR [ecx+192]
  02cc7	52		 push	 edx
  02cc8	8b 45 08	 mov	 eax, DWORD PTR _lpObj$[ebp]
  02ccb	83 c0 77	 add	 eax, 119		; 00000077H
  02cce	50		 push	 eax
  02ccf	8b 4d 08	 mov	 ecx, DWORD PTR _lpObj$[ebp]
  02cd2	83 c1 6c	 add	 ecx, 108		; 0000006cH
  02cd5	51		 push	 ecx
  02cd6	8b 55 f8	 mov	 edx, DWORD PTR _lpQuestInfo$[ebp]
  02cd9	52		 push	 edx
  02cda	68 00 00 00 00	 push	 OFFSET ??_C@_0DK@CADKKHAN@?$FLQuest?$FN?5Quest?5Clear?5?$CI?$CFs?$CJ?5?3?5?$FL?$CFs?$FN?$FL@
  02cdf	ff 15 00 00 00
	00		 call	 DWORD PTR ?LogAddTD@@3P6AXPADZZA ; LogAddTD
  02ce5	83 c4 18	 add	 esp, 24			; 00000018H
  02ce8	e9 1e 01 00 00	 jmp	 $LN7@QuestClear@2
$LN13@QuestClear@2:

; 1158 : 			}
; 1159 : 			else if ( lpSubInfo->RewardType == QUEST_COMPENSATION_COMBOSKILL )

  02ced	8b 45 ec	 mov	 eax, DWORD PTR _lpSubInfo$[ebp]
  02cf0	81 78 20 cb 00
	00 00		 cmp	 DWORD PTR [eax+32], 203	; 000000cbH
  02cf7	75 44		 jne	 SHORT $LN10@QuestClear@2

; 1160 : 			{
; 1161 : 				GCSendQuestPrize(lpObj->m_Index, QUEST_COMPENSATION_COMBOSKILL, 0 );

  02cf9	6a 00		 push	 0
  02cfb	68 cb 00 00 00	 push	 203			; 000000cbH
  02d00	8b 45 08	 mov	 eax, DWORD PTR _lpObj$[ebp]
  02d03	8b 08		 mov	 ecx, DWORD PTR [eax]
  02d05	51		 push	 ecx
  02d06	e8 00 00 00 00	 call	 ?GCSendQuestPrize@@YAXHEE@Z ; GCSendQuestPrize
  02d0b	83 c4 0c	 add	 esp, 12			; 0000000cH

; 1162 : 				lpObj->ComboSkillquestClear = true;

  02d0e	8b 45 08	 mov	 eax, DWORD PTR _lpObj$[ebp]
  02d11	c6 80 a6 00 00
	00 01		 mov	 BYTE PTR [eax+166], 1

; 1163 : 				LogAddTD("[Quest] Quest Clear (%s) : [%s][%s] ComboSkill",
; 1164 : 					lpQuestInfo->Name, lpObj->AccountID, lpObj->Name);

  02d18	8b 45 08	 mov	 eax, DWORD PTR _lpObj$[ebp]
  02d1b	83 c0 77	 add	 eax, 119		; 00000077H
  02d1e	50		 push	 eax
  02d1f	8b 4d 08	 mov	 ecx, DWORD PTR _lpObj$[ebp]
  02d22	83 c1 6c	 add	 ecx, 108		; 0000006cH
  02d25	51		 push	 ecx
  02d26	8b 55 f8	 mov	 edx, DWORD PTR _lpQuestInfo$[ebp]
  02d29	52		 push	 edx
  02d2a	68 00 00 00 00	 push	 OFFSET ??_C@_0CP@JAPDAPMO@?$FLQuest?$FN?5Quest?5Clear?5?$CI?$CFs?$CJ?5?3?5?$FL?$CFs?$FN?$FL@
  02d2f	ff 15 00 00 00
	00		 call	 DWORD PTR ?LogAddTD@@3P6AXPADZZA ; LogAddTD
  02d35	83 c4 10	 add	 esp, 16			; 00000010H
  02d38	e9 ce 00 00 00	 jmp	 $LN7@QuestClear@2
$LN10@QuestClear@2:

; 1165 : 			}
; 1166 : 			else if ( lpSubInfo->RewardType == QUEST_COMPENSATION_ThirdChangeUp ) //season 2.5 add-on

  02d3d	8b 45 ec	 mov	 eax, DWORD PTR _lpSubInfo$[ebp]
  02d40	81 78 20 cc 00
	00 00		 cmp	 DWORD PTR [eax+32], 204	; 000000ccH
  02d47	0f 85 be 00 00
	00		 jne	 $LN7@QuestClear@2

; 1167 : 			{
; 1168 : 				lpObj->ChangeUP3rd = 1;

  02d4d	8b 45 08	 mov	 eax, DWORD PTR _lpObj$[ebp]
  02d50	c6 80 bc 00 00
	00 01		 mov	 BYTE PTR [eax+188], 1

; 1169 : 				lpObj->DbClass |= 2;

  02d57	8b 45 08	 mov	 eax, DWORD PTR _lpObj$[ebp]
  02d5a	0f b6 88 ba 00
	00 00		 movzx	 ecx, BYTE PTR [eax+186]
  02d61	83 c9 02	 or	 ecx, 2
  02d64	8b 55 08	 mov	 edx, DWORD PTR _lpObj$[ebp]
  02d67	88 8a ba 00 00
	00		 mov	 BYTE PTR [edx+186], cl

; 1170 : 				gObjMakePreviewCharSet(lpObj->m_Index);

  02d6d	8b 45 08	 mov	 eax, DWORD PTR _lpObj$[ebp]
  02d70	8b 08		 mov	 ecx, DWORD PTR [eax]
  02d72	51		 push	 ecx
  02d73	e8 00 00 00 00	 call	 ?gObjMakePreviewCharSet@@YAXH@Z ; gObjMakePreviewCharSet
  02d78	83 c4 04	 add	 esp, 4

; 1171 : 				BYTE btClass = (lpObj->Class<<5)&0xE0;

  02d7b	8b 45 08	 mov	 eax, DWORD PTR _lpObj$[ebp]
  02d7e	0f b7 88 b8 00
	00 00		 movzx	 ecx, WORD PTR [eax+184]
  02d85	c1 e1 05	 shl	 ecx, 5
  02d88	81 e1 e0 00 00
	00		 and	 ecx, 224		; 000000e0H
  02d8e	88 4d df	 mov	 BYTE PTR _btClass$231958[ebp], cl

; 1172 : 				btClass |= (lpObj->ChangeUP<<4)&0x10;

  02d91	8b 45 08	 mov	 eax, DWORD PTR _lpObj$[ebp]
  02d94	0f b6 88 bb 00
	00 00		 movzx	 ecx, BYTE PTR [eax+187]
  02d9b	c1 e1 04	 shl	 ecx, 4
  02d9e	83 e1 10	 and	 ecx, 16			; 00000010H
  02da1	0f b6 55 df	 movzx	 edx, BYTE PTR _btClass$231958[ebp]
  02da5	0b d1		 or	 edx, ecx
  02da7	88 55 df	 mov	 BYTE PTR _btClass$231958[ebp], dl

; 1173 : 				btClass |= (lpObj->ChangeUP3rd<<0x03)&0x08;

  02daa	8b 45 08	 mov	 eax, DWORD PTR _lpObj$[ebp]
  02dad	0f b6 88 bc 00
	00 00		 movzx	 ecx, BYTE PTR [eax+188]
  02db4	c1 e1 03	 shl	 ecx, 3
  02db7	83 e1 08	 and	 ecx, 8
  02dba	0f b6 55 df	 movzx	 edx, BYTE PTR _btClass$231958[ebp]
  02dbe	0b d1		 or	 edx, ecx
  02dc0	88 55 df	 mov	 BYTE PTR _btClass$231958[ebp], dl

; 1174 : 				GCSendQuestPrize(lpObj->m_Index, QUEST_COMPENSATION_ThirdChangeUp, btClass );

  02dc3	0f b6 45 df	 movzx	 eax, BYTE PTR _btClass$231958[ebp]
  02dc7	50		 push	 eax
  02dc8	68 cc 00 00 00	 push	 204			; 000000ccH
  02dcd	8b 4d 08	 mov	 ecx, DWORD PTR _lpObj$[ebp]
  02dd0	8b 11		 mov	 edx, DWORD PTR [ecx]
  02dd2	52		 push	 edx
  02dd3	e8 00 00 00 00	 call	 ?GCSendQuestPrize@@YAXHEE@Z ; GCSendQuestPrize
  02dd8	83 c4 0c	 add	 esp, 12			; 0000000cH

; 1175 : 
; 1176 : 				LogAddTD("[Quest] Quest Clear (%s) : [%s][%s] Class:%d(%d), 3rd ChangeUp",
; 1177 : 					lpQuestInfo->Name, lpObj->AccountID, lpObj->Name, lpObj->DbClass, btClass);

  02ddb	0f b6 45 df	 movzx	 eax, BYTE PTR _btClass$231958[ebp]
  02ddf	50		 push	 eax
  02de0	8b 4d 08	 mov	 ecx, DWORD PTR _lpObj$[ebp]
  02de3	0f b6 91 ba 00
	00 00		 movzx	 edx, BYTE PTR [ecx+186]
  02dea	52		 push	 edx
  02deb	8b 45 08	 mov	 eax, DWORD PTR _lpObj$[ebp]
  02dee	83 c0 77	 add	 eax, 119		; 00000077H
  02df1	50		 push	 eax
  02df2	8b 4d 08	 mov	 ecx, DWORD PTR _lpObj$[ebp]
  02df5	83 c1 6c	 add	 ecx, 108		; 0000006cH
  02df8	51		 push	 ecx
  02df9	8b 55 f8	 mov	 edx, DWORD PTR _lpQuestInfo$[ebp]
  02dfc	52		 push	 edx
  02dfd	68 00 00 00 00	 push	 OFFSET ??_C@_0DP@MIGJKFOH@?$FLQuest?$FN?5Quest?5Clear?5?$CI?$CFs?$CJ?5?3?5?$FL?$CFs?$FN?$FL@
  02e02	ff 15 00 00 00
	00		 call	 DWORD PTR ?LogAddTD@@3P6AXPADZZA ; LogAddTD
  02e08	83 c4 18	 add	 esp, 24			; 00000018H
$LN7@QuestClear@2:

; 1178 : 			}
; 1179 : 			
; 1180 : 			if ( lpObj->ChangeUP == 1 ) //HermeX Add-on for fixing registers
; 1181 : 			{
; 1182 : #if(TESTSERVER==1)
; 1183 : 				LogAddTD("[Quest] Quest Clear - ChangeUP (%d) DbClass (%d) : [%s][%s]", lpObj->ChangeUP, lpObj->DbClass, lpObj->AccountID, lpObj->Name);
; 1184 : #endif
; 1185 : 			}
; 1186 : 
; 1187 : 			if ( lpSubInfo->QuestType == 1 )

  02e0b	8b 45 ec	 mov	 eax, DWORD PTR _lpSubInfo$[ebp]
  02e0e	83 38 01	 cmp	 DWORD PTR [eax], 1
  02e11	75 23		 jne	 SHORT $LN6@QuestClear@2

; 1188 : 			{
; 1189 : 				gObjDelteItemCountInInventory(lpObj->m_Index, lpSubInfo->NeedType, lpSubInfo->NeedSubType,
; 1190 : 					lpSubInfo->NeedNumber);

  02e13	8b 45 ec	 mov	 eax, DWORD PTR _lpSubInfo$[ebp]
  02e16	8b 48 10	 mov	 ecx, DWORD PTR [eax+16]
  02e19	51		 push	 ecx
  02e1a	8b 55 ec	 mov	 edx, DWORD PTR _lpSubInfo$[ebp]
  02e1d	8b 42 08	 mov	 eax, DWORD PTR [edx+8]
  02e20	50		 push	 eax
  02e21	8b 4d ec	 mov	 ecx, DWORD PTR _lpSubInfo$[ebp]
  02e24	8b 51 04	 mov	 edx, DWORD PTR [ecx+4]
  02e27	52		 push	 edx
  02e28	8b 45 08	 mov	 eax, DWORD PTR _lpObj$[ebp]
  02e2b	8b 08		 mov	 ecx, DWORD PTR [eax]
  02e2d	51		 push	 ecx
  02e2e	e8 00 00 00 00	 call	 ?gObjDelteItemCountInInventory@@YAXHHHH@Z ; gObjDelteItemCountInInventory
  02e33	83 c4 10	 add	 esp, 16			; 00000010H
$LN6@QuestClear@2:

; 1191 : 			}
; 1192 : 
; 1193 : 			if ( lpSubInfo->QuestType == 2 ) //season 2.5 add-on

  02e36	8b 45 ec	 mov	 eax, DWORD PTR _lpSubInfo$[ebp]
  02e39	83 38 02	 cmp	 DWORD PTR [eax], 2
  02e3c	75 69		 jne	 SHORT $LN5@QuestClear@2

; 1194 : 			{
; 1195 : 				lpObj->m_i3rdQuestIndex = -1;

  02e3e	8b 45 08	 mov	 eax, DWORD PTR _lpObj$[ebp]
  02e41	c7 80 60 10 00
	00 ff ff ff ff	 mov	 DWORD PTR [eax+4192], -1

; 1196 : 				
; 1197 : 				for ( int n = 0;n<5;n++)

  02e4b	c7 45 d8 00 00
	00 00		 mov	 DWORD PTR _n$231963[ebp], 0
  02e52	eb 09		 jmp	 SHORT $LN4@QuestClear@2
$LN3@QuestClear@2:
  02e54	8b 45 d8	 mov	 eax, DWORD PTR _n$231963[ebp]
  02e57	83 c0 01	 add	 eax, 1
  02e5a	89 45 d8	 mov	 DWORD PTR _n$231963[ebp], eax
$LN4@QuestClear@2:
  02e5d	83 7d d8 05	 cmp	 DWORD PTR _n$231963[ebp], 5
  02e61	7d 24		 jge	 SHORT $LN2@QuestClear@2

; 1198 : 				{
; 1199 : 					lpObj->MonsterKillInfo[n].MonIndex = -1;

  02e63	8b 45 d8	 mov	 eax, DWORD PTR _n$231963[ebp]
  02e66	8b 4d 08	 mov	 ecx, DWORD PTR _lpObj$[ebp]
  02e69	c7 84 c1 64 10
	00 00 ff ff ff
	ff		 mov	 DWORD PTR [ecx+eax*8+4196], -1

; 1200 : 					lpObj->MonsterKillInfo[n].KillCount = -1;

  02e74	8b 45 d8	 mov	 eax, DWORD PTR _n$231963[ebp]
  02e77	8b 4d 08	 mov	 ecx, DWORD PTR _lpObj$[ebp]
  02e7a	c7 84 c1 68 10
	00 00 ff ff ff
	ff		 mov	 DWORD PTR [ecx+eax*8+4200], -1

; 1201 : 				}

  02e85	eb cd		 jmp	 SHORT $LN3@QuestClear@2
$LN2@QuestClear@2:

; 1202 : 				LogAddTD("[Quest] Quest Clear - MonsterKillCount Reset (%s) : [%s][%s]", lpQuestInfo, lpObj->AccountID, lpObj->Name);

  02e87	8b 45 08	 mov	 eax, DWORD PTR _lpObj$[ebp]
  02e8a	83 c0 77	 add	 eax, 119		; 00000077H
  02e8d	50		 push	 eax
  02e8e	8b 4d 08	 mov	 ecx, DWORD PTR _lpObj$[ebp]
  02e91	83 c1 6c	 add	 ecx, 108		; 0000006cH
  02e94	51		 push	 ecx
  02e95	8b 55 f8	 mov	 edx, DWORD PTR _lpQuestInfo$[ebp]
  02e98	52		 push	 edx
  02e99	68 00 00 00 00	 push	 OFFSET ??_C@_0DN@GBDKNIEG@?$FLQuest?$FN?5Quest?5Clear?5?9?5MonsterKil@
  02e9e	ff 15 00 00 00
	00		 call	 DWORD PTR ?LogAddTD@@3P6AXPADZZA ; LogAddTD
  02ea4	83 c4 10	 add	 esp, 16			; 00000010H
$LN5@QuestClear@2:

; 1203 : 			}
; 1204 : 
; 1205 : 			if( lpSubInfo->RewardSubType == QUEST_COMPENSATION_STATUP) //season 2.5 add-on

  02ea7	8b 45 ec	 mov	 eax, DWORD PTR _lpSubInfo$[ebp]
  02eaa	81 78 24 c8 00
	00 00		 cmp	 DWORD PTR [eax+36], 200	; 000000c8H
  02eb1	75 6f		 jne	 SHORT $LN18@QuestClear@2

; 1206 : 			{
; 1207 : 				lpObj->LevelUpPoint += lpSubInfo->RewardCount;

  02eb3	8b 45 08	 mov	 eax, DWORD PTR _lpObj$[ebp]
  02eb6	8b 88 c0 00 00
	00		 mov	 ecx, DWORD PTR [eax+192]
  02ebc	8b 55 ec	 mov	 edx, DWORD PTR _lpSubInfo$[ebp]
  02ebf	03 4a 28	 add	 ecx, DWORD PTR [edx+40]
  02ec2	8b 45 08	 mov	 eax, DWORD PTR _lpObj$[ebp]
  02ec5	89 88 c0 00 00
	00		 mov	 DWORD PTR [eax+192], ecx

; 1208 : 				GCSendQuestPrize(lpObj->m_Index, QUEST_COMPENSATION_STATUP, lpSubInfo->RewardCount );

  02ecb	8b 45 ec	 mov	 eax, DWORD PTR _lpSubInfo$[ebp]
  02ece	0f b6 48 28	 movzx	 ecx, BYTE PTR [eax+40]
  02ed2	51		 push	 ecx
  02ed3	68 c8 00 00 00	 push	 200			; 000000c8H
  02ed8	8b 55 08	 mov	 edx, DWORD PTR _lpObj$[ebp]
  02edb	8b 02		 mov	 eax, DWORD PTR [edx]
  02edd	50		 push	 eax
  02ede	e8 00 00 00 00	 call	 ?GCSendQuestPrize@@YAXHEE@Z ; GCSendQuestPrize
  02ee3	83 c4 0c	 add	 esp, 12			; 0000000cH

; 1209 : 				LogAddTD("[Quest] Quest Clear (%s) : [%s][%s] Stat(%d,%d), Class:%d PlusStat",
; 1210 : 					lpQuestInfo->Name, lpObj->AccountID, lpObj->Name, lpObj->LevelUpPoint,
; 1211 : 					lpSubInfo->RewardCount, lpObj->DbClass );

  02ee6	8b 45 08	 mov	 eax, DWORD PTR _lpObj$[ebp]
  02ee9	0f b6 88 ba 00
	00 00		 movzx	 ecx, BYTE PTR [eax+186]
  02ef0	51		 push	 ecx
  02ef1	8b 55 ec	 mov	 edx, DWORD PTR _lpSubInfo$[ebp]
  02ef4	8b 42 28	 mov	 eax, DWORD PTR [edx+40]
  02ef7	50		 push	 eax
  02ef8	8b 4d 08	 mov	 ecx, DWORD PTR _lpObj$[ebp]
  02efb	8b 91 c0 00 00
	00		 mov	 edx, DWORD PTR [ecx+192]
  02f01	52		 push	 edx
  02f02	8b 45 08	 mov	 eax, DWORD PTR _lpObj$[ebp]
  02f05	83 c0 77	 add	 eax, 119		; 00000077H
  02f08	50		 push	 eax
  02f09	8b 4d 08	 mov	 ecx, DWORD PTR _lpObj$[ebp]
  02f0c	83 c1 6c	 add	 ecx, 108		; 0000006cH
  02f0f	51		 push	 ecx
  02f10	8b 55 f8	 mov	 edx, DWORD PTR _lpQuestInfo$[ebp]
  02f13	52		 push	 edx
  02f14	68 00 00 00 00	 push	 OFFSET ??_C@_0ED@KLNCEAII@?$FLQuest?$FN?5Quest?5Clear?5?$CI?$CFs?$CJ?5?3?5?$FL?$CFs?$FN?$FL@
  02f19	ff 15 00 00 00
	00		 call	 DWORD PTR ?LogAddTD@@3P6AXPADZZA ; LogAddTD
  02f1f	83 c4 1c	 add	 esp, 28			; 0000001cH
$LN18@QuestClear@2:

; 1212 : 			}
; 1213 : 		}
; 1214 : 	}

  02f22	e9 93 fb ff ff	 jmp	 $LN20@QuestClear@2
$LN19@QuestClear@2:

; 1215 : 	return TRUE;

  02f27	b8 01 00 00 00	 mov	 eax, 1
$LN24@QuestClear@2:

; 1216 : }

  02f2c	5f		 pop	 edi
  02f2d	5e		 pop	 esi
  02f2e	5b		 pop	 ebx
  02f2f	8b e5		 mov	 esp, ebp
  02f31	5d		 pop	 ebp
  02f32	c2 08 00	 ret	 8
?QuestClear@CQuestInfo@@QAEHPAUOBJECTSTRUCT@@H@Z ENDP	; CQuestInfo::QuestClear
_TEXT	ENDS
PUBLIC	??_C@_0DI@HHHLGGKH@?$FLQuest?$FN?5QuestSave?5?$FL?$CFs?$FN?$FL?$CFs?$FN?5index@ ; `string'
PUBLIC	?QuestInfoSave@CQuestInfo@@QAEXPAUOBJECTSTRUCT@@@Z ; CQuestInfo::QuestInfoSave
;	COMDAT ??_C@_0DI@HHHLGGKH@?$FLQuest?$FN?5QuestSave?5?$FL?$CFs?$FN?$FL?$CFs?$FN?5index@
CONST	SEGMENT
??_C@_0DI@HHHLGGKH@?$FLQuest?$FN?5QuestSave?5?$FL?$CFs?$FN?$FL?$CFs?$FN?5index@ DB '['
	DB	'Quest] QuestSave [%s][%s] index(%d) name(%s) state(%s)', 00H ; `string'
; Function compile flags: /Odtp /ZI
CONST	ENDS
_TEXT	SEGMENT
_i$231977 = -20						; size = 4
_lpQuestInfo$ = -16					; size = 4
_foundquest$ = -12					; size = 4
_questcount$ = -8					; size = 4
_this$ = -4						; size = 4
_lpObj$ = 8						; size = 4
?QuestInfoSave@CQuestInfo@@QAEXPAUOBJECTSTRUCT@@@Z PROC	; CQuestInfo::QuestInfoSave
; _this$ = ecx

; 1220 : {

  02f40	55		 push	 ebp
  02f41	8b ec		 mov	 ebp, esp
  02f43	83 ec 54	 sub	 esp, 84			; 00000054H
  02f46	53		 push	 ebx
  02f47	56		 push	 esi
  02f48	57		 push	 edi
  02f49	89 4d fc	 mov	 DWORD PTR _this$[ebp], ecx

; 1221 : 	int questcount = this->GetQeustCount();

  02f4c	8b 4d fc	 mov	 ecx, DWORD PTR _this$[ebp]
  02f4f	e8 00 00 00 00	 call	 ?GetQeustCount@CQuestInfo@@QAEHXZ ; CQuestInfo::GetQeustCount
  02f54	89 45 f8	 mov	 DWORD PTR _questcount$[ebp], eax

; 1222 : 	int foundquest = 0;

  02f57	c7 45 f4 00 00
	00 00		 mov	 DWORD PTR _foundquest$[ebp], 0

; 1223 : 	LPQUEST_INFO lpQuestInfo;
; 1224 : 
; 1225 : 	for ( int i = 0 ; i<MAX_QUEST_INFO;i++)

  02f5e	c7 45 ec 00 00
	00 00		 mov	 DWORD PTR _i$231977[ebp], 0
  02f65	eb 09		 jmp	 SHORT $LN5@QuestInfoS
$LN4@QuestInfoS:
  02f67	8b 45 ec	 mov	 eax, DWORD PTR _i$231977[ebp]
  02f6a	83 c0 01	 add	 eax, 1
  02f6d	89 45 ec	 mov	 DWORD PTR _i$231977[ebp], eax
$LN5@QuestInfoS:
  02f70	81 7d ec c8 00
	00 00		 cmp	 DWORD PTR _i$231977[ebp], 200 ; 000000c8H
  02f77	7d 69		 jge	 SHORT $LN6@QuestInfoS

; 1226 : 	{
; 1227 : 		lpQuestInfo = this->GetQuestInfo(i);

  02f79	8b 45 ec	 mov	 eax, DWORD PTR _i$231977[ebp]
  02f7c	50		 push	 eax
  02f7d	8b 4d fc	 mov	 ecx, DWORD PTR _this$[ebp]
  02f80	e8 00 00 00 00	 call	 ?GetQuestInfo@CQuestInfo@@QAEPAUQUEST_INFO@@H@Z ; CQuestInfo::GetQuestInfo
  02f85	89 45 f0	 mov	 DWORD PTR _lpQuestInfo$[ebp], eax

; 1228 : 
; 1229 : 		if ( lpQuestInfo == NULL )

  02f88	83 7d f0 00	 cmp	 DWORD PTR _lpQuestInfo$[ebp], 0
  02f8c	75 02		 jne	 SHORT $LN2@QuestInfoS

; 1230 : 		{
; 1231 : 			continue;

  02f8e	eb d7		 jmp	 SHORT $LN4@QuestInfoS
$LN2@QuestInfoS:

; 1232 : 		}
; 1233 : 
; 1234 : 		LogAddTD("[Quest] QuestSave [%s][%s] index(%d) name(%s) state(%s)",
; 1235 : 			lpObj->AccountID, lpObj->Name, i, lpQuestInfo->Name,
; 1236 : 			sQuestString[this->GetQuestState(lpObj, i)]);

  02f90	8b 45 ec	 mov	 eax, DWORD PTR _i$231977[ebp]
  02f93	50		 push	 eax
  02f94	8b 4d 08	 mov	 ecx, DWORD PTR _lpObj$[ebp]
  02f97	51		 push	 ecx
  02f98	8b 4d fc	 mov	 ecx, DWORD PTR _this$[ebp]
  02f9b	e8 00 00 00 00	 call	 ?GetQuestState@CQuestInfo@@QAEHPAUOBJECTSTRUCT@@H@Z ; CQuestInfo::GetQuestState
  02fa0	6b c0 32	 imul	 eax, 50			; 00000032H
  02fa3	05 00 00 00 00	 add	 eax, OFFSET ?sQuestString@@3PAY0DC@DA ; sQuestString
  02fa8	50		 push	 eax
  02fa9	8b 55 f0	 mov	 edx, DWORD PTR _lpQuestInfo$[ebp]
  02fac	52		 push	 edx
  02fad	8b 45 ec	 mov	 eax, DWORD PTR _i$231977[ebp]
  02fb0	50		 push	 eax
  02fb1	8b 4d 08	 mov	 ecx, DWORD PTR _lpObj$[ebp]
  02fb4	83 c1 77	 add	 ecx, 119		; 00000077H
  02fb7	51		 push	 ecx
  02fb8	8b 55 08	 mov	 edx, DWORD PTR _lpObj$[ebp]
  02fbb	83 c2 6c	 add	 edx, 108		; 0000006cH
  02fbe	52		 push	 edx
  02fbf	68 00 00 00 00	 push	 OFFSET ??_C@_0DI@HHHLGGKH@?$FLQuest?$FN?5QuestSave?5?$FL?$CFs?$FN?$FL?$CFs?$FN?5index@
  02fc4	ff 15 00 00 00
	00		 call	 DWORD PTR ?LogAddTD@@3P6AXPADZZA ; LogAddTD
  02fca	83 c4 18	 add	 esp, 24			; 00000018H

; 1237 : 		foundquest++;

