; Listing generated by Microsoft (R) Optimizing Compiler Version 16.00.40219.01 

	TITLE	D:\Projects\ExTeam6.3\Source\GameServer\GameServer\RaklionUtil.cpp
	.686P
	.XMM
	include listing.inc
	.model	flat

INCLUDELIB LIBCMT
INCLUDELIB OLDNAMES

PUBLIC	??_H@YGXPAXIHP6EPAX0@Z@Z			; `vector constructor iterator'
; Function compile flags: /Odtp /ZI
;	COMDAT ??_H@YGXPAXIHP6EPAX0@Z@Z
_TEXT	SEGMENT
___t$ = 8						; size = 4
___s$ = 12						; size = 4
___n$ = 16						; size = 4
___f$ = 20						; size = 4
??_H@YGXPAXIHP6EPAX0@Z@Z PROC				; `vector constructor iterator', COMDAT
  00000	55		 push	 ebp
  00001	8b ec		 mov	 ebp, esp
  00003	83 ec 40	 sub	 esp, 64			; 00000040H
  00006	53		 push	 ebx
  00007	56		 push	 esi
  00008	57		 push	 edi
$LN2@vector:
  00009	8b 45 10	 mov	 eax, DWORD PTR ___n$[ebp]
  0000c	83 e8 01	 sub	 eax, 1
  0000f	89 45 10	 mov	 DWORD PTR ___n$[ebp], eax
  00012	78 11		 js	 SHORT $LN3@vector
  00014	8b 4d 08	 mov	 ecx, DWORD PTR ___t$[ebp]
  00017	ff 55 14	 call	 DWORD PTR ___f$[ebp]
  0001a	8b 45 08	 mov	 eax, DWORD PTR ___t$[ebp]
  0001d	03 45 0c	 add	 eax, DWORD PTR ___s$[ebp]
  00020	89 45 08	 mov	 DWORD PTR ___t$[ebp], eax
  00023	eb e4		 jmp	 SHORT $LN2@vector
$LN3@vector:
  00025	5f		 pop	 edi
  00026	5e		 pop	 esi
  00027	5b		 pop	 ebx
  00028	8b e5		 mov	 esp, ebp
  0002a	5d		 pop	 ebp
  0002b	c2 10 00	 ret	 16			; 00000010H
??_H@YGXPAXIHP6EPAX0@Z@Z ENDP				; `vector constructor iterator'
_TEXT	ENDS
PUBLIC	??_7CRaklionUtil@@6B@				; CRaklionUtil::`vftable'
PUBLIC	??0CRaklionUtil@@QAE@XZ				; CRaklionUtil::CRaklionUtil
PUBLIC	??_R4CRaklionUtil@@6B@				; CRaklionUtil::`RTTI Complete Object Locator'
PUBLIC	??_R0?AVCRaklionUtil@@@8			; CRaklionUtil `RTTI Type Descriptor'
PUBLIC	??_R3CRaklionUtil@@8				; CRaklionUtil::`RTTI Class Hierarchy Descriptor'
PUBLIC	??_R2CRaklionUtil@@8				; CRaklionUtil::`RTTI Base Class Array'
PUBLIC	??_R1A@?0A@EA@CRaklionUtil@@8			; CRaklionUtil::`RTTI Base Class Descriptor at (0,-1,0,64)'
EXTRN	??_7type_info@@6B@:QWORD			; type_info::`vftable'
EXTRN	??_ECRaklionUtil@@UAEPAXI@Z:PROC		; CRaklionUtil::`vector deleting destructor'
;	COMDAT ??_R1A@?0A@EA@CRaklionUtil@@8
; File d:\projects\exteam6.3\source\gameserver\gameserver\raklionutil.cpp
rdata$r	SEGMENT
??_R1A@?0A@EA@CRaklionUtil@@8 DD FLAT:??_R0?AVCRaklionUtil@@@8 ; CRaklionUtil::`RTTI Base Class Descriptor at (0,-1,0,64)'
	DD	00H
	DD	00H
	DD	0ffffffffH
	DD	00H
	DD	040H
	DD	FLAT:??_R3CRaklionUtil@@8
rdata$r	ENDS
;	COMDAT ??_R2CRaklionUtil@@8
rdata$r	SEGMENT
??_R2CRaklionUtil@@8 DD FLAT:??_R1A@?0A@EA@CRaklionUtil@@8 ; CRaklionUtil::`RTTI Base Class Array'
rdata$r	ENDS
;	COMDAT ??_R3CRaklionUtil@@8
rdata$r	SEGMENT
??_R3CRaklionUtil@@8 DD 00H				; CRaklionUtil::`RTTI Class Hierarchy Descriptor'
	DD	00H
	DD	01H
	DD	FLAT:??_R2CRaklionUtil@@8
rdata$r	ENDS
;	COMDAT ??_R0?AVCRaklionUtil@@@8
_DATA	SEGMENT
??_R0?AVCRaklionUtil@@@8 DD FLAT:??_7type_info@@6B@	; CRaklionUtil `RTTI Type Descriptor'
	DD	00H
	DB	'.?AVCRaklionUtil@@', 00H
_DATA	ENDS
;	COMDAT ??_R4CRaklionUtil@@6B@
rdata$r	SEGMENT
??_R4CRaklionUtil@@6B@ DD 00H				; CRaklionUtil::`RTTI Complete Object Locator'
	DD	00H
	DD	00H
	DD	FLAT:??_R0?AVCRaklionUtil@@@8
	DD	FLAT:??_R3CRaklionUtil@@8
rdata$r	ENDS
;	COMDAT ??_7CRaklionUtil@@6B@
CONST	SEGMENT
??_7CRaklionUtil@@6B@ DD FLAT:??_R4CRaklionUtil@@6B@	; CRaklionUtil::`vftable'
	DD	FLAT:??_ECRaklionUtil@@UAEPAXI@Z
; Function compile flags: /Odtp /ZI
CONST	ENDS
_TEXT	SEGMENT
_this$ = -4						; size = 4
??0CRaklionUtil@@QAE@XZ PROC				; CRaklionUtil::CRaklionUtil
; _this$ = ecx

; 19   : {

  00000	55		 push	 ebp
  00001	8b ec		 mov	 ebp, esp
  00003	83 ec 44	 sub	 esp, 68			; 00000044H
  00006	53		 push	 ebx
  00007	56		 push	 esi
  00008	57		 push	 edi
  00009	89 4d fc	 mov	 DWORD PTR _this$[ebp], ecx
  0000c	8b 45 fc	 mov	 eax, DWORD PTR _this$[ebp]
  0000f	c7 00 00 00 00
	00		 mov	 DWORD PTR [eax], OFFSET ??_7CRaklionUtil@@6B@

; 20   : 
; 21   : }

  00015	8b 45 fc	 mov	 eax, DWORD PTR _this$[ebp]
  00018	5f		 pop	 edi
  00019	5e		 pop	 esi
  0001a	5b		 pop	 ebx
  0001b	8b e5		 mov	 esp, ebp
  0001d	5d		 pop	 ebp
  0001e	c3		 ret	 0
??0CRaklionUtil@@QAE@XZ ENDP				; CRaklionUtil::CRaklionUtil
_TEXT	ENDS
PUBLIC	??1CRaklionUtil@@UAE@XZ				; CRaklionUtil::~CRaklionUtil
EXTRN	??3@YAXPAX@Z:PROC				; operator delete
; Function compile flags: /Odtp /ZI
;	COMDAT ??_GCRaklionUtil@@UAEPAXI@Z
_TEXT	SEGMENT
_this$ = -4						; size = 4
___flags$ = 8						; size = 4
??_GCRaklionUtil@@UAEPAXI@Z PROC			; CRaklionUtil::`scalar deleting destructor', COMDAT
; _this$ = ecx
  00000	55		 push	 ebp
  00001	8b ec		 mov	 ebp, esp
  00003	83 ec 44	 sub	 esp, 68			; 00000044H
  00006	53		 push	 ebx
  00007	56		 push	 esi
  00008	57		 push	 edi
  00009	89 4d fc	 mov	 DWORD PTR _this$[ebp], ecx
  0000c	8b 4d fc	 mov	 ecx, DWORD PTR _this$[ebp]
  0000f	e8 00 00 00 00	 call	 ??1CRaklionUtil@@UAE@XZ	; CRaklionUtil::~CRaklionUtil
  00014	8b 45 08	 mov	 eax, DWORD PTR ___flags$[ebp]
  00017	83 e0 01	 and	 eax, 1
  0001a	74 0c		 je	 SHORT $LN1@scalar
  0001c	8b 45 fc	 mov	 eax, DWORD PTR _this$[ebp]
  0001f	50		 push	 eax
  00020	e8 00 00 00 00	 call	 ??3@YAXPAX@Z		; operator delete
  00025	83 c4 04	 add	 esp, 4
$LN1@scalar:
  00028	8b 45 fc	 mov	 eax, DWORD PTR _this$[ebp]
  0002b	5f		 pop	 edi
  0002c	5e		 pop	 esi
  0002d	5b		 pop	 ebx
  0002e	8b e5		 mov	 esp, ebp
  00030	5d		 pop	 ebp
  00031	c2 04 00	 ret	 4
??_GCRaklionUtil@@UAEPAXI@Z ENDP			; CRaklionUtil::`scalar deleting destructor'
; Function compile flags: /Odtp /ZI
_TEXT	ENDS
_TEXT	SEGMENT
_this$ = -4						; size = 4
??1CRaklionUtil@@UAE@XZ PROC				; CRaklionUtil::~CRaklionUtil
; _this$ = ecx

; 24   : {

  00020	55		 push	 ebp
  00021	8b ec		 mov	 ebp, esp
  00023	83 ec 44	 sub	 esp, 68			; 00000044H
  00026	53		 push	 ebx
  00027	56		 push	 esi
  00028	57		 push	 edi
  00029	89 4d fc	 mov	 DWORD PTR _this$[ebp], ecx
  0002c	8b 45 fc	 mov	 eax, DWORD PTR _this$[ebp]
  0002f	c7 00 00 00 00
	00		 mov	 DWORD PTR [eax], OFFSET ??_7CRaklionUtil@@6B@

; 25   : 
; 26   : }

  00035	5f		 pop	 edi
  00036	5e		 pop	 esi
  00037	5b		 pop	 ebx
  00038	8b e5		 mov	 esp, ebp
  0003a	5d		 pop	 ebp
  0003b	c3		 ret	 0
??1CRaklionUtil@@UAE@XZ ENDP				; CRaklionUtil::~CRaklionUtil
_TEXT	ENDS
PUBLIC	?SendDataRaklionBossMapUser@CRaklionUtil@@QAEXPAEH@Z ; CRaklionUtil::SendDataRaklionBossMapUser
PUBLIC	?SendDataRaklionMapUser@CRaklionUtil@@QAEXPAEH@Z ; CRaklionUtil::SendDataRaklionMapUser
PUBLIC	?NotifyRaklionChangeState@CRaklionUtil@@QAEXHH@Z ; CRaklionUtil::NotifyRaklionChangeState
EXTRN	?PHeadSubSetB@@YAXPAEEEH@Z:PROC			; PHeadSubSetB
; Function compile flags: /Odtp /ZI
_TEXT	SEGMENT
_pMsg$ = -12						; size = 6
_this$ = -4						; size = 4
_iState$ = 8						; size = 4
_iDetailState$ = 12					; size = 4
?NotifyRaklionChangeState@CRaklionUtil@@QAEXHH@Z PROC	; CRaklionUtil::NotifyRaklionChangeState
; _this$ = ecx

; 29   : {

  00040	55		 push	 ebp
  00041	8b ec		 mov	 ebp, esp
  00043	83 ec 4c	 sub	 esp, 76			; 0000004cH
  00046	53		 push	 ebx
  00047	56		 push	 esi
  00048	57		 push	 edi
  00049	89 4d fc	 mov	 DWORD PTR _this$[ebp], ecx

; 30   : 	PMSG_ANS_RAKLION_STATE_CHANGE pMsg = {0};

  0004c	c6 45 f4 00	 mov	 BYTE PTR _pMsg$[ebp], 0
  00050	33 c0		 xor	 eax, eax
  00052	89 45 f5	 mov	 DWORD PTR _pMsg$[ebp+1], eax
  00055	88 45 f9	 mov	 BYTE PTR _pMsg$[ebp+5], al

; 31   : 
; 32   : 	PHeadSubSetB((LPBYTE)&pMsg, 0xD1, 0x12, sizeof(pMsg));

  00058	6a 06		 push	 6
  0005a	6a 12		 push	 18			; 00000012H
  0005c	68 d1 00 00 00	 push	 209			; 000000d1H
  00061	8d 45 f4	 lea	 eax, DWORD PTR _pMsg$[ebp]
  00064	50		 push	 eax
  00065	e8 00 00 00 00	 call	 ?PHeadSubSetB@@YAXPAEEEH@Z ; PHeadSubSetB
  0006a	83 c4 10	 add	 esp, 16			; 00000010H

; 33   : 	pMsg.btState = iState;

  0006d	8a 45 08	 mov	 al, BYTE PTR _iState$[ebp]
  00070	88 45 f8	 mov	 BYTE PTR _pMsg$[ebp+4], al

; 34   : 	pMsg.btDetailState = iDetailState;

  00073	8a 45 0c	 mov	 al, BYTE PTR _iDetailState$[ebp]
  00076	88 45 f9	 mov	 BYTE PTR _pMsg$[ebp+5], al

; 35   : 
; 36   : 	if(iState == 1)

  00079	83 7d 08 01	 cmp	 DWORD PTR _iState$[ebp], 1
  0007d	75 10		 jne	 SHORT $LN1@NotifyRakl

; 37   : 	{
; 38   : 		this->SendDataRaklionMapUser((LPBYTE)&pMsg,sizeof(pMsg));	

  0007f	6a 06		 push	 6
  00081	8d 45 f4	 lea	 eax, DWORD PTR _pMsg$[ebp]
  00084	50		 push	 eax
  00085	8b 4d fc	 mov	 ecx, DWORD PTR _this$[ebp]
  00088	e8 00 00 00 00	 call	 ?SendDataRaklionMapUser@CRaklionUtil@@QAEXPAEH@Z ; CRaklionUtil::SendDataRaklionMapUser

; 39   : 		return;

  0008d	eb 0e		 jmp	 SHORT $LN2@NotifyRakl
$LN1@NotifyRakl:

; 40   : 	}
; 41   : 
; 42   : 	this->SendDataRaklionBossMapUser((LPBYTE)&pMsg, sizeof(pMsg));

  0008f	6a 06		 push	 6
  00091	8d 45 f4	 lea	 eax, DWORD PTR _pMsg$[ebp]
  00094	50		 push	 eax
  00095	8b 4d fc	 mov	 ecx, DWORD PTR _this$[ebp]
  00098	e8 00 00 00 00	 call	 ?SendDataRaklionBossMapUser@CRaklionUtil@@QAEXPAEH@Z ; CRaklionUtil::SendDataRaklionBossMapUser
$LN2@NotifyRakl:

; 43   : }

  0009d	5f		 pop	 edi
  0009e	5e		 pop	 esi
  0009f	5b		 pop	 ebx
  000a0	8b e5		 mov	 esp, ebp
  000a2	5d		 pop	 ebp
  000a3	c2 08 00	 ret	 8
?NotifyRaklionChangeState@CRaklionUtil@@QAEXHH@Z ENDP	; CRaklionUtil::NotifyRaklionChangeState
_TEXT	ENDS
PUBLIC	?NotifyRaklionSuccessValue@CRaklionUtil@@QAEXH@Z ; CRaklionUtil::NotifyRaklionSuccessValue
; Function compile flags: /Odtp /ZI
_TEXT	SEGMENT
_pMsg$ = -12						; size = 5
_this$ = -4						; size = 4
_iSuccessValue$ = 8					; size = 4
?NotifyRaklionSuccessValue@CRaklionUtil@@QAEXH@Z PROC	; CRaklionUtil::NotifyRaklionSuccessValue
; _this$ = ecx

; 46   : {

  000b0	55		 push	 ebp
  000b1	8b ec		 mov	 ebp, esp
  000b3	83 ec 4c	 sub	 esp, 76			; 0000004cH
  000b6	53		 push	 ebx
  000b7	56		 push	 esi
  000b8	57		 push	 edi
  000b9	89 4d fc	 mov	 DWORD PTR _this$[ebp], ecx

; 47   : 	PMSG_ANS_RAKLION_SUCCESS_VALUE pMsg = {0};

  000bc	c6 45 f4 00	 mov	 BYTE PTR _pMsg$[ebp], 0
  000c0	33 c0		 xor	 eax, eax
  000c2	89 45 f5	 mov	 DWORD PTR _pMsg$[ebp+1], eax

; 48   : 
; 49   : 	PHeadSubSetB((LPBYTE)&pMsg, 0xD1, 0x13, sizeof(pMsg));

  000c5	6a 05		 push	 5
  000c7	6a 13		 push	 19			; 00000013H
  000c9	68 d1 00 00 00	 push	 209			; 000000d1H
  000ce	8d 45 f4	 lea	 eax, DWORD PTR _pMsg$[ebp]
  000d1	50		 push	 eax
  000d2	e8 00 00 00 00	 call	 ?PHeadSubSetB@@YAXPAEEEH@Z ; PHeadSubSetB
  000d7	83 c4 10	 add	 esp, 16			; 00000010H

; 50   : 	pMsg.btValue = iSuccessValue;

  000da	8a 45 08	 mov	 al, BYTE PTR _iSuccessValue$[ebp]
  000dd	88 45 f8	 mov	 BYTE PTR _pMsg$[ebp+4], al

; 51   : 
; 52   : 	this->SendDataRaklionBossMapUser((LPBYTE)&pMsg, sizeof(pMsg));

  000e0	6a 05		 push	 5
  000e2	8d 45 f4	 lea	 eax, DWORD PTR _pMsg$[ebp]
  000e5	50		 push	 eax
  000e6	8b 4d fc	 mov	 ecx, DWORD PTR _this$[ebp]
  000e9	e8 00 00 00 00	 call	 ?SendDataRaklionBossMapUser@CRaklionUtil@@QAEXPAEH@Z ; CRaklionUtil::SendDataRaklionBossMapUser

; 53   : }

  000ee	5f		 pop	 edi
  000ef	5e		 pop	 esi
  000f0	5b		 pop	 ebx
  000f1	8b e5		 mov	 esp, ebp
  000f3	5d		 pop	 ebp
  000f4	c2 04 00	 ret	 4
?NotifyRaklionSuccessValue@CRaklionUtil@@QAEXH@Z ENDP	; CRaklionUtil::NotifyRaklionSuccessValue
_TEXT	ENDS
PUBLIC	?NotifyRaklionCurrentState@CRaklionUtil@@QAEXHEE@Z ; CRaklionUtil::NotifyRaklionCurrentState
EXTRN	?DataSend@@YAHHPAEK@Z:PROC			; DataSend
; Function compile flags: /Odtp /ZI
_TEXT	SEGMENT
_pMsg$ = -12						; size = 6
_this$ = -4						; size = 4
_iIndex$ = 8						; size = 4
_btState$ = 12						; size = 1
_btDetailState$ = 16					; size = 1
?NotifyRaklionCurrentState@CRaklionUtil@@QAEXHEE@Z PROC	; CRaklionUtil::NotifyRaklionCurrentState
; _this$ = ecx

; 56   : {

  00100	55		 push	 ebp
  00101	8b ec		 mov	 ebp, esp
  00103	83 ec 4c	 sub	 esp, 76			; 0000004cH
  00106	53		 push	 ebx
  00107	56		 push	 esi
  00108	57		 push	 edi
  00109	89 4d fc	 mov	 DWORD PTR _this$[ebp], ecx

; 57   : 	PMSG_ANS_RAKLION_CURRENT_STATE pMsg = {0};

  0010c	c6 45 f4 00	 mov	 BYTE PTR _pMsg$[ebp], 0
  00110	33 c0		 xor	 eax, eax
  00112	89 45 f5	 mov	 DWORD PTR _pMsg$[ebp+1], eax
  00115	88 45 f9	 mov	 BYTE PTR _pMsg$[ebp+5], al

; 58   : 
; 59   : 	PHeadSubSetB((LPBYTE)&pMsg, 0xD1, 0x11, sizeof(pMsg));

  00118	6a 06		 push	 6
  0011a	6a 11		 push	 17			; 00000011H
  0011c	68 d1 00 00 00	 push	 209			; 000000d1H
  00121	8d 45 f4	 lea	 eax, DWORD PTR _pMsg$[ebp]
  00124	50		 push	 eax
  00125	e8 00 00 00 00	 call	 ?PHeadSubSetB@@YAXPAEEEH@Z ; PHeadSubSetB
  0012a	83 c4 10	 add	 esp, 16			; 00000010H

; 60   : 	pMsg.btCurrentState = btState;

  0012d	8a 45 0c	 mov	 al, BYTE PTR _btState$[ebp]
  00130	88 45 f8	 mov	 BYTE PTR _pMsg$[ebp+4], al

; 61   : 	pMsg.btCurrentDetailState = btDetailState;

  00133	8a 45 10	 mov	 al, BYTE PTR _btDetailState$[ebp]
  00136	88 45 f9	 mov	 BYTE PTR _pMsg$[ebp+5], al

; 62   : 
; 63   : 	DataSend(iIndex, (LPBYTE)&pMsg, sizeof(pMsg));

  00139	6a 06		 push	 6
  0013b	8d 45 f4	 lea	 eax, DWORD PTR _pMsg$[ebp]
  0013e	50		 push	 eax
  0013f	8b 4d 08	 mov	 ecx, DWORD PTR _iIndex$[ebp]
  00142	51		 push	 ecx
  00143	e8 00 00 00 00	 call	 ?DataSend@@YAHHPAEK@Z	; DataSend
  00148	83 c4 0c	 add	 esp, 12			; 0000000cH

; 64   : }

  0014b	5f		 pop	 edi
  0014c	5e		 pop	 esi
  0014d	5b		 pop	 ebx
  0014e	8b e5		 mov	 esp, ebp
  00150	5d		 pop	 ebp
  00151	c2 0c 00	 ret	 12			; 0000000cH
?NotifyRaklionCurrentState@CRaklionUtil@@QAEXHEE@Z ENDP	; CRaklionUtil::NotifyRaklionCurrentState
_TEXT	ENDS
PUBLIC	?SendDataToUser@CRaklionUtil@@QAEXHPAEH@Z	; CRaklionUtil::SendDataToUser
PUBLIC	?NotifyRaklionWideAreaAttack@CRaklionUtil@@QAEXHHH@Z ; CRaklionUtil::NotifyRaklionWideAreaAttack
EXTRN	?gObj@@3PAUOBJECTSTRUCT@@A:DWORD		; gObj
; Function compile flags: /Odtp /ZI
_TEXT	SEGMENT
_pMsg$ = -12						; size = 7
_this$ = -4						; size = 4
_iIndex$ = 8						; size = 4
_iTargetIndex$ = 12					; size = 4
_iSkillType$ = 16					; size = 4
?NotifyRaklionWideAreaAttack@CRaklionUtil@@QAEXHHH@Z PROC ; CRaklionUtil::NotifyRaklionWideAreaAttack
; _this$ = ecx

; 67   : {

  00160	55		 push	 ebp
  00161	8b ec		 mov	 ebp, esp
  00163	83 ec 4c	 sub	 esp, 76			; 0000004cH
  00166	53		 push	 ebx
  00167	56		 push	 esi
  00168	57		 push	 edi
  00169	89 4d fc	 mov	 DWORD PTR _this$[ebp], ecx

; 68   : 	PMSG_NOTIFY_RAKLION_WIDE_AREA_ATTACK pMsg;
; 69   : 
; 70   : 	PHeadSubSetB((LPBYTE)&pMsg, 0xD1, 0x14, sizeof(pMsg));

  0016c	6a 07		 push	 7
  0016e	6a 14		 push	 20			; 00000014H
  00170	68 d1 00 00 00	 push	 209			; 000000d1H
  00175	8d 45 f4	 lea	 eax, DWORD PTR _pMsg$[ebp]
  00178	50		 push	 eax
  00179	e8 00 00 00 00	 call	 ?PHeadSubSetB@@YAXPAEEEH@Z ; PHeadSubSetB
  0017e	83 c4 10	 add	 esp, 16			; 00000010H

; 71   : 	pMsg.btObjClassH = SET_NUMBERH(gObj[iIndex].Class);

  00181	8b 45 08	 mov	 eax, DWORD PTR _iIndex$[ebp]
  00184	69 c0 38 2b 00
	00		 imul	 eax, 11064		; 00002b38H
  0018a	8b 0d 00 00 00
	00		 mov	 ecx, DWORD PTR ?gObj@@3PAUOBJECTSTRUCT@@A ; gObj
  00190	0f b7 94 01 b8
	00 00 00	 movzx	 edx, WORD PTR [ecx+eax+184]
  00198	c1 ea 08	 shr	 edx, 8
  0019b	88 55 f8	 mov	 BYTE PTR _pMsg$[ebp+4], dl

; 72   : 	pMsg.btObjClassL = SET_NUMBERL(gObj[iIndex].Class);

  0019e	8b 45 08	 mov	 eax, DWORD PTR _iIndex$[ebp]
  001a1	69 c0 38 2b 00
	00		 imul	 eax, 11064		; 00002b38H
  001a7	8b 0d 00 00 00
	00		 mov	 ecx, DWORD PTR ?gObj@@3PAUOBJECTSTRUCT@@A ; gObj
  001ad	0f b7 94 01 b8
	00 00 00	 movzx	 edx, WORD PTR [ecx+eax+184]
  001b5	81 e2 ff 00 00
	00		 and	 edx, 255		; 000000ffH
  001bb	88 55 f9	 mov	 BYTE PTR _pMsg$[ebp+5], dl

; 73   : 	pMsg.btType = iSkillType;

  001be	8a 45 10	 mov	 al, BYTE PTR _iSkillType$[ebp]
  001c1	88 45 fa	 mov	 BYTE PTR _pMsg$[ebp+6], al

; 74   : 
; 75   : 	this->SendDataToUser(iTargetIndex, (LPBYTE)&pMsg, sizeof(pMsg));

  001c4	6a 07		 push	 7
  001c6	8d 45 f4	 lea	 eax, DWORD PTR _pMsg$[ebp]
  001c9	50		 push	 eax
  001ca	8b 4d 0c	 mov	 ecx, DWORD PTR _iTargetIndex$[ebp]
  001cd	51		 push	 ecx
  001ce	8b 4d fc	 mov	 ecx, DWORD PTR _this$[ebp]
  001d1	e8 00 00 00 00	 call	 ?SendDataToUser@CRaklionUtil@@QAEXHPAEH@Z ; CRaklionUtil::SendDataToUser

; 76   : }

  001d6	5f		 pop	 edi
  001d7	5e		 pop	 esi
  001d8	5b		 pop	 ebx
  001d9	8b e5		 mov	 esp, ebp
  001db	5d		 pop	 ebp
  001dc	c2 0c 00	 ret	 12			; 0000000cH
?NotifyRaklionWideAreaAttack@CRaklionUtil@@QAEXHHH@Z ENDP ; CRaklionUtil::NotifyRaklionWideAreaAttack
_TEXT	ENDS
PUBLIC	?NotifyRaklionUserMonsterCount@CRaklionUtil@@QAEXEE@Z ; CRaklionUtil::NotifyRaklionUserMonsterCount
; Function compile flags: /Odtp /ZI
_TEXT	SEGMENT
_pMsg$ = -12						; size = 6
_this$ = -4						; size = 4
_btMonsterCount$ = 8					; size = 1
_btUserCount$ = 12					; size = 1
?NotifyRaklionUserMonsterCount@CRaklionUtil@@QAEXEE@Z PROC ; CRaklionUtil::NotifyRaklionUserMonsterCount
; _this$ = ecx

; 79   : {

  001e0	55		 push	 ebp
  001e1	8b ec		 mov	 ebp, esp
  001e3	83 ec 4c	 sub	 esp, 76			; 0000004cH
  001e6	53		 push	 ebx
  001e7	56		 push	 esi
  001e8	57		 push	 edi
  001e9	89 4d fc	 mov	 DWORD PTR _this$[ebp], ecx

; 80   : 	PMSG_NOTIFY_RAKLION_USER_MONSTER_COUNT pMsg;
; 81   : 
; 82   : 	PHeadSubSetB((LPBYTE)&pMsg, 0xD1, 0x15, sizeof(pMsg));

  001ec	6a 06		 push	 6
  001ee	6a 15		 push	 21			; 00000015H
  001f0	68 d1 00 00 00	 push	 209			; 000000d1H
  001f5	8d 45 f4	 lea	 eax, DWORD PTR _pMsg$[ebp]
  001f8	50		 push	 eax
  001f9	e8 00 00 00 00	 call	 ?PHeadSubSetB@@YAXPAEEEH@Z ; PHeadSubSetB
  001fe	83 c4 10	 add	 esp, 16			; 00000010H

; 83   : 	pMsg.btMonsterCount = btMonsterCount;

  00201	8a 45 08	 mov	 al, BYTE PTR _btMonsterCount$[ebp]
  00204	88 45 f8	 mov	 BYTE PTR _pMsg$[ebp+4], al

; 84   : 	pMsg.btUserCount = btUserCount;

  00207	8a 45 0c	 mov	 al, BYTE PTR _btUserCount$[ebp]
  0020a	88 45 f9	 mov	 BYTE PTR _pMsg$[ebp+5], al

; 85   : 
; 86   : 	this->SendDataRaklionBossMapUser((LPBYTE)&pMsg, sizeof(pMsg));

  0020d	6a 06		 push	 6
  0020f	8d 45 f4	 lea	 eax, DWORD PTR _pMsg$[ebp]
  00212	50		 push	 eax
  00213	8b 4d fc	 mov	 ecx, DWORD PTR _this$[ebp]
  00216	e8 00 00 00 00	 call	 ?SendDataRaklionBossMapUser@CRaklionUtil@@QAEXPAEH@Z ; CRaklionUtil::SendDataRaklionBossMapUser

; 87   : }

  0021b	5f		 pop	 edi
  0021c	5e		 pop	 esi
  0021d	5b		 pop	 ebx
  0021e	8b e5		 mov	 esp, ebp
  00220	5d		 pop	 ebp
  00221	c2 08 00	 ret	 8
?NotifyRaklionUserMonsterCount@CRaklionUtil@@QAEXEE@Z ENDP ; CRaklionUtil::NotifyRaklionUserMonsterCount
_TEXT	ENDS
PUBLIC	??A?$vector@HV?$allocator@H@std@@@std@@QAEAAHI@Z ; std::vector<int,std::allocator<int> >::operator[]
PUBLIC	?size@?$vector@HV?$allocator@H@std@@@std@@QBEIXZ ; std::vector<int,std::allocator<int> >::size
PUBLIC	??_C@_00CNPNBAHC@?$AA@				; `string'
PUBLIC	__$ArrayPad$
PUBLIC	?SendMsgUser@CRaklionUtil@@QAAXPADZZ		; CRaklionUtil::SendMsgUser
EXTRN	?SendNoticeToUser@TNotice@@SAXHPAX@Z:PROC	; TNotice::SendNoticeToUser
EXTRN	?g_RaklionBattleUserMng@@3VCRaklionBattleUserMng@@A:BYTE ; g_RaklionBattleUserMng
EXTRN	?MakeNoticeMsg@TNotice@@SAXPAXEPAD@Z:PROC	; TNotice::MakeNoticeMsg
EXTRN	_vsprintf:PROC
EXTRN	___security_cookie:DWORD
EXTRN	@__security_check_cookie@4:PROC
EXTRN	_memset:PROC
;	COMDAT ??_C@_00CNPNBAHC@?$AA@
CONST	SEGMENT
??_C@_00CNPNBAHC@?$AA@ DB 00H				; `string'
; Function compile flags: /Odtp /ZI
CONST	ENDS
_TEXT	SEGMENT
_iCount$219544 = -796					; size = 4
_pNotice$ = -792					; size = 272
_pArguments$ = -520					; size = 4
_szBuffer$ = -516					; size = 512
__$ArrayPad$ = -4					; size = 4
_this$ = 8						; size = 4
_lpszMsg$ = 12						; size = 4
?SendMsgUser@CRaklionUtil@@QAAXPADZZ PROC		; CRaklionUtil::SendMsgUser

; 90   : {

  00230	55		 push	 ebp
  00231	8b ec		 mov	 ebp, esp
  00233	81 ec 5c 03 00
	00		 sub	 esp, 860		; 0000035cH
  00239	a1 00 00 00 00	 mov	 eax, DWORD PTR ___security_cookie
  0023e	33 c5		 xor	 eax, ebp
  00240	89 45 fc	 mov	 DWORD PTR __$ArrayPad$[ebp], eax
  00243	53		 push	 ebx
  00244	56		 push	 esi
  00245	57		 push	 edi

; 91   : 	if ( !lpszMsg )

  00246	83 7d 0c 00	 cmp	 DWORD PTR _lpszMsg$[ebp], 0
  0024a	75 05		 jne	 SHORT $LN5@SendMsgUse

; 92   : 		return;

  0024c	e9 0a 01 00 00	 jmp	 $LN6@SendMsgUse
$LN5@SendMsgUse:

; 93   : 
; 94   : 	char szBuffer[512] = "";

  00251	a0 00 00 00 00	 mov	 al, BYTE PTR ??_C@_00CNPNBAHC@?$AA@
  00256	88 85 fc fd ff
	ff		 mov	 BYTE PTR _szBuffer$[ebp], al
  0025c	68 ff 01 00 00	 push	 511			; 000001ffH
  00261	6a 00		 push	 0
  00263	8d 85 fd fd ff
	ff		 lea	 eax, DWORD PTR _szBuffer$[ebp+1]
  00269	50		 push	 eax
  0026a	e8 00 00 00 00	 call	 _memset
  0026f	83 c4 0c	 add	 esp, 12			; 0000000cH

; 95   : 	va_list pArguments;
; 96   : 
; 97   : 	va_start(pArguments, lpszMsg);

  00272	8d 45 10	 lea	 eax, DWORD PTR _lpszMsg$[ebp+4]
  00275	89 85 f8 fd ff
	ff		 mov	 DWORD PTR _pArguments$[ebp], eax

; 98   : 	vsprintf(szBuffer, lpszMsg, pArguments);

  0027b	8b 85 f8 fd ff
	ff		 mov	 eax, DWORD PTR _pArguments$[ebp]
  00281	50		 push	 eax
  00282	8b 4d 0c	 mov	 ecx, DWORD PTR _lpszMsg$[ebp]
  00285	51		 push	 ecx
  00286	8d 95 fc fd ff
	ff		 lea	 edx, DWORD PTR _szBuffer$[ebp]
  0028c	52		 push	 edx
  0028d	e8 00 00 00 00	 call	 _vsprintf
  00292	83 c4 0c	 add	 esp, 12			; 0000000cH

; 99   : 	va_end(pArguments);

  00295	c7 85 f8 fd ff
	ff 00 00 00 00	 mov	 DWORD PTR _pArguments$[ebp], 0

; 100  : 
; 101  : 	PMSG_NOTICE pNotice;
; 102  : 	TNotice::MakeNoticeMsg(&pNotice, 1, szBuffer);

  0029f	8d 85 fc fd ff
	ff		 lea	 eax, DWORD PTR _szBuffer$[ebp]
  002a5	50		 push	 eax
  002a6	6a 01		 push	 1
  002a8	8d 8d e8 fc ff
	ff		 lea	 ecx, DWORD PTR _pNotice$[ebp]
  002ae	51		 push	 ecx
  002af	e8 00 00 00 00	 call	 ?MakeNoticeMsg@TNotice@@SAXPAXEPAD@Z ; TNotice::MakeNoticeMsg
  002b4	83 c4 0c	 add	 esp, 12			; 0000000cH

; 103  : 
; 104  : 	for ( int iCount=0;iCount<g_RaklionBattleUserMng.m_vtUserInfo.size();iCount++)

  002b7	c7 85 e4 fc ff
	ff 00 00 00 00	 mov	 DWORD PTR _iCount$219544[ebp], 0
  002c1	eb 0f		 jmp	 SHORT $LN4@SendMsgUse
$LN3@SendMsgUse:
  002c3	8b 85 e4 fc ff
	ff		 mov	 eax, DWORD PTR _iCount$219544[ebp]
  002c9	83 c0 01	 add	 eax, 1
  002cc	89 85 e4 fc ff
	ff		 mov	 DWORD PTR _iCount$219544[ebp], eax
$LN4@SendMsgUse:
  002d2	b9 04 00 00 00	 mov	 ecx, OFFSET ?g_RaklionBattleUserMng@@3VCRaklionBattleUserMng@@A+4
  002d7	e8 00 00 00 00	 call	 ?size@?$vector@HV?$allocator@H@std@@@std@@QBEIXZ ; std::vector<int,std::allocator<int> >::size
  002dc	39 85 e4 fc ff
	ff		 cmp	 DWORD PTR _iCount$219544[ebp], eax
  002e2	73 77		 jae	 SHORT $LN6@SendMsgUse

; 105  : 	{
; 106  : 		if ( gObj[g_RaklionBattleUserMng.m_vtUserInfo[iCount]].Connected == PLAYER_PLAYING &&
; 107  : 			 gObj[g_RaklionBattleUserMng.m_vtUserInfo[iCount]].Type == OBJ_USER)

  002e4	8b 85 e4 fc ff
	ff		 mov	 eax, DWORD PTR _iCount$219544[ebp]
  002ea	50		 push	 eax
  002eb	b9 04 00 00 00	 mov	 ecx, OFFSET ?g_RaklionBattleUserMng@@3VCRaklionBattleUserMng@@A+4
  002f0	e8 00 00 00 00	 call	 ??A?$vector@HV?$allocator@H@std@@@std@@QAEAAHI@Z ; std::vector<int,std::allocator<int> >::operator[]
  002f5	8b 08		 mov	 ecx, DWORD PTR [eax]
  002f7	69 c9 38 2b 00
	00		 imul	 ecx, 11064		; 00002b38H
  002fd	8b 15 00 00 00
	00		 mov	 edx, DWORD PTR ?gObj@@3PAUOBJECTSTRUCT@@A ; gObj
  00303	83 7c 0a 04 03	 cmp	 DWORD PTR [edx+ecx+4], 3
  00308	75 4c		 jne	 SHORT $LN1@SendMsgUse
  0030a	8b 85 e4 fc ff
	ff		 mov	 eax, DWORD PTR _iCount$219544[ebp]
  00310	50		 push	 eax
  00311	b9 04 00 00 00	 mov	 ecx, OFFSET ?g_RaklionBattleUserMng@@3VCRaklionBattleUserMng@@A+4
  00316	e8 00 00 00 00	 call	 ??A?$vector@HV?$allocator@H@std@@@std@@QAEAAHI@Z ; std::vector<int,std::allocator<int> >::operator[]
  0031b	8b 08		 mov	 ecx, DWORD PTR [eax]
  0031d	69 c9 38 2b 00
	00		 imul	 ecx, 11064		; 00002b38H
  00323	8b 15 00 00 00
	00		 mov	 edx, DWORD PTR ?gObj@@3PAUOBJECTSTRUCT@@A ; gObj
  00329	0f b7 44 0a 68	 movzx	 eax, WORD PTR [edx+ecx+104]
  0032e	83 f8 01	 cmp	 eax, 1
  00331	75 23		 jne	 SHORT $LN1@SendMsgUse

; 108  : 		{
; 109  : 			TNotice::SendNoticeToUser(g_RaklionBattleUserMng.m_vtUserInfo[iCount], &pNotice);

  00333	8d 85 e8 fc ff
	ff		 lea	 eax, DWORD PTR _pNotice$[ebp]
  00339	50		 push	 eax
  0033a	8b 8d e4 fc ff
	ff		 mov	 ecx, DWORD PTR _iCount$219544[ebp]
  00340	51		 push	 ecx
  00341	b9 04 00 00 00	 mov	 ecx, OFFSET ?g_RaklionBattleUserMng@@3VCRaklionBattleUserMng@@A+4
  00346	e8 00 00 00 00	 call	 ??A?$vector@HV?$allocator@H@std@@@std@@QAEAAHI@Z ; std::vector<int,std::allocator<int> >::operator[]
  0034b	8b 10		 mov	 edx, DWORD PTR [eax]
  0034d	52		 push	 edx
  0034e	e8 00 00 00 00	 call	 ?SendNoticeToUser@TNotice@@SAXHPAX@Z ; TNotice::SendNoticeToUser
  00353	83 c4 08	 add	 esp, 8
$LN1@SendMsgUse:

; 110  : 		}
; 111  : 	}

  00356	e9 68 ff ff ff	 jmp	 $LN3@SendMsgUse
$LN6@SendMsgUse:

; 112  : }

  0035b	5f		 pop	 edi
  0035c	5e		 pop	 esi
  0035d	5b		 pop	 ebx
  0035e	8b 4d fc	 mov	 ecx, DWORD PTR __$ArrayPad$[ebp]
  00361	33 cd		 xor	 ecx, ebp
  00363	e8 00 00 00 00	 call	 @__security_check_cookie@4
  00368	8b e5		 mov	 esp, ebp
  0036a	5d		 pop	 ebp
  0036b	c3		 ret	 0
?SendMsgUser@CRaklionUtil@@QAAXPADZZ ENDP		; CRaklionUtil::SendMsgUser
_TEXT	ENDS
PUBLIC	__$ArrayPad$
PUBLIC	?SendMsgRaklionBossMapUser@CRaklionUtil@@QAAXPADZZ ; CRaklionUtil::SendMsgRaklionBossMapUser
; Function compile flags: /Odtp /ZI
_TEXT	SEGMENT
_iCount$219563 = -796					; size = 4
_pNotice$ = -792					; size = 272
_pArguments$ = -520					; size = 4
_szBuffer$ = -516					; size = 512
__$ArrayPad$ = -4					; size = 4
_this$ = 8						; size = 4
_lpszMsg$ = 12						; size = 4
?SendMsgRaklionBossMapUser@CRaklionUtil@@QAAXPADZZ PROC	; CRaklionUtil::SendMsgRaklionBossMapUser

; 115  : {

  00370	55		 push	 ebp
  00371	8b ec		 mov	 ebp, esp
  00373	81 ec 5c 03 00
	00		 sub	 esp, 860		; 0000035cH
  00379	a1 00 00 00 00	 mov	 eax, DWORD PTR ___security_cookie
  0037e	33 c5		 xor	 eax, ebp
  00380	89 45 fc	 mov	 DWORD PTR __$ArrayPad$[ebp], eax
  00383	53		 push	 ebx
  00384	56		 push	 esi
  00385	57		 push	 edi

; 116  : 	if ( !lpszMsg )

  00386	83 7d 0c 00	 cmp	 DWORD PTR _lpszMsg$[ebp], 0
  0038a	75 05		 jne	 SHORT $LN5@SendMsgRak

; 117  : 		return;

  0038c	e9 fc 00 00 00	 jmp	 $LN6@SendMsgRak
$LN5@SendMsgRak:

; 118  : 
; 119  : 	char szBuffer[512] = "";

  00391	a0 00 00 00 00	 mov	 al, BYTE PTR ??_C@_00CNPNBAHC@?$AA@
  00396	88 85 fc fd ff
	ff		 mov	 BYTE PTR _szBuffer$[ebp], al
  0039c	68 ff 01 00 00	 push	 511			; 000001ffH
  003a1	6a 00		 push	 0
  003a3	8d 85 fd fd ff
	ff		 lea	 eax, DWORD PTR _szBuffer$[ebp+1]
  003a9	50		 push	 eax
  003aa	e8 00 00 00 00	 call	 _memset
  003af	83 c4 0c	 add	 esp, 12			; 0000000cH

; 120  : 	va_list pArguments;
; 121  : 
; 122  : 	va_start(pArguments, lpszMsg);

  003b2	8d 45 10	 lea	 eax, DWORD PTR _lpszMsg$[ebp+4]
  003b5	89 85 f8 fd ff
	ff		 mov	 DWORD PTR _pArguments$[ebp], eax

; 123  : 	vsprintf(szBuffer, lpszMsg, pArguments);

  003bb	8b 85 f8 fd ff
	ff		 mov	 eax, DWORD PTR _pArguments$[ebp]
  003c1	50		 push	 eax
  003c2	8b 4d 0c	 mov	 ecx, DWORD PTR _lpszMsg$[ebp]
  003c5	51		 push	 ecx
  003c6	8d 95 fc fd ff
	ff		 lea	 edx, DWORD PTR _szBuffer$[ebp]
  003cc	52		 push	 edx
  003cd	e8 00 00 00 00	 call	 _vsprintf
  003d2	83 c4 0c	 add	 esp, 12			; 0000000cH

; 124  : 	va_end(pArguments);

  003d5	c7 85 f8 fd ff
	ff 00 00 00 00	 mov	 DWORD PTR _pArguments$[ebp], 0

; 125  : 
; 126  : 	PMSG_NOTICE pNotice;
; 127  : 	TNotice::MakeNoticeMsg(&pNotice, 0, szBuffer);

  003df	8d 85 fc fd ff
	ff		 lea	 eax, DWORD PTR _szBuffer$[ebp]
  003e5	50		 push	 eax
  003e6	6a 00		 push	 0
  003e8	8d 8d e8 fc ff
	ff		 lea	 ecx, DWORD PTR _pNotice$[ebp]
  003ee	51		 push	 ecx
  003ef	e8 00 00 00 00	 call	 ?MakeNoticeMsg@TNotice@@SAXPAXEPAD@Z ; TNotice::MakeNoticeMsg
  003f4	83 c4 0c	 add	 esp, 12			; 0000000cH

; 128  : 
; 129  : 	for ( int iCount=OBJ_STARTUSERINDEX;iCount<OBJMAX;iCount++)

  003f7	c7 85 e4 fc ff
	ff b0 36 00 00	 mov	 DWORD PTR _iCount$219563[ebp], 14000 ; 000036b0H
  00401	eb 0f		 jmp	 SHORT $LN4@SendMsgRak
$LN3@SendMsgRak:
  00403	8b 85 e4 fc ff
	ff		 mov	 eax, DWORD PTR _iCount$219563[ebp]
  00409	83 c0 01	 add	 eax, 1
  0040c	89 85 e4 fc ff
	ff		 mov	 DWORD PTR _iCount$219563[ebp], eax
$LN4@SendMsgRak:
  00412	81 bd e4 fc ff
	ff 98 3a 00 00	 cmp	 DWORD PTR _iCount$219563[ebp], 15000 ; 00003a98H
  0041c	7d 6f		 jge	 SHORT $LN6@SendMsgRak

; 130  : 	{
; 131  : 		if ( gObj[iCount].Connected == PLAYER_PLAYING &&
; 132  : 			 gObj[iCount].Type == OBJ_USER &&
; 133  : 			 gObj[iCount].MapNumber == MAP_INDEX_RAKLION_BOSS)

  0041e	8b 85 e4 fc ff
	ff		 mov	 eax, DWORD PTR _iCount$219563[ebp]
  00424	69 c0 38 2b 00
	00		 imul	 eax, 11064		; 00002b38H
  0042a	8b 0d 00 00 00
	00		 mov	 ecx, DWORD PTR ?gObj@@3PAUOBJECTSTRUCT@@A ; gObj
  00430	83 7c 01 04 03	 cmp	 DWORD PTR [ecx+eax+4], 3
  00435	75 51		 jne	 SHORT $LN1@SendMsgRak
  00437	8b 85 e4 fc ff
	ff		 mov	 eax, DWORD PTR _iCount$219563[ebp]
  0043d	69 c0 38 2b 00
	00		 imul	 eax, 11064		; 00002b38H
  00443	8b 0d 00 00 00
	00		 mov	 ecx, DWORD PTR ?gObj@@3PAUOBJECTSTRUCT@@A ; gObj
  00449	0f b7 54 01 68	 movzx	 edx, WORD PTR [ecx+eax+104]
  0044e	83 fa 01	 cmp	 edx, 1
  00451	75 35		 jne	 SHORT $LN1@SendMsgRak
  00453	8b 85 e4 fc ff
	ff		 mov	 eax, DWORD PTR _iCount$219563[ebp]
  00459	69 c0 38 2b 00
	00		 imul	 eax, 11064		; 00002b38H
  0045f	8b 0d 00 00 00
	00		 mov	 ecx, DWORD PTR ?gObj@@3PAUOBJECTSTRUCT@@A ; gObj
  00465	0f b6 94 01 49
	01 00 00	 movzx	 edx, BYTE PTR [ecx+eax+329]
  0046d	83 fa 3a	 cmp	 edx, 58			; 0000003aH
  00470	75 16		 jne	 SHORT $LN1@SendMsgRak

; 134  : 		{
; 135  : 			TNotice::SendNoticeToUser(iCount, &pNotice);

  00472	8d 85 e8 fc ff
	ff		 lea	 eax, DWORD PTR _pNotice$[ebp]
  00478	50		 push	 eax
  00479	8b 8d e4 fc ff
	ff		 mov	 ecx, DWORD PTR _iCount$219563[ebp]
  0047f	51		 push	 ecx
  00480	e8 00 00 00 00	 call	 ?SendNoticeToUser@TNotice@@SAXHPAX@Z ; TNotice::SendNoticeToUser
  00485	83 c4 08	 add	 esp, 8
$LN1@SendMsgRak:

; 136  : 		}
; 137  : 	}

  00488	e9 76 ff ff ff	 jmp	 $LN3@SendMsgRak
$LN6@SendMsgRak:

; 138  : }

  0048d	5f		 pop	 edi
  0048e	5e		 pop	 esi
  0048f	5b		 pop	 ebx
  00490	8b 4d fc	 mov	 ecx, DWORD PTR __$ArrayPad$[ebp]
  00493	33 cd		 xor	 ecx, ebp
  00495	e8 00 00 00 00	 call	 @__security_check_cookie@4
  0049a	8b e5		 mov	 esp, ebp
  0049c	5d		 pop	 ebp
  0049d	c3		 ret	 0
?SendMsgRaklionBossMapUser@CRaklionUtil@@QAAXPADZZ ENDP	; CRaklionUtil::SendMsgRaklionBossMapUser
; Function compile flags: /Odtp /ZI
_iCount$219573 = -8					; size = 4
_this$ = -4						; size = 4
_lpMsg$ = 8						; size = 4
_iSize$ = 12						; size = 4
?SendDataRaklionBossMapUser@CRaklionUtil@@QAEXPAEH@Z PROC ; CRaklionUtil::SendDataRaklionBossMapUser
; _this$ = ecx

; 141  : {

  004a0	55		 push	 ebp
  004a1	8b ec		 mov	 ebp, esp
  004a3	83 ec 48	 sub	 esp, 72			; 00000048H
  004a6	53		 push	 ebx
  004a7	56		 push	 esi
  004a8	57		 push	 edi
  004a9	89 4d fc	 mov	 DWORD PTR _this$[ebp], ecx

; 142  : 	for ( int iCount=OBJ_STARTUSERINDEX;iCount<OBJMAX;iCount++)

  004ac	c7 45 f8 b0 36
	00 00		 mov	 DWORD PTR _iCount$219573[ebp], 14000 ; 000036b0H
  004b3	eb 09		 jmp	 SHORT $LN4@SendDataRa
$LN3@SendDataRa:
  004b5	8b 45 f8	 mov	 eax, DWORD PTR _iCount$219573[ebp]
  004b8	83 c0 01	 add	 eax, 1
  004bb	89 45 f8	 mov	 DWORD PTR _iCount$219573[ebp], eax
$LN4@SendDataRa:
  004be	81 7d f8 98 3a
	00 00		 cmp	 DWORD PTR _iCount$219573[ebp], 15000 ; 00003a98H
  004c5	7d 61		 jge	 SHORT $LN5@SendDataRa

; 143  : 	{
; 144  : 		if ( gObj[iCount].Connected == PLAYER_PLAYING &&
; 145  : 			 gObj[iCount].Type == OBJ_USER &&
; 146  : 			 gObj[iCount].MapNumber == MAP_INDEX_RAKLION_BOSS)

  004c7	8b 45 f8	 mov	 eax, DWORD PTR _iCount$219573[ebp]
  004ca	69 c0 38 2b 00
	00		 imul	 eax, 11064		; 00002b38H
  004d0	8b 0d 00 00 00
	00		 mov	 ecx, DWORD PTR ?gObj@@3PAUOBJECTSTRUCT@@A ; gObj
  004d6	83 7c 01 04 03	 cmp	 DWORD PTR [ecx+eax+4], 3
  004db	75 49		 jne	 SHORT $LN1@SendDataRa
  004dd	8b 45 f8	 mov	 eax, DWORD PTR _iCount$219573[ebp]
  004e0	69 c0 38 2b 00
	00		 imul	 eax, 11064		; 00002b38H
  004e6	8b 0d 00 00 00
	00		 mov	 ecx, DWORD PTR ?gObj@@3PAUOBJECTSTRUCT@@A ; gObj
  004ec	0f b7 54 01 68	 movzx	 edx, WORD PTR [ecx+eax+104]
  004f1	83 fa 01	 cmp	 edx, 1
  004f4	75 30		 jne	 SHORT $LN1@SendDataRa
  004f6	8b 45 f8	 mov	 eax, DWORD PTR _iCount$219573[ebp]
  004f9	69 c0 38 2b 00
	00		 imul	 eax, 11064		; 00002b38H
  004ff	8b 0d 00 00 00
	00		 mov	 ecx, DWORD PTR ?gObj@@3PAUOBJECTSTRUCT@@A ; gObj
  00505	0f b6 94 01 49
	01 00 00	 movzx	 edx, BYTE PTR [ecx+eax+329]
  0050d	83 fa 3a	 cmp	 edx, 58			; 0000003aH
  00510	75 14		 jne	 SHORT $LN1@SendDataRa

; 147  : 		{
; 148  : 			DataSend(iCount, lpMsg, iSize);

  00512	8b 45 0c	 mov	 eax, DWORD PTR _iSize$[ebp]
  00515	50		 push	 eax
  00516	8b 4d 08	 mov	 ecx, DWORD PTR _lpMsg$[ebp]
  00519	51		 push	 ecx
  0051a	8b 55 f8	 mov	 edx, DWORD PTR _iCount$219573[ebp]
  0051d	52		 push	 edx
  0051e	e8 00 00 00 00	 call	 ?DataSend@@YAHHPAEK@Z	; DataSend
  00523	83 c4 0c	 add	 esp, 12			; 0000000cH
$LN1@SendDataRa:

; 149  : 		}
; 150  : 	}

  00526	eb 8d		 jmp	 SHORT $LN3@SendDataRa
$LN5@SendDataRa:

; 151  : }

  00528	5f		 pop	 edi
  00529	5e		 pop	 esi
  0052a	5b		 pop	 ebx
  0052b	8b e5		 mov	 esp, ebp
  0052d	5d		 pop	 ebp
  0052e	c2 08 00	 ret	 8
?SendDataRaklionBossMapUser@CRaklionUtil@@QAEXPAEH@Z ENDP ; CRaklionUtil::SendDataRaklionBossMapUser
_TEXT	ENDS
PUBLIC	__$ArrayPad$
PUBLIC	?SendMsgRaklionMapUser@CRaklionUtil@@QAAXPADZZ	; CRaklionUtil::SendMsgRaklionMapUser
; Function compile flags: /Odtp /ZI
_TEXT	SEGMENT
_iCount$219592 = -796					; size = 4
_pNotice$ = -792					; size = 272
_pArguments$ = -520					; size = 4
_szBuffer$ = -516					; size = 512
__$ArrayPad$ = -4					; size = 4
_this$ = 8						; size = 4
_lpszMsg$ = 12						; size = 4
?SendMsgRaklionMapUser@CRaklionUtil@@QAAXPADZZ PROC	; CRaklionUtil::SendMsgRaklionMapUser

; 154  : {

  00540	55		 push	 ebp
  00541	8b ec		 mov	 ebp, esp
  00543	81 ec 5c 03 00
	00		 sub	 esp, 860		; 0000035cH
  00549	a1 00 00 00 00	 mov	 eax, DWORD PTR ___security_cookie
  0054e	33 c5		 xor	 eax, ebp
  00550	89 45 fc	 mov	 DWORD PTR __$ArrayPad$[ebp], eax
  00553	53		 push	 ebx
  00554	56		 push	 esi
  00555	57		 push	 edi

; 155  : 	if ( !lpszMsg )

  00556	83 7d 0c 00	 cmp	 DWORD PTR _lpszMsg$[ebp], 0
  0055a	75 05		 jne	 SHORT $LN6@SendMsgRak@2

; 156  : 		return;

  0055c	e9 1f 01 00 00	 jmp	 $LN7@SendMsgRak@2
$LN6@SendMsgRak@2:

; 157  : 
; 158  : 	char szBuffer[512] = "";

  00561	a0 00 00 00 00	 mov	 al, BYTE PTR ??_C@_00CNPNBAHC@?$AA@
  00566	88 85 fc fd ff
	ff		 mov	 BYTE PTR _szBuffer$[ebp], al
  0056c	68 ff 01 00 00	 push	 511			; 000001ffH
  00571	6a 00		 push	 0
  00573	8d 85 fd fd ff
	ff		 lea	 eax, DWORD PTR _szBuffer$[ebp+1]
  00579	50		 push	 eax
  0057a	e8 00 00 00 00	 call	 _memset
  0057f	83 c4 0c	 add	 esp, 12			; 0000000cH

; 159  : 	va_list pArguments;
; 160  : 
; 161  : 	va_start(pArguments, lpszMsg);

  00582	8d 45 10	 lea	 eax, DWORD PTR _lpszMsg$[ebp+4]
  00585	89 85 f8 fd ff
	ff		 mov	 DWORD PTR _pArguments$[ebp], eax

; 162  : 	vsprintf(szBuffer, lpszMsg, pArguments);

  0058b	8b 85 f8 fd ff
	ff		 mov	 eax, DWORD PTR _pArguments$[ebp]
  00591	50		 push	 eax
  00592	8b 4d 0c	 mov	 ecx, DWORD PTR _lpszMsg$[ebp]
  00595	51		 push	 ecx
  00596	8d 95 fc fd ff
	ff		 lea	 edx, DWORD PTR _szBuffer$[ebp]
  0059c	52		 push	 edx
  0059d	e8 00 00 00 00	 call	 _vsprintf
  005a2	83 c4 0c	 add	 esp, 12			; 0000000cH

; 163  : 	va_end(pArguments);

  005a5	c7 85 f8 fd ff
	ff 00 00 00 00	 mov	 DWORD PTR _pArguments$[ebp], 0

; 164  : 
; 165  : 	PMSG_NOTICE pNotice;
; 166  : 	TNotice::MakeNoticeMsg(&pNotice, 0, szBuffer);

  005af	8d 85 fc fd ff
	ff		 lea	 eax, DWORD PTR _szBuffer$[ebp]
  005b5	50		 push	 eax
  005b6	6a 00		 push	 0
  005b8	8d 8d e8 fc ff
	ff		 lea	 ecx, DWORD PTR _pNotice$[ebp]
  005be	51		 push	 ecx
  005bf	e8 00 00 00 00	 call	 ?MakeNoticeMsg@TNotice@@SAXPAXEPAD@Z ; TNotice::MakeNoticeMsg
  005c4	83 c4 0c	 add	 esp, 12			; 0000000cH

; 167  : 
; 168  : 	for ( int iCount=OBJ_STARTUSERINDEX;iCount<OBJMAX;iCount++)

  005c7	c7 85 e4 fc ff
	ff b0 36 00 00	 mov	 DWORD PTR _iCount$219592[ebp], 14000 ; 000036b0H
  005d1	eb 0f		 jmp	 SHORT $LN5@SendMsgRak@2
$LN4@SendMsgRak@2:
  005d3	8b 85 e4 fc ff
	ff		 mov	 eax, DWORD PTR _iCount$219592[ebp]
  005d9	83 c0 01	 add	 eax, 1
  005dc	89 85 e4 fc ff
	ff		 mov	 DWORD PTR _iCount$219592[ebp], eax
$LN5@SendMsgRak@2:
  005e2	81 bd e4 fc ff
	ff 98 3a 00 00	 cmp	 DWORD PTR _iCount$219592[ebp], 15000 ; 00003a98H
  005ec	0f 8d 8e 00 00
	00		 jge	 $LN7@SendMsgRak@2

; 169  : 	{
; 170  : 		if ( gObj[iCount].Connected == PLAYER_PLAYING &&
; 171  : 			 gObj[iCount].Type == OBJ_USER &&
; 172  : 			 ( gObj[iCount].MapNumber == MAP_INDEX_RAKLION ||
; 173  : 			 gObj[iCount].MapNumber == MAP_INDEX_RAKLION_BOSS) )

  005f2	8b 85 e4 fc ff
	ff		 mov	 eax, DWORD PTR _iCount$219592[ebp]
  005f8	69 c0 38 2b 00
	00		 imul	 eax, 11064		; 00002b38H
  005fe	8b 0d 00 00 00
	00		 mov	 ecx, DWORD PTR ?gObj@@3PAUOBJECTSTRUCT@@A ; gObj
  00604	83 7c 01 04 03	 cmp	 DWORD PTR [ecx+eax+4], 3
  00609	75 70		 jne	 SHORT $LN2@SendMsgRak@2
  0060b	8b 85 e4 fc ff
	ff		 mov	 eax, DWORD PTR _iCount$219592[ebp]
  00611	69 c0 38 2b 00
	00		 imul	 eax, 11064		; 00002b38H
  00617	8b 0d 00 00 00
	00		 mov	 ecx, DWORD PTR ?gObj@@3PAUOBJECTSTRUCT@@A ; gObj
  0061d	0f b7 54 01 68	 movzx	 edx, WORD PTR [ecx+eax+104]
  00622	83 fa 01	 cmp	 edx, 1
  00625	75 54		 jne	 SHORT $LN2@SendMsgRak@2
  00627	8b 85 e4 fc ff
	ff		 mov	 eax, DWORD PTR _iCount$219592[ebp]
  0062d	69 c0 38 2b 00
	00		 imul	 eax, 11064		; 00002b38H
  00633	8b 0d 00 00 00
	00		 mov	 ecx, DWORD PTR ?gObj@@3PAUOBJECTSTRUCT@@A ; gObj
  00639	0f b6 94 01 49
	01 00 00	 movzx	 edx, BYTE PTR [ecx+eax+329]
  00641	83 fa 39	 cmp	 edx, 57			; 00000039H
  00644	74 1f		 je	 SHORT $LN1@SendMsgRak@2
  00646	8b 85 e4 fc ff
	ff		 mov	 eax, DWORD PTR _iCount$219592[ebp]
  0064c	69 c0 38 2b 00
	00		 imul	 eax, 11064		; 00002b38H
  00652	8b 0d 00 00 00
	00		 mov	 ecx, DWORD PTR ?gObj@@3PAUOBJECTSTRUCT@@A ; gObj
  00658	0f b6 94 01 49
	01 00 00	 movzx	 edx, BYTE PTR [ecx+eax+329]
  00660	83 fa 3a	 cmp	 edx, 58			; 0000003aH
  00663	75 16		 jne	 SHORT $LN2@SendMsgRak@2
$LN1@SendMsgRak@2:

; 174  : 		{
; 175  : 			TNotice::SendNoticeToUser(iCount, &pNotice);

  00665	8d 85 e8 fc ff
	ff		 lea	 eax, DWORD PTR _pNotice$[ebp]
  0066b	50		 push	 eax
  0066c	8b 8d e4 fc ff
	ff		 mov	 ecx, DWORD PTR _iCount$219592[ebp]
  00672	51		 push	 ecx
  00673	e8 00 00 00 00	 call	 ?SendNoticeToUser@TNotice@@SAXHPAX@Z ; TNotice::SendNoticeToUser
  00678	83 c4 08	 add	 esp, 8
$LN2@SendMsgRak@2:

; 176  : 		}
; 177  : 	}

  0067b	e9 53 ff ff ff	 jmp	 $LN4@SendMsgRak@2
$LN7@SendMsgRak@2:

; 178  : }

  00680	5f		 pop	 edi
  00681	5e		 pop	 esi
  00682	5b		 pop	 ebx
  00683	8b 4d fc	 mov	 ecx, DWORD PTR __$ArrayPad$[ebp]
  00686	33 cd		 xor	 ecx, ebp
  00688	e8 00 00 00 00	 call	 @__security_check_cookie@4
  0068d	8b e5		 mov	 esp, ebp
  0068f	5d		 pop	 ebp
  00690	c3		 ret	 0
?SendMsgRaklionMapUser@CRaklionUtil@@QAAXPADZZ ENDP	; CRaklionUtil::SendMsgRaklionMapUser
; Function compile flags: /Odtp /ZI
_iCount$219603 = -8					; size = 4
_this$ = -4						; size = 4
_lpMsg$ = 8						; size = 4
_iSize$ = 12						; size = 4
?SendDataRaklionMapUser@CRaklionUtil@@QAEXPAEH@Z PROC	; CRaklionUtil::SendDataRaklionMapUser
; _this$ = ecx

; 181  : {

  006a0	55		 push	 ebp
  006a1	8b ec		 mov	 ebp, esp
  006a3	83 ec 48	 sub	 esp, 72			; 00000048H
  006a6	53		 push	 ebx
  006a7	56		 push	 esi
  006a8	57		 push	 edi
  006a9	89 4d fc	 mov	 DWORD PTR _this$[ebp], ecx

; 182  : 	for ( int iCount=OBJ_STARTUSERINDEX;iCount<OBJMAX;iCount++)

  006ac	c7 45 f8 b0 36
	00 00		 mov	 DWORD PTR _iCount$219603[ebp], 14000 ; 000036b0H
  006b3	eb 09		 jmp	 SHORT $LN5@SendDataRa@2
$LN4@SendDataRa@2:
  006b5	8b 45 f8	 mov	 eax, DWORD PTR _iCount$219603[ebp]
  006b8	83 c0 01	 add	 eax, 1
  006bb	89 45 f8	 mov	 DWORD PTR _iCount$219603[ebp], eax
$LN5@SendDataRa@2:
  006be	81 7d f8 98 3a
	00 00		 cmp	 DWORD PTR _iCount$219603[ebp], 15000 ; 00003a98H
  006c5	0f 8d 80 00 00
	00		 jge	 $LN6@SendDataRa@2

; 183  : 	{
; 184  : 		if ( gObj[iCount].Connected == PLAYER_PLAYING &&
; 185  : 			 gObj[iCount].Type == OBJ_USER &&
; 186  : 			 ( gObj[iCount].MapNumber == MAP_INDEX_RAKLION ||
; 187  : 			 gObj[iCount].MapNumber == MAP_INDEX_RAKLION_BOSS ) )

  006cb	8b 45 f8	 mov	 eax, DWORD PTR _iCount$219603[ebp]
  006ce	69 c0 38 2b 00
	00		 imul	 eax, 11064		; 00002b38H
  006d4	8b 0d 00 00 00
	00		 mov	 ecx, DWORD PTR ?gObj@@3PAUOBJECTSTRUCT@@A ; gObj
  006da	83 7c 01 04 03	 cmp	 DWORD PTR [ecx+eax+4], 3
  006df	75 65		 jne	 SHORT $LN2@SendDataRa@2
  006e1	8b 45 f8	 mov	 eax, DWORD PTR _iCount$219603[ebp]
  006e4	69 c0 38 2b 00
	00		 imul	 eax, 11064		; 00002b38H
  006ea	8b 0d 00 00 00
	00		 mov	 ecx, DWORD PTR ?gObj@@3PAUOBJECTSTRUCT@@A ; gObj
  006f0	0f b7 54 01 68	 movzx	 edx, WORD PTR [ecx+eax+104]
  006f5	83 fa 01	 cmp	 edx, 1
  006f8	75 4c		 jne	 SHORT $LN2@SendDataRa@2
  006fa	8b 45 f8	 mov	 eax, DWORD PTR _iCount$219603[ebp]
  006fd	69 c0 38 2b 00
	00		 imul	 eax, 11064		; 00002b38H
  00703	8b 0d 00 00 00
	00		 mov	 ecx, DWORD PTR ?gObj@@3PAUOBJECTSTRUCT@@A ; gObj
  00709	0f b6 94 01 49
	01 00 00	 movzx	 edx, BYTE PTR [ecx+eax+329]
  00711	83 fa 39	 cmp	 edx, 57			; 00000039H
  00714	74 1c		 je	 SHORT $LN1@SendDataRa@2
  00716	8b 45 f8	 mov	 eax, DWORD PTR _iCount$219603[ebp]
  00719	69 c0 38 2b 00
	00		 imul	 eax, 11064		; 00002b38H
  0071f	8b 0d 00 00 00
	00		 mov	 ecx, DWORD PTR ?gObj@@3PAUOBJECTSTRUCT@@A ; gObj
  00725	0f b6 94 01 49
	01 00 00	 movzx	 edx, BYTE PTR [ecx+eax+329]
  0072d	83 fa 3a	 cmp	 edx, 58			; 0000003aH
  00730	75 14		 jne	 SHORT $LN2@SendDataRa@2
$LN1@SendDataRa@2:

; 188  : 		{
; 189  : 			DataSend(iCount, lpMsg, iSize);

  00732	8b 45 0c	 mov	 eax, DWORD PTR _iSize$[ebp]
  00735	50		 push	 eax
  00736	8b 4d 08	 mov	 ecx, DWORD PTR _lpMsg$[ebp]
  00739	51		 push	 ecx
  0073a	8b 55 f8	 mov	 edx, DWORD PTR _iCount$219603[ebp]
  0073d	52		 push	 edx
  0073e	e8 00 00 00 00	 call	 ?DataSend@@YAHHPAEK@Z	; DataSend
  00743	83 c4 0c	 add	 esp, 12			; 0000000cH
$LN2@SendDataRa@2:

; 190  : 		}
; 191  : 	}

  00746	e9 6a ff ff ff	 jmp	 $LN4@SendDataRa@2
$LN6@SendDataRa@2:

; 192  : }

  0074b	5f		 pop	 edi
  0074c	5e		 pop	 esi
  0074d	5b		 pop	 ebx
  0074e	8b e5		 mov	 esp, ebp
  00750	5d		 pop	 ebp
  00751	c2 08 00	 ret	 8
?SendDataRaklionMapUser@CRaklionUtil@@QAEXPAEH@Z ENDP	; CRaklionUtil::SendDataRaklionMapUser
_TEXT	ENDS
PUBLIC	__$ArrayPad$
PUBLIC	?SendMsgAllUser@CRaklionUtil@@QAAXPADZZ		; CRaklionUtil::SendMsgAllUser
EXTRN	?SendNoticeToAllUser@TNotice@@SAXPAX@Z:PROC	; TNotice::SendNoticeToAllUser
; Function compile flags: /Odtp /ZI
_TEXT	SEGMENT
_pNotice$ = -792					; size = 272
_pArguments$ = -520					; size = 4
_szBuffer$ = -516					; size = 512
__$ArrayPad$ = -4					; size = 4
_this$ = 8						; size = 4
_lpszMsg$ = 12						; size = 4
?SendMsgAllUser@CRaklionUtil@@QAAXPADZZ PROC		; CRaklionUtil::SendMsgAllUser

; 195  : {

  00760	55		 push	 ebp
  00761	8b ec		 mov	 ebp, esp
  00763	81 ec 58 03 00
	00		 sub	 esp, 856		; 00000358H
  00769	a1 00 00 00 00	 mov	 eax, DWORD PTR ___security_cookie
  0076e	33 c5		 xor	 eax, ebp
  00770	89 45 fc	 mov	 DWORD PTR __$ArrayPad$[ebp], eax
  00773	53		 push	 ebx
  00774	56		 push	 esi
  00775	57		 push	 edi

; 196  : 	if ( !lpszMsg )

  00776	83 7d 0c 00	 cmp	 DWORD PTR _lpszMsg$[ebp], 0
  0077a	75 02		 jne	 SHORT $LN1@SendMsgAll

; 197  : 		return;

  0077c	eb 75		 jmp	 SHORT $LN2@SendMsgAll
$LN1@SendMsgAll:

; 198  : 
; 199  : 	char szBuffer[512] = "";

  0077e	a0 00 00 00 00	 mov	 al, BYTE PTR ??_C@_00CNPNBAHC@?$AA@
  00783	88 85 fc fd ff
	ff		 mov	 BYTE PTR _szBuffer$[ebp], al
  00789	68 ff 01 00 00	 push	 511			; 000001ffH
  0078e	6a 00		 push	 0
  00790	8d 85 fd fd ff
	ff		 lea	 eax, DWORD PTR _szBuffer$[ebp+1]
  00796	50		 push	 eax
  00797	e8 00 00 00 00	 call	 _memset
  0079c	83 c4 0c	 add	 esp, 12			; 0000000cH

; 200  : 	va_list pArguments;
; 201  : 
; 202  : 	va_start(pArguments, lpszMsg);

  0079f	8d 45 10	 lea	 eax, DWORD PTR _lpszMsg$[ebp+4]
  007a2	89 85 f8 fd ff
	ff		 mov	 DWORD PTR _pArguments$[ebp], eax

; 203  : 	vsprintf(szBuffer, lpszMsg, pArguments);

  007a8	8b 85 f8 fd ff
	ff		 mov	 eax, DWORD PTR _pArguments$[ebp]
  007ae	50		 push	 eax
  007af	8b 4d 0c	 mov	 ecx, DWORD PTR _lpszMsg$[ebp]
  007b2	51		 push	 ecx
  007b3	8d 95 fc fd ff
	ff		 lea	 edx, DWORD PTR _szBuffer$[ebp]
  007b9	52		 push	 edx
  007ba	e8 00 00 00 00	 call	 _vsprintf
  007bf	83 c4 0c	 add	 esp, 12			; 0000000cH

; 204  : 	va_end(pArguments);

  007c2	c7 85 f8 fd ff
	ff 00 00 00 00	 mov	 DWORD PTR _pArguments$[ebp], 0

; 205  : 
; 206  : 	PMSG_NOTICE pNotice;
; 207  : 	TNotice::MakeNoticeMsg(&pNotice, 0, szBuffer);

  007cc	8d 85 fc fd ff
	ff		 lea	 eax, DWORD PTR _szBuffer$[ebp]
  007d2	50		 push	 eax
  007d3	6a 00		 push	 0
  007d5	8d 8d e8 fc ff
	ff		 lea	 ecx, DWORD PTR _pNotice$[ebp]
  007db	51		 push	 ecx
  007dc	e8 00 00 00 00	 call	 ?MakeNoticeMsg@TNotice@@SAXPAXEPAD@Z ; TNotice::MakeNoticeMsg
  007e1	83 c4 0c	 add	 esp, 12			; 0000000cH

; 208  : 	
; 209  : 	TNotice::SendNoticeToAllUser(&pNotice);

  007e4	8d 85 e8 fc ff
	ff		 lea	 eax, DWORD PTR _pNotice$[ebp]
  007ea	50		 push	 eax
  007eb	e8 00 00 00 00	 call	 ?SendNoticeToAllUser@TNotice@@SAXPAX@Z ; TNotice::SendNoticeToAllUser
  007f0	83 c4 04	 add	 esp, 4
$LN2@SendMsgAll:

; 210  : }

  007f3	5f		 pop	 edi
  007f4	5e		 pop	 esi
  007f5	5b		 pop	 ebx
  007f6	8b 4d fc	 mov	 ecx, DWORD PTR __$ArrayPad$[ebp]
  007f9	33 cd		 xor	 ecx, ebp
  007fb	e8 00 00 00 00	 call	 @__security_check_cookie@4
  00800	8b e5		 mov	 esp, ebp
  00802	5d		 pop	 ebp
  00803	c3		 ret	 0
?SendMsgAllUser@CRaklionUtil@@QAAXPADZZ ENDP		; CRaklionUtil::SendMsgAllUser
_TEXT	ENDS
PUBLIC	?SendDataAllUser@CRaklionUtil@@QAEXPAEH@Z	; CRaklionUtil::SendDataAllUser
; Function compile flags: /Odtp /ZI
_TEXT	SEGMENT
_iCount$219628 = -8					; size = 4
_this$ = -4						; size = 4
_lpMsg$ = 8						; size = 4
_iSize$ = 12						; size = 4
?SendDataAllUser@CRaklionUtil@@QAEXPAEH@Z PROC		; CRaklionUtil::SendDataAllUser
; _this$ = ecx

; 213  : {

  00810	55		 push	 ebp
  00811	8b ec		 mov	 ebp, esp
  00813	83 ec 48	 sub	 esp, 72			; 00000048H
  00816	53		 push	 ebx
  00817	56		 push	 esi
  00818	57		 push	 edi
  00819	89 4d fc	 mov	 DWORD PTR _this$[ebp], ecx

; 214  : 	for ( int iCount=OBJ_STARTUSERINDEX;iCount<OBJMAX;iCount++)

  0081c	c7 45 f8 b0 36
	00 00		 mov	 DWORD PTR _iCount$219628[ebp], 14000 ; 000036b0H
  00823	eb 09		 jmp	 SHORT $LN4@SendDataAl
$LN3@SendDataAl:
  00825	8b 45 f8	 mov	 eax, DWORD PTR _iCount$219628[ebp]
  00828	83 c0 01	 add	 eax, 1
  0082b	89 45 f8	 mov	 DWORD PTR _iCount$219628[ebp], eax
$LN4@SendDataAl:
  0082e	81 7d f8 98 3a
	00 00		 cmp	 DWORD PTR _iCount$219628[ebp], 15000 ; 00003a98H
  00835	7d 45		 jge	 SHORT $LN5@SendDataAl

; 215  : 	{
; 216  : 		if ( gObj[iCount].Connected == PLAYER_PLAYING &&
; 217  : 			 gObj[iCount].Type == OBJ_USER )

  00837	8b 45 f8	 mov	 eax, DWORD PTR _iCount$219628[ebp]
  0083a	69 c0 38 2b 00
	00		 imul	 eax, 11064		; 00002b38H
  00840	8b 0d 00 00 00
	00		 mov	 ecx, DWORD PTR ?gObj@@3PAUOBJECTSTRUCT@@A ; gObj
  00846	83 7c 01 04 03	 cmp	 DWORD PTR [ecx+eax+4], 3
  0084b	75 2d		 jne	 SHORT $LN1@SendDataAl
  0084d	8b 45 f8	 mov	 eax, DWORD PTR _iCount$219628[ebp]
  00850	69 c0 38 2b 00
	00		 imul	 eax, 11064		; 00002b38H
  00856	8b 0d 00 00 00
	00		 mov	 ecx, DWORD PTR ?gObj@@3PAUOBJECTSTRUCT@@A ; gObj
  0085c	0f b7 54 01 68	 movzx	 edx, WORD PTR [ecx+eax+104]
  00861	83 fa 01	 cmp	 edx, 1
  00864	75 14		 jne	 SHORT $LN1@SendDataAl

; 218  : 		{
; 219  : 			DataSend(iCount, lpMsg, iSize);

  00866	8b 45 0c	 mov	 eax, DWORD PTR _iSize$[ebp]
  00869	50		 push	 eax
  0086a	8b 4d 08	 mov	 ecx, DWORD PTR _lpMsg$[ebp]
  0086d	51		 push	 ecx
  0086e	8b 55 f8	 mov	 edx, DWORD PTR _iCount$219628[ebp]
  00871	52		 push	 edx
  00872	e8 00 00 00 00	 call	 ?DataSend@@YAHHPAEK@Z	; DataSend
  00877	83 c4 0c	 add	 esp, 12			; 0000000cH
$LN1@SendDataAl:

; 220  : 		}
; 221  : 	}

  0087a	eb a9		 jmp	 SHORT $LN3@SendDataAl
$LN5@SendDataAl:

; 222  : }

  0087c	5f		 pop	 edi
  0087d	5e		 pop	 esi
  0087e	5b		 pop	 ebx
  0087f	8b e5		 mov	 esp, ebp
  00881	5d		 pop	 ebp
  00882	c2 08 00	 ret	 8
?SendDataAllUser@CRaklionUtil@@QAEXPAEH@Z ENDP		; CRaklionUtil::SendDataAllUser
_TEXT	ENDS
PUBLIC	__$ArrayPad$
PUBLIC	?SendMsgToUser@CRaklionUtil@@QAAXHPADZZ		; CRaklionUtil::SendMsgToUser
; Function compile flags: /Odtp /ZI
_TEXT	SEGMENT
_pNotice$ = -792					; size = 272
_pArguments$ = -520					; size = 4
_szBuffer$ = -516					; size = 512
__$ArrayPad$ = -4					; size = 4
_this$ = 8						; size = 4
_iIndex$ = 12						; size = 4
_lpszMsg$ = 16						; size = 4
?SendMsgToUser@CRaklionUtil@@QAAXHPADZZ PROC		; CRaklionUtil::SendMsgToUser

; 225  : {

  00890	55		 push	 ebp
  00891	8b ec		 mov	 ebp, esp
  00893	81 ec 58 03 00
	00		 sub	 esp, 856		; 00000358H
  00899	a1 00 00 00 00	 mov	 eax, DWORD PTR ___security_cookie
  0089e	33 c5		 xor	 eax, ebp
  008a0	89 45 fc	 mov	 DWORD PTR __$ArrayPad$[ebp], eax
  008a3	53		 push	 ebx
  008a4	56		 push	 esi
  008a5	57		 push	 edi

; 226  : 	if ( !lpszMsg )

  008a6	83 7d 10 00	 cmp	 DWORD PTR _lpszMsg$[ebp], 0
  008aa	75 02		 jne	 SHORT $LN1@SendMsgToU

; 227  : 		return;

  008ac	eb 79		 jmp	 SHORT $LN2@SendMsgToU
$LN1@SendMsgToU:

; 228  : 
; 229  : 	char szBuffer[512] = "";

  008ae	a0 00 00 00 00	 mov	 al, BYTE PTR ??_C@_00CNPNBAHC@?$AA@
  008b3	88 85 fc fd ff
	ff		 mov	 BYTE PTR _szBuffer$[ebp], al
  008b9	68 ff 01 00 00	 push	 511			; 000001ffH
  008be	6a 00		 push	 0
  008c0	8d 85 fd fd ff
	ff		 lea	 eax, DWORD PTR _szBuffer$[ebp+1]
  008c6	50		 push	 eax
  008c7	e8 00 00 00 00	 call	 _memset
  008cc	83 c4 0c	 add	 esp, 12			; 0000000cH

; 230  : 	va_list pArguments;
; 231  : 
; 232  : 	va_start(pArguments, lpszMsg);

  008cf	8d 45 14	 lea	 eax, DWORD PTR _lpszMsg$[ebp+4]
  008d2	89 85 f8 fd ff
	ff		 mov	 DWORD PTR _pArguments$[ebp], eax

; 233  : 	vsprintf(szBuffer, lpszMsg, pArguments);

  008d8	8b 85 f8 fd ff
	ff		 mov	 eax, DWORD PTR _pArguments$[ebp]
  008de	50		 push	 eax
  008df	8b 4d 10	 mov	 ecx, DWORD PTR _lpszMsg$[ebp]
  008e2	51		 push	 ecx
  008e3	8d 95 fc fd ff
	ff		 lea	 edx, DWORD PTR _szBuffer$[ebp]
  008e9	52		 push	 edx
  008ea	e8 00 00 00 00	 call	 _vsprintf
  008ef	83 c4 0c	 add	 esp, 12			; 0000000cH

; 234  : 	va_end(pArguments);

  008f2	c7 85 f8 fd ff
	ff 00 00 00 00	 mov	 DWORD PTR _pArguments$[ebp], 0

; 235  : 
; 236  : 	PMSG_NOTICE pNotice;
; 237  : 	TNotice::MakeNoticeMsg(&pNotice, 0, szBuffer);

  008fc	8d 85 fc fd ff
	ff		 lea	 eax, DWORD PTR _szBuffer$[ebp]
  00902	50		 push	 eax
  00903	6a 00		 push	 0
  00905	8d 8d e8 fc ff
	ff		 lea	 ecx, DWORD PTR _pNotice$[ebp]
  0090b	51		 push	 ecx
  0090c	e8 00 00 00 00	 call	 ?MakeNoticeMsg@TNotice@@SAXPAXEPAD@Z ; TNotice::MakeNoticeMsg
  00911	83 c4 0c	 add	 esp, 12			; 0000000cH

; 238  : 	
; 239  : 	TNotice::SendNoticeToUser(iIndex, &pNotice);

  00914	8d 85 e8 fc ff
	ff		 lea	 eax, DWORD PTR _pNotice$[ebp]
  0091a	50		 push	 eax
  0091b	8b 4d 0c	 mov	 ecx, DWORD PTR _iIndex$[ebp]
  0091e	51		 push	 ecx
  0091f	e8 00 00 00 00	 call	 ?SendNoticeToUser@TNotice@@SAXHPAX@Z ; TNotice::SendNoticeToUser
  00924	83 c4 08	 add	 esp, 8
$LN2@SendMsgToU:

; 240  : }

  00927	5f		 pop	 edi
  00928	5e		 pop	 esi
  00929	5b		 pop	 ebx
  0092a	8b 4d fc	 mov	 ecx, DWORD PTR __$ArrayPad$[ebp]
  0092d	33 cd		 xor	 ecx, ebp
  0092f	e8 00 00 00 00	 call	 @__security_check_cookie@4
  00934	8b e5		 mov	 esp, ebp
  00936	5d		 pop	 ebp
  00937	c3		 ret	 0
?SendMsgToUser@CRaklionUtil@@QAAXHPADZZ ENDP		; CRaklionUtil::SendMsgToUser
; Function compile flags: /Odtp /ZI
_this$ = -4						; size = 4
_iIndex$ = 8						; size = 4
_lpMsg$ = 12						; size = 4
_iSize$ = 16						; size = 4
?SendDataToUser@CRaklionUtil@@QAEXHPAEH@Z PROC		; CRaklionUtil::SendDataToUser
; _this$ = ecx

; 243  : {

  00940	55		 push	 ebp
  00941	8b ec		 mov	 ebp, esp
  00943	83 ec 44	 sub	 esp, 68			; 00000044H
  00946	53		 push	 ebx
  00947	56		 push	 esi
  00948	57		 push	 edi
  00949	89 4d fc	 mov	 DWORD PTR _this$[ebp], ecx

; 244  : 	if ( gObj[iIndex].Connected == PLAYER_PLAYING &&
; 245  : 		 gObj[iIndex].Type == OBJ_USER )

  0094c	8b 45 08	 mov	 eax, DWORD PTR _iIndex$[ebp]
  0094f	69 c0 38 2b 00
	00		 imul	 eax, 11064		; 00002b38H
  00955	8b 0d 00 00 00
	00		 mov	 ecx, DWORD PTR ?gObj@@3PAUOBJECTSTRUCT@@A ; gObj
  0095b	83 7c 01 04 03	 cmp	 DWORD PTR [ecx+eax+4], 3
  00960	75 2d		 jne	 SHORT $LN2@SendDataTo
  00962	8b 45 08	 mov	 eax, DWORD PTR _iIndex$[ebp]
  00965	69 c0 38 2b 00
	00		 imul	 eax, 11064		; 00002b38H
  0096b	8b 0d 00 00 00
	00		 mov	 ecx, DWORD PTR ?gObj@@3PAUOBJECTSTRUCT@@A ; gObj
  00971	0f b7 54 01 68	 movzx	 edx, WORD PTR [ecx+eax+104]
  00976	83 fa 01	 cmp	 edx, 1
  00979	75 14		 jne	 SHORT $LN2@SendDataTo

; 246  : 	{
; 247  : 		DataSend(iIndex, lpMsg, iSize);

  0097b	8b 45 10	 mov	 eax, DWORD PTR _iSize$[ebp]
  0097e	50		 push	 eax
  0097f	8b 4d 0c	 mov	 ecx, DWORD PTR _lpMsg$[ebp]
  00982	51		 push	 ecx
  00983	8b 55 08	 mov	 edx, DWORD PTR _iIndex$[ebp]
  00986	52		 push	 edx
  00987	e8 00 00 00 00	 call	 ?DataSend@@YAHHPAEK@Z	; DataSend
  0098c	83 c4 0c	 add	 esp, 12			; 0000000cH
$LN2@SendDataTo:

; 248  : 	}
; 249  : }

  0098f	5f		 pop	 edi
  00990	5e		 pop	 esi
  00991	5b		 pop	 ebx
  00992	8b e5		 mov	 esp, ebp
  00994	5d		 pop	 ebp
  00995	c2 0c 00	 ret	 12			; 0000000cH
?SendDataToUser@CRaklionUtil@@QAEXHPAEH@Z ENDP		; CRaklionUtil::SendDataToUser
_TEXT	ENDS
PUBLIC	__$ArrayPad$
PUBLIC	?SendRaklionChattingMsg@CRaklionUtil@@QAAXHPADZZ ; CRaklionUtil::SendRaklionChattingMsg
EXTRN	?GCServerMsgStringSend@TNotice@@SAXPADHE@Z:PROC	; TNotice::GCServerMsgStringSend
; Function compile flags: /Odtp /ZI
_TEXT	SEGMENT
_pArguments$ = -520					; size = 4
_szBuffer$ = -516					; size = 512
__$ArrayPad$ = -4					; size = 4
_this$ = 8						; size = 4
_iIndex$ = 12						; size = 4
_lpMsg$ = 16						; size = 4
?SendRaklionChattingMsg@CRaklionUtil@@QAAXHPADZZ PROC	; CRaklionUtil::SendRaklionChattingMsg

; 252  : {

  009a0	55		 push	 ebp
  009a1	8b ec		 mov	 ebp, esp
  009a3	81 ec 48 02 00
	00		 sub	 esp, 584		; 00000248H
  009a9	a1 00 00 00 00	 mov	 eax, DWORD PTR ___security_cookie
  009ae	33 c5		 xor	 eax, ebp
  009b0	89 45 fc	 mov	 DWORD PTR __$ArrayPad$[ebp], eax
  009b3	53		 push	 ebx
  009b4	56		 push	 esi
  009b5	57		 push	 edi

; 253  : 	if ( !lpMsg )

  009b6	83 7d 10 00	 cmp	 DWORD PTR _lpMsg$[ebp], 0
  009ba	75 02		 jne	 SHORT $LN1@SendRaklio

; 254  : 		return;

  009bc	eb 60		 jmp	 SHORT $LN2@SendRaklio
$LN1@SendRaklio:

; 255  : 
; 256  : 	char szBuffer[512]="";

  009be	a0 00 00 00 00	 mov	 al, BYTE PTR ??_C@_00CNPNBAHC@?$AA@
  009c3	88 85 fc fd ff
	ff		 mov	 BYTE PTR _szBuffer$[ebp], al
  009c9	68 ff 01 00 00	 push	 511			; 000001ffH
  009ce	6a 00		 push	 0
  009d0	8d 85 fd fd ff
	ff		 lea	 eax, DWORD PTR _szBuffer$[ebp+1]
  009d6	50		 push	 eax
  009d7	e8 00 00 00 00	 call	 _memset
  009dc	83 c4 0c	 add	 esp, 12			; 0000000cH

; 257  : 	
; 258  : 	va_list pArguments;
; 259  : 	
; 260  : 	va_start( pArguments,  lpMsg);	// review

  009df	8d 45 14	 lea	 eax, DWORD PTR _lpMsg$[ebp+4]
  009e2	89 85 f8 fd ff
	ff		 mov	 DWORD PTR _pArguments$[ebp], eax

; 261  : 	vsprintf(szBuffer, lpMsg, pArguments);

  009e8	8b 85 f8 fd ff
	ff		 mov	 eax, DWORD PTR _pArguments$[ebp]
  009ee	50		 push	 eax
  009ef	8b 4d 10	 mov	 ecx, DWORD PTR _lpMsg$[ebp]
  009f2	51		 push	 ecx
  009f3	8d 95 fc fd ff
	ff		 lea	 edx, DWORD PTR _szBuffer$[ebp]
  009f9	52		 push	 edx
  009fa	e8 00 00 00 00	 call	 _vsprintf
  009ff	83 c4 0c	 add	 esp, 12			; 0000000cH

; 262  : 	va_end(pArguments);

  00a02	c7 85 f8 fd ff
	ff 00 00 00 00	 mov	 DWORD PTR _pArguments$[ebp], 0

; 263  : 
; 264  : 	TNotice::GCServerMsgStringSend(lpMsg, iIndex, 1);

  00a0c	6a 01		 push	 1
  00a0e	8b 45 0c	 mov	 eax, DWORD PTR _iIndex$[ebp]
  00a11	50		 push	 eax
  00a12	8b 4d 10	 mov	 ecx, DWORD PTR _lpMsg$[ebp]
  00a15	51		 push	 ecx
  00a16	e8 00 00 00 00	 call	 ?GCServerMsgStringSend@TNotice@@SAXPADHE@Z ; TNotice::GCServerMsgStringSend
  00a1b	83 c4 0c	 add	 esp, 12			; 0000000cH
$LN2@SendRaklio:

; 265  : }

  00a1e	5f		 pop	 edi
  00a1f	5e		 pop	 esi
  00a20	5b		 pop	 ebx
  00a21	8b 4d fc	 mov	 ecx, DWORD PTR __$ArrayPad$[ebp]
  00a24	33 cd		 xor	 ecx, ebp
  00a26	e8 00 00 00 00	 call	 @__security_check_cookie@4
  00a2b	8b e5		 mov	 esp, ebp
  00a2d	5d		 pop	 ebp
  00a2e	c3		 ret	 0
?SendRaklionChattingMsg@CRaklionUtil@@QAAXHPADZZ ENDP	; CRaklionUtil::SendRaklionChattingMsg
; Function compile flags: /Odtp /ZI
; File d:\microsoft visual studio 10.0\vc\include\vector
_TEXT	ENDS
;	COMDAT ?size@?$vector@HV?$allocator@H@std@@@std@@QBEIXZ
_TEXT	SEGMENT
_this$ = -4						; size = 4
?size@?$vector@HV?$allocator@H@std@@@std@@QBEIXZ PROC	; std::vector<int,std::allocator<int> >::size, COMDAT
; _this$ = ecx

; 878  : 		{	// return length of sequence

  00000	55		 push	 ebp
  00001	8b ec		 mov	 ebp, esp
  00003	83 ec 44	 sub	 esp, 68			; 00000044H
  00006	53		 push	 ebx
  00007	56		 push	 esi
  00008	57		 push	 edi
  00009	89 4d fc	 mov	 DWORD PTR _this$[ebp], ecx

; 879  : 		return (this->_Mylast - this->_Myfirst);

  0000c	8b 45 fc	 mov	 eax, DWORD PTR _this$[ebp]
  0000f	8b 4d fc	 mov	 ecx, DWORD PTR _this$[ebp]
  00012	8b 40 04	 mov	 eax, DWORD PTR [eax+4]
  00015	2b 01		 sub	 eax, DWORD PTR [ecx]
  00017	c1 f8 02	 sar	 eax, 2

; 880  : 		}

  0001a	5f		 pop	 edi
  0001b	5e		 pop	 esi
  0001c	5b		 pop	 ebx
  0001d	8b e5		 mov	 esp, ebp
  0001f	5d		 pop	 ebp
  00020	c3		 ret	 0
?size@?$vector@HV?$allocator@H@std@@@std@@QBEIXZ ENDP	; std::vector<int,std::allocator<int> >::size
; Function compile flags: /Odtp /ZI
_TEXT	ENDS
;	COMDAT ??A?$vector@HV?$allocator@H@std@@@std@@QAEAAHI@Z
_TEXT	SEGMENT
_this$ = -4						; size = 4
__Pos$ = 8						; size = 4
??A?$vector@HV?$allocator@H@std@@@std@@QAEAAHI@Z PROC	; std::vector<int,std::allocator<int> >::operator[], COMDAT
; _this$ = ecx

; 928  : 		{	// subscript mutable sequence

  00000	55		 push	 ebp
  00001	8b ec		 mov	 ebp, esp
  00003	83 ec 44	 sub	 esp, 68			; 00000044H
  00006	53		 push	 ebx
  00007	56		 push	 esi
  00008	57		 push	 edi
  00009	89 4d fc	 mov	 DWORD PTR _this$[ebp], ecx

; 929  :  #if _ITERATOR_DEBUG_LEVEL == 2
; 930  : 		if (size() <= _Pos)
; 931  : 			{	// report error
; 932  : 			_DEBUG_ERROR("vector subscript out of range");
; 933  : 			_SCL_SECURE_OUT_OF_RANGE;
; 934  : 			}
; 935  : 
; 936  :  #elif _ITERATOR_DEBUG_LEVEL == 1
; 937  : 		_SCL_SECURE_VALIDATE_RANGE(_Pos < size());
; 938  :  #endif /* _ITERATOR_DEBUG_LEVEL */
; 939  : 
; 940  : 		return (*(this->_Myfirst + _Pos));

  0000c	8b 45 fc	 mov	 eax, DWORD PTR _this$[ebp]
  0000f	8b 08		 mov	 ecx, DWORD PTR [eax]
  00011	8b 55 08	 mov	 edx, DWORD PTR __Pos$[ebp]
  00014	8d 04 91	 lea	 eax, DWORD PTR [ecx+edx*4]

; 941  : 		}

  00017	5f		 pop	 edi
  00018	5e		 pop	 esi
  00019	5b		 pop	 ebx
  0001a	8b e5		 mov	 esp, ebp
  0001c	5d		 pop	 ebp
  0001d	c2 04 00	 ret	 4
??A?$vector@HV?$allocator@H@std@@@std@@QAEAAHI@Z ENDP	; std::vector<int,std::allocator<int> >::operator[]
_TEXT	ENDS
EXTRN	_atexit:PROC
; Function compile flags: /Odtp /ZI
; File d:\projects\exteam6.3\source\gameserver\gameserver\raklionutil.cpp
;	COMDAT ??__Eg_RaklionUtil@@YAXXZ
text$yc	SEGMENT
??__Eg_RaklionUtil@@YAXXZ PROC				; `dynamic initializer for 'g_RaklionUtil'', COMDAT

; 16   : CRaklionUtil g_RaklionUtil;

  00000	55		 push	 ebp
  00001	8b ec		 mov	 ebp, esp
  00003	83 ec 40	 sub	 esp, 64			; 00000040H
  00006	53		 push	 ebx
  00007	56		 push	 esi
  00008	57		 push	 edi
  00009	b9 00 00 00 00	 mov	 ecx, OFFSET ?g_RaklionUtil@@3VCRaklionUtil@@A ; g_RaklionUtil
  0000e	e8 00 00 00 00	 call	 ??0CRaklionUtil@@QAE@XZ	; CRaklionUtil::CRaklionUtil
  00013	68 00 00 00 00	 push	 OFFSET ??__Fg_RaklionUtil@@YAXXZ ; `dynamic atexit destructor for 'g_RaklionUtil''
  00018	e8 00 00 00 00	 call	 _atexit
  0001d	83 c4 04	 add	 esp, 4
  00020	5f		 pop	 edi
  00021	5e		 pop	 esi
  00022	5b		 pop	 ebx
  00023	8b e5		 mov	 esp, ebp
  00025	5d		 pop	 ebp
  00026	c3		 ret	 0
??__Eg_RaklionUtil@@YAXXZ ENDP				; `dynamic initializer for 'g_RaklionUtil''
; Function compile flags: /Odtp /ZI
text$yc	ENDS
;	COMDAT ??__Fg_RaklionUtil@@YAXXZ
text$yd	SEGMENT
??__Fg_RaklionUtil@@YAXXZ PROC				; `dynamic atexit destructor for 'g_RaklionUtil'', COMDAT
  00000	55		 push	 ebp
  00001	8b ec		 mov	 ebp, esp
  00003	83 ec 40	 sub	 esp, 64			; 00000040H
  00006	53		 push	 ebx
  00007	56		 push	 esi
  00008	57		 push	 edi
  00009	b9 00 00 00 00	 mov	 ecx, OFFSET ?g_RaklionUtil@@3VCRaklionUtil@@A ; g_RaklionUtil
  0000e	e8 00 00 00 00	 call	 ??1CRaklionUtil@@UAE@XZ	; CRaklionUtil::~CRaklionUtil
  00013	5f		 pop	 edi
  00014	5e		 pop	 esi
  00015	5b		 pop	 ebx
  00016	8b e5		 mov	 esp, ebp
  00018	5d		 pop	 ebp
  00019	c3		 ret	 0
??__Fg_RaklionUtil@@YAXXZ ENDP				; `dynamic atexit destructor for 'g_RaklionUtil''
text$yd	ENDS
PUBLIC	?g_RaklionUtil@@3VCRaklionUtil@@A		; g_RaklionUtil
_BSS	SEGMENT
?g_RaklionUtil@@3VCRaklionUtil@@A DD 01H DUP (?)	; g_RaklionUtil
_BSS	ENDS
CRT$XCU	SEGMENT
_g_RaklionUtil$initializer$ DD FLAT:??__Eg_RaklionUtil@@YAXXZ
CRT$XCU	ENDS
END
