; Listing generated by Microsoft (R) Optimizing Compiler Version 16.00.40219.01 

	TITLE	D:\Projects\ExTeam6.3\Source\GameServer\GameServer\RaklionBattleOfSelupan.cpp
	.686P
	.XMM
	include listing.inc
	.model	flat

INCLUDELIB LIBCMT
INCLUDELIB OLDNAMES

_DATA	SEGMENT
_g_iNpcUpDfLevel_CGATE DD 01H
	DD	02H
	DD	02dc6c0H
	DD	02H
	DD	03H
	DD	02dc6c0H
	DD	03H
	DD	04H
	DD	02dc6c0H
_g_iNpcUpDfLevel_CSTATUE DD 01H
	DD	03H
	DD	02dc6c0H
	DD	02H
	DD	05H
	DD	02dc6c0H
	DD	03H
	DD	07H
	DD	02dc6c0H
_g_iNpcUpMaxHP_CGATE DD 02625a0H
	DD	02H
	DD	0f4240H
	DD	03567e0H
	DD	03H
	DD	0f4240H
	DD	04f5880H
	DD	04H
	DD	0f4240H
_g_iNpcUpMaxHP_CSTATUE DD 02191c0H
	DD	03H
	DD	0f4240H
	DD	033e140H
	DD	05H
	DD	0f4240H
	DD	04c4b40H
	DD	07H
	DD	0f4240H
_g_iNpcUpRgLevel_CSTATUE DD 01H
	DD	03H
	DD	04c4b40H
	DD	02H
	DD	05H
	DD	04c4b40H
	DD	03H
	DD	07H
	DD	04c4b40H
_g_iCsUserReSpawnArea DD 023H
	DD	011H
	DD	090H
	DD	030H
	DD	04aH
	DD	090H
	DD	073H
	DD	09aH
	DD	023H
	DD	011H
	DD	090H
	DD	030H
_g_iNpcDefense_CGATE DD 064H
	DD	0b4H
	DD	012cH
	DD	0208H
_g_iNpcDefense_CSTATUE DD 050H
	DD	0b4H
	DD	0154H
	DD	0226H
_g_iCastleWallStepAxisY DD 071H
	DD	0a0H
	DD	0cbH
_DATA	ENDS
PUBLIC	??_H@YGXPAXIHP6EPAX0@Z@Z			; `vector constructor iterator'
; Function compile flags: /Odtp /ZI
;	COMDAT ??_H@YGXPAXIHP6EPAX0@Z@Z
_TEXT	SEGMENT
___t$ = 8						; size = 4
___s$ = 12						; size = 4
___n$ = 16						; size = 4
___f$ = 20						; size = 4
??_H@YGXPAXIHP6EPAX0@Z@Z PROC				; `vector constructor iterator', COMDAT
  00000	55		 push	 ebp
  00001	8b ec		 mov	 ebp, esp
  00003	83 ec 40	 sub	 esp, 64			; 00000040H
  00006	53		 push	 ebx
  00007	56		 push	 esi
  00008	57		 push	 edi
$LN2@vector:
  00009	8b 45 10	 mov	 eax, DWORD PTR ___n$[ebp]
  0000c	83 e8 01	 sub	 eax, 1
  0000f	89 45 10	 mov	 DWORD PTR ___n$[ebp], eax
  00012	78 11		 js	 SHORT $LN3@vector
  00014	8b 4d 08	 mov	 ecx, DWORD PTR ___t$[ebp]
  00017	ff 55 14	 call	 DWORD PTR ___f$[ebp]
  0001a	8b 45 08	 mov	 eax, DWORD PTR ___t$[ebp]
  0001d	03 45 0c	 add	 eax, DWORD PTR ___s$[ebp]
  00020	89 45 08	 mov	 DWORD PTR ___t$[ebp], eax
  00023	eb e4		 jmp	 SHORT $LN2@vector
$LN3@vector:
  00025	5f		 pop	 edi
  00026	5e		 pop	 esi
  00027	5b		 pop	 ebx
  00028	8b e5		 mov	 esp, ebp
  0002a	5d		 pop	 ebp
  0002b	c2 10 00	 ret	 16			; 00000010H
??_H@YGXPAXIHP6EPAX0@Z@Z ENDP				; `vector constructor iterator'
_TEXT	ENDS
PUBLIC	?ResetAllData@CRaklionBattleOfSelupan@@QAEXXZ	; CRaklionBattleOfSelupan::ResetAllData
PUBLIC	??_7CRaklionBattleOfSelupan@@6B@		; CRaklionBattleOfSelupan::`vftable'
PUBLIC	??0CRaklionBattleOfSelupan@@QAE@XZ		; CRaklionBattleOfSelupan::CRaklionBattleOfSelupan
PUBLIC	??_R4CRaklionBattleOfSelupan@@6B@		; CRaklionBattleOfSelupan::`RTTI Complete Object Locator'
PUBLIC	??_R0?AVCRaklionBattleOfSelupan@@@8		; CRaklionBattleOfSelupan `RTTI Type Descriptor'
PUBLIC	??_R3CRaklionBattleOfSelupan@@8			; CRaklionBattleOfSelupan::`RTTI Class Hierarchy Descriptor'
PUBLIC	??_R2CRaklionBattleOfSelupan@@8			; CRaklionBattleOfSelupan::`RTTI Base Class Array'
PUBLIC	??_R1A@?0A@EA@CRaklionBattleOfSelupan@@8	; CRaklionBattleOfSelupan::`RTTI Base Class Descriptor at (0,-1,0,64)'
EXTRN	??1CRaklionSelupan@@UAE@XZ:PROC			; CRaklionSelupan::~CRaklionSelupan
EXTRN	??0CRaklionSelupan@@QAE@XZ:PROC			; CRaklionSelupan::CRaklionSelupan
EXTRN	___security_cookie:DWORD
EXTRN	___CxxFrameHandler3:PROC
EXTRN	@__security_check_cookie@4:PROC
EXTRN	??_7type_info@@6B@:QWORD			; type_info::`vftable'
EXTRN	??_ECRaklionBattleOfSelupan@@UAEPAXI@Z:PROC	; CRaklionBattleOfSelupan::`vector deleting destructor'
;	COMDAT ??_R1A@?0A@EA@CRaklionBattleOfSelupan@@8
; File d:\projects\exteam6.3\source\gameserver\gameserver\raklionbattleofselupan.cpp
rdata$r	SEGMENT
??_R1A@?0A@EA@CRaklionBattleOfSelupan@@8 DD FLAT:??_R0?AVCRaklionBattleOfSelupan@@@8 ; CRaklionBattleOfSelupan::`RTTI Base Class Descriptor at (0,-1,0,64)'
	DD	00H
	DD	00H
	DD	0ffffffffH
	DD	00H
	DD	040H
	DD	FLAT:??_R3CRaklionBattleOfSelupan@@8
rdata$r	ENDS
;	COMDAT ??_R2CRaklionBattleOfSelupan@@8
rdata$r	SEGMENT
??_R2CRaklionBattleOfSelupan@@8 DD FLAT:??_R1A@?0A@EA@CRaklionBattleOfSelupan@@8 ; CRaklionBattleOfSelupan::`RTTI Base Class Array'
rdata$r	ENDS
;	COMDAT ??_R3CRaklionBattleOfSelupan@@8
rdata$r	SEGMENT
??_R3CRaklionBattleOfSelupan@@8 DD 00H			; CRaklionBattleOfSelupan::`RTTI Class Hierarchy Descriptor'
	DD	00H
	DD	01H
	DD	FLAT:??_R2CRaklionBattleOfSelupan@@8
rdata$r	ENDS
;	COMDAT ??_R0?AVCRaklionBattleOfSelupan@@@8
_DATA	SEGMENT
??_R0?AVCRaklionBattleOfSelupan@@@8 DD FLAT:??_7type_info@@6B@ ; CRaklionBattleOfSelupan `RTTI Type Descriptor'
	DD	00H
	DB	'.?AVCRaklionBattleOfSelupan@@', 00H
_DATA	ENDS
;	COMDAT ??_R4CRaklionBattleOfSelupan@@6B@
rdata$r	SEGMENT
??_R4CRaklionBattleOfSelupan@@6B@ DD 00H		; CRaklionBattleOfSelupan::`RTTI Complete Object Locator'
	DD	00H
	DD	00H
	DD	FLAT:??_R0?AVCRaklionBattleOfSelupan@@@8
	DD	FLAT:??_R3CRaklionBattleOfSelupan@@8
rdata$r	ENDS
;	COMDAT ??_7CRaklionBattleOfSelupan@@6B@
CONST	SEGMENT
??_7CRaklionBattleOfSelupan@@6B@ DD FLAT:??_R4CRaklionBattleOfSelupan@@6B@ ; CRaklionBattleOfSelupan::`vftable'
	DD	FLAT:??_ECRaklionBattleOfSelupan@@UAEPAXI@Z
CONST	ENDS
xdata$x	SEGMENT
__unwindtable$??0CRaklionBattleOfSelupan@@QAE@XZ DD 0ffffffffH
	DD	FLAT:__unwindfunclet$??0CRaklionBattleOfSelupan@@QAE@XZ$0
__ehfuncinfo$??0CRaklionBattleOfSelupan@@QAE@XZ DD 019930522H
	DD	01H
	DD	FLAT:__unwindtable$??0CRaklionBattleOfSelupan@@QAE@XZ
	DD	2 DUP(00H)
	DD	2 DUP(00H)
	DD	00H
	DD	01H
; Function compile flags: /Odtp /ZI
xdata$x	ENDS
_TEXT	SEGMENT
_this$ = -16						; size = 4
__$EHRec$ = -12						; size = 12
??0CRaklionBattleOfSelupan@@QAE@XZ PROC			; CRaklionBattleOfSelupan::CRaklionBattleOfSelupan
; _this$ = ecx

; 17   : {

  00000	55		 push	 ebp
  00001	8b ec		 mov	 ebp, esp
  00003	6a ff		 push	 -1
  00005	68 00 00 00 00	 push	 __ehhandler$??0CRaklionBattleOfSelupan@@QAE@XZ
  0000a	64 a1 00 00 00
	00		 mov	 eax, DWORD PTR fs:0
  00010	50		 push	 eax
  00011	83 ec 44	 sub	 esp, 68			; 00000044H
  00014	53		 push	 ebx
  00015	56		 push	 esi
  00016	57		 push	 edi
  00017	a1 00 00 00 00	 mov	 eax, DWORD PTR ___security_cookie
  0001c	33 c5		 xor	 eax, ebp
  0001e	50		 push	 eax
  0001f	8d 45 f4	 lea	 eax, DWORD PTR __$EHRec$[ebp]
  00022	64 a3 00 00 00
	00		 mov	 DWORD PTR fs:0, eax
  00028	89 4d f0	 mov	 DWORD PTR _this$[ebp], ecx
  0002b	8b 45 f0	 mov	 eax, DWORD PTR _this$[ebp]
  0002e	c7 00 00 00 00
	00		 mov	 DWORD PTR [eax], OFFSET ??_7CRaklionBattleOfSelupan@@6B@
  00034	8b 4d f0	 mov	 ecx, DWORD PTR _this$[ebp]
  00037	83 c1 34	 add	 ecx, 52			; 00000034H
  0003a	e8 00 00 00 00	 call	 ??0CRaklionSelupan@@QAE@XZ ; CRaklionSelupan::CRaklionSelupan
  0003f	c7 45 fc 00 00
	00 00		 mov	 DWORD PTR __$EHRec$[ebp+8], 0

; 18   : 	this->ResetAllData();

  00046	8b 4d f0	 mov	 ecx, DWORD PTR _this$[ebp]
  00049	e8 00 00 00 00	 call	 ?ResetAllData@CRaklionBattleOfSelupan@@QAEXXZ ; CRaklionBattleOfSelupan::ResetAllData

; 19   : }

  0004e	c7 45 fc ff ff
	ff ff		 mov	 DWORD PTR __$EHRec$[ebp+8], -1
  00055	8b 45 f0	 mov	 eax, DWORD PTR _this$[ebp]
  00058	8b 4d f4	 mov	 ecx, DWORD PTR __$EHRec$[ebp]
  0005b	64 89 0d 00 00
	00 00		 mov	 DWORD PTR fs:0, ecx
  00062	59		 pop	 ecx
  00063	5f		 pop	 edi
  00064	5e		 pop	 esi
  00065	5b		 pop	 ebx
  00066	8b e5		 mov	 esp, ebp
  00068	5d		 pop	 ebp
  00069	c3		 ret	 0
_TEXT	ENDS
text$x	SEGMENT
__unwindfunclet$??0CRaklionBattleOfSelupan@@QAE@XZ$0:
  00000	8b 4d f0	 mov	 ecx, DWORD PTR _this$[ebp]
  00003	83 c1 34	 add	 ecx, 52			; 00000034H
  00006	e9 00 00 00 00	 jmp	 ??1CRaklionSelupan@@UAE@XZ ; CRaklionSelupan::~CRaklionSelupan
__ehhandler$??0CRaklionBattleOfSelupan@@QAE@XZ:
  0000b	8b 54 24 08	 mov	 edx, DWORD PTR [esp+8]
  0000f	8d 42 0c	 lea	 eax, DWORD PTR [edx+12]
  00012	8b 4a ac	 mov	 ecx, DWORD PTR [edx-84]
  00015	33 c8		 xor	 ecx, eax
  00017	e8 00 00 00 00	 call	 @__security_check_cookie@4
  0001c	b8 00 00 00 00	 mov	 eax, OFFSET __ehfuncinfo$??0CRaklionBattleOfSelupan@@QAE@XZ
  00021	e9 00 00 00 00	 jmp	 ___CxxFrameHandler3
text$x	ENDS
??0CRaklionBattleOfSelupan@@QAE@XZ ENDP			; CRaklionBattleOfSelupan::CRaklionBattleOfSelupan
PUBLIC	??1CRaklionBattleOfSelupan@@UAE@XZ		; CRaklionBattleOfSelupan::~CRaklionBattleOfSelupan
EXTRN	??3@YAXPAX@Z:PROC				; operator delete
; Function compile flags: /Odtp /ZI
;	COMDAT ??_GCRaklionBattleOfSelupan@@UAEPAXI@Z
_TEXT	SEGMENT
_this$ = -4						; size = 4
___flags$ = 8						; size = 4
??_GCRaklionBattleOfSelupan@@UAEPAXI@Z PROC		; CRaklionBattleOfSelupan::`scalar deleting destructor', COMDAT
; _this$ = ecx
  00000	55		 push	 ebp
  00001	8b ec		 mov	 ebp, esp
  00003	83 ec 44	 sub	 esp, 68			; 00000044H
  00006	53		 push	 ebx
  00007	56		 push	 esi
  00008	57		 push	 edi
  00009	89 4d fc	 mov	 DWORD PTR _this$[ebp], ecx
  0000c	8b 4d fc	 mov	 ecx, DWORD PTR _this$[ebp]
  0000f	e8 00 00 00 00	 call	 ??1CRaklionBattleOfSelupan@@UAE@XZ ; CRaklionBattleOfSelupan::~CRaklionBattleOfSelupan
  00014	8b 45 08	 mov	 eax, DWORD PTR ___flags$[ebp]
  00017	83 e0 01	 and	 eax, 1
  0001a	74 0c		 je	 SHORT $LN1@scalar
  0001c	8b 45 fc	 mov	 eax, DWORD PTR _this$[ebp]
  0001f	50		 push	 eax
  00020	e8 00 00 00 00	 call	 ??3@YAXPAX@Z		; operator delete
  00025	83 c4 04	 add	 esp, 4
$LN1@scalar:
  00028	8b 45 fc	 mov	 eax, DWORD PTR _this$[ebp]
  0002b	5f		 pop	 edi
  0002c	5e		 pop	 esi
  0002d	5b		 pop	 ebx
  0002e	8b e5		 mov	 esp, ebp
  00030	5d		 pop	 ebp
  00031	c2 04 00	 ret	 4
??_GCRaklionBattleOfSelupan@@UAEPAXI@Z ENDP		; CRaklionBattleOfSelupan::`scalar deleting destructor'
; Function compile flags: /Odtp /ZI
_TEXT	ENDS
_TEXT	SEGMENT
_this$ = -4						; size = 4
??1CRaklionBattleOfSelupan@@UAE@XZ PROC			; CRaklionBattleOfSelupan::~CRaklionBattleOfSelupan
; _this$ = ecx

; 22   : {

  00070	55		 push	 ebp
  00071	8b ec		 mov	 ebp, esp
  00073	83 ec 44	 sub	 esp, 68			; 00000044H
  00076	53		 push	 ebx
  00077	56		 push	 esi
  00078	57		 push	 edi
  00079	89 4d fc	 mov	 DWORD PTR _this$[ebp], ecx
  0007c	8b 45 fc	 mov	 eax, DWORD PTR _this$[ebp]
  0007f	c7 00 00 00 00
	00		 mov	 DWORD PTR [eax], OFFSET ??_7CRaklionBattleOfSelupan@@6B@

; 23   : 
; 24   : }

  00085	8b 4d fc	 mov	 ecx, DWORD PTR _this$[ebp]
  00088	83 c1 34	 add	 ecx, 52			; 00000034H
  0008b	e8 00 00 00 00	 call	 ??1CRaklionSelupan@@UAE@XZ ; CRaklionSelupan::~CRaklionSelupan
  00090	5f		 pop	 edi
  00091	5e		 pop	 esi
  00092	5b		 pop	 ebx
  00093	8b e5		 mov	 esp, ebp
  00095	5d		 pop	 ebp
  00096	c3		 ret	 0
??1CRaklionBattleOfSelupan@@UAE@XZ ENDP			; CRaklionBattleOfSelupan::~CRaklionBattleOfSelupan
_TEXT	ENDS
PUBLIC	?SetBattleOfSelupanState@CRaklionBattleOfSelupan@@QAEXH@Z ; CRaklionBattleOfSelupan::SetBattleOfSelupanState
PUBLIC	?SetSuccessValue@CRaklionBattleOfSelupan@@QAEXH@Z ; CRaklionBattleOfSelupan::SetSuccessValue
EXTRN	_memset:PROC
; Function compile flags: /Odtp /ZI
_TEXT	SEGMENT
_i$227436 = -8						; size = 4
_this$ = -4						; size = 4
?ResetAllData@CRaklionBattleOfSelupan@@QAEXXZ PROC	; CRaklionBattleOfSelupan::ResetAllData
; _this$ = ecx

; 27   : {

  000a0	55		 push	 ebp
  000a1	8b ec		 mov	 ebp, esp
  000a3	83 ec 48	 sub	 esp, 72			; 00000048H
  000a6	53		 push	 ebx
  000a7	56		 push	 esi
  000a8	57		 push	 edi
  000a9	89 4d fc	 mov	 DWORD PTR _this$[ebp], ecx

; 28   : 	this->m_004 = 0;

  000ac	8b 45 fc	 mov	 eax, DWORD PTR _this$[ebp]
  000af	c7 40 04 00 00
	00 00		 mov	 DWORD PTR [eax+4], 0

; 29   : 	this->m_dwSkillDelay		= 0;

  000b6	8b 45 fc	 mov	 eax, DWORD PTR _this$[ebp]
  000b9	c7 40 24 00 00
	00 00		 mov	 DWORD PTR [eax+36], 0

; 30   : 	this->m_dwSkillDelayTick	= 0;

  000c0	8b 45 fc	 mov	 eax, DWORD PTR _this$[ebp]
  000c3	c7 40 28 00 00
	00 00		 mov	 DWORD PTR [eax+40], 0

; 31   : 	this->m_bIsUseFirstSkill = 0;

  000ca	8b 45 fc	 mov	 eax, DWORD PTR _this$[ebp]
  000cd	c7 40 2c 00 00
	00 00		 mov	 DWORD PTR [eax+44], 0

; 32   : 
; 33   : 	memset(this->m_PatternSkill,0,sizeof(this->m_PatternSkill)); //0x1C size

  000d4	68 fc 00 00 00	 push	 252			; 000000fcH
  000d9	6a 00		 push	 0
  000db	8b 45 fc	 mov	 eax, DWORD PTR _this$[ebp]
  000de	05 d4 0c 00 00	 add	 eax, 3284		; 00000cd4H
  000e3	50		 push	 eax
  000e4	e8 00 00 00 00	 call	 _memset
  000e9	83 c4 0c	 add	 esp, 12			; 0000000cH

; 34   : 
; 35   : 	for(int i = 0 ; i< MAX_STATE_PATTERN_COUNT ; i++)

  000ec	c7 45 f8 00 00
	00 00		 mov	 DWORD PTR _i$227436[ebp], 0
  000f3	eb 09		 jmp	 SHORT $LN3@ResetAllDa
$LN2@ResetAllDa:
  000f5	8b 45 f8	 mov	 eax, DWORD PTR _i$227436[ebp]
  000f8	83 c0 01	 add	 eax, 1
  000fb	89 45 f8	 mov	 DWORD PTR _i$227436[ebp], eax
$LN3@ResetAllDa:
  000fe	83 7d f8 07	 cmp	 DWORD PTR _i$227436[ebp], 7
  00102	7d 52		 jge	 SHORT $LN1@ResetAllDa

; 36   : 	{
; 37   : 		 this->m_PatternSkill[i].bIsSkillEnabled[SKILL_POISON_ATTACK]		= TRUE;

  00104	8b 45 f8	 mov	 eax, DWORD PTR _i$227436[ebp]
  00107	6b c0 24	 imul	 eax, 36			; 00000024H
  0010a	8b 4d fc	 mov	 ecx, DWORD PTR _this$[ebp]
  0010d	c7 84 01 d8 0c
	00 00 01 00 00
	00		 mov	 DWORD PTR [ecx+eax+3288], 1

; 38   : 		 this->m_PatternSkill[i].bIsSkillEnabled[SKILL_ICESTORM]			= TRUE;

  00118	8b 45 f8	 mov	 eax, DWORD PTR _i$227436[ebp]
  0011b	6b c0 24	 imul	 eax, 36			; 00000024H
  0011e	8b 4d fc	 mov	 ecx, DWORD PTR _this$[ebp]
  00121	c7 84 01 dc 0c
	00 00 01 00 00
	00		 mov	 DWORD PTR [ecx+eax+3292], 1

; 39   : 		 this->m_PatternSkill[i].bIsSkillEnabled[SKILL_ICESTRIKE]			= TRUE;

  0012c	8b 45 f8	 mov	 eax, DWORD PTR _i$227436[ebp]
  0012f	6b c0 24	 imul	 eax, 36			; 00000024H
  00132	8b 4d fc	 mov	 ecx, DWORD PTR _this$[ebp]
  00135	c7 84 01 e0 0c
	00 00 01 00 00
	00		 mov	 DWORD PTR [ecx+eax+3296], 1

; 40   : 		 this->m_PatternSkill[i].bIsSkillEnabled[SKILL_TELEPORT]			= TRUE;

  00140	8b 45 f8	 mov	 eax, DWORD PTR _i$227436[ebp]
  00143	6b c0 24	 imul	 eax, 36			; 00000024H
  00146	8b 4d fc	 mov	 ecx, DWORD PTR _this$[ebp]
  00149	c7 84 01 f0 0c
	00 00 01 00 00
	00		 mov	 DWORD PTR [ecx+eax+3312], 1

; 41   : 	}

  00154	eb 9f		 jmp	 SHORT $LN2@ResetAllDa
$LN1@ResetAllDa:

; 42   : 
; 43   : 	this->m_PatternSkill[STATE_PATTERN_2].bIsSkillEnabled[SKILL_FREEZE]			= TRUE;//D10

  00156	8b 45 fc	 mov	 eax, DWORD PTR _this$[ebp]
  00159	c7 80 10 0d 00
	00 01 00 00 00	 mov	 DWORD PTR [eax+3344], 1

; 44   : 	this->m_PatternSkill[STATE_PATTERN_3].bIsSkillEnabled[SKILL_FREEZE]			= TRUE;//D34

  00163	8b 45 fc	 mov	 eax, DWORD PTR _this$[ebp]
  00166	c7 80 34 0d 00
	00 01 00 00 00	 mov	 DWORD PTR [eax+3380], 1

; 45   : 
; 46   : 	this->m_PatternSkill[STATE_PATTERN_4].bIsSkillEnabled[SKILL_FREEZE]			= TRUE;//D58

  00170	8b 45 fc	 mov	 eax, DWORD PTR _this$[ebp]
  00173	c7 80 58 0d 00
	00 01 00 00 00	 mov	 DWORD PTR [eax+3416], 1

; 47   : 	this->m_PatternSkill[STATE_PATTERN_4].bIsSkillEnabled[SKILL_HEAL]			= TRUE;//D54

  0017d	8b 45 fc	 mov	 eax, DWORD PTR _this$[ebp]
  00180	c7 80 54 0d 00
	00 01 00 00 00	 mov	 DWORD PTR [eax+3412], 1

; 48   : 
; 49   : 	this->m_PatternSkill[STATE_PATTERN_5].bIsSkillEnabled[SKILL_SUMMON]			= TRUE;//D74

  0018a	8b 45 fc	 mov	 eax, DWORD PTR _this$[ebp]
  0018d	c7 80 74 0d 00
	00 01 00 00 00	 mov	 DWORD PTR [eax+3444], 1

; 50   : 	this->m_PatternSkill[STATE_PATTERN_5].bIsSkillEnabled[SKILL_FREEZE]			= TRUE;//D7C

  00197	8b 45 fc	 mov	 eax, DWORD PTR _this$[ebp]
  0019a	c7 80 7c 0d 00
	00 01 00 00 00	 mov	 DWORD PTR [eax+3452], 1

; 51   : 	this->m_PatternSkill[STATE_PATTERN_5].bIsSkillEnabled[SKILL_HEAL]			= TRUE;//D78

  001a4	8b 45 fc	 mov	 eax, DWORD PTR _this$[ebp]
  001a7	c7 80 78 0d 00
	00 01 00 00 00	 mov	 DWORD PTR [eax+3448], 1

; 52   : 
; 53   : 	this->m_PatternSkill[STATE_PATTERN_6].bIsSkillEnabled[SKILL_SUMMON]			= TRUE;//D98

  001b1	8b 45 fc	 mov	 eax, DWORD PTR _this$[ebp]
  001b4	c7 80 98 0d 00
	00 01 00 00 00	 mov	 DWORD PTR [eax+3480], 1

; 54   : 	this->m_PatternSkill[STATE_PATTERN_6].bIsSkillEnabled[SKILL_FREEZE]			= TRUE;//DA0

  001be	8b 45 fc	 mov	 eax, DWORD PTR _this$[ebp]
  001c1	c7 80 a0 0d 00
	00 01 00 00 00	 mov	 DWORD PTR [eax+3488], 1

; 55   : 	this->m_PatternSkill[STATE_PATTERN_6].bIsSkillEnabled[SKILL_HEAL]			= TRUE;//D9C

  001cb	8b 45 fc	 mov	 eax, DWORD PTR _this$[ebp]
  001ce	c7 80 9c 0d 00
	00 01 00 00 00	 mov	 DWORD PTR [eax+3484], 1

; 56   : 
; 57   : 	this->m_PatternSkill[STATE_PATTERN_7].bIsSkillEnabled[SKILL_SUMMON]			= TRUE;//DBC

  001d8	8b 45 fc	 mov	 eax, DWORD PTR _this$[ebp]
  001db	c7 80 bc 0d 00
	00 01 00 00 00	 mov	 DWORD PTR [eax+3516], 1

; 58   : 	this->m_PatternSkill[STATE_PATTERN_7].bIsSkillEnabled[SKILL_FREEZE]			= TRUE;//DC4

  001e5	8b 45 fc	 mov	 eax, DWORD PTR _this$[ebp]
  001e8	c7 80 c4 0d 00
	00 01 00 00 00	 mov	 DWORD PTR [eax+3524], 1

; 59   : 	this->m_PatternSkill[STATE_PATTERN_7].bIsSkillEnabled[SKILL_HEAL]			= TRUE;//DC0

  001f2	8b 45 fc	 mov	 eax, DWORD PTR _this$[ebp]
  001f5	c7 80 c0 0d 00
	00 01 00 00 00	 mov	 DWORD PTR [eax+3520], 1

; 60   : 	this->m_PatternSkill[STATE_PATTERN_7].bIsSkillEnabled[SKILL_INVINCIBILITY]	= TRUE;//DCC

  001ff	8b 45 fc	 mov	 eax, DWORD PTR _this$[ebp]
  00202	c7 80 cc 0d 00
	00 01 00 00 00	 mov	 DWORD PTR [eax+3532], 1

; 61   : 	
; 62   : 	this->SetSuccessValue(FALSE);

  0020c	6a 00		 push	 0
  0020e	8b 4d fc	 mov	 ecx, DWORD PTR _this$[ebp]
  00211	e8 00 00 00 00	 call	 ?SetSuccessValue@CRaklionBattleOfSelupan@@QAEXH@Z ; CRaklionBattleOfSelupan::SetSuccessValue

; 63   : 	this->SetBattleOfSelupanState(SELUPAN_STATE_NONE);

  00216	6a 00		 push	 0
  00218	8b 4d fc	 mov	 ecx, DWORD PTR _this$[ebp]
  0021b	e8 00 00 00 00	 call	 ?SetBattleOfSelupanState@CRaklionBattleOfSelupan@@QAEXH@Z ; CRaklionBattleOfSelupan::SetBattleOfSelupanState

; 64   : }

  00220	5f		 pop	 edi
  00221	5e		 pop	 esi
  00222	5b		 pop	 ebx
  00223	8b e5		 mov	 esp, ebp
  00225	5d		 pop	 ebp
  00226	c3		 ret	 0
?ResetAllData@CRaklionBattleOfSelupan@@QAEXXZ ENDP	; CRaklionBattleOfSelupan::ResetAllData
; Function compile flags: /Odtp /ZI
; File d:\projects\exteam6.3\source\gameserver\gameserver\raklionbattleofselupan.h
_TEXT	ENDS
;	COMDAT ?SetBattleOfSelupanState@CRaklionBattleOfSelupan@@QAEXH@Z
_TEXT	SEGMENT
_this$ = -4						; size = 4
_m_iBattleOfSelupanState$ = 8				; size = 4
?SetBattleOfSelupanState@CRaklionBattleOfSelupan@@QAEXH@Z PROC ; CRaklionBattleOfSelupan::SetBattleOfSelupanState, COMDAT
; _this$ = ecx

; 95   : 	void SetBattleOfSelupanState	(int m_iBattleOfSelupanState)	{			this->m_iBattleOfSelupanState	= m_iBattleOfSelupanState;	}

  00000	55		 push	 ebp
  00001	8b ec		 mov	 ebp, esp
  00003	83 ec 44	 sub	 esp, 68			; 00000044H
  00006	53		 push	 ebx
  00007	56		 push	 esi
  00008	57		 push	 edi
  00009	89 4d fc	 mov	 DWORD PTR _this$[ebp], ecx
  0000c	8b 45 fc	 mov	 eax, DWORD PTR _this$[ebp]
  0000f	8b 4d 08	 mov	 ecx, DWORD PTR _m_iBattleOfSelupanState$[ebp]
  00012	89 48 08	 mov	 DWORD PTR [eax+8], ecx
  00015	5f		 pop	 edi
  00016	5e		 pop	 esi
  00017	5b		 pop	 ebx
  00018	8b e5		 mov	 esp, ebp
  0001a	5d		 pop	 ebp
  0001b	c2 04 00	 ret	 4
?SetBattleOfSelupanState@CRaklionBattleOfSelupan@@QAEXH@Z ENDP ; CRaklionBattleOfSelupan::SetBattleOfSelupanState
; Function compile flags: /Odtp /ZI
_TEXT	ENDS
;	COMDAT ?SetSuccessValue@CRaklionBattleOfSelupan@@QAEXH@Z
_TEXT	SEGMENT
_this$ = -4						; size = 4
_bIsSuccess$ = 8					; size = 4
?SetSuccessValue@CRaklionBattleOfSelupan@@QAEXH@Z PROC	; CRaklionBattleOfSelupan::SetSuccessValue, COMDAT
; _this$ = ecx

; 97   : 	void SetSuccessValue			(BOOL bIsSuccess)				{			this->m_bIsSucccess				= bIsSuccess;				}

  00000	55		 push	 ebp
  00001	8b ec		 mov	 ebp, esp
  00003	83 ec 44	 sub	 esp, 68			; 00000044H
  00006	53		 push	 ebx
  00007	56		 push	 esi
  00008	57		 push	 edi
  00009	89 4d fc	 mov	 DWORD PTR _this$[ebp], ecx
  0000c	8b 45 fc	 mov	 eax, DWORD PTR _this$[ebp]
  0000f	8b 4d 08	 mov	 ecx, DWORD PTR _bIsSuccess$[ebp]
  00012	89 48 30	 mov	 DWORD PTR [eax+48], ecx
  00015	5f		 pop	 edi
  00016	5e		 pop	 esi
  00017	5b		 pop	 ebx
  00018	8b e5		 mov	 esp, ebp
  0001a	5d		 pop	 ebp
  0001b	c2 04 00	 ret	 4
?SetSuccessValue@CRaklionBattleOfSelupan@@QAEXH@Z ENDP	; CRaklionBattleOfSelupan::SetSuccessValue
_TEXT	ENDS
PUBLIC	?Init@CRaklionBattleOfSelupan@@QAEHXZ		; CRaklionBattleOfSelupan::Init
; Function compile flags: /Odtp /ZI
; File d:\projects\exteam6.3\source\gameserver\gameserver\raklionbattleofselupan.cpp
_TEXT	SEGMENT
_this$ = -4						; size = 4
?Init@CRaklionBattleOfSelupan@@QAEHXZ PROC		; CRaklionBattleOfSelupan::Init
; _this$ = ecx

; 67   : {

  00230	55		 push	 ebp
  00231	8b ec		 mov	 ebp, esp
  00233	83 ec 44	 sub	 esp, 68			; 00000044H
  00236	53		 push	 ebx
  00237	56		 push	 esi
  00238	57		 push	 edi
  00239	89 4d fc	 mov	 DWORD PTR _this$[ebp], ecx

; 68   : 	//need fix size
; 69   : 	return 1;

  0023c	b8 01 00 00 00	 mov	 eax, 1

; 70   : }

  00241	5f		 pop	 edi
  00242	5e		 pop	 esi
  00243	5b		 pop	 ebx
  00244	8b e5		 mov	 esp, ebp
  00246	5d		 pop	 ebp
  00247	c3		 ret	 0
?Init@CRaklionBattleOfSelupan@@QAEHXZ ENDP		; CRaklionBattleOfSelupan::Init
_TEXT	ENDS
PUBLIC	?ProcState_DIE@CRaklionBattleOfSelupan@@QAEXXZ	; CRaklionBattleOfSelupan::ProcState_DIE
PUBLIC	?ProcState_PATTERN_7@CRaklionBattleOfSelupan@@QAEXXZ ; CRaklionBattleOfSelupan::ProcState_PATTERN_7
PUBLIC	?ProcState_PATTERN_6@CRaklionBattleOfSelupan@@QAEXXZ ; CRaklionBattleOfSelupan::ProcState_PATTERN_6
PUBLIC	?ProcState_PATTERN_5@CRaklionBattleOfSelupan@@QAEXXZ ; CRaklionBattleOfSelupan::ProcState_PATTERN_5
PUBLIC	?ProcState_PATTERN_4@CRaklionBattleOfSelupan@@QAEXXZ ; CRaklionBattleOfSelupan::ProcState_PATTERN_4
PUBLIC	?ProcState_PATTERN_3@CRaklionBattleOfSelupan@@QAEXXZ ; CRaklionBattleOfSelupan::ProcState_PATTERN_3
PUBLIC	?ProcState_PATTERN_2@CRaklionBattleOfSelupan@@QAEXXZ ; CRaklionBattleOfSelupan::ProcState_PATTERN_2
PUBLIC	?ProcState_PATTERN_1@CRaklionBattleOfSelupan@@QAEXXZ ; CRaklionBattleOfSelupan::ProcState_PATTERN_1
PUBLIC	?ProcState_STANDBY@CRaklionBattleOfSelupan@@QAEXXZ ; CRaklionBattleOfSelupan::ProcState_STANDBY
PUBLIC	?ProcState_NONE@CRaklionBattleOfSelupan@@QAEXXZ	; CRaklionBattleOfSelupan::ProcState_NONE
PUBLIC	?SetState@CRaklionBattleOfSelupan@@QAEXH@Z	; CRaklionBattleOfSelupan::SetState
PUBLIC	?GetBattleOfSelupanState@CRaklionBattleOfSelupan@@QAEHXZ ; CRaklionBattleOfSelupan::GetBattleOfSelupanState
PUBLIC	?Run@CRaklionBattleOfSelupan@@QAEXXZ		; CRaklionBattleOfSelupan::Run
EXTRN	__imp__GetTickCount@0:PROC
EXTRN	?GetSelupanLife@CRaklionSelupan@@QAEKXZ:PROC	; CRaklionSelupan::GetSelupanLife
; Function compile flags: /Odtp /ZI
_TEXT	SEGMENT
tv79 = -72						; size = 4
_this$ = -4						; size = 4
?Run@CRaklionBattleOfSelupan@@QAEXXZ PROC		; CRaklionBattleOfSelupan::Run
; _this$ = ecx

; 73   : {

  00250	55		 push	 ebp
  00251	8b ec		 mov	 ebp, esp
  00253	83 ec 48	 sub	 esp, 72			; 00000048H
  00256	53		 push	 ebx
  00257	56		 push	 esi
  00258	57		 push	 edi
  00259	89 4d fc	 mov	 DWORD PTR _this$[ebp], ecx

; 74   : 	if ( this->m_RaklionSelupan.GetSelupanLife() <= 0 && this->GetBattleOfSelupanState() != SELUPAN_STATE_DIE  )

  0025c	8b 4d fc	 mov	 ecx, DWORD PTR _this$[ebp]
  0025f	83 c1 34	 add	 ecx, 52			; 00000034H
  00262	e8 00 00 00 00	 call	 ?GetSelupanLife@CRaklionSelupan@@QAEKXZ ; CRaklionSelupan::GetSelupanLife
  00267	85 c0		 test	 eax, eax
  00269	77 1c		 ja	 SHORT $LN14@Run
  0026b	8b 4d fc	 mov	 ecx, DWORD PTR _this$[ebp]
  0026e	e8 00 00 00 00	 call	 ?GetBattleOfSelupanState@CRaklionBattleOfSelupan@@QAEHXZ ; CRaklionBattleOfSelupan::GetBattleOfSelupanState
  00273	83 f8 09	 cmp	 eax, 9
  00276	74 0f		 je	 SHORT $LN14@Run

; 75   : 	{
; 76   : 		this->SetState(SELUPAN_STATE_DIE);

  00278	6a 09		 push	 9
  0027a	8b 4d fc	 mov	 ecx, DWORD PTR _this$[ebp]
  0027d	e8 00 00 00 00	 call	 ?SetState@CRaklionBattleOfSelupan@@QAEXH@Z ; CRaklionBattleOfSelupan::SetState

; 77   : 		return;

  00282	e9 91 00 00 00	 jmp	 $LN15@Run
$LN14@Run:

; 78   : 	}
; 79   : 
; 80   : 	if ( this->m_dwSkillDelay > GetTickCount() - this->m_dwSkillDelayTick )

  00287	ff 15 00 00 00
	00		 call	 DWORD PTR __imp__GetTickCount@0
  0028d	8b 4d fc	 mov	 ecx, DWORD PTR _this$[ebp]
  00290	2b 41 28	 sub	 eax, DWORD PTR [ecx+40]
  00293	8b 55 fc	 mov	 edx, DWORD PTR _this$[ebp]
  00296	39 42 24	 cmp	 DWORD PTR [edx+36], eax
  00299	76 02		 jbe	 SHORT $LN13@Run

; 81   : 	{
; 82   : 		return;

  0029b	eb 7b		 jmp	 SHORT $LN15@Run
$LN13@Run:

; 83   : 	}
; 84   : 
; 85   : 	switch ( this->m_iBattleOfSelupanState )

  0029d	8b 45 fc	 mov	 eax, DWORD PTR _this$[ebp]
  002a0	8b 48 08	 mov	 ecx, DWORD PTR [eax+8]
  002a3	89 4d b8	 mov	 DWORD PTR tv79[ebp], ecx
  002a6	83 7d b8 09	 cmp	 DWORD PTR tv79[ebp], 9
  002aa	77 6c		 ja	 SHORT $LN15@Run
  002ac	8b 55 b8	 mov	 edx, DWORD PTR tv79[ebp]
  002af	ff 24 95 00 00
	00 00		 jmp	 DWORD PTR $LN17@Run[edx*4]
$LN10@Run:

; 86   : 	{
; 87   : 	case SELUPAN_STATE_NONE:		this->ProcState_NONE();		break;

  002b6	8b 4d fc	 mov	 ecx, DWORD PTR _this$[ebp]
  002b9	e8 00 00 00 00	 call	 ?ProcState_NONE@CRaklionBattleOfSelupan@@QAEXXZ ; CRaklionBattleOfSelupan::ProcState_NONE
  002be	eb 58		 jmp	 SHORT $LN15@Run
$LN9@Run:

; 88   : 	case SELUPAN_STATE_STANDBY:		this->ProcState_STANDBY();	break;

  002c0	8b 4d fc	 mov	 ecx, DWORD PTR _this$[ebp]
  002c3	e8 00 00 00 00	 call	 ?ProcState_STANDBY@CRaklionBattleOfSelupan@@QAEXXZ ; CRaklionBattleOfSelupan::ProcState_STANDBY
  002c8	eb 4e		 jmp	 SHORT $LN15@Run
$LN8@Run:

; 89   : 	case SELUPAN_STATE_PATTERN_1:	this->ProcState_PATTERN_1();break;

  002ca	8b 4d fc	 mov	 ecx, DWORD PTR _this$[ebp]
  002cd	e8 00 00 00 00	 call	 ?ProcState_PATTERN_1@CRaklionBattleOfSelupan@@QAEXXZ ; CRaklionBattleOfSelupan::ProcState_PATTERN_1
  002d2	eb 44		 jmp	 SHORT $LN15@Run
$LN7@Run:

; 90   : 	case SELUPAN_STATE_PATTERN_2:	this->ProcState_PATTERN_2();break;

  002d4	8b 4d fc	 mov	 ecx, DWORD PTR _this$[ebp]
  002d7	e8 00 00 00 00	 call	 ?ProcState_PATTERN_2@CRaklionBattleOfSelupan@@QAEXXZ ; CRaklionBattleOfSelupan::ProcState_PATTERN_2
  002dc	eb 3a		 jmp	 SHORT $LN15@Run
$LN6@Run:

; 91   : 	case SELUPAN_STATE_PATTERN_3:	this->ProcState_PATTERN_3();break;

  002de	8b 4d fc	 mov	 ecx, DWORD PTR _this$[ebp]
  002e1	e8 00 00 00 00	 call	 ?ProcState_PATTERN_3@CRaklionBattleOfSelupan@@QAEXXZ ; CRaklionBattleOfSelupan::ProcState_PATTERN_3
  002e6	eb 30		 jmp	 SHORT $LN15@Run
$LN5@Run:

; 92   : 	case SELUPAN_STATE_PATTERN_4:	this->ProcState_PATTERN_4();break;

  002e8	8b 4d fc	 mov	 ecx, DWORD PTR _this$[ebp]
  002eb	e8 00 00 00 00	 call	 ?ProcState_PATTERN_4@CRaklionBattleOfSelupan@@QAEXXZ ; CRaklionBattleOfSelupan::ProcState_PATTERN_4
  002f0	eb 26		 jmp	 SHORT $LN15@Run
$LN4@Run:

; 93   : 	case SELUPAN_STATE_PATTERN_5:	this->ProcState_PATTERN_5();break;

  002f2	8b 4d fc	 mov	 ecx, DWORD PTR _this$[ebp]
  002f5	e8 00 00 00 00	 call	 ?ProcState_PATTERN_5@CRaklionBattleOfSelupan@@QAEXXZ ; CRaklionBattleOfSelupan::ProcState_PATTERN_5
  002fa	eb 1c		 jmp	 SHORT $LN15@Run
$LN3@Run:

; 94   : 	case SELUPAN_STATE_PATTERN_6:	this->ProcState_PATTERN_6();break;

  002fc	8b 4d fc	 mov	 ecx, DWORD PTR _this$[ebp]
  002ff	e8 00 00 00 00	 call	 ?ProcState_PATTERN_6@CRaklionBattleOfSelupan@@QAEXXZ ; CRaklionBattleOfSelupan::ProcState_PATTERN_6
  00304	eb 12		 jmp	 SHORT $LN15@Run
$LN2@Run:

; 95   : 	case SELUPAN_STATE_PATTERN_7:	this->ProcState_PATTERN_7();break;

  00306	8b 4d fc	 mov	 ecx, DWORD PTR _this$[ebp]
  00309	e8 00 00 00 00	 call	 ?ProcState_PATTERN_7@CRaklionBattleOfSelupan@@QAEXXZ ; CRaklionBattleOfSelupan::ProcState_PATTERN_7
  0030e	eb 08		 jmp	 SHORT $LN15@Run
$LN1@Run:

; 96   : 	case SELUPAN_STATE_DIE:			this->ProcState_DIE();		break;

  00310	8b 4d fc	 mov	 ecx, DWORD PTR _this$[ebp]
  00313	e8 00 00 00 00	 call	 ?ProcState_DIE@CRaklionBattleOfSelupan@@QAEXXZ ; CRaklionBattleOfSelupan::ProcState_DIE
$LN15@Run:

; 97   : 	}
; 98   : }

  00318	5f		 pop	 edi
  00319	5e		 pop	 esi
  0031a	5b		 pop	 ebx
  0031b	8b e5		 mov	 esp, ebp
  0031d	5d		 pop	 ebp
  0031e	c3		 ret	 0
  0031f	90		 npad	 1
$LN17@Run:
  00320	00 00 00 00	 DD	 $LN10@Run
  00324	00 00 00 00	 DD	 $LN9@Run
  00328	00 00 00 00	 DD	 $LN8@Run
  0032c	00 00 00 00	 DD	 $LN7@Run
  00330	00 00 00 00	 DD	 $LN6@Run
  00334	00 00 00 00	 DD	 $LN5@Run
  00338	00 00 00 00	 DD	 $LN4@Run
  0033c	00 00 00 00	 DD	 $LN3@Run
  00340	00 00 00 00	 DD	 $LN2@Run
  00344	00 00 00 00	 DD	 $LN1@Run
?Run@CRaklionBattleOfSelupan@@QAEXXZ ENDP		; CRaklionBattleOfSelupan::Run
; Function compile flags: /Odtp /ZI
; File d:\projects\exteam6.3\source\gameserver\gameserver\raklionbattleofselupan.h
_TEXT	ENDS
;	COMDAT ?GetBattleOfSelupanState@CRaklionBattleOfSelupan@@QAEHXZ
_TEXT	SEGMENT
_this$ = -4						; size = 4
?GetBattleOfSelupanState@CRaklionBattleOfSelupan@@QAEHXZ PROC ; CRaklionBattleOfSelupan::GetBattleOfSelupanState, COMDAT
; _this$ = ecx

; 96   : 	int GetBattleOfSelupanState		(							)	{	return	this->m_iBattleOfSelupanState;								}

  00000	55		 push	 ebp
  00001	8b ec		 mov	 ebp, esp
  00003	83 ec 44	 sub	 esp, 68			; 00000044H
  00006	53		 push	 ebx
  00007	56		 push	 esi
  00008	57		 push	 edi
  00009	89 4d fc	 mov	 DWORD PTR _this$[ebp], ecx
  0000c	8b 45 fc	 mov	 eax, DWORD PTR _this$[ebp]
  0000f	8b 40 08	 mov	 eax, DWORD PTR [eax+8]
  00012	5f		 pop	 edi
  00013	5e		 pop	 esi
  00014	5b		 pop	 ebx
  00015	8b e5		 mov	 esp, ebp
  00017	5d		 pop	 ebp
  00018	c3		 ret	 0
?GetBattleOfSelupanState@CRaklionBattleOfSelupan@@QAEHXZ ENDP ; CRaklionBattleOfSelupan::GetBattleOfSelupanState
_TEXT	ENDS
PUBLIC	?SetState_DIE@CRaklionBattleOfSelupan@@QAEXXZ	; CRaklionBattleOfSelupan::SetState_DIE
PUBLIC	?SetState_PATTERN_7@CRaklionBattleOfSelupan@@QAEXXZ ; CRaklionBattleOfSelupan::SetState_PATTERN_7
PUBLIC	?SetState_PATTERN_6@CRaklionBattleOfSelupan@@QAEXXZ ; CRaklionBattleOfSelupan::SetState_PATTERN_6
PUBLIC	?SetState_PATTERN_5@CRaklionBattleOfSelupan@@QAEXXZ ; CRaklionBattleOfSelupan::SetState_PATTERN_5
PUBLIC	?SetState_PATTERN_4@CRaklionBattleOfSelupan@@QAEXXZ ; CRaklionBattleOfSelupan::SetState_PATTERN_4
PUBLIC	?SetState_PATTERN_3@CRaklionBattleOfSelupan@@QAEXXZ ; CRaklionBattleOfSelupan::SetState_PATTERN_3
PUBLIC	?SetState_PATTERN_2@CRaklionBattleOfSelupan@@QAEXXZ ; CRaklionBattleOfSelupan::SetState_PATTERN_2
PUBLIC	?SetState_PATTERN_1@CRaklionBattleOfSelupan@@QAEXXZ ; CRaklionBattleOfSelupan::SetState_PATTERN_1
PUBLIC	?SetState_STANDBY@CRaklionBattleOfSelupan@@QAEXXZ ; CRaklionBattleOfSelupan::SetState_STANDBY
PUBLIC	?SetState_NONE@CRaklionBattleOfSelupan@@QAEXXZ	; CRaklionBattleOfSelupan::SetState_NONE
EXTRN	?NotifyRaklionChangeState@CRaklionUtil@@QAEXHH@Z:PROC ; CRaklionUtil::NotifyRaklionChangeState
EXTRN	?g_RaklionUtil@@3VCRaklionUtil@@A:DWORD		; g_RaklionUtil
; Function compile flags: /Odtp /ZI
; File d:\projects\exteam6.3\source\gameserver\gameserver\raklionbattleofselupan.cpp
_TEXT	SEGMENT
tv69 = -72						; size = 4
_this$ = -4						; size = 4
_iBattleOfSelupanState$ = 8				; size = 4
?SetState@CRaklionBattleOfSelupan@@QAEXH@Z PROC		; CRaklionBattleOfSelupan::SetState
; _this$ = ecx

; 101  : {

  00350	55		 push	 ebp
  00351	8b ec		 mov	 ebp, esp
  00353	83 ec 48	 sub	 esp, 72			; 00000048H
  00356	53		 push	 ebx
  00357	56		 push	 esi
  00358	57		 push	 edi
  00359	89 4d fc	 mov	 DWORD PTR _this$[ebp], ecx

; 102  : 	if ( this->m_dwSkillDelay > GetTickCount() - this->m_dwSkillDelayTick )

  0035c	ff 15 00 00 00
	00		 call	 DWORD PTR __imp__GetTickCount@0
  00362	8b 4d fc	 mov	 ecx, DWORD PTR _this$[ebp]
  00365	2b 41 28	 sub	 eax, DWORD PTR [ecx+40]
  00368	8b 55 fc	 mov	 edx, DWORD PTR _this$[ebp]
  0036b	39 42 24	 cmp	 DWORD PTR [edx+36], eax
  0036e	76 05		 jbe	 SHORT $LN13@SetState

; 103  : 	{
; 104  : 		return;

  00370	e9 8d 00 00 00	 jmp	 $LN14@SetState
$LN13@SetState:

; 105  : 	}
; 106  : 		
; 107  : 	switch ( iBattleOfSelupanState )

  00375	8b 45 08	 mov	 eax, DWORD PTR _iBattleOfSelupanState$[ebp]
  00378	89 45 b8	 mov	 DWORD PTR tv69[ebp], eax
  0037b	83 7d b8 09	 cmp	 DWORD PTR tv69[ebp], 9
  0037f	77 6c		 ja	 SHORT $LN11@SetState
  00381	8b 4d b8	 mov	 ecx, DWORD PTR tv69[ebp]
  00384	ff 24 8d 00 00
	00 00		 jmp	 DWORD PTR $LN16@SetState[ecx*4]
$LN10@SetState:

; 108  : 	{
; 109  : 	case SELUPAN_STATE_NONE:		this->SetState_NONE();		break;

  0038b	8b 4d fc	 mov	 ecx, DWORD PTR _this$[ebp]
  0038e	e8 00 00 00 00	 call	 ?SetState_NONE@CRaklionBattleOfSelupan@@QAEXXZ ; CRaklionBattleOfSelupan::SetState_NONE
  00393	eb 58		 jmp	 SHORT $LN11@SetState
$LN9@SetState:

; 110  : 	case SELUPAN_STATE_STANDBY:		this->SetState_STANDBY();	break;

  00395	8b 4d fc	 mov	 ecx, DWORD PTR _this$[ebp]
  00398	e8 00 00 00 00	 call	 ?SetState_STANDBY@CRaklionBattleOfSelupan@@QAEXXZ ; CRaklionBattleOfSelupan::SetState_STANDBY
  0039d	eb 4e		 jmp	 SHORT $LN11@SetState
$LN8@SetState:

; 111  : 	case SELUPAN_STATE_PATTERN_1:	this->SetState_PATTERN_1();	break;

  0039f	8b 4d fc	 mov	 ecx, DWORD PTR _this$[ebp]
  003a2	e8 00 00 00 00	 call	 ?SetState_PATTERN_1@CRaklionBattleOfSelupan@@QAEXXZ ; CRaklionBattleOfSelupan::SetState_PATTERN_1
  003a7	eb 44		 jmp	 SHORT $LN11@SetState
$LN7@SetState:

; 112  : 	case SELUPAN_STATE_PATTERN_2:	this->SetState_PATTERN_2();	break;

  003a9	8b 4d fc	 mov	 ecx, DWORD PTR _this$[ebp]
  003ac	e8 00 00 00 00	 call	 ?SetState_PATTERN_2@CRaklionBattleOfSelupan@@QAEXXZ ; CRaklionBattleOfSelupan::SetState_PATTERN_2
  003b1	eb 3a		 jmp	 SHORT $LN11@SetState
$LN6@SetState:

; 113  : 	case SELUPAN_STATE_PATTERN_3:	this->SetState_PATTERN_3();	break;

  003b3	8b 4d fc	 mov	 ecx, DWORD PTR _this$[ebp]
  003b6	e8 00 00 00 00	 call	 ?SetState_PATTERN_3@CRaklionBattleOfSelupan@@QAEXXZ ; CRaklionBattleOfSelupan::SetState_PATTERN_3
  003bb	eb 30		 jmp	 SHORT $LN11@SetState
$LN5@SetState:

; 114  : 	case SELUPAN_STATE_PATTERN_4:	this->SetState_PATTERN_4();	break;

  003bd	8b 4d fc	 mov	 ecx, DWORD PTR _this$[ebp]
  003c0	e8 00 00 00 00	 call	 ?SetState_PATTERN_4@CRaklionBattleOfSelupan@@QAEXXZ ; CRaklionBattleOfSelupan::SetState_PATTERN_4
  003c5	eb 26		 jmp	 SHORT $LN11@SetState
$LN4@SetState:

; 115  : 	case SELUPAN_STATE_PATTERN_5:	this->SetState_PATTERN_5();	break;

  003c7	8b 4d fc	 mov	 ecx, DWORD PTR _this$[ebp]
  003ca	e8 00 00 00 00	 call	 ?SetState_PATTERN_5@CRaklionBattleOfSelupan@@QAEXXZ ; CRaklionBattleOfSelupan::SetState_PATTERN_5
  003cf	eb 1c		 jmp	 SHORT $LN11@SetState
$LN3@SetState:

; 116  : 	case SELUPAN_STATE_PATTERN_6:	this->SetState_PATTERN_6();	break;

  003d1	8b 4d fc	 mov	 ecx, DWORD PTR _this$[ebp]
  003d4	e8 00 00 00 00	 call	 ?SetState_PATTERN_6@CRaklionBattleOfSelupan@@QAEXXZ ; CRaklionBattleOfSelupan::SetState_PATTERN_6
  003d9	eb 12		 jmp	 SHORT $LN11@SetState
$LN2@SetState:

; 117  : 	case SELUPAN_STATE_PATTERN_7:	this->SetState_PATTERN_7();	break;

  003db	8b 4d fc	 mov	 ecx, DWORD PTR _this$[ebp]
  003de	e8 00 00 00 00	 call	 ?SetState_PATTERN_7@CRaklionBattleOfSelupan@@QAEXXZ ; CRaklionBattleOfSelupan::SetState_PATTERN_7
  003e3	eb 08		 jmp	 SHORT $LN11@SetState
$LN1@SetState:

; 118  : 	case SELUPAN_STATE_DIE:			this->SetState_DIE();		break;

  003e5	8b 4d fc	 mov	 ecx, DWORD PTR _this$[ebp]
  003e8	e8 00 00 00 00	 call	 ?SetState_DIE@CRaklionBattleOfSelupan@@QAEXXZ ; CRaklionBattleOfSelupan::SetState_DIE
$LN11@SetState:

; 119  : 	}
; 120  : 
; 121  : 	g_RaklionUtil.NotifyRaklionChangeState(11, this->GetBattleOfSelupanState());

  003ed	8b 4d fc	 mov	 ecx, DWORD PTR _this$[ebp]
  003f0	e8 00 00 00 00	 call	 ?GetBattleOfSelupanState@CRaklionBattleOfSelupan@@QAEHXZ ; CRaklionBattleOfSelupan::GetBattleOfSelupanState
  003f5	50		 push	 eax
  003f6	6a 0b		 push	 11			; 0000000bH
  003f8	b9 00 00 00 00	 mov	 ecx, OFFSET ?g_RaklionUtil@@3VCRaklionUtil@@A ; g_RaklionUtil
  003fd	e8 00 00 00 00	 call	 ?NotifyRaklionChangeState@CRaklionUtil@@QAEXHH@Z ; CRaklionUtil::NotifyRaklionChangeState
$LN14@SetState:

; 122  : }

  00402	5f		 pop	 edi
  00403	5e		 pop	 esi
  00404	5b		 pop	 ebx
  00405	8b e5		 mov	 esp, ebp
  00407	5d		 pop	 ebp
  00408	c2 04 00	 ret	 4
  0040b	90		 npad	 1
$LN16@SetState:
  0040c	00 00 00 00	 DD	 $LN10@SetState
  00410	00 00 00 00	 DD	 $LN9@SetState
  00414	00 00 00 00	 DD	 $LN8@SetState
  00418	00 00 00 00	 DD	 $LN7@SetState
  0041c	00 00 00 00	 DD	 $LN6@SetState
  00420	00 00 00 00	 DD	 $LN5@SetState
  00424	00 00 00 00	 DD	 $LN4@SetState
  00428	00 00 00 00	 DD	 $LN3@SetState
  0042c	00 00 00 00	 DD	 $LN2@SetState
  00430	00 00 00 00	 DD	 $LN1@SetState
?SetState@CRaklionBattleOfSelupan@@QAEXH@Z ENDP		; CRaklionBattleOfSelupan::SetState
_TEXT	ENDS
PUBLIC	??_C@_0DB@JPEONBGN@?$FL?5RAKLION?5?$FN?$FL?5BattleOfSelupan?5?$FN?5S@ ; `string'
EXTRN	?SelupanAct_BerserkCansel@CRaklionSelupan@@QAEXXZ:PROC ; CRaklionSelupan::SelupanAct_BerserkCansel
EXTRN	?LogAddC@@3P6AXEPADZZA:DWORD			; LogAddC
;	COMDAT ??_C@_0DB@JPEONBGN@?$FL?5RAKLION?5?$FN?$FL?5BattleOfSelupan?5?$FN?5S@
CONST	SEGMENT
??_C@_0DB@JPEONBGN@?$FL?5RAKLION?5?$FN?$FL?5BattleOfSelupan?5?$FN?5S@ DB '['
	DB	' RAKLION ][ BattleOfSelupan ] State(%d) -> NONE', 00H ; `string'
; Function compile flags: /Odtp /ZI
CONST	ENDS
_TEXT	SEGMENT
_this$ = -4						; size = 4
?SetState_NONE@CRaklionBattleOfSelupan@@QAEXXZ PROC	; CRaklionBattleOfSelupan::SetState_NONE
; _this$ = ecx

; 125  : {

  00440	55		 push	 ebp
  00441	8b ec		 mov	 ebp, esp
  00443	83 ec 44	 sub	 esp, 68			; 00000044H
  00446	53		 push	 ebx
  00447	56		 push	 esi
  00448	57		 push	 edi
  00449	89 4d fc	 mov	 DWORD PTR _this$[ebp], ecx

; 126  : 	LogAddC(5, "[ RAKLION ][ BattleOfSelupan ] State(%d) -> NONE", this->m_iBattleOfSelupanState);

  0044c	8b 45 fc	 mov	 eax, DWORD PTR _this$[ebp]
  0044f	8b 48 08	 mov	 ecx, DWORD PTR [eax+8]
  00452	51		 push	 ecx
  00453	68 00 00 00 00	 push	 OFFSET ??_C@_0DB@JPEONBGN@?$FL?5RAKLION?5?$FN?$FL?5BattleOfSelupan?5?$FN?5S@
  00458	6a 05		 push	 5
  0045a	ff 15 00 00 00
	00		 call	 DWORD PTR ?LogAddC@@3P6AXEPADZZA ; LogAddC
  00460	83 c4 0c	 add	 esp, 12			; 0000000cH

; 127  : 	
; 128  : 	this->m_RaklionSelupan.SelupanAct_BerserkCansel();

  00463	8b 4d fc	 mov	 ecx, DWORD PTR _this$[ebp]
  00466	83 c1 34	 add	 ecx, 52			; 00000034H
  00469	e8 00 00 00 00	 call	 ?SelupanAct_BerserkCansel@CRaklionSelupan@@QAEXXZ ; CRaklionSelupan::SelupanAct_BerserkCansel

; 129  : 	
; 130  : 	this->SetBattleOfSelupanState(SELUPAN_STATE_NONE);

  0046e	6a 00		 push	 0
  00470	8b 4d fc	 mov	 ecx, DWORD PTR _this$[ebp]
  00473	e8 00 00 00 00	 call	 ?SetBattleOfSelupanState@CRaklionBattleOfSelupan@@QAEXH@Z ; CRaklionBattleOfSelupan::SetBattleOfSelupanState

; 131  : 
; 132  : }

  00478	5f		 pop	 edi
  00479	5e		 pop	 esi
  0047a	5b		 pop	 ebx
  0047b	8b e5		 mov	 esp, ebp
  0047d	5d		 pop	 ebp
  0047e	c3		 ret	 0
?SetState_NONE@CRaklionBattleOfSelupan@@QAEXXZ ENDP	; CRaklionBattleOfSelupan::SetState_NONE
_TEXT	ENDS
PUBLIC	??_C@_0DE@EBLINPPG@?$FL?5RAKLION?5?$FN?$FL?5BattleOfSelupan?5?$FN?5S@ ; `string'
EXTRN	?CreateSelupan@CRaklionSelupan@@QAEHXZ:PROC	; CRaklionSelupan::CreateSelupan
EXTRN	?InitSelupanObjIndex@CRaklionSelupan@@QAEXXZ:PROC ; CRaklionSelupan::InitSelupanObjIndex
;	COMDAT ??_C@_0DE@EBLINPPG@?$FL?5RAKLION?5?$FN?$FL?5BattleOfSelupan?5?$FN?5S@
CONST	SEGMENT
??_C@_0DE@EBLINPPG@?$FL?5RAKLION?5?$FN?$FL?5BattleOfSelupan?5?$FN?5S@ DB '['
	DB	' RAKLION ][ BattleOfSelupan ] State(%d) -> STANDBY', 00H ; `string'
; Function compile flags: /Odtp /ZI
CONST	ENDS
_TEXT	SEGMENT
_this$ = -4						; size = 4
?SetState_STANDBY@CRaklionBattleOfSelupan@@QAEXXZ PROC	; CRaklionBattleOfSelupan::SetState_STANDBY
; _this$ = ecx

; 135  : {

  00480	55		 push	 ebp
  00481	8b ec		 mov	 ebp, esp
  00483	83 ec 44	 sub	 esp, 68			; 00000044H
  00486	53		 push	 ebx
  00487	56		 push	 esi
  00488	57		 push	 edi
  00489	89 4d fc	 mov	 DWORD PTR _this$[ebp], ecx

; 136  : 	LogAddC(5, "[ RAKLION ][ BattleOfSelupan ] State(%d) -> STANDBY", this->m_iBattleOfSelupanState);

  0048c	8b 45 fc	 mov	 eax, DWORD PTR _this$[ebp]
  0048f	8b 48 08	 mov	 ecx, DWORD PTR [eax+8]
  00492	51		 push	 ecx
  00493	68 00 00 00 00	 push	 OFFSET ??_C@_0DE@EBLINPPG@?$FL?5RAKLION?5?$FN?$FL?5BattleOfSelupan?5?$FN?5S@
  00498	6a 05		 push	 5
  0049a	ff 15 00 00 00
	00		 call	 DWORD PTR ?LogAddC@@3P6AXEPADZZA ; LogAddC
  004a0	83 c4 0c	 add	 esp, 12			; 0000000cH

; 137  : 	
; 138  : 	this->m_RaklionSelupan.InitSelupanObjIndex();

  004a3	8b 4d fc	 mov	 ecx, DWORD PTR _this$[ebp]
  004a6	83 c1 34	 add	 ecx, 52			; 00000034H
  004a9	e8 00 00 00 00	 call	 ?InitSelupanObjIndex@CRaklionSelupan@@QAEXXZ ; CRaklionSelupan::InitSelupanObjIndex

; 139  : 	this->m_RaklionSelupan.CreateSelupan();

  004ae	8b 4d fc	 mov	 ecx, DWORD PTR _this$[ebp]
  004b1	83 c1 34	 add	 ecx, 52			; 00000034H
  004b4	e8 00 00 00 00	 call	 ?CreateSelupan@CRaklionSelupan@@QAEHXZ ; CRaklionSelupan::CreateSelupan

; 140  : 	this->m_RaklionSelupan.SelupanAct_BerserkCansel();

  004b9	8b 4d fc	 mov	 ecx, DWORD PTR _this$[ebp]
  004bc	83 c1 34	 add	 ecx, 52			; 00000034H
  004bf	e8 00 00 00 00	 call	 ?SelupanAct_BerserkCansel@CRaklionSelupan@@QAEXXZ ; CRaklionSelupan::SelupanAct_BerserkCansel

; 141  : 	
; 142  : 	this->SetBattleOfSelupanState(SELUPAN_STATE_STANDBY);

  004c4	6a 01		 push	 1
  004c6	8b 4d fc	 mov	 ecx, DWORD PTR _this$[ebp]
  004c9	e8 00 00 00 00	 call	 ?SetBattleOfSelupanState@CRaklionBattleOfSelupan@@QAEXH@Z ; CRaklionBattleOfSelupan::SetBattleOfSelupanState

; 143  : }

  004ce	5f		 pop	 edi
  004cf	5e		 pop	 esi
  004d0	5b		 pop	 ebx
  004d1	8b e5		 mov	 esp, ebp
  004d3	5d		 pop	 ebp
  004d4	c3		 ret	 0
?SetState_STANDBY@CRaklionBattleOfSelupan@@QAEXXZ ENDP	; CRaklionBattleOfSelupan::SetState_STANDBY
_TEXT	ENDS
PUBLIC	??_C@_0EK@JNGGHGMA@?$FL?5RAKLION?5?$FN?$FL?5BattleOfSelupan?5?$FN?5S@ ; `string'
;	COMDAT ??_C@_0EK@JNGGHGMA@?$FL?5RAKLION?5?$FN?$FL?5BattleOfSelupan?5?$FN?5S@
CONST	SEGMENT
??_C@_0EK@JNGGHGMA@?$FL?5RAKLION?5?$FN?$FL?5BattleOfSelupan?5?$FN?5S@ DB '['
	DB	' RAKLION ][ BattleOfSelupan ] State(%d) -> PATTERN_1 // Life('
	DB	'%d/4800000)', 00H				; `string'
; Function compile flags: /Odtp /ZI
CONST	ENDS
_TEXT	SEGMENT
_this$ = -4						; size = 4
?SetState_PATTERN_1@CRaklionBattleOfSelupan@@QAEXXZ PROC ; CRaklionBattleOfSelupan::SetState_PATTERN_1
; _this$ = ecx

; 146  : {

  004e0	55		 push	 ebp
  004e1	8b ec		 mov	 ebp, esp
  004e3	83 ec 44	 sub	 esp, 68			; 00000044H
  004e6	53		 push	 ebx
  004e7	56		 push	 esi
  004e8	57		 push	 edi
  004e9	89 4d fc	 mov	 DWORD PTR _this$[ebp], ecx

; 147  : 	LogAddC(5, "[ RAKLION ][ BattleOfSelupan ] State(%d) -> PATTERN_1 // Life(%d/4800000)", this->m_iBattleOfSelupanState,this->m_RaklionSelupan.GetSelupanLife());

  004ec	8b 4d fc	 mov	 ecx, DWORD PTR _this$[ebp]
  004ef	83 c1 34	 add	 ecx, 52			; 00000034H
  004f2	e8 00 00 00 00	 call	 ?GetSelupanLife@CRaklionSelupan@@QAEKXZ ; CRaklionSelupan::GetSelupanLife
  004f7	50		 push	 eax
  004f8	8b 45 fc	 mov	 eax, DWORD PTR _this$[ebp]
  004fb	8b 48 08	 mov	 ecx, DWORD PTR [eax+8]
  004fe	51		 push	 ecx
  004ff	68 00 00 00 00	 push	 OFFSET ??_C@_0EK@JNGGHGMA@?$FL?5RAKLION?5?$FN?$FL?5BattleOfSelupan?5?$FN?5S@
  00504	6a 05		 push	 5
  00506	ff 15 00 00 00
	00		 call	 DWORD PTR ?LogAddC@@3P6AXEPADZZA ; LogAddC
  0050c	83 c4 10	 add	 esp, 16			; 00000010H

; 148  : 	
; 149  : 	this->m_RaklionSelupan.SelupanAct_BerserkCansel();

  0050f	8b 4d fc	 mov	 ecx, DWORD PTR _this$[ebp]
  00512	83 c1 34	 add	 ecx, 52			; 00000034H
  00515	e8 00 00 00 00	 call	 ?SelupanAct_BerserkCansel@CRaklionSelupan@@QAEXXZ ; CRaklionSelupan::SelupanAct_BerserkCansel

; 150  : 	
; 151  : 	this->SetBattleOfSelupanState(SELUPAN_STATE_PATTERN_1);

  0051a	6a 02		 push	 2
  0051c	8b 4d fc	 mov	 ecx, DWORD PTR _this$[ebp]
  0051f	e8 00 00 00 00	 call	 ?SetBattleOfSelupanState@CRaklionBattleOfSelupan@@QAEXH@Z ; CRaklionBattleOfSelupan::SetBattleOfSelupanState

; 152  : }

  00524	5f		 pop	 edi
  00525	5e		 pop	 esi
  00526	5b		 pop	 ebx
  00527	8b e5		 mov	 esp, ebp
  00529	5d		 pop	 ebp
  0052a	c3		 ret	 0
?SetState_PATTERN_1@CRaklionBattleOfSelupan@@QAEXXZ ENDP ; CRaklionBattleOfSelupan::SetState_PATTERN_1
_TEXT	ENDS
PUBLIC	??_C@_0EK@KEBONLIA@?$FL?5RAKLION?5?$FN?$FL?5BattleOfSelupan?5?$FN?5S@ ; `string'
EXTRN	?SelupanAct_Berserk1@CRaklionSelupan@@QAEXXZ:PROC ; CRaklionSelupan::SelupanAct_Berserk1
;	COMDAT ??_C@_0EK@KEBONLIA@?$FL?5RAKLION?5?$FN?$FL?5BattleOfSelupan?5?$FN?5S@
CONST	SEGMENT
??_C@_0EK@KEBONLIA@?$FL?5RAKLION?5?$FN?$FL?5BattleOfSelupan?5?$FN?5S@ DB '['
	DB	' RAKLION ][ BattleOfSelupan ] State(%d) -> PATTERN_2 // Life('
	DB	'%d/4800000)', 00H				; `string'
; Function compile flags: /Odtp /ZI
CONST	ENDS
_TEXT	SEGMENT
_this$ = -4						; size = 4
?SetState_PATTERN_2@CRaklionBattleOfSelupan@@QAEXXZ PROC ; CRaklionBattleOfSelupan::SetState_PATTERN_2
; _this$ = ecx

; 155  : {

  00530	55		 push	 ebp
  00531	8b ec		 mov	 ebp, esp
  00533	83 ec 44	 sub	 esp, 68			; 00000044H
  00536	53		 push	 ebx
  00537	56		 push	 esi
  00538	57		 push	 edi
  00539	89 4d fc	 mov	 DWORD PTR _this$[ebp], ecx

; 156  : 	LogAddC(5, "[ RAKLION ][ BattleOfSelupan ] State(%d) -> PATTERN_2 // Life(%d/4800000)", this->m_iBattleOfSelupanState,this->m_RaklionSelupan.GetSelupanLife());

  0053c	8b 4d fc	 mov	 ecx, DWORD PTR _this$[ebp]
  0053f	83 c1 34	 add	 ecx, 52			; 00000034H
  00542	e8 00 00 00 00	 call	 ?GetSelupanLife@CRaklionSelupan@@QAEKXZ ; CRaklionSelupan::GetSelupanLife
  00547	50		 push	 eax
  00548	8b 45 fc	 mov	 eax, DWORD PTR _this$[ebp]
  0054b	8b 48 08	 mov	 ecx, DWORD PTR [eax+8]
  0054e	51		 push	 ecx
  0054f	68 00 00 00 00	 push	 OFFSET ??_C@_0EK@KEBONLIA@?$FL?5RAKLION?5?$FN?$FL?5BattleOfSelupan?5?$FN?5S@
  00554	6a 05		 push	 5
  00556	ff 15 00 00 00
	00		 call	 DWORD PTR ?LogAddC@@3P6AXEPADZZA ; LogAddC
  0055c	83 c4 10	 add	 esp, 16			; 00000010H

; 157  : 
; 158  : 	this->m_RaklionSelupan.SelupanAct_Berserk1();  

  0055f	8b 4d fc	 mov	 ecx, DWORD PTR _this$[ebp]
  00562	83 c1 34	 add	 ecx, 52			; 00000034H
  00565	e8 00 00 00 00	 call	 ?SelupanAct_Berserk1@CRaklionSelupan@@QAEXXZ ; CRaklionSelupan::SelupanAct_Berserk1

; 159  : 	
; 160  : 	this->SetBattleOfSelupanState(SELUPAN_STATE_PATTERN_2);

  0056a	6a 03		 push	 3
  0056c	8b 4d fc	 mov	 ecx, DWORD PTR _this$[ebp]
  0056f	e8 00 00 00 00	 call	 ?SetBattleOfSelupanState@CRaklionBattleOfSelupan@@QAEXH@Z ; CRaklionBattleOfSelupan::SetBattleOfSelupanState

; 161  : }

  00574	5f		 pop	 edi
  00575	5e		 pop	 esi
  00576	5b		 pop	 ebx
  00577	8b e5		 mov	 esp, ebp
  00579	5d		 pop	 ebp
  0057a	c3		 ret	 0
?SetState_PATTERN_2@CRaklionBattleOfSelupan@@QAEXXZ ENDP ; CRaklionBattleOfSelupan::SetState_PATTERN_2
_TEXT	ENDS
PUBLIC	??_C@_0EK@LDDGLPEA@?$FL?5RAKLION?5?$FN?$FL?5BattleOfSelupan?5?$FN?5S@ ; `string'
EXTRN	?SelupanAct_Berserk2@CRaklionSelupan@@QAEXXZ:PROC ; CRaklionSelupan::SelupanAct_Berserk2
;	COMDAT ??_C@_0EK@LDDGLPEA@?$FL?5RAKLION?5?$FN?$FL?5BattleOfSelupan?5?$FN?5S@
CONST	SEGMENT
??_C@_0EK@LDDGLPEA@?$FL?5RAKLION?5?$FN?$FL?5BattleOfSelupan?5?$FN?5S@ DB '['
	DB	' RAKLION ][ BattleOfSelupan ] State(%d) -> PATTERN_3 // Life('
	DB	'%d/4800000)', 00H				; `string'
; Function compile flags: /Odtp /ZI
CONST	ENDS
_TEXT	SEGMENT
_this$ = -4						; size = 4
?SetState_PATTERN_3@CRaklionBattleOfSelupan@@QAEXXZ PROC ; CRaklionBattleOfSelupan::SetState_PATTERN_3
; _this$ = ecx

; 164  : {

  00580	55		 push	 ebp
  00581	8b ec		 mov	 ebp, esp
  00583	83 ec 44	 sub	 esp, 68			; 00000044H
  00586	53		 push	 ebx
  00587	56		 push	 esi
  00588	57		 push	 edi
  00589	89 4d fc	 mov	 DWORD PTR _this$[ebp], ecx

; 165  : 	LogAddC(5, "[ RAKLION ][ BattleOfSelupan ] State(%d) -> PATTERN_3 // Life(%d/4800000)", this->m_iBattleOfSelupanState,this->m_RaklionSelupan.GetSelupanLife());

  0058c	8b 4d fc	 mov	 ecx, DWORD PTR _this$[ebp]
  0058f	83 c1 34	 add	 ecx, 52			; 00000034H
  00592	e8 00 00 00 00	 call	 ?GetSelupanLife@CRaklionSelupan@@QAEKXZ ; CRaklionSelupan::GetSelupanLife
  00597	50		 push	 eax
  00598	8b 45 fc	 mov	 eax, DWORD PTR _this$[ebp]
  0059b	8b 48 08	 mov	 ecx, DWORD PTR [eax+8]
  0059e	51		 push	 ecx
  0059f	68 00 00 00 00	 push	 OFFSET ??_C@_0EK@LDDGLPEA@?$FL?5RAKLION?5?$FN?$FL?5BattleOfSelupan?5?$FN?5S@
  005a4	6a 05		 push	 5
  005a6	ff 15 00 00 00
	00		 call	 DWORD PTR ?LogAddC@@3P6AXEPADZZA ; LogAddC
  005ac	83 c4 10	 add	 esp, 16			; 00000010H

; 166  : 	
; 167  : 	this->m_RaklionSelupan.SelupanAct_Berserk2();

  005af	8b 4d fc	 mov	 ecx, DWORD PTR _this$[ebp]
  005b2	83 c1 34	 add	 ecx, 52			; 00000034H
  005b5	e8 00 00 00 00	 call	 ?SelupanAct_Berserk2@CRaklionSelupan@@QAEXXZ ; CRaklionSelupan::SelupanAct_Berserk2

; 168  : 	
; 169  : 	this->SetBattleOfSelupanState(SELUPAN_STATE_PATTERN_3);

  005ba	6a 04		 push	 4
  005bc	8b 4d fc	 mov	 ecx, DWORD PTR _this$[ebp]
  005bf	e8 00 00 00 00	 call	 ?SetBattleOfSelupanState@CRaklionBattleOfSelupan@@QAEXH@Z ; CRaklionBattleOfSelupan::SetBattleOfSelupanState

; 170  : }

  005c4	5f		 pop	 edi
  005c5	5e		 pop	 esi
  005c6	5b		 pop	 ebx
  005c7	8b e5		 mov	 esp, ebp
  005c9	5d		 pop	 ebp
  005ca	c3		 ret	 0
?SetState_PATTERN_3@CRaklionBattleOfSelupan@@QAEXXZ ENDP ; CRaklionBattleOfSelupan::SetState_PATTERN_3
_TEXT	ENDS
PUBLIC	??_C@_0EK@NGOPIBAA@?$FL?5RAKLION?5?$FN?$FL?5BattleOfSelupan?5?$FN?5S@ ; `string'
EXTRN	?GetBerserkIndex@CRaklionSelupan@@QAEHXZ:PROC	; CRaklionSelupan::GetBerserkIndex
;	COMDAT ??_C@_0EK@NGOPIBAA@?$FL?5RAKLION?5?$FN?$FL?5BattleOfSelupan?5?$FN?5S@
CONST	SEGMENT
??_C@_0EK@NGOPIBAA@?$FL?5RAKLION?5?$FN?$FL?5BattleOfSelupan?5?$FN?5S@ DB '['
	DB	' RAKLION ][ BattleOfSelupan ] State(%d) -> PATTERN_4 // Life('
	DB	'%d/4800000)', 00H				; `string'
; Function compile flags: /Odtp /ZI
CONST	ENDS
_TEXT	SEGMENT
_this$ = -4						; size = 4
?SetState_PATTERN_4@CRaklionBattleOfSelupan@@QAEXXZ PROC ; CRaklionBattleOfSelupan::SetState_PATTERN_4
; _this$ = ecx

; 173  : {

  005d0	55		 push	 ebp
  005d1	8b ec		 mov	 ebp, esp
  005d3	83 ec 44	 sub	 esp, 68			; 00000044H
  005d6	53		 push	 ebx
  005d7	56		 push	 esi
  005d8	57		 push	 edi
  005d9	89 4d fc	 mov	 DWORD PTR _this$[ebp], ecx

; 174  : 	LogAddC(5, "[ RAKLION ][ BattleOfSelupan ] State(%d) -> PATTERN_4 // Life(%d/4800000)", this->m_iBattleOfSelupanState,this->m_RaklionSelupan.GetSelupanLife());

  005dc	8b 4d fc	 mov	 ecx, DWORD PTR _this$[ebp]
  005df	83 c1 34	 add	 ecx, 52			; 00000034H
  005e2	e8 00 00 00 00	 call	 ?GetSelupanLife@CRaklionSelupan@@QAEKXZ ; CRaklionSelupan::GetSelupanLife
  005e7	50		 push	 eax
  005e8	8b 45 fc	 mov	 eax, DWORD PTR _this$[ebp]
  005eb	8b 48 08	 mov	 ecx, DWORD PTR [eax+8]
  005ee	51		 push	 ecx
  005ef	68 00 00 00 00	 push	 OFFSET ??_C@_0EK@NGOPIBAA@?$FL?5RAKLION?5?$FN?$FL?5BattleOfSelupan?5?$FN?5S@
  005f4	6a 05		 push	 5
  005f6	ff 15 00 00 00
	00		 call	 DWORD PTR ?LogAddC@@3P6AXEPADZZA ; LogAddC
  005fc	83 c4 10	 add	 esp, 16			; 00000010H

; 175  : 	
; 176  : 	if ( this->m_RaklionSelupan.GetBerserkIndex() != 2 )

  005ff	8b 4d fc	 mov	 ecx, DWORD PTR _this$[ebp]
  00602	83 c1 34	 add	 ecx, 52			; 00000034H
  00605	e8 00 00 00 00	 call	 ?GetBerserkIndex@CRaklionSelupan@@QAEHXZ ; CRaklionSelupan::GetBerserkIndex
  0060a	83 f8 02	 cmp	 eax, 2
  0060d	74 0b		 je	 SHORT $LN1@SetState_P

; 177  : 	{
; 178  : 		this->m_RaklionSelupan.SelupanAct_Berserk2();

  0060f	8b 4d fc	 mov	 ecx, DWORD PTR _this$[ebp]
  00612	83 c1 34	 add	 ecx, 52			; 00000034H
  00615	e8 00 00 00 00	 call	 ?SelupanAct_Berserk2@CRaklionSelupan@@QAEXXZ ; CRaklionSelupan::SelupanAct_Berserk2
$LN1@SetState_P:

; 179  : 	}
; 180  : 	
; 181  : 	this->SetBattleOfSelupanState(SELUPAN_STATE_PATTERN_4);

  0061a	6a 05		 push	 5
  0061c	8b 4d fc	 mov	 ecx, DWORD PTR _this$[ebp]
  0061f	e8 00 00 00 00	 call	 ?SetBattleOfSelupanState@CRaklionBattleOfSelupan@@QAEXH@Z ; CRaklionBattleOfSelupan::SetBattleOfSelupanState

; 182  : }

  00624	5f		 pop	 edi
  00625	5e		 pop	 esi
  00626	5b		 pop	 ebx
  00627	8b e5		 mov	 esp, ebp
  00629	5d		 pop	 ebp
  0062a	c3		 ret	 0
?SetState_PATTERN_4@CRaklionBattleOfSelupan@@QAEXXZ ENDP ; CRaklionBattleOfSelupan::SetState_PATTERN_4
_TEXT	ENDS
PUBLIC	??_C@_0EK@MBMHOFMA@?$FL?5RAKLION?5?$FN?$FL?5BattleOfSelupan?5?$FN?5S@ ; `string'
EXTRN	?SelupanAct_Berserk3@CRaklionSelupan@@QAEXXZ:PROC ; CRaklionSelupan::SelupanAct_Berserk3
;	COMDAT ??_C@_0EK@MBMHOFMA@?$FL?5RAKLION?5?$FN?$FL?5BattleOfSelupan?5?$FN?5S@
CONST	SEGMENT
??_C@_0EK@MBMHOFMA@?$FL?5RAKLION?5?$FN?$FL?5BattleOfSelupan?5?$FN?5S@ DB '['
	DB	' RAKLION ][ BattleOfSelupan ] State(%d) -> PATTERN_5 // Life('
	DB	'%d/4800000)', 00H				; `string'
; Function compile flags: /Odtp /ZI
CONST	ENDS
_TEXT	SEGMENT
_this$ = -4						; size = 4
?SetState_PATTERN_5@CRaklionBattleOfSelupan@@QAEXXZ PROC ; CRaklionBattleOfSelupan::SetState_PATTERN_5
; _this$ = ecx

; 185  : {

  00630	55		 push	 ebp
  00631	8b ec		 mov	 ebp, esp
  00633	83 ec 44	 sub	 esp, 68			; 00000044H
  00636	53		 push	 ebx
  00637	56		 push	 esi
  00638	57		 push	 edi
  00639	89 4d fc	 mov	 DWORD PTR _this$[ebp], ecx

; 186  : 	LogAddC(5, "[ RAKLION ][ BattleOfSelupan ] State(%d) -> PATTERN_5 // Life(%d/4800000)", this->m_iBattleOfSelupanState,this->m_RaklionSelupan.GetSelupanLife());

  0063c	8b 4d fc	 mov	 ecx, DWORD PTR _this$[ebp]
  0063f	83 c1 34	 add	 ecx, 52			; 00000034H
  00642	e8 00 00 00 00	 call	 ?GetSelupanLife@CRaklionSelupan@@QAEKXZ ; CRaklionSelupan::GetSelupanLife
  00647	50		 push	 eax
  00648	8b 45 fc	 mov	 eax, DWORD PTR _this$[ebp]
  0064b	8b 48 08	 mov	 ecx, DWORD PTR [eax+8]
  0064e	51		 push	 ecx
  0064f	68 00 00 00 00	 push	 OFFSET ??_C@_0EK@MBMHOFMA@?$FL?5RAKLION?5?$FN?$FL?5BattleOfSelupan?5?$FN?5S@
  00654	6a 05		 push	 5
  00656	ff 15 00 00 00
	00		 call	 DWORD PTR ?LogAddC@@3P6AXEPADZZA ; LogAddC
  0065c	83 c4 10	 add	 esp, 16			; 00000010H

; 187  : 	
; 188  : 	this->m_RaklionSelupan.SelupanAct_Berserk3();

  0065f	8b 4d fc	 mov	 ecx, DWORD PTR _this$[ebp]
  00662	83 c1 34	 add	 ecx, 52			; 00000034H
  00665	e8 00 00 00 00	 call	 ?SelupanAct_Berserk3@CRaklionSelupan@@QAEXXZ ; CRaklionSelupan::SelupanAct_Berserk3

; 189  : 	
; 190  : 	this->SetBattleOfSelupanState(SELUPAN_STATE_PATTERN_5);

  0066a	6a 06		 push	 6
  0066c	8b 4d fc	 mov	 ecx, DWORD PTR _this$[ebp]
  0066f	e8 00 00 00 00	 call	 ?SetBattleOfSelupanState@CRaklionBattleOfSelupan@@QAEXH@Z ; CRaklionBattleOfSelupan::SetBattleOfSelupanState

; 191  : }

  00674	5f		 pop	 edi
  00675	5e		 pop	 esi
  00676	5b		 pop	 ebx
  00677	8b e5		 mov	 esp, ebp
  00679	5d		 pop	 ebp
  0067a	c3		 ret	 0
?SetState_PATTERN_5@CRaklionBattleOfSelupan@@QAEXXZ ENDP ; CRaklionBattleOfSelupan::SetState_PATTERN_5
_TEXT	ENDS
PUBLIC	??_C@_0EK@PILPEIIA@?$FL?5RAKLION?5?$FN?$FL?5BattleOfSelupan?5?$FN?5S@ ; `string'
EXTRN	?SelupanAct_Berserk4@CRaklionSelupan@@QAEXXZ:PROC ; CRaklionSelupan::SelupanAct_Berserk4
;	COMDAT ??_C@_0EK@PILPEIIA@?$FL?5RAKLION?5?$FN?$FL?5BattleOfSelupan?5?$FN?5S@
CONST	SEGMENT
??_C@_0EK@PILPEIIA@?$FL?5RAKLION?5?$FN?$FL?5BattleOfSelupan?5?$FN?5S@ DB '['
	DB	' RAKLION ][ BattleOfSelupan ] State(%d) -> PATTERN_6 // Life('
	DB	'%d/4800000)', 00H				; `string'
; Function compile flags: /Odtp /ZI
CONST	ENDS
_TEXT	SEGMENT
_this$ = -4						; size = 4
?SetState_PATTERN_6@CRaklionBattleOfSelupan@@QAEXXZ PROC ; CRaklionBattleOfSelupan::SetState_PATTERN_6
; _this$ = ecx

; 194  : {

  00680	55		 push	 ebp
  00681	8b ec		 mov	 ebp, esp
  00683	83 ec 44	 sub	 esp, 68			; 00000044H
  00686	53		 push	 ebx
  00687	56		 push	 esi
  00688	57		 push	 edi
  00689	89 4d fc	 mov	 DWORD PTR _this$[ebp], ecx

; 195  : 	LogAddC(5, "[ RAKLION ][ BattleOfSelupan ] State(%d) -> PATTERN_6 // Life(%d/4800000)", this->m_iBattleOfSelupanState,this->m_RaklionSelupan.GetSelupanLife());

  0068c	8b 4d fc	 mov	 ecx, DWORD PTR _this$[ebp]
  0068f	83 c1 34	 add	 ecx, 52			; 00000034H
  00692	e8 00 00 00 00	 call	 ?GetSelupanLife@CRaklionSelupan@@QAEKXZ ; CRaklionSelupan::GetSelupanLife
  00697	50		 push	 eax
  00698	8b 45 fc	 mov	 eax, DWORD PTR _this$[ebp]
  0069b	8b 48 08	 mov	 ecx, DWORD PTR [eax+8]
  0069e	51		 push	 ecx
  0069f	68 00 00 00 00	 push	 OFFSET ??_C@_0EK@PILPEIIA@?$FL?5RAKLION?5?$FN?$FL?5BattleOfSelupan?5?$FN?5S@
  006a4	6a 05		 push	 5
  006a6	ff 15 00 00 00
	00		 call	 DWORD PTR ?LogAddC@@3P6AXEPADZZA ; LogAddC
  006ac	83 c4 10	 add	 esp, 16			; 00000010H

; 196  : 	
; 197  : 	this->m_RaklionSelupan.SelupanAct_Berserk4();

  006af	8b 4d fc	 mov	 ecx, DWORD PTR _this$[ebp]
  006b2	83 c1 34	 add	 ecx, 52			; 00000034H
  006b5	e8 00 00 00 00	 call	 ?SelupanAct_Berserk4@CRaklionSelupan@@QAEXXZ ; CRaklionSelupan::SelupanAct_Berserk4

; 198  : 	
; 199  : 	this->SetBattleOfSelupanState(SELUPAN_STATE_PATTERN_6);

  006ba	6a 07		 push	 7
  006bc	8b 4d fc	 mov	 ecx, DWORD PTR _this$[ebp]
  006bf	e8 00 00 00 00	 call	 ?SetBattleOfSelupanState@CRaklionBattleOfSelupan@@QAEXH@Z ; CRaklionBattleOfSelupan::SetBattleOfSelupanState

; 200  : }

  006c4	5f		 pop	 edi
  006c5	5e		 pop	 esi
  006c6	5b		 pop	 ebx
  006c7	8b e5		 mov	 esp, ebp
  006c9	5d		 pop	 ebp
  006ca	c3		 ret	 0
?SetState_PATTERN_6@CRaklionBattleOfSelupan@@QAEXXZ ENDP ; CRaklionBattleOfSelupan::SetState_PATTERN_6
_TEXT	ENDS
PUBLIC	??_C@_0EK@OPJHCMEA@?$FL?5RAKLION?5?$FN?$FL?5BattleOfSelupan?5?$FN?5S@ ; `string'
;	COMDAT ??_C@_0EK@OPJHCMEA@?$FL?5RAKLION?5?$FN?$FL?5BattleOfSelupan?5?$FN?5S@
CONST	SEGMENT
??_C@_0EK@OPJHCMEA@?$FL?5RAKLION?5?$FN?$FL?5BattleOfSelupan?5?$FN?5S@ DB '['
	DB	' RAKLION ][ BattleOfSelupan ] State(%d) -> PATTERN_7 // Life('
	DB	'%d/4800000)', 00H				; `string'
; Function compile flags: /Odtp /ZI
CONST	ENDS
_TEXT	SEGMENT
_this$ = -4						; size = 4
?SetState_PATTERN_7@CRaklionBattleOfSelupan@@QAEXXZ PROC ; CRaklionBattleOfSelupan::SetState_PATTERN_7
; _this$ = ecx

; 203  : {

  006d0	55		 push	 ebp
  006d1	8b ec		 mov	 ebp, esp
  006d3	83 ec 44	 sub	 esp, 68			; 00000044H
  006d6	53		 push	 ebx
  006d7	56		 push	 esi
  006d8	57		 push	 edi
  006d9	89 4d fc	 mov	 DWORD PTR _this$[ebp], ecx

; 204  : 	LogAddC(5, "[ RAKLION ][ BattleOfSelupan ] State(%d) -> PATTERN_7 // Life(%d/4800000)", this->m_iBattleOfSelupanState,this->m_RaklionSelupan.GetSelupanLife());

  006dc	8b 4d fc	 mov	 ecx, DWORD PTR _this$[ebp]
  006df	83 c1 34	 add	 ecx, 52			; 00000034H
  006e2	e8 00 00 00 00	 call	 ?GetSelupanLife@CRaklionSelupan@@QAEKXZ ; CRaklionSelupan::GetSelupanLife
  006e7	50		 push	 eax
  006e8	8b 45 fc	 mov	 eax, DWORD PTR _this$[ebp]
  006eb	8b 48 08	 mov	 ecx, DWORD PTR [eax+8]
  006ee	51		 push	 ecx
  006ef	68 00 00 00 00	 push	 OFFSET ??_C@_0EK@OPJHCMEA@?$FL?5RAKLION?5?$FN?$FL?5BattleOfSelupan?5?$FN?5S@
  006f4	6a 05		 push	 5
  006f6	ff 15 00 00 00
	00		 call	 DWORD PTR ?LogAddC@@3P6AXEPADZZA ; LogAddC
  006fc	83 c4 10	 add	 esp, 16			; 00000010H

; 205  : 	
; 206  : 	if ( this->m_RaklionSelupan.GetBerserkIndex() != 4 )

  006ff	8b 4d fc	 mov	 ecx, DWORD PTR _this$[ebp]
  00702	83 c1 34	 add	 ecx, 52			; 00000034H
  00705	e8 00 00 00 00	 call	 ?GetBerserkIndex@CRaklionSelupan@@QAEHXZ ; CRaklionSelupan::GetBerserkIndex
  0070a	83 f8 04	 cmp	 eax, 4
  0070d	74 0b		 je	 SHORT $LN1@SetState_P@2

; 207  : 	{
; 208  : 		this->m_RaklionSelupan.SelupanAct_Berserk4();

  0070f	8b 4d fc	 mov	 ecx, DWORD PTR _this$[ebp]
  00712	83 c1 34	 add	 ecx, 52			; 00000034H
  00715	e8 00 00 00 00	 call	 ?SelupanAct_Berserk4@CRaklionSelupan@@QAEXXZ ; CRaklionSelupan::SelupanAct_Berserk4
$LN1@SetState_P@2:

; 209  : 	}
; 210  : 
; 211  : 	this->SetBattleOfSelupanState(SELUPAN_STATE_PATTERN_7);

  0071a	6a 08		 push	 8
  0071c	8b 4d fc	 mov	 ecx, DWORD PTR _this$[ebp]
  0071f	e8 00 00 00 00	 call	 ?SetBattleOfSelupanState@CRaklionBattleOfSelupan@@QAEXH@Z ; CRaklionBattleOfSelupan::SetBattleOfSelupanState

; 212  : }

  00724	5f		 pop	 edi
  00725	5e		 pop	 esi
  00726	5b		 pop	 ebx
  00727	8b e5		 mov	 esp, ebp
  00729	5d		 pop	 ebp
  0072a	c3		 ret	 0
?SetState_PATTERN_7@CRaklionBattleOfSelupan@@QAEXXZ ENDP ; CRaklionBattleOfSelupan::SetState_PATTERN_7
_TEXT	ENDS
PUBLIC	??_C@_0DO@FBHKOMND@?$FLRaklion?$FN?$FLSelupanDie?$FN?5?$CFd?1?$CFd?1?$CFd?5?$CF@ ; `string'
PUBLIC	?DeleteSummonMonster@CRaklionBattleOfSelupan@@QAEXXZ ; CRaklionBattleOfSelupan::DeleteSummonMonster
PUBLIC	??_C@_0DA@HPEHDIEE@?$FL?5RAKLION?5?$FN?$FL?5BattleOfSelupan?5?$FN?5S@ ; `string'
EXTRN	?LogAdd@@3P6AXPADZZA:DWORD			; LogAdd
EXTRN	?GetBattleUserIndex@CRaklionBattleUserMng@@QAEHH@Z:PROC ; CRaklionBattleUserMng::GetBattleUserIndex
EXTRN	?GetBattleUserCount@CRaklionBattleUserMng@@QAEHXZ:PROC ; CRaklionBattleUserMng::GetBattleUserCount
EXTRN	?g_RaklionBattleUserMng@@3VCRaklionBattleUserMng@@A:BYTE ; g_RaklionBattleUserMng
EXTRN	?SendMsgAllUser@CRaklionUtil@@QAAXPADZZ:PROC	; CRaklionUtil::SendMsgAllUser
EXTRN	?Get@CMsg@@QAEPADH@Z:PROC			; CMsg::Get
EXTRN	?lMsg@@3VCMsg@@A:BYTE				; lMsg
EXTRN	?gObj@@3PAUOBJECTSTRUCT@@A:DWORD		; gObj
EXTRN	?GetSelupanTargetIndex@CRaklionSelupan@@QAEHXZ:PROC ; CRaklionSelupan::GetSelupanTargetIndex
;	COMDAT ??_C@_0DO@FBHKOMND@?$FLRaklion?$FN?$FLSelupanDie?$FN?5?$CFd?1?$CFd?1?$CFd?5?$CF@
CONST	SEGMENT
??_C@_0DO@FBHKOMND@?$FLRaklion?$FN?$FLSelupanDie?$FN?5?$CFd?1?$CFd?1?$CFd?5?$CF@ DB '['
	DB	'Raklion][SelupanDie] %d/%d/%d %d:%d:%d %dth Winner : %s (%s)', 00H ; `string'
CONST	ENDS
;	COMDAT ??_C@_0DA@HPEHDIEE@?$FL?5RAKLION?5?$FN?$FL?5BattleOfSelupan?5?$FN?5S@
CONST	SEGMENT
??_C@_0DA@HPEHDIEE@?$FL?5RAKLION?5?$FN?$FL?5BattleOfSelupan?5?$FN?5S@ DB '['
	DB	' RAKLION ][ BattleOfSelupan ] State(%d) -> DIE', 00H ; `string'
; Function compile flags: /Odtp /ZI
CONST	ENDS
_TEXT	SEGMENT
_i$227527 = -28						; size = 4
_today$ = -24						; size = 4
_ltime$ = -20						; size = 8
_lpObj$ = -12						; size = 4
_aIndex$ = -8						; size = 4
_this$ = -4						; size = 4
?SetState_DIE@CRaklionBattleOfSelupan@@QAEXXZ PROC	; CRaklionBattleOfSelupan::SetState_DIE
; _this$ = ecx

; 215  : {

  00730	55		 push	 ebp
  00731	8b ec		 mov	 ebp, esp
  00733	83 ec 5c	 sub	 esp, 92			; 0000005cH
  00736	53		 push	 ebx
  00737	56		 push	 esi
  00738	57		 push	 edi
  00739	89 4d fc	 mov	 DWORD PTR _this$[ebp], ecx

; 216  : 	LogAddC(5, "[ RAKLION ][ BattleOfSelupan ] State(%d) -> DIE", this->m_iBattleOfSelupanState);

  0073c	8b 45 fc	 mov	 eax, DWORD PTR _this$[ebp]
  0073f	8b 48 08	 mov	 ecx, DWORD PTR [eax+8]
  00742	51		 push	 ecx
  00743	68 00 00 00 00	 push	 OFFSET ??_C@_0DA@HPEHDIEE@?$FL?5RAKLION?5?$FN?$FL?5BattleOfSelupan?5?$FN?5S@
  00748	6a 05		 push	 5
  0074a	ff 15 00 00 00
	00		 call	 DWORD PTR ?LogAddC@@3P6AXEPADZZA ; LogAddC
  00750	83 c4 0c	 add	 esp, 12			; 0000000cH

; 217  : 	
; 218  : 	this->m_RaklionSelupan.SelupanAct_BerserkCansel();

  00753	8b 4d fc	 mov	 ecx, DWORD PTR _this$[ebp]
  00756	83 c1 34	 add	 ecx, 52			; 00000034H
  00759	e8 00 00 00 00	 call	 ?SelupanAct_BerserkCansel@CRaklionSelupan@@QAEXXZ ; CRaklionSelupan::SelupanAct_BerserkCansel

; 219  : 	
; 220  : 	this->DeleteSummonMonster();

  0075e	8b 4d fc	 mov	 ecx, DWORD PTR _this$[ebp]
  00761	e8 00 00 00 00	 call	 ?DeleteSummonMonster@CRaklionBattleOfSelupan@@QAEXXZ ; CRaklionBattleOfSelupan::DeleteSummonMonster

; 221  : 	
; 222  : 	int aIndex = this->m_RaklionSelupan.GetSelupanTargetIndex();

  00766	8b 4d fc	 mov	 ecx, DWORD PTR _this$[ebp]
  00769	83 c1 34	 add	 ecx, 52			; 00000034H
  0076c	e8 00 00 00 00	 call	 ?GetSelupanTargetIndex@CRaklionSelupan@@QAEHXZ ; CRaklionSelupan::GetSelupanTargetIndex
  00771	89 45 f8	 mov	 DWORD PTR _aIndex$[ebp], eax

; 223  : 
; 224  : 	LPOBJ lpObj = &gObj[aIndex];

  00774	8b 45 f8	 mov	 eax, DWORD PTR _aIndex$[ebp]
  00777	69 c0 38 2b 00
	00		 imul	 eax, 11064		; 00002b38H
  0077d	03 05 00 00 00
	00		 add	 eax, DWORD PTR ?gObj@@3PAUOBJECTSTRUCT@@A ; gObj
  00783	89 45 f4	 mov	 DWORD PTR _lpObj$[ebp], eax

; 225  : 
; 226  : 	g_RaklionUtil.SendMsgAllUser(lMsg.Get(3412),lpObj->Name);

  00786	8b 45 f4	 mov	 eax, DWORD PTR _lpObj$[ebp]
  00789	83 c0 77	 add	 eax, 119		; 00000077H
  0078c	50		 push	 eax
  0078d	68 54 0d 00 00	 push	 3412			; 00000d54H
  00792	b9 00 00 00 00	 mov	 ecx, OFFSET ?lMsg@@3VCMsg@@A ; lMsg
  00797	e8 00 00 00 00	 call	 ?Get@CMsg@@QAEPADH@Z	; CMsg::Get
  0079c	50		 push	 eax
  0079d	68 00 00 00 00	 push	 OFFSET ?g_RaklionUtil@@3VCRaklionUtil@@A ; g_RaklionUtil
  007a2	e8 00 00 00 00	 call	 ?SendMsgAllUser@CRaklionUtil@@QAAXPADZZ ; CRaklionUtil::SendMsgAllUser
  007a7	83 c4 0c	 add	 esp, 12			; 0000000cH

; 227  : 
; 228  : 	time_t ltime;
; 229  : 	time(&ltime);

  007aa	8d 45 ec	 lea	 eax, DWORD PTR _ltime$[ebp]
  007ad	50		 push	 eax
  007ae	e8 00 00 00 00	 call	 _time
  007b3	83 c4 04	 add	 esp, 4

; 230  : 	tm * today=localtime(&ltime);

  007b6	8d 45 ec	 lea	 eax, DWORD PTR _ltime$[ebp]
  007b9	50		 push	 eax
  007ba	e8 00 00 00 00	 call	 _localtime
  007bf	83 c4 04	 add	 esp, 4
  007c2	89 45 e8	 mov	 DWORD PTR _today$[ebp], eax

; 231  : 
; 232  : 	for ( int i = 0; i < g_RaklionBattleUserMng.GetBattleUserCount(); ++i )

  007c5	c7 45 e4 00 00
	00 00		 mov	 DWORD PTR _i$227527[ebp], 0
  007cc	eb 09		 jmp	 SHORT $LN3@SetState_D
$LN2@SetState_D:
  007ce	8b 45 e4	 mov	 eax, DWORD PTR _i$227527[ebp]
  007d1	83 c0 01	 add	 eax, 1
  007d4	89 45 e4	 mov	 DWORD PTR _i$227527[ebp], eax
$LN3@SetState_D:
  007d7	b9 00 00 00 00	 mov	 ecx, OFFSET ?g_RaklionBattleUserMng@@3VCRaklionBattleUserMng@@A ; g_RaklionBattleUserMng
  007dc	e8 00 00 00 00	 call	 ?GetBattleUserCount@CRaklionBattleUserMng@@QAEHXZ ; CRaklionBattleUserMng::GetBattleUserCount
  007e1	39 45 e4	 cmp	 DWORD PTR _i$227527[ebp], eax
  007e4	0f 8d 89 00 00
	00		 jge	 $LN1@SetState_D

; 233  : 	{
; 234  : 		LogAdd("[Raklion][SelupanDie] %d/%d/%d %d:%d:%d %dth Winner : %s (%s)",
; 235  : 			today->tm_year+1900,today->tm_mon+1,today->tm_mday,today->tm_hour,
; 236  : 			today->tm_min,today->tm_sec,i+1,gObj[g_RaklionBattleUserMng.GetBattleUserIndex(i)].Name,gObj[g_RaklionBattleUserMng.GetBattleUserIndex(i)].AccountID);

  007ea	8b 45 e4	 mov	 eax, DWORD PTR _i$227527[ebp]
  007ed	50		 push	 eax
  007ee	b9 00 00 00 00	 mov	 ecx, OFFSET ?g_RaklionBattleUserMng@@3VCRaklionBattleUserMng@@A ; g_RaklionBattleUserMng
  007f3	e8 00 00 00 00	 call	 ?GetBattleUserIndex@CRaklionBattleUserMng@@QAEHH@Z ; CRaklionBattleUserMng::GetBattleUserIndex
  007f8	69 c0 38 2b 00
	00		 imul	 eax, 11064		; 00002b38H
  007fe	8b 0d 00 00 00
	00		 mov	 ecx, DWORD PTR ?gObj@@3PAUOBJECTSTRUCT@@A ; gObj
  00804	8d 54 01 6c	 lea	 edx, DWORD PTR [ecx+eax+108]
  00808	52		 push	 edx
  00809	8b 45 e4	 mov	 eax, DWORD PTR _i$227527[ebp]
  0080c	50		 push	 eax
  0080d	b9 00 00 00 00	 mov	 ecx, OFFSET ?g_RaklionBattleUserMng@@3VCRaklionBattleUserMng@@A ; g_RaklionBattleUserMng
  00812	e8 00 00 00 00	 call	 ?GetBattleUserIndex@CRaklionBattleUserMng@@QAEHH@Z ; CRaklionBattleUserMng::GetBattleUserIndex
  00817	69 c0 38 2b 00
	00		 imul	 eax, 11064		; 00002b38H
  0081d	8b 0d 00 00 00
	00		 mov	 ecx, DWORD PTR ?gObj@@3PAUOBJECTSTRUCT@@A ; gObj
  00823	8d 54 01 77	 lea	 edx, DWORD PTR [ecx+eax+119]
  00827	52		 push	 edx
  00828	8b 45 e4	 mov	 eax, DWORD PTR _i$227527[ebp]
  0082b	83 c0 01	 add	 eax, 1
  0082e	50		 push	 eax
  0082f	8b 4d e8	 mov	 ecx, DWORD PTR _today$[ebp]
  00832	8b 11		 mov	 edx, DWORD PTR [ecx]
  00834	52		 push	 edx
  00835	8b 45 e8	 mov	 eax, DWORD PTR _today$[ebp]
  00838	8b 48 04	 mov	 ecx, DWORD PTR [eax+4]
  0083b	51		 push	 ecx
  0083c	8b 55 e8	 mov	 edx, DWORD PTR _today$[ebp]
  0083f	8b 42 08	 mov	 eax, DWORD PTR [edx+8]
  00842	50		 push	 eax
  00843	8b 4d e8	 mov	 ecx, DWORD PTR _today$[ebp]
  00846	8b 51 0c	 mov	 edx, DWORD PTR [ecx+12]
  00849	52		 push	 edx
  0084a	8b 45 e8	 mov	 eax, DWORD PTR _today$[ebp]
  0084d	8b 48 10	 mov	 ecx, DWORD PTR [eax+16]
  00850	83 c1 01	 add	 ecx, 1
  00853	51		 push	 ecx
  00854	8b 55 e8	 mov	 edx, DWORD PTR _today$[ebp]
  00857	8b 42 14	 mov	 eax, DWORD PTR [edx+20]
  0085a	05 6c 07 00 00	 add	 eax, 1900		; 0000076cH
  0085f	50		 push	 eax
  00860	68 00 00 00 00	 push	 OFFSET ??_C@_0DO@FBHKOMND@?$FLRaklion?$FN?$FLSelupanDie?$FN?5?$CFd?1?$CFd?1?$CFd?5?$CF@
  00865	ff 15 00 00 00
	00		 call	 DWORD PTR ?LogAdd@@3P6AXPADZZA ; LogAdd
  0086b	83 c4 28	 add	 esp, 40			; 00000028H

; 237  : 	}

  0086e	e9 5b ff ff ff	 jmp	 $LN2@SetState_D
$LN1@SetState_D:

; 238  : 
; 239  : 	this->SetBattleOfSelupanState(SELUPAN_STATE_DIE);

  00873	6a 09		 push	 9
  00875	8b 4d fc	 mov	 ecx, DWORD PTR _this$[ebp]
  00878	e8 00 00 00 00	 call	 ?SetBattleOfSelupanState@CRaklionBattleOfSelupan@@QAEXH@Z ; CRaklionBattleOfSelupan::SetBattleOfSelupanState

; 240  : }

  0087d	5f		 pop	 edi
  0087e	5e		 pop	 esi
  0087f	5b		 pop	 ebx
  00880	8b e5		 mov	 esp, ebp
  00882	5d		 pop	 ebp
  00883	c3		 ret	 0
?SetState_DIE@CRaklionBattleOfSelupan@@QAEXXZ ENDP	; CRaklionBattleOfSelupan::SetState_DIE
_TEXT	ENDS
EXTRN	__localtime64:PROC
; Function compile flags: /Odtp /ZI
; File d:\microsoft visual studio 10.0\vc\include\time.inl
_TEXT	SEGMENT
__Time$ = 8						; size = 4
_localtime PROC

; 113  : {

  00890	55		 push	 ebp
  00891	8b ec		 mov	 ebp, esp
  00893	83 ec 40	 sub	 esp, 64			; 00000040H
  00896	53		 push	 ebx
  00897	56		 push	 esi
  00898	57		 push	 edi

; 114  : #pragma warning( push )
; 115  : #pragma warning( disable : 4996 )
; 116  :     return _localtime64(_Time);

  00899	8b 45 08	 mov	 eax, DWORD PTR __Time$[ebp]
  0089c	50		 push	 eax
  0089d	e8 00 00 00 00	 call	 __localtime64
  008a2	83 c4 04	 add	 esp, 4

; 117  : #pragma warning( pop )
; 118  : }

  008a5	5f		 pop	 edi
  008a6	5e		 pop	 esi
  008a7	5b		 pop	 ebx
  008a8	8b e5		 mov	 esp, ebp
  008aa	5d		 pop	 ebp
  008ab	c3		 ret	 0
_localtime ENDP
_TEXT	ENDS
EXTRN	__time64:PROC
; Function compile flags: /Odtp /ZI
_TEXT	SEGMENT
__Time$ = 8						; size = 4
_time	PROC

; 132  : {

  008b0	55		 push	 ebp
  008b1	8b ec		 mov	 ebp, esp
  008b3	83 ec 40	 sub	 esp, 64			; 00000040H
  008b6	53		 push	 ebx
  008b7	56		 push	 esi
  008b8	57		 push	 edi

; 133  :     return _time64(_Time);

  008b9	8b 45 08	 mov	 eax, DWORD PTR __Time$[ebp]
  008bc	50		 push	 eax
  008bd	e8 00 00 00 00	 call	 __time64
  008c2	83 c4 04	 add	 esp, 4

; 134  : }

  008c5	5f		 pop	 edi
  008c6	5e		 pop	 esi
  008c7	5b		 pop	 ebx
  008c8	8b e5		 mov	 esp, ebp
  008ca	5d		 pop	 ebp
  008cb	c3		 ret	 0
_time	ENDP
; Function compile flags: /Odtp /ZI
; File d:\projects\exteam6.3\source\gameserver\gameserver\raklionbattleofselupan.cpp
_this$ = -4						; size = 4
?ProcState_NONE@CRaklionBattleOfSelupan@@QAEXXZ PROC	; CRaklionBattleOfSelupan::ProcState_NONE
; _this$ = ecx

; 243  : {

  008d0	55		 push	 ebp
  008d1	8b ec		 mov	 ebp, esp
  008d3	83 ec 44	 sub	 esp, 68			; 00000044H
  008d6	53		 push	 ebx
  008d7	56		 push	 esi
  008d8	57		 push	 edi
  008d9	89 4d fc	 mov	 DWORD PTR _this$[ebp], ecx

; 244  : 
; 245  : }

  008dc	5f		 pop	 edi
  008dd	5e		 pop	 esi
  008de	5b		 pop	 ebx
  008df	8b e5		 mov	 esp, ebp
  008e1	5d		 pop	 ebp
  008e2	c3		 ret	 0
?ProcState_NONE@CRaklionBattleOfSelupan@@QAEXXZ ENDP	; CRaklionBattleOfSelupan::ProcState_NONE
; Function compile flags: /Odtp /ZI
_this$ = -4						; size = 4
?ProcState_STANDBY@CRaklionBattleOfSelupan@@QAEXXZ PROC	; CRaklionBattleOfSelupan::ProcState_STANDBY
; _this$ = ecx

; 248  : {

  008f0	55		 push	 ebp
  008f1	8b ec		 mov	 ebp, esp
  008f3	83 ec 44	 sub	 esp, 68			; 00000044H
  008f6	53		 push	 ebx
  008f7	56		 push	 esi
  008f8	57		 push	 edi
  008f9	89 4d fc	 mov	 DWORD PTR _this$[ebp], ecx

; 249  : 
; 250  : }

  008fc	5f		 pop	 edi
  008fd	5e		 pop	 esi
  008fe	5b		 pop	 ebx
  008ff	8b e5		 mov	 esp, ebp
  00901	5d		 pop	 ebp
  00902	c3		 ret	 0
?ProcState_STANDBY@CRaklionBattleOfSelupan@@QAEXXZ ENDP	; CRaklionBattleOfSelupan::ProcState_STANDBY
_TEXT	ENDS
PUBLIC	?PatternStateSkillUseProc@CRaklionBattleOfSelupan@@QAEXH@Z ; CRaklionBattleOfSelupan::PatternStateSkillUseProc
EXTRN	_rand:PROC
; Function compile flags: /Odtp /ZI
_TEXT	SEGMENT
_skill$ = -8						; size = 4
_this$ = -4						; size = 4
?ProcState_PATTERN_1@CRaklionBattleOfSelupan@@QAEXXZ PROC ; CRaklionBattleOfSelupan::ProcState_PATTERN_1
; _this$ = ecx

; 253  : {

  00910	55		 push	 ebp
  00911	8b ec		 mov	 ebp, esp
  00913	83 ec 48	 sub	 esp, 72			; 00000048H
  00916	53		 push	 ebx
  00917	56		 push	 esi
  00918	57		 push	 edi
  00919	89 4d fc	 mov	 DWORD PTR _this$[ebp], ecx

; 254  : 	int skill = 0;

  0091c	c7 45 f8 00 00
	00 00		 mov	 DWORD PTR _skill$[ebp], 0
$LN2@ProcState_:

; 255  : 
; 256  : 	while(this->m_PatternSkill[STATE_PATTERN_1].bIsSkillEnabled[skill] == 0)

  00923	8b 45 f8	 mov	 eax, DWORD PTR _skill$[ebp]
  00926	8b 4d fc	 mov	 ecx, DWORD PTR _this$[ebp]
  00929	83 bc 81 d4 0c
	00 00 00	 cmp	 DWORD PTR [ecx+eax*4+3284], 0
  00931	75 12		 jne	 SHORT $LN1@ProcState_

; 257  : 	{
; 258  : 		skill = rand() % 9;

  00933	e8 00 00 00 00	 call	 _rand
  00938	99		 cdq
  00939	b9 09 00 00 00	 mov	 ecx, 9
  0093e	f7 f9		 idiv	 ecx
  00940	89 55 f8	 mov	 DWORD PTR _skill$[ebp], edx

; 259  : 	}

  00943	eb de		 jmp	 SHORT $LN2@ProcState_
$LN1@ProcState_:

; 260  : 	
; 261  : 	this->PatternStateSkillUseProc(skill);

  00945	8b 45 f8	 mov	 eax, DWORD PTR _skill$[ebp]
  00948	50		 push	 eax
  00949	8b 4d fc	 mov	 ecx, DWORD PTR _this$[ebp]
  0094c	e8 00 00 00 00	 call	 ?PatternStateSkillUseProc@CRaklionBattleOfSelupan@@QAEXH@Z ; CRaklionBattleOfSelupan::PatternStateSkillUseProc

; 262  : }

  00951	5f		 pop	 edi
  00952	5e		 pop	 esi
  00953	5b		 pop	 ebx
  00954	8b e5		 mov	 esp, ebp
  00956	5d		 pop	 ebp
  00957	c3		 ret	 0
?ProcState_PATTERN_1@CRaklionBattleOfSelupan@@QAEXXZ ENDP ; CRaklionBattleOfSelupan::ProcState_PATTERN_1
; Function compile flags: /Odtp /ZI
_skill$ = -8						; size = 4
_this$ = -4						; size = 4
?ProcState_PATTERN_2@CRaklionBattleOfSelupan@@QAEXXZ PROC ; CRaklionBattleOfSelupan::ProcState_PATTERN_2
; _this$ = ecx

; 265  : {

  00960	55		 push	 ebp
  00961	8b ec		 mov	 ebp, esp
  00963	83 ec 48	 sub	 esp, 72			; 00000048H
  00966	53		 push	 ebx
  00967	56		 push	 esi
  00968	57		 push	 edi
  00969	89 4d fc	 mov	 DWORD PTR _this$[ebp], ecx

; 266  : 	int skill = 0;

  0096c	c7 45 f8 00 00
	00 00		 mov	 DWORD PTR _skill$[ebp], 0
$LN2@ProcState_@2:

; 267  : 
; 268  : 	while(this->m_PatternSkill[STATE_PATTERN_2].bIsSkillEnabled[skill] == 0)

  00973	8b 45 f8	 mov	 eax, DWORD PTR _skill$[ebp]
  00976	8b 4d fc	 mov	 ecx, DWORD PTR _this$[ebp]
  00979	83 bc 81 f8 0c
	00 00 00	 cmp	 DWORD PTR [ecx+eax*4+3320], 0
  00981	75 12		 jne	 SHORT $LN1@ProcState_@2

; 269  : 	{
; 270  : 		skill = rand() % 9;

  00983	e8 00 00 00 00	 call	 _rand
  00988	99		 cdq
  00989	b9 09 00 00 00	 mov	 ecx, 9
  0098e	f7 f9		 idiv	 ecx
  00990	89 55 f8	 mov	 DWORD PTR _skill$[ebp], edx

; 271  : 	}

  00993	eb de		 jmp	 SHORT $LN2@ProcState_@2
$LN1@ProcState_@2:

; 272  : 	
; 273  : 	this->PatternStateSkillUseProc(skill);

  00995	8b 45 f8	 mov	 eax, DWORD PTR _skill$[ebp]
  00998	50		 push	 eax
  00999	8b 4d fc	 mov	 ecx, DWORD PTR _this$[ebp]
  0099c	e8 00 00 00 00	 call	 ?PatternStateSkillUseProc@CRaklionBattleOfSelupan@@QAEXH@Z ; CRaklionBattleOfSelupan::PatternStateSkillUseProc

; 274  : }

  009a1	5f		 pop	 edi
  009a2	5e		 pop	 esi
  009a3	5b		 pop	 ebx
  009a4	8b e5		 mov	 esp, ebp
  009a6	5d		 pop	 ebp
  009a7	c3		 ret	 0
?ProcState_PATTERN_2@CRaklionBattleOfSelupan@@QAEXXZ ENDP ; CRaklionBattleOfSelupan::ProcState_PATTERN_2
; Function compile flags: /Odtp /ZI
_skill$ = -8						; size = 4
_this$ = -4						; size = 4
?ProcState_PATTERN_3@CRaklionBattleOfSelupan@@QAEXXZ PROC ; CRaklionBattleOfSelupan::ProcState_PATTERN_3
; _this$ = ecx

; 277  : {

  009b0	55		 push	 ebp
  009b1	8b ec		 mov	 ebp, esp
  009b3	83 ec 48	 sub	 esp, 72			; 00000048H
  009b6	53		 push	 ebx
  009b7	56		 push	 esi
  009b8	57		 push	 edi
  009b9	89 4d fc	 mov	 DWORD PTR _this$[ebp], ecx

; 278  : 	int skill = 0;

  009bc	c7 45 f8 00 00
	00 00		 mov	 DWORD PTR _skill$[ebp], 0
$LN2@ProcState_@3:

; 279  : 
; 280  : 	while(this->m_PatternSkill[STATE_PATTERN_3].bIsSkillEnabled[skill] == 0)

  009c3	8b 45 f8	 mov	 eax, DWORD PTR _skill$[ebp]
  009c6	8b 4d fc	 mov	 ecx, DWORD PTR _this$[ebp]
  009c9	83 bc 81 1c 0d
	00 00 00	 cmp	 DWORD PTR [ecx+eax*4+3356], 0
  009d1	75 12		 jne	 SHORT $LN1@ProcState_@3

; 281  : 	{
; 282  : 		skill = rand() % 9;

  009d3	e8 00 00 00 00	 call	 _rand
  009d8	99		 cdq
  009d9	b9 09 00 00 00	 mov	 ecx, 9
  009de	f7 f9		 idiv	 ecx
  009e0	89 55 f8	 mov	 DWORD PTR _skill$[ebp], edx

; 283  : 	}

  009e3	eb de		 jmp	 SHORT $LN2@ProcState_@3
$LN1@ProcState_@3:

; 284  : 	
; 285  : 	this->PatternStateSkillUseProc(skill);

  009e5	8b 45 f8	 mov	 eax, DWORD PTR _skill$[ebp]
  009e8	50		 push	 eax
  009e9	8b 4d fc	 mov	 ecx, DWORD PTR _this$[ebp]
  009ec	e8 00 00 00 00	 call	 ?PatternStateSkillUseProc@CRaklionBattleOfSelupan@@QAEXH@Z ; CRaklionBattleOfSelupan::PatternStateSkillUseProc

; 286  : }

  009f1	5f		 pop	 edi
  009f2	5e		 pop	 esi
  009f3	5b		 pop	 ebx
  009f4	8b e5		 mov	 esp, ebp
  009f6	5d		 pop	 ebp
  009f7	c3		 ret	 0
?ProcState_PATTERN_3@CRaklionBattleOfSelupan@@QAEXXZ ENDP ; CRaklionBattleOfSelupan::ProcState_PATTERN_3
; Function compile flags: /Odtp /ZI
_skill$ = -8						; size = 4
_this$ = -4						; size = 4
?ProcState_PATTERN_4@CRaklionBattleOfSelupan@@QAEXXZ PROC ; CRaklionBattleOfSelupan::ProcState_PATTERN_4
; _this$ = ecx

; 289  : {

  00a00	55		 push	 ebp
  00a01	8b ec		 mov	 ebp, esp
  00a03	83 ec 48	 sub	 esp, 72			; 00000048H
  00a06	53		 push	 ebx
  00a07	56		 push	 esi
  00a08	57		 push	 edi
  00a09	89 4d fc	 mov	 DWORD PTR _this$[ebp], ecx

; 290  : 	int skill = 0;

  00a0c	c7 45 f8 00 00
	00 00		 mov	 DWORD PTR _skill$[ebp], 0
$LN2@ProcState_@4:

; 291  : 
; 292  : 	while(this->m_PatternSkill[STATE_PATTERN_4].bIsSkillEnabled[skill] == 0)

  00a13	8b 45 f8	 mov	 eax, DWORD PTR _skill$[ebp]
  00a16	8b 4d fc	 mov	 ecx, DWORD PTR _this$[ebp]
  00a19	83 bc 81 40 0d
	00 00 00	 cmp	 DWORD PTR [ecx+eax*4+3392], 0
  00a21	75 12		 jne	 SHORT $LN1@ProcState_@4

; 293  : 	{
; 294  : 		skill = rand() % 9;

  00a23	e8 00 00 00 00	 call	 _rand
  00a28	99		 cdq
  00a29	b9 09 00 00 00	 mov	 ecx, 9
  00a2e	f7 f9		 idiv	 ecx
  00a30	89 55 f8	 mov	 DWORD PTR _skill$[ebp], edx

; 295  : 	}

  00a33	eb de		 jmp	 SHORT $LN2@ProcState_@4
$LN1@ProcState_@4:

; 296  : 	
; 297  : 	this->PatternStateSkillUseProc(skill);

  00a35	8b 45 f8	 mov	 eax, DWORD PTR _skill$[ebp]
  00a38	50		 push	 eax
  00a39	8b 4d fc	 mov	 ecx, DWORD PTR _this$[ebp]
  00a3c	e8 00 00 00 00	 call	 ?PatternStateSkillUseProc@CRaklionBattleOfSelupan@@QAEXH@Z ; CRaklionBattleOfSelupan::PatternStateSkillUseProc

; 298  : }

  00a41	5f		 pop	 edi
  00a42	5e		 pop	 esi
  00a43	5b		 pop	 ebx
  00a44	8b e5		 mov	 esp, ebp
  00a46	5d		 pop	 ebp
  00a47	c3		 ret	 0
?ProcState_PATTERN_4@CRaklionBattleOfSelupan@@QAEXXZ ENDP ; CRaklionBattleOfSelupan::ProcState_PATTERN_4
; Function compile flags: /Odtp /ZI
_skill$ = -8						; size = 4
_this$ = -4						; size = 4
?ProcState_PATTERN_5@CRaklionBattleOfSelupan@@QAEXXZ PROC ; CRaklionBattleOfSelupan::ProcState_PATTERN_5
; _this$ = ecx

; 301  : {

  00a50	55		 push	 ebp
  00a51	8b ec		 mov	 ebp, esp
  00a53	83 ec 48	 sub	 esp, 72			; 00000048H
  00a56	53		 push	 ebx
  00a57	56		 push	 esi
  00a58	57		 push	 edi
  00a59	89 4d fc	 mov	 DWORD PTR _this$[ebp], ecx

; 302  : 	int skill = 0;

  00a5c	c7 45 f8 00 00
	00 00		 mov	 DWORD PTR _skill$[ebp], 0
$LN2@ProcState_@5:

; 303  : 
; 304  : 	while(this->m_PatternSkill[STATE_PATTERN_5].bIsSkillEnabled[skill] == 0)

  00a63	8b 45 f8	 mov	 eax, DWORD PTR _skill$[ebp]
  00a66	8b 4d fc	 mov	 ecx, DWORD PTR _this$[ebp]
  00a69	83 bc 81 64 0d
	00 00 00	 cmp	 DWORD PTR [ecx+eax*4+3428], 0
  00a71	75 12		 jne	 SHORT $LN1@ProcState_@5

; 305  : 	{
; 306  : 		skill = rand() % 9;

  00a73	e8 00 00 00 00	 call	 _rand
  00a78	99		 cdq
  00a79	b9 09 00 00 00	 mov	 ecx, 9
  00a7e	f7 f9		 idiv	 ecx
  00a80	89 55 f8	 mov	 DWORD PTR _skill$[ebp], edx

; 307  : 	}

  00a83	eb de		 jmp	 SHORT $LN2@ProcState_@5
$LN1@ProcState_@5:

; 308  : 	
; 309  : 	this->PatternStateSkillUseProc(skill);

  00a85	8b 45 f8	 mov	 eax, DWORD PTR _skill$[ebp]
  00a88	50		 push	 eax
  00a89	8b 4d fc	 mov	 ecx, DWORD PTR _this$[ebp]
  00a8c	e8 00 00 00 00	 call	 ?PatternStateSkillUseProc@CRaklionBattleOfSelupan@@QAEXH@Z ; CRaklionBattleOfSelupan::PatternStateSkillUseProc

; 310  : }

  00a91	5f		 pop	 edi
  00a92	5e		 pop	 esi
  00a93	5b		 pop	 ebx
  00a94	8b e5		 mov	 esp, ebp
  00a96	5d		 pop	 ebp
  00a97	c3		 ret	 0
?ProcState_PATTERN_5@CRaklionBattleOfSelupan@@QAEXXZ ENDP ; CRaklionBattleOfSelupan::ProcState_PATTERN_5
; Function compile flags: /Odtp /ZI
_skill$ = -8						; size = 4
_this$ = -4						; size = 4
?ProcState_PATTERN_6@CRaklionBattleOfSelupan@@QAEXXZ PROC ; CRaklionBattleOfSelupan::ProcState_PATTERN_6
; _this$ = ecx

; 313  : {

  00aa0	55		 push	 ebp
  00aa1	8b ec		 mov	 ebp, esp
  00aa3	83 ec 48	 sub	 esp, 72			; 00000048H
  00aa6	53		 push	 ebx
  00aa7	56		 push	 esi
  00aa8	57		 push	 edi
  00aa9	89 4d fc	 mov	 DWORD PTR _this$[ebp], ecx

; 314  : 	int skill = 0;

  00aac	c7 45 f8 00 00
	00 00		 mov	 DWORD PTR _skill$[ebp], 0
$LN2@ProcState_@6:

; 315  : 
; 316  : 	while(this->m_PatternSkill[STATE_PATTERN_6].bIsSkillEnabled[skill] == 0)

  00ab3	8b 45 f8	 mov	 eax, DWORD PTR _skill$[ebp]
  00ab6	8b 4d fc	 mov	 ecx, DWORD PTR _this$[ebp]
  00ab9	83 bc 81 88 0d
	00 00 00	 cmp	 DWORD PTR [ecx+eax*4+3464], 0
  00ac1	75 12		 jne	 SHORT $LN1@ProcState_@6

; 317  : 	{
; 318  : 		skill = rand() % 9;

  00ac3	e8 00 00 00 00	 call	 _rand
  00ac8	99		 cdq
  00ac9	b9 09 00 00 00	 mov	 ecx, 9
  00ace	f7 f9		 idiv	 ecx
  00ad0	89 55 f8	 mov	 DWORD PTR _skill$[ebp], edx

; 319  : 	}

  00ad3	eb de		 jmp	 SHORT $LN2@ProcState_@6
$LN1@ProcState_@6:

; 320  : 	
; 321  : 	this->PatternStateSkillUseProc(skill);

  00ad5	8b 45 f8	 mov	 eax, DWORD PTR _skill$[ebp]
  00ad8	50		 push	 eax
  00ad9	8b 4d fc	 mov	 ecx, DWORD PTR _this$[ebp]
  00adc	e8 00 00 00 00	 call	 ?PatternStateSkillUseProc@CRaklionBattleOfSelupan@@QAEXH@Z ; CRaklionBattleOfSelupan::PatternStateSkillUseProc

; 322  : }

  00ae1	5f		 pop	 edi
  00ae2	5e		 pop	 esi
  00ae3	5b		 pop	 ebx
  00ae4	8b e5		 mov	 esp, ebp
  00ae6	5d		 pop	 ebp
  00ae7	c3		 ret	 0
?ProcState_PATTERN_6@CRaklionBattleOfSelupan@@QAEXXZ ENDP ; CRaklionBattleOfSelupan::ProcState_PATTERN_6
; Function compile flags: /Odtp /ZI
_skill$ = -8						; size = 4
_this$ = -4						; size = 4
?ProcState_PATTERN_7@CRaklionBattleOfSelupan@@QAEXXZ PROC ; CRaklionBattleOfSelupan::ProcState_PATTERN_7
; _this$ = ecx

; 325  : {

  00af0	55		 push	 ebp
  00af1	8b ec		 mov	 ebp, esp
  00af3	83 ec 48	 sub	 esp, 72			; 00000048H
  00af6	53		 push	 ebx
  00af7	56		 push	 esi
  00af8	57		 push	 edi
  00af9	89 4d fc	 mov	 DWORD PTR _this$[ebp], ecx

; 326  : 	int skill = 0;

  00afc	c7 45 f8 00 00
	00 00		 mov	 DWORD PTR _skill$[ebp], 0
$LN2@ProcState_@7:

; 327  : 
; 328  : 	while(this->m_PatternSkill[STATE_PATTERN_7].bIsSkillEnabled[skill] == 0)

  00b03	8b 45 f8	 mov	 eax, DWORD PTR _skill$[ebp]
  00b06	8b 4d fc	 mov	 ecx, DWORD PTR _this$[ebp]
  00b09	83 bc 81 ac 0d
	00 00 00	 cmp	 DWORD PTR [ecx+eax*4+3500], 0
  00b11	75 12		 jne	 SHORT $LN1@ProcState_@7

; 329  : 	{
; 330  : 		skill = rand() % 9;

  00b13	e8 00 00 00 00	 call	 _rand
  00b18	99		 cdq
  00b19	b9 09 00 00 00	 mov	 ecx, 9
  00b1e	f7 f9		 idiv	 ecx
  00b20	89 55 f8	 mov	 DWORD PTR _skill$[ebp], edx

; 331  : 	}

  00b23	eb de		 jmp	 SHORT $LN2@ProcState_@7
$LN1@ProcState_@7:

; 332  : 	
; 333  : 	this->PatternStateSkillUseProc(skill);

  00b25	8b 45 f8	 mov	 eax, DWORD PTR _skill$[ebp]
  00b28	50		 push	 eax
  00b29	8b 4d fc	 mov	 ecx, DWORD PTR _this$[ebp]
  00b2c	e8 00 00 00 00	 call	 ?PatternStateSkillUseProc@CRaklionBattleOfSelupan@@QAEXH@Z ; CRaklionBattleOfSelupan::PatternStateSkillUseProc

; 334  : }

  00b31	5f		 pop	 edi
  00b32	5e		 pop	 esi
  00b33	5b		 pop	 ebx
  00b34	8b e5		 mov	 esp, ebp
  00b36	5d		 pop	 ebp
  00b37	c3		 ret	 0
?ProcState_PATTERN_7@CRaklionBattleOfSelupan@@QAEXXZ ENDP ; CRaklionBattleOfSelupan::ProcState_PATTERN_7
; Function compile flags: /Odtp /ZI
_this$ = -4						; size = 4
?ProcState_DIE@CRaklionBattleOfSelupan@@QAEXXZ PROC	; CRaklionBattleOfSelupan::ProcState_DIE
; _this$ = ecx

; 337  : {

  00b40	55		 push	 ebp
  00b41	8b ec		 mov	 ebp, esp
  00b43	83 ec 44	 sub	 esp, 68			; 00000044H
  00b46	53		 push	 ebx
  00b47	56		 push	 esi
  00b48	57		 push	 edi
  00b49	89 4d fc	 mov	 DWORD PTR _this$[ebp], ecx

; 338  : 
; 339  : }

  00b4c	5f		 pop	 edi
  00b4d	5e		 pop	 esi
  00b4e	5b		 pop	 ebx
  00b4f	8b e5		 mov	 esp, ebp
  00b51	5d		 pop	 ebp
  00b52	c3		 ret	 0
?ProcState_DIE@CRaklionBattleOfSelupan@@QAEXXZ ENDP	; CRaklionBattleOfSelupan::ProcState_DIE
_TEXT	ENDS
EXTRN	?GetSelupanSkillDelay@CRaklionSelupan@@QAEHXZ:PROC ; CRaklionSelupan::GetSelupanSkillDelay
EXTRN	?SelupanAct_Invincibility@CRaklionSelupan@@QAEXXZ:PROC ; CRaklionSelupan::SelupanAct_Invincibility
EXTRN	?SelupanAct_Teleport@CRaklionSelupan@@QAEXXZ:PROC ; CRaklionSelupan::SelupanAct_Teleport
EXTRN	?SelupanAct_Freeze@CRaklionSelupan@@QAEXXZ:PROC	; CRaklionSelupan::SelupanAct_Freeze
EXTRN	?SelupanAct_Heal@CRaklionSelupan@@QAEXXZ:PROC	; CRaklionSelupan::SelupanAct_Heal
EXTRN	?SelupanAct_SummonMonster@CRaklionSelupan@@QAEXXZ:PROC ; CRaklionSelupan::SelupanAct_SummonMonster
EXTRN	?SelupanAct_IceStrike@CRaklionSelupan@@QAEXXZ:PROC ; CRaklionSelupan::SelupanAct_IceStrike
EXTRN	?SelupanAct_IceStorm@CRaklionSelupan@@QAEXXZ:PROC ; CRaklionSelupan::SelupanAct_IceStorm
EXTRN	?SelupanAct_PoisonAttack@CRaklionSelupan@@QAEXXZ:PROC ; CRaklionSelupan::SelupanAct_PoisonAttack
EXTRN	?SelupanAct_FirstSkill@CRaklionSelupan@@QAEXXZ:PROC ; CRaklionSelupan::SelupanAct_FirstSkill
EXTRN	?GetSelupanObjIndex@CRaklionSelupan@@QAEHXZ:PROC ; CRaklionSelupan::GetSelupanObjIndex
; Function compile flags: /Odtp /ZI
_TEXT	SEGMENT
tv79 = -80						; size = 4
_lpObj$ = -12						; size = 4
_iSelupanIndex$ = -8					; size = 4
_this$ = -4						; size = 4
_SkillIndex$ = 8					; size = 4
?PatternStateSkillUseProc@CRaklionBattleOfSelupan@@QAEXH@Z PROC ; CRaklionBattleOfSelupan::PatternStateSkillUseProc
; _this$ = ecx

; 342  : {

  00b60	55		 push	 ebp
  00b61	8b ec		 mov	 ebp, esp
  00b63	83 ec 50	 sub	 esp, 80			; 00000050H
  00b66	53		 push	 ebx
  00b67	56		 push	 esi
  00b68	57		 push	 edi
  00b69	89 4d fc	 mov	 DWORD PTR _this$[ebp], ecx

; 343  : 	int iSelupanIndex = this->m_RaklionSelupan.GetSelupanObjIndex();

  00b6c	8b 4d fc	 mov	 ecx, DWORD PTR _this$[ebp]
  00b6f	83 c1 34	 add	 ecx, 52			; 00000034H
  00b72	e8 00 00 00 00	 call	 ?GetSelupanObjIndex@CRaklionSelupan@@QAEHXZ ; CRaklionSelupan::GetSelupanObjIndex
  00b77	89 45 f8	 mov	 DWORD PTR _iSelupanIndex$[ebp], eax

; 344  : 
; 345  : 	LPOBJ lpObj = &gObj[iSelupanIndex];

  00b7a	8b 45 f8	 mov	 eax, DWORD PTR _iSelupanIndex$[ebp]
  00b7d	69 c0 38 2b 00
	00		 imul	 eax, 11064		; 00002b38H
  00b83	03 05 00 00 00
	00		 add	 eax, DWORD PTR ?gObj@@3PAUOBJECTSTRUCT@@A ; gObj
  00b89	89 45 f4	 mov	 DWORD PTR _lpObj$[ebp], eax

; 346  : 
; 347  : 	if ( lpObj->Teleport != 0 || lpObj->m_ActState.Move != FALSE )

  00b8c	8b 45 f4	 mov	 eax, DWORD PTR _lpObj$[ebp]
  00b8f	0f be 88 a0 03
	00 00		 movsx	 ecx, BYTE PTR [eax+928]
  00b96	85 c9		 test	 ecx, ecx
  00b98	75 11		 jne	 SHORT $LN14@PatternSta
  00b9a	8b 45 f4	 mov	 eax, DWORD PTR _lpObj$[ebp]
  00b9d	8b 88 18 02 00
	00		 mov	 ecx, DWORD PTR [eax+536]
  00ba3	c1 e9 02	 shr	 ecx, 2
  00ba6	83 e1 01	 and	 ecx, 1
  00ba9	74 05		 je	 SHORT $LN15@PatternSta
$LN14@PatternSta:

; 348  : 	{
; 349  : 		return;

  00bab	e9 b7 00 00 00	 jmp	 $LN16@PatternSta
$LN15@PatternSta:

; 350  : 	}
; 351  : 
; 352  : 	if ( SkillIndex < 0 || SkillIndex >= 9)

  00bb0	83 7d 08 00	 cmp	 DWORD PTR _SkillIndex$[ebp], 0
  00bb4	7c 06		 jl	 SHORT $LN12@PatternSta
  00bb6	83 7d 08 09	 cmp	 DWORD PTR _SkillIndex$[ebp], 9
  00bba	7c 05		 jl	 SHORT $LN13@PatternSta
$LN12@PatternSta:

; 353  : 	{
; 354  : 		return;

  00bbc	e9 a6 00 00 00	 jmp	 $LN16@PatternSta
$LN13@PatternSta:

; 355  : 	}
; 356  : 
; 357  : 	switch ( SkillIndex )

  00bc1	8b 45 08	 mov	 eax, DWORD PTR _SkillIndex$[ebp]
  00bc4	89 45 b0	 mov	 DWORD PTR tv79[ebp], eax
  00bc7	83 7d b0 08	 cmp	 DWORD PTR tv79[ebp], 8
  00bcb	77 7d		 ja	 SHORT $LN10@PatternSta
  00bcd	8b 4d b0	 mov	 ecx, DWORD PTR tv79[ebp]
  00bd0	ff 24 8d 00 00
	00 00		 jmp	 DWORD PTR $LN18@PatternSta[ecx*4]
$LN9@PatternSta:

; 358  : 	{
; 359  : 	case SKILL_FIRSTSKILL:		this->m_RaklionSelupan.SelupanAct_FirstSkill();		break;

  00bd7	8b 4d fc	 mov	 ecx, DWORD PTR _this$[ebp]
  00bda	83 c1 34	 add	 ecx, 52			; 00000034H
  00bdd	e8 00 00 00 00	 call	 ?SelupanAct_FirstSkill@CRaklionSelupan@@QAEXXZ ; CRaklionSelupan::SelupanAct_FirstSkill
  00be2	eb 66		 jmp	 SHORT $LN10@PatternSta
$LN8@PatternSta:

; 360  : 	case SKILL_POISON_ATTACK:	this->m_RaklionSelupan.SelupanAct_PoisonAttack();	break;

  00be4	8b 4d fc	 mov	 ecx, DWORD PTR _this$[ebp]
  00be7	83 c1 34	 add	 ecx, 52			; 00000034H
  00bea	e8 00 00 00 00	 call	 ?SelupanAct_PoisonAttack@CRaklionSelupan@@QAEXXZ ; CRaklionSelupan::SelupanAct_PoisonAttack
  00bef	eb 59		 jmp	 SHORT $LN10@PatternSta
$LN7@PatternSta:

; 361  : 	case SKILL_ICESTORM:		this->m_RaklionSelupan.SelupanAct_IceStorm();		break;

  00bf1	8b 4d fc	 mov	 ecx, DWORD PTR _this$[ebp]
  00bf4	83 c1 34	 add	 ecx, 52			; 00000034H
  00bf7	e8 00 00 00 00	 call	 ?SelupanAct_IceStorm@CRaklionSelupan@@QAEXXZ ; CRaklionSelupan::SelupanAct_IceStorm
  00bfc	eb 4c		 jmp	 SHORT $LN10@PatternSta
$LN6@PatternSta:

; 362  : 	case SKILL_ICESTRIKE:		this->m_RaklionSelupan.SelupanAct_IceStrike();		break;

  00bfe	8b 4d fc	 mov	 ecx, DWORD PTR _this$[ebp]
  00c01	83 c1 34	 add	 ecx, 52			; 00000034H
  00c04	e8 00 00 00 00	 call	 ?SelupanAct_IceStrike@CRaklionSelupan@@QAEXXZ ; CRaklionSelupan::SelupanAct_IceStrike
  00c09	eb 3f		 jmp	 SHORT $LN10@PatternSta
$LN5@PatternSta:

; 363  : 	case SKILL_SUMMON:			this->m_RaklionSelupan.SelupanAct_SummonMonster();	break;

  00c0b	8b 4d fc	 mov	 ecx, DWORD PTR _this$[ebp]
  00c0e	83 c1 34	 add	 ecx, 52			; 00000034H
  00c11	e8 00 00 00 00	 call	 ?SelupanAct_SummonMonster@CRaklionSelupan@@QAEXXZ ; CRaklionSelupan::SelupanAct_SummonMonster
  00c16	eb 32		 jmp	 SHORT $LN10@PatternSta
$LN4@PatternSta:

; 364  : 	case SKILL_HEAL:			this->m_RaklionSelupan.SelupanAct_Heal();			break;

  00c18	8b 4d fc	 mov	 ecx, DWORD PTR _this$[ebp]
  00c1b	83 c1 34	 add	 ecx, 52			; 00000034H
  00c1e	e8 00 00 00 00	 call	 ?SelupanAct_Heal@CRaklionSelupan@@QAEXXZ ; CRaklionSelupan::SelupanAct_Heal
  00c23	eb 25		 jmp	 SHORT $LN10@PatternSta
$LN3@PatternSta:

; 365  : 	case SKILL_FREEZE:			this->m_RaklionSelupan.SelupanAct_Freeze();			break;

  00c25	8b 4d fc	 mov	 ecx, DWORD PTR _this$[ebp]
  00c28	83 c1 34	 add	 ecx, 52			; 00000034H
  00c2b	e8 00 00 00 00	 call	 ?SelupanAct_Freeze@CRaklionSelupan@@QAEXXZ ; CRaklionSelupan::SelupanAct_Freeze
  00c30	eb 18		 jmp	 SHORT $LN10@PatternSta
$LN2@PatternSta:

; 366  : 	case SKILL_TELEPORT:		this->m_RaklionSelupan.SelupanAct_Teleport();		break;

  00c32	8b 4d fc	 mov	 ecx, DWORD PTR _this$[ebp]
  00c35	83 c1 34	 add	 ecx, 52			; 00000034H
  00c38	e8 00 00 00 00	 call	 ?SelupanAct_Teleport@CRaklionSelupan@@QAEXXZ ; CRaklionSelupan::SelupanAct_Teleport
  00c3d	eb 0b		 jmp	 SHORT $LN10@PatternSta
$LN1@PatternSta:

; 367  : 	case SKILL_INVINCIBILITY:	this->m_RaklionSelupan.SelupanAct_Invincibility();	break;

  00c3f	8b 4d fc	 mov	 ecx, DWORD PTR _this$[ebp]
  00c42	83 c1 34	 add	 ecx, 52			; 00000034H
  00c45	e8 00 00 00 00	 call	 ?SelupanAct_Invincibility@CRaklionSelupan@@QAEXXZ ; CRaklionSelupan::SelupanAct_Invincibility
$LN10@PatternSta:

; 368  : 	}
; 369  : 	
; 370  : 	this->m_dwSkillDelayTick	= GetTickCount();

  00c4a	ff 15 00 00 00
	00		 call	 DWORD PTR __imp__GetTickCount@0
  00c50	8b 4d fc	 mov	 ecx, DWORD PTR _this$[ebp]
  00c53	89 41 28	 mov	 DWORD PTR [ecx+40], eax

; 371  : 	this->m_dwSkillDelay		= this->m_RaklionSelupan.GetSelupanSkillDelay();

  00c56	8b 4d fc	 mov	 ecx, DWORD PTR _this$[ebp]
  00c59	83 c1 34	 add	 ecx, 52			; 00000034H
  00c5c	e8 00 00 00 00	 call	 ?GetSelupanSkillDelay@CRaklionSelupan@@QAEHXZ ; CRaklionSelupan::GetSelupanSkillDelay
  00c61	8b 4d fc	 mov	 ecx, DWORD PTR _this$[ebp]
  00c64	89 41 24	 mov	 DWORD PTR [ecx+36], eax
$LN16@PatternSta:

; 372  : }

  00c67	5f		 pop	 edi
  00c68	5e		 pop	 esi
  00c69	5b		 pop	 ebx
  00c6a	8b e5		 mov	 esp, ebp
  00c6c	5d		 pop	 ebp
  00c6d	c2 04 00	 ret	 4
$LN18@PatternSta:
  00c70	00 00 00 00	 DD	 $LN9@PatternSta
  00c74	00 00 00 00	 DD	 $LN8@PatternSta
  00c78	00 00 00 00	 DD	 $LN7@PatternSta
  00c7c	00 00 00 00	 DD	 $LN6@PatternSta
  00c80	00 00 00 00	 DD	 $LN5@PatternSta
  00c84	00 00 00 00	 DD	 $LN4@PatternSta
  00c88	00 00 00 00	 DD	 $LN3@PatternSta
  00c8c	00 00 00 00	 DD	 $LN2@PatternSta
  00c90	00 00 00 00	 DD	 $LN1@PatternSta
?PatternStateSkillUseProc@CRaklionBattleOfSelupan@@QAEXH@Z ENDP ; CRaklionBattleOfSelupan::PatternStateSkillUseProc
_TEXT	ENDS
PUBLIC	??_C@_0EF@LJPNAIFB@?$FLRAKLION?$FN?$FLSetPatternCondition?$FN?5e@ ; `string'
PUBLIC	?SetPatternCondition@CRaklionBattleOfSelupan@@QAEXHH@Z ; CRaklionBattleOfSelupan::SetPatternCondition
;	COMDAT ??_C@_0EF@LJPNAIFB@?$FLRAKLION?$FN?$FLSetPatternCondition?$FN?5e@
CONST	SEGMENT
??_C@_0EF@LJPNAIFB@?$FLRAKLION?$FN?$FLSetPatternCondition?$FN?5e@ DB '[RA'
	DB	'KLION][SetPatternCondition] error : PatternNum(%d), Condition'
	DB	'(%d)', 00H					; `string'
; Function compile flags: /Odtp /ZI
CONST	ENDS
_TEXT	SEGMENT
_this$ = -4						; size = 4
_iPattern$ = 8						; size = 4
_iCondition$ = 12					; size = 4
?SetPatternCondition@CRaklionBattleOfSelupan@@QAEXHH@Z PROC ; CRaklionBattleOfSelupan::SetPatternCondition
; _this$ = ecx

; 375  : {

  00ca0	55		 push	 ebp
  00ca1	8b ec		 mov	 ebp, esp
  00ca3	83 ec 44	 sub	 esp, 68			; 00000044H
  00ca6	53		 push	 ebx
  00ca7	56		 push	 esi
  00ca8	57		 push	 edi
  00ca9	89 4d fc	 mov	 DWORD PTR _this$[ebp], ecx

; 376  : 	if ( iPattern < 0 || iCondition < 0 )

  00cac	83 7d 08 00	 cmp	 DWORD PTR _iPattern$[ebp], 0
  00cb0	7c 06		 jl	 SHORT $LN1@SetPattern
  00cb2	83 7d 0c 00	 cmp	 DWORD PTR _iCondition$[ebp], 0
  00cb6	7d 18		 jge	 SHORT $LN2@SetPattern
$LN1@SetPattern:

; 377  : 	{
; 378  : 		LogAddC(2,"[RAKLION][SetPatternCondition] error : PatternNum(%d), Condition(%d)",iPattern,iCondition);

  00cb8	8b 45 0c	 mov	 eax, DWORD PTR _iCondition$[ebp]
  00cbb	50		 push	 eax
  00cbc	8b 4d 08	 mov	 ecx, DWORD PTR _iPattern$[ebp]
  00cbf	51		 push	 ecx
  00cc0	68 00 00 00 00	 push	 OFFSET ??_C@_0EF@LJPNAIFB@?$FLRAKLION?$FN?$FLSetPatternCondition?$FN?5e@
  00cc5	6a 02		 push	 2
  00cc7	ff 15 00 00 00
	00		 call	 DWORD PTR ?LogAddC@@3P6AXEPADZZA ; LogAddC
  00ccd	83 c4 10	 add	 esp, 16			; 00000010H
$LN2@SetPattern:

; 379  : 	}
; 380  : 
; 381  : 	this->m_PatternCondition[iPattern] = iCondition;

  00cd0	8b 45 08	 mov	 eax, DWORD PTR _iPattern$[ebp]
  00cd3	8b 4d fc	 mov	 ecx, DWORD PTR _this$[ebp]
  00cd6	8b 55 0c	 mov	 edx, DWORD PTR _iCondition$[ebp]
  00cd9	89 54 81 0c	 mov	 DWORD PTR [ecx+eax*4+12], edx

; 382  : }

  00cdd	5f		 pop	 edi
  00cde	5e		 pop	 esi
  00cdf	5b		 pop	 ebx
  00ce0	8b e5		 mov	 esp, ebp
  00ce2	5d		 pop	 ebp
  00ce3	c2 08 00	 ret	 8
?SetPatternCondition@CRaklionBattleOfSelupan@@QAEXHH@Z ENDP ; CRaklionBattleOfSelupan::SetPatternCondition
_TEXT	ENDS
PUBLIC	??_C@_0DM@PLDDFBE@?$FLRAKLION?$FN?5SelupanLifePercent?5err@ ; `string'
PUBLIC	??_C@_0DI@MFMEMJKM@?$FLRAKLION?$FN?5SelupanMAXLife?5error?5?3@ ; `string'
PUBLIC	?SelupanLifeCheck@CRaklionBattleOfSelupan@@QAEXXZ ; CRaklionBattleOfSelupan::SelupanLifeCheck
EXTRN	__fltused:DWORD
EXTRN	__ftol2_sse:PROC
;	COMDAT ??_C@_0DM@PLDDFBE@?$FLRAKLION?$FN?5SelupanLifePercent?5err@
CONST	SEGMENT
??_C@_0DM@PLDDFBE@?$FLRAKLION?$FN?5SelupanLifePercent?5err@ DB '[RAKLION]'
	DB	' SelupanLifePercent error : Index(%d), MaxLife(%d)', 00H ; `string'
CONST	ENDS
;	COMDAT ??_C@_0DI@MFMEMJKM@?$FLRAKLION?$FN?5SelupanMAXLife?5error?5?3@
CONST	SEGMENT
??_C@_0DI@MFMEMJKM@?$FLRAKLION?$FN?5SelupanMAXLife?5error?5?3@ DB '[RAKLI'
	DB	'ON] SelupanMAXLife error : Index(%d), MaxLife(%d)', 00H ; `string'
; Function compile flags: /Odtp /ZI
CONST	ENDS
_TEXT	SEGMENT
_lpObj$ = -20						; size = 4
_Percent$ = -16						; size = 4
_MaxLife$ = -12						; size = 4
_aIndex$ = -8						; size = 4
_this$ = -4						; size = 4
?SelupanLifeCheck@CRaklionBattleOfSelupan@@QAEXXZ PROC	; CRaklionBattleOfSelupan::SelupanLifeCheck
; _this$ = ecx

; 385  : {

  00cf0	55		 push	 ebp
  00cf1	8b ec		 mov	 ebp, esp
  00cf3	83 ec 54	 sub	 esp, 84			; 00000054H
  00cf6	53		 push	 ebx
  00cf7	56		 push	 esi
  00cf8	57		 push	 edi
  00cf9	89 4d fc	 mov	 DWORD PTR _this$[ebp], ecx

; 386  : 	int aIndex = 0;

  00cfc	c7 45 f8 00 00
	00 00		 mov	 DWORD PTR _aIndex$[ebp], 0

; 387  : 	int MaxLife = 0;

  00d03	c7 45 f4 00 00
	00 00		 mov	 DWORD PTR _MaxLife$[ebp], 0

; 388  : 	int Percent = 0;

  00d0a	c7 45 f0 00 00
	00 00		 mov	 DWORD PTR _Percent$[ebp], 0

; 389  : 	LPOBJ lpObj = 0;

  00d11	c7 45 ec 00 00
	00 00		 mov	 DWORD PTR _lpObj$[ebp], 0

; 390  : 
; 391  : 	aIndex = this->m_RaklionSelupan.GetSelupanObjIndex();

  00d18	8b 4d fc	 mov	 ecx, DWORD PTR _this$[ebp]
  00d1b	83 c1 34	 add	 ecx, 52			; 00000034H
  00d1e	e8 00 00 00 00	 call	 ?GetSelupanObjIndex@CRaklionSelupan@@QAEHXZ ; CRaklionSelupan::GetSelupanObjIndex
  00d23	89 45 f8	 mov	 DWORD PTR _aIndex$[ebp], eax

; 392  : 	
; 393  : 	lpObj = &gObj[aIndex];

  00d26	8b 45 f8	 mov	 eax, DWORD PTR _aIndex$[ebp]
  00d29	69 c0 38 2b 00
	00		 imul	 eax, 11064		; 00002b38H
  00d2f	03 05 00 00 00
	00		 add	 eax, DWORD PTR ?gObj@@3PAUOBJECTSTRUCT@@A ; gObj
  00d35	89 45 ec	 mov	 DWORD PTR _lpObj$[ebp], eax

; 394  : 	
; 395  : 	if ( lpObj->DieRegen != 0)

  00d38	8b 45 ec	 mov	 eax, DWORD PTR _lpObj$[ebp]
  00d3b	0f be 88 a2 03
	00 00		 movsx	 ecx, BYTE PTR [eax+930]
  00d42	85 c9		 test	 ecx, ecx
  00d44	74 05		 je	 SHORT $LN24@SelupanLif

; 396  : 	{
; 397  : 		return;

  00d46	e9 aa 01 00 00	 jmp	 $LN25@SelupanLif
$LN24@SelupanLif:

; 398  : 	}
; 399  : 
; 400  : 	MaxLife = (int)(lpObj->AddLife + lpObj->MaxLife);

  00d4b	8b 45 ec	 mov	 eax, DWORD PTR _lpObj$[ebp]
  00d4e	db 80 4c 01 00
	00		 fild	 DWORD PTR [eax+332]
  00d54	8b 4d ec	 mov	 ecx, DWORD PTR _lpObj$[ebp]
  00d57	d8 81 00 01 00
	00		 fadd	 DWORD PTR [ecx+256]
  00d5d	e8 00 00 00 00	 call	 __ftol2_sse
  00d62	89 45 f4	 mov	 DWORD PTR _MaxLife$[ebp], eax

; 401  : 	
; 402  : 	if (MaxLife <= 0)

  00d65	83 7d f4 00	 cmp	 DWORD PTR _MaxLife$[ebp], 0
  00d69	7f 2a		 jg	 SHORT $LN23@SelupanLif

; 403  : 	{
; 404  : 		LogAddC(2,"[RAKLION] SelupanMAXLife error : Index(%d), MaxLife(%d)",lpObj->m_Index,lpObj->MaxLife);

  00d6b	8b 45 ec	 mov	 eax, DWORD PTR _lpObj$[ebp]
  00d6e	d9 80 00 01 00
	00		 fld	 DWORD PTR [eax+256]
  00d74	83 ec 08	 sub	 esp, 8
  00d77	dd 1c 24	 fstp	 QWORD PTR [esp]
  00d7a	8b 4d ec	 mov	 ecx, DWORD PTR _lpObj$[ebp]
  00d7d	8b 11		 mov	 edx, DWORD PTR [ecx]
  00d7f	52		 push	 edx
  00d80	68 00 00 00 00	 push	 OFFSET ??_C@_0DI@MFMEMJKM@?$FLRAKLION?$FN?5SelupanMAXLife?5error?5?3@
  00d85	6a 02		 push	 2
  00d87	ff 15 00 00 00
	00		 call	 DWORD PTR ?LogAddC@@3P6AXEPADZZA ; LogAddC
  00d8d	83 c4 14	 add	 esp, 20			; 00000014H

; 405  : 		return;

  00d90	e9 60 01 00 00	 jmp	 $LN25@SelupanLif
$LN23@SelupanLif:

; 406  : 	}	
; 407  : 
; 408  : 	Percent = this->m_RaklionSelupan.GetSelupanLife() * 100 / MaxLife;

  00d95	8b 4d fc	 mov	 ecx, DWORD PTR _this$[ebp]
  00d98	83 c1 34	 add	 ecx, 52			; 00000034H
  00d9b	e8 00 00 00 00	 call	 ?GetSelupanLife@CRaklionSelupan@@QAEKXZ ; CRaklionSelupan::GetSelupanLife
  00da0	6b c0 64	 imul	 eax, 100		; 00000064H
  00da3	33 d2		 xor	 edx, edx
  00da5	f7 75 f4	 div	 DWORD PTR _MaxLife$[ebp]
  00da8	89 45 f0	 mov	 DWORD PTR _Percent$[ebp], eax

; 409  : 	
; 410  : 	if ( Percent < 0 )

  00dab	83 7d f0 00	 cmp	 DWORD PTR _Percent$[ebp], 0
  00daf	7d 1f		 jge	 SHORT $LN22@SelupanLif

; 411  : 	{
; 412  : 		LogAddC(2,"[RAKLION] SelupanLifePercent error : Index(%d), MaxLife(%d)",lpObj->m_Index,Percent);

  00db1	8b 45 f0	 mov	 eax, DWORD PTR _Percent$[ebp]
  00db4	50		 push	 eax
  00db5	8b 4d ec	 mov	 ecx, DWORD PTR _lpObj$[ebp]
  00db8	8b 11		 mov	 edx, DWORD PTR [ecx]
  00dba	52		 push	 edx
  00dbb	68 00 00 00 00	 push	 OFFSET ??_C@_0DM@PLDDFBE@?$FLRAKLION?$FN?5SelupanLifePercent?5err@
  00dc0	6a 02		 push	 2
  00dc2	ff 15 00 00 00
	00		 call	 DWORD PTR ?LogAddC@@3P6AXEPADZZA ; LogAddC
  00dc8	83 c4 10	 add	 esp, 16			; 00000010H

; 413  : 		return;

  00dcb	e9 25 01 00 00	 jmp	 $LN25@SelupanLif
$LN22@SelupanLif:

; 414  : 	}
; 415  : 	
; 416  : 	if ( this->m_bIsUseFirstSkill == FALSE )

  00dd0	8b 45 fc	 mov	 eax, DWORD PTR _this$[ebp]
  00dd3	83 78 2c 00	 cmp	 DWORD PTR [eax+44], 0
  00dd7	75 19		 jne	 SHORT $LN21@SelupanLif

; 417  :     {
; 418  : 		this->PatternStateSkillUseProc(SKILL_FIRSTSKILL);

  00dd9	6a 00		 push	 0
  00ddb	8b 4d fc	 mov	 ecx, DWORD PTR _this$[ebp]
  00dde	e8 00 00 00 00	 call	 ?PatternStateSkillUseProc@CRaklionBattleOfSelupan@@QAEXH@Z ; CRaklionBattleOfSelupan::PatternStateSkillUseProc

; 419  : 		this->m_bIsUseFirstSkill = 1;

  00de3	8b 45 fc	 mov	 eax, DWORD PTR _this$[ebp]
  00de6	c7 40 2c 01 00
	00 00		 mov	 DWORD PTR [eax+44], 1

; 420  : 		return;

  00ded	e9 03 01 00 00	 jmp	 $LN25@SelupanLif
$LN21@SelupanLif:

; 421  : 	}
; 422  : 	
; 423  : 	if ( Percent > this->m_PatternCondition[0] )

  00df2	8b 45 fc	 mov	 eax, DWORD PTR _this$[ebp]
  00df5	8b 4d f0	 mov	 ecx, DWORD PTR _Percent$[ebp]
  00df8	3b 48 0c	 cmp	 ecx, DWORD PTR [eax+12]
  00dfb	7e 1c		 jle	 SHORT $LN20@SelupanLif

; 424  : 	{
; 425  : 		if(this->GetBattleOfSelupanState() != SELUPAN_STATE_PATTERN_1)

  00dfd	8b 4d fc	 mov	 ecx, DWORD PTR _this$[ebp]
  00e00	e8 00 00 00 00	 call	 ?GetBattleOfSelupanState@CRaklionBattleOfSelupan@@QAEHXZ ; CRaklionBattleOfSelupan::GetBattleOfSelupanState
  00e05	83 f8 02	 cmp	 eax, 2
  00e08	74 0a		 je	 SHORT $LN19@SelupanLif

; 426  : 		{
; 427  : 			this->SetState(SELUPAN_STATE_PATTERN_1);

  00e0a	6a 02		 push	 2
  00e0c	8b 4d fc	 mov	 ecx, DWORD PTR _this$[ebp]
  00e0f	e8 00 00 00 00	 call	 ?SetState@CRaklionBattleOfSelupan@@QAEXH@Z ; CRaklionBattleOfSelupan::SetState
$LN19@SelupanLif:

; 428  : 		}
; 429  : 	}

  00e14	e9 dc 00 00 00	 jmp	 $LN1@SelupanLif
$LN20@SelupanLif:

; 430  : 	else if ( Percent > this->m_PatternCondition[1] )

  00e19	8b 45 fc	 mov	 eax, DWORD PTR _this$[ebp]
  00e1c	8b 4d f0	 mov	 ecx, DWORD PTR _Percent$[ebp]
  00e1f	3b 48 10	 cmp	 ecx, DWORD PTR [eax+16]
  00e22	7e 1c		 jle	 SHORT $LN17@SelupanLif

; 431  : 	{
; 432  : 		if ( this->GetBattleOfSelupanState() != SELUPAN_STATE_PATTERN_2 )

  00e24	8b 4d fc	 mov	 ecx, DWORD PTR _this$[ebp]
  00e27	e8 00 00 00 00	 call	 ?GetBattleOfSelupanState@CRaklionBattleOfSelupan@@QAEHXZ ; CRaklionBattleOfSelupan::GetBattleOfSelupanState
  00e2c	83 f8 03	 cmp	 eax, 3
  00e2f	74 0a		 je	 SHORT $LN16@SelupanLif

; 433  : 		{
; 434  : 			this->SetState(SELUPAN_STATE_PATTERN_2);

  00e31	6a 03		 push	 3
  00e33	8b 4d fc	 mov	 ecx, DWORD PTR _this$[ebp]
  00e36	e8 00 00 00 00	 call	 ?SetState@CRaklionBattleOfSelupan@@QAEXH@Z ; CRaklionBattleOfSelupan::SetState
$LN16@SelupanLif:

; 435  : 		}
; 436  : 	}

  00e3b	e9 b5 00 00 00	 jmp	 $LN1@SelupanLif
$LN17@SelupanLif:

; 437  : 	else if ( Percent > this->m_PatternCondition[2] )

  00e40	8b 45 fc	 mov	 eax, DWORD PTR _this$[ebp]
  00e43	8b 4d f0	 mov	 ecx, DWORD PTR _Percent$[ebp]
  00e46	3b 48 14	 cmp	 ecx, DWORD PTR [eax+20]
  00e49	7e 1c		 jle	 SHORT $LN14@SelupanLif

; 438  : 	{
; 439  : 		if ( this->GetBattleOfSelupanState() != SELUPAN_STATE_PATTERN_3 )

  00e4b	8b 4d fc	 mov	 ecx, DWORD PTR _this$[ebp]
  00e4e	e8 00 00 00 00	 call	 ?GetBattleOfSelupanState@CRaklionBattleOfSelupan@@QAEHXZ ; CRaklionBattleOfSelupan::GetBattleOfSelupanState
  00e53	83 f8 04	 cmp	 eax, 4
  00e56	74 0a		 je	 SHORT $LN13@SelupanLif

; 440  : 		{
; 441  : 			this->SetState(SELUPAN_STATE_PATTERN_3);

  00e58	6a 04		 push	 4
  00e5a	8b 4d fc	 mov	 ecx, DWORD PTR _this$[ebp]
  00e5d	e8 00 00 00 00	 call	 ?SetState@CRaklionBattleOfSelupan@@QAEXH@Z ; CRaklionBattleOfSelupan::SetState
$LN13@SelupanLif:

; 442  : 		}
; 443  : 	}

  00e62	e9 8e 00 00 00	 jmp	 $LN1@SelupanLif
$LN14@SelupanLif:

; 444  : 	else if ( Percent > this->m_PatternCondition[3] )

  00e67	8b 45 fc	 mov	 eax, DWORD PTR _this$[ebp]
  00e6a	8b 4d f0	 mov	 ecx, DWORD PTR _Percent$[ebp]
  00e6d	3b 48 18	 cmp	 ecx, DWORD PTR [eax+24]
  00e70	7e 19		 jle	 SHORT $LN11@SelupanLif

; 445  : 	{
; 446  : 		if ( this->GetBattleOfSelupanState() != SELUPAN_STATE_PATTERN_4 )

  00e72	8b 4d fc	 mov	 ecx, DWORD PTR _this$[ebp]
  00e75	e8 00 00 00 00	 call	 ?GetBattleOfSelupanState@CRaklionBattleOfSelupan@@QAEHXZ ; CRaklionBattleOfSelupan::GetBattleOfSelupanState
  00e7a	83 f8 05	 cmp	 eax, 5
  00e7d	74 0a		 je	 SHORT $LN10@SelupanLif

; 447  : 		{
; 448  : 			this->SetState(SELUPAN_STATE_PATTERN_4);

  00e7f	6a 05		 push	 5
  00e81	8b 4d fc	 mov	 ecx, DWORD PTR _this$[ebp]
  00e84	e8 00 00 00 00	 call	 ?SetState@CRaklionBattleOfSelupan@@QAEXH@Z ; CRaklionBattleOfSelupan::SetState
$LN10@SelupanLif:

; 449  : 		}
; 450  : 	}

  00e89	eb 6a		 jmp	 SHORT $LN1@SelupanLif
$LN11@SelupanLif:

; 451  : 	else if ( Percent > this->m_PatternCondition[4] )

  00e8b	8b 45 fc	 mov	 eax, DWORD PTR _this$[ebp]
  00e8e	8b 4d f0	 mov	 ecx, DWORD PTR _Percent$[ebp]
  00e91	3b 48 1c	 cmp	 ecx, DWORD PTR [eax+28]
  00e94	7e 19		 jle	 SHORT $LN8@SelupanLif

; 452  : 	{
; 453  : 		if ( this->GetBattleOfSelupanState() != SELUPAN_STATE_PATTERN_5 )

  00e96	8b 4d fc	 mov	 ecx, DWORD PTR _this$[ebp]
  00e99	e8 00 00 00 00	 call	 ?GetBattleOfSelupanState@CRaklionBattleOfSelupan@@QAEHXZ ; CRaklionBattleOfSelupan::GetBattleOfSelupanState
  00e9e	83 f8 06	 cmp	 eax, 6
  00ea1	74 0a		 je	 SHORT $LN7@SelupanLif

; 454  : 		{
; 455  : 			this->SetState(SELUPAN_STATE_PATTERN_5);

  00ea3	6a 06		 push	 6
  00ea5	8b 4d fc	 mov	 ecx, DWORD PTR _this$[ebp]
  00ea8	e8 00 00 00 00	 call	 ?SetState@CRaklionBattleOfSelupan@@QAEXH@Z ; CRaklionBattleOfSelupan::SetState
$LN7@SelupanLif:

; 456  : 		}
; 457  : 	}

  00ead	eb 46		 jmp	 SHORT $LN1@SelupanLif
$LN8@SelupanLif:

; 458  : 	else if ( Percent > this->m_PatternCondition[5] )

  00eaf	8b 45 fc	 mov	 eax, DWORD PTR _this$[ebp]
  00eb2	8b 4d f0	 mov	 ecx, DWORD PTR _Percent$[ebp]
  00eb5	3b 48 20	 cmp	 ecx, DWORD PTR [eax+32]
  00eb8	7e 19		 jle	 SHORT $LN5@SelupanLif

; 459  : 	{
; 460  : 		if ( this->GetBattleOfSelupanState() != SELUPAN_STATE_PATTERN_6 )

  00eba	8b 4d fc	 mov	 ecx, DWORD PTR _this$[ebp]
  00ebd	e8 00 00 00 00	 call	 ?GetBattleOfSelupanState@CRaklionBattleOfSelupan@@QAEHXZ ; CRaklionBattleOfSelupan::GetBattleOfSelupanState
  00ec2	83 f8 07	 cmp	 eax, 7
  00ec5	74 0a		 je	 SHORT $LN4@SelupanLif

; 461  : 		{
; 462  : 			this->SetState(SELUPAN_STATE_PATTERN_6);

  00ec7	6a 07		 push	 7
  00ec9	8b 4d fc	 mov	 ecx, DWORD PTR _this$[ebp]
  00ecc	e8 00 00 00 00	 call	 ?SetState@CRaklionBattleOfSelupan@@QAEXH@Z ; CRaklionBattleOfSelupan::SetState
$LN4@SelupanLif:

; 463  : 		}
; 464  : 	}

  00ed1	eb 22		 jmp	 SHORT $LN1@SelupanLif
$LN5@SelupanLif:

; 465  : 	else if ( Percent <= this->m_PatternCondition[5] )

  00ed3	8b 45 fc	 mov	 eax, DWORD PTR _this$[ebp]
  00ed6	8b 4d f0	 mov	 ecx, DWORD PTR _Percent$[ebp]
  00ed9	3b 48 20	 cmp	 ecx, DWORD PTR [eax+32]
  00edc	7f 17		 jg	 SHORT $LN1@SelupanLif

; 466  : 	{
; 467  : 		if ( this->GetBattleOfSelupanState() != SELUPAN_STATE_PATTERN_7 )

  00ede	8b 4d fc	 mov	 ecx, DWORD PTR _this$[ebp]
  00ee1	e8 00 00 00 00	 call	 ?GetBattleOfSelupanState@CRaklionBattleOfSelupan@@QAEHXZ ; CRaklionBattleOfSelupan::GetBattleOfSelupanState
  00ee6	83 f8 08	 cmp	 eax, 8
  00ee9	74 0a		 je	 SHORT $LN1@SelupanLif

; 468  : 		{
; 469  : 			this->SetState(SELUPAN_STATE_PATTERN_7);

  00eeb	6a 08		 push	 8
  00eed	8b 4d fc	 mov	 ecx, DWORD PTR _this$[ebp]
  00ef0	e8 00 00 00 00	 call	 ?SetState@CRaklionBattleOfSelupan@@QAEXH@Z ; CRaklionBattleOfSelupan::SetState
$LN1@SelupanLif:
$LN25@SelupanLif:

; 470  : 		}
; 471  : 	}
; 472  : }

  00ef5	5f		 pop	 edi
  00ef6	5e		 pop	 esi
  00ef7	5b		 pop	 ebx
  00ef8	8b e5		 mov	 esp, ebp
  00efa	5d		 pop	 ebp
  00efb	c3		 ret	 0
?SelupanLifeCheck@CRaklionBattleOfSelupan@@QAEXXZ ENDP	; CRaklionBattleOfSelupan::SelupanLifeCheck
_TEXT	ENDS
PUBLIC	?GetBattleUserCount@CRaklionBattleOfSelupan@@QAEHXZ ; CRaklionBattleOfSelupan::GetBattleUserCount
; Function compile flags: /Odtp /ZI
_TEXT	SEGMENT
_this$ = -4						; size = 4
?GetBattleUserCount@CRaklionBattleOfSelupan@@QAEHXZ PROC ; CRaklionBattleOfSelupan::GetBattleUserCount
; _this$ = ecx

; 475  : {

  00f00	55		 push	 ebp
  00f01	8b ec		 mov	 ebp, esp
  00f03	83 ec 44	 sub	 esp, 68			; 00000044H
  00f06	53		 push	 ebx
  00f07	56		 push	 esi
  00f08	57		 push	 edi
  00f09	89 4d fc	 mov	 DWORD PTR _this$[ebp], ecx

; 476  : 	return g_RaklionBattleUserMng.GetBattleUserCount();

  00f0c	b9 00 00 00 00	 mov	 ecx, OFFSET ?g_RaklionBattleUserMng@@3VCRaklionBattleUserMng@@A ; g_RaklionBattleUserMng
  00f11	e8 00 00 00 00	 call	 ?GetBattleUserCount@CRaklionBattleUserMng@@QAEHXZ ; CRaklionBattleUserMng::GetBattleUserCount

; 477  : }

  00f16	5f		 pop	 edi
  00f17	5e		 pop	 esi
  00f18	5b		 pop	 ebx
  00f19	8b e5		 mov	 esp, ebp
  00f1b	5d		 pop	 ebp
  00f1c	c3		 ret	 0
?GetBattleUserCount@CRaklionBattleOfSelupan@@QAEHXZ ENDP ; CRaklionBattleOfSelupan::GetBattleUserCount
_TEXT	ENDS
PUBLIC	?CreateSelupan@CRaklionBattleOfSelupan@@QAEXXZ	; CRaklionBattleOfSelupan::CreateSelupan
; Function compile flags: /Odtp /ZI
_TEXT	SEGMENT
_this$ = -4						; size = 4
?CreateSelupan@CRaklionBattleOfSelupan@@QAEXXZ PROC	; CRaklionBattleOfSelupan::CreateSelupan
; _this$ = ecx

; 480  : {

  00f20	55		 push	 ebp
  00f21	8b ec		 mov	 ebp, esp
  00f23	83 ec 44	 sub	 esp, 68			; 00000044H
  00f26	53		 push	 ebx
  00f27	56		 push	 esi
  00f28	57		 push	 edi
  00f29	89 4d fc	 mov	 DWORD PTR _this$[ebp], ecx

; 481  : 	this->m_RaklionSelupan.CreateSelupan();

  00f2c	8b 4d fc	 mov	 ecx, DWORD PTR _this$[ebp]
  00f2f	83 c1 34	 add	 ecx, 52			; 00000034H
  00f32	e8 00 00 00 00	 call	 ?CreateSelupan@CRaklionSelupan@@QAEHXZ ; CRaklionSelupan::CreateSelupan

; 482  : }

  00f37	5f		 pop	 edi
  00f38	5e		 pop	 esi
  00f39	5b		 pop	 ebx
  00f3a	8b e5		 mov	 esp, ebp
  00f3c	5d		 pop	 ebp
  00f3d	c3		 ret	 0
?CreateSelupan@CRaklionBattleOfSelupan@@QAEXXZ ENDP	; CRaklionBattleOfSelupan::CreateSelupan
_TEXT	ENDS
PUBLIC	?DeleteSelupan@CRaklionBattleOfSelupan@@QAEXXZ	; CRaklionBattleOfSelupan::DeleteSelupan
EXTRN	?DeleteSelupan@CRaklionSelupan@@QAEXXZ:PROC	; CRaklionSelupan::DeleteSelupan
; Function compile flags: /Odtp /ZI
_TEXT	SEGMENT
_this$ = -4						; size = 4
?DeleteSelupan@CRaklionBattleOfSelupan@@QAEXXZ PROC	; CRaklionBattleOfSelupan::DeleteSelupan
; _this$ = ecx

; 485  : {

  00f40	55		 push	 ebp
  00f41	8b ec		 mov	 ebp, esp
  00f43	83 ec 44	 sub	 esp, 68			; 00000044H
  00f46	53		 push	 ebx
  00f47	56		 push	 esi
  00f48	57		 push	 edi
  00f49	89 4d fc	 mov	 DWORD PTR _this$[ebp], ecx

; 486  : 	this->m_RaklionSelupan.DeleteSelupan();

  00f4c	8b 4d fc	 mov	 ecx, DWORD PTR _this$[ebp]
  00f4f	83 c1 34	 add	 ecx, 52			; 00000034H
  00f52	e8 00 00 00 00	 call	 ?DeleteSelupan@CRaklionSelupan@@QAEXXZ ; CRaklionSelupan::DeleteSelupan

; 487  : }

  00f57	5f		 pop	 edi
  00f58	5e		 pop	 esi
  00f59	5b		 pop	 ebx
  00f5a	8b e5		 mov	 esp, ebp
  00f5c	5d		 pop	 ebp
  00f5d	c3		 ret	 0
?DeleteSelupan@CRaklionBattleOfSelupan@@QAEXXZ ENDP	; CRaklionBattleOfSelupan::DeleteSelupan
_TEXT	ENDS
PUBLIC	?GetSelupanObjIndex@CRaklionBattleOfSelupan@@QAEHXZ ; CRaklionBattleOfSelupan::GetSelupanObjIndex
; Function compile flags: /Odtp /ZI
_TEXT	SEGMENT
_this$ = -4						; size = 4
?GetSelupanObjIndex@CRaklionBattleOfSelupan@@QAEHXZ PROC ; CRaklionBattleOfSelupan::GetSelupanObjIndex
; _this$ = ecx

; 490  : {

  00f60	55		 push	 ebp
  00f61	8b ec		 mov	 ebp, esp
  00f63	83 ec 44	 sub	 esp, 68			; 00000044H
  00f66	53		 push	 ebx
  00f67	56		 push	 esi
  00f68	57		 push	 edi
  00f69	89 4d fc	 mov	 DWORD PTR _this$[ebp], ecx

; 491  : 	return this->m_RaklionSelupan.GetSelupanObjIndex();

  00f6c	8b 4d fc	 mov	 ecx, DWORD PTR _this$[ebp]
  00f6f	83 c1 34	 add	 ecx, 52			; 00000034H
  00f72	e8 00 00 00 00	 call	 ?GetSelupanObjIndex@CRaklionSelupan@@QAEHXZ ; CRaklionSelupan::GetSelupanObjIndex

; 492  : }

  00f77	5f		 pop	 edi
  00f78	5e		 pop	 esi
  00f79	5b		 pop	 ebx
  00f7a	8b e5		 mov	 esp, ebp
  00f7c	5d		 pop	 ebp
  00f7d	c3		 ret	 0
?GetSelupanObjIndex@CRaklionBattleOfSelupan@@QAEHXZ ENDP ; CRaklionBattleOfSelupan::GetSelupanObjIndex
_TEXT	ENDS
EXTRN	?DeleteSummonMonster@CRaklionSelupan@@QAEXXZ:PROC ; CRaklionSelupan::DeleteSummonMonster
; Function compile flags: /Odtp /ZI
_TEXT	SEGMENT
_this$ = -4						; size = 4
?DeleteSummonMonster@CRaklionBattleOfSelupan@@QAEXXZ PROC ; CRaklionBattleOfSelupan::DeleteSummonMonster
; _this$ = ecx

; 495  : {

  00f80	55		 push	 ebp
  00f81	8b ec		 mov	 ebp, esp
  00f83	83 ec 44	 sub	 esp, 68			; 00000044H
  00f86	53		 push	 ebx
  00f87	56		 push	 esi
  00f88	57		 push	 edi
  00f89	89 4d fc	 mov	 DWORD PTR _this$[ebp], ecx

; 496  : 	this->m_RaklionSelupan.DeleteSummonMonster();

  00f8c	8b 4d fc	 mov	 ecx, DWORD PTR _this$[ebp]
  00f8f	83 c1 34	 add	 ecx, 52			; 00000034H
  00f92	e8 00 00 00 00	 call	 ?DeleteSummonMonster@CRaklionSelupan@@QAEXXZ ; CRaklionSelupan::DeleteSummonMonster

; 497  : }

  00f97	5f		 pop	 edi
  00f98	5e		 pop	 esi
  00f99	5b		 pop	 ebx
  00f9a	8b e5		 mov	 esp, ebp
  00f9c	5d		 pop	 ebp
  00f9d	c3		 ret	 0
?DeleteSummonMonster@CRaklionBattleOfSelupan@@QAEXXZ ENDP ; CRaklionBattleOfSelupan::DeleteSummonMonster
_TEXT	ENDS
PUBLIC	?SetSelupanSkillDelay@CRaklionBattleOfSelupan@@QAEXH@Z ; CRaklionBattleOfSelupan::SetSelupanSkillDelay
EXTRN	?SetSelupanSkillDelay@CRaklionSelupan@@QAEXH@Z:PROC ; CRaklionSelupan::SetSelupanSkillDelay
; Function compile flags: /Odtp /ZI
_TEXT	SEGMENT
_this$ = -4						; size = 4
_SkillDelay$ = 8					; size = 4
?SetSelupanSkillDelay@CRaklionBattleOfSelupan@@QAEXH@Z PROC ; CRaklionBattleOfSelupan::SetSelupanSkillDelay
; _this$ = ecx

; 500  : {

  00fa0	55		 push	 ebp
  00fa1	8b ec		 mov	 ebp, esp
  00fa3	83 ec 44	 sub	 esp, 68			; 00000044H
  00fa6	53		 push	 ebx
  00fa7	56		 push	 esi
  00fa8	57		 push	 edi
  00fa9	89 4d fc	 mov	 DWORD PTR _this$[ebp], ecx

; 501  : 	this->m_RaklionSelupan.SetSelupanSkillDelay(SkillDelay);

  00fac	8b 45 08	 mov	 eax, DWORD PTR _SkillDelay$[ebp]
  00faf	50		 push	 eax
  00fb0	8b 4d fc	 mov	 ecx, DWORD PTR _this$[ebp]
  00fb3	83 c1 34	 add	 ecx, 52			; 00000034H
  00fb6	e8 00 00 00 00	 call	 ?SetSelupanSkillDelay@CRaklionSelupan@@QAEXH@Z ; CRaklionSelupan::SetSelupanSkillDelay

; 502  : }

  00fbb	5f		 pop	 edi
  00fbc	5e		 pop	 esi
  00fbd	5b		 pop	 ebx
  00fbe	8b e5		 mov	 esp, ebp
  00fc0	5d		 pop	 ebp
  00fc1	c2 04 00	 ret	 4
?SetSelupanSkillDelay@CRaklionBattleOfSelupan@@QAEXH@Z ENDP ; CRaklionBattleOfSelupan::SetSelupanSkillDelay
_TEXT	ENDS
PUBLIC	??_C@_0EA@NKBJDPKP@?$FLRAKLION?$FN?5?$FLGmCommandSelupanPatte@ ; `string'
PUBLIC	?GmCommandSelupanPattern@CRaklionBattleOfSelupan@@QAEXH@Z ; CRaklionBattleOfSelupan::GmCommandSelupanPattern
EXTRN	?SetSelupanLife@CRaklionSelupan@@QAEXH@Z:PROC	; CRaklionSelupan::SetSelupanLife
;	COMDAT ??_C@_0EA@NKBJDPKP@?$FLRAKLION?$FN?5?$FLGmCommandSelupanPatte@
CONST	SEGMENT
??_C@_0EA@NKBJDPKP@?$FLRAKLION?$FN?5?$FLGmCommandSelupanPatte@ DB '[RAKLI'
	DB	'ON] [GmCommandSelupanPattern] Invalid pattern number : %d', 00H ; `string'
; Function compile flags: /Odtp /ZI
CONST	ENDS
_TEXT	SEGMENT
tv69 = -72						; size = 4
_this$ = -4						; size = 4
_StatePattern$ = 8					; size = 4
?GmCommandSelupanPattern@CRaklionBattleOfSelupan@@QAEXH@Z PROC ; CRaklionBattleOfSelupan::GmCommandSelupanPattern
; _this$ = ecx

; 505  : {

  00fd0	55		 push	 ebp
  00fd1	8b ec		 mov	 ebp, esp
  00fd3	83 ec 48	 sub	 esp, 72			; 00000048H
  00fd6	53		 push	 ebx
  00fd7	56		 push	 esi
  00fd8	57		 push	 edi
  00fd9	89 4d fc	 mov	 DWORD PTR _this$[ebp], ecx

; 506  : 	if ( StatePattern < 2 || StatePattern > 8)

  00fdc	83 7d 08 02	 cmp	 DWORD PTR _StatePattern$[ebp], 2
  00fe0	7c 06		 jl	 SHORT $LN10@GmCommandS
  00fe2	83 7d 08 08	 cmp	 DWORD PTR _StatePattern$[ebp], 8
  00fe6	7e 19		 jle	 SHORT $LN11@GmCommandS
$LN10@GmCommandS:

; 507  : 	{
; 508  : 		LogAddC(2,"[RAKLION] [GmCommandSelupanPattern] Invalid pattern number : %d",StatePattern);

  00fe8	8b 45 08	 mov	 eax, DWORD PTR _StatePattern$[ebp]
  00feb	50		 push	 eax
  00fec	68 00 00 00 00	 push	 OFFSET ??_C@_0EA@NKBJDPKP@?$FLRAKLION?$FN?5?$FLGmCommandSelupanPatte@
  00ff1	6a 02		 push	 2
  00ff3	ff 15 00 00 00
	00		 call	 DWORD PTR ?LogAddC@@3P6AXEPADZZA ; LogAddC
  00ff9	83 c4 0c	 add	 esp, 12			; 0000000cH

; 509  : 		return;

  00ffc	e9 86 00 00 00	 jmp	 $LN12@GmCommandS
$LN11@GmCommandS:

; 510  : 	}
; 511  : 	
; 512  : 	switch(StatePattern)

  01001	8b 45 08	 mov	 eax, DWORD PTR _StatePattern$[ebp]
  01004	89 45 b8	 mov	 DWORD PTR tv69[ebp], eax
  01007	8b 4d b8	 mov	 ecx, DWORD PTR tv69[ebp]
  0100a	83 e9 02	 sub	 ecx, 2
  0100d	89 4d b8	 mov	 DWORD PTR tv69[ebp], ecx
  01010	83 7d b8 06	 cmp	 DWORD PTR tv69[ebp], 6
  01014	77 71		 ja	 SHORT $LN12@GmCommandS
  01016	8b 55 b8	 mov	 edx, DWORD PTR tv69[ebp]
  01019	ff 24 95 00 00
	00 00		 jmp	 DWORD PTR $LN14@GmCommandS[edx*4]
$LN7@GmCommandS:

; 513  : 	{
; 514  : 	case 2: this->m_RaklionSelupan.SetSelupanLife(100);	break;

  01020	6a 64		 push	 100			; 00000064H
  01022	8b 4d fc	 mov	 ecx, DWORD PTR _this$[ebp]
  01025	83 c1 34	 add	 ecx, 52			; 00000034H
  01028	e8 00 00 00 00	 call	 ?SetSelupanLife@CRaklionSelupan@@QAEXH@Z ; CRaklionSelupan::SetSelupanLife
  0102d	eb 58		 jmp	 SHORT $LN12@GmCommandS
$LN6@GmCommandS:

; 515  : 	case 3: this->m_RaklionSelupan.SetSelupanLife(80);	break;

  0102f	6a 50		 push	 80			; 00000050H
  01031	8b 4d fc	 mov	 ecx, DWORD PTR _this$[ebp]
  01034	83 c1 34	 add	 ecx, 52			; 00000034H
  01037	e8 00 00 00 00	 call	 ?SetSelupanLife@CRaklionSelupan@@QAEXH@Z ; CRaklionSelupan::SetSelupanLife
  0103c	eb 49		 jmp	 SHORT $LN12@GmCommandS
$LN5@GmCommandS:

; 516  : 	case 4:	this->m_RaklionSelupan.SetSelupanLife(60);	break;

  0103e	6a 3c		 push	 60			; 0000003cH
  01040	8b 4d fc	 mov	 ecx, DWORD PTR _this$[ebp]
  01043	83 c1 34	 add	 ecx, 52			; 00000034H
  01046	e8 00 00 00 00	 call	 ?SetSelupanLife@CRaklionSelupan@@QAEXH@Z ; CRaklionSelupan::SetSelupanLife
  0104b	eb 3a		 jmp	 SHORT $LN12@GmCommandS
$LN4@GmCommandS:

; 517  : 	case 5:	this->m_RaklionSelupan.SetSelupanLife(50);	break;

  0104d	6a 32		 push	 50			; 00000032H
  0104f	8b 4d fc	 mov	 ecx, DWORD PTR _this$[ebp]
  01052	83 c1 34	 add	 ecx, 52			; 00000034H
  01055	e8 00 00 00 00	 call	 ?SetSelupanLife@CRaklionSelupan@@QAEXH@Z ; CRaklionSelupan::SetSelupanLife
  0105a	eb 2b		 jmp	 SHORT $LN12@GmCommandS
$LN3@GmCommandS:

; 518  : 	case 6:	this->m_RaklionSelupan.SetSelupanLife(40);	break;

  0105c	6a 28		 push	 40			; 00000028H
  0105e	8b 4d fc	 mov	 ecx, DWORD PTR _this$[ebp]
  01061	83 c1 34	 add	 ecx, 52			; 00000034H
  01064	e8 00 00 00 00	 call	 ?SetSelupanLife@CRaklionSelupan@@QAEXH@Z ; CRaklionSelupan::SetSelupanLife
  01069	eb 1c		 jmp	 SHORT $LN12@GmCommandS
$LN2@GmCommandS:

; 519  : 	case 7:	this->m_RaklionSelupan.SetSelupanLife(20);	break;

  0106b	6a 14		 push	 20			; 00000014H
  0106d	8b 4d fc	 mov	 ecx, DWORD PTR _this$[ebp]
  01070	83 c1 34	 add	 ecx, 52			; 00000034H
  01073	e8 00 00 00 00	 call	 ?SetSelupanLife@CRaklionSelupan@@QAEXH@Z ; CRaklionSelupan::SetSelupanLife
  01078	eb 0d		 jmp	 SHORT $LN12@GmCommandS
$LN1@GmCommandS:

; 520  : 	case 8:	this->m_RaklionSelupan.SetSelupanLife(10);	break;

  0107a	6a 0a		 push	 10			; 0000000aH
  0107c	8b 4d fc	 mov	 ecx, DWORD PTR _this$[ebp]
  0107f	83 c1 34	 add	 ecx, 52			; 00000034H
  01082	e8 00 00 00 00	 call	 ?SetSelupanLife@CRaklionSelupan@@QAEXH@Z ; CRaklionSelupan::SetSelupanLife
$LN12@GmCommandS:

; 521  : 	}
; 522  : }

  01087	5f		 pop	 edi
  01088	5e		 pop	 esi
  01089	5b		 pop	 ebx
  0108a	8b e5		 mov	 esp, ebp
  0108c	5d		 pop	 ebp
  0108d	c2 04 00	 ret	 4
$LN14@GmCommandS:
  01090	00 00 00 00	 DD	 $LN7@GmCommandS
  01094	00 00 00 00	 DD	 $LN6@GmCommandS
  01098	00 00 00 00	 DD	 $LN5@GmCommandS
  0109c	00 00 00 00	 DD	 $LN4@GmCommandS
  010a0	00 00 00 00	 DD	 $LN3@GmCommandS
  010a4	00 00 00 00	 DD	 $LN2@GmCommandS
  010a8	00 00 00 00	 DD	 $LN1@GmCommandS
?GmCommandSelupanPattern@CRaklionBattleOfSelupan@@QAEXH@Z ENDP ; CRaklionBattleOfSelupan::GmCommandSelupanPattern
_TEXT	ENDS
END
