; Listing generated by Microsoft (R) Optimizing Compiler Version 16.00.40219.01 

	TITLE	D:\Projects\ExTeam6.3\Source\GameServer\GameServer\RaklionSelupan.cpp
	.686P
	.XMM
	include listing.inc
	.model	flat

INCLUDELIB LIBCMT
INCLUDELIB OLDNAMES

_DATA	SEGMENT
_g_iNpcUpDfLevel_CGATE DD 01H
	DD	02H
	DD	02dc6c0H
	DD	02H
	DD	03H
	DD	02dc6c0H
	DD	03H
	DD	04H
	DD	02dc6c0H
_g_iNpcUpDfLevel_CSTATUE DD 01H
	DD	03H
	DD	02dc6c0H
	DD	02H
	DD	05H
	DD	02dc6c0H
	DD	03H
	DD	07H
	DD	02dc6c0H
_g_iNpcUpMaxHP_CGATE DD 02625a0H
	DD	02H
	DD	0f4240H
	DD	03567e0H
	DD	03H
	DD	0f4240H
	DD	04f5880H
	DD	04H
	DD	0f4240H
_g_iNpcUpMaxHP_CSTATUE DD 02191c0H
	DD	03H
	DD	0f4240H
	DD	033e140H
	DD	05H
	DD	0f4240H
	DD	04c4b40H
	DD	07H
	DD	0f4240H
_g_iNpcUpRgLevel_CSTATUE DD 01H
	DD	03H
	DD	04c4b40H
	DD	02H
	DD	05H
	DD	04c4b40H
	DD	03H
	DD	07H
	DD	04c4b40H
_g_iCsUserReSpawnArea DD 023H
	DD	011H
	DD	090H
	DD	030H
	DD	04aH
	DD	090H
	DD	073H
	DD	09aH
	DD	023H
	DD	011H
	DD	090H
	DD	030H
_g_iNpcDefense_CGATE DD 064H
	DD	0b4H
	DD	012cH
	DD	0208H
_g_iNpcDefense_CSTATUE DD 050H
	DD	0b4H
	DD	0154H
	DD	0226H
_g_iCastleWallStepAxisY DD 071H
	DD	0a0H
	DD	0cbH
_DATA	ENDS
PUBLIC	??_H@YGXPAXIHP6EPAX0@Z@Z			; `vector constructor iterator'
; Function compile flags: /Odtp /ZI
;	COMDAT ??_H@YGXPAXIHP6EPAX0@Z@Z
_TEXT	SEGMENT
___t$ = 8						; size = 4
___s$ = 12						; size = 4
___n$ = 16						; size = 4
___f$ = 20						; size = 4
??_H@YGXPAXIHP6EPAX0@Z@Z PROC				; `vector constructor iterator', COMDAT
  00000	55		 push	 ebp
  00001	8b ec		 mov	 ebp, esp
  00003	83 ec 40	 sub	 esp, 64			; 00000040H
  00006	53		 push	 ebx
  00007	56		 push	 esi
  00008	57		 push	 edi
$LN2@vector:
  00009	8b 45 10	 mov	 eax, DWORD PTR ___n$[ebp]
  0000c	83 e8 01	 sub	 eax, 1
  0000f	89 45 10	 mov	 DWORD PTR ___n$[ebp], eax
  00012	78 11		 js	 SHORT $LN3@vector
  00014	8b 4d 08	 mov	 ecx, DWORD PTR ___t$[ebp]
  00017	ff 55 14	 call	 DWORD PTR ___f$[ebp]
  0001a	8b 45 08	 mov	 eax, DWORD PTR ___t$[ebp]
  0001d	03 45 0c	 add	 eax, DWORD PTR ___s$[ebp]
  00020	89 45 08	 mov	 DWORD PTR ___t$[ebp], eax
  00023	eb e4		 jmp	 SHORT $LN2@vector
$LN3@vector:
  00025	5f		 pop	 edi
  00026	5e		 pop	 esi
  00027	5b		 pop	 ebx
  00028	8b e5		 mov	 esp, ebp
  0002a	5d		 pop	 ebp
  0002b	c2 10 00	 ret	 16			; 00000010H
??_H@YGXPAXIHP6EPAX0@Z@Z ENDP				; `vector constructor iterator'
_TEXT	ENDS
PUBLIC	??1CRaklionObjInfo@@UAE@XZ			; CRaklionObjInfo::~CRaklionObjInfo
PUBLIC	?ClearData@CRaklionSelupan@@QAEXXZ		; CRaklionSelupan::ClearData
PUBLIC	??0CRaklionObjInfo@@QAE@XZ			; CRaklionObjInfo::CRaklionObjInfo
PUBLIC	??_7CRaklionSelupan@@6B@			; CRaklionSelupan::`vftable'
PUBLIC	??0CRaklionSelupan@@QAE@XZ			; CRaklionSelupan::CRaklionSelupan
PUBLIC	??_R4CRaklionSelupan@@6B@			; CRaklionSelupan::`RTTI Complete Object Locator'
PUBLIC	??_R0?AVCRaklionSelupan@@@8			; CRaklionSelupan `RTTI Type Descriptor'
PUBLIC	??_R3CRaklionSelupan@@8				; CRaklionSelupan::`RTTI Class Hierarchy Descriptor'
PUBLIC	??_R2CRaklionSelupan@@8				; CRaklionSelupan::`RTTI Base Class Array'
PUBLIC	??_R1A@?0A@EA@CRaklionSelupan@@8		; CRaklionSelupan::`RTTI Base Class Descriptor at (0,-1,0,64)'
EXTRN	___security_cookie:DWORD
EXTRN	___CxxFrameHandler3:PROC
EXTRN	@__security_check_cookie@4:PROC
EXTRN	??_7type_info@@6B@:QWORD			; type_info::`vftable'
EXTRN	??_ECRaklionSelupan@@UAEPAXI@Z:PROC		; CRaklionSelupan::`vector deleting destructor'
;	COMDAT ??_R1A@?0A@EA@CRaklionSelupan@@8
; File d:\projects\exteam6.3\source\gameserver\gameserver\raklionselupan.cpp
rdata$r	SEGMENT
??_R1A@?0A@EA@CRaklionSelupan@@8 DD FLAT:??_R0?AVCRaklionSelupan@@@8 ; CRaklionSelupan::`RTTI Base Class Descriptor at (0,-1,0,64)'
	DD	00H
	DD	00H
	DD	0ffffffffH
	DD	00H
	DD	040H
	DD	FLAT:??_R3CRaklionSelupan@@8
rdata$r	ENDS
;	COMDAT ??_R2CRaklionSelupan@@8
rdata$r	SEGMENT
??_R2CRaklionSelupan@@8 DD FLAT:??_R1A@?0A@EA@CRaklionSelupan@@8 ; CRaklionSelupan::`RTTI Base Class Array'
rdata$r	ENDS
;	COMDAT ??_R3CRaklionSelupan@@8
rdata$r	SEGMENT
??_R3CRaklionSelupan@@8 DD 00H				; CRaklionSelupan::`RTTI Class Hierarchy Descriptor'
	DD	00H
	DD	01H
	DD	FLAT:??_R2CRaklionSelupan@@8
rdata$r	ENDS
;	COMDAT ??_R0?AVCRaklionSelupan@@@8
_DATA	SEGMENT
??_R0?AVCRaklionSelupan@@@8 DD FLAT:??_7type_info@@6B@	; CRaklionSelupan `RTTI Type Descriptor'
	DD	00H
	DB	'.?AVCRaklionSelupan@@', 00H
_DATA	ENDS
;	COMDAT ??_R4CRaklionSelupan@@6B@
rdata$r	SEGMENT
??_R4CRaklionSelupan@@6B@ DD 00H			; CRaklionSelupan::`RTTI Complete Object Locator'
	DD	00H
	DD	00H
	DD	FLAT:??_R0?AVCRaklionSelupan@@@8
	DD	FLAT:??_R3CRaklionSelupan@@8
rdata$r	ENDS
;	COMDAT ??_7CRaklionSelupan@@6B@
CONST	SEGMENT
??_7CRaklionSelupan@@6B@ DD FLAT:??_R4CRaklionSelupan@@6B@ ; CRaklionSelupan::`vftable'
	DD	FLAT:??_ECRaklionSelupan@@UAEPAXI@Z
CONST	ENDS
xdata$x	SEGMENT
__unwindtable$??0CRaklionSelupan@@QAE@XZ DD 0ffffffffH
	DD	FLAT:__unwindfunclet$??0CRaklionSelupan@@QAE@XZ$0
__ehfuncinfo$??0CRaklionSelupan@@QAE@XZ DD 019930522H
	DD	01H
	DD	FLAT:__unwindtable$??0CRaklionSelupan@@QAE@XZ
	DD	2 DUP(00H)
	DD	2 DUP(00H)
	DD	00H
	DD	01H
; Function compile flags: /Odtp /ZI
xdata$x	ENDS
_TEXT	SEGMENT
_this$ = -16						; size = 4
__$EHRec$ = -12						; size = 12
??0CRaklionSelupan@@QAE@XZ PROC				; CRaklionSelupan::CRaklionSelupan
; _this$ = ecx

; 18   : {

  00000	55		 push	 ebp
  00001	8b ec		 mov	 ebp, esp
  00003	6a ff		 push	 -1
  00005	68 00 00 00 00	 push	 __ehhandler$??0CRaklionSelupan@@QAE@XZ
  0000a	64 a1 00 00 00
	00		 mov	 eax, DWORD PTR fs:0
  00010	50		 push	 eax
  00011	83 ec 44	 sub	 esp, 68			; 00000044H
  00014	53		 push	 ebx
  00015	56		 push	 esi
  00016	57		 push	 edi
  00017	a1 00 00 00 00	 mov	 eax, DWORD PTR ___security_cookie
  0001c	33 c5		 xor	 eax, ebp
  0001e	50		 push	 eax
  0001f	8d 45 f4	 lea	 eax, DWORD PTR __$EHRec$[ebp]
  00022	64 a3 00 00 00
	00		 mov	 DWORD PTR fs:0, eax
  00028	89 4d f0	 mov	 DWORD PTR _this$[ebp], ecx
  0002b	8b 45 f0	 mov	 eax, DWORD PTR _this$[ebp]
  0002e	c7 00 00 00 00
	00		 mov	 DWORD PTR [eax], OFFSET ??_7CRaklionSelupan@@6B@
  00034	8b 4d f0	 mov	 ecx, DWORD PTR _this$[ebp]
  00037	83 c1 08	 add	 ecx, 8
  0003a	e8 00 00 00 00	 call	 ??0CRaklionObjInfo@@QAE@XZ ; CRaklionObjInfo::CRaklionObjInfo
  0003f	c7 45 fc 00 00
	00 00		 mov	 DWORD PTR __$EHRec$[ebp+8], 0

; 19   : 	this->ClearData();

  00046	8b 4d f0	 mov	 ecx, DWORD PTR _this$[ebp]
  00049	e8 00 00 00 00	 call	 ?ClearData@CRaklionSelupan@@QAEXXZ ; CRaklionSelupan::ClearData

; 20   : }

  0004e	c7 45 fc ff ff
	ff ff		 mov	 DWORD PTR __$EHRec$[ebp+8], -1
  00055	8b 45 f0	 mov	 eax, DWORD PTR _this$[ebp]
  00058	8b 4d f4	 mov	 ecx, DWORD PTR __$EHRec$[ebp]
  0005b	64 89 0d 00 00
	00 00		 mov	 DWORD PTR fs:0, ecx
  00062	59		 pop	 ecx
  00063	5f		 pop	 edi
  00064	5e		 pop	 esi
  00065	5b		 pop	 ebx
  00066	8b e5		 mov	 esp, ebp
  00068	5d		 pop	 ebp
  00069	c3		 ret	 0
_TEXT	ENDS
text$x	SEGMENT
__unwindfunclet$??0CRaklionSelupan@@QAE@XZ$0:
  00000	8b 4d f0	 mov	 ecx, DWORD PTR _this$[ebp]
  00003	83 c1 08	 add	 ecx, 8
  00006	e9 00 00 00 00	 jmp	 ??1CRaklionObjInfo@@UAE@XZ ; CRaklionObjInfo::~CRaklionObjInfo
__ehhandler$??0CRaklionSelupan@@QAE@XZ:
  0000b	8b 54 24 08	 mov	 edx, DWORD PTR [esp+8]
  0000f	8d 42 0c	 lea	 eax, DWORD PTR [edx+12]
  00012	8b 4a ac	 mov	 ecx, DWORD PTR [edx-84]
  00015	33 c8		 xor	 ecx, eax
  00017	e8 00 00 00 00	 call	 @__security_check_cookie@4
  0001c	b8 00 00 00 00	 mov	 eax, OFFSET __ehfuncinfo$??0CRaklionSelupan@@QAE@XZ
  00021	e9 00 00 00 00	 jmp	 ___CxxFrameHandler3
text$x	ENDS
??0CRaklionSelupan@@QAE@XZ ENDP				; CRaklionSelupan::CRaklionSelupan
PUBLIC	?Reset@CRaklionObjInfo@@QAEXXZ			; CRaklionObjInfo::Reset
PUBLIC	??_7CRaklionObjInfo@@6B@			; CRaklionObjInfo::`vftable'
PUBLIC	??_R4CRaklionObjInfo@@6B@			; CRaklionObjInfo::`RTTI Complete Object Locator'
PUBLIC	??_R0?AVCRaklionObjInfo@@@8			; CRaklionObjInfo `RTTI Type Descriptor'
PUBLIC	??_R3CRaklionObjInfo@@8				; CRaklionObjInfo::`RTTI Class Hierarchy Descriptor'
PUBLIC	??_R2CRaklionObjInfo@@8				; CRaklionObjInfo::`RTTI Base Class Array'
PUBLIC	??_R1A@?0A@EA@CRaklionObjInfo@@8		; CRaklionObjInfo::`RTTI Base Class Descriptor at (0,-1,0,64)'
EXTRN	??_ECRaklionObjInfo@@UAEPAXI@Z:PROC		; CRaklionObjInfo::`vector deleting destructor'
;	COMDAT ??_R1A@?0A@EA@CRaklionObjInfo@@8
; File d:\projects\exteam6.3\source\gameserver\gameserver\raklionobjinfo.h
rdata$r	SEGMENT
??_R1A@?0A@EA@CRaklionObjInfo@@8 DD FLAT:??_R0?AVCRaklionObjInfo@@@8 ; CRaklionObjInfo::`RTTI Base Class Descriptor at (0,-1,0,64)'
	DD	00H
	DD	00H
	DD	0ffffffffH
	DD	00H
	DD	040H
	DD	FLAT:??_R3CRaklionObjInfo@@8
rdata$r	ENDS
;	COMDAT ??_R2CRaklionObjInfo@@8
rdata$r	SEGMENT
??_R2CRaklionObjInfo@@8 DD FLAT:??_R1A@?0A@EA@CRaklionObjInfo@@8 ; CRaklionObjInfo::`RTTI Base Class Array'
rdata$r	ENDS
;	COMDAT ??_R3CRaklionObjInfo@@8
rdata$r	SEGMENT
??_R3CRaklionObjInfo@@8 DD 00H				; CRaklionObjInfo::`RTTI Class Hierarchy Descriptor'
	DD	00H
	DD	01H
	DD	FLAT:??_R2CRaklionObjInfo@@8
rdata$r	ENDS
;	COMDAT ??_R0?AVCRaklionObjInfo@@@8
_DATA	SEGMENT
??_R0?AVCRaklionObjInfo@@@8 DD FLAT:??_7type_info@@6B@	; CRaklionObjInfo `RTTI Type Descriptor'
	DD	00H
	DB	'.?AVCRaklionObjInfo@@', 00H
_DATA	ENDS
;	COMDAT ??_R4CRaklionObjInfo@@6B@
rdata$r	SEGMENT
??_R4CRaklionObjInfo@@6B@ DD 00H			; CRaklionObjInfo::`RTTI Complete Object Locator'
	DD	00H
	DD	00H
	DD	FLAT:??_R0?AVCRaklionObjInfo@@@8
	DD	FLAT:??_R3CRaklionObjInfo@@8
rdata$r	ENDS
;	COMDAT ??_7CRaklionObjInfo@@6B@
CONST	SEGMENT
??_7CRaklionObjInfo@@6B@ DD FLAT:??_R4CRaklionObjInfo@@6B@ ; CRaklionObjInfo::`vftable'
	DD	FLAT:??_ECRaklionObjInfo@@UAEPAXI@Z
; Function compile flags: /Odtp /ZI
CONST	ENDS
;	COMDAT ??0CRaklionObjInfo@@QAE@XZ
_TEXT	SEGMENT
_this$ = -4						; size = 4
??0CRaklionObjInfo@@QAE@XZ PROC				; CRaklionObjInfo::CRaklionObjInfo, COMDAT
; _this$ = ecx

; 15   : 	CRaklionObjInfo() { this->Reset(); }

  00000	55		 push	 ebp
  00001	8b ec		 mov	 ebp, esp
  00003	83 ec 44	 sub	 esp, 68			; 00000044H
  00006	53		 push	 ebx
  00007	56		 push	 esi
  00008	57		 push	 edi
  00009	89 4d fc	 mov	 DWORD PTR _this$[ebp], ecx
  0000c	8b 45 fc	 mov	 eax, DWORD PTR _this$[ebp]
  0000f	c7 00 00 00 00
	00		 mov	 DWORD PTR [eax], OFFSET ??_7CRaklionObjInfo@@6B@
  00015	8b 4d fc	 mov	 ecx, DWORD PTR _this$[ebp]
  00018	e8 00 00 00 00	 call	 ?Reset@CRaklionObjInfo@@QAEXXZ ; CRaklionObjInfo::Reset
  0001d	8b 45 fc	 mov	 eax, DWORD PTR _this$[ebp]
  00020	5f		 pop	 edi
  00021	5e		 pop	 esi
  00022	5b		 pop	 ebx
  00023	8b e5		 mov	 esp, ebp
  00025	5d		 pop	 ebp
  00026	c3		 ret	 0
??0CRaklionObjInfo@@QAE@XZ ENDP				; CRaklionObjInfo::CRaklionObjInfo
; Function compile flags: /Odtp /ZI
_TEXT	ENDS
;	COMDAT ??1CRaklionObjInfo@@UAE@XZ
_TEXT	SEGMENT
_this$ = -4						; size = 4
??1CRaklionObjInfo@@UAE@XZ PROC				; CRaklionObjInfo::~CRaklionObjInfo, COMDAT
; _this$ = ecx

; 16   : 	virtual ~CRaklionObjInfo() { return; }

  00000	55		 push	 ebp
  00001	8b ec		 mov	 ebp, esp
  00003	83 ec 44	 sub	 esp, 68			; 00000044H
  00006	53		 push	 ebx
  00007	56		 push	 esi
  00008	57		 push	 edi
  00009	89 4d fc	 mov	 DWORD PTR _this$[ebp], ecx
  0000c	8b 45 fc	 mov	 eax, DWORD PTR _this$[ebp]
  0000f	c7 00 00 00 00
	00		 mov	 DWORD PTR [eax], OFFSET ??_7CRaklionObjInfo@@6B@
  00015	5f		 pop	 edi
  00016	5e		 pop	 esi
  00017	5b		 pop	 ebx
  00018	8b e5		 mov	 esp, ebp
  0001a	5d		 pop	 ebp
  0001b	c3		 ret	 0
??1CRaklionObjInfo@@UAE@XZ ENDP				; CRaklionObjInfo::~CRaklionObjInfo
; Function compile flags: /Odtp /ZI
_TEXT	ENDS
;	COMDAT ?Reset@CRaklionObjInfo@@QAEXXZ
_TEXT	SEGMENT
_iCount$204424 = -8					; size = 4
_this$ = -4						; size = 4
?Reset@CRaklionObjInfo@@QAEXXZ PROC			; CRaklionObjInfo::Reset, COMDAT
; _this$ = ecx

; 19   : 	{

  00000	55		 push	 ebp
  00001	8b ec		 mov	 ebp, esp
  00003	83 ec 48	 sub	 esp, 72			; 00000048H
  00006	53		 push	 ebx
  00007	56		 push	 esi
  00008	57		 push	 edi
  00009	89 4d fc	 mov	 DWORD PTR _this$[ebp], ecx

; 20   : 		for ( int iCount=0;iCount<MAX_RAKLION_OBJ_INDEX;iCount++)

  0000c	c7 45 f8 00 00
	00 00		 mov	 DWORD PTR _iCount$204424[ebp], 0
  00013	eb 09		 jmp	 SHORT $LN3@Reset
$LN2@Reset:
  00015	8b 45 f8	 mov	 eax, DWORD PTR _iCount$204424[ebp]
  00018	83 c0 01	 add	 eax, 1
  0001b	89 45 f8	 mov	 DWORD PTR _iCount$204424[ebp], eax
$LN3@Reset:
  0001e	81 7d f8 20 03
	00 00		 cmp	 DWORD PTR _iCount$204424[ebp], 800 ; 00000320H
  00025	7d 10		 jge	 SHORT $LN1@Reset

; 21   : 		{
; 22   : 			this->m_iObjIndex[iCount] = -1 ;// 0060C2A0;

  00027	8b 45 f8	 mov	 eax, DWORD PTR _iCount$204424[ebp]
  0002a	8b 4d fc	 mov	 ecx, DWORD PTR _this$[ebp]
  0002d	c7 44 81 08 ff
	ff ff ff	 mov	 DWORD PTR [ecx+eax*4+8], -1

; 23   : 		}

  00035	eb de		 jmp	 SHORT $LN2@Reset
$LN1@Reset:

; 24   : 
; 25   : 		this->m_iObjCount = 0;

  00037	8b 45 fc	 mov	 eax, DWORD PTR _this$[ebp]
  0003a	c7 40 04 00 00
	00 00		 mov	 DWORD PTR [eax+4], 0

; 26   : 	}

  00041	5f		 pop	 edi
  00042	5e		 pop	 esi
  00043	5b		 pop	 ebx
  00044	8b e5		 mov	 esp, ebp
  00046	5d		 pop	 ebp
  00047	c3		 ret	 0
?Reset@CRaklionObjInfo@@QAEXXZ ENDP			; CRaklionObjInfo::Reset
_TEXT	ENDS
EXTRN	??3@YAXPAX@Z:PROC				; operator delete
; Function compile flags: /Odtp /ZI
;	COMDAT ??_GCRaklionObjInfo@@UAEPAXI@Z
_TEXT	SEGMENT
_this$ = -4						; size = 4
___flags$ = 8						; size = 4
??_GCRaklionObjInfo@@UAEPAXI@Z PROC			; CRaklionObjInfo::`scalar deleting destructor', COMDAT
; _this$ = ecx
  00000	55		 push	 ebp
  00001	8b ec		 mov	 ebp, esp
  00003	83 ec 44	 sub	 esp, 68			; 00000044H
  00006	53		 push	 ebx
  00007	56		 push	 esi
  00008	57		 push	 edi
  00009	89 4d fc	 mov	 DWORD PTR _this$[ebp], ecx
  0000c	8b 4d fc	 mov	 ecx, DWORD PTR _this$[ebp]
  0000f	e8 00 00 00 00	 call	 ??1CRaklionObjInfo@@UAE@XZ ; CRaklionObjInfo::~CRaklionObjInfo
  00014	8b 45 08	 mov	 eax, DWORD PTR ___flags$[ebp]
  00017	83 e0 01	 and	 eax, 1
  0001a	74 0c		 je	 SHORT $LN1@scalar
  0001c	8b 45 fc	 mov	 eax, DWORD PTR _this$[ebp]
  0001f	50		 push	 eax
  00020	e8 00 00 00 00	 call	 ??3@YAXPAX@Z		; operator delete
  00025	83 c4 04	 add	 esp, 4
$LN1@scalar:
  00028	8b 45 fc	 mov	 eax, DWORD PTR _this$[ebp]
  0002b	5f		 pop	 edi
  0002c	5e		 pop	 esi
  0002d	5b		 pop	 ebx
  0002e	8b e5		 mov	 esp, ebp
  00030	5d		 pop	 ebp
  00031	c2 04 00	 ret	 4
??_GCRaklionObjInfo@@UAEPAXI@Z ENDP			; CRaklionObjInfo::`scalar deleting destructor'
_TEXT	ENDS
PUBLIC	??1CRaklionSelupan@@UAE@XZ			; CRaklionSelupan::~CRaklionSelupan
; Function compile flags: /Odtp /ZI
;	COMDAT ??_GCRaklionSelupan@@UAEPAXI@Z
_TEXT	SEGMENT
_this$ = -4						; size = 4
___flags$ = 8						; size = 4
??_GCRaklionSelupan@@UAEPAXI@Z PROC			; CRaklionSelupan::`scalar deleting destructor', COMDAT
; _this$ = ecx
  00000	55		 push	 ebp
  00001	8b ec		 mov	 ebp, esp
  00003	83 ec 44	 sub	 esp, 68			; 00000044H
  00006	53		 push	 ebx
  00007	56		 push	 esi
  00008	57		 push	 edi
  00009	89 4d fc	 mov	 DWORD PTR _this$[ebp], ecx
  0000c	8b 4d fc	 mov	 ecx, DWORD PTR _this$[ebp]
  0000f	e8 00 00 00 00	 call	 ??1CRaklionSelupan@@UAE@XZ ; CRaklionSelupan::~CRaklionSelupan
  00014	8b 45 08	 mov	 eax, DWORD PTR ___flags$[ebp]
  00017	83 e0 01	 and	 eax, 1
  0001a	74 0c		 je	 SHORT $LN1@scalar@2
  0001c	8b 45 fc	 mov	 eax, DWORD PTR _this$[ebp]
  0001f	50		 push	 eax
  00020	e8 00 00 00 00	 call	 ??3@YAXPAX@Z		; operator delete
  00025	83 c4 04	 add	 esp, 4
$LN1@scalar@2:
  00028	8b 45 fc	 mov	 eax, DWORD PTR _this$[ebp]
  0002b	5f		 pop	 edi
  0002c	5e		 pop	 esi
  0002d	5b		 pop	 ebx
  0002e	8b e5		 mov	 esp, ebp
  00030	5d		 pop	 ebp
  00031	c2 04 00	 ret	 4
??_GCRaklionSelupan@@UAEPAXI@Z ENDP			; CRaklionSelupan::`scalar deleting destructor'
; Function compile flags: /Odtp /ZI
; File d:\projects\exteam6.3\source\gameserver\gameserver\raklionselupan.cpp
_TEXT	ENDS
_TEXT	SEGMENT
_this$ = -4						; size = 4
??1CRaklionSelupan@@UAE@XZ PROC				; CRaklionSelupan::~CRaklionSelupan
; _this$ = ecx

; 23   : {

  00070	55		 push	 ebp
  00071	8b ec		 mov	 ebp, esp
  00073	83 ec 44	 sub	 esp, 68			; 00000044H
  00076	53		 push	 ebx
  00077	56		 push	 esi
  00078	57		 push	 edi
  00079	89 4d fc	 mov	 DWORD PTR _this$[ebp], ecx
  0007c	8b 45 fc	 mov	 eax, DWORD PTR _this$[ebp]
  0007f	c7 00 00 00 00
	00		 mov	 DWORD PTR [eax], OFFSET ??_7CRaklionSelupan@@6B@

; 24   : 
; 25   : }

  00085	8b 4d fc	 mov	 ecx, DWORD PTR _this$[ebp]
  00088	83 c1 08	 add	 ecx, 8
  0008b	e8 00 00 00 00	 call	 ??1CRaklionObjInfo@@UAE@XZ ; CRaklionObjInfo::~CRaklionObjInfo
  00090	5f		 pop	 edi
  00091	5e		 pop	 esi
  00092	5b		 pop	 ebx
  00093	8b e5		 mov	 esp, ebp
  00095	5d		 pop	 ebp
  00096	c3		 ret	 0
??1CRaklionSelupan@@UAE@XZ ENDP				; CRaklionSelupan::~CRaklionSelupan
; Function compile flags: /Odtp /ZI
_this$ = -4						; size = 4
?ClearData@CRaklionSelupan@@QAEXXZ PROC			; CRaklionSelupan::ClearData
; _this$ = ecx

; 28   : {

  000a0	55		 push	 ebp
  000a1	8b ec		 mov	 ebp, esp
  000a3	83 ec 44	 sub	 esp, 68			; 00000044H
  000a6	53		 push	 ebx
  000a7	56		 push	 esi
  000a8	57		 push	 edi
  000a9	89 4d fc	 mov	 DWORD PTR _this$[ebp], ecx

; 29   : 	this->m_iSelupanObjIndex	= -1;

  000ac	8b 45 fc	 mov	 eax, DWORD PTR _this$[ebp]
  000af	c7 40 04 ff ff
	ff ff		 mov	 DWORD PTR [eax+4], -1

; 30   : 	this->m_iBerserkIndex		= 0;

  000b6	8b 45 fc	 mov	 eax, DWORD PTR _this$[ebp]
  000b9	c7 80 94 0c 00
	00 00 00 00 00	 mov	 DWORD PTR [eax+3220], 0

; 31   : 	this->m_iBossAttackMin		= 0;

  000c3	8b 45 fc	 mov	 eax, DWORD PTR _this$[ebp]
  000c6	c7 80 98 0c 00
	00 00 00 00 00	 mov	 DWORD PTR [eax+3224], 0

; 32   : 	this->m_iBossAttackMax		= 0;

  000d0	8b 45 fc	 mov	 eax, DWORD PTR _this$[ebp]
  000d3	c7 80 9c 0c 00
	00 00 00 00 00	 mov	 DWORD PTR [eax+3228], 0

; 33   : }

  000dd	5f		 pop	 edi
  000de	5e		 pop	 esi
  000df	5b		 pop	 ebx
  000e0	8b e5		 mov	 esp, ebp
  000e2	5d		 pop	 ebp
  000e3	c3		 ret	 0
?ClearData@CRaklionSelupan@@QAEXXZ ENDP			; CRaklionSelupan::ClearData
_TEXT	ENDS
PUBLIC	??_C@_0DF@DHONPPND@?$FL?5RAKLION?5?$FN?$FL?5FirstSkill?5?$FN?5Skill?5@ ; `string'
PUBLIC	?GetSelupanTargetIndex@CRaklionSelupan@@QAEHXZ	; CRaklionSelupan::GetSelupanTargetIndex
PUBLIC	?GetSelupanObjIndex@CRaklionSelupan@@QAEHXZ	; CRaklionSelupan::GetSelupanObjIndex
PUBLIC	?SelupanAct_FirstSkill@CRaklionSelupan@@QAEXXZ	; CRaklionSelupan::SelupanAct_FirstSkill
EXTRN	?LogAddTD@@3P6AXPADZZA:DWORD			; LogAddTD
EXTRN	??1CMagicInf@@UAE@XZ:PROC			; CMagicInf::~CMagicInf
EXTRN	?UseMonsterSkill@TMonsterSkillManager@@SAXHHHHPAVCMagicInf@@@Z:PROC ; TMonsterSkillManager::UseMonsterSkill
EXTRN	_memset:PROC
EXTRN	??0CMagicInf@@QAE@XZ:PROC			; CMagicInf::CMagicInf
EXTRN	?gObj@@3PAUOBJECTSTRUCT@@A:DWORD		; gObj
;	COMDAT ??_C@_0DF@DHONPPND@?$FL?5RAKLION?5?$FN?$FL?5FirstSkill?5?$FN?5Skill?5@
CONST	SEGMENT
??_C@_0DF@DHONPPND@?$FL?5RAKLION?5?$FN?$FL?5FirstSkill?5?$FN?5Skill?5@ DB '['
	DB	' RAKLION ][ FirstSkill ] Skill Using : Index(%d) %s', 00H ; `string'
CONST	ENDS
xdata$x	SEGMENT
__unwindtable$?SelupanAct_FirstSkill@CRaklionSelupan@@QAEXXZ DD 0ffffffffH
	DD	FLAT:__unwindfunclet$?SelupanAct_FirstSkill@CRaklionSelupan@@QAEXXZ$0
__ehfuncinfo$?SelupanAct_FirstSkill@CRaklionSelupan@@QAEXXZ DD 019930522H
	DD	01H
	DD	FLAT:__unwindtable$?SelupanAct_FirstSkill@CRaklionSelupan@@QAEXXZ
	DD	2 DUP(00H)
	DD	2 DUP(00H)
	DD	00H
	DD	01H
; Function compile flags: /Odtp /ZI
xdata$x	ENDS
_TEXT	SEGMENT
_lpMagic$227585 = -52					; size = 24
_lpObj$ = -28						; size = 4
_tIndex$ = -24						; size = 4
_aIndex$ = -20						; size = 4
_this$ = -16						; size = 4
__$EHRec$ = -12						; size = 12
?SelupanAct_FirstSkill@CRaklionSelupan@@QAEXXZ PROC	; CRaklionSelupan::SelupanAct_FirstSkill
; _this$ = ecx

; 36   : {

  000f0	55		 push	 ebp
  000f1	8b ec		 mov	 ebp, esp
  000f3	6a ff		 push	 -1
  000f5	68 00 00 00 00	 push	 __ehhandler$?SelupanAct_FirstSkill@CRaklionSelupan@@QAEXXZ
  000fa	64 a1 00 00 00
	00		 mov	 eax, DWORD PTR fs:0
  00100	50		 push	 eax
  00101	83 ec 68	 sub	 esp, 104		; 00000068H
  00104	53		 push	 ebx
  00105	56		 push	 esi
  00106	57		 push	 edi
  00107	a1 00 00 00 00	 mov	 eax, DWORD PTR ___security_cookie
  0010c	33 c5		 xor	 eax, ebp
  0010e	50		 push	 eax
  0010f	8d 45 f4	 lea	 eax, DWORD PTR __$EHRec$[ebp]
  00112	64 a3 00 00 00
	00		 mov	 DWORD PTR fs:0, eax
  00118	89 4d f0	 mov	 DWORD PTR _this$[ebp], ecx

; 37   : 	int aIndex = this->GetSelupanObjIndex();

  0011b	8b 4d f0	 mov	 ecx, DWORD PTR _this$[ebp]
  0011e	e8 00 00 00 00	 call	 ?GetSelupanObjIndex@CRaklionSelupan@@QAEHXZ ; CRaklionSelupan::GetSelupanObjIndex
  00123	89 45 ec	 mov	 DWORD PTR _aIndex$[ebp], eax

; 38   : 	int tIndex = this->GetSelupanTargetIndex();

  00126	8b 4d f0	 mov	 ecx, DWORD PTR _this$[ebp]
  00129	e8 00 00 00 00	 call	 ?GetSelupanTargetIndex@CRaklionSelupan@@QAEHXZ ; CRaklionSelupan::GetSelupanTargetIndex
  0012e	89 45 e8	 mov	 DWORD PTR _tIndex$[ebp], eax

; 39   : 	
; 40   : 	LPOBJ lpObj = &gObj[aIndex];

  00131	8b 45 ec	 mov	 eax, DWORD PTR _aIndex$[ebp]
  00134	69 c0 38 2b 00
	00		 imul	 eax, 11064		; 00002b38H
  0013a	03 05 00 00 00
	00		 add	 eax, DWORD PTR ?gObj@@3PAUOBJECTSTRUCT@@A ; gObj
  00140	89 45 e4	 mov	 DWORD PTR _lpObj$[ebp], eax

; 41   : 
; 42   : 	if ( tIndex == -1 )

  00143	83 7d e8 ff	 cmp	 DWORD PTR _tIndex$[ebp], -1
  00147	75 06		 jne	 SHORT $LN1@SelupanAct

; 43   : 	{
; 44   : 		tIndex = aIndex;

  00149	8b 45 ec	 mov	 eax, DWORD PTR _aIndex$[ebp]
  0014c	89 45 e8	 mov	 DWORD PTR _tIndex$[ebp], eax
$LN1@SelupanAct:

; 45   : 	}
; 46   : 
; 47   : 	//if ( tIndex != -1 )
; 48   : 	{
; 49   : 		CMagicInf lpMagic;

  0014f	8d 4d cc	 lea	 ecx, DWORD PTR _lpMagic$227585[ebp]
  00152	e8 00 00 00 00	 call	 ??0CMagicInf@@QAE@XZ	; CMagicInf::CMagicInf
  00157	c7 45 fc 00 00
	00 00		 mov	 DWORD PTR __$EHRec$[ebp+8], 0

; 50   : 		memset(&lpMagic, 0, sizeof(lpMagic));

  0015e	6a 18		 push	 24			; 00000018H
  00160	6a 00		 push	 0
  00162	8d 45 cc	 lea	 eax, DWORD PTR _lpMagic$227585[ebp]
  00165	50		 push	 eax
  00166	e8 00 00 00 00	 call	 _memset
  0016b	83 c4 0c	 add	 esp, 12			; 0000000cH

; 51   : 		lpMagic.m_Skill = 253;

  0016e	c7 45 d4 fd 00
	00 00		 mov	 DWORD PTR _lpMagic$227585[ebp+8], 253 ; 000000fdH

; 52   : 		TMonsterSkillManager::UseMonsterSkill(aIndex, tIndex, 31, 0,&lpMagic);

  00175	8d 45 cc	 lea	 eax, DWORD PTR _lpMagic$227585[ebp]
  00178	50		 push	 eax
  00179	6a 00		 push	 0
  0017b	6a 1f		 push	 31			; 0000001fH
  0017d	8b 4d e8	 mov	 ecx, DWORD PTR _tIndex$[ebp]
  00180	51		 push	 ecx
  00181	8b 55 ec	 mov	 edx, DWORD PTR _aIndex$[ebp]
  00184	52		 push	 edx
  00185	e8 00 00 00 00	 call	 ?UseMonsterSkill@TMonsterSkillManager@@SAXHHHHPAVCMagicInf@@@Z ; TMonsterSkillManager::UseMonsterSkill
  0018a	83 c4 14	 add	 esp, 20			; 00000014H

; 53   : 	}

  0018d	c7 45 fc ff ff
	ff ff		 mov	 DWORD PTR __$EHRec$[ebp+8], -1
  00194	8d 4d cc	 lea	 ecx, DWORD PTR _lpMagic$227585[ebp]
  00197	e8 00 00 00 00	 call	 ??1CMagicInf@@UAE@XZ	; CMagicInf::~CMagicInf

; 54   : 
; 55   : 	LogAddTD("[ RAKLION ][ FirstSkill ] Skill Using : Index(%d) %s", aIndex,lpObj->Name);

  0019c	8b 45 e4	 mov	 eax, DWORD PTR _lpObj$[ebp]
  0019f	83 c0 77	 add	 eax, 119		; 00000077H
  001a2	50		 push	 eax
  001a3	8b 4d ec	 mov	 ecx, DWORD PTR _aIndex$[ebp]
  001a6	51		 push	 ecx
  001a7	68 00 00 00 00	 push	 OFFSET ??_C@_0DF@DHONPPND@?$FL?5RAKLION?5?$FN?$FL?5FirstSkill?5?$FN?5Skill?5@
  001ac	ff 15 00 00 00
	00		 call	 DWORD PTR ?LogAddTD@@3P6AXPADZZA ; LogAddTD
  001b2	83 c4 0c	 add	 esp, 12			; 0000000cH

; 56   : }

  001b5	8b 4d f4	 mov	 ecx, DWORD PTR __$EHRec$[ebp]
  001b8	64 89 0d 00 00
	00 00		 mov	 DWORD PTR fs:0, ecx
  001bf	59		 pop	 ecx
  001c0	5f		 pop	 edi
  001c1	5e		 pop	 esi
  001c2	5b		 pop	 ebx
  001c3	8b e5		 mov	 esp, ebp
  001c5	5d		 pop	 ebp
  001c6	c3		 ret	 0
_TEXT	ENDS
text$x	SEGMENT
__unwindfunclet$?SelupanAct_FirstSkill@CRaklionSelupan@@QAEXXZ$0:
  00026	8d 4d cc	 lea	 ecx, DWORD PTR _lpMagic$227585[ebp]
  00029	e9 00 00 00 00	 jmp	 ??1CMagicInf@@UAE@XZ	; CMagicInf::~CMagicInf
__ehhandler$?SelupanAct_FirstSkill@CRaklionSelupan@@QAEXXZ:
  0002e	8b 54 24 08	 mov	 edx, DWORD PTR [esp+8]
  00032	8d 42 0c	 lea	 eax, DWORD PTR [edx+12]
  00035	8b 4a 88	 mov	 ecx, DWORD PTR [edx-120]
  00038	33 c8		 xor	 ecx, eax
  0003a	e8 00 00 00 00	 call	 @__security_check_cookie@4
  0003f	b8 00 00 00 00	 mov	 eax, OFFSET __ehfuncinfo$?SelupanAct_FirstSkill@CRaklionSelupan@@QAEXXZ
  00044	e9 00 00 00 00	 jmp	 ___CxxFrameHandler3
text$x	ENDS
?SelupanAct_FirstSkill@CRaklionSelupan@@QAEXXZ ENDP	; CRaklionSelupan::SelupanAct_FirstSkill
PUBLIC	??_C@_0DH@HBHGOP@?$FL?5RAKLION?5?$FN?$FL?5PoisonAttack?5?$FN?5Skil@ ; `string'
PUBLIC	?SelupanAct_PoisonAttack@CRaklionSelupan@@QAEXXZ ; CRaklionSelupan::SelupanAct_PoisonAttack
;	COMDAT ??_C@_0DH@HBHGOP@?$FL?5RAKLION?5?$FN?$FL?5PoisonAttack?5?$FN?5Skil@
CONST	SEGMENT
??_C@_0DH@HBHGOP@?$FL?5RAKLION?5?$FN?$FL?5PoisonAttack?5?$FN?5Skil@ DB '['
	DB	' RAKLION ][ PoisonAttack ] Skill Using : Index(%d) %s', 00H ; `string'
CONST	ENDS
xdata$x	SEGMENT
__unwindtable$?SelupanAct_PoisonAttack@CRaklionSelupan@@QAEXXZ DD 0ffffffffH
	DD	FLAT:__unwindfunclet$?SelupanAct_PoisonAttack@CRaklionSelupan@@QAEXXZ$0
__ehfuncinfo$?SelupanAct_PoisonAttack@CRaklionSelupan@@QAEXXZ DD 019930522H
	DD	01H
	DD	FLAT:__unwindtable$?SelupanAct_PoisonAttack@CRaklionSelupan@@QAEXXZ
	DD	2 DUP(00H)
	DD	2 DUP(00H)
	DD	00H
	DD	01H
; Function compile flags: /Odtp /ZI
xdata$x	ENDS
_TEXT	SEGMENT
_lpMagic$227595 = -52					; size = 24
_lpObj$ = -28						; size = 4
_tIndex$ = -24						; size = 4
_aIndex$ = -20						; size = 4
_this$ = -16						; size = 4
__$EHRec$ = -12						; size = 12
?SelupanAct_PoisonAttack@CRaklionSelupan@@QAEXXZ PROC	; CRaklionSelupan::SelupanAct_PoisonAttack
; _this$ = ecx

; 59   : {

  001d0	55		 push	 ebp
  001d1	8b ec		 mov	 ebp, esp
  001d3	6a ff		 push	 -1
  001d5	68 00 00 00 00	 push	 __ehhandler$?SelupanAct_PoisonAttack@CRaklionSelupan@@QAEXXZ
  001da	64 a1 00 00 00
	00		 mov	 eax, DWORD PTR fs:0
  001e0	50		 push	 eax
  001e1	83 ec 68	 sub	 esp, 104		; 00000068H
  001e4	53		 push	 ebx
  001e5	56		 push	 esi
  001e6	57		 push	 edi
  001e7	a1 00 00 00 00	 mov	 eax, DWORD PTR ___security_cookie
  001ec	33 c5		 xor	 eax, ebp
  001ee	50		 push	 eax
  001ef	8d 45 f4	 lea	 eax, DWORD PTR __$EHRec$[ebp]
  001f2	64 a3 00 00 00
	00		 mov	 DWORD PTR fs:0, eax
  001f8	89 4d f0	 mov	 DWORD PTR _this$[ebp], ecx

; 60   : 	int aIndex = this->GetSelupanObjIndex();

  001fb	8b 4d f0	 mov	 ecx, DWORD PTR _this$[ebp]
  001fe	e8 00 00 00 00	 call	 ?GetSelupanObjIndex@CRaklionSelupan@@QAEHXZ ; CRaklionSelupan::GetSelupanObjIndex
  00203	89 45 ec	 mov	 DWORD PTR _aIndex$[ebp], eax

; 61   : 	int tIndex = this->GetSelupanTargetIndex();

  00206	8b 4d f0	 mov	 ecx, DWORD PTR _this$[ebp]
  00209	e8 00 00 00 00	 call	 ?GetSelupanTargetIndex@CRaklionSelupan@@QAEHXZ ; CRaklionSelupan::GetSelupanTargetIndex
  0020e	89 45 e8	 mov	 DWORD PTR _tIndex$[ebp], eax

; 62   : 
; 63   : 	LPOBJ lpObj = &gObj[aIndex];

  00211	8b 45 ec	 mov	 eax, DWORD PTR _aIndex$[ebp]
  00214	69 c0 38 2b 00
	00		 imul	 eax, 11064		; 00002b38H
  0021a	03 05 00 00 00
	00		 add	 eax, DWORD PTR ?gObj@@3PAUOBJECTSTRUCT@@A ; gObj
  00220	89 45 e4	 mov	 DWORD PTR _lpObj$[ebp], eax

; 64   : 
; 65   : 
; 66   : 	if ( tIndex == -1 )

  00223	83 7d e8 ff	 cmp	 DWORD PTR _tIndex$[ebp], -1
  00227	75 1e		 jne	 SHORT $LN2@SelupanAct@2

; 67   : 	{
; 68   : 		tIndex = aIndex;

  00229	8b 45 ec	 mov	 eax, DWORD PTR _aIndex$[ebp]
  0022c	89 45 e8	 mov	 DWORD PTR _tIndex$[ebp], eax

; 69   : 		TMonsterSkillManager::UseMonsterSkill(aIndex, tIndex, 1, 7, NULL);

  0022f	6a 00		 push	 0
  00231	6a 07		 push	 7
  00233	6a 01		 push	 1
  00235	8b 45 e8	 mov	 eax, DWORD PTR _tIndex$[ebp]
  00238	50		 push	 eax
  00239	8b 4d ec	 mov	 ecx, DWORD PTR _aIndex$[ebp]
  0023c	51		 push	 ecx
  0023d	e8 00 00 00 00	 call	 ?UseMonsterSkill@TMonsterSkillManager@@SAXHHHHPAVCMagicInf@@@Z ; TMonsterSkillManager::UseMonsterSkill
  00242	83 c4 14	 add	 esp, 20			; 00000014H

; 70   : 	}
; 71   : 	else

  00245	eb 4d		 jmp	 SHORT $LN1@SelupanAct@2
$LN2@SelupanAct@2:

; 72   : 	{
; 73   : 		CMagicInf lpMagic;

  00247	8d 4d cc	 lea	 ecx, DWORD PTR _lpMagic$227595[ebp]
  0024a	e8 00 00 00 00	 call	 ??0CMagicInf@@QAE@XZ	; CMagicInf::CMagicInf
  0024f	c7 45 fc 00 00
	00 00		 mov	 DWORD PTR __$EHRec$[ebp+8], 0

; 74   : 		memset(&lpMagic, 0, sizeof(lpMagic));

  00256	6a 18		 push	 24			; 00000018H
  00258	6a 00		 push	 0
  0025a	8d 45 cc	 lea	 eax, DWORD PTR _lpMagic$227595[ebp]
  0025d	50		 push	 eax
  0025e	e8 00 00 00 00	 call	 _memset
  00263	83 c4 0c	 add	 esp, 12			; 0000000cH

; 75   : 		lpMagic.m_Skill = 250;

  00266	c7 45 d4 fa 00
	00 00		 mov	 DWORD PTR _lpMagic$227595[ebp+8], 250 ; 000000faH

; 76   : 		TMonsterSkillManager::UseMonsterSkill(aIndex, tIndex, 1, 1,&lpMagic);

  0026d	8d 45 cc	 lea	 eax, DWORD PTR _lpMagic$227595[ebp]
  00270	50		 push	 eax
  00271	6a 01		 push	 1
  00273	6a 01		 push	 1
  00275	8b 4d e8	 mov	 ecx, DWORD PTR _tIndex$[ebp]
  00278	51		 push	 ecx
  00279	8b 55 ec	 mov	 edx, DWORD PTR _aIndex$[ebp]
  0027c	52		 push	 edx
  0027d	e8 00 00 00 00	 call	 ?UseMonsterSkill@TMonsterSkillManager@@SAXHHHHPAVCMagicInf@@@Z ; TMonsterSkillManager::UseMonsterSkill
  00282	83 c4 14	 add	 esp, 20			; 00000014H

; 77   : 	}

  00285	c7 45 fc ff ff
	ff ff		 mov	 DWORD PTR __$EHRec$[ebp+8], -1
  0028c	8d 4d cc	 lea	 ecx, DWORD PTR _lpMagic$227595[ebp]
  0028f	e8 00 00 00 00	 call	 ??1CMagicInf@@UAE@XZ	; CMagicInf::~CMagicInf
$LN1@SelupanAct@2:

; 78   : 
; 79   : 	LogAddTD("[ RAKLION ][ PoisonAttack ] Skill Using : Index(%d) %s", aIndex,lpObj->Name);

  00294	8b 45 e4	 mov	 eax, DWORD PTR _lpObj$[ebp]
  00297	83 c0 77	 add	 eax, 119		; 00000077H
  0029a	50		 push	 eax
  0029b	8b 4d ec	 mov	 ecx, DWORD PTR _aIndex$[ebp]
  0029e	51		 push	 ecx
  0029f	68 00 00 00 00	 push	 OFFSET ??_C@_0DH@HBHGOP@?$FL?5RAKLION?5?$FN?$FL?5PoisonAttack?5?$FN?5Skil@
  002a4	ff 15 00 00 00
	00		 call	 DWORD PTR ?LogAddTD@@3P6AXPADZZA ; LogAddTD
  002aa	83 c4 0c	 add	 esp, 12			; 0000000cH

; 80   : 
; 81   : }

  002ad	8b 4d f4	 mov	 ecx, DWORD PTR __$EHRec$[ebp]
  002b0	64 89 0d 00 00
	00 00		 mov	 DWORD PTR fs:0, ecx
  002b7	59		 pop	 ecx
  002b8	5f		 pop	 edi
  002b9	5e		 pop	 esi
  002ba	5b		 pop	 ebx
  002bb	8b e5		 mov	 esp, ebp
  002bd	5d		 pop	 ebp
  002be	c3		 ret	 0
_TEXT	ENDS
text$x	SEGMENT
__unwindfunclet$?SelupanAct_PoisonAttack@CRaklionSelupan@@QAEXXZ$0:
  00049	8d 4d cc	 lea	 ecx, DWORD PTR _lpMagic$227595[ebp]
  0004c	e9 00 00 00 00	 jmp	 ??1CMagicInf@@UAE@XZ	; CMagicInf::~CMagicInf
__ehhandler$?SelupanAct_PoisonAttack@CRaklionSelupan@@QAEXXZ:
  00051	8b 54 24 08	 mov	 edx, DWORD PTR [esp+8]
  00055	8d 42 0c	 lea	 eax, DWORD PTR [edx+12]
  00058	8b 4a 88	 mov	 ecx, DWORD PTR [edx-120]
  0005b	33 c8		 xor	 ecx, eax
  0005d	e8 00 00 00 00	 call	 @__security_check_cookie@4
  00062	b8 00 00 00 00	 mov	 eax, OFFSET __ehfuncinfo$?SelupanAct_PoisonAttack@CRaklionSelupan@@QAEXXZ
  00067	e9 00 00 00 00	 jmp	 ___CxxFrameHandler3
text$x	ENDS
?SelupanAct_PoisonAttack@CRaklionSelupan@@QAEXXZ ENDP	; CRaklionSelupan::SelupanAct_PoisonAttack
PUBLIC	??_C@_0DD@GKIFGDCG@?$FL?5RAKLION?5?$FN?$FL?5IceStorm?5?$FN?5Skill?5Us@ ; `string'
PUBLIC	?SelupanAct_IceStorm@CRaklionSelupan@@QAEXXZ	; CRaklionSelupan::SelupanAct_IceStorm
;	COMDAT ??_C@_0DD@GKIFGDCG@?$FL?5RAKLION?5?$FN?$FL?5IceStorm?5?$FN?5Skill?5Us@
CONST	SEGMENT
??_C@_0DD@GKIFGDCG@?$FL?5RAKLION?5?$FN?$FL?5IceStorm?5?$FN?5Skill?5Us@ DB '['
	DB	' RAKLION ][ IceStorm ] Skill Using : Index(%d) %s', 00H ; `string'
CONST	ENDS
xdata$x	SEGMENT
__unwindtable$?SelupanAct_IceStorm@CRaklionSelupan@@QAEXXZ DD 0ffffffffH
	DD	FLAT:__unwindfunclet$?SelupanAct_IceStorm@CRaklionSelupan@@QAEXXZ$0
__ehfuncinfo$?SelupanAct_IceStorm@CRaklionSelupan@@QAEXXZ DD 019930522H
	DD	01H
	DD	FLAT:__unwindtable$?SelupanAct_IceStorm@CRaklionSelupan@@QAEXXZ
	DD	2 DUP(00H)
	DD	2 DUP(00H)
	DD	00H
	DD	01H
; Function compile flags: /Odtp /ZI
xdata$x	ENDS
_TEXT	SEGMENT
_lpMagic$227605 = -52					; size = 24
_lpObj$ = -28						; size = 4
_tIndex$ = -24						; size = 4
_aIndex$ = -20						; size = 4
_this$ = -16						; size = 4
__$EHRec$ = -12						; size = 12
?SelupanAct_IceStorm@CRaklionSelupan@@QAEXXZ PROC	; CRaklionSelupan::SelupanAct_IceStorm
; _this$ = ecx

; 84   : {

  002c0	55		 push	 ebp
  002c1	8b ec		 mov	 ebp, esp
  002c3	6a ff		 push	 -1
  002c5	68 00 00 00 00	 push	 __ehhandler$?SelupanAct_IceStorm@CRaklionSelupan@@QAEXXZ
  002ca	64 a1 00 00 00
	00		 mov	 eax, DWORD PTR fs:0
  002d0	50		 push	 eax
  002d1	83 ec 68	 sub	 esp, 104		; 00000068H
  002d4	53		 push	 ebx
  002d5	56		 push	 esi
  002d6	57		 push	 edi
  002d7	a1 00 00 00 00	 mov	 eax, DWORD PTR ___security_cookie
  002dc	33 c5		 xor	 eax, ebp
  002de	50		 push	 eax
  002df	8d 45 f4	 lea	 eax, DWORD PTR __$EHRec$[ebp]
  002e2	64 a3 00 00 00
	00		 mov	 DWORD PTR fs:0, eax
  002e8	89 4d f0	 mov	 DWORD PTR _this$[ebp], ecx

; 85   : 	int aIndex = this->GetSelupanObjIndex();

  002eb	8b 4d f0	 mov	 ecx, DWORD PTR _this$[ebp]
  002ee	e8 00 00 00 00	 call	 ?GetSelupanObjIndex@CRaklionSelupan@@QAEHXZ ; CRaklionSelupan::GetSelupanObjIndex
  002f3	89 45 ec	 mov	 DWORD PTR _aIndex$[ebp], eax

; 86   : 	int tIndex = this->GetSelupanTargetIndex();

  002f6	8b 4d f0	 mov	 ecx, DWORD PTR _this$[ebp]
  002f9	e8 00 00 00 00	 call	 ?GetSelupanTargetIndex@CRaklionSelupan@@QAEHXZ ; CRaklionSelupan::GetSelupanTargetIndex
  002fe	89 45 e8	 mov	 DWORD PTR _tIndex$[ebp], eax

; 87   : 
; 88   : 	LPOBJ lpObj = &gObj[aIndex];

  00301	8b 45 ec	 mov	 eax, DWORD PTR _aIndex$[ebp]
  00304	69 c0 38 2b 00
	00		 imul	 eax, 11064		; 00002b38H
  0030a	03 05 00 00 00
	00		 add	 eax, DWORD PTR ?gObj@@3PAUOBJECTSTRUCT@@A ; gObj
  00310	89 45 e4	 mov	 DWORD PTR _lpObj$[ebp], eax

; 89   : 
; 90   : 	if ( tIndex == -1 )

  00313	83 7d e8 ff	 cmp	 DWORD PTR _tIndex$[ebp], -1
  00317	75 1e		 jne	 SHORT $LN2@SelupanAct@3

; 91   : 	{
; 92   : 		tIndex = aIndex;

  00319	8b 45 ec	 mov	 eax, DWORD PTR _aIndex$[ebp]
  0031c	89 45 e8	 mov	 DWORD PTR _tIndex$[ebp], eax

; 93   : 		TMonsterSkillManager::UseMonsterSkill(aIndex, tIndex, 1, 7, NULL);

  0031f	6a 00		 push	 0
  00321	6a 07		 push	 7
  00323	6a 01		 push	 1
  00325	8b 45 e8	 mov	 eax, DWORD PTR _tIndex$[ebp]
  00328	50		 push	 eax
  00329	8b 4d ec	 mov	 ecx, DWORD PTR _aIndex$[ebp]
  0032c	51		 push	 ecx
  0032d	e8 00 00 00 00	 call	 ?UseMonsterSkill@TMonsterSkillManager@@SAXHHHHPAVCMagicInf@@@Z ; TMonsterSkillManager::UseMonsterSkill
  00332	83 c4 14	 add	 esp, 20			; 00000014H

; 94   : 	}
; 95   : 	else

  00335	eb 4d		 jmp	 SHORT $LN1@SelupanAct@3
$LN2@SelupanAct@3:

; 96   : 	{
; 97   : 		CMagicInf lpMagic;

  00337	8d 4d cc	 lea	 ecx, DWORD PTR _lpMagic$227605[ebp]
  0033a	e8 00 00 00 00	 call	 ??0CMagicInf@@QAE@XZ	; CMagicInf::CMagicInf
  0033f	c7 45 fc 00 00
	00 00		 mov	 DWORD PTR __$EHRec$[ebp+8], 0

; 98   : 
; 99   : 		memset(&lpMagic, 0, sizeof(lpMagic));

  00346	6a 18		 push	 24			; 00000018H
  00348	6a 00		 push	 0
  0034a	8d 45 cc	 lea	 eax, DWORD PTR _lpMagic$227605[ebp]
  0034d	50		 push	 eax
  0034e	e8 00 00 00 00	 call	 _memset
  00353	83 c4 0c	 add	 esp, 12			; 0000000cH

; 100  : 
; 101  : 		lpMagic.m_Skill = 251;

  00356	c7 45 d4 fb 00
	00 00		 mov	 DWORD PTR _lpMagic$227605[ebp+8], 251 ; 000000fbH

; 102  : 		TMonsterSkillManager::UseMonsterSkill(aIndex, tIndex, 1, 2,&lpMagic);

  0035d	8d 45 cc	 lea	 eax, DWORD PTR _lpMagic$227605[ebp]
  00360	50		 push	 eax
  00361	6a 02		 push	 2
  00363	6a 01		 push	 1
  00365	8b 4d e8	 mov	 ecx, DWORD PTR _tIndex$[ebp]
  00368	51		 push	 ecx
  00369	8b 55 ec	 mov	 edx, DWORD PTR _aIndex$[ebp]
  0036c	52		 push	 edx
  0036d	e8 00 00 00 00	 call	 ?UseMonsterSkill@TMonsterSkillManager@@SAXHHHHPAVCMagicInf@@@Z ; TMonsterSkillManager::UseMonsterSkill
  00372	83 c4 14	 add	 esp, 20			; 00000014H

; 103  : 	}

  00375	c7 45 fc ff ff
	ff ff		 mov	 DWORD PTR __$EHRec$[ebp+8], -1
  0037c	8d 4d cc	 lea	 ecx, DWORD PTR _lpMagic$227605[ebp]
  0037f	e8 00 00 00 00	 call	 ??1CMagicInf@@UAE@XZ	; CMagicInf::~CMagicInf
$LN1@SelupanAct@3:

; 104  : 	LogAddTD("[ RAKLION ][ IceStorm ] Skill Using : Index(%d) %s", aIndex,lpObj->Name);

  00384	8b 45 e4	 mov	 eax, DWORD PTR _lpObj$[ebp]
  00387	83 c0 77	 add	 eax, 119		; 00000077H
  0038a	50		 push	 eax
  0038b	8b 4d ec	 mov	 ecx, DWORD PTR _aIndex$[ebp]
  0038e	51		 push	 ecx
  0038f	68 00 00 00 00	 push	 OFFSET ??_C@_0DD@GKIFGDCG@?$FL?5RAKLION?5?$FN?$FL?5IceStorm?5?$FN?5Skill?5Us@
  00394	ff 15 00 00 00
	00		 call	 DWORD PTR ?LogAddTD@@3P6AXPADZZA ; LogAddTD
  0039a	83 c4 0c	 add	 esp, 12			; 0000000cH

; 105  : }

  0039d	8b 4d f4	 mov	 ecx, DWORD PTR __$EHRec$[ebp]
  003a0	64 89 0d 00 00
	00 00		 mov	 DWORD PTR fs:0, ecx
  003a7	59		 pop	 ecx
  003a8	5f		 pop	 edi
  003a9	5e		 pop	 esi
  003aa	5b		 pop	 ebx
  003ab	8b e5		 mov	 esp, ebp
  003ad	5d		 pop	 ebp
  003ae	c3		 ret	 0
_TEXT	ENDS
text$x	SEGMENT
__unwindfunclet$?SelupanAct_IceStorm@CRaklionSelupan@@QAEXXZ$0:
  0006c	8d 4d cc	 lea	 ecx, DWORD PTR _lpMagic$227605[ebp]
  0006f	e9 00 00 00 00	 jmp	 ??1CMagicInf@@UAE@XZ	; CMagicInf::~CMagicInf
__ehhandler$?SelupanAct_IceStorm@CRaklionSelupan@@QAEXXZ:
  00074	8b 54 24 08	 mov	 edx, DWORD PTR [esp+8]
  00078	8d 42 0c	 lea	 eax, DWORD PTR [edx+12]
  0007b	8b 4a 88	 mov	 ecx, DWORD PTR [edx-120]
  0007e	33 c8		 xor	 ecx, eax
  00080	e8 00 00 00 00	 call	 @__security_check_cookie@4
  00085	b8 00 00 00 00	 mov	 eax, OFFSET __ehfuncinfo$?SelupanAct_IceStorm@CRaklionSelupan@@QAEXXZ
  0008a	e9 00 00 00 00	 jmp	 ___CxxFrameHandler3
text$x	ENDS
?SelupanAct_IceStorm@CRaklionSelupan@@QAEXXZ ENDP	; CRaklionSelupan::SelupanAct_IceStorm
PUBLIC	??_C@_0DE@LMJIKHAC@?$FL?5RAKLION?5?$FN?$FL?5IceStrike?5?$FN?5Skill?5U@ ; `string'
PUBLIC	?SelupanAct_IceStrike@CRaklionSelupan@@QAEXXZ	; CRaklionSelupan::SelupanAct_IceStrike
;	COMDAT ??_C@_0DE@LMJIKHAC@?$FL?5RAKLION?5?$FN?$FL?5IceStrike?5?$FN?5Skill?5U@
CONST	SEGMENT
??_C@_0DE@LMJIKHAC@?$FL?5RAKLION?5?$FN?$FL?5IceStrike?5?$FN?5Skill?5U@ DB '['
	DB	' RAKLION ][ IceStrike ] Skill Using : Index(%d) %s', 00H ; `string'
CONST	ENDS
xdata$x	SEGMENT
__unwindtable$?SelupanAct_IceStrike@CRaklionSelupan@@QAEXXZ DD 0ffffffffH
	DD	FLAT:__unwindfunclet$?SelupanAct_IceStrike@CRaklionSelupan@@QAEXXZ$0
__ehfuncinfo$?SelupanAct_IceStrike@CRaklionSelupan@@QAEXXZ DD 019930522H
	DD	01H
	DD	FLAT:__unwindtable$?SelupanAct_IceStrike@CRaklionSelupan@@QAEXXZ
	DD	2 DUP(00H)
	DD	2 DUP(00H)
	DD	00H
	DD	01H
; Function compile flags: /Odtp /ZI
xdata$x	ENDS
_TEXT	SEGMENT
_lpMagic$227615 = -52					; size = 24
_lpObj$ = -28						; size = 4
_tIndex$ = -24						; size = 4
_aIndex$ = -20						; size = 4
_this$ = -16						; size = 4
__$EHRec$ = -12						; size = 12
?SelupanAct_IceStrike@CRaklionSelupan@@QAEXXZ PROC	; CRaklionSelupan::SelupanAct_IceStrike
; _this$ = ecx

; 108  : {

  003b0	55		 push	 ebp
  003b1	8b ec		 mov	 ebp, esp
  003b3	6a ff		 push	 -1
  003b5	68 00 00 00 00	 push	 __ehhandler$?SelupanAct_IceStrike@CRaklionSelupan@@QAEXXZ
  003ba	64 a1 00 00 00
	00		 mov	 eax, DWORD PTR fs:0
  003c0	50		 push	 eax
  003c1	83 ec 68	 sub	 esp, 104		; 00000068H
  003c4	53		 push	 ebx
  003c5	56		 push	 esi
  003c6	57		 push	 edi
  003c7	a1 00 00 00 00	 mov	 eax, DWORD PTR ___security_cookie
  003cc	33 c5		 xor	 eax, ebp
  003ce	50		 push	 eax
  003cf	8d 45 f4	 lea	 eax, DWORD PTR __$EHRec$[ebp]
  003d2	64 a3 00 00 00
	00		 mov	 DWORD PTR fs:0, eax
  003d8	89 4d f0	 mov	 DWORD PTR _this$[ebp], ecx

; 109  : 	int aIndex = this->GetSelupanObjIndex();

  003db	8b 4d f0	 mov	 ecx, DWORD PTR _this$[ebp]
  003de	e8 00 00 00 00	 call	 ?GetSelupanObjIndex@CRaklionSelupan@@QAEHXZ ; CRaklionSelupan::GetSelupanObjIndex
  003e3	89 45 ec	 mov	 DWORD PTR _aIndex$[ebp], eax

; 110  : 	int tIndex = this->GetSelupanTargetIndex();

  003e6	8b 4d f0	 mov	 ecx, DWORD PTR _this$[ebp]
  003e9	e8 00 00 00 00	 call	 ?GetSelupanTargetIndex@CRaklionSelupan@@QAEHXZ ; CRaklionSelupan::GetSelupanTargetIndex
  003ee	89 45 e8	 mov	 DWORD PTR _tIndex$[ebp], eax

; 111  : 
; 112  : 	LPOBJ lpObj = &gObj[aIndex];

  003f1	8b 45 ec	 mov	 eax, DWORD PTR _aIndex$[ebp]
  003f4	69 c0 38 2b 00
	00		 imul	 eax, 11064		; 00002b38H
  003fa	03 05 00 00 00
	00		 add	 eax, DWORD PTR ?gObj@@3PAUOBJECTSTRUCT@@A ; gObj
  00400	89 45 e4	 mov	 DWORD PTR _lpObj$[ebp], eax

; 113  : 
; 114  : 	if ( tIndex == -1 )

  00403	83 7d e8 ff	 cmp	 DWORD PTR _tIndex$[ebp], -1
  00407	75 1e		 jne	 SHORT $LN2@SelupanAct@4

; 115  : 	{
; 116  : 		tIndex = aIndex;

  00409	8b 45 ec	 mov	 eax, DWORD PTR _aIndex$[ebp]
  0040c	89 45 e8	 mov	 DWORD PTR _tIndex$[ebp], eax

; 117  : 		TMonsterSkillManager::UseMonsterSkill(aIndex, tIndex, 1, 7, NULL);

  0040f	6a 00		 push	 0
  00411	6a 07		 push	 7
  00413	6a 01		 push	 1
  00415	8b 45 e8	 mov	 eax, DWORD PTR _tIndex$[ebp]
  00418	50		 push	 eax
  00419	8b 4d ec	 mov	 ecx, DWORD PTR _aIndex$[ebp]
  0041c	51		 push	 ecx
  0041d	e8 00 00 00 00	 call	 ?UseMonsterSkill@TMonsterSkillManager@@SAXHHHHPAVCMagicInf@@@Z ; TMonsterSkillManager::UseMonsterSkill
  00422	83 c4 14	 add	 esp, 20			; 00000014H

; 118  : 	}
; 119  : 	else

  00425	eb 4d		 jmp	 SHORT $LN1@SelupanAct@4
$LN2@SelupanAct@4:

; 120  : 	{
; 121  : 		CMagicInf lpMagic;

  00427	8d 4d cc	 lea	 ecx, DWORD PTR _lpMagic$227615[ebp]
  0042a	e8 00 00 00 00	 call	 ??0CMagicInf@@QAE@XZ	; CMagicInf::CMagicInf
  0042f	c7 45 fc 00 00
	00 00		 mov	 DWORD PTR __$EHRec$[ebp+8], 0

; 122  : 		memset(&lpMagic, 0, sizeof(lpMagic));

  00436	6a 18		 push	 24			; 00000018H
  00438	6a 00		 push	 0
  0043a	8d 45 cc	 lea	 eax, DWORD PTR _lpMagic$227615[ebp]
  0043d	50		 push	 eax
  0043e	e8 00 00 00 00	 call	 _memset
  00443	83 c4 0c	 add	 esp, 12			; 0000000cH

; 123  : 		lpMagic.m_Skill = 252;

  00446	c7 45 d4 fc 00
	00 00		 mov	 DWORD PTR _lpMagic$227615[ebp+8], 252 ; 000000fcH

; 124  : 		TMonsterSkillManager::UseMonsterSkill(aIndex, tIndex, 1, 3,&lpMagic);

  0044d	8d 45 cc	 lea	 eax, DWORD PTR _lpMagic$227615[ebp]
  00450	50		 push	 eax
  00451	6a 03		 push	 3
  00453	6a 01		 push	 1
  00455	8b 4d e8	 mov	 ecx, DWORD PTR _tIndex$[ebp]
  00458	51		 push	 ecx
  00459	8b 55 ec	 mov	 edx, DWORD PTR _aIndex$[ebp]
  0045c	52		 push	 edx
  0045d	e8 00 00 00 00	 call	 ?UseMonsterSkill@TMonsterSkillManager@@SAXHHHHPAVCMagicInf@@@Z ; TMonsterSkillManager::UseMonsterSkill
  00462	83 c4 14	 add	 esp, 20			; 00000014H

; 125  : 	}

  00465	c7 45 fc ff ff
	ff ff		 mov	 DWORD PTR __$EHRec$[ebp+8], -1
  0046c	8d 4d cc	 lea	 ecx, DWORD PTR _lpMagic$227615[ebp]
  0046f	e8 00 00 00 00	 call	 ??1CMagicInf@@UAE@XZ	; CMagicInf::~CMagicInf
$LN1@SelupanAct@4:

; 126  : 
; 127  : 	LogAddTD("[ RAKLION ][ IceStrike ] Skill Using : Index(%d) %s", aIndex,lpObj->Name);

  00474	8b 45 e4	 mov	 eax, DWORD PTR _lpObj$[ebp]
  00477	83 c0 77	 add	 eax, 119		; 00000077H
  0047a	50		 push	 eax
  0047b	8b 4d ec	 mov	 ecx, DWORD PTR _aIndex$[ebp]
  0047e	51		 push	 ecx
  0047f	68 00 00 00 00	 push	 OFFSET ??_C@_0DE@LMJIKHAC@?$FL?5RAKLION?5?$FN?$FL?5IceStrike?5?$FN?5Skill?5U@
  00484	ff 15 00 00 00
	00		 call	 DWORD PTR ?LogAddTD@@3P6AXPADZZA ; LogAddTD
  0048a	83 c4 0c	 add	 esp, 12			; 0000000cH

; 128  : }

  0048d	8b 4d f4	 mov	 ecx, DWORD PTR __$EHRec$[ebp]
  00490	64 89 0d 00 00
	00 00		 mov	 DWORD PTR fs:0, ecx
  00497	59		 pop	 ecx
  00498	5f		 pop	 edi
  00499	5e		 pop	 esi
  0049a	5b		 pop	 ebx
  0049b	8b e5		 mov	 esp, ebp
  0049d	5d		 pop	 ebp
  0049e	c3		 ret	 0
_TEXT	ENDS
text$x	SEGMENT
__unwindfunclet$?SelupanAct_IceStrike@CRaklionSelupan@@QAEXXZ$0:
  0008f	8d 4d cc	 lea	 ecx, DWORD PTR _lpMagic$227615[ebp]
  00092	e9 00 00 00 00	 jmp	 ??1CMagicInf@@UAE@XZ	; CMagicInf::~CMagicInf
__ehhandler$?SelupanAct_IceStrike@CRaklionSelupan@@QAEXXZ:
  00097	8b 54 24 08	 mov	 edx, DWORD PTR [esp+8]
  0009b	8d 42 0c	 lea	 eax, DWORD PTR [edx+12]
  0009e	8b 4a 88	 mov	 ecx, DWORD PTR [edx-120]
  000a1	33 c8		 xor	 ecx, eax
  000a3	e8 00 00 00 00	 call	 @__security_check_cookie@4
  000a8	b8 00 00 00 00	 mov	 eax, OFFSET __ehfuncinfo$?SelupanAct_IceStrike@CRaklionSelupan@@QAEXXZ
  000ad	e9 00 00 00 00	 jmp	 ___CxxFrameHandler3
text$x	ENDS
?SelupanAct_IceStrike@CRaklionSelupan@@QAEXXZ ENDP	; CRaklionSelupan::SelupanAct_IceStrike
PUBLIC	??_C@_0DI@MNJIILJK@?$FL?5RAKLION?5?$FN?$FL?5SummonMonster?5?$FN?5Ski@ ; `string'
PUBLIC	?CreateSummonMonster@CRaklionSelupan@@QAEXXZ	; CRaklionSelupan::CreateSummonMonster
PUBLIC	?SelupanAct_SummonMonster@CRaklionSelupan@@QAEXXZ ; CRaklionSelupan::SelupanAct_SummonMonster
;	COMDAT ??_C@_0DI@MNJIILJK@?$FL?5RAKLION?5?$FN?$FL?5SummonMonster?5?$FN?5Ski@
CONST	SEGMENT
??_C@_0DI@MNJIILJK@?$FL?5RAKLION?5?$FN?$FL?5SummonMonster?5?$FN?5Ski@ DB '['
	DB	' RAKLION ][ SummonMonster ] Skill Using : Index(%d) %s', 00H ; `string'
; Function compile flags: /Odtp /ZI
CONST	ENDS
_TEXT	SEGMENT
_lpObj$ = -16						; size = 4
_tIndex$ = -12						; size = 4
_aIndex$ = -8						; size = 4
_this$ = -4						; size = 4
?SelupanAct_SummonMonster@CRaklionSelupan@@QAEXXZ PROC	; CRaklionSelupan::SelupanAct_SummonMonster
; _this$ = ecx

; 131  : {

  004a0	55		 push	 ebp
  004a1	8b ec		 mov	 ebp, esp
  004a3	83 ec 50	 sub	 esp, 80			; 00000050H
  004a6	53		 push	 ebx
  004a7	56		 push	 esi
  004a8	57		 push	 edi
  004a9	89 4d fc	 mov	 DWORD PTR _this$[ebp], ecx

; 132  : 	int aIndex = this->GetSelupanObjIndex();

  004ac	8b 4d fc	 mov	 ecx, DWORD PTR _this$[ebp]
  004af	e8 00 00 00 00	 call	 ?GetSelupanObjIndex@CRaklionSelupan@@QAEHXZ ; CRaklionSelupan::GetSelupanObjIndex
  004b4	89 45 f8	 mov	 DWORD PTR _aIndex$[ebp], eax

; 133  : 	int tIndex = aIndex;

  004b7	8b 45 f8	 mov	 eax, DWORD PTR _aIndex$[ebp]
  004ba	89 45 f4	 mov	 DWORD PTR _tIndex$[ebp], eax

; 134  : 
; 135  : 	LPOBJ lpObj = &gObj[aIndex];

  004bd	8b 45 f8	 mov	 eax, DWORD PTR _aIndex$[ebp]
  004c0	69 c0 38 2b 00
	00		 imul	 eax, 11064		; 00002b38H
  004c6	03 05 00 00 00
	00		 add	 eax, DWORD PTR ?gObj@@3PAUOBJECTSTRUCT@@A ; gObj
  004cc	89 45 f0	 mov	 DWORD PTR _lpObj$[ebp], eax

; 136  : 	
; 137  : 	TMonsterSkillManager::UseMonsterSkill(aIndex, tIndex, 30, 4, NULL);

  004cf	6a 00		 push	 0
  004d1	6a 04		 push	 4
  004d3	6a 1e		 push	 30			; 0000001eH
  004d5	8b 45 f4	 mov	 eax, DWORD PTR _tIndex$[ebp]
  004d8	50		 push	 eax
  004d9	8b 4d f8	 mov	 ecx, DWORD PTR _aIndex$[ebp]
  004dc	51		 push	 ecx
  004dd	e8 00 00 00 00	 call	 ?UseMonsterSkill@TMonsterSkillManager@@SAXHHHHPAVCMagicInf@@@Z ; TMonsterSkillManager::UseMonsterSkill
  004e2	83 c4 14	 add	 esp, 20			; 00000014H

; 138  : 	
; 139  : 	this->CreateSummonMonster();

  004e5	8b 4d fc	 mov	 ecx, DWORD PTR _this$[ebp]
  004e8	e8 00 00 00 00	 call	 ?CreateSummonMonster@CRaklionSelupan@@QAEXXZ ; CRaklionSelupan::CreateSummonMonster

; 140  : 	
; 141  : 	LogAddTD("[ RAKLION ][ SummonMonster ] Skill Using : Index(%d) %s", aIndex,lpObj->Name);

  004ed	8b 45 f0	 mov	 eax, DWORD PTR _lpObj$[ebp]
  004f0	83 c0 77	 add	 eax, 119		; 00000077H
  004f3	50		 push	 eax
  004f4	8b 4d f8	 mov	 ecx, DWORD PTR _aIndex$[ebp]
  004f7	51		 push	 ecx
  004f8	68 00 00 00 00	 push	 OFFSET ??_C@_0DI@MNJIILJK@?$FL?5RAKLION?5?$FN?$FL?5SummonMonster?5?$FN?5Ski@
  004fd	ff 15 00 00 00
	00		 call	 DWORD PTR ?LogAddTD@@3P6AXPADZZA ; LogAddTD
  00503	83 c4 0c	 add	 esp, 12			; 0000000cH

; 142  : }

  00506	5f		 pop	 edi
  00507	5e		 pop	 esi
  00508	5b		 pop	 ebx
  00509	8b e5		 mov	 esp, ebp
  0050b	5d		 pop	 ebp
  0050c	c3		 ret	 0
?SelupanAct_SummonMonster@CRaklionSelupan@@QAEXXZ ENDP	; CRaklionSelupan::SelupanAct_SummonMonster
_TEXT	ENDS
PUBLIC	??_C@_0CP@FPMFGMGG@?$FL?5RAKLION?5?$FN?$FL?5Heal?5?$FN?5Skill?5Using?5@ ; `string'
PUBLIC	?SelupanAct_Heal@CRaklionSelupan@@QAEXXZ	; CRaklionSelupan::SelupanAct_Heal
;	COMDAT ??_C@_0CP@FPMFGMGG@?$FL?5RAKLION?5?$FN?$FL?5Heal?5?$FN?5Skill?5Using?5@
CONST	SEGMENT
??_C@_0CP@FPMFGMGG@?$FL?5RAKLION?5?$FN?$FL?5Heal?5?$FN?5Skill?5Using?5@ DB '['
	DB	' RAKLION ][ Heal ] Skill Using : Index(%d) %s', 00H ; `string'
; Function compile flags: /Odtp /ZI
CONST	ENDS
_TEXT	SEGMENT
_lpObj$ = -16						; size = 4
_tIndex$ = -12						; size = 4
_aIndex$ = -8						; size = 4
_this$ = -4						; size = 4
?SelupanAct_Heal@CRaklionSelupan@@QAEXXZ PROC		; CRaklionSelupan::SelupanAct_Heal
; _this$ = ecx

; 145  : {

  00510	55		 push	 ebp
  00511	8b ec		 mov	 ebp, esp
  00513	83 ec 50	 sub	 esp, 80			; 00000050H
  00516	53		 push	 ebx
  00517	56		 push	 esi
  00518	57		 push	 edi
  00519	89 4d fc	 mov	 DWORD PTR _this$[ebp], ecx

; 146  : 	int aIndex = this->GetSelupanObjIndex();

  0051c	8b 4d fc	 mov	 ecx, DWORD PTR _this$[ebp]
  0051f	e8 00 00 00 00	 call	 ?GetSelupanObjIndex@CRaklionSelupan@@QAEHXZ ; CRaklionSelupan::GetSelupanObjIndex
  00524	89 45 f8	 mov	 DWORD PTR _aIndex$[ebp], eax

; 147  : 	int tIndex = aIndex;

  00527	8b 45 f8	 mov	 eax, DWORD PTR _aIndex$[ebp]
  0052a	89 45 f4	 mov	 DWORD PTR _tIndex$[ebp], eax

; 148  : 
; 149  : 	LPOBJ lpObj = &gObj[aIndex];

  0052d	8b 45 f8	 mov	 eax, DWORD PTR _aIndex$[ebp]
  00530	69 c0 38 2b 00
	00		 imul	 eax, 11064		; 00002b38H
  00536	03 05 00 00 00
	00		 add	 eax, DWORD PTR ?gObj@@3PAUOBJECTSTRUCT@@A ; gObj
  0053c	89 45 f0	 mov	 DWORD PTR _lpObj$[ebp], eax

; 150  : 
; 151  : 	TMonsterSkillManager::UseMonsterSkill(aIndex, tIndex, 20, 5, NULL);

  0053f	6a 00		 push	 0
  00541	6a 05		 push	 5
  00543	6a 14		 push	 20			; 00000014H
  00545	8b 45 f4	 mov	 eax, DWORD PTR _tIndex$[ebp]
  00548	50		 push	 eax
  00549	8b 4d f8	 mov	 ecx, DWORD PTR _aIndex$[ebp]
  0054c	51		 push	 ecx
  0054d	e8 00 00 00 00	 call	 ?UseMonsterSkill@TMonsterSkillManager@@SAXHHHHPAVCMagicInf@@@Z ; TMonsterSkillManager::UseMonsterSkill
  00552	83 c4 14	 add	 esp, 20			; 00000014H

; 152  : 
; 153  : 	LogAddTD("[ RAKLION ][ Heal ] Skill Using : Index(%d) %s", aIndex,lpObj->Name);

  00555	8b 45 f0	 mov	 eax, DWORD PTR _lpObj$[ebp]
  00558	83 c0 77	 add	 eax, 119		; 00000077H
  0055b	50		 push	 eax
  0055c	8b 4d f8	 mov	 ecx, DWORD PTR _aIndex$[ebp]
  0055f	51		 push	 ecx
  00560	68 00 00 00 00	 push	 OFFSET ??_C@_0CP@FPMFGMGG@?$FL?5RAKLION?5?$FN?$FL?5Heal?5?$FN?5Skill?5Using?5@
  00565	ff 15 00 00 00
	00		 call	 DWORD PTR ?LogAddTD@@3P6AXPADZZA ; LogAddTD
  0056b	83 c4 0c	 add	 esp, 12			; 0000000cH

; 154  : }

  0056e	5f		 pop	 edi
  0056f	5e		 pop	 esi
  00570	5b		 pop	 ebx
  00571	8b e5		 mov	 esp, ebp
  00573	5d		 pop	 ebp
  00574	c3		 ret	 0
?SelupanAct_Heal@CRaklionSelupan@@QAEXXZ ENDP		; CRaklionSelupan::SelupanAct_Heal
_TEXT	ENDS
PUBLIC	??_C@_0DB@JDHBEKMA@?$FL?5RAKLION?5?$FN?$FL?5Freeze?5?$FN?5Skill?5Usin@ ; `string'
PUBLIC	?SelupanAct_Freeze@CRaklionSelupan@@QAEXXZ	; CRaklionSelupan::SelupanAct_Freeze
;	COMDAT ??_C@_0DB@JDHBEKMA@?$FL?5RAKLION?5?$FN?$FL?5Freeze?5?$FN?5Skill?5Usin@
CONST	SEGMENT
??_C@_0DB@JDHBEKMA@?$FL?5RAKLION?5?$FN?$FL?5Freeze?5?$FN?5Skill?5Usin@ DB '['
	DB	' RAKLION ][ Freeze ] Skill Using : Index(%d) %s', 00H ; `string'
; Function compile flags: /Odtp /ZI
CONST	ENDS
_TEXT	SEGMENT
_lpObj$ = -16						; size = 4
_tIndex$ = -12						; size = 4
_aIndex$ = -8						; size = 4
_this$ = -4						; size = 4
?SelupanAct_Freeze@CRaklionSelupan@@QAEXXZ PROC		; CRaklionSelupan::SelupanAct_Freeze
; _this$ = ecx

; 157  : {

  00580	55		 push	 ebp
  00581	8b ec		 mov	 ebp, esp
  00583	83 ec 50	 sub	 esp, 80			; 00000050H
  00586	53		 push	 ebx
  00587	56		 push	 esi
  00588	57		 push	 edi
  00589	89 4d fc	 mov	 DWORD PTR _this$[ebp], ecx

; 158  : 	int aIndex = this->GetSelupanObjIndex();

  0058c	8b 4d fc	 mov	 ecx, DWORD PTR _this$[ebp]
  0058f	e8 00 00 00 00	 call	 ?GetSelupanObjIndex@CRaklionSelupan@@QAEHXZ ; CRaklionSelupan::GetSelupanObjIndex
  00594	89 45 f8	 mov	 DWORD PTR _aIndex$[ebp], eax

; 159  : 	int tIndex = this->GetSelupanTargetIndex();

  00597	8b 4d fc	 mov	 ecx, DWORD PTR _this$[ebp]
  0059a	e8 00 00 00 00	 call	 ?GetSelupanTargetIndex@CRaklionSelupan@@QAEHXZ ; CRaklionSelupan::GetSelupanTargetIndex
  0059f	89 45 f4	 mov	 DWORD PTR _tIndex$[ebp], eax

; 160  : 
; 161  : 	LPOBJ lpObj = &gObj[aIndex];

  005a2	8b 45 f8	 mov	 eax, DWORD PTR _aIndex$[ebp]
  005a5	69 c0 38 2b 00
	00		 imul	 eax, 11064		; 00002b38H
  005ab	03 05 00 00 00
	00		 add	 eax, DWORD PTR ?gObj@@3PAUOBJECTSTRUCT@@A ; gObj
  005b1	89 45 f0	 mov	 DWORD PTR _lpObj$[ebp], eax

; 162  : 
; 163  : 	if ( tIndex == -1 )

  005b4	83 7d f4 ff	 cmp	 DWORD PTR _tIndex$[ebp], -1
  005b8	75 1e		 jne	 SHORT $LN2@SelupanAct@5

; 164  : 	{
; 165  : 		tIndex = aIndex;

  005ba	8b 45 f8	 mov	 eax, DWORD PTR _aIndex$[ebp]
  005bd	89 45 f4	 mov	 DWORD PTR _tIndex$[ebp], eax

; 166  : 		TMonsterSkillManager::UseMonsterSkill(aIndex, tIndex, 1, 7, NULL);

  005c0	6a 00		 push	 0
  005c2	6a 07		 push	 7
  005c4	6a 01		 push	 1
  005c6	8b 45 f4	 mov	 eax, DWORD PTR _tIndex$[ebp]
  005c9	50		 push	 eax
  005ca	8b 4d f8	 mov	 ecx, DWORD PTR _aIndex$[ebp]
  005cd	51		 push	 ecx
  005ce	e8 00 00 00 00	 call	 ?UseMonsterSkill@TMonsterSkillManager@@SAXHHHHPAVCMagicInf@@@Z ; TMonsterSkillManager::UseMonsterSkill
  005d3	83 c4 14	 add	 esp, 20			; 00000014H

; 167  : 	}
; 168  : 	else

  005d6	eb 16		 jmp	 SHORT $LN1@SelupanAct@5
$LN2@SelupanAct@5:

; 169  : 	{
; 170  : 		TMonsterSkillManager::UseMonsterSkill(aIndex, tIndex, 1, 6, NULL);

  005d8	6a 00		 push	 0
  005da	6a 06		 push	 6
  005dc	6a 01		 push	 1
  005de	8b 45 f4	 mov	 eax, DWORD PTR _tIndex$[ebp]
  005e1	50		 push	 eax
  005e2	8b 4d f8	 mov	 ecx, DWORD PTR _aIndex$[ebp]
  005e5	51		 push	 ecx
  005e6	e8 00 00 00 00	 call	 ?UseMonsterSkill@TMonsterSkillManager@@SAXHHHHPAVCMagicInf@@@Z ; TMonsterSkillManager::UseMonsterSkill
  005eb	83 c4 14	 add	 esp, 20			; 00000014H
$LN1@SelupanAct@5:

; 171  : 	}
; 172  : 	LogAddTD("[ RAKLION ][ Freeze ] Skill Using : Index(%d) %s", aIndex,lpObj->Name);

  005ee	8b 45 f0	 mov	 eax, DWORD PTR _lpObj$[ebp]
  005f1	83 c0 77	 add	 eax, 119		; 00000077H
  005f4	50		 push	 eax
  005f5	8b 4d f8	 mov	 ecx, DWORD PTR _aIndex$[ebp]
  005f8	51		 push	 ecx
  005f9	68 00 00 00 00	 push	 OFFSET ??_C@_0DB@JDHBEKMA@?$FL?5RAKLION?5?$FN?$FL?5Freeze?5?$FN?5Skill?5Usin@
  005fe	ff 15 00 00 00
	00		 call	 DWORD PTR ?LogAddTD@@3P6AXPADZZA ; LogAddTD
  00604	83 c4 0c	 add	 esp, 12			; 0000000cH

; 173  : }

  00607	5f		 pop	 edi
  00608	5e		 pop	 esi
  00609	5b		 pop	 ebx
  0060a	8b e5		 mov	 esp, ebp
  0060c	5d		 pop	 ebp
  0060d	c3		 ret	 0
?SelupanAct_Freeze@CRaklionSelupan@@QAEXXZ ENDP		; CRaklionSelupan::SelupanAct_Freeze
_TEXT	ENDS
PUBLIC	??_C@_0DD@PGAKKADA@?$FL?5RAKLION?5?$FN?$FL?5Teleport?5?$FN?5Skill?5Us@ ; `string'
PUBLIC	?SelupanAct_Teleport@CRaklionSelupan@@QAEXXZ	; CRaklionSelupan::SelupanAct_Teleport
;	COMDAT ??_C@_0DD@PGAKKADA@?$FL?5RAKLION?5?$FN?$FL?5Teleport?5?$FN?5Skill?5Us@
CONST	SEGMENT
??_C@_0DD@PGAKKADA@?$FL?5RAKLION?5?$FN?$FL?5Teleport?5?$FN?5Skill?5Us@ DB '['
	DB	' RAKLION ][ Teleport ] Skill Using : Index(%d) %s', 00H ; `string'
; Function compile flags: /Odtp /ZI
CONST	ENDS
_TEXT	SEGMENT
_lpTargetObj$ = -20					; size = 4
_lpObj$ = -16						; size = 4
_tIndex$ = -12						; size = 4
_aIndex$ = -8						; size = 4
_this$ = -4						; size = 4
?SelupanAct_Teleport@CRaklionSelupan@@QAEXXZ PROC	; CRaklionSelupan::SelupanAct_Teleport
; _this$ = ecx

; 176  : {

  00610	55		 push	 ebp
  00611	8b ec		 mov	 ebp, esp
  00613	83 ec 54	 sub	 esp, 84			; 00000054H
  00616	53		 push	 ebx
  00617	56		 push	 esi
  00618	57		 push	 edi
  00619	89 4d fc	 mov	 DWORD PTR _this$[ebp], ecx

; 177  : 	int aIndex = this->GetSelupanObjIndex();

  0061c	8b 4d fc	 mov	 ecx, DWORD PTR _this$[ebp]
  0061f	e8 00 00 00 00	 call	 ?GetSelupanObjIndex@CRaklionSelupan@@QAEHXZ ; CRaklionSelupan::GetSelupanObjIndex
  00624	89 45 f8	 mov	 DWORD PTR _aIndex$[ebp], eax

; 178  : 	int tIndex = this->GetSelupanTargetIndex();

  00627	8b 4d fc	 mov	 ecx, DWORD PTR _this$[ebp]
  0062a	e8 00 00 00 00	 call	 ?GetSelupanTargetIndex@CRaklionSelupan@@QAEHXZ ; CRaklionSelupan::GetSelupanTargetIndex
  0062f	89 45 f4	 mov	 DWORD PTR _tIndex$[ebp], eax

; 179  : 
; 180  : 	LPOBJ lpObj = &gObj[aIndex];

  00632	8b 45 f8	 mov	 eax, DWORD PTR _aIndex$[ebp]
  00635	69 c0 38 2b 00
	00		 imul	 eax, 11064		; 00002b38H
  0063b	03 05 00 00 00
	00		 add	 eax, DWORD PTR ?gObj@@3PAUOBJECTSTRUCT@@A ; gObj
  00641	89 45 f0	 mov	 DWORD PTR _lpObj$[ebp], eax

; 181  : 	LPOBJ lpTargetObj = &gObj[tIndex];

  00644	8b 45 f4	 mov	 eax, DWORD PTR _tIndex$[ebp]
  00647	69 c0 38 2b 00
	00		 imul	 eax, 11064		; 00002b38H
  0064d	03 05 00 00 00
	00		 add	 eax, DWORD PTR ?gObj@@3PAUOBJECTSTRUCT@@A ; gObj
  00653	89 45 ec	 mov	 DWORD PTR _lpTargetObj$[ebp], eax

; 182  : 	
; 183  : 	if ( tIndex < 0 )

  00656	83 7d f4 00	 cmp	 DWORD PTR _tIndex$[ebp], 0
  0065a	7d 06		 jge	 SHORT $LN1@SelupanAct@6

; 184  : 	{
; 185  : 		tIndex = aIndex;

  0065c	8b 45 f8	 mov	 eax, DWORD PTR _aIndex$[ebp]
  0065f	89 45 f4	 mov	 DWORD PTR _tIndex$[ebp], eax
$LN1@SelupanAct@6:

; 186  : 	}
; 187  : 
; 188  : 	TMonsterSkillManager::UseMonsterSkill(aIndex, tIndex, 1, 7, NULL);

  00662	6a 00		 push	 0
  00664	6a 07		 push	 7
  00666	6a 01		 push	 1
  00668	8b 45 f4	 mov	 eax, DWORD PTR _tIndex$[ebp]
  0066b	50		 push	 eax
  0066c	8b 4d f8	 mov	 ecx, DWORD PTR _aIndex$[ebp]
  0066f	51		 push	 ecx
  00670	e8 00 00 00 00	 call	 ?UseMonsterSkill@TMonsterSkillManager@@SAXHHHHPAVCMagicInf@@@Z ; TMonsterSkillManager::UseMonsterSkill
  00675	83 c4 14	 add	 esp, 20			; 00000014H

; 189  : 	LogAddTD("[ RAKLION ][ Teleport ] Skill Using : Index(%d) %s", aIndex,lpObj->Name);

  00678	8b 45 f0	 mov	 eax, DWORD PTR _lpObj$[ebp]
  0067b	83 c0 77	 add	 eax, 119		; 00000077H
  0067e	50		 push	 eax
  0067f	8b 4d f8	 mov	 ecx, DWORD PTR _aIndex$[ebp]
  00682	51		 push	 ecx
  00683	68 00 00 00 00	 push	 OFFSET ??_C@_0DD@PGAKKADA@?$FL?5RAKLION?5?$FN?$FL?5Teleport?5?$FN?5Skill?5Us@
  00688	ff 15 00 00 00
	00		 call	 DWORD PTR ?LogAddTD@@3P6AXPADZZA ; LogAddTD
  0068e	83 c4 0c	 add	 esp, 12			; 0000000cH

; 190  : }

  00691	5f		 pop	 edi
  00692	5e		 pop	 esi
  00693	5b		 pop	 ebx
  00694	8b e5		 mov	 esp, ebp
  00696	5d		 pop	 ebp
  00697	c3		 ret	 0
?SelupanAct_Teleport@CRaklionSelupan@@QAEXXZ ENDP	; CRaklionSelupan::SelupanAct_Teleport
_TEXT	ENDS
PUBLIC	??_C@_0DI@HEJHANHK@?$FL?5RAKLION?5?$FN?$FL?5Invincibility?5?$FN?5Ski@ ; `string'
PUBLIC	?SelupanAct_Invincibility@CRaklionSelupan@@QAEXXZ ; CRaklionSelupan::SelupanAct_Invincibility
;	COMDAT ??_C@_0DI@HEJHANHK@?$FL?5RAKLION?5?$FN?$FL?5Invincibility?5?$FN?5Ski@
CONST	SEGMENT
??_C@_0DI@HEJHANHK@?$FL?5RAKLION?5?$FN?$FL?5Invincibility?5?$FN?5Ski@ DB '['
	DB	' RAKLION ][ Invincibility ] Skill Using : Index(%d) %s', 00H ; `string'
; Function compile flags: /Odtp /ZI
CONST	ENDS
_TEXT	SEGMENT
_lpObj$ = -16						; size = 4
_tIndex$ = -12						; size = 4
_aIndex$ = -8						; size = 4
_this$ = -4						; size = 4
?SelupanAct_Invincibility@CRaklionSelupan@@QAEXXZ PROC	; CRaklionSelupan::SelupanAct_Invincibility
; _this$ = ecx

; 193  : {

  006a0	55		 push	 ebp
  006a1	8b ec		 mov	 ebp, esp
  006a3	83 ec 50	 sub	 esp, 80			; 00000050H
  006a6	53		 push	 ebx
  006a7	56		 push	 esi
  006a8	57		 push	 edi
  006a9	89 4d fc	 mov	 DWORD PTR _this$[ebp], ecx

; 194  : 	int aIndex = this->GetSelupanObjIndex();

  006ac	8b 4d fc	 mov	 ecx, DWORD PTR _this$[ebp]
  006af	e8 00 00 00 00	 call	 ?GetSelupanObjIndex@CRaklionSelupan@@QAEHXZ ; CRaklionSelupan::GetSelupanObjIndex
  006b4	89 45 f8	 mov	 DWORD PTR _aIndex$[ebp], eax

; 195  : 	int tIndex = aIndex;

  006b7	8b 45 f8	 mov	 eax, DWORD PTR _aIndex$[ebp]
  006ba	89 45 f4	 mov	 DWORD PTR _tIndex$[ebp], eax

; 196  : 
; 197  : 	LPOBJ lpObj = &gObj[aIndex];

  006bd	8b 45 f8	 mov	 eax, DWORD PTR _aIndex$[ebp]
  006c0	69 c0 38 2b 00
	00		 imul	 eax, 11064		; 00002b38H
  006c6	03 05 00 00 00
	00		 add	 eax, DWORD PTR ?gObj@@3PAUOBJECTSTRUCT@@A ; gObj
  006cc	89 45 f0	 mov	 DWORD PTR _lpObj$[ebp], eax

; 198  : 	
; 199  : 	TMonsterSkillManager::UseMonsterSkill(aIndex, tIndex, 10, 8, NULL);

  006cf	6a 00		 push	 0
  006d1	6a 08		 push	 8
  006d3	6a 0a		 push	 10			; 0000000aH
  006d5	8b 45 f4	 mov	 eax, DWORD PTR _tIndex$[ebp]
  006d8	50		 push	 eax
  006d9	8b 4d f8	 mov	 ecx, DWORD PTR _aIndex$[ebp]
  006dc	51		 push	 ecx
  006dd	e8 00 00 00 00	 call	 ?UseMonsterSkill@TMonsterSkillManager@@SAXHHHHPAVCMagicInf@@@Z ; TMonsterSkillManager::UseMonsterSkill
  006e2	83 c4 14	 add	 esp, 20			; 00000014H

; 200  : 	
; 201  : 	LogAddTD("[ RAKLION ][ Invincibility ] Skill Using : Index(%d) %s", aIndex,lpObj->Name);

  006e5	8b 45 f0	 mov	 eax, DWORD PTR _lpObj$[ebp]
  006e8	83 c0 77	 add	 eax, 119		; 00000077H
  006eb	50		 push	 eax
  006ec	8b 4d f8	 mov	 ecx, DWORD PTR _aIndex$[ebp]
  006ef	51		 push	 ecx
  006f0	68 00 00 00 00	 push	 OFFSET ??_C@_0DI@HEJHANHK@?$FL?5RAKLION?5?$FN?$FL?5Invincibility?5?$FN?5Ski@
  006f5	ff 15 00 00 00
	00		 call	 DWORD PTR ?LogAddTD@@3P6AXPADZZA ; LogAddTD
  006fb	83 c4 0c	 add	 esp, 12			; 0000000cH

; 202  : 
; 203  : }

  006fe	5f		 pop	 edi
  006ff	5e		 pop	 esi
  00700	5b		 pop	 ebx
  00701	8b e5		 mov	 esp, ebp
  00703	5d		 pop	 ebp
  00704	c3		 ret	 0
?SelupanAct_Invincibility@CRaklionSelupan@@QAEXXZ ENDP	; CRaklionSelupan::SelupanAct_Invincibility
_TEXT	ENDS
PUBLIC	??_C@_0DK@MIJHEJFK@?$FL?5RAKLION?5?$FN?$FL?5Berserk?5Cancel?5?$FN?5Mi@ ; `string'
PUBLIC	?SelupanAct_BerserkCansel@CRaklionSelupan@@QAEXXZ ; CRaklionSelupan::SelupanAct_BerserkCansel
;	COMDAT ??_C@_0DK@MIJHEJFK@?$FL?5RAKLION?5?$FN?$FL?5Berserk?5Cancel?5?$FN?5Mi@
CONST	SEGMENT
??_C@_0DK@MIJHEJFK@?$FL?5RAKLION?5?$FN?$FL?5Berserk?5Cancel?5?$FN?5Mi@ DB '['
	DB	' RAKLION ][ Berserk Cancel ] MinDamage(%d) Damage(%d~%d)', 00H ; `string'
; Function compile flags: /Odtp /ZI
CONST	ENDS
_TEXT	SEGMENT
_lpObj$ = -12						; size = 4
_aIndex$ = -8						; size = 4
_this$ = -4						; size = 4
?SelupanAct_BerserkCansel@CRaklionSelupan@@QAEXXZ PROC	; CRaklionSelupan::SelupanAct_BerserkCansel
; _this$ = ecx

; 206  : {

  00710	55		 push	 ebp
  00711	8b ec		 mov	 ebp, esp
  00713	83 ec 4c	 sub	 esp, 76			; 0000004cH
  00716	53		 push	 ebx
  00717	56		 push	 esi
  00718	57		 push	 edi
  00719	89 4d fc	 mov	 DWORD PTR _this$[ebp], ecx

; 207  : 	int aIndex = this->GetSelupanObjIndex();

  0071c	8b 4d fc	 mov	 ecx, DWORD PTR _this$[ebp]
  0071f	e8 00 00 00 00	 call	 ?GetSelupanObjIndex@CRaklionSelupan@@QAEHXZ ; CRaklionSelupan::GetSelupanObjIndex
  00724	89 45 f8	 mov	 DWORD PTR _aIndex$[ebp], eax

; 208  : 	
; 209  : 	LPOBJ lpObj = &gObj[aIndex];

  00727	8b 45 f8	 mov	 eax, DWORD PTR _aIndex$[ebp]
  0072a	69 c0 38 2b 00
	00		 imul	 eax, 11064		; 00002b38H
  00730	03 05 00 00 00
	00		 add	 eax, DWORD PTR ?gObj@@3PAUOBJECTSTRUCT@@A ; gObj
  00736	89 45 f4	 mov	 DWORD PTR _lpObj$[ebp], eax

; 210  : 	
; 211  : 	lpObj->m_AttackDamageMin = this->m_iBossAttackMin;

  00739	8b 45 f4	 mov	 eax, DWORD PTR _lpObj$[ebp]
  0073c	8b 4d fc	 mov	 ecx, DWORD PTR _this$[ebp]
  0073f	8b 91 98 0c 00
	00		 mov	 edx, DWORD PTR [ecx+3224]
  00745	89 90 60 04 00
	00		 mov	 DWORD PTR [eax+1120], edx

; 212  : 	lpObj->m_AttackDamageMax = this->m_iBossAttackMax;

  0074b	8b 45 f4	 mov	 eax, DWORD PTR _lpObj$[ebp]
  0074e	8b 4d fc	 mov	 ecx, DWORD PTR _this$[ebp]
  00751	8b 91 9c 0c 00
	00		 mov	 edx, DWORD PTR [ecx+3228]
  00757	89 90 64 04 00
	00		 mov	 DWORD PTR [eax+1124], edx

; 213  : 	
; 214  : 	LogAddTD("[ RAKLION ][ Berserk Cancel ] MinDamage(%d) Damage(%d~%d)",lpObj->m_AttackDamageMin,lpObj->m_AttackDamageMin,lpObj->m_AttackDamageMax);

  0075d	8b 45 f4	 mov	 eax, DWORD PTR _lpObj$[ebp]
  00760	8b 88 64 04 00
	00		 mov	 ecx, DWORD PTR [eax+1124]
  00766	51		 push	 ecx
  00767	8b 55 f4	 mov	 edx, DWORD PTR _lpObj$[ebp]
  0076a	8b 82 60 04 00
	00		 mov	 eax, DWORD PTR [edx+1120]
  00770	50		 push	 eax
  00771	8b 4d f4	 mov	 ecx, DWORD PTR _lpObj$[ebp]
  00774	8b 91 60 04 00
	00		 mov	 edx, DWORD PTR [ecx+1120]
  0077a	52		 push	 edx
  0077b	68 00 00 00 00	 push	 OFFSET ??_C@_0DK@MIJHEJFK@?$FL?5RAKLION?5?$FN?$FL?5Berserk?5Cancel?5?$FN?5Mi@
  00780	ff 15 00 00 00
	00		 call	 DWORD PTR ?LogAddTD@@3P6AXPADZZA ; LogAddTD
  00786	83 c4 10	 add	 esp, 16			; 00000010H

; 215  : 
; 216  : }

  00789	5f		 pop	 edi
  0078a	5e		 pop	 esi
  0078b	5b		 pop	 ebx
  0078c	8b e5		 mov	 esp, ebp
  0078e	5d		 pop	 ebp
  0078f	c3		 ret	 0
?SelupanAct_BerserkCansel@CRaklionSelupan@@QAEXXZ ENDP	; CRaklionSelupan::SelupanAct_BerserkCansel
_TEXT	ENDS
PUBLIC	??_C@_0DO@CBMKDMPF@?$FL?5RAKLION?5?$FN?$FL?5Berserk1?5?$FN?5Skill?5Us@ ; `string'
PUBLIC	?SelupanAct_Berserk1@CRaklionSelupan@@QAEXXZ	; CRaklionSelupan::SelupanAct_Berserk1
;	COMDAT ??_C@_0DO@CBMKDMPF@?$FL?5RAKLION?5?$FN?$FL?5Berserk1?5?$FN?5Skill?5Us@
CONST	SEGMENT
??_C@_0DO@CBMKDMPF@?$FL?5RAKLION?5?$FN?$FL?5Berserk1?5?$FN?5Skill?5Us@ DB '['
	DB	' RAKLION ][ Berserk1 ] Skill Using : Index(%d) Damage(%d~%d)', 00H ; `string'
; Function compile flags: /Odtp /ZI
CONST	ENDS
_TEXT	SEGMENT
_loc5$ = -20						; size = 4
_lpObj$ = -16						; size = 4
_tIndex$ = -12						; size = 4
_aIndex$ = -8						; size = 4
_this$ = -4						; size = 4
?SelupanAct_Berserk1@CRaklionSelupan@@QAEXXZ PROC	; CRaklionSelupan::SelupanAct_Berserk1
; _this$ = ecx

; 219  : {

  00790	55		 push	 ebp
  00791	8b ec		 mov	 ebp, esp
  00793	83 ec 54	 sub	 esp, 84			; 00000054H
  00796	53		 push	 ebx
  00797	56		 push	 esi
  00798	57		 push	 edi
  00799	89 4d fc	 mov	 DWORD PTR _this$[ebp], ecx

; 220  : 	int aIndex = this->GetSelupanObjIndex();

  0079c	8b 4d fc	 mov	 ecx, DWORD PTR _this$[ebp]
  0079f	e8 00 00 00 00	 call	 ?GetSelupanObjIndex@CRaklionSelupan@@QAEHXZ ; CRaklionSelupan::GetSelupanObjIndex
  007a4	89 45 f8	 mov	 DWORD PTR _aIndex$[ebp], eax

; 221  : 	int tIndex = aIndex;

  007a7	8b 45 f8	 mov	 eax, DWORD PTR _aIndex$[ebp]
  007aa	89 45 f4	 mov	 DWORD PTR _tIndex$[ebp], eax

; 222  : 
; 223  : 	LPOBJ lpObj = &gObj[aIndex];

  007ad	8b 45 f8	 mov	 eax, DWORD PTR _aIndex$[ebp]
  007b0	69 c0 38 2b 00
	00		 imul	 eax, 11064		; 00002b38H
  007b6	03 05 00 00 00
	00		 add	 eax, DWORD PTR ?gObj@@3PAUOBJECTSTRUCT@@A ; gObj
  007bc	89 45 f0	 mov	 DWORD PTR _lpObj$[ebp], eax

; 224  : 
; 225  : 	TMonsterSkillManager::UseMonsterSkill(aIndex, tIndex, 1, 9, NULL);

  007bf	6a 00		 push	 0
  007c1	6a 09		 push	 9
  007c3	6a 01		 push	 1
  007c5	8b 45 f4	 mov	 eax, DWORD PTR _tIndex$[ebp]
  007c8	50		 push	 eax
  007c9	8b 4d f8	 mov	 ecx, DWORD PTR _aIndex$[ebp]
  007cc	51		 push	 ecx
  007cd	e8 00 00 00 00	 call	 ?UseMonsterSkill@TMonsterSkillManager@@SAXHHHHPAVCMagicInf@@@Z ; TMonsterSkillManager::UseMonsterSkill
  007d2	83 c4 14	 add	 esp, 20			; 00000014H

; 226  : 	
; 227  : 	this->m_iBerserkIndex = 1;

  007d5	8b 45 fc	 mov	 eax, DWORD PTR _this$[ebp]
  007d8	c7 80 94 0c 00
	00 01 00 00 00	 mov	 DWORD PTR [eax+3220], 1

; 228  : 
; 229  : 	int loc5 = 0;

  007e2	c7 45 ec 00 00
	00 00		 mov	 DWORD PTR _loc5$[ebp], 0

; 230  : 	loc5 = this->m_iBerserkIndex * lpObj->m_MonsterSkillElementInfo.m_iSkillElementAttack;

  007e9	8b 45 fc	 mov	 eax, DWORD PTR _this$[ebp]
  007ec	8b 4d f0	 mov	 ecx, DWORD PTR _lpObj$[ebp]
  007ef	8b 90 94 0c 00
	00		 mov	 edx, DWORD PTR [eax+3220]
  007f5	0f af 91 28 1c
	00 00		 imul	 edx, DWORD PTR [ecx+7208]
  007fc	89 55 ec	 mov	 DWORD PTR _loc5$[ebp], edx

; 231  : 
; 232  : 	lpObj->m_AttackDamageMin = this->m_iBossAttackMin + loc5;

  007ff	8b 45 fc	 mov	 eax, DWORD PTR _this$[ebp]
  00802	8b 88 98 0c 00
	00		 mov	 ecx, DWORD PTR [eax+3224]
  00808	03 4d ec	 add	 ecx, DWORD PTR _loc5$[ebp]
  0080b	8b 55 f0	 mov	 edx, DWORD PTR _lpObj$[ebp]
  0080e	89 8a 60 04 00
	00		 mov	 DWORD PTR [edx+1120], ecx

; 233  : 	lpObj->m_AttackDamageMax = this->m_iBossAttackMax + loc5;

  00814	8b 45 fc	 mov	 eax, DWORD PTR _this$[ebp]
  00817	8b 88 9c 0c 00
	00		 mov	 ecx, DWORD PTR [eax+3228]
  0081d	03 4d ec	 add	 ecx, DWORD PTR _loc5$[ebp]
  00820	8b 55 f0	 mov	 edx, DWORD PTR _lpObj$[ebp]
  00823	89 8a 64 04 00
	00		 mov	 DWORD PTR [edx+1124], ecx

; 234  : 
; 235  : 
; 236  : 	LogAddTD("[ RAKLION ][ Berserk1 ] Skill Using : Index(%d) Damage(%d~%d)",aIndex,lpObj->m_AttackDamageMin,lpObj->m_AttackDamageMax);

  00829	8b 45 f0	 mov	 eax, DWORD PTR _lpObj$[ebp]
  0082c	8b 88 64 04 00
	00		 mov	 ecx, DWORD PTR [eax+1124]
  00832	51		 push	 ecx
  00833	8b 55 f0	 mov	 edx, DWORD PTR _lpObj$[ebp]
  00836	8b 82 60 04 00
	00		 mov	 eax, DWORD PTR [edx+1120]
  0083c	50		 push	 eax
  0083d	8b 4d f8	 mov	 ecx, DWORD PTR _aIndex$[ebp]
  00840	51		 push	 ecx
  00841	68 00 00 00 00	 push	 OFFSET ??_C@_0DO@CBMKDMPF@?$FL?5RAKLION?5?$FN?$FL?5Berserk1?5?$FN?5Skill?5Us@
  00846	ff 15 00 00 00
	00		 call	 DWORD PTR ?LogAddTD@@3P6AXPADZZA ; LogAddTD
  0084c	83 c4 10	 add	 esp, 16			; 00000010H

; 237  : }

  0084f	5f		 pop	 edi
  00850	5e		 pop	 esi
  00851	5b		 pop	 ebx
  00852	8b e5		 mov	 esp, ebp
  00854	5d		 pop	 ebp
  00855	c3		 ret	 0
?SelupanAct_Berserk1@CRaklionSelupan@@QAEXXZ ENDP	; CRaklionSelupan::SelupanAct_Berserk1
_TEXT	ENDS
PUBLIC	??_C@_0DO@BJPBLHIG@?$FL?5RAKLION?5?$FN?$FL?5Berserk2?5?$FN?5Skill?5Us@ ; `string'
PUBLIC	?SelupanAct_Berserk2@CRaklionSelupan@@QAEXXZ	; CRaklionSelupan::SelupanAct_Berserk2
;	COMDAT ??_C@_0DO@BJPBLHIG@?$FL?5RAKLION?5?$FN?$FL?5Berserk2?5?$FN?5Skill?5Us@
CONST	SEGMENT
??_C@_0DO@BJPBLHIG@?$FL?5RAKLION?5?$FN?$FL?5Berserk2?5?$FN?5Skill?5Us@ DB '['
	DB	' RAKLION ][ Berserk2 ] Skill Using : Index(%d) Damage(%d~%d)', 00H ; `string'
; Function compile flags: /Odtp /ZI
CONST	ENDS
_TEXT	SEGMENT
_loc5$ = -20						; size = 4
_lpObj$ = -16						; size = 4
_tIndex$ = -12						; size = 4
_aIndex$ = -8						; size = 4
_this$ = -4						; size = 4
?SelupanAct_Berserk2@CRaklionSelupan@@QAEXXZ PROC	; CRaklionSelupan::SelupanAct_Berserk2
; _this$ = ecx

; 240  : {

  00860	55		 push	 ebp
  00861	8b ec		 mov	 ebp, esp
  00863	83 ec 54	 sub	 esp, 84			; 00000054H
  00866	53		 push	 ebx
  00867	56		 push	 esi
  00868	57		 push	 edi
  00869	89 4d fc	 mov	 DWORD PTR _this$[ebp], ecx

; 241  : 	int aIndex = this->GetSelupanObjIndex();

  0086c	8b 4d fc	 mov	 ecx, DWORD PTR _this$[ebp]
  0086f	e8 00 00 00 00	 call	 ?GetSelupanObjIndex@CRaklionSelupan@@QAEHXZ ; CRaklionSelupan::GetSelupanObjIndex
  00874	89 45 f8	 mov	 DWORD PTR _aIndex$[ebp], eax

; 242  : 	int tIndex = aIndex;

  00877	8b 45 f8	 mov	 eax, DWORD PTR _aIndex$[ebp]
  0087a	89 45 f4	 mov	 DWORD PTR _tIndex$[ebp], eax

; 243  : 
; 244  : 	LPOBJ lpObj = &gObj[aIndex];

  0087d	8b 45 f8	 mov	 eax, DWORD PTR _aIndex$[ebp]
  00880	69 c0 38 2b 00
	00		 imul	 eax, 11064		; 00002b38H
  00886	03 05 00 00 00
	00		 add	 eax, DWORD PTR ?gObj@@3PAUOBJECTSTRUCT@@A ; gObj
  0088c	89 45 f0	 mov	 DWORD PTR _lpObj$[ebp], eax

; 245  : 
; 246  : 	TMonsterSkillManager::UseMonsterSkill(aIndex, tIndex, 1, 9, NULL);

  0088f	6a 00		 push	 0
  00891	6a 09		 push	 9
  00893	6a 01		 push	 1
  00895	8b 45 f4	 mov	 eax, DWORD PTR _tIndex$[ebp]
  00898	50		 push	 eax
  00899	8b 4d f8	 mov	 ecx, DWORD PTR _aIndex$[ebp]
  0089c	51		 push	 ecx
  0089d	e8 00 00 00 00	 call	 ?UseMonsterSkill@TMonsterSkillManager@@SAXHHHHPAVCMagicInf@@@Z ; TMonsterSkillManager::UseMonsterSkill
  008a2	83 c4 14	 add	 esp, 20			; 00000014H

; 247  : 	
; 248  : 	this->m_iBerserkIndex = 2;

  008a5	8b 45 fc	 mov	 eax, DWORD PTR _this$[ebp]
  008a8	c7 80 94 0c 00
	00 02 00 00 00	 mov	 DWORD PTR [eax+3220], 2

; 249  : 
; 250  : 	int loc5 = 0;

  008b2	c7 45 ec 00 00
	00 00		 mov	 DWORD PTR _loc5$[ebp], 0

; 251  : 	loc5 = this->m_iBerserkIndex * lpObj->m_MonsterSkillElementInfo.m_iSkillElementAttack;

  008b9	8b 45 fc	 mov	 eax, DWORD PTR _this$[ebp]
  008bc	8b 4d f0	 mov	 ecx, DWORD PTR _lpObj$[ebp]
  008bf	8b 90 94 0c 00
	00		 mov	 edx, DWORD PTR [eax+3220]
  008c5	0f af 91 28 1c
	00 00		 imul	 edx, DWORD PTR [ecx+7208]
  008cc	89 55 ec	 mov	 DWORD PTR _loc5$[ebp], edx

; 252  : 
; 253  : 	lpObj->m_AttackDamageMin = this->m_iBossAttackMin + loc5;

  008cf	8b 45 fc	 mov	 eax, DWORD PTR _this$[ebp]
  008d2	8b 88 98 0c 00
	00		 mov	 ecx, DWORD PTR [eax+3224]
  008d8	03 4d ec	 add	 ecx, DWORD PTR _loc5$[ebp]
  008db	8b 55 f0	 mov	 edx, DWORD PTR _lpObj$[ebp]
  008de	89 8a 60 04 00
	00		 mov	 DWORD PTR [edx+1120], ecx

; 254  : 	lpObj->m_AttackDamageMax = this->m_iBossAttackMax + loc5;

  008e4	8b 45 fc	 mov	 eax, DWORD PTR _this$[ebp]
  008e7	8b 88 9c 0c 00
	00		 mov	 ecx, DWORD PTR [eax+3228]
  008ed	03 4d ec	 add	 ecx, DWORD PTR _loc5$[ebp]
  008f0	8b 55 f0	 mov	 edx, DWORD PTR _lpObj$[ebp]
  008f3	89 8a 64 04 00
	00		 mov	 DWORD PTR [edx+1124], ecx

; 255  : 
; 256  : 
; 257  : 	LogAddTD("[ RAKLION ][ Berserk2 ] Skill Using : Index(%d) Damage(%d~%d)",aIndex,lpObj->m_AttackDamageMin,lpObj->m_AttackDamageMax);

  008f9	8b 45 f0	 mov	 eax, DWORD PTR _lpObj$[ebp]
  008fc	8b 88 64 04 00
	00		 mov	 ecx, DWORD PTR [eax+1124]
  00902	51		 push	 ecx
  00903	8b 55 f0	 mov	 edx, DWORD PTR _lpObj$[ebp]
  00906	8b 82 60 04 00
	00		 mov	 eax, DWORD PTR [edx+1120]
  0090c	50		 push	 eax
  0090d	8b 4d f8	 mov	 ecx, DWORD PTR _aIndex$[ebp]
  00910	51		 push	 ecx
  00911	68 00 00 00 00	 push	 OFFSET ??_C@_0DO@BJPBLHIG@?$FL?5RAKLION?5?$FN?$FL?5Berserk2?5?$FN?5Skill?5Us@
  00916	ff 15 00 00 00
	00		 call	 DWORD PTR ?LogAddTD@@3P6AXPADZZA ; LogAddTD
  0091c	83 c4 10	 add	 esp, 16			; 00000010H

; 258  : }

  0091f	5f		 pop	 edi
  00920	5e		 pop	 esi
  00921	5b		 pop	 ebx
  00922	8b e5		 mov	 esp, ebp
  00924	5d		 pop	 ebp
  00925	c3		 ret	 0
?SelupanAct_Berserk2@CRaklionSelupan@@QAEXXZ ENDP	; CRaklionSelupan::SelupanAct_Berserk2
_TEXT	ENDS
PUBLIC	??_C@_0DO@LIMIDDGI@?$FL?5RAKLION?5?$FN?$FL?5Berserk3?5?$FN?5Skill?5Us@ ; `string'
PUBLIC	?SelupanAct_Berserk3@CRaklionSelupan@@QAEXXZ	; CRaklionSelupan::SelupanAct_Berserk3
;	COMDAT ??_C@_0DO@LIMIDDGI@?$FL?5RAKLION?5?$FN?$FL?5Berserk3?5?$FN?5Skill?5Us@
CONST	SEGMENT
??_C@_0DO@LIMIDDGI@?$FL?5RAKLION?5?$FN?$FL?5Berserk3?5?$FN?5Skill?5Us@ DB '['
	DB	' RAKLION ][ Berserk3 ] Skill Using : Index(%d) Damage(%d~%d)', 00H ; `string'
; Function compile flags: /Odtp /ZI
CONST	ENDS
_TEXT	SEGMENT
_loc5$ = -20						; size = 4
_lpObj$ = -16						; size = 4
_tIndex$ = -12						; size = 4
_aIndex$ = -8						; size = 4
_this$ = -4						; size = 4
?SelupanAct_Berserk3@CRaklionSelupan@@QAEXXZ PROC	; CRaklionSelupan::SelupanAct_Berserk3
; _this$ = ecx

; 261  : {

  00930	55		 push	 ebp
  00931	8b ec		 mov	 ebp, esp
  00933	83 ec 54	 sub	 esp, 84			; 00000054H
  00936	53		 push	 ebx
  00937	56		 push	 esi
  00938	57		 push	 edi
  00939	89 4d fc	 mov	 DWORD PTR _this$[ebp], ecx

; 262  : 	int aIndex = this->GetSelupanObjIndex();

  0093c	8b 4d fc	 mov	 ecx, DWORD PTR _this$[ebp]
  0093f	e8 00 00 00 00	 call	 ?GetSelupanObjIndex@CRaklionSelupan@@QAEHXZ ; CRaklionSelupan::GetSelupanObjIndex
  00944	89 45 f8	 mov	 DWORD PTR _aIndex$[ebp], eax

; 263  : 	int tIndex = aIndex;

  00947	8b 45 f8	 mov	 eax, DWORD PTR _aIndex$[ebp]
  0094a	89 45 f4	 mov	 DWORD PTR _tIndex$[ebp], eax

; 264  : 
; 265  : 	LPOBJ lpObj = &gObj[aIndex];

  0094d	8b 45 f8	 mov	 eax, DWORD PTR _aIndex$[ebp]
  00950	69 c0 38 2b 00
	00		 imul	 eax, 11064		; 00002b38H
  00956	03 05 00 00 00
	00		 add	 eax, DWORD PTR ?gObj@@3PAUOBJECTSTRUCT@@A ; gObj
  0095c	89 45 f0	 mov	 DWORD PTR _lpObj$[ebp], eax

; 266  : 
; 267  : 	TMonsterSkillManager::UseMonsterSkill(aIndex, tIndex, 1, 9, NULL);

  0095f	6a 00		 push	 0
  00961	6a 09		 push	 9
  00963	6a 01		 push	 1
  00965	8b 45 f4	 mov	 eax, DWORD PTR _tIndex$[ebp]
  00968	50		 push	 eax
  00969	8b 4d f8	 mov	 ecx, DWORD PTR _aIndex$[ebp]
  0096c	51		 push	 ecx
  0096d	e8 00 00 00 00	 call	 ?UseMonsterSkill@TMonsterSkillManager@@SAXHHHHPAVCMagicInf@@@Z ; TMonsterSkillManager::UseMonsterSkill
  00972	83 c4 14	 add	 esp, 20			; 00000014H

; 268  : 	
; 269  : 	this->m_iBerserkIndex = 3;

  00975	8b 45 fc	 mov	 eax, DWORD PTR _this$[ebp]
  00978	c7 80 94 0c 00
	00 03 00 00 00	 mov	 DWORD PTR [eax+3220], 3

; 270  : 
; 271  : 	int loc5 = 0;

  00982	c7 45 ec 00 00
	00 00		 mov	 DWORD PTR _loc5$[ebp], 0

; 272  : 	loc5 = this->m_iBerserkIndex * lpObj->m_MonsterSkillElementInfo.m_iSkillElementAttack;

  00989	8b 45 fc	 mov	 eax, DWORD PTR _this$[ebp]
  0098c	8b 4d f0	 mov	 ecx, DWORD PTR _lpObj$[ebp]
  0098f	8b 90 94 0c 00
	00		 mov	 edx, DWORD PTR [eax+3220]
  00995	0f af 91 28 1c
	00 00		 imul	 edx, DWORD PTR [ecx+7208]
  0099c	89 55 ec	 mov	 DWORD PTR _loc5$[ebp], edx

; 273  : 
; 274  : 	lpObj->m_AttackDamageMin = this->m_iBossAttackMin + loc5;

  0099f	8b 45 fc	 mov	 eax, DWORD PTR _this$[ebp]
  009a2	8b 88 98 0c 00
	00		 mov	 ecx, DWORD PTR [eax+3224]
  009a8	03 4d ec	 add	 ecx, DWORD PTR _loc5$[ebp]
  009ab	8b 55 f0	 mov	 edx, DWORD PTR _lpObj$[ebp]
  009ae	89 8a 60 04 00
	00		 mov	 DWORD PTR [edx+1120], ecx

; 275  : 	lpObj->m_AttackDamageMax = this->m_iBossAttackMax + loc5;

  009b4	8b 45 fc	 mov	 eax, DWORD PTR _this$[ebp]
  009b7	8b 88 9c 0c 00
	00		 mov	 ecx, DWORD PTR [eax+3228]
  009bd	03 4d ec	 add	 ecx, DWORD PTR _loc5$[ebp]
  009c0	8b 55 f0	 mov	 edx, DWORD PTR _lpObj$[ebp]
  009c3	89 8a 64 04 00
	00		 mov	 DWORD PTR [edx+1124], ecx

; 276  : 
; 277  : 
; 278  : 	LogAddTD("[ RAKLION ][ Berserk3 ] Skill Using : Index(%d) Damage(%d~%d)",aIndex,lpObj->m_AttackDamageMin,lpObj->m_AttackDamageMax);

  009c9	8b 45 f0	 mov	 eax, DWORD PTR _lpObj$[ebp]
  009cc	8b 88 64 04 00
	00		 mov	 ecx, DWORD PTR [eax+1124]
  009d2	51		 push	 ecx
  009d3	8b 55 f0	 mov	 edx, DWORD PTR _lpObj$[ebp]
  009d6	8b 82 60 04 00
	00		 mov	 eax, DWORD PTR [edx+1120]
  009dc	50		 push	 eax
  009dd	8b 4d f8	 mov	 ecx, DWORD PTR _aIndex$[ebp]
  009e0	51		 push	 ecx
  009e1	68 00 00 00 00	 push	 OFFSET ??_C@_0DO@LIMIDDGI@?$FL?5RAKLION?5?$FN?$FL?5Berserk3?5?$FN?5Skill?5Us@
  009e6	ff 15 00 00 00
	00		 call	 DWORD PTR ?LogAddTD@@3P6AXPADZZA ; LogAddTD
  009ec	83 c4 10	 add	 esp, 16			; 00000010H

; 279  : }

  009ef	5f		 pop	 edi
  009f0	5e		 pop	 esi
  009f1	5b		 pop	 ebx
  009f2	8b e5		 mov	 esp, ebp
  009f4	5d		 pop	 ebp
  009f5	c3		 ret	 0
?SelupanAct_Berserk3@CRaklionSelupan@@QAEXXZ ENDP	; CRaklionSelupan::SelupanAct_Berserk3
_TEXT	ENDS
PUBLIC	??_C@_0DO@GJIGKBGA@?$FL?5RAKLION?5?$FN?$FL?5Berserk4?5?$FN?5Skill?5Us@ ; `string'
PUBLIC	?SelupanAct_Berserk4@CRaklionSelupan@@QAEXXZ	; CRaklionSelupan::SelupanAct_Berserk4
;	COMDAT ??_C@_0DO@GJIGKBGA@?$FL?5RAKLION?5?$FN?$FL?5Berserk4?5?$FN?5Skill?5Us@
CONST	SEGMENT
??_C@_0DO@GJIGKBGA@?$FL?5RAKLION?5?$FN?$FL?5Berserk4?5?$FN?5Skill?5Us@ DB '['
	DB	' RAKLION ][ Berserk4 ] Skill Using : Index(%d) Damage(%d~%d)', 00H ; `string'
; Function compile flags: /Odtp /ZI
CONST	ENDS
_TEXT	SEGMENT
_loc5$ = -20						; size = 4
_lpObj$ = -16						; size = 4
_tIndex$ = -12						; size = 4
_aIndex$ = -8						; size = 4
_this$ = -4						; size = 4
?SelupanAct_Berserk4@CRaklionSelupan@@QAEXXZ PROC	; CRaklionSelupan::SelupanAct_Berserk4
; _this$ = ecx

; 282  : {

  00a00	55		 push	 ebp
  00a01	8b ec		 mov	 ebp, esp
  00a03	83 ec 54	 sub	 esp, 84			; 00000054H
  00a06	53		 push	 ebx
  00a07	56		 push	 esi
  00a08	57		 push	 edi
  00a09	89 4d fc	 mov	 DWORD PTR _this$[ebp], ecx

; 283  : 	int aIndex = this->GetSelupanObjIndex();

  00a0c	8b 4d fc	 mov	 ecx, DWORD PTR _this$[ebp]
  00a0f	e8 00 00 00 00	 call	 ?GetSelupanObjIndex@CRaklionSelupan@@QAEHXZ ; CRaklionSelupan::GetSelupanObjIndex
  00a14	89 45 f8	 mov	 DWORD PTR _aIndex$[ebp], eax

; 284  : 	int tIndex = aIndex;

  00a17	8b 45 f8	 mov	 eax, DWORD PTR _aIndex$[ebp]
  00a1a	89 45 f4	 mov	 DWORD PTR _tIndex$[ebp], eax

; 285  : 
; 286  : 	LPOBJ lpObj = &gObj[aIndex];

  00a1d	8b 45 f8	 mov	 eax, DWORD PTR _aIndex$[ebp]
  00a20	69 c0 38 2b 00
	00		 imul	 eax, 11064		; 00002b38H
  00a26	03 05 00 00 00
	00		 add	 eax, DWORD PTR ?gObj@@3PAUOBJECTSTRUCT@@A ; gObj
  00a2c	89 45 f0	 mov	 DWORD PTR _lpObj$[ebp], eax

; 287  : 
; 288  : 	TMonsterSkillManager::UseMonsterSkill(aIndex, tIndex, 1, 9, NULL);

  00a2f	6a 00		 push	 0
  00a31	6a 09		 push	 9
  00a33	6a 01		 push	 1
  00a35	8b 45 f4	 mov	 eax, DWORD PTR _tIndex$[ebp]
  00a38	50		 push	 eax
  00a39	8b 4d f8	 mov	 ecx, DWORD PTR _aIndex$[ebp]
  00a3c	51		 push	 ecx
  00a3d	e8 00 00 00 00	 call	 ?UseMonsterSkill@TMonsterSkillManager@@SAXHHHHPAVCMagicInf@@@Z ; TMonsterSkillManager::UseMonsterSkill
  00a42	83 c4 14	 add	 esp, 20			; 00000014H

; 289  : 	
; 290  : 	this->m_iBerserkIndex = 4;

  00a45	8b 45 fc	 mov	 eax, DWORD PTR _this$[ebp]
  00a48	c7 80 94 0c 00
	00 04 00 00 00	 mov	 DWORD PTR [eax+3220], 4

; 291  : 
; 292  : 	int loc5 = 0;

  00a52	c7 45 ec 00 00
	00 00		 mov	 DWORD PTR _loc5$[ebp], 0

; 293  : 	loc5 = this->m_iBerserkIndex * lpObj->m_MonsterSkillElementInfo.m_iSkillElementAttack;

  00a59	8b 45 fc	 mov	 eax, DWORD PTR _this$[ebp]
  00a5c	8b 4d f0	 mov	 ecx, DWORD PTR _lpObj$[ebp]
  00a5f	8b 90 94 0c 00
	00		 mov	 edx, DWORD PTR [eax+3220]
  00a65	0f af 91 28 1c
	00 00		 imul	 edx, DWORD PTR [ecx+7208]
  00a6c	89 55 ec	 mov	 DWORD PTR _loc5$[ebp], edx

; 294  : 
; 295  : 	lpObj->m_AttackDamageMin = this->m_iBossAttackMin + loc5;

  00a6f	8b 45 fc	 mov	 eax, DWORD PTR _this$[ebp]
  00a72	8b 88 98 0c 00
	00		 mov	 ecx, DWORD PTR [eax+3224]
  00a78	03 4d ec	 add	 ecx, DWORD PTR _loc5$[ebp]
  00a7b	8b 55 f0	 mov	 edx, DWORD PTR _lpObj$[ebp]
  00a7e	89 8a 60 04 00
	00		 mov	 DWORD PTR [edx+1120], ecx

; 296  : 	lpObj->m_AttackDamageMax = this->m_iBossAttackMax + loc5;

  00a84	8b 45 fc	 mov	 eax, DWORD PTR _this$[ebp]
  00a87	8b 88 9c 0c 00
	00		 mov	 ecx, DWORD PTR [eax+3228]
  00a8d	03 4d ec	 add	 ecx, DWORD PTR _loc5$[ebp]
  00a90	8b 55 f0	 mov	 edx, DWORD PTR _lpObj$[ebp]
  00a93	89 8a 64 04 00
	00		 mov	 DWORD PTR [edx+1124], ecx

; 297  : 
; 298  : 
; 299  : 	LogAddTD("[ RAKLION ][ Berserk4 ] Skill Using : Index(%d) Damage(%d~%d)",aIndex,lpObj->m_AttackDamageMin,lpObj->m_AttackDamageMax);

  00a99	8b 45 f0	 mov	 eax, DWORD PTR _lpObj$[ebp]
  00a9c	8b 88 64 04 00
	00		 mov	 ecx, DWORD PTR [eax+1124]
  00aa2	51		 push	 ecx
  00aa3	8b 55 f0	 mov	 edx, DWORD PTR _lpObj$[ebp]
  00aa6	8b 82 60 04 00
	00		 mov	 eax, DWORD PTR [edx+1120]
  00aac	50		 push	 eax
  00aad	8b 4d f8	 mov	 ecx, DWORD PTR _aIndex$[ebp]
  00ab0	51		 push	 ecx
  00ab1	68 00 00 00 00	 push	 OFFSET ??_C@_0DO@GJIGKBGA@?$FL?5RAKLION?5?$FN?$FL?5Berserk4?5?$FN?5Skill?5Us@
  00ab6	ff 15 00 00 00
	00		 call	 DWORD PTR ?LogAddTD@@3P6AXPADZZA ; LogAddTD
  00abc	83 c4 10	 add	 esp, 16			; 00000010H

; 300  : }

  00abf	5f		 pop	 edi
  00ac0	5e		 pop	 esi
  00ac1	5b		 pop	 ebx
  00ac2	8b e5		 mov	 esp, ebp
  00ac4	5d		 pop	 ebp
  00ac5	c3		 ret	 0
?SelupanAct_Berserk4@CRaklionSelupan@@QAEXXZ ENDP	; CRaklionSelupan::SelupanAct_Berserk4
_TEXT	ENDS
PUBLIC	?GetSelupanLife@CRaklionSelupan@@QAEKXZ		; CRaklionSelupan::GetSelupanLife
; Function compile flags: /Odtp /ZI
_TEXT	SEGMENT
tv79 = -92						; size = 8
tv77 = -84						; size = 4
tv74 = -78						; size = 2
_lpObj$ = -12						; size = 4
_aIndex$ = -8						; size = 4
_this$ = -4						; size = 4
?GetSelupanLife@CRaklionSelupan@@QAEKXZ PROC		; CRaklionSelupan::GetSelupanLife
; _this$ = ecx

; 303  : {

  00ad0	55		 push	 ebp
  00ad1	8b ec		 mov	 ebp, esp
  00ad3	83 ec 5c	 sub	 esp, 92			; 0000005cH
  00ad6	53		 push	 ebx
  00ad7	56		 push	 esi
  00ad8	57		 push	 edi
  00ad9	89 4d fc	 mov	 DWORD PTR _this$[ebp], ecx

; 304  : 	int aIndex = this->GetSelupanObjIndex();

  00adc	8b 4d fc	 mov	 ecx, DWORD PTR _this$[ebp]
  00adf	e8 00 00 00 00	 call	 ?GetSelupanObjIndex@CRaklionSelupan@@QAEHXZ ; CRaklionSelupan::GetSelupanObjIndex
  00ae4	89 45 f8	 mov	 DWORD PTR _aIndex$[ebp], eax

; 305  : 	
; 306  : 	LPOBJ lpObj = &gObj[aIndex];

  00ae7	8b 45 f8	 mov	 eax, DWORD PTR _aIndex$[ebp]
  00aea	69 c0 38 2b 00
	00		 imul	 eax, 11064		; 00002b38H
  00af0	03 05 00 00 00
	00		 add	 eax, DWORD PTR ?gObj@@3PAUOBJECTSTRUCT@@A ; gObj
  00af6	89 45 f4	 mov	 DWORD PTR _lpObj$[ebp], eax

; 307  : 
; 308  : 	return (DWORD)lpObj->Life;

  00af9	8b 45 f4	 mov	 eax, DWORD PTR _lpObj$[ebp]
  00afc	d9 80 fc 00 00
	00		 fld	 DWORD PTR [eax+252]
  00b02	d9 7d b2	 fnstcw	 WORD PTR tv74[ebp]
  00b05	0f b7 45 b2	 movzx	 eax, WORD PTR tv74[ebp]
  00b09	0d 00 0c 00 00	 or	 eax, 3072		; 00000c00H
  00b0e	89 45 ac	 mov	 DWORD PTR tv77[ebp], eax
  00b11	d9 6d ac	 fldcw	 WORD PTR tv77[ebp]
  00b14	df 7d a4	 fistp	 QWORD PTR tv79[ebp]
  00b17	d9 6d b2	 fldcw	 WORD PTR tv74[ebp]
  00b1a	8b 45 a4	 mov	 eax, DWORD PTR tv79[ebp]

; 309  : }

  00b1d	5f		 pop	 edi
  00b1e	5e		 pop	 esi
  00b1f	5b		 pop	 ebx
  00b20	8b e5		 mov	 esp, ebp
  00b22	5d		 pop	 ebp
  00b23	c3		 ret	 0
?GetSelupanLife@CRaklionSelupan@@QAEKXZ ENDP		; CRaklionSelupan::GetSelupanLife
_TEXT	ENDS
PUBLIC	__real@4059000000000000
PUBLIC	?SetSelupanLife@CRaklionSelupan@@QAEXH@Z	; CRaklionSelupan::SetSelupanLife
EXTRN	__fltused:DWORD
;	COMDAT __real@4059000000000000
CONST	SEGMENT
__real@4059000000000000 DQ 04059000000000000r	; 100
; Function compile flags: /Odtp /ZI
CONST	ENDS
_TEXT	SEGMENT
_loc4$ = -16						; size = 4
_lpObj$ = -12						; size = 4
_aIndex$ = -8						; size = 4
_this$ = -4						; size = 4
_Percent$ = 8						; size = 4
?SetSelupanLife@CRaklionSelupan@@QAEXH@Z PROC		; CRaklionSelupan::SetSelupanLife
; _this$ = ecx

; 312  : {

  00b30	55		 push	 ebp
  00b31	8b ec		 mov	 ebp, esp
  00b33	83 ec 50	 sub	 esp, 80			; 00000050H
  00b36	53		 push	 ebx
  00b37	56		 push	 esi
  00b38	57		 push	 edi
  00b39	89 4d fc	 mov	 DWORD PTR _this$[ebp], ecx

; 313  : 	int aIndex = this->GetSelupanObjIndex();

  00b3c	8b 4d fc	 mov	 ecx, DWORD PTR _this$[ebp]
  00b3f	e8 00 00 00 00	 call	 ?GetSelupanObjIndex@CRaklionSelupan@@QAEHXZ ; CRaklionSelupan::GetSelupanObjIndex
  00b44	89 45 f8	 mov	 DWORD PTR _aIndex$[ebp], eax

; 314  : 
; 315  : 	LPOBJ lpObj = &gObj[aIndex];

  00b47	8b 45 f8	 mov	 eax, DWORD PTR _aIndex$[ebp]
  00b4a	69 c0 38 2b 00
	00		 imul	 eax, 11064		; 00002b38H
  00b50	03 05 00 00 00
	00		 add	 eax, DWORD PTR ?gObj@@3PAUOBJECTSTRUCT@@A ; gObj
  00b56	89 45 f4	 mov	 DWORD PTR _lpObj$[ebp], eax

; 316  : 	
; 317  : 	float loc4 = lpObj->AddLife + lpObj->MaxLife;

  00b59	8b 45 f4	 mov	 eax, DWORD PTR _lpObj$[ebp]
  00b5c	db 80 4c 01 00
	00		 fild	 DWORD PTR [eax+332]
  00b62	8b 4d f4	 mov	 ecx, DWORD PTR _lpObj$[ebp]
  00b65	d8 81 00 01 00
	00		 fadd	 DWORD PTR [ecx+256]
  00b6b	d9 5d f0	 fstp	 DWORD PTR _loc4$[ebp]

; 318  : 
; 319  : 	lpObj->Life = loc4 * Percent / 100;

  00b6e	db 45 08	 fild	 DWORD PTR _Percent$[ebp]
  00b71	d8 4d f0	 fmul	 DWORD PTR _loc4$[ebp]
  00b74	dc 35 00 00 00
	00		 fdiv	 QWORD PTR __real@4059000000000000
  00b7a	8b 45 f4	 mov	 eax, DWORD PTR _lpObj$[ebp]
  00b7d	d9 98 fc 00 00
	00		 fstp	 DWORD PTR [eax+252]

; 320  : }

  00b83	5f		 pop	 edi
  00b84	5e		 pop	 esi
  00b85	5b		 pop	 ebx
  00b86	8b e5		 mov	 esp, ebp
  00b88	5d		 pop	 ebp
  00b89	c2 04 00	 ret	 4
?SetSelupanLife@CRaklionSelupan@@QAEXH@Z ENDP		; CRaklionSelupan::SetSelupanLife
_TEXT	ENDS
PUBLIC	??_C@_0DN@GNLDFGOG@?$FL?5RAKLION?5?$FN?5?$FL?5InitSelupanIndex?5?$FN@ ; `string'
PUBLIC	?InitSelupanObjIndex@CRaklionSelupan@@QAEXXZ	; CRaklionSelupan::InitSelupanObjIndex
EXTRN	?LogAddC@@3P6AXEPADZZA:DWORD			; LogAddC
;	COMDAT ??_C@_0DN@GNLDFGOG@?$FL?5RAKLION?5?$FN?5?$FL?5InitSelupanIndex?5?$FN@
CONST	SEGMENT
??_C@_0DN@GNLDFGOG@?$FL?5RAKLION?5?$FN?5?$FL?5InitSelupanIndex?5?$FN@ DB '['
	DB	' RAKLION ] [ InitSelupanIndex ] error : SelupanObjIndex(%d)', 00H ; `string'
; Function compile flags: /Odtp /ZI
CONST	ENDS
_TEXT	SEGMENT
_i$227710 = -8						; size = 4
_this$ = -4						; size = 4
?InitSelupanObjIndex@CRaklionSelupan@@QAEXXZ PROC	; CRaklionSelupan::InitSelupanObjIndex
; _this$ = ecx

; 323  : {

  00b90	55		 push	 ebp
  00b91	8b ec		 mov	 ebp, esp
  00b93	83 ec 48	 sub	 esp, 72			; 00000048H
  00b96	53		 push	 ebx
  00b97	56		 push	 esi
  00b98	57		 push	 edi
  00b99	89 4d fc	 mov	 DWORD PTR _this$[ebp], ecx

; 324  : 	for(int i = 0;i < OBJ_MAXMONSTER;i++)

  00b9c	c7 45 f8 00 00
	00 00		 mov	 DWORD PTR _i$227710[ebp], 0
  00ba3	eb 09		 jmp	 SHORT $LN6@InitSelupa
$LN5@InitSelupa:
  00ba5	8b 45 f8	 mov	 eax, DWORD PTR _i$227710[ebp]
  00ba8	83 c0 01	 add	 eax, 1
  00bab	89 45 f8	 mov	 DWORD PTR _i$227710[ebp], eax
$LN6@InitSelupa:
  00bae	81 7d f8 c8 32
	00 00		 cmp	 DWORD PTR _i$227710[ebp], 13000 ; 000032c8H
  00bb5	7d 40		 jge	 SHORT $LN4@InitSelupa

; 325  : 	{
; 326  : 		if( gObj[i].Connected == PLAYER_PLAYING )

  00bb7	8b 45 f8	 mov	 eax, DWORD PTR _i$227710[ebp]
  00bba	69 c0 38 2b 00
	00		 imul	 eax, 11064		; 00002b38H
  00bc0	8b 0d 00 00 00
	00		 mov	 ecx, DWORD PTR ?gObj@@3PAUOBJECTSTRUCT@@A ; gObj
  00bc6	83 7c 01 04 03	 cmp	 DWORD PTR [ecx+eax+4], 3
  00bcb	75 28		 jne	 SHORT $LN3@InitSelupa

; 327  : 		{
; 328  : 			if( gObj[i].Class == 459)

  00bcd	8b 45 f8	 mov	 eax, DWORD PTR _i$227710[ebp]
  00bd0	69 c0 38 2b 00
	00		 imul	 eax, 11064		; 00002b38H
  00bd6	8b 0d 00 00 00
	00		 mov	 ecx, DWORD PTR ?gObj@@3PAUOBJECTSTRUCT@@A ; gObj
  00bdc	0f b7 94 01 b8
	00 00 00	 movzx	 edx, WORD PTR [ecx+eax+184]
  00be4	81 fa cb 01 00
	00		 cmp	 edx, 459		; 000001cbH
  00bea	75 09		 jne	 SHORT $LN3@InitSelupa

; 329  : 			{
; 330  : 				this->m_iSelupanObjIndex = i;

  00bec	8b 45 fc	 mov	 eax, DWORD PTR _this$[ebp]
  00bef	8b 4d f8	 mov	 ecx, DWORD PTR _i$227710[ebp]
  00bf2	89 48 04	 mov	 DWORD PTR [eax+4], ecx
$LN3@InitSelupa:

; 331  : 			}
; 332  : 		}	
; 333  : 	}

  00bf5	eb ae		 jmp	 SHORT $LN5@InitSelupa
$LN4@InitSelupa:

; 334  : 
; 335  : 	if( this->m_iSelupanObjIndex == -1 )

  00bf7	8b 45 fc	 mov	 eax, DWORD PTR _this$[ebp]
  00bfa	83 78 04 ff	 cmp	 DWORD PTR [eax+4], -1
  00bfe	75 17		 jne	 SHORT $LN7@InitSelupa

; 336  : 	{
; 337  : 		LogAddC(2,"[ RAKLION ] [ InitSelupanIndex ] error : SelupanObjIndex(%d)",this->m_iSelupanObjIndex);

  00c00	8b 45 fc	 mov	 eax, DWORD PTR _this$[ebp]
  00c03	8b 48 04	 mov	 ecx, DWORD PTR [eax+4]
  00c06	51		 push	 ecx
  00c07	68 00 00 00 00	 push	 OFFSET ??_C@_0DN@GNLDFGOG@?$FL?5RAKLION?5?$FN?5?$FL?5InitSelupanIndex?5?$FN@
  00c0c	6a 02		 push	 2
  00c0e	ff 15 00 00 00
	00		 call	 DWORD PTR ?LogAddC@@3P6AXEPADZZA ; LogAddC
  00c14	83 c4 0c	 add	 esp, 12			; 0000000cH
$LN7@InitSelupa:

; 338  : 	}
; 339  : }

  00c17	5f		 pop	 edi
  00c18	5e		 pop	 esi
  00c19	5b		 pop	 ebx
  00c1a	8b e5		 mov	 esp, ebp
  00c1c	5d		 pop	 ebp
  00c1d	c3		 ret	 0
?InitSelupanObjIndex@CRaklionSelupan@@QAEXXZ ENDP	; CRaklionSelupan::InitSelupanObjIndex
_TEXT	ENDS
PUBLIC	??_C@_0CK@FKMFPLA@?$FLRAKLION?$FN?5Create?5Selupan?5?3?5X?5?$CI?$CFd@ ; `string'
PUBLIC	??_C@_0BO@MCDHLBHK@?$FLRAKLION?$FN?5CreateSelupan?5error?$AA@ ; `string'
PUBLIC	?CreateSelupan@CRaklionSelupan@@QAEHXZ		; CRaklionSelupan::CreateSelupan
EXTRN	?gObjSetState@@YAXXZ:PROC			; gObjSetState
EXTRN	?gObjViewportListProtocol@@YAXF@Z:PROC		; gObjViewportListProtocol
EXTRN	?gObjViewportListCreate@@YAXF@Z:PROC		; gObjViewportListCreate
EXTRN	?gObjViewportListDestroy@@YAXF@Z:PROC		; gObjViewportListDestroy
EXTRN	?gObjStateSetCreate@@YAXH@Z:PROC		; gObjStateSetCreate
EXTRN	?gObjSetMonster@@YAHHH@Z:PROC			; gObjSetMonster
EXTRN	?gObjSetPosMonster@@YAHHH@Z:PROC		; gObjSetPosMonster
EXTRN	?gObjAddMonster@@YAFH@Z:PROC			; gObjAddMonster
EXTRN	?gMSetBase@@3VCMonsterSetBase@@A:BYTE		; gMSetBase
;	COMDAT ??_C@_0CK@FKMFPLA@?$FLRAKLION?$FN?5Create?5Selupan?5?3?5X?5?$CI?$CFd@
CONST	SEGMENT
??_C@_0CK@FKMFPLA@?$FLRAKLION?$FN?5Create?5Selupan?5?3?5X?5?$CI?$CFd@ DB '['
	DB	'RAKLION] Create Selupan : X (%d) / Y(%d)', 00H ; `string'
CONST	ENDS
;	COMDAT ??_C@_0BO@MCDHLBHK@?$FLRAKLION?$FN?5CreateSelupan?5error?$AA@
CONST	SEGMENT
??_C@_0BO@MCDHLBHK@?$FLRAKLION?$FN?5CreateSelupan?5error?$AA@ DB '[RAKLIO'
	DB	'N] CreateSelupan error', 00H		; `string'
; Function compile flags: /Odtp /ZI
CONST	ENDS
_TEXT	SEGMENT
_n$227764 = -40						; size = 4
_n$227759 = -36						; size = 4
_n$227754 = -32						; size = 4
_n$227733 = -28						; size = 4
_lpTargetObj$ = -24					; size = 4
_result$ = -20						; size = 4
_lpObj$ = -16						; size = 4
_n$227722 = -12						; size = 4
_m_Type$ = -8						; size = 4
_this$ = -4						; size = 4
?CreateSelupan@CRaklionSelupan@@QAEHXZ PROC		; CRaklionSelupan::CreateSelupan
; _this$ = ecx

; 342  : {

  00c20	55		 push	 ebp
  00c21	8b ec		 mov	 ebp, esp
  00c23	83 ec 68	 sub	 esp, 104		; 00000068H
  00c26	53		 push	 ebx
  00c27	56		 push	 esi
  00c28	57		 push	 edi
  00c29	89 4d fc	 mov	 DWORD PTR _this$[ebp], ecx

; 343  : 	int m_Type = -1;

  00c2c	c7 45 f8 ff ff
	ff ff		 mov	 DWORD PTR _m_Type$[ebp], -1

; 344  : 
; 345  : 	for ( int n=0;n<gMSetBase.m_Count;n++)

  00c33	c7 45 f4 00 00
	00 00		 mov	 DWORD PTR _n$227722[ebp], 0
  00c3a	eb 09		 jmp	 SHORT $LN21@CreateSelu
$LN20@CreateSelu:
  00c3c	8b 45 f4	 mov	 eax, DWORD PTR _n$227722[ebp]
  00c3f	83 c0 01	 add	 eax, 1
  00c42	89 45 f4	 mov	 DWORD PTR _n$227722[ebp], eax
$LN21@CreateSelu:
  00c45	8b 45 f4	 mov	 eax, DWORD PTR _n$227722[ebp]
  00c48	3b 05 84 2c 03
	00		 cmp	 eax, DWORD PTR ?gMSetBase@@3VCMonsterSetBase@@A+208004
  00c4e	7d 1d		 jge	 SHORT $LN19@CreateSelu

; 346  : 	{
; 347  : 		if( gMSetBase.m_Mp[n].m_Type == 459 )

  00c50	8b 45 f4	 mov	 eax, DWORD PTR _n$227722[ebp]
  00c53	c1 e0 04	 shl	 eax, 4
  00c56	0f b7 88 06 00
	00 00		 movzx	 ecx, WORD PTR ?gMSetBase@@3VCMonsterSetBase@@A[eax+6]
  00c5d	81 f9 cb 01 00
	00		 cmp	 ecx, 459		; 000001cbH
  00c63	75 06		 jne	 SHORT $LN18@CreateSelu

; 348  : 		{
; 349  : 			m_Type = n;

  00c65	8b 45 f4	 mov	 eax, DWORD PTR _n$227722[ebp]
  00c68	89 45 f8	 mov	 DWORD PTR _m_Type$[ebp], eax
$LN18@CreateSelu:

; 350  : 		}
; 351  : 	}

  00c6b	eb cf		 jmp	 SHORT $LN20@CreateSelu
$LN19@CreateSelu:

; 352  : 
; 353  : 	LPOBJ lpObj = NULL;

  00c6d	c7 45 f0 00 00
	00 00		 mov	 DWORD PTR _lpObj$[ebp], 0

; 354  : 	int result = 0;

  00c74	c7 45 ec 00 00
	00 00		 mov	 DWORD PTR _result$[ebp], 0

; 355  : 
; 356  : 
; 357  : 	result = gObjAddMonster(MAP_INDEX_RAKLION_BOSS);

  00c7b	6a 3a		 push	 58			; 0000003aH
  00c7d	e8 00 00 00 00	 call	 ?gObjAddMonster@@YAFH@Z	; gObjAddMonster
  00c82	83 c4 04	 add	 esp, 4
  00c85	98		 cwde
  00c86	89 45 ec	 mov	 DWORD PTR _result$[ebp], eax

; 358  : 
; 359  : 	if ( result < 0 )

  00c89	83 7d ec 00	 cmp	 DWORD PTR _result$[ebp], 0
  00c8d	7d 15		 jge	 SHORT $LN17@CreateSelu

; 360  : 	{
; 361  : 		LogAddTD("[RAKLION] CreateSelupan error");

  00c8f	68 00 00 00 00	 push	 OFFSET ??_C@_0BO@MCDHLBHK@?$FLRAKLION?$FN?5CreateSelupan?5error?$AA@
  00c94	ff 15 00 00 00
	00		 call	 DWORD PTR ?LogAddTD@@3P6AXPADZZA ; LogAddTD
  00c9a	83 c4 04	 add	 esp, 4

; 362  : 		return FALSE;

  00c9d	33 c0		 xor	 eax, eax
  00c9f	e9 b7 01 00 00	 jmp	 $LN22@CreateSelu
$LN17@CreateSelu:

; 363  : 	}
; 364  : 	
; 365  : 	lpObj = &gObj[result];

  00ca4	8b 45 ec	 mov	 eax, DWORD PTR _result$[ebp]
  00ca7	69 c0 38 2b 00
	00		 imul	 eax, 11064		; 00002b38H
  00cad	03 05 00 00 00
	00		 add	 eax, DWORD PTR ?gObj@@3PAUOBJECTSTRUCT@@A ; gObj
  00cb3	89 45 f0	 mov	 DWORD PTR _lpObj$[ebp], eax

; 366  : 	
; 367  : 	gObjSetPosMonster(result, m_Type);

  00cb6	8b 45 f8	 mov	 eax, DWORD PTR _m_Type$[ebp]
  00cb9	50		 push	 eax
  00cba	8b 4d ec	 mov	 ecx, DWORD PTR _result$[ebp]
  00cbd	51		 push	 ecx
  00cbe	e8 00 00 00 00	 call	 ?gObjSetPosMonster@@YAHHH@Z ; gObjSetPosMonster
  00cc3	83 c4 08	 add	 esp, 8

; 368  : 	
; 369  : 	gObjSetMonster(result, 459); 

  00cc6	68 cb 01 00 00	 push	 459			; 000001cbH
  00ccb	8b 45 ec	 mov	 eax, DWORD PTR _result$[ebp]
  00cce	50		 push	 eax
  00ccf	e8 00 00 00 00	 call	 ?gObjSetMonster@@YAHHH@Z ; gObjSetMonster
  00cd4	83 c4 08	 add	 esp, 8

; 370  : 	
; 371  : 	LogAddTD("[RAKLION] Create Selupan : X (%d) / Y(%d)",lpObj->X,lpObj->Y);

  00cd7	8b 45 f0	 mov	 eax, DWORD PTR _lpObj$[ebp]
  00cda	0f bf 88 46 01
	00 00		 movsx	 ecx, WORD PTR [eax+326]
  00ce1	51		 push	 ecx
  00ce2	8b 55 f0	 mov	 edx, DWORD PTR _lpObj$[ebp]
  00ce5	0f bf 82 44 01
	00 00		 movsx	 eax, WORD PTR [edx+324]
  00cec	50		 push	 eax
  00ced	68 00 00 00 00	 push	 OFFSET ??_C@_0CK@FKMFPLA@?$FLRAKLION?$FN?5Create?5Selupan?5?3?5X?5?$CI?$CFd@
  00cf2	ff 15 00 00 00
	00		 call	 DWORD PTR ?LogAddTD@@3P6AXPADZZA ; LogAddTD
  00cf8	83 c4 0c	 add	 esp, 12			; 0000000cH

; 372  : 
; 373  : 	LPOBJ lpTargetObj = NULL;

  00cfb	c7 45 e8 00 00
	00 00		 mov	 DWORD PTR _lpTargetObj$[ebp], 0

; 374  : 
; 375  : 	for (int n=0;n<OBJMAX;n++)

  00d02	c7 45 e4 00 00
	00 00		 mov	 DWORD PTR _n$227733[ebp], 0
  00d09	eb 09		 jmp	 SHORT $LN16@CreateSelu
$LN15@CreateSelu:
  00d0b	8b 45 e4	 mov	 eax, DWORD PTR _n$227733[ebp]
  00d0e	83 c0 01	 add	 eax, 1
  00d11	89 45 e4	 mov	 DWORD PTR _n$227733[ebp], eax
$LN16@CreateSelu:
  00d14	81 7d e4 98 3a
	00 00		 cmp	 DWORD PTR _n$227733[ebp], 15000 ; 00003a98H
  00d1b	7d 2f		 jge	 SHORT $LN14@CreateSelu

; 376  : 	{
; 377  : 		lpTargetObj = &gObj[n];

  00d1d	8b 45 e4	 mov	 eax, DWORD PTR _n$227733[ebp]
  00d20	69 c0 38 2b 00
	00		 imul	 eax, 11064		; 00002b38H
  00d26	03 05 00 00 00
	00		 add	 eax, DWORD PTR ?gObj@@3PAUOBJECTSTRUCT@@A ; gObj
  00d2c	89 45 e8	 mov	 DWORD PTR _lpTargetObj$[ebp], eax

; 378  : 
; 379  : 		if(lpTargetObj->MapNumber == MAP_INDEX_RAKLION_BOSS)

  00d2f	8b 45 e8	 mov	 eax, DWORD PTR _lpTargetObj$[ebp]
  00d32	0f b6 88 49 01
	00 00		 movzx	 ecx, BYTE PTR [eax+329]
  00d39	83 f9 3a	 cmp	 ecx, 58			; 0000003aH
  00d3c	75 0c		 jne	 SHORT $LN13@CreateSelu

; 380  : 		{
; 381  : 			gObjStateSetCreate(n);

  00d3e	8b 45 e4	 mov	 eax, DWORD PTR _n$227733[ebp]
  00d41	50		 push	 eax
  00d42	e8 00 00 00 00	 call	 ?gObjStateSetCreate@@YAXH@Z ; gObjStateSetCreate
  00d47	83 c4 04	 add	 esp, 4
$LN13@CreateSelu:

; 382  : 		}
; 383  : 	}

  00d4a	eb bf		 jmp	 SHORT $LN15@CreateSelu
$LN14@CreateSelu:

; 384  : 
; 385  : 	for (int  n=0;n<OBJMAX;n++)

  00d4c	c7 45 e0 00 00
	00 00		 mov	 DWORD PTR _n$227754[ebp], 0
  00d53	eb 09		 jmp	 SHORT $LN12@CreateSelu
$LN11@CreateSelu:
  00d55	8b 45 e0	 mov	 eax, DWORD PTR _n$227754[ebp]
  00d58	83 c0 01	 add	 eax, 1
  00d5b	89 45 e0	 mov	 DWORD PTR _n$227754[ebp], eax
$LN12@CreateSelu:
  00d5e	81 7d e0 98 3a
	00 00		 cmp	 DWORD PTR _n$227754[ebp], 15000 ; 00003a98H
  00d65	7d 30		 jge	 SHORT $LN10@CreateSelu

; 386  : 	{
; 387  : 		lpTargetObj = &gObj[n];

  00d67	8b 45 e0	 mov	 eax, DWORD PTR _n$227754[ebp]
  00d6a	69 c0 38 2b 00
	00		 imul	 eax, 11064		; 00002b38H
  00d70	03 05 00 00 00
	00		 add	 eax, DWORD PTR ?gObj@@3PAUOBJECTSTRUCT@@A ; gObj
  00d76	89 45 e8	 mov	 DWORD PTR _lpTargetObj$[ebp], eax

; 388  : 
; 389  : 		if(lpTargetObj->MapNumber == MAP_INDEX_RAKLION_BOSS)

  00d79	8b 45 e8	 mov	 eax, DWORD PTR _lpTargetObj$[ebp]
  00d7c	0f b6 88 49 01
	00 00		 movzx	 ecx, BYTE PTR [eax+329]
  00d83	83 f9 3a	 cmp	 ecx, 58			; 0000003aH
  00d86	75 0d		 jne	 SHORT $LN9@CreateSelu

; 390  : 		{
; 391  : 			gObjViewportListDestroy(n);

  00d88	0f b7 45 e0	 movzx	 eax, WORD PTR _n$227754[ebp]
  00d8c	50		 push	 eax
  00d8d	e8 00 00 00 00	 call	 ?gObjViewportListDestroy@@YAXF@Z ; gObjViewportListDestroy
  00d92	83 c4 04	 add	 esp, 4
$LN9@CreateSelu:

; 392  : 		}
; 393  : 	}

  00d95	eb be		 jmp	 SHORT $LN11@CreateSelu
$LN10@CreateSelu:

; 394  : 	
; 395  : 	for (int  n=0;n<OBJMAX;n++)

  00d97	c7 45 dc 00 00
	00 00		 mov	 DWORD PTR _n$227759[ebp], 0
  00d9e	eb 09		 jmp	 SHORT $LN8@CreateSelu
$LN7@CreateSelu:
  00da0	8b 45 dc	 mov	 eax, DWORD PTR _n$227759[ebp]
  00da3	83 c0 01	 add	 eax, 1
  00da6	89 45 dc	 mov	 DWORD PTR _n$227759[ebp], eax
$LN8@CreateSelu:
  00da9	81 7d dc 98 3a
	00 00		 cmp	 DWORD PTR _n$227759[ebp], 15000 ; 00003a98H
  00db0	7d 30		 jge	 SHORT $LN6@CreateSelu

; 396  : 	{
; 397  : 		lpTargetObj = &gObj[n];

  00db2	8b 45 dc	 mov	 eax, DWORD PTR _n$227759[ebp]
  00db5	69 c0 38 2b 00
	00		 imul	 eax, 11064		; 00002b38H
  00dbb	03 05 00 00 00
	00		 add	 eax, DWORD PTR ?gObj@@3PAUOBJECTSTRUCT@@A ; gObj
  00dc1	89 45 e8	 mov	 DWORD PTR _lpTargetObj$[ebp], eax

; 398  : 
; 399  : 		if(lpTargetObj->MapNumber == MAP_INDEX_RAKLION_BOSS)

  00dc4	8b 45 e8	 mov	 eax, DWORD PTR _lpTargetObj$[ebp]
  00dc7	0f b6 88 49 01
	00 00		 movzx	 ecx, BYTE PTR [eax+329]
  00dce	83 f9 3a	 cmp	 ecx, 58			; 0000003aH
  00dd1	75 0d		 jne	 SHORT $LN5@CreateSelu

; 400  : 		{
; 401  : 			gObjViewportListCreate(n);

  00dd3	0f b7 45 dc	 movzx	 eax, WORD PTR _n$227759[ebp]
  00dd7	50		 push	 eax
  00dd8	e8 00 00 00 00	 call	 ?gObjViewportListCreate@@YAXF@Z ; gObjViewportListCreate
  00ddd	83 c4 04	 add	 esp, 4
$LN5@CreateSelu:

; 402  : 		}
; 403  : 	}

  00de0	eb be		 jmp	 SHORT $LN7@CreateSelu
$LN6@CreateSelu:

; 404  : 	
; 405  : 	for (int n=0;n<OBJMAX;n++)

  00de2	c7 45 d8 00 00
	00 00		 mov	 DWORD PTR _n$227764[ebp], 0
  00de9	eb 09		 jmp	 SHORT $LN4@CreateSelu
$LN3@CreateSelu:
  00deb	8b 45 d8	 mov	 eax, DWORD PTR _n$227764[ebp]
  00dee	83 c0 01	 add	 eax, 1
  00df1	89 45 d8	 mov	 DWORD PTR _n$227764[ebp], eax
$LN4@CreateSelu:
  00df4	81 7d d8 98 3a
	00 00		 cmp	 DWORD PTR _n$227764[ebp], 15000 ; 00003a98H
  00dfb	7d 30		 jge	 SHORT $LN2@CreateSelu

; 406  : 	{
; 407  : 		lpTargetObj = &gObj[n];

  00dfd	8b 45 d8	 mov	 eax, DWORD PTR _n$227764[ebp]
  00e00	69 c0 38 2b 00
	00		 imul	 eax, 11064		; 00002b38H
  00e06	03 05 00 00 00
	00		 add	 eax, DWORD PTR ?gObj@@3PAUOBJECTSTRUCT@@A ; gObj
  00e0c	89 45 e8	 mov	 DWORD PTR _lpTargetObj$[ebp], eax

; 408  : 
; 409  : 		if(lpTargetObj->MapNumber == MAP_INDEX_RAKLION_BOSS)

  00e0f	8b 45 e8	 mov	 eax, DWORD PTR _lpTargetObj$[ebp]
  00e12	0f b6 88 49 01
	00 00		 movzx	 ecx, BYTE PTR [eax+329]
  00e19	83 f9 3a	 cmp	 ecx, 58			; 0000003aH
  00e1c	75 0d		 jne	 SHORT $LN1@CreateSelu

; 410  : 		{
; 411  : 			gObjViewportListProtocol(n);

  00e1e	0f b7 45 d8	 movzx	 eax, WORD PTR _n$227764[ebp]
  00e22	50		 push	 eax
  00e23	e8 00 00 00 00	 call	 ?gObjViewportListProtocol@@YAXF@Z ; gObjViewportListProtocol
  00e28	83 c4 04	 add	 esp, 4
$LN1@CreateSelu:

; 412  : 		}
; 413  : 	}

  00e2b	eb be		 jmp	 SHORT $LN3@CreateSelu
$LN2@CreateSelu:

; 414  : 
; 415  : 	gObjSetState();

  00e2d	e8 00 00 00 00	 call	 ?gObjSetState@@YAXXZ	; gObjSetState

; 416  : 
; 417  : 	this->m_iBossAttackMin = lpObj->m_AttackDamageMin;

  00e32	8b 45 fc	 mov	 eax, DWORD PTR _this$[ebp]
  00e35	8b 4d f0	 mov	 ecx, DWORD PTR _lpObj$[ebp]
  00e38	8b 91 60 04 00
	00		 mov	 edx, DWORD PTR [ecx+1120]
  00e3e	89 90 98 0c 00
	00		 mov	 DWORD PTR [eax+3224], edx

; 418  : 	this->m_iBossAttackMax = lpObj->m_AttackDamageMax;

  00e44	8b 45 fc	 mov	 eax, DWORD PTR _this$[ebp]
  00e47	8b 4d f0	 mov	 ecx, DWORD PTR _lpObj$[ebp]
  00e4a	8b 91 64 04 00
	00		 mov	 edx, DWORD PTR [ecx+1124]
  00e50	89 90 9c 0c 00
	00		 mov	 DWORD PTR [eax+3228], edx

; 419  : 
; 420  : 	return TRUE;

  00e56	b8 01 00 00 00	 mov	 eax, 1
$LN22@CreateSelu:

; 421  : }

  00e5b	5f		 pop	 edi
  00e5c	5e		 pop	 esi
  00e5d	5b		 pop	 ebx
  00e5e	8b e5		 mov	 esp, ebp
  00e60	5d		 pop	 ebp
  00e61	c3		 ret	 0
?CreateSelupan@CRaklionSelupan@@QAEHXZ ENDP		; CRaklionSelupan::CreateSelupan
_TEXT	ENDS
PUBLIC	?DeleteSelupan@CRaklionSelupan@@QAEXXZ		; CRaklionSelupan::DeleteSelupan
EXTRN	?gObjDel@@YAFH@Z:PROC				; gObjDel
EXTRN	?gObjViewportClose@@YAXPAUOBJECTSTRUCT@@@Z:PROC	; gObjViewportClose
EXTRN	?gObjViewportListProtocolDestroy@@YAXPAUOBJECTSTRUCT@@@Z:PROC ; gObjViewportListProtocolDestroy
; Function compile flags: /Odtp /ZI
_TEXT	SEGMENT
_aIndex$ = -8						; size = 4
_this$ = -4						; size = 4
?DeleteSelupan@CRaklionSelupan@@QAEXXZ PROC		; CRaklionSelupan::DeleteSelupan
; _this$ = ecx

; 424  : {

  00e70	55		 push	 ebp
  00e71	8b ec		 mov	 ebp, esp
  00e73	83 ec 48	 sub	 esp, 72			; 00000048H
  00e76	53		 push	 ebx
  00e77	56		 push	 esi
  00e78	57		 push	 edi
  00e79	89 4d fc	 mov	 DWORD PTR _this$[ebp], ecx

; 425  : 	int aIndex = this->GetSelupanObjIndex();

  00e7c	8b 4d fc	 mov	 ecx, DWORD PTR _this$[ebp]
  00e7f	e8 00 00 00 00	 call	 ?GetSelupanObjIndex@CRaklionSelupan@@QAEHXZ ; CRaklionSelupan::GetSelupanObjIndex
  00e84	89 45 f8	 mov	 DWORD PTR _aIndex$[ebp], eax

; 426  : 	gObjViewportListProtocolDestroy(&gObj[aIndex]);

  00e87	8b 45 f8	 mov	 eax, DWORD PTR _aIndex$[ebp]
  00e8a	69 c0 38 2b 00
	00		 imul	 eax, 11064		; 00002b38H
  00e90	03 05 00 00 00
	00		 add	 eax, DWORD PTR ?gObj@@3PAUOBJECTSTRUCT@@A ; gObj
  00e96	50		 push	 eax
  00e97	e8 00 00 00 00	 call	 ?gObjViewportListProtocolDestroy@@YAXPAUOBJECTSTRUCT@@@Z ; gObjViewportListProtocolDestroy
  00e9c	83 c4 04	 add	 esp, 4

; 427  : 	gObjViewportClose(&gObj[aIndex]);

  00e9f	8b 45 f8	 mov	 eax, DWORD PTR _aIndex$[ebp]
  00ea2	69 c0 38 2b 00
	00		 imul	 eax, 11064		; 00002b38H
  00ea8	03 05 00 00 00
	00		 add	 eax, DWORD PTR ?gObj@@3PAUOBJECTSTRUCT@@A ; gObj
  00eae	50		 push	 eax
  00eaf	e8 00 00 00 00	 call	 ?gObjViewportClose@@YAXPAUOBJECTSTRUCT@@@Z ; gObjViewportClose
  00eb4	83 c4 04	 add	 esp, 4

; 428  : 	gObjDel(aIndex);

  00eb7	8b 45 f8	 mov	 eax, DWORD PTR _aIndex$[ebp]
  00eba	50		 push	 eax
  00ebb	e8 00 00 00 00	 call	 ?gObjDel@@YAFH@Z	; gObjDel
  00ec0	83 c4 04	 add	 esp, 4

; 429  : }

  00ec3	5f		 pop	 edi
  00ec4	5e		 pop	 esi
  00ec5	5b		 pop	 ebx
  00ec6	8b e5		 mov	 esp, ebp
  00ec8	5d		 pop	 ebp
  00ec9	c3		 ret	 0
?DeleteSelupan@CRaklionSelupan@@QAEXXZ ENDP		; CRaklionSelupan::DeleteSelupan
_TEXT	ENDS
EXTRN	?gObjMonsterSearchEnemy@@YAHPAUOBJECTSTRUCT@@E@Z:PROC ; gObjMonsterSearchEnemy
; Function compile flags: /Odtp /ZI
_TEXT	SEGMENT
_lpObj$ = -12						; size = 4
_iSelupanIndex$ = -8					; size = 4
_this$ = -4						; size = 4
?GetSelupanTargetIndex@CRaklionSelupan@@QAEHXZ PROC	; CRaklionSelupan::GetSelupanTargetIndex
; _this$ = ecx

; 432  : {

  00ed0	55		 push	 ebp
  00ed1	8b ec		 mov	 ebp, esp
  00ed3	83 ec 4c	 sub	 esp, 76			; 0000004cH
  00ed6	53		 push	 ebx
  00ed7	56		 push	 esi
  00ed8	57		 push	 edi
  00ed9	89 4d fc	 mov	 DWORD PTR _this$[ebp], ecx

; 433  : 	int iSelupanIndex = this->GetSelupanObjIndex();

  00edc	8b 4d fc	 mov	 ecx, DWORD PTR _this$[ebp]
  00edf	e8 00 00 00 00	 call	 ?GetSelupanObjIndex@CRaklionSelupan@@QAEHXZ ; CRaklionSelupan::GetSelupanObjIndex
  00ee4	89 45 f8	 mov	 DWORD PTR _iSelupanIndex$[ebp], eax

; 434  : 
; 435  : 	LPOBJ lpObj = &gObj[iSelupanIndex];

  00ee7	8b 45 f8	 mov	 eax, DWORD PTR _iSelupanIndex$[ebp]
  00eea	69 c0 38 2b 00
	00		 imul	 eax, 11064		; 00002b38H
  00ef0	03 05 00 00 00
	00		 add	 eax, DWORD PTR ?gObj@@3PAUOBJECTSTRUCT@@A ; gObj
  00ef6	89 45 f4	 mov	 DWORD PTR _lpObj$[ebp], eax

; 436  : 
; 437  : 	
; 438  : 	if ( lpObj->TargetNumber >= 0 && lpObj->TargetNumber < OBJMAX ) 

  00ef9	8b 45 f4	 mov	 eax, DWORD PTR _lpObj$[ebp]
  00efc	0f bf 88 58 04
	00 00		 movsx	 ecx, WORD PTR [eax+1112]
  00f03	85 c9		 test	 ecx, ecx
  00f05	7c 1e		 jl	 SHORT $LN1@GetSelupan
  00f07	8b 45 f4	 mov	 eax, DWORD PTR _lpObj$[ebp]
  00f0a	0f bf 88 58 04
	00 00		 movsx	 ecx, WORD PTR [eax+1112]
  00f11	81 f9 98 3a 00
	00		 cmp	 ecx, 15000		; 00003a98H
  00f17	7d 0c		 jge	 SHORT $LN1@GetSelupan

; 439  : 	{
; 440  : 		return lpObj->TargetNumber;

  00f19	8b 45 f4	 mov	 eax, DWORD PTR _lpObj$[ebp]
  00f1c	0f bf 80 58 04
	00 00		 movsx	 eax, WORD PTR [eax+1112]
  00f23	eb 14		 jmp	 SHORT $LN2@GetSelupan
$LN1@GetSelupan:

; 441  : 	}
; 442  : 
; 443  : 	return gObjMonsterSearchEnemy(lpObj,lpObj->Type);

  00f25	8b 45 f4	 mov	 eax, DWORD PTR _lpObj$[ebp]
  00f28	0f b6 48 68	 movzx	 ecx, BYTE PTR [eax+104]
  00f2c	51		 push	 ecx
  00f2d	8b 55 f4	 mov	 edx, DWORD PTR _lpObj$[ebp]
  00f30	52		 push	 edx
  00f31	e8 00 00 00 00	 call	 ?gObjMonsterSearchEnemy@@YAHPAUOBJECTSTRUCT@@E@Z ; gObjMonsterSearchEnemy
  00f36	83 c4 08	 add	 esp, 8
$LN2@GetSelupan:

; 444  : }

  00f39	5f		 pop	 edi
  00f3a	5e		 pop	 esi
  00f3b	5b		 pop	 ebx
  00f3c	8b e5		 mov	 esp, ebp
  00f3e	5d		 pop	 ebp
  00f3f	c3		 ret	 0
?GetSelupanTargetIndex@CRaklionSelupan@@QAEHXZ ENDP	; CRaklionSelupan::GetSelupanTargetIndex
_TEXT	ENDS
PUBLIC	??_C@_0EB@HCMLCFKN@?$FL?5RAKLION?5?$FN?$FL?5SetSelupanSkillDela@ ; `string'
PUBLIC	?SetSelupanSkillDelay@CRaklionSelupan@@QAEXH@Z	; CRaklionSelupan::SetSelupanSkillDelay
;	COMDAT ??_C@_0EB@HCMLCFKN@?$FL?5RAKLION?5?$FN?$FL?5SetSelupanSkillDela@
CONST	SEGMENT
??_C@_0EB@HCMLCFKN@?$FL?5RAKLION?5?$FN?$FL?5SetSelupanSkillDela@ DB '[ RA'
	DB	'KLION ][ SetSelupanSkillDelay ] SkillDelay error : Delay(%d)', 00H ; `string'
; Function compile flags: /Odtp /ZI
CONST	ENDS
_TEXT	SEGMENT
_this$ = -4						; size = 4
_SkillDelay$ = 8					; size = 4
?SetSelupanSkillDelay@CRaklionSelupan@@QAEXH@Z PROC	; CRaklionSelupan::SetSelupanSkillDelay
; _this$ = ecx

; 447  : {

  00f40	55		 push	 ebp
  00f41	8b ec		 mov	 ebp, esp
  00f43	83 ec 44	 sub	 esp, 68			; 00000044H
  00f46	53		 push	 ebx
  00f47	56		 push	 esi
  00f48	57		 push	 edi
  00f49	89 4d fc	 mov	 DWORD PTR _this$[ebp], ecx

; 448  : 	if ( SkillDelay < 0 || SkillDelay > 50000 )

  00f4c	83 7d 08 00	 cmp	 DWORD PTR _SkillDelay$[ebp], 0
  00f50	7c 09		 jl	 SHORT $LN1@SetSelupan
  00f52	81 7d 08 50 c3
	00 00		 cmp	 DWORD PTR _SkillDelay$[ebp], 50000 ; 0000c350H
  00f59	7e 1c		 jle	 SHORT $LN2@SetSelupan
$LN1@SetSelupan:

; 449  : 	{
; 450  : 		LogAddC(2,"[ RAKLION ][ SetSelupanSkillDelay ] SkillDelay error : Delay(%d)",this->m_iSelupanSkillDelay);

  00f5b	8b 45 fc	 mov	 eax, DWORD PTR _this$[ebp]
  00f5e	8b 88 90 0c 00
	00		 mov	 ecx, DWORD PTR [eax+3216]
  00f64	51		 push	 ecx
  00f65	68 00 00 00 00	 push	 OFFSET ??_C@_0EB@HCMLCFKN@?$FL?5RAKLION?5?$FN?$FL?5SetSelupanSkillDela@
  00f6a	6a 02		 push	 2
  00f6c	ff 15 00 00 00
	00		 call	 DWORD PTR ?LogAddC@@3P6AXEPADZZA ; LogAddC
  00f72	83 c4 0c	 add	 esp, 12			; 0000000cH

; 451  : 		return;

  00f75	eb 0c		 jmp	 SHORT $LN3@SetSelupan
$LN2@SetSelupan:

; 452  : 	}
; 453  : 	
; 454  : 	this->m_iSelupanSkillDelay = SkillDelay;

  00f77	8b 45 fc	 mov	 eax, DWORD PTR _this$[ebp]
  00f7a	8b 4d 08	 mov	 ecx, DWORD PTR _SkillDelay$[ebp]
  00f7d	89 88 90 0c 00
	00		 mov	 DWORD PTR [eax+3216], ecx
$LN3@SetSelupan:

; 455  : }

  00f83	5f		 pop	 edi
  00f84	5e		 pop	 esi
  00f85	5b		 pop	 ebx
  00f86	8b e5		 mov	 esp, ebp
  00f88	5d		 pop	 ebp
  00f89	c2 04 00	 ret	 4
?SetSelupanSkillDelay@CRaklionSelupan@@QAEXH@Z ENDP	; CRaklionSelupan::SetSelupanSkillDelay
_TEXT	ENDS
PUBLIC	??_C@_0EB@CEPDAMEN@?$FL?5RAKLION?5?$FN?$FL?5GetSelupanSkillDela@ ; `string'
PUBLIC	?GetSelupanSkillDelay@CRaklionSelupan@@QAEHXZ	; CRaklionSelupan::GetSelupanSkillDelay
;	COMDAT ??_C@_0EB@CEPDAMEN@?$FL?5RAKLION?5?$FN?$FL?5GetSelupanSkillDela@
CONST	SEGMENT
??_C@_0EB@CEPDAMEN@?$FL?5RAKLION?5?$FN?$FL?5GetSelupanSkillDela@ DB '[ RA'
	DB	'KLION ][ GetSelupanSkillDelay ] SkillDelay error : Delay(%d)', 00H ; `string'
; Function compile flags: /Odtp /ZI
CONST	ENDS
_TEXT	SEGMENT
_this$ = -4						; size = 4
?GetSelupanSkillDelay@CRaklionSelupan@@QAEHXZ PROC	; CRaklionSelupan::GetSelupanSkillDelay
; _this$ = ecx

; 458  : {

  00f90	55		 push	 ebp
  00f91	8b ec		 mov	 ebp, esp
  00f93	83 ec 44	 sub	 esp, 68			; 00000044H
  00f96	53		 push	 ebx
  00f97	56		 push	 esi
  00f98	57		 push	 edi
  00f99	89 4d fc	 mov	 DWORD PTR _this$[ebp], ecx

; 459  : 	if ( this->m_iSelupanSkillDelay < 0 || this->m_iSelupanSkillDelay > 50000 )

  00f9c	8b 45 fc	 mov	 eax, DWORD PTR _this$[ebp]
  00f9f	83 b8 90 0c 00
	00 00		 cmp	 DWORD PTR [eax+3216], 0
  00fa6	7c 0f		 jl	 SHORT $LN1@GetSelupan@2
  00fa8	8b 45 fc	 mov	 eax, DWORD PTR _this$[ebp]
  00fab	81 b8 90 0c 00
	00 50 c3 00 00	 cmp	 DWORD PTR [eax+3216], 50000 ; 0000c350H
  00fb5	7e 1f		 jle	 SHORT $LN2@GetSelupan@2
$LN1@GetSelupan@2:

; 460  : 	{
; 461  : 		LogAddC(2,"[ RAKLION ][ GetSelupanSkillDelay ] SkillDelay error : Delay(%d)",this->m_iSelupanSkillDelay);

  00fb7	8b 45 fc	 mov	 eax, DWORD PTR _this$[ebp]
  00fba	8b 88 90 0c 00
	00		 mov	 ecx, DWORD PTR [eax+3216]
  00fc0	51		 push	 ecx
  00fc1	68 00 00 00 00	 push	 OFFSET ??_C@_0EB@CEPDAMEN@?$FL?5RAKLION?5?$FN?$FL?5GetSelupanSkillDela@
  00fc6	6a 02		 push	 2
  00fc8	ff 15 00 00 00
	00		 call	 DWORD PTR ?LogAddC@@3P6AXEPADZZA ; LogAddC
  00fce	83 c4 0c	 add	 esp, 12			; 0000000cH

; 462  : 		return -1;

  00fd1	83 c8 ff	 or	 eax, -1
  00fd4	eb 09		 jmp	 SHORT $LN3@GetSelupan@2
$LN2@GetSelupan@2:

; 463  : 	}
; 464  : 
; 465  : 	return this->m_iSelupanSkillDelay;

  00fd6	8b 45 fc	 mov	 eax, DWORD PTR _this$[ebp]
  00fd9	8b 80 90 0c 00
	00		 mov	 eax, DWORD PTR [eax+3216]
$LN3@GetSelupan@2:

; 466  : }

  00fdf	5f		 pop	 edi
  00fe0	5e		 pop	 esi
  00fe1	5b		 pop	 ebx
  00fe2	8b e5		 mov	 esp, ebp
  00fe4	5d		 pop	 ebp
  00fe5	c3		 ret	 0
?GetSelupanSkillDelay@CRaklionSelupan@@QAEHXZ ENDP	; CRaklionSelupan::GetSelupanSkillDelay
_TEXT	ENDS
PUBLIC	?GetBerserkIndex@CRaklionSelupan@@QAEHXZ	; CRaklionSelupan::GetBerserkIndex
; Function compile flags: /Odtp /ZI
_TEXT	SEGMENT
_this$ = -4						; size = 4
?GetBerserkIndex@CRaklionSelupan@@QAEHXZ PROC		; CRaklionSelupan::GetBerserkIndex
; _this$ = ecx

; 469  : {

  00ff0	55		 push	 ebp
  00ff1	8b ec		 mov	 ebp, esp
  00ff3	83 ec 44	 sub	 esp, 68			; 00000044H
  00ff6	53		 push	 ebx
  00ff7	56		 push	 esi
  00ff8	57		 push	 edi
  00ff9	89 4d fc	 mov	 DWORD PTR _this$[ebp], ecx

; 470  : 	return this->m_iBerserkIndex;

  00ffc	8b 45 fc	 mov	 eax, DWORD PTR _this$[ebp]
  00fff	8b 80 94 0c 00
	00		 mov	 eax, DWORD PTR [eax+3220]

; 471  : }

  01005	5f		 pop	 edi
  01006	5e		 pop	 esi
  01007	5b		 pop	 ebx
  01008	8b e5		 mov	 esp, ebp
  0100a	5d		 pop	 ebp
  0100b	c3		 ret	 0
?GetBerserkIndex@CRaklionSelupan@@QAEHXZ ENDP		; CRaklionSelupan::GetBerserkIndex
_TEXT	ENDS
PUBLIC	?SetBossAttackDamage@CRaklionSelupan@@QAEXHH@Z	; CRaklionSelupan::SetBossAttackDamage
; Function compile flags: /Odtp /ZI
_TEXT	SEGMENT
_this$ = -4						; size = 4
_DamageMin$ = 8						; size = 4
_DamageMax$ = 12					; size = 4
?SetBossAttackDamage@CRaklionSelupan@@QAEXHH@Z PROC	; CRaklionSelupan::SetBossAttackDamage
; _this$ = ecx

; 474  : {

  01010	55		 push	 ebp
  01011	8b ec		 mov	 ebp, esp
  01013	83 ec 44	 sub	 esp, 68			; 00000044H
  01016	53		 push	 ebx
  01017	56		 push	 esi
  01018	57		 push	 edi
  01019	89 4d fc	 mov	 DWORD PTR _this$[ebp], ecx

; 475  : 	this->m_iBossAttackMin = DamageMin;

  0101c	8b 45 fc	 mov	 eax, DWORD PTR _this$[ebp]
  0101f	8b 4d 08	 mov	 ecx, DWORD PTR _DamageMin$[ebp]
  01022	89 88 98 0c 00
	00		 mov	 DWORD PTR [eax+3224], ecx

; 476  : 	this->m_iBossAttackMax = DamageMax;

  01028	8b 45 fc	 mov	 eax, DWORD PTR _this$[ebp]
  0102b	8b 4d 0c	 mov	 ecx, DWORD PTR _DamageMax$[ebp]
  0102e	89 88 9c 0c 00
	00		 mov	 DWORD PTR [eax+3228], ecx

; 477  : }

  01034	5f		 pop	 edi
  01035	5e		 pop	 esi
  01036	5b		 pop	 ebx
  01037	8b e5		 mov	 esp, ebp
  01039	5d		 pop	 ebp
  0103a	c2 08 00	 ret	 8
?SetBossAttackDamage@CRaklionSelupan@@QAEXHH@Z ENDP	; CRaklionSelupan::SetBossAttackDamage
_TEXT	ENDS
PUBLIC	??_C@_0EE@JEAHABCI@?$FL?5RAKLION?5?$FN?$FL?5SetSelupanObjIndex?5@ ; `string'
PUBLIC	?SetSelupanObjIndex@CRaklionSelupan@@QAEXH@Z	; CRaklionSelupan::SetSelupanObjIndex
;	COMDAT ??_C@_0EE@JEAHABCI@?$FL?5RAKLION?5?$FN?$FL?5SetSelupanObjIndex?5@
CONST	SEGMENT
??_C@_0EE@JEAHABCI@?$FL?5RAKLION?5?$FN?$FL?5SetSelupanObjIndex?5@ DB '[ R'
	DB	'AKLION ][ SetSelupanObjIndex ] SelupanObjIndex error : Index('
	DB	'%d)', 00H					; `string'
; Function compile flags: /Odtp /ZI
CONST	ENDS
_TEXT	SEGMENT
_this$ = -4						; size = 4
_arg1$ = 8						; size = 4
?SetSelupanObjIndex@CRaklionSelupan@@QAEXH@Z PROC	; CRaklionSelupan::SetSelupanObjIndex
; _this$ = ecx

; 480  : {

  01040	55		 push	 ebp
  01041	8b ec		 mov	 ebp, esp
  01043	83 ec 44	 sub	 esp, 68			; 00000044H
  01046	53		 push	 ebx
  01047	56		 push	 esi
  01048	57		 push	 edi
  01049	89 4d fc	 mov	 DWORD PTR _this$[ebp], ecx

; 481  : 	if ( arg1 < 0 || arg1 > OBJ_MAXMONSTER ) 

  0104c	83 7d 08 00	 cmp	 DWORD PTR _arg1$[ebp], 0
  01050	7c 09		 jl	 SHORT $LN1@SetSelupan@2
  01052	81 7d 08 c8 32
	00 00		 cmp	 DWORD PTR _arg1$[ebp], 13000 ; 000032c8H
  01059	7e 16		 jle	 SHORT $LN2@SetSelupan@2
$LN1@SetSelupan@2:

; 482  : 	{
; 483  : 		LogAddC(2,"[ RAKLION ][ SetSelupanObjIndex ] SelupanObjIndex error : Index(%d)", arg1);

  0105b	8b 45 08	 mov	 eax, DWORD PTR _arg1$[ebp]
  0105e	50		 push	 eax
  0105f	68 00 00 00 00	 push	 OFFSET ??_C@_0EE@JEAHABCI@?$FL?5RAKLION?5?$FN?$FL?5SetSelupanObjIndex?5@
  01064	6a 02		 push	 2
  01066	ff 15 00 00 00
	00		 call	 DWORD PTR ?LogAddC@@3P6AXEPADZZA ; LogAddC
  0106c	83 c4 0c	 add	 esp, 12			; 0000000cH

; 484  : 		return;

  0106f	eb 09		 jmp	 SHORT $LN3@SetSelupan@2
$LN2@SetSelupan@2:

; 485  : 	}
; 486  : 
; 487  : 	this->m_iSelupanObjIndex = arg1;

  01071	8b 45 fc	 mov	 eax, DWORD PTR _this$[ebp]
  01074	8b 4d 08	 mov	 ecx, DWORD PTR _arg1$[ebp]
  01077	89 48 04	 mov	 DWORD PTR [eax+4], ecx
$LN3@SetSelupan@2:

; 488  : }

  0107a	5f		 pop	 edi
  0107b	5e		 pop	 esi
  0107c	5b		 pop	 ebx
  0107d	8b e5		 mov	 esp, ebp
  0107f	5d		 pop	 ebp
  01080	c2 04 00	 ret	 4
?SetSelupanObjIndex@CRaklionSelupan@@QAEXH@Z ENDP	; CRaklionSelupan::SetSelupanObjIndex
; Function compile flags: /Odtp /ZI
_this$ = -4						; size = 4
?GetSelupanObjIndex@CRaklionSelupan@@QAEHXZ PROC	; CRaklionSelupan::GetSelupanObjIndex
; _this$ = ecx

; 491  : {

  01090	55		 push	 ebp
  01091	8b ec		 mov	 ebp, esp
  01093	83 ec 44	 sub	 esp, 68			; 00000044H
  01096	53		 push	 ebx
  01097	56		 push	 esi
  01098	57		 push	 edi
  01099	89 4d fc	 mov	 DWORD PTR _this$[ebp], ecx

; 492  : 	this->InitSelupanObjIndex();

  0109c	8b 4d fc	 mov	 ecx, DWORD PTR _this$[ebp]
  0109f	e8 00 00 00 00	 call	 ?InitSelupanObjIndex@CRaklionSelupan@@QAEXXZ ; CRaklionSelupan::InitSelupanObjIndex

; 493  : 
; 494  : 	return this->m_iSelupanObjIndex;

  010a4	8b 45 fc	 mov	 eax, DWORD PTR _this$[ebp]
  010a7	8b 40 04	 mov	 eax, DWORD PTR [eax+4]

; 495  : }

  010aa	5f		 pop	 edi
  010ab	5e		 pop	 esi
  010ac	5b		 pop	 ebx
  010ad	8b e5		 mov	 esp, ebp
  010af	5d		 pop	 ebp
  010b0	c3		 ret	 0
?GetSelupanObjIndex@CRaklionSelupan@@QAEHXZ ENDP	; CRaklionSelupan::GetSelupanObjIndex
_TEXT	ENDS
PUBLIC	??_C@_0DB@NHKFKAEF@?$FLRAKLION?$FN?5Summoned?5Monster?5?3?5?$CFs?5@ ; `string'
EXTRN	?gObjCharZeroSet@@YAXH@Z:PROC			; gObjCharZeroSet
;	COMDAT ??_C@_0DB@NHKFKAEF@?$FLRAKLION?$FN?5Summoned?5Monster?5?3?5?$CFs?5@
CONST	SEGMENT
??_C@_0DB@NHKFKAEF@?$FLRAKLION?$FN?5Summoned?5Monster?5?3?5?$CFs?5@ DB '['
	DB	'RAKLION] Summoned Monster : %s => X-(%d) Y-(%d)', 00H ; `string'
; Function compile flags: /Odtp /ZI
CONST	ENDS
_TEXT	SEGMENT
_iMonsterIndex$227824 = -24				; size = 4
_i$227816 = -20						; size = 4
_loc4$ = -16						; size = 4
_loc3$ = -12						; size = 4
_lpObj$ = -8						; size = 4
_this$ = -4						; size = 4
?CreateSummonMonster@CRaklionSelupan@@QAEXXZ PROC	; CRaklionSelupan::CreateSummonMonster
; _this$ = ecx

; 498  : {

  010c0	55		 push	 ebp
  010c1	8b ec		 mov	 ebp, esp
  010c3	83 ec 58	 sub	 esp, 88			; 00000058H
  010c6	53		 push	 ebx
  010c7	56		 push	 esi
  010c8	57		 push	 edi
  010c9	89 4d fc	 mov	 DWORD PTR _this$[ebp], ecx

; 499  : 	LPOBJ lpObj = NULL;//loc2 

  010cc	c7 45 f8 00 00
	00 00		 mov	 DWORD PTR _lpObj$[ebp], 0

; 500  : 	int loc3 = -1;

  010d3	c7 45 f4 ff ff
	ff ff		 mov	 DWORD PTR _loc3$[ebp], -1

; 501  : 	int loc4 = -1;

  010da	c7 45 f0 ff ff
	ff ff		 mov	 DWORD PTR _loc4$[ebp], -1

; 502  : 
; 503  : 	for (int i = 0; i < OBJ_MAXMONSTER; ++i )

  010e1	c7 45 ec 00 00
	00 00		 mov	 DWORD PTR _i$227816[ebp], 0
  010e8	eb 09		 jmp	 SHORT $LN8@CreateSumm
$LN7@CreateSumm:
  010ea	8b 45 ec	 mov	 eax, DWORD PTR _i$227816[ebp]
  010ed	83 c0 01	 add	 eax, 1
  010f0	89 45 ec	 mov	 DWORD PTR _i$227816[ebp], eax
$LN8@CreateSumm:
  010f3	81 7d ec c8 32
	00 00		 cmp	 DWORD PTR _i$227816[ebp], 13000 ; 000032c8H
  010fa	0f 8d 4c 01 00
	00		 jge	 $LN9@CreateSumm

; 504  : 	{
; 505  : 		lpObj = &gObj[i];

  01100	8b 45 ec	 mov	 eax, DWORD PTR _i$227816[ebp]
  01103	69 c0 38 2b 00
	00		 imul	 eax, 11064		; 00002b38H
  01109	03 05 00 00 00
	00		 add	 eax, DWORD PTR ?gObj@@3PAUOBJECTSTRUCT@@A ; gObj
  0110f	89 45 f8	 mov	 DWORD PTR _lpObj$[ebp], eax

; 506  : 
; 507  : 		if ( lpObj->MapNumber != MAP_INDEX_RAKLION_BOSS )

  01112	8b 45 f8	 mov	 eax, DWORD PTR _lpObj$[ebp]
  01115	0f b6 88 49 01
	00 00		 movzx	 ecx, BYTE PTR [eax+329]
  0111c	83 f9 3a	 cmp	 ecx, 58			; 0000003aH
  0111f	74 02		 je	 SHORT $LN5@CreateSumm

; 508  : 		{
; 509  : 			continue;

  01121	eb c7		 jmp	 SHORT $LN7@CreateSumm
$LN5@CreateSumm:

; 510  : 		}
; 511  : 
; 512  : 		if(lpObj->Class == 457 || lpObj->Class == 458)

  01123	8b 45 f8	 mov	 eax, DWORD PTR _lpObj$[ebp]
  01126	0f b7 88 b8 00
	00 00		 movzx	 ecx, WORD PTR [eax+184]
  0112d	81 f9 c9 01 00
	00		 cmp	 ecx, 457		; 000001c9H
  01133	74 16		 je	 SHORT $LN3@CreateSumm
  01135	8b 45 f8	 mov	 eax, DWORD PTR _lpObj$[ebp]
  01138	0f b7 88 b8 00
	00 00		 movzx	 ecx, WORD PTR [eax+184]
  0113f	81 f9 ca 01 00
	00		 cmp	 ecx, 458		; 000001caH
  01145	0f 85 fc 00 00
	00		 jne	 $LN4@CreateSumm
$LN3@CreateSumm:

; 513  : 		{
; 514  : 			if(lpObj->Connected == 3 && lpObj->DieRegen == 0 && lpObj->Live == 1) 

  0114b	8b 45 f8	 mov	 eax, DWORD PTR _lpObj$[ebp]
  0114e	83 78 04 03	 cmp	 DWORD PTR [eax+4], 3
  01152	75 1f		 jne	 SHORT $LN2@CreateSumm
  01154	8b 45 f8	 mov	 eax, DWORD PTR _lpObj$[ebp]
  01157	0f be 88 a2 03
	00 00		 movsx	 ecx, BYTE PTR [eax+930]
  0115e	85 c9		 test	 ecx, ecx
  01160	75 11		 jne	 SHORT $LN2@CreateSumm
  01162	8b 45 f8	 mov	 eax, DWORD PTR _lpObj$[ebp]
  01165	0f b6 48 6a	 movzx	 ecx, BYTE PTR [eax+106]
  01169	83 f9 01	 cmp	 ecx, 1
  0116c	75 05		 jne	 SHORT $LN2@CreateSumm

; 515  : 			{
; 516  : 				continue;

  0116e	e9 77 ff ff ff	 jmp	 $LN7@CreateSumm
$LN2@CreateSumm:

; 517  : 			}
; 518  : 
; 519  : 			loc4 = lpObj->Class;

  01173	8b 45 f8	 mov	 eax, DWORD PTR _lpObj$[ebp]
  01176	0f b7 88 b8 00
	00 00		 movzx	 ecx, WORD PTR [eax+184]
  0117d	89 4d f0	 mov	 DWORD PTR _loc4$[ebp], ecx

; 520  : 			loc3 = lpObj->m_PosNum;

  01180	8b 45 f8	 mov	 eax, DWORD PTR _lpObj$[ebp]
  01183	0f bf 88 b0 03
	00 00		 movsx	 ecx, WORD PTR [eax+944]
  0118a	89 4d f4	 mov	 DWORD PTR _loc3$[ebp], ecx

; 521  : 			
; 522  : 			gObjCharZeroSet(i);

  0118d	8b 45 ec	 mov	 eax, DWORD PTR _i$227816[ebp]
  01190	50		 push	 eax
  01191	e8 00 00 00 00	 call	 ?gObjCharZeroSet@@YAXH@Z ; gObjCharZeroSet
  01196	83 c4 04	 add	 esp, 4

; 523  : 			
; 524  : 			gObjDel(lpObj->m_Index);

  01199	8b 45 f8	 mov	 eax, DWORD PTR _lpObj$[ebp]
  0119c	8b 08		 mov	 ecx, DWORD PTR [eax]
  0119e	51		 push	 ecx
  0119f	e8 00 00 00 00	 call	 ?gObjDel@@YAFH@Z	; gObjDel
  011a4	83 c4 04	 add	 esp, 4

; 525  : 
; 526  : 			lpObj->Class = 0;

  011a7	33 c0		 xor	 eax, eax
  011a9	8b 4d f8	 mov	 ecx, DWORD PTR _lpObj$[ebp]
  011ac	66 89 81 b8 00
	00 00		 mov	 WORD PTR [ecx+184], ax

; 527  : 
; 528  : 			int iMonsterIndex = gObjAddMonster(MAP_INDEX_RAKLION_BOSS);

  011b3	6a 3a		 push	 58			; 0000003aH
  011b5	e8 00 00 00 00	 call	 ?gObjAddMonster@@YAFH@Z	; gObjAddMonster
  011ba	83 c4 04	 add	 esp, 4
  011bd	98		 cwde
  011be	89 45 e8	 mov	 DWORD PTR _iMonsterIndex$227824[ebp], eax

; 529  : 
; 530  : 			lpObj = &gObj[iMonsterIndex];

  011c1	8b 45 e8	 mov	 eax, DWORD PTR _iMonsterIndex$227824[ebp]
  011c4	69 c0 38 2b 00
	00		 imul	 eax, 11064		; 00002b38H
  011ca	03 05 00 00 00
	00		 add	 eax, DWORD PTR ?gObj@@3PAUOBJECTSTRUCT@@A ; gObj
  011d0	89 45 f8	 mov	 DWORD PTR _lpObj$[ebp], eax

; 531  : 
; 532  : 			if (iMonsterIndex >= 0)

  011d3	83 7d e8 00	 cmp	 DWORD PTR _iMonsterIndex$227824[ebp], 0
  011d7	7c 5e		 jl	 SHORT $LN1@CreateSumm

; 533  : 			{
; 534  : 				gObjSetPosMonster(iMonsterIndex, loc3);

  011d9	8b 45 f4	 mov	 eax, DWORD PTR _loc3$[ebp]
  011dc	50		 push	 eax
  011dd	8b 4d e8	 mov	 ecx, DWORD PTR _iMonsterIndex$227824[ebp]
  011e0	51		 push	 ecx
  011e1	e8 00 00 00 00	 call	 ?gObjSetPosMonster@@YAHHH@Z ; gObjSetPosMonster
  011e6	83 c4 08	 add	 esp, 8

; 535  : 				gObjSetMonster(iMonsterIndex, loc4); 

  011e9	8b 45 f0	 mov	 eax, DWORD PTR _loc4$[ebp]
  011ec	50		 push	 eax
  011ed	8b 4d e8	 mov	 ecx, DWORD PTR _iMonsterIndex$227824[ebp]
  011f0	51		 push	 ecx
  011f1	e8 00 00 00 00	 call	 ?gObjSetMonster@@YAHHH@Z ; gObjSetMonster
  011f6	83 c4 08	 add	 esp, 8

; 536  : 				lpObj->Live = 1;

  011f9	8b 45 f8	 mov	 eax, DWORD PTR _lpObj$[ebp]
  011fc	c6 40 6a 01	 mov	 BYTE PTR [eax+106], 1

; 537  : 				lpObj->DieRegen = 0;

  01200	8b 45 f8	 mov	 eax, DWORD PTR _lpObj$[ebp]
  01203	c6 80 a2 03 00
	00 00		 mov	 BYTE PTR [eax+930], 0

; 538  : 				LogAddTD("[RAKLION] Summoned Monster : %s => X-(%d) Y-(%d)",lpObj->Name,lpObj->X,lpObj->Y);

  0120a	8b 45 f8	 mov	 eax, DWORD PTR _lpObj$[ebp]
  0120d	0f bf 88 46 01
	00 00		 movsx	 ecx, WORD PTR [eax+326]
  01214	51		 push	 ecx
  01215	8b 55 f8	 mov	 edx, DWORD PTR _lpObj$[ebp]
  01218	0f bf 82 44 01
	00 00		 movsx	 eax, WORD PTR [edx+324]
  0121f	50		 push	 eax
  01220	8b 4d f8	 mov	 ecx, DWORD PTR _lpObj$[ebp]
  01223	83 c1 77	 add	 ecx, 119		; 00000077H
  01226	51		 push	 ecx
  01227	68 00 00 00 00	 push	 OFFSET ??_C@_0DB@NHKFKAEF@?$FLRAKLION?$FN?5Summoned?5Monster?5?3?5?$CFs?5@
  0122c	ff 15 00 00 00
	00		 call	 DWORD PTR ?LogAddTD@@3P6AXPADZZA ; LogAddTD
  01232	83 c4 10	 add	 esp, 16			; 00000010H

; 539  : 				return;

  01235	eb 15		 jmp	 SHORT $LN9@CreateSumm
$LN1@CreateSumm:

; 540  : 			}
; 541  : 
; 542  : 			LogAddTD("[RAKLION] CreateSelupan error");	

  01237	68 00 00 00 00	 push	 OFFSET ??_C@_0BO@MCDHLBHK@?$FLRAKLION?$FN?5CreateSelupan?5error?$AA@
  0123c	ff 15 00 00 00
	00		 call	 DWORD PTR ?LogAddTD@@3P6AXPADZZA ; LogAddTD
  01242	83 c4 04	 add	 esp, 4

; 543  : 			return;

  01245	eb 05		 jmp	 SHORT $LN9@CreateSumm
$LN4@CreateSumm:

; 544  : 		}
; 545  : 	}

  01247	e9 9e fe ff ff	 jmp	 $LN7@CreateSumm
$LN9@CreateSumm:

; 546  : }

  0124c	5f		 pop	 edi
  0124d	5e		 pop	 esi
  0124e	5b		 pop	 ebx
  0124f	8b e5		 mov	 esp, ebp
  01251	5d		 pop	 ebp
  01252	c3		 ret	 0
?CreateSummonMonster@CRaklionSelupan@@QAEXXZ ENDP	; CRaklionSelupan::CreateSummonMonster
_TEXT	ENDS
PUBLIC	??_C@_0DN@EPHHAGJF@?$FL?5RAKLION?5?$FN?5?$FL?5DeleteSummonMonste@ ; `string'
PUBLIC	?DeleteSummonMonster@CRaklionSelupan@@QAEXXZ	; CRaklionSelupan::DeleteSummonMonster
;	COMDAT ??_C@_0DN@EPHHAGJF@?$FL?5RAKLION?5?$FN?5?$FL?5DeleteSummonMonste@
CONST	SEGMENT
??_C@_0DN@EPHHAGJF@?$FL?5RAKLION?5?$FN?5?$FL?5DeleteSummonMonste@ DB '[ R'
	DB	'AKLION ] [ DeleteSummonMonster ] Delete All SummonMonster', 00H ; `string'
; Function compile flags: /Odtp /ZI
CONST	ENDS
_TEXT	SEGMENT
_i$227831 = -12						; size = 4
_lpObj$ = -8						; size = 4
_this$ = -4						; size = 4
?DeleteSummonMonster@CRaklionSelupan@@QAEXXZ PROC	; CRaklionSelupan::DeleteSummonMonster
; _this$ = ecx

; 549  : {

  01260	55		 push	 ebp
  01261	8b ec		 mov	 ebp, esp
  01263	83 ec 4c	 sub	 esp, 76			; 0000004cH
  01266	53		 push	 ebx
  01267	56		 push	 esi
  01268	57		 push	 edi
  01269	89 4d fc	 mov	 DWORD PTR _this$[ebp], ecx

; 550  : 	LPOBJ lpObj = NULL;

  0126c	c7 45 f8 00 00
	00 00		 mov	 DWORD PTR _lpObj$[ebp], 0

; 551  : 
; 552  : 	for(int i=0;i< OBJ_MAXMONSTER;i++)

  01273	c7 45 f4 00 00
	00 00		 mov	 DWORD PTR _i$227831[ebp], 0
  0127a	eb 09		 jmp	 SHORT $LN6@DeleteSumm
$LN5@DeleteSumm:
  0127c	8b 45 f4	 mov	 eax, DWORD PTR _i$227831[ebp]
  0127f	83 c0 01	 add	 eax, 1
  01282	89 45 f4	 mov	 DWORD PTR _i$227831[ebp], eax
$LN6@DeleteSumm:
  01285	81 7d f4 c8 32
	00 00		 cmp	 DWORD PTR _i$227831[ebp], 13000 ; 000032c8H
  0128c	0f 8d 83 00 00
	00		 jge	 $LN4@DeleteSumm

; 553  : 	{
; 554  : 		lpObj = &gObj[i];

  01292	8b 45 f4	 mov	 eax, DWORD PTR _i$227831[ebp]
  01295	69 c0 38 2b 00
	00		 imul	 eax, 11064		; 00002b38H
  0129b	03 05 00 00 00
	00		 add	 eax, DWORD PTR ?gObj@@3PAUOBJECTSTRUCT@@A ; gObj
  012a1	89 45 f8	 mov	 DWORD PTR _lpObj$[ebp], eax

; 555  : 
; 556  : 		if(lpObj->MapNumber != MAP_INDEX_RAKLION_BOSS)

  012a4	8b 45 f8	 mov	 eax, DWORD PTR _lpObj$[ebp]
  012a7	0f b6 88 49 01
	00 00		 movzx	 ecx, BYTE PTR [eax+329]
  012ae	83 f9 3a	 cmp	 ecx, 58			; 0000003aH
  012b1	74 02		 je	 SHORT $LN3@DeleteSumm

; 557  : 		{
; 558  : 			continue;

  012b3	eb c7		 jmp	 SHORT $LN5@DeleteSumm
$LN3@DeleteSumm:

; 559  : 		}
; 560  : 			
; 561  : 		if(lpObj->Class == 457 || lpObj->Class == 458)

  012b5	8b 45 f8	 mov	 eax, DWORD PTR _lpObj$[ebp]
  012b8	0f b7 88 b8 00
	00 00		 movzx	 ecx, WORD PTR [eax+184]
  012bf	81 f9 c9 01 00
	00		 cmp	 ecx, 457		; 000001c9H
  012c5	74 12		 je	 SHORT $LN1@DeleteSumm
  012c7	8b 45 f8	 mov	 eax, DWORD PTR _lpObj$[ebp]
  012ca	0f b7 88 b8 00
	00 00		 movzx	 ecx, WORD PTR [eax+184]
  012d1	81 f9 ca 01 00
	00		 cmp	 ecx, 458		; 000001caH
  012d7	75 37		 jne	 SHORT $LN2@DeleteSumm
$LN1@DeleteSumm:

; 562  : 		{
; 563  : 			gObjViewportListProtocolDestroy(lpObj);

  012d9	8b 45 f8	 mov	 eax, DWORD PTR _lpObj$[ebp]
  012dc	50		 push	 eax
  012dd	e8 00 00 00 00	 call	 ?gObjViewportListProtocolDestroy@@YAXPAUOBJECTSTRUCT@@@Z ; gObjViewportListProtocolDestroy
  012e2	83 c4 04	 add	 esp, 4

; 564  : 			gObjViewportClose(lpObj);

  012e5	8b 45 f8	 mov	 eax, DWORD PTR _lpObj$[ebp]
  012e8	50		 push	 eax
  012e9	e8 00 00 00 00	 call	 ?gObjViewportClose@@YAXPAUOBJECTSTRUCT@@@Z ; gObjViewportClose
  012ee	83 c4 04	 add	 esp, 4

; 565  : 			gObjDel(lpObj->m_Index);

  012f1	8b 45 f8	 mov	 eax, DWORD PTR _lpObj$[ebp]
  012f4	8b 08		 mov	 ecx, DWORD PTR [eax]
  012f6	51		 push	 ecx
  012f7	e8 00 00 00 00	 call	 ?gObjDel@@YAFH@Z	; gObjDel
  012fc	83 c4 04	 add	 esp, 4

; 566  : 			lpObj->Live = FALSE; 

  012ff	8b 45 f8	 mov	 eax, DWORD PTR _lpObj$[ebp]
  01302	c6 40 6a 00	 mov	 BYTE PTR [eax+106], 0

; 567  : 			lpObj->DieRegen = TRUE;

  01306	8b 45 f8	 mov	 eax, DWORD PTR _lpObj$[ebp]
  01309	c6 80 a2 03 00
	00 01		 mov	 BYTE PTR [eax+930], 1
$LN2@DeleteSumm:

; 568  : 		}
; 569  : 	}

  01310	e9 67 ff ff ff	 jmp	 $LN5@DeleteSumm
$LN4@DeleteSumm:

; 570  : 
; 571  : 	LogAddC(5,"[ RAKLION ] [ DeleteSummonMonster ] Delete All SummonMonster");

  01315	68 00 00 00 00	 push	 OFFSET ??_C@_0DN@EPHHAGJF@?$FL?5RAKLION?5?$FN?5?$FL?5DeleteSummonMonste@
  0131a	6a 05		 push	 5
  0131c	ff 15 00 00 00
	00		 call	 DWORD PTR ?LogAddC@@3P6AXEPADZZA ; LogAddC
  01322	83 c4 08	 add	 esp, 8

; 572  : }

  01325	5f		 pop	 edi
  01326	5e		 pop	 esi
  01327	5b		 pop	 ebx
  01328	8b e5		 mov	 esp, ebp
  0132a	5d		 pop	 ebp
  0132b	c3		 ret	 0
?DeleteSummonMonster@CRaklionSelupan@@QAEXXZ ENDP	; CRaklionSelupan::DeleteSummonMonster
_TEXT	ENDS
END
