; Listing generated by Microsoft (R) Optimizing Compiler Version 16.00.40219.01 

	TITLE	D:\Projects\ExTeam6.3\Source\GameServer\GameServer\Ranking.cpp
	.686P
	.XMM
	include listing.inc
	.model	flat

INCLUDELIB LIBCMT
INCLUDELIB OLDNAMES

PUBLIC	?gRanking@@3VcRanking@@A			; gRanking
_BSS	SEGMENT
?gRanking@@3VcRanking@@A DB 01130H DUP (?)		; gRanking
_BSS	ENDS
PUBLIC	??_H@YGXPAXIHP6EPAX0@Z@Z			; `vector constructor iterator'
; Function compile flags: /Odtp /ZI
;	COMDAT ??_H@YGXPAXIHP6EPAX0@Z@Z
_TEXT	SEGMENT
___t$ = 8						; size = 4
___s$ = 12						; size = 4
___n$ = 16						; size = 4
___f$ = 20						; size = 4
??_H@YGXPAXIHP6EPAX0@Z@Z PROC				; `vector constructor iterator', COMDAT
  00000	55		 push	 ebp
  00001	8b ec		 mov	 ebp, esp
  00003	83 ec 40	 sub	 esp, 64			; 00000040H
  00006	53		 push	 ebx
  00007	56		 push	 esi
  00008	57		 push	 edi
$LN2@vector:
  00009	8b 45 10	 mov	 eax, DWORD PTR ___n$[ebp]
  0000c	83 e8 01	 sub	 eax, 1
  0000f	89 45 10	 mov	 DWORD PTR ___n$[ebp], eax
  00012	78 11		 js	 SHORT $LN3@vector
  00014	8b 4d 08	 mov	 ecx, DWORD PTR ___t$[ebp]
  00017	ff 55 14	 call	 DWORD PTR ___f$[ebp]
  0001a	8b 45 08	 mov	 eax, DWORD PTR ___t$[ebp]
  0001d	03 45 0c	 add	 eax, DWORD PTR ___s$[ebp]
  00020	89 45 08	 mov	 DWORD PTR ___t$[ebp], eax
  00023	eb e4		 jmp	 SHORT $LN2@vector
$LN3@vector:
  00025	5f		 pop	 edi
  00026	5e		 pop	 esi
  00027	5b		 pop	 ebx
  00028	8b e5		 mov	 esp, ebp
  0002a	5d		 pop	 ebp
  0002b	c2 10 00	 ret	 16			; 00000010H
??_H@YGXPAXIHP6EPAX0@Z@Z ENDP				; `vector constructor iterator'
_TEXT	ENDS
PUBLIC	?set@PBMSG_HEAD2@@QAEXPAEEEE@Z			; PBMSG_HEAD2::set
PUBLIC	?SendDS@cRanking@@QAEXXZ			; cRanking::SendDS
EXTRN	?Send@DBSockMng@@QAEHPADH@Z:PROC		; DBSockMng::Send
EXTRN	?cDBSMng@@3VDBSockMng@@A:BYTE			; cDBSMng
EXTRN	?ExConfig@@3VcExConfigs@@A:BYTE			; ExConfig
; Function compile flags: /Odtp /ZI
; File d:\projects\exteam6.3\source\gameserver\gameserver\ranking.cpp
_TEXT	SEGMENT
_pMsg$ = -12						; size = 5
_this$ = -4						; size = 4
?SendDS@cRanking@@QAEXXZ PROC				; cRanking::SendDS
; _this$ = ecx

; 14   : {

  00000	55		 push	 ebp
  00001	8b ec		 mov	 ebp, esp
  00003	83 ec 4c	 sub	 esp, 76			; 0000004cH
  00006	53		 push	 ebx
  00007	56		 push	 esi
  00008	57		 push	 edi
  00009	89 4d fc	 mov	 DWORD PTR _this$[ebp], ecx

; 15   : 	if(!ExConfig.ExCustom.Top100)return;

  0000c	0f b6 05 09 00
	00 00		 movzx	 eax, BYTE PTR ?ExConfig@@3VcExConfigs@@A+9
  00013	85 c0		 test	 eax, eax
  00015	75 02		 jne	 SHORT $LN1@SendDS
  00017	eb 2c		 jmp	 SHORT $LN2@SendDS
$LN1@SendDS:

; 16   : 	GDTop pMsg;
; 17   : 	pMsg.h.set((LPBYTE)&pMsg, 0xE2, 0x03, sizeof(GDTop));

  00019	6a 05		 push	 5
  0001b	6a 03		 push	 3
  0001d	68 e2 00 00 00	 push	 226			; 000000e2H
  00022	8d 45 f4	 lea	 eax, DWORD PTR _pMsg$[ebp]
  00025	50		 push	 eax
  00026	8d 4d f4	 lea	 ecx, DWORD PTR _pMsg$[ebp]
  00029	e8 00 00 00 00	 call	 ?set@PBMSG_HEAD2@@QAEXPAEEEE@Z ; PBMSG_HEAD2::set

; 18   : 	pMsg.Result = 1;

  0002e	c6 45 f8 01	 mov	 BYTE PTR _pMsg$[ebp+4], 1

; 19   : 	cDBSMng.Send((char*)&pMsg, pMsg.h.size);

  00032	0f b6 45 f5	 movzx	 eax, BYTE PTR _pMsg$[ebp+1]
  00036	50		 push	 eax
  00037	8d 4d f4	 lea	 ecx, DWORD PTR _pMsg$[ebp]
  0003a	51		 push	 ecx
  0003b	b9 00 00 00 00	 mov	 ecx, OFFSET ?cDBSMng@@3VDBSockMng@@A ; cDBSMng
  00040	e8 00 00 00 00	 call	 ?Send@DBSockMng@@QAEHPADH@Z ; DBSockMng::Send
$LN2@SendDS:

; 20   : }

  00045	5f		 pop	 edi
  00046	5e		 pop	 esi
  00047	5b		 pop	 ebx
  00048	8b e5		 mov	 esp, ebp
  0004a	5d		 pop	 ebp
  0004b	c3		 ret	 0
?SendDS@cRanking@@QAEXXZ ENDP				; cRanking::SendDS
; Function compile flags: /Odtp /ZI
; File d:\projects\exteam6.3\source\gameserver\include\prodef.h
_TEXT	ENDS
;	COMDAT ?set@PBMSG_HEAD2@@QAEXPAEEEE@Z
_TEXT	SEGMENT
_this$ = -4						; size = 4
_lpBuf$ = 8						; size = 4
_head$ = 12						; size = 1
_sub$ = 16						; size = 1
_size$ = 20						; size = 1
?set@PBMSG_HEAD2@@QAEXPAEEEE@Z PROC			; PBMSG_HEAD2::set, COMDAT
; _this$ = ecx

; 104  : 	{

  00000	55		 push	 ebp
  00001	8b ec		 mov	 ebp, esp
  00003	83 ec 44	 sub	 esp, 68			; 00000044H
  00006	53		 push	 ebx
  00007	56		 push	 esi
  00008	57		 push	 edi
  00009	89 4d fc	 mov	 DWORD PTR _this$[ebp], ecx

; 105  : 		lpBuf[0] = 0xC1;

  0000c	8b 45 08	 mov	 eax, DWORD PTR _lpBuf$[ebp]
  0000f	c6 00 c1	 mov	 BYTE PTR [eax], 193	; 000000c1H

; 106  : 		lpBuf[1] = size;

  00012	8b 45 08	 mov	 eax, DWORD PTR _lpBuf$[ebp]
  00015	8a 4d 14	 mov	 cl, BYTE PTR _size$[ebp]
  00018	88 48 01	 mov	 BYTE PTR [eax+1], cl

; 107  : 		lpBuf[2] = head;

  0001b	8b 45 08	 mov	 eax, DWORD PTR _lpBuf$[ebp]
  0001e	8a 4d 0c	 mov	 cl, BYTE PTR _head$[ebp]
  00021	88 48 02	 mov	 BYTE PTR [eax+2], cl

; 108  : 		lpBuf[3] = sub;

  00024	8b 45 08	 mov	 eax, DWORD PTR _lpBuf$[ebp]
  00027	8a 4d 10	 mov	 cl, BYTE PTR _sub$[ebp]
  0002a	88 48 03	 mov	 BYTE PTR [eax+3], cl

; 109  : 	};

  0002d	5f		 pop	 edi
  0002e	5e		 pop	 esi
  0002f	5b		 pop	 ebx
  00030	8b e5		 mov	 esp, ebp
  00032	5d		 pop	 ebp
  00033	c2 10 00	 ret	 16			; 00000010H
?set@PBMSG_HEAD2@@QAEXPAEEEE@Z ENDP			; PBMSG_HEAD2::set
_TEXT	ENDS
PUBLIC	?RecvDS@cRanking@@QAEXPAUDGCharTop@@@Z		; cRanking::RecvDS
EXTRN	_strncpy:PROC
; Function compile flags: /Odtp /ZI
; File d:\projects\exteam6.3\source\gameserver\gameserver\ranking.cpp
_TEXT	SEGMENT
_i$220607 = -8						; size = 4
_this$ = -4						; size = 4
_Recv$ = 8						; size = 4
?RecvDS@cRanking@@QAEXPAUDGCharTop@@@Z PROC		; cRanking::RecvDS
; _this$ = ecx

; 23   : {

  00050	55		 push	 ebp
  00051	8b ec		 mov	 ebp, esp
  00053	83 ec 48	 sub	 esp, 72			; 00000048H
  00056	53		 push	 ebx
  00057	56		 push	 esi
  00058	57		 push	 edi
  00059	89 4d fc	 mov	 DWORD PTR _this$[ebp], ecx

; 24   : 	if(!ExConfig.ExCustom.Top100)return;

  0005c	0f b6 05 09 00
	00 00		 movzx	 eax, BYTE PTR ?ExConfig@@3VcExConfigs@@A+9
  00063	85 c0		 test	 eax, eax
  00065	75 05		 jne	 SHORT $LN4@RecvDS
  00067	e9 7b 01 00 00	 jmp	 $LN5@RecvDS
$LN4@RecvDS:

; 25   : 
; 26   : 	for(int i=0;i<MAXTOP;i++)

  0006c	c7 45 f8 00 00
	00 00		 mov	 DWORD PTR _i$220607[ebp], 0
  00073	eb 09		 jmp	 SHORT $LN3@RecvDS
$LN2@RecvDS:
  00075	8b 45 f8	 mov	 eax, DWORD PTR _i$220607[ebp]
  00078	83 c0 01	 add	 eax, 1
  0007b	89 45 f8	 mov	 DWORD PTR _i$220607[ebp], eax
$LN3@RecvDS:
  0007e	83 7d f8 64	 cmp	 DWORD PTR _i$220607[ebp], 100 ; 00000064H
  00082	0f 8d 5f 01 00
	00		 jge	 $LN5@RecvDS

; 27   : 	{
; 28   : 		/*
; 29   : 	BYTE Class;
; 30   : 	unsigned short level;
; 31   : 	unsigned short Reset;
; 32   : 	unsigned short Grand;
; 33   : 	unsigned short Str;
; 34   : 	unsigned short Agi;
; 35   : 	unsigned short Vit;
; 36   : 	unsigned short Ene;
; 37   : 	unsigned Cmd;
; 38   : 	char Guild[8];
; 39   : 		*/
; 40   : 		strncpy(this->RankingChar[i].Name,Recv->tp[i].Name,10);

  00088	6a 0a		 push	 10			; 0000000aH
  0008a	8b 45 f8	 mov	 eax, DWORD PTR _i$220607[ebp]
  0008d	6b c0 2c	 imul	 eax, 44			; 0000002cH
  00090	8b 4d 08	 mov	 ecx, DWORD PTR _Recv$[ebp]
  00093	8d 54 01 08	 lea	 edx, DWORD PTR [ecx+eax+8]
  00097	52		 push	 edx
  00098	8b 45 f8	 mov	 eax, DWORD PTR _i$220607[ebp]
  0009b	6b c0 2c	 imul	 eax, 44			; 0000002cH
  0009e	03 45 fc	 add	 eax, DWORD PTR _this$[ebp]
  000a1	50		 push	 eax
  000a2	e8 00 00 00 00	 call	 _strncpy
  000a7	83 c4 0c	 add	 esp, 12			; 0000000cH

; 41   : 
; 42   : 		this->RankingChar[i].Class = Recv->tp[i].Class;

  000aa	8b 45 f8	 mov	 eax, DWORD PTR _i$220607[ebp]
  000ad	6b c0 2c	 imul	 eax, 44			; 0000002cH
  000b0	8b 4d f8	 mov	 ecx, DWORD PTR _i$220607[ebp]
  000b3	6b c9 2c	 imul	 ecx, 44			; 0000002cH
  000b6	8b 55 fc	 mov	 edx, DWORD PTR _this$[ebp]
  000b9	8b 75 08	 mov	 esi, DWORD PTR _Recv$[ebp]
  000bc	8a 44 06 12	 mov	 al, BYTE PTR [esi+eax+18]
  000c0	88 44 0a 0a	 mov	 BYTE PTR [edx+ecx+10], al

; 43   : 		this->RankingChar[i].level = Recv->tp[i].level;

  000c4	8b 45 f8	 mov	 eax, DWORD PTR _i$220607[ebp]
  000c7	6b c0 2c	 imul	 eax, 44			; 0000002cH
  000ca	8b 4d f8	 mov	 ecx, DWORD PTR _i$220607[ebp]
  000cd	6b c9 2c	 imul	 ecx, 44			; 0000002cH
  000d0	8b 55 fc	 mov	 edx, DWORD PTR _this$[ebp]
  000d3	8b 75 08	 mov	 esi, DWORD PTR _Recv$[ebp]
  000d6	66 8b 44 06 14	 mov	 ax, WORD PTR [esi+eax+20]
  000db	66 89 44 0a 0c	 mov	 WORD PTR [edx+ecx+12], ax

; 44   : 		this->RankingChar[i].Reset = Recv->tp[i].Reset;

  000e0	8b 45 f8	 mov	 eax, DWORD PTR _i$220607[ebp]
  000e3	6b c0 2c	 imul	 eax, 44			; 0000002cH
  000e6	8b 4d f8	 mov	 ecx, DWORD PTR _i$220607[ebp]
  000e9	6b c9 2c	 imul	 ecx, 44			; 0000002cH
  000ec	8b 55 fc	 mov	 edx, DWORD PTR _this$[ebp]
  000ef	8b 75 08	 mov	 esi, DWORD PTR _Recv$[ebp]
  000f2	66 8b 44 06 16	 mov	 ax, WORD PTR [esi+eax+22]
  000f7	66 89 44 0a 0e	 mov	 WORD PTR [edx+ecx+14], ax

; 45   : 		this->RankingChar[i].Grand = Recv->tp[i].Grand;

  000fc	8b 45 f8	 mov	 eax, DWORD PTR _i$220607[ebp]
  000ff	6b c0 2c	 imul	 eax, 44			; 0000002cH
  00102	8b 4d f8	 mov	 ecx, DWORD PTR _i$220607[ebp]
  00105	6b c9 2c	 imul	 ecx, 44			; 0000002cH
  00108	8b 55 fc	 mov	 edx, DWORD PTR _this$[ebp]
  0010b	8b 75 08	 mov	 esi, DWORD PTR _Recv$[ebp]
  0010e	66 8b 44 06 18	 mov	 ax, WORD PTR [esi+eax+24]
  00113	66 89 44 0a 10	 mov	 WORD PTR [edx+ecx+16], ax

; 46   : 		this->RankingChar[i].Str = Recv->tp[i].Str;

  00118	8b 45 f8	 mov	 eax, DWORD PTR _i$220607[ebp]
  0011b	6b c0 2c	 imul	 eax, 44			; 0000002cH
  0011e	8b 4d f8	 mov	 ecx, DWORD PTR _i$220607[ebp]
  00121	6b c9 2c	 imul	 ecx, 44			; 0000002cH
  00124	8b 55 fc	 mov	 edx, DWORD PTR _this$[ebp]
  00127	8b 75 08	 mov	 esi, DWORD PTR _Recv$[ebp]
  0012a	66 8b 44 06 1a	 mov	 ax, WORD PTR [esi+eax+26]
  0012f	66 89 44 0a 12	 mov	 WORD PTR [edx+ecx+18], ax

; 47   : 		this->RankingChar[i].Agi = Recv->tp[i].Agi;

  00134	8b 45 f8	 mov	 eax, DWORD PTR _i$220607[ebp]
  00137	6b c0 2c	 imul	 eax, 44			; 0000002cH
  0013a	8b 4d f8	 mov	 ecx, DWORD PTR _i$220607[ebp]
  0013d	6b c9 2c	 imul	 ecx, 44			; 0000002cH
  00140	8b 55 fc	 mov	 edx, DWORD PTR _this$[ebp]
  00143	8b 75 08	 mov	 esi, DWORD PTR _Recv$[ebp]
  00146	66 8b 44 06 1c	 mov	 ax, WORD PTR [esi+eax+28]
  0014b	66 89 44 0a 14	 mov	 WORD PTR [edx+ecx+20], ax

; 48   : 		this->RankingChar[i].Vit = Recv->tp[i].Vit;

  00150	8b 45 f8	 mov	 eax, DWORD PTR _i$220607[ebp]
  00153	6b c0 2c	 imul	 eax, 44			; 0000002cH
  00156	8b 4d f8	 mov	 ecx, DWORD PTR _i$220607[ebp]
  00159	6b c9 2c	 imul	 ecx, 44			; 0000002cH
  0015c	8b 55 fc	 mov	 edx, DWORD PTR _this$[ebp]
  0015f	8b 75 08	 mov	 esi, DWORD PTR _Recv$[ebp]
  00162	66 8b 44 06 1e	 mov	 ax, WORD PTR [esi+eax+30]
  00167	66 89 44 0a 16	 mov	 WORD PTR [edx+ecx+22], ax

; 49   : 		this->RankingChar[i].Ene = Recv->tp[i].Ene;

  0016c	8b 45 f8	 mov	 eax, DWORD PTR _i$220607[ebp]
  0016f	6b c0 2c	 imul	 eax, 44			; 0000002cH
  00172	8b 4d f8	 mov	 ecx, DWORD PTR _i$220607[ebp]
  00175	6b c9 2c	 imul	 ecx, 44			; 0000002cH
  00178	8b 55 fc	 mov	 edx, DWORD PTR _this$[ebp]
  0017b	8b 75 08	 mov	 esi, DWORD PTR _Recv$[ebp]
  0017e	66 8b 44 06 20	 mov	 ax, WORD PTR [esi+eax+32]
  00183	66 89 44 0a 18	 mov	 WORD PTR [edx+ecx+24], ax

; 50   : 		this->RankingChar[i].Cmd = Recv->tp[i].Cmd;

  00188	8b 45 f8	 mov	 eax, DWORD PTR _i$220607[ebp]
  0018b	6b c0 2c	 imul	 eax, 44			; 0000002cH
  0018e	8b 4d f8	 mov	 ecx, DWORD PTR _i$220607[ebp]
  00191	6b c9 2c	 imul	 ecx, 44			; 0000002cH
  00194	8b 55 fc	 mov	 edx, DWORD PTR _this$[ebp]
  00197	8b 75 08	 mov	 esi, DWORD PTR _Recv$[ebp]
  0019a	8b 44 06 24	 mov	 eax, DWORD PTR [esi+eax+36]
  0019e	89 44 0a 1c	 mov	 DWORD PTR [edx+ecx+28], eax

; 51   : 		this->RankingChar[i].Premium = Recv->tp[i].Premium;

  001a2	8b 45 f8	 mov	 eax, DWORD PTR _i$220607[ebp]
  001a5	6b c0 2c	 imul	 eax, 44			; 0000002cH
  001a8	8b 4d f8	 mov	 ecx, DWORD PTR _i$220607[ebp]
  001ab	6b c9 2c	 imul	 ecx, 44			; 0000002cH
  001ae	8b 55 fc	 mov	 edx, DWORD PTR _this$[ebp]
  001b1	8b 75 08	 mov	 esi, DWORD PTR _Recv$[ebp]
  001b4	8a 44 06 28	 mov	 al, BYTE PTR [esi+eax+40]
  001b8	88 44 0a 20	 mov	 BYTE PTR [edx+ecx+32], al

; 52   : 
; 53   : 		strncpy(this->RankingChar[i].Guild,Recv->tp[i].Guild,8);

  001bc	6a 08		 push	 8
  001be	8b 45 f8	 mov	 eax, DWORD PTR _i$220607[ebp]
  001c1	6b c0 2c	 imul	 eax, 44			; 0000002cH
  001c4	8b 4d 08	 mov	 ecx, DWORD PTR _Recv$[ebp]
  001c7	8d 54 01 29	 lea	 edx, DWORD PTR [ecx+eax+41]
  001cb	52		 push	 edx
  001cc	8b 45 f8	 mov	 eax, DWORD PTR _i$220607[ebp]
  001cf	6b c0 2c	 imul	 eax, 44			; 0000002cH
  001d2	8b 4d fc	 mov	 ecx, DWORD PTR _this$[ebp]
  001d5	8d 54 01 21	 lea	 edx, DWORD PTR [ecx+eax+33]
  001d9	52		 push	 edx
  001da	e8 00 00 00 00	 call	 _strncpy
  001df	83 c4 0c	 add	 esp, 12			; 0000000cH

; 54   : 
; 55   : 		//if(this->RankingChar[i].Name[0] != NULL)
; 56   : 		//LogAddC(2,"Name: %s",this->RankingChar[i].Name);
; 57   : 	}

  001e2	e9 8e fe ff ff	 jmp	 $LN2@RecvDS
$LN5@RecvDS:

; 58   : }

  001e7	5f		 pop	 edi
  001e8	5e		 pop	 esi
  001e9	5b		 pop	 ebx
  001ea	8b e5		 mov	 esp, ebp
  001ec	5d		 pop	 ebp
  001ed	c2 04 00	 ret	 4
?RecvDS@cRanking@@QAEXPAUDGCharTop@@@Z ENDP		; cRanking::RecvDS
_TEXT	ENDS
PUBLIC	__$ArrayPad$
PUBLIC	?SendClient@cRanking@@QAEXXZ			; cRanking::SendClient
EXTRN	?DataSend@@YAHHPAEK@Z:PROC			; DataSend
EXTRN	?PHeadSubSetW@@YAXPAEEEH@Z:PROC			; PHeadSubSetW
EXTRN	_memset:PROC
EXTRN	?gObj@@3PAUOBJECTSTRUCT@@A:DWORD		; gObj
EXTRN	___security_cookie:DWORD
EXTRN	@__security_check_cookie@4:PROC
EXTRN	__chkstk:PROC
; Function compile flags: /Odtp /ZI
_TEXT	SEGMENT
_i$220623 = -4428					; size = 4
_sClient$220621 = -4424					; size = 4408
_lpObj$220619 = -16					; size = 4
_n$220615 = -12						; size = 4
_this$ = -8						; size = 4
__$ArrayPad$ = -4					; size = 4
?SendClient@cRanking@@QAEXXZ PROC			; cRanking::SendClient
; _this$ = ecx

; 61   : {

  001f0	55		 push	 ebp
  001f1	8b ec		 mov	 ebp, esp
  001f3	b8 8c 11 00 00	 mov	 eax, 4492		; 0000118cH
  001f8	e8 00 00 00 00	 call	 __chkstk
  001fd	a1 00 00 00 00	 mov	 eax, DWORD PTR ___security_cookie
  00202	33 c5		 xor	 eax, ebp
  00204	89 45 fc	 mov	 DWORD PTR __$ArrayPad$[ebp], eax
  00207	53		 push	 ebx
  00208	56		 push	 esi
  00209	57		 push	 edi
  0020a	89 4d f8	 mov	 DWORD PTR _this$[ebp], ecx

; 62   : 	if(!ExConfig.ExCustom.Top100)return;

  0020d	0f b6 05 09 00
	00 00		 movzx	 eax, BYTE PTR ?ExConfig@@3VcExConfigs@@A+9
  00214	85 c0		 test	 eax, eax
  00216	75 05		 jne	 SHORT $LN8@SendClient
  00218	e9 7b 02 00 00	 jmp	 $LN9@SendClient
$LN8@SendClient:

; 63   : 
; 64   : 	for (int  n=OBJ_STARTUSERINDEX;n<OBJMAX;n++)

  0021d	c7 45 f4 b0 36
	00 00		 mov	 DWORD PTR _n$220615[ebp], 14000 ; 000036b0H
  00224	eb 09		 jmp	 SHORT $LN7@SendClient
$LN6@SendClient:
  00226	8b 45 f4	 mov	 eax, DWORD PTR _n$220615[ebp]
  00229	83 c0 01	 add	 eax, 1
  0022c	89 45 f4	 mov	 DWORD PTR _n$220615[ebp], eax
$LN7@SendClient:
  0022f	81 7d f4 98 3a
	00 00		 cmp	 DWORD PTR _n$220615[ebp], 15000 ; 00003a98H
  00236	0f 8d 5c 02 00
	00		 jge	 $LN9@SendClient

; 65   : 	{
; 66   : 		LPOBJ lpObj = &gObj[n];

  0023c	8b 45 f4	 mov	 eax, DWORD PTR _n$220615[ebp]
  0023f	69 c0 38 2b 00
	00		 imul	 eax, 11064		; 00002b38H
  00245	03 05 00 00 00
	00		 add	 eax, DWORD PTR ?gObj@@3PAUOBJECTSTRUCT@@A ; gObj
  0024b	89 45 f0	 mov	 DWORD PTR _lpObj$220619[ebp], eax

; 67   : 		if(lpObj->Connected == PLAYER_PLAYING && lpObj->OffExp == 0 && lpObj->OffTrade == 0)

  0024e	8b 45 f0	 mov	 eax, DWORD PTR _lpObj$220619[ebp]
  00251	83 78 04 03	 cmp	 DWORD PTR [eax+4], 3
  00255	0f 85 38 02 00
	00		 jne	 $LN4@SendClient
  0025b	8b 45 f0	 mov	 eax, DWORD PTR _lpObj$220619[ebp]
  0025e	83 b8 98 22 00
	00 00		 cmp	 DWORD PTR [eax+8856], 0
  00265	0f 85 28 02 00
	00		 jne	 $LN4@SendClient
  0026b	8b 45 f0	 mov	 eax, DWORD PTR _lpObj$220619[ebp]
  0026e	83 b8 ac 22 00
	00 00		 cmp	 DWORD PTR [eax+8876], 0
  00275	0f 85 18 02 00
	00		 jne	 $LN4@SendClient

; 68   : 		{
; 69   : 			DGCharTop	sClient;
; 70   : 			ZeroMemory(&sClient,sizeof(sClient));

  0027b	68 38 11 00 00	 push	 4408			; 00001138H
  00280	6a 00		 push	 0
  00282	8d 85 b8 ee ff
	ff		 lea	 eax, DWORD PTR _sClient$220621[ebp]
  00288	50		 push	 eax
  00289	e8 00 00 00 00	 call	 _memset
  0028e	83 c4 0c	 add	 esp, 12			; 0000000cH

; 71   : 			PHeadSubSetW((LPBYTE)&sClient, 0xFA, 0x06, sizeof(sClient));

  00291	68 38 11 00 00	 push	 4408			; 00001138H
  00296	6a 06		 push	 6
  00298	68 fa 00 00 00	 push	 250			; 000000faH
  0029d	8d 85 b8 ee ff
	ff		 lea	 eax, DWORD PTR _sClient$220621[ebp]
  002a3	50		 push	 eax
  002a4	e8 00 00 00 00	 call	 ?PHeadSubSetW@@YAXPAEEEH@Z ; PHeadSubSetW
  002a9	83 c4 10	 add	 esp, 16			; 00000010H

; 72   : 
; 73   : 			for(int i=0;i<MAXTOP;i++)

  002ac	c7 85 b4 ee ff
	ff 00 00 00 00	 mov	 DWORD PTR _i$220623[ebp], 0
  002b6	eb 0f		 jmp	 SHORT $LN3@SendClient
$LN2@SendClient:
  002b8	8b 85 b4 ee ff
	ff		 mov	 eax, DWORD PTR _i$220623[ebp]
  002be	83 c0 01	 add	 eax, 1
  002c1	89 85 b4 ee ff
	ff		 mov	 DWORD PTR _i$220623[ebp], eax
$LN3@SendClient:
  002c7	83 bd b4 ee ff
	ff 64		 cmp	 DWORD PTR _i$220623[ebp], 100 ; 00000064H
  002ce	0f 8d a7 01 00
	00		 jge	 $LN1@SendClient

; 74   : 			{
; 75   : 				strncpy(sClient.tp[i].Name,this->RankingChar[i].Name,10);

  002d4	6a 0a		 push	 10			; 0000000aH
  002d6	8b 85 b4 ee ff
	ff		 mov	 eax, DWORD PTR _i$220623[ebp]
  002dc	6b c0 2c	 imul	 eax, 44			; 0000002cH
  002df	03 45 f8	 add	 eax, DWORD PTR _this$[ebp]
  002e2	50		 push	 eax
  002e3	8b 8d b4 ee ff
	ff		 mov	 ecx, DWORD PTR _i$220623[ebp]
  002e9	6b c9 2c	 imul	 ecx, 44			; 0000002cH
  002ec	8d 94 0d c0 ee
	ff ff		 lea	 edx, DWORD PTR _sClient$220621[ebp+ecx+8]
  002f3	52		 push	 edx
  002f4	e8 00 00 00 00	 call	 _strncpy
  002f9	83 c4 0c	 add	 esp, 12			; 0000000cH

; 76   : 
; 77   : 				sClient.tp[i].Class = this->RankingChar[i].Class;

  002fc	8b 85 b4 ee ff
	ff		 mov	 eax, DWORD PTR _i$220623[ebp]
  00302	6b c0 2c	 imul	 eax, 44			; 0000002cH
  00305	8b 8d b4 ee ff
	ff		 mov	 ecx, DWORD PTR _i$220623[ebp]
  0030b	6b c9 2c	 imul	 ecx, 44			; 0000002cH
  0030e	8b 55 f8	 mov	 edx, DWORD PTR _this$[ebp]
  00311	8a 44 02 0a	 mov	 al, BYTE PTR [edx+eax+10]
  00315	88 84 0d ca ee
	ff ff		 mov	 BYTE PTR _sClient$220621[ebp+ecx+18], al

; 78   : 				sClient.tp[i].level = this->RankingChar[i].level;

  0031c	8b 85 b4 ee ff
	ff		 mov	 eax, DWORD PTR _i$220623[ebp]
  00322	6b c0 2c	 imul	 eax, 44			; 0000002cH
  00325	8b 8d b4 ee ff
	ff		 mov	 ecx, DWORD PTR _i$220623[ebp]
  0032b	6b c9 2c	 imul	 ecx, 44			; 0000002cH
  0032e	8b 55 f8	 mov	 edx, DWORD PTR _this$[ebp]
  00331	66 8b 44 02 0c	 mov	 ax, WORD PTR [edx+eax+12]
  00336	66 89 84 0d cc
	ee ff ff	 mov	 WORD PTR _sClient$220621[ebp+ecx+20], ax

; 79   : 				sClient.tp[i].Reset = this->RankingChar[i].Reset;

  0033e	8b 85 b4 ee ff
	ff		 mov	 eax, DWORD PTR _i$220623[ebp]
  00344	6b c0 2c	 imul	 eax, 44			; 0000002cH
  00347	8b 8d b4 ee ff
	ff		 mov	 ecx, DWORD PTR _i$220623[ebp]
  0034d	6b c9 2c	 imul	 ecx, 44			; 0000002cH
  00350	8b 55 f8	 mov	 edx, DWORD PTR _this$[ebp]
  00353	66 8b 44 02 0e	 mov	 ax, WORD PTR [edx+eax+14]
  00358	66 89 84 0d ce
	ee ff ff	 mov	 WORD PTR _sClient$220621[ebp+ecx+22], ax

; 80   : 				sClient.tp[i].Grand = this->RankingChar[i].Grand;

  00360	8b 85 b4 ee ff
	ff		 mov	 eax, DWORD PTR _i$220623[ebp]
  00366	6b c0 2c	 imul	 eax, 44			; 0000002cH
  00369	8b 8d b4 ee ff
	ff		 mov	 ecx, DWORD PTR _i$220623[ebp]
  0036f	6b c9 2c	 imul	 ecx, 44			; 0000002cH
  00372	8b 55 f8	 mov	 edx, DWORD PTR _this$[ebp]
  00375	66 8b 44 02 10	 mov	 ax, WORD PTR [edx+eax+16]
  0037a	66 89 84 0d d0
	ee ff ff	 mov	 WORD PTR _sClient$220621[ebp+ecx+24], ax

; 81   : 				sClient.tp[i].Str = this->RankingChar[i].Str;

  00382	8b 85 b4 ee ff
	ff		 mov	 eax, DWORD PTR _i$220623[ebp]
  00388	6b c0 2c	 imul	 eax, 44			; 0000002cH
  0038b	8b 8d b4 ee ff
	ff		 mov	 ecx, DWORD PTR _i$220623[ebp]
  00391	6b c9 2c	 imul	 ecx, 44			; 0000002cH
  00394	8b 55 f8	 mov	 edx, DWORD PTR _this$[ebp]
  00397	66 8b 44 02 12	 mov	 ax, WORD PTR [edx+eax+18]
  0039c	66 89 84 0d d2
	ee ff ff	 mov	 WORD PTR _sClient$220621[ebp+ecx+26], ax

; 82   : 				sClient.tp[i].Agi = this->RankingChar[i].Agi;

  003a4	8b 85 b4 ee ff
	ff		 mov	 eax, DWORD PTR _i$220623[ebp]
  003aa	6b c0 2c	 imul	 eax, 44			; 0000002cH
  003ad	8b 8d b4 ee ff
	ff		 mov	 ecx, DWORD PTR _i$220623[ebp]
  003b3	6b c9 2c	 imul	 ecx, 44			; 0000002cH
  003b6	8b 55 f8	 mov	 edx, DWORD PTR _this$[ebp]
  003b9	66 8b 44 02 14	 mov	 ax, WORD PTR [edx+eax+20]
  003be	66 89 84 0d d4
	ee ff ff	 mov	 WORD PTR _sClient$220621[ebp+ecx+28], ax

; 83   : 				sClient.tp[i].Vit = this->RankingChar[i].Vit;

  003c6	8b 85 b4 ee ff
	ff		 mov	 eax, DWORD PTR _i$220623[ebp]
  003cc	6b c0 2c	 imul	 eax, 44			; 0000002cH
  003cf	8b 8d b4 ee ff
	ff		 mov	 ecx, DWORD PTR _i$220623[ebp]
  003d5	6b c9 2c	 imul	 ecx, 44			; 0000002cH
  003d8	8b 55 f8	 mov	 edx, DWORD PTR _this$[ebp]
  003db	66 8b 44 02 16	 mov	 ax, WORD PTR [edx+eax+22]
  003e0	66 89 84 0d d6
	ee ff ff	 mov	 WORD PTR _sClient$220621[ebp+ecx+30], ax

; 84   : 				sClient.tp[i].Ene = this->RankingChar[i].Ene;

  003e8	8b 85 b4 ee ff
	ff		 mov	 eax, DWORD PTR _i$220623[ebp]
  003ee	6b c0 2c	 imul	 eax, 44			; 0000002cH
  003f1	8b 8d b4 ee ff
	ff		 mov	 ecx, DWORD PTR _i$220623[ebp]
  003f7	6b c9 2c	 imul	 ecx, 44			; 0000002cH
  003fa	8b 55 f8	 mov	 edx, DWORD PTR _this$[ebp]
  003fd	66 8b 44 02 18	 mov	 ax, WORD PTR [edx+eax+24]
  00402	66 89 84 0d d8
	ee ff ff	 mov	 WORD PTR _sClient$220621[ebp+ecx+32], ax

; 85   : 				sClient.tp[i].Cmd = this->RankingChar[i].Cmd;

  0040a	8b 85 b4 ee ff
	ff		 mov	 eax, DWORD PTR _i$220623[ebp]
  00410	6b c0 2c	 imul	 eax, 44			; 0000002cH
  00413	8b 8d b4 ee ff
	ff		 mov	 ecx, DWORD PTR _i$220623[ebp]
  00419	6b c9 2c	 imul	 ecx, 44			; 0000002cH
  0041c	8b 55 f8	 mov	 edx, DWORD PTR _this$[ebp]
  0041f	8b 44 02 1c	 mov	 eax, DWORD PTR [edx+eax+28]
  00423	89 84 0d dc ee
	ff ff		 mov	 DWORD PTR _sClient$220621[ebp+ecx+36], eax

; 86   : 				sClient.tp[i].Premium = this->RankingChar[i].Premium;

  0042a	8b 85 b4 ee ff
	ff		 mov	 eax, DWORD PTR _i$220623[ebp]
  00430	6b c0 2c	 imul	 eax, 44			; 0000002cH
  00433	8b 8d b4 ee ff
	ff		 mov	 ecx, DWORD PTR _i$220623[ebp]
  00439	6b c9 2c	 imul	 ecx, 44			; 0000002cH
  0043c	8b 55 f8	 mov	 edx, DWORD PTR _this$[ebp]
  0043f	8a 44 02 20	 mov	 al, BYTE PTR [edx+eax+32]
  00443	88 84 0d e0 ee
	ff ff		 mov	 BYTE PTR _sClient$220621[ebp+ecx+40], al

; 87   : 
; 88   : 				strncpy(sClient.tp[i].Guild,this->RankingChar[i].Guild,8);

  0044a	6a 08		 push	 8
  0044c	8b 85 b4 ee ff
	ff		 mov	 eax, DWORD PTR _i$220623[ebp]
  00452	6b c0 2c	 imul	 eax, 44			; 0000002cH
  00455	8b 4d f8	 mov	 ecx, DWORD PTR _this$[ebp]
  00458	8d 54 01 21	 lea	 edx, DWORD PTR [ecx+eax+33]
  0045c	52		 push	 edx
  0045d	8b 85 b4 ee ff
	ff		 mov	 eax, DWORD PTR _i$220623[ebp]
  00463	6b c0 2c	 imul	 eax, 44			; 0000002cH
  00466	8d 8c 05 e1 ee
	ff ff		 lea	 ecx, DWORD PTR _sClient$220621[ebp+eax+41]
  0046d	51		 push	 ecx
  0046e	e8 00 00 00 00	 call	 _strncpy
  00473	83 c4 0c	 add	 esp, 12			; 0000000cH

; 89   : 			}

  00476	e9 3d fe ff ff	 jmp	 $LN2@SendClient
$LN1@SendClient:

; 90   : 
; 91   : 			DataSend(n,(LPBYTE)&sClient,sizeof(sClient));

  0047b	68 38 11 00 00	 push	 4408			; 00001138H
  00480	8d 85 b8 ee ff
	ff		 lea	 eax, DWORD PTR _sClient$220621[ebp]
  00486	50		 push	 eax
  00487	8b 4d f4	 mov	 ecx, DWORD PTR _n$220615[ebp]
  0048a	51		 push	 ecx
  0048b	e8 00 00 00 00	 call	 ?DataSend@@YAHHPAEK@Z	; DataSend
  00490	83 c4 0c	 add	 esp, 12			; 0000000cH
$LN4@SendClient:

; 92   : 		}
; 93   : 	}

  00493	e9 8e fd ff ff	 jmp	 $LN6@SendClient
$LN9@SendClient:

; 94   : }

  00498	5f		 pop	 edi
  00499	5e		 pop	 esi
  0049a	5b		 pop	 ebx
  0049b	8b 4d fc	 mov	 ecx, DWORD PTR __$ArrayPad$[ebp]
  0049e	33 cd		 xor	 ecx, ebp
  004a0	e8 00 00 00 00	 call	 @__security_check_cookie@4
  004a5	8b e5		 mov	 esp, ebp
  004a7	5d		 pop	 ebp
  004a8	c3		 ret	 0
?SendClient@cRanking@@QAEXXZ ENDP			; cRanking::SendClient
_TEXT	ENDS
PUBLIC	__$ArrayPad$
PUBLIC	?SendUser@cRanking@@QAEXH@Z			; cRanking::SendUser
; Function compile flags: /Odtp /ZI
_TEXT	SEGMENT
_i$220637 = -4424					; size = 4
_sClient$220635 = -4420					; size = 4408
_lpObj$ = -12						; size = 4
_this$ = -8						; size = 4
__$ArrayPad$ = -4					; size = 4
_aIndex$ = 8						; size = 4
?SendUser@cRanking@@QAEXH@Z PROC			; cRanking::SendUser
; _this$ = ecx

; 97   : {

  004b0	55		 push	 ebp
  004b1	8b ec		 mov	 ebp, esp
  004b3	b8 88 11 00 00	 mov	 eax, 4488		; 00001188H
  004b8	e8 00 00 00 00	 call	 __chkstk
  004bd	a1 00 00 00 00	 mov	 eax, DWORD PTR ___security_cookie
  004c2	33 c5		 xor	 eax, ebp
  004c4	89 45 fc	 mov	 DWORD PTR __$ArrayPad$[ebp], eax
  004c7	53		 push	 ebx
  004c8	56		 push	 esi
  004c9	57		 push	 edi
  004ca	89 4d f8	 mov	 DWORD PTR _this$[ebp], ecx

; 98   : 	if(!ExConfig.ExCustom.Top100) return;

  004cd	0f b6 05 09 00
	00 00		 movzx	 eax, BYTE PTR ?ExConfig@@3VcExConfigs@@A+9
  004d4	85 c0		 test	 eax, eax
  004d6	75 05		 jne	 SHORT $LN5@SendUser
  004d8	e9 57 02 00 00	 jmp	 $LN6@SendUser
$LN5@SendUser:

; 99   : 
; 100  : 	LPOBJ lpObj = &gObj[aIndex];

  004dd	8b 45 08	 mov	 eax, DWORD PTR _aIndex$[ebp]
  004e0	69 c0 38 2b 00
	00		 imul	 eax, 11064		; 00002b38H
  004e6	03 05 00 00 00
	00		 add	 eax, DWORD PTR ?gObj@@3PAUOBJECTSTRUCT@@A ; gObj
  004ec	89 45 f4	 mov	 DWORD PTR _lpObj$[ebp], eax

; 101  : 
; 102  : 	if(lpObj->Connected == PLAYER_PLAYING && lpObj->OffExp == 0 && lpObj->OffTrade == 0)

  004ef	8b 45 f4	 mov	 eax, DWORD PTR _lpObj$[ebp]
  004f2	83 78 04 03	 cmp	 DWORD PTR [eax+4], 3
  004f6	0f 85 38 02 00
	00		 jne	 $LN6@SendUser
  004fc	8b 45 f4	 mov	 eax, DWORD PTR _lpObj$[ebp]
  004ff	83 b8 98 22 00
	00 00		 cmp	 DWORD PTR [eax+8856], 0
  00506	0f 85 28 02 00
	00		 jne	 $LN6@SendUser
  0050c	8b 45 f4	 mov	 eax, DWORD PTR _lpObj$[ebp]
  0050f	83 b8 ac 22 00
	00 00		 cmp	 DWORD PTR [eax+8876], 0
  00516	0f 85 18 02 00
	00		 jne	 $LN6@SendUser

; 103  : 	{
; 104  : 
; 105  : 		DGCharTop	sClient;
; 106  : 		ZeroMemory(&sClient,sizeof(sClient));

  0051c	68 38 11 00 00	 push	 4408			; 00001138H
  00521	6a 00		 push	 0
  00523	8d 85 bc ee ff
	ff		 lea	 eax, DWORD PTR _sClient$220635[ebp]
  00529	50		 push	 eax
  0052a	e8 00 00 00 00	 call	 _memset
  0052f	83 c4 0c	 add	 esp, 12			; 0000000cH

; 107  : 		PHeadSubSetW((LPBYTE)&sClient, 0xFA, 0x06, sizeof(sClient));

  00532	68 38 11 00 00	 push	 4408			; 00001138H
  00537	6a 06		 push	 6
  00539	68 fa 00 00 00	 push	 250			; 000000faH
  0053e	8d 85 bc ee ff
	ff		 lea	 eax, DWORD PTR _sClient$220635[ebp]
  00544	50		 push	 eax
  00545	e8 00 00 00 00	 call	 ?PHeadSubSetW@@YAXPAEEEH@Z ; PHeadSubSetW
  0054a	83 c4 10	 add	 esp, 16			; 00000010H

; 108  : 
; 109  : 		for(int i=0;i<MAXTOP;i++)

  0054d	c7 85 b8 ee ff
	ff 00 00 00 00	 mov	 DWORD PTR _i$220637[ebp], 0
  00557	eb 0f		 jmp	 SHORT $LN3@SendUser
$LN2@SendUser:
  00559	8b 85 b8 ee ff
	ff		 mov	 eax, DWORD PTR _i$220637[ebp]
  0055f	83 c0 01	 add	 eax, 1
  00562	89 85 b8 ee ff
	ff		 mov	 DWORD PTR _i$220637[ebp], eax
$LN3@SendUser:
  00568	83 bd b8 ee ff
	ff 64		 cmp	 DWORD PTR _i$220637[ebp], 100 ; 00000064H
  0056f	0f 8d a7 01 00
	00		 jge	 $LN1@SendUser

; 110  : 		{
; 111  : 			strncpy(sClient.tp[i].Name,this->RankingChar[i].Name,10);

  00575	6a 0a		 push	 10			; 0000000aH
  00577	8b 85 b8 ee ff
	ff		 mov	 eax, DWORD PTR _i$220637[ebp]
  0057d	6b c0 2c	 imul	 eax, 44			; 0000002cH
  00580	03 45 f8	 add	 eax, DWORD PTR _this$[ebp]
  00583	50		 push	 eax
  00584	8b 8d b8 ee ff
	ff		 mov	 ecx, DWORD PTR _i$220637[ebp]
  0058a	6b c9 2c	 imul	 ecx, 44			; 0000002cH
  0058d	8d 94 0d c4 ee
	ff ff		 lea	 edx, DWORD PTR _sClient$220635[ebp+ecx+8]
  00594	52		 push	 edx
  00595	e8 00 00 00 00	 call	 _strncpy
  0059a	83 c4 0c	 add	 esp, 12			; 0000000cH

; 112  : 			sClient.tp[i].Class = this->RankingChar[i].Class;

  0059d	8b 85 b8 ee ff
	ff		 mov	 eax, DWORD PTR _i$220637[ebp]
  005a3	6b c0 2c	 imul	 eax, 44			; 0000002cH
  005a6	8b 8d b8 ee ff
	ff		 mov	 ecx, DWORD PTR _i$220637[ebp]
  005ac	6b c9 2c	 imul	 ecx, 44			; 0000002cH
  005af	8b 55 f8	 mov	 edx, DWORD PTR _this$[ebp]
  005b2	8a 44 02 0a	 mov	 al, BYTE PTR [edx+eax+10]
  005b6	88 84 0d ce ee
	ff ff		 mov	 BYTE PTR _sClient$220635[ebp+ecx+18], al

; 113  : 			sClient.tp[i].level = this->RankingChar[i].level;

  005bd	8b 85 b8 ee ff
	ff		 mov	 eax, DWORD PTR _i$220637[ebp]
  005c3	6b c0 2c	 imul	 eax, 44			; 0000002cH
  005c6	8b 8d b8 ee ff
	ff		 mov	 ecx, DWORD PTR _i$220637[ebp]
  005cc	6b c9 2c	 imul	 ecx, 44			; 0000002cH
  005cf	8b 55 f8	 mov	 edx, DWORD PTR _this$[ebp]
  005d2	66 8b 44 02 0c	 mov	 ax, WORD PTR [edx+eax+12]
  005d7	66 89 84 0d d0
	ee ff ff	 mov	 WORD PTR _sClient$220635[ebp+ecx+20], ax

; 114  : 			sClient.tp[i].Reset = this->RankingChar[i].Reset;

  005df	8b 85 b8 ee ff
	ff		 mov	 eax, DWORD PTR _i$220637[ebp]
  005e5	6b c0 2c	 imul	 eax, 44			; 0000002cH
  005e8	8b 8d b8 ee ff
	ff		 mov	 ecx, DWORD PTR _i$220637[ebp]
  005ee	6b c9 2c	 imul	 ecx, 44			; 0000002cH
  005f1	8b 55 f8	 mov	 edx, DWORD PTR _this$[ebp]
  005f4	66 8b 44 02 0e	 mov	 ax, WORD PTR [edx+eax+14]
  005f9	66 89 84 0d d2
	ee ff ff	 mov	 WORD PTR _sClient$220635[ebp+ecx+22], ax

; 115  : 			sClient.tp[i].Grand = this->RankingChar[i].Grand;

  00601	8b 85 b8 ee ff
	ff		 mov	 eax, DWORD PTR _i$220637[ebp]
  00607	6b c0 2c	 imul	 eax, 44			; 0000002cH
  0060a	8b 8d b8 ee ff
	ff		 mov	 ecx, DWORD PTR _i$220637[ebp]
  00610	6b c9 2c	 imul	 ecx, 44			; 0000002cH
  00613	8b 55 f8	 mov	 edx, DWORD PTR _this$[ebp]
  00616	66 8b 44 02 10	 mov	 ax, WORD PTR [edx+eax+16]
  0061b	66 89 84 0d d4
	ee ff ff	 mov	 WORD PTR _sClient$220635[ebp+ecx+24], ax

; 116  : 			sClient.tp[i].Str = this->RankingChar[i].Str;

  00623	8b 85 b8 ee ff
	ff		 mov	 eax, DWORD PTR _i$220637[ebp]
  00629	6b c0 2c	 imul	 eax, 44			; 0000002cH
  0062c	8b 8d b8 ee ff
	ff		 mov	 ecx, DWORD PTR _i$220637[ebp]
  00632	6b c9 2c	 imul	 ecx, 44			; 0000002cH
  00635	8b 55 f8	 mov	 edx, DWORD PTR _this$[ebp]
  00638	66 8b 44 02 12	 mov	 ax, WORD PTR [edx+eax+18]
  0063d	66 89 84 0d d6
	ee ff ff	 mov	 WORD PTR _sClient$220635[ebp+ecx+26], ax

; 117  : 			sClient.tp[i].Agi = this->RankingChar[i].Agi;

  00645	8b 85 b8 ee ff
	ff		 mov	 eax, DWORD PTR _i$220637[ebp]
  0064b	6b c0 2c	 imul	 eax, 44			; 0000002cH
  0064e	8b 8d b8 ee ff
	ff		 mov	 ecx, DWORD PTR _i$220637[ebp]
  00654	6b c9 2c	 imul	 ecx, 44			; 0000002cH
  00657	8b 55 f8	 mov	 edx, DWORD PTR _this$[ebp]
  0065a	66 8b 44 02 14	 mov	 ax, WORD PTR [edx+eax+20]
  0065f	66 89 84 0d d8
	ee ff ff	 mov	 WORD PTR _sClient$220635[ebp+ecx+28], ax

; 118  : 			sClient.tp[i].Vit = this->RankingChar[i].Vit;

  00667	8b 85 b8 ee ff
	ff		 mov	 eax, DWORD PTR _i$220637[ebp]
  0066d	6b c0 2c	 imul	 eax, 44			; 0000002cH
  00670	8b 8d b8 ee ff
	ff		 mov	 ecx, DWORD PTR _i$220637[ebp]
  00676	6b c9 2c	 imul	 ecx, 44			; 0000002cH
  00679	8b 55 f8	 mov	 edx, DWORD PTR _this$[ebp]
  0067c	66 8b 44 02 16	 mov	 ax, WORD PTR [edx+eax+22]
  00681	66 89 84 0d da
	ee ff ff	 mov	 WORD PTR _sClient$220635[ebp+ecx+30], ax

; 119  : 			sClient.tp[i].Ene = this->RankingChar[i].Ene;

  00689	8b 85 b8 ee ff
	ff		 mov	 eax, DWORD PTR _i$220637[ebp]
  0068f	6b c0 2c	 imul	 eax, 44			; 0000002cH
  00692	8b 8d b8 ee ff
	ff		 mov	 ecx, DWORD PTR _i$220637[ebp]
  00698	6b c9 2c	 imul	 ecx, 44			; 0000002cH
  0069b	8b 55 f8	 mov	 edx, DWORD PTR _this$[ebp]
  0069e	66 8b 44 02 18	 mov	 ax, WORD PTR [edx+eax+24]
  006a3	66 89 84 0d dc
	ee ff ff	 mov	 WORD PTR _sClient$220635[ebp+ecx+32], ax

; 120  : 			sClient.tp[i].Cmd = this->RankingChar[i].Cmd;

  006ab	8b 85 b8 ee ff
	ff		 mov	 eax, DWORD PTR _i$220637[ebp]
  006b1	6b c0 2c	 imul	 eax, 44			; 0000002cH
  006b4	8b 8d b8 ee ff
	ff		 mov	 ecx, DWORD PTR _i$220637[ebp]
  006ba	6b c9 2c	 imul	 ecx, 44			; 0000002cH
  006bd	8b 55 f8	 mov	 edx, DWORD PTR _this$[ebp]
  006c0	8b 44 02 1c	 mov	 eax, DWORD PTR [edx+eax+28]
  006c4	89 84 0d e0 ee
	ff ff		 mov	 DWORD PTR _sClient$220635[ebp+ecx+36], eax

; 121  : 			sClient.tp[i].Premium = this->RankingChar[i].Premium;

  006cb	8b 85 b8 ee ff
	ff		 mov	 eax, DWORD PTR _i$220637[ebp]
  006d1	6b c0 2c	 imul	 eax, 44			; 0000002cH
  006d4	8b 8d b8 ee ff
	ff		 mov	 ecx, DWORD PTR _i$220637[ebp]
  006da	6b c9 2c	 imul	 ecx, 44			; 0000002cH
  006dd	8b 55 f8	 mov	 edx, DWORD PTR _this$[ebp]
  006e0	8a 44 02 20	 mov	 al, BYTE PTR [edx+eax+32]
  006e4	88 84 0d e4 ee
	ff ff		 mov	 BYTE PTR _sClient$220635[ebp+ecx+40], al

; 122  : 			strncpy(sClient.tp[i].Guild,this->RankingChar[i].Guild,8);

  006eb	6a 08		 push	 8
  006ed	8b 85 b8 ee ff
	ff		 mov	 eax, DWORD PTR _i$220637[ebp]
  006f3	6b c0 2c	 imul	 eax, 44			; 0000002cH
  006f6	8b 4d f8	 mov	 ecx, DWORD PTR _this$[ebp]
  006f9	8d 54 01 21	 lea	 edx, DWORD PTR [ecx+eax+33]
  006fd	52		 push	 edx
  006fe	8b 85 b8 ee ff
	ff		 mov	 eax, DWORD PTR _i$220637[ebp]
  00704	6b c0 2c	 imul	 eax, 44			; 0000002cH
  00707	8d 8c 05 e5 ee
	ff ff		 lea	 ecx, DWORD PTR _sClient$220635[ebp+eax+41]
  0070e	51		 push	 ecx
  0070f	e8 00 00 00 00	 call	 _strncpy
  00714	83 c4 0c	 add	 esp, 12			; 0000000cH

; 123  : 		}

  00717	e9 3d fe ff ff	 jmp	 $LN2@SendUser
$LN1@SendUser:

; 124  : 
; 125  : 		DataSend(aIndex,(LPBYTE)&sClient,sizeof(sClient));

  0071c	68 38 11 00 00	 push	 4408			; 00001138H
  00721	8d 85 bc ee ff
	ff		 lea	 eax, DWORD PTR _sClient$220635[ebp]
  00727	50		 push	 eax
  00728	8b 4d 08	 mov	 ecx, DWORD PTR _aIndex$[ebp]
  0072b	51		 push	 ecx
  0072c	e8 00 00 00 00	 call	 ?DataSend@@YAHHPAEK@Z	; DataSend
  00731	83 c4 0c	 add	 esp, 12			; 0000000cH
$LN6@SendUser:

; 126  : 	}
; 127  : }

  00734	5f		 pop	 edi
  00735	5e		 pop	 esi
  00736	5b		 pop	 ebx
  00737	8b 4d fc	 mov	 ecx, DWORD PTR __$ArrayPad$[ebp]
  0073a	33 cd		 xor	 ecx, ebp
  0073c	e8 00 00 00 00	 call	 @__security_check_cookie@4
  00741	8b e5		 mov	 esp, ebp
  00743	5d		 pop	 ebp
  00744	c2 04 00	 ret	 4
?SendUser@cRanking@@QAEXH@Z ENDP			; cRanking::SendUser
_TEXT	ENDS
END
