; Listing generated by Microsoft (R) Optimizing Compiler Version 16.00.40219.01 

	TITLE	D:\Projects\ExTeam6.3\Source\GameServer\GameServer\SearchEvent.cpp
	.686P
	.XMM
	include listing.inc
	.model	flat

INCLUDELIB LIBCMT
INCLUDELIB OLDNAMES

PUBLIC	??_H@YGXPAXIHP6EPAX0@Z@Z			; `vector constructor iterator'
; Function compile flags: /Odtp /ZI
;	COMDAT ??_H@YGXPAXIHP6EPAX0@Z@Z
_TEXT	SEGMENT
___t$ = 8						; size = 4
___s$ = 12						; size = 4
___n$ = 16						; size = 4
___f$ = 20						; size = 4
??_H@YGXPAXIHP6EPAX0@Z@Z PROC				; `vector constructor iterator', COMDAT
  00000	55		 push	 ebp
  00001	8b ec		 mov	 ebp, esp
  00003	83 ec 40	 sub	 esp, 64			; 00000040H
  00006	53		 push	 ebx
  00007	56		 push	 esi
  00008	57		 push	 edi
$LN2@vector:
  00009	8b 45 10	 mov	 eax, DWORD PTR ___n$[ebp]
  0000c	83 e8 01	 sub	 eax, 1
  0000f	89 45 10	 mov	 DWORD PTR ___n$[ebp], eax
  00012	78 11		 js	 SHORT $LN3@vector
  00014	8b 4d 08	 mov	 ecx, DWORD PTR ___t$[ebp]
  00017	ff 55 14	 call	 DWORD PTR ___f$[ebp]
  0001a	8b 45 08	 mov	 eax, DWORD PTR ___t$[ebp]
  0001d	03 45 0c	 add	 eax, DWORD PTR ___s$[ebp]
  00020	89 45 08	 mov	 DWORD PTR ___t$[ebp], eax
  00023	eb e4		 jmp	 SHORT $LN2@vector
$LN3@vector:
  00025	5f		 pop	 edi
  00026	5e		 pop	 esi
  00027	5b		 pop	 ebx
  00028	8b e5		 mov	 esp, ebp
  0002a	5d		 pop	 ebp
  0002b	c2 10 00	 ret	 16			; 00000010H
??_H@YGXPAXIHP6EPAX0@Z@Z ENDP				; `vector constructor iterator'
_TEXT	ENDS
PUBLIC	??0cSearchEvent@@QAE@XZ				; cSearchEvent::cSearchEvent
; Function compile flags: /Odtp /ZI
; File d:\projects\exteam6.3\source\gameserver\gameserver\searchevent.cpp
_TEXT	SEGMENT
_this$ = -4						; size = 4
??0cSearchEvent@@QAE@XZ PROC				; cSearchEvent::cSearchEvent
; _this$ = ecx

; 19   : {

  00000	55		 push	 ebp
  00001	8b ec		 mov	 ebp, esp
  00003	83 ec 44	 sub	 esp, 68			; 00000044H
  00006	53		 push	 ebx
  00007	56		 push	 esi
  00008	57		 push	 edi
  00009	89 4d fc	 mov	 DWORD PTR _this$[ebp], ecx

; 20   : 	this->Start = false;

  0000c	8b 45 fc	 mov	 eax, DWORD PTR _this$[ebp]
  0000f	c6 40 1c 00	 mov	 BYTE PTR [eax+28], 0

; 21   : }

  00013	8b 45 fc	 mov	 eax, DWORD PTR _this$[ebp]
  00016	5f		 pop	 edi
  00017	5e		 pop	 esi
  00018	5b		 pop	 ebx
  00019	8b e5		 mov	 esp, ebp
  0001b	5d		 pop	 ebp
  0001c	c3		 ret	 0
??0cSearchEvent@@QAE@XZ ENDP				; cSearchEvent::cSearchEvent
_TEXT	ENDS
PUBLIC	??1cSearchEvent@@QAE@XZ				; cSearchEvent::~cSearchEvent
; Function compile flags: /Odtp /ZI
_TEXT	SEGMENT
_this$ = -4						; size = 4
??1cSearchEvent@@QAE@XZ PROC				; cSearchEvent::~cSearchEvent
; _this$ = ecx

; 24   : {

  00020	55		 push	 ebp
  00021	8b ec		 mov	 ebp, esp
  00023	83 ec 44	 sub	 esp, 68			; 00000044H
  00026	53		 push	 ebx
  00027	56		 push	 esi
  00028	57		 push	 edi
  00029	89 4d fc	 mov	 DWORD PTR _this$[ebp], ecx

; 25   : 
; 26   : }

  0002c	5f		 pop	 edi
  0002d	5e		 pop	 esi
  0002e	5b		 pop	 ebx
  0002f	8b e5		 mov	 esp, ebp
  00031	5d		 pop	 ebp
  00032	c3		 ret	 0
??1cSearchEvent@@QAE@XZ ENDP				; cSearchEvent::~cSearchEvent
_TEXT	ENDS
PUBLIC	??_C@_0BI@HDMMBKBM@?$CFd?5?$CFd?5?$CFd?5?$CFd?5?$CFd?5?$CFd?5?$CFd?5?$CFd?$AA@ ; `string'
PUBLIC	??_C@_05OKMLJOMC@?$CFd?5?$CFd?$AA@		; `string'
PUBLIC	??_C@_0L@DBBEOKP@LOAD?5ERROR?$AA@		; `string'
PUBLIC	??_C@_01KDCPPGHE@r?$AA@				; `string'
PUBLIC	??_C@_0BC@IGHAMHGJ@BonusGoblinPoints?$AA@	; `string'
PUBLIC	??_C@_0M@BDHBPIN@BonusWcoinP?$AA@		; `string'
PUBLIC	??_C@_0M@GANIFOBP@BonusWcoinC?$AA@		; `string'
PUBLIC	??_C@_0N@FFNKHLEO@BonusCredits?$AA@		; `string'
PUBLIC	??_C@_09GGKKDIOI@ItemCount?$AA@			; `string'
PUBLIC	??_C@_04OKOFBOPB@Time?$AA@			; `string'
PUBLIC	??_C@_03NBOPHIOC@Map?$AA@			; `string'
PUBLIC	??_C@_09COJLPKPK@PresWcoin?$AA@			; `string'
PUBLIC	??_C@_03BCJIDNJL@NPC?$AA@			; `string'
PUBLIC	??_C@_06POMJKEPM@Common?$AA@			; `string'
PUBLIC	??_C@_06CKGENIKG@Enable?$AA@			; `string'
PUBLIC	??_C@_0CG@ILHCHEHA@?4?4?2Data?2ExData?2Events?2SearchEven@ ; `string'
PUBLIC	__$ArrayPad$
PUBLIC	?LoadingEvent@cSearchEvent@@QAEXXZ		; cSearchEvent::LoadingEvent
EXTRN	_fclose:PROC
EXTRN	_sscanf:PROC
EXTRN	?Ex_IsBadFileLine@@YA_NPADAAH@Z:PROC		; Ex_IsBadFileLine
EXTRN	_fgets:PROC
EXTRN	_feof:PROC
EXTRN	__imp__ExitProcess@4:PROC
EXTRN	__imp__MessageBoxA@16:PROC
EXTRN	_fopen:PROC
EXTRN	__imp__GetPrivateProfileIntA@16:PROC
EXTRN	___security_cookie:DWORD
EXTRN	@__security_check_cookie@4:PROC
;	COMDAT ??_C@_0BI@HDMMBKBM@?$CFd?5?$CFd?5?$CFd?5?$CFd?5?$CFd?5?$CFd?5?$CFd?5?$CFd?$AA@
CONST	SEGMENT
??_C@_0BI@HDMMBKBM@?$CFd?5?$CFd?5?$CFd?5?$CFd?5?$CFd?5?$CFd?5?$CFd?5?$CFd?$AA@ DB '%'
	DB	'd %d %d %d %d %d %d %d', 00H		; `string'
CONST	ENDS
;	COMDAT ??_C@_05OKMLJOMC@?$CFd?5?$CFd?$AA@
CONST	SEGMENT
??_C@_05OKMLJOMC@?$CFd?5?$CFd?$AA@ DB '%d %d', 00H	; `string'
CONST	ENDS
;	COMDAT ??_C@_0L@DBBEOKP@LOAD?5ERROR?$AA@
CONST	SEGMENT
??_C@_0L@DBBEOKP@LOAD?5ERROR?$AA@ DB 'LOAD ERROR', 00H	; `string'
CONST	ENDS
;	COMDAT ??_C@_01KDCPPGHE@r?$AA@
CONST	SEGMENT
??_C@_01KDCPPGHE@r?$AA@ DB 'r', 00H			; `string'
CONST	ENDS
;	COMDAT ??_C@_0BC@IGHAMHGJ@BonusGoblinPoints?$AA@
CONST	SEGMENT
??_C@_0BC@IGHAMHGJ@BonusGoblinPoints?$AA@ DB 'BonusGoblinPoints', 00H ; `string'
CONST	ENDS
;	COMDAT ??_C@_0M@BDHBPIN@BonusWcoinP?$AA@
CONST	SEGMENT
??_C@_0M@BDHBPIN@BonusWcoinP?$AA@ DB 'BonusWcoinP', 00H	; `string'
CONST	ENDS
;	COMDAT ??_C@_0M@GANIFOBP@BonusWcoinC?$AA@
CONST	SEGMENT
??_C@_0M@GANIFOBP@BonusWcoinC?$AA@ DB 'BonusWcoinC', 00H ; `string'
CONST	ENDS
;	COMDAT ??_C@_0N@FFNKHLEO@BonusCredits?$AA@
CONST	SEGMENT
??_C@_0N@FFNKHLEO@BonusCredits?$AA@ DB 'BonusCredits', 00H ; `string'
CONST	ENDS
;	COMDAT ??_C@_09GGKKDIOI@ItemCount?$AA@
CONST	SEGMENT
??_C@_09GGKKDIOI@ItemCount?$AA@ DB 'ItemCount', 00H	; `string'
CONST	ENDS
;	COMDAT ??_C@_04OKOFBOPB@Time?$AA@
CONST	SEGMENT
??_C@_04OKOFBOPB@Time?$AA@ DB 'Time', 00H		; `string'
CONST	ENDS
;	COMDAT ??_C@_03NBOPHIOC@Map?$AA@
CONST	SEGMENT
??_C@_03NBOPHIOC@Map?$AA@ DB 'Map', 00H			; `string'
CONST	ENDS
;	COMDAT ??_C@_09COJLPKPK@PresWcoin?$AA@
CONST	SEGMENT
??_C@_09COJLPKPK@PresWcoin?$AA@ DB 'PresWcoin', 00H	; `string'
CONST	ENDS
;	COMDAT ??_C@_03BCJIDNJL@NPC?$AA@
CONST	SEGMENT
??_C@_03BCJIDNJL@NPC?$AA@ DB 'NPC', 00H			; `string'
CONST	ENDS
;	COMDAT ??_C@_06POMJKEPM@Common?$AA@
CONST	SEGMENT
??_C@_06POMJKEPM@Common?$AA@ DB 'Common', 00H		; `string'
CONST	ENDS
;	COMDAT ??_C@_06CKGENIKG@Enable?$AA@
CONST	SEGMENT
??_C@_06CKGENIKG@Enable?$AA@ DB 'Enable', 00H		; `string'
CONST	ENDS
;	COMDAT ??_C@_0CG@ILHCHEHA@?4?4?2Data?2ExData?2Events?2SearchEven@
CONST	SEGMENT
??_C@_0CG@ILHCHEHA@?4?4?2Data?2ExData?2Events?2SearchEven@ DB '..\Data\Ex'
	DB	'Data\Events\SearchEvent.ini', 00H		; `string'
; Function compile flags: /Odtp /ZI
CONST	ENDS
_TEXT	SEGMENT
_n$220884 = -376					; size = 12
_n$220882 = -364					; size = 12
_n$220880 = -352					; size = 12
_n$220877 = -340					; size = 40
_n$220874 = -300					; size = 12
_Flag$ = -288						; size = 4
_Buff$ = -284						; size = 256
_file$ = -28						; size = 4
_l$220859 = -24						; size = 4
_i$220855 = -20						; size = 4
_i$220851 = -16						; size = 4
_i$220847 = -12						; size = 4
_this$ = -8						; size = 4
__$ArrayPad$ = -4					; size = 4
?LoadingEvent@cSearchEvent@@QAEXXZ PROC			; cSearchEvent::LoadingEvent
; _this$ = ecx

; 29   : {

  00040	55		 push	 ebp
  00041	8b ec		 mov	 ebp, esp
  00043	81 ec b8 01 00
	00		 sub	 esp, 440		; 000001b8H
  00049	a1 00 00 00 00	 mov	 eax, DWORD PTR ___security_cookie
  0004e	33 c5		 xor	 eax, ebp
  00050	89 45 fc	 mov	 DWORD PTR __$ArrayPad$[ebp], eax
  00053	53		 push	 ebx
  00054	56		 push	 esi
  00055	57		 push	 edi
  00056	89 4d f8	 mov	 DWORD PTR _this$[ebp], ecx

; 30   : 
; 31   : 	this->Enable = GetPrivateProfileInt("Common","Enable",1,SEARCH_EVENT_DIR);

  00059	68 00 00 00 00	 push	 OFFSET ??_C@_0CG@ILHCHEHA@?4?4?2Data?2ExData?2Events?2SearchEven@
  0005e	6a 01		 push	 1
  00060	68 00 00 00 00	 push	 OFFSET ??_C@_06CKGENIKG@Enable?$AA@
  00065	68 00 00 00 00	 push	 OFFSET ??_C@_06POMJKEPM@Common?$AA@
  0006a	ff 15 00 00 00
	00		 call	 DWORD PTR __imp__GetPrivateProfileIntA@16
  00070	8b 4d f8	 mov	 ecx, DWORD PTR _this$[ebp]
  00073	89 01		 mov	 DWORD PTR [ecx], eax

; 32   : 	this->NPC = GetPrivateProfileInt("Common","NPC",258,SEARCH_EVENT_DIR);

  00075	68 00 00 00 00	 push	 OFFSET ??_C@_0CG@ILHCHEHA@?4?4?2Data?2ExData?2Events?2SearchEven@
  0007a	68 02 01 00 00	 push	 258			; 00000102H
  0007f	68 00 00 00 00	 push	 OFFSET ??_C@_03BCJIDNJL@NPC?$AA@
  00084	68 00 00 00 00	 push	 OFFSET ??_C@_06POMJKEPM@Common?$AA@
  00089	ff 15 00 00 00
	00		 call	 DWORD PTR __imp__GetPrivateProfileIntA@16
  0008f	8b 4d f8	 mov	 ecx, DWORD PTR _this$[ebp]
  00092	89 41 08	 mov	 DWORD PTR [ecx+8], eax

; 33   : 	this->PresWcoin = GetPrivateProfileInt("Common","PresWcoin",10,SEARCH_EVENT_DIR);

  00095	68 00 00 00 00	 push	 OFFSET ??_C@_0CG@ILHCHEHA@?4?4?2Data?2ExData?2Events?2SearchEven@
  0009a	6a 0a		 push	 10			; 0000000aH
  0009c	68 00 00 00 00	 push	 OFFSET ??_C@_09COJLPKPK@PresWcoin?$AA@
  000a1	68 00 00 00 00	 push	 OFFSET ??_C@_06POMJKEPM@Common?$AA@
  000a6	ff 15 00 00 00
	00		 call	 DWORD PTR __imp__GetPrivateProfileIntA@16
  000ac	8b 4d f8	 mov	 ecx, DWORD PTR _this$[ebp]
  000af	89 41 10	 mov	 DWORD PTR [ecx+16], eax

; 34   : 	this->Map = GetPrivateProfileInt("Common","Map",0,SEARCH_EVENT_DIR);

  000b2	68 00 00 00 00	 push	 OFFSET ??_C@_0CG@ILHCHEHA@?4?4?2Data?2ExData?2Events?2SearchEven@
  000b7	6a 00		 push	 0
  000b9	68 00 00 00 00	 push	 OFFSET ??_C@_03NBOPHIOC@Map?$AA@
  000be	68 00 00 00 00	 push	 OFFSET ??_C@_06POMJKEPM@Common?$AA@
  000c3	ff 15 00 00 00
	00		 call	 DWORD PTR __imp__GetPrivateProfileIntA@16
  000c9	8b 4d f8	 mov	 ecx, DWORD PTR _this$[ebp]
  000cc	89 41 0c	 mov	 DWORD PTR [ecx+12], eax

; 35   : 	this->Time = GetPrivateProfileInt("Common","Time",60,SEARCH_EVENT_DIR) * 60;

  000cf	68 00 00 00 00	 push	 OFFSET ??_C@_0CG@ILHCHEHA@?4?4?2Data?2ExData?2Events?2SearchEven@
  000d4	6a 3c		 push	 60			; 0000003cH
  000d6	68 00 00 00 00	 push	 OFFSET ??_C@_04OKOFBOPB@Time?$AA@
  000db	68 00 00 00 00	 push	 OFFSET ??_C@_06POMJKEPM@Common?$AA@
  000e0	ff 15 00 00 00
	00		 call	 DWORD PTR __imp__GetPrivateProfileIntA@16
  000e6	6b c0 3c	 imul	 eax, 60			; 0000003cH
  000e9	8b 4d f8	 mov	 ecx, DWORD PTR _this$[ebp]
  000ec	89 41 14	 mov	 DWORD PTR [ecx+20], eax

; 36   : 	this->ItemCount = GetPrivateProfileInt("Common","ItemCount",5,SEARCH_EVENT_DIR);

  000ef	68 00 00 00 00	 push	 OFFSET ??_C@_0CG@ILHCHEHA@?4?4?2Data?2ExData?2Events?2SearchEven@
  000f4	6a 05		 push	 5
  000f6	68 00 00 00 00	 push	 OFFSET ??_C@_09GGKKDIOI@ItemCount?$AA@
  000fb	68 00 00 00 00	 push	 OFFSET ??_C@_06POMJKEPM@Common?$AA@
  00100	ff 15 00 00 00
	00		 call	 DWORD PTR __imp__GetPrivateProfileIntA@16
  00106	8b 4d f8	 mov	 ecx, DWORD PTR _this$[ebp]
  00109	89 41 18	 mov	 DWORD PTR [ecx+24], eax

; 37   : 
; 38   : 	this->BonusCredits = GetPrivateProfileInt("Common","BonusCredits",10,SEARCH_EVENT_DIR);

  0010c	68 00 00 00 00	 push	 OFFSET ??_C@_0CG@ILHCHEHA@?4?4?2Data?2ExData?2Events?2SearchEven@
  00111	6a 0a		 push	 10			; 0000000aH
  00113	68 00 00 00 00	 push	 OFFSET ??_C@_0N@FFNKHLEO@BonusCredits?$AA@
  00118	68 00 00 00 00	 push	 OFFSET ??_C@_06POMJKEPM@Common?$AA@
  0011d	ff 15 00 00 00
	00		 call	 DWORD PTR __imp__GetPrivateProfileIntA@16
  00123	8b 4d f8	 mov	 ecx, DWORD PTR _this$[ebp]
  00126	89 41 28	 mov	 DWORD PTR [ecx+40], eax

; 39   : 	this->BonusWcoinC = GetPrivateProfileInt("Common","BonusWcoinC",10,SEARCH_EVENT_DIR);

  00129	68 00 00 00 00	 push	 OFFSET ??_C@_0CG@ILHCHEHA@?4?4?2Data?2ExData?2Events?2SearchEven@
  0012e	6a 0a		 push	 10			; 0000000aH
  00130	68 00 00 00 00	 push	 OFFSET ??_C@_0M@GANIFOBP@BonusWcoinC?$AA@
  00135	68 00 00 00 00	 push	 OFFSET ??_C@_06POMJKEPM@Common?$AA@
  0013a	ff 15 00 00 00
	00		 call	 DWORD PTR __imp__GetPrivateProfileIntA@16
  00140	8b 4d f8	 mov	 ecx, DWORD PTR _this$[ebp]
  00143	89 41 2c	 mov	 DWORD PTR [ecx+44], eax

; 40   : 	this->BonusWcoinP = GetPrivateProfileInt("Common","BonusWcoinP",10,SEARCH_EVENT_DIR);

  00146	68 00 00 00 00	 push	 OFFSET ??_C@_0CG@ILHCHEHA@?4?4?2Data?2ExData?2Events?2SearchEven@
  0014b	6a 0a		 push	 10			; 0000000aH
  0014d	68 00 00 00 00	 push	 OFFSET ??_C@_0M@BDHBPIN@BonusWcoinP?$AA@
  00152	68 00 00 00 00	 push	 OFFSET ??_C@_06POMJKEPM@Common?$AA@
  00157	ff 15 00 00 00
	00		 call	 DWORD PTR __imp__GetPrivateProfileIntA@16
  0015d	8b 4d f8	 mov	 ecx, DWORD PTR _this$[ebp]
  00160	89 41 30	 mov	 DWORD PTR [ecx+48], eax

; 41   : 	this->BonusGoblinPoints = GetPrivateProfileInt("Common","BonusGoblinPoints",10,SEARCH_EVENT_DIR);

  00163	68 00 00 00 00	 push	 OFFSET ??_C@_0CG@ILHCHEHA@?4?4?2Data?2ExData?2Events?2SearchEven@
  00168	6a 0a		 push	 10			; 0000000aH
  0016a	68 00 00 00 00	 push	 OFFSET ??_C@_0BC@IGHAMHGJ@BonusGoblinPoints?$AA@
  0016f	68 00 00 00 00	 push	 OFFSET ??_C@_06POMJKEPM@Common?$AA@
  00174	ff 15 00 00 00
	00		 call	 DWORD PTR __imp__GetPrivateProfileIntA@16
  0017a	8b 4d f8	 mov	 ecx, DWORD PTR _this$[ebp]
  0017d	89 41 34	 mov	 DWORD PTR [ecx+52], eax

; 42   : 
; 43   : 	for(int i=0;i<10;i++)

  00180	c7 45 f4 00 00
	00 00		 mov	 DWORD PTR _i$220847[ebp], 0
  00187	eb 09		 jmp	 SHORT $LN21@LoadingEve
$LN20@LoadingEve:
  00189	8b 45 f4	 mov	 eax, DWORD PTR _i$220847[ebp]
  0018c	83 c0 01	 add	 eax, 1
  0018f	89 45 f4	 mov	 DWORD PTR _i$220847[ebp], eax
$LN21@LoadingEve:
  00192	83 7d f4 0a	 cmp	 DWORD PTR _i$220847[ebp], 10 ; 0000000aH
  00196	7d 1e		 jge	 SHORT $LN19@LoadingEve

; 44   : 	{
; 45   : 		this->TickTime[i].Hour = 0;

  00198	8b 45 f4	 mov	 eax, DWORD PTR _i$220847[ebp]
  0019b	8b 4d f8	 mov	 ecx, DWORD PTR _this$[ebp]
  0019e	c7 44 c1 6c 00
	00 00 00	 mov	 DWORD PTR [ecx+eax*8+108], 0

; 46   : 		this->TickTime[i].Min = 0;

  001a6	8b 45 f4	 mov	 eax, DWORD PTR _i$220847[ebp]
  001a9	8b 4d f8	 mov	 ecx, DWORD PTR _this$[ebp]
  001ac	c7 44 c1 70 00
	00 00 00	 mov	 DWORD PTR [ecx+eax*8+112], 0

; 47   : 	}

  001b4	eb d3		 jmp	 SHORT $LN20@LoadingEve
$LN19@LoadingEve:

; 48   : 
; 49   : 	for(int i(0);i < 255; i++)

  001b6	c7 45 f0 00 00
	00 00		 mov	 DWORD PTR _i$220851[ebp], 0
  001bd	eb 09		 jmp	 SHORT $LN18@LoadingEve
$LN17@LoadingEve:
  001bf	8b 45 f0	 mov	 eax, DWORD PTR _i$220851[ebp]
  001c2	83 c0 01	 add	 eax, 1
  001c5	89 45 f0	 mov	 DWORD PTR _i$220851[ebp], eax
$LN18@LoadingEve:
  001c8	81 7d f0 ff 00
	00 00		 cmp	 DWORD PTR _i$220851[ebp], 255 ; 000000ffH
  001cf	0f 8d a5 00 00
	00		 jge	 $LN16@LoadingEve

; 50   : 	{
; 51   : 		this->Item[i].Index = 0;

  001d5	8b 45 f0	 mov	 eax, DWORD PTR _i$220851[ebp]
  001d8	c1 e0 05	 shl	 eax, 5
  001db	8b 4d f8	 mov	 ecx, DWORD PTR _this$[ebp]
  001de	c7 84 01 bc 00
	00 00 00 00 00
	00		 mov	 DWORD PTR [ecx+eax+188], 0

; 52   : 		this->Item[i].Type  = 0;

  001e9	8b 45 f0	 mov	 eax, DWORD PTR _i$220851[ebp]
  001ec	c1 e0 05	 shl	 eax, 5
  001ef	8b 4d f8	 mov	 ecx, DWORD PTR _this$[ebp]
  001f2	c7 84 01 c0 00
	00 00 00 00 00
	00		 mov	 DWORD PTR [ecx+eax+192], 0

; 53   : 		this->Item[i].Level = 0;

  001fd	8b 45 f0	 mov	 eax, DWORD PTR _i$220851[ebp]
  00200	c1 e0 05	 shl	 eax, 5
  00203	8b 4d f8	 mov	 ecx, DWORD PTR _this$[ebp]
  00206	c7 84 01 c4 00
	00 00 00 00 00
	00		 mov	 DWORD PTR [ecx+eax+196], 0

; 54   : 		this->Item[i].Skill = 0;

  00211	8b 45 f0	 mov	 eax, DWORD PTR _i$220851[ebp]
  00214	c1 e0 05	 shl	 eax, 5
  00217	8b 4d f8	 mov	 ecx, DWORD PTR _this$[ebp]
  0021a	c7 84 01 c8 00
	00 00 00 00 00
	00		 mov	 DWORD PTR [ecx+eax+200], 0

; 55   : 		this->Item[i].Luck  = 0;

  00225	8b 45 f0	 mov	 eax, DWORD PTR _i$220851[ebp]
  00228	c1 e0 05	 shl	 eax, 5
  0022b	8b 4d f8	 mov	 ecx, DWORD PTR _this$[ebp]
  0022e	c7 84 01 cc 00
	00 00 00 00 00
	00		 mov	 DWORD PTR [ecx+eax+204], 0

; 56   : 		this->Item[i].Opt   = 0;

  00239	8b 45 f0	 mov	 eax, DWORD PTR _i$220851[ebp]
  0023c	c1 e0 05	 shl	 eax, 5
  0023f	8b 4d f8	 mov	 ecx, DWORD PTR _this$[ebp]
  00242	c7 84 01 d0 00
	00 00 00 00 00
	00		 mov	 DWORD PTR [ecx+eax+208], 0

; 57   : 		this->Item[i].Exl	= 0;

  0024d	8b 45 f0	 mov	 eax, DWORD PTR _i$220851[ebp]
  00250	c1 e0 05	 shl	 eax, 5
  00253	8b 4d f8	 mov	 ecx, DWORD PTR _this$[ebp]
  00256	c7 84 01 d4 00
	00 00 00 00 00
	00		 mov	 DWORD PTR [ecx+eax+212], 0

; 58   : 		this->Item[i].Anc   = 0;

  00261	8b 45 f0	 mov	 eax, DWORD PTR _i$220851[ebp]
  00264	c1 e0 05	 shl	 eax, 5
  00267	8b 4d f8	 mov	 ecx, DWORD PTR _this$[ebp]
  0026a	c7 84 01 d8 00
	00 00 00 00 00
	00		 mov	 DWORD PTR [ecx+eax+216], 0

; 59   : 	}

  00275	e9 45 ff ff ff	 jmp	 $LN17@LoadingEve
$LN16@LoadingEve:

; 60   : 
; 61   : 	for(int i=0;i<3;i++)

  0027a	c7 45 ec 00 00
	00 00		 mov	 DWORD PTR _i$220855[ebp], 0
  00281	eb 09		 jmp	 SHORT $LN15@LoadingEve
$LN14@LoadingEve:
  00283	8b 45 ec	 mov	 eax, DWORD PTR _i$220855[ebp]
  00286	83 c0 01	 add	 eax, 1
  00289	89 45 ec	 mov	 DWORD PTR _i$220855[ebp], eax
$LN15@LoadingEve:
  0028c	83 7d ec 03	 cmp	 DWORD PTR _i$220855[ebp], 3
  00290	7d 57		 jge	 SHORT $LN13@LoadingEve

; 62   : 	{
; 63   : 		for(int l=0;l<100;l++)

  00292	c7 45 e8 00 00
	00 00		 mov	 DWORD PTR _l$220859[ebp], 0
  00299	eb 09		 jmp	 SHORT $LN12@LoadingEve
$LN11@LoadingEve:
  0029b	8b 45 e8	 mov	 eax, DWORD PTR _l$220859[ebp]
  0029e	83 c0 01	 add	 eax, 1
  002a1	89 45 e8	 mov	 DWORD PTR _l$220859[ebp], eax
$LN12@LoadingEve:
  002a4	83 7d e8 64	 cmp	 DWORD PTR _l$220859[ebp], 100 ; 00000064H
  002a8	7d 3d		 jge	 SHORT $LN10@LoadingEve

; 64   : 		{
; 65   : 			this->Cord[i][l].X = 0;

  002aa	8b 45 ec	 mov	 eax, DWORD PTR _i$220855[ebp]
  002ad	69 c0 20 03 00
	00		 imul	 eax, 800		; 00000320H
  002b3	8b 4d f8	 mov	 ecx, DWORD PTR _this$[ebp]
  002b6	8d 94 01 9c 20
	00 00		 lea	 edx, DWORD PTR [ecx+eax+8348]
  002bd	8b 45 e8	 mov	 eax, DWORD PTR _l$220859[ebp]
  002c0	c7 04 c2 00 00
	00 00		 mov	 DWORD PTR [edx+eax*8], 0

; 66   : 			this->Cord[i][l].Y = 0;

  002c7	8b 45 ec	 mov	 eax, DWORD PTR _i$220855[ebp]
  002ca	69 c0 20 03 00
	00		 imul	 eax, 800		; 00000320H
  002d0	8b 4d f8	 mov	 ecx, DWORD PTR _this$[ebp]
  002d3	8d 94 01 9c 20
	00 00		 lea	 edx, DWORD PTR [ecx+eax+8348]
  002da	8b 45 e8	 mov	 eax, DWORD PTR _l$220859[ebp]
  002dd	c7 44 c2 04 00
	00 00 00	 mov	 DWORD PTR [edx+eax*8+4], 0

; 67   : 		}

  002e5	eb b4		 jmp	 SHORT $LN11@LoadingEve
$LN10@LoadingEve:

; 68   : 	}

  002e7	eb 9a		 jmp	 SHORT $LN14@LoadingEve
$LN13@LoadingEve:

; 69   : 
; 70   : 	FILE *file = fopen(SEARCH_EVENT_DIR,"r");

  002e9	68 00 00 00 00	 push	 OFFSET ??_C@_01KDCPPGHE@r?$AA@
  002ee	68 00 00 00 00	 push	 OFFSET ??_C@_0CG@ILHCHEHA@?4?4?2Data?2ExData?2Events?2SearchEven@
  002f3	e8 00 00 00 00	 call	 _fopen
  002f8	83 c4 08	 add	 esp, 8
  002fb	89 45 e4	 mov	 DWORD PTR _file$[ebp], eax

; 71   : 
; 72   : 	if(file == NULL)

  002fe	83 7d e4 00	 cmp	 DWORD PTR _file$[ebp], 0
  00302	75 21		 jne	 SHORT $LN9@LoadingEve

; 73   : 	{
; 74   : 		MessageBoxA(0,SEARCH_EVENT_DIR,"LOAD ERROR",0);

  00304	6a 00		 push	 0
  00306	68 00 00 00 00	 push	 OFFSET ??_C@_0L@DBBEOKP@LOAD?5ERROR?$AA@
  0030b	68 00 00 00 00	 push	 OFFSET ??_C@_0CG@ILHCHEHA@?4?4?2Data?2ExData?2Events?2SearchEven@
  00310	6a 00		 push	 0
  00312	ff 15 00 00 00
	00		 call	 DWORD PTR __imp__MessageBoxA@16

; 75   : 		ExitProcess(1);

  00318	6a 01		 push	 1
  0031a	ff 15 00 00 00
	00		 call	 DWORD PTR __imp__ExitProcess@4

; 76   : 		return;

  00320	e9 b7 03 00 00	 jmp	 $LN23@LoadingEve
$LN9@LoadingEve:

; 77   : 	}
; 78   : 
; 79   : 	char Buff[256];
; 80   : 	int Flag = 0;

  00325	c7 85 e0 fe ff
	ff 00 00 00 00	 mov	 DWORD PTR _Flag$[ebp], 0

; 81   : 
; 82   : 	this->Count = 0;

  0032f	8b 45 f8	 mov	 eax, DWORD PTR _this$[ebp]
  00332	c7 80 1c 2d 00
	00 00 00 00 00	 mov	 DWORD PTR [eax+11548], 0

; 83   : 	this->Count2 = 0;

  0033c	8b 45 f8	 mov	 eax, DWORD PTR _this$[ebp]
  0033f	c7 80 20 2d 00
	00 00 00 00 00	 mov	 DWORD PTR [eax+11552], 0

; 84   : 
; 85   : 	this->CountCord[1] = 0;

  00349	8b 45 f8	 mov	 eax, DWORD PTR _this$[ebp]
  0034c	c7 80 28 2d 00
	00 00 00 00 00	 mov	 DWORD PTR [eax+11560], 0

; 86   : 	this->CountCord[2] = 0;

  00356	8b 45 f8	 mov	 eax, DWORD PTR _this$[ebp]
  00359	c7 80 2c 2d 00
	00 00 00 00 00	 mov	 DWORD PTR [eax+11564], 0

; 87   : 	this->CountCord[3] = 0;

  00363	8b 45 f8	 mov	 eax, DWORD PTR _this$[ebp]
  00366	c7 80 30 2d 00
	00 00 00 00 00	 mov	 DWORD PTR [eax+11568], 0
$LN8@LoadingEve:

; 88   : 
; 89   : 	while(!feof(file)) 

  00370	8b 45 e4	 mov	 eax, DWORD PTR _file$[ebp]
  00373	50		 push	 eax
  00374	e8 00 00 00 00	 call	 _feof
  00379	83 c4 04	 add	 esp, 4
  0037c	85 c0		 test	 eax, eax
  0037e	0f 85 4c 03 00
	00		 jne	 $LN7@LoadingEve

; 90   : 	{
; 91   : 		fgets(Buff,256,file);

  00384	8b 45 e4	 mov	 eax, DWORD PTR _file$[ebp]
  00387	50		 push	 eax
  00388	68 00 01 00 00	 push	 256			; 00000100H
  0038d	8d 8d e4 fe ff
	ff		 lea	 ecx, DWORD PTR _Buff$[ebp]
  00393	51		 push	 ecx
  00394	e8 00 00 00 00	 call	 _fgets
  00399	83 c4 0c	 add	 esp, 12			; 0000000cH

; 92   : 		if(Ex_IsBadFileLine(Buff, Flag))

  0039c	8d 85 e0 fe ff
	ff		 lea	 eax, DWORD PTR _Flag$[ebp]
  003a2	50		 push	 eax
  003a3	8d 8d e4 fe ff
	ff		 lea	 ecx, DWORD PTR _Buff$[ebp]
  003a9	51		 push	 ecx
  003aa	e8 00 00 00 00	 call	 ?Ex_IsBadFileLine@@YA_NPADAAH@Z ; Ex_IsBadFileLine
  003af	83 c4 08	 add	 esp, 8
  003b2	0f b6 d0	 movzx	 edx, al
  003b5	85 d2		 test	 edx, edx
  003b7	74 02		 je	 SHORT $LN6@LoadingEve

; 93   : 			continue;

  003b9	eb b5		 jmp	 SHORT $LN8@LoadingEve
$LN6@LoadingEve:

; 94   : 
; 95   : 		if(Flag == 1)

  003bb	83 bd e0 fe ff
	ff 01		 cmp	 DWORD PTR _Flag$[ebp], 1
  003c2	75 63		 jne	 SHORT $LN5@LoadingEve

; 96   : 		{
; 97   : 			int n[3];
; 98   : 			sscanf(Buff, "%d %d", &n[0], &n[1]);

  003c4	8d 85 d8 fe ff
	ff		 lea	 eax, DWORD PTR _n$220874[ebp+4]
  003ca	50		 push	 eax
  003cb	8d 8d d4 fe ff
	ff		 lea	 ecx, DWORD PTR _n$220874[ebp]
  003d1	51		 push	 ecx
  003d2	68 00 00 00 00	 push	 OFFSET ??_C@_05OKMLJOMC@?$CFd?5?$CFd?$AA@
  003d7	8d 95 e4 fe ff
	ff		 lea	 edx, DWORD PTR _Buff$[ebp]
  003dd	52		 push	 edx
  003de	e8 00 00 00 00	 call	 _sscanf
  003e3	83 c4 10	 add	 esp, 16			; 00000010H

; 99   : 			this->TickTime[this->Count].Hour  = n[0];

  003e6	8b 45 f8	 mov	 eax, DWORD PTR _this$[ebp]
  003e9	8b 88 1c 2d 00
	00		 mov	 ecx, DWORD PTR [eax+11548]
  003ef	8b 55 f8	 mov	 edx, DWORD PTR _this$[ebp]
  003f2	8b 85 d4 fe ff
	ff		 mov	 eax, DWORD PTR _n$220874[ebp]
  003f8	89 44 ca 6c	 mov	 DWORD PTR [edx+ecx*8+108], eax

; 100  : 			this->TickTime[this->Count].Min   = n[1];

  003fc	8b 45 f8	 mov	 eax, DWORD PTR _this$[ebp]
  003ff	8b 88 1c 2d 00
	00		 mov	 ecx, DWORD PTR [eax+11548]
  00405	8b 55 f8	 mov	 edx, DWORD PTR _this$[ebp]
  00408	8b 85 d8 fe ff
	ff		 mov	 eax, DWORD PTR _n$220874[ebp+4]
  0040e	89 44 ca 70	 mov	 DWORD PTR [edx+ecx*8+112], eax

; 101  : 			this->Count++;

  00412	8b 45 f8	 mov	 eax, DWORD PTR _this$[ebp]
  00415	8b 88 1c 2d 00
	00		 mov	 ecx, DWORD PTR [eax+11548]
  0041b	83 c1 01	 add	 ecx, 1
  0041e	8b 55 f8	 mov	 edx, DWORD PTR _this$[ebp]
  00421	89 8a 1c 2d 00
	00		 mov	 DWORD PTR [edx+11548], ecx
$LN5@LoadingEve:

; 102  : 		}
; 103  : 		if(Flag == 2)

  00427	83 bd e0 fe ff
	ff 02		 cmp	 DWORD PTR _Flag$[ebp], 2
  0042e	0f 85 41 01 00
	00		 jne	 $LN4@LoadingEve

; 104  : 		{
; 105  : 			int n[10];
; 106  : 			sscanf(Buff, "%d %d %d %d %d %d %d %d", &n[0], &n[1], &n[2], &n[3], &n[4], &n[5], &n[6], &n[7]);

  00434	8d 85 c8 fe ff
	ff		 lea	 eax, DWORD PTR _n$220877[ebp+28]
  0043a	50		 push	 eax
  0043b	8d 8d c4 fe ff
	ff		 lea	 ecx, DWORD PTR _n$220877[ebp+24]
  00441	51		 push	 ecx
  00442	8d 95 c0 fe ff
	ff		 lea	 edx, DWORD PTR _n$220877[ebp+20]
  00448	52		 push	 edx
  00449	8d 85 bc fe ff
	ff		 lea	 eax, DWORD PTR _n$220877[ebp+16]
  0044f	50		 push	 eax
  00450	8d 8d b8 fe ff
	ff		 lea	 ecx, DWORD PTR _n$220877[ebp+12]
  00456	51		 push	 ecx
  00457	8d 95 b4 fe ff
	ff		 lea	 edx, DWORD PTR _n$220877[ebp+8]
  0045d	52		 push	 edx
  0045e	8d 85 b0 fe ff
	ff		 lea	 eax, DWORD PTR _n$220877[ebp+4]
  00464	50		 push	 eax
  00465	8d 8d ac fe ff
	ff		 lea	 ecx, DWORD PTR _n$220877[ebp]
  0046b	51		 push	 ecx
  0046c	68 00 00 00 00	 push	 OFFSET ??_C@_0BI@HDMMBKBM@?$CFd?5?$CFd?5?$CFd?5?$CFd?5?$CFd?5?$CFd?5?$CFd?5?$CFd?$AA@
  00471	8d 95 e4 fe ff
	ff		 lea	 edx, DWORD PTR _Buff$[ebp]
  00477	52		 push	 edx
  00478	e8 00 00 00 00	 call	 _sscanf
  0047d	83 c4 28	 add	 esp, 40			; 00000028H

; 107  : 
; 108  : 			this->Item[this->Count2].Type  = n[0];

  00480	8b 45 f8	 mov	 eax, DWORD PTR _this$[ebp]
  00483	8b 88 20 2d 00
	00		 mov	 ecx, DWORD PTR [eax+11552]
  00489	c1 e1 05	 shl	 ecx, 5
  0048c	8b 55 f8	 mov	 edx, DWORD PTR _this$[ebp]
  0048f	8b 85 ac fe ff
	ff		 mov	 eax, DWORD PTR _n$220877[ebp]
  00495	89 84 0a c0 00
	00 00		 mov	 DWORD PTR [edx+ecx+192], eax

; 109  : 			this->Item[this->Count2].Index = n[1];

  0049c	8b 45 f8	 mov	 eax, DWORD PTR _this$[ebp]
  0049f	8b 88 20 2d 00
	00		 mov	 ecx, DWORD PTR [eax+11552]
  004a5	c1 e1 05	 shl	 ecx, 5
  004a8	8b 55 f8	 mov	 edx, DWORD PTR _this$[ebp]
  004ab	8b 85 b0 fe ff
	ff		 mov	 eax, DWORD PTR _n$220877[ebp+4]
  004b1	89 84 0a bc 00
	00 00		 mov	 DWORD PTR [edx+ecx+188], eax

; 110  : 			this->Item[this->Count2].Level = n[2];

  004b8	8b 45 f8	 mov	 eax, DWORD PTR _this$[ebp]
  004bb	8b 88 20 2d 00
	00		 mov	 ecx, DWORD PTR [eax+11552]
  004c1	c1 e1 05	 shl	 ecx, 5
  004c4	8b 55 f8	 mov	 edx, DWORD PTR _this$[ebp]
  004c7	8b 85 b4 fe ff
	ff		 mov	 eax, DWORD PTR _n$220877[ebp+8]
  004cd	89 84 0a c4 00
	00 00		 mov	 DWORD PTR [edx+ecx+196], eax

; 111  : 			this->Item[this->Count2].Skill = n[3];

  004d4	8b 45 f8	 mov	 eax, DWORD PTR _this$[ebp]
  004d7	8b 88 20 2d 00
	00		 mov	 ecx, DWORD PTR [eax+11552]
  004dd	c1 e1 05	 shl	 ecx, 5
  004e0	8b 55 f8	 mov	 edx, DWORD PTR _this$[ebp]
  004e3	8b 85 b8 fe ff
	ff		 mov	 eax, DWORD PTR _n$220877[ebp+12]
  004e9	89 84 0a c8 00
	00 00		 mov	 DWORD PTR [edx+ecx+200], eax

; 112  : 			this->Item[this->Count2].Luck  = n[4];

  004f0	8b 45 f8	 mov	 eax, DWORD PTR _this$[ebp]
  004f3	8b 88 20 2d 00
	00		 mov	 ecx, DWORD PTR [eax+11552]
  004f9	c1 e1 05	 shl	 ecx, 5
  004fc	8b 55 f8	 mov	 edx, DWORD PTR _this$[ebp]
  004ff	8b 85 bc fe ff
	ff		 mov	 eax, DWORD PTR _n$220877[ebp+16]
  00505	89 84 0a cc 00
	00 00		 mov	 DWORD PTR [edx+ecx+204], eax

; 113  : 			this->Item[this->Count2].Opt   = n[5];

  0050c	8b 45 f8	 mov	 eax, DWORD PTR _this$[ebp]
  0050f	8b 88 20 2d 00
	00		 mov	 ecx, DWORD PTR [eax+11552]
  00515	c1 e1 05	 shl	 ecx, 5
  00518	8b 55 f8	 mov	 edx, DWORD PTR _this$[ebp]
  0051b	8b 85 c0 fe ff
	ff		 mov	 eax, DWORD PTR _n$220877[ebp+20]
  00521	89 84 0a d0 00
	00 00		 mov	 DWORD PTR [edx+ecx+208], eax

; 114  : 			this->Item[this->Count2].Exl   = n[6];

  00528	8b 45 f8	 mov	 eax, DWORD PTR _this$[ebp]
  0052b	8b 88 20 2d 00
	00		 mov	 ecx, DWORD PTR [eax+11552]
  00531	c1 e1 05	 shl	 ecx, 5
  00534	8b 55 f8	 mov	 edx, DWORD PTR _this$[ebp]
  00537	8b 85 c4 fe ff
	ff		 mov	 eax, DWORD PTR _n$220877[ebp+24]
  0053d	89 84 0a d4 00
	00 00		 mov	 DWORD PTR [edx+ecx+212], eax

; 115  : 			this->Item[this->Count2].Anc   = n[7];

  00544	8b 45 f8	 mov	 eax, DWORD PTR _this$[ebp]
  00547	8b 88 20 2d 00
	00		 mov	 ecx, DWORD PTR [eax+11552]
  0054d	c1 e1 05	 shl	 ecx, 5
  00550	8b 55 f8	 mov	 edx, DWORD PTR _this$[ebp]
  00553	8b 85 c8 fe ff
	ff		 mov	 eax, DWORD PTR _n$220877[ebp+28]
  00559	89 84 0a d8 00
	00 00		 mov	 DWORD PTR [edx+ecx+216], eax

; 116  : 			this->Count2++;

  00560	8b 45 f8	 mov	 eax, DWORD PTR _this$[ebp]
  00563	8b 88 20 2d 00
	00		 mov	 ecx, DWORD PTR [eax+11552]
  00569	83 c1 01	 add	 ecx, 1
  0056c	8b 55 f8	 mov	 edx, DWORD PTR _this$[ebp]
  0056f	89 8a 20 2d 00
	00		 mov	 DWORD PTR [edx+11552], ecx
$LN4@LoadingEve:

; 117  : 		}
; 118  : 		//----------------------------------------
; 119  : 		//Lorencia
; 120  : 		if(Flag == 3)

  00575	83 bd e0 fe ff
	ff 03		 cmp	 DWORD PTR _Flag$[ebp], 3
  0057c	75 69		 jne	 SHORT $LN3@LoadingEve

; 121  : 		{
; 122  : 			int n[3];
; 123  : 			sscanf(Buff, "%d %d", &n[0], &n[1]);

  0057e	8d 85 a4 fe ff
	ff		 lea	 eax, DWORD PTR _n$220880[ebp+4]
  00584	50		 push	 eax
  00585	8d 8d a0 fe ff
	ff		 lea	 ecx, DWORD PTR _n$220880[ebp]
  0058b	51		 push	 ecx
  0058c	68 00 00 00 00	 push	 OFFSET ??_C@_05OKMLJOMC@?$CFd?5?$CFd?$AA@
  00591	8d 95 e4 fe ff
	ff		 lea	 edx, DWORD PTR _Buff$[ebp]
  00597	52		 push	 edx
  00598	e8 00 00 00 00	 call	 _sscanf
  0059d	83 c4 10	 add	 esp, 16			; 00000010H

; 124  : 			this->Cord[1][this->CountCord[1]].X  = n[0];

  005a0	8b 45 f8	 mov	 eax, DWORD PTR _this$[ebp]
  005a3	8b 88 28 2d 00
	00		 mov	 ecx, DWORD PTR [eax+11560]
  005a9	8b 55 f8	 mov	 edx, DWORD PTR _this$[ebp]
  005ac	8b 85 a0 fe ff
	ff		 mov	 eax, DWORD PTR _n$220880[ebp]
  005b2	89 84 ca bc 23
	00 00		 mov	 DWORD PTR [edx+ecx*8+9148], eax

; 125  : 			this->Cord[1][this->CountCord[1]].Y   = n[1];

  005b9	8b 45 f8	 mov	 eax, DWORD PTR _this$[ebp]
  005bc	8b 88 28 2d 00
	00		 mov	 ecx, DWORD PTR [eax+11560]
  005c2	8b 55 f8	 mov	 edx, DWORD PTR _this$[ebp]
  005c5	8b 85 a4 fe ff
	ff		 mov	 eax, DWORD PTR _n$220880[ebp+4]
  005cb	89 84 ca c0 23
	00 00		 mov	 DWORD PTR [edx+ecx*8+9152], eax

; 126  : 			this->CountCord[1]++;

  005d2	8b 45 f8	 mov	 eax, DWORD PTR _this$[ebp]
  005d5	8b 88 28 2d 00
	00		 mov	 ecx, DWORD PTR [eax+11560]
  005db	83 c1 01	 add	 ecx, 1
  005de	8b 55 f8	 mov	 edx, DWORD PTR _this$[ebp]
  005e1	89 8a 28 2d 00
	00		 mov	 DWORD PTR [edx+11560], ecx
$LN3@LoadingEve:

; 127  : 		}
; 128  : 		//Noria
; 129  : 		if(Flag == 4)

  005e7	83 bd e0 fe ff
	ff 04		 cmp	 DWORD PTR _Flag$[ebp], 4
  005ee	75 69		 jne	 SHORT $LN2@LoadingEve

; 130  : 		{
; 131  : 			int n[3];
; 132  : 			sscanf(Buff, "%d %d", &n[0], &n[1]);

  005f0	8d 85 98 fe ff
	ff		 lea	 eax, DWORD PTR _n$220882[ebp+4]
  005f6	50		 push	 eax
  005f7	8d 8d 94 fe ff
	ff		 lea	 ecx, DWORD PTR _n$220882[ebp]
  005fd	51		 push	 ecx
  005fe	68 00 00 00 00	 push	 OFFSET ??_C@_05OKMLJOMC@?$CFd?5?$CFd?$AA@
  00603	8d 95 e4 fe ff
	ff		 lea	 edx, DWORD PTR _Buff$[ebp]
  00609	52		 push	 edx
  0060a	e8 00 00 00 00	 call	 _sscanf
  0060f	83 c4 10	 add	 esp, 16			; 00000010H

; 133  : 			this->Cord[2][this->CountCord[2]].X  = n[0];

  00612	8b 45 f8	 mov	 eax, DWORD PTR _this$[ebp]
  00615	8b 88 2c 2d 00
	00		 mov	 ecx, DWORD PTR [eax+11564]
  0061b	8b 55 f8	 mov	 edx, DWORD PTR _this$[ebp]
  0061e	8b 85 94 fe ff
	ff		 mov	 eax, DWORD PTR _n$220882[ebp]
  00624	89 84 ca dc 26
	00 00		 mov	 DWORD PTR [edx+ecx*8+9948], eax

; 134  : 			this->Cord[2][this->CountCord[2]].Y   = n[1];

  0062b	8b 45 f8	 mov	 eax, DWORD PTR _this$[ebp]
  0062e	8b 88 2c 2d 00
	00		 mov	 ecx, DWORD PTR [eax+11564]
  00634	8b 55 f8	 mov	 edx, DWORD PTR _this$[ebp]
  00637	8b 85 98 fe ff
	ff		 mov	 eax, DWORD PTR _n$220882[ebp+4]
  0063d	89 84 ca e0 26
	00 00		 mov	 DWORD PTR [edx+ecx*8+9952], eax

; 135  : 			this->CountCord[2]++;

  00644	8b 45 f8	 mov	 eax, DWORD PTR _this$[ebp]
  00647	8b 88 2c 2d 00
	00		 mov	 ecx, DWORD PTR [eax+11564]
  0064d	83 c1 01	 add	 ecx, 1
  00650	8b 55 f8	 mov	 edx, DWORD PTR _this$[ebp]
  00653	89 8a 2c 2d 00
	00		 mov	 DWORD PTR [edx+11564], ecx
$LN2@LoadingEve:

; 136  : 		}
; 137  : 		//Devias
; 138  : 		if(Flag == 5)

  00659	83 bd e0 fe ff
	ff 05		 cmp	 DWORD PTR _Flag$[ebp], 5
  00660	75 69		 jne	 SHORT $LN1@LoadingEve

; 139  : 		{
; 140  : 			int n[3];
; 141  : 			sscanf(Buff, "%d %d", &n[0], &n[1]);

  00662	8d 85 8c fe ff
	ff		 lea	 eax, DWORD PTR _n$220884[ebp+4]
  00668	50		 push	 eax
  00669	8d 8d 88 fe ff
	ff		 lea	 ecx, DWORD PTR _n$220884[ebp]
  0066f	51		 push	 ecx
  00670	68 00 00 00 00	 push	 OFFSET ??_C@_05OKMLJOMC@?$CFd?5?$CFd?$AA@
  00675	8d 95 e4 fe ff
	ff		 lea	 edx, DWORD PTR _Buff$[ebp]
  0067b	52		 push	 edx
  0067c	e8 00 00 00 00	 call	 _sscanf
  00681	83 c4 10	 add	 esp, 16			; 00000010H

; 142  : 			this->Cord[3][this->CountCord[3]].X  = n[0];

  00684	8b 45 f8	 mov	 eax, DWORD PTR _this$[ebp]
  00687	8b 88 30 2d 00
	00		 mov	 ecx, DWORD PTR [eax+11568]
  0068d	8b 55 f8	 mov	 edx, DWORD PTR _this$[ebp]
  00690	8b 85 88 fe ff
	ff		 mov	 eax, DWORD PTR _n$220884[ebp]
  00696	89 84 ca fc 29
	00 00		 mov	 DWORD PTR [edx+ecx*8+10748], eax

; 143  : 			this->Cord[3][this->CountCord[3]].Y   = n[1];

  0069d	8b 45 f8	 mov	 eax, DWORD PTR _this$[ebp]
  006a0	8b 88 30 2d 00
	00		 mov	 ecx, DWORD PTR [eax+11568]
  006a6	8b 55 f8	 mov	 edx, DWORD PTR _this$[ebp]
  006a9	8b 85 8c fe ff
	ff		 mov	 eax, DWORD PTR _n$220884[ebp+4]
  006af	89 84 ca 00 2a
	00 00		 mov	 DWORD PTR [edx+ecx*8+10752], eax

; 144  : 			this->CountCord[3]++;

  006b6	8b 45 f8	 mov	 eax, DWORD PTR _this$[ebp]
  006b9	8b 88 30 2d 00
	00		 mov	 ecx, DWORD PTR [eax+11568]
  006bf	83 c1 01	 add	 ecx, 1
  006c2	8b 55 f8	 mov	 edx, DWORD PTR _this$[ebp]
  006c5	89 8a 30 2d 00
	00		 mov	 DWORD PTR [edx+11568], ecx
$LN1@LoadingEve:

; 145  : 		}
; 146  : 	}

  006cb	e9 a0 fc ff ff	 jmp	 $LN8@LoadingEve
$LN7@LoadingEve:

; 147  : 	fclose(file);

  006d0	8b 45 e4	 mov	 eax, DWORD PTR _file$[ebp]
  006d3	50		 push	 eax
  006d4	e8 00 00 00 00	 call	 _fclose
  006d9	83 c4 04	 add	 esp, 4
$LN23@LoadingEve:

; 148  : }

  006dc	5f		 pop	 edi
  006dd	5e		 pop	 esi
  006de	5b		 pop	 ebx
  006df	8b 4d fc	 mov	 ecx, DWORD PTR __$ArrayPad$[ebp]
  006e2	33 cd		 xor	 ecx, ebp
  006e4	e8 00 00 00 00	 call	 @__security_check_cookie@4
  006e9	8b e5		 mov	 esp, ebp
  006eb	5d		 pop	 ebp
  006ec	c3		 ret	 0
?LoadingEvent@cSearchEvent@@QAEXXZ ENDP			; cSearchEvent::LoadingEvent
_TEXT	ENDS
PUBLIC	?SearchIndexNPC@cSearchEvent@@QAEXXZ		; cSearchEvent::SearchIndexNPC
; Function compile flags: /Odtp /ZI
_TEXT	SEGMENT
_this$ = -4						; size = 4
?SearchIndexNPC@cSearchEvent@@QAEXXZ PROC		; cSearchEvent::SearchIndexNPC
; _this$ = ecx

; 151  : {

  006f0	55		 push	 ebp
  006f1	8b ec		 mov	 ebp, esp
  006f3	83 ec 44	 sub	 esp, 68			; 00000044H
  006f6	53		 push	 ebx
  006f7	56		 push	 esi
  006f8	57		 push	 edi
  006f9	89 4d fc	 mov	 DWORD PTR _this$[ebp], ecx

; 152  : }

  006fc	5f		 pop	 edi
  006fd	5e		 pop	 esi
  006fe	5b		 pop	 ebx
  006ff	8b e5		 mov	 esp, ebp
  00701	5d		 pop	 ebp
  00702	c3		 ret	 0
?SearchIndexNPC@cSearchEvent@@QAEXXZ ENDP		; cSearchEvent::SearchIndexNPC
_TEXT	ENDS
PUBLIC	?EventEnd@cSearchEvent@@QAEXXZ			; cSearchEvent::EventEnd
PUBLIC	?Present@cSearchEvent@@QAEXH@Z			; cSearchEvent::Present
PUBLIC	?NPCClick@cSearchEvent@@QAEXHH@Z		; cSearchEvent::NPCClick
EXTRN	_rand:PROC
EXTRN	?MessaageAllGlobal@@YAXPADZZ:PROC		; MessaageAllGlobal
EXTRN	?GetText@CExText@@QAEPADH@Z:PROC		; CExText::GetText
EXTRN	?g_ExText@@3VCExText@@A:BYTE			; g_ExText
EXTRN	?gObj@@3PAUOBJECTSTRUCT@@A:DWORD		; gObj
; Function compile flags: /Odtp /ZI
_TEXT	SEGMENT
_Y$220916 = -36						; size = 4
_X$220915 = -32						; size = 4
_Num$220914 = -28					; size = 4
_Y$220910 = -24						; size = 4
_X$220909 = -20						; size = 4
_Num$220908 = -16					; size = 4
_NpcObj$ = -12						; size = 4
_lpObj$ = -8						; size = 4
_this$ = -4						; size = 4
_aIndex$ = 8						; size = 4
_aNPC$ = 12						; size = 4
?NPCClick@cSearchEvent@@QAEXHH@Z PROC			; cSearchEvent::NPCClick
; _this$ = ecx

; 155  : {

  00710	55		 push	 ebp
  00711	8b ec		 mov	 ebp, esp
  00713	83 ec 64	 sub	 esp, 100		; 00000064H
  00716	53		 push	 ebx
  00717	56		 push	 esi
  00718	57		 push	 edi
  00719	89 4d fc	 mov	 DWORD PTR _this$[ebp], ecx

; 156  : 	if(!this->Enable)

  0071c	8b 45 fc	 mov	 eax, DWORD PTR _this$[ebp]
  0071f	83 38 00	 cmp	 DWORD PTR [eax], 0
  00722	75 05		 jne	 SHORT $LN18@NPCClick

; 157  : 		return;

  00724	e9 8f 02 00 00	 jmp	 $LN19@NPCClick
$LN18@NPCClick:

; 158  : 	if(this->Start == false)

  00729	8b 45 fc	 mov	 eax, DWORD PTR _this$[ebp]
  0072c	0f b6 48 1c	 movzx	 ecx, BYTE PTR [eax+28]
  00730	85 c9		 test	 ecx, ecx
  00732	75 05		 jne	 SHORT $LN17@NPCClick

; 159  : 		return;

  00734	e9 7f 02 00 00	 jmp	 $LN19@NPCClick
$LN17@NPCClick:

; 160  : 	LPOBJ lpObj = &gObj[aIndex];

  00739	8b 45 08	 mov	 eax, DWORD PTR _aIndex$[ebp]
  0073c	69 c0 38 2b 00
	00		 imul	 eax, 11064		; 00002b38H
  00742	03 05 00 00 00
	00		 add	 eax, DWORD PTR ?gObj@@3PAUOBJECTSTRUCT@@A ; gObj
  00748	89 45 f8	 mov	 DWORD PTR _lpObj$[ebp], eax

; 161  : 
; 162  : 	LPOBJ NpcObj = &gObj[aNPC];

  0074b	8b 45 0c	 mov	 eax, DWORD PTR _aNPC$[ebp]
  0074e	69 c0 38 2b 00
	00		 imul	 eax, 11064		; 00002b38H
  00754	03 05 00 00 00
	00		 add	 eax, DWORD PTR ?gObj@@3PAUOBJECTSTRUCT@@A ; gObj
  0075a	89 45 f4	 mov	 DWORD PTR _NpcObj$[ebp], eax

; 163  : 
; 164  : 	if(NpcObj->Class == this->NPC && this->IndexNPC == NpcObj->m_Index)

  0075d	8b 45 f4	 mov	 eax, DWORD PTR _NpcObj$[ebp]
  00760	0f b7 88 b8 00
	00 00		 movzx	 ecx, WORD PTR [eax+184]
  00767	8b 55 fc	 mov	 edx, DWORD PTR _this$[ebp]
  0076a	3b 4a 08	 cmp	 ecx, DWORD PTR [edx+8]
  0076d	0f 85 45 02 00
	00		 jne	 $LN19@NPCClick
  00773	8b 45 fc	 mov	 eax, DWORD PTR _this$[ebp]
  00776	8b 4d f4	 mov	 ecx, DWORD PTR _NpcObj$[ebp]
  00779	8b 50 04	 mov	 edx, DWORD PTR [eax+4]
  0077c	3b 11		 cmp	 edx, DWORD PTR [ecx]
  0077e	0f 85 34 02 00
	00		 jne	 $LN19@NPCClick

; 165  : 	{
; 166  : 
; 167  : 		if(this->Stage == 1)

  00784	8b 45 fc	 mov	 eax, DWORD PTR _this$[ebp]
  00787	83 78 24 01	 cmp	 DWORD PTR [eax+36], 1
  0078b	75 15		 jne	 SHORT $LN15@NPCClick

; 168  : 		{
; 169  : 			if(lpObj->MapNumber != 0)

  0078d	8b 45 f8	 mov	 eax, DWORD PTR _lpObj$[ebp]
  00790	0f b6 88 49 01
	00 00		 movzx	 ecx, BYTE PTR [eax+329]
  00797	85 c9		 test	 ecx, ecx
  00799	74 05		 je	 SHORT $LN14@NPCClick

; 170  : 				return;

  0079b	e9 18 02 00 00	 jmp	 $LN19@NPCClick
$LN14@NPCClick:

; 171  : 		}

  007a0	eb 3c		 jmp	 SHORT $LN13@NPCClick
$LN15@NPCClick:

; 172  : 		else if(this->Stage == 2)

  007a2	8b 45 fc	 mov	 eax, DWORD PTR _this$[ebp]
  007a5	83 78 24 02	 cmp	 DWORD PTR [eax+36], 2
  007a9	75 16		 jne	 SHORT $LN12@NPCClick

; 173  : 		{
; 174  : 			if(lpObj->MapNumber != 3)

  007ab	8b 45 f8	 mov	 eax, DWORD PTR _lpObj$[ebp]
  007ae	0f b6 88 49 01
	00 00		 movzx	 ecx, BYTE PTR [eax+329]
  007b5	83 f9 03	 cmp	 ecx, 3
  007b8	74 05		 je	 SHORT $LN11@NPCClick

; 175  : 				return;

  007ba	e9 f9 01 00 00	 jmp	 $LN19@NPCClick
$LN11@NPCClick:

; 176  : 		}

  007bf	eb 1d		 jmp	 SHORT $LN13@NPCClick
$LN12@NPCClick:

; 177  : 		else if(this->Stage == 3)

  007c1	8b 45 fc	 mov	 eax, DWORD PTR _this$[ebp]
  007c4	83 78 24 03	 cmp	 DWORD PTR [eax+36], 3
  007c8	75 14		 jne	 SHORT $LN13@NPCClick

; 178  : 		{
; 179  : 			if(lpObj->MapNumber != 2)

  007ca	8b 45 f8	 mov	 eax, DWORD PTR _lpObj$[ebp]
  007cd	0f b6 88 49 01
	00 00		 movzx	 ecx, BYTE PTR [eax+329]
  007d4	83 f9 02	 cmp	 ecx, 2
  007d7	74 05		 je	 SHORT $LN13@NPCClick

; 180  : 				return;

  007d9	e9 da 01 00 00	 jmp	 $LN19@NPCClick
$LN13@NPCClick:

; 181  : 		}
; 182  : 
; 183  : 		this->Present(aIndex);

  007de	8b 45 08	 mov	 eax, DWORD PTR _aIndex$[ebp]
  007e1	50		 push	 eax
  007e2	8b 4d fc	 mov	 ecx, DWORD PTR _this$[ebp]
  007e5	e8 00 00 00 00	 call	 ?Present@cSearchEvent@@QAEXH@Z ; cSearchEvent::Present

; 184  : 
; 185  : 		if(this->Stage == 1)

  007ea	8b 45 fc	 mov	 eax, DWORD PTR _this$[ebp]
  007ed	83 78 24 01	 cmp	 DWORD PTR [eax+36], 1
  007f1	0f 85 c0 00 00
	00		 jne	 $LN7@NPCClick

; 186  : 		{
; 187  : 
; 188  : 			MessaageAllGlobal(g_ExText.GetText(92), lpObj->Name);

  007f7	8b 45 f8	 mov	 eax, DWORD PTR _lpObj$[ebp]
  007fa	83 c0 77	 add	 eax, 119		; 00000077H
  007fd	50		 push	 eax
  007fe	6a 5c		 push	 92			; 0000005cH
  00800	b9 00 00 00 00	 mov	 ecx, OFFSET ?g_ExText@@3VCExText@@A ; g_ExText
  00805	e8 00 00 00 00	 call	 ?GetText@CExText@@QAEPADH@Z ; CExText::GetText
  0080a	50		 push	 eax
  0080b	e8 00 00 00 00	 call	 ?MessaageAllGlobal@@YAXPADZZ ; MessaageAllGlobal
  00810	83 c4 08	 add	 esp, 8

; 189  : 
; 190  : 			if(CountCord[2] == 0)

  00813	8b 45 fc	 mov	 eax, DWORD PTR _this$[ebp]
  00816	83 b8 2c 2d 00
	00 00		 cmp	 DWORD PTR [eax+11564], 0
  0081d	75 17		 jne	 SHORT $LN6@NPCClick

; 191  : 			{
; 192  : 				this->EventEnd();

  0081f	8b 4d fc	 mov	 ecx, DWORD PTR _this$[ebp]
  00822	e8 00 00 00 00	 call	 ?EventEnd@cSearchEvent@@QAEXXZ ; cSearchEvent::EventEnd

; 193  : 				this->Stage = 0;

  00827	8b 45 fc	 mov	 eax, DWORD PTR _this$[ebp]
  0082a	c7 40 24 00 00
	00 00		 mov	 DWORD PTR [eax+36], 0

; 194  : 				return;

  00831	e9 82 01 00 00	 jmp	 $LN19@NPCClick
$LN6@NPCClick:

; 195  : 			}
; 196  : 
; 197  : 			//To Noria
; 198  : 			int Num = rand()%CountCord[2];

  00836	e8 00 00 00 00	 call	 _rand
  0083b	8b 4d fc	 mov	 ecx, DWORD PTR _this$[ebp]
  0083e	99		 cdq
  0083f	f7 b9 2c 2d 00
	00		 idiv	 DWORD PTR [ecx+11564]
  00845	89 55 f0	 mov	 DWORD PTR _Num$220908[ebp], edx

; 199  : 			int X = Cord[2][Num].X;

  00848	8b 45 f0	 mov	 eax, DWORD PTR _Num$220908[ebp]
  0084b	8b 4d fc	 mov	 ecx, DWORD PTR _this$[ebp]
  0084e	8b 94 c1 dc 26
	00 00		 mov	 edx, DWORD PTR [ecx+eax*8+9948]
  00855	89 55 ec	 mov	 DWORD PTR _X$220909[ebp], edx

; 200  : 			int Y = Cord[2][Num].Y;

  00858	8b 45 f0	 mov	 eax, DWORD PTR _Num$220908[ebp]
  0085b	8b 4d fc	 mov	 ecx, DWORD PTR _this$[ebp]
  0085e	8b 94 c1 e0 26
	00 00		 mov	 edx, DWORD PTR [ecx+eax*8+9952]
  00865	89 55 e8	 mov	 DWORD PTR _Y$220910[ebp], edx

; 201  : 
; 202  : 			NpcObj->MapNumber = 3;	//noria

  00868	8b 45 f4	 mov	 eax, DWORD PTR _NpcObj$[ebp]
  0086b	c6 80 49 01 00
	00 03		 mov	 BYTE PTR [eax+329], 3

; 203  : 			NpcObj->X = X;

  00872	8b 45 f4	 mov	 eax, DWORD PTR _NpcObj$[ebp]
  00875	66 8b 4d ec	 mov	 cx, WORD PTR _X$220909[ebp]
  00879	66 89 88 44 01
	00 00		 mov	 WORD PTR [eax+324], cx

; 204  : 			NpcObj->Y = Y;

  00880	8b 45 f4	 mov	 eax, DWORD PTR _NpcObj$[ebp]
  00883	66 8b 4d e8	 mov	 cx, WORD PTR _Y$220910[ebp]
  00887	66 89 88 46 01
	00 00		 mov	 WORD PTR [eax+326], cx

; 205  : 
; 206  : 			MessaageAllGlobal(g_ExText.GetText(93));

  0088e	6a 5d		 push	 93			; 0000005dH
  00890	b9 00 00 00 00	 mov	 ecx, OFFSET ?g_ExText@@3VCExText@@A ; g_ExText
  00895	e8 00 00 00 00	 call	 ?GetText@CExText@@QAEPADH@Z ; CExText::GetText
  0089a	50		 push	 eax
  0089b	e8 00 00 00 00	 call	 ?MessaageAllGlobal@@YAXPADZZ ; MessaageAllGlobal
  008a0	83 c4 04	 add	 esp, 4

; 207  : 
; 208  : 			this->Stage++;

  008a3	8b 45 fc	 mov	 eax, DWORD PTR _this$[ebp]
  008a6	8b 48 24	 mov	 ecx, DWORD PTR [eax+36]
  008a9	83 c1 01	 add	 ecx, 1
  008ac	8b 55 fc	 mov	 edx, DWORD PTR _this$[ebp]
  008af	89 4a 24	 mov	 DWORD PTR [edx+36], ecx
  008b2	e9 01 01 00 00	 jmp	 $LN19@NPCClick
$LN7@NPCClick:

; 209  : 		}
; 210  : 		else if(this->Stage == 2)

  008b7	8b 45 fc	 mov	 eax, DWORD PTR _this$[ebp]
  008ba	83 78 24 02	 cmp	 DWORD PTR [eax+36], 2
  008be	0f 85 bd 00 00
	00		 jne	 $LN4@NPCClick

; 211  : 		{
; 212  : 
; 213  : 			MessaageAllGlobal(g_ExText.GetText(94),lpObj->Name);

  008c4	8b 45 f8	 mov	 eax, DWORD PTR _lpObj$[ebp]
  008c7	83 c0 77	 add	 eax, 119		; 00000077H
  008ca	50		 push	 eax
  008cb	6a 5e		 push	 94			; 0000005eH
  008cd	b9 00 00 00 00	 mov	 ecx, OFFSET ?g_ExText@@3VCExText@@A ; g_ExText
  008d2	e8 00 00 00 00	 call	 ?GetText@CExText@@QAEPADH@Z ; CExText::GetText
  008d7	50		 push	 eax
  008d8	e8 00 00 00 00	 call	 ?MessaageAllGlobal@@YAXPADZZ ; MessaageAllGlobal
  008dd	83 c4 08	 add	 esp, 8

; 214  : 
; 215  : 			if(CountCord[3] == 0)

  008e0	8b 45 fc	 mov	 eax, DWORD PTR _this$[ebp]
  008e3	83 b8 30 2d 00
	00 00		 cmp	 DWORD PTR [eax+11568], 0
  008ea	75 17		 jne	 SHORT $LN3@NPCClick

; 216  : 			{
; 217  : 				this->EventEnd();

  008ec	8b 4d fc	 mov	 ecx, DWORD PTR _this$[ebp]
  008ef	e8 00 00 00 00	 call	 ?EventEnd@cSearchEvent@@QAEXXZ ; cSearchEvent::EventEnd

; 218  : 				this->Stage = 0;

  008f4	8b 45 fc	 mov	 eax, DWORD PTR _this$[ebp]
  008f7	c7 40 24 00 00
	00 00		 mov	 DWORD PTR [eax+36], 0

; 219  : 				return;

  008fe	e9 b5 00 00 00	 jmp	 $LN19@NPCClick
$LN3@NPCClick:

; 220  : 			}
; 221  : 
; 222  : 			//To Devias
; 223  : 			int Num = rand()%CountCord[3];

  00903	e8 00 00 00 00	 call	 _rand
  00908	8b 4d fc	 mov	 ecx, DWORD PTR _this$[ebp]
  0090b	99		 cdq
  0090c	f7 b9 30 2d 00
	00		 idiv	 DWORD PTR [ecx+11568]
  00912	89 55 e4	 mov	 DWORD PTR _Num$220914[ebp], edx

; 224  : 
; 225  : 			NpcObj->MapNumber = 2;	//Devias

  00915	8b 45 f4	 mov	 eax, DWORD PTR _NpcObj$[ebp]
  00918	c6 80 49 01 00
	00 02		 mov	 BYTE PTR [eax+329], 2

; 226  : 			int X = Cord[3][Num].X;

  0091f	8b 45 e4	 mov	 eax, DWORD PTR _Num$220914[ebp]
  00922	8b 4d fc	 mov	 ecx, DWORD PTR _this$[ebp]
  00925	8b 94 c1 fc 29
	00 00		 mov	 edx, DWORD PTR [ecx+eax*8+10748]
  0092c	89 55 e0	 mov	 DWORD PTR _X$220915[ebp], edx

; 227  : 			int Y = Cord[3][Num].Y;

  0092f	8b 45 e4	 mov	 eax, DWORD PTR _Num$220914[ebp]
  00932	8b 4d fc	 mov	 ecx, DWORD PTR _this$[ebp]
  00935	8b 94 c1 00 2a
	00 00		 mov	 edx, DWORD PTR [ecx+eax*8+10752]
  0093c	89 55 dc	 mov	 DWORD PTR _Y$220916[ebp], edx

; 228  : 
; 229  : 			NpcObj->X = X;

  0093f	8b 45 f4	 mov	 eax, DWORD PTR _NpcObj$[ebp]
  00942	66 8b 4d e0	 mov	 cx, WORD PTR _X$220915[ebp]
  00946	66 89 88 44 01
	00 00		 mov	 WORD PTR [eax+324], cx

; 230  : 			NpcObj->Y = Y;

  0094d	8b 45 f4	 mov	 eax, DWORD PTR _NpcObj$[ebp]
  00950	66 8b 4d dc	 mov	 cx, WORD PTR _Y$220916[ebp]
  00954	66 89 88 46 01
	00 00		 mov	 WORD PTR [eax+326], cx

; 231  : #ifdef PRIVATE_MODULE
; 232  : 			/*if(g_ExLicense.CheckUser(Encode))
; 233  : 			{
; 234  : 				MessaageAllGlobal("[Evangelion] In Elysea!");
; 235  : 			}
; 236  : 			else if(g_ExLicense.CheckUser(eExUB::MU2Play))
; 237  : 			{
; 238  : 				MessaageAllGlobal("[Evangelion] In Arkania!");
; 239  : 			}
; 240  : 			else*/
; 241  : 			{
; 242  : 				MessaageAllGlobal(g_ExText.GetText(95));

  0095b	6a 5f		 push	 95			; 0000005fH
  0095d	b9 00 00 00 00	 mov	 ecx, OFFSET ?g_ExText@@3VCExText@@A ; g_ExText
  00962	e8 00 00 00 00	 call	 ?GetText@CExText@@QAEPADH@Z ; CExText::GetText
  00967	50		 push	 eax
  00968	e8 00 00 00 00	 call	 ?MessaageAllGlobal@@YAXPADZZ ; MessaageAllGlobal
  0096d	83 c4 04	 add	 esp, 4

; 243  : 			}
; 244  : #else
; 245  : 			MessaageAllGlobal("[Evangelion] In Devias!");
; 246  : #endif
; 247  : 			this->Stage++;

  00970	8b 45 fc	 mov	 eax, DWORD PTR _this$[ebp]
  00973	8b 48 24	 mov	 ecx, DWORD PTR [eax+36]
  00976	83 c1 01	 add	 ecx, 1
  00979	8b 55 fc	 mov	 edx, DWORD PTR _this$[ebp]
  0097c	89 4a 24	 mov	 DWORD PTR [edx+36], ecx
  0097f	eb 37		 jmp	 SHORT $LN19@NPCClick
$LN4@NPCClick:

; 248  : 		}
; 249  : 		else if(this->Stage == 3)

  00981	8b 45 fc	 mov	 eax, DWORD PTR _this$[ebp]
  00984	83 78 24 03	 cmp	 DWORD PTR [eax+36], 3
  00988	75 2e		 jne	 SHORT $LN19@NPCClick

; 250  : 		{
; 251  : #ifdef PRIVATE_MODULE
; 252  : 			/*if(g_ExLicense.CheckUser(Encode))
; 253  : 			{
; 254  : 				MessaageAllGlobal("[Evangelion] Elysea Win %s!",lpObj->Name);
; 255  : 			}
; 256  : 			else if(g_ExLicense.CheckUser(Encode))
; 257  : 			{
; 258  : 				MessaageAllGlobal("[Evangelion] Arkania Win %s!",lpObj->Name);
; 259  : 			}
; 260  : 			else*/
; 261  : 			{
; 262  : 				MessaageAllGlobal(g_ExText.GetText(96), lpObj->Name);

  0098a	8b 45 f8	 mov	 eax, DWORD PTR _lpObj$[ebp]
  0098d	83 c0 77	 add	 eax, 119		; 00000077H
  00990	50		 push	 eax
  00991	6a 60		 push	 96			; 00000060H
  00993	b9 00 00 00 00	 mov	 ecx, OFFSET ?g_ExText@@3VCExText@@A ; g_ExText
  00998	e8 00 00 00 00	 call	 ?GetText@CExText@@QAEPADH@Z ; CExText::GetText
  0099d	50		 push	 eax
  0099e	e8 00 00 00 00	 call	 ?MessaageAllGlobal@@YAXPADZZ ; MessaageAllGlobal
  009a3	83 c4 08	 add	 esp, 8

; 263  : 			}
; 264  : #else
; 265  : 			MessaageAllGlobal("[Evangelion] Devias Win %s!",lpObj->Name);
; 266  : #endif
; 267  : 			//To End
; 268  : 			this->EventEnd();

  009a6	8b 4d fc	 mov	 ecx, DWORD PTR _this$[ebp]
  009a9	e8 00 00 00 00	 call	 ?EventEnd@cSearchEvent@@QAEXXZ ; cSearchEvent::EventEnd

; 269  : 			this->Stage = 0;

  009ae	8b 45 fc	 mov	 eax, DWORD PTR _this$[ebp]
  009b1	c7 40 24 00 00
	00 00		 mov	 DWORD PTR [eax+36], 0
$LN19@NPCClick:

; 270  : 		}
; 271  : 	}
; 272  : }

  009b8	5f		 pop	 edi
  009b9	5e		 pop	 esi
  009ba	5b		 pop	 ebx
  009bb	8b e5		 mov	 esp, ebp
  009bd	5d		 pop	 ebp
  009be	c2 08 00	 ret	 8
?NPCClick@cSearchEvent@@QAEXHH@Z ENDP			; cSearchEvent::NPCClick
_TEXT	ENDS
PUBLIC	?EventStart@cSearchEvent@@QAEXXZ		; cSearchEvent::EventStart
EXTRN	?gObjSetMonster@@YAHHH@Z:PROC			; gObjSetMonster
EXTRN	__imp__GetTickCount@0:PROC
EXTRN	?gObjAddMonster@@YAFH@Z:PROC			; gObjAddMonster
EXTRN	_srand:PROC
; Function compile flags: /Odtp /ZI
_TEXT	SEGMENT
_result$ = -20						; size = 4
_Y$ = -16						; size = 4
_X$ = -12						; size = 4
_Num$ = -8						; size = 4
_this$ = -4						; size = 4
?EventStart@cSearchEvent@@QAEXXZ PROC			; cSearchEvent::EventStart
; _this$ = ecx

; 275  : {

  009d0	55		 push	 ebp
  009d1	8b ec		 mov	 ebp, esp
  009d3	83 ec 54	 sub	 esp, 84			; 00000054H
  009d6	53		 push	 ebx
  009d7	56		 push	 esi
  009d8	57		 push	 edi
  009d9	89 4d fc	 mov	 DWORD PTR _this$[ebp], ecx

; 276  : 	srand(time(NULL));

  009dc	6a 00		 push	 0
  009de	e8 00 00 00 00	 call	 _time
  009e3	83 c4 04	 add	 esp, 4
  009e6	50		 push	 eax
  009e7	e8 00 00 00 00	 call	 _srand
  009ec	83 c4 04	 add	 esp, 4

; 277  : 
; 278  : 	if(CountCord[1] == 0)

  009ef	8b 45 fc	 mov	 eax, DWORD PTR _this$[ebp]
  009f2	83 b8 28 2d 00
	00 00		 cmp	 DWORD PTR [eax+11560], 0
  009f9	75 17		 jne	 SHORT $LN2@EventStart

; 279  : 	{
; 280  : 		this->EventEnd();

  009fb	8b 4d fc	 mov	 ecx, DWORD PTR _this$[ebp]
  009fe	e8 00 00 00 00	 call	 ?EventEnd@cSearchEvent@@QAEXXZ ; cSearchEvent::EventEnd

; 281  : 		this->Stage = 0;

  00a03	8b 45 fc	 mov	 eax, DWORD PTR _this$[ebp]
  00a06	c7 40 24 00 00
	00 00		 mov	 DWORD PTR [eax+36], 0

; 282  : 		return;

  00a0d	e9 74 02 00 00	 jmp	 $LN3@EventStart
$LN2@EventStart:

; 283  : 	}
; 284  : 
; 285  : 	int Num = rand()%CountCord[1];

  00a12	e8 00 00 00 00	 call	 _rand
  00a17	8b 4d fc	 mov	 ecx, DWORD PTR _this$[ebp]
  00a1a	99		 cdq
  00a1b	f7 b9 28 2d 00
	00		 idiv	 DWORD PTR [ecx+11560]
  00a21	89 55 f8	 mov	 DWORD PTR _Num$[ebp], edx

; 286  : 	int X = Cord[1][Num].X;

  00a24	8b 45 f8	 mov	 eax, DWORD PTR _Num$[ebp]
  00a27	8b 4d fc	 mov	 ecx, DWORD PTR _this$[ebp]
  00a2a	8b 94 c1 bc 23
	00 00		 mov	 edx, DWORD PTR [ecx+eax*8+9148]
  00a31	89 55 f4	 mov	 DWORD PTR _X$[ebp], edx

; 287  : 	int Y = Cord[1][Num].Y;

  00a34	8b 45 f8	 mov	 eax, DWORD PTR _Num$[ebp]
  00a37	8b 4d fc	 mov	 ecx, DWORD PTR _this$[ebp]
  00a3a	8b 94 c1 c0 23
	00 00		 mov	 edx, DWORD PTR [ecx+eax*8+9152]
  00a41	89 55 f0	 mov	 DWORD PTR _Y$[ebp], edx

; 288  : 
; 289  : 	int result = gObjAddMonster(this->Map);

  00a44	8b 45 fc	 mov	 eax, DWORD PTR _this$[ebp]
  00a47	8b 48 0c	 mov	 ecx, DWORD PTR [eax+12]
  00a4a	51		 push	 ecx
  00a4b	e8 00 00 00 00	 call	 ?gObjAddMonster@@YAFH@Z	; gObjAddMonster
  00a50	83 c4 04	 add	 esp, 4
  00a53	0f bf d0	 movsx	 edx, ax
  00a56	89 55 ec	 mov	 DWORD PTR _result$[ebp], edx

; 290  : 
; 291  : 	if(result >= 0 && result < OBJ_MAXMONSTER)

  00a59	83 7d ec 00	 cmp	 DWORD PTR _result$[ebp], 0
  00a5d	0f 8c fd 01 00
	00		 jl	 $LN1@EventStart
  00a63	81 7d ec c8 32
	00 00		 cmp	 DWORD PTR _result$[ebp], 13000 ; 000032c8H
  00a6a	0f 8d f0 01 00
	00		 jge	 $LN1@EventStart

; 292  : 	{
; 293  : 		gObj[result].m_PosNum = (WORD)-1;

  00a70	8b 45 ec	 mov	 eax, DWORD PTR _result$[ebp]
  00a73	69 c0 38 2b 00
	00		 imul	 eax, 11064		; 00002b38H
  00a79	83 c9 ff	 or	 ecx, -1
  00a7c	8b 15 00 00 00
	00		 mov	 edx, DWORD PTR ?gObj@@3PAUOBJECTSTRUCT@@A ; gObj
  00a82	66 89 8c 02 b0
	03 00 00	 mov	 WORD PTR [edx+eax+944], cx

; 294  : 		gObj[result].MapNumber = this->Map;

  00a8a	8b 45 ec	 mov	 eax, DWORD PTR _result$[ebp]
  00a8d	69 c0 38 2b 00
	00		 imul	 eax, 11064		; 00002b38H
  00a93	8b 0d 00 00 00
	00		 mov	 ecx, DWORD PTR ?gObj@@3PAUOBJECTSTRUCT@@A ; gObj
  00a99	8b 55 fc	 mov	 edx, DWORD PTR _this$[ebp]
  00a9c	8a 52 0c	 mov	 dl, BYTE PTR [edx+12]
  00a9f	88 94 01 49 01
	00 00		 mov	 BYTE PTR [ecx+eax+329], dl

; 295  : 		gObj[result].X = X;

  00aa6	8b 45 ec	 mov	 eax, DWORD PTR _result$[ebp]
  00aa9	69 c0 38 2b 00
	00		 imul	 eax, 11064		; 00002b38H
  00aaf	8b 0d 00 00 00
	00		 mov	 ecx, DWORD PTR ?gObj@@3PAUOBJECTSTRUCT@@A ; gObj
  00ab5	66 8b 55 f4	 mov	 dx, WORD PTR _X$[ebp]
  00ab9	66 89 94 01 44
	01 00 00	 mov	 WORD PTR [ecx+eax+324], dx

; 296  : 		gObj[result].Y = Y;

  00ac1	8b 45 ec	 mov	 eax, DWORD PTR _result$[ebp]
  00ac4	69 c0 38 2b 00
	00		 imul	 eax, 11064		; 00002b38H
  00aca	8b 0d 00 00 00
	00		 mov	 ecx, DWORD PTR ?gObj@@3PAUOBJECTSTRUCT@@A ; gObj
  00ad0	66 8b 55 f0	 mov	 dx, WORD PTR _Y$[ebp]
  00ad4	66 89 94 01 46
	01 00 00	 mov	 WORD PTR [ecx+eax+326], dx

; 297  : 		gObj[result].TX = X;

  00adc	8b 45 ec	 mov	 eax, DWORD PTR _result$[ebp]
  00adf	69 c0 38 2b 00
	00		 imul	 eax, 11064		; 00002b38H
  00ae5	8b 0d 00 00 00
	00		 mov	 ecx, DWORD PTR ?gObj@@3PAUOBJECTSTRUCT@@A ; gObj
  00aeb	66 8b 55 f4	 mov	 dx, WORD PTR _X$[ebp]
  00aef	66 89 94 01 7c
	01 00 00	 mov	 WORD PTR [ecx+eax+380], dx

; 298  : 		gObj[result].TY = Y;

  00af7	8b 45 ec	 mov	 eax, DWORD PTR _result$[ebp]
  00afa	69 c0 38 2b 00
	00		 imul	 eax, 11064		; 00002b38H
  00b00	8b 0d 00 00 00
	00		 mov	 ecx, DWORD PTR ?gObj@@3PAUOBJECTSTRUCT@@A ; gObj
  00b06	66 8b 55 f0	 mov	 dx, WORD PTR _Y$[ebp]
  00b0a	66 89 94 01 7e
	01 00 00	 mov	 WORD PTR [ecx+eax+382], dx

; 299  : 		gObj[result].m_OldX = X;

  00b12	8b 45 ec	 mov	 eax, DWORD PTR _result$[ebp]
  00b15	69 c0 38 2b 00
	00		 imul	 eax, 11064		; 00002b38H
  00b1b	8b 0d 00 00 00
	00		 mov	 ecx, DWORD PTR ?gObj@@3PAUOBJECTSTRUCT@@A ; gObj
  00b21	66 8b 55 f4	 mov	 dx, WORD PTR _X$[ebp]
  00b25	66 89 94 01 78
	01 00 00	 mov	 WORD PTR [ecx+eax+376], dx

; 300  : 		gObj[result].m_OldY = Y;

  00b2d	8b 45 ec	 mov	 eax, DWORD PTR _result$[ebp]
  00b30	69 c0 38 2b 00
	00		 imul	 eax, 11064		; 00002b38H
  00b36	8b 0d 00 00 00
	00		 mov	 ecx, DWORD PTR ?gObj@@3PAUOBJECTSTRUCT@@A ; gObj
  00b3c	66 8b 55 f0	 mov	 dx, WORD PTR _Y$[ebp]
  00b40	66 89 94 01 7a
	01 00 00	 mov	 WORD PTR [ecx+eax+378], dx

; 301  : 		gObj[result].StartX = X;

  00b48	8b 45 ec	 mov	 eax, DWORD PTR _result$[ebp]
  00b4b	69 c0 38 2b 00
	00		 imul	 eax, 11064		; 00002b38H
  00b51	8b 0d 00 00 00
	00		 mov	 ecx, DWORD PTR ?gObj@@3PAUOBJECTSTRUCT@@A ; gObj
  00b57	8a 55 f4	 mov	 dl, BYTE PTR _X$[ebp]
  00b5a	88 94 01 76 01
	00 00		 mov	 BYTE PTR [ecx+eax+374], dl

; 302  : 		gObj[result].StartY = Y;

  00b61	8b 45 ec	 mov	 eax, DWORD PTR _result$[ebp]
  00b64	69 c0 38 2b 00
	00		 imul	 eax, 11064		; 00002b38H
  00b6a	8b 0d 00 00 00
	00		 mov	 ecx, DWORD PTR ?gObj@@3PAUOBJECTSTRUCT@@A ; gObj
  00b70	8a 55 f0	 mov	 dl, BYTE PTR _Y$[ebp]
  00b73	88 94 01 77 01
	00 00		 mov	 BYTE PTR [ecx+eax+375], dl

; 303  : 		gObj[result].MaxRegenTime = 0;

  00b7a	8b 45 ec	 mov	 eax, DWORD PTR _result$[ebp]
  00b7d	69 c0 38 2b 00
	00		 imul	 eax, 11064		; 00002b38H
  00b83	8b 0d 00 00 00
	00		 mov	 ecx, DWORD PTR ?gObj@@3PAUOBJECTSTRUCT@@A ; gObj
  00b89	c7 84 01 ac 03
	00 00 00 00 00
	00		 mov	 DWORD PTR [ecx+eax+940], 0

; 304  : 		gObj[result].Dir = rand()%8;

  00b94	e8 00 00 00 00	 call	 _rand
  00b99	25 07 00 00 80	 and	 eax, -2147483641	; 80000007H
  00b9e	79 05		 jns	 SHORT $LN5@EventStart
  00ba0	48		 dec	 eax
  00ba1	83 c8 f8	 or	 eax, -8			; fffffff8H
  00ba4	40		 inc	 eax
$LN5@EventStart:
  00ba5	8b 4d ec	 mov	 ecx, DWORD PTR _result$[ebp]
  00ba8	69 c9 38 2b 00
	00		 imul	 ecx, 11064		; 00002b38H
  00bae	8b 15 00 00 00
	00		 mov	 edx, DWORD PTR ?gObj@@3PAUOBJECTSTRUCT@@A ; gObj
  00bb4	88 84 0a 48 01
	00 00		 mov	 BYTE PTR [edx+ecx+328], al

; 305  : 		gObj[result].RegenTime = GetTickCount();

  00bbb	ff 15 00 00 00
	00		 call	 DWORD PTR __imp__GetTickCount@0
  00bc1	8b 4d ec	 mov	 ecx, DWORD PTR _result$[ebp]
  00bc4	69 c9 38 2b 00
	00		 imul	 ecx, 11064		; 00002b38H
  00bca	8b 15 00 00 00
	00		 mov	 edx, DWORD PTR ?gObj@@3PAUOBJECTSTRUCT@@A ; gObj
  00bd0	89 84 0a a8 03
	00 00		 mov	 DWORD PTR [edx+ecx+936], eax

; 306  : 
; 307  : 		gObj[result].m_ActState.Emotion       = 1;

  00bd7	8b 45 ec	 mov	 eax, DWORD PTR _result$[ebp]
  00bda	69 c0 38 2b 00
	00		 imul	 eax, 11064		; 00002b38H
  00be0	8b 0d 00 00 00
	00		 mov	 ecx, DWORD PTR ?gObj@@3PAUOBJECTSTRUCT@@A ; gObj
  00be6	8b 94 01 18 02
	00 00		 mov	 edx, DWORD PTR [ecx+eax+536]
  00bed	81 e2 0f ff ff
	ff		 and	 edx, -241		; ffffff0fH
  00bf3	83 ca 10	 or	 edx, 16			; 00000010H
  00bf6	8b 45 ec	 mov	 eax, DWORD PTR _result$[ebp]
  00bf9	69 c0 38 2b 00
	00		 imul	 eax, 11064		; 00002b38H
  00bff	8b 0d 00 00 00
	00		 mov	 ecx, DWORD PTR ?gObj@@3PAUOBJECTSTRUCT@@A ; gObj
  00c05	89 94 01 18 02
	00 00		 mov	 DWORD PTR [ecx+eax+536], edx

; 308  : 		gObj[result].m_ActState.EmotionCount  = 15;

  00c0c	8b 45 ec	 mov	 eax, DWORD PTR _result$[ebp]
  00c0f	69 c0 38 2b 00
	00		 imul	 eax, 11064		; 00002b38H
  00c15	8b 0d 00 00 00
	00		 mov	 ecx, DWORD PTR ?gObj@@3PAUOBJECTSTRUCT@@A ; gObj
  00c1b	8b 94 01 18 02
	00 00		 mov	 edx, DWORD PTR [ecx+eax+536]
  00c22	81 e2 ff 00 ff
	ff		 and	 edx, -65281		; ffff00ffH
  00c28	81 ca 00 0f 00
	00		 or	 edx, 3840		; 00000f00H
  00c2e	8b 45 ec	 mov	 eax, DWORD PTR _result$[ebp]
  00c31	69 c0 38 2b 00
	00		 imul	 eax, 11064		; 00002b38H
  00c37	8b 0d 00 00 00
	00		 mov	 ecx, DWORD PTR ?gObj@@3PAUOBJECTSTRUCT@@A ; gObj
  00c3d	89 94 01 18 02
	00 00		 mov	 DWORD PTR [ecx+eax+536], edx

; 309  : 
; 310  : 		gObjSetMonster(result,this->NPC);

  00c44	8b 45 fc	 mov	 eax, DWORD PTR _this$[ebp]
  00c47	8b 48 08	 mov	 ecx, DWORD PTR [eax+8]
  00c4a	51		 push	 ecx
  00c4b	8b 55 ec	 mov	 edx, DWORD PTR _result$[ebp]
  00c4e	52		 push	 edx
  00c4f	e8 00 00 00 00	 call	 ?gObjSetMonster@@YAHHH@Z ; gObjSetMonster
  00c54	83 c4 08	 add	 esp, 8

; 311  : 
; 312  : 		this->IndexNPC = result;

  00c57	8b 45 fc	 mov	 eax, DWORD PTR _this$[ebp]
  00c5a	8b 4d ec	 mov	 ecx, DWORD PTR _result$[ebp]
  00c5d	89 48 04	 mov	 DWORD PTR [eax+4], ecx
$LN1@EventStart:

; 313  : 	}
; 314  : 
; 315  : 	MessaageAllGlobal(g_ExText.GetText(97));

  00c60	6a 61		 push	 97			; 00000061H
  00c62	b9 00 00 00 00	 mov	 ecx, OFFSET ?g_ExText@@3VCExText@@A ; g_ExText
  00c67	e8 00 00 00 00	 call	 ?GetText@CExText@@QAEPADH@Z ; CExText::GetText
  00c6c	50		 push	 eax
  00c6d	e8 00 00 00 00	 call	 ?MessaageAllGlobal@@YAXPADZZ ; MessaageAllGlobal
  00c72	83 c4 04	 add	 esp, 4

; 316  : 	this->Start = true;

  00c75	8b 45 fc	 mov	 eax, DWORD PTR _this$[ebp]
  00c78	c6 40 1c 01	 mov	 BYTE PTR [eax+28], 1

; 317  : 	this->Stage = 1;

  00c7c	8b 45 fc	 mov	 eax, DWORD PTR _this$[ebp]
  00c7f	c7 40 24 01 00
	00 00		 mov	 DWORD PTR [eax+36], 1
$LN3@EventStart:

; 318  : }

  00c86	5f		 pop	 edi
  00c87	5e		 pop	 esi
  00c88	5b		 pop	 ebx
  00c89	8b e5		 mov	 esp, ebp
  00c8b	5d		 pop	 ebp
  00c8c	c3		 ret	 0
?EventStart@cSearchEvent@@QAEXXZ ENDP			; cSearchEvent::EventStart
_TEXT	ENDS
EXTRN	__time64:PROC
; Function compile flags: /Odtp /ZI
; File d:\microsoft visual studio 10.0\vc\include\time.inl
_TEXT	SEGMENT
__Time$ = 8						; size = 4
_time	PROC

; 132  : {

  00c90	55		 push	 ebp
  00c91	8b ec		 mov	 ebp, esp
  00c93	83 ec 40	 sub	 esp, 64			; 00000040H
  00c96	53		 push	 ebx
  00c97	56		 push	 esi
  00c98	57		 push	 edi

; 133  :     return _time64(_Time);

  00c99	8b 45 08	 mov	 eax, DWORD PTR __Time$[ebp]
  00c9c	50		 push	 eax
  00c9d	e8 00 00 00 00	 call	 __time64
  00ca2	83 c4 04	 add	 esp, 4

; 134  : }

  00ca5	5f		 pop	 edi
  00ca6	5e		 pop	 esi
  00ca7	5b		 pop	 ebx
  00ca8	8b e5		 mov	 esp, ebp
  00caa	5d		 pop	 ebp
  00cab	c3		 ret	 0
_time	ENDP
_TEXT	ENDS
PUBLIC	__$ArrayPad$
PUBLIC	?StartNPC@cSearchEvent@@QAEXXZ			; cSearchEvent::StartNPC
EXTRN	?ExConfig@@3VcExConfigs@@A:BYTE			; ExConfig
EXTRN	?GetSecond@CTimerEx@@QAEHXZ:PROC		; CTimerEx::GetSecond
EXTRN	?g_TimerEx@@3VCTimerEx@@A:DWORD			; g_TimerEx
EXTRN	__imp__GetLocalTime@4:PROC
; Function compile flags: /Odtp /ZI
; File d:\projects\exteam6.3\source\gameserver\gameserver\searchevent.cpp
_TEXT	SEGMENT
_j$220942 = -32						; size = 4
_i$220937 = -28						; size = 4
_t$ = -24						; size = 16
_this$ = -8						; size = 4
__$ArrayPad$ = -4					; size = 4
?StartNPC@cSearchEvent@@QAEXXZ PROC			; cSearchEvent::StartNPC
; _this$ = ecx

; 321  : {

  00cb0	55		 push	 ebp
  00cb1	8b ec		 mov	 ebp, esp
  00cb3	83 ec 60	 sub	 esp, 96			; 00000060H
  00cb6	a1 00 00 00 00	 mov	 eax, DWORD PTR ___security_cookie
  00cbb	33 c5		 xor	 eax, ebp
  00cbd	89 45 fc	 mov	 DWORD PTR __$ArrayPad$[ebp], eax
  00cc0	53		 push	 ebx
  00cc1	56		 push	 esi
  00cc2	57		 push	 edi
  00cc3	89 4d f8	 mov	 DWORD PTR _this$[ebp], ecx

; 322  : 	if(!this->Enable)

  00cc6	8b 45 f8	 mov	 eax, DWORD PTR _this$[ebp]
  00cc9	83 38 00	 cmp	 DWORD PTR [eax], 0
  00ccc	75 05		 jne	 SHORT $LN48@StartNPC

; 323  : 		return;

  00cce	e9 9f 05 00 00	 jmp	 $LN49@StartNPC
$LN48@StartNPC:

; 324  : 
; 325  : 	if(this->Start == true)

  00cd3	8b 45 f8	 mov	 eax, DWORD PTR _this$[ebp]
  00cd6	0f b6 48 1c	 movzx	 ecx, BYTE PTR [eax+28]
  00cda	83 f9 01	 cmp	 ecx, 1
  00cdd	75 2a		 jne	 SHORT $LN47@StartNPC

; 326  : 	{
; 327  : 		this->Tick++;

  00cdf	8b 45 f8	 mov	 eax, DWORD PTR _this$[ebp]
  00ce2	8b 48 20	 mov	 ecx, DWORD PTR [eax+32]
  00ce5	83 c1 01	 add	 ecx, 1
  00ce8	8b 55 f8	 mov	 edx, DWORD PTR _this$[ebp]
  00ceb	89 4a 20	 mov	 DWORD PTR [edx+32], ecx

; 328  : 		if(this->Tick >= this->Time)

  00cee	8b 45 f8	 mov	 eax, DWORD PTR _this$[ebp]
  00cf1	8b 4d f8	 mov	 ecx, DWORD PTR _this$[ebp]
  00cf4	8b 50 20	 mov	 edx, DWORD PTR [eax+32]
  00cf7	3b 51 14	 cmp	 edx, DWORD PTR [ecx+20]
  00cfa	7c 0d		 jl	 SHORT $LN47@StartNPC

; 329  : 		{
; 330  : 			this->EventEnd();

  00cfc	8b 4d f8	 mov	 ecx, DWORD PTR _this$[ebp]
  00cff	e8 00 00 00 00	 call	 ?EventEnd@cSearchEvent@@QAEXXZ ; cSearchEvent::EventEnd

; 331  : 			return;

  00d04	e9 69 05 00 00	 jmp	 $LN49@StartNPC
$LN47@StartNPC:

; 332  : 		}
; 333  : 	}
; 334  : 
; 335  : 	SYSTEMTIME t;
; 336  : 	GetLocalTime(&t);

  00d09	8d 45 e8	 lea	 eax, DWORD PTR _t$[ebp]
  00d0c	50		 push	 eax
  00d0d	ff 15 00 00 00
	00		 call	 DWORD PTR __imp__GetLocalTime@4

; 337  : 
; 338  : 	//LogAddC(2, "[DEBUG] ms: %d sec: %d :: tick: %d", t.wMilliseconds, t.wSecond, g_TimerEx.GetSecond());
; 339  : 
; 340  : #if(NEWTIMEREX)
; 341  : 	if(g_TimerEx.GetSecond() == 00)

  00d13	b9 00 00 00 00	 mov	 ecx, OFFSET ?g_TimerEx@@3VCTimerEx@@A ; g_TimerEx
  00d18	e8 00 00 00 00	 call	 ?GetSecond@CTimerEx@@QAEHXZ ; CTimerEx::GetSecond
  00d1d	85 c0		 test	 eax, eax
  00d1f	0f 85 4d 05 00
	00		 jne	 $LN49@StartNPC

; 342  : #else
; 343  : 	if(t.wSecond == 00)
; 344  : #endif
; 345  : 	{
; 346  : 		for(int i = 0; i < this->Count; i++)

  00d25	c7 45 e4 00 00
	00 00		 mov	 DWORD PTR _i$220937[ebp], 0
  00d2c	eb 09		 jmp	 SHORT $LN44@StartNPC
$LN43@StartNPC:
  00d2e	8b 45 e4	 mov	 eax, DWORD PTR _i$220937[ebp]
  00d31	83 c0 01	 add	 eax, 1
  00d34	89 45 e4	 mov	 DWORD PTR _i$220937[ebp], eax
$LN44@StartNPC:
  00d37	8b 45 f8	 mov	 eax, DWORD PTR _this$[ebp]
  00d3a	8b 4d e4	 mov	 ecx, DWORD PTR _i$220937[ebp]
  00d3d	3b 88 1c 2d 00
	00		 cmp	 ecx, DWORD PTR [eax+11548]
  00d43	0f 8d 29 05 00
	00		 jge	 $LN49@StartNPC

; 347  : 		{
; 348  : 			
; 349  : #ifdef _MESSAGE_CONFIG_
; 350  : 			if(TickTime[i].Min > 5)

  00d49	8b 45 e4	 mov	 eax, DWORD PTR _i$220937[ebp]
  00d4c	8b 4d f8	 mov	 ecx, DWORD PTR _this$[ebp]
  00d4f	83 7c c1 70 05	 cmp	 DWORD PTR [ecx+eax*8+112], 5
  00d54	7e 55		 jle	 SHORT $LN41@StartNPC

; 351  : 			{
; 352  : 				for(int j=1; j <= 5; j++)

  00d56	c7 45 e0 01 00
	00 00		 mov	 DWORD PTR _j$220942[ebp], 1
  00d5d	eb 09		 jmp	 SHORT $LN40@StartNPC
$LN39@StartNPC:
  00d5f	8b 45 e0	 mov	 eax, DWORD PTR _j$220942[ebp]
  00d62	83 c0 01	 add	 eax, 1
  00d65	89 45 e0	 mov	 DWORD PTR _j$220942[ebp], eax
$LN40@StartNPC:
  00d68	83 7d e0 05	 cmp	 DWORD PTR _j$220942[ebp], 5
  00d6c	7f 38		 jg	 SHORT $LN38@StartNPC

; 353  : 				{
; 354  : 			
; 355  : 					if(TickTime[i].Hour == t.wHour && (TickTime[i].Min-j) == t.wMinute)

  00d6e	0f b7 45 f0	 movzx	 eax, WORD PTR _t$[ebp+8]
  00d72	8b 4d e4	 mov	 ecx, DWORD PTR _i$220937[ebp]
  00d75	8b 55 f8	 mov	 edx, DWORD PTR _this$[ebp]
  00d78	39 44 ca 6c	 cmp	 DWORD PTR [edx+ecx*8+108], eax
  00d7c	75 26		 jne	 SHORT $LN37@StartNPC
  00d7e	8b 45 e4	 mov	 eax, DWORD PTR _i$220937[ebp]
  00d81	8b 4d f8	 mov	 ecx, DWORD PTR _this$[ebp]
  00d84	8b 54 c1 70	 mov	 edx, DWORD PTR [ecx+eax*8+112]
  00d88	2b 55 e0	 sub	 edx, DWORD PTR _j$220942[ebp]
  00d8b	0f b7 45 f2	 movzx	 eax, WORD PTR _t$[ebp+10]
  00d8f	3b d0		 cmp	 edx, eax
  00d91	75 11		 jne	 SHORT $LN37@StartNPC

; 356  : 						MessaageAllGlobal(ExConfig.MessageConfig.SearchEvent, j);

  00d93	8b 45 e0	 mov	 eax, DWORD PTR _j$220942[ebp]
  00d96	50		 push	 eax
  00d97	68 cc 0a 00 00	 push	 OFFSET ?ExConfig@@3VcExConfigs@@A+2764
  00d9c	e8 00 00 00 00	 call	 ?MessaageAllGlobal@@YAXPADZZ ; MessaageAllGlobal
  00da1	83 c4 08	 add	 esp, 8
$LN37@StartNPC:

; 357  : 				}

  00da4	eb b9		 jmp	 SHORT $LN39@StartNPC
$LN38@StartNPC:

; 358  : 			}
; 359  : 			else if(TickTime[i].Min == 4)

  00da6	e9 98 04 00 00	 jmp	 $LN36@StartNPC
$LN41@StartNPC:
  00dab	8b 45 e4	 mov	 eax, DWORD PTR _i$220937[ebp]
  00dae	8b 4d f8	 mov	 ecx, DWORD PTR _this$[ebp]
  00db1	83 7c c1 70 04	 cmp	 DWORD PTR [ecx+eax*8+112], 4
  00db6	0f 85 d1 00 00
	00		 jne	 $LN35@StartNPC

; 360  : 			{
; 361  : 					if(TickTime[i].Hour-1 == t.wHour && 59 == t.wMinute)

  00dbc	8b 45 e4	 mov	 eax, DWORD PTR _i$220937[ebp]
  00dbf	8b 4d f8	 mov	 ecx, DWORD PTR _this$[ebp]
  00dc2	8b 54 c1 6c	 mov	 edx, DWORD PTR [ecx+eax*8+108]
  00dc6	83 ea 01	 sub	 edx, 1
  00dc9	0f b7 45 f0	 movzx	 eax, WORD PTR _t$[ebp+8]
  00dcd	3b d0		 cmp	 edx, eax
  00dcf	75 18		 jne	 SHORT $LN34@StartNPC
  00dd1	0f b7 45 f2	 movzx	 eax, WORD PTR _t$[ebp+10]
  00dd5	83 f8 3b	 cmp	 eax, 59			; 0000003bH
  00dd8	75 0f		 jne	 SHORT $LN34@StartNPC

; 362  : 						MessaageAllGlobal(ExConfig.MessageConfig.SearchEvent, 5);

  00dda	6a 05		 push	 5
  00ddc	68 cc 0a 00 00	 push	 OFFSET ?ExConfig@@3VcExConfigs@@A+2764
  00de1	e8 00 00 00 00	 call	 ?MessaageAllGlobal@@YAXPADZZ ; MessaageAllGlobal
  00de6	83 c4 08	 add	 esp, 8
$LN34@StartNPC:

; 363  : 					if(TickTime[i].Hour == t.wHour && 0 == t.wMinute)

  00de9	0f b7 45 f0	 movzx	 eax, WORD PTR _t$[ebp+8]
  00ded	8b 4d e4	 mov	 ecx, DWORD PTR _i$220937[ebp]
  00df0	8b 55 f8	 mov	 edx, DWORD PTR _this$[ebp]
  00df3	39 44 ca 6c	 cmp	 DWORD PTR [edx+ecx*8+108], eax
  00df7	75 17		 jne	 SHORT $LN33@StartNPC
  00df9	0f b7 45 f2	 movzx	 eax, WORD PTR _t$[ebp+10]
  00dfd	85 c0		 test	 eax, eax
  00dff	75 0f		 jne	 SHORT $LN33@StartNPC

; 364  : 						MessaageAllGlobal(ExConfig.MessageConfig.SearchEvent, 4);

  00e01	6a 04		 push	 4
  00e03	68 cc 0a 00 00	 push	 OFFSET ?ExConfig@@3VcExConfigs@@A+2764
  00e08	e8 00 00 00 00	 call	 ?MessaageAllGlobal@@YAXPADZZ ; MessaageAllGlobal
  00e0d	83 c4 08	 add	 esp, 8
$LN33@StartNPC:

; 365  : 					if(TickTime[i].Hour == t.wHour && 1 == t.wMinute)

  00e10	0f b7 45 f0	 movzx	 eax, WORD PTR _t$[ebp+8]
  00e14	8b 4d e4	 mov	 ecx, DWORD PTR _i$220937[ebp]
  00e17	8b 55 f8	 mov	 edx, DWORD PTR _this$[ebp]
  00e1a	39 44 ca 6c	 cmp	 DWORD PTR [edx+ecx*8+108], eax
  00e1e	75 18		 jne	 SHORT $LN32@StartNPC
  00e20	0f b7 45 f2	 movzx	 eax, WORD PTR _t$[ebp+10]
  00e24	83 f8 01	 cmp	 eax, 1
  00e27	75 0f		 jne	 SHORT $LN32@StartNPC

; 366  : 						MessaageAllGlobal(ExConfig.MessageConfig.SearchEvent, 3);

  00e29	6a 03		 push	 3
  00e2b	68 cc 0a 00 00	 push	 OFFSET ?ExConfig@@3VcExConfigs@@A+2764
  00e30	e8 00 00 00 00	 call	 ?MessaageAllGlobal@@YAXPADZZ ; MessaageAllGlobal
  00e35	83 c4 08	 add	 esp, 8
$LN32@StartNPC:

; 367  : 					if(TickTime[i].Hour == t.wHour && 2 == t.wMinute)

  00e38	0f b7 45 f0	 movzx	 eax, WORD PTR _t$[ebp+8]
  00e3c	8b 4d e4	 mov	 ecx, DWORD PTR _i$220937[ebp]
  00e3f	8b 55 f8	 mov	 edx, DWORD PTR _this$[ebp]
  00e42	39 44 ca 6c	 cmp	 DWORD PTR [edx+ecx*8+108], eax
  00e46	75 18		 jne	 SHORT $LN31@StartNPC
  00e48	0f b7 45 f2	 movzx	 eax, WORD PTR _t$[ebp+10]
  00e4c	83 f8 02	 cmp	 eax, 2
  00e4f	75 0f		 jne	 SHORT $LN31@StartNPC

; 368  : 						MessaageAllGlobal(ExConfig.MessageConfig.SearchEvent, 2);

  00e51	6a 02		 push	 2
  00e53	68 cc 0a 00 00	 push	 OFFSET ?ExConfig@@3VcExConfigs@@A+2764
  00e58	e8 00 00 00 00	 call	 ?MessaageAllGlobal@@YAXPADZZ ; MessaageAllGlobal
  00e5d	83 c4 08	 add	 esp, 8
$LN31@StartNPC:

; 369  : 					if(TickTime[i].Hour == t.wHour && 3 == t.wMinute)

  00e60	0f b7 45 f0	 movzx	 eax, WORD PTR _t$[ebp+8]
  00e64	8b 4d e4	 mov	 ecx, DWORD PTR _i$220937[ebp]
  00e67	8b 55 f8	 mov	 edx, DWORD PTR _this$[ebp]
  00e6a	39 44 ca 6c	 cmp	 DWORD PTR [edx+ecx*8+108], eax
  00e6e	75 18		 jne	 SHORT $LN30@StartNPC
  00e70	0f b7 45 f2	 movzx	 eax, WORD PTR _t$[ebp+10]
  00e74	83 f8 03	 cmp	 eax, 3
  00e77	75 0f		 jne	 SHORT $LN30@StartNPC

; 370  : 						MessaageAllGlobal(ExConfig.MessageConfig.SearchEvent, 1);

  00e79	6a 01		 push	 1
  00e7b	68 cc 0a 00 00	 push	 OFFSET ?ExConfig@@3VcExConfigs@@A+2764
  00e80	e8 00 00 00 00	 call	 ?MessaageAllGlobal@@YAXPADZZ ; MessaageAllGlobal
  00e85	83 c4 08	 add	 esp, 8
$LN30@StartNPC:

; 371  : 
; 372  : 			}

  00e88	e9 b6 03 00 00	 jmp	 $LN36@StartNPC
$LN35@StartNPC:

; 373  : 			else if(TickTime[i].Min == 3)

  00e8d	8b 45 e4	 mov	 eax, DWORD PTR _i$220937[ebp]
  00e90	8b 4d f8	 mov	 ecx, DWORD PTR _this$[ebp]
  00e93	83 7c c1 70 03	 cmp	 DWORD PTR [ecx+eax*8+112], 3
  00e98	0f 85 d6 00 00
	00		 jne	 $LN28@StartNPC

; 374  : 			{
; 375  : 					if(TickTime[i].Hour-1 == t.wHour && 58 == t.wMinute)

  00e9e	8b 45 e4	 mov	 eax, DWORD PTR _i$220937[ebp]
  00ea1	8b 4d f8	 mov	 ecx, DWORD PTR _this$[ebp]
  00ea4	8b 54 c1 6c	 mov	 edx, DWORD PTR [ecx+eax*8+108]
  00ea8	83 ea 01	 sub	 edx, 1
  00eab	0f b7 45 f0	 movzx	 eax, WORD PTR _t$[ebp+8]
  00eaf	3b d0		 cmp	 edx, eax
  00eb1	75 18		 jne	 SHORT $LN27@StartNPC
  00eb3	0f b7 45 f2	 movzx	 eax, WORD PTR _t$[ebp+10]
  00eb7	83 f8 3a	 cmp	 eax, 58			; 0000003aH
  00eba	75 0f		 jne	 SHORT $LN27@StartNPC

; 376  : 						MessaageAllGlobal(ExConfig.MessageConfig.SearchEvent, 5);

  00ebc	6a 05		 push	 5
  00ebe	68 cc 0a 00 00	 push	 OFFSET ?ExConfig@@3VcExConfigs@@A+2764
  00ec3	e8 00 00 00 00	 call	 ?MessaageAllGlobal@@YAXPADZZ ; MessaageAllGlobal
  00ec8	83 c4 08	 add	 esp, 8
$LN27@StartNPC:

; 377  : 					if(TickTime[i].Hour-1 == t.wHour && 59 == t.wMinute)

  00ecb	8b 45 e4	 mov	 eax, DWORD PTR _i$220937[ebp]
  00ece	8b 4d f8	 mov	 ecx, DWORD PTR _this$[ebp]
  00ed1	8b 54 c1 6c	 mov	 edx, DWORD PTR [ecx+eax*8+108]
  00ed5	83 ea 01	 sub	 edx, 1
  00ed8	0f b7 45 f0	 movzx	 eax, WORD PTR _t$[ebp+8]
  00edc	3b d0		 cmp	 edx, eax
  00ede	75 18		 jne	 SHORT $LN26@StartNPC
  00ee0	0f b7 45 f2	 movzx	 eax, WORD PTR _t$[ebp+10]
  00ee4	83 f8 3b	 cmp	 eax, 59			; 0000003bH
  00ee7	75 0f		 jne	 SHORT $LN26@StartNPC

; 378  : 						MessaageAllGlobal(ExConfig.MessageConfig.SearchEvent, 4);

  00ee9	6a 04		 push	 4
  00eeb	68 cc 0a 00 00	 push	 OFFSET ?ExConfig@@3VcExConfigs@@A+2764
  00ef0	e8 00 00 00 00	 call	 ?MessaageAllGlobal@@YAXPADZZ ; MessaageAllGlobal
  00ef5	83 c4 08	 add	 esp, 8
$LN26@StartNPC:

; 379  : 					if(TickTime[i].Hour == t.wHour && 0 == t.wMinute)

  00ef8	0f b7 45 f0	 movzx	 eax, WORD PTR _t$[ebp+8]
  00efc	8b 4d e4	 mov	 ecx, DWORD PTR _i$220937[ebp]
  00eff	8b 55 f8	 mov	 edx, DWORD PTR _this$[ebp]
  00f02	39 44 ca 6c	 cmp	 DWORD PTR [edx+ecx*8+108], eax
  00f06	75 17		 jne	 SHORT $LN25@StartNPC
  00f08	0f b7 45 f2	 movzx	 eax, WORD PTR _t$[ebp+10]
  00f0c	85 c0		 test	 eax, eax
  00f0e	75 0f		 jne	 SHORT $LN25@StartNPC

; 380  : 						MessaageAllGlobal(ExConfig.MessageConfig.SearchEvent, 3);

  00f10	6a 03		 push	 3
  00f12	68 cc 0a 00 00	 push	 OFFSET ?ExConfig@@3VcExConfigs@@A+2764
  00f17	e8 00 00 00 00	 call	 ?MessaageAllGlobal@@YAXPADZZ ; MessaageAllGlobal
  00f1c	83 c4 08	 add	 esp, 8
$LN25@StartNPC:

; 381  : 					if(TickTime[i].Hour == t.wHour && 1 == t.wMinute)

  00f1f	0f b7 45 f0	 movzx	 eax, WORD PTR _t$[ebp+8]
  00f23	8b 4d e4	 mov	 ecx, DWORD PTR _i$220937[ebp]
  00f26	8b 55 f8	 mov	 edx, DWORD PTR _this$[ebp]
  00f29	39 44 ca 6c	 cmp	 DWORD PTR [edx+ecx*8+108], eax
  00f2d	75 18		 jne	 SHORT $LN24@StartNPC
  00f2f	0f b7 45 f2	 movzx	 eax, WORD PTR _t$[ebp+10]
  00f33	83 f8 01	 cmp	 eax, 1
  00f36	75 0f		 jne	 SHORT $LN24@StartNPC

; 382  : 						MessaageAllGlobal(ExConfig.MessageConfig.SearchEvent, 2);

  00f38	6a 02		 push	 2
  00f3a	68 cc 0a 00 00	 push	 OFFSET ?ExConfig@@3VcExConfigs@@A+2764
  00f3f	e8 00 00 00 00	 call	 ?MessaageAllGlobal@@YAXPADZZ ; MessaageAllGlobal
  00f44	83 c4 08	 add	 esp, 8
$LN24@StartNPC:

; 383  : 					if(TickTime[i].Hour == t.wHour && 2 == t.wMinute)

  00f47	0f b7 45 f0	 movzx	 eax, WORD PTR _t$[ebp+8]
  00f4b	8b 4d e4	 mov	 ecx, DWORD PTR _i$220937[ebp]
  00f4e	8b 55 f8	 mov	 edx, DWORD PTR _this$[ebp]
  00f51	39 44 ca 6c	 cmp	 DWORD PTR [edx+ecx*8+108], eax
  00f55	75 18		 jne	 SHORT $LN23@StartNPC
  00f57	0f b7 45 f2	 movzx	 eax, WORD PTR _t$[ebp+10]
  00f5b	83 f8 02	 cmp	 eax, 2
  00f5e	75 0f		 jne	 SHORT $LN23@StartNPC

; 384  : 						MessaageAllGlobal(ExConfig.MessageConfig.SearchEvent, 1);

  00f60	6a 01		 push	 1
  00f62	68 cc 0a 00 00	 push	 OFFSET ?ExConfig@@3VcExConfigs@@A+2764
  00f67	e8 00 00 00 00	 call	 ?MessaageAllGlobal@@YAXPADZZ ; MessaageAllGlobal
  00f6c	83 c4 08	 add	 esp, 8
$LN23@StartNPC:

; 385  : 			}

  00f6f	e9 cf 02 00 00	 jmp	 $LN36@StartNPC
$LN28@StartNPC:

; 386  : 			else if(TickTime[i].Min == 2)

  00f74	8b 45 e4	 mov	 eax, DWORD PTR _i$220937[ebp]
  00f77	8b 4d f8	 mov	 ecx, DWORD PTR _this$[ebp]
  00f7a	83 7c c1 70 02	 cmp	 DWORD PTR [ecx+eax*8+112], 2
  00f7f	0f 85 db 00 00
	00		 jne	 $LN21@StartNPC

; 387  : 			{
; 388  : 					if(TickTime[i].Hour-1 == t.wHour && 57 == t.wMinute)

  00f85	8b 45 e4	 mov	 eax, DWORD PTR _i$220937[ebp]
  00f88	8b 4d f8	 mov	 ecx, DWORD PTR _this$[ebp]
  00f8b	8b 54 c1 6c	 mov	 edx, DWORD PTR [ecx+eax*8+108]
  00f8f	83 ea 01	 sub	 edx, 1
  00f92	0f b7 45 f0	 movzx	 eax, WORD PTR _t$[ebp+8]
  00f96	3b d0		 cmp	 edx, eax
  00f98	75 18		 jne	 SHORT $LN20@StartNPC
  00f9a	0f b7 45 f2	 movzx	 eax, WORD PTR _t$[ebp+10]
  00f9e	83 f8 39	 cmp	 eax, 57			; 00000039H
  00fa1	75 0f		 jne	 SHORT $LN20@StartNPC

; 389  : 						MessaageAllGlobal(ExConfig.MessageConfig.SearchEvent, 5);

  00fa3	6a 05		 push	 5
  00fa5	68 cc 0a 00 00	 push	 OFFSET ?ExConfig@@3VcExConfigs@@A+2764
  00faa	e8 00 00 00 00	 call	 ?MessaageAllGlobal@@YAXPADZZ ; MessaageAllGlobal
  00faf	83 c4 08	 add	 esp, 8
$LN20@StartNPC:

; 390  : 					if(TickTime[i].Hour-1 == t.wHour && 58 == t.wMinute)

  00fb2	8b 45 e4	 mov	 eax, DWORD PTR _i$220937[ebp]
  00fb5	8b 4d f8	 mov	 ecx, DWORD PTR _this$[ebp]
  00fb8	8b 54 c1 6c	 mov	 edx, DWORD PTR [ecx+eax*8+108]
  00fbc	83 ea 01	 sub	 edx, 1
  00fbf	0f b7 45 f0	 movzx	 eax, WORD PTR _t$[ebp+8]
  00fc3	3b d0		 cmp	 edx, eax
  00fc5	75 18		 jne	 SHORT $LN19@StartNPC
  00fc7	0f b7 45 f2	 movzx	 eax, WORD PTR _t$[ebp+10]
  00fcb	83 f8 3a	 cmp	 eax, 58			; 0000003aH
  00fce	75 0f		 jne	 SHORT $LN19@StartNPC

; 391  : 						MessaageAllGlobal(ExConfig.MessageConfig.SearchEvent, 4);

  00fd0	6a 04		 push	 4
  00fd2	68 cc 0a 00 00	 push	 OFFSET ?ExConfig@@3VcExConfigs@@A+2764
  00fd7	e8 00 00 00 00	 call	 ?MessaageAllGlobal@@YAXPADZZ ; MessaageAllGlobal
  00fdc	83 c4 08	 add	 esp, 8
$LN19@StartNPC:

; 392  : 					if(TickTime[i].Hour-1 == t.wHour && 59 == t.wMinute)

  00fdf	8b 45 e4	 mov	 eax, DWORD PTR _i$220937[ebp]
  00fe2	8b 4d f8	 mov	 ecx, DWORD PTR _this$[ebp]
  00fe5	8b 54 c1 6c	 mov	 edx, DWORD PTR [ecx+eax*8+108]
  00fe9	83 ea 01	 sub	 edx, 1
  00fec	0f b7 45 f0	 movzx	 eax, WORD PTR _t$[ebp+8]
  00ff0	3b d0		 cmp	 edx, eax
  00ff2	75 18		 jne	 SHORT $LN18@StartNPC
  00ff4	0f b7 45 f2	 movzx	 eax, WORD PTR _t$[ebp+10]
  00ff8	83 f8 3b	 cmp	 eax, 59			; 0000003bH
  00ffb	75 0f		 jne	 SHORT $LN18@StartNPC

; 393  : 						MessaageAllGlobal(ExConfig.MessageConfig.SearchEvent, 3);

  00ffd	6a 03		 push	 3
  00fff	68 cc 0a 00 00	 push	 OFFSET ?ExConfig@@3VcExConfigs@@A+2764
  01004	e8 00 00 00 00	 call	 ?MessaageAllGlobal@@YAXPADZZ ; MessaageAllGlobal
  01009	83 c4 08	 add	 esp, 8
$LN18@StartNPC:

; 394  : 					if(TickTime[i].Hour == t.wHour && 0 == t.wMinute)

  0100c	0f b7 45 f0	 movzx	 eax, WORD PTR _t$[ebp+8]
  01010	8b 4d e4	 mov	 ecx, DWORD PTR _i$220937[ebp]
  01013	8b 55 f8	 mov	 edx, DWORD PTR _this$[ebp]
  01016	39 44 ca 6c	 cmp	 DWORD PTR [edx+ecx*8+108], eax
  0101a	75 17		 jne	 SHORT $LN17@StartNPC
  0101c	0f b7 45 f2	 movzx	 eax, WORD PTR _t$[ebp+10]
  01020	85 c0		 test	 eax, eax
  01022	75 0f		 jne	 SHORT $LN17@StartNPC

; 395  : 						MessaageAllGlobal(ExConfig.MessageConfig.SearchEvent, 2);

  01024	6a 02		 push	 2
  01026	68 cc 0a 00 00	 push	 OFFSET ?ExConfig@@3VcExConfigs@@A+2764
  0102b	e8 00 00 00 00	 call	 ?MessaageAllGlobal@@YAXPADZZ ; MessaageAllGlobal
  01030	83 c4 08	 add	 esp, 8
$LN17@StartNPC:

; 396  : 					if(TickTime[i].Hour == t.wHour && 1 == t.wMinute)

  01033	0f b7 45 f0	 movzx	 eax, WORD PTR _t$[ebp+8]
  01037	8b 4d e4	 mov	 ecx, DWORD PTR _i$220937[ebp]
  0103a	8b 55 f8	 mov	 edx, DWORD PTR _this$[ebp]
  0103d	39 44 ca 6c	 cmp	 DWORD PTR [edx+ecx*8+108], eax
  01041	75 18		 jne	 SHORT $LN16@StartNPC
  01043	0f b7 45 f2	 movzx	 eax, WORD PTR _t$[ebp+10]
  01047	83 f8 01	 cmp	 eax, 1
  0104a	75 0f		 jne	 SHORT $LN16@StartNPC

; 397  : 						MessaageAllGlobal(ExConfig.MessageConfig.SearchEvent, 1);

  0104c	6a 01		 push	 1
  0104e	68 cc 0a 00 00	 push	 OFFSET ?ExConfig@@3VcExConfigs@@A+2764
  01053	e8 00 00 00 00	 call	 ?MessaageAllGlobal@@YAXPADZZ ; MessaageAllGlobal
  01058	83 c4 08	 add	 esp, 8
$LN16@StartNPC:

; 398  : 			}

  0105b	e9 e3 01 00 00	 jmp	 $LN36@StartNPC
$LN21@StartNPC:

; 399  : 			else if(TickTime[i].Min == 1)

  01060	8b 45 e4	 mov	 eax, DWORD PTR _i$220937[ebp]
  01063	8b 4d f8	 mov	 ecx, DWORD PTR _this$[ebp]
  01066	83 7c c1 70 01	 cmp	 DWORD PTR [ecx+eax*8+112], 1
  0106b	0f 85 e0 00 00
	00		 jne	 $LN14@StartNPC

; 400  : 			{
; 401  : 					if(TickTime[i].Hour-1 == t.wHour && 56 == t.wMinute)

  01071	8b 45 e4	 mov	 eax, DWORD PTR _i$220937[ebp]
  01074	8b 4d f8	 mov	 ecx, DWORD PTR _this$[ebp]
  01077	8b 54 c1 6c	 mov	 edx, DWORD PTR [ecx+eax*8+108]
  0107b	83 ea 01	 sub	 edx, 1
  0107e	0f b7 45 f0	 movzx	 eax, WORD PTR _t$[ebp+8]
  01082	3b d0		 cmp	 edx, eax
  01084	75 18		 jne	 SHORT $LN13@StartNPC
  01086	0f b7 45 f2	 movzx	 eax, WORD PTR _t$[ebp+10]
  0108a	83 f8 38	 cmp	 eax, 56			; 00000038H
  0108d	75 0f		 jne	 SHORT $LN13@StartNPC

; 402  : 						MessaageAllGlobal(ExConfig.MessageConfig.SearchEvent, 5);

  0108f	6a 05		 push	 5
  01091	68 cc 0a 00 00	 push	 OFFSET ?ExConfig@@3VcExConfigs@@A+2764
  01096	e8 00 00 00 00	 call	 ?MessaageAllGlobal@@YAXPADZZ ; MessaageAllGlobal
  0109b	83 c4 08	 add	 esp, 8
$LN13@StartNPC:

; 403  : 					if(TickTime[i].Hour-1 == t.wHour && 57 == t.wMinute)

  0109e	8b 45 e4	 mov	 eax, DWORD PTR _i$220937[ebp]
  010a1	8b 4d f8	 mov	 ecx, DWORD PTR _this$[ebp]
  010a4	8b 54 c1 6c	 mov	 edx, DWORD PTR [ecx+eax*8+108]
  010a8	83 ea 01	 sub	 edx, 1
  010ab	0f b7 45 f0	 movzx	 eax, WORD PTR _t$[ebp+8]
  010af	3b d0		 cmp	 edx, eax
  010b1	75 18		 jne	 SHORT $LN12@StartNPC
  010b3	0f b7 45 f2	 movzx	 eax, WORD PTR _t$[ebp+10]
  010b7	83 f8 39	 cmp	 eax, 57			; 00000039H
  010ba	75 0f		 jne	 SHORT $LN12@StartNPC

; 404  : 						MessaageAllGlobal(ExConfig.MessageConfig.SearchEvent, 4);

  010bc	6a 04		 push	 4
  010be	68 cc 0a 00 00	 push	 OFFSET ?ExConfig@@3VcExConfigs@@A+2764
  010c3	e8 00 00 00 00	 call	 ?MessaageAllGlobal@@YAXPADZZ ; MessaageAllGlobal
  010c8	83 c4 08	 add	 esp, 8
$LN12@StartNPC:

; 405  : 					if(TickTime[i].Hour-1 == t.wHour && 58 == t.wMinute)

  010cb	8b 45 e4	 mov	 eax, DWORD PTR _i$220937[ebp]
  010ce	8b 4d f8	 mov	 ecx, DWORD PTR _this$[ebp]
  010d1	8b 54 c1 6c	 mov	 edx, DWORD PTR [ecx+eax*8+108]
  010d5	83 ea 01	 sub	 edx, 1
  010d8	0f b7 45 f0	 movzx	 eax, WORD PTR _t$[ebp+8]
  010dc	3b d0		 cmp	 edx, eax
  010de	75 18		 jne	 SHORT $LN11@StartNPC
  010e0	0f b7 45 f2	 movzx	 eax, WORD PTR _t$[ebp+10]
  010e4	83 f8 3a	 cmp	 eax, 58			; 0000003aH
  010e7	75 0f		 jne	 SHORT $LN11@StartNPC

; 406  : 						MessaageAllGlobal(ExConfig.MessageConfig.SearchEvent, 3);

  010e9	6a 03		 push	 3
  010eb	68 cc 0a 00 00	 push	 OFFSET ?ExConfig@@3VcExConfigs@@A+2764
  010f0	e8 00 00 00 00	 call	 ?MessaageAllGlobal@@YAXPADZZ ; MessaageAllGlobal
  010f5	83 c4 08	 add	 esp, 8
$LN11@StartNPC:

; 407  : 					if(TickTime[i].Hour-1 == t.wHour && 59 == t.wMinute)

  010f8	8b 45 e4	 mov	 eax, DWORD PTR _i$220937[ebp]
  010fb	8b 4d f8	 mov	 ecx, DWORD PTR _this$[ebp]
  010fe	8b 54 c1 6c	 mov	 edx, DWORD PTR [ecx+eax*8+108]
  01102	83 ea 01	 sub	 edx, 1
  01105	0f b7 45 f0	 movzx	 eax, WORD PTR _t$[ebp+8]
  01109	3b d0		 cmp	 edx, eax
  0110b	75 18		 jne	 SHORT $LN10@StartNPC
  0110d	0f b7 45 f2	 movzx	 eax, WORD PTR _t$[ebp+10]
  01111	83 f8 3b	 cmp	 eax, 59			; 0000003bH
  01114	75 0f		 jne	 SHORT $LN10@StartNPC

; 408  : 						MessaageAllGlobal(ExConfig.MessageConfig.SearchEvent, 2);

  01116	6a 02		 push	 2
  01118	68 cc 0a 00 00	 push	 OFFSET ?ExConfig@@3VcExConfigs@@A+2764
  0111d	e8 00 00 00 00	 call	 ?MessaageAllGlobal@@YAXPADZZ ; MessaageAllGlobal
  01122	83 c4 08	 add	 esp, 8
$LN10@StartNPC:

; 409  : 					if(TickTime[i].Hour == t.wHour && 0 == t.wMinute)

  01125	0f b7 45 f0	 movzx	 eax, WORD PTR _t$[ebp+8]
  01129	8b 4d e4	 mov	 ecx, DWORD PTR _i$220937[ebp]
  0112c	8b 55 f8	 mov	 edx, DWORD PTR _this$[ebp]
  0112f	39 44 ca 6c	 cmp	 DWORD PTR [edx+ecx*8+108], eax
  01133	75 17		 jne	 SHORT $LN9@StartNPC
  01135	0f b7 45 f2	 movzx	 eax, WORD PTR _t$[ebp+10]
  01139	85 c0		 test	 eax, eax
  0113b	75 0f		 jne	 SHORT $LN9@StartNPC

; 410  : 						MessaageAllGlobal(ExConfig.MessageConfig.SearchEvent, 1);

  0113d	6a 01		 push	 1
  0113f	68 cc 0a 00 00	 push	 OFFSET ?ExConfig@@3VcExConfigs@@A+2764
  01144	e8 00 00 00 00	 call	 ?MessaageAllGlobal@@YAXPADZZ ; MessaageAllGlobal
  01149	83 c4 08	 add	 esp, 8
$LN9@StartNPC:

; 411  : 			}

  0114c	e9 f2 00 00 00	 jmp	 $LN36@StartNPC
$LN14@StartNPC:

; 412  : 			else if(TickTime[i].Min == 0)

  01151	8b 45 e4	 mov	 eax, DWORD PTR _i$220937[ebp]
  01154	8b 4d f8	 mov	 ecx, DWORD PTR _this$[ebp]
  01157	83 7c c1 70 00	 cmp	 DWORD PTR [ecx+eax*8+112], 0
  0115c	0f 85 e1 00 00
	00		 jne	 $LN36@StartNPC

; 413  : 			{
; 414  : 					if(TickTime[i].Hour-1 == t.wHour && 55 == t.wMinute)

  01162	8b 45 e4	 mov	 eax, DWORD PTR _i$220937[ebp]
  01165	8b 4d f8	 mov	 ecx, DWORD PTR _this$[ebp]
  01168	8b 54 c1 6c	 mov	 edx, DWORD PTR [ecx+eax*8+108]
  0116c	83 ea 01	 sub	 edx, 1
  0116f	0f b7 45 f0	 movzx	 eax, WORD PTR _t$[ebp+8]
  01173	3b d0		 cmp	 edx, eax
  01175	75 18		 jne	 SHORT $LN6@StartNPC
  01177	0f b7 45 f2	 movzx	 eax, WORD PTR _t$[ebp+10]
  0117b	83 f8 37	 cmp	 eax, 55			; 00000037H
  0117e	75 0f		 jne	 SHORT $LN6@StartNPC

; 415  : 						MessaageAllGlobal(ExConfig.MessageConfig.SearchEvent, 5);

  01180	6a 05		 push	 5
  01182	68 cc 0a 00 00	 push	 OFFSET ?ExConfig@@3VcExConfigs@@A+2764
  01187	e8 00 00 00 00	 call	 ?MessaageAllGlobal@@YAXPADZZ ; MessaageAllGlobal
  0118c	83 c4 08	 add	 esp, 8
$LN6@StartNPC:

; 416  : 					if(TickTime[i].Hour-1 == t.wHour && 56 == t.wMinute)

  0118f	8b 45 e4	 mov	 eax, DWORD PTR _i$220937[ebp]
  01192	8b 4d f8	 mov	 ecx, DWORD PTR _this$[ebp]
  01195	8b 54 c1 6c	 mov	 edx, DWORD PTR [ecx+eax*8+108]
  01199	83 ea 01	 sub	 edx, 1
  0119c	0f b7 45 f0	 movzx	 eax, WORD PTR _t$[ebp+8]
  011a0	3b d0		 cmp	 edx, eax
  011a2	75 18		 jne	 SHORT $LN5@StartNPC
  011a4	0f b7 45 f2	 movzx	 eax, WORD PTR _t$[ebp+10]
  011a8	83 f8 38	 cmp	 eax, 56			; 00000038H
  011ab	75 0f		 jne	 SHORT $LN5@StartNPC

; 417  : 						MessaageAllGlobal(ExConfig.MessageConfig.SearchEvent, 4);

  011ad	6a 04		 push	 4
  011af	68 cc 0a 00 00	 push	 OFFSET ?ExConfig@@3VcExConfigs@@A+2764
  011b4	e8 00 00 00 00	 call	 ?MessaageAllGlobal@@YAXPADZZ ; MessaageAllGlobal
  011b9	83 c4 08	 add	 esp, 8
$LN5@StartNPC:

; 418  : 					if(TickTime[i].Hour-1 == t.wHour && 57 == t.wMinute)

  011bc	8b 45 e4	 mov	 eax, DWORD PTR _i$220937[ebp]
  011bf	8b 4d f8	 mov	 ecx, DWORD PTR _this$[ebp]
  011c2	8b 54 c1 6c	 mov	 edx, DWORD PTR [ecx+eax*8+108]
  011c6	83 ea 01	 sub	 edx, 1
  011c9	0f b7 45 f0	 movzx	 eax, WORD PTR _t$[ebp+8]
  011cd	3b d0		 cmp	 edx, eax
  011cf	75 18		 jne	 SHORT $LN4@StartNPC
  011d1	0f b7 45 f2	 movzx	 eax, WORD PTR _t$[ebp+10]
  011d5	83 f8 39	 cmp	 eax, 57			; 00000039H
  011d8	75 0f		 jne	 SHORT $LN4@StartNPC

; 419  : 						MessaageAllGlobal(ExConfig.MessageConfig.SearchEvent, 3);

  011da	6a 03		 push	 3
  011dc	68 cc 0a 00 00	 push	 OFFSET ?ExConfig@@3VcExConfigs@@A+2764
  011e1	e8 00 00 00 00	 call	 ?MessaageAllGlobal@@YAXPADZZ ; MessaageAllGlobal
  011e6	83 c4 08	 add	 esp, 8
$LN4@StartNPC:

; 420  : 					if(TickTime[i].Hour-1 == t.wHour && 58 == t.wMinute)

  011e9	8b 45 e4	 mov	 eax, DWORD PTR _i$220937[ebp]
  011ec	8b 4d f8	 mov	 ecx, DWORD PTR _this$[ebp]
  011ef	8b 54 c1 6c	 mov	 edx, DWORD PTR [ecx+eax*8+108]
  011f3	83 ea 01	 sub	 edx, 1
  011f6	0f b7 45 f0	 movzx	 eax, WORD PTR _t$[ebp+8]
  011fa	3b d0		 cmp	 edx, eax
  011fc	75 18		 jne	 SHORT $LN3@StartNPC
  011fe	0f b7 45 f2	 movzx	 eax, WORD PTR _t$[ebp+10]
  01202	83 f8 3a	 cmp	 eax, 58			; 0000003aH
  01205	75 0f		 jne	 SHORT $LN3@StartNPC

; 421  : 						MessaageAllGlobal(ExConfig.MessageConfig.SearchEvent, 2);

  01207	6a 02		 push	 2
  01209	68 cc 0a 00 00	 push	 OFFSET ?ExConfig@@3VcExConfigs@@A+2764
  0120e	e8 00 00 00 00	 call	 ?MessaageAllGlobal@@YAXPADZZ ; MessaageAllGlobal
  01213	83 c4 08	 add	 esp, 8
$LN3@StartNPC:

; 422  : 					if(TickTime[i].Hour-1 == t.wHour && 59 == t.wMinute)

  01216	8b 45 e4	 mov	 eax, DWORD PTR _i$220937[ebp]
  01219	8b 4d f8	 mov	 ecx, DWORD PTR _this$[ebp]
  0121c	8b 54 c1 6c	 mov	 edx, DWORD PTR [ecx+eax*8+108]
  01220	83 ea 01	 sub	 edx, 1
  01223	0f b7 45 f0	 movzx	 eax, WORD PTR _t$[ebp+8]
  01227	3b d0		 cmp	 edx, eax
  01229	75 18		 jne	 SHORT $LN36@StartNPC
  0122b	0f b7 45 f2	 movzx	 eax, WORD PTR _t$[ebp+10]
  0122f	83 f8 3b	 cmp	 eax, 59			; 0000003bH
  01232	75 0f		 jne	 SHORT $LN36@StartNPC

; 423  : 						MessaageAllGlobal(ExConfig.MessageConfig.SearchEvent, 1);

  01234	6a 01		 push	 1
  01236	68 cc 0a 00 00	 push	 OFFSET ?ExConfig@@3VcExConfigs@@A+2764
  0123b	e8 00 00 00 00	 call	 ?MessaageAllGlobal@@YAXPADZZ ; MessaageAllGlobal
  01240	83 c4 08	 add	 esp, 8
$LN36@StartNPC:

; 424  : 			
; 425  : 			}
; 426  : #endif
; 427  : 
; 428  : 			if(this->TickTime[i].Hour == t.wHour && this->TickTime[i].Min == t.wMinute)

  01243	0f b7 45 f0	 movzx	 eax, WORD PTR _t$[ebp+8]
  01247	8b 4d e4	 mov	 ecx, DWORD PTR _i$220937[ebp]
  0124a	8b 55 f8	 mov	 edx, DWORD PTR _this$[ebp]
  0124d	39 44 ca 6c	 cmp	 DWORD PTR [edx+ecx*8+108], eax
  01251	75 1a		 jne	 SHORT $LN1@StartNPC
  01253	0f b7 45 f2	 movzx	 eax, WORD PTR _t$[ebp+10]
  01257	8b 4d e4	 mov	 ecx, DWORD PTR _i$220937[ebp]
  0125a	8b 55 f8	 mov	 edx, DWORD PTR _this$[ebp]
  0125d	39 44 ca 70	 cmp	 DWORD PTR [edx+ecx*8+112], eax
  01261	75 0a		 jne	 SHORT $LN1@StartNPC

; 429  : 			{
; 430  : 				this->EventStart();

  01263	8b 4d f8	 mov	 ecx, DWORD PTR _this$[ebp]
  01266	e8 00 00 00 00	 call	 ?EventStart@cSearchEvent@@QAEXXZ ; cSearchEvent::EventStart

; 431  : 				return;

  0126b	eb 05		 jmp	 SHORT $LN49@StartNPC
$LN1@StartNPC:

; 432  : 			}
; 433  : 		}

  0126d	e9 bc fa ff ff	 jmp	 $LN43@StartNPC
$LN49@StartNPC:

; 434  : 	}
; 435  : }

  01272	5f		 pop	 edi
  01273	5e		 pop	 esi
  01274	5b		 pop	 ebx
  01275	8b 4d fc	 mov	 ecx, DWORD PTR __$ArrayPad$[ebp]
  01278	33 cd		 xor	 ecx, ebp
  0127a	e8 00 00 00 00	 call	 @__security_check_cookie@4
  0127f	8b e5		 mov	 esp, ebp
  01281	5d		 pop	 ebp
  01282	c3		 ret	 0
?StartNPC@cSearchEvent@@QAEXXZ ENDP			; cSearchEvent::StartNPC
_TEXT	ENDS
EXTRN	?GDSaveUserInfo@GameShop@@QAEXH@Z:PROC		; GameShop::GDSaveUserInfo
EXTRN	?gGameShop@@3VGameShop@@A:BYTE			; gGameShop
EXTRN	?ItemSerialCreateSend@@YAXHEEEHEEEEEHEE@Z:PROC	; ItemSerialCreateSend
EXTRN	?GenExcOpt@@YAHH@Z:PROC				; GenExcOpt
EXTRN	__fltused:DWORD
; Function compile flags: /Odtp /ZI
_TEXT	SEGMENT
_DropItem$220996 = -28					; size = 4
_NewAnc$220995 = -24					; size = 4
_NewExl$220994 = -20					; size = 4
_Ran$220993 = -16					; size = 4
_i$220989 = -12						; size = 4
_lpObj$ = -8						; size = 4
_this$ = -4						; size = 4
_aIndex$ = 8						; size = 4
?Present@cSearchEvent@@QAEXH@Z PROC			; cSearchEvent::Present
; _this$ = ecx

; 438  : {

  01290	55		 push	 ebp
  01291	8b ec		 mov	 ebp, esp
  01293	83 ec 5c	 sub	 esp, 92			; 0000005cH
  01296	53		 push	 ebx
  01297	56		 push	 esi
  01298	57		 push	 edi
  01299	89 4d fc	 mov	 DWORD PTR _this$[ebp], ecx

; 439  : 	//OBJECTSTRUCT *gObj = (OBJECTSTRUCT*)OBJECT_POINTER(aIndex);	
; 440  : 	LPOBJ lpObj = &gObj[aIndex];

  0129c	8b 45 08	 mov	 eax, DWORD PTR _aIndex$[ebp]
  0129f	69 c0 38 2b 00
	00		 imul	 eax, 11064		; 00002b38H
  012a5	03 05 00 00 00
	00		 add	 eax, DWORD PTR ?gObj@@3PAUOBJECTSTRUCT@@A ; gObj
  012ab	89 45 f8	 mov	 DWORD PTR _lpObj$[ebp], eax

; 441  : 	if(this->ItemCount > 0)

  012ae	8b 45 fc	 mov	 eax, DWORD PTR _this$[ebp]
  012b1	83 78 18 00	 cmp	 DWORD PTR [eax+24], 0
  012b5	0f 8e 5d 01 00
	00		 jle	 $LN10@Present

; 442  : 	{
; 443  : 		for(int i=0;i<this->ItemCount;i++)

  012bb	c7 45 f4 00 00
	00 00		 mov	 DWORD PTR _i$220989[ebp], 0
  012c2	eb 09		 jmp	 SHORT $LN12@Present
$LN11@Present:
  012c4	8b 45 f4	 mov	 eax, DWORD PTR _i$220989[ebp]
  012c7	83 c0 01	 add	 eax, 1
  012ca	89 45 f4	 mov	 DWORD PTR _i$220989[ebp], eax
$LN12@Present:
  012cd	8b 45 fc	 mov	 eax, DWORD PTR _this$[ebp]
  012d0	8b 4d f4	 mov	 ecx, DWORD PTR _i$220989[ebp]
  012d3	3b 48 18	 cmp	 ecx, DWORD PTR [eax+24]
  012d6	0f 8d 3c 01 00
	00		 jge	 $LN10@Present

; 444  : 		{
; 445  : 			int Ran = rand()%Count2;

  012dc	e8 00 00 00 00	 call	 _rand
  012e1	8b 4d fc	 mov	 ecx, DWORD PTR _this$[ebp]
  012e4	99		 cdq
  012e5	f7 b9 20 2d 00
	00		 idiv	 DWORD PTR [ecx+11552]
  012eb	89 55 f0	 mov	 DWORD PTR _Ran$220993[ebp], edx

; 446  : 
; 447  : 			int NewExl = 0;

  012ee	c7 45 ec 00 00
	00 00		 mov	 DWORD PTR _NewExl$220994[ebp], 0

; 448  : 			int NewAnc = 0;

  012f5	c7 45 e8 00 00
	00 00		 mov	 DWORD PTR _NewAnc$220995[ebp], 0

; 449  : 
; 450  : 			int DropItem = ITEMGET(this->Item[Ran].Type,this->Item[Ran].Index);

  012fc	8b 45 f0	 mov	 eax, DWORD PTR _Ran$220993[ebp]
  012ff	c1 e0 05	 shl	 eax, 5
  01302	8b 4d fc	 mov	 ecx, DWORD PTR _this$[ebp]
  01305	8b 94 01 c0 00
	00 00		 mov	 edx, DWORD PTR [ecx+eax+192]
  0130c	c1 e2 09	 shl	 edx, 9
  0130f	8b 45 f0	 mov	 eax, DWORD PTR _Ran$220993[ebp]
  01312	c1 e0 05	 shl	 eax, 5
  01315	8b 4d fc	 mov	 ecx, DWORD PTR _this$[ebp]
  01318	03 94 01 bc 00
	00 00		 add	 edx, DWORD PTR [ecx+eax+188]
  0131f	89 55 e4	 mov	 DWORD PTR _DropItem$220996[ebp], edx

; 451  : 
; 452  : 			if(Item[Ran].Exl > 0)

  01322	8b 45 f0	 mov	 eax, DWORD PTR _Ran$220993[ebp]
  01325	c1 e0 05	 shl	 eax, 5
  01328	8b 4d fc	 mov	 ecx, DWORD PTR _this$[ebp]
  0132b	83 bc 01 d4 00
	00 00 00	 cmp	 DWORD PTR [ecx+eax+212], 0
  01333	7e 1c		 jle	 SHORT $LN9@Present

; 453  : 				NewExl = GenExcOpt(Item[Ran].Exl);

  01335	8b 45 f0	 mov	 eax, DWORD PTR _Ran$220993[ebp]
  01338	c1 e0 05	 shl	 eax, 5
  0133b	8b 4d fc	 mov	 ecx, DWORD PTR _this$[ebp]
  0133e	8b 94 01 d4 00
	00 00		 mov	 edx, DWORD PTR [ecx+eax+212]
  01345	52		 push	 edx
  01346	e8 00 00 00 00	 call	 ?GenExcOpt@@YAHH@Z	; GenExcOpt
  0134b	83 c4 04	 add	 esp, 4
  0134e	89 45 ec	 mov	 DWORD PTR _NewExl$220994[ebp], eax
$LN9@Present:

; 454  : 
; 455  : 			if(Item[Ran].Anc == 5 || Item[Ran].Anc == 10)

  01351	8b 45 f0	 mov	 eax, DWORD PTR _Ran$220993[ebp]
  01354	c1 e0 05	 shl	 eax, 5
  01357	8b 4d fc	 mov	 ecx, DWORD PTR _this$[ebp]
  0135a	83 bc 01 d8 00
	00 00 05	 cmp	 DWORD PTR [ecx+eax+216], 5
  01362	74 13		 je	 SHORT $LN7@Present
  01364	8b 45 f0	 mov	 eax, DWORD PTR _Ran$220993[ebp]
  01367	c1 e0 05	 shl	 eax, 5
  0136a	8b 4d fc	 mov	 ecx, DWORD PTR _this$[ebp]
  0136d	83 bc 01 d8 00
	00 00 0a	 cmp	 DWORD PTR [ecx+eax+216], 10 ; 0000000aH
  01375	75 13		 jne	 SHORT $LN8@Present
$LN7@Present:

; 456  : 				NewAnc = Item[Ran].Anc;

  01377	8b 45 f0	 mov	 eax, DWORD PTR _Ran$220993[ebp]
  0137a	c1 e0 05	 shl	 eax, 5
  0137d	8b 4d fc	 mov	 ecx, DWORD PTR _this$[ebp]
  01380	8b 94 01 d8 00
	00 00		 mov	 edx, DWORD PTR [ecx+eax+216]
  01387	89 55 e8	 mov	 DWORD PTR _NewAnc$220995[ebp], edx
$LN8@Present:

; 457  : 
; 458  : 			ItemSerialCreateSend(aIndex,lpObj->MapNumber,lpObj->X,lpObj->Y,DropItem,this->Item[Ran].Level,0,
; 459  : 				this->Item[Ran].Skill,this->Item[Ran].Luck,this->Item[Ran].Opt,aIndex,NewExl,NewAnc);

  0138a	0f b6 45 e8	 movzx	 eax, BYTE PTR _NewAnc$220995[ebp]
  0138e	50		 push	 eax
  0138f	0f b6 4d ec	 movzx	 ecx, BYTE PTR _NewExl$220994[ebp]
  01393	51		 push	 ecx
  01394	8b 55 08	 mov	 edx, DWORD PTR _aIndex$[ebp]
  01397	52		 push	 edx
  01398	8b 45 f0	 mov	 eax, DWORD PTR _Ran$220993[ebp]
  0139b	c1 e0 05	 shl	 eax, 5
  0139e	8b 4d fc	 mov	 ecx, DWORD PTR _this$[ebp]
  013a1	0f b6 94 01 d0
	00 00 00	 movzx	 edx, BYTE PTR [ecx+eax+208]
  013a9	52		 push	 edx
  013aa	8b 45 f0	 mov	 eax, DWORD PTR _Ran$220993[ebp]
  013ad	c1 e0 05	 shl	 eax, 5
  013b0	8b 4d fc	 mov	 ecx, DWORD PTR _this$[ebp]
  013b3	0f b6 94 01 cc
	00 00 00	 movzx	 edx, BYTE PTR [ecx+eax+204]
  013bb	52		 push	 edx
  013bc	8b 45 f0	 mov	 eax, DWORD PTR _Ran$220993[ebp]
  013bf	c1 e0 05	 shl	 eax, 5
  013c2	8b 4d fc	 mov	 ecx, DWORD PTR _this$[ebp]
  013c5	0f b6 94 01 c8
	00 00 00	 movzx	 edx, BYTE PTR [ecx+eax+200]
  013cd	52		 push	 edx
  013ce	6a 00		 push	 0
  013d0	8b 45 f0	 mov	 eax, DWORD PTR _Ran$220993[ebp]
  013d3	c1 e0 05	 shl	 eax, 5
  013d6	8b 4d fc	 mov	 ecx, DWORD PTR _this$[ebp]
  013d9	0f b6 94 01 c4
	00 00 00	 movzx	 edx, BYTE PTR [ecx+eax+196]
  013e1	52		 push	 edx
  013e2	8b 45 e4	 mov	 eax, DWORD PTR _DropItem$220996[ebp]
  013e5	50		 push	 eax
  013e6	8b 4d f8	 mov	 ecx, DWORD PTR _lpObj$[ebp]
  013e9	0f b6 91 46 01
	00 00		 movzx	 edx, BYTE PTR [ecx+326]
  013f0	52		 push	 edx
  013f1	8b 45 f8	 mov	 eax, DWORD PTR _lpObj$[ebp]
  013f4	0f b6 88 44 01
	00 00		 movzx	 ecx, BYTE PTR [eax+324]
  013fb	51		 push	 ecx
  013fc	8b 55 f8	 mov	 edx, DWORD PTR _lpObj$[ebp]
  013ff	0f b6 82 49 01
	00 00		 movzx	 eax, BYTE PTR [edx+329]
  01406	50		 push	 eax
  01407	8b 4d 08	 mov	 ecx, DWORD PTR _aIndex$[ebp]
  0140a	51		 push	 ecx
  0140b	e8 00 00 00 00	 call	 ?ItemSerialCreateSend@@YAXHEEEHEEEEEHEE@Z ; ItemSerialCreateSend
  01410	83 c4 34	 add	 esp, 52			; 00000034H

; 460  : 		}

  01413	e9 ac fe ff ff	 jmp	 $LN11@Present
$LN10@Present:

; 461  : 	}
; 462  : 
; 463  : 	if(this->BonusCredits > 0)

  01418	8b 45 fc	 mov	 eax, DWORD PTR _this$[ebp]
  0141b	83 78 28 00	 cmp	 DWORD PTR [eax+40], 0
  0141f	7e 18		 jle	 SHORT $LN6@Present

; 464  : 	{
; 465  : 		lpObj->ExCred += this->BonusCredits;

  01421	8b 45 fc	 mov	 eax, DWORD PTR _this$[ebp]
  01424	db 40 28	 fild	 DWORD PTR [eax+40]
  01427	8b 4d f8	 mov	 ecx, DWORD PTR _lpObj$[ebp]
  0142a	d8 81 a8 22 00
	00		 fadd	 DWORD PTR [ecx+8872]
  01430	8b 55 f8	 mov	 edx, DWORD PTR _lpObj$[ebp]
  01433	d9 9a a8 22 00
	00		 fstp	 DWORD PTR [edx+8872]
$LN6@Present:

; 466  : 	}
; 467  : 
; 468  : 	if(this->BonusWcoinC > 0)

  01439	8b 45 fc	 mov	 eax, DWORD PTR _this$[ebp]
  0143c	83 78 2c 00	 cmp	 DWORD PTR [eax+44], 0
  01440	7e 18		 jle	 SHORT $LN5@Present

; 469  : 	{
; 470  : 		lpObj->GameShop.WCoinC += this->BonusWcoinC;

  01442	8b 45 fc	 mov	 eax, DWORD PTR _this$[ebp]
  01445	db 40 2c	 fild	 DWORD PTR [eax+44]
  01448	8b 4d f8	 mov	 ecx, DWORD PTR _lpObj$[ebp]
  0144b	dc 81 00 23 00
	00		 fadd	 QWORD PTR [ecx+8960]
  01451	8b 55 f8	 mov	 edx, DWORD PTR _lpObj$[ebp]
  01454	dd 9a 00 23 00
	00		 fstp	 QWORD PTR [edx+8960]
$LN5@Present:

; 471  : 	}
; 472  : 	if(this->BonusWcoinP > 0)

  0145a	8b 45 fc	 mov	 eax, DWORD PTR _this$[ebp]
  0145d	83 78 30 00	 cmp	 DWORD PTR [eax+48], 0
  01461	7e 18		 jle	 SHORT $LN4@Present

; 473  : 	{
; 474  : 		lpObj->GameShop.WCoinP += this->BonusWcoinP;

  01463	8b 45 fc	 mov	 eax, DWORD PTR _this$[ebp]
  01466	db 40 30	 fild	 DWORD PTR [eax+48]
  01469	8b 4d f8	 mov	 ecx, DWORD PTR _lpObj$[ebp]
  0146c	dc 81 f8 22 00
	00		 fadd	 QWORD PTR [ecx+8952]
  01472	8b 55 f8	 mov	 edx, DWORD PTR _lpObj$[ebp]
  01475	dd 9a f8 22 00
	00		 fstp	 QWORD PTR [edx+8952]
$LN4@Present:

; 475  : 	}
; 476  : 	if(this->BonusGoblinPoints > 0)

  0147b	8b 45 fc	 mov	 eax, DWORD PTR _this$[ebp]
  0147e	83 78 34 00	 cmp	 DWORD PTR [eax+52], 0
  01482	7e 18		 jle	 SHORT $LN3@Present

; 477  : 	{
; 478  : 		lpObj->GameShop.GoblinPoint += this->BonusGoblinPoints;

  01484	8b 45 fc	 mov	 eax, DWORD PTR _this$[ebp]
  01487	db 40 34	 fild	 DWORD PTR [eax+52]
  0148a	8b 4d f8	 mov	 ecx, DWORD PTR _lpObj$[ebp]
  0148d	dc 81 08 23 00
	00		 fadd	 QWORD PTR [ecx+8968]
  01493	8b 55 f8	 mov	 edx, DWORD PTR _lpObj$[ebp]
  01496	dd 9a 08 23 00
	00		 fstp	 QWORD PTR [edx+8968]
$LN3@Present:

; 479  : 	}
; 480  : 
; 481  : 	if(this->BonusWcoinC > 0 || this->BonusWcoinP > 0 || this->BonusGoblinPoints > 0)

  0149c	8b 45 fc	 mov	 eax, DWORD PTR _this$[ebp]
  0149f	83 78 2c 00	 cmp	 DWORD PTR [eax+44], 0
  014a3	7f 12		 jg	 SHORT $LN1@Present
  014a5	8b 45 fc	 mov	 eax, DWORD PTR _this$[ebp]
  014a8	83 78 30 00	 cmp	 DWORD PTR [eax+48], 0
  014ac	7f 09		 jg	 SHORT $LN1@Present
  014ae	8b 45 fc	 mov	 eax, DWORD PTR _this$[ebp]
  014b1	83 78 34 00	 cmp	 DWORD PTR [eax+52], 0
  014b5	7e 10		 jle	 SHORT $LN2@Present
$LN1@Present:

; 482  : 	{
; 483  : 		gGameShop.GDSaveUserInfo(lpObj->m_Index);

  014b7	8b 45 f8	 mov	 eax, DWORD PTR _lpObj$[ebp]
  014ba	8b 08		 mov	 ecx, DWORD PTR [eax]
  014bc	51		 push	 ecx
  014bd	b9 00 00 00 00	 mov	 ecx, OFFSET ?gGameShop@@3VGameShop@@A ; gGameShop
  014c2	e8 00 00 00 00	 call	 ?GDSaveUserInfo@GameShop@@QAEXH@Z ; GameShop::GDSaveUserInfo
$LN2@Present:

; 484  : 	}
; 485  : }

  014c7	5f		 pop	 edi
  014c8	5e		 pop	 esi
  014c9	5b		 pop	 ebx
  014ca	8b e5		 mov	 esp, ebp
  014cc	5d		 pop	 ebp
  014cd	c2 04 00	 ret	 4
?Present@cSearchEvent@@QAEXH@Z ENDP			; cSearchEvent::Present
_TEXT	ENDS
EXTRN	?gObjDel@@YAFH@Z:PROC				; gObjDel
; Function compile flags: /Odtp /ZI
_TEXT	SEGMENT
_this$ = -4						; size = 4
?EventEnd@cSearchEvent@@QAEXXZ PROC			; cSearchEvent::EventEnd
; _this$ = ecx

; 488  : {

  014d0	55		 push	 ebp
  014d1	8b ec		 mov	 ebp, esp
  014d3	83 ec 44	 sub	 esp, 68			; 00000044H
  014d6	53		 push	 ebx
  014d7	56		 push	 esi
  014d8	57		 push	 edi
  014d9	89 4d fc	 mov	 DWORD PTR _this$[ebp], ecx

; 489  : 	this->Start = false;

  014dc	8b 45 fc	 mov	 eax, DWORD PTR _this$[ebp]
  014df	c6 40 1c 00	 mov	 BYTE PTR [eax+28], 0

; 490  : 	this->Tick = 0;

  014e3	8b 45 fc	 mov	 eax, DWORD PTR _this$[ebp]
  014e6	c7 40 20 00 00
	00 00		 mov	 DWORD PTR [eax+32], 0

; 491  : 	//OBJECTSTRUCT *gObjNPC = (OBJECTSTRUCT*) OBJECT_POINTER (this->IndexNPC);
; 492  : 	//gObjNPC->MapNumber = DEF_MAP;
; 493  : 	//gObjNPC->X = DEF_X;
; 494  : 	//gObjNPC->Y = DEF_Y;
; 495  : 
; 496  : 	gObjDel(this->IndexNPC);

  014ed	8b 45 fc	 mov	 eax, DWORD PTR _this$[ebp]
  014f0	8b 48 04	 mov	 ecx, DWORD PTR [eax+4]
  014f3	51		 push	 ecx
  014f4	e8 00 00 00 00	 call	 ?gObjDel@@YAFH@Z	; gObjDel
  014f9	83 c4 04	 add	 esp, 4

; 497  : 	this->IndexNPC = -1;

  014fc	8b 45 fc	 mov	 eax, DWORD PTR _this$[ebp]
  014ff	c7 40 04 ff ff
	ff ff		 mov	 DWORD PTR [eax+4], -1

; 498  : 
; 499  : 	MessaageAllGlobal(g_ExText.GetText(98));

  01506	6a 62		 push	 98			; 00000062H
  01508	b9 00 00 00 00	 mov	 ecx, OFFSET ?g_ExText@@3VCExText@@A ; g_ExText
  0150d	e8 00 00 00 00	 call	 ?GetText@CExText@@QAEPADH@Z ; CExText::GetText
  01512	50		 push	 eax
  01513	e8 00 00 00 00	 call	 ?MessaageAllGlobal@@YAXPADZZ ; MessaageAllGlobal
  01518	83 c4 04	 add	 esp, 4

; 500  : }

  0151b	5f		 pop	 edi
  0151c	5e		 pop	 esi
  0151d	5b		 pop	 ebx
  0151e	8b e5		 mov	 esp, ebp
  01520	5d		 pop	 ebp
  01521	c3		 ret	 0
?EventEnd@cSearchEvent@@QAEXXZ ENDP			; cSearchEvent::EventEnd
_TEXT	ENDS
EXTRN	_atexit:PROC
; Function compile flags: /Odtp /ZI
;	COMDAT ??__ESearchEvent@@YAXXZ
text$yc	SEGMENT
??__ESearchEvent@@YAXXZ PROC				; `dynamic initializer for 'SearchEvent'', COMDAT

; 16   : cSearchEvent SearchEvent;

  00000	55		 push	 ebp
  00001	8b ec		 mov	 ebp, esp
  00003	83 ec 40	 sub	 esp, 64			; 00000040H
  00006	53		 push	 ebx
  00007	56		 push	 esi
  00008	57		 push	 edi
  00009	b9 00 00 00 00	 mov	 ecx, OFFSET ?SearchEvent@@3VcSearchEvent@@A ; SearchEvent
  0000e	e8 00 00 00 00	 call	 ??0cSearchEvent@@QAE@XZ	; cSearchEvent::cSearchEvent
  00013	68 00 00 00 00	 push	 OFFSET ??__FSearchEvent@@YAXXZ ; `dynamic atexit destructor for 'SearchEvent''
  00018	e8 00 00 00 00	 call	 _atexit
  0001d	83 c4 04	 add	 esp, 4
  00020	5f		 pop	 edi
  00021	5e		 pop	 esi
  00022	5b		 pop	 ebx
  00023	8b e5		 mov	 esp, ebp
  00025	5d		 pop	 ebp
  00026	c3		 ret	 0
??__ESearchEvent@@YAXXZ ENDP				; `dynamic initializer for 'SearchEvent''
; Function compile flags: /Odtp /ZI
text$yc	ENDS
;	COMDAT ??__FSearchEvent@@YAXXZ
text$yd	SEGMENT
??__FSearchEvent@@YAXXZ PROC				; `dynamic atexit destructor for 'SearchEvent'', COMDAT
  00000	55		 push	 ebp
  00001	8b ec		 mov	 ebp, esp
  00003	83 ec 40	 sub	 esp, 64			; 00000040H
  00006	53		 push	 ebx
  00007	56		 push	 esi
  00008	57		 push	 edi
  00009	b9 00 00 00 00	 mov	 ecx, OFFSET ?SearchEvent@@3VcSearchEvent@@A ; SearchEvent
  0000e	e8 00 00 00 00	 call	 ??1cSearchEvent@@QAE@XZ	; cSearchEvent::~cSearchEvent
  00013	5f		 pop	 edi
  00014	5e		 pop	 esi
  00015	5b		 pop	 ebx
  00016	8b e5		 mov	 esp, ebp
  00018	5d		 pop	 ebp
  00019	c3		 ret	 0
??__FSearchEvent@@YAXXZ ENDP				; `dynamic atexit destructor for 'SearchEvent''
text$yd	ENDS
PUBLIC	?SearchEvent@@3VcSearchEvent@@A			; SearchEvent
_BSS	SEGMENT
?SearchEvent@@3VcSearchEvent@@A DB 02d34H DUP (?)	; SearchEvent
_BSS	ENDS
CRT$XCU	SEGMENT
_SearchEvent$initializer$ DD FLAT:??__ESearchEvent@@YAXXZ
CRT$XCU	ENDS
END
