; Listing generated by Microsoft (R) Optimizing Compiler Version 16.00.40219.01 

	TITLE	D:\Projects\ExTeam6.3\Source\GameServer\GameServer\SendHackLog.cpp
	.686P
	.XMM
	include listing.inc
	.model	flat

INCLUDELIB LIBCMT
INCLUDELIB OLDNAMES

_DATA	SEGMENT
_g_iNpcUpDfLevel_CGATE DD 01H
	DD	02H
	DD	02dc6c0H
	DD	02H
	DD	03H
	DD	02dc6c0H
	DD	03H
	DD	04H
	DD	02dc6c0H
_g_iNpcUpDfLevel_CSTATUE DD 01H
	DD	03H
	DD	02dc6c0H
	DD	02H
	DD	05H
	DD	02dc6c0H
	DD	03H
	DD	07H
	DD	02dc6c0H
_g_iNpcUpMaxHP_CGATE DD 02625a0H
	DD	02H
	DD	0f4240H
	DD	03567e0H
	DD	03H
	DD	0f4240H
	DD	04f5880H
	DD	04H
	DD	0f4240H
_g_iNpcUpMaxHP_CSTATUE DD 02191c0H
	DD	03H
	DD	0f4240H
	DD	033e140H
	DD	05H
	DD	0f4240H
	DD	04c4b40H
	DD	07H
	DD	0f4240H
_g_iNpcUpRgLevel_CSTATUE DD 01H
	DD	03H
	DD	04c4b40H
	DD	02H
	DD	05H
	DD	04c4b40H
	DD	03H
	DD	07H
	DD	04c4b40H
_g_iCsUserReSpawnArea DD 023H
	DD	011H
	DD	090H
	DD	030H
	DD	04aH
	DD	090H
	DD	073H
	DD	09aH
	DD	023H
	DD	011H
	DD	090H
	DD	030H
_g_iNpcDefense_CGATE DD 064H
	DD	0b4H
	DD	012cH
	DD	0208H
_g_iNpcDefense_CSTATUE DD 050H
	DD	0b4H
	DD	0154H
	DD	0226H
_g_iCastleWallStepAxisY DD 071H
	DD	0a0H
	DD	0cbH
_DATA	ENDS
PUBLIC	??_H@YGXPAXIHP6EPAX0@Z@Z			; `vector constructor iterator'
; Function compile flags: /Odtp /ZI
;	COMDAT ??_H@YGXPAXIHP6EPAX0@Z@Z
_TEXT	SEGMENT
___t$ = 8						; size = 4
___s$ = 12						; size = 4
___n$ = 16						; size = 4
___f$ = 20						; size = 4
??_H@YGXPAXIHP6EPAX0@Z@Z PROC				; `vector constructor iterator', COMDAT
  00000	55		 push	 ebp
  00001	8b ec		 mov	 ebp, esp
  00003	83 ec 40	 sub	 esp, 64			; 00000040H
  00006	53		 push	 ebx
  00007	56		 push	 esi
  00008	57		 push	 edi
$LN2@vector:
  00009	8b 45 10	 mov	 eax, DWORD PTR ___n$[ebp]
  0000c	83 e8 01	 sub	 eax, 1
  0000f	89 45 10	 mov	 DWORD PTR ___n$[ebp], eax
  00012	78 11		 js	 SHORT $LN3@vector
  00014	8b 4d 08	 mov	 ecx, DWORD PTR ___t$[ebp]
  00017	ff 55 14	 call	 DWORD PTR ___f$[ebp]
  0001a	8b 45 08	 mov	 eax, DWORD PTR ___t$[ebp]
  0001d	03 45 0c	 add	 eax, DWORD PTR ___s$[ebp]
  00020	89 45 08	 mov	 DWORD PTR ___t$[ebp], eax
  00023	eb e4		 jmp	 SHORT $LN2@vector
$LN3@vector:
  00025	5f		 pop	 edi
  00026	5e		 pop	 esi
  00027	5b		 pop	 ebx
  00028	8b e5		 mov	 esp, ebp
  0002a	5d		 pop	 ebp
  0002b	c2 10 00	 ret	 16			; 00000010H
??_H@YGXPAXIHP6EPAX0@Z@Z ENDP				; `vector constructor iterator'
_TEXT	ENDS
PUBLIC	??_7CSendHackLog@@6B@				; CSendHackLog::`vftable'
PUBLIC	??0CSendHackLog@@QAE@XZ				; CSendHackLog::CSendHackLog
PUBLIC	??_R4CSendHackLog@@6B@				; CSendHackLog::`RTTI Complete Object Locator'
PUBLIC	??_R0?AVCSendHackLog@@@8			; CSendHackLog `RTTI Type Descriptor'
PUBLIC	??_R3CSendHackLog@@8				; CSendHackLog::`RTTI Class Hierarchy Descriptor'
PUBLIC	??_R2CSendHackLog@@8				; CSendHackLog::`RTTI Base Class Array'
PUBLIC	??_R1A@?0A@EA@CSendHackLog@@8			; CSendHackLog::`RTTI Base Class Descriptor at (0,-1,0,64)'
EXTRN	??0WzUdp@@QAE@XZ:PROC				; WzUdp::WzUdp
EXTRN	??_7type_info@@6B@:QWORD			; type_info::`vftable'
EXTRN	??_ECSendHackLog@@UAEPAXI@Z:PROC		; CSendHackLog::`vector deleting destructor'
;	COMDAT ??_R1A@?0A@EA@CSendHackLog@@8
; File d:\projects\exteam6.3\source\gameserver\gameserver\sendhacklog.cpp
rdata$r	SEGMENT
??_R1A@?0A@EA@CSendHackLog@@8 DD FLAT:??_R0?AVCSendHackLog@@@8 ; CSendHackLog::`RTTI Base Class Descriptor at (0,-1,0,64)'
	DD	00H
	DD	00H
	DD	0ffffffffH
	DD	00H
	DD	040H
	DD	FLAT:??_R3CSendHackLog@@8
rdata$r	ENDS
;	COMDAT ??_R2CSendHackLog@@8
rdata$r	SEGMENT
??_R2CSendHackLog@@8 DD FLAT:??_R1A@?0A@EA@CSendHackLog@@8 ; CSendHackLog::`RTTI Base Class Array'
rdata$r	ENDS
;	COMDAT ??_R3CSendHackLog@@8
rdata$r	SEGMENT
??_R3CSendHackLog@@8 DD 00H				; CSendHackLog::`RTTI Class Hierarchy Descriptor'
	DD	00H
	DD	01H
	DD	FLAT:??_R2CSendHackLog@@8
rdata$r	ENDS
;	COMDAT ??_R0?AVCSendHackLog@@@8
_DATA	SEGMENT
??_R0?AVCSendHackLog@@@8 DD FLAT:??_7type_info@@6B@	; CSendHackLog `RTTI Type Descriptor'
	DD	00H
	DB	'.?AVCSendHackLog@@', 00H
_DATA	ENDS
;	COMDAT ??_R4CSendHackLog@@6B@
rdata$r	SEGMENT
??_R4CSendHackLog@@6B@ DD 00H				; CSendHackLog::`RTTI Complete Object Locator'
	DD	00H
	DD	00H
	DD	FLAT:??_R0?AVCSendHackLog@@@8
	DD	FLAT:??_R3CSendHackLog@@8
rdata$r	ENDS
;	COMDAT ??_7CSendHackLog@@6B@
CONST	SEGMENT
??_7CSendHackLog@@6B@ DD FLAT:??_R4CSendHackLog@@6B@	; CSendHackLog::`vftable'
	DD	FLAT:??_ECSendHackLog@@UAEPAXI@Z
; Function compile flags: /Odtp /ZI
CONST	ENDS
_TEXT	SEGMENT
_this$ = -4						; size = 4
??0CSendHackLog@@QAE@XZ PROC				; CSendHackLog::CSendHackLog
; _this$ = ecx

; 12   : {

  00000	55		 push	 ebp
  00001	8b ec		 mov	 ebp, esp
  00003	83 ec 44	 sub	 esp, 68			; 00000044H
  00006	53		 push	 ebx
  00007	56		 push	 esi
  00008	57		 push	 edi
  00009	89 4d fc	 mov	 DWORD PTR _this$[ebp], ecx
  0000c	8b 45 fc	 mov	 eax, DWORD PTR _this$[ebp]
  0000f	c7 00 00 00 00
	00		 mov	 DWORD PTR [eax], OFFSET ??_7CSendHackLog@@6B@
  00015	8b 4d fc	 mov	 ecx, DWORD PTR _this$[ebp]
  00018	83 c1 04	 add	 ecx, 4
  0001b	e8 00 00 00 00	 call	 ??0WzUdp@@QAE@XZ	; WzUdp::WzUdp

; 13   : 	return;
; 14   : }

  00020	8b 45 fc	 mov	 eax, DWORD PTR _this$[ebp]
  00023	5f		 pop	 edi
  00024	5e		 pop	 esi
  00025	5b		 pop	 ebx
  00026	8b e5		 mov	 esp, ebp
  00028	5d		 pop	 ebp
  00029	c3		 ret	 0
??0CSendHackLog@@QAE@XZ ENDP				; CSendHackLog::CSendHackLog
_TEXT	ENDS
PUBLIC	??1CSendHackLog@@UAE@XZ				; CSendHackLog::~CSendHackLog
EXTRN	??3@YAXPAX@Z:PROC				; operator delete
; Function compile flags: /Odtp /ZI
;	COMDAT ??_GCSendHackLog@@UAEPAXI@Z
_TEXT	SEGMENT
_this$ = -4						; size = 4
___flags$ = 8						; size = 4
??_GCSendHackLog@@UAEPAXI@Z PROC			; CSendHackLog::`scalar deleting destructor', COMDAT
; _this$ = ecx
  00000	55		 push	 ebp
  00001	8b ec		 mov	 ebp, esp
  00003	83 ec 44	 sub	 esp, 68			; 00000044H
  00006	53		 push	 ebx
  00007	56		 push	 esi
  00008	57		 push	 edi
  00009	89 4d fc	 mov	 DWORD PTR _this$[ebp], ecx
  0000c	8b 4d fc	 mov	 ecx, DWORD PTR _this$[ebp]
  0000f	e8 00 00 00 00	 call	 ??1CSendHackLog@@UAE@XZ	; CSendHackLog::~CSendHackLog
  00014	8b 45 08	 mov	 eax, DWORD PTR ___flags$[ebp]
  00017	83 e0 01	 and	 eax, 1
  0001a	74 0c		 je	 SHORT $LN1@scalar
  0001c	8b 45 fc	 mov	 eax, DWORD PTR _this$[ebp]
  0001f	50		 push	 eax
  00020	e8 00 00 00 00	 call	 ??3@YAXPAX@Z		; operator delete
  00025	83 c4 04	 add	 esp, 4
$LN1@scalar:
  00028	8b 45 fc	 mov	 eax, DWORD PTR _this$[ebp]
  0002b	5f		 pop	 edi
  0002c	5e		 pop	 esi
  0002d	5b		 pop	 ebx
  0002e	8b e5		 mov	 esp, ebp
  00030	5d		 pop	 ebp
  00031	c2 04 00	 ret	 4
??_GCSendHackLog@@UAEPAXI@Z ENDP			; CSendHackLog::`scalar deleting destructor'
_TEXT	ENDS
EXTRN	??1WzUdp@@UAE@XZ:PROC				; WzUdp::~WzUdp
; Function compile flags: /Odtp /ZI
_TEXT	SEGMENT
_this$ = -4						; size = 4
??1CSendHackLog@@UAE@XZ PROC				; CSendHackLog::~CSendHackLog
; _this$ = ecx

; 18   : {

  00030	55		 push	 ebp
  00031	8b ec		 mov	 ebp, esp
  00033	83 ec 44	 sub	 esp, 68			; 00000044H
  00036	53		 push	 ebx
  00037	56		 push	 esi
  00038	57		 push	 edi
  00039	89 4d fc	 mov	 DWORD PTR _this$[ebp], ecx
  0003c	8b 45 fc	 mov	 eax, DWORD PTR _this$[ebp]
  0003f	c7 00 00 00 00
	00		 mov	 DWORD PTR [eax], OFFSET ??_7CSendHackLog@@6B@

; 19   : 	return;
; 20   : }

  00045	8b 4d fc	 mov	 ecx, DWORD PTR _this$[ebp]
  00048	83 c1 04	 add	 ecx, 4
  0004b	e8 00 00 00 00	 call	 ??1WzUdp@@UAE@XZ	; WzUdp::~WzUdp
  00050	5f		 pop	 edi
  00051	5e		 pop	 esi
  00052	5b		 pop	 ebx
  00053	8b e5		 mov	 esp, ebp
  00055	5d		 pop	 ebp
  00056	c3		 ret	 0
??1CSendHackLog@@UAE@XZ ENDP				; CSendHackLog::~CSendHackLog
_TEXT	ENDS
PUBLIC	?SendSet@CSendHackLog@@QAEXPADH@Z		; CSendHackLog::SendSet
EXTRN	?SendSet@WzUdp@@QAEHPADH@Z:PROC			; WzUdp::SendSet
EXTRN	?CreateSocket@WzUdp@@QAEHXZ:PROC		; WzUdp::CreateSocket
; Function compile flags: /Odtp /ZI
_TEXT	SEGMENT
_this$ = -4						; size = 4
_ip$ = 8						; size = 4
_port$ = 12						; size = 4
?SendSet@CSendHackLog@@QAEXPADH@Z PROC			; CSendHackLog::SendSet
; _this$ = ecx

; 24   : {

  00060	55		 push	 ebp
  00061	8b ec		 mov	 ebp, esp
  00063	83 ec 44	 sub	 esp, 68			; 00000044H
  00066	53		 push	 ebx
  00067	56		 push	 esi
  00068	57		 push	 edi
  00069	89 4d fc	 mov	 DWORD PTR _this$[ebp], ecx

; 25   : 	this->m_UdpSocCHackLog.CreateSocket();

  0006c	8b 4d fc	 mov	 ecx, DWORD PTR _this$[ebp]
  0006f	83 c1 04	 add	 ecx, 4
  00072	e8 00 00 00 00	 call	 ?CreateSocket@WzUdp@@QAEHXZ ; WzUdp::CreateSocket

; 26   : 	this->m_UdpSocCHackLog.SendSet(ip, port);

  00077	8b 45 0c	 mov	 eax, DWORD PTR _port$[ebp]
  0007a	50		 push	 eax
  0007b	8b 4d 08	 mov	 ecx, DWORD PTR _ip$[ebp]
  0007e	51		 push	 ecx
  0007f	8b 4d fc	 mov	 ecx, DWORD PTR _this$[ebp]
  00082	83 c1 04	 add	 ecx, 4
  00085	e8 00 00 00 00	 call	 ?SendSet@WzUdp@@QAEHPADH@Z ; WzUdp::SendSet

; 27   : }

  0008a	5f		 pop	 edi
  0008b	5e		 pop	 esi
  0008c	5b		 pop	 ebx
  0008d	8b e5		 mov	 esp, ebp
  0008f	5d		 pop	 ebp
  00090	c2 08 00	 ret	 8
?SendSet@CSendHackLog@@QAEXPADH@Z ENDP			; CSendHackLog::SendSet
_TEXT	ENDS
PUBLIC	__$ArrayPad$
PUBLIC	?Send@CSendHackLog@@QAEXHEPAD@Z			; CSendHackLog::Send
EXTRN	?SendData@WzUdp@@QAEHPAEK@Z:PROC		; WzUdp::SendData
EXTRN	_memcpy:PROC
EXTRN	?gObj@@3PAUOBJECTSTRUCT@@A:DWORD		; gObj
EXTRN	?gGameServerCode@@3FA:WORD			; gGameServerCode
EXTRN	?PHeadSetB@@YAXPAEEH@Z:PROC			; PHeadSetB
EXTRN	___security_cookie:DWORD
EXTRN	@__security_check_cookie@4:PROC
; Function compile flags: /Odtp /ZI
_TEXT	SEGMENT
_Msg$ = -88						; size = 80
_this$ = -8						; size = 4
__$ArrayPad$ = -4					; size = 4
_aIndex$ = 8						; size = 4
_type$ = 12						; size = 1
_Context$ = 16						; size = 4
?Send@CSendHackLog@@QAEXHEPAD@Z PROC			; CSendHackLog::Send
; _this$ = ecx

; 40   : {

  000a0	55		 push	 ebp
  000a1	8b ec		 mov	 ebp, esp
  000a3	81 ec 98 00 00
	00		 sub	 esp, 152		; 00000098H
  000a9	a1 00 00 00 00	 mov	 eax, DWORD PTR ___security_cookie
  000ae	33 c5		 xor	 eax, ebp
  000b0	89 45 fc	 mov	 DWORD PTR __$ArrayPad$[ebp], eax
  000b3	53		 push	 ebx
  000b4	56		 push	 esi
  000b5	57		 push	 edi
  000b6	89 4d f8	 mov	 DWORD PTR _this$[ebp], ecx

; 41   : 	PMSG_HACK_LOG Msg;
; 42   : 	
; 43   : 	PHeadSetB((LPBYTE)&Msg, 0x01, sizeof(Msg) );

  000b9	6a 50		 push	 80			; 00000050H
  000bb	6a 01		 push	 1
  000bd	8d 45 a8	 lea	 eax, DWORD PTR _Msg$[ebp]
  000c0	50		 push	 eax
  000c1	e8 00 00 00 00	 call	 ?PHeadSetB@@YAXPAEEH@Z	; PHeadSetB
  000c6	83 c4 0c	 add	 esp, 12			; 0000000cH

; 44   : 	Msg.wServer = gGameServerCode;

  000c9	66 a1 00 00 00
	00		 mov	 ax, WORD PTR ?gGameServerCode@@3FA ; gGameServerCode
  000cf	66 89 45 ac	 mov	 WORD PTR _Msg$[ebp+4], ax

; 45   : 	memcpy(Msg.AccountID, gObj[aIndex].AccountID , MAX_ACCOUNT_LEN );

  000d3	6a 0a		 push	 10			; 0000000aH
  000d5	8b 45 08	 mov	 eax, DWORD PTR _aIndex$[ebp]
  000d8	69 c0 38 2b 00
	00		 imul	 eax, 11064		; 00002b38H
  000de	8b 0d 00 00 00
	00		 mov	 ecx, DWORD PTR ?gObj@@3PAUOBJECTSTRUCT@@A ; gObj
  000e4	8d 54 01 6c	 lea	 edx, DWORD PTR [ecx+eax+108]
  000e8	52		 push	 edx
  000e9	8d 45 ae	 lea	 eax, DWORD PTR _Msg$[ebp+6]
  000ec	50		 push	 eax
  000ed	e8 00 00 00 00	 call	 _memcpy
  000f2	83 c4 0c	 add	 esp, 12			; 0000000cH

; 46   : 	memcpy(Msg.Name, gObj[aIndex].Name, MAX_ACCOUNT_LEN );

  000f5	6a 0a		 push	 10			; 0000000aH
  000f7	8b 45 08	 mov	 eax, DWORD PTR _aIndex$[ebp]
  000fa	69 c0 38 2b 00
	00		 imul	 eax, 11064		; 00002b38H
  00100	8b 0d 00 00 00
	00		 mov	 ecx, DWORD PTR ?gObj@@3PAUOBJECTSTRUCT@@A ; gObj
  00106	8d 54 01 77	 lea	 edx, DWORD PTR [ecx+eax+119]
  0010a	52		 push	 edx
  0010b	8d 45 b9	 lea	 eax, DWORD PTR _Msg$[ebp+17]
  0010e	50		 push	 eax
  0010f	e8 00 00 00 00	 call	 _memcpy
  00114	83 c4 0c	 add	 esp, 12			; 0000000cH

; 47   : 	Msg.AccountID[MAX_ACCOUNT_LEN] = 0;

  00117	c6 45 b8 00	 mov	 BYTE PTR _Msg$[ebp+16], 0

; 48   : 	Msg.Name[MAX_ACCOUNT_LEN] = 0;

  0011b	c6 45 c3 00	 mov	 BYTE PTR _Msg$[ebp+27], 0

; 49   : 	Msg.btType = type;

  0011f	8a 45 0c	 mov	 al, BYTE PTR _type$[ebp]
  00122	88 45 c4	 mov	 BYTE PTR _Msg$[ebp+28], al

; 50   : 	memcpy(Msg.szPacketContext, Context, sizeof(Msg.szPacketContext) );

  00125	6a 32		 push	 50			; 00000032H
  00127	8b 45 10	 mov	 eax, DWORD PTR _Context$[ebp]
  0012a	50		 push	 eax
  0012b	8d 4d c5	 lea	 ecx, DWORD PTR _Msg$[ebp+29]
  0012e	51		 push	 ecx
  0012f	e8 00 00 00 00	 call	 _memcpy
  00134	83 c4 0c	 add	 esp, 12			; 0000000cH

; 51   : 
; 52   : 	this->m_UdpSocCHackLog.SendData((LPBYTE)&Msg, sizeof(Msg) );

  00137	6a 50		 push	 80			; 00000050H
  00139	8d 45 a8	 lea	 eax, DWORD PTR _Msg$[ebp]
  0013c	50		 push	 eax
  0013d	8b 4d f8	 mov	 ecx, DWORD PTR _this$[ebp]
  00140	83 c1 04	 add	 ecx, 4
  00143	e8 00 00 00 00	 call	 ?SendData@WzUdp@@QAEHPAEK@Z ; WzUdp::SendData

; 53   : }

  00148	5f		 pop	 edi
  00149	5e		 pop	 esi
  0014a	5b		 pop	 ebx
  0014b	8b 4d fc	 mov	 ecx, DWORD PTR __$ArrayPad$[ebp]
  0014e	33 cd		 xor	 ecx, ebp
  00150	e8 00 00 00 00	 call	 @__security_check_cookie@4
  00155	8b e5		 mov	 esp, ebp
  00157	5d		 pop	 ebp
  00158	c2 0c 00	 ret	 12			; 0000000cH
?Send@CSendHackLog@@QAEXHEPAD@Z ENDP			; CSendHackLog::Send
_TEXT	ENDS
PUBLIC	?SendData@CSendHackLog@@QAEHPAEK@Z		; CSendHackLog::SendData
; Function compile flags: /Odtp /ZI
_TEXT	SEGMENT
_this$ = -4						; size = 4
_SendData$ = 8						; size = 4
_nSendDataLen$ = 12					; size = 4
?SendData@CSendHackLog@@QAEHPAEK@Z PROC			; CSendHackLog::SendData
; _this$ = ecx

; 57   : {

  00160	55		 push	 ebp
  00161	8b ec		 mov	 ebp, esp
  00163	83 ec 44	 sub	 esp, 68			; 00000044H
  00166	53		 push	 ebx
  00167	56		 push	 esi
  00168	57		 push	 edi
  00169	89 4d fc	 mov	 DWORD PTR _this$[ebp], ecx

; 58   : 	return this->m_UdpSocCHackLog.SendData(SendData, nSendDataLen);

  0016c	8b 45 0c	 mov	 eax, DWORD PTR _nSendDataLen$[ebp]
  0016f	50		 push	 eax
  00170	8b 4d 08	 mov	 ecx, DWORD PTR _SendData$[ebp]
  00173	51		 push	 ecx
  00174	8b 4d fc	 mov	 ecx, DWORD PTR _this$[ebp]
  00177	83 c1 04	 add	 ecx, 4
  0017a	e8 00 00 00 00	 call	 ?SendData@WzUdp@@QAEHPAEK@Z ; WzUdp::SendData

; 59   : }

  0017f	5f		 pop	 edi
  00180	5e		 pop	 esi
  00181	5b		 pop	 ebx
  00182	8b e5		 mov	 esp, ebp
  00184	5d		 pop	 ebp
  00185	c2 08 00	 ret	 8
?SendData@CSendHackLog@@QAEHPAEK@Z ENDP			; CSendHackLog::SendData
_TEXT	ENDS
EXTRN	_atexit:PROC
; Function compile flags: /Odtp /ZI
;	COMDAT ??__EgSendHackLog@@YAXXZ
text$yc	SEGMENT
??__EgSendHackLog@@YAXXZ PROC				; `dynamic initializer for 'gSendHackLog'', COMDAT

; 8    : CSendHackLog gSendHackLog;

  00000	55		 push	 ebp
  00001	8b ec		 mov	 ebp, esp
  00003	83 ec 40	 sub	 esp, 64			; 00000040H
  00006	53		 push	 ebx
  00007	56		 push	 esi
  00008	57		 push	 edi
  00009	b9 00 00 00 00	 mov	 ecx, OFFSET ?gSendHackLog@@3VCSendHackLog@@A ; gSendHackLog
  0000e	e8 00 00 00 00	 call	 ??0CSendHackLog@@QAE@XZ	; CSendHackLog::CSendHackLog
  00013	68 00 00 00 00	 push	 OFFSET ??__FgSendHackLog@@YAXXZ ; `dynamic atexit destructor for 'gSendHackLog''
  00018	e8 00 00 00 00	 call	 _atexit
  0001d	83 c4 04	 add	 esp, 4
  00020	5f		 pop	 edi
  00021	5e		 pop	 esi
  00022	5b		 pop	 ebx
  00023	8b e5		 mov	 esp, ebp
  00025	5d		 pop	 ebp
  00026	c3		 ret	 0
??__EgSendHackLog@@YAXXZ ENDP				; `dynamic initializer for 'gSendHackLog''
; Function compile flags: /Odtp /ZI
text$yc	ENDS
;	COMDAT ??__FgSendHackLog@@YAXXZ
text$yd	SEGMENT
??__FgSendHackLog@@YAXXZ PROC				; `dynamic atexit destructor for 'gSendHackLog'', COMDAT
  00000	55		 push	 ebp
  00001	8b ec		 mov	 ebp, esp
  00003	83 ec 40	 sub	 esp, 64			; 00000040H
  00006	53		 push	 ebx
  00007	56		 push	 esi
  00008	57		 push	 edi
  00009	b9 00 00 00 00	 mov	 ecx, OFFSET ?gSendHackLog@@3VCSendHackLog@@A ; gSendHackLog
  0000e	e8 00 00 00 00	 call	 ??1CSendHackLog@@UAE@XZ	; CSendHackLog::~CSendHackLog
  00013	5f		 pop	 edi
  00014	5e		 pop	 esi
  00015	5b		 pop	 ebx
  00016	8b e5		 mov	 esp, ebp
  00018	5d		 pop	 ebp
  00019	c3		 ret	 0
??__FgSendHackLog@@YAXXZ ENDP				; `dynamic atexit destructor for 'gSendHackLog''
text$yd	ENDS
PUBLIC	?gSendHackLog@@3VCSendHackLog@@A		; gSendHackLog
_BSS	SEGMENT
?gSendHackLog@@3VCSendHackLog@@A DB 0864H DUP (?)	; gSendHackLog
_BSS	ENDS
CRT$XCU	SEGMENT
_gSendHackLog$initializer$ DD FLAT:??__EgSendHackLog@@YAXXZ
CRT$XCU	ENDS
END
