; Listing generated by Microsoft (R) Optimizing Compiler Version 16.00.40219.01 

	TITLE	D:\Projects\ExTeam6.3\Source\GameServer\GameServer\Shop.cpp
	.686P
	.XMM
	include listing.inc
	.model	flat

INCLUDELIB LIBCMT
INCLUDELIB OLDNAMES

_DATA	SEGMENT
_g_iNpcUpDfLevel_CGATE DD 01H
	DD	02H
	DD	02dc6c0H
	DD	02H
	DD	03H
	DD	02dc6c0H
	DD	03H
	DD	04H
	DD	02dc6c0H
_g_iNpcUpDfLevel_CSTATUE DD 01H
	DD	03H
	DD	02dc6c0H
	DD	02H
	DD	05H
	DD	02dc6c0H
	DD	03H
	DD	07H
	DD	02dc6c0H
_g_iNpcUpMaxHP_CGATE DD 02625a0H
	DD	02H
	DD	0f4240H
	DD	03567e0H
	DD	03H
	DD	0f4240H
	DD	04f5880H
	DD	04H
	DD	0f4240H
_g_iNpcUpMaxHP_CSTATUE DD 02191c0H
	DD	03H
	DD	0f4240H
	DD	033e140H
	DD	05H
	DD	0f4240H
	DD	04c4b40H
	DD	07H
	DD	0f4240H
_g_iNpcUpRgLevel_CSTATUE DD 01H
	DD	03H
	DD	04c4b40H
	DD	02H
	DD	05H
	DD	04c4b40H
	DD	03H
	DD	07H
	DD	04c4b40H
_g_iCsUserReSpawnArea DD 023H
	DD	011H
	DD	090H
	DD	030H
	DD	04aH
	DD	090H
	DD	073H
	DD	09aH
	DD	023H
	DD	011H
	DD	090H
	DD	030H
_g_iNpcDefense_CGATE DD 064H
	DD	0b4H
	DD	012cH
	DD	0208H
_g_iNpcDefense_CSTATUE DD 050H
	DD	0b4H
	DD	0154H
	DD	0226H
_g_iCastleWallStepAxisY DD 071H
	DD	0a0H
	DD	0cbH
_DATA	ENDS
PUBLIC	??_H@YGXPAXIHP6EPAX0@Z@Z			; `vector constructor iterator'
; Function compile flags: /Odtp /ZI
;	COMDAT ??_H@YGXPAXIHP6EPAX0@Z@Z
_TEXT	SEGMENT
___t$ = 8						; size = 4
___s$ = 12						; size = 4
___n$ = 16						; size = 4
___f$ = 20						; size = 4
??_H@YGXPAXIHP6EPAX0@Z@Z PROC				; `vector constructor iterator', COMDAT
  00000	55		 push	 ebp
  00001	8b ec		 mov	 ebp, esp
  00003	83 ec 40	 sub	 esp, 64			; 00000040H
  00006	53		 push	 ebx
  00007	56		 push	 esi
  00008	57		 push	 edi
$LN2@vector:
  00009	8b 45 10	 mov	 eax, DWORD PTR ___n$[ebp]
  0000c	83 e8 01	 sub	 eax, 1
  0000f	89 45 10	 mov	 DWORD PTR ___n$[ebp], eax
  00012	78 11		 js	 SHORT $LN3@vector
  00014	8b 4d 08	 mov	 ecx, DWORD PTR ___t$[ebp]
  00017	ff 55 14	 call	 DWORD PTR ___f$[ebp]
  0001a	8b 45 08	 mov	 eax, DWORD PTR ___t$[ebp]
  0001d	03 45 0c	 add	 eax, DWORD PTR ___s$[ebp]
  00020	89 45 08	 mov	 DWORD PTR ___t$[ebp], eax
  00023	eb e4		 jmp	 SHORT $LN2@vector
$LN3@vector:
  00025	5f		 pop	 edi
  00026	5e		 pop	 esi
  00027	5b		 pop	 ebx
  00028	8b e5		 mov	 esp, ebp
  0002a	5d		 pop	 ebp
  0002b	c2 10 00	 ret	 16			; 00000010H
??_H@YGXPAXIHP6EPAX0@Z@Z ENDP				; `vector constructor iterator'
_TEXT	ENDS
PUBLIC	??_7CShop@@6B@					; CShop::`vftable'
PUBLIC	??0CShop@@QAE@XZ				; CShop::CShop
PUBLIC	??_R4CShop@@6B@					; CShop::`RTTI Complete Object Locator'
PUBLIC	??_R0?AVCShop@@@8				; CShop `RTTI Type Descriptor'
PUBLIC	??_R3CShop@@8					; CShop::`RTTI Class Hierarchy Descriptor'
PUBLIC	??_R2CShop@@8					; CShop::`RTTI Base Class Array'
PUBLIC	??_R1A@?0A@EA@CShop@@8				; CShop::`RTTI Base Class Descriptor at (0,-1,0,64)'
EXTRN	??0CItem@@QAE@XZ:PROC				; CItem::CItem
EXTRN	??_7type_info@@6B@:QWORD			; type_info::`vftable'
EXTRN	??_ECShop@@UAEPAXI@Z:PROC			; CShop::`vector deleting destructor'
;	COMDAT ??_R1A@?0A@EA@CShop@@8
; File d:\projects\exteam6.3\source\gameserver\gameserver\shop.cpp
rdata$r	SEGMENT
??_R1A@?0A@EA@CShop@@8 DD FLAT:??_R0?AVCShop@@@8	; CShop::`RTTI Base Class Descriptor at (0,-1,0,64)'
	DD	00H
	DD	00H
	DD	0ffffffffH
	DD	00H
	DD	040H
	DD	FLAT:??_R3CShop@@8
rdata$r	ENDS
;	COMDAT ??_R2CShop@@8
rdata$r	SEGMENT
??_R2CShop@@8 DD FLAT:??_R1A@?0A@EA@CShop@@8		; CShop::`RTTI Base Class Array'
rdata$r	ENDS
;	COMDAT ??_R3CShop@@8
rdata$r	SEGMENT
??_R3CShop@@8 DD 00H					; CShop::`RTTI Class Hierarchy Descriptor'
	DD	00H
	DD	01H
	DD	FLAT:??_R2CShop@@8
rdata$r	ENDS
;	COMDAT ??_R0?AVCShop@@@8
_DATA	SEGMENT
??_R0?AVCShop@@@8 DD FLAT:??_7type_info@@6B@		; CShop `RTTI Type Descriptor'
	DD	00H
	DB	'.?AVCShop@@', 00H
_DATA	ENDS
;	COMDAT ??_R4CShop@@6B@
rdata$r	SEGMENT
??_R4CShop@@6B@ DD 00H					; CShop::`RTTI Complete Object Locator'
	DD	00H
	DD	00H
	DD	FLAT:??_R0?AVCShop@@@8
	DD	FLAT:??_R3CShop@@8
rdata$r	ENDS
;	COMDAT ??_7CShop@@6B@
CONST	SEGMENT
??_7CShop@@6B@ DD FLAT:??_R4CShop@@6B@			; CShop::`vftable'
	DD	FLAT:??_ECShop@@UAEPAXI@Z
; Function compile flags: /Odtp /ZI
CONST	ENDS
_TEXT	SEGMENT
_this$ = -4						; size = 4
??0CShop@@QAE@XZ PROC					; CShop::CShop
; _this$ = ecx

; 22   : {

  00000	55		 push	 ebp
  00001	8b ec		 mov	 ebp, esp
  00003	83 ec 44	 sub	 esp, 68			; 00000044H
  00006	53		 push	 ebx
  00007	56		 push	 esi
  00008	57		 push	 edi
  00009	89 4d fc	 mov	 DWORD PTR _this$[ebp], ecx
  0000c	8b 45 fc	 mov	 eax, DWORD PTR _this$[ebp]
  0000f	c7 00 00 00 00
	00		 mov	 DWORD PTR [eax], OFFSET ??_7CShop@@6B@
  00015	68 00 00 00 00	 push	 OFFSET ??0CItem@@QAE@XZ	; CItem::CItem
  0001a	6a 78		 push	 120			; 00000078H
  0001c	68 d4 00 00 00	 push	 212			; 000000d4H
  00021	8b 45 fc	 mov	 eax, DWORD PTR _this$[ebp]
  00024	05 80 00 00 00	 add	 eax, 128		; 00000080H
  00029	50		 push	 eax
  0002a	e8 00 00 00 00	 call	 ??_H@YGXPAXIHP6EPAX0@Z@Z

; 23   : 	return;
; 24   : }

  0002f	8b 45 fc	 mov	 eax, DWORD PTR _this$[ebp]
  00032	5f		 pop	 edi
  00033	5e		 pop	 esi
  00034	5b		 pop	 ebx
  00035	8b e5		 mov	 esp, ebp
  00037	5d		 pop	 ebp
  00038	c3		 ret	 0
??0CShop@@QAE@XZ ENDP					; CShop::CShop
_TEXT	ENDS
PUBLIC	??1CShop@@UAE@XZ				; CShop::~CShop
EXTRN	??3@YAXPAX@Z:PROC				; operator delete
; Function compile flags: /Odtp /ZI
;	COMDAT ??_GCShop@@UAEPAXI@Z
_TEXT	SEGMENT
_this$ = -4						; size = 4
___flags$ = 8						; size = 4
??_GCShop@@UAEPAXI@Z PROC				; CShop::`scalar deleting destructor', COMDAT
; _this$ = ecx
  00000	55		 push	 ebp
  00001	8b ec		 mov	 ebp, esp
  00003	83 ec 44	 sub	 esp, 68			; 00000044H
  00006	53		 push	 ebx
  00007	56		 push	 esi
  00008	57		 push	 edi
  00009	89 4d fc	 mov	 DWORD PTR _this$[ebp], ecx
  0000c	8b 4d fc	 mov	 ecx, DWORD PTR _this$[ebp]
  0000f	e8 00 00 00 00	 call	 ??1CShop@@UAE@XZ	; CShop::~CShop
  00014	8b 45 08	 mov	 eax, DWORD PTR ___flags$[ebp]
  00017	83 e0 01	 and	 eax, 1
  0001a	74 0c		 je	 SHORT $LN1@scalar
  0001c	8b 45 fc	 mov	 eax, DWORD PTR _this$[ebp]
  0001f	50		 push	 eax
  00020	e8 00 00 00 00	 call	 ??3@YAXPAX@Z		; operator delete
  00025	83 c4 04	 add	 esp, 4
$LN1@scalar:
  00028	8b 45 fc	 mov	 eax, DWORD PTR _this$[ebp]
  0002b	5f		 pop	 edi
  0002c	5e		 pop	 esi
  0002d	5b		 pop	 ebx
  0002e	8b e5		 mov	 esp, ebp
  00030	5d		 pop	 ebp
  00031	c2 04 00	 ret	 4
??_GCShop@@UAEPAXI@Z ENDP				; CShop::`scalar deleting destructor'
; Function compile flags: /Odtp /ZI
_TEXT	ENDS
_TEXT	SEGMENT
_this$ = -4						; size = 4
??1CShop@@UAE@XZ PROC					; CShop::~CShop
; _this$ = ecx

; 28   : {

  00040	55		 push	 ebp
  00041	8b ec		 mov	 ebp, esp
  00043	83 ec 44	 sub	 esp, 68			; 00000044H
  00046	53		 push	 ebx
  00047	56		 push	 esi
  00048	57		 push	 edi
  00049	89 4d fc	 mov	 DWORD PTR _this$[ebp], ecx
  0004c	8b 45 fc	 mov	 eax, DWORD PTR _this$[ebp]
  0004f	c7 00 00 00 00
	00		 mov	 DWORD PTR [eax], OFFSET ??_7CShop@@6B@

; 29   : 	return;
; 30   : }

  00055	5f		 pop	 edi
  00056	5e		 pop	 esi
  00057	5b		 pop	 ebx
  00058	8b e5		 mov	 esp, ebp
  0005a	5d		 pop	 ebp
  0005b	c3		 ret	 0
??1CShop@@UAE@XZ ENDP					; CShop::~CShop
_TEXT	ENDS
PUBLIC	?Init@CShop@@QAEXXZ				; CShop::Init
EXTRN	_memset:PROC
; Function compile flags: /Odtp /ZI
_TEXT	SEGMENT
_this$ = -4						; size = 4
?Init@CShop@@QAEXXZ PROC				; CShop::Init
; _this$ = ecx

; 33   : {

  00060	55		 push	 ebp
  00061	8b ec		 mov	 ebp, esp
  00063	83 ec 44	 sub	 esp, 68			; 00000044H
  00066	53		 push	 ebx
  00067	56		 push	 esi
  00068	57		 push	 edi
  00069	89 4d fc	 mov	 DWORD PTR _this$[ebp], ecx

; 34   : 	this->SendItemDataLen = 0;

  0006c	8b 45 fc	 mov	 eax, DWORD PTR _this$[ebp]
  0006f	c7 80 f8 69 00
	00 00 00 00 00	 mov	 DWORD PTR [eax+27128], 0

; 35   : 	this->ItemCount = 0;

  00079	8b 45 fc	 mov	 eax, DWORD PTR _this$[ebp]
  0007c	c7 40 7c 00 00
	00 00		 mov	 DWORD PTR [eax+124], 0

; 36   : 	memset(this->ShopInventoryMap, 0, sizeof(this->ShopInventoryMap));

  00083	6a 78		 push	 120			; 00000078H
  00085	6a 00		 push	 0
  00087	8b 45 fc	 mov	 eax, DWORD PTR _this$[ebp]
  0008a	83 c0 04	 add	 eax, 4
  0008d	50		 push	 eax
  0008e	e8 00 00 00 00	 call	 _memset
  00093	83 c4 0c	 add	 esp, 12			; 0000000cH

; 37   : #if(DONATE_SHOP==TRUE)
; 38   : 	ZeroMemory(&ShopEx,sizeof(ShopEx));

  00096	68 a0 05 00 00	 push	 1440			; 000005a0H
  0009b	6a 00		 push	 0
  0009d	8b 45 fc	 mov	 eax, DWORD PTR _this$[ebp]
  000a0	05 fc 69 00 00	 add	 eax, 27132		; 000069fcH
  000a5	50		 push	 eax
  000a6	e8 00 00 00 00	 call	 _memset
  000ab	83 c4 0c	 add	 esp, 12			; 0000000cH

; 39   : #endif
; 40   : }

  000ae	5f		 pop	 edi
  000af	5e		 pop	 esi
  000b0	5b		 pop	 ebx
  000b1	8b e5		 mov	 esp, ebp
  000b3	5d		 pop	 ebp
  000b4	c3		 ret	 0
?Init@CShop@@QAEXXZ ENDP				; CShop::Init
_TEXT	ENDS
PUBLIC	??_C@_0BB@FOBLMGCK@error?9L2?5?3?5?$CFs?5?$CFd?$AA@ ; `string'
PUBLIC	?InentoryMapCheck@CShop@@QAEHHHHH@Z		; CShop::InentoryMapCheck
PUBLIC	??_C@_0DM@JHJFDNLI@d?3?2projects?2exteam6?43?2source?2gam@ ; `string'
PUBLIC	?__LINE__Var@?1??InsertItem@CShop@@QAEHHHHHHHHHH@Z@4JA ; `CShop::InsertItem'::`2'::__LINE__Var
PUBLIC	?InsertItem@CShop@@QAEHHHHHHHHHH@Z		; CShop::InsertItem
EXTRN	?ItemByteConvert@@YAXPAEVCItem@@@Z:PROC		; ItemByteConvert
EXTRN	?ClearSlotOption@CSocketOption@@QAEXPAVCItem@@E@Z:PROC ; CSocketOption::ClearSlotOption
EXTRN	?g_iShopBuySocketItemSlotCount@@3HA:DWORD	; g_iShopBuySocketItemSlotCount
EXTRN	?CheckItemType@CSocketOption@@QAEEH@Z:PROC	; CSocketOption::CheckItemType
EXTRN	?g_SocketOption@@3VCSocketOption@@A:BYTE	; g_SocketOption
EXTRN	?Value@CItem@@QAEXXZ:PROC			; CItem::Value
EXTRN	?Convert@CItem@@QAEXHEEEEEEPAEEEE@Z:PROC	; CItem::Convert
EXTRN	?ItemGetDurability@@YAHHHHH@Z:PROC		; ItemGetDurability
EXTRN	?ItemGetSize@@YAXHAAH0@Z:PROC			; ItemGetSize
EXTRN	?MsgBox@@YAXPADZZ:PROC				; MsgBox
EXTRN	?Get@CMsg@@QAEPADH@Z:PROC			; CMsg::Get
EXTRN	?lMsg@@3VCMsg@@A:BYTE				; lMsg
EXTRN	__fltused:DWORD
;	COMDAT ??_C@_0BB@FOBLMGCK@error?9L2?5?3?5?$CFs?5?$CFd?$AA@
CONST	SEGMENT
??_C@_0BB@FOBLMGCK@error?9L2?5?3?5?$CFs?5?$CFd?$AA@ DB 'error-L2 : %s %d', 00H ; `string'
CONST	ENDS
;	COMDAT ??_C@_0DM@JHJFDNLI@d?3?2projects?2exteam6?43?2source?2gam@
CONST	SEGMENT
??_C@_0DM@JHJFDNLI@d?3?2projects?2exteam6?43?2source?2gam@ DB 'd:\project'
	DB	's\exteam6.3\source\gameserver\gameserver\shop.cpp', 00H ; `string'
CONST	ENDS
;	COMDAT ?__LINE__Var@?1??InsertItem@CShop@@QAEHHHHHHHHHH@Z@4JA
_DATA	SEGMENT
?__LINE__Var@?1??InsertItem@CShop@@QAEHHHHHHHHHH@Z@4JA DD 02bH ; `CShop::InsertItem'::`2'::__LINE__Var
; Function compile flags: /Odtp /ZI
_DATA	ENDS
_TEXT	SEGMENT
_blank$ = -28						; size = 4
_y$ = -24						; size = 4
_x$ = -20						; size = 4
_height$ = -16						; size = 4
_width$ = -12						; size = 4
_itemp$ = -8						; size = 4
_this$ = -4						; size = 4
_type$ = 8						; size = 4
_index$ = 12						; size = 4
_level$ = 16						; size = 4
_dur$ = 20						; size = 4
_op1$ = 24						; size = 4
_op2$ = 28						; size = 4
_op3$ = 32						; size = 4
_Excellent$ = 36					; size = 4
_Ancient$ = 40						; size = 4
?InsertItem@CShop@@QAEHHHHHHHHHH@Z PROC			; CShop::InsertItem
; _this$ = ecx

; 43   : {

  000c0	55		 push	 ebp
  000c1	8b ec		 mov	 ebp, esp
  000c3	83 ec 5c	 sub	 esp, 92			; 0000005cH
  000c6	53		 push	 ebx
  000c7	56		 push	 esi
  000c8	57		 push	 edi
  000c9	89 4d fc	 mov	 DWORD PTR _this$[ebp], ecx

; 44   : 	int itemp;
; 45   : 	int width;
; 46   : 	int height;
; 47   : 	int x;
; 48   : 	int y;
; 49   : 	int blank;
; 50   : 
; 51   : 	blank = -1;

  000cc	c7 45 e4 ff ff
	ff ff		 mov	 DWORD PTR _blank$[ebp], -1

; 52   : 	itemp = type * MAX_SUBTYPE_ITEMS + index;

  000d3	8b 45 08	 mov	 eax, DWORD PTR _type$[ebp]
  000d6	c1 e0 09	 shl	 eax, 9
  000d9	03 45 0c	 add	 eax, DWORD PTR _index$[ebp]
  000dc	89 45 f8	 mov	 DWORD PTR _itemp$[ebp], eax

; 53   : 	
; 54   : 	if ( itemp < 0 )

  000df	79 36		 jns	 SHORT $LN15@InsertItem

; 55   : 	{
; 56   : 		MsgBox(lMsg.Get(MSGGET(2, 53)), __FILE__, __LINE__, type, index);

  000e1	8b 45 0c	 mov	 eax, DWORD PTR _index$[ebp]
  000e4	50		 push	 eax
  000e5	8b 4d 08	 mov	 ecx, DWORD PTR _type$[ebp]
  000e8	51		 push	 ecx
  000e9	8b 15 00 00 00
	00		 mov	 edx, DWORD PTR ?__LINE__Var@?1??InsertItem@CShop@@QAEHHHHHHHHHH@Z@4JA
  000ef	83 c2 0d	 add	 edx, 13			; 0000000dH
  000f2	52		 push	 edx
  000f3	68 00 00 00 00	 push	 OFFSET ??_C@_0DM@JHJFDNLI@d?3?2projects?2exteam6?43?2source?2gam@
  000f8	68 35 02 00 00	 push	 565			; 00000235H
  000fd	b9 00 00 00 00	 mov	 ecx, OFFSET ?lMsg@@3VCMsg@@A ; lMsg
  00102	e8 00 00 00 00	 call	 ?Get@CMsg@@QAEPADH@Z	; CMsg::Get
  00107	50		 push	 eax
  00108	e8 00 00 00 00	 call	 ?MsgBox@@YAXPADZZ	; MsgBox
  0010d	83 c4 14	 add	 esp, 20			; 00000014H

; 57   : 		return false;

  00110	33 c0		 xor	 eax, eax
  00112	e9 5f 02 00 00	 jmp	 $LN16@InsertItem
$LN15@InsertItem:

; 58   : 	}
; 59   : 	
; 60   : 	ItemGetSize(itemp, width, height);

  00117	8d 45 f0	 lea	 eax, DWORD PTR _height$[ebp]
  0011a	50		 push	 eax
  0011b	8d 4d f4	 lea	 ecx, DWORD PTR _width$[ebp]
  0011e	51		 push	 ecx
  0011f	8b 55 f8	 mov	 edx, DWORD PTR _itemp$[ebp]
  00122	52		 push	 edx
  00123	e8 00 00 00 00	 call	 ?ItemGetSize@@YAXHAAH0@Z ; ItemGetSize
  00128	83 c4 0c	 add	 esp, 12			; 0000000cH

; 61   : 
; 62   : 	if ( width < 0 || height < 0 )

  0012b	83 7d f4 00	 cmp	 DWORD PTR _width$[ebp], 0
  0012f	7c 06		 jl	 SHORT $LN13@InsertItem
  00131	83 7d f0 00	 cmp	 DWORD PTR _height$[ebp], 0
  00135	7d 2d		 jge	 SHORT $LN14@InsertItem
$LN13@InsertItem:

; 63   : 	{
; 64   : 		MsgBox(lMsg.Get(MSGGET(2, 54)), __FILE__, __LINE__);

  00137	a1 00 00 00 00	 mov	 eax, DWORD PTR ?__LINE__Var@?1??InsertItem@CShop@@QAEHHHHHHHHHH@Z@4JA
  0013c	83 c0 15	 add	 eax, 21			; 00000015H
  0013f	50		 push	 eax
  00140	68 00 00 00 00	 push	 OFFSET ??_C@_0DM@JHJFDNLI@d?3?2projects?2exteam6?43?2source?2gam@
  00145	68 36 02 00 00	 push	 566			; 00000236H
  0014a	b9 00 00 00 00	 mov	 ecx, OFFSET ?lMsg@@3VCMsg@@A ; lMsg
  0014f	e8 00 00 00 00	 call	 ?Get@CMsg@@QAEPADH@Z	; CMsg::Get
  00154	50		 push	 eax
  00155	e8 00 00 00 00	 call	 ?MsgBox@@YAXPADZZ	; MsgBox
  0015a	83 c4 0c	 add	 esp, 12			; 0000000cH

; 65   : 		return FALSE;

  0015d	33 c0		 xor	 eax, eax
  0015f	e9 12 02 00 00	 jmp	 $LN16@InsertItem
$LN14@InsertItem:

; 66   : 	}
; 67   : 
; 68   : 	for ( y=0;y<15;y++)

  00164	c7 45 e8 00 00
	00 00		 mov	 DWORD PTR _y$[ebp], 0
  0016b	eb 09		 jmp	 SHORT $LN12@InsertItem
$LN11@InsertItem:
  0016d	8b 45 e8	 mov	 eax, DWORD PTR _y$[ebp]
  00170	83 c0 01	 add	 eax, 1
  00173	89 45 e8	 mov	 DWORD PTR _y$[ebp], eax
$LN12@InsertItem:
  00176	83 7d e8 0f	 cmp	 DWORD PTR _y$[ebp], 15	; 0000000fH
  0017a	7d 56		 jge	 SHORT $LN10@InsertItem

; 69   : 	{
; 70   : 		for ( x=0;x<8;x++)

  0017c	c7 45 ec 00 00
	00 00		 mov	 DWORD PTR _x$[ebp], 0
  00183	eb 09		 jmp	 SHORT $LN9@InsertItem
$LN8@InsertItem:
  00185	8b 45 ec	 mov	 eax, DWORD PTR _x$[ebp]
  00188	83 c0 01	 add	 eax, 1
  0018b	89 45 ec	 mov	 DWORD PTR _x$[ebp], eax
$LN9@InsertItem:
  0018e	83 7d ec 08	 cmp	 DWORD PTR _x$[ebp], 8
  00192	7d 3c		 jge	 SHORT $LN7@InsertItem

; 71   : 		{
; 72   : 			if ( this->ShopInventoryMap[x + y*8] == 0 )

  00194	8b 45 e8	 mov	 eax, DWORD PTR _y$[ebp]
  00197	8b 4d ec	 mov	 ecx, DWORD PTR _x$[ebp]
  0019a	8d 14 c1	 lea	 edx, DWORD PTR [ecx+eax*8]
  0019d	8b 45 fc	 mov	 eax, DWORD PTR _this$[ebp]
  001a0	0f b6 4c 10 04	 movzx	 ecx, BYTE PTR [eax+edx+4]
  001a5	85 c9		 test	 ecx, ecx
  001a7	75 25		 jne	 SHORT $LN5@InsertItem

; 73   : 			{
; 74   : 				blank = this->InentoryMapCheck(x, y, width, height);

  001a9	8b 45 f0	 mov	 eax, DWORD PTR _height$[ebp]
  001ac	50		 push	 eax
  001ad	8b 4d f4	 mov	 ecx, DWORD PTR _width$[ebp]
  001b0	51		 push	 ecx
  001b1	8b 55 e8	 mov	 edx, DWORD PTR _y$[ebp]
  001b4	52		 push	 edx
  001b5	8b 45 ec	 mov	 eax, DWORD PTR _x$[ebp]
  001b8	50		 push	 eax
  001b9	8b 4d fc	 mov	 ecx, DWORD PTR _this$[ebp]
  001bc	e8 00 00 00 00	 call	 ?InentoryMapCheck@CShop@@QAEHHHHH@Z ; CShop::InentoryMapCheck
  001c1	89 45 e4	 mov	 DWORD PTR _blank$[ebp], eax

; 75   : 
; 76   : 				if ( blank >= 0 )

  001c4	83 7d e4 00	 cmp	 DWORD PTR _blank$[ebp], 0
  001c8	7c 04		 jl	 SHORT $LN5@InsertItem

; 77   : 				{
; 78   : 					goto skiploop;

  001ca	eb 2e		 jmp	 SHORT $LN4@InsertItem
  001cc	eb 2c		 jmp	 SHORT $skiploop$231813
$LN5@InsertItem:

; 79   : 				}
; 80   : 			}
; 81   : 		}

  001ce	eb b5		 jmp	 SHORT $LN8@InsertItem
$LN7@InsertItem:

; 82   : 	}

  001d0	eb 9b		 jmp	 SHORT $LN11@InsertItem
$LN10@InsertItem:

; 83   : 
; 84   : 	if ( blank < 0 )

  001d2	83 7d e4 00	 cmp	 DWORD PTR _blank$[ebp], 0
  001d6	7d 22		 jge	 SHORT $LN3@InsertItem

; 85   : 	{
; 86   : 		MsgBox("error-L2 : %s %d", __FILE__, __LINE__);

  001d8	a1 00 00 00 00	 mov	 eax, DWORD PTR ?__LINE__Var@?1??InsertItem@CShop@@QAEHHHHHHHHHH@Z@4JA
  001dd	83 c0 2b	 add	 eax, 43			; 0000002bH
  001e0	50		 push	 eax
  001e1	68 00 00 00 00	 push	 OFFSET ??_C@_0DM@JHJFDNLI@d?3?2projects?2exteam6?43?2source?2gam@
  001e6	68 00 00 00 00	 push	 OFFSET ??_C@_0BB@FOBLMGCK@error?9L2?5?3?5?$CFs?5?$CFd?$AA@
  001eb	e8 00 00 00 00	 call	 ?MsgBox@@YAXPADZZ	; MsgBox
  001f0	83 c4 0c	 add	 esp, 12			; 0000000cH

; 87   : 		return FALSE;

  001f3	33 c0		 xor	 eax, eax
  001f5	e9 7c 01 00 00	 jmp	 $LN16@InsertItem
$LN3@InsertItem:
$LN4@InsertItem:
$skiploop$231813:

; 88   : 	}
; 89   : 
; 90   : skiploop:
; 91   : 
; 92   : 	this->m_item[blank].m_Level = level;

  001fa	8b 45 e4	 mov	 eax, DWORD PTR _blank$[ebp]
  001fd	69 c0 d4 00 00
	00		 imul	 eax, 212		; 000000d4H
  00203	8b 4d fc	 mov	 ecx, DWORD PTR _this$[ebp]
  00206	66 8b 55 10	 mov	 dx, WORD PTR _level$[ebp]
  0020a	66 89 94 01 88
	00 00 00	 mov	 WORD PTR [ecx+eax+136], dx

; 93   : 
; 94   : 	if ( dur == 0 )

  00212	83 7d 14 00	 cmp	 DWORD PTR _dur$[ebp], 0
  00216	75 1d		 jne	 SHORT $LN2@InsertItem

; 95   : 	{
; 96   : 		dur = ItemGetDurability(ITEMGET(type, index), level, 0, 0);

  00218	6a 00		 push	 0
  0021a	6a 00		 push	 0
  0021c	8b 45 10	 mov	 eax, DWORD PTR _level$[ebp]
  0021f	50		 push	 eax
  00220	8b 4d 08	 mov	 ecx, DWORD PTR _type$[ebp]
  00223	c1 e1 09	 shl	 ecx, 9
  00226	03 4d 0c	 add	 ecx, DWORD PTR _index$[ebp]
  00229	51		 push	 ecx
  0022a	e8 00 00 00 00	 call	 ?ItemGetDurability@@YAHHHHH@Z ; ItemGetDurability
  0022f	83 c4 10	 add	 esp, 16			; 00000010H
  00232	89 45 14	 mov	 DWORD PTR _dur$[ebp], eax
$LN2@InsertItem:

; 97   : 	}
; 98   : 
; 99   : 	this->m_item[blank].m_Durability = (float)dur;

  00235	db 45 14	 fild	 DWORD PTR _dur$[ebp]
  00238	8b 45 e4	 mov	 eax, DWORD PTR _blank$[ebp]
  0023b	69 c0 d4 00 00
	00		 imul	 eax, 212		; 000000d4H
  00241	8b 4d fc	 mov	 ecx, DWORD PTR _this$[ebp]
  00244	d9 9c 01 a4 00
	00 00		 fstp	 DWORD PTR [ecx+eax+164]

; 100  : 	this->m_item[blank].Convert(itemp, op1, op2, op3, Excellent, Ancient, 0, NULL, 0xFF, 0, CURRENT_DB_VERSION);

  0024b	6a 03		 push	 3
  0024d	6a 00		 push	 0
  0024f	68 ff 00 00 00	 push	 255			; 000000ffH
  00254	6a 00		 push	 0
  00256	6a 00		 push	 0
  00258	0f b6 45 28	 movzx	 eax, BYTE PTR _Ancient$[ebp]
  0025c	50		 push	 eax
  0025d	0f b6 4d 24	 movzx	 ecx, BYTE PTR _Excellent$[ebp]
  00261	51		 push	 ecx
  00262	0f b6 55 20	 movzx	 edx, BYTE PTR _op3$[ebp]
  00266	52		 push	 edx
  00267	0f b6 45 1c	 movzx	 eax, BYTE PTR _op2$[ebp]
  0026b	50		 push	 eax
  0026c	0f b6 4d 18	 movzx	 ecx, BYTE PTR _op1$[ebp]
  00270	51		 push	 ecx
  00271	8b 55 f8	 mov	 edx, DWORD PTR _itemp$[ebp]
  00274	52		 push	 edx
  00275	8b 45 e4	 mov	 eax, DWORD PTR _blank$[ebp]
  00278	69 c0 d4 00 00
	00		 imul	 eax, 212		; 000000d4H
  0027e	8b 4d fc	 mov	 ecx, DWORD PTR _this$[ebp]
  00281	8d 8c 01 80 00
	00 00		 lea	 ecx, DWORD PTR [ecx+eax+128]
  00288	e8 00 00 00 00	 call	 ?Convert@CItem@@QAEXHEEEEEEPAEEEE@Z ; CItem::Convert

; 101  : 	this->m_item[blank].Value();

  0028d	8b 45 e4	 mov	 eax, DWORD PTR _blank$[ebp]
  00290	69 c0 d4 00 00
	00		 imul	 eax, 212		; 000000d4H
  00296	8b 4d fc	 mov	 ecx, DWORD PTR _this$[ebp]
  00299	8d 8c 01 80 00
	00 00		 lea	 ecx, DWORD PTR [ecx+eax+128]
  002a0	e8 00 00 00 00	 call	 ?Value@CItem@@QAEXXZ	; CItem::Value

; 102  : 
; 103  : 	if(g_SocketOption.CheckItemType(itemp) == 1)//Season 4.5 addon

  002a5	8b 45 f8	 mov	 eax, DWORD PTR _itemp$[ebp]
  002a8	50		 push	 eax
  002a9	b9 00 00 00 00	 mov	 ecx, OFFSET ?g_SocketOption@@3VCSocketOption@@A ; g_SocketOption
  002ae	e8 00 00 00 00	 call	 ?CheckItemType@CSocketOption@@QAEEH@Z ; CSocketOption::CheckItemType
  002b3	0f b6 c8	 movzx	 ecx, al
  002b6	83 f9 01	 cmp	 ecx, 1
  002b9	75 26		 jne	 SHORT $LN1@InsertItem

; 104  : 	{
; 105  : 		g_SocketOption.ClearSlotOption(&this->m_item[blank],g_iShopBuySocketItemSlotCount);

  002bb	0f b6 05 00 00
	00 00		 movzx	 eax, BYTE PTR ?g_iShopBuySocketItemSlotCount@@3HA
  002c2	50		 push	 eax
  002c3	8b 4d e4	 mov	 ecx, DWORD PTR _blank$[ebp]
  002c6	69 c9 d4 00 00
	00		 imul	 ecx, 212		; 000000d4H
  002cc	8b 55 fc	 mov	 edx, DWORD PTR _this$[ebp]
  002cf	8d 84 0a 80 00
	00 00		 lea	 eax, DWORD PTR [edx+ecx+128]
  002d6	50		 push	 eax
  002d7	b9 00 00 00 00	 mov	 ecx, OFFSET ?g_SocketOption@@3VCSocketOption@@A ; g_SocketOption
  002dc	e8 00 00 00 00	 call	 ?ClearSlotOption@CSocketOption@@QAEXPAVCItem@@E@Z ; CSocketOption::ClearSlotOption
$LN1@InsertItem:

; 106  : 	}
; 107  : 
; 108  : 	this->SendItemData[this->SendItemDataLen] = blank;

  002e1	8b 45 fc	 mov	 eax, DWORD PTR _this$[ebp]
  002e4	8b 88 f8 69 00
	00		 mov	 ecx, DWORD PTR [eax+27128]
  002ea	8b 55 fc	 mov	 edx, DWORD PTR _this$[ebp]
  002ed	8a 45 e4	 mov	 al, BYTE PTR _blank$[ebp]
  002f0	88 84 0a e0 63
	00 00		 mov	 BYTE PTR [edx+ecx+25568], al

; 109  : 	this->SendItemDataLen++;

  002f7	8b 45 fc	 mov	 eax, DWORD PTR _this$[ebp]
  002fa	8b 88 f8 69 00
	00		 mov	 ecx, DWORD PTR [eax+27128]
  00300	83 c1 01	 add	 ecx, 1
  00303	8b 55 fc	 mov	 edx, DWORD PTR _this$[ebp]
  00306	89 8a f8 69 00
	00		 mov	 DWORD PTR [edx+27128], ecx

; 110  : 	ItemByteConvert((LPBYTE)&this->SendItemData[this->SendItemDataLen], this->m_item[blank]);

  0030c	8b 45 e4	 mov	 eax, DWORD PTR _blank$[ebp]
  0030f	69 c0 d4 00 00
	00		 imul	 eax, 212		; 000000d4H
  00315	8b 4d fc	 mov	 ecx, DWORD PTR _this$[ebp]
  00318	8d b4 01 80 00
	00 00		 lea	 esi, DWORD PTR [ecx+eax+128]
  0031f	81 ec d4 00 00
	00		 sub	 esp, 212		; 000000d4H
  00325	b9 35 00 00 00	 mov	 ecx, 53			; 00000035H
  0032a	8b fc		 mov	 edi, esp
  0032c	f3 a5		 rep movsd
  0032e	8b 55 fc	 mov	 edx, DWORD PTR _this$[ebp]
  00331	8b 82 f8 69 00
	00		 mov	 eax, DWORD PTR [edx+27128]
  00337	8b 4d fc	 mov	 ecx, DWORD PTR _this$[ebp]
  0033a	8d 94 01 e0 63
	00 00		 lea	 edx, DWORD PTR [ecx+eax+25568]
  00341	52		 push	 edx
  00342	e8 00 00 00 00	 call	 ?ItemByteConvert@@YAXPAEVCItem@@@Z ; ItemByteConvert
  00347	81 c4 d8 00 00
	00		 add	 esp, 216		; 000000d8H

; 111  : 	this->SendItemDataLen += MAX_ITEM_INFO;

  0034d	8b 45 fc	 mov	 eax, DWORD PTR _this$[ebp]
  00350	8b 88 f8 69 00
	00		 mov	 ecx, DWORD PTR [eax+27128]
  00356	83 c1 0c	 add	 ecx, 12			; 0000000cH
  00359	8b 55 fc	 mov	 edx, DWORD PTR _this$[ebp]
  0035c	89 8a f8 69 00
	00		 mov	 DWORD PTR [edx+27128], ecx

; 112  : 	this->ItemCount++;

  00362	8b 45 fc	 mov	 eax, DWORD PTR _this$[ebp]
  00365	8b 48 7c	 mov	 ecx, DWORD PTR [eax+124]
  00368	83 c1 01	 add	 ecx, 1
  0036b	8b 55 fc	 mov	 edx, DWORD PTR _this$[ebp]
  0036e	89 4a 7c	 mov	 DWORD PTR [edx+124], ecx

; 113  : 
; 114  : 	return TRUE;

  00371	b8 01 00 00 00	 mov	 eax, 1
$LN16@InsertItem:

; 115  : }

  00376	5f		 pop	 edi
  00377	5e		 pop	 esi
  00378	5b		 pop	 ebx
  00379	8b e5		 mov	 esp, ebp
  0037b	5d		 pop	 ebp
  0037c	c2 24 00	 ret	 36			; 00000024H
?InsertItem@CShop@@QAEHHHHHHHHHH@Z ENDP			; CShop::InsertItem
_TEXT	ENDS
PUBLIC	?__LINE__Var@?1??InsertItemSocket@CShop@@QAEHHHHHHHHHHEEEEEEK@Z@4JA ; `CShop::InsertItemSocket'::`2'::__LINE__Var
PUBLIC	?InsertItemSocket@CShop@@QAEHHHHHHHHHHEEEEEEK@Z	; CShop::InsertItemSocket
;	COMDAT ?__LINE__Var@?1??InsertItemSocket@CShop@@QAEHHHHHHHHHHEEEEEEK@Z@4JA
_DATA	SEGMENT
?__LINE__Var@?1??InsertItemSocket@CShop@@QAEHHHHHHHHHHEEEEEEK@Z@4JA DD 077H ; `CShop::InsertItemSocket'::`2'::__LINE__Var
; Function compile flags: /Odtp /ZI
_DATA	ENDS
_TEXT	SEGMENT
_blank$ = -28						; size = 4
_y$ = -24						; size = 4
_x$ = -20						; size = 4
_height$ = -16						; size = 4
_width$ = -12						; size = 4
_itemp$ = -8						; size = 4
_this$ = -4						; size = 4
_type$ = 8						; size = 4
_index$ = 12						; size = 4
_level$ = 16						; size = 4
_dur$ = 20						; size = 4
_op1$ = 24						; size = 4
_op2$ = 28						; size = 4
_op3$ = 32						; size = 4
_Excellent$ = 36					; size = 4
_Ancient$ = 40						; size = 4
_Sock1$ = 44						; size = 1
_Sock2$ = 48						; size = 1
_Sock3$ = 52						; size = 1
_Sock4$ = 56						; size = 1
_Sock5$ = 60						; size = 1
_iPayType$ = 64						; size = 1
_iPayPrice$ = 68					; size = 4
?InsertItemSocket@CShop@@QAEHHHHHHHHHHEEEEEEK@Z PROC	; CShop::InsertItemSocket
; _this$ = ecx

; 119  : {

  00380	55		 push	 ebp
  00381	8b ec		 mov	 ebp, esp
  00383	83 ec 5c	 sub	 esp, 92			; 0000005cH
  00386	53		 push	 ebx
  00387	56		 push	 esi
  00388	57		 push	 edi
  00389	89 4d fc	 mov	 DWORD PTR _this$[ebp], ecx

; 120  : 	int itemp;
; 121  : 	int width;
; 122  : 	int height;
; 123  : 	int x;
; 124  : 	int y;
; 125  : 	int blank;
; 126  : 
; 127  : 	blank = -1;

  0038c	c7 45 e4 ff ff
	ff ff		 mov	 DWORD PTR _blank$[ebp], -1

; 128  : 	itemp = type * MAX_SUBTYPE_ITEMS + index;

  00393	8b 45 08	 mov	 eax, DWORD PTR _type$[ebp]
  00396	c1 e0 09	 shl	 eax, 9
  00399	03 45 0c	 add	 eax, DWORD PTR _index$[ebp]
  0039c	89 45 f8	 mov	 DWORD PTR _itemp$[ebp], eax

; 129  : 	
; 130  : 	if ( itemp < 0 )

  0039f	79 36		 jns	 SHORT $LN15@InsertItem@2

; 131  : 	{
; 132  : 		MsgBox(lMsg.Get(MSGGET(2, 53)), __FILE__, __LINE__, type, index);

  003a1	8b 45 0c	 mov	 eax, DWORD PTR _index$[ebp]
  003a4	50		 push	 eax
  003a5	8b 4d 08	 mov	 ecx, DWORD PTR _type$[ebp]
  003a8	51		 push	 ecx
  003a9	8b 15 00 00 00
	00		 mov	 edx, DWORD PTR ?__LINE__Var@?1??InsertItemSocket@CShop@@QAEHHHHHHHHHHEEEEEEK@Z@4JA
  003af	83 c2 0d	 add	 edx, 13			; 0000000dH
  003b2	52		 push	 edx
  003b3	68 00 00 00 00	 push	 OFFSET ??_C@_0DM@JHJFDNLI@d?3?2projects?2exteam6?43?2source?2gam@
  003b8	68 35 02 00 00	 push	 565			; 00000235H
  003bd	b9 00 00 00 00	 mov	 ecx, OFFSET ?lMsg@@3VCMsg@@A ; lMsg
  003c2	e8 00 00 00 00	 call	 ?Get@CMsg@@QAEPADH@Z	; CMsg::Get
  003c7	50		 push	 eax
  003c8	e8 00 00 00 00	 call	 ?MsgBox@@YAXPADZZ	; MsgBox
  003cd	83 c4 14	 add	 esp, 20			; 00000014H

; 133  : 		return false;

  003d0	33 c0		 xor	 eax, eax
  003d2	e9 59 03 00 00	 jmp	 $LN16@InsertItem@2
$LN15@InsertItem@2:

; 134  : 	}
; 135  : 	
; 136  : 	ItemGetSize(itemp, width, height);

  003d7	8d 45 f0	 lea	 eax, DWORD PTR _height$[ebp]
  003da	50		 push	 eax
  003db	8d 4d f4	 lea	 ecx, DWORD PTR _width$[ebp]
  003de	51		 push	 ecx
  003df	8b 55 f8	 mov	 edx, DWORD PTR _itemp$[ebp]
  003e2	52		 push	 edx
  003e3	e8 00 00 00 00	 call	 ?ItemGetSize@@YAXHAAH0@Z ; ItemGetSize
  003e8	83 c4 0c	 add	 esp, 12			; 0000000cH

; 137  : 
; 138  : 	if ( width < 0 || height < 0 )

  003eb	83 7d f4 00	 cmp	 DWORD PTR _width$[ebp], 0
  003ef	7c 06		 jl	 SHORT $LN13@InsertItem@2
  003f1	83 7d f0 00	 cmp	 DWORD PTR _height$[ebp], 0
  003f5	7d 2d		 jge	 SHORT $LN14@InsertItem@2
$LN13@InsertItem@2:

; 139  : 	{
; 140  : 		MsgBox(lMsg.Get(MSGGET(2, 54)), __FILE__, __LINE__);

  003f7	a1 00 00 00 00	 mov	 eax, DWORD PTR ?__LINE__Var@?1??InsertItemSocket@CShop@@QAEHHHHHHHHHHEEEEEEK@Z@4JA
  003fc	83 c0 15	 add	 eax, 21			; 00000015H
  003ff	50		 push	 eax
  00400	68 00 00 00 00	 push	 OFFSET ??_C@_0DM@JHJFDNLI@d?3?2projects?2exteam6?43?2source?2gam@
  00405	68 36 02 00 00	 push	 566			; 00000236H
  0040a	b9 00 00 00 00	 mov	 ecx, OFFSET ?lMsg@@3VCMsg@@A ; lMsg
  0040f	e8 00 00 00 00	 call	 ?Get@CMsg@@QAEPADH@Z	; CMsg::Get
  00414	50		 push	 eax
  00415	e8 00 00 00 00	 call	 ?MsgBox@@YAXPADZZ	; MsgBox
  0041a	83 c4 0c	 add	 esp, 12			; 0000000cH

; 141  : 		return FALSE;

  0041d	33 c0		 xor	 eax, eax
  0041f	e9 0c 03 00 00	 jmp	 $LN16@InsertItem@2
$LN14@InsertItem@2:

; 142  : 	}
; 143  : 
; 144  : 	for ( y=0;y<15;y++)

  00424	c7 45 e8 00 00
	00 00		 mov	 DWORD PTR _y$[ebp], 0
  0042b	eb 09		 jmp	 SHORT $LN12@InsertItem@2
$LN11@InsertItem@2:
  0042d	8b 45 e8	 mov	 eax, DWORD PTR _y$[ebp]
  00430	83 c0 01	 add	 eax, 1
  00433	89 45 e8	 mov	 DWORD PTR _y$[ebp], eax
$LN12@InsertItem@2:
  00436	83 7d e8 0f	 cmp	 DWORD PTR _y$[ebp], 15	; 0000000fH
  0043a	7d 56		 jge	 SHORT $LN10@InsertItem@2

; 145  : 	{
; 146  : 		for ( x=0;x<8;x++)

  0043c	c7 45 ec 00 00
	00 00		 mov	 DWORD PTR _x$[ebp], 0
  00443	eb 09		 jmp	 SHORT $LN9@InsertItem@2
$LN8@InsertItem@2:
  00445	8b 45 ec	 mov	 eax, DWORD PTR _x$[ebp]
  00448	83 c0 01	 add	 eax, 1
  0044b	89 45 ec	 mov	 DWORD PTR _x$[ebp], eax
$LN9@InsertItem@2:
  0044e	83 7d ec 08	 cmp	 DWORD PTR _x$[ebp], 8
  00452	7d 3c		 jge	 SHORT $LN7@InsertItem@2

; 147  : 		{
; 148  : 			if ( this->ShopInventoryMap[x + y*8] == 0 )

  00454	8b 45 e8	 mov	 eax, DWORD PTR _y$[ebp]
  00457	8b 4d ec	 mov	 ecx, DWORD PTR _x$[ebp]
  0045a	8d 14 c1	 lea	 edx, DWORD PTR [ecx+eax*8]
  0045d	8b 45 fc	 mov	 eax, DWORD PTR _this$[ebp]
  00460	0f b6 4c 10 04	 movzx	 ecx, BYTE PTR [eax+edx+4]
  00465	85 c9		 test	 ecx, ecx
  00467	75 25		 jne	 SHORT $LN5@InsertItem@2

; 149  : 			{
; 150  : 				blank = this->InentoryMapCheck(x, y, width, height);

  00469	8b 45 f0	 mov	 eax, DWORD PTR _height$[ebp]
  0046c	50		 push	 eax
  0046d	8b 4d f4	 mov	 ecx, DWORD PTR _width$[ebp]
  00470	51		 push	 ecx
  00471	8b 55 e8	 mov	 edx, DWORD PTR _y$[ebp]
  00474	52		 push	 edx
  00475	8b 45 ec	 mov	 eax, DWORD PTR _x$[ebp]
  00478	50		 push	 eax
  00479	8b 4d fc	 mov	 ecx, DWORD PTR _this$[ebp]
  0047c	e8 00 00 00 00	 call	 ?InentoryMapCheck@CShop@@QAEHHHHH@Z ; CShop::InentoryMapCheck
  00481	89 45 e4	 mov	 DWORD PTR _blank$[ebp], eax

; 151  : 
; 152  : 				if ( blank >= 0 )

  00484	83 7d e4 00	 cmp	 DWORD PTR _blank$[ebp], 0
  00488	7c 04		 jl	 SHORT $LN5@InsertItem@2

; 153  : 				{
; 154  : 					goto skiploop;

  0048a	eb 2e		 jmp	 SHORT $LN4@InsertItem@2
  0048c	eb 2c		 jmp	 SHORT $skiploop$231858
$LN5@InsertItem@2:

; 155  : 				}
; 156  : 			}
; 157  : 		}

  0048e	eb b5		 jmp	 SHORT $LN8@InsertItem@2
$LN7@InsertItem@2:

; 158  : 	}

  00490	eb 9b		 jmp	 SHORT $LN11@InsertItem@2
$LN10@InsertItem@2:

; 159  : 
; 160  : 	if ( blank < 0 )

  00492	83 7d e4 00	 cmp	 DWORD PTR _blank$[ebp], 0
  00496	7d 22		 jge	 SHORT $LN3@InsertItem@2

; 161  : 	{
; 162  : 		MsgBox("error-L2 : %s %d", __FILE__, __LINE__);

  00498	a1 00 00 00 00	 mov	 eax, DWORD PTR ?__LINE__Var@?1??InsertItemSocket@CShop@@QAEHHHHHHHHHHEEEEEEK@Z@4JA
  0049d	83 c0 2b	 add	 eax, 43			; 0000002bH
  004a0	50		 push	 eax
  004a1	68 00 00 00 00	 push	 OFFSET ??_C@_0DM@JHJFDNLI@d?3?2projects?2exteam6?43?2source?2gam@
  004a6	68 00 00 00 00	 push	 OFFSET ??_C@_0BB@FOBLMGCK@error?9L2?5?3?5?$CFs?5?$CFd?$AA@
  004ab	e8 00 00 00 00	 call	 ?MsgBox@@YAXPADZZ	; MsgBox
  004b0	83 c4 0c	 add	 esp, 12			; 0000000cH

; 163  : 		return FALSE;

  004b3	33 c0		 xor	 eax, eax
  004b5	e9 76 02 00 00	 jmp	 $LN16@InsertItem@2
$LN3@InsertItem@2:
$LN4@InsertItem@2:
$skiploop$231858:

; 164  : 	}
; 165  : 
; 166  : skiploop:
; 167  : 
; 168  : 	this->m_item[blank].m_Level = level;

  004ba	8b 45 e4	 mov	 eax, DWORD PTR _blank$[ebp]
  004bd	69 c0 d4 00 00
	00		 imul	 eax, 212		; 000000d4H
  004c3	8b 4d fc	 mov	 ecx, DWORD PTR _this$[ebp]
  004c6	66 8b 55 10	 mov	 dx, WORD PTR _level$[ebp]
  004ca	66 89 94 01 88
	00 00 00	 mov	 WORD PTR [ecx+eax+136], dx

; 169  : 
; 170  : 	if ( dur == 0 )

  004d2	83 7d 14 00	 cmp	 DWORD PTR _dur$[ebp], 0
  004d6	75 1d		 jne	 SHORT $LN2@InsertItem@2

; 171  : 	{
; 172  : 		dur = ItemGetDurability(ITEMGET(type, index), level, 0, 0);

  004d8	6a 00		 push	 0
  004da	6a 00		 push	 0
  004dc	8b 45 10	 mov	 eax, DWORD PTR _level$[ebp]
  004df	50		 push	 eax
  004e0	8b 4d 08	 mov	 ecx, DWORD PTR _type$[ebp]
  004e3	c1 e1 09	 shl	 ecx, 9
  004e6	03 4d 0c	 add	 ecx, DWORD PTR _index$[ebp]
  004e9	51		 push	 ecx
  004ea	e8 00 00 00 00	 call	 ?ItemGetDurability@@YAHHHHH@Z ; ItemGetDurability
  004ef	83 c4 10	 add	 esp, 16			; 00000010H
  004f2	89 45 14	 mov	 DWORD PTR _dur$[ebp], eax
$LN2@InsertItem@2:

; 173  : 	}
; 174  : 
; 175  : 	this->m_item[blank].m_Durability = dur;

  004f5	db 45 14	 fild	 DWORD PTR _dur$[ebp]
  004f8	8b 45 e4	 mov	 eax, DWORD PTR _blank$[ebp]
  004fb	69 c0 d4 00 00
	00		 imul	 eax, 212		; 000000d4H
  00501	8b 4d fc	 mov	 ecx, DWORD PTR _this$[ebp]
  00504	d9 9c 01 a4 00
	00 00		 fstp	 DWORD PTR [ecx+eax+164]

; 176  : 	this->m_item[blank].Convert(itemp, op1, op2, op3, Excellent, Ancient, 0, NULL, 0xFF, 0, CURRENT_DB_VERSION);

  0050b	6a 03		 push	 3
  0050d	6a 00		 push	 0
  0050f	68 ff 00 00 00	 push	 255			; 000000ffH
  00514	6a 00		 push	 0
  00516	6a 00		 push	 0
  00518	0f b6 45 28	 movzx	 eax, BYTE PTR _Ancient$[ebp]
  0051c	50		 push	 eax
  0051d	0f b6 4d 24	 movzx	 ecx, BYTE PTR _Excellent$[ebp]
  00521	51		 push	 ecx
  00522	0f b6 55 20	 movzx	 edx, BYTE PTR _op3$[ebp]
  00526	52		 push	 edx
  00527	0f b6 45 1c	 movzx	 eax, BYTE PTR _op2$[ebp]
  0052b	50		 push	 eax
  0052c	0f b6 4d 18	 movzx	 ecx, BYTE PTR _op1$[ebp]
  00530	51		 push	 ecx
  00531	8b 55 f8	 mov	 edx, DWORD PTR _itemp$[ebp]
  00534	52		 push	 edx
  00535	8b 45 e4	 mov	 eax, DWORD PTR _blank$[ebp]
  00538	69 c0 d4 00 00
	00		 imul	 eax, 212		; 000000d4H
  0053e	8b 4d fc	 mov	 ecx, DWORD PTR _this$[ebp]
  00541	8d 8c 01 80 00
	00 00		 lea	 ecx, DWORD PTR [ecx+eax+128]
  00548	e8 00 00 00 00	 call	 ?Convert@CItem@@QAEXHEEEEEEPAEEEE@Z ; CItem::Convert

; 177  : 	this->m_item[blank].Value();

  0054d	8b 45 e4	 mov	 eax, DWORD PTR _blank$[ebp]
  00550	69 c0 d4 00 00
	00		 imul	 eax, 212		; 000000d4H
  00556	8b 4d fc	 mov	 ecx, DWORD PTR _this$[ebp]
  00559	8d 8c 01 80 00
	00 00		 lea	 ecx, DWORD PTR [ecx+eax+128]
  00560	e8 00 00 00 00	 call	 ?Value@CItem@@QAEXXZ	; CItem::Value

; 178  : 
; 179  : 	this->ShopEx[this->ItemCount].ItemType = type;

  00565	8b 45 fc	 mov	 eax, DWORD PTR _this$[ebp]
  00568	8b 48 7c	 mov	 ecx, DWORD PTR [eax+124]
  0056b	6b c9 0c	 imul	 ecx, 12			; 0000000cH
  0056e	8b 55 fc	 mov	 edx, DWORD PTR _this$[ebp]
  00571	8a 45 08	 mov	 al, BYTE PTR _type$[ebp]
  00574	88 84 0a fc 69
	00 00		 mov	 BYTE PTR [edx+ecx+27132], al

; 180  : 	this->ShopEx[this->ItemCount].ItemIndex = index;

  0057b	8b 45 fc	 mov	 eax, DWORD PTR _this$[ebp]
  0057e	8b 48 7c	 mov	 ecx, DWORD PTR [eax+124]
  00581	6b c9 0c	 imul	 ecx, 12			; 0000000cH
  00584	8b 55 fc	 mov	 edx, DWORD PTR _this$[ebp]
  00587	8a 45 0c	 mov	 al, BYTE PTR _index$[ebp]
  0058a	88 84 0a fd 69
	00 00		 mov	 BYTE PTR [edx+ecx+27133], al

; 181  : 	this->ShopEx[this->ItemCount].ItemLevel = level;

  00591	8b 45 fc	 mov	 eax, DWORD PTR _this$[ebp]
  00594	8b 48 7c	 mov	 ecx, DWORD PTR [eax+124]
  00597	6b c9 0c	 imul	 ecx, 12			; 0000000cH
  0059a	8b 55 fc	 mov	 edx, DWORD PTR _this$[ebp]
  0059d	8a 45 10	 mov	 al, BYTE PTR _level$[ebp]
  005a0	88 84 0a fe 69
	00 00		 mov	 BYTE PTR [edx+ecx+27134], al

; 182  : 	this->ShopEx[this->ItemCount].ItemExl = Excellent;

  005a7	8b 45 fc	 mov	 eax, DWORD PTR _this$[ebp]
  005aa	8b 48 7c	 mov	 ecx, DWORD PTR [eax+124]
  005ad	6b c9 0c	 imul	 ecx, 12			; 0000000cH
  005b0	8b 55 fc	 mov	 edx, DWORD PTR _this$[ebp]
  005b3	8a 45 24	 mov	 al, BYTE PTR _Excellent$[ebp]
  005b6	88 84 0a ff 69
	00 00		 mov	 BYTE PTR [edx+ecx+27135], al

; 183  : 	this->ShopEx[this->ItemCount].ItemAnc = Ancient;

  005bd	8b 45 fc	 mov	 eax, DWORD PTR _this$[ebp]
  005c0	8b 48 7c	 mov	 ecx, DWORD PTR [eax+124]
  005c3	6b c9 0c	 imul	 ecx, 12			; 0000000cH
  005c6	8b 55 fc	 mov	 edx, DWORD PTR _this$[ebp]
  005c9	8a 45 28	 mov	 al, BYTE PTR _Ancient$[ebp]
  005cc	88 84 0a 00 6a
	00 00		 mov	 BYTE PTR [edx+ecx+27136], al

; 184  : 	this->ShopEx[this->ItemCount].PayType = iPayType;

  005d3	8b 45 fc	 mov	 eax, DWORD PTR _this$[ebp]
  005d6	8b 48 7c	 mov	 ecx, DWORD PTR [eax+124]
  005d9	6b c9 0c	 imul	 ecx, 12			; 0000000cH
  005dc	8b 55 fc	 mov	 edx, DWORD PTR _this$[ebp]
  005df	8a 45 40	 mov	 al, BYTE PTR _iPayType$[ebp]
  005e2	88 84 0a 01 6a
	00 00		 mov	 BYTE PTR [edx+ecx+27137], al

; 185  : 	this->ShopEx[this->ItemCount].PayPrice = iPayPrice;

  005e9	8b 45 fc	 mov	 eax, DWORD PTR _this$[ebp]
  005ec	8b 48 7c	 mov	 ecx, DWORD PTR [eax+124]
  005ef	6b c9 0c	 imul	 ecx, 12			; 0000000cH
  005f2	8b 55 fc	 mov	 edx, DWORD PTR _this$[ebp]
  005f5	8b 45 44	 mov	 eax, DWORD PTR _iPayPrice$[ebp]
  005f8	89 84 0a 04 6a
	00 00		 mov	 DWORD PTR [edx+ecx+27140], eax

; 186  : 
; 187  : 	if(g_SocketOption.CheckItemType(itemp) == 1)

  005ff	8b 45 f8	 mov	 eax, DWORD PTR _itemp$[ebp]
  00602	50		 push	 eax
  00603	b9 00 00 00 00	 mov	 ecx, OFFSET ?g_SocketOption@@3VCSocketOption@@A ; g_SocketOption
  00608	e8 00 00 00 00	 call	 ?CheckItemType@CSocketOption@@QAEEH@Z ; CSocketOption::CheckItemType
  0060d	0f b6 c8	 movzx	 ecx, al
  00610	83 f9 01	 cmp	 ecx, 1
  00613	0f 85 82 00 00
	00		 jne	 $LN1@InsertItem@2

; 188  : 	{
; 189  : 		this->m_item[blank].m_SocketOption[0] = Sock1;

  00619	8b 45 e4	 mov	 eax, DWORD PTR _blank$[ebp]
  0061c	69 c0 d4 00 00
	00		 imul	 eax, 212		; 000000d4H
  00622	8b 4d fc	 mov	 ecx, DWORD PTR _this$[ebp]
  00625	8a 55 2c	 mov	 dl, BYTE PTR _Sock1$[ebp]
  00628	88 94 01 4c 01
	00 00		 mov	 BYTE PTR [ecx+eax+332], dl

; 190  : 		this->m_item[blank].m_SocketOption[1] = Sock2;

  0062f	8b 45 e4	 mov	 eax, DWORD PTR _blank$[ebp]
  00632	69 c0 d4 00 00
	00		 imul	 eax, 212		; 000000d4H
  00638	8b 4d fc	 mov	 ecx, DWORD PTR _this$[ebp]
  0063b	8a 55 30	 mov	 dl, BYTE PTR _Sock2$[ebp]
  0063e	88 94 01 4d 01
	00 00		 mov	 BYTE PTR [ecx+eax+333], dl

; 191  : 		this->m_item[blank].m_SocketOption[2] = Sock3;

  00645	8b 45 e4	 mov	 eax, DWORD PTR _blank$[ebp]
  00648	69 c0 d4 00 00
	00		 imul	 eax, 212		; 000000d4H
  0064e	8b 4d fc	 mov	 ecx, DWORD PTR _this$[ebp]
  00651	8a 55 34	 mov	 dl, BYTE PTR _Sock3$[ebp]
  00654	88 94 01 4e 01
	00 00		 mov	 BYTE PTR [ecx+eax+334], dl

; 192  : 		this->m_item[blank].m_SocketOption[3] = Sock4;

  0065b	8b 45 e4	 mov	 eax, DWORD PTR _blank$[ebp]
  0065e	69 c0 d4 00 00
	00		 imul	 eax, 212		; 000000d4H
  00664	8b 4d fc	 mov	 ecx, DWORD PTR _this$[ebp]
  00667	8a 55 38	 mov	 dl, BYTE PTR _Sock4$[ebp]
  0066a	88 94 01 4f 01
	00 00		 mov	 BYTE PTR [ecx+eax+335], dl

; 193  : 		this->m_item[blank].m_SocketOption[4] = Sock5;

  00671	8b 45 e4	 mov	 eax, DWORD PTR _blank$[ebp]
  00674	69 c0 d4 00 00
	00		 imul	 eax, 212		; 000000d4H
  0067a	8b 4d fc	 mov	 ecx, DWORD PTR _this$[ebp]
  0067d	8a 55 3c	 mov	 dl, BYTE PTR _Sock5$[ebp]
  00680	88 94 01 50 01
	00 00		 mov	 BYTE PTR [ecx+eax+336], dl

; 194  : 
; 195  : 		this->m_item[blank].m_SocketOptionIndex = 0xFF;

  00687	8b 45 e4	 mov	 eax, DWORD PTR _blank$[ebp]
  0068a	69 c0 d4 00 00
	00		 imul	 eax, 212		; 000000d4H
  00690	8b 4d fc	 mov	 ecx, DWORD PTR _this$[ebp]
  00693	c6 84 01 4b 01
	00 00 ff	 mov	 BYTE PTR [ecx+eax+331], 255 ; 000000ffH
$LN1@InsertItem@2:

; 196  : 	}
; 197  : 
; 198  : 	this->SendItemData[this->SendItemDataLen] = blank;

  0069b	8b 45 fc	 mov	 eax, DWORD PTR _this$[ebp]
  0069e	8b 88 f8 69 00
	00		 mov	 ecx, DWORD PTR [eax+27128]
  006a4	8b 55 fc	 mov	 edx, DWORD PTR _this$[ebp]
  006a7	8a 45 e4	 mov	 al, BYTE PTR _blank$[ebp]
  006aa	88 84 0a e0 63
	00 00		 mov	 BYTE PTR [edx+ecx+25568], al

; 199  : 	this->SendItemDataLen++;

  006b1	8b 45 fc	 mov	 eax, DWORD PTR _this$[ebp]
  006b4	8b 88 f8 69 00
	00		 mov	 ecx, DWORD PTR [eax+27128]
  006ba	83 c1 01	 add	 ecx, 1
  006bd	8b 55 fc	 mov	 edx, DWORD PTR _this$[ebp]
  006c0	89 8a f8 69 00
	00		 mov	 DWORD PTR [edx+27128], ecx

; 200  : 	ItemByteConvert((LPBYTE)&this->SendItemData[this->SendItemDataLen], this->m_item[blank]);

  006c6	8b 45 e4	 mov	 eax, DWORD PTR _blank$[ebp]
  006c9	69 c0 d4 00 00
	00		 imul	 eax, 212		; 000000d4H
  006cf	8b 4d fc	 mov	 ecx, DWORD PTR _this$[ebp]
  006d2	8d b4 01 80 00
	00 00		 lea	 esi, DWORD PTR [ecx+eax+128]
  006d9	81 ec d4 00 00
	00		 sub	 esp, 212		; 000000d4H
  006df	b9 35 00 00 00	 mov	 ecx, 53			; 00000035H
  006e4	8b fc		 mov	 edi, esp
  006e6	f3 a5		 rep movsd
  006e8	8b 55 fc	 mov	 edx, DWORD PTR _this$[ebp]
  006eb	8b 82 f8 69 00
	00		 mov	 eax, DWORD PTR [edx+27128]
  006f1	8b 4d fc	 mov	 ecx, DWORD PTR _this$[ebp]
  006f4	8d 94 01 e0 63
	00 00		 lea	 edx, DWORD PTR [ecx+eax+25568]
  006fb	52		 push	 edx
  006fc	e8 00 00 00 00	 call	 ?ItemByteConvert@@YAXPAEVCItem@@@Z ; ItemByteConvert
  00701	81 c4 d8 00 00
	00		 add	 esp, 216		; 000000d8H

; 201  : 	this->SendItemDataLen += MAX_ITEM_INFO;

  00707	8b 45 fc	 mov	 eax, DWORD PTR _this$[ebp]
  0070a	8b 88 f8 69 00
	00		 mov	 ecx, DWORD PTR [eax+27128]
  00710	83 c1 0c	 add	 ecx, 12			; 0000000cH
  00713	8b 55 fc	 mov	 edx, DWORD PTR _this$[ebp]
  00716	89 8a f8 69 00
	00		 mov	 DWORD PTR [edx+27128], ecx

; 202  : 	this->ItemCount++;

  0071c	8b 45 fc	 mov	 eax, DWORD PTR _this$[ebp]
  0071f	8b 48 7c	 mov	 ecx, DWORD PTR [eax+124]
  00722	83 c1 01	 add	 ecx, 1
  00725	8b 55 fc	 mov	 edx, DWORD PTR _this$[ebp]
  00728	89 4a 7c	 mov	 DWORD PTR [edx+124], ecx

; 203  : 
; 204  : 	return TRUE;

  0072b	b8 01 00 00 00	 mov	 eax, 1
$LN16@InsertItem@2:

; 205  : }

  00730	5f		 pop	 edi
  00731	5e		 pop	 esi
  00732	5b		 pop	 ebx
  00733	8b e5		 mov	 esp, ebp
  00735	5d		 pop	 ebp
  00736	c2 40 00	 ret	 64			; 00000040H
?InsertItemSocket@CShop@@QAEHHHHHHHHHHEEEEEEK@Z ENDP	; CShop::InsertItemSocket
_TEXT	ENDS
PUBLIC	?__LINE__Var@?1??InsertItemEx@CShop@@QAEHHHHHHHHHHEK@Z@4JA ; `CShop::InsertItemEx'::`2'::__LINE__Var
PUBLIC	?InsertItemEx@CShop@@QAEHHHHHHHHHHEK@Z		; CShop::InsertItemEx
;	COMDAT ?__LINE__Var@?1??InsertItemEx@CShop@@QAEHHHHHHHHHHEK@Z@4JA
_DATA	SEGMENT
?__LINE__Var@?1??InsertItemEx@CShop@@QAEHHHHHHHHHHEK@Z@4JA DD 0d0H ; `CShop::InsertItemEx'::`2'::__LINE__Var
; Function compile flags: /Odtp /ZI
_DATA	ENDS
_TEXT	SEGMENT
_blank$ = -28						; size = 4
_y$ = -24						; size = 4
_x$ = -20						; size = 4
_height$ = -16						; size = 4
_width$ = -12						; size = 4
_itemp$ = -8						; size = 4
_this$ = -4						; size = 4
_type$ = 8						; size = 4
_index$ = 12						; size = 4
_level$ = 16						; size = 4
_dur$ = 20						; size = 4
_op1$ = 24						; size = 4
_op2$ = 28						; size = 4
_op3$ = 32						; size = 4
_Excellent$ = 36					; size = 4
_Ancient$ = 40						; size = 4
_iPayType$ = 44						; size = 1
_iPayPrice$ = 48					; size = 4
?InsertItemEx@CShop@@QAEHHHHHHHHHHEK@Z PROC		; CShop::InsertItemEx
; _this$ = ecx

; 208  : {

  00740	55		 push	 ebp
  00741	8b ec		 mov	 ebp, esp
  00743	83 ec 5c	 sub	 esp, 92			; 0000005cH
  00746	53		 push	 ebx
  00747	56		 push	 esi
  00748	57		 push	 edi
  00749	89 4d fc	 mov	 DWORD PTR _this$[ebp], ecx

; 209  : 	int itemp;
; 210  : 	int width;
; 211  : 	int height;
; 212  : 	int x;
; 213  : 	int y;
; 214  : 	int blank;
; 215  : 
; 216  : 	blank = -1;

  0074c	c7 45 e4 ff ff
	ff ff		 mov	 DWORD PTR _blank$[ebp], -1

; 217  : 	itemp = type * MAX_SUBTYPE_ITEMS + index;

  00753	8b 45 08	 mov	 eax, DWORD PTR _type$[ebp]
  00756	c1 e0 09	 shl	 eax, 9
  00759	03 45 0c	 add	 eax, DWORD PTR _index$[ebp]
  0075c	89 45 f8	 mov	 DWORD PTR _itemp$[ebp], eax

; 218  : 	
; 219  : 	if ( itemp < 0 )

  0075f	79 36		 jns	 SHORT $LN15@InsertItem@3

; 220  : 	{
; 221  : 		MsgBox(lMsg.Get(MSGGET(2, 53)), __FILE__, __LINE__, type, index);

  00761	8b 45 0c	 mov	 eax, DWORD PTR _index$[ebp]
  00764	50		 push	 eax
  00765	8b 4d 08	 mov	 ecx, DWORD PTR _type$[ebp]
  00768	51		 push	 ecx
  00769	8b 15 00 00 00
	00		 mov	 edx, DWORD PTR ?__LINE__Var@?1??InsertItemEx@CShop@@QAEHHHHHHHHHHEK@Z@4JA
  0076f	83 c2 0d	 add	 edx, 13			; 0000000dH
  00772	52		 push	 edx
  00773	68 00 00 00 00	 push	 OFFSET ??_C@_0DM@JHJFDNLI@d?3?2projects?2exteam6?43?2source?2gam@
  00778	68 35 02 00 00	 push	 565			; 00000235H
  0077d	b9 00 00 00 00	 mov	 ecx, OFFSET ?lMsg@@3VCMsg@@A ; lMsg
  00782	e8 00 00 00 00	 call	 ?Get@CMsg@@QAEPADH@Z	; CMsg::Get
  00787	50		 push	 eax
  00788	e8 00 00 00 00	 call	 ?MsgBox@@YAXPADZZ	; MsgBox
  0078d	83 c4 14	 add	 esp, 20			; 00000014H

; 222  : 		return false;

  00790	33 c0		 xor	 eax, eax
  00792	e9 f9 02 00 00	 jmp	 $LN16@InsertItem@3
$LN15@InsertItem@3:

; 223  : 	}
; 224  : 	
; 225  : 	ItemGetSize(itemp, width, height);

  00797	8d 45 f0	 lea	 eax, DWORD PTR _height$[ebp]
  0079a	50		 push	 eax
  0079b	8d 4d f4	 lea	 ecx, DWORD PTR _width$[ebp]
  0079e	51		 push	 ecx
  0079f	8b 55 f8	 mov	 edx, DWORD PTR _itemp$[ebp]
  007a2	52		 push	 edx
  007a3	e8 00 00 00 00	 call	 ?ItemGetSize@@YAXHAAH0@Z ; ItemGetSize
  007a8	83 c4 0c	 add	 esp, 12			; 0000000cH

; 226  : 
; 227  : 	if ( width < 0 || height < 0 )

  007ab	83 7d f4 00	 cmp	 DWORD PTR _width$[ebp], 0
  007af	7c 06		 jl	 SHORT $LN13@InsertItem@3
  007b1	83 7d f0 00	 cmp	 DWORD PTR _height$[ebp], 0
  007b5	7d 2d		 jge	 SHORT $LN14@InsertItem@3
$LN13@InsertItem@3:

; 228  : 	{
; 229  : 		MsgBox(lMsg.Get(MSGGET(2, 54)), __FILE__, __LINE__);

  007b7	a1 00 00 00 00	 mov	 eax, DWORD PTR ?__LINE__Var@?1??InsertItemEx@CShop@@QAEHHHHHHHHHHEK@Z@4JA
  007bc	83 c0 15	 add	 eax, 21			; 00000015H
  007bf	50		 push	 eax
  007c0	68 00 00 00 00	 push	 OFFSET ??_C@_0DM@JHJFDNLI@d?3?2projects?2exteam6?43?2source?2gam@
  007c5	68 36 02 00 00	 push	 566			; 00000236H
  007ca	b9 00 00 00 00	 mov	 ecx, OFFSET ?lMsg@@3VCMsg@@A ; lMsg
  007cf	e8 00 00 00 00	 call	 ?Get@CMsg@@QAEPADH@Z	; CMsg::Get
  007d4	50		 push	 eax
  007d5	e8 00 00 00 00	 call	 ?MsgBox@@YAXPADZZ	; MsgBox
  007da	83 c4 0c	 add	 esp, 12			; 0000000cH

; 230  : 		return FALSE;

  007dd	33 c0		 xor	 eax, eax
  007df	e9 ac 02 00 00	 jmp	 $LN16@InsertItem@3
$LN14@InsertItem@3:

; 231  : 	}
; 232  : 
; 233  : 	for ( y=0;y<15;y++)

  007e4	c7 45 e8 00 00
	00 00		 mov	 DWORD PTR _y$[ebp], 0
  007eb	eb 09		 jmp	 SHORT $LN12@InsertItem@3
$LN11@InsertItem@3:
  007ed	8b 45 e8	 mov	 eax, DWORD PTR _y$[ebp]
  007f0	83 c0 01	 add	 eax, 1
  007f3	89 45 e8	 mov	 DWORD PTR _y$[ebp], eax
$LN12@InsertItem@3:
  007f6	83 7d e8 0f	 cmp	 DWORD PTR _y$[ebp], 15	; 0000000fH
  007fa	7d 56		 jge	 SHORT $LN10@InsertItem@3

; 234  : 	{
; 235  : 		for ( x=0;x<8;x++)

  007fc	c7 45 ec 00 00
	00 00		 mov	 DWORD PTR _x$[ebp], 0
  00803	eb 09		 jmp	 SHORT $LN9@InsertItem@3
$LN8@InsertItem@3:
  00805	8b 45 ec	 mov	 eax, DWORD PTR _x$[ebp]
  00808	83 c0 01	 add	 eax, 1
  0080b	89 45 ec	 mov	 DWORD PTR _x$[ebp], eax
$LN9@InsertItem@3:
  0080e	83 7d ec 08	 cmp	 DWORD PTR _x$[ebp], 8
  00812	7d 3c		 jge	 SHORT $LN7@InsertItem@3

; 236  : 		{
; 237  : 			if ( this->ShopInventoryMap[x + y*8] == 0 )

  00814	8b 45 e8	 mov	 eax, DWORD PTR _y$[ebp]
  00817	8b 4d ec	 mov	 ecx, DWORD PTR _x$[ebp]
  0081a	8d 14 c1	 lea	 edx, DWORD PTR [ecx+eax*8]
  0081d	8b 45 fc	 mov	 eax, DWORD PTR _this$[ebp]
  00820	0f b6 4c 10 04	 movzx	 ecx, BYTE PTR [eax+edx+4]
  00825	85 c9		 test	 ecx, ecx
  00827	75 25		 jne	 SHORT $LN5@InsertItem@3

; 238  : 			{
; 239  : 				blank = this->InentoryMapCheck(x, y, width, height);

  00829	8b 45 f0	 mov	 eax, DWORD PTR _height$[ebp]
  0082c	50		 push	 eax
  0082d	8b 4d f4	 mov	 ecx, DWORD PTR _width$[ebp]
  00830	51		 push	 ecx
  00831	8b 55 e8	 mov	 edx, DWORD PTR _y$[ebp]
  00834	52		 push	 edx
  00835	8b 45 ec	 mov	 eax, DWORD PTR _x$[ebp]
  00838	50		 push	 eax
  00839	8b 4d fc	 mov	 ecx, DWORD PTR _this$[ebp]
  0083c	e8 00 00 00 00	 call	 ?InentoryMapCheck@CShop@@QAEHHHHH@Z ; CShop::InentoryMapCheck
  00841	89 45 e4	 mov	 DWORD PTR _blank$[ebp], eax

; 240  : 
; 241  : 				if ( blank >= 0 )

  00844	83 7d e4 00	 cmp	 DWORD PTR _blank$[ebp], 0
  00848	7c 04		 jl	 SHORT $LN5@InsertItem@3

; 242  : 				{
; 243  : 					goto skiploop;

  0084a	eb 2e		 jmp	 SHORT $LN4@InsertItem@3
  0084c	eb 2c		 jmp	 SHORT $skiploop$231896
$LN5@InsertItem@3:

; 244  : 				}
; 245  : 			}
; 246  : 		}

  0084e	eb b5		 jmp	 SHORT $LN8@InsertItem@3
$LN7@InsertItem@3:

; 247  : 	}

  00850	eb 9b		 jmp	 SHORT $LN11@InsertItem@3
$LN10@InsertItem@3:

; 248  : 
; 249  : 	if ( blank < 0 )

  00852	83 7d e4 00	 cmp	 DWORD PTR _blank$[ebp], 0
  00856	7d 22		 jge	 SHORT $LN3@InsertItem@3

; 250  : 	{
; 251  : 		MsgBox("error-L2 : %s %d", __FILE__, __LINE__);

  00858	a1 00 00 00 00	 mov	 eax, DWORD PTR ?__LINE__Var@?1??InsertItemEx@CShop@@QAEHHHHHHHHHHEK@Z@4JA
  0085d	83 c0 2b	 add	 eax, 43			; 0000002bH
  00860	50		 push	 eax
  00861	68 00 00 00 00	 push	 OFFSET ??_C@_0DM@JHJFDNLI@d?3?2projects?2exteam6?43?2source?2gam@
  00866	68 00 00 00 00	 push	 OFFSET ??_C@_0BB@FOBLMGCK@error?9L2?5?3?5?$CFs?5?$CFd?$AA@
  0086b	e8 00 00 00 00	 call	 ?MsgBox@@YAXPADZZ	; MsgBox
  00870	83 c4 0c	 add	 esp, 12			; 0000000cH

; 252  : 		return FALSE;

  00873	33 c0		 xor	 eax, eax
  00875	e9 16 02 00 00	 jmp	 $LN16@InsertItem@3
$LN3@InsertItem@3:
$LN4@InsertItem@3:
$skiploop$231896:

; 253  : 	}
; 254  : 
; 255  : skiploop:
; 256  : 
; 257  : 	this->m_item[blank].m_Level = level;

  0087a	8b 45 e4	 mov	 eax, DWORD PTR _blank$[ebp]
  0087d	69 c0 d4 00 00
	00		 imul	 eax, 212		; 000000d4H
  00883	8b 4d fc	 mov	 ecx, DWORD PTR _this$[ebp]
  00886	66 8b 55 10	 mov	 dx, WORD PTR _level$[ebp]
  0088a	66 89 94 01 88
	00 00 00	 mov	 WORD PTR [ecx+eax+136], dx

; 258  : 
; 259  : 	if ( dur == 0 )

  00892	83 7d 14 00	 cmp	 DWORD PTR _dur$[ebp], 0
  00896	75 1d		 jne	 SHORT $LN2@InsertItem@3

; 260  : 	{
; 261  : 		dur = ItemGetDurability(ITEMGET(type, index), level, 0, 0);

  00898	6a 00		 push	 0
  0089a	6a 00		 push	 0
  0089c	8b 45 10	 mov	 eax, DWORD PTR _level$[ebp]
  0089f	50		 push	 eax
  008a0	8b 4d 08	 mov	 ecx, DWORD PTR _type$[ebp]
  008a3	c1 e1 09	 shl	 ecx, 9
  008a6	03 4d 0c	 add	 ecx, DWORD PTR _index$[ebp]
  008a9	51		 push	 ecx
  008aa	e8 00 00 00 00	 call	 ?ItemGetDurability@@YAHHHHH@Z ; ItemGetDurability
  008af	83 c4 10	 add	 esp, 16			; 00000010H
  008b2	89 45 14	 mov	 DWORD PTR _dur$[ebp], eax
$LN2@InsertItem@3:

; 262  : 	}
; 263  : 
; 264  : 	this->m_item[blank].m_Durability = dur;

  008b5	db 45 14	 fild	 DWORD PTR _dur$[ebp]
  008b8	8b 45 e4	 mov	 eax, DWORD PTR _blank$[ebp]
  008bb	69 c0 d4 00 00
	00		 imul	 eax, 212		; 000000d4H
  008c1	8b 4d fc	 mov	 ecx, DWORD PTR _this$[ebp]
  008c4	d9 9c 01 a4 00
	00 00		 fstp	 DWORD PTR [ecx+eax+164]

; 265  : //#if(SHOP_EXL_ANC==TRUE)
; 266  : 	this->m_item[blank].Convert(itemp, op1, op2, op3, Excellent, Ancient, 0, NULL, 0xFF, 0, CURRENT_DB_VERSION);

  008cb	6a 03		 push	 3
  008cd	6a 00		 push	 0
  008cf	68 ff 00 00 00	 push	 255			; 000000ffH
  008d4	6a 00		 push	 0
  008d6	6a 00		 push	 0
  008d8	0f b6 45 28	 movzx	 eax, BYTE PTR _Ancient$[ebp]
  008dc	50		 push	 eax
  008dd	0f b6 4d 24	 movzx	 ecx, BYTE PTR _Excellent$[ebp]
  008e1	51		 push	 ecx
  008e2	0f b6 55 20	 movzx	 edx, BYTE PTR _op3$[ebp]
  008e6	52		 push	 edx
  008e7	0f b6 45 1c	 movzx	 eax, BYTE PTR _op2$[ebp]
  008eb	50		 push	 eax
  008ec	0f b6 4d 18	 movzx	 ecx, BYTE PTR _op1$[ebp]
  008f0	51		 push	 ecx
  008f1	8b 55 f8	 mov	 edx, DWORD PTR _itemp$[ebp]
  008f4	52		 push	 edx
  008f5	8b 45 e4	 mov	 eax, DWORD PTR _blank$[ebp]
  008f8	69 c0 d4 00 00
	00		 imul	 eax, 212		; 000000d4H
  008fe	8b 4d fc	 mov	 ecx, DWORD PTR _this$[ebp]
  00901	8d 8c 01 80 00
	00 00		 lea	 ecx, DWORD PTR [ecx+eax+128]
  00908	e8 00 00 00 00	 call	 ?Convert@CItem@@QAEXHEEEEEEPAEEEE@Z ; CItem::Convert

; 267  : //#else
; 268  : //	this->m_item[blank].Convert(itemp, op1, op2, op3, 0, 0, 0, NULL, 0xFF, CURRENT_DB_VERSION);
; 269  : //#endif
; 270  : 	this->m_item[blank].Value();

  0090d	8b 45 e4	 mov	 eax, DWORD PTR _blank$[ebp]
  00910	69 c0 d4 00 00
	00		 imul	 eax, 212		; 000000d4H
  00916	8b 4d fc	 mov	 ecx, DWORD PTR _this$[ebp]
  00919	8d 8c 01 80 00
	00 00		 lea	 ecx, DWORD PTR [ecx+eax+128]
  00920	e8 00 00 00 00	 call	 ?Value@CItem@@QAEXXZ	; CItem::Value

; 271  : 
; 272  : 	this->ShopEx[this->ItemCount].ItemType = type;

  00925	8b 45 fc	 mov	 eax, DWORD PTR _this$[ebp]
  00928	8b 48 7c	 mov	 ecx, DWORD PTR [eax+124]
  0092b	6b c9 0c	 imul	 ecx, 12			; 0000000cH
  0092e	8b 55 fc	 mov	 edx, DWORD PTR _this$[ebp]
  00931	8a 45 08	 mov	 al, BYTE PTR _type$[ebp]
  00934	88 84 0a fc 69
	00 00		 mov	 BYTE PTR [edx+ecx+27132], al

; 273  : 	this->ShopEx[this->ItemCount].ItemIndex = index;

  0093b	8b 45 fc	 mov	 eax, DWORD PTR _this$[ebp]
  0093e	8b 48 7c	 mov	 ecx, DWORD PTR [eax+124]
  00941	6b c9 0c	 imul	 ecx, 12			; 0000000cH
  00944	8b 55 fc	 mov	 edx, DWORD PTR _this$[ebp]
  00947	8a 45 0c	 mov	 al, BYTE PTR _index$[ebp]
  0094a	88 84 0a fd 69
	00 00		 mov	 BYTE PTR [edx+ecx+27133], al

; 274  : 	this->ShopEx[this->ItemCount].ItemLevel = level;

  00951	8b 45 fc	 mov	 eax, DWORD PTR _this$[ebp]
  00954	8b 48 7c	 mov	 ecx, DWORD PTR [eax+124]
  00957	6b c9 0c	 imul	 ecx, 12			; 0000000cH
  0095a	8b 55 fc	 mov	 edx, DWORD PTR _this$[ebp]
  0095d	8a 45 10	 mov	 al, BYTE PTR _level$[ebp]
  00960	88 84 0a fe 69
	00 00		 mov	 BYTE PTR [edx+ecx+27134], al

; 275  : 	this->ShopEx[this->ItemCount].ItemExl = Excellent;

  00967	8b 45 fc	 mov	 eax, DWORD PTR _this$[ebp]
  0096a	8b 48 7c	 mov	 ecx, DWORD PTR [eax+124]
  0096d	6b c9 0c	 imul	 ecx, 12			; 0000000cH
  00970	8b 55 fc	 mov	 edx, DWORD PTR _this$[ebp]
  00973	8a 45 24	 mov	 al, BYTE PTR _Excellent$[ebp]
  00976	88 84 0a ff 69
	00 00		 mov	 BYTE PTR [edx+ecx+27135], al

; 276  : 	this->ShopEx[this->ItemCount].ItemAnc = Ancient;

  0097d	8b 45 fc	 mov	 eax, DWORD PTR _this$[ebp]
  00980	8b 48 7c	 mov	 ecx, DWORD PTR [eax+124]
  00983	6b c9 0c	 imul	 ecx, 12			; 0000000cH
  00986	8b 55 fc	 mov	 edx, DWORD PTR _this$[ebp]
  00989	8a 45 28	 mov	 al, BYTE PTR _Ancient$[ebp]
  0098c	88 84 0a 00 6a
	00 00		 mov	 BYTE PTR [edx+ecx+27136], al

; 277  : 	this->ShopEx[this->ItemCount].PayType = iPayType;

  00993	8b 45 fc	 mov	 eax, DWORD PTR _this$[ebp]
  00996	8b 48 7c	 mov	 ecx, DWORD PTR [eax+124]
  00999	6b c9 0c	 imul	 ecx, 12			; 0000000cH
  0099c	8b 55 fc	 mov	 edx, DWORD PTR _this$[ebp]
  0099f	8a 45 2c	 mov	 al, BYTE PTR _iPayType$[ebp]
  009a2	88 84 0a 01 6a
	00 00		 mov	 BYTE PTR [edx+ecx+27137], al

; 278  : 	this->ShopEx[this->ItemCount].PayPrice = iPayPrice;

  009a9	8b 45 fc	 mov	 eax, DWORD PTR _this$[ebp]
  009ac	8b 48 7c	 mov	 ecx, DWORD PTR [eax+124]
  009af	6b c9 0c	 imul	 ecx, 12			; 0000000cH
  009b2	8b 55 fc	 mov	 edx, DWORD PTR _this$[ebp]
  009b5	8b 45 30	 mov	 eax, DWORD PTR _iPayPrice$[ebp]
  009b8	89 84 0a 04 6a
	00 00		 mov	 DWORD PTR [edx+ecx+27140], eax

; 279  : 
; 280  : 	if(g_SocketOption.CheckItemType(itemp) == 1)//Season 4.5 addon

  009bf	8b 45 f8	 mov	 eax, DWORD PTR _itemp$[ebp]
  009c2	50		 push	 eax
  009c3	b9 00 00 00 00	 mov	 ecx, OFFSET ?g_SocketOption@@3VCSocketOption@@A ; g_SocketOption
  009c8	e8 00 00 00 00	 call	 ?CheckItemType@CSocketOption@@QAEEH@Z ; CSocketOption::CheckItemType
  009cd	0f b6 c8	 movzx	 ecx, al
  009d0	83 f9 01	 cmp	 ecx, 1
  009d3	75 26		 jne	 SHORT $LN1@InsertItem@3

; 281  : 	{
; 282  : 		g_SocketOption.ClearSlotOption(&this->m_item[blank],g_iShopBuySocketItemSlotCount);

  009d5	0f b6 05 00 00
	00 00		 movzx	 eax, BYTE PTR ?g_iShopBuySocketItemSlotCount@@3HA
  009dc	50		 push	 eax
  009dd	8b 4d e4	 mov	 ecx, DWORD PTR _blank$[ebp]
  009e0	69 c9 d4 00 00
	00		 imul	 ecx, 212		; 000000d4H
  009e6	8b 55 fc	 mov	 edx, DWORD PTR _this$[ebp]
  009e9	8d 84 0a 80 00
	00 00		 lea	 eax, DWORD PTR [edx+ecx+128]
  009f0	50		 push	 eax
  009f1	b9 00 00 00 00	 mov	 ecx, OFFSET ?g_SocketOption@@3VCSocketOption@@A ; g_SocketOption
  009f6	e8 00 00 00 00	 call	 ?ClearSlotOption@CSocketOption@@QAEXPAVCItem@@E@Z ; CSocketOption::ClearSlotOption
$LN1@InsertItem@3:

; 283  : 	}
; 284  : 
; 285  : 	this->SendItemData[this->SendItemDataLen] = blank;

  009fb	8b 45 fc	 mov	 eax, DWORD PTR _this$[ebp]
  009fe	8b 88 f8 69 00
	00		 mov	 ecx, DWORD PTR [eax+27128]
  00a04	8b 55 fc	 mov	 edx, DWORD PTR _this$[ebp]
  00a07	8a 45 e4	 mov	 al, BYTE PTR _blank$[ebp]
  00a0a	88 84 0a e0 63
	00 00		 mov	 BYTE PTR [edx+ecx+25568], al

; 286  : 	this->SendItemDataLen++;

  00a11	8b 45 fc	 mov	 eax, DWORD PTR _this$[ebp]
  00a14	8b 88 f8 69 00
	00		 mov	 ecx, DWORD PTR [eax+27128]
  00a1a	83 c1 01	 add	 ecx, 1
  00a1d	8b 55 fc	 mov	 edx, DWORD PTR _this$[ebp]
  00a20	89 8a f8 69 00
	00		 mov	 DWORD PTR [edx+27128], ecx

; 287  : 	ItemByteConvert((LPBYTE)&this->SendItemData[this->SendItemDataLen], this->m_item[blank]);

  00a26	8b 45 e4	 mov	 eax, DWORD PTR _blank$[ebp]
  00a29	69 c0 d4 00 00
	00		 imul	 eax, 212		; 000000d4H
  00a2f	8b 4d fc	 mov	 ecx, DWORD PTR _this$[ebp]
  00a32	8d b4 01 80 00
	00 00		 lea	 esi, DWORD PTR [ecx+eax+128]
  00a39	81 ec d4 00 00
	00		 sub	 esp, 212		; 000000d4H
  00a3f	b9 35 00 00 00	 mov	 ecx, 53			; 00000035H
  00a44	8b fc		 mov	 edi, esp
  00a46	f3 a5		 rep movsd
  00a48	8b 55 fc	 mov	 edx, DWORD PTR _this$[ebp]
  00a4b	8b 82 f8 69 00
	00		 mov	 eax, DWORD PTR [edx+27128]
  00a51	8b 4d fc	 mov	 ecx, DWORD PTR _this$[ebp]
  00a54	8d 94 01 e0 63
	00 00		 lea	 edx, DWORD PTR [ecx+eax+25568]
  00a5b	52		 push	 edx
  00a5c	e8 00 00 00 00	 call	 ?ItemByteConvert@@YAXPAEVCItem@@@Z ; ItemByteConvert
  00a61	81 c4 d8 00 00
	00		 add	 esp, 216		; 000000d8H

; 288  : 	this->SendItemDataLen += MAX_ITEM_INFO;

  00a67	8b 45 fc	 mov	 eax, DWORD PTR _this$[ebp]
  00a6a	8b 88 f8 69 00
	00		 mov	 ecx, DWORD PTR [eax+27128]
  00a70	83 c1 0c	 add	 ecx, 12			; 0000000cH
  00a73	8b 55 fc	 mov	 edx, DWORD PTR _this$[ebp]
  00a76	89 8a f8 69 00
	00		 mov	 DWORD PTR [edx+27128], ecx

; 289  : 	this->ItemCount++;

  00a7c	8b 45 fc	 mov	 eax, DWORD PTR _this$[ebp]
  00a7f	8b 48 7c	 mov	 ecx, DWORD PTR [eax+124]
  00a82	83 c1 01	 add	 ecx, 1
  00a85	8b 55 fc	 mov	 edx, DWORD PTR _this$[ebp]
  00a88	89 4a 7c	 mov	 DWORD PTR [edx+124], ecx

; 290  : 
; 291  : 	return TRUE;

  00a8b	b8 01 00 00 00	 mov	 eax, 1
$LN16@InsertItem@3:

; 292  : }

  00a90	5f		 pop	 edi
  00a91	5e		 pop	 esi
  00a92	5b		 pop	 ebx
  00a93	8b e5		 mov	 esp, ebp
  00a95	5d		 pop	 ebp
  00a96	c2 2c 00	 ret	 44			; 0000002cH
?InsertItemEx@CShop@@QAEHHHHHHHHHHEK@Z ENDP		; CShop::InsertItemEx
; Function compile flags: /Odtp /ZI
_blank$ = -16						; size = 4
_y$ = -12						; size = 4
_x$ = -8						; size = 4
_this$ = -4						; size = 4
_sx$ = 8						; size = 4
_sy$ = 12						; size = 4
_width$ = 16						; size = 4
_height$ = 20						; size = 4
?InentoryMapCheck@CShop@@QAEHHHHH@Z PROC		; CShop::InentoryMapCheck
; _this$ = ecx

; 296  : {

  00aa0	55		 push	 ebp
  00aa1	8b ec		 mov	 ebp, esp
  00aa3	83 ec 50	 sub	 esp, 80			; 00000050H
  00aa6	53		 push	 ebx
  00aa7	56		 push	 esi
  00aa8	57		 push	 edi
  00aa9	89 4d fc	 mov	 DWORD PTR _this$[ebp], ecx

; 297  : 	int x;
; 298  : 	int y;
; 299  : 	int blank = 0;

  00aac	c7 45 f0 00 00
	00 00		 mov	 DWORD PTR _blank$[ebp], 0

; 300  : 
; 301  : 	if ( (sx+width) > 8 )

  00ab3	8b 45 08	 mov	 eax, DWORD PTR _sx$[ebp]
  00ab6	03 45 10	 add	 eax, DWORD PTR _width$[ebp]
  00ab9	83 f8 08	 cmp	 eax, 8
  00abc	7e 08		 jle	 SHORT $LN16@InentoryMa

; 302  : 		return -1;

  00abe	83 c8 ff	 or	 eax, -1
  00ac1	e9 ce 00 00 00	 jmp	 $LN17@InentoryMa
$LN16@InentoryMa:

; 303  : 
; 304  : 	if ( (sy+height) > 15 )

  00ac6	8b 45 0c	 mov	 eax, DWORD PTR _sy$[ebp]
  00ac9	03 45 14	 add	 eax, DWORD PTR _height$[ebp]
  00acc	83 f8 0f	 cmp	 eax, 15			; 0000000fH
  00acf	7e 08		 jle	 SHORT $LN15@InentoryMa

; 305  : 		return -1;

  00ad1	83 c8 ff	 or	 eax, -1
  00ad4	e9 bb 00 00 00	 jmp	 $LN17@InentoryMa
$LN15@InentoryMa:

; 306  : 
; 307  : 	for(y=0;y<height;y++)

  00ad9	c7 45 f4 00 00
	00 00		 mov	 DWORD PTR _y$[ebp], 0
  00ae0	eb 09		 jmp	 SHORT $LN14@InentoryMa
$LN13@InentoryMa:
  00ae2	8b 45 f4	 mov	 eax, DWORD PTR _y$[ebp]
  00ae5	83 c0 01	 add	 eax, 1
  00ae8	89 45 f4	 mov	 DWORD PTR _y$[ebp], eax
$LN14@InentoryMa:
  00aeb	8b 45 f4	 mov	 eax, DWORD PTR _y$[ebp]
  00aee	3b 45 14	 cmp	 eax, DWORD PTR _height$[ebp]
  00af1	7d 41		 jge	 SHORT $LN12@InentoryMa

; 308  : 	{
; 309  : 		for(x=0;x<width;x++)

  00af3	c7 45 f8 00 00
	00 00		 mov	 DWORD PTR _x$[ebp], 0
  00afa	eb 09		 jmp	 SHORT $LN11@InentoryMa
$LN10@InentoryMa:
  00afc	8b 45 f8	 mov	 eax, DWORD PTR _x$[ebp]
  00aff	83 c0 01	 add	 eax, 1
  00b02	89 45 f8	 mov	 DWORD PTR _x$[ebp], eax
$LN11@InentoryMa:
  00b05	8b 45 f8	 mov	 eax, DWORD PTR _x$[ebp]
  00b08	3b 45 10	 cmp	 eax, DWORD PTR _width$[ebp]
  00b0b	7d 25		 jge	 SHORT $LN9@InentoryMa

; 310  : 		{
; 311  : 			if ( this->ShopInventoryMap[( sy + y) * 8 + (sx + x)] )

  00b0d	8b 45 0c	 mov	 eax, DWORD PTR _sy$[ebp]
  00b10	03 45 f4	 add	 eax, DWORD PTR _y$[ebp]
  00b13	8b 4d 08	 mov	 ecx, DWORD PTR _sx$[ebp]
  00b16	03 4d f8	 add	 ecx, DWORD PTR _x$[ebp]
  00b19	03 4d fc	 add	 ecx, DWORD PTR _this$[ebp]
  00b1c	0f b6 54 c1 04	 movzx	 edx, BYTE PTR [ecx+eax*8+4]
  00b21	85 d2		 test	 edx, edx
  00b23	74 0b		 je	 SHORT $LN8@InentoryMa

; 312  : 			{
; 313  : 				blank++;

  00b25	8b 45 f0	 mov	 eax, DWORD PTR _blank$[ebp]
  00b28	83 c0 01	 add	 eax, 1
  00b2b	89 45 f0	 mov	 DWORD PTR _blank$[ebp], eax

; 314  : 				break;

  00b2e	eb 02		 jmp	 SHORT $LN9@InentoryMa
$LN8@InentoryMa:

; 315  : 			}
; 316  : 		}

  00b30	eb ca		 jmp	 SHORT $LN10@InentoryMa
$LN9@InentoryMa:

; 317  : 	}

  00b32	eb ae		 jmp	 SHORT $LN13@InentoryMa
$LN12@InentoryMa:

; 318  : 
; 319  : 	if ( blank == 0 )

  00b34	83 7d f0 00	 cmp	 DWORD PTR _blank$[ebp], 0
  00b38	75 57		 jne	 SHORT $LN7@InentoryMa

; 320  : 	{
; 321  : 		for(y=0;y<height;y++)

  00b3a	c7 45 f4 00 00
	00 00		 mov	 DWORD PTR _y$[ebp], 0
  00b41	eb 09		 jmp	 SHORT $LN6@InentoryMa
$LN5@InentoryMa:
  00b43	8b 45 f4	 mov	 eax, DWORD PTR _y$[ebp]
  00b46	83 c0 01	 add	 eax, 1
  00b49	89 45 f4	 mov	 DWORD PTR _y$[ebp], eax
$LN6@InentoryMa:
  00b4c	8b 45 f4	 mov	 eax, DWORD PTR _y$[ebp]
  00b4f	3b 45 14	 cmp	 eax, DWORD PTR _height$[ebp]
  00b52	7d 32		 jge	 SHORT $LN4@InentoryMa

; 322  : 		{
; 323  : 			for(x=0;x<width;x++)

  00b54	c7 45 f8 00 00
	00 00		 mov	 DWORD PTR _x$[ebp], 0
  00b5b	eb 09		 jmp	 SHORT $LN3@InentoryMa
$LN2@InentoryMa:
  00b5d	8b 45 f8	 mov	 eax, DWORD PTR _x$[ebp]
  00b60	83 c0 01	 add	 eax, 1
  00b63	89 45 f8	 mov	 DWORD PTR _x$[ebp], eax
$LN3@InentoryMa:
  00b66	8b 45 f8	 mov	 eax, DWORD PTR _x$[ebp]
  00b69	3b 45 10	 cmp	 eax, DWORD PTR _width$[ebp]
  00b6c	7d 16		 jge	 SHORT $LN1@InentoryMa

; 324  : 			{
; 325  : 				this->ShopInventoryMap[( sy + y) * 8 + (sx + x)] = 1;

  00b6e	8b 45 0c	 mov	 eax, DWORD PTR _sy$[ebp]
  00b71	03 45 f4	 add	 eax, DWORD PTR _y$[ebp]
  00b74	8b 4d 08	 mov	 ecx, DWORD PTR _sx$[ebp]
  00b77	03 4d f8	 add	 ecx, DWORD PTR _x$[ebp]
  00b7a	03 4d fc	 add	 ecx, DWORD PTR _this$[ebp]
  00b7d	c6 44 c1 04 01	 mov	 BYTE PTR [ecx+eax*8+4], 1

; 326  : 			}

  00b82	eb d9		 jmp	 SHORT $LN2@InentoryMa
$LN1@InentoryMa:

; 327  : 		}

  00b84	eb bd		 jmp	 SHORT $LN5@InentoryMa
$LN4@InentoryMa:

; 328  : 
; 329  : 		return (sx + sy*8);

  00b86	8b 45 0c	 mov	 eax, DWORD PTR _sy$[ebp]
  00b89	8b 4d 08	 mov	 ecx, DWORD PTR _sx$[ebp]
  00b8c	8d 04 c1	 lea	 eax, DWORD PTR [ecx+eax*8]
  00b8f	eb 03		 jmp	 SHORT $LN17@InentoryMa
$LN7@InentoryMa:

; 330  : 	}
; 331  : 
; 332  : 	return -1;

  00b91	83 c8 ff	 or	 eax, -1
$LN17@InentoryMa:

; 333  : }

  00b94	5f		 pop	 edi
  00b95	5e		 pop	 esi
  00b96	5b		 pop	 ebx
  00b97	8b e5		 mov	 esp, ebp
  00b99	5d		 pop	 ebp
  00b9a	c2 10 00	 ret	 16			; 00000010H
?InentoryMapCheck@CShop@@QAEHHHHH@Z ENDP		; CShop::InentoryMapCheck
_TEXT	ENDS
PUBLIC	??_C@_0BE@LCGMGNMN@error?9L3?5?3?5?$CFs?5?$CFs?5?$CFd?$AA@ ; `string'
PUBLIC	?__LINE__Var@?1??LoadShopItem@CShop@@QAEHPAD@Z@4JA ; `CShop::LoadShopItem'::`2'::__LINE__Var
PUBLIC	??_C@_0BI@IEDKKFGG@Shop?5data?5load?5error?5?$CFs?$AA@ ; `string'
PUBLIC	??_C@_01KDCPPGHE@r?$AA@				; `string'
PUBLIC	?LoadShopItem@CShop@@QAEHPAD@Z			; CShop::LoadShopItem
EXTRN	_fclose:PROC
EXTRN	_fopen:PROC
EXTRN	__ftol2_sse:PROC
_BSS	SEGMENT
_TokenNumber DD	01H DUP (?)
_SMDFile DD	01H DUP (?)
_BSS	ENDS
;	COMDAT ??_C@_0BE@LCGMGNMN@error?9L3?5?3?5?$CFs?5?$CFs?5?$CFd?$AA@
CONST	SEGMENT
??_C@_0BE@LCGMGNMN@error?9L3?5?3?5?$CFs?5?$CFs?5?$CFd?$AA@ DB 'error-L3 :'
	DB	' %s %s %d', 00H				; `string'
CONST	ENDS
;	COMDAT ?__LINE__Var@?1??LoadShopItem@CShop@@QAEHPAD@Z@4JA
_DATA	SEGMENT
?__LINE__Var@?1??LoadShopItem@CShop@@QAEHPAD@Z@4JA DD 0150H ; `CShop::LoadShopItem'::`2'::__LINE__Var
_DATA	ENDS
;	COMDAT ??_C@_0BI@IEDKKFGG@Shop?5data?5load?5error?5?$CFs?$AA@
CONST	SEGMENT
??_C@_0BI@IEDKKFGG@Shop?5data?5load?5error?5?$CFs?$AA@ DB 'Shop data load'
	DB	' error %s', 00H				; `string'
CONST	ENDS
;	COMDAT ??_C@_01KDCPPGHE@r?$AA@
CONST	SEGMENT
??_C@_01KDCPPGHE@r?$AA@ DB 'r', 00H			; `string'
; Function compile flags: /Odtp /ZI
CONST	ENDS
_TEXT	SEGMENT
_Ancient$ = -44						; size = 4
_Excellent$ = -40					; size = 4
_op3$ = -36						; size = 4
_op2$ = -32						; size = 4
_op1$ = -28						; size = 4
_dur$ = -24						; size = 4
_level$ = -20						; size = 4
_index$ = -16						; size = 4
_type$ = -12						; size = 4
_Token$ = -8						; size = 4
_this$ = -4						; size = 4
_filename$ = 8						; size = 4
?LoadShopItem@CShop@@QAEHPAD@Z PROC			; CShop::LoadShopItem
; _this$ = ecx

; 336  : {

  00ba0	55		 push	 ebp
  00ba1	8b ec		 mov	 ebp, esp
  00ba3	83 ec 6c	 sub	 esp, 108		; 0000006cH
  00ba6	53		 push	 ebx
  00ba7	56		 push	 esi
  00ba8	57		 push	 edi
  00ba9	89 4d fc	 mov	 DWORD PTR _this$[ebp], ecx

; 337  : 	int Token;
; 338  : 	int type;
; 339  : 	int index;
; 340  : 	int level;
; 341  : 	int dur;
; 342  : 	int op1;
; 343  : 	int op2;
; 344  : 	int op3;
; 345  : 	int Excellent;
; 346  : 	int Ancient;
; 347  : 
; 348  : 	this->Init();

  00bac	8b 4d fc	 mov	 ecx, DWORD PTR _this$[ebp]
  00baf	e8 00 00 00 00	 call	 ?Init@CShop@@QAEXXZ	; CShop::Init

; 349  : 
; 350  : 	SMDFile = fopen(filename, "r");

  00bb4	68 00 00 00 00	 push	 OFFSET ??_C@_01KDCPPGHE@r?$AA@
  00bb9	8b 45 08	 mov	 eax, DWORD PTR _filename$[ebp]
  00bbc	50		 push	 eax
  00bbd	e8 00 00 00 00	 call	 _fopen
  00bc2	83 c4 08	 add	 esp, 8
  00bc5	a3 00 00 00 00	 mov	 DWORD PTR _SMDFile, eax

; 351  : 
; 352  : 	if ( SMDFile == NULL )

  00bca	83 3d 00 00 00
	00 00		 cmp	 DWORD PTR _SMDFile, 0
  00bd1	75 18		 jne	 SHORT $LN7@LoadShopIt

; 353  : 	{
; 354  : 		MsgBox("Shop data load error %s", filename);

  00bd3	8b 45 08	 mov	 eax, DWORD PTR _filename$[ebp]
  00bd6	50		 push	 eax
  00bd7	68 00 00 00 00	 push	 OFFSET ??_C@_0BI@IEDKKFGG@Shop?5data?5load?5error?5?$CFs?$AA@
  00bdc	e8 00 00 00 00	 call	 ?MsgBox@@YAXPADZZ	; MsgBox
  00be1	83 c4 08	 add	 esp, 8

; 355  : 		return FALSE;

  00be4	33 c0		 xor	 eax, eax
  00be6	e9 62 01 00 00	 jmp	 $LN8@LoadShopIt
$LN7@LoadShopIt:

; 356  : 	}
; 357  : 
; 358  : 	while ( true )

  00beb	b8 01 00 00 00	 mov	 eax, 1
  00bf0	85 c0		 test	 eax, eax
  00bf2	0f 84 42 01 00
	00		 je	 $LN5@LoadShopIt

; 359  : 	{
; 360  : 		Token = GetToken();

  00bf8	e8 00 00 00 00	 call	 ?GetToken@@YA?AW4SMDToken@@XZ ; GetToken
  00bfd	89 45 f8	 mov	 DWORD PTR _Token$[ebp], eax

; 361  : 
; 362  : 		if ( Token == 2 )

  00c00	83 7d f8 02	 cmp	 DWORD PTR _Token$[ebp], 2
  00c04	75 05		 jne	 SHORT $LN4@LoadShopIt

; 363  : 		{
; 364  : 			break;

  00c06	e9 2f 01 00 00	 jmp	 $LN5@LoadShopIt
$LN4@LoadShopIt:

; 365  : 		}
; 366  : 
; 367  : 		if ( Token == 1 )

  00c0b	83 7d f8 01	 cmp	 DWORD PTR _Token$[ebp], 1
  00c0f	0f 85 20 01 00
	00		 jne	 $LN1@LoadShopIt

; 368  : 		{
; 369  : 			type = (int)TokenNumber;

  00c15	d9 05 00 00 00
	00		 fld	 DWORD PTR _TokenNumber
  00c1b	e8 00 00 00 00	 call	 __ftol2_sse
  00c20	89 45 f4	 mov	 DWORD PTR _type$[ebp], eax

; 370  : 
; 371  : 			Token = GetToken();

  00c23	e8 00 00 00 00	 call	 ?GetToken@@YA?AW4SMDToken@@XZ ; GetToken
  00c28	89 45 f8	 mov	 DWORD PTR _Token$[ebp], eax

; 372  : 			index = (int)TokenNumber;

  00c2b	d9 05 00 00 00
	00		 fld	 DWORD PTR _TokenNumber
  00c31	e8 00 00 00 00	 call	 __ftol2_sse
  00c36	89 45 f0	 mov	 DWORD PTR _index$[ebp], eax

; 373  : 
; 374  : 			Token = GetToken();

  00c39	e8 00 00 00 00	 call	 ?GetToken@@YA?AW4SMDToken@@XZ ; GetToken
  00c3e	89 45 f8	 mov	 DWORD PTR _Token$[ebp], eax

; 375  : 			level = (int)TokenNumber;

  00c41	d9 05 00 00 00
	00		 fld	 DWORD PTR _TokenNumber
  00c47	e8 00 00 00 00	 call	 __ftol2_sse
  00c4c	89 45 ec	 mov	 DWORD PTR _level$[ebp], eax

; 376  : 
; 377  : 			Token = GetToken();

  00c4f	e8 00 00 00 00	 call	 ?GetToken@@YA?AW4SMDToken@@XZ ; GetToken
  00c54	89 45 f8	 mov	 DWORD PTR _Token$[ebp], eax

; 378  : 			dur = (int)TokenNumber;

  00c57	d9 05 00 00 00
	00		 fld	 DWORD PTR _TokenNumber
  00c5d	e8 00 00 00 00	 call	 __ftol2_sse
  00c62	89 45 e8	 mov	 DWORD PTR _dur$[ebp], eax

; 379  : 
; 380  : 			Token = GetToken();

  00c65	e8 00 00 00 00	 call	 ?GetToken@@YA?AW4SMDToken@@XZ ; GetToken
  00c6a	89 45 f8	 mov	 DWORD PTR _Token$[ebp], eax

; 381  : 			op1 = (int)TokenNumber;

  00c6d	d9 05 00 00 00
	00		 fld	 DWORD PTR _TokenNumber
  00c73	e8 00 00 00 00	 call	 __ftol2_sse
  00c78	89 45 e4	 mov	 DWORD PTR _op1$[ebp], eax

; 382  : 
; 383  : 			Token = GetToken();

  00c7b	e8 00 00 00 00	 call	 ?GetToken@@YA?AW4SMDToken@@XZ ; GetToken
  00c80	89 45 f8	 mov	 DWORD PTR _Token$[ebp], eax

; 384  : 			op2 = (int)TokenNumber;

  00c83	d9 05 00 00 00
	00		 fld	 DWORD PTR _TokenNumber
  00c89	e8 00 00 00 00	 call	 __ftol2_sse
  00c8e	89 45 e0	 mov	 DWORD PTR _op2$[ebp], eax

; 385  : 
; 386  : 			Token = GetToken();

  00c91	e8 00 00 00 00	 call	 ?GetToken@@YA?AW4SMDToken@@XZ ; GetToken
  00c96	89 45 f8	 mov	 DWORD PTR _Token$[ebp], eax

; 387  : 			op3 = (int)TokenNumber;

  00c99	d9 05 00 00 00
	00		 fld	 DWORD PTR _TokenNumber
  00c9f	e8 00 00 00 00	 call	 __ftol2_sse
  00ca4	89 45 dc	 mov	 DWORD PTR _op3$[ebp], eax

; 388  : 
; 389  : 			Token = GetToken();

  00ca7	e8 00 00 00 00	 call	 ?GetToken@@YA?AW4SMDToken@@XZ ; GetToken
  00cac	89 45 f8	 mov	 DWORD PTR _Token$[ebp], eax

; 390  : 			Excellent = TokenNumber;

  00caf	d9 05 00 00 00
	00		 fld	 DWORD PTR _TokenNumber
  00cb5	e8 00 00 00 00	 call	 __ftol2_sse
  00cba	89 45 d8	 mov	 DWORD PTR _Excellent$[ebp], eax

; 391  : 
; 392  : 			Token = GetToken();

  00cbd	e8 00 00 00 00	 call	 ?GetToken@@YA?AW4SMDToken@@XZ ; GetToken
  00cc2	89 45 f8	 mov	 DWORD PTR _Token$[ebp], eax

; 393  : 			Ancient = TokenNumber;

  00cc5	d9 05 00 00 00
	00		 fld	 DWORD PTR _TokenNumber
  00ccb	e8 00 00 00 00	 call	 __ftol2_sse
  00cd0	89 45 d4	 mov	 DWORD PTR _Ancient$[ebp], eax

; 394  : 
; 395  : 			if(Ancient != 5 && Ancient != 10)

  00cd3	83 7d d4 05	 cmp	 DWORD PTR _Ancient$[ebp], 5
  00cd7	74 0d		 je	 SHORT $LN2@LoadShopIt
  00cd9	83 7d d4 0a	 cmp	 DWORD PTR _Ancient$[ebp], 10 ; 0000000aH
  00cdd	74 07		 je	 SHORT $LN2@LoadShopIt

; 396  : 			{
; 397  : 				Ancient = 0;

  00cdf	c7 45 d4 00 00
	00 00		 mov	 DWORD PTR _Ancient$[ebp], 0
$LN2@LoadShopIt:

; 398  : 			}
; 399  : 
; 400  : 			if (this->InsertItem(type, index, level, dur, op1, op2, op3, Excellent, Ancient) == FALSE )

  00ce6	8b 45 d4	 mov	 eax, DWORD PTR _Ancient$[ebp]
  00ce9	50		 push	 eax
  00cea	8b 4d d8	 mov	 ecx, DWORD PTR _Excellent$[ebp]
  00ced	51		 push	 ecx
  00cee	8b 55 dc	 mov	 edx, DWORD PTR _op3$[ebp]
  00cf1	52		 push	 edx
  00cf2	8b 45 e0	 mov	 eax, DWORD PTR _op2$[ebp]
  00cf5	50		 push	 eax
  00cf6	8b 4d e4	 mov	 ecx, DWORD PTR _op1$[ebp]
  00cf9	51		 push	 ecx
  00cfa	8b 55 e8	 mov	 edx, DWORD PTR _dur$[ebp]
  00cfd	52		 push	 edx
  00cfe	8b 45 ec	 mov	 eax, DWORD PTR _level$[ebp]
  00d01	50		 push	 eax
  00d02	8b 4d f0	 mov	 ecx, DWORD PTR _index$[ebp]
  00d05	51		 push	 ecx
  00d06	8b 55 f4	 mov	 edx, DWORD PTR _type$[ebp]
  00d09	52		 push	 edx
  00d0a	8b 4d fc	 mov	 ecx, DWORD PTR _this$[ebp]
  00d0d	e8 00 00 00 00	 call	 ?InsertItem@CShop@@QAEHHHHHHHHHH@Z ; CShop::InsertItem
  00d12	85 c0		 test	 eax, eax
  00d14	75 1f		 jne	 SHORT $LN1@LoadShopIt

; 401  : 			{
; 402  : 				MsgBox("error-L3 : %s %s %d", filename, __FILE__, __LINE__);

  00d16	a1 00 00 00 00	 mov	 eax, DWORD PTR ?__LINE__Var@?1??LoadShopItem@CShop@@QAEHPAD@Z@4JA
  00d1b	83 c0 42	 add	 eax, 66			; 00000042H
  00d1e	50		 push	 eax
  00d1f	68 00 00 00 00	 push	 OFFSET ??_C@_0DM@JHJFDNLI@d?3?2projects?2exteam6?43?2source?2gam@
  00d24	8b 4d 08	 mov	 ecx, DWORD PTR _filename$[ebp]
  00d27	51		 push	 ecx
  00d28	68 00 00 00 00	 push	 OFFSET ??_C@_0BE@LCGMGNMN@error?9L3?5?3?5?$CFs?5?$CFs?5?$CFd?$AA@
  00d2d	e8 00 00 00 00	 call	 ?MsgBox@@YAXPADZZ	; MsgBox
  00d32	83 c4 10	 add	 esp, 16			; 00000010H
$LN1@LoadShopIt:

; 403  : 			}
; 404  : 		}
; 405  : 	}

  00d35	e9 b1 fe ff ff	 jmp	 $LN7@LoadShopIt
$LN5@LoadShopIt:

; 406  : 
; 407  : 	fclose(SMDFile);

  00d3a	a1 00 00 00 00	 mov	 eax, DWORD PTR _SMDFile
  00d3f	50		 push	 eax
  00d40	e8 00 00 00 00	 call	 _fclose
  00d45	83 c4 04	 add	 esp, 4

; 408  : 	return true;

  00d48	b8 01 00 00 00	 mov	 eax, 1
$LN8@LoadShopIt:

; 409  : }

  00d4d	5f		 pop	 edi
  00d4e	5e		 pop	 esi
  00d4f	5b		 pop	 ebx
  00d50	8b e5		 mov	 esp, ebp
  00d52	5d		 pop	 ebp
  00d53	c2 04 00	 ret	 4
?LoadShopItem@CShop@@QAEHPAD@Z ENDP			; CShop::LoadShopItem
_TEXT	ENDS
PUBLIC	__$ArrayPad$
EXTRN	_isalnum:PROC
EXTRN	_isalpha:PROC
EXTRN	_atof:PROC
EXTRN	_isdigit:PROC
EXTRN	_getc:PROC
EXTRN	_ungetc:PROC
EXTRN	_isspace:PROC
EXTRN	_fgetc:PROC
EXTRN	___security_cookie:DWORD
EXTRN	@__security_check_cookie@4:PROC
_BSS	SEGMENT
_CurrentToken DD 01H DUP (?)
_TokenString DB	064H DUP (?)
; Function compile flags: /Odtp /ZI
; File d:\projects\exteam6.3\source\gameserver\include\readscript.h
_BSS	ENDS
_TEXT	SEGMENT
tv90 = -180						; size = 4
_TempString$ = -112					; size = 100
_p$ = -12						; size = 4
_ch$ = -5						; size = 1
__$ArrayPad$ = -4					; size = 4
?GetToken@@YA?AW4SMDToken@@XZ PROC			; GetToken

; 24   : {

  00d60	55		 push	 ebp
  00d61	8b ec		 mov	 ebp, esp
  00d63	81 ec b4 00 00
	00		 sub	 esp, 180		; 000000b4H
  00d69	a1 00 00 00 00	 mov	 eax, DWORD PTR ___security_cookie
  00d6e	33 c5		 xor	 eax, ebp
  00d70	89 45 fc	 mov	 DWORD PTR __$ArrayPad$[ebp], eax
  00d73	53		 push	 ebx
  00d74	56		 push	 esi
  00d75	57		 push	 edi

; 25   : 	char ch;
; 26   : 	char* p;
; 27   : 	char TempString[100];
; 28   : 
; 29   : 	TokenString[0]=0;

  00d76	c6 05 00 00 00
	00 00		 mov	 BYTE PTR _TokenString, 0
$LN31@GetToken:

; 30   : 
; 31   : 	do
; 32   : 	{
; 33   : 		if ((ch=fgetc(SMDFile)) == -1)

  00d7d	a1 00 00 00 00	 mov	 eax, DWORD PTR _SMDFile
  00d82	50		 push	 eax
  00d83	e8 00 00 00 00	 call	 _fgetc
  00d88	83 c4 04	 add	 esp, 4
  00d8b	88 45 fb	 mov	 BYTE PTR _ch$[ebp], al
  00d8e	0f be 4d fb	 movsx	 ecx, BYTE PTR _ch$[ebp]
  00d92	83 f9 ff	 cmp	 ecx, -1
  00d95	75 0c		 jne	 SHORT $LN28@GetToken

; 34   : 		{
; 35   : 			return END;	// End of FILE (EOF)

  00d97	b8 02 00 00 00	 mov	 eax, 2
  00d9c	e9 f7 02 00 00	 jmp	 $LN32@GetToken

; 36   : 		}
; 37   : 		else

  00da1	eb 5b		 jmp	 SHORT $LN22@GetToken
$LN28@GetToken:

; 38   : 		{	
; 39   : 			if (ch=='/')		// this is /

  00da3	0f be 45 fb	 movsx	 eax, BYTE PTR _ch$[ebp]
  00da7	83 f8 2f	 cmp	 eax, 47			; 0000002fH
  00daa	75 52		 jne	 SHORT $LN22@GetToken

; 40   : 			{
; 41   : 				if((ch=fgetc(SMDFile)) == '/')

  00dac	a1 00 00 00 00	 mov	 eax, DWORD PTR _SMDFile
  00db1	50		 push	 eax
  00db2	e8 00 00 00 00	 call	 _fgetc
  00db7	83 c4 04	 add	 esp, 4
  00dba	88 45 fb	 mov	 BYTE PTR _ch$[ebp], al
  00dbd	0f be 4d fb	 movsx	 ecx, BYTE PTR _ch$[ebp]
  00dc1	83 f9 2f	 cmp	 ecx, 47			; 0000002fH
  00dc4	75 38		 jne	 SHORT $LN22@GetToken
$LN24@GetToken:

; 42   : 				{
; 43   : 					while ((ch != '\n') && (ch != -1))	// End of Line (EOL)

  00dc6	0f be 45 fb	 movsx	 eax, BYTE PTR _ch$[ebp]
  00dca	83 f8 0a	 cmp	 eax, 10			; 0000000aH
  00dcd	74 1c		 je	 SHORT $LN23@GetToken
  00dcf	0f be 45 fb	 movsx	 eax, BYTE PTR _ch$[ebp]
  00dd3	83 f8 ff	 cmp	 eax, -1
  00dd6	74 13		 je	 SHORT $LN23@GetToken

; 44   : 					{
; 45   : 						ch=fgetc(SMDFile);

  00dd8	a1 00 00 00 00	 mov	 eax, DWORD PTR _SMDFile
  00ddd	50		 push	 eax
  00dde	e8 00 00 00 00	 call	 _fgetc
  00de3	83 c4 04	 add	 esp, 4
  00de6	88 45 fb	 mov	 BYTE PTR _ch$[ebp], al

; 46   : 					}

  00de9	eb db		 jmp	 SHORT $LN24@GetToken
$LN23@GetToken:

; 47   : 	
; 48   : 					if (ch == -1)

  00deb	0f be 45 fb	 movsx	 eax, BYTE PTR _ch$[ebp]
  00def	83 f8 ff	 cmp	 eax, -1
  00df2	75 0a		 jne	 SHORT $LN22@GetToken

; 49   : 					{
; 50   : 						return END;	// End of FILE

  00df4	b8 02 00 00 00	 mov	 eax, 2
  00df9	e9 9a 02 00 00	 jmp	 $LN32@GetToken
$LN22@GetToken:

; 51   : 					}
; 52   : 				}
; 53   : 			}
; 54   : 		}
; 55   : 	}
; 56   : 	while (isspace(ch) != 0);

  00dfe	0f be 45 fb	 movsx	 eax, BYTE PTR _ch$[ebp]
  00e02	50		 push	 eax
  00e03	e8 00 00 00 00	 call	 _isspace
  00e08	83 c4 04	 add	 esp, 4
  00e0b	85 c0		 test	 eax, eax
  00e0d	0f 85 6a ff ff
	ff		 jne	 $LN31@GetToken

; 57   : 
; 58   : 	
; 59   : 	switch(ch)

  00e13	0f be 45 fb	 movsx	 eax, BYTE PTR _ch$[ebp]
  00e17	89 85 4c ff ff
	ff		 mov	 DWORD PTR tv90[ebp], eax
  00e1d	8b 8d 4c ff ff
	ff		 mov	 ecx, DWORD PTR tv90[ebp]
  00e23	83 e9 22	 sub	 ecx, 34			; 00000022H
  00e26	89 8d 4c ff ff
	ff		 mov	 DWORD PTR tv90[ebp], ecx
  00e2c	83 bd 4c ff ff
	ff 5b		 cmp	 DWORD PTR tv90[ebp], 91	; 0000005bH
  00e33	0f 87 a3 01 00
	00		 ja	 $LN6@GetToken
  00e39	8b 95 4c ff ff
	ff		 mov	 edx, DWORD PTR tv90[ebp]
  00e3f	0f b6 82 00 00
	00 00		 movzx	 eax, BYTE PTR $LN34@GetToken[edx]
  00e46	ff 24 85 00 00
	00 00		 jmp	 DWORD PTR $LN35@GetToken[eax*4]
$LN19@GetToken:

; 60   : 	{
; 61   : 
; 62   : 	case 0x23:	// #
; 63   : 		return CurrentToken=COMMAND;

  00e4d	c7 05 00 00 00
	00 23 00 00 00	 mov	 DWORD PTR _CurrentToken, 35 ; 00000023H
  00e57	a1 00 00 00 00	 mov	 eax, DWORD PTR _CurrentToken
  00e5c	e9 37 02 00 00	 jmp	 $LN32@GetToken

; 64   : 		break;

  00e61	e9 30 02 00 00	 jmp	 $LN20@GetToken
$LN18@GetToken:

; 65   : 	
; 66   : 	case 0x3B:	// ;
; 67   : 		return CurrentToken=SEMICOLON;

  00e66	c7 05 00 00 00
	00 3b 00 00 00	 mov	 DWORD PTR _CurrentToken, 59 ; 0000003bH
  00e70	a1 00 00 00 00	 mov	 eax, DWORD PTR _CurrentToken
  00e75	e9 1e 02 00 00	 jmp	 $LN32@GetToken

; 68   : 		break;

  00e7a	e9 17 02 00 00	 jmp	 $LN20@GetToken
$LN17@GetToken:

; 69   : 	
; 70   : 	case 0x2C:	// ,
; 71   : 
; 72   : 		return CurrentToken=COMMA;

  00e7f	c7 05 00 00 00
	00 2c 00 00 00	 mov	 DWORD PTR _CurrentToken, 44 ; 0000002cH
  00e89	a1 00 00 00 00	 mov	 eax, DWORD PTR _CurrentToken
  00e8e	e9 05 02 00 00	 jmp	 $LN32@GetToken

; 73   : 		break;

  00e93	e9 fe 01 00 00	 jmp	 $LN20@GetToken
$LN16@GetToken:

; 74   : 	
; 75   : 	case 0x7B:	// {
; 76   : 		return CurrentToken = LP;

  00e98	c7 05 00 00 00
	00 7b 00 00 00	 mov	 DWORD PTR _CurrentToken, 123 ; 0000007bH
  00ea2	a1 00 00 00 00	 mov	 eax, DWORD PTR _CurrentToken
  00ea7	e9 ec 01 00 00	 jmp	 $LN32@GetToken

; 77   : 		break;

  00eac	e9 e5 01 00 00	 jmp	 $LN20@GetToken
$LN15@GetToken:

; 78   : 
; 79   : 	case 0x7D:	// }
; 80   : 		return CurrentToken = RP;

  00eb1	c7 05 00 00 00
	00 7d 00 00 00	 mov	 DWORD PTR _CurrentToken, 125 ; 0000007dH
  00ebb	a1 00 00 00 00	 mov	 eax, DWORD PTR _CurrentToken
  00ec0	e9 d3 01 00 00	 jmp	 $LN32@GetToken

; 81   : 		break;

  00ec5	e9 cc 01 00 00	 jmp	 $LN20@GetToken
$LN14@GetToken:

; 82   : 	// Nice Index Table :)	by Deathway
; 83   : 	// Numbers Case
; 84   : 	case 0x2D:	//-
; 85   : 	case 0x2E:	//.
; 86   : 	case '0':	//0
; 87   : 	case '1':	//1
; 88   : 	case '2':	//2
; 89   : 	case '3':	//3
; 90   : 	case '4':	//4		
; 91   : 	case '5':	//5
; 92   : 	case '6':	//6
; 93   : 	case '7':	//7
; 94   : 	case '8':	//8
; 95   : 	case '9':	//9
; 96   : 		ungetc(ch, SMDFile);

  00eca	a1 00 00 00 00	 mov	 eax, DWORD PTR _SMDFile
  00ecf	50		 push	 eax
  00ed0	0f be 4d fb	 movsx	 ecx, BYTE PTR _ch$[ebp]
  00ed4	51		 push	 ecx
  00ed5	e8 00 00 00 00	 call	 _ungetc
  00eda	83 c4 08	 add	 esp, 8

; 97   : 		p = TempString;

  00edd	8d 45 90	 lea	 eax, DWORD PTR _TempString$[ebp]
  00ee0	89 45 f4	 mov	 DWORD PTR _p$[ebp], eax
$LN13@GetToken:

; 98   : 		
; 99   : 		while (((ch=getc(SMDFile)) != -1) && ((ch == 0x2E) || (isdigit(ch) != 0) || (ch == 0x2D)))  // 2e '.'  2D '-'

  00ee3	a1 00 00 00 00	 mov	 eax, DWORD PTR _SMDFile
  00ee8	50		 push	 eax
  00ee9	e8 00 00 00 00	 call	 _getc
  00eee	83 c4 04	 add	 esp, 4
  00ef1	88 45 fb	 mov	 BYTE PTR _ch$[ebp], al
  00ef4	0f be 4d fb	 movsx	 ecx, BYTE PTR _ch$[ebp]
  00ef8	83 f9 ff	 cmp	 ecx, -1
  00efb	74 36		 je	 SHORT $LN12@GetToken
  00efd	0f be 45 fb	 movsx	 eax, BYTE PTR _ch$[ebp]
  00f01	83 f8 2e	 cmp	 eax, 46			; 0000002eH
  00f04	74 1a		 je	 SHORT $LN11@GetToken
  00f06	0f be 45 fb	 movsx	 eax, BYTE PTR _ch$[ebp]
  00f0a	50		 push	 eax
  00f0b	e8 00 00 00 00	 call	 _isdigit
  00f10	83 c4 04	 add	 esp, 4
  00f13	85 c0		 test	 eax, eax
  00f15	75 09		 jne	 SHORT $LN11@GetToken
  00f17	0f be 45 fb	 movsx	 eax, BYTE PTR _ch$[ebp]
  00f1b	83 f8 2d	 cmp	 eax, 45			; 0000002dH
  00f1e	75 13		 jne	 SHORT $LN12@GetToken
$LN11@GetToken:

; 100  : 		{
; 101  : 			*p = ch;	// Construct a String

  00f20	8b 45 f4	 mov	 eax, DWORD PTR _p$[ebp]
  00f23	8a 4d fb	 mov	 cl, BYTE PTR _ch$[ebp]
  00f26	88 08		 mov	 BYTE PTR [eax], cl

; 102  : 			p++;

  00f28	8b 45 f4	 mov	 eax, DWORD PTR _p$[ebp]
  00f2b	83 c0 01	 add	 eax, 1
  00f2e	89 45 f4	 mov	 DWORD PTR _p$[ebp], eax

; 103  : 		}		

  00f31	eb b0		 jmp	 SHORT $LN13@GetToken
$LN12@GetToken:

; 104  : 		*p = 0;

  00f33	8b 45 f4	 mov	 eax, DWORD PTR _p$[ebp]
  00f36	c6 00 00	 mov	 BYTE PTR [eax], 0

; 105  : 		TokenNumber = atof( TempString);	// Select the first Byte as Main ID

  00f39	8d 45 90	 lea	 eax, DWORD PTR _TempString$[ebp]
  00f3c	50		 push	 eax
  00f3d	e8 00 00 00 00	 call	 _atof
  00f42	83 c4 04	 add	 esp, 4
  00f45	d9 1d 00 00 00
	00		 fstp	 DWORD PTR _TokenNumber

; 106  : 		return CurrentToken  = NUMBER ;

  00f4b	c7 05 00 00 00
	00 01 00 00 00	 mov	 DWORD PTR _CurrentToken, 1
  00f55	a1 00 00 00 00	 mov	 eax, DWORD PTR _CurrentToken
  00f5a	e9 39 01 00 00	 jmp	 $LN32@GetToken

; 107  : 		break;

  00f5f	e9 32 01 00 00	 jmp	 $LN20@GetToken
$LN10@GetToken:

; 108  : 
; 109  : 	case '\"':	// "	String Case
; 110  : 		p=&TokenString[0];

  00f64	c7 45 f4 00 00
	00 00		 mov	 DWORD PTR _p$[ebp], OFFSET _TokenString
$LN9@GetToken:

; 111  : 		
; 112  : 		while (((ch=getc(SMDFile)) != -1 ) && (ch != 0x22))	// nice

  00f6b	a1 00 00 00 00	 mov	 eax, DWORD PTR _SMDFile
  00f70	50		 push	 eax
  00f71	e8 00 00 00 00	 call	 _getc
  00f76	83 c4 04	 add	 esp, 4
  00f79	88 45 fb	 mov	 BYTE PTR _ch$[ebp], al
  00f7c	0f be 4d fb	 movsx	 ecx, BYTE PTR _ch$[ebp]
  00f80	83 f9 ff	 cmp	 ecx, -1
  00f83	74 1c		 je	 SHORT $LN8@GetToken
  00f85	0f be 45 fb	 movsx	 eax, BYTE PTR _ch$[ebp]
  00f89	83 f8 22	 cmp	 eax, 34			; 00000022H
  00f8c	74 13		 je	 SHORT $LN8@GetToken

; 113  : 		{
; 114  : 			*p = ch;

  00f8e	8b 45 f4	 mov	 eax, DWORD PTR _p$[ebp]
  00f91	8a 4d fb	 mov	 cl, BYTE PTR _ch$[ebp]
  00f94	88 08		 mov	 BYTE PTR [eax], cl

; 115  : 			p++;

  00f96	8b 45 f4	 mov	 eax, DWORD PTR _p$[ebp]
  00f99	83 c0 01	 add	 eax, 1
  00f9c	89 45 f4	 mov	 DWORD PTR _p$[ebp], eax

; 116  : 		}

  00f9f	eb ca		 jmp	 SHORT $LN9@GetToken
$LN8@GetToken:

; 117  : 		if (ch != 0x22 )

  00fa1	0f be 45 fb	 movsx	 eax, BYTE PTR _ch$[ebp]
  00fa5	83 f8 22	 cmp	 eax, 34			; 00000022H
  00fa8	74 13		 je	 SHORT $LN7@GetToken

; 118  : 		{
; 119  : 			ungetc(ch, SMDFile);

  00faa	a1 00 00 00 00	 mov	 eax, DWORD PTR _SMDFile
  00faf	50		 push	 eax
  00fb0	0f be 4d fb	 movsx	 ecx, BYTE PTR _ch$[ebp]
  00fb4	51		 push	 ecx
  00fb5	e8 00 00 00 00	 call	 _ungetc
  00fba	83 c4 08	 add	 esp, 8
$LN7@GetToken:

; 120  : 		}
; 121  : 		*p = 0;

  00fbd	8b 45 f4	 mov	 eax, DWORD PTR _p$[ebp]
  00fc0	c6 00 00	 mov	 BYTE PTR [eax], 0

; 122  : 		return CurrentToken = NAME;

  00fc3	c7 05 00 00 00
	00 00 00 00 00	 mov	 DWORD PTR _CurrentToken, 0
  00fcd	a1 00 00 00 00	 mov	 eax, DWORD PTR _CurrentToken
  00fd2	e9 c1 00 00 00	 jmp	 $LN32@GetToken

; 123  : 		break;

  00fd7	e9 ba 00 00 00	 jmp	 $LN20@GetToken
$LN6@GetToken:

; 124  : 
; 125  : 	default:	// Others
; 126  : 		if (isalpha(ch))

  00fdc	0f be 45 fb	 movsx	 eax, BYTE PTR _ch$[ebp]
  00fe0	50		 push	 eax
  00fe1	e8 00 00 00 00	 call	 _isalpha
  00fe6	83 c4 04	 add	 esp, 4
  00fe9	85 c0		 test	 eax, eax
  00feb	0f 84 94 00 00
	00		 je	 $LN5@GetToken

; 127  : 		{
; 128  : 			p=&TokenString[0];

  00ff1	c7 45 f4 00 00
	00 00		 mov	 DWORD PTR _p$[ebp], OFFSET _TokenString

; 129  : 			*p=ch;

  00ff8	8b 45 f4	 mov	 eax, DWORD PTR _p$[ebp]
  00ffb	8a 4d fb	 mov	 cl, BYTE PTR _ch$[ebp]
  00ffe	88 08		 mov	 BYTE PTR [eax], cl

; 130  : 			p++;

  01000	8b 45 f4	 mov	 eax, DWORD PTR _p$[ebp]
  01003	83 c0 01	 add	 eax, 1
  01006	89 45 f4	 mov	 DWORD PTR _p$[ebp], eax
$LN4@GetToken:

; 131  : 
; 132  : 			while ( ((ch=getc(SMDFile)) != -1) && ( (ch == 0x2E) || (ch == 0x5F) || (isalnum(ch) != 0) ) )

  01009	a1 00 00 00 00	 mov	 eax, DWORD PTR _SMDFile
  0100e	50		 push	 eax
  0100f	e8 00 00 00 00	 call	 _getc
  01014	83 c4 04	 add	 esp, 4
  01017	88 45 fb	 mov	 BYTE PTR _ch$[ebp], al
  0101a	0f be 4d fb	 movsx	 ecx, BYTE PTR _ch$[ebp]
  0101e	83 f9 ff	 cmp	 ecx, -1
  01021	74 36		 je	 SHORT $LN3@GetToken
  01023	0f be 45 fb	 movsx	 eax, BYTE PTR _ch$[ebp]
  01027	83 f8 2e	 cmp	 eax, 46			; 0000002eH
  0102a	74 1a		 je	 SHORT $LN2@GetToken
  0102c	0f be 45 fb	 movsx	 eax, BYTE PTR _ch$[ebp]
  01030	83 f8 5f	 cmp	 eax, 95			; 0000005fH
  01033	74 11		 je	 SHORT $LN2@GetToken
  01035	0f be 45 fb	 movsx	 eax, BYTE PTR _ch$[ebp]
  01039	50		 push	 eax
  0103a	e8 00 00 00 00	 call	 _isalnum
  0103f	83 c4 04	 add	 esp, 4
  01042	85 c0		 test	 eax, eax
  01044	74 13		 je	 SHORT $LN3@GetToken
$LN2@GetToken:

; 133  : 			{
; 134  : 				*p=ch;

  01046	8b 45 f4	 mov	 eax, DWORD PTR _p$[ebp]
  01049	8a 4d fb	 mov	 cl, BYTE PTR _ch$[ebp]
  0104c	88 08		 mov	 BYTE PTR [eax], cl

; 135  : 				p++;

  0104e	8b 45 f4	 mov	 eax, DWORD PTR _p$[ebp]
  01051	83 c0 01	 add	 eax, 1
  01054	89 45 f4	 mov	 DWORD PTR _p$[ebp], eax

; 136  : 				
; 137  : 			}

  01057	eb b0		 jmp	 SHORT $LN4@GetToken
$LN3@GetToken:

; 138  : 
; 139  : 			ungetc(ch, SMDFile);

  01059	a1 00 00 00 00	 mov	 eax, DWORD PTR _SMDFile
  0105e	50		 push	 eax
  0105f	0f be 4d fb	 movsx	 ecx, BYTE PTR _ch$[ebp]
  01063	51		 push	 ecx
  01064	e8 00 00 00 00	 call	 _ungetc
  01069	83 c4 08	 add	 esp, 8

; 140  : 			*p=0;

  0106c	8b 45 f4	 mov	 eax, DWORD PTR _p$[ebp]
  0106f	c6 00 00	 mov	 BYTE PTR [eax], 0

; 141  : 			CurrentToken=NAME;

  01072	c7 05 00 00 00
	00 00 00 00 00	 mov	 DWORD PTR _CurrentToken, 0

; 142  : 			return CurrentToken;

  0107c	a1 00 00 00 00	 mov	 eax, DWORD PTR _CurrentToken
  01081	eb 15		 jmp	 SHORT $LN32@GetToken

; 143  : 		}
; 144  : 		else

  01083	eb 11		 jmp	 SHORT $LN1@GetToken
$LN5@GetToken:

; 145  : 		{
; 146  : 			return CurrentToken = SMD_ERROR; // '<'

  01085	c7 05 00 00 00
	00 3c 00 00 00	 mov	 DWORD PTR _CurrentToken, 60 ; 0000003cH
  0108f	a1 00 00 00 00	 mov	 eax, DWORD PTR _CurrentToken
  01094	eb 02		 jmp	 SHORT $LN32@GetToken
$LN1@GetToken:
$LN20@GetToken:

; 147  : 		}
; 148  : 		break;
; 149  : 
; 150  : 	}
; 151  : 
; 152  : 	return NAME;

  01096	33 c0		 xor	 eax, eax
$LN32@GetToken:

; 153  : }

  01098	5f		 pop	 edi
  01099	5e		 pop	 esi
  0109a	5b		 pop	 ebx
  0109b	8b 4d fc	 mov	 ecx, DWORD PTR __$ArrayPad$[ebp]
  0109e	33 cd		 xor	 ecx, ebp
  010a0	e8 00 00 00 00	 call	 @__security_check_cookie@4
  010a5	8b e5		 mov	 esp, ebp
  010a7	5d		 pop	 ebp
  010a8	c3		 ret	 0
  010a9	8d 49 00	 npad	 3
$LN35@GetToken:
  010ac	00 00 00 00	 DD	 $LN10@GetToken
  010b0	00 00 00 00	 DD	 $LN19@GetToken
  010b4	00 00 00 00	 DD	 $LN17@GetToken
  010b8	00 00 00 00	 DD	 $LN14@GetToken
  010bc	00 00 00 00	 DD	 $LN18@GetToken
  010c0	00 00 00 00	 DD	 $LN16@GetToken
  010c4	00 00 00 00	 DD	 $LN15@GetToken
  010c8	00 00 00 00	 DD	 $LN6@GetToken
$LN34@GetToken:
  010cc	00		 DB	 0
  010cd	01		 DB	 1
  010ce	07		 DB	 7
  010cf	07		 DB	 7
  010d0	07		 DB	 7
  010d1	07		 DB	 7
  010d2	07		 DB	 7
  010d3	07		 DB	 7
  010d4	07		 DB	 7
  010d5	07		 DB	 7
  010d6	02		 DB	 2
  010d7	03		 DB	 3
  010d8	03		 DB	 3
  010d9	07		 DB	 7
  010da	03		 DB	 3
  010db	03		 DB	 3
  010dc	03		 DB	 3
  010dd	03		 DB	 3
  010de	03		 DB	 3
  010df	03		 DB	 3
  010e0	03		 DB	 3
  010e1	03		 DB	 3
  010e2	03		 DB	 3
  010e3	03		 DB	 3
  010e4	07		 DB	 7
  010e5	04		 DB	 4
  010e6	07		 DB	 7
  010e7	07		 DB	 7
  010e8	07		 DB	 7
  010e9	07		 DB	 7
  010ea	07		 DB	 7
  010eb	07		 DB	 7
  010ec	07		 DB	 7
  010ed	07		 DB	 7
  010ee	07		 DB	 7
  010ef	07		 DB	 7
  010f0	07		 DB	 7
  010f1	07		 DB	 7
  010f2	07		 DB	 7
  010f3	07		 DB	 7
  010f4	07		 DB	 7
  010f5	07		 DB	 7
  010f6	07		 DB	 7
  010f7	07		 DB	 7
  010f8	07		 DB	 7
  010f9	07		 DB	 7
  010fa	07		 DB	 7
  010fb	07		 DB	 7
  010fc	07		 DB	 7
  010fd	07		 DB	 7
  010fe	07		 DB	 7
  010ff	07		 DB	 7
  01100	07		 DB	 7
  01101	07		 DB	 7
  01102	07		 DB	 7
  01103	07		 DB	 7
  01104	07		 DB	 7
  01105	07		 DB	 7
  01106	07		 DB	 7
  01107	07		 DB	 7
  01108	07		 DB	 7
  01109	07		 DB	 7
  0110a	07		 DB	 7
  0110b	07		 DB	 7
  0110c	07		 DB	 7
  0110d	07		 DB	 7
  0110e	07		 DB	 7
  0110f	07		 DB	 7
  01110	07		 DB	 7
  01111	07		 DB	 7
  01112	07		 DB	 7
  01113	07		 DB	 7
  01114	07		 DB	 7
  01115	07		 DB	 7
  01116	07		 DB	 7
  01117	07		 DB	 7
  01118	07		 DB	 7
  01119	07		 DB	 7
  0111a	07		 DB	 7
  0111b	07		 DB	 7
  0111c	07		 DB	 7
  0111d	07		 DB	 7
  0111e	07		 DB	 7
  0111f	07		 DB	 7
  01120	07		 DB	 7
  01121	07		 DB	 7
  01122	07		 DB	 7
  01123	07		 DB	 7
  01124	07		 DB	 7
  01125	05		 DB	 5
  01126	07		 DB	 7
  01127	06		 DB	 6
?GetToken@@YA?AW4SMDToken@@XZ ENDP			; GetToken
_TEXT	ENDS
PUBLIC	?__LINE__Var@?1??LoadShopItemEx@CShop@@QAEHPAD@Z@4JA ; `CShop::LoadShopItemEx'::`2'::__LINE__Var
PUBLIC	?LoadShopItemEx@CShop@@QAEHPAD@Z		; CShop::LoadShopItemEx
;	COMDAT ?__LINE__Var@?1??LoadShopItemEx@CShop@@QAEHPAD@Z@4JA
; File d:\projects\exteam6.3\source\gameserver\gameserver\shop.cpp
_DATA	SEGMENT
?__LINE__Var@?1??LoadShopItemEx@CShop@@QAEHPAD@Z@4JA DD 019eH ; `CShop::LoadShopItemEx'::`2'::__LINE__Var
; Function compile flags: /Odtp /ZI
_DATA	ENDS
_TEXT	SEGMENT
tv272 = -132						; size = 4
tv263 = -132						; size = 4
tv254 = -132						; size = 4
tv245 = -132						; size = 4
tv236 = -132						; size = 4
tv270 = -128						; size = 4
tv261 = -128						; size = 4
tv252 = -128						; size = 4
tv243 = -128						; size = 4
tv234 = -128						; size = 4
tv267 = -124						; size = 2
tv258 = -124						; size = 2
tv249 = -124						; size = 2
tv240 = -124						; size = 2
tv231 = -124						; size = 2
_Sock5$ = -57						; size = 1
_Sock4$ = -56						; size = 1
_Sock3$ = -55						; size = 1
_Sock2$ = -54						; size = 1
_Sock1$ = -53						; size = 1
_iPayPrice$ = -52					; size = 4
_iPayType$ = -48					; size = 4
_Ancient$ = -44						; size = 4
_Excellent$ = -40					; size = 4
_op3$ = -36						; size = 4
_op2$ = -32						; size = 4
_op1$ = -28						; size = 4
_dur$ = -24						; size = 4
_level$ = -20						; size = 4
_index$ = -16						; size = 4
_type$ = -12						; size = 4
_Token$ = -8						; size = 4
_this$ = -4						; size = 4
_filename$ = 8						; size = 4
?LoadShopItemEx@CShop@@QAEHPAD@Z PROC			; CShop::LoadShopItemEx
; _this$ = ecx

; 414  : {

  01130	55		 push	 ebp
  01131	8b ec		 mov	 ebp, esp
  01133	81 ec 84 00 00
	00		 sub	 esp, 132		; 00000084H
  01139	53		 push	 ebx
  0113a	56		 push	 esi
  0113b	57		 push	 edi
  0113c	89 4d fc	 mov	 DWORD PTR _this$[ebp], ecx

; 415  : 	int Token;
; 416  : 	int type;
; 417  : 	int index;
; 418  : 	int level;
; 419  : 	int dur;
; 420  : 	int op1;
; 421  : 	int op2;
; 422  : 	int op3;
; 423  : 	int Excellent;
; 424  : 	int Ancient;
; 425  : 	int iPayType;
; 426  : 	int iPayPrice;
; 427  : 
; 428  : 	BYTE Sock1;
; 429  : 	BYTE Sock2;
; 430  : 	BYTE Sock3;
; 431  : 	BYTE Sock4;
; 432  : 	BYTE Sock5;
; 433  : 
; 434  : 	this->Init();

  0113f	8b 4d fc	 mov	 ecx, DWORD PTR _this$[ebp]
  01142	e8 00 00 00 00	 call	 ?Init@CShop@@QAEXXZ	; CShop::Init

; 435  : 
; 436  : 	SMDFile = fopen(filename, "r");

  01147	68 00 00 00 00	 push	 OFFSET ??_C@_01KDCPPGHE@r?$AA@
  0114c	8b 45 08	 mov	 eax, DWORD PTR _filename$[ebp]
  0114f	50		 push	 eax
  01150	e8 00 00 00 00	 call	 _fopen
  01155	83 c4 08	 add	 esp, 8
  01158	a3 00 00 00 00	 mov	 DWORD PTR _SMDFile, eax

; 437  : 
; 438  : 	if ( SMDFile == NULL )

  0115d	83 3d 00 00 00
	00 00		 cmp	 DWORD PTR _SMDFile, 0
  01164	75 18		 jne	 SHORT $LN12@LoadShopIt@2

; 439  : 	{
; 440  : 		MsgBox("Shop data load error %s", filename);

  01166	8b 45 08	 mov	 eax, DWORD PTR _filename$[ebp]
  01169	50		 push	 eax
  0116a	68 00 00 00 00	 push	 OFFSET ??_C@_0BI@IEDKKFGG@Shop?5data?5load?5error?5?$CFs?$AA@
  0116f	e8 00 00 00 00	 call	 ?MsgBox@@YAXPADZZ	; MsgBox
  01174	83 c4 08	 add	 esp, 8

; 441  : 		return FALSE;

  01177	33 c0		 xor	 eax, eax
  01179	e9 dd 02 00 00	 jmp	 $LN13@LoadShopIt@2
$LN12@LoadShopIt@2:

; 442  : 	}
; 443  : 
; 444  : 	while ( true )

  0117e	b8 01 00 00 00	 mov	 eax, 1
  01183	85 c0		 test	 eax, eax
  01185	0f 84 bd 02 00
	00		 je	 $LN10@LoadShopIt@2

; 445  : 	{
; 446  : 		Token = GetToken();

  0118b	e8 00 00 00 00	 call	 ?GetToken@@YA?AW4SMDToken@@XZ ; GetToken
  01190	89 45 f8	 mov	 DWORD PTR _Token$[ebp], eax

; 447  : 
; 448  : 		if ( Token == 2 )

  01193	83 7d f8 02	 cmp	 DWORD PTR _Token$[ebp], 2
  01197	75 05		 jne	 SHORT $LN9@LoadShopIt@2

; 449  : 		{
; 450  : 			break;

  01199	e9 aa 02 00 00	 jmp	 $LN10@LoadShopIt@2
$LN9@LoadShopIt@2:

; 451  : 		}
; 452  : 
; 453  : 		if ( Token == 1 )

  0119e	83 7d f8 01	 cmp	 DWORD PTR _Token$[ebp], 1
  011a2	0f 85 9b 02 00
	00		 jne	 $LN1@LoadShopIt@2

; 454  : 		{
; 455  : 			type = TokenNumber;

  011a8	d9 05 00 00 00
	00		 fld	 DWORD PTR _TokenNumber
  011ae	e8 00 00 00 00	 call	 __ftol2_sse
  011b3	89 45 f4	 mov	 DWORD PTR _type$[ebp], eax

; 456  : 
; 457  : 			Token = GetToken();

  011b6	e8 00 00 00 00	 call	 ?GetToken@@YA?AW4SMDToken@@XZ ; GetToken
  011bb	89 45 f8	 mov	 DWORD PTR _Token$[ebp], eax

; 458  : 			index = TokenNumber;

  011be	d9 05 00 00 00
	00		 fld	 DWORD PTR _TokenNumber
  011c4	e8 00 00 00 00	 call	 __ftol2_sse
  011c9	89 45 f0	 mov	 DWORD PTR _index$[ebp], eax

; 459  : 
; 460  : 			Token = GetToken();

  011cc	e8 00 00 00 00	 call	 ?GetToken@@YA?AW4SMDToken@@XZ ; GetToken
  011d1	89 45 f8	 mov	 DWORD PTR _Token$[ebp], eax

; 461  : 			level = TokenNumber;

  011d4	d9 05 00 00 00
	00		 fld	 DWORD PTR _TokenNumber
  011da	e8 00 00 00 00	 call	 __ftol2_sse
  011df	89 45 ec	 mov	 DWORD PTR _level$[ebp], eax

; 462  : 
; 463  : 			Token = GetToken();

  011e2	e8 00 00 00 00	 call	 ?GetToken@@YA?AW4SMDToken@@XZ ; GetToken
  011e7	89 45 f8	 mov	 DWORD PTR _Token$[ebp], eax

; 464  : 			dur = TokenNumber;

  011ea	d9 05 00 00 00
	00		 fld	 DWORD PTR _TokenNumber
  011f0	e8 00 00 00 00	 call	 __ftol2_sse
  011f5	89 45 e8	 mov	 DWORD PTR _dur$[ebp], eax

; 465  : 
; 466  : 			Token = GetToken();

  011f8	e8 00 00 00 00	 call	 ?GetToken@@YA?AW4SMDToken@@XZ ; GetToken
  011fd	89 45 f8	 mov	 DWORD PTR _Token$[ebp], eax

; 467  : 			op1 = TokenNumber;

  01200	d9 05 00 00 00
	00		 fld	 DWORD PTR _TokenNumber
  01206	e8 00 00 00 00	 call	 __ftol2_sse
  0120b	89 45 e4	 mov	 DWORD PTR _op1$[ebp], eax

; 468  : 
; 469  : 			Token = GetToken();

  0120e	e8 00 00 00 00	 call	 ?GetToken@@YA?AW4SMDToken@@XZ ; GetToken
  01213	89 45 f8	 mov	 DWORD PTR _Token$[ebp], eax

; 470  : 			op2 = TokenNumber;

  01216	d9 05 00 00 00
	00		 fld	 DWORD PTR _TokenNumber
  0121c	e8 00 00 00 00	 call	 __ftol2_sse
  01221	89 45 e0	 mov	 DWORD PTR _op2$[ebp], eax

; 471  : 
; 472  : 			Token = GetToken();

  01224	e8 00 00 00 00	 call	 ?GetToken@@YA?AW4SMDToken@@XZ ; GetToken
  01229	89 45 f8	 mov	 DWORD PTR _Token$[ebp], eax

; 473  : 			op3 = TokenNumber;

  0122c	d9 05 00 00 00
	00		 fld	 DWORD PTR _TokenNumber
  01232	e8 00 00 00 00	 call	 __ftol2_sse
  01237	89 45 dc	 mov	 DWORD PTR _op3$[ebp], eax

; 474  : 
; 475  : 			Token = GetToken();

  0123a	e8 00 00 00 00	 call	 ?GetToken@@YA?AW4SMDToken@@XZ ; GetToken
  0123f	89 45 f8	 mov	 DWORD PTR _Token$[ebp], eax

; 476  : 			Excellent = TokenNumber;

  01242	d9 05 00 00 00
	00		 fld	 DWORD PTR _TokenNumber
  01248	e8 00 00 00 00	 call	 __ftol2_sse
  0124d	89 45 d8	 mov	 DWORD PTR _Excellent$[ebp], eax

; 477  : 
; 478  : 			if(Excellent < 0 || Excellent > 63)

  01250	83 7d d8 00	 cmp	 DWORD PTR _Excellent$[ebp], 0
  01254	7c 06		 jl	 SHORT $LN6@LoadShopIt@2
  01256	83 7d d8 3f	 cmp	 DWORD PTR _Excellent$[ebp], 63 ; 0000003fH
  0125a	7e 07		 jle	 SHORT $LN7@LoadShopIt@2
$LN6@LoadShopIt@2:

; 479  : 			{
; 480  : 				Excellent = 0;

  0125c	c7 45 d8 00 00
	00 00		 mov	 DWORD PTR _Excellent$[ebp], 0
$LN7@LoadShopIt@2:

; 481  : 			}
; 482  : 
; 483  : 			Token = GetToken();

  01263	e8 00 00 00 00	 call	 ?GetToken@@YA?AW4SMDToken@@XZ ; GetToken
  01268	89 45 f8	 mov	 DWORD PTR _Token$[ebp], eax

; 484  : 			Ancient = TokenNumber;

  0126b	d9 05 00 00 00
	00		 fld	 DWORD PTR _TokenNumber
  01271	e8 00 00 00 00	 call	 __ftol2_sse
  01276	89 45 d4	 mov	 DWORD PTR _Ancient$[ebp], eax

; 485  : 
; 486  : 			if(Ancient != 5 && Ancient != 10)

  01279	83 7d d4 05	 cmp	 DWORD PTR _Ancient$[ebp], 5
  0127d	74 0d		 je	 SHORT $LN5@LoadShopIt@2
  0127f	83 7d d4 0a	 cmp	 DWORD PTR _Ancient$[ebp], 10 ; 0000000aH
  01283	74 07		 je	 SHORT $LN5@LoadShopIt@2

; 487  : 			{
; 488  : 				Ancient = 0;

  01285	c7 45 d4 00 00
	00 00		 mov	 DWORD PTR _Ancient$[ebp], 0
$LN5@LoadShopIt@2:

; 489  : 			}
; 490  : 
; 491  : 			// ----
; 492  : 
; 493  : 			Token = GetToken();

  0128c	e8 00 00 00 00	 call	 ?GetToken@@YA?AW4SMDToken@@XZ ; GetToken
  01291	89 45 f8	 mov	 DWORD PTR _Token$[ebp], eax

; 494  : 			Sock1 = TokenNumber;

  01294	d9 05 00 00 00
	00		 fld	 DWORD PTR _TokenNumber
  0129a	d9 7d 84	 fnstcw	 WORD PTR tv231[ebp]
  0129d	0f b7 45 84	 movzx	 eax, WORD PTR tv231[ebp]
  012a1	0d 00 0c 00 00	 or	 eax, 3072		; 00000c00H
  012a6	89 45 80	 mov	 DWORD PTR tv234[ebp], eax
  012a9	d9 6d 80	 fldcw	 WORD PTR tv234[ebp]
  012ac	db 9d 7c ff ff
	ff		 fistp	 DWORD PTR tv236[ebp]
  012b2	d9 6d 84	 fldcw	 WORD PTR tv231[ebp]
  012b5	8a 85 7c ff ff
	ff		 mov	 al, BYTE PTR tv236[ebp]
  012bb	88 45 cb	 mov	 BYTE PTR _Sock1$[ebp], al

; 495  : 
; 496  : 			Token = GetToken();

  012be	e8 00 00 00 00	 call	 ?GetToken@@YA?AW4SMDToken@@XZ ; GetToken
  012c3	89 45 f8	 mov	 DWORD PTR _Token$[ebp], eax

; 497  : 			Sock2 = TokenNumber;

  012c6	d9 05 00 00 00
	00		 fld	 DWORD PTR _TokenNumber
  012cc	d9 7d 84	 fnstcw	 WORD PTR tv240[ebp]
  012cf	0f b7 45 84	 movzx	 eax, WORD PTR tv240[ebp]
  012d3	0d 00 0c 00 00	 or	 eax, 3072		; 00000c00H
  012d8	89 45 80	 mov	 DWORD PTR tv243[ebp], eax
  012db	d9 6d 80	 fldcw	 WORD PTR tv243[ebp]
  012de	db 9d 7c ff ff
	ff		 fistp	 DWORD PTR tv245[ebp]
  012e4	d9 6d 84	 fldcw	 WORD PTR tv240[ebp]
  012e7	8a 85 7c ff ff
	ff		 mov	 al, BYTE PTR tv245[ebp]
  012ed	88 45 ca	 mov	 BYTE PTR _Sock2$[ebp], al

; 498  : 
; 499  : 			Token = GetToken();

  012f0	e8 00 00 00 00	 call	 ?GetToken@@YA?AW4SMDToken@@XZ ; GetToken
  012f5	89 45 f8	 mov	 DWORD PTR _Token$[ebp], eax

; 500  : 			Sock3 = TokenNumber;

  012f8	d9 05 00 00 00
	00		 fld	 DWORD PTR _TokenNumber
  012fe	d9 7d 84	 fnstcw	 WORD PTR tv249[ebp]
  01301	0f b7 45 84	 movzx	 eax, WORD PTR tv249[ebp]
  01305	0d 00 0c 00 00	 or	 eax, 3072		; 00000c00H
  0130a	89 45 80	 mov	 DWORD PTR tv252[ebp], eax
  0130d	d9 6d 80	 fldcw	 WORD PTR tv252[ebp]
  01310	db 9d 7c ff ff
	ff		 fistp	 DWORD PTR tv254[ebp]
  01316	d9 6d 84	 fldcw	 WORD PTR tv249[ebp]
  01319	8a 85 7c ff ff
	ff		 mov	 al, BYTE PTR tv254[ebp]
  0131f	88 45 c9	 mov	 BYTE PTR _Sock3$[ebp], al

; 501  : 
; 502  : 			Token = GetToken();

  01322	e8 00 00 00 00	 call	 ?GetToken@@YA?AW4SMDToken@@XZ ; GetToken
  01327	89 45 f8	 mov	 DWORD PTR _Token$[ebp], eax

; 503  : 			Sock4 = TokenNumber;

  0132a	d9 05 00 00 00
	00		 fld	 DWORD PTR _TokenNumber
  01330	d9 7d 84	 fnstcw	 WORD PTR tv258[ebp]
  01333	0f b7 45 84	 movzx	 eax, WORD PTR tv258[ebp]
  01337	0d 00 0c 00 00	 or	 eax, 3072		; 00000c00H
  0133c	89 45 80	 mov	 DWORD PTR tv261[ebp], eax
  0133f	d9 6d 80	 fldcw	 WORD PTR tv261[ebp]
  01342	db 9d 7c ff ff
	ff		 fistp	 DWORD PTR tv263[ebp]
  01348	d9 6d 84	 fldcw	 WORD PTR tv258[ebp]
  0134b	8a 85 7c ff ff
	ff		 mov	 al, BYTE PTR tv263[ebp]
  01351	88 45 c8	 mov	 BYTE PTR _Sock4$[ebp], al

; 504  : 
; 505  : 			Token = GetToken();

  01354	e8 00 00 00 00	 call	 ?GetToken@@YA?AW4SMDToken@@XZ ; GetToken
  01359	89 45 f8	 mov	 DWORD PTR _Token$[ebp], eax

; 506  : 			Sock5 = TokenNumber;

  0135c	d9 05 00 00 00
	00		 fld	 DWORD PTR _TokenNumber
  01362	d9 7d 84	 fnstcw	 WORD PTR tv267[ebp]
  01365	0f b7 45 84	 movzx	 eax, WORD PTR tv267[ebp]
  01369	0d 00 0c 00 00	 or	 eax, 3072		; 00000c00H
  0136e	89 45 80	 mov	 DWORD PTR tv270[ebp], eax
  01371	d9 6d 80	 fldcw	 WORD PTR tv270[ebp]
  01374	db 9d 7c ff ff
	ff		 fistp	 DWORD PTR tv272[ebp]
  0137a	d9 6d 84	 fldcw	 WORD PTR tv267[ebp]
  0137d	8a 85 7c ff ff
	ff		 mov	 al, BYTE PTR tv272[ebp]
  01383	88 45 c7	 mov	 BYTE PTR _Sock5$[ebp], al

; 507  : 
; 508  : 			// ----
; 509  : 
; 510  : 			Token = GetToken();

  01386	e8 00 00 00 00	 call	 ?GetToken@@YA?AW4SMDToken@@XZ ; GetToken
  0138b	89 45 f8	 mov	 DWORD PTR _Token$[ebp], eax

; 511  : 			iPayType = TokenNumber;

  0138e	d9 05 00 00 00
	00		 fld	 DWORD PTR _TokenNumber
  01394	e8 00 00 00 00	 call	 __ftol2_sse
  01399	89 45 d0	 mov	 DWORD PTR _iPayType$[ebp], eax

; 512  : 
; 513  : 			if(iPayType < 0 || iPayType > 3)

  0139c	83 7d d0 00	 cmp	 DWORD PTR _iPayType$[ebp], 0
  013a0	7c 06		 jl	 SHORT $LN3@LoadShopIt@2
  013a2	83 7d d0 03	 cmp	 DWORD PTR _iPayType$[ebp], 3
  013a6	7e 07		 jle	 SHORT $LN4@LoadShopIt@2
$LN3@LoadShopIt@2:

; 514  : 			{
; 515  : 				iPayType = 0;

  013a8	c7 45 d0 00 00
	00 00		 mov	 DWORD PTR _iPayType$[ebp], 0
$LN4@LoadShopIt@2:

; 516  : 			}
; 517  : 
; 518  : 			Token = GetToken();

  013af	e8 00 00 00 00	 call	 ?GetToken@@YA?AW4SMDToken@@XZ ; GetToken
  013b4	89 45 f8	 mov	 DWORD PTR _Token$[ebp], eax

; 519  : 			iPayPrice = TokenNumber;

  013b7	d9 05 00 00 00
	00		 fld	 DWORD PTR _TokenNumber
  013bd	e8 00 00 00 00	 call	 __ftol2_sse
  013c2	89 45 cc	 mov	 DWORD PTR _iPayPrice$[ebp], eax

; 520  : 
; 521  : 			if(iPayPrice < 0)

  013c5	83 7d cc 00	 cmp	 DWORD PTR _iPayPrice$[ebp], 0
  013c9	7d 07		 jge	 SHORT $LN2@LoadShopIt@2

; 522  : 			{
; 523  : 				iPayPrice = 0;

  013cb	c7 45 cc 00 00
	00 00		 mov	 DWORD PTR _iPayPrice$[ebp], 0
$LN2@LoadShopIt@2:

; 524  : 			}
; 525  : 
; 526  : 			//if (this->InsertItemEx(type, index, level, dur, op1, op2, op3, Excellent, Ancient, iPayType, iPayPrice) == FALSE )
; 527  : 			if (this->InsertItemSocket(type, index, level, dur, op1, op2, op3, Excellent, Ancient, Sock1, Sock2, Sock3, Sock4, Sock5, iPayType, iPayPrice) == FALSE )

  013d2	8b 45 cc	 mov	 eax, DWORD PTR _iPayPrice$[ebp]
  013d5	50		 push	 eax
  013d6	0f b6 4d d0	 movzx	 ecx, BYTE PTR _iPayType$[ebp]
  013da	51		 push	 ecx
  013db	0f b6 55 c7	 movzx	 edx, BYTE PTR _Sock5$[ebp]
  013df	52		 push	 edx
  013e0	0f b6 45 c8	 movzx	 eax, BYTE PTR _Sock4$[ebp]
  013e4	50		 push	 eax
  013e5	0f b6 4d c9	 movzx	 ecx, BYTE PTR _Sock3$[ebp]
  013e9	51		 push	 ecx
  013ea	0f b6 55 ca	 movzx	 edx, BYTE PTR _Sock2$[ebp]
  013ee	52		 push	 edx
  013ef	0f b6 45 cb	 movzx	 eax, BYTE PTR _Sock1$[ebp]
  013f3	50		 push	 eax
  013f4	8b 4d d4	 mov	 ecx, DWORD PTR _Ancient$[ebp]
  013f7	51		 push	 ecx
  013f8	8b 55 d8	 mov	 edx, DWORD PTR _Excellent$[ebp]
  013fb	52		 push	 edx
  013fc	8b 45 dc	 mov	 eax, DWORD PTR _op3$[ebp]
  013ff	50		 push	 eax
  01400	8b 4d e0	 mov	 ecx, DWORD PTR _op2$[ebp]
  01403	51		 push	 ecx
  01404	8b 55 e4	 mov	 edx, DWORD PTR _op1$[ebp]
  01407	52		 push	 edx
  01408	8b 45 e8	 mov	 eax, DWORD PTR _dur$[ebp]
  0140b	50		 push	 eax
  0140c	8b 4d ec	 mov	 ecx, DWORD PTR _level$[ebp]
  0140f	51		 push	 ecx
  01410	8b 55 f0	 mov	 edx, DWORD PTR _index$[ebp]
  01413	52		 push	 edx
  01414	8b 45 f4	 mov	 eax, DWORD PTR _type$[ebp]
  01417	50		 push	 eax
  01418	8b 4d fc	 mov	 ecx, DWORD PTR _this$[ebp]
  0141b	e8 00 00 00 00	 call	 ?InsertItemSocket@CShop@@QAEHHHHHHHHHHEEEEEEK@Z ; CShop::InsertItemSocket
  01420	85 c0		 test	 eax, eax
  01422	75 1f		 jne	 SHORT $LN1@LoadShopIt@2

; 528  : 			{
; 529  : 				MsgBox("error-L3 : %s %s %d", filename, __FILE__, __LINE__);

  01424	a1 00 00 00 00	 mov	 eax, DWORD PTR ?__LINE__Var@?1??LoadShopItemEx@CShop@@QAEHPAD@Z@4JA
  01429	83 c0 73	 add	 eax, 115		; 00000073H
  0142c	50		 push	 eax
  0142d	68 00 00 00 00	 push	 OFFSET ??_C@_0DM@JHJFDNLI@d?3?2projects?2exteam6?43?2source?2gam@
  01432	8b 4d 08	 mov	 ecx, DWORD PTR _filename$[ebp]
  01435	51		 push	 ecx
  01436	68 00 00 00 00	 push	 OFFSET ??_C@_0BE@LCGMGNMN@error?9L3?5?3?5?$CFs?5?$CFs?5?$CFd?$AA@
  0143b	e8 00 00 00 00	 call	 ?MsgBox@@YAXPADZZ	; MsgBox
  01440	83 c4 10	 add	 esp, 16			; 00000010H
$LN1@LoadShopIt@2:

; 530  : 			}
; 531  : 		}
; 532  : 	}

  01443	e9 36 fd ff ff	 jmp	 $LN12@LoadShopIt@2
$LN10@LoadShopIt@2:

; 533  : 
; 534  : 	fclose(SMDFile);

  01448	a1 00 00 00 00	 mov	 eax, DWORD PTR _SMDFile
  0144d	50		 push	 eax
  0144e	e8 00 00 00 00	 call	 _fclose
  01453	83 c4 04	 add	 esp, 4

; 535  : 	return true;

  01456	b8 01 00 00 00	 mov	 eax, 1
$LN13@LoadShopIt@2:

; 536  : }

  0145b	5f		 pop	 edi
  0145c	5e		 pop	 esi
  0145d	5b		 pop	 ebx
  0145e	8b e5		 mov	 esp, ebp
  01460	5d		 pop	 ebp
  01461	c2 04 00	 ret	 4
?LoadShopItemEx@CShop@@QAEHPAD@Z ENDP			; CShop::LoadShopItemEx
_TEXT	ENDS
PUBLIC	??_C@_0BD@KMLDPEDK@error?9L3?5?3?5Shop?5?$CFd?$AA@ ; `string'
PUBLIC	__$ArrayPad$
PUBLIC	?LoadShopItem@CShop@@QAEHH@Z			; CShop::LoadShopItem
EXTRN	??1CWzMemScript@@UAE@XZ:PROC			; CWzMemScript::~CWzMemScript
EXTRN	?GetNumber@CWzMemScript@@QAEHXZ:PROC		; CWzMemScript::GetNumber
EXTRN	?GetToken@CWzMemScript@@QAE?AW4SMDToken@@XZ:PROC ; CWzMemScript::GetToken
EXTRN	?SetBuffer@CWzMemScript@@QAEHPADH@Z:PROC	; CWzMemScript::SetBuffer
EXTRN	??0CWzMemScript@@QAE@XZ:PROC			; CWzMemScript::CWzMemScript
EXTRN	?GetDataBuffer@WzAG@@QAEPADXZ:PROC		; WzAG::GetDataBuffer
EXTRN	?GetDataBufferSize@WzAG@@QAEHXZ:PROC		; WzAG::GetDataBufferSize
EXTRN	?RequestData@WzAG@@QAEXH@Z:PROC			; WzAG::RequestData
EXTRN	?gWzAG@@3VWzAG@@A:BYTE				; gWzAG
EXTRN	___CxxFrameHandler3:PROC
;	COMDAT ??_C@_0BD@KMLDPEDK@error?9L3?5?3?5Shop?5?$CFd?$AA@
CONST	SEGMENT
??_C@_0BD@KMLDPEDK@error?9L3?5?3?5Shop?5?$CFd?$AA@ DB 'error-L3 : Shop %d'
	DB	00H						; `string'
CONST	ENDS
xdata$x	SEGMENT
__unwindtable$?LoadShopItem@CShop@@QAEHH@Z DD 0ffffffffH
	DD	FLAT:__unwindfunclet$?LoadShopItem@CShop@@QAEHH@Z$0
__ehfuncinfo$?LoadShopItem@CShop@@QAEHH@Z DD 019930522H
	DD	01H
	DD	FLAT:__unwindtable$?LoadShopItem@CShop@@QAEHH@Z
	DD	2 DUP(00H)
	DD	2 DUP(00H)
	DD	00H
	DD	01H
; Function compile flags: /Odtp /ZI
xdata$x	ENDS
_TEXT	SEGMENT
$T232412 = -268						; size = 4
_Ancient$ = -200					; size = 4
_Excellent$ = -196					; size = 4
_op3$ = -192						; size = 4
_op2$ = -188						; size = 4
_op1$ = -184						; size = 4
_dur$ = -180						; size = 4
_level$ = -176						; size = 4
_index$ = -172						; size = 4
_type$ = -168						; size = 4
_Token$ = -164						; size = 4
_WzMemScript$ = -160					; size = 132
_DataBuffer$ = -28					; size = 4
_DataBufferSize$ = -24					; size = 4
_this$ = -20						; size = 4
__$ArrayPad$ = -16					; size = 4
__$EHRec$ = -12						; size = 12
_ShopNumber$ = 8					; size = 4
?LoadShopItem@CShop@@QAEHH@Z PROC			; CShop::LoadShopItem
; _this$ = ecx

; 540  : {

  01470	55		 push	 ebp
  01471	8b ec		 mov	 ebp, esp
  01473	6a ff		 push	 -1
  01475	68 00 00 00 00	 push	 __ehhandler$?LoadShopItem@CShop@@QAEHH@Z
  0147a	64 a1 00 00 00
	00		 mov	 eax, DWORD PTR fs:0
  01480	50		 push	 eax
  01481	81 ec 00 01 00
	00		 sub	 esp, 256		; 00000100H
  01487	a1 00 00 00 00	 mov	 eax, DWORD PTR ___security_cookie
  0148c	33 c5		 xor	 eax, ebp
  0148e	89 45 f0	 mov	 DWORD PTR __$ArrayPad$[ebp], eax
  01491	53		 push	 ebx
  01492	56		 push	 esi
  01493	57		 push	 edi
  01494	50		 push	 eax
  01495	8d 45 f4	 lea	 eax, DWORD PTR __$EHRec$[ebp]
  01498	64 a3 00 00 00
	00		 mov	 DWORD PTR fs:0, eax
  0149e	89 4d ec	 mov	 DWORD PTR _this$[ebp], ecx

; 541  : 	gWzAG.RequestData(ShopNumber);

  014a1	8b 45 08	 mov	 eax, DWORD PTR _ShopNumber$[ebp]
  014a4	50		 push	 eax
  014a5	b9 00 00 00 00	 mov	 ecx, OFFSET ?gWzAG@@3VWzAG@@A ; gWzAG
  014aa	e8 00 00 00 00	 call	 ?RequestData@WzAG@@QAEXH@Z ; WzAG::RequestData

; 542  : 	int DataBufferSize = gWzAG.GetDataBufferSize();

  014af	b9 00 00 00 00	 mov	 ecx, OFFSET ?gWzAG@@3VWzAG@@A ; gWzAG
  014b4	e8 00 00 00 00	 call	 ?GetDataBufferSize@WzAG@@QAEHXZ ; WzAG::GetDataBufferSize
  014b9	89 45 e8	 mov	 DWORD PTR _DataBufferSize$[ebp], eax

; 543  : 	char* DataBuffer = gWzAG.GetDataBuffer();

  014bc	b9 00 00 00 00	 mov	 ecx, OFFSET ?gWzAG@@3VWzAG@@A ; gWzAG
  014c1	e8 00 00 00 00	 call	 ?GetDataBuffer@WzAG@@QAEPADXZ ; WzAG::GetDataBuffer
  014c6	89 45 e4	 mov	 DWORD PTR _DataBuffer$[ebp], eax

; 544  : 
; 545  : 	CWzMemScript WzMemScript;

  014c9	8d 8d 60 ff ff
	ff		 lea	 ecx, DWORD PTR _WzMemScript$[ebp]
  014cf	e8 00 00 00 00	 call	 ??0CWzMemScript@@QAE@XZ	; CWzMemScript::CWzMemScript
  014d4	c7 45 fc 00 00
	00 00		 mov	 DWORD PTR __$EHRec$[ebp+8], 0

; 546  : 	int Token;
; 547  : 	int type;
; 548  : 	int index;
; 549  : 	int level;
; 550  : 	int dur;
; 551  : 	int op1;
; 552  : 	int op2;
; 553  : 	int op3;
; 554  : 	int Excellent;
; 555  : 	int Ancient;
; 556  : 
; 557  : 	WzMemScript.SetBuffer(DataBuffer, DataBufferSize);

  014db	8b 45 e8	 mov	 eax, DWORD PTR _DataBufferSize$[ebp]
  014de	50		 push	 eax
  014df	8b 4d e4	 mov	 ecx, DWORD PTR _DataBuffer$[ebp]
  014e2	51		 push	 ecx
  014e3	8d 8d 60 ff ff
	ff		 lea	 ecx, DWORD PTR _WzMemScript$[ebp]
  014e9	e8 00 00 00 00	 call	 ?SetBuffer@CWzMemScript@@QAEHPADH@Z ; CWzMemScript::SetBuffer

; 558  : 
; 559  : 	this->Init();

  014ee	8b 4d ec	 mov	 ecx, DWORD PTR _this$[ebp]
  014f1	e8 00 00 00 00	 call	 ?Init@CShop@@QAEXXZ	; CShop::Init
$LN6@LoadShopIt@3:

; 560  : 
; 561  : 	
; 562  : 	while ( true )

  014f6	b8 01 00 00 00	 mov	 eax, 1
  014fb	85 c0		 test	 eax, eax
  014fd	0f 84 be 01 00
	00		 je	 $LN5@LoadShopIt@3

; 563  : 	{
; 564  : 		Token = WzMemScript.GetToken();

  01503	8d 8d 60 ff ff
	ff		 lea	 ecx, DWORD PTR _WzMemScript$[ebp]
  01509	e8 00 00 00 00	 call	 ?GetToken@CWzMemScript@@QAE?AW4SMDToken@@XZ ; CWzMemScript::GetToken
  0150e	89 85 5c ff ff
	ff		 mov	 DWORD PTR _Token$[ebp], eax

; 565  : 
; 566  : 		if ( Token == 2 )

  01514	83 bd 5c ff ff
	ff 02		 cmp	 DWORD PTR _Token$[ebp], 2
  0151b	75 05		 jne	 SHORT $LN4@LoadShopIt@3

; 567  : 		{
; 568  : 			break;

  0151d	e9 9f 01 00 00	 jmp	 $LN5@LoadShopIt@3
$LN4@LoadShopIt@3:

; 569  : 		}
; 570  : 
; 571  : 		if ( Token == 1 )

  01522	83 bd 5c ff ff
	ff 01		 cmp	 DWORD PTR _Token$[ebp], 1
  01529	0f 85 8d 01 00
	00		 jne	 $LN1@LoadShopIt@3

; 572  : 		{
; 573  : 			type = WzMemScript.GetNumber();

  0152f	8d 8d 60 ff ff
	ff		 lea	 ecx, DWORD PTR _WzMemScript$[ebp]
  01535	e8 00 00 00 00	 call	 ?GetNumber@CWzMemScript@@QAEHXZ ; CWzMemScript::GetNumber
  0153a	89 85 58 ff ff
	ff		 mov	 DWORD PTR _type$[ebp], eax

; 574  : 
; 575  : 			Token = WzMemScript.GetToken();

  01540	8d 8d 60 ff ff
	ff		 lea	 ecx, DWORD PTR _WzMemScript$[ebp]
  01546	e8 00 00 00 00	 call	 ?GetToken@CWzMemScript@@QAE?AW4SMDToken@@XZ ; CWzMemScript::GetToken
  0154b	89 85 5c ff ff
	ff		 mov	 DWORD PTR _Token$[ebp], eax

; 576  : 			index = WzMemScript.GetNumber();

  01551	8d 8d 60 ff ff
	ff		 lea	 ecx, DWORD PTR _WzMemScript$[ebp]
  01557	e8 00 00 00 00	 call	 ?GetNumber@CWzMemScript@@QAEHXZ ; CWzMemScript::GetNumber
  0155c	89 85 54 ff ff
	ff		 mov	 DWORD PTR _index$[ebp], eax

; 577  : 
; 578  : 			Token = WzMemScript.GetToken();

  01562	8d 8d 60 ff ff
	ff		 lea	 ecx, DWORD PTR _WzMemScript$[ebp]
  01568	e8 00 00 00 00	 call	 ?GetToken@CWzMemScript@@QAE?AW4SMDToken@@XZ ; CWzMemScript::GetToken
  0156d	89 85 5c ff ff
	ff		 mov	 DWORD PTR _Token$[ebp], eax

; 579  : 			level = WzMemScript.GetNumber();

  01573	8d 8d 60 ff ff
	ff		 lea	 ecx, DWORD PTR _WzMemScript$[ebp]
  01579	e8 00 00 00 00	 call	 ?GetNumber@CWzMemScript@@QAEHXZ ; CWzMemScript::GetNumber
  0157e	89 85 50 ff ff
	ff		 mov	 DWORD PTR _level$[ebp], eax

; 580  : 
; 581  : 			Token = WzMemScript.GetToken();

  01584	8d 8d 60 ff ff
	ff		 lea	 ecx, DWORD PTR _WzMemScript$[ebp]
  0158a	e8 00 00 00 00	 call	 ?GetToken@CWzMemScript@@QAE?AW4SMDToken@@XZ ; CWzMemScript::GetToken
  0158f	89 85 5c ff ff
	ff		 mov	 DWORD PTR _Token$[ebp], eax

; 582  : 			dur = WzMemScript.GetNumber();

  01595	8d 8d 60 ff ff
	ff		 lea	 ecx, DWORD PTR _WzMemScript$[ebp]
  0159b	e8 00 00 00 00	 call	 ?GetNumber@CWzMemScript@@QAEHXZ ; CWzMemScript::GetNumber
  015a0	89 85 4c ff ff
	ff		 mov	 DWORD PTR _dur$[ebp], eax

; 583  : 
; 584  : 			Token = WzMemScript.GetToken();

  015a6	8d 8d 60 ff ff
	ff		 lea	 ecx, DWORD PTR _WzMemScript$[ebp]
  015ac	e8 00 00 00 00	 call	 ?GetToken@CWzMemScript@@QAE?AW4SMDToken@@XZ ; CWzMemScript::GetToken
  015b1	89 85 5c ff ff
	ff		 mov	 DWORD PTR _Token$[ebp], eax

; 585  : 			op1 = WzMemScript.GetNumber();

  015b7	8d 8d 60 ff ff
	ff		 lea	 ecx, DWORD PTR _WzMemScript$[ebp]
  015bd	e8 00 00 00 00	 call	 ?GetNumber@CWzMemScript@@QAEHXZ ; CWzMemScript::GetNumber
  015c2	89 85 48 ff ff
	ff		 mov	 DWORD PTR _op1$[ebp], eax

; 586  : 
; 587  : 			Token = WzMemScript.GetToken();

  015c8	8d 8d 60 ff ff
	ff		 lea	 ecx, DWORD PTR _WzMemScript$[ebp]
  015ce	e8 00 00 00 00	 call	 ?GetToken@CWzMemScript@@QAE?AW4SMDToken@@XZ ; CWzMemScript::GetToken
  015d3	89 85 5c ff ff
	ff		 mov	 DWORD PTR _Token$[ebp], eax

; 588  : 			op2 = WzMemScript.GetNumber();

  015d9	8d 8d 60 ff ff
	ff		 lea	 ecx, DWORD PTR _WzMemScript$[ebp]
  015df	e8 00 00 00 00	 call	 ?GetNumber@CWzMemScript@@QAEHXZ ; CWzMemScript::GetNumber
  015e4	89 85 44 ff ff
	ff		 mov	 DWORD PTR _op2$[ebp], eax

; 589  : 
; 590  : 			Token = WzMemScript.GetToken();

  015ea	8d 8d 60 ff ff
	ff		 lea	 ecx, DWORD PTR _WzMemScript$[ebp]
  015f0	e8 00 00 00 00	 call	 ?GetToken@CWzMemScript@@QAE?AW4SMDToken@@XZ ; CWzMemScript::GetToken
  015f5	89 85 5c ff ff
	ff		 mov	 DWORD PTR _Token$[ebp], eax

; 591  : 			op3 = WzMemScript.GetNumber();

  015fb	8d 8d 60 ff ff
	ff		 lea	 ecx, DWORD PTR _WzMemScript$[ebp]
  01601	e8 00 00 00 00	 call	 ?GetNumber@CWzMemScript@@QAEHXZ ; CWzMemScript::GetNumber
  01606	89 85 40 ff ff
	ff		 mov	 DWORD PTR _op3$[ebp], eax

; 592  : 
; 593  : 			Token = GetToken();

  0160c	e8 00 00 00 00	 call	 ?GetToken@@YA?AW4SMDToken@@XZ ; GetToken
  01611	89 85 5c ff ff
	ff		 mov	 DWORD PTR _Token$[ebp], eax

; 594  : 			Excellent = TokenNumber;

  01617	d9 05 00 00 00
	00		 fld	 DWORD PTR _TokenNumber
  0161d	e8 00 00 00 00	 call	 __ftol2_sse
  01622	89 85 3c ff ff
	ff		 mov	 DWORD PTR _Excellent$[ebp], eax

; 595  : 
; 596  : 			Token = GetToken();

  01628	e8 00 00 00 00	 call	 ?GetToken@@YA?AW4SMDToken@@XZ ; GetToken
  0162d	89 85 5c ff ff
	ff		 mov	 DWORD PTR _Token$[ebp], eax

; 597  : 			Ancient = TokenNumber;

  01633	d9 05 00 00 00
	00		 fld	 DWORD PTR _TokenNumber
  01639	e8 00 00 00 00	 call	 __ftol2_sse
  0163e	89 85 38 ff ff
	ff		 mov	 DWORD PTR _Ancient$[ebp], eax

; 598  : 
; 599  : 			if(Ancient != 5 && Ancient != 10)

  01644	83 bd 38 ff ff
	ff 05		 cmp	 DWORD PTR _Ancient$[ebp], 5
  0164b	74 13		 je	 SHORT $LN2@LoadShopIt@3
  0164d	83 bd 38 ff ff
	ff 0a		 cmp	 DWORD PTR _Ancient$[ebp], 10 ; 0000000aH
  01654	74 0a		 je	 SHORT $LN2@LoadShopIt@3

; 600  : 			{
; 601  : 				Ancient = 0;

  01656	c7 85 38 ff ff
	ff 00 00 00 00	 mov	 DWORD PTR _Ancient$[ebp], 0
$LN2@LoadShopIt@3:

; 602  : 			}
; 603  : 
; 604  : 			if (this->InsertItem(type, index, level, dur, op1, op2, op3, Excellent, Ancient) == FALSE )

  01660	8b 85 38 ff ff
	ff		 mov	 eax, DWORD PTR _Ancient$[ebp]
  01666	50		 push	 eax
  01667	8b 8d 3c ff ff
	ff		 mov	 ecx, DWORD PTR _Excellent$[ebp]
  0166d	51		 push	 ecx
  0166e	8b 95 40 ff ff
	ff		 mov	 edx, DWORD PTR _op3$[ebp]
  01674	52		 push	 edx
  01675	8b 85 44 ff ff
	ff		 mov	 eax, DWORD PTR _op2$[ebp]
  0167b	50		 push	 eax
  0167c	8b 8d 48 ff ff
	ff		 mov	 ecx, DWORD PTR _op1$[ebp]
  01682	51		 push	 ecx
  01683	8b 95 4c ff ff
	ff		 mov	 edx, DWORD PTR _dur$[ebp]
  01689	52		 push	 edx
  0168a	8b 85 50 ff ff
	ff		 mov	 eax, DWORD PTR _level$[ebp]
  01690	50		 push	 eax
  01691	8b 8d 54 ff ff
	ff		 mov	 ecx, DWORD PTR _index$[ebp]
  01697	51		 push	 ecx
  01698	8b 95 58 ff ff
	ff		 mov	 edx, DWORD PTR _type$[ebp]
  0169e	52		 push	 edx
  0169f	8b 4d ec	 mov	 ecx, DWORD PTR _this$[ebp]
  016a2	e8 00 00 00 00	 call	 ?InsertItem@CShop@@QAEHHHHHHHHHH@Z ; CShop::InsertItem
  016a7	85 c0		 test	 eax, eax
  016a9	75 11		 jne	 SHORT $LN1@LoadShopIt@3

; 605  : 			{
; 606  : 				MsgBox("error-L3 : Shop %d", ShopNumber);

  016ab	8b 45 08	 mov	 eax, DWORD PTR _ShopNumber$[ebp]
  016ae	50		 push	 eax
  016af	68 00 00 00 00	 push	 OFFSET ??_C@_0BD@KMLDPEDK@error?9L3?5?3?5Shop?5?$CFd?$AA@
  016b4	e8 00 00 00 00	 call	 ?MsgBox@@YAXPADZZ	; MsgBox
  016b9	83 c4 08	 add	 esp, 8
$LN1@LoadShopIt@3:

; 607  : 			}
; 608  : 		}
; 609  : 	}

  016bc	e9 35 fe ff ff	 jmp	 $LN6@LoadShopIt@3
$LN5@LoadShopIt@3:

; 610  : 
; 611  : 	return TRUE;

  016c1	c7 85 f4 fe ff
	ff 01 00 00 00	 mov	 DWORD PTR $T232412[ebp], 1
  016cb	c7 45 fc ff ff
	ff ff		 mov	 DWORD PTR __$EHRec$[ebp+8], -1
  016d2	8d 8d 60 ff ff
	ff		 lea	 ecx, DWORD PTR _WzMemScript$[ebp]
  016d8	e8 00 00 00 00	 call	 ??1CWzMemScript@@UAE@XZ	; CWzMemScript::~CWzMemScript
  016dd	8b 85 f4 fe ff
	ff		 mov	 eax, DWORD PTR $T232412[ebp]

; 612  : }

  016e3	8b 4d f4	 mov	 ecx, DWORD PTR __$EHRec$[ebp]
  016e6	64 89 0d 00 00
	00 00		 mov	 DWORD PTR fs:0, ecx
  016ed	59		 pop	 ecx
  016ee	5f		 pop	 edi
  016ef	5e		 pop	 esi
  016f0	5b		 pop	 ebx
  016f1	8b 4d f0	 mov	 ecx, DWORD PTR __$ArrayPad$[ebp]
  016f4	33 cd		 xor	 ecx, ebp
  016f6	e8 00 00 00 00	 call	 @__security_check_cookie@4
  016fb	8b e5		 mov	 esp, ebp
  016fd	5d		 pop	 ebp
  016fe	c2 04 00	 ret	 4
_TEXT	ENDS
text$x	SEGMENT
__unwindfunclet$?LoadShopItem@CShop@@QAEHH@Z$0:
  00000	8d 8d 60 ff ff
	ff		 lea	 ecx, DWORD PTR _WzMemScript$[ebp]
  00006	e9 00 00 00 00	 jmp	 ??1CWzMemScript@@UAE@XZ	; CWzMemScript::~CWzMemScript
__ehhandler$?LoadShopItem@CShop@@QAEHH@Z:
  0000b	8b 54 24 08	 mov	 edx, DWORD PTR [esp+8]
  0000f	8d 42 0c	 lea	 eax, DWORD PTR [edx+12]
  00012	8b 8a f0 fe ff
	ff		 mov	 ecx, DWORD PTR [edx-272]
  00018	33 c8		 xor	 ecx, eax
  0001a	e8 00 00 00 00	 call	 @__security_check_cookie@4
  0001f	8b 4a fc	 mov	 ecx, DWORD PTR [edx-4]
  00022	33 c8		 xor	 ecx, eax
  00024	e8 00 00 00 00	 call	 @__security_check_cookie@4
  00029	b8 00 00 00 00	 mov	 eax, OFFSET __ehfuncinfo$?LoadShopItem@CShop@@QAEHH@Z
  0002e	e9 00 00 00 00	 jmp	 ___CxxFrameHandler3
text$x	ENDS
?LoadShopItem@CShop@@QAEHH@Z ENDP			; CShop::LoadShopItem
PUBLIC	??_C@_0CA@CHHOPICF@ExData?2Donate?225_DonateShop?4txt?$AA@ ; `string'
PUBLIC	??_C@_0CA@KANIDDGG@ExData?2Donate?224_DonateShop?4txt?$AA@ ; `string'
PUBLIC	??_C@_0CA@IAEKEPCN@ExData?2Donate?223_DonateShop?4txt?$AA@ ; `string'
PUBLIC	??_C@_0CA@HOMIEGO@ExData?2Donate?222_DonateShop?4txt?$AA@ ; `string'
PUBLIC	??_C@_0CA@FEHGNPOK@ExData?2Donate?221_DonateShop?4txt?$AA@ ; `string'
PUBLIC	??_C@_0CA@NDNABEKJ@ExData?2Donate?220_DonateShop?4txt?$AA@ ; `string'
PUBLIC	??_C@_0CA@FIOAENBG@ExData?2Donate?219_DonateShop?4txt?$AA@ ; `string'
PUBLIC	??_C@_0CA@NPEGIGFF@ExData?2Donate?218_DonateShop?4txt?$AA@ ; `string'
PUBLIC	??_C@_0CA@BJMELFIA@ExData?2Donate?217_DonateShop?4txt?$AA@ ; `string'
PUBLIC	??_C@_0CA@JOGCHOMD@ExData?2Donate?216_DonateShop?4txt?$AA@ ; `string'
PUBLIC	??_C@_0CA@MNPICFEH@ExData?2Donate?215_DonateShop?4txt?$AA@ ; `string'
PUBLIC	??_C@_0CA@EKFOOOAE@ExData?2Donate?214_DonateShop?4txt?$AA@ ; `string'
PUBLIC	??_C@_0CA@GKMMJCEP@ExData?2Donate?213_DonateShop?4txt?$AA@ ; `string'
PUBLIC	??_C@_0CA@ONGKFJAM@ExData?2Donate?212_DonateShop?4txt?$AA@ ; `string'
PUBLIC	??_C@_0CA@LOPAACII@ExData?2Donate?211_DonateShop?4txt?$AA@ ; `string'
PUBLIC	??_C@_0CA@DJFGMJML@ExData?2Donate?210_DonateShop?4txt?$AA@ ; `string'
PUBLIC	??_C@_0CA@LHLCPLPH@ExData?2Donate?209_DonateShop?4txt?$AA@ ; `string'
PUBLIC	??_C@_0CA@DABEDALE@ExData?2Donate?208_DonateShop?4txt?$AA@ ; `string'
PUBLIC	??_C@_0CA@PGJGADGB@ExData?2Donate?207_DonateShop?4txt?$AA@ ; `string'
PUBLIC	??_C@_0CA@HBDAMICC@ExData?2Donate?206_DonateShop?4txt?$AA@ ; `string'
PUBLIC	??_C@_0CA@CCKKJDKG@ExData?2Donate?205_DonateShop?4txt?$AA@ ; `string'
PUBLIC	??_C@_0CA@KFAMFIOF@ExData?2Donate?204_DonateShop?4txt?$AA@ ; `string'
PUBLIC	??_C@_0CA@IFJOCEKO@ExData?2Donate?203_DonateShop?4txt?$AA@ ; `string'
PUBLIC	??_C@_0CA@CDIOPON@ExData?2Donate?202_DonateShop?4txt?$AA@ ; `string'
PUBLIC	??_C@_0CA@FBKCLEGJ@ExData?2Donate?201_DonateShop?4txt?$AA@ ; `string'
PUBLIC	??_C@_0CA@NGAEHPCK@ExData?2Donate?200_DonateShop?4txt?$AA@ ; `string'
PUBLIC	??_C@_0BK@DAALLGMO@?4?4?2data?2Shops?219_Bolo?4txt?$AA@ ; `string'
PUBLIC	??_C@_0BP@DECLLBLJ@?4?4?2data?2Shops?217_Marseille?4txt?$AA@ ; `string'
PUBLIC	??_C@_0BK@IGCDNECK@?4?4?2data?2Shops?216_Leah?4txt?$AA@ ; `string'
PUBLIC	??_C@_0BM@JIAGEDGL@?4?4?2data?2Shops?215_Silvia?4txt?$AA@ ; `string'
PUBLIC	??_C@_0CD@NGJNBCCE@?4?4?2data?2Shops?213_FireworksGirl?4t@ ; `string'
PUBLIC	??_C@_0CE@NKNJDEGB@?4?4?2data?2Shops?212_ThompsonKennel?4@ ; `string'
PUBLIC	??_C@_0BK@LGIBBLFN@?4?4?2data?2Shops?211_Alex?4txt?$AA@ ; `string'
PUBLIC	??_C@_0BN@FGBEABKN@?4?4?2data?2Shops?210_ElfLala?4txt?$AA@ ; `string'
PUBLIC	??_C@_0CB@IAHGMIMA@?4?4?2data?2Shops?209_EoCraftsman?4txt@ ; `string'
PUBLIC	??_C@_0CC@MLCMHKLP@?4?4?2data?2Shops?208_ZiennaWeapon?4tx@ ; `string'
PUBLIC	??_C@_0BM@EJDMDOJK@?4?4?2data?2Shops?207_Wizard?4txt?$AA@ ; `string'
PUBLIC	??_C@_0CB@NMKGPEHP@?4?4?2data?2Shops?206_LiamBarmaid?4txt@ ; `string'
PUBLIC	??_C@_0CA@GODIBBLI@?4?4?2data?2Shops?205_PotionGirl?4txt?$AA@ ; `string'
PUBLIC	??_C@_0BP@BMDNDLCA@?4?4?2data?2Shops?204_Wandering?4txt?$AA@ ; `string'
PUBLIC	??_C@_0CF@BCHJLHEB@?4?4?2data?2Shops?203_HaroldWandering@ ; `string'
PUBLIC	??_C@_0BO@GMDONJNJ@?4?4?2data?2Shops?202_PasiMage?4txt?$AA@ ; `string'
PUBLIC	??_C@_0CC@JKNCBFBA@?4?4?2data?2Shops?201_LumenBarmaid?4tx@ ; `string'
PUBLIC	??_C@_0CF@PLNLJDFH@?4?4?2data?2Shops?200_HanzoBlacksmith@ ; `string'
PUBLIC	?ShopDataLoad@@YAHXZ				; ShopDataLoad
EXTRN	?LogAdd@@3P6AXPADZZA:DWORD			; LogAdd
EXTRN	?GetNewPath@CDirPath@@QAEPADPAD@Z:PROC		; CDirPath::GetNewPath
EXTRN	?gDirPath@@3VCDirPath@@A:BYTE			; gDirPath
EXTRN	?CheckUser@CExLicense@@QAE_NH@Z:PROC		; CExLicense::CheckUser
EXTRN	?g_ExLicense@@3VCExLicense@@A:BYTE		; g_ExLicense
;	COMDAT ??_C@_0CA@CHHOPICF@ExData?2Donate?225_DonateShop?4txt?$AA@
CONST	SEGMENT
??_C@_0CA@CHHOPICF@ExData?2Donate?225_DonateShop?4txt?$AA@ DB 'ExData\Don'
	DB	'ate\25_DonateShop.txt', 00H			; `string'
CONST	ENDS
;	COMDAT ??_C@_0CA@KANIDDGG@ExData?2Donate?224_DonateShop?4txt?$AA@
CONST	SEGMENT
??_C@_0CA@KANIDDGG@ExData?2Donate?224_DonateShop?4txt?$AA@ DB 'ExData\Don'
	DB	'ate\24_DonateShop.txt', 00H			; `string'
CONST	ENDS
;	COMDAT ??_C@_0CA@IAEKEPCN@ExData?2Donate?223_DonateShop?4txt?$AA@
CONST	SEGMENT
??_C@_0CA@IAEKEPCN@ExData?2Donate?223_DonateShop?4txt?$AA@ DB 'ExData\Don'
	DB	'ate\23_DonateShop.txt', 00H			; `string'
CONST	ENDS
;	COMDAT ??_C@_0CA@HOMIEGO@ExData?2Donate?222_DonateShop?4txt?$AA@
CONST	SEGMENT
??_C@_0CA@HOMIEGO@ExData?2Donate?222_DonateShop?4txt?$AA@ DB 'ExData\Dona'
	DB	'te\22_DonateShop.txt', 00H			; `string'
CONST	ENDS
;	COMDAT ??_C@_0CA@FEHGNPOK@ExData?2Donate?221_DonateShop?4txt?$AA@
CONST	SEGMENT
??_C@_0CA@FEHGNPOK@ExData?2Donate?221_DonateShop?4txt?$AA@ DB 'ExData\Don'
	DB	'ate\21_DonateShop.txt', 00H			; `string'
CONST	ENDS
;	COMDAT ??_C@_0CA@NDNABEKJ@ExData?2Donate?220_DonateShop?4txt?$AA@
CONST	SEGMENT
??_C@_0CA@NDNABEKJ@ExData?2Donate?220_DonateShop?4txt?$AA@ DB 'ExData\Don'
	DB	'ate\20_DonateShop.txt', 00H			; `string'
CONST	ENDS
;	COMDAT ??_C@_0CA@FIOAENBG@ExData?2Donate?219_DonateShop?4txt?$AA@
CONST	SEGMENT
??_C@_0CA@FIOAENBG@ExData?2Donate?219_DonateShop?4txt?$AA@ DB 'ExData\Don'
	DB	'ate\19_DonateShop.txt', 00H			; `string'
CONST	ENDS
;	COMDAT ??_C@_0CA@NPEGIGFF@ExData?2Donate?218_DonateShop?4txt?$AA@
CONST	SEGMENT
??_C@_0CA@NPEGIGFF@ExData?2Donate?218_DonateShop?4txt?$AA@ DB 'ExData\Don'
	DB	'ate\18_DonateShop.txt', 00H			; `string'
CONST	ENDS
;	COMDAT ??_C@_0CA@BJMELFIA@ExData?2Donate?217_DonateShop?4txt?$AA@
CONST	SEGMENT
??_C@_0CA@BJMELFIA@ExData?2Donate?217_DonateShop?4txt?$AA@ DB 'ExData\Don'
	DB	'ate\17_DonateShop.txt', 00H			; `string'
CONST	ENDS
;	COMDAT ??_C@_0CA@JOGCHOMD@ExData?2Donate?216_DonateShop?4txt?$AA@
CONST	SEGMENT
??_C@_0CA@JOGCHOMD@ExData?2Donate?216_DonateShop?4txt?$AA@ DB 'ExData\Don'
	DB	'ate\16_DonateShop.txt', 00H			; `string'
CONST	ENDS
;	COMDAT ??_C@_0CA@MNPICFEH@ExData?2Donate?215_DonateShop?4txt?$AA@
CONST	SEGMENT
??_C@_0CA@MNPICFEH@ExData?2Donate?215_DonateShop?4txt?$AA@ DB 'ExData\Don'
	DB	'ate\15_DonateShop.txt', 00H			; `string'
CONST	ENDS
;	COMDAT ??_C@_0CA@EKFOOOAE@ExData?2Donate?214_DonateShop?4txt?$AA@
CONST	SEGMENT
??_C@_0CA@EKFOOOAE@ExData?2Donate?214_DonateShop?4txt?$AA@ DB 'ExData\Don'
	DB	'ate\14_DonateShop.txt', 00H			; `string'
CONST	ENDS
;	COMDAT ??_C@_0CA@GKMMJCEP@ExData?2Donate?213_DonateShop?4txt?$AA@
CONST	SEGMENT
??_C@_0CA@GKMMJCEP@ExData?2Donate?213_DonateShop?4txt?$AA@ DB 'ExData\Don'
	DB	'ate\13_DonateShop.txt', 00H			; `string'
CONST	ENDS
;	COMDAT ??_C@_0CA@ONGKFJAM@ExData?2Donate?212_DonateShop?4txt?$AA@
CONST	SEGMENT
??_C@_0CA@ONGKFJAM@ExData?2Donate?212_DonateShop?4txt?$AA@ DB 'ExData\Don'
	DB	'ate\12_DonateShop.txt', 00H			; `string'
CONST	ENDS
;	COMDAT ??_C@_0CA@LOPAACII@ExData?2Donate?211_DonateShop?4txt?$AA@
CONST	SEGMENT
??_C@_0CA@LOPAACII@ExData?2Donate?211_DonateShop?4txt?$AA@ DB 'ExData\Don'
	DB	'ate\11_DonateShop.txt', 00H			; `string'
CONST	ENDS
;	COMDAT ??_C@_0CA@DJFGMJML@ExData?2Donate?210_DonateShop?4txt?$AA@
CONST	SEGMENT
??_C@_0CA@DJFGMJML@ExData?2Donate?210_DonateShop?4txt?$AA@ DB 'ExData\Don'
	DB	'ate\10_DonateShop.txt', 00H			; `string'
CONST	ENDS
;	COMDAT ??_C@_0CA@LHLCPLPH@ExData?2Donate?209_DonateShop?4txt?$AA@
CONST	SEGMENT
??_C@_0CA@LHLCPLPH@ExData?2Donate?209_DonateShop?4txt?$AA@ DB 'ExData\Don'
	DB	'ate\09_DonateShop.txt', 00H			; `string'
CONST	ENDS
;	COMDAT ??_C@_0CA@DABEDALE@ExData?2Donate?208_DonateShop?4txt?$AA@
CONST	SEGMENT
??_C@_0CA@DABEDALE@ExData?2Donate?208_DonateShop?4txt?$AA@ DB 'ExData\Don'
	DB	'ate\08_DonateShop.txt', 00H			; `string'
CONST	ENDS
;	COMDAT ??_C@_0CA@PGJGADGB@ExData?2Donate?207_DonateShop?4txt?$AA@
CONST	SEGMENT
??_C@_0CA@PGJGADGB@ExData?2Donate?207_DonateShop?4txt?$AA@ DB 'ExData\Don'
	DB	'ate\07_DonateShop.txt', 00H			; `string'
CONST	ENDS
;	COMDAT ??_C@_0CA@HBDAMICC@ExData?2Donate?206_DonateShop?4txt?$AA@
CONST	SEGMENT
??_C@_0CA@HBDAMICC@ExData?2Donate?206_DonateShop?4txt?$AA@ DB 'ExData\Don'
	DB	'ate\06_DonateShop.txt', 00H			; `string'
CONST	ENDS
;	COMDAT ??_C@_0CA@CCKKJDKG@ExData?2Donate?205_DonateShop?4txt?$AA@
CONST	SEGMENT
??_C@_0CA@CCKKJDKG@ExData?2Donate?205_DonateShop?4txt?$AA@ DB 'ExData\Don'
	DB	'ate\05_DonateShop.txt', 00H			; `string'
CONST	ENDS
;	COMDAT ??_C@_0CA@KFAMFIOF@ExData?2Donate?204_DonateShop?4txt?$AA@
CONST	SEGMENT
??_C@_0CA@KFAMFIOF@ExData?2Donate?204_DonateShop?4txt?$AA@ DB 'ExData\Don'
	DB	'ate\04_DonateShop.txt', 00H			; `string'
CONST	ENDS
;	COMDAT ??_C@_0CA@IFJOCEKO@ExData?2Donate?203_DonateShop?4txt?$AA@
CONST	SEGMENT
??_C@_0CA@IFJOCEKO@ExData?2Donate?203_DonateShop?4txt?$AA@ DB 'ExData\Don'
	DB	'ate\03_DonateShop.txt', 00H			; `string'
CONST	ENDS
;	COMDAT ??_C@_0CA@CDIOPON@ExData?2Donate?202_DonateShop?4txt?$AA@
CONST	SEGMENT
??_C@_0CA@CDIOPON@ExData?2Donate?202_DonateShop?4txt?$AA@ DB 'ExData\Dona'
	DB	'te\02_DonateShop.txt', 00H			; `string'
CONST	ENDS
;	COMDAT ??_C@_0CA@FBKCLEGJ@ExData?2Donate?201_DonateShop?4txt?$AA@
CONST	SEGMENT
??_C@_0CA@FBKCLEGJ@ExData?2Donate?201_DonateShop?4txt?$AA@ DB 'ExData\Don'
	DB	'ate\01_DonateShop.txt', 00H			; `string'
CONST	ENDS
;	COMDAT ??_C@_0CA@NGAEHPCK@ExData?2Donate?200_DonateShop?4txt?$AA@
CONST	SEGMENT
??_C@_0CA@NGAEHPCK@ExData?2Donate?200_DonateShop?4txt?$AA@ DB 'ExData\Don'
	DB	'ate\00_DonateShop.txt', 00H			; `string'
CONST	ENDS
;	COMDAT ??_C@_0BK@DAALLGMO@?4?4?2data?2Shops?219_Bolo?4txt?$AA@
CONST	SEGMENT
??_C@_0BK@DAALLGMO@?4?4?2data?2Shops?219_Bolo?4txt?$AA@ DB '..\data\Shops'
	DB	'\19_Bolo.txt', 00H				; `string'
CONST	ENDS
;	COMDAT ??_C@_0BP@DECLLBLJ@?4?4?2data?2Shops?217_Marseille?4txt?$AA@
CONST	SEGMENT
??_C@_0BP@DECLLBLJ@?4?4?2data?2Shops?217_Marseille?4txt?$AA@ DB '..\data\'
	DB	'Shops\17_Marseille.txt', 00H		; `string'
CONST	ENDS
;	COMDAT ??_C@_0BK@IGCDNECK@?4?4?2data?2Shops?216_Leah?4txt?$AA@
CONST	SEGMENT
??_C@_0BK@IGCDNECK@?4?4?2data?2Shops?216_Leah?4txt?$AA@ DB '..\data\Shops'
	DB	'\16_Leah.txt', 00H				; `string'
CONST	ENDS
;	COMDAT ??_C@_0BM@JIAGEDGL@?4?4?2data?2Shops?215_Silvia?4txt?$AA@
CONST	SEGMENT
??_C@_0BM@JIAGEDGL@?4?4?2data?2Shops?215_Silvia?4txt?$AA@ DB '..\data\Sho'
	DB	'ps\15_Silvia.txt', 00H			; `string'
CONST	ENDS
;	COMDAT ??_C@_0CD@NGJNBCCE@?4?4?2data?2Shops?213_FireworksGirl?4t@
CONST	SEGMENT
??_C@_0CD@NGJNBCCE@?4?4?2data?2Shops?213_FireworksGirl?4t@ DB '..\data\Sh'
	DB	'ops\13_FireworksGirl.txt', 00H		; `string'
CONST	ENDS
;	COMDAT ??_C@_0CE@NKNJDEGB@?4?4?2data?2Shops?212_ThompsonKennel?4@
CONST	SEGMENT
??_C@_0CE@NKNJDEGB@?4?4?2data?2Shops?212_ThompsonKennel?4@ DB '..\data\Sh'
	DB	'ops\12_ThompsonKennel.txt', 00H		; `string'
CONST	ENDS
;	COMDAT ??_C@_0BK@LGIBBLFN@?4?4?2data?2Shops?211_Alex?4txt?$AA@
CONST	SEGMENT
??_C@_0BK@LGIBBLFN@?4?4?2data?2Shops?211_Alex?4txt?$AA@ DB '..\data\Shops'
	DB	'\11_Alex.txt', 00H				; `string'
CONST	ENDS
;	COMDAT ??_C@_0BN@FGBEABKN@?4?4?2data?2Shops?210_ElfLala?4txt?$AA@
CONST	SEGMENT
??_C@_0BN@FGBEABKN@?4?4?2data?2Shops?210_ElfLala?4txt?$AA@ DB '..\data\Sh'
	DB	'ops\10_ElfLala.txt', 00H			; `string'
CONST	ENDS
;	COMDAT ??_C@_0CB@IAHGMIMA@?4?4?2data?2Shops?209_EoCraftsman?4txt@
CONST	SEGMENT
??_C@_0CB@IAHGMIMA@?4?4?2data?2Shops?209_EoCraftsman?4txt@ DB '..\data\Sh'
	DB	'ops\09_EoCraftsman.txt', 00H		; `string'
CONST	ENDS
;	COMDAT ??_C@_0CC@MLCMHKLP@?4?4?2data?2Shops?208_ZiennaWeapon?4tx@
CONST	SEGMENT
??_C@_0CC@MLCMHKLP@?4?4?2data?2Shops?208_ZiennaWeapon?4tx@ DB '..\data\Sh'
	DB	'ops\08_ZiennaWeapon.txt', 00H		; `string'
CONST	ENDS
;	COMDAT ??_C@_0BM@EJDMDOJK@?4?4?2data?2Shops?207_Wizard?4txt?$AA@
CONST	SEGMENT
??_C@_0BM@EJDMDOJK@?4?4?2data?2Shops?207_Wizard?4txt?$AA@ DB '..\data\Sho'
	DB	'ps\07_Wizard.txt', 00H			; `string'
CONST	ENDS
;	COMDAT ??_C@_0CB@NMKGPEHP@?4?4?2data?2Shops?206_LiamBarmaid?4txt@
CONST	SEGMENT
??_C@_0CB@NMKGPEHP@?4?4?2data?2Shops?206_LiamBarmaid?4txt@ DB '..\data\Sh'
	DB	'ops\06_LiamBarmaid.txt', 00H		; `string'
CONST	ENDS
;	COMDAT ??_C@_0CA@GODIBBLI@?4?4?2data?2Shops?205_PotionGirl?4txt?$AA@
CONST	SEGMENT
??_C@_0CA@GODIBBLI@?4?4?2data?2Shops?205_PotionGirl?4txt?$AA@ DB '..\data'
	DB	'\Shops\05_PotionGirl.txt', 00H		; `string'
CONST	ENDS
;	COMDAT ??_C@_0BP@BMDNDLCA@?4?4?2data?2Shops?204_Wandering?4txt?$AA@
CONST	SEGMENT
??_C@_0BP@BMDNDLCA@?4?4?2data?2Shops?204_Wandering?4txt?$AA@ DB '..\data\'
	DB	'Shops\04_Wandering.txt', 00H		; `string'
CONST	ENDS
;	COMDAT ??_C@_0CF@BCHJLHEB@?4?4?2data?2Shops?203_HaroldWandering@
CONST	SEGMENT
??_C@_0CF@BCHJLHEB@?4?4?2data?2Shops?203_HaroldWandering@ DB '..\data\Sho'
	DB	'ps\03_HaroldWandering.txt', 00H		; `string'
CONST	ENDS
;	COMDAT ??_C@_0BO@GMDONJNJ@?4?4?2data?2Shops?202_PasiMage?4txt?$AA@
CONST	SEGMENT
??_C@_0BO@GMDONJNJ@?4?4?2data?2Shops?202_PasiMage?4txt?$AA@ DB '..\data\S'
	DB	'hops\02_PasiMage.txt', 00H			; `string'
CONST	ENDS
;	COMDAT ??_C@_0CC@JKNCBFBA@?4?4?2data?2Shops?201_LumenBarmaid?4tx@
CONST	SEGMENT
??_C@_0CC@JKNCBFBA@?4?4?2data?2Shops?201_LumenBarmaid?4tx@ DB '..\data\Sh'
	DB	'ops\01_LumenBarmaid.txt', 00H		; `string'
CONST	ENDS
;	COMDAT ??_C@_0CF@PLNLJDFH@?4?4?2data?2Shops?200_HanzoBlacksmith@
CONST	SEGMENT
??_C@_0CF@PLNLJDFH@?4?4?2data?2Shops?200_HanzoBlacksmith@ DB '..\data\Sho'
	DB	'ps\00_HanzoBlacksmith.txt', 00H		; `string'
; Function compile flags: /Odtp /ZI
CONST	ENDS
_TEXT	SEGMENT
?ShopDataLoad@@YAHXZ PROC				; ShopDataLoad

; 615  : {

  01710	55		 push	 ebp
  01711	8b ec		 mov	 ebp, esp
  01713	83 ec 40	 sub	 esp, 64			; 00000040H
  01716	53		 push	 ebx
  01717	56		 push	 esi
  01718	57		 push	 edi

; 616  : 	ShopC[0].LoadShopItem("..\\data\\Shops\\00_HanzoBlacksmith.txt");

  01719	68 00 00 00 00	 push	 OFFSET ??_C@_0CF@PLNLJDFH@?4?4?2data?2Shops?200_HanzoBlacksmith@
  0171e	b9 00 00 00 00	 mov	 ecx, OFFSET ?ShopC@@3PAVCShop@@A ; ShopC
  01723	e8 00 00 00 00	 call	 ?LoadShopItem@CShop@@QAEHPAD@Z ; CShop::LoadShopItem

; 617  : 	ShopC[1].LoadShopItem("..\\data\\Shops\\01_LumenBarmaid.txt");

  01728	68 00 00 00 00	 push	 OFFSET ??_C@_0CC@JKNCBFBA@?4?4?2data?2Shops?201_LumenBarmaid?4tx@
  0172d	b9 9c 6f 00 00	 mov	 ecx, OFFSET ?ShopC@@3PAVCShop@@A+28572
  01732	e8 00 00 00 00	 call	 ?LoadShopItem@CShop@@QAEHPAD@Z ; CShop::LoadShopItem

; 618  : 	ShopC[2].LoadShopItem("..\\data\\Shops\\02_PasiMage.txt");

  01737	68 00 00 00 00	 push	 OFFSET ??_C@_0BO@GMDONJNJ@?4?4?2data?2Shops?202_PasiMage?4txt?$AA@
  0173c	b9 38 df 00 00	 mov	 ecx, OFFSET ?ShopC@@3PAVCShop@@A+57144
  01741	e8 00 00 00 00	 call	 ?LoadShopItem@CShop@@QAEHPAD@Z ; CShop::LoadShopItem

; 619  : 	ShopC[3].LoadShopItem("..\\data\\Shops\\03_HaroldWandering.txt");

  01746	68 00 00 00 00	 push	 OFFSET ??_C@_0CF@BCHJLHEB@?4?4?2data?2Shops?203_HaroldWandering@
  0174b	b9 d4 4e 01 00	 mov	 ecx, OFFSET ?ShopC@@3PAVCShop@@A+85716
  01750	e8 00 00 00 00	 call	 ?LoadShopItem@CShop@@QAEHPAD@Z ; CShop::LoadShopItem

; 620  : 	ShopC[4].LoadShopItem("..\\data\\Shops\\04_Wandering.txt");

  01755	68 00 00 00 00	 push	 OFFSET ??_C@_0BP@BMDNDLCA@?4?4?2data?2Shops?204_Wandering?4txt?$AA@
  0175a	b9 70 be 01 00	 mov	 ecx, OFFSET ?ShopC@@3PAVCShop@@A+114288
  0175f	e8 00 00 00 00	 call	 ?LoadShopItem@CShop@@QAEHPAD@Z ; CShop::LoadShopItem

; 621  : 	ShopC[5].LoadShopItem("..\\data\\Shops\\05_PotionGirl.txt");

  01764	68 00 00 00 00	 push	 OFFSET ??_C@_0CA@GODIBBLI@?4?4?2data?2Shops?205_PotionGirl?4txt?$AA@
  01769	b9 0c 2e 02 00	 mov	 ecx, OFFSET ?ShopC@@3PAVCShop@@A+142860
  0176e	e8 00 00 00 00	 call	 ?LoadShopItem@CShop@@QAEHPAD@Z ; CShop::LoadShopItem

; 622  : 	ShopC[6].LoadShopItem("..\\data\\Shops\\06_LiamBarmaid.txt");

  01773	68 00 00 00 00	 push	 OFFSET ??_C@_0CB@NMKGPEHP@?4?4?2data?2Shops?206_LiamBarmaid?4txt@
  01778	b9 a8 9d 02 00	 mov	 ecx, OFFSET ?ShopC@@3PAVCShop@@A+171432
  0177d	e8 00 00 00 00	 call	 ?LoadShopItem@CShop@@QAEHPAD@Z ; CShop::LoadShopItem

; 623  : 	ShopC[7].LoadShopItem("..\\data\\Shops\\07_Wizard.txt");

  01782	68 00 00 00 00	 push	 OFFSET ??_C@_0BM@EJDMDOJK@?4?4?2data?2Shops?207_Wizard?4txt?$AA@
  01787	b9 44 0d 03 00	 mov	 ecx, OFFSET ?ShopC@@3PAVCShop@@A+200004
  0178c	e8 00 00 00 00	 call	 ?LoadShopItem@CShop@@QAEHPAD@Z ; CShop::LoadShopItem

; 624  : 	ShopC[8].LoadShopItem("..\\data\\Shops\\08_ZiennaWeapon.txt");

  01791	68 00 00 00 00	 push	 OFFSET ??_C@_0CC@MLCMHKLP@?4?4?2data?2Shops?208_ZiennaWeapon?4tx@
  01796	b9 e0 7c 03 00	 mov	 ecx, OFFSET ?ShopC@@3PAVCShop@@A+228576
  0179b	e8 00 00 00 00	 call	 ?LoadShopItem@CShop@@QAEHPAD@Z ; CShop::LoadShopItem

; 625  : 	ShopC[9].LoadShopItem("..\\data\\Shops\\09_EoCraftsman.txt");

  017a0	68 00 00 00 00	 push	 OFFSET ??_C@_0CB@IAHGMIMA@?4?4?2data?2Shops?209_EoCraftsman?4txt@
  017a5	b9 7c ec 03 00	 mov	 ecx, OFFSET ?ShopC@@3PAVCShop@@A+257148
  017aa	e8 00 00 00 00	 call	 ?LoadShopItem@CShop@@QAEHPAD@Z ; CShop::LoadShopItem

; 626  : 	ShopC[10].LoadShopItem("..\\data\\Shops\\10_ElfLala.txt");

  017af	68 00 00 00 00	 push	 OFFSET ??_C@_0BN@FGBEABKN@?4?4?2data?2Shops?210_ElfLala?4txt?$AA@
  017b4	b9 18 5c 04 00	 mov	 ecx, OFFSET ?ShopC@@3PAVCShop@@A+285720
  017b9	e8 00 00 00 00	 call	 ?LoadShopItem@CShop@@QAEHPAD@Z ; CShop::LoadShopItem

; 627  : 	ShopC[11].LoadShopItem("..\\data\\Shops\\11_Alex.txt");

  017be	68 00 00 00 00	 push	 OFFSET ??_C@_0BK@LGIBBLFN@?4?4?2data?2Shops?211_Alex?4txt?$AA@
  017c3	b9 b4 cb 04 00	 mov	 ecx, OFFSET ?ShopC@@3PAVCShop@@A+314292
  017c8	e8 00 00 00 00	 call	 ?LoadShopItem@CShop@@QAEHPAD@Z ; CShop::LoadShopItem

; 628  : 	ShopC[12].LoadShopItem("..\\data\\Shops\\12_ThompsonKennel.txt");

  017cd	68 00 00 00 00	 push	 OFFSET ??_C@_0CE@NKNJDEGB@?4?4?2data?2Shops?212_ThompsonKennel?4@
  017d2	b9 50 3b 05 00	 mov	 ecx, OFFSET ?ShopC@@3PAVCShop@@A+342864
  017d7	e8 00 00 00 00	 call	 ?LoadShopItem@CShop@@QAEHPAD@Z ; CShop::LoadShopItem

; 629  : 
; 630  : 	//season 2.5 add-on
; 631  : 	ShopC[13].LoadShopItem("..\\data\\Shops\\13_FireworksGirl.txt"); //WzAG 0x1E

  017dc	68 00 00 00 00	 push	 OFFSET ??_C@_0CD@NGJNBCCE@?4?4?2data?2Shops?213_FireworksGirl?4t@
  017e1	b9 ec aa 05 00	 mov	 ecx, OFFSET ?ShopC@@3PAVCShop@@A+371436
  017e6	e8 00 00 00 00	 call	 ?LoadShopItem@CShop@@QAEHPAD@Z ; CShop::LoadShopItem

; 632  : 	//ShopC[14].LoadShopItem("..\\data\\Shops\\14_PCPoint.txt"); //WzAG 0x1F
; 633  : 
; 634  : 	//season 3.0 add-on
; 635  : 	ShopC[15].LoadShopItem("..\\data\\Shops\\15_Silvia.txt"); //WzAG 0x20

  017eb	68 00 00 00 00	 push	 OFFSET ??_C@_0BM@JIAGEDGL@?4?4?2data?2Shops?215_Silvia?4txt?$AA@
  017f0	b9 24 8a 06 00	 mov	 ecx, OFFSET ?ShopC@@3PAVCShop@@A+428580
  017f5	e8 00 00 00 00	 call	 ?LoadShopItem@CShop@@QAEHPAD@Z ; CShop::LoadShopItem

; 636  : 	ShopC[16].LoadShopItem("..\\data\\Shops\\16_Leah.txt"); //WzAG 0x21

  017fa	68 00 00 00 00	 push	 OFFSET ??_C@_0BK@IGCDNECK@?4?4?2data?2Shops?216_Leah?4txt?$AA@
  017ff	b9 c0 f9 06 00	 mov	 ecx, OFFSET ?ShopC@@3PAVCShop@@A+457152
  01804	e8 00 00 00 00	 call	 ?LoadShopItem@CShop@@QAEHPAD@Z ; CShop::LoadShopItem

; 637  : 	ShopC[17].LoadShopItem("..\\data\\Shops\\17_Marseille.txt"); //WzAG 0x22

  01809	68 00 00 00 00	 push	 OFFSET ??_C@_0BP@DECLLBLJ@?4?4?2data?2Shops?217_Marseille?4txt?$AA@
  0180e	b9 5c 69 07 00	 mov	 ecx, OFFSET ?ShopC@@3PAVCShop@@A+485724
  01813	e8 00 00 00 00	 call	 ?LoadShopItem@CShop@@QAEHPAD@Z ; CShop::LoadShopItem

; 638  : 
; 639  : 	//season 4.5 add-on
; 640  : 	///
; 641  : 
; 642  : 	//Season 5 Shop
; 643  : 	ShopC[18].LoadShopItem("..\\data\\Shops\\19_Bolo.txt"); //WzAG 0x22

  01818	68 00 00 00 00	 push	 OFFSET ??_C@_0BK@DAALLGMO@?4?4?2data?2Shops?219_Bolo?4txt?$AA@
  0181d	b9 f8 d8 07 00	 mov	 ecx, OFFSET ?ShopC@@3PAVCShop@@A+514296
  01822	e8 00 00 00 00	 call	 ?LoadShopItem@CShop@@QAEHPAD@Z ; CShop::LoadShopItem

; 644  : 	ShopC[19].LoadShopItem("..\\data\\Shops\\01_LumenBarmaid.txt"); //WzAG 0x22

  01827	68 00 00 00 00	 push	 OFFSET ??_C@_0CC@JKNCBFBA@?4?4?2data?2Shops?201_LumenBarmaid?4tx@
  0182c	b9 94 48 08 00	 mov	 ecx, OFFSET ?ShopC@@3PAVCShop@@A+542868
  01831	e8 00 00 00 00	 call	 ?LoadShopItem@CShop@@QAEHPAD@Z ; CShop::LoadShopItem

; 645  : 
; 646  : #if(DONATE_SHOP==TRUE)
; 647  : 	if(g_ExLicense.CheckUser(eExUB::MedoniAndrei) || 
; 648  : 		g_ExLicense.CheckUser(eExUB::absolute) || 
; 649  : 		g_ExLicense.CheckUser(eExUB::MU2Play) || 
; 650  : 		g_ExLicense.CheckUser(eExUB::Local) ||
; 651  : 		g_ExLicense.CheckUser(eExUB::Stone) || g_ExLicense.CheckUser(eExUB::Sentinel) || g_ExLicense.CheckUser(eExUB::Artem) ||
; 652  : 		THINNAKORN_MAC == 1 ||
; 653  : 		g_ExLicense.CheckUser(eExUB::EpicMU) ||
; 654  : 		g_ExLicense.CheckUser(eExUB::Escalate) ||
; 655  : 		g_ExLicense.CheckUser(eExUB::Artem2) ||
; 656  : 		g_ExLicense.CheckUser(eExUB::RevoMU) ||
; 657  : 		g_ExLicense.CheckUser(eExUB::TGBA_LLC) ||
; 658  : 		g_ExLicense.CheckUser(eExUB::GloryMU) ||
; 659  : 		g_ExLicense.CheckUser(eExUB::ArcMu) ||
; 660  : 		g_ExLicense.CheckUser(eExUB::mu4you) ||
; 661  : 		g_ExLicense.CheckUser(eExUB::eternalmu) ||
; 662  : 		g_ExLicense.CheckUser(eExUB::NSGames)
; 663  : 		)

  01836	6a 32		 push	 50			; 00000032H
  01838	b9 00 00 00 00	 mov	 ecx, OFFSET ?g_ExLicense@@3VCExLicense@@A ; g_ExLicense
  0183d	e8 00 00 00 00	 call	 ?CheckUser@CExLicense@@QAE_NH@Z ; CExLicense::CheckUser
  01842	0f b6 c0	 movzx	 eax, al
  01845	85 c0		 test	 eax, eax
  01847	0f 85 60 01 00
	00		 jne	 $LN1@ShopDataLo
  0184d	6a 2e		 push	 46			; 0000002eH
  0184f	b9 00 00 00 00	 mov	 ecx, OFFSET ?g_ExLicense@@3VCExLicense@@A ; g_ExLicense
  01854	e8 00 00 00 00	 call	 ?CheckUser@CExLicense@@QAE_NH@Z ; CExLicense::CheckUser
  01859	0f b6 c0	 movzx	 eax, al
  0185c	85 c0		 test	 eax, eax
  0185e	0f 85 49 01 00
	00		 jne	 $LN1@ShopDataLo
  01864	6a 36		 push	 54			; 00000036H
  01866	b9 00 00 00 00	 mov	 ecx, OFFSET ?g_ExLicense@@3VCExLicense@@A ; g_ExLicense
  0186b	e8 00 00 00 00	 call	 ?CheckUser@CExLicense@@QAE_NH@Z ; CExLicense::CheckUser
  01870	0f b6 c0	 movzx	 eax, al
  01873	85 c0		 test	 eax, eax
  01875	0f 85 32 01 00
	00		 jne	 $LN1@ShopDataLo
  0187b	6a 00		 push	 0
  0187d	b9 00 00 00 00	 mov	 ecx, OFFSET ?g_ExLicense@@3VCExLicense@@A ; g_ExLicense
  01882	e8 00 00 00 00	 call	 ?CheckUser@CExLicense@@QAE_NH@Z ; CExLicense::CheckUser
  01887	0f b6 c0	 movzx	 eax, al
  0188a	85 c0		 test	 eax, eax
  0188c	0f 85 1b 01 00
	00		 jne	 $LN1@ShopDataLo
  01892	6a 37		 push	 55			; 00000037H
  01894	b9 00 00 00 00	 mov	 ecx, OFFSET ?g_ExLicense@@3VCExLicense@@A ; g_ExLicense
  01899	e8 00 00 00 00	 call	 ?CheckUser@CExLicense@@QAE_NH@Z ; CExLicense::CheckUser
  0189e	0f b6 c0	 movzx	 eax, al
  018a1	85 c0		 test	 eax, eax
  018a3	0f 85 04 01 00
	00		 jne	 $LN1@ShopDataLo
  018a9	6a 38		 push	 56			; 00000038H
  018ab	b9 00 00 00 00	 mov	 ecx, OFFSET ?g_ExLicense@@3VCExLicense@@A ; g_ExLicense
  018b0	e8 00 00 00 00	 call	 ?CheckUser@CExLicense@@QAE_NH@Z ; CExLicense::CheckUser
  018b5	0f b6 c0	 movzx	 eax, al
  018b8	85 c0		 test	 eax, eax
  018ba	0f 85 ed 00 00
	00		 jne	 $LN1@ShopDataLo
  018c0	6a 30		 push	 48			; 00000030H
  018c2	b9 00 00 00 00	 mov	 ecx, OFFSET ?g_ExLicense@@3VCExLicense@@A ; g_ExLicense
  018c7	e8 00 00 00 00	 call	 ?CheckUser@CExLicense@@QAE_NH@Z ; CExLicense::CheckUser
  018cc	0f b6 c0	 movzx	 eax, al
  018cf	85 c0		 test	 eax, eax
  018d1	0f 85 d6 00 00
	00		 jne	 $LN1@ShopDataLo
  018d7	33 c0		 xor	 eax, eax
  018d9	0f 85 ce 00 00
	00		 jne	 $LN1@ShopDataLo
  018df	6a 3b		 push	 59			; 0000003bH
  018e1	b9 00 00 00 00	 mov	 ecx, OFFSET ?g_ExLicense@@3VCExLicense@@A ; g_ExLicense
  018e6	e8 00 00 00 00	 call	 ?CheckUser@CExLicense@@QAE_NH@Z ; CExLicense::CheckUser
  018eb	0f b6 c0	 movzx	 eax, al
  018ee	85 c0		 test	 eax, eax
  018f0	0f 85 b7 00 00
	00		 jne	 $LN1@ShopDataLo
  018f6	6a 40		 push	 64			; 00000040H
  018f8	b9 00 00 00 00	 mov	 ecx, OFFSET ?g_ExLicense@@3VCExLicense@@A ; g_ExLicense
  018fd	e8 00 00 00 00	 call	 ?CheckUser@CExLicense@@QAE_NH@Z ; CExLicense::CheckUser
  01902	0f b6 c0	 movzx	 eax, al
  01905	85 c0		 test	 eax, eax
  01907	0f 85 a0 00 00
	00		 jne	 $LN1@ShopDataLo
  0190d	6a 31		 push	 49			; 00000031H
  0190f	b9 00 00 00 00	 mov	 ecx, OFFSET ?g_ExLicense@@3VCExLicense@@A ; g_ExLicense
  01914	e8 00 00 00 00	 call	 ?CheckUser@CExLicense@@QAE_NH@Z ; CExLicense::CheckUser
  01919	0f b6 c0	 movzx	 eax, al
  0191c	85 c0		 test	 eax, eax
  0191e	0f 85 89 00 00
	00		 jne	 $LN1@ShopDataLo
  01924	6a 43		 push	 67			; 00000043H
  01926	b9 00 00 00 00	 mov	 ecx, OFFSET ?g_ExLicense@@3VCExLicense@@A ; g_ExLicense
  0192b	e8 00 00 00 00	 call	 ?CheckUser@CExLicense@@QAE_NH@Z ; CExLicense::CheckUser
  01930	0f b6 c0	 movzx	 eax, al
  01933	85 c0		 test	 eax, eax
  01935	75 76		 jne	 SHORT $LN1@ShopDataLo
  01937	6a 42		 push	 66			; 00000042H
  01939	b9 00 00 00 00	 mov	 ecx, OFFSET ?g_ExLicense@@3VCExLicense@@A ; g_ExLicense
  0193e	e8 00 00 00 00	 call	 ?CheckUser@CExLicense@@QAE_NH@Z ; CExLicense::CheckUser
  01943	0f b6 c0	 movzx	 eax, al
  01946	85 c0		 test	 eax, eax
  01948	75 63		 jne	 SHORT $LN1@ShopDataLo
  0194a	6a 46		 push	 70			; 00000046H
  0194c	b9 00 00 00 00	 mov	 ecx, OFFSET ?g_ExLicense@@3VCExLicense@@A ; g_ExLicense
  01951	e8 00 00 00 00	 call	 ?CheckUser@CExLicense@@QAE_NH@Z ; CExLicense::CheckUser
  01956	0f b6 c0	 movzx	 eax, al
  01959	85 c0		 test	 eax, eax
  0195b	75 50		 jne	 SHORT $LN1@ShopDataLo
  0195d	6a 48		 push	 72			; 00000048H
  0195f	b9 00 00 00 00	 mov	 ecx, OFFSET ?g_ExLicense@@3VCExLicense@@A ; g_ExLicense
  01964	e8 00 00 00 00	 call	 ?CheckUser@CExLicense@@QAE_NH@Z ; CExLicense::CheckUser
  01969	0f b6 c0	 movzx	 eax, al
  0196c	85 c0		 test	 eax, eax
  0196e	75 3d		 jne	 SHORT $LN1@ShopDataLo
  01970	6a 4e		 push	 78			; 0000004eH
  01972	b9 00 00 00 00	 mov	 ecx, OFFSET ?g_ExLicense@@3VCExLicense@@A ; g_ExLicense
  01977	e8 00 00 00 00	 call	 ?CheckUser@CExLicense@@QAE_NH@Z ; CExLicense::CheckUser
  0197c	0f b6 c0	 movzx	 eax, al
  0197f	85 c0		 test	 eax, eax
  01981	75 2a		 jne	 SHORT $LN1@ShopDataLo
  01983	6a 4f		 push	 79			; 0000004fH
  01985	b9 00 00 00 00	 mov	 ecx, OFFSET ?g_ExLicense@@3VCExLicense@@A ; g_ExLicense
  0198a	e8 00 00 00 00	 call	 ?CheckUser@CExLicense@@QAE_NH@Z ; CExLicense::CheckUser
  0198f	0f b6 c0	 movzx	 eax, al
  01992	85 c0		 test	 eax, eax
  01994	75 17		 jne	 SHORT $LN1@ShopDataLo
  01996	6a 51		 push	 81			; 00000051H
  01998	b9 00 00 00 00	 mov	 ecx, OFFSET ?g_ExLicense@@3VCExLicense@@A ; g_ExLicense
  0199d	e8 00 00 00 00	 call	 ?CheckUser@CExLicense@@QAE_NH@Z ; CExLicense::CheckUser
  019a2	0f b6 c0	 movzx	 eax, al
  019a5	85 c0		 test	 eax, eax
  019a7	0f 84 a4 02 00
	00		 je	 $LN2@ShopDataLo
$LN1@ShopDataLo:

; 664  : 	{
; 665  : 		ShopC[20].LoadShopItemEx(gDirPath.GetNewPath("ExData\\Donate\\00_DonateShop.txt"));

  019ad	68 00 00 00 00	 push	 OFFSET ??_C@_0CA@NGAEHPCK@ExData?2Donate?200_DonateShop?4txt?$AA@
  019b2	b9 00 00 00 00	 mov	 ecx, OFFSET ?gDirPath@@3VCDirPath@@A ; gDirPath
  019b7	e8 00 00 00 00	 call	 ?GetNewPath@CDirPath@@QAEPADPAD@Z ; CDirPath::GetNewPath
  019bc	50		 push	 eax
  019bd	b9 30 b8 08 00	 mov	 ecx, OFFSET ?ShopC@@3PAVCShop@@A+571440
  019c2	e8 00 00 00 00	 call	 ?LoadShopItemEx@CShop@@QAEHPAD@Z ; CShop::LoadShopItemEx

; 666  : 		ShopC[21].LoadShopItemEx(gDirPath.GetNewPath("ExData\\Donate\\01_DonateShop.txt"));

  019c7	68 00 00 00 00	 push	 OFFSET ??_C@_0CA@FBKCLEGJ@ExData?2Donate?201_DonateShop?4txt?$AA@
  019cc	b9 00 00 00 00	 mov	 ecx, OFFSET ?gDirPath@@3VCDirPath@@A ; gDirPath
  019d1	e8 00 00 00 00	 call	 ?GetNewPath@CDirPath@@QAEPADPAD@Z ; CDirPath::GetNewPath
  019d6	50		 push	 eax
  019d7	b9 cc 27 09 00	 mov	 ecx, OFFSET ?ShopC@@3PAVCShop@@A+600012
  019dc	e8 00 00 00 00	 call	 ?LoadShopItemEx@CShop@@QAEHPAD@Z ; CShop::LoadShopItemEx

; 667  : 		ShopC[22].LoadShopItemEx(gDirPath.GetNewPath("ExData\\Donate\\02_DonateShop.txt"));

  019e1	68 00 00 00 00	 push	 OFFSET ??_C@_0CA@CDIOPON@ExData?2Donate?202_DonateShop?4txt?$AA@
  019e6	b9 00 00 00 00	 mov	 ecx, OFFSET ?gDirPath@@3VCDirPath@@A ; gDirPath
  019eb	e8 00 00 00 00	 call	 ?GetNewPath@CDirPath@@QAEPADPAD@Z ; CDirPath::GetNewPath
  019f0	50		 push	 eax
  019f1	b9 68 97 09 00	 mov	 ecx, OFFSET ?ShopC@@3PAVCShop@@A+628584
  019f6	e8 00 00 00 00	 call	 ?LoadShopItemEx@CShop@@QAEHPAD@Z ; CShop::LoadShopItemEx

; 668  : 		ShopC[23].LoadShopItemEx(gDirPath.GetNewPath("ExData\\Donate\\03_DonateShop.txt"));

  019fb	68 00 00 00 00	 push	 OFFSET ??_C@_0CA@IFJOCEKO@ExData?2Donate?203_DonateShop?4txt?$AA@
  01a00	b9 00 00 00 00	 mov	 ecx, OFFSET ?gDirPath@@3VCDirPath@@A ; gDirPath
  01a05	e8 00 00 00 00	 call	 ?GetNewPath@CDirPath@@QAEPADPAD@Z ; CDirPath::GetNewPath
  01a0a	50		 push	 eax
  01a0b	b9 04 07 0a 00	 mov	 ecx, OFFSET ?ShopC@@3PAVCShop@@A+657156
  01a10	e8 00 00 00 00	 call	 ?LoadShopItemEx@CShop@@QAEHPAD@Z ; CShop::LoadShopItemEx

; 669  : 		ShopC[24].LoadShopItemEx(gDirPath.GetNewPath("ExData\\Donate\\04_DonateShop.txt"));

  01a15	68 00 00 00 00	 push	 OFFSET ??_C@_0CA@KFAMFIOF@ExData?2Donate?204_DonateShop?4txt?$AA@
  01a1a	b9 00 00 00 00	 mov	 ecx, OFFSET ?gDirPath@@3VCDirPath@@A ; gDirPath
  01a1f	e8 00 00 00 00	 call	 ?GetNewPath@CDirPath@@QAEPADPAD@Z ; CDirPath::GetNewPath
  01a24	50		 push	 eax
  01a25	b9 a0 76 0a 00	 mov	 ecx, OFFSET ?ShopC@@3PAVCShop@@A+685728
  01a2a	e8 00 00 00 00	 call	 ?LoadShopItemEx@CShop@@QAEHPAD@Z ; CShop::LoadShopItemEx

; 670  : 		ShopC[25].LoadShopItemEx(gDirPath.GetNewPath("ExData\\Donate\\05_DonateShop.txt"));

  01a2f	68 00 00 00 00	 push	 OFFSET ??_C@_0CA@CCKKJDKG@ExData?2Donate?205_DonateShop?4txt?$AA@
  01a34	b9 00 00 00 00	 mov	 ecx, OFFSET ?gDirPath@@3VCDirPath@@A ; gDirPath
  01a39	e8 00 00 00 00	 call	 ?GetNewPath@CDirPath@@QAEPADPAD@Z ; CDirPath::GetNewPath
  01a3e	50		 push	 eax
  01a3f	b9 3c e6 0a 00	 mov	 ecx, OFFSET ?ShopC@@3PAVCShop@@A+714300
  01a44	e8 00 00 00 00	 call	 ?LoadShopItemEx@CShop@@QAEHPAD@Z ; CShop::LoadShopItemEx

; 671  : 		ShopC[26].LoadShopItemEx(gDirPath.GetNewPath("ExData\\Donate\\06_DonateShop.txt"));

  01a49	68 00 00 00 00	 push	 OFFSET ??_C@_0CA@HBDAMICC@ExData?2Donate?206_DonateShop?4txt?$AA@
  01a4e	b9 00 00 00 00	 mov	 ecx, OFFSET ?gDirPath@@3VCDirPath@@A ; gDirPath
  01a53	e8 00 00 00 00	 call	 ?GetNewPath@CDirPath@@QAEPADPAD@Z ; CDirPath::GetNewPath
  01a58	50		 push	 eax
  01a59	b9 d8 55 0b 00	 mov	 ecx, OFFSET ?ShopC@@3PAVCShop@@A+742872
  01a5e	e8 00 00 00 00	 call	 ?LoadShopItemEx@CShop@@QAEHPAD@Z ; CShop::LoadShopItemEx

; 672  : 		ShopC[27].LoadShopItemEx(gDirPath.GetNewPath("ExData\\Donate\\07_DonateShop.txt"));

  01a63	68 00 00 00 00	 push	 OFFSET ??_C@_0CA@PGJGADGB@ExData?2Donate?207_DonateShop?4txt?$AA@
  01a68	b9 00 00 00 00	 mov	 ecx, OFFSET ?gDirPath@@3VCDirPath@@A ; gDirPath
  01a6d	e8 00 00 00 00	 call	 ?GetNewPath@CDirPath@@QAEPADPAD@Z ; CDirPath::GetNewPath
  01a72	50		 push	 eax
  01a73	b9 74 c5 0b 00	 mov	 ecx, OFFSET ?ShopC@@3PAVCShop@@A+771444
  01a78	e8 00 00 00 00	 call	 ?LoadShopItemEx@CShop@@QAEHPAD@Z ; CShop::LoadShopItemEx

; 673  : 		ShopC[28].LoadShopItemEx(gDirPath.GetNewPath("ExData\\Donate\\08_DonateShop.txt"));

  01a7d	68 00 00 00 00	 push	 OFFSET ??_C@_0CA@DABEDALE@ExData?2Donate?208_DonateShop?4txt?$AA@
  01a82	b9 00 00 00 00	 mov	 ecx, OFFSET ?gDirPath@@3VCDirPath@@A ; gDirPath
  01a87	e8 00 00 00 00	 call	 ?GetNewPath@CDirPath@@QAEPADPAD@Z ; CDirPath::GetNewPath
  01a8c	50		 push	 eax
  01a8d	b9 10 35 0c 00	 mov	 ecx, OFFSET ?ShopC@@3PAVCShop@@A+800016
  01a92	e8 00 00 00 00	 call	 ?LoadShopItemEx@CShop@@QAEHPAD@Z ; CShop::LoadShopItemEx

; 674  : 		ShopC[29].LoadShopItemEx(gDirPath.GetNewPath("ExData\\Donate\\09_DonateShop.txt"));

  01a97	68 00 00 00 00	 push	 OFFSET ??_C@_0CA@LHLCPLPH@ExData?2Donate?209_DonateShop?4txt?$AA@
  01a9c	b9 00 00 00 00	 mov	 ecx, OFFSET ?gDirPath@@3VCDirPath@@A ; gDirPath
  01aa1	e8 00 00 00 00	 call	 ?GetNewPath@CDirPath@@QAEPADPAD@Z ; CDirPath::GetNewPath
  01aa6	50		 push	 eax
  01aa7	b9 ac a4 0c 00	 mov	 ecx, OFFSET ?ShopC@@3PAVCShop@@A+828588
  01aac	e8 00 00 00 00	 call	 ?LoadShopItemEx@CShop@@QAEHPAD@Z ; CShop::LoadShopItemEx

; 675  : 		ShopC[30].LoadShopItemEx(gDirPath.GetNewPath("ExData\\Donate\\10_DonateShop.txt"));

  01ab1	68 00 00 00 00	 push	 OFFSET ??_C@_0CA@DJFGMJML@ExData?2Donate?210_DonateShop?4txt?$AA@
  01ab6	b9 00 00 00 00	 mov	 ecx, OFFSET ?gDirPath@@3VCDirPath@@A ; gDirPath
  01abb	e8 00 00 00 00	 call	 ?GetNewPath@CDirPath@@QAEPADPAD@Z ; CDirPath::GetNewPath
  01ac0	50		 push	 eax
  01ac1	b9 48 14 0d 00	 mov	 ecx, OFFSET ?ShopC@@3PAVCShop@@A+857160
  01ac6	e8 00 00 00 00	 call	 ?LoadShopItemEx@CShop@@QAEHPAD@Z ; CShop::LoadShopItemEx

; 676  : 		ShopC[31].LoadShopItemEx(gDirPath.GetNewPath("ExData\\Donate\\11_DonateShop.txt"));

  01acb	68 00 00 00 00	 push	 OFFSET ??_C@_0CA@LOPAACII@ExData?2Donate?211_DonateShop?4txt?$AA@
  01ad0	b9 00 00 00 00	 mov	 ecx, OFFSET ?gDirPath@@3VCDirPath@@A ; gDirPath
  01ad5	e8 00 00 00 00	 call	 ?GetNewPath@CDirPath@@QAEPADPAD@Z ; CDirPath::GetNewPath
  01ada	50		 push	 eax
  01adb	b9 e4 83 0d 00	 mov	 ecx, OFFSET ?ShopC@@3PAVCShop@@A+885732
  01ae0	e8 00 00 00 00	 call	 ?LoadShopItemEx@CShop@@QAEHPAD@Z ; CShop::LoadShopItemEx

; 677  : 		ShopC[32].LoadShopItemEx(gDirPath.GetNewPath("ExData\\Donate\\12_DonateShop.txt"));

  01ae5	68 00 00 00 00	 push	 OFFSET ??_C@_0CA@ONGKFJAM@ExData?2Donate?212_DonateShop?4txt?$AA@
  01aea	b9 00 00 00 00	 mov	 ecx, OFFSET ?gDirPath@@3VCDirPath@@A ; gDirPath
  01aef	e8 00 00 00 00	 call	 ?GetNewPath@CDirPath@@QAEPADPAD@Z ; CDirPath::GetNewPath
  01af4	50		 push	 eax
  01af5	b9 80 f3 0d 00	 mov	 ecx, OFFSET ?ShopC@@3PAVCShop@@A+914304
  01afa	e8 00 00 00 00	 call	 ?LoadShopItemEx@CShop@@QAEHPAD@Z ; CShop::LoadShopItemEx

; 678  : 		ShopC[33].LoadShopItemEx(gDirPath.GetNewPath("ExData\\Donate\\13_DonateShop.txt"));

  01aff	68 00 00 00 00	 push	 OFFSET ??_C@_0CA@GKMMJCEP@ExData?2Donate?213_DonateShop?4txt?$AA@
  01b04	b9 00 00 00 00	 mov	 ecx, OFFSET ?gDirPath@@3VCDirPath@@A ; gDirPath
  01b09	e8 00 00 00 00	 call	 ?GetNewPath@CDirPath@@QAEPADPAD@Z ; CDirPath::GetNewPath
  01b0e	50		 push	 eax
  01b0f	b9 1c 63 0e 00	 mov	 ecx, OFFSET ?ShopC@@3PAVCShop@@A+942876
  01b14	e8 00 00 00 00	 call	 ?LoadShopItemEx@CShop@@QAEHPAD@Z ; CShop::LoadShopItemEx

; 679  : 		ShopC[34].LoadShopItemEx(gDirPath.GetNewPath("ExData\\Donate\\14_DonateShop.txt"));

  01b19	68 00 00 00 00	 push	 OFFSET ??_C@_0CA@EKFOOOAE@ExData?2Donate?214_DonateShop?4txt?$AA@
  01b1e	b9 00 00 00 00	 mov	 ecx, OFFSET ?gDirPath@@3VCDirPath@@A ; gDirPath
  01b23	e8 00 00 00 00	 call	 ?GetNewPath@CDirPath@@QAEPADPAD@Z ; CDirPath::GetNewPath
  01b28	50		 push	 eax
  01b29	b9 b8 d2 0e 00	 mov	 ecx, OFFSET ?ShopC@@3PAVCShop@@A+971448
  01b2e	e8 00 00 00 00	 call	 ?LoadShopItemEx@CShop@@QAEHPAD@Z ; CShop::LoadShopItemEx

; 680  : 		ShopC[35].LoadShopItemEx(gDirPath.GetNewPath("ExData\\Donate\\15_DonateShop.txt"));

  01b33	68 00 00 00 00	 push	 OFFSET ??_C@_0CA@MNPICFEH@ExData?2Donate?215_DonateShop?4txt?$AA@
  01b38	b9 00 00 00 00	 mov	 ecx, OFFSET ?gDirPath@@3VCDirPath@@A ; gDirPath
  01b3d	e8 00 00 00 00	 call	 ?GetNewPath@CDirPath@@QAEPADPAD@Z ; CDirPath::GetNewPath
  01b42	50		 push	 eax
  01b43	b9 54 42 0f 00	 mov	 ecx, OFFSET ?ShopC@@3PAVCShop@@A+1000020
  01b48	e8 00 00 00 00	 call	 ?LoadShopItemEx@CShop@@QAEHPAD@Z ; CShop::LoadShopItemEx

; 681  : 		ShopC[36].LoadShopItemEx(gDirPath.GetNewPath("ExData\\Donate\\16_DonateShop.txt"));

  01b4d	68 00 00 00 00	 push	 OFFSET ??_C@_0CA@JOGCHOMD@ExData?2Donate?216_DonateShop?4txt?$AA@
  01b52	b9 00 00 00 00	 mov	 ecx, OFFSET ?gDirPath@@3VCDirPath@@A ; gDirPath
  01b57	e8 00 00 00 00	 call	 ?GetNewPath@CDirPath@@QAEPADPAD@Z ; CDirPath::GetNewPath
  01b5c	50		 push	 eax
  01b5d	b9 f0 b1 0f 00	 mov	 ecx, OFFSET ?ShopC@@3PAVCShop@@A+1028592
  01b62	e8 00 00 00 00	 call	 ?LoadShopItemEx@CShop@@QAEHPAD@Z ; CShop::LoadShopItemEx

; 682  : 		ShopC[37].LoadShopItemEx(gDirPath.GetNewPath("ExData\\Donate\\17_DonateShop.txt"));

  01b67	68 00 00 00 00	 push	 OFFSET ??_C@_0CA@BJMELFIA@ExData?2Donate?217_DonateShop?4txt?$AA@
  01b6c	b9 00 00 00 00	 mov	 ecx, OFFSET ?gDirPath@@3VCDirPath@@A ; gDirPath
  01b71	e8 00 00 00 00	 call	 ?GetNewPath@CDirPath@@QAEPADPAD@Z ; CDirPath::GetNewPath
  01b76	50		 push	 eax
  01b77	b9 8c 21 10 00	 mov	 ecx, OFFSET ?ShopC@@3PAVCShop@@A+1057164
  01b7c	e8 00 00 00 00	 call	 ?LoadShopItemEx@CShop@@QAEHPAD@Z ; CShop::LoadShopItemEx

; 683  : 		ShopC[38].LoadShopItemEx(gDirPath.GetNewPath("ExData\\Donate\\18_DonateShop.txt"));

  01b81	68 00 00 00 00	 push	 OFFSET ??_C@_0CA@NPEGIGFF@ExData?2Donate?218_DonateShop?4txt?$AA@
  01b86	b9 00 00 00 00	 mov	 ecx, OFFSET ?gDirPath@@3VCDirPath@@A ; gDirPath
  01b8b	e8 00 00 00 00	 call	 ?GetNewPath@CDirPath@@QAEPADPAD@Z ; CDirPath::GetNewPath
  01b90	50		 push	 eax
  01b91	b9 28 91 10 00	 mov	 ecx, OFFSET ?ShopC@@3PAVCShop@@A+1085736
  01b96	e8 00 00 00 00	 call	 ?LoadShopItemEx@CShop@@QAEHPAD@Z ; CShop::LoadShopItemEx

; 684  : 		ShopC[39].LoadShopItemEx(gDirPath.GetNewPath("ExData\\Donate\\19_DonateShop.txt"));

  01b9b	68 00 00 00 00	 push	 OFFSET ??_C@_0CA@FIOAENBG@ExData?2Donate?219_DonateShop?4txt?$AA@
  01ba0	b9 00 00 00 00	 mov	 ecx, OFFSET ?gDirPath@@3VCDirPath@@A ; gDirPath
  01ba5	e8 00 00 00 00	 call	 ?GetNewPath@CDirPath@@QAEPADPAD@Z ; CDirPath::GetNewPath
  01baa	50		 push	 eax
  01bab	b9 c4 00 11 00	 mov	 ecx, OFFSET ?ShopC@@3PAVCShop@@A+1114308
  01bb0	e8 00 00 00 00	 call	 ?LoadShopItemEx@CShop@@QAEHPAD@Z ; CShop::LoadShopItemEx

; 685  : 		ShopC[40].LoadShopItemEx(gDirPath.GetNewPath("ExData\\Donate\\20_DonateShop.txt"));

  01bb5	68 00 00 00 00	 push	 OFFSET ??_C@_0CA@NDNABEKJ@ExData?2Donate?220_DonateShop?4txt?$AA@
  01bba	b9 00 00 00 00	 mov	 ecx, OFFSET ?gDirPath@@3VCDirPath@@A ; gDirPath
  01bbf	e8 00 00 00 00	 call	 ?GetNewPath@CDirPath@@QAEPADPAD@Z ; CDirPath::GetNewPath
  01bc4	50		 push	 eax
  01bc5	b9 60 70 11 00	 mov	 ecx, OFFSET ?ShopC@@3PAVCShop@@A+1142880
  01bca	e8 00 00 00 00	 call	 ?LoadShopItemEx@CShop@@QAEHPAD@Z ; CShop::LoadShopItemEx

; 686  : 		ShopC[41].LoadShopItemEx(gDirPath.GetNewPath("ExData\\Donate\\21_DonateShop.txt"));

  01bcf	68 00 00 00 00	 push	 OFFSET ??_C@_0CA@FEHGNPOK@ExData?2Donate?221_DonateShop?4txt?$AA@
  01bd4	b9 00 00 00 00	 mov	 ecx, OFFSET ?gDirPath@@3VCDirPath@@A ; gDirPath
  01bd9	e8 00 00 00 00	 call	 ?GetNewPath@CDirPath@@QAEPADPAD@Z ; CDirPath::GetNewPath
  01bde	50		 push	 eax
  01bdf	b9 fc df 11 00	 mov	 ecx, OFFSET ?ShopC@@3PAVCShop@@A+1171452
  01be4	e8 00 00 00 00	 call	 ?LoadShopItemEx@CShop@@QAEHPAD@Z ; CShop::LoadShopItemEx

; 687  : 		ShopC[42].LoadShopItemEx(gDirPath.GetNewPath("ExData\\Donate\\22_DonateShop.txt"));

  01be9	68 00 00 00 00	 push	 OFFSET ??_C@_0CA@HOMIEGO@ExData?2Donate?222_DonateShop?4txt?$AA@
  01bee	b9 00 00 00 00	 mov	 ecx, OFFSET ?gDirPath@@3VCDirPath@@A ; gDirPath
  01bf3	e8 00 00 00 00	 call	 ?GetNewPath@CDirPath@@QAEPADPAD@Z ; CDirPath::GetNewPath
  01bf8	50		 push	 eax
  01bf9	b9 98 4f 12 00	 mov	 ecx, OFFSET ?ShopC@@3PAVCShop@@A+1200024
  01bfe	e8 00 00 00 00	 call	 ?LoadShopItemEx@CShop@@QAEHPAD@Z ; CShop::LoadShopItemEx

; 688  : 		ShopC[43].LoadShopItemEx(gDirPath.GetNewPath("ExData\\Donate\\23_DonateShop.txt"));

  01c03	68 00 00 00 00	 push	 OFFSET ??_C@_0CA@IAEKEPCN@ExData?2Donate?223_DonateShop?4txt?$AA@
  01c08	b9 00 00 00 00	 mov	 ecx, OFFSET ?gDirPath@@3VCDirPath@@A ; gDirPath
  01c0d	e8 00 00 00 00	 call	 ?GetNewPath@CDirPath@@QAEPADPAD@Z ; CDirPath::GetNewPath
  01c12	50		 push	 eax
  01c13	b9 34 bf 12 00	 mov	 ecx, OFFSET ?ShopC@@3PAVCShop@@A+1228596
  01c18	e8 00 00 00 00	 call	 ?LoadShopItemEx@CShop@@QAEHPAD@Z ; CShop::LoadShopItemEx

; 689  : 		ShopC[44].LoadShopItemEx(gDirPath.GetNewPath("ExData\\Donate\\24_DonateShop.txt"));

  01c1d	68 00 00 00 00	 push	 OFFSET ??_C@_0CA@KANIDDGG@ExData?2Donate?224_DonateShop?4txt?$AA@
  01c22	b9 00 00 00 00	 mov	 ecx, OFFSET ?gDirPath@@3VCDirPath@@A ; gDirPath
  01c27	e8 00 00 00 00	 call	 ?GetNewPath@CDirPath@@QAEPADPAD@Z ; CDirPath::GetNewPath
  01c2c	50		 push	 eax
  01c2d	b9 d0 2e 13 00	 mov	 ecx, OFFSET ?ShopC@@3PAVCShop@@A+1257168
  01c32	e8 00 00 00 00	 call	 ?LoadShopItemEx@CShop@@QAEHPAD@Z ; CShop::LoadShopItemEx

; 690  : 		ShopC[45].LoadShopItemEx(gDirPath.GetNewPath("ExData\\Donate\\25_DonateShop.txt"));

  01c37	68 00 00 00 00	 push	 OFFSET ??_C@_0CA@CHHOPICF@ExData?2Donate?225_DonateShop?4txt?$AA@
  01c3c	b9 00 00 00 00	 mov	 ecx, OFFSET ?gDirPath@@3VCDirPath@@A ; gDirPath
  01c41	e8 00 00 00 00	 call	 ?GetNewPath@CDirPath@@QAEPADPAD@Z ; CDirPath::GetNewPath
  01c46	50		 push	 eax
  01c47	b9 6c 9e 13 00	 mov	 ecx, OFFSET ?ShopC@@3PAVCShop@@A+1285740
  01c4c	e8 00 00 00 00	 call	 ?LoadShopItemEx@CShop@@QAEHPAD@Z ; CShop::LoadShopItemEx
$LN2@ShopDataLo:

; 691  : 	}
; 692  : #endif
; 693  : 
; 694  : 	LogAdd(lMsg.Get(MSGGET(1, 209)));

  01c51	68 d1 01 00 00	 push	 465			; 000001d1H
  01c56	b9 00 00 00 00	 mov	 ecx, OFFSET ?lMsg@@3VCMsg@@A ; lMsg
  01c5b	e8 00 00 00 00	 call	 ?Get@CMsg@@QAEPADH@Z	; CMsg::Get
  01c60	50		 push	 eax
  01c61	ff 15 00 00 00
	00		 call	 DWORD PTR ?LogAdd@@3P6AXPADZZA ; LogAdd
  01c67	83 c4 04	 add	 esp, 4

; 695  : 	return TRUE;

  01c6a	b8 01 00 00 00	 mov	 eax, 1

; 696  : }

  01c6f	5f		 pop	 edi
  01c70	5e		 pop	 esi
  01c71	5b		 pop	 ebx
  01c72	8b e5		 mov	 esp, ebp
  01c74	5d		 pop	 ebp
  01c75	c3		 ret	 0
?ShopDataLoad@@YAHXZ ENDP				; ShopDataLoad
_TEXT	ENDS
PUBLIC	__$ArrayPad$
PUBLIC	?GC_ShopInfo@CShop@@QAEXH@Z			; CShop::GC_ShopInfo
EXTRN	?DataSend@@YAHHPAEK@Z:PROC			; DataSend
EXTRN	_memcpy:PROC
EXTRN	?gObj@@3PAUOBJECTSTRUCT@@A:DWORD		; gObj
EXTRN	__chkstk:PROC
; Function compile flags: /Odtp /ZI
_TEXT	SEGMENT
tv67 = -5104						; size = 4
_p$232099 = -5036					; size = 12
_i$232094 = -5024					; size = 4
_SendBuff$ = -5020					; size = 5000
_datasize$ = -20					; size = 4
_icount$ = -16						; size = 4
_lpUser$ = -12						; size = 4
_this$ = -8						; size = 4
__$ArrayPad$ = -4					; size = 4
_aIndex$ = 8						; size = 4
?GC_ShopInfo@CShop@@QAEXH@Z PROC			; CShop::GC_ShopInfo
; _this$ = ecx

; 711  : {

  01c80	55		 push	 ebp
  01c81	8b ec		 mov	 ebp, esp
  01c83	b8 f0 13 00 00	 mov	 eax, 5104		; 000013f0H
  01c88	e8 00 00 00 00	 call	 __chkstk
  01c8d	a1 00 00 00 00	 mov	 eax, DWORD PTR ___security_cookie
  01c92	33 c5		 xor	 eax, ebp
  01c94	89 45 fc	 mov	 DWORD PTR __$ArrayPad$[ebp], eax
  01c97	53		 push	 ebx
  01c98	56		 push	 esi
  01c99	57		 push	 edi
  01c9a	89 4d f8	 mov	 DWORD PTR _this$[ebp], ecx

; 712  : 	if(OBJMAX_RANGE(aIndex) == 0)

  01c9d	83 7d 08 00	 cmp	 DWORD PTR _aIndex$[ebp], 0
  01ca1	7d 0c		 jge	 SHORT $LN11@GC_ShopInf
  01ca3	c7 85 10 ec ff
	ff 00 00 00 00	 mov	 DWORD PTR tv67[ebp], 0
  01cad	eb 12		 jmp	 SHORT $LN12@GC_ShopInf
$LN11@GC_ShopInf:
  01caf	33 c0		 xor	 eax, eax
  01cb1	81 7d 08 97 3a
	00 00		 cmp	 DWORD PTR _aIndex$[ebp], 14999 ; 00003a97H
  01cb8	0f 9e c0	 setle	 al
  01cbb	89 85 10 ec ff
	ff		 mov	 DWORD PTR tv67[ebp], eax
$LN12@GC_ShopInf:
  01cc1	83 bd 10 ec ff
	ff 00		 cmp	 DWORD PTR tv67[ebp], 0
  01cc8	75 05		 jne	 SHORT $LN8@GC_ShopInf

; 713  : 	{
; 714  : 		return;

  01cca	e9 b7 01 00 00	 jmp	 $LN9@GC_ShopInf
$LN8@GC_ShopInf:

; 715  : 	}
; 716  : 
; 717  : 	LPOBJ lpUser = &gObj[aIndex];

  01ccf	8b 45 08	 mov	 eax, DWORD PTR _aIndex$[ebp]
  01cd2	69 c0 38 2b 00
	00		 imul	 eax, 11064		; 00002b38H
  01cd8	03 05 00 00 00
	00		 add	 eax, DWORD PTR ?gObj@@3PAUOBJECTSTRUCT@@A ; gObj
  01cde	89 45 f4	 mov	 DWORD PTR _lpUser$[ebp], eax

; 718  : 
; 719  : 	if(lpUser->Connected < PLAYER_PLAYING)

  01ce1	8b 45 f4	 mov	 eax, DWORD PTR _lpUser$[ebp]
  01ce4	83 78 04 03	 cmp	 DWORD PTR [eax+4], 3
  01ce8	7d 05		 jge	 SHORT $LN7@GC_ShopInf

; 720  : 	{
; 721  : 		return;

  01cea	e9 97 01 00 00	 jmp	 $LN9@GC_ShopInf
$LN7@GC_ShopInf:

; 722  : 	}
; 723  : 
; 724  : 	int icount = 0;

  01cef	c7 45 f0 00 00
	00 00		 mov	 DWORD PTR _icount$[ebp], 0

; 725  : 	int datasize = 6;

  01cf6	c7 45 ec 06 00
	00 00		 mov	 DWORD PTR _datasize$[ebp], 6

; 726  : 	BYTE SendBuff[5000];
; 727  : 
; 728  : 	for(int i=0; i < this->ItemCount; i++)

  01cfd	c7 85 60 ec ff
	ff 00 00 00 00	 mov	 DWORD PTR _i$232094[ebp], 0
  01d07	eb 0f		 jmp	 SHORT $LN6@GC_ShopInf
$LN5@GC_ShopInf:
  01d09	8b 85 60 ec ff
	ff		 mov	 eax, DWORD PTR _i$232094[ebp]
  01d0f	83 c0 01	 add	 eax, 1
  01d12	89 85 60 ec ff
	ff		 mov	 DWORD PTR _i$232094[ebp], eax
$LN6@GC_ShopInf:
  01d18	8b 45 f8	 mov	 eax, DWORD PTR _this$[ebp]
  01d1b	8b 8d 60 ec ff
	ff		 mov	 ecx, DWORD PTR _i$232094[ebp]
  01d21	3b 48 7c	 cmp	 ecx, DWORD PTR [eax+124]
  01d24	0f 8d 04 01 00
	00		 jge	 $LN4@GC_ShopInf

; 729  : 	{
; 730  : 		if(!this->ShopEx[i].PayType) 

  01d2a	8b 85 60 ec ff
	ff		 mov	 eax, DWORD PTR _i$232094[ebp]
  01d30	6b c0 0c	 imul	 eax, 12			; 0000000cH
  01d33	8b 4d f8	 mov	 ecx, DWORD PTR _this$[ebp]
  01d36	0f b6 94 01 01
	6a 00 00	 movzx	 edx, BYTE PTR [ecx+eax+27137]
  01d3e	85 d2		 test	 edx, edx
  01d40	75 02		 jne	 SHORT $LN3@GC_ShopInf

; 731  : 		{
; 732  : 			continue;

  01d42	eb c5		 jmp	 SHORT $LN5@GC_ShopInf
$LN3@GC_ShopInf:

; 733  : 		}
; 734  : 
; 735  : 		GC_ShopPay p;
; 736  : 
; 737  : 		p.ItemType = this->ShopEx[i].ItemType;

  01d44	8b 85 60 ec ff
	ff		 mov	 eax, DWORD PTR _i$232094[ebp]
  01d4a	6b c0 0c	 imul	 eax, 12			; 0000000cH
  01d4d	8b 4d f8	 mov	 ecx, DWORD PTR _this$[ebp]
  01d50	8a 94 01 fc 69
	00 00		 mov	 dl, BYTE PTR [ecx+eax+27132]
  01d57	88 95 54 ec ff
	ff		 mov	 BYTE PTR _p$232099[ebp], dl

; 738  : 		p.ItemIndex = this->ShopEx[i].ItemIndex;

  01d5d	8b 85 60 ec ff
	ff		 mov	 eax, DWORD PTR _i$232094[ebp]
  01d63	6b c0 0c	 imul	 eax, 12			; 0000000cH
  01d66	8b 4d f8	 mov	 ecx, DWORD PTR _this$[ebp]
  01d69	8a 94 01 fd 69
	00 00		 mov	 dl, BYTE PTR [ecx+eax+27133]
  01d70	88 95 55 ec ff
	ff		 mov	 BYTE PTR _p$232099[ebp+1], dl

; 739  : 		p.ItemLevel = this->ShopEx[i].ItemLevel;

  01d76	8b 85 60 ec ff
	ff		 mov	 eax, DWORD PTR _i$232094[ebp]
  01d7c	6b c0 0c	 imul	 eax, 12			; 0000000cH
  01d7f	8b 4d f8	 mov	 ecx, DWORD PTR _this$[ebp]
  01d82	8a 94 01 fe 69
	00 00		 mov	 dl, BYTE PTR [ecx+eax+27134]
  01d89	88 95 56 ec ff
	ff		 mov	 BYTE PTR _p$232099[ebp+2], dl

; 740  : 		p.ItemExl = this->ShopEx[i].ItemExl;

  01d8f	8b 85 60 ec ff
	ff		 mov	 eax, DWORD PTR _i$232094[ebp]
  01d95	6b c0 0c	 imul	 eax, 12			; 0000000cH
  01d98	8b 4d f8	 mov	 ecx, DWORD PTR _this$[ebp]
  01d9b	8a 94 01 ff 69
	00 00		 mov	 dl, BYTE PTR [ecx+eax+27135]
  01da2	88 95 57 ec ff
	ff		 mov	 BYTE PTR _p$232099[ebp+3], dl

; 741  : 		p.ItemAnc = this->ShopEx[i].ItemAnc;

  01da8	8b 85 60 ec ff
	ff		 mov	 eax, DWORD PTR _i$232094[ebp]
  01dae	6b c0 0c	 imul	 eax, 12			; 0000000cH
  01db1	8b 4d f8	 mov	 ecx, DWORD PTR _this$[ebp]
  01db4	8a 94 01 00 6a
	00 00		 mov	 dl, BYTE PTR [ecx+eax+27136]
  01dbb	88 95 58 ec ff
	ff		 mov	 BYTE PTR _p$232099[ebp+4], dl

; 742  : 		p.PayType = this->ShopEx[i].PayType;

  01dc1	8b 85 60 ec ff
	ff		 mov	 eax, DWORD PTR _i$232094[ebp]
  01dc7	6b c0 0c	 imul	 eax, 12			; 0000000cH
  01dca	8b 4d f8	 mov	 ecx, DWORD PTR _this$[ebp]
  01dcd	8a 94 01 01 6a
	00 00		 mov	 dl, BYTE PTR [ecx+eax+27137]
  01dd4	88 95 59 ec ff
	ff		 mov	 BYTE PTR _p$232099[ebp+5], dl

; 743  : 		p.PayPrice = this->ShopEx[i].PayPrice;

  01dda	8b 85 60 ec ff
	ff		 mov	 eax, DWORD PTR _i$232094[ebp]
  01de0	6b c0 0c	 imul	 eax, 12			; 0000000cH
  01de3	8b 4d f8	 mov	 ecx, DWORD PTR _this$[ebp]
  01de6	8b 94 01 04 6a
	00 00		 mov	 edx, DWORD PTR [ecx+eax+27140]
  01ded	89 95 5c ec ff
	ff		 mov	 DWORD PTR _p$232099[ebp+8], edx

; 744  : 
; 745  : 		memcpy(&SendBuff[datasize],&p,sizeof(p));

  01df3	6a 0c		 push	 12			; 0000000cH
  01df5	8d 85 54 ec ff
	ff		 lea	 eax, DWORD PTR _p$232099[ebp]
  01dfb	50		 push	 eax
  01dfc	8b 4d ec	 mov	 ecx, DWORD PTR _datasize$[ebp]
  01dff	8d 94 0d 64 ec
	ff ff		 lea	 edx, DWORD PTR _SendBuff$[ebp+ecx]
  01e06	52		 push	 edx
  01e07	e8 00 00 00 00	 call	 _memcpy
  01e0c	83 c4 0c	 add	 esp, 12			; 0000000cH

; 746  : 		datasize += sizeof(p);

  01e0f	8b 45 ec	 mov	 eax, DWORD PTR _datasize$[ebp]
  01e12	83 c0 0c	 add	 eax, 12			; 0000000cH
  01e15	89 45 ec	 mov	 DWORD PTR _datasize$[ebp], eax

; 747  : 
; 748  : 		icount++;

  01e18	8b 45 f0	 mov	 eax, DWORD PTR _icount$[ebp]
  01e1b	83 c0 01	 add	 eax, 1
  01e1e	89 45 f0	 mov	 DWORD PTR _icount$[ebp], eax

; 749  : 
; 750  : 		if(icount >= MAX_ITEM_IN_SHOP-1)

  01e21	83 7d f0 77	 cmp	 DWORD PTR _icount$[ebp], 119 ; 00000077H
  01e25	7c 02		 jl	 SHORT $LN2@GC_ShopInf

; 751  : 		{
; 752  : 			break;		

  01e27	eb 05		 jmp	 SHORT $LN4@GC_ShopInf
$LN2@GC_ShopInf:

; 753  : 		}
; 754  : 	}

  01e29	e9 db fe ff ff	 jmp	 $LN5@GC_ShopInf
$LN4@GC_ShopInf:

; 755  : 
; 756  : 	if(icount > 0)

  01e2e	83 7d f0 00	 cmp	 DWORD PTR _icount$[ebp], 0
  01e32	7e 52		 jle	 SHORT $LN9@GC_ShopInf

; 757  : 	{
; 758  : 		SendBuff[0]=0xC2;	// packet header

  01e34	c6 85 64 ec ff
	ff c2		 mov	 BYTE PTR _SendBuff$[ebp], 194 ; 000000c2H

; 759  : 		SendBuff[1]=SET_NUMBERH(datasize);

  01e3b	8b 45 ec	 mov	 eax, DWORD PTR _datasize$[ebp]
  01e3e	c1 e8 08	 shr	 eax, 8
  01e41	88 85 65 ec ff
	ff		 mov	 BYTE PTR _SendBuff$[ebp+1], al

; 760  : 		SendBuff[2]=SET_NUMBERL(datasize);

  01e47	8b 45 ec	 mov	 eax, DWORD PTR _datasize$[ebp]
  01e4a	25 ff 00 00 00	 and	 eax, 255		; 000000ffH
  01e4f	88 85 66 ec ff
	ff		 mov	 BYTE PTR _SendBuff$[ebp+2], al

; 761  : 		SendBuff[3]=0xFA;

  01e55	c6 85 67 ec ff
	ff fa		 mov	 BYTE PTR _SendBuff$[ebp+3], 250 ; 000000faH

; 762  : 		SendBuff[4]=0x07;

  01e5c	c6 85 68 ec ff
	ff 07		 mov	 BYTE PTR _SendBuff$[ebp+4], 7

; 763  : 		SendBuff[5]=this->ItemCount;

  01e63	8b 45 f8	 mov	 eax, DWORD PTR _this$[ebp]
  01e66	8a 48 7c	 mov	 cl, BYTE PTR [eax+124]
  01e69	88 8d 69 ec ff
	ff		 mov	 BYTE PTR _SendBuff$[ebp+5], cl

; 764  : 		DataSend(aIndex,SendBuff,datasize);

  01e6f	8b 45 ec	 mov	 eax, DWORD PTR _datasize$[ebp]
  01e72	50		 push	 eax
  01e73	8d 8d 64 ec ff
	ff		 lea	 ecx, DWORD PTR _SendBuff$[ebp]
  01e79	51		 push	 ecx
  01e7a	8b 55 08	 mov	 edx, DWORD PTR _aIndex$[ebp]
  01e7d	52		 push	 edx
  01e7e	e8 00 00 00 00	 call	 ?DataSend@@YAHHPAEK@Z	; DataSend
  01e83	83 c4 0c	 add	 esp, 12			; 0000000cH
$LN9@GC_ShopInf:

; 765  : 	}
; 766  : }

  01e86	5f		 pop	 edi
  01e87	5e		 pop	 esi
  01e88	5b		 pop	 ebx
  01e89	8b 4d fc	 mov	 ecx, DWORD PTR __$ArrayPad$[ebp]
  01e8c	33 cd		 xor	 ecx, ebp
  01e8e	e8 00 00 00 00	 call	 @__security_check_cookie@4
  01e93	8b e5		 mov	 esp, ebp
  01e95	5d		 pop	 ebp
  01e96	c2 04 00	 ret	 4
?GC_ShopInfo@CShop@@QAEXH@Z ENDP			; CShop::GC_ShopInfo
_TEXT	ENDS
PUBLIC	?CheckExellent@@YA_NHH@Z			; CheckExellent
; Function compile flags: /Odtp /ZI
_TEXT	SEGMENT
_Exl1$ = 8						; size = 4
_Exl2$ = 12						; size = 4
?CheckExellent@@YA_NHH@Z PROC				; CheckExellent

; 769  : {

  01ea0	55		 push	 ebp
  01ea1	8b ec		 mov	 ebp, esp
  01ea3	83 ec 40	 sub	 esp, 64			; 00000040H
  01ea6	53		 push	 ebx
  01ea7	56		 push	 esi
  01ea8	57		 push	 edi

; 770  : 	if(!Exl1 && !Exl2)

  01ea9	83 7d 08 00	 cmp	 DWORD PTR _Exl1$[ebp], 0
  01ead	75 0c		 jne	 SHORT $LN3@CheckExell
  01eaf	83 7d 0c 00	 cmp	 DWORD PTR _Exl2$[ebp], 0
  01eb3	75 06		 jne	 SHORT $LN3@CheckExell

; 771  : 	{
; 772  : 		return true;

  01eb5	b0 01		 mov	 al, 1
  01eb7	eb 14		 jmp	 SHORT $LN4@CheckExell
  01eb9	eb 10		 jmp	 SHORT $LN2@CheckExell
$LN3@CheckExell:

; 773  : 	}
; 774  : 	else if(Exl1 && Exl2)

  01ebb	83 7d 08 00	 cmp	 DWORD PTR _Exl1$[ebp], 0
  01ebf	74 0a		 je	 SHORT $LN2@CheckExell
  01ec1	83 7d 0c 00	 cmp	 DWORD PTR _Exl2$[ebp], 0
  01ec5	74 04		 je	 SHORT $LN2@CheckExell

; 775  : 	{
; 776  : 		return true;

  01ec7	b0 01		 mov	 al, 1
  01ec9	eb 02		 jmp	 SHORT $LN4@CheckExell
$LN2@CheckExell:

; 777  : 	}
; 778  : 
; 779  : 	return false;

  01ecb	32 c0		 xor	 al, al
$LN4@CheckExell:

; 780  : }

  01ecd	5f		 pop	 edi
  01ece	5e		 pop	 esi
  01ecf	5b		 pop	 ebx
  01ed0	8b e5		 mov	 esp, ebp
  01ed2	5d		 pop	 ebp
  01ed3	c3		 ret	 0
?CheckExellent@@YA_NHH@Z ENDP				; CheckExellent
_TEXT	ENDS
PUBLIC	??_C@_0BG@NFBGNLEO@?$FLBuy?$FN?5Need?5?$CFd?5NSPoint?$AA@ ; `string'
PUBLIC	??$sprintf_s@$0BAA@@@YAHAAY0BAA@DPBDZZ		; sprintf_s<256>
PUBLIC	__$ArrayPad$
PUBLIC	?CheckBuyItemEx@CShop@@QAE_NHHAAH@Z		; CShop::CheckBuyItemEx
EXTRN	?GCServerMsgStringSend@@YAXPADHE@Z:PROC		; GCServerMsgStringSend
EXTRN	?GetText@CExText@@QAEPADH@Z:PROC		; CExText::GetText
EXTRN	?g_ExText@@3VCExText@@A:BYTE			; g_ExText
EXTRN	_memset:PROC
;	COMDAT ??_C@_0BG@NFBGNLEO@?$FLBuy?$FN?5Need?5?$CFd?5NSPoint?$AA@
CONST	SEGMENT
??_C@_0BG@NFBGNLEO@?$FLBuy?$FN?5Need?5?$CFd?5NSPoint?$AA@ DB '[Buy] Need '
	DB	'%d NSPoint', 00H				; `string'
; Function compile flags: /Odtp /ZI
CONST	ENDS
_TEXT	SEGMENT
tv368 = -344						; size = 8
tv330 = -344						; size = 8
tv70 = -340						; size = 4
_i$232124 = -272					; size = 4
_lpUser$ = -268						; size = 4
_szBuff$ = -264						; size = 256
_this$ = -8						; size = 4
__$ArrayPad$ = -4					; size = 4
_aIndex$ = 8						; size = 4
_ItemPos$ = 12						; size = 4
_iStoreTaxMoney$ = 16					; size = 4
?CheckBuyItemEx@CShop@@QAE_NHHAAH@Z PROC		; CShop::CheckBuyItemEx
; _this$ = ecx

; 783  : {

  01ee0	55		 push	 ebp
  01ee1	8b ec		 mov	 ebp, esp
  01ee3	81 ec 58 01 00
	00		 sub	 esp, 344		; 00000158H
  01ee9	a1 00 00 00 00	 mov	 eax, DWORD PTR ___security_cookie
  01eee	33 c5		 xor	 eax, ebp
  01ef0	89 45 fc	 mov	 DWORD PTR __$ArrayPad$[ebp], eax
  01ef3	53		 push	 ebx
  01ef4	56		 push	 esi
  01ef5	57		 push	 edi
  01ef6	89 4d f8	 mov	 DWORD PTR _this$[ebp], ecx

; 784  : 	char szBuff[256] = { 0 };

  01ef9	c6 85 f8 fe ff
	ff 00		 mov	 BYTE PTR _szBuff$[ebp], 0
  01f00	68 ff 00 00 00	 push	 255			; 000000ffH
  01f05	6a 00		 push	 0
  01f07	8d 85 f9 fe ff
	ff		 lea	 eax, DWORD PTR _szBuff$[ebp+1]
  01f0d	50		 push	 eax
  01f0e	e8 00 00 00 00	 call	 _memset
  01f13	83 c4 0c	 add	 esp, 12			; 0000000cH

; 785  : 
; 786  : 	if(OBJMAX_RANGE(aIndex) == 0)

  01f16	83 7d 08 00	 cmp	 DWORD PTR _aIndex$[ebp], 0
  01f1a	7d 0c		 jge	 SHORT $LN25@CheckBuyIt
  01f1c	c7 85 ac fe ff
	ff 00 00 00 00	 mov	 DWORD PTR tv70[ebp], 0
  01f26	eb 12		 jmp	 SHORT $LN26@CheckBuyIt
$LN25@CheckBuyIt:
  01f28	33 c0		 xor	 eax, eax
  01f2a	81 7d 08 97 3a
	00 00		 cmp	 DWORD PTR _aIndex$[ebp], 14999 ; 00003a97H
  01f31	0f 9e c0	 setle	 al
  01f34	89 85 ac fe ff
	ff		 mov	 DWORD PTR tv70[ebp], eax
$LN26@CheckBuyIt:
  01f3a	83 bd ac fe ff
	ff 00		 cmp	 DWORD PTR tv70[ebp], 0
  01f41	75 07		 jne	 SHORT $LN22@CheckBuyIt

; 787  : 	{
; 788  : 		return false;

  01f43	32 c0		 xor	 al, al
  01f45	e9 1c 04 00 00	 jmp	 $LN23@CheckBuyIt
$LN22@CheckBuyIt:

; 789  : 	}
; 790  : 
; 791  : 	LPOBJ lpUser = &gObj[aIndex];

  01f4a	8b 45 08	 mov	 eax, DWORD PTR _aIndex$[ebp]
  01f4d	69 c0 38 2b 00
	00		 imul	 eax, 11064		; 00002b38H
  01f53	03 05 00 00 00
	00		 add	 eax, DWORD PTR ?gObj@@3PAUOBJECTSTRUCT@@A ; gObj
  01f59	89 85 f4 fe ff
	ff		 mov	 DWORD PTR _lpUser$[ebp], eax

; 792  : 
; 793  : 	if(lpUser->Connected < PLAYER_PLAYING)

  01f5f	8b 85 f4 fe ff
	ff		 mov	 eax, DWORD PTR _lpUser$[ebp]
  01f65	83 78 04 03	 cmp	 DWORD PTR [eax+4], 3
  01f69	7d 07		 jge	 SHORT $LN21@CheckBuyIt

; 794  : 	{
; 795  : 		return false;

  01f6b	32 c0		 xor	 al, al
  01f6d	e9 f4 03 00 00	 jmp	 $LN23@CheckBuyIt
$LN21@CheckBuyIt:

; 796  : 	}
; 797  : 
; 798  : 	for(int i=0; i<this->ItemCount; i++)

  01f72	c7 85 f0 fe ff
	ff 00 00 00 00	 mov	 DWORD PTR _i$232124[ebp], 0
  01f7c	eb 0f		 jmp	 SHORT $LN20@CheckBuyIt
$LN19@CheckBuyIt:
  01f7e	8b 85 f0 fe ff
	ff		 mov	 eax, DWORD PTR _i$232124[ebp]
  01f84	83 c0 01	 add	 eax, 1
  01f87	89 85 f0 fe ff
	ff		 mov	 DWORD PTR _i$232124[ebp], eax
$LN20@CheckBuyIt:
  01f8d	8b 45 f8	 mov	 eax, DWORD PTR _this$[ebp]
  01f90	8b 8d f0 fe ff
	ff		 mov	 ecx, DWORD PTR _i$232124[ebp]
  01f96	3b 48 7c	 cmp	 ecx, DWORD PTR [eax+124]
  01f99	0f 8d c5 03 00
	00		 jge	 $LN18@CheckBuyIt

; 799  : 	{
; 800  : 		if ( this->m_item[ItemPos].m_Type != ITEMGET(this->ShopEx[i].ItemType, this->ShopEx[i].ItemIndex))

  01f9f	8b 45 0c	 mov	 eax, DWORD PTR _ItemPos$[ebp]
  01fa2	69 c0 d4 00 00
	00		 imul	 eax, 212		; 000000d4H
  01fa8	8b 4d f8	 mov	 ecx, DWORD PTR _this$[ebp]
  01fab	0f bf 94 01 86
	00 00 00	 movsx	 edx, WORD PTR [ecx+eax+134]
  01fb3	8b 85 f0 fe ff
	ff		 mov	 eax, DWORD PTR _i$232124[ebp]
  01fb9	6b c0 0c	 imul	 eax, 12			; 0000000cH
  01fbc	8b 4d f8	 mov	 ecx, DWORD PTR _this$[ebp]
  01fbf	0f b6 84 01 fc
	69 00 00	 movzx	 eax, BYTE PTR [ecx+eax+27132]
  01fc7	c1 e0 09	 shl	 eax, 9
  01fca	8b 8d f0 fe ff
	ff		 mov	 ecx, DWORD PTR _i$232124[ebp]
  01fd0	6b c9 0c	 imul	 ecx, 12			; 0000000cH
  01fd3	8b 75 f8	 mov	 esi, DWORD PTR _this$[ebp]
  01fd6	0f b6 8c 0e fd
	69 00 00	 movzx	 ecx, BYTE PTR [esi+ecx+27133]
  01fde	03 c1		 add	 eax, ecx
  01fe0	3b d0		 cmp	 edx, eax
  01fe2	74 02		 je	 SHORT $LN17@CheckBuyIt

; 801  : 		{
; 802  : 			continue;

  01fe4	eb 98		 jmp	 SHORT $LN19@CheckBuyIt
$LN17@CheckBuyIt:

; 803  : 		}
; 804  : 		// ----
; 805  : 		if (this->m_item[ItemPos].m_Level != this->ShopEx[i].ItemLevel)

  01fe6	8b 45 0c	 mov	 eax, DWORD PTR _ItemPos$[ebp]
  01fe9	69 c0 d4 00 00
	00		 imul	 eax, 212		; 000000d4H
  01fef	8b 4d f8	 mov	 ecx, DWORD PTR _this$[ebp]
  01ff2	0f bf 94 01 88
	00 00 00	 movsx	 edx, WORD PTR [ecx+eax+136]
  01ffa	8b 85 f0 fe ff
	ff		 mov	 eax, DWORD PTR _i$232124[ebp]
  02000	6b c0 0c	 imul	 eax, 12			; 0000000cH
  02003	8b 4d f8	 mov	 ecx, DWORD PTR _this$[ebp]
  02006	0f b6 84 01 fe
	69 00 00	 movzx	 eax, BYTE PTR [ecx+eax+27134]
  0200e	3b d0		 cmp	 edx, eax
  02010	74 05		 je	 SHORT $LN16@CheckBuyIt

; 806  : 		{
; 807  : 			continue;

  02012	e9 67 ff ff ff	 jmp	 $LN19@CheckBuyIt
$LN16@CheckBuyIt:

; 808  : 		}
; 809  : 		// ----
; 810  : 		if(!CheckExellent(this->m_item[ItemPos].m_NewOption, this->ShopEx[i].ItemExl))

  02017	8b 85 f0 fe ff
	ff		 mov	 eax, DWORD PTR _i$232124[ebp]
  0201d	6b c0 0c	 imul	 eax, 12			; 0000000cH
  02020	8b 4d f8	 mov	 ecx, DWORD PTR _this$[ebp]
  02023	0f b6 94 01 ff
	69 00 00	 movzx	 edx, BYTE PTR [ecx+eax+27135]
  0202b	52		 push	 edx
  0202c	8b 45 0c	 mov	 eax, DWORD PTR _ItemPos$[ebp]
  0202f	69 c0 d4 00 00
	00		 imul	 eax, 212		; 000000d4H
  02035	8b 4d f8	 mov	 ecx, DWORD PTR _this$[ebp]
  02038	0f b6 94 01 17
	01 00 00	 movzx	 edx, BYTE PTR [ecx+eax+279]
  02040	52		 push	 edx
  02041	e8 00 00 00 00	 call	 ?CheckExellent@@YA_NHH@Z ; CheckExellent
  02046	83 c4 08	 add	 esp, 8
  02049	0f b6 c0	 movzx	 eax, al
  0204c	85 c0		 test	 eax, eax
  0204e	75 05		 jne	 SHORT $LN15@CheckBuyIt

; 811  : 		{
; 812  : 			continue;

  02050	e9 29 ff ff ff	 jmp	 $LN19@CheckBuyIt
$LN15@CheckBuyIt:

; 813  : 		}
; 814  : 		// ----
; 815  : 		if (this->ShopEx[i].ItemAnc != this->m_item[ItemPos].m_SetOption)

  02055	8b 85 f0 fe ff
	ff		 mov	 eax, DWORD PTR _i$232124[ebp]
  0205b	6b c0 0c	 imul	 eax, 12			; 0000000cH
  0205e	8b 4d f8	 mov	 ecx, DWORD PTR _this$[ebp]
  02061	0f b6 94 01 00
	6a 00 00	 movzx	 edx, BYTE PTR [ecx+eax+27136]
  02069	8b 45 0c	 mov	 eax, DWORD PTR _ItemPos$[ebp]
  0206c	69 c0 d4 00 00
	00		 imul	 eax, 212		; 000000d4H
  02072	8b 4d f8	 mov	 ecx, DWORD PTR _this$[ebp]
  02075	0f b6 84 01 2e
	01 00 00	 movzx	 eax, BYTE PTR [ecx+eax+302]
  0207d	3b d0		 cmp	 edx, eax
  0207f	74 05		 je	 SHORT $LN14@CheckBuyIt

; 816  : 		{
; 817  : 			continue;

  02081	e9 f8 fe ff ff	 jmp	 $LN19@CheckBuyIt
$LN14@CheckBuyIt:

; 818  : 		}
; 819  : 		// ----
; 820  : 		if (this->ShopEx[i].PayType <= 0 || this->ShopEx[i].PayType > 3)

  02086	8b 85 f0 fe ff
	ff		 mov	 eax, DWORD PTR _i$232124[ebp]
  0208c	6b c0 0c	 imul	 eax, 12			; 0000000cH
  0208f	8b 4d f8	 mov	 ecx, DWORD PTR _this$[ebp]
  02092	0f b6 94 01 01
	6a 00 00	 movzx	 edx, BYTE PTR [ecx+eax+27137]
  0209a	85 d2		 test	 edx, edx
  0209c	7e 19		 jle	 SHORT $LN12@CheckBuyIt
  0209e	8b 85 f0 fe ff
	ff		 mov	 eax, DWORD PTR _i$232124[ebp]
  020a4	6b c0 0c	 imul	 eax, 12			; 0000000cH
  020a7	8b 4d f8	 mov	 ecx, DWORD PTR _this$[ebp]
  020aa	0f b6 94 01 01
	6a 00 00	 movzx	 edx, BYTE PTR [ecx+eax+27137]
  020b2	83 fa 03	 cmp	 edx, 3
  020b5	7e 05		 jle	 SHORT $LN13@CheckBuyIt
$LN12@CheckBuyIt:

; 821  : 		{
; 822  : 			continue;

  020b7	e9 c2 fe ff ff	 jmp	 $LN19@CheckBuyIt
$LN13@CheckBuyIt:

; 823  : 		}
; 824  : 		// ----
; 825  : 
; 826  : 		if(this->ShopEx[i].PayType == ePriceZen)

  020bc	8b 85 f0 fe ff
	ff		 mov	 eax, DWORD PTR _i$232124[ebp]
  020c2	6b c0 0c	 imul	 eax, 12			; 0000000cH
  020c5	8b 4d f8	 mov	 ecx, DWORD PTR _this$[ebp]
  020c8	0f b6 94 01 01
	6a 00 00	 movzx	 edx, BYTE PTR [ecx+eax+27137]
  020d0	83 fa 01	 cmp	 edx, 1
  020d3	75 7d		 jne	 SHORT $LN11@CheckBuyIt

; 827  : 		{
; 828  : 			iStoreTaxMoney = this->ShopEx[i].PayPrice;

  020d5	8b 85 f0 fe ff
	ff		 mov	 eax, DWORD PTR _i$232124[ebp]
  020db	6b c0 0c	 imul	 eax, 12			; 0000000cH
  020de	8b 4d 10	 mov	 ecx, DWORD PTR _iStoreTaxMoney$[ebp]
  020e1	8b 55 f8	 mov	 edx, DWORD PTR _this$[ebp]
  020e4	8b 84 02 04 6a
	00 00		 mov	 eax, DWORD PTR [edx+eax+27140]
  020eb	89 01		 mov	 DWORD PTR [ecx], eax

; 829  : 			if(iStoreTaxMoney > lpUser->Money)

  020ed	8b 45 10	 mov	 eax, DWORD PTR _iStoreTaxMoney$[ebp]
  020f0	8b 8d f4 fe ff
	ff		 mov	 ecx, DWORD PTR _lpUser$[ebp]
  020f6	8b 10		 mov	 edx, DWORD PTR [eax]
  020f8	3b 91 f0 00 00
	00		 cmp	 edx, DWORD PTR [ecx+240]
  020fe	7e 46		 jle	 SHORT $LN10@CheckBuyIt

; 830  : 			{
; 831  : 				sprintf_s(szBuff,g_ExText.GetText(231),iStoreTaxMoney);

  02100	8b 45 10	 mov	 eax, DWORD PTR _iStoreTaxMoney$[ebp]
  02103	8b 08		 mov	 ecx, DWORD PTR [eax]
  02105	51		 push	 ecx
  02106	68 e7 00 00 00	 push	 231			; 000000e7H
  0210b	b9 00 00 00 00	 mov	 ecx, OFFSET ?g_ExText@@3VCExText@@A ; g_ExText
  02110	e8 00 00 00 00	 call	 ?GetText@CExText@@QAEPADH@Z ; CExText::GetText
  02115	50		 push	 eax
  02116	8d 95 f8 fe ff
	ff		 lea	 edx, DWORD PTR _szBuff$[ebp]
  0211c	52		 push	 edx
  0211d	e8 00 00 00 00	 call	 ??$sprintf_s@$0BAA@@@YAHAAY0BAA@DPBDZZ ; sprintf_s<256>
  02122	83 c4 0c	 add	 esp, 12			; 0000000cH

; 832  : 				GCServerMsgStringSend(szBuff, lpUser->m_Index, 1);

  02125	6a 01		 push	 1
  02127	8b 85 f4 fe ff
	ff		 mov	 eax, DWORD PTR _lpUser$[ebp]
  0212d	8b 08		 mov	 ecx, DWORD PTR [eax]
  0212f	51		 push	 ecx
  02130	8d 95 f8 fe ff
	ff		 lea	 edx, DWORD PTR _szBuff$[ebp]
  02136	52		 push	 edx
  02137	e8 00 00 00 00	 call	 ?GCServerMsgStringSend@@YAXPADHE@Z ; GCServerMsgStringSend
  0213c	83 c4 0c	 add	 esp, 12			; 0000000cH

; 833  : 				return false;

  0213f	32 c0		 xor	 al, al
  02141	e9 20 02 00 00	 jmp	 $LN23@CheckBuyIt
$LN10@CheckBuyIt:

; 834  : 			}
; 835  : 			return true;

  02146	b0 01		 mov	 al, 1
  02148	e9 19 02 00 00	 jmp	 $LN23@CheckBuyIt
  0214d	e9 0d 02 00 00	 jmp	 $LN2@CheckBuyIt
$LN11@CheckBuyIt:

; 836  : 		}
; 837  : 		else if(this->ShopEx[i].PayType == ePriceBonus)

  02152	8b 85 f0 fe ff
	ff		 mov	 eax, DWORD PTR _i$232124[ebp]
  02158	6b c0 0c	 imul	 eax, 12			; 0000000cH
  0215b	8b 4d f8	 mov	 ecx, DWORD PTR _this$[ebp]
  0215e	0f b6 94 01 01
	6a 00 00	 movzx	 edx, BYTE PTR [ecx+eax+27137]
  02166	83 fa 02	 cmp	 edx, 2
  02169	0f 85 a5 00 00
	00		 jne	 $LN8@CheckBuyIt

; 838  : 		{
; 839  : 			if(this->ShopEx[i].PayPrice > lpUser->GameShop.WCoinC)

  0216f	8b 85 f0 fe ff
	ff		 mov	 eax, DWORD PTR _i$232124[ebp]
  02175	6b c0 0c	 imul	 eax, 12			; 0000000cH
  02178	8b 4d f8	 mov	 ecx, DWORD PTR _this$[ebp]
  0217b	8b 94 01 04 6a
	00 00		 mov	 edx, DWORD PTR [ecx+eax+27140]
  02182	89 95 a8 fe ff
	ff		 mov	 DWORD PTR tv330[ebp], edx
  02188	c7 85 ac fe ff
	ff 00 00 00 00	 mov	 DWORD PTR tv330[ebp+4], 0
  02192	df ad a8 fe ff
	ff		 fild	 QWORD PTR tv330[ebp]
  02198	8b 85 f4 fe ff
	ff		 mov	 eax, DWORD PTR _lpUser$[ebp]
  0219e	dc 98 00 23 00
	00		 fcomp	 QWORD PTR [eax+8960]
  021a4	df e0		 fnstsw	 ax
  021a6	f6 c4 41	 test	 ah, 65			; 00000041H
  021a9	75 54		 jne	 SHORT $LN7@CheckBuyIt

; 840  : 			{
; 841  : 				sprintf_s(szBuff,g_ExText.GetText(232),this->ShopEx[i].PayPrice);

  021ab	8b 85 f0 fe ff
	ff		 mov	 eax, DWORD PTR _i$232124[ebp]
  021b1	6b c0 0c	 imul	 eax, 12			; 0000000cH
  021b4	8b 4d f8	 mov	 ecx, DWORD PTR _this$[ebp]
  021b7	8b 94 01 04 6a
	00 00		 mov	 edx, DWORD PTR [ecx+eax+27140]
  021be	52		 push	 edx
  021bf	68 e8 00 00 00	 push	 232			; 000000e8H
  021c4	b9 00 00 00 00	 mov	 ecx, OFFSET ?g_ExText@@3VCExText@@A ; g_ExText
  021c9	e8 00 00 00 00	 call	 ?GetText@CExText@@QAEPADH@Z ; CExText::GetText
  021ce	50		 push	 eax
  021cf	8d 85 f8 fe ff
	ff		 lea	 eax, DWORD PTR _szBuff$[ebp]
  021d5	50		 push	 eax
  021d6	e8 00 00 00 00	 call	 ??$sprintf_s@$0BAA@@@YAHAAY0BAA@DPBDZZ ; sprintf_s<256>
  021db	83 c4 0c	 add	 esp, 12			; 0000000cH

; 842  : 				GCServerMsgStringSend(szBuff, lpUser->m_Index, 1);

  021de	6a 01		 push	 1
  021e0	8b 85 f4 fe ff
	ff		 mov	 eax, DWORD PTR _lpUser$[ebp]
  021e6	8b 08		 mov	 ecx, DWORD PTR [eax]
  021e8	51		 push	 ecx
  021e9	8d 95 f8 fe ff
	ff		 lea	 edx, DWORD PTR _szBuff$[ebp]
  021ef	52		 push	 edx
  021f0	e8 00 00 00 00	 call	 ?GCServerMsgStringSend@@YAXPADHE@Z ; GCServerMsgStringSend
  021f5	83 c4 0c	 add	 esp, 12			; 0000000cH

; 843  : 				return false;

  021f8	32 c0		 xor	 al, al
  021fa	e9 67 01 00 00	 jmp	 $LN23@CheckBuyIt
$LN7@CheckBuyIt:

; 844  : 			}
; 845  : 			//lpUser->Bonus -= this->ShopEx[i].PayPrice;
; 846  : 			//GJSetCharacterInfo(lpUser, lpUser->m_Index, 0);
; 847  : 			iStoreTaxMoney = 0;

  021ff	8b 45 10	 mov	 eax, DWORD PTR _iStoreTaxMoney$[ebp]
  02202	c7 00 00 00 00
	00		 mov	 DWORD PTR [eax], 0

; 848  : 			return true;

  02208	b0 01		 mov	 al, 1
  0220a	e9 57 01 00 00	 jmp	 $LN23@CheckBuyIt
  0220f	e9 4b 01 00 00	 jmp	 $LN2@CheckBuyIt
$LN8@CheckBuyIt:

; 849  : 		}
; 850  : 		else if(this->ShopEx[i].PayType == ePriceCredit)

  02214	8b 85 f0 fe ff
	ff		 mov	 eax, DWORD PTR _i$232124[ebp]
  0221a	6b c0 0c	 imul	 eax, 12			; 0000000cH
  0221d	8b 4d f8	 mov	 ecx, DWORD PTR _this$[ebp]
  02220	0f b6 94 01 01
	6a 00 00	 movzx	 edx, BYTE PTR [ecx+eax+27137]
  02228	83 fa 03	 cmp	 edx, 3
  0222b	0f 85 2e 01 00
	00		 jne	 $LN2@CheckBuyIt

; 851  : 		{
; 852  : 			if(g_ExLicense.CheckUser(eExUB::NSGames))

  02231	6a 51		 push	 81			; 00000051H
  02233	b9 00 00 00 00	 mov	 ecx, OFFSET ?g_ExLicense@@3VCExLicense@@A ; g_ExLicense
  02238	e8 00 00 00 00	 call	 ?CheckUser@CExLicense@@QAE_NH@Z ; CExLicense::CheckUser
  0223d	0f b6 c0	 movzx	 eax, al
  02240	85 c0		 test	 eax, eax
  02242	74 7f		 je	 SHORT $LN4@CheckBuyIt

; 853  : 			{
; 854  : 				if(this->ShopEx[i].PayPrice > lpUser->PCPoint)

  02244	8b 85 f0 fe ff
	ff		 mov	 eax, DWORD PTR _i$232124[ebp]
  0224a	6b c0 0c	 imul	 eax, 12			; 0000000cH
  0224d	8b 4d f8	 mov	 ecx, DWORD PTR _this$[ebp]
  02250	8b 95 f4 fe ff
	ff		 mov	 edx, DWORD PTR _lpUser$[ebp]
  02256	8b 84 01 04 6a
	00 00		 mov	 eax, DWORD PTR [ecx+eax+27140]
  0225d	3b 82 88 22 00
	00		 cmp	 eax, DWORD PTR [edx+8840]
  02263	76 49		 jbe	 SHORT $LN3@CheckBuyIt

; 855  : 				{
; 856  : 					sprintf_s(szBuff, "[Buy] Need %d NSPoint", this->ShopEx[i].PayPrice);

  02265	8b 85 f0 fe ff
	ff		 mov	 eax, DWORD PTR _i$232124[ebp]
  0226b	6b c0 0c	 imul	 eax, 12			; 0000000cH
  0226e	8b 4d f8	 mov	 ecx, DWORD PTR _this$[ebp]
  02271	8b 94 01 04 6a
	00 00		 mov	 edx, DWORD PTR [ecx+eax+27140]
  02278	52		 push	 edx
  02279	68 00 00 00 00	 push	 OFFSET ??_C@_0BG@NFBGNLEO@?$FLBuy?$FN?5Need?5?$CFd?5NSPoint?$AA@
  0227e	8d 85 f8 fe ff
	ff		 lea	 eax, DWORD PTR _szBuff$[ebp]
  02284	50		 push	 eax
  02285	e8 00 00 00 00	 call	 ??$sprintf_s@$0BAA@@@YAHAAY0BAA@DPBDZZ ; sprintf_s<256>
  0228a	83 c4 0c	 add	 esp, 12			; 0000000cH

; 857  : 					GCServerMsgStringSend(szBuff, lpUser->m_Index, 1);

  0228d	6a 01		 push	 1
  0228f	8b 85 f4 fe ff
	ff		 mov	 eax, DWORD PTR _lpUser$[ebp]
  02295	8b 08		 mov	 ecx, DWORD PTR [eax]
  02297	51		 push	 ecx
  02298	8d 95 f8 fe ff
	ff		 lea	 edx, DWORD PTR _szBuff$[ebp]
  0229e	52		 push	 edx
  0229f	e8 00 00 00 00	 call	 ?GCServerMsgStringSend@@YAXPADHE@Z ; GCServerMsgStringSend
  022a4	83 c4 0c	 add	 esp, 12			; 0000000cH

; 858  : 					return false;

  022a7	32 c0		 xor	 al, al
  022a9	e9 b8 00 00 00	 jmp	 $LN23@CheckBuyIt
$LN3@CheckBuyIt:

; 859  : 				}
; 860  : 				//lpUser->Credits -= this->ShopEx[i].PayPrice;
; 861  : 				//GJSetCharacterInfo(lpUser, lpUser->m_Index, 0);
; 862  : 				iStoreTaxMoney = 0;

  022ae	8b 45 10	 mov	 eax, DWORD PTR _iStoreTaxMoney$[ebp]
  022b1	c7 00 00 00 00
	00		 mov	 DWORD PTR [eax], 0

; 863  : 				return true;

  022b7	b0 01		 mov	 al, 1
  022b9	e9 a8 00 00 00	 jmp	 $LN23@CheckBuyIt

; 864  : 			}
; 865  : 			else

  022be	e9 9c 00 00 00	 jmp	 $LN2@CheckBuyIt
$LN4@CheckBuyIt:

; 866  : 			{
; 867  : 				if(this->ShopEx[i].PayPrice > lpUser->ExCred)

  022c3	8b 85 f0 fe ff
	ff		 mov	 eax, DWORD PTR _i$232124[ebp]
  022c9	6b c0 0c	 imul	 eax, 12			; 0000000cH
  022cc	8b 4d f8	 mov	 ecx, DWORD PTR _this$[ebp]
  022cf	8b 94 01 04 6a
	00 00		 mov	 edx, DWORD PTR [ecx+eax+27140]
  022d6	89 95 a8 fe ff
	ff		 mov	 DWORD PTR tv368[ebp], edx
  022dc	c7 85 ac fe ff
	ff 00 00 00 00	 mov	 DWORD PTR tv368[ebp+4], 0
  022e6	df ad a8 fe ff
	ff		 fild	 QWORD PTR tv368[ebp]
  022ec	8b 85 f4 fe ff
	ff		 mov	 eax, DWORD PTR _lpUser$[ebp]
  022f2	d9 80 a8 22 00
	00		 fld	 DWORD PTR [eax+8872]
  022f8	de d9		 fcompp
  022fa	df e0		 fnstsw	 ax
  022fc	f6 c4 05	 test	 ah, 5
  022ff	7a 51		 jp	 SHORT $LN1@CheckBuyIt

; 868  : 				{
; 869  : 					sprintf_s(szBuff,g_ExText.GetText(233),this->ShopEx[i].PayPrice);

  02301	8b 85 f0 fe ff
	ff		 mov	 eax, DWORD PTR _i$232124[ebp]
  02307	6b c0 0c	 imul	 eax, 12			; 0000000cH
  0230a	8b 4d f8	 mov	 ecx, DWORD PTR _this$[ebp]
  0230d	8b 94 01 04 6a
	00 00		 mov	 edx, DWORD PTR [ecx+eax+27140]
  02314	52		 push	 edx
  02315	68 e9 00 00 00	 push	 233			; 000000e9H
  0231a	b9 00 00 00 00	 mov	 ecx, OFFSET ?g_ExText@@3VCExText@@A ; g_ExText
  0231f	e8 00 00 00 00	 call	 ?GetText@CExText@@QAEPADH@Z ; CExText::GetText
  02324	50		 push	 eax
  02325	8d 85 f8 fe ff
	ff		 lea	 eax, DWORD PTR _szBuff$[ebp]
  0232b	50		 push	 eax
  0232c	e8 00 00 00 00	 call	 ??$sprintf_s@$0BAA@@@YAHAAY0BAA@DPBDZZ ; sprintf_s<256>
  02331	83 c4 0c	 add	 esp, 12			; 0000000cH

; 870  : 					GCServerMsgStringSend(szBuff, lpUser->m_Index, 1);

  02334	6a 01		 push	 1
  02336	8b 85 f4 fe ff
	ff		 mov	 eax, DWORD PTR _lpUser$[ebp]
  0233c	8b 08		 mov	 ecx, DWORD PTR [eax]
  0233e	51		 push	 ecx
  0233f	8d 95 f8 fe ff
	ff		 lea	 edx, DWORD PTR _szBuff$[ebp]
  02345	52		 push	 edx
  02346	e8 00 00 00 00	 call	 ?GCServerMsgStringSend@@YAXPADHE@Z ; GCServerMsgStringSend
  0234b	83 c4 0c	 add	 esp, 12			; 0000000cH

; 871  : 					return false;

  0234e	32 c0		 xor	 al, al
  02350	eb 14		 jmp	 SHORT $LN23@CheckBuyIt
$LN1@CheckBuyIt:

; 872  : 				}
; 873  : 				//lpUser->Credits -= this->ShopEx[i].PayPrice;
; 874  : 				//GJSetCharacterInfo(lpUser, lpUser->m_Index, 0);
; 875  : 				iStoreTaxMoney = 0;

  02352	8b 45 10	 mov	 eax, DWORD PTR _iStoreTaxMoney$[ebp]
  02355	c7 00 00 00 00
	00		 mov	 DWORD PTR [eax], 0

; 876  : 				return true;

  0235b	b0 01		 mov	 al, 1
  0235d	eb 07		 jmp	 SHORT $LN23@CheckBuyIt
$LN2@CheckBuyIt:

; 877  : 			}
; 878  : 		}
; 879  : 	}

  0235f	e9 1a fc ff ff	 jmp	 $LN19@CheckBuyIt
$LN18@CheckBuyIt:

; 880  : 
; 881  : 	return true;

  02364	b0 01		 mov	 al, 1
$LN23@CheckBuyIt:

; 882  : }

  02366	5f		 pop	 edi
  02367	5e		 pop	 esi
  02368	5b		 pop	 ebx
  02369	8b 4d fc	 mov	 ecx, DWORD PTR __$ArrayPad$[ebp]
  0236c	33 cd		 xor	 ecx, ebp
  0236e	e8 00 00 00 00	 call	 @__security_check_cookie@4
  02373	8b e5		 mov	 esp, ebp
  02375	5d		 pop	 ebp
  02376	c2 0c 00	 ret	 12			; 0000000cH
?CheckBuyItemEx@CShop@@QAE_NHHAAH@Z ENDP		; CShop::CheckBuyItemEx
_TEXT	ENDS
PUBLIC	??_C@_0BB@JMOCLNGO@?$FLBuy?$FN?5?$CFd?5NSPoint?$AA@ ; `string'
PUBLIC	__$ArrayPad$
PUBLIC	?BuyItemEx@CShop@@QAE_NHH@Z			; CShop::BuyItemEx
EXTRN	?BuyDonateShopItem@CAchievements@@QAEXHH@Z:PROC	; CAchievements::BuyDonateShopItem
EXTRN	?g_Achievements@@3VCAchievements@@A:BYTE	; g_Achievements
EXTRN	?ExUserDataSend@@YAXH@Z:PROC			; ExUserDataSend
EXTRN	?GDSaveUserInfo@GameShop@@QAEXH@Z:PROC		; GameShop::GDSaveUserInfo
EXTRN	?gGameShop@@3VGameShop@@A:BYTE			; gGameShop
EXTRN	?GCMoneySend@@YAXHK@Z:PROC			; GCMoneySend
;	COMDAT ??_C@_0BB@JMOCLNGO@?$FLBuy?$FN?5?$CFd?5NSPoint?$AA@
CONST	SEGMENT
??_C@_0BB@JMOCLNGO@?$FLBuy?$FN?5?$CFd?5NSPoint?$AA@ DB '[Buy] %d NSPoint', 00H ; `string'
; Function compile flags: /Odtp /ZI
CONST	ENDS
_TEXT	SEGMENT
tv524 = -344						; size = 8
tv504 = -344						; size = 8
tv446 = -344						; size = 8
tv427 = -344						; size = 8
tv70 = -340						; size = 4
_i$232176 = -272					; size = 4
_lpUser$ = -268						; size = 4
_szBuff$ = -264						; size = 256
_this$ = -8						; size = 4
__$ArrayPad$ = -4					; size = 4
_aIndex$ = 8						; size = 4
_ItemPos$ = 12						; size = 4
?BuyItemEx@CShop@@QAE_NHH@Z PROC			; CShop::BuyItemEx
; _this$ = ecx

; 885  : {

  02380	55		 push	 ebp
  02381	8b ec		 mov	 ebp, esp
  02383	81 ec 58 01 00
	00		 sub	 esp, 344		; 00000158H
  02389	a1 00 00 00 00	 mov	 eax, DWORD PTR ___security_cookie
  0238e	33 c5		 xor	 eax, ebp
  02390	89 45 fc	 mov	 DWORD PTR __$ArrayPad$[ebp], eax
  02393	53		 push	 ebx
  02394	56		 push	 esi
  02395	57		 push	 edi
  02396	89 4d f8	 mov	 DWORD PTR _this$[ebp], ecx

; 886  : 	char szBuff[256] = { 0 };

  02399	c6 85 f8 fe ff
	ff 00		 mov	 BYTE PTR _szBuff$[ebp], 0
  023a0	68 ff 00 00 00	 push	 255			; 000000ffH
  023a5	6a 00		 push	 0
  023a7	8d 85 f9 fe ff
	ff		 lea	 eax, DWORD PTR _szBuff$[ebp+1]
  023ad	50		 push	 eax
  023ae	e8 00 00 00 00	 call	 _memset
  023b3	83 c4 0c	 add	 esp, 12			; 0000000cH

; 887  : 
; 888  : 	if(OBJMAX_RANGE(aIndex) == 0)

  023b6	83 7d 08 00	 cmp	 DWORD PTR _aIndex$[ebp], 0
  023ba	7d 0c		 jge	 SHORT $LN25@BuyItemEx
  023bc	c7 85 ac fe ff
	ff 00 00 00 00	 mov	 DWORD PTR tv70[ebp], 0
  023c6	eb 12		 jmp	 SHORT $LN26@BuyItemEx
$LN25@BuyItemEx:
  023c8	33 c0		 xor	 eax, eax
  023ca	81 7d 08 97 3a
	00 00		 cmp	 DWORD PTR _aIndex$[ebp], 14999 ; 00003a97H
  023d1	0f 9e c0	 setle	 al
  023d4	89 85 ac fe ff
	ff		 mov	 DWORD PTR tv70[ebp], eax
$LN26@BuyItemEx:
  023da	83 bd ac fe ff
	ff 00		 cmp	 DWORD PTR tv70[ebp], 0
  023e1	75 07		 jne	 SHORT $LN22@BuyItemEx

; 889  : 	{
; 890  : 		return false;

  023e3	32 c0		 xor	 al, al
  023e5	e9 4d 06 00 00	 jmp	 $LN23@BuyItemEx
$LN22@BuyItemEx:

; 891  : 	}
; 892  : 
; 893  : 	LPOBJ lpUser = &gObj[aIndex];

  023ea	8b 45 08	 mov	 eax, DWORD PTR _aIndex$[ebp]
  023ed	69 c0 38 2b 00
	00		 imul	 eax, 11064		; 00002b38H
  023f3	03 05 00 00 00
	00		 add	 eax, DWORD PTR ?gObj@@3PAUOBJECTSTRUCT@@A ; gObj
  023f9	89 85 f4 fe ff
	ff		 mov	 DWORD PTR _lpUser$[ebp], eax

; 894  : 
; 895  : 	if(lpUser->Connected < PLAYER_PLAYING)

  023ff	8b 85 f4 fe ff
	ff		 mov	 eax, DWORD PTR _lpUser$[ebp]
  02405	83 78 04 03	 cmp	 DWORD PTR [eax+4], 3
  02409	7d 07		 jge	 SHORT $LN21@BuyItemEx

; 896  : 	{
; 897  : 		return false;

  0240b	32 c0		 xor	 al, al
  0240d	e9 25 06 00 00	 jmp	 $LN23@BuyItemEx
$LN21@BuyItemEx:

; 898  : 	}
; 899  : 
; 900  : 	for(int i=0; i<this->ItemCount; i++)

  02412	c7 85 f0 fe ff
	ff 00 00 00 00	 mov	 DWORD PTR _i$232176[ebp], 0
  0241c	eb 0f		 jmp	 SHORT $LN20@BuyItemEx
$LN19@BuyItemEx:
  0241e	8b 85 f0 fe ff
	ff		 mov	 eax, DWORD PTR _i$232176[ebp]
  02424	83 c0 01	 add	 eax, 1
  02427	89 85 f0 fe ff
	ff		 mov	 DWORD PTR _i$232176[ebp], eax
$LN20@BuyItemEx:
  0242d	8b 45 f8	 mov	 eax, DWORD PTR _this$[ebp]
  02430	8b 8d f0 fe ff
	ff		 mov	 ecx, DWORD PTR _i$232176[ebp]
  02436	3b 48 7c	 cmp	 ecx, DWORD PTR [eax+124]
  02439	0f 8d f6 05 00
	00		 jge	 $LN18@BuyItemEx

; 901  : 	{
; 902  : 		if ( this->m_item[ItemPos].m_Type != ITEMGET(this->ShopEx[i].ItemType, this->ShopEx[i].ItemIndex))

  0243f	8b 45 0c	 mov	 eax, DWORD PTR _ItemPos$[ebp]
  02442	69 c0 d4 00 00
	00		 imul	 eax, 212		; 000000d4H
  02448	8b 4d f8	 mov	 ecx, DWORD PTR _this$[ebp]
  0244b	0f bf 94 01 86
	00 00 00	 movsx	 edx, WORD PTR [ecx+eax+134]
  02453	8b 85 f0 fe ff
	ff		 mov	 eax, DWORD PTR _i$232176[ebp]
  02459	6b c0 0c	 imul	 eax, 12			; 0000000cH
  0245c	8b 4d f8	 mov	 ecx, DWORD PTR _this$[ebp]
  0245f	0f b6 84 01 fc
	69 00 00	 movzx	 eax, BYTE PTR [ecx+eax+27132]
  02467	c1 e0 09	 shl	 eax, 9
  0246a	8b 8d f0 fe ff
	ff		 mov	 ecx, DWORD PTR _i$232176[ebp]
  02470	6b c9 0c	 imul	 ecx, 12			; 0000000cH
  02473	8b 75 f8	 mov	 esi, DWORD PTR _this$[ebp]
  02476	0f b6 8c 0e fd
	69 00 00	 movzx	 ecx, BYTE PTR [esi+ecx+27133]
  0247e	03 c1		 add	 eax, ecx
  02480	3b d0		 cmp	 edx, eax
  02482	74 02		 je	 SHORT $LN17@BuyItemEx

; 903  : 		{
; 904  : 			continue;

  02484	eb 98		 jmp	 SHORT $LN19@BuyItemEx
$LN17@BuyItemEx:

; 905  : 		}
; 906  : 		// ----
; 907  : 		if (this->m_item[ItemPos].m_Level != this->ShopEx[i].ItemLevel)

  02486	8b 45 0c	 mov	 eax, DWORD PTR _ItemPos$[ebp]
  02489	69 c0 d4 00 00
	00		 imul	 eax, 212		; 000000d4H
  0248f	8b 4d f8	 mov	 ecx, DWORD PTR _this$[ebp]
  02492	0f bf 94 01 88
	00 00 00	 movsx	 edx, WORD PTR [ecx+eax+136]
  0249a	8b 85 f0 fe ff
	ff		 mov	 eax, DWORD PTR _i$232176[ebp]
  024a0	6b c0 0c	 imul	 eax, 12			; 0000000cH
  024a3	8b 4d f8	 mov	 ecx, DWORD PTR _this$[ebp]
  024a6	0f b6 84 01 fe
	69 00 00	 movzx	 eax, BYTE PTR [ecx+eax+27134]
  024ae	3b d0		 cmp	 edx, eax
  024b0	74 05		 je	 SHORT $LN16@BuyItemEx

; 908  : 		{
; 909  : 			continue;

  024b2	e9 67 ff ff ff	 jmp	 $LN19@BuyItemEx
$LN16@BuyItemEx:

; 910  : 		}
; 911  : 		// ----
; 912  : 		if(!CheckExellent(this->m_item[ItemPos].m_NewOption, this->ShopEx[i].ItemExl))

  024b7	8b 85 f0 fe ff
	ff		 mov	 eax, DWORD PTR _i$232176[ebp]
  024bd	6b c0 0c	 imul	 eax, 12			; 0000000cH
  024c0	8b 4d f8	 mov	 ecx, DWORD PTR _this$[ebp]
  024c3	0f b6 94 01 ff
	69 00 00	 movzx	 edx, BYTE PTR [ecx+eax+27135]
  024cb	52		 push	 edx
  024cc	8b 45 0c	 mov	 eax, DWORD PTR _ItemPos$[ebp]
  024cf	69 c0 d4 00 00
	00		 imul	 eax, 212		; 000000d4H
  024d5	8b 4d f8	 mov	 ecx, DWORD PTR _this$[ebp]
  024d8	0f b6 94 01 17
	01 00 00	 movzx	 edx, BYTE PTR [ecx+eax+279]
  024e0	52		 push	 edx
  024e1	e8 00 00 00 00	 call	 ?CheckExellent@@YA_NHH@Z ; CheckExellent
  024e6	83 c4 08	 add	 esp, 8
  024e9	0f b6 c0	 movzx	 eax, al
  024ec	85 c0		 test	 eax, eax
  024ee	75 05		 jne	 SHORT $LN15@BuyItemEx

; 913  : 		{
; 914  : 			continue;

  024f0	e9 29 ff ff ff	 jmp	 $LN19@BuyItemEx
$LN15@BuyItemEx:

; 915  : 		}
; 916  : 		// ----
; 917  : 		if (this->ShopEx[i].ItemAnc != this->m_item[ItemPos].m_SetOption)

  024f5	8b 85 f0 fe ff
	ff		 mov	 eax, DWORD PTR _i$232176[ebp]
  024fb	6b c0 0c	 imul	 eax, 12			; 0000000cH
  024fe	8b 4d f8	 mov	 ecx, DWORD PTR _this$[ebp]
  02501	0f b6 94 01 00
	6a 00 00	 movzx	 edx, BYTE PTR [ecx+eax+27136]
  02509	8b 45 0c	 mov	 eax, DWORD PTR _ItemPos$[ebp]
  0250c	69 c0 d4 00 00
	00		 imul	 eax, 212		; 000000d4H
  02512	8b 4d f8	 mov	 ecx, DWORD PTR _this$[ebp]
  02515	0f b6 84 01 2e
	01 00 00	 movzx	 eax, BYTE PTR [ecx+eax+302]
  0251d	3b d0		 cmp	 edx, eax
  0251f	74 05		 je	 SHORT $LN14@BuyItemEx

; 918  : 		{
; 919  : 			continue;

  02521	e9 f8 fe ff ff	 jmp	 $LN19@BuyItemEx
$LN14@BuyItemEx:

; 920  : 		}
; 921  : 		// ----
; 922  : 		if (this->ShopEx[i].PayType <= 0 || this->ShopEx[i].PayType > 3)

  02526	8b 85 f0 fe ff
	ff		 mov	 eax, DWORD PTR _i$232176[ebp]
  0252c	6b c0 0c	 imul	 eax, 12			; 0000000cH
  0252f	8b 4d f8	 mov	 ecx, DWORD PTR _this$[ebp]
  02532	0f b6 94 01 01
	6a 00 00	 movzx	 edx, BYTE PTR [ecx+eax+27137]
  0253a	85 d2		 test	 edx, edx
  0253c	7e 19		 jle	 SHORT $LN12@BuyItemEx
  0253e	8b 85 f0 fe ff
	ff		 mov	 eax, DWORD PTR _i$232176[ebp]
  02544	6b c0 0c	 imul	 eax, 12			; 0000000cH
  02547	8b 4d f8	 mov	 ecx, DWORD PTR _this$[ebp]
  0254a	0f b6 94 01 01
	6a 00 00	 movzx	 edx, BYTE PTR [ecx+eax+27137]
  02552	83 fa 03	 cmp	 edx, 3
  02555	7e 05		 jle	 SHORT $LN13@BuyItemEx
$LN12@BuyItemEx:

; 923  : 		{
; 924  : 			continue;

  02557	e9 c2 fe ff ff	 jmp	 $LN19@BuyItemEx
$LN13@BuyItemEx:

; 925  : 		}
; 926  : 		// ----
; 927  : 
; 928  : 		if(this->ShopEx[i].PayType == ePriceZen)

  0255c	8b 85 f0 fe ff
	ff		 mov	 eax, DWORD PTR _i$232176[ebp]
  02562	6b c0 0c	 imul	 eax, 12			; 0000000cH
  02565	8b 4d f8	 mov	 ecx, DWORD PTR _this$[ebp]
  02568	0f b6 94 01 01
	6a 00 00	 movzx	 edx, BYTE PTR [ecx+eax+27137]
  02570	83 fa 01	 cmp	 edx, 1
  02573	0f 85 c5 00 00
	00		 jne	 $LN11@BuyItemEx

; 929  : 		{
; 930  : 			if(this->ShopEx[i].PayPrice > lpUser->Money)

  02579	8b 85 f0 fe ff
	ff		 mov	 eax, DWORD PTR _i$232176[ebp]
  0257f	6b c0 0c	 imul	 eax, 12			; 0000000cH
  02582	8b 4d f8	 mov	 ecx, DWORD PTR _this$[ebp]
  02585	8b 95 f4 fe ff
	ff		 mov	 edx, DWORD PTR _lpUser$[ebp]
  0258b	8b 84 01 04 6a
	00 00		 mov	 eax, DWORD PTR [ecx+eax+27140]
  02592	3b 82 f0 00 00
	00		 cmp	 eax, DWORD PTR [edx+240]
  02598	76 54		 jbe	 SHORT $LN10@BuyItemEx

; 931  : 			{
; 932  : 				sprintf_s(szBuff,g_ExText.GetText(234),this->ShopEx[i].PayPrice);

  0259a	8b 85 f0 fe ff
	ff		 mov	 eax, DWORD PTR _i$232176[ebp]
  025a0	6b c0 0c	 imul	 eax, 12			; 0000000cH
  025a3	8b 4d f8	 mov	 ecx, DWORD PTR _this$[ebp]
  025a6	8b 94 01 04 6a
	00 00		 mov	 edx, DWORD PTR [ecx+eax+27140]
  025ad	52		 push	 edx
  025ae	68 ea 00 00 00	 push	 234			; 000000eaH
  025b3	b9 00 00 00 00	 mov	 ecx, OFFSET ?g_ExText@@3VCExText@@A ; g_ExText
  025b8	e8 00 00 00 00	 call	 ?GetText@CExText@@QAEPADH@Z ; CExText::GetText
  025bd	50		 push	 eax
  025be	8d 85 f8 fe ff
	ff		 lea	 eax, DWORD PTR _szBuff$[ebp]
  025c4	50		 push	 eax
  025c5	e8 00 00 00 00	 call	 ??$sprintf_s@$0BAA@@@YAHAAY0BAA@DPBDZZ ; sprintf_s<256>
  025ca	83 c4 0c	 add	 esp, 12			; 0000000cH

; 933  : 				GCServerMsgStringSend(szBuff, lpUser->m_Index, 1);

  025cd	6a 01		 push	 1
  025cf	8b 85 f4 fe ff
	ff		 mov	 eax, DWORD PTR _lpUser$[ebp]
  025d5	8b 08		 mov	 ecx, DWORD PTR [eax]
  025d7	51		 push	 ecx
  025d8	8d 95 f8 fe ff
	ff		 lea	 edx, DWORD PTR _szBuff$[ebp]
  025de	52		 push	 edx
  025df	e8 00 00 00 00	 call	 ?GCServerMsgStringSend@@YAXPADHE@Z ; GCServerMsgStringSend
  025e4	83 c4 0c	 add	 esp, 12			; 0000000cH

; 934  : 				return false;

  025e7	32 c0		 xor	 al, al
  025e9	e9 49 04 00 00	 jmp	 $LN23@BuyItemEx
$LN10@BuyItemEx:

; 935  : 			}
; 936  : 			lpUser->Money -= this->ShopEx[i].PayPrice;

  025ee	8b 85 f0 fe ff
	ff		 mov	 eax, DWORD PTR _i$232176[ebp]
  025f4	6b c0 0c	 imul	 eax, 12			; 0000000cH
  025f7	8b 8d f4 fe ff
	ff		 mov	 ecx, DWORD PTR _lpUser$[ebp]
  025fd	8b 55 f8	 mov	 edx, DWORD PTR _this$[ebp]
  02600	8b 89 f0 00 00
	00		 mov	 ecx, DWORD PTR [ecx+240]
  02606	2b 8c 02 04 6a
	00 00		 sub	 ecx, DWORD PTR [edx+eax+27140]
  0260d	8b 95 f4 fe ff
	ff		 mov	 edx, DWORD PTR _lpUser$[ebp]
  02613	89 8a f0 00 00
	00		 mov	 DWORD PTR [edx+240], ecx

; 937  : 			GCMoneySend(aIndex, lpUser->Money);

  02619	8b 85 f4 fe ff
	ff		 mov	 eax, DWORD PTR _lpUser$[ebp]
  0261f	8b 88 f0 00 00
	00		 mov	 ecx, DWORD PTR [eax+240]
  02625	51		 push	 ecx
  02626	8b 55 08	 mov	 edx, DWORD PTR _aIndex$[ebp]
  02629	52		 push	 edx
  0262a	e8 00 00 00 00	 call	 ?GCMoneySend@@YAXHK@Z	; GCMoneySend
  0262f	83 c4 08	 add	 esp, 8

; 938  : 			return true;

  02632	b0 01		 mov	 al, 1
  02634	e9 fe 03 00 00	 jmp	 $LN23@BuyItemEx
  02639	e9 f2 03 00 00	 jmp	 $LN2@BuyItemEx
$LN11@BuyItemEx:

; 939  : 		}
; 940  : 		else if(this->ShopEx[i].PayType == ePriceBonus)

  0263e	8b 85 f0 fe ff
	ff		 mov	 eax, DWORD PTR _i$232176[ebp]
  02644	6b c0 0c	 imul	 eax, 12			; 0000000cH
  02647	8b 4d f8	 mov	 ecx, DWORD PTR _this$[ebp]
  0264a	0f b6 94 01 01
	6a 00 00	 movzx	 edx, BYTE PTR [ecx+eax+27137]
  02652	83 fa 02	 cmp	 edx, 2
  02655	0f 85 42 01 00
	00		 jne	 $LN8@BuyItemEx

; 941  : 		{
; 942  : 			if(this->ShopEx[i].PayPrice > lpUser->GameShop.WCoinC)

  0265b	8b 85 f0 fe ff
	ff		 mov	 eax, DWORD PTR _i$232176[ebp]
  02661	6b c0 0c	 imul	 eax, 12			; 0000000cH
  02664	8b 4d f8	 mov	 ecx, DWORD PTR _this$[ebp]
  02667	8b 94 01 04 6a
	00 00		 mov	 edx, DWORD PTR [ecx+eax+27140]
  0266e	89 95 a8 fe ff
	ff		 mov	 DWORD PTR tv427[ebp], edx
  02674	c7 85 ac fe ff
	ff 00 00 00 00	 mov	 DWORD PTR tv427[ebp+4], 0
  0267e	df ad a8 fe ff
	ff		 fild	 QWORD PTR tv427[ebp]
  02684	8b 85 f4 fe ff
	ff		 mov	 eax, DWORD PTR _lpUser$[ebp]
  0268a	dc 98 00 23 00
	00		 fcomp	 QWORD PTR [eax+8960]
  02690	df e0		 fnstsw	 ax
  02692	f6 c4 41	 test	 ah, 65			; 00000041H
  02695	75 54		 jne	 SHORT $LN7@BuyItemEx

; 943  : 			{
; 944  : 				sprintf_s(szBuff,g_ExText.GetText(235),this->ShopEx[i].PayPrice);

  02697	8b 85 f0 fe ff
	ff		 mov	 eax, DWORD PTR _i$232176[ebp]
  0269d	6b c0 0c	 imul	 eax, 12			; 0000000cH
  026a0	8b 4d f8	 mov	 ecx, DWORD PTR _this$[ebp]
  026a3	8b 94 01 04 6a
	00 00		 mov	 edx, DWORD PTR [ecx+eax+27140]
  026aa	52		 push	 edx
  026ab	68 eb 00 00 00	 push	 235			; 000000ebH
  026b0	b9 00 00 00 00	 mov	 ecx, OFFSET ?g_ExText@@3VCExText@@A ; g_ExText
  026b5	e8 00 00 00 00	 call	 ?GetText@CExText@@QAEPADH@Z ; CExText::GetText
  026ba	50		 push	 eax
  026bb	8d 85 f8 fe ff
	ff		 lea	 eax, DWORD PTR _szBuff$[ebp]
  026c1	50		 push	 eax
  026c2	e8 00 00 00 00	 call	 ??$sprintf_s@$0BAA@@@YAHAAY0BAA@DPBDZZ ; sprintf_s<256>
  026c7	83 c4 0c	 add	 esp, 12			; 0000000cH

; 945  : 				GCServerMsgStringSend(szBuff, lpUser->m_Index, 1);

  026ca	6a 01		 push	 1
  026cc	8b 85 f4 fe ff
	ff		 mov	 eax, DWORD PTR _lpUser$[ebp]
  026d2	8b 08		 mov	 ecx, DWORD PTR [eax]
  026d4	51		 push	 ecx
  026d5	8d 95 f8 fe ff
	ff		 lea	 edx, DWORD PTR _szBuff$[ebp]
  026db	52		 push	 edx
  026dc	e8 00 00 00 00	 call	 ?GCServerMsgStringSend@@YAXPADHE@Z ; GCServerMsgStringSend
  026e1	83 c4 0c	 add	 esp, 12			; 0000000cH

; 946  : 				return false;

  026e4	32 c0		 xor	 al, al
  026e6	e9 4c 03 00 00	 jmp	 $LN23@BuyItemEx
$LN7@BuyItemEx:

; 947  : 			}
; 948  : 			lpUser->GameShop.WCoinC -= this->ShopEx[i].PayPrice;

  026eb	8b 85 f0 fe ff
	ff		 mov	 eax, DWORD PTR _i$232176[ebp]
  026f1	6b c0 0c	 imul	 eax, 12			; 0000000cH
  026f4	8b 4d f8	 mov	 ecx, DWORD PTR _this$[ebp]
  026f7	8b 94 01 04 6a
	00 00		 mov	 edx, DWORD PTR [ecx+eax+27140]
  026fe	89 95 a8 fe ff
	ff		 mov	 DWORD PTR tv446[ebp], edx
  02704	c7 85 ac fe ff
	ff 00 00 00 00	 mov	 DWORD PTR tv446[ebp+4], 0
  0270e	df ad a8 fe ff
	ff		 fild	 QWORD PTR tv446[ebp]
  02714	8b 85 f4 fe ff
	ff		 mov	 eax, DWORD PTR _lpUser$[ebp]
  0271a	dc a8 00 23 00
	00		 fsubr	 QWORD PTR [eax+8960]
  02720	8b 8d f4 fe ff
	ff		 mov	 ecx, DWORD PTR _lpUser$[ebp]
  02726	dd 99 00 23 00
	00		 fstp	 QWORD PTR [ecx+8960]

; 949  : 			sprintf_s(szBuff,g_ExText.GetText(236),(int)lpUser->GameShop.WCoinC);

  0272c	8b 85 f4 fe ff
	ff		 mov	 eax, DWORD PTR _lpUser$[ebp]
  02732	dd 80 00 23 00
	00		 fld	 QWORD PTR [eax+8960]
  02738	e8 00 00 00 00	 call	 __ftol2_sse
  0273d	50		 push	 eax
  0273e	68 ec 00 00 00	 push	 236			; 000000ecH
  02743	b9 00 00 00 00	 mov	 ecx, OFFSET ?g_ExText@@3VCExText@@A ; g_ExText
  02748	e8 00 00 00 00	 call	 ?GetText@CExText@@QAEPADH@Z ; CExText::GetText
  0274d	50		 push	 eax
  0274e	8d 8d f8 fe ff
	ff		 lea	 ecx, DWORD PTR _szBuff$[ebp]
  02754	51		 push	 ecx
  02755	e8 00 00 00 00	 call	 ??$sprintf_s@$0BAA@@@YAHAAY0BAA@DPBDZZ ; sprintf_s<256>
  0275a	83 c4 0c	 add	 esp, 12			; 0000000cH

; 950  : 			GCServerMsgStringSend(szBuff, lpUser->m_Index, 1);

  0275d	6a 01		 push	 1
  0275f	8b 85 f4 fe ff
	ff		 mov	 eax, DWORD PTR _lpUser$[ebp]
  02765	8b 08		 mov	 ecx, DWORD PTR [eax]
  02767	51		 push	 ecx
  02768	8d 95 f8 fe ff
	ff		 lea	 edx, DWORD PTR _szBuff$[ebp]
  0276e	52		 push	 edx
  0276f	e8 00 00 00 00	 call	 ?GCServerMsgStringSend@@YAXPADHE@Z ; GCServerMsgStringSend
  02774	83 c4 0c	 add	 esp, 12			; 0000000cH

; 951  : 			gGameShop.GDSaveUserInfo(aIndex);

  02777	8b 45 08	 mov	 eax, DWORD PTR _aIndex$[ebp]
  0277a	50		 push	 eax
  0277b	b9 00 00 00 00	 mov	 ecx, OFFSET ?gGameShop@@3VGameShop@@A ; gGameShop
  02780	e8 00 00 00 00	 call	 ?GDSaveUserInfo@GameShop@@QAEXH@Z ; GameShop::GDSaveUserInfo

; 952  : 			ExUserDataSend(aIndex);

  02785	8b 45 08	 mov	 eax, DWORD PTR _aIndex$[ebp]
  02788	50		 push	 eax
  02789	e8 00 00 00 00	 call	 ?ExUserDataSend@@YAXH@Z	; ExUserDataSend
  0278e	83 c4 04	 add	 esp, 4

; 953  : #if(CREDIT_DONATE_LOG==TRUE)
; 954  : 			int iType = ITEMGET(this->ShopEx[i].ItemType, this->ShopEx[i].ItemIndex);
; 955  : 
; 956  : 			g_BonusShopLog.Output("[%s] [%s] Buy: Item(Name:%s,Type:%d,Index:%d,Level:%d,Luck:%d,Add:%d,Exl:%d,Anc:%d)",
; 957  : 				lpUser->AccountID, lpUser->Name, 
; 958  : 				ItemAttribute[iType].Name, this->ShopEx[i].ItemType, this->ShopEx[i].ItemIndex, 
; 959  : 				this->ShopEx[i].ItemLevel, this->m_item->m_Option2, this->m_item->m_Option3, this->m_item->m_NewOption, this->m_item->m_SetOption);
; 960  : #endif
; 961  : 			return true;

  02791	b0 01		 mov	 al, 1
  02793	e9 9f 02 00 00	 jmp	 $LN23@BuyItemEx
  02798	e9 93 02 00 00	 jmp	 $LN2@BuyItemEx
$LN8@BuyItemEx:

; 962  : 		}
; 963  : 		else if(this->ShopEx[i].PayType == ePriceCredit)

  0279d	8b 85 f0 fe ff
	ff		 mov	 eax, DWORD PTR _i$232176[ebp]
  027a3	6b c0 0c	 imul	 eax, 12			; 0000000cH
  027a6	8b 4d f8	 mov	 ecx, DWORD PTR _this$[ebp]
  027a9	0f b6 94 01 01
	6a 00 00	 movzx	 edx, BYTE PTR [ecx+eax+27137]
  027b1	83 fa 03	 cmp	 edx, 3
  027b4	0f 85 76 02 00
	00		 jne	 $LN2@BuyItemEx

; 964  : 		{
; 965  : 			if(g_ExLicense.CheckUser(eExUB::NSGames))

  027ba	6a 51		 push	 81			; 00000051H
  027bc	b9 00 00 00 00	 mov	 ecx, OFFSET ?g_ExLicense@@3VCExLicense@@A ; g_ExLicense
  027c1	e8 00 00 00 00	 call	 ?CheckUser@CExLicense@@QAE_NH@Z ; CExLicense::CheckUser
  027c6	0f b6 c0	 movzx	 eax, al
  027c9	85 c0		 test	 eax, eax
  027cb	0f 84 0f 01 00
	00		 je	 $LN4@BuyItemEx

; 966  : 			{
; 967  : 				if(this->ShopEx[i].PayPrice > lpUser->PCPoint)

  027d1	8b 85 f0 fe ff
	ff		 mov	 eax, DWORD PTR _i$232176[ebp]
  027d7	6b c0 0c	 imul	 eax, 12			; 0000000cH
  027da	8b 4d f8	 mov	 ecx, DWORD PTR _this$[ebp]
  027dd	8b 95 f4 fe ff
	ff		 mov	 edx, DWORD PTR _lpUser$[ebp]
  027e3	8b 84 01 04 6a
	00 00		 mov	 eax, DWORD PTR [ecx+eax+27140]
  027ea	3b 82 88 22 00
	00		 cmp	 eax, DWORD PTR [edx+8840]
  027f0	76 49		 jbe	 SHORT $LN3@BuyItemEx

; 968  : 				{
; 969  : 					sprintf_s(szBuff, "[Buy] Need %d NSPoint", this->ShopEx[i].PayPrice);

  027f2	8b 85 f0 fe ff
	ff		 mov	 eax, DWORD PTR _i$232176[ebp]
  027f8	6b c0 0c	 imul	 eax, 12			; 0000000cH
  027fb	8b 4d f8	 mov	 ecx, DWORD PTR _this$[ebp]
  027fe	8b 94 01 04 6a
	00 00		 mov	 edx, DWORD PTR [ecx+eax+27140]
  02805	52		 push	 edx
  02806	68 00 00 00 00	 push	 OFFSET ??_C@_0BG@NFBGNLEO@?$FLBuy?$FN?5Need?5?$CFd?5NSPoint?$AA@
  0280b	8d 85 f8 fe ff
	ff		 lea	 eax, DWORD PTR _szBuff$[ebp]
  02811	50		 push	 eax
  02812	e8 00 00 00 00	 call	 ??$sprintf_s@$0BAA@@@YAHAAY0BAA@DPBDZZ ; sprintf_s<256>
  02817	83 c4 0c	 add	 esp, 12			; 0000000cH

; 970  : 					GCServerMsgStringSend(szBuff, lpUser->m_Index, 1);

  0281a	6a 01		 push	 1
  0281c	8b 85 f4 fe ff
	ff		 mov	 eax, DWORD PTR _lpUser$[ebp]
  02822	8b 08		 mov	 ecx, DWORD PTR [eax]
  02824	51		 push	 ecx
  02825	8d 95 f8 fe ff
	ff		 lea	 edx, DWORD PTR _szBuff$[ebp]
  0282b	52		 push	 edx
  0282c	e8 00 00 00 00	 call	 ?GCServerMsgStringSend@@YAXPADHE@Z ; GCServerMsgStringSend
  02831	83 c4 0c	 add	 esp, 12			; 0000000cH

; 971  : 					return false;

  02834	32 c0		 xor	 al, al
  02836	e9 fc 01 00 00	 jmp	 $LN23@BuyItemEx
$LN3@BuyItemEx:

; 972  : 				}
; 973  : 				lpUser->PCPoint -= this->ShopEx[i].PayPrice;

  0283b	8b 85 f0 fe ff
	ff		 mov	 eax, DWORD PTR _i$232176[ebp]
  02841	6b c0 0c	 imul	 eax, 12			; 0000000cH
  02844	8b 8d f4 fe ff
	ff		 mov	 ecx, DWORD PTR _lpUser$[ebp]
  0284a	8b 55 f8	 mov	 edx, DWORD PTR _this$[ebp]
  0284d	8b 89 88 22 00
	00		 mov	 ecx, DWORD PTR [ecx+8840]
  02853	2b 8c 02 04 6a
	00 00		 sub	 ecx, DWORD PTR [edx+eax+27140]
  0285a	8b 95 f4 fe ff
	ff		 mov	 edx, DWORD PTR _lpUser$[ebp]
  02860	89 8a 88 22 00
	00		 mov	 DWORD PTR [edx+8840], ecx

; 974  : 
; 975  : 				#if(SYSTEM_ACHIEVEMENTS)
; 976  : 				g_Achievements.BuyDonateShopItem(aIndex, this->ShopEx[i].PayPrice);

  02866	8b 85 f0 fe ff
	ff		 mov	 eax, DWORD PTR _i$232176[ebp]
  0286c	6b c0 0c	 imul	 eax, 12			; 0000000cH
  0286f	8b 4d f8	 mov	 ecx, DWORD PTR _this$[ebp]
  02872	8b 94 01 04 6a
	00 00		 mov	 edx, DWORD PTR [ecx+eax+27140]
  02879	52		 push	 edx
  0287a	8b 45 08	 mov	 eax, DWORD PTR _aIndex$[ebp]
  0287d	50		 push	 eax
  0287e	b9 00 00 00 00	 mov	 ecx, OFFSET ?g_Achievements@@3VCAchievements@@A ; g_Achievements
  02883	e8 00 00 00 00	 call	 ?BuyDonateShopItem@CAchievements@@QAEXHH@Z ; CAchievements::BuyDonateShopItem

; 977  : 				#endif
; 978  : 
; 979  : 				//GJSetCharacterInfo(lpUser, lpUser->m_Index, 0, FALSE, FALSE, FALSE, FALSE);
; 980  : 
; 981  : 				sprintf_s(szBuff,"[Buy] %d NSPoint",(int)lpUser->ExCred);

  02888	8b 85 f4 fe ff
	ff		 mov	 eax, DWORD PTR _lpUser$[ebp]
  0288e	d9 80 a8 22 00
	00		 fld	 DWORD PTR [eax+8872]
  02894	e8 00 00 00 00	 call	 __ftol2_sse
  02899	50		 push	 eax
  0289a	68 00 00 00 00	 push	 OFFSET ??_C@_0BB@JMOCLNGO@?$FLBuy?$FN?5?$CFd?5NSPoint?$AA@
  0289f	8d 8d f8 fe ff
	ff		 lea	 ecx, DWORD PTR _szBuff$[ebp]
  028a5	51		 push	 ecx
  028a6	e8 00 00 00 00	 call	 ??$sprintf_s@$0BAA@@@YAHAAY0BAA@DPBDZZ ; sprintf_s<256>
  028ab	83 c4 0c	 add	 esp, 12			; 0000000cH

; 982  : 				GCServerMsgStringSend(szBuff, lpUser->m_Index, 1);

  028ae	6a 01		 push	 1
  028b0	8b 85 f4 fe ff
	ff		 mov	 eax, DWORD PTR _lpUser$[ebp]
  028b6	8b 08		 mov	 ecx, DWORD PTR [eax]
  028b8	51		 push	 ecx
  028b9	8d 95 f8 fe ff
	ff		 lea	 edx, DWORD PTR _szBuff$[ebp]
  028bf	52		 push	 edx
  028c0	e8 00 00 00 00	 call	 ?GCServerMsgStringSend@@YAXPADHE@Z ; GCServerMsgStringSend
  028c5	83 c4 0c	 add	 esp, 12			; 0000000cH

; 983  : 				ExUserDataSend(aIndex);

  028c8	8b 45 08	 mov	 eax, DWORD PTR _aIndex$[ebp]
  028cb	50		 push	 eax
  028cc	e8 00 00 00 00	 call	 ?ExUserDataSend@@YAXH@Z	; ExUserDataSend
  028d1	83 c4 04	 add	 esp, 4

; 984  : 				#if(CREDIT_DONATE_LOG==TRUE)
; 985  : 				int iType = ITEMGET(this->ShopEx[i].ItemType, this->ShopEx[i].ItemIndex);
; 986  : 
; 987  : 				g_CreditShopLog.Output("[%s] [%s] Buy: Item(Name:%s,Type:%d,Index:%d,Level:%d,Luck:%d,Add:%d,Exl:%d,Anc:%d) Price: %d",
; 988  : 					lpUser->AccountID, lpUser->Name, 
; 989  : 					ItemAttribute[iType].Name, this->ShopEx[i].ItemType, this->ShopEx[i].ItemIndex, 
; 990  : 					this->ShopEx[i].ItemLevel, this->m_item->m_Option2, this->m_item->m_Option3, this->m_item->m_NewOption, this->m_item->m_SetOption,
; 991  : 					this->ShopEx[i].PayPrice);
; 992  : 				#endif
; 993  : 				return true;

  028d4	b0 01		 mov	 al, 1
  028d6	e9 5c 01 00 00	 jmp	 $LN23@BuyItemEx

; 994  : 			}
; 995  : 			else

  028db	e9 50 01 00 00	 jmp	 $LN2@BuyItemEx
$LN4@BuyItemEx:

; 996  : 			{
; 997  : 				if(this->ShopEx[i].PayPrice > lpUser->ExCred)

  028e0	8b 85 f0 fe ff
	ff		 mov	 eax, DWORD PTR _i$232176[ebp]
  028e6	6b c0 0c	 imul	 eax, 12			; 0000000cH
  028e9	8b 4d f8	 mov	 ecx, DWORD PTR _this$[ebp]
  028ec	8b 94 01 04 6a
	00 00		 mov	 edx, DWORD PTR [ecx+eax+27140]
  028f3	89 95 a8 fe ff
	ff		 mov	 DWORD PTR tv504[ebp], edx
  028f9	c7 85 ac fe ff
	ff 00 00 00 00	 mov	 DWORD PTR tv504[ebp+4], 0
  02903	df ad a8 fe ff
	ff		 fild	 QWORD PTR tv504[ebp]
  02909	8b 85 f4 fe ff
	ff		 mov	 eax, DWORD PTR _lpUser$[ebp]
  0290f	d9 80 a8 22 00
	00		 fld	 DWORD PTR [eax+8872]
  02915	de d9		 fcompp
  02917	df e0		 fnstsw	 ax
  02919	f6 c4 05	 test	 ah, 5
  0291c	7a 54		 jp	 SHORT $LN1@BuyItemEx

; 998  : 				{
; 999  : 					sprintf_s(szBuff,g_ExText.GetText(237),this->ShopEx[i].PayPrice);

  0291e	8b 85 f0 fe ff
	ff		 mov	 eax, DWORD PTR _i$232176[ebp]
  02924	6b c0 0c	 imul	 eax, 12			; 0000000cH
  02927	8b 4d f8	 mov	 ecx, DWORD PTR _this$[ebp]
  0292a	8b 94 01 04 6a
	00 00		 mov	 edx, DWORD PTR [ecx+eax+27140]
  02931	52		 push	 edx
  02932	68 ed 00 00 00	 push	 237			; 000000edH
  02937	b9 00 00 00 00	 mov	 ecx, OFFSET ?g_ExText@@3VCExText@@A ; g_ExText
  0293c	e8 00 00 00 00	 call	 ?GetText@CExText@@QAEPADH@Z ; CExText::GetText
  02941	50		 push	 eax
  02942	8d 85 f8 fe ff
	ff		 lea	 eax, DWORD PTR _szBuff$[ebp]
  02948	50		 push	 eax
  02949	e8 00 00 00 00	 call	 ??$sprintf_s@$0BAA@@@YAHAAY0BAA@DPBDZZ ; sprintf_s<256>
  0294e	83 c4 0c	 add	 esp, 12			; 0000000cH

; 1000 : 					GCServerMsgStringSend(szBuff, lpUser->m_Index, 1);

  02951	6a 01		 push	 1
  02953	8b 85 f4 fe ff
	ff		 mov	 eax, DWORD PTR _lpUser$[ebp]
  02959	8b 08		 mov	 ecx, DWORD PTR [eax]
  0295b	51		 push	 ecx
  0295c	8d 95 f8 fe ff
	ff		 lea	 edx, DWORD PTR _szBuff$[ebp]
  02962	52		 push	 edx
  02963	e8 00 00 00 00	 call	 ?GCServerMsgStringSend@@YAXPADHE@Z ; GCServerMsgStringSend
  02968	83 c4 0c	 add	 esp, 12			; 0000000cH

; 1001 : 					return false;

  0296b	32 c0		 xor	 al, al
  0296d	e9 c5 00 00 00	 jmp	 $LN23@BuyItemEx
$LN1@BuyItemEx:

; 1002 : 				}
; 1003 : 				lpUser->ExCred -= this->ShopEx[i].PayPrice;

  02972	8b 85 f0 fe ff
	ff		 mov	 eax, DWORD PTR _i$232176[ebp]
  02978	6b c0 0c	 imul	 eax, 12			; 0000000cH
  0297b	8b 4d f8	 mov	 ecx, DWORD PTR _this$[ebp]
  0297e	8b 94 01 04 6a
	00 00		 mov	 edx, DWORD PTR [ecx+eax+27140]
  02985	89 95 a8 fe ff
	ff		 mov	 DWORD PTR tv524[ebp], edx
  0298b	c7 85 ac fe ff
	ff 00 00 00 00	 mov	 DWORD PTR tv524[ebp+4], 0
  02995	df ad a8 fe ff
	ff		 fild	 QWORD PTR tv524[ebp]
  0299b	8b 85 f4 fe ff
	ff		 mov	 eax, DWORD PTR _lpUser$[ebp]
  029a1	d8 a8 a8 22 00
	00		 fsubr	 DWORD PTR [eax+8872]
  029a7	8b 8d f4 fe ff
	ff		 mov	 ecx, DWORD PTR _lpUser$[ebp]
  029ad	d9 99 a8 22 00
	00		 fstp	 DWORD PTR [ecx+8872]

; 1004 : 
; 1005 : 				#if(SYSTEM_ACHIEVEMENTS)
; 1006 : 				g_Achievements.BuyDonateShopItem(aIndex, this->ShopEx[i].PayPrice);

  029b3	8b 85 f0 fe ff
	ff		 mov	 eax, DWORD PTR _i$232176[ebp]
  029b9	6b c0 0c	 imul	 eax, 12			; 0000000cH
  029bc	8b 4d f8	 mov	 ecx, DWORD PTR _this$[ebp]
  029bf	8b 94 01 04 6a
	00 00		 mov	 edx, DWORD PTR [ecx+eax+27140]
  029c6	52		 push	 edx
  029c7	8b 45 08	 mov	 eax, DWORD PTR _aIndex$[ebp]
  029ca	50		 push	 eax
  029cb	b9 00 00 00 00	 mov	 ecx, OFFSET ?g_Achievements@@3VCAchievements@@A ; g_Achievements
  029d0	e8 00 00 00 00	 call	 ?BuyDonateShopItem@CAchievements@@QAEXHH@Z ; CAchievements::BuyDonateShopItem

; 1007 : 				#endif
; 1008 : 
; 1009 : 				//GJSetCharacterInfo(lpUser, lpUser->m_Index, 0, FALSE, FALSE, FALSE, FALSE);
; 1010 : 
; 1011 : 				sprintf_s(szBuff,g_ExText.GetText(238),(int)lpUser->ExCred);

  029d5	8b 85 f4 fe ff
	ff		 mov	 eax, DWORD PTR _lpUser$[ebp]
  029db	d9 80 a8 22 00
	00		 fld	 DWORD PTR [eax+8872]
  029e1	e8 00 00 00 00	 call	 __ftol2_sse
  029e6	50		 push	 eax
  029e7	68 ee 00 00 00	 push	 238			; 000000eeH
  029ec	b9 00 00 00 00	 mov	 ecx, OFFSET ?g_ExText@@3VCExText@@A ; g_ExText
  029f1	e8 00 00 00 00	 call	 ?GetText@CExText@@QAEPADH@Z ; CExText::GetText
  029f6	50		 push	 eax
  029f7	8d 8d f8 fe ff
	ff		 lea	 ecx, DWORD PTR _szBuff$[ebp]
  029fd	51		 push	 ecx
  029fe	e8 00 00 00 00	 call	 ??$sprintf_s@$0BAA@@@YAHAAY0BAA@DPBDZZ ; sprintf_s<256>
  02a03	83 c4 0c	 add	 esp, 12			; 0000000cH

; 1012 : 				GCServerMsgStringSend(szBuff, lpUser->m_Index, 1);

  02a06	6a 01		 push	 1
  02a08	8b 85 f4 fe ff
	ff		 mov	 eax, DWORD PTR _lpUser$[ebp]
  02a0e	8b 08		 mov	 ecx, DWORD PTR [eax]
  02a10	51		 push	 ecx
  02a11	8d 95 f8 fe ff
	ff		 lea	 edx, DWORD PTR _szBuff$[ebp]
  02a17	52		 push	 edx
  02a18	e8 00 00 00 00	 call	 ?GCServerMsgStringSend@@YAXPADHE@Z ; GCServerMsgStringSend
  02a1d	83 c4 0c	 add	 esp, 12			; 0000000cH

; 1013 : 				ExUserDataSend(aIndex);

  02a20	8b 45 08	 mov	 eax, DWORD PTR _aIndex$[ebp]
  02a23	50		 push	 eax
  02a24	e8 00 00 00 00	 call	 ?ExUserDataSend@@YAXH@Z	; ExUserDataSend
  02a29	83 c4 04	 add	 esp, 4

; 1014 : 				#if(CREDIT_DONATE_LOG==TRUE)
; 1015 : 				int iType = ITEMGET(this->ShopEx[i].ItemType, this->ShopEx[i].ItemIndex);
; 1016 : 
; 1017 : 				g_CreditShopLog.Output("[%s] [%s] Buy: Item(Name:%s,Type:%d,Index:%d,Level:%d,Luck:%d,Add:%d,Exl:%d,Anc:%d) Price: %d",
; 1018 : 					lpUser->AccountID, lpUser->Name, 
; 1019 : 					ItemAttribute[iType].Name, this->ShopEx[i].ItemType, this->ShopEx[i].ItemIndex, 
; 1020 : 					this->ShopEx[i].ItemLevel, this->m_item->m_Option2, this->m_item->m_Option3, this->m_item->m_NewOption, this->m_item->m_SetOption,
; 1021 : 					this->ShopEx[i].PayPrice);
; 1022 : 				#endif
; 1023 : 				return true;

  02a2c	b0 01		 mov	 al, 1
  02a2e	eb 07		 jmp	 SHORT $LN23@BuyItemEx
$LN2@BuyItemEx:

; 1024 : 			}
; 1025 : 		}
; 1026 : 	}

  02a30	e9 e9 f9 ff ff	 jmp	 $LN19@BuyItemEx
$LN18@BuyItemEx:

; 1027 : 
; 1028 : 	return false;

  02a35	32 c0		 xor	 al, al
$LN23@BuyItemEx:

; 1029 : }

  02a37	5f		 pop	 edi
  02a38	5e		 pop	 esi
  02a39	5b		 pop	 ebx
  02a3a	8b 4d fc	 mov	 ecx, DWORD PTR __$ArrayPad$[ebp]
  02a3d	33 cd		 xor	 ecx, ebp
  02a3f	e8 00 00 00 00	 call	 @__security_check_cookie@4
  02a44	8b e5		 mov	 esp, ebp
  02a46	5d		 pop	 ebp
  02a47	c2 08 00	 ret	 8
?BuyItemEx@CShop@@QAE_NHH@Z ENDP			; CShop::BuyItemEx
_TEXT	ENDS
PUBLIC	?set@PBMSG_HEAD2@@QAEXPAEEEE@Z			; PBMSG_HEAD2::set
PUBLIC	__$ArrayPad$
PUBLIC	?NewShopRecv@@YAXPAUCG_NEW_CASH_SHOP@@H@Z	; NewShopRecv
EXTRN	?GCAnsCsMapSvrTaxInfo@@YAXHEE@Z:PROC		; GCAnsCsMapSvrTaxInfo
EXTRN	?GetTaxRateStore@CCastleSiegeSync@@QAEHH@Z:PROC	; CCastleSiegeSync::GetTaxRateStore
EXTRN	?g_CastleSiegeSync@@3VCCastleSiegeSync@@A:BYTE	; g_CastleSiegeSync
EXTRN	?PHeadSetW@@YAXPAEEH@Z:PROC			; PHeadSetW
EXTRN	?InSafeZone@ExUser@@QAE_NH@Z:PROC		; ExUser::InSafeZone
EXTRN	?g_ExUser@@3VExUser@@A:BYTE			; g_ExUser
; Function compile flags: /Odtp /ZI
_TEXT	SEGMENT
tv67 = -1140						; size = 4
_pRequest$ = -1072					; size = 6
_size$ = -1064						; size = 4
_pShopItemCount$ = -1060				; size = 6
_lOfs$ = -1052						; size = 4
_SendByte$ = -1048					; size = 1024
_pResult$ = -24						; size = 11
_ShopNum$ = -12						; size = 4
_lpUser$ = -8						; size = 4
__$ArrayPad$ = -4					; size = 4
_Recv$ = 8						; size = 4
_aIndex$ = 12						; size = 4
?NewShopRecv@@YAXPAUCG_NEW_CASH_SHOP@@H@Z PROC		; NewShopRecv

; 1032 : {

  02a50	55		 push	 ebp
  02a51	8b ec		 mov	 ebp, esp
  02a53	81 ec 74 04 00
	00		 sub	 esp, 1140		; 00000474H
  02a59	a1 00 00 00 00	 mov	 eax, DWORD PTR ___security_cookie
  02a5e	33 c5		 xor	 eax, ebp
  02a60	89 45 fc	 mov	 DWORD PTR __$ArrayPad$[ebp], eax
  02a63	53		 push	 ebx
  02a64	56		 push	 esi
  02a65	57		 push	 edi

; 1033 : 	if(OBJMAX_RANGE(aIndex) == 0)

  02a66	83 7d 0c 00	 cmp	 DWORD PTR _aIndex$[ebp], 0
  02a6a	7d 0c		 jge	 SHORT $LN9@NewShopRec
  02a6c	c7 85 8c fb ff
	ff 00 00 00 00	 mov	 DWORD PTR tv67[ebp], 0
  02a76	eb 12		 jmp	 SHORT $LN10@NewShopRec
$LN9@NewShopRec:
  02a78	33 c0		 xor	 eax, eax
  02a7a	81 7d 0c 97 3a
	00 00		 cmp	 DWORD PTR _aIndex$[ebp], 14999 ; 00003a97H
  02a81	0f 9e c0	 setle	 al
  02a84	89 85 8c fb ff
	ff		 mov	 DWORD PTR tv67[ebp], eax
$LN10@NewShopRec:
  02a8a	83 bd 8c fb ff
	ff 00		 cmp	 DWORD PTR tv67[ebp], 0
  02a91	75 05		 jne	 SHORT $LN6@NewShopRec

; 1034 : 	{
; 1035 : 		return;

  02a93	e9 25 02 00 00	 jmp	 $LN7@NewShopRec
$LN6@NewShopRec:

; 1036 : 	}
; 1037 : 
; 1038 : 	LPOBJ lpUser = &gObj[aIndex];

  02a98	8b 45 0c	 mov	 eax, DWORD PTR _aIndex$[ebp]
  02a9b	69 c0 38 2b 00
	00		 imul	 eax, 11064		; 00002b38H
  02aa1	03 05 00 00 00
	00		 add	 eax, DWORD PTR ?gObj@@3PAUOBJECTSTRUCT@@A ; gObj
  02aa7	89 45 f8	 mov	 DWORD PTR _lpUser$[ebp], eax

; 1039 : 
; 1040 : 	if(lpUser->Connected < PLAYER_PLAYING)

  02aaa	8b 45 f8	 mov	 eax, DWORD PTR _lpUser$[ebp]
  02aad	83 78 04 03	 cmp	 DWORD PTR [eax+4], 3
  02ab1	7d 05		 jge	 SHORT $LN5@NewShopRec

; 1041 : 	{
; 1042 : 		return;

  02ab3	e9 05 02 00 00	 jmp	 $LN7@NewShopRec
$LN5@NewShopRec:

; 1043 : 	}
; 1044 : 
; 1045 : 	if(g_ExUser.InSafeZone(aIndex) == false)

  02ab8	8b 45 0c	 mov	 eax, DWORD PTR _aIndex$[ebp]
  02abb	50		 push	 eax
  02abc	b9 00 00 00 00	 mov	 ecx, OFFSET ?g_ExUser@@3VExUser@@A ; g_ExUser
  02ac1	e8 00 00 00 00	 call	 ?InSafeZone@ExUser@@QAE_NH@Z ; ExUser::InSafeZone
  02ac6	0f b6 c8	 movzx	 ecx, al
  02ac9	85 c9		 test	 ecx, ecx
  02acb	75 05		 jne	 SHORT $LN4@NewShopRec

; 1046 : 	{
; 1047 : 		return;

  02acd	e9 eb 01 00 00	 jmp	 $LN7@NewShopRec
$LN4@NewShopRec:

; 1048 : 	}
; 1049 : 
; 1050 : 	int ShopNum = Recv->Number;

  02ad2	8b 45 08	 mov	 eax, DWORD PTR _Recv$[ebp]
  02ad5	0f b7 48 04	 movzx	 ecx, WORD PTR [eax+4]
  02ad9	89 4d f4	 mov	 DWORD PTR _ShopNum$[ebp], ecx

; 1051 : 
; 1052 : 	if ( ShopNum < MAX_SHOP && ShopNum >= 0 )

  02adc	83 7d f4 2e	 cmp	 DWORD PTR _ShopNum$[ebp], 46 ; 0000002eH
  02ae0	7d 1f		 jge	 SHORT $LN3@NewShopRec
  02ae2	83 7d f4 00	 cmp	 DWORD PTR _ShopNum$[ebp], 0
  02ae6	7c 19		 jl	 SHORT $LN3@NewShopRec

; 1053 : 	{
; 1054 : 		if ( ShopC[ShopNum].ItemCount < TRUE )

  02ae8	8b 45 f4	 mov	 eax, DWORD PTR _ShopNum$[ebp]
  02aeb	69 c0 9c 6f 00
	00		 imul	 eax, 28572		; 00006f9cH
  02af1	83 b8 7c 00 00
	00 01		 cmp	 DWORD PTR ?ShopC@@3PAVCShop@@A[eax+124], 1
  02af8	7d 05		 jge	 SHORT $LN2@NewShopRec

; 1055 : 		{
; 1056 : 			return;

  02afa	e9 be 01 00 00	 jmp	 $LN7@NewShopRec
$LN2@NewShopRec:

; 1057 : 		}
; 1058 : 	}
; 1059 : 	else

  02aff	eb 05		 jmp	 SHORT $LN1@NewShopRec
$LN3@NewShopRec:

; 1060 : 	{
; 1061 : 		return;

  02b01	e9 b7 01 00 00	 jmp	 $LN7@NewShopRec
$LN1@NewShopRec:

; 1062 : 	}
; 1063 : 
; 1064 : 	lpUser->TargetShopNumber = ShopNum;

  02b06	8b 45 f8	 mov	 eax, DWORD PTR _lpUser$[ebp]
  02b09	66 8b 4d f4	 mov	 cx, WORD PTR _ShopNum$[ebp]
  02b0d	66 89 88 5a 04
	00 00		 mov	 WORD PTR [eax+1114], cx

; 1065 : 	lpUser->m_IfState.use = 1;

  02b14	8b 45 f8	 mov	 eax, DWORD PTR _lpUser$[ebp]
  02b17	8b 88 1c 0e 00
	00		 mov	 ecx, DWORD PTR [eax+3612]
  02b1d	83 e1 fc	 and	 ecx, -4			; fffffffcH
  02b20	83 c9 01	 or	 ecx, 1
  02b23	8b 55 f8	 mov	 edx, DWORD PTR _lpUser$[ebp]
  02b26	89 8a 1c 0e 00
	00		 mov	 DWORD PTR [edx+3612], ecx

; 1066 : 	lpUser->m_IfState.type = 3;

  02b2c	8b 45 f8	 mov	 eax, DWORD PTR _lpUser$[ebp]
  02b2f	8b 88 1c 0e 00
	00		 mov	 ecx, DWORD PTR [eax+3612]
  02b35	81 e1 3f 00 ff
	ff		 and	 ecx, -65473		; ffff003fH
  02b3b	81 c9 c0 00 00
	00		 or	 ecx, 192		; 000000c0H
  02b41	8b 55 f8	 mov	 edx, DWORD PTR _lpUser$[ebp]
  02b44	89 8a 1c 0e 00
	00		 mov	 DWORD PTR [edx+3612], ecx

; 1067 : 	lpUser->m_ShopTime = 0;

  02b4a	8b 45 f8	 mov	 eax, DWORD PTR _lpUser$[ebp]
  02b4d	c6 80 90 03 00
	00 00		 mov	 BYTE PTR [eax+912], 0

; 1068 : 
; 1069 : 	PMSG_TALKRESULT pResult;
; 1070 : 	pResult.h.c = 0xC3;

  02b54	c6 45 e8 c3	 mov	 BYTE PTR _pResult$[ebp], 195 ; 000000c3H

; 1071 : 	pResult.h.headcode = 0x30;

  02b58	c6 45 ea 30	 mov	 BYTE PTR _pResult$[ebp+2], 48 ; 00000030H

; 1072 : 	pResult.h.size = sizeof(pResult);

  02b5c	c6 45 e9 0b	 mov	 BYTE PTR _pResult$[ebp+1], 11 ; 0000000bH

; 1073 : 	pResult.result = 0;

  02b60	c6 45 eb 00	 mov	 BYTE PTR _pResult$[ebp+3], 0

; 1074 : 	DataSend(aIndex, (LPBYTE)&pResult, pResult.h.size);

  02b64	0f b6 45 e9	 movzx	 eax, BYTE PTR _pResult$[ebp+1]
  02b68	50		 push	 eax
  02b69	8d 4d e8	 lea	 ecx, DWORD PTR _pResult$[ebp]
  02b6c	51		 push	 ecx
  02b6d	8b 55 0c	 mov	 edx, DWORD PTR _aIndex$[ebp]
  02b70	52		 push	 edx
  02b71	e8 00 00 00 00	 call	 ?DataSend@@YAHHPAEK@Z	; DataSend
  02b76	83 c4 0c	 add	 esp, 12			; 0000000cH

; 1075 : 
; 1076 : 	BYTE SendByte[1024];
; 1077 : 	int lOfs = 0;

  02b79	c7 85 e4 fb ff
	ff 00 00 00 00	 mov	 DWORD PTR _lOfs$[ebp], 0

; 1078 : 
; 1079 : 	PMSG_SHOPITEMCOUNT pShopItemCount;
; 1080 : 
; 1081 : 	lOfs += sizeof(pShopItemCount );

  02b83	8b 85 e4 fb ff
	ff		 mov	 eax, DWORD PTR _lOfs$[ebp]
  02b89	83 c0 06	 add	 eax, 6
  02b8c	89 85 e4 fb ff
	ff		 mov	 DWORD PTR _lOfs$[ebp], eax

; 1082 : 
; 1083 : 	int size = lOfs + ShopC[ShopNum].SendItemDataLen;

  02b92	8b 45 f4	 mov	 eax, DWORD PTR _ShopNum$[ebp]
  02b95	69 c0 9c 6f 00
	00		 imul	 eax, 28572		; 00006f9cH
  02b9b	8b 8d e4 fb ff
	ff		 mov	 ecx, DWORD PTR _lOfs$[ebp]
  02ba1	03 88 f8 69 00
	00		 add	 ecx, DWORD PTR ?ShopC@@3PAVCShop@@A[eax+27128]
  02ba7	89 8d d8 fb ff
	ff		 mov	 DWORD PTR _size$[ebp], ecx

; 1084 : 	PHeadSetW((LPBYTE)&pShopItemCount, 0x31, size);

  02bad	8b 85 d8 fb ff
	ff		 mov	 eax, DWORD PTR _size$[ebp]
  02bb3	50		 push	 eax
  02bb4	6a 31		 push	 49			; 00000031H
  02bb6	8d 8d dc fb ff
	ff		 lea	 ecx, DWORD PTR _pShopItemCount$[ebp]
  02bbc	51		 push	 ecx
  02bbd	e8 00 00 00 00	 call	 ?PHeadSetW@@YAXPAEEH@Z	; PHeadSetW
  02bc2	83 c4 0c	 add	 esp, 12			; 0000000cH

; 1085 : 	pShopItemCount.Type = 0;

  02bc5	c6 85 e0 fb ff
	ff 00		 mov	 BYTE PTR _pShopItemCount$[ebp+4], 0

; 1086 : 	pShopItemCount.count = ShopC[ShopNum].ItemCount;

  02bcc	8b 45 f4	 mov	 eax, DWORD PTR _ShopNum$[ebp]
  02bcf	69 c0 9c 6f 00
	00		 imul	 eax, 28572		; 00006f9cH
  02bd5	8a 88 7c 00 00
	00		 mov	 cl, BYTE PTR ?ShopC@@3PAVCShop@@A[eax+124]
  02bdb	88 8d e1 fb ff
	ff		 mov	 BYTE PTR _pShopItemCount$[ebp+5], cl

; 1087 : 	memcpy(SendByte, &pShopItemCount, sizeof(pShopItemCount));

  02be1	6a 06		 push	 6
  02be3	8d 85 dc fb ff
	ff		 lea	 eax, DWORD PTR _pShopItemCount$[ebp]
  02be9	50		 push	 eax
  02bea	8d 8d e8 fb ff
	ff		 lea	 ecx, DWORD PTR _SendByte$[ebp]
  02bf0	51		 push	 ecx
  02bf1	e8 00 00 00 00	 call	 _memcpy
  02bf6	83 c4 0c	 add	 esp, 12			; 0000000cH

; 1088 : 	memcpy(&SendByte[lOfs], ShopC[ShopNum].SendItemData, ShopC[ShopNum].SendItemDataLen);

  02bf9	8b 45 f4	 mov	 eax, DWORD PTR _ShopNum$[ebp]
  02bfc	69 c0 9c 6f 00
	00		 imul	 eax, 28572		; 00006f9cH
  02c02	8b 88 f8 69 00
	00		 mov	 ecx, DWORD PTR ?ShopC@@3PAVCShop@@A[eax+27128]
  02c08	51		 push	 ecx
  02c09	8b 55 f4	 mov	 edx, DWORD PTR _ShopNum$[ebp]
  02c0c	69 d2 9c 6f 00
	00		 imul	 edx, 28572		; 00006f9cH
  02c12	81 c2 e0 63 00
	00		 add	 edx, OFFSET ?ShopC@@3PAVCShop@@A+25568
  02c18	52		 push	 edx
  02c19	8b 85 e4 fb ff
	ff		 mov	 eax, DWORD PTR _lOfs$[ebp]
  02c1f	8d 8c 05 e8 fb
	ff ff		 lea	 ecx, DWORD PTR _SendByte$[ebp+eax]
  02c26	51		 push	 ecx
  02c27	e8 00 00 00 00	 call	 _memcpy
  02c2c	83 c4 0c	 add	 esp, 12			; 0000000cH

; 1089 : 
; 1090 : 	DataSend(aIndex, SendByte, size);

  02c2f	8b 85 d8 fb ff
	ff		 mov	 eax, DWORD PTR _size$[ebp]
  02c35	50		 push	 eax
  02c36	8d 8d e8 fb ff
	ff		 lea	 ecx, DWORD PTR _SendByte$[ebp]
  02c3c	51		 push	 ecx
  02c3d	8b 55 0c	 mov	 edx, DWORD PTR _aIndex$[ebp]
  02c40	52		 push	 edx
  02c41	e8 00 00 00 00	 call	 ?DataSend@@YAHHPAEK@Z	; DataSend
  02c46	83 c4 0c	 add	 esp, 12			; 0000000cH

; 1091 : 	GCAnsCsMapSvrTaxInfo(lpUser->m_Index,2,  ::g_CastleSiegeSync.GetTaxRateStore(lpUser->m_Index));

  02c49	8b 45 f8	 mov	 eax, DWORD PTR _lpUser$[ebp]
  02c4c	8b 08		 mov	 ecx, DWORD PTR [eax]
  02c4e	51		 push	 ecx
  02c4f	b9 00 00 00 00	 mov	 ecx, OFFSET ?g_CastleSiegeSync@@3VCCastleSiegeSync@@A ; g_CastleSiegeSync
  02c54	e8 00 00 00 00	 call	 ?GetTaxRateStore@CCastleSiegeSync@@QAEHH@Z ; CCastleSiegeSync::GetTaxRateStore
  02c59	50		 push	 eax
  02c5a	6a 02		 push	 2
  02c5c	8b 55 f8	 mov	 edx, DWORD PTR _lpUser$[ebp]
  02c5f	8b 02		 mov	 eax, DWORD PTR [edx]
  02c61	50		 push	 eax
  02c62	e8 00 00 00 00	 call	 ?GCAnsCsMapSvrTaxInfo@@YAXHEE@Z ; GCAnsCsMapSvrTaxInfo
  02c67	83 c4 0c	 add	 esp, 12			; 0000000cH

; 1092 : 	
; 1093 : 	GC_SHOP_CLICK pRequest;
; 1094 : 	pRequest.h.set((LPBYTE)&pRequest, 0xFB, 0x06, sizeof(GC_SHOP_CLICK));	//need next

  02c6a	6a 06		 push	 6
  02c6c	6a 06		 push	 6
  02c6e	68 fb 00 00 00	 push	 251			; 000000fbH
  02c73	8d 85 d0 fb ff
	ff		 lea	 eax, DWORD PTR _pRequest$[ebp]
  02c79	50		 push	 eax
  02c7a	8d 8d d0 fb ff
	ff		 lea	 ecx, DWORD PTR _pRequest$[ebp]
  02c80	e8 00 00 00 00	 call	 ?set@PBMSG_HEAD2@@QAEXPAEEEE@Z ; PBMSG_HEAD2::set

; 1095 : 	// ----
; 1096 : 	pRequest.Shop_Num = ShopNum;

  02c85	66 8b 45 f4	 mov	 ax, WORD PTR _ShopNum$[ebp]
  02c89	66 89 85 d4 fb
	ff ff		 mov	 WORD PTR _pRequest$[ebp+4], ax

; 1097 : 	// ----
; 1098 : 	DataSend(aIndex, (LPBYTE)&pRequest, sizeof(pRequest));

  02c90	6a 06		 push	 6
  02c92	8d 85 d0 fb ff
	ff		 lea	 eax, DWORD PTR _pRequest$[ebp]
  02c98	50		 push	 eax
  02c99	8b 4d 0c	 mov	 ecx, DWORD PTR _aIndex$[ebp]
  02c9c	51		 push	 ecx
  02c9d	e8 00 00 00 00	 call	 ?DataSend@@YAHHPAEK@Z	; DataSend
  02ca2	83 c4 0c	 add	 esp, 12			; 0000000cH

; 1099 : 	                                       
; 1100 : 	ShopC[ShopNum].GC_ShopInfo(aIndex);

  02ca5	8b 45 0c	 mov	 eax, DWORD PTR _aIndex$[ebp]
  02ca8	50		 push	 eax
  02ca9	8b 4d f4	 mov	 ecx, DWORD PTR _ShopNum$[ebp]
  02cac	69 c9 9c 6f 00
	00		 imul	 ecx, 28572		; 00006f9cH
  02cb2	81 c1 00 00 00
	00		 add	 ecx, OFFSET ?ShopC@@3PAVCShop@@A ; ShopC
  02cb8	e8 00 00 00 00	 call	 ?GC_ShopInfo@CShop@@QAEXH@Z ; CShop::GC_ShopInfo
$LN7@NewShopRec:

; 1101 : }

  02cbd	5f		 pop	 edi
  02cbe	5e		 pop	 esi
  02cbf	5b		 pop	 ebx
  02cc0	8b 4d fc	 mov	 ecx, DWORD PTR __$ArrayPad$[ebp]
  02cc3	33 cd		 xor	 ecx, ebp
  02cc5	e8 00 00 00 00	 call	 @__security_check_cookie@4
  02cca	8b e5		 mov	 esp, ebp
  02ccc	5d		 pop	 ebp
  02ccd	c3		 ret	 0
?NewShopRecv@@YAXPAUCG_NEW_CASH_SHOP@@H@Z ENDP		; NewShopRecv
; Function compile flags: /Odtp /ZI
; File d:\projects\exteam6.3\source\gameserver\include\prodef.h
_TEXT	ENDS
;	COMDAT ?set@PBMSG_HEAD2@@QAEXPAEEEE@Z
_TEXT	SEGMENT
_this$ = -4						; size = 4
_lpBuf$ = 8						; size = 4
_head$ = 12						; size = 1
_sub$ = 16						; size = 1
_size$ = 20						; size = 1
?set@PBMSG_HEAD2@@QAEXPAEEEE@Z PROC			; PBMSG_HEAD2::set, COMDAT
; _this$ = ecx

; 104  : 	{

  00000	55		 push	 ebp
  00001	8b ec		 mov	 ebp, esp
  00003	83 ec 44	 sub	 esp, 68			; 00000044H
  00006	53		 push	 ebx
  00007	56		 push	 esi
  00008	57		 push	 edi
  00009	89 4d fc	 mov	 DWORD PTR _this$[ebp], ecx

; 105  : 		lpBuf[0] = 0xC1;

  0000c	8b 45 08	 mov	 eax, DWORD PTR _lpBuf$[ebp]
  0000f	c6 00 c1	 mov	 BYTE PTR [eax], 193	; 000000c1H

; 106  : 		lpBuf[1] = size;

  00012	8b 45 08	 mov	 eax, DWORD PTR _lpBuf$[ebp]
  00015	8a 4d 14	 mov	 cl, BYTE PTR _size$[ebp]
  00018	88 48 01	 mov	 BYTE PTR [eax+1], cl

; 107  : 		lpBuf[2] = head;

  0001b	8b 45 08	 mov	 eax, DWORD PTR _lpBuf$[ebp]
  0001e	8a 4d 0c	 mov	 cl, BYTE PTR _head$[ebp]
  00021	88 48 02	 mov	 BYTE PTR [eax+2], cl

; 108  : 		lpBuf[3] = sub;

  00024	8b 45 08	 mov	 eax, DWORD PTR _lpBuf$[ebp]
  00027	8a 4d 10	 mov	 cl, BYTE PTR _sub$[ebp]
  0002a	88 48 03	 mov	 BYTE PTR [eax+3], cl

; 109  : 	};

  0002d	5f		 pop	 edi
  0002e	5e		 pop	 esi
  0002f	5b		 pop	 ebx
  00030	8b e5		 mov	 esp, ebp
  00032	5d		 pop	 ebp
  00033	c2 10 00	 ret	 16			; 00000010H
?set@PBMSG_HEAD2@@QAEXPAEEEE@Z ENDP			; PBMSG_HEAD2::set
_TEXT	ENDS
EXTRN	_vsprintf_s:PROC
; Function compile flags: /Odtp /ZI
; File d:\microsoft visual studio 10.0\vc\include\stdio.h
;	COMDAT ??$sprintf_s@$0BAA@@@YAHAAY0BAA@DPBDZZ
_TEXT	SEGMENT
__ArgList$ = -4						; size = 4
__Dest$ = 8						; size = 4
__Format$ = 12						; size = 4
??$sprintf_s@$0BAA@@@YAHAAY0BAA@DPBDZZ PROC		; sprintf_s<256>, COMDAT

; 323  : __DEFINE_CPP_OVERLOAD_SECURE_FUNC_0_1_ARGLIST(int, sprintf_s, vsprintf_s, _Deref_post_z_ char, _Dest, _In_z_ _Printf_format_string_ const char *, _Format)

  00000	55		 push	 ebp
  00001	8b ec		 mov	 ebp, esp
  00003	83 ec 44	 sub	 esp, 68			; 00000044H
  00006	53		 push	 ebx
  00007	56		 push	 esi
  00008	57		 push	 edi
  00009	8d 45 10	 lea	 eax, DWORD PTR __Format$[ebp+4]
  0000c	89 45 fc	 mov	 DWORD PTR __ArgList$[ebp], eax
  0000f	8b 45 fc	 mov	 eax, DWORD PTR __ArgList$[ebp]
  00012	50		 push	 eax
  00013	8b 4d 0c	 mov	 ecx, DWORD PTR __Format$[ebp]
  00016	51		 push	 ecx
  00017	68 00 01 00 00	 push	 256			; 00000100H
  0001c	8b 55 08	 mov	 edx, DWORD PTR __Dest$[ebp]
  0001f	52		 push	 edx
  00020	e8 00 00 00 00	 call	 _vsprintf_s
  00025	83 c4 10	 add	 esp, 16			; 00000010H
  00028	5f		 pop	 edi
  00029	5e		 pop	 esi
  0002a	5b		 pop	 ebx
  0002b	8b e5		 mov	 esp, ebp
  0002d	5d		 pop	 ebp
  0002e	c3		 ret	 0
??$sprintf_s@$0BAA@@@YAHAAY0BAA@DPBDZZ ENDP		; sprintf_s<256>
_TEXT	ENDS
EXTRN	_atexit:PROC
EXTRN	??_L@YGXPAXIHP6EX0@Z1@Z:PROC			; `eh vector constructor iterator'
; Function compile flags: /Odtp /ZI
; File d:\projects\exteam6.3\source\gameserver\gameserver\shop.cpp
;	COMDAT ??__EShopC@@YAXXZ
text$yc	SEGMENT
??__EShopC@@YAXXZ PROC					; `dynamic initializer for 'ShopC'', COMDAT

; 19   : CShop ShopC[MAX_SHOP];

  00000	55		 push	 ebp
  00001	8b ec		 mov	 ebp, esp
  00003	83 ec 40	 sub	 esp, 64			; 00000040H
  00006	53		 push	 ebx
  00007	56		 push	 esi
  00008	57		 push	 edi
  00009	68 00 00 00 00	 push	 OFFSET ??1CShop@@UAE@XZ	; CShop::~CShop
  0000e	68 00 00 00 00	 push	 OFFSET ??0CShop@@QAE@XZ	; CShop::CShop
  00013	6a 2e		 push	 46			; 0000002eH
  00015	68 9c 6f 00 00	 push	 28572			; 00006f9cH
  0001a	68 00 00 00 00	 push	 OFFSET ?ShopC@@3PAVCShop@@A ; ShopC
  0001f	e8 00 00 00 00	 call	 ??_L@YGXPAXIHP6EX0@Z1@Z
  00024	68 00 00 00 00	 push	 OFFSET ??__FShopC@@YAXXZ ; `dynamic atexit destructor for 'ShopC''
  00029	e8 00 00 00 00	 call	 _atexit
  0002e	83 c4 04	 add	 esp, 4
  00031	5f		 pop	 edi
  00032	5e		 pop	 esi
  00033	5b		 pop	 ebx
  00034	8b e5		 mov	 esp, ebp
  00036	5d		 pop	 ebp
  00037	c3		 ret	 0
??__EShopC@@YAXXZ ENDP					; `dynamic initializer for 'ShopC''
text$yc	ENDS
EXTRN	??_M@YGXPAXIHP6EX0@Z@Z:PROC			; `eh vector destructor iterator'
; Function compile flags: /Odtp /ZI
;	COMDAT ??__FShopC@@YAXXZ
text$yd	SEGMENT
??__FShopC@@YAXXZ PROC					; `dynamic atexit destructor for 'ShopC'', COMDAT
  00000	55		 push	 ebp
  00001	8b ec		 mov	 ebp, esp
  00003	83 ec 40	 sub	 esp, 64			; 00000040H
  00006	53		 push	 ebx
  00007	56		 push	 esi
  00008	57		 push	 edi
  00009	68 00 00 00 00	 push	 OFFSET ??1CShop@@UAE@XZ	; CShop::~CShop
  0000e	6a 2e		 push	 46			; 0000002eH
  00010	68 9c 6f 00 00	 push	 28572			; 00006f9cH
  00015	68 00 00 00 00	 push	 OFFSET ?ShopC@@3PAVCShop@@A ; ShopC
  0001a	e8 00 00 00 00	 call	 ??_M@YGXPAXIHP6EX0@Z@Z
  0001f	5f		 pop	 edi
  00020	5e		 pop	 esi
  00021	5b		 pop	 ebx
  00022	8b e5		 mov	 esp, ebp
  00024	5d		 pop	 ebp
  00025	c3		 ret	 0
??__FShopC@@YAXXZ ENDP					; `dynamic atexit destructor for 'ShopC''
text$yd	ENDS
PUBLIC	?ShopC@@3PAVCShop@@A				; ShopC
_BSS	SEGMENT
?ShopC@@3PAVCShop@@A DB 0140e08H DUP (?)		; ShopC
_BSS	ENDS
CRT$XCU	SEGMENT
_ShopC$initializer$ DD FLAT:??__EShopC@@YAXXZ
CRT$XCU	ENDS
END
