; Listing generated by Microsoft (R) Optimizing Compiler Version 16.00.40219.01 

	TITLE	D:\Projects\ExTeam6.3\Source\GameServer\GameServer\ShowOnline.cpp
	.686P
	.XMM
	include listing.inc
	.model	flat

INCLUDELIB LIBCMT
INCLUDELIB OLDNAMES

PUBLIC	?ShowOnlineCount@@3HA				; ShowOnlineCount
_BSS	SEGMENT
?ShowOnlineCount@@3HA DD 01H DUP (?)			; ShowOnlineCount
_BSS	ENDS
PUBLIC	??_H@YGXPAXIHP6EPAX0@Z@Z			; `vector constructor iterator'
; Function compile flags: /Odtp /ZI
;	COMDAT ??_H@YGXPAXIHP6EPAX0@Z@Z
_TEXT	SEGMENT
___t$ = 8						; size = 4
___s$ = 12						; size = 4
___n$ = 16						; size = 4
___f$ = 20						; size = 4
??_H@YGXPAXIHP6EPAX0@Z@Z PROC				; `vector constructor iterator', COMDAT
  00000	55		 push	 ebp
  00001	8b ec		 mov	 ebp, esp
  00003	83 ec 40	 sub	 esp, 64			; 00000040H
  00006	53		 push	 ebx
  00007	56		 push	 esi
  00008	57		 push	 edi
$LN2@vector:
  00009	8b 45 10	 mov	 eax, DWORD PTR ___n$[ebp]
  0000c	83 e8 01	 sub	 eax, 1
  0000f	89 45 10	 mov	 DWORD PTR ___n$[ebp], eax
  00012	78 11		 js	 SHORT $LN3@vector
  00014	8b 4d 08	 mov	 ecx, DWORD PTR ___t$[ebp]
  00017	ff 55 14	 call	 DWORD PTR ___f$[ebp]
  0001a	8b 45 08	 mov	 eax, DWORD PTR ___t$[ebp]
  0001d	03 45 0c	 add	 eax, DWORD PTR ___s$[ebp]
  00020	89 45 08	 mov	 DWORD PTR ___t$[ebp], eax
  00023	eb e4		 jmp	 SHORT $LN2@vector
$LN3@vector:
  00025	5f		 pop	 edi
  00026	5e		 pop	 esi
  00027	5b		 pop	 ebx
  00028	8b e5		 mov	 esp, ebp
  0002a	5d		 pop	 ebp
  0002b	c2 10 00	 ret	 16			; 00000010H
??_H@YGXPAXIHP6EPAX0@Z@Z ENDP				; `vector constructor iterator'
_TEXT	ENDS
PUBLIC	?setShowOnline@@YAXH@Z				; setShowOnline
; Function compile flags: /Odtp /ZI
; File d:\projects\exteam6.3\source\gameserver\gameserver\showonline.cpp
_TEXT	SEGMENT
_online$ = 8						; size = 4
?setShowOnline@@YAXH@Z PROC				; setShowOnline

; 8    : {

  00000	55		 push	 ebp
  00001	8b ec		 mov	 ebp, esp
  00003	83 ec 40	 sub	 esp, 64			; 00000040H
  00006	53		 push	 ebx
  00007	56		 push	 esi
  00008	57		 push	 edi

; 9    : 	ShowOnlineCount = online;

  00009	8b 45 08	 mov	 eax, DWORD PTR _online$[ebp]
  0000c	a3 00 00 00 00	 mov	 DWORD PTR ?ShowOnlineCount@@3HA, eax ; ShowOnlineCount

; 10   : };

  00011	5f		 pop	 edi
  00012	5e		 pop	 esi
  00013	5b		 pop	 ebx
  00014	8b e5		 mov	 esp, ebp
  00016	5d		 pop	 ebp
  00017	c3		 ret	 0
?setShowOnline@@YAXH@Z ENDP				; setShowOnline
_TEXT	ENDS
PUBLIC	?getShowOnline@@YAHXZ				; getShowOnline
; Function compile flags: /Odtp /ZI
_TEXT	SEGMENT
?getShowOnline@@YAHXZ PROC				; getShowOnline

; 12   : {

  00020	55		 push	 ebp
  00021	8b ec		 mov	 ebp, esp
  00023	83 ec 40	 sub	 esp, 64			; 00000040H
  00026	53		 push	 ebx
  00027	56		 push	 esi
  00028	57		 push	 edi

; 13   : 	return ShowOnlineCount;

  00029	a1 00 00 00 00	 mov	 eax, DWORD PTR ?ShowOnlineCount@@3HA ; ShowOnlineCount

; 14   : };

  0002e	5f		 pop	 edi
  0002f	5e		 pop	 esi
  00030	5b		 pop	 ebx
  00031	8b e5		 mov	 esp, ebp
  00033	5d		 pop	 ebp
  00034	c3		 ret	 0
?getShowOnline@@YAHXZ ENDP				; getShowOnline
_TEXT	ENDS
END
