; Listing generated by Microsoft (R) Optimizing Compiler Version 16.00.40219.01 

	TITLE	D:\Projects\ExTeam6.3\Source\GameServer\GameServer\SkillAdditionInfo.cpp
	.686P
	.XMM
	include listing.inc
	.model	flat

INCLUDELIB LIBCMT
INCLUDELIB OLDNAMES

_DATA	SEGMENT
_g_iNpcUpDfLevel_CGATE DD 01H
	DD	02H
	DD	02dc6c0H
	DD	02H
	DD	03H
	DD	02dc6c0H
	DD	03H
	DD	04H
	DD	02dc6c0H
_g_iNpcUpDfLevel_CSTATUE DD 01H
	DD	03H
	DD	02dc6c0H
	DD	02H
	DD	05H
	DD	02dc6c0H
	DD	03H
	DD	07H
	DD	02dc6c0H
_g_iNpcUpMaxHP_CGATE DD 02625a0H
	DD	02H
	DD	0f4240H
	DD	03567e0H
	DD	03H
	DD	0f4240H
	DD	04f5880H
	DD	04H
	DD	0f4240H
_g_iNpcUpMaxHP_CSTATUE DD 02191c0H
	DD	03H
	DD	0f4240H
	DD	033e140H
	DD	05H
	DD	0f4240H
	DD	04c4b40H
	DD	07H
	DD	0f4240H
_g_iNpcUpRgLevel_CSTATUE DD 01H
	DD	03H
	DD	04c4b40H
	DD	02H
	DD	05H
	DD	04c4b40H
	DD	03H
	DD	07H
	DD	04c4b40H
_g_iCsUserReSpawnArea DD 023H
	DD	011H
	DD	090H
	DD	030H
	DD	04aH
	DD	090H
	DD	073H
	DD	09aH
	DD	023H
	DD	011H
	DD	090H
	DD	030H
_g_iNpcDefense_CGATE DD 064H
	DD	0b4H
	DD	012cH
	DD	0208H
_g_iNpcDefense_CSTATUE DD 050H
	DD	0b4H
	DD	0154H
	DD	0226H
_g_iCastleWallStepAxisY DD 071H
	DD	0a0H
	DD	0cbH
_DATA	ENDS
PUBLIC	??_H@YGXPAXIHP6EPAX0@Z@Z			; `vector constructor iterator'
; Function compile flags: /Odtp /ZI
;	COMDAT ??_H@YGXPAXIHP6EPAX0@Z@Z
_TEXT	SEGMENT
___t$ = 8						; size = 4
___s$ = 12						; size = 4
___n$ = 16						; size = 4
___f$ = 20						; size = 4
??_H@YGXPAXIHP6EPAX0@Z@Z PROC				; `vector constructor iterator', COMDAT
  00000	55		 push	 ebp
  00001	8b ec		 mov	 ebp, esp
  00003	83 ec 40	 sub	 esp, 64			; 00000040H
  00006	53		 push	 ebx
  00007	56		 push	 esi
  00008	57		 push	 edi
$LN2@vector:
  00009	8b 45 10	 mov	 eax, DWORD PTR ___n$[ebp]
  0000c	83 e8 01	 sub	 eax, 1
  0000f	89 45 10	 mov	 DWORD PTR ___n$[ebp], eax
  00012	78 11		 js	 SHORT $LN3@vector
  00014	8b 4d 08	 mov	 ecx, DWORD PTR ___t$[ebp]
  00017	ff 55 14	 call	 DWORD PTR ___f$[ebp]
  0001a	8b 45 08	 mov	 eax, DWORD PTR ___t$[ebp]
  0001d	03 45 0c	 add	 eax, DWORD PTR ___s$[ebp]
  00020	89 45 08	 mov	 DWORD PTR ___t$[ebp], eax
  00023	eb e4		 jmp	 SHORT $LN2@vector
$LN3@vector:
  00025	5f		 pop	 edi
  00026	5e		 pop	 esi
  00027	5b		 pop	 ebx
  00028	8b e5		 mov	 esp, ebp
  0002a	5d		 pop	 ebp
  0002b	c2 10 00	 ret	 16			; 00000010H
??_H@YGXPAXIHP6EPAX0@Z@Z ENDP				; `vector constructor iterator'
_TEXT	ENDS
PUBLIC	?Init@CSkillAdditionInfo@@QAEXXZ		; CSkillAdditionInfo::Init
PUBLIC	??_7CSkillAdditionInfo@@6B@			; CSkillAdditionInfo::`vftable'
PUBLIC	??0CSkillAdditionInfo@@QAE@XZ			; CSkillAdditionInfo::CSkillAdditionInfo
PUBLIC	??_R4CSkillAdditionInfo@@6B@			; CSkillAdditionInfo::`RTTI Complete Object Locator'
PUBLIC	??_R0?AVCSkillAdditionInfo@@@8			; CSkillAdditionInfo `RTTI Type Descriptor'
PUBLIC	??_R3CSkillAdditionInfo@@8			; CSkillAdditionInfo::`RTTI Class Hierarchy Descriptor'
PUBLIC	??_R2CSkillAdditionInfo@@8			; CSkillAdditionInfo::`RTTI Base Class Array'
PUBLIC	??_R1A@?0A@EA@CSkillAdditionInfo@@8		; CSkillAdditionInfo::`RTTI Base Class Descriptor at (0,-1,0,64)'
EXTRN	??_7type_info@@6B@:QWORD			; type_info::`vftable'
EXTRN	??_ECSkillAdditionInfo@@UAEPAXI@Z:PROC		; CSkillAdditionInfo::`vector deleting destructor'
;	COMDAT ??_R1A@?0A@EA@CSkillAdditionInfo@@8
; File d:\projects\exteam6.3\source\gameserver\gameserver\skilladditioninfo.cpp
rdata$r	SEGMENT
??_R1A@?0A@EA@CSkillAdditionInfo@@8 DD FLAT:??_R0?AVCSkillAdditionInfo@@@8 ; CSkillAdditionInfo::`RTTI Base Class Descriptor at (0,-1,0,64)'
	DD	00H
	DD	00H
	DD	0ffffffffH
	DD	00H
	DD	040H
	DD	FLAT:??_R3CSkillAdditionInfo@@8
rdata$r	ENDS
;	COMDAT ??_R2CSkillAdditionInfo@@8
rdata$r	SEGMENT
??_R2CSkillAdditionInfo@@8 DD FLAT:??_R1A@?0A@EA@CSkillAdditionInfo@@8 ; CSkillAdditionInfo::`RTTI Base Class Array'
rdata$r	ENDS
;	COMDAT ??_R3CSkillAdditionInfo@@8
rdata$r	SEGMENT
??_R3CSkillAdditionInfo@@8 DD 00H			; CSkillAdditionInfo::`RTTI Class Hierarchy Descriptor'
	DD	00H
	DD	01H
	DD	FLAT:??_R2CSkillAdditionInfo@@8
rdata$r	ENDS
;	COMDAT ??_R0?AVCSkillAdditionInfo@@@8
_DATA	SEGMENT
??_R0?AVCSkillAdditionInfo@@@8 DD FLAT:??_7type_info@@6B@ ; CSkillAdditionInfo `RTTI Type Descriptor'
	DD	00H
	DB	'.?AVCSkillAdditionInfo@@', 00H
_DATA	ENDS
;	COMDAT ??_R4CSkillAdditionInfo@@6B@
rdata$r	SEGMENT
??_R4CSkillAdditionInfo@@6B@ DD 00H			; CSkillAdditionInfo::`RTTI Complete Object Locator'
	DD	00H
	DD	00H
	DD	FLAT:??_R0?AVCSkillAdditionInfo@@@8
	DD	FLAT:??_R3CSkillAdditionInfo@@8
rdata$r	ENDS
;	COMDAT ??_7CSkillAdditionInfo@@6B@
CONST	SEGMENT
??_7CSkillAdditionInfo@@6B@ DD FLAT:??_R4CSkillAdditionInfo@@6B@ ; CSkillAdditionInfo::`vftable'
	DD	FLAT:??_ECSkillAdditionInfo@@UAEPAXI@Z
; Function compile flags: /Odtp /ZI
CONST	ENDS
_TEXT	SEGMENT
_this$ = -4						; size = 4
??0CSkillAdditionInfo@@QAE@XZ PROC			; CSkillAdditionInfo::CSkillAdditionInfo
; _this$ = ecx

; 18   : {

  00000	55		 push	 ebp
  00001	8b ec		 mov	 ebp, esp
  00003	83 ec 44	 sub	 esp, 68			; 00000044H
  00006	53		 push	 ebx
  00007	56		 push	 esi
  00008	57		 push	 edi
  00009	89 4d fc	 mov	 DWORD PTR _this$[ebp], ecx
  0000c	8b 45 fc	 mov	 eax, DWORD PTR _this$[ebp]
  0000f	c7 00 00 00 00
	00		 mov	 DWORD PTR [eax], OFFSET ??_7CSkillAdditionInfo@@6B@

; 19   : 	this->Init();

  00015	8b 4d fc	 mov	 ecx, DWORD PTR _this$[ebp]
  00018	e8 00 00 00 00	 call	 ?Init@CSkillAdditionInfo@@QAEXXZ ; CSkillAdditionInfo::Init

; 20   : }

  0001d	8b 45 fc	 mov	 eax, DWORD PTR _this$[ebp]
  00020	5f		 pop	 edi
  00021	5e		 pop	 esi
  00022	5b		 pop	 ebx
  00023	8b e5		 mov	 esp, ebp
  00025	5d		 pop	 ebp
  00026	c3		 ret	 0
??0CSkillAdditionInfo@@QAE@XZ ENDP			; CSkillAdditionInfo::CSkillAdditionInfo
_TEXT	ENDS
PUBLIC	??1CSkillAdditionInfo@@UAE@XZ			; CSkillAdditionInfo::~CSkillAdditionInfo
EXTRN	??3@YAXPAX@Z:PROC				; operator delete
; Function compile flags: /Odtp /ZI
;	COMDAT ??_GCSkillAdditionInfo@@UAEPAXI@Z
_TEXT	SEGMENT
_this$ = -4						; size = 4
___flags$ = 8						; size = 4
??_GCSkillAdditionInfo@@UAEPAXI@Z PROC			; CSkillAdditionInfo::`scalar deleting destructor', COMDAT
; _this$ = ecx
  00000	55		 push	 ebp
  00001	8b ec		 mov	 ebp, esp
  00003	83 ec 44	 sub	 esp, 68			; 00000044H
  00006	53		 push	 ebx
  00007	56		 push	 esi
  00008	57		 push	 edi
  00009	89 4d fc	 mov	 DWORD PTR _this$[ebp], ecx
  0000c	8b 4d fc	 mov	 ecx, DWORD PTR _this$[ebp]
  0000f	e8 00 00 00 00	 call	 ??1CSkillAdditionInfo@@UAE@XZ ; CSkillAdditionInfo::~CSkillAdditionInfo
  00014	8b 45 08	 mov	 eax, DWORD PTR ___flags$[ebp]
  00017	83 e0 01	 and	 eax, 1
  0001a	74 0c		 je	 SHORT $LN1@scalar
  0001c	8b 45 fc	 mov	 eax, DWORD PTR _this$[ebp]
  0001f	50		 push	 eax
  00020	e8 00 00 00 00	 call	 ??3@YAXPAX@Z		; operator delete
  00025	83 c4 04	 add	 esp, 4
$LN1@scalar:
  00028	8b 45 fc	 mov	 eax, DWORD PTR _this$[ebp]
  0002b	5f		 pop	 edi
  0002c	5e		 pop	 esi
  0002d	5b		 pop	 ebx
  0002e	8b e5		 mov	 esp, ebp
  00030	5d		 pop	 ebp
  00031	c2 04 00	 ret	 4
??_GCSkillAdditionInfo@@UAEPAXI@Z ENDP			; CSkillAdditionInfo::`scalar deleting destructor'
; Function compile flags: /Odtp /ZI
_TEXT	ENDS
_TEXT	SEGMENT
_this$ = -4						; size = 4
??1CSkillAdditionInfo@@UAE@XZ PROC			; CSkillAdditionInfo::~CSkillAdditionInfo
; _this$ = ecx

; 23   : {

  00030	55		 push	 ebp
  00031	8b ec		 mov	 ebp, esp
  00033	83 ec 44	 sub	 esp, 68			; 00000044H
  00036	53		 push	 ebx
  00037	56		 push	 esi
  00038	57		 push	 edi
  00039	89 4d fc	 mov	 DWORD PTR _this$[ebp], ecx
  0003c	8b 45 fc	 mov	 eax, DWORD PTR _this$[ebp]
  0003f	c7 00 00 00 00
	00		 mov	 DWORD PTR [eax], OFFSET ??_7CSkillAdditionInfo@@6B@

; 24   : 	return;
; 25   : }

  00045	5f		 pop	 edi
  00046	5e		 pop	 esi
  00047	5b		 pop	 ebx
  00048	8b e5		 mov	 esp, ebp
  0004a	5d		 pop	 ebp
  0004b	c3		 ret	 0
??1CSkillAdditionInfo@@UAE@XZ ENDP			; CSkillAdditionInfo::~CSkillAdditionInfo
_TEXT	ENDS
EXTRN	_memset:PROC
; Function compile flags: /Odtp /ZI
_TEXT	SEGMENT
_i$227376 = -8						; size = 4
_this$ = -4						; size = 4
?Init@CSkillAdditionInfo@@QAEXXZ PROC			; CSkillAdditionInfo::Init
; _this$ = ecx

; 28   : {

  00050	55		 push	 ebp
  00051	8b ec		 mov	 ebp, esp
  00053	83 ec 48	 sub	 esp, 72			; 00000048H
  00056	53		 push	 ebx
  00057	56		 push	 esi
  00058	57		 push	 edi
  00059	89 4d fc	 mov	 DWORD PTR _this$[ebp], ecx

; 29   : 	this->m_iInfinityArrowSkillTime = 0; //4

  0005c	8b 45 fc	 mov	 eax, DWORD PTR _this$[ebp]
  0005f	c7 40 04 00 00
	00 00		 mov	 DWORD PTR [eax+4], 0

; 30   : 	this->m_iInfinityArrowUseLevel = 0; //8

  00066	8b 45 fc	 mov	 eax, DWORD PTR _this$[ebp]
  00069	c7 40 08 00 00
	00 00		 mov	 DWORD PTR [eax+8], 0

; 31   : 
; 32   : 	this->m_iInfinityArrowMPConsumptionPlus0 = 0; //C

  00070	8b 45 fc	 mov	 eax, DWORD PTR _this$[ebp]
  00073	c7 40 0c 00 00
	00 00		 mov	 DWORD PTR [eax+12], 0

; 33   : 	this->m_iInfinityArrowMPConsumptionPlus1 = 0; //10

  0007a	8b 45 fc	 mov	 eax, DWORD PTR _this$[ebp]
  0007d	c7 40 10 00 00
	00 00		 mov	 DWORD PTR [eax+16], 0

; 34   : 	this->m_iInfinityArrowMPConsumptionPlus2 = 0; //14

  00084	8b 45 fc	 mov	 eax, DWORD PTR _this$[ebp]
  00087	c7 40 14 00 00
	00 00		 mov	 DWORD PTR [eax+20], 0

; 35   : 	this->m_iInfinityArrowMPConsumptionPlus3 = 0; //18 //Season4.5 add-on

  0008e	8b 45 fc	 mov	 eax, DWORD PTR _this$[ebp]
  00091	c7 40 18 00 00
	00 00		 mov	 DWORD PTR [eax+24], 0

; 36   : 
; 37   : 	for(int i = 0; i <= 5; i++) //Master Soul Barrier Season 3

  00098	c7 45 f8 00 00
	00 00		 mov	 DWORD PTR _i$227376[ebp], 0
  0009f	eb 09		 jmp	 SHORT $LN3@Init
$LN2@Init:
  000a1	8b 45 f8	 mov	 eax, DWORD PTR _i$227376[ebp]
  000a4	83 c0 01	 add	 eax, 1
  000a7	89 45 f8	 mov	 DWORD PTR _i$227376[ebp], eax
$LN3@Init:
  000aa	83 7d f8 05	 cmp	 DWORD PTR _i$227376[ebp], 5
  000ae	7f 0f		 jg	 SHORT $LN1@Init

; 38   : 	{
; 39   : 		this->m_wSoulBarrierManaRateLevel[i] = 0;

  000b0	33 c0		 xor	 eax, eax
  000b2	8b 4d f8	 mov	 ecx, DWORD PTR _i$227376[ebp]
  000b5	8b 55 fc	 mov	 edx, DWORD PTR _this$[ebp]
  000b8	66 89 44 4a 34	 mov	 WORD PTR [edx+ecx*2+52], ax

; 40   : 	}

  000bd	eb e2		 jmp	 SHORT $LN2@Init
$LN1@Init:

; 41   : 
; 42   : 	ZeroMemory(this->m_SkillUseReqLevel, sizeof(m_SkillUseReqLevel));

  000bf	68 f0 0a 00 00	 push	 2800			; 00000af0H
  000c4	6a 00		 push	 0
  000c6	8b 45 fc	 mov	 eax, DWORD PTR _this$[ebp]
  000c9	83 c0 5c	 add	 eax, 92			; 0000005cH
  000cc	50		 push	 eax
  000cd	e8 00 00 00 00	 call	 _memset
  000d2	83 c4 0c	 add	 esp, 12			; 0000000cH

; 43   : }

  000d5	5f		 pop	 edi
  000d6	5e		 pop	 esi
  000d7	5b		 pop	 ebx
  000d8	8b e5		 mov	 esp, ebp
  000da	5d		 pop	 ebp
  000db	c3		 ret	 0
?Init@CSkillAdditionInfo@@QAEXXZ ENDP			; CSkillAdditionInfo::Init
_TEXT	ENDS
PUBLIC	??_C@_0GH@IFKPHEDI@?$FLSkill?5Addition?5Info?$FN?5?$FLSoulBarri@ ; `string'
PUBLIC	??_C@_05JLPKDJLM@10?400?$AA@			; `string'
PUBLIC	??_C@_0BM@BLDGHHPG@SoulBarrierManaRate_Level20?$AA@ ; `string'
PUBLIC	??_C@_0BM@MILCHCOG@SoulBarrierManaRate_Level19?$AA@ ; `string'
PUBLIC	??_C@_0BM@NBKJEDKH@SoulBarrierManaRate_Level18?$AA@ ; `string'
PUBLIC	??_C@_0BM@FGDBFPGI@SoulBarrierManaRate_Level17?$AA@ ; `string'
PUBLIC	??_C@_0BM@EPCKGOCJ@SoulBarrierManaRate_Level16?$AA@ ; `string'
PUBLIC	??_C@_0BM@GEAHDNOK@SoulBarrierManaRate_Level15?$AA@ ; `string'
PUBLIC	??_C@_0BM@HNBMAMKL@SoulBarrierManaRate_Level14?$AA@ ; `string'
PUBLIC	??_C@_0BM@DCFNJKGM@SoulBarrierManaRate_Level13?$AA@ ; `string'
PUBLIC	??_C@_0BM@CLEGKLCN@SoulBarrierManaRate_Level12?$AA@ ; `string'
PUBLIC	??_C@_0BM@GLPIOO@SoulBarrierManaRate_Level11?$AA@ ; `string'
PUBLIC	??_C@_0BM@BJHAMJKP@SoulBarrierManaRate_Level10?$AA@ ; `string'
PUBLIC	??_C@_0BL@PCPPGEDC@SoulBarrierManaRate_Level9?$AA@ ; `string'
PUBLIC	??_C@_0BL@OLOEFFHD@SoulBarrierManaRate_Level8?$AA@ ; `string'
PUBLIC	??_C@_0BL@GMHMEJLM@SoulBarrierManaRate_Level7?$AA@ ; `string'
PUBLIC	??_C@_0BL@HFGHHIPN@SoulBarrierManaRate_Level6?$AA@ ; `string'
PUBLIC	??_C@_0BL@FOEKCLDO@SoulBarrierManaRate_Level5?$AA@ ; `string'
PUBLIC	??_C@_0BL@EHFBBKHP@SoulBarrierManaRate_Level4?$AA@ ; `string'
PUBLIC	??_C@_0BL@IBAIMLI@SoulBarrierManaRate_Level3?$AA@ ; `string'
PUBLIC	??_C@_0BL@BBALLNPJ@SoulBarrierManaRate_Level2?$AA@ ; `string'
PUBLIC	??_C@_0BL@DKCGOODK@SoulBarrierManaRate_Level1?$AA@ ; `string'
PUBLIC	??_C@_0M@ECCCJHIK@MasterSkill?$AA@		; `string'
PUBLIC	??_C@_0BL@CDDNNPHL@SoulBarrierManaRate_Level0?$AA@ ; `string'
PUBLIC	??_C@_0CA@DLFJNCO@?4?4?2Data?2ExData?2MasterSkills?4ini?$AA@ ; `string'
PUBLIC	??_C@_0BD@IJFPEJBE@SleepTimeMaxVsUser?$AA@	; `string'
PUBLIC	??_C@_0BD@NLBINCPE@SleepTimeDivVsUser?$AA@	; `string'
PUBLIC	??_C@_0BF@GOCFFGAA@SleepTimeStartVsUser?$AA@	; `string'
PUBLIC	??_C@_0BC@PNLJFHCK@SleepTimeMaxVsMob?$AA@	; `string'
PUBLIC	??_C@_0BC@NCMAIBJJ@SleepTimeDivVsMob?$AA@	; `string'
PUBLIC	??_C@_0BE@DPILEECE@SleepTimeStartVsMob?$AA@	; `string'
PUBLIC	??_C@_0BD@LKCPAGKC@SleepRateMaxVsUser?$AA@	; `string'
PUBLIC	??_C@_0BD@OIGIJNEC@SleepRateDivVsUser?$AA@	; `string'
PUBLIC	??_C@_0BF@DKNJDAEP@SleepRateStartVsUser?$AA@	; `string'
PUBLIC	??_C@_0BC@IOOLAEEH@SleepRateMaxVsMob?$AA@	; `string'
PUBLIC	??_C@_0BC@KBJCNCPE@SleepRateDivVsMob?$AA@	; `string'
PUBLIC	??_C@_0BE@BNLKCCNC@SleepRateStartVsMob?$AA@	; `string'
PUBLIC	??_C@_0BD@GFPKBGOG@InnovationMaxPower?$AA@	; `string'
PUBLIC	??_C@_0BI@DCLKMNFB@InnovationTimeMaxVsUser?$AA@	; `string'
PUBLIC	??_C@_0BI@GAPNFGLB@InnovationTimeDivVsUser?$AA@	; `string'
PUBLIC	??_C@_0BK@JPOBBJM@InnovationTimeStartVsUser?$AA@ ; `string'
PUBLIC	??_C@_0BK@NJKLPIEC@InnovationEffectMaxVsUser?$AA@ ; `string'
PUBLIC	??_C@_0BK@ILOMGDKC@InnovationEffectDivVsUser?$AA@ ; `string'
PUBLIC	??_C@_0BM@DOKCHPDM@InnovationEffectStartVsUser?$AA@ ; `string'
PUBLIC	??_C@_0BH@BDHKBBJP@InnovationTimeMaxVsMob?$AA@	; `string'
PUBLIC	??_C@_0BH@DMADMHCM@InnovationTimeDivVsMob?$AA@	; `string'
PUBLIC	??_C@_0BJ@DJIGBELP@InnovationTimeStartVsMob?$AA@ ; `string'
PUBLIC	??_C@_0BJ@MHJDNFK@InnovationEffectMaxVsMob?$AA@	; `string'
PUBLIC	??_C@_0BJ@CDAAOLOJ@InnovationEffectDivVsMob?$AA@ ; `string'
PUBLIC	??_C@_0BL@LNNDEEFE@InnovationEffectStartVsMob?$AA@ ; `string'
PUBLIC	??_C@_0BB@EHPNILIJ@WeaknessMaxPower?$AA@	; `string'
PUBLIC	??_C@_0BG@MEAPEEBB@WeaknessTimeMaxVsUser?$AA@	; `string'
PUBLIC	??_C@_0BG@JGEINPPB@WeaknessTimeDivVsUser?$AA@	; `string'
PUBLIC	??_C@_0BI@GNODJDKI@WeaknessTimeStartVsUser?$AA@	; `string'
PUBLIC	??_C@_0BI@LNLGHKHG@WeaknessEffectMaxVsUser?$AA@	; `string'
PUBLIC	??_C@_0BI@OPPBOBJG@WeaknessEffectDivVsUser?$AA@	; `string'
PUBLIC	??_C@_0BK@IGDOAKNK@WeaknessEffectStartVsUser?$AA@ ; `string'
PUBLIC	??_C@_0BF@BPNFAKEK@WeaknessTimeMaxVsMob?$AA@	; `string'
PUBLIC	??_C@_0BF@DAKMNMPJ@WeaknessTimeDivVsMob?$AA@	; `string'
PUBLIC	??_C@_0BH@EPKMOAKG@WeaknessTimeStartVsMob?$AA@	; `string'
PUBLIC	??_C@_0BH@HKFDMJED@WeaknessEffectMaxVsMob?$AA@	; `string'
PUBLIC	??_C@_0BH@FFCKBPPA@WeaknessEffectDivVsMob?$AA@	; `string'
PUBLIC	??_C@_0BJ@JMADKNGD@WeaknessEffectStartVsMob?$AA@ ; `string'
PUBLIC	??_C@_0BF@PHKBFGGL@IncreaseBlockTimeMax?$AA@	; `string'
PUBLIC	??_C@_0BF@BKDJGFNH@IncreaseBlockTimeDiv?$AA@	; `string'
PUBLIC	??_C@_0BH@KEOKNCMM@IncreaseBlockTimeStart?$AA@	; `string'
PUBLIC	??_C@_0BH@LCBOKOJD@IncreaseBlockEffectMax?$AA@	; `string'
PUBLIC	??_C@_0BH@FPIGJNCP@IncreaseBlockEffectDiv?$AA@	; `string'
PUBLIC	??_C@_0BH@KJNKHPEI@IncreaseBlockEffectSub?$AA@	; `string'
PUBLIC	??_C@_0BJ@MLOJIGOI@IncreaseBlockEffectStart?$AA@ ; `string'
PUBLIC	??_C@_0BG@CMMPIBO@IncreaseHealthTimeMax?$AA@	; `string'
PUBLIC	??_C@_0BG@OPFEMLKC@IncreaseHealthTimeDiv?$AA@	; `string'
PUBLIC	??_C@_0BI@MHMMCEPN@IncreaseHealthTimeStart?$AA@	; `string'
PUBLIC	??_C@_0BI@NBDIFIKC@IncreaseHealthEffectMax?$AA@	; `string'
PUBLIC	??_C@_0BG@MPJHCBCJ@DecTimePerAttackSpeed?$AA@	; `string'
PUBLIC	??_C@_02PKFBJPLJ@10?$AA@			; `string'
PUBLIC	??_C@_0BI@MKPMIJHJ@IncreaseHealthEffectSub?$AA@	; `string'
PUBLIC	??_C@_0BK@FJGKLFFF@IncreaseHealthEffectStart?$AA@ ; `string'
PUBLIC	??_C@_0BF@JBOGCBGB@IgnoreDefenseTimeMax?$AA@	; `string'
PUBLIC	??_C@_0BF@HMHOBCNN@IgnoreDefenseTimeDiv?$AA@	; `string'
PUBLIC	??_C@_0BH@JAGELIJO@IgnoreDefenseTimeStart?$AA@	; `string'
PUBLIC	??_C@_0BH@IGJAMEMB@IgnoreDefenseEffectMax?$AA@	; `string'
PUBLIC	??_C@_0BH@GLAIPHHN@IgnoreDefenseEffectDiv?$AA@	; `string'
PUBLIC	??_C@_0BH@JNFEBFBK@IgnoreDefenseEffectSub?$AA@	; `string'
PUBLIC	??_C@_0BJ@OOADAFPG@IgnoreDefenseEffectStart?$AA@ ; `string'
PUBLIC	??_C@_0P@NOGILJJP@ReflectTimeMax?$AA@		; `string'
PUBLIC	??_C@_0P@DDPAIKCD@ReflectTimeDiv?$AA@		; `string'
PUBLIC	??_C@_0BB@OEIPCAFF@ReflectTimeStart?$AA@	; `string'
PUBLIC	??_C@_0BB@PCHLFMAK@ReflectEffectMax?$AA@	; `string'
PUBLIC	??_C@_0BB@BPODGPLG@ReflectEffectDiv?$AA@	; `string'
PUBLIC	??_C@_0BD@DINJGEOO@ReflectEffectStart?$AA@	; `string'
PUBLIC	??_C@_0BL@OBKCINOG@BerserkerDefenceDivProcent?$AA@ ; `string'
PUBLIC	??_C@_0BK@MKJOKFKE@BerserkerProcentDamageMax?$AA@ ; `string'
PUBLIC	??_C@_0BB@GIBCNHME@BerserkerTimeMax?$AA@	; `string'
PUBLIC	??_C@_0BB@IFIKOEHI@BerserkerTimeDiv?$AA@	; `string'
PUBLIC	??_C@_0BD@BHMKFOOP@BerserkerTimeStart?$AA@	; `string'
PUBLIC	??_C@_0BE@OCKOHNE@BerserkerLifeDecDiv?$AA@	; `string'
PUBLIC	??_C@_0BE@OIPBEFAB@BerserkerManaIncDiv?$AA@	; `string'
PUBLIC	??_C@_0BG@OFMNGAEM@CriticalDamageTimeMax?$AA@	; `string'
PUBLIC	??_C@_0BG@IFFFDPA@CriticalDamageTimeDiv?$AA@	; `string'
PUBLIC	??_C@_0BI@LBJFOHFM@CriticalDamageTimeStart?$AA@	; `string'
PUBLIC	??_C@_0BI@KHGBJLAD@CriticalDamageEffectMax?$AA@	; `string'
PUBLIC	??_C@_0BJ@LGOEADME@CriticalDamageEffectDiv2?$AA@ ; `string'
PUBLIC	??_C@_0BJ@JNMJFAAH@CriticalDamageEffectDiv1?$AA@ ; `string'
PUBLIC	??_C@_0O@OKEHNLCK@ElfAttackTime?$AA@		; `string'
PUBLIC	??_C@_0BD@KEGAFJLN@ElfAttackEffectMax?$AA@	; `string'
PUBLIC	??_C@_0BD@EJPIGKAB@ElfAttackEffectDiv?$AA@	; `string'
PUBLIC	??_C@_0BE@JJIEGOBK@ElfAttackEffectFact?$AA@	; `string'
PUBLIC	??_C@_0P@JCGFNEIF@ElfDefenseTime?$AA@		; `string'
PUBLIC	??_C@_0BE@NCFLCANM@ElfDefenseEffectMax?$AA@	; `string'
PUBLIC	??_C@_0BE@DPMDBDGA@ElfDefenseEffectDiv?$AA@	; `string'
PUBLIC	??_C@_0BF@KDEHAEKN@ElfDefenseEffectFact?$AA@	; `string'
PUBLIC	??_C@_0BB@HHFAEEEA@SwellLifeTimeMax?$AA@	; `string'
PUBLIC	??_C@_0BB@JKMIHHPM@SwellLifeTimeDiv?$AA@	; `string'
PUBLIC	??_C@_0BD@CBCDNOBM@SwellLifeTimeStart?$AA@	; `string'
PUBLIC	??_C@_0BD@DHNHKCED@SwellLifeEffectMax?$AA@	; `string'
PUBLIC	??_C@_0BE@MAKIPEGN@SwellLifeEffectDiv2?$AA@	; `string'
PUBLIC	??_C@_0BE@OLIFKHKO@SwellLifeEffectDiv1?$AA@	; `string'
PUBLIC	??_C@_0BF@EDGHIKBF@SwellLifeEffectStart?$AA@	; `string'
PUBLIC	??_C@_0BE@LJPJLIP@WizardryEnchantTime?$AA@	; `string'
PUBLIC	??_C@_0BJ@KHNLHFNF@WizardryEnchantDamageMax?$AA@ ; `string'
PUBLIC	??_C@_02NJPGOMH@?$CFf?$AA@			; `string'
PUBLIC	??_C@_0BK@NKOODMFM@WizardryEnchantDamageFact?$AA@ ; `string'
PUBLIC	??_C@_03PBDDOHNJ@0?42?$AA@			; `string'
PUBLIC	??_C@_0BJ@EKEDEGGJ@WizardryEnchantDamageDiv?$AA@ ; `string'
PUBLIC	??_C@_0BD@IJCFELOE@SoulBarrierTimeMax?$AA@	; `string'
PUBLIC	??_C@_0BD@GELNHIFI@SoulBarrierTimeDiv?$AA@	; `string'
PUBLIC	??_C@_0BF@HLPHEEBF@SoulBarrierTimeStart?$AA@	; `string'
PUBLIC	??_C@_0BG@CPELIBEP@SoulBarrierDefenseMax?$AA@	; `string'
PUBLIC	??_C@_0BH@MJAGCEGF@SoulBarrierDefenseDiv2?$AA@	; `string'
PUBLIC	??_C@_0BH@OCCLHHKG@SoulBarrierDefenseDiv1?$AA@	; `string'
PUBLIC	??_C@_05OEGOMMDP@Skill?$AA@			; `string'
PUBLIC	??_C@_0BI@ENLFKMPH@SoulBarrierDefenseStart?$AA@	; `string'
PUBLIC	??_C@_0BK@EKJAJELJ@?4?4?2Data?2ExData?2Skills?4ini?$AA@ ; `string'
PUBLIC	??_C@_0JB@FKMAEBOB@?$FLSkill?5Addition?5Info?$FN?5?$FLFire?5Scre@ ; `string'
PUBLIC	??_C@_0BG@PJAAPPCH@CheckFireScreamSerial?$AA@	; `string'
PUBLIC	??_C@_0BK@KNFOPFKG@FireScreamSerialInitCount?$AA@ ; `string'
PUBLIC	??_C@_0CD@IEHCMBMN@FireScreamMaxAttackCountSameSeri@ ; `string'
PUBLIC	??_C@_0BI@BFNBGAPD@FireScreamExplosionRate?$AA@	; `string'
PUBLIC	??_C@_0CC@CACJLIIP@FireScreamExplosionAttackDistanc@ ; `string'
PUBLIC	??_C@_0BA@HINCJBHF@FireScreamSkill?$AA@		; `string'
PUBLIC	??_C@_0HG@MDBPHHOC@?$FLSkill?5Addition?5Info?$FN?5?$FLInfinity?5@ ; `string'
PUBLIC	??_C@_0CB@KPCFCAAL@InfinityArraowMPConsumptionPlus3@ ; `string'
PUBLIC	??_C@_0CB@JNBDECIJ@InfinityArraowMPConsumptionPlus1@ ; `string'
PUBLIC	??_C@_0CB@IEAIHDMI@InfinityArraowMPConsumptionPlus0@ ; `string'
PUBLIC	??_C@_0BG@DADLDHMB@InfinityArrowUseLevel?$AA@	; `string'
PUBLIC	??_C@_09EMMBJNGJ@SkillInfo?$AA@			; `string'
PUBLIC	??_C@_0BH@KBNHBCCN@InfinityArrowSkillTime?$AA@	; `string'
PUBLIC	??_C@_03JBJLGPFL@end?$AA@			; `string'
PUBLIC	??_C@_01KDCPPGHE@r?$AA@				; `string'
PUBLIC	??_C@_0DK@MKBKHGKF@?$FLSkill?5Addition?5Info?$FN?5?9?5File?5loa@ ; `string'
PUBLIC	??_C@_00CNPNBAHC@?$AA@				; `string'
PUBLIC	__$ArrayPad$
PUBLIC	?Load@CSkillAdditionInfo@@QAEHPAD@Z		; CSkillAdditionInfo::Load
EXTRN	_atof:PROC
EXTRN	_sscanf:PROC
EXTRN	__imp__GetPrivateProfileStringA@24:PROC
EXTRN	__imp__GetPrivateProfileIntA@16:PROC
EXTRN	_fclose:PROC
EXTRN	__imp__ExitProcess@4:PROC
EXTRN	?MsgBox@@YAXPADZZ:PROC				; MsgBox
EXTRN	?Get@CMsg@@QAEPADH@Z:PROC			; CMsg::Get
EXTRN	?lMsg@@3VCMsg@@A:BYTE				; lMsg
EXTRN	_fopen:PROC
EXTRN	?GetNewPath@CDirPath@@QAEPADPAD@Z:PROC		; CDirPath::GetNewPath
EXTRN	?gDirPath@@3VCDirPath@@A:BYTE			; gDirPath
EXTRN	?LogAddTD@@3P6AXPADZZA:DWORD			; LogAddTD
EXTRN	_strcmp:PROC
EXTRN	___security_cookie:DWORD
EXTRN	__fltused:DWORD
EXTRN	@__security_check_cookie@4:PROC
EXTRN	_memset:PROC
EXTRN	__ftol2_sse:PROC
_BSS	SEGMENT
_TokenNumber DD	01H DUP (?)
_TokenString DB	064H DUP (?)
_SMDFile DD	01H DUP (?)
_BSS	ENDS
;	COMDAT ??_C@_0GH@IFKPHEDI@?$FLSkill?5Addition?5Info?$FN?5?$FLSoulBarri@
CONST	SEGMENT
??_C@_0GH@IFKPHEDI@?$FLSkill?5Addition?5Info?$FN?5?$FLSoulBarri@ DB '[Ski'
	DB	'll Addition Info] [SoulBarrier Strengrhen] BaseSkill(Level0):'
	DB	'%d, Level1:%d, 2:%d, 3:%d, 4:%d, 5:%d', 00H	; `string'
CONST	ENDS
;	COMDAT ??_C@_05JLPKDJLM@10?400?$AA@
CONST	SEGMENT
??_C@_05JLPKDJLM@10?400?$AA@ DB '10.00', 00H		; `string'
CONST	ENDS
;	COMDAT ??_C@_0BM@BLDGHHPG@SoulBarrierManaRate_Level20?$AA@
CONST	SEGMENT
??_C@_0BM@BLDGHHPG@SoulBarrierManaRate_Level20?$AA@ DB 'SoulBarrierManaRa'
	DB	'te_Level20', 00H				; `string'
CONST	ENDS
;	COMDAT ??_C@_0BM@MILCHCOG@SoulBarrierManaRate_Level19?$AA@
CONST	SEGMENT
??_C@_0BM@MILCHCOG@SoulBarrierManaRate_Level19?$AA@ DB 'SoulBarrierManaRa'
	DB	'te_Level19', 00H				; `string'
CONST	ENDS
;	COMDAT ??_C@_0BM@NBKJEDKH@SoulBarrierManaRate_Level18?$AA@
CONST	SEGMENT
??_C@_0BM@NBKJEDKH@SoulBarrierManaRate_Level18?$AA@ DB 'SoulBarrierManaRa'
	DB	'te_Level18', 00H				; `string'
CONST	ENDS
;	COMDAT ??_C@_0BM@FGDBFPGI@SoulBarrierManaRate_Level17?$AA@
CONST	SEGMENT
??_C@_0BM@FGDBFPGI@SoulBarrierManaRate_Level17?$AA@ DB 'SoulBarrierManaRa'
	DB	'te_Level17', 00H				; `string'
CONST	ENDS
;	COMDAT ??_C@_0BM@EPCKGOCJ@SoulBarrierManaRate_Level16?$AA@
CONST	SEGMENT
??_C@_0BM@EPCKGOCJ@SoulBarrierManaRate_Level16?$AA@ DB 'SoulBarrierManaRa'
	DB	'te_Level16', 00H				; `string'
CONST	ENDS
;	COMDAT ??_C@_0BM@GEAHDNOK@SoulBarrierManaRate_Level15?$AA@
CONST	SEGMENT
??_C@_0BM@GEAHDNOK@SoulBarrierManaRate_Level15?$AA@ DB 'SoulBarrierManaRa'
	DB	'te_Level15', 00H				; `string'
CONST	ENDS
;	COMDAT ??_C@_0BM@HNBMAMKL@SoulBarrierManaRate_Level14?$AA@
CONST	SEGMENT
??_C@_0BM@HNBMAMKL@SoulBarrierManaRate_Level14?$AA@ DB 'SoulBarrierManaRa'
	DB	'te_Level14', 00H				; `string'
CONST	ENDS
;	COMDAT ??_C@_0BM@DCFNJKGM@SoulBarrierManaRate_Level13?$AA@
CONST	SEGMENT
??_C@_0BM@DCFNJKGM@SoulBarrierManaRate_Level13?$AA@ DB 'SoulBarrierManaRa'
	DB	'te_Level13', 00H				; `string'
CONST	ENDS
;	COMDAT ??_C@_0BM@CLEGKLCN@SoulBarrierManaRate_Level12?$AA@
CONST	SEGMENT
??_C@_0BM@CLEGKLCN@SoulBarrierManaRate_Level12?$AA@ DB 'SoulBarrierManaRa'
	DB	'te_Level12', 00H				; `string'
CONST	ENDS
;	COMDAT ??_C@_0BM@GLPIOO@SoulBarrierManaRate_Level11?$AA@
CONST	SEGMENT
??_C@_0BM@GLPIOO@SoulBarrierManaRate_Level11?$AA@ DB 'SoulBarrierManaRate'
	DB	'_Level11', 00H				; `string'
CONST	ENDS
;	COMDAT ??_C@_0BM@BJHAMJKP@SoulBarrierManaRate_Level10?$AA@
CONST	SEGMENT
??_C@_0BM@BJHAMJKP@SoulBarrierManaRate_Level10?$AA@ DB 'SoulBarrierManaRa'
	DB	'te_Level10', 00H				; `string'
CONST	ENDS
;	COMDAT ??_C@_0BL@PCPPGEDC@SoulBarrierManaRate_Level9?$AA@
CONST	SEGMENT
??_C@_0BL@PCPPGEDC@SoulBarrierManaRate_Level9?$AA@ DB 'SoulBarrierManaRat'
	DB	'e_Level9', 00H				; `string'
CONST	ENDS
;	COMDAT ??_C@_0BL@OLOEFFHD@SoulBarrierManaRate_Level8?$AA@
CONST	SEGMENT
??_C@_0BL@OLOEFFHD@SoulBarrierManaRate_Level8?$AA@ DB 'SoulBarrierManaRat'
	DB	'e_Level8', 00H				; `string'
CONST	ENDS
;	COMDAT ??_C@_0BL@GMHMEJLM@SoulBarrierManaRate_Level7?$AA@
CONST	SEGMENT
??_C@_0BL@GMHMEJLM@SoulBarrierManaRate_Level7?$AA@ DB 'SoulBarrierManaRat'
	DB	'e_Level7', 00H				; `string'
CONST	ENDS
;	COMDAT ??_C@_0BL@HFGHHIPN@SoulBarrierManaRate_Level6?$AA@
CONST	SEGMENT
??_C@_0BL@HFGHHIPN@SoulBarrierManaRate_Level6?$AA@ DB 'SoulBarrierManaRat'
	DB	'e_Level6', 00H				; `string'
CONST	ENDS
;	COMDAT ??_C@_0BL@FOEKCLDO@SoulBarrierManaRate_Level5?$AA@
CONST	SEGMENT
??_C@_0BL@FOEKCLDO@SoulBarrierManaRate_Level5?$AA@ DB 'SoulBarrierManaRat'
	DB	'e_Level5', 00H				; `string'
CONST	ENDS
;	COMDAT ??_C@_0BL@EHFBBKHP@SoulBarrierManaRate_Level4?$AA@
CONST	SEGMENT
??_C@_0BL@EHFBBKHP@SoulBarrierManaRate_Level4?$AA@ DB 'SoulBarrierManaRat'
	DB	'e_Level4', 00H				; `string'
CONST	ENDS
;	COMDAT ??_C@_0BL@IBAIMLI@SoulBarrierManaRate_Level3?$AA@
CONST	SEGMENT
??_C@_0BL@IBAIMLI@SoulBarrierManaRate_Level3?$AA@ DB 'SoulBarrierManaRate'
	DB	'_Level3', 00H				; `string'
CONST	ENDS
;	COMDAT ??_C@_0BL@BBALLNPJ@SoulBarrierManaRate_Level2?$AA@
CONST	SEGMENT
??_C@_0BL@BBALLNPJ@SoulBarrierManaRate_Level2?$AA@ DB 'SoulBarrierManaRat'
	DB	'e_Level2', 00H				; `string'
CONST	ENDS
;	COMDAT ??_C@_0BL@DKCGOODK@SoulBarrierManaRate_Level1?$AA@
CONST	SEGMENT
??_C@_0BL@DKCGOODK@SoulBarrierManaRate_Level1?$AA@ DB 'SoulBarrierManaRat'
	DB	'e_Level1', 00H				; `string'
CONST	ENDS
;	COMDAT ??_C@_0M@ECCCJHIK@MasterSkill?$AA@
CONST	SEGMENT
??_C@_0M@ECCCJHIK@MasterSkill?$AA@ DB 'MasterSkill', 00H ; `string'
CONST	ENDS
;	COMDAT ??_C@_0BL@CDDNNPHL@SoulBarrierManaRate_Level0?$AA@
CONST	SEGMENT
??_C@_0BL@CDDNNPHL@SoulBarrierManaRate_Level0?$AA@ DB 'SoulBarrierManaRat'
	DB	'e_Level0', 00H				; `string'
CONST	ENDS
;	COMDAT ??_C@_0CA@DLFJNCO@?4?4?2Data?2ExData?2MasterSkills?4ini?$AA@
CONST	SEGMENT
??_C@_0CA@DLFJNCO@?4?4?2Data?2ExData?2MasterSkills?4ini?$AA@ DB '..\Data\'
	DB	'ExData\MasterSkills.ini', 00H		; `string'
CONST	ENDS
;	COMDAT ??_C@_0BD@IJFPEJBE@SleepTimeMaxVsUser?$AA@
CONST	SEGMENT
??_C@_0BD@IJFPEJBE@SleepTimeMaxVsUser?$AA@ DB 'SleepTimeMaxVsUser', 00H ; `string'
CONST	ENDS
;	COMDAT ??_C@_0BD@NLBINCPE@SleepTimeDivVsUser?$AA@
CONST	SEGMENT
??_C@_0BD@NLBINCPE@SleepTimeDivVsUser?$AA@ DB 'SleepTimeDivVsUser', 00H ; `string'
CONST	ENDS
;	COMDAT ??_C@_0BF@GOCFFGAA@SleepTimeStartVsUser?$AA@
CONST	SEGMENT
??_C@_0BF@GOCFFGAA@SleepTimeStartVsUser?$AA@ DB 'SleepTimeStartVsUser', 00H ; `string'
CONST	ENDS
;	COMDAT ??_C@_0BC@PNLJFHCK@SleepTimeMaxVsMob?$AA@
CONST	SEGMENT
??_C@_0BC@PNLJFHCK@SleepTimeMaxVsMob?$AA@ DB 'SleepTimeMaxVsMob', 00H ; `string'
CONST	ENDS
;	COMDAT ??_C@_0BC@NCMAIBJJ@SleepTimeDivVsMob?$AA@
CONST	SEGMENT
??_C@_0BC@NCMAIBJJ@SleepTimeDivVsMob?$AA@ DB 'SleepTimeDivVsMob', 00H ; `string'
CONST	ENDS
;	COMDAT ??_C@_0BE@DPILEECE@SleepTimeStartVsMob?$AA@
CONST	SEGMENT
??_C@_0BE@DPILEECE@SleepTimeStartVsMob?$AA@ DB 'SleepTimeStartVsMob', 00H ; `string'
CONST	ENDS
;	COMDAT ??_C@_0BD@LKCPAGKC@SleepRateMaxVsUser?$AA@
CONST	SEGMENT
??_C@_0BD@LKCPAGKC@SleepRateMaxVsUser?$AA@ DB 'SleepRateMaxVsUser', 00H ; `string'
CONST	ENDS
;	COMDAT ??_C@_0BD@OIGIJNEC@SleepRateDivVsUser?$AA@
CONST	SEGMENT
??_C@_0BD@OIGIJNEC@SleepRateDivVsUser?$AA@ DB 'SleepRateDivVsUser', 00H ; `string'
CONST	ENDS
;	COMDAT ??_C@_0BF@DKNJDAEP@SleepRateStartVsUser?$AA@
CONST	SEGMENT
??_C@_0BF@DKNJDAEP@SleepRateStartVsUser?$AA@ DB 'SleepRateStartVsUser', 00H ; `string'
CONST	ENDS
;	COMDAT ??_C@_0BC@IOOLAEEH@SleepRateMaxVsMob?$AA@
CONST	SEGMENT
??_C@_0BC@IOOLAEEH@SleepRateMaxVsMob?$AA@ DB 'SleepRateMaxVsMob', 00H ; `string'
CONST	ENDS
;	COMDAT ??_C@_0BC@KBJCNCPE@SleepRateDivVsMob?$AA@
CONST	SEGMENT
??_C@_0BC@KBJCNCPE@SleepRateDivVsMob?$AA@ DB 'SleepRateDivVsMob', 00H ; `string'
CONST	ENDS
;	COMDAT ??_C@_0BE@BNLKCCNC@SleepRateStartVsMob?$AA@
CONST	SEGMENT
??_C@_0BE@BNLKCCNC@SleepRateStartVsMob?$AA@ DB 'SleepRateStartVsMob', 00H ; `string'
CONST	ENDS
;	COMDAT ??_C@_0BD@GFPKBGOG@InnovationMaxPower?$AA@
CONST	SEGMENT
??_C@_0BD@GFPKBGOG@InnovationMaxPower?$AA@ DB 'InnovationMaxPower', 00H ; `string'
CONST	ENDS
;	COMDAT ??_C@_0BI@DCLKMNFB@InnovationTimeMaxVsUser?$AA@
CONST	SEGMENT
??_C@_0BI@DCLKMNFB@InnovationTimeMaxVsUser?$AA@ DB 'InnovationTimeMaxVsUs'
	DB	'er', 00H					; `string'
CONST	ENDS
;	COMDAT ??_C@_0BI@GAPNFGLB@InnovationTimeDivVsUser?$AA@
CONST	SEGMENT
??_C@_0BI@GAPNFGLB@InnovationTimeDivVsUser?$AA@ DB 'InnovationTimeDivVsUs'
	DB	'er', 00H					; `string'
CONST	ENDS
;	COMDAT ??_C@_0BK@JPOBBJM@InnovationTimeStartVsUser?$AA@
CONST	SEGMENT
??_C@_0BK@JPOBBJM@InnovationTimeStartVsUser?$AA@ DB 'InnovationTimeStartV'
	DB	'sUser', 00H					; `string'
CONST	ENDS
;	COMDAT ??_C@_0BK@NJKLPIEC@InnovationEffectMaxVsUser?$AA@
CONST	SEGMENT
??_C@_0BK@NJKLPIEC@InnovationEffectMaxVsUser?$AA@ DB 'InnovationEffectMax'
	DB	'VsUser', 00H				; `string'
CONST	ENDS
;	COMDAT ??_C@_0BK@ILOMGDKC@InnovationEffectDivVsUser?$AA@
CONST	SEGMENT
??_C@_0BK@ILOMGDKC@InnovationEffectDivVsUser?$AA@ DB 'InnovationEffectDiv'
	DB	'VsUser', 00H				; `string'
CONST	ENDS
;	COMDAT ??_C@_0BM@DOKCHPDM@InnovationEffectStartVsUser?$AA@
CONST	SEGMENT
??_C@_0BM@DOKCHPDM@InnovationEffectStartVsUser?$AA@ DB 'InnovationEffectS'
	DB	'tartVsUser', 00H				; `string'
CONST	ENDS
;	COMDAT ??_C@_0BH@BDHKBBJP@InnovationTimeMaxVsMob?$AA@
CONST	SEGMENT
??_C@_0BH@BDHKBBJP@InnovationTimeMaxVsMob?$AA@ DB 'InnovationTimeMaxVsMob'
	DB	00H						; `string'
CONST	ENDS
;	COMDAT ??_C@_0BH@DMADMHCM@InnovationTimeDivVsMob?$AA@
CONST	SEGMENT
??_C@_0BH@DMADMHCM@InnovationTimeDivVsMob?$AA@ DB 'InnovationTimeDivVsMob'
	DB	00H						; `string'
CONST	ENDS
;	COMDAT ??_C@_0BJ@DJIGBELP@InnovationTimeStartVsMob?$AA@
CONST	SEGMENT
??_C@_0BJ@DJIGBELP@InnovationTimeStartVsMob?$AA@ DB 'InnovationTimeStartV'
	DB	'sMob', 00H					; `string'
CONST	ENDS
;	COMDAT ??_C@_0BJ@MHJDNFK@InnovationEffectMaxVsMob?$AA@
CONST	SEGMENT
??_C@_0BJ@MHJDNFK@InnovationEffectMaxVsMob?$AA@ DB 'InnovationEffectMaxVs'
	DB	'Mob', 00H					; `string'
CONST	ENDS
;	COMDAT ??_C@_0BJ@CDAAOLOJ@InnovationEffectDivVsMob?$AA@
CONST	SEGMENT
??_C@_0BJ@CDAAOLOJ@InnovationEffectDivVsMob?$AA@ DB 'InnovationEffectDivV'
	DB	'sMob', 00H					; `string'
CONST	ENDS
;	COMDAT ??_C@_0BL@LNNDEEFE@InnovationEffectStartVsMob?$AA@
CONST	SEGMENT
??_C@_0BL@LNNDEEFE@InnovationEffectStartVsMob?$AA@ DB 'InnovationEffectSt'
	DB	'artVsMob', 00H				; `string'
CONST	ENDS
;	COMDAT ??_C@_0BB@EHPNILIJ@WeaknessMaxPower?$AA@
CONST	SEGMENT
??_C@_0BB@EHPNILIJ@WeaknessMaxPower?$AA@ DB 'WeaknessMaxPower', 00H ; `string'
CONST	ENDS
;	COMDAT ??_C@_0BG@MEAPEEBB@WeaknessTimeMaxVsUser?$AA@
CONST	SEGMENT
??_C@_0BG@MEAPEEBB@WeaknessTimeMaxVsUser?$AA@ DB 'WeaknessTimeMaxVsUser', 00H ; `string'
CONST	ENDS
;	COMDAT ??_C@_0BG@JGEINPPB@WeaknessTimeDivVsUser?$AA@
CONST	SEGMENT
??_C@_0BG@JGEINPPB@WeaknessTimeDivVsUser?$AA@ DB 'WeaknessTimeDivVsUser', 00H ; `string'
CONST	ENDS
;	COMDAT ??_C@_0BI@GNODJDKI@WeaknessTimeStartVsUser?$AA@
CONST	SEGMENT
??_C@_0BI@GNODJDKI@WeaknessTimeStartVsUser?$AA@ DB 'WeaknessTimeStartVsUs'
	DB	'er', 00H					; `string'
CONST	ENDS
;	COMDAT ??_C@_0BI@LNLGHKHG@WeaknessEffectMaxVsUser?$AA@
CONST	SEGMENT
??_C@_0BI@LNLGHKHG@WeaknessEffectMaxVsUser?$AA@ DB 'WeaknessEffectMaxVsUs'
	DB	'er', 00H					; `string'
CONST	ENDS
;	COMDAT ??_C@_0BI@OPPBOBJG@WeaknessEffectDivVsUser?$AA@
CONST	SEGMENT
??_C@_0BI@OPPBOBJG@WeaknessEffectDivVsUser?$AA@ DB 'WeaknessEffectDivVsUs'
	DB	'er', 00H					; `string'
CONST	ENDS
;	COMDAT ??_C@_0BK@IGDOAKNK@WeaknessEffectStartVsUser?$AA@
CONST	SEGMENT
??_C@_0BK@IGDOAKNK@WeaknessEffectStartVsUser?$AA@ DB 'WeaknessEffectStart'
	DB	'VsUser', 00H				; `string'
CONST	ENDS
;	COMDAT ??_C@_0BF@BPNFAKEK@WeaknessTimeMaxVsMob?$AA@
CONST	SEGMENT
??_C@_0BF@BPNFAKEK@WeaknessTimeMaxVsMob?$AA@ DB 'WeaknessTimeMaxVsMob', 00H ; `string'
CONST	ENDS
;	COMDAT ??_C@_0BF@DAKMNMPJ@WeaknessTimeDivVsMob?$AA@
CONST	SEGMENT
??_C@_0BF@DAKMNMPJ@WeaknessTimeDivVsMob?$AA@ DB 'WeaknessTimeDivVsMob', 00H ; `string'
CONST	ENDS
;	COMDAT ??_C@_0BH@EPKMOAKG@WeaknessTimeStartVsMob?$AA@
CONST	SEGMENT
??_C@_0BH@EPKMOAKG@WeaknessTimeStartVsMob?$AA@ DB 'WeaknessTimeStartVsMob'
	DB	00H						; `string'
CONST	ENDS
;	COMDAT ??_C@_0BH@HKFDMJED@WeaknessEffectMaxVsMob?$AA@
CONST	SEGMENT
??_C@_0BH@HKFDMJED@WeaknessEffectMaxVsMob?$AA@ DB 'WeaknessEffectMaxVsMob'
	DB	00H						; `string'
CONST	ENDS
;	COMDAT ??_C@_0BH@FFCKBPPA@WeaknessEffectDivVsMob?$AA@
CONST	SEGMENT
??_C@_0BH@FFCKBPPA@WeaknessEffectDivVsMob?$AA@ DB 'WeaknessEffectDivVsMob'
	DB	00H						; `string'
CONST	ENDS
;	COMDAT ??_C@_0BJ@JMADKNGD@WeaknessEffectStartVsMob?$AA@
CONST	SEGMENT
??_C@_0BJ@JMADKNGD@WeaknessEffectStartVsMob?$AA@ DB 'WeaknessEffectStartV'
	DB	'sMob', 00H					; `string'
CONST	ENDS
;	COMDAT ??_C@_0BF@PHKBFGGL@IncreaseBlockTimeMax?$AA@
CONST	SEGMENT
??_C@_0BF@PHKBFGGL@IncreaseBlockTimeMax?$AA@ DB 'IncreaseBlockTimeMax', 00H ; `string'
CONST	ENDS
;	COMDAT ??_C@_0BF@BKDJGFNH@IncreaseBlockTimeDiv?$AA@
CONST	SEGMENT
??_C@_0BF@BKDJGFNH@IncreaseBlockTimeDiv?$AA@ DB 'IncreaseBlockTimeDiv', 00H ; `string'
CONST	ENDS
;	COMDAT ??_C@_0BH@KEOKNCMM@IncreaseBlockTimeStart?$AA@
CONST	SEGMENT
??_C@_0BH@KEOKNCMM@IncreaseBlockTimeStart?$AA@ DB 'IncreaseBlockTimeStart'
	DB	00H						; `string'
CONST	ENDS
;	COMDAT ??_C@_0BH@LCBOKOJD@IncreaseBlockEffectMax?$AA@
CONST	SEGMENT
??_C@_0BH@LCBOKOJD@IncreaseBlockEffectMax?$AA@ DB 'IncreaseBlockEffectMax'
	DB	00H						; `string'
CONST	ENDS
;	COMDAT ??_C@_0BH@FPIGJNCP@IncreaseBlockEffectDiv?$AA@
CONST	SEGMENT
??_C@_0BH@FPIGJNCP@IncreaseBlockEffectDiv?$AA@ DB 'IncreaseBlockEffectDiv'
	DB	00H						; `string'
CONST	ENDS
;	COMDAT ??_C@_0BH@KJNKHPEI@IncreaseBlockEffectSub?$AA@
CONST	SEGMENT
??_C@_0BH@KJNKHPEI@IncreaseBlockEffectSub?$AA@ DB 'IncreaseBlockEffectSub'
	DB	00H						; `string'
CONST	ENDS
;	COMDAT ??_C@_0BJ@MLOJIGOI@IncreaseBlockEffectStart?$AA@
CONST	SEGMENT
??_C@_0BJ@MLOJIGOI@IncreaseBlockEffectStart?$AA@ DB 'IncreaseBlockEffectS'
	DB	'tart', 00H					; `string'
CONST	ENDS
;	COMDAT ??_C@_0BG@CMMPIBO@IncreaseHealthTimeMax?$AA@
CONST	SEGMENT
??_C@_0BG@CMMPIBO@IncreaseHealthTimeMax?$AA@ DB 'IncreaseHealthTimeMax', 00H ; `string'
CONST	ENDS
;	COMDAT ??_C@_0BG@OPFEMLKC@IncreaseHealthTimeDiv?$AA@
CONST	SEGMENT
??_C@_0BG@OPFEMLKC@IncreaseHealthTimeDiv?$AA@ DB 'IncreaseHealthTimeDiv', 00H ; `string'
CONST	ENDS
;	COMDAT ??_C@_0BI@MHMMCEPN@IncreaseHealthTimeStart?$AA@
CONST	SEGMENT
??_C@_0BI@MHMMCEPN@IncreaseHealthTimeStart?$AA@ DB 'IncreaseHealthTimeSta'
	DB	'rt', 00H					; `string'
CONST	ENDS
;	COMDAT ??_C@_0BI@NBDIFIKC@IncreaseHealthEffectMax?$AA@
CONST	SEGMENT
??_C@_0BI@NBDIFIKC@IncreaseHealthEffectMax?$AA@ DB 'IncreaseHealthEffectM'
	DB	'ax', 00H					; `string'
CONST	ENDS
;	COMDAT ??_C@_0BG@MPJHCBCJ@DecTimePerAttackSpeed?$AA@
CONST	SEGMENT
??_C@_0BG@MPJHCBCJ@DecTimePerAttackSpeed?$AA@ DB 'DecTimePerAttackSpeed', 00H ; `string'
CONST	ENDS
;	COMDAT ??_C@_02PKFBJPLJ@10?$AA@
CONST	SEGMENT
??_C@_02PKFBJPLJ@10?$AA@ DB '10', 00H			; `string'
CONST	ENDS
;	COMDAT ??_C@_0BI@MKPMIJHJ@IncreaseHealthEffectSub?$AA@
CONST	SEGMENT
??_C@_0BI@MKPMIJHJ@IncreaseHealthEffectSub?$AA@ DB 'IncreaseHealthEffectS'
	DB	'ub', 00H					; `string'
CONST	ENDS
;	COMDAT ??_C@_0BK@FJGKLFFF@IncreaseHealthEffectStart?$AA@
CONST	SEGMENT
??_C@_0BK@FJGKLFFF@IncreaseHealthEffectStart?$AA@ DB 'IncreaseHealthEffec'
	DB	'tStart', 00H				; `string'
CONST	ENDS
;	COMDAT ??_C@_0BF@JBOGCBGB@IgnoreDefenseTimeMax?$AA@
CONST	SEGMENT
??_C@_0BF@JBOGCBGB@IgnoreDefenseTimeMax?$AA@ DB 'IgnoreDefenseTimeMax', 00H ; `string'
CONST	ENDS
;	COMDAT ??_C@_0BF@HMHOBCNN@IgnoreDefenseTimeDiv?$AA@
CONST	SEGMENT
??_C@_0BF@HMHOBCNN@IgnoreDefenseTimeDiv?$AA@ DB 'IgnoreDefenseTimeDiv', 00H ; `string'
CONST	ENDS
;	COMDAT ??_C@_0BH@JAGELIJO@IgnoreDefenseTimeStart?$AA@
CONST	SEGMENT
??_C@_0BH@JAGELIJO@IgnoreDefenseTimeStart?$AA@ DB 'IgnoreDefenseTimeStart'
	DB	00H						; `string'
CONST	ENDS
;	COMDAT ??_C@_0BH@IGJAMEMB@IgnoreDefenseEffectMax?$AA@
CONST	SEGMENT
??_C@_0BH@IGJAMEMB@IgnoreDefenseEffectMax?$AA@ DB 'IgnoreDefenseEffectMax'
	DB	00H						; `string'
CONST	ENDS
;	COMDAT ??_C@_0BH@GLAIPHHN@IgnoreDefenseEffectDiv?$AA@
CONST	SEGMENT
??_C@_0BH@GLAIPHHN@IgnoreDefenseEffectDiv?$AA@ DB 'IgnoreDefenseEffectDiv'
	DB	00H						; `string'
CONST	ENDS
;	COMDAT ??_C@_0BH@JNFEBFBK@IgnoreDefenseEffectSub?$AA@
CONST	SEGMENT
??_C@_0BH@JNFEBFBK@IgnoreDefenseEffectSub?$AA@ DB 'IgnoreDefenseEffectSub'
	DB	00H						; `string'
CONST	ENDS
;	COMDAT ??_C@_0BJ@OOADAFPG@IgnoreDefenseEffectStart?$AA@
CONST	SEGMENT
??_C@_0BJ@OOADAFPG@IgnoreDefenseEffectStart?$AA@ DB 'IgnoreDefenseEffectS'
	DB	'tart', 00H					; `string'
CONST	ENDS
;	COMDAT ??_C@_0P@NOGILJJP@ReflectTimeMax?$AA@
CONST	SEGMENT
??_C@_0P@NOGILJJP@ReflectTimeMax?$AA@ DB 'ReflectTimeMax', 00H ; `string'
CONST	ENDS
;	COMDAT ??_C@_0P@DDPAIKCD@ReflectTimeDiv?$AA@
CONST	SEGMENT
??_C@_0P@DDPAIKCD@ReflectTimeDiv?$AA@ DB 'ReflectTimeDiv', 00H ; `string'
CONST	ENDS
;	COMDAT ??_C@_0BB@OEIPCAFF@ReflectTimeStart?$AA@
CONST	SEGMENT
??_C@_0BB@OEIPCAFF@ReflectTimeStart?$AA@ DB 'ReflectTimeStart', 00H ; `string'
CONST	ENDS
;	COMDAT ??_C@_0BB@PCHLFMAK@ReflectEffectMax?$AA@
CONST	SEGMENT
??_C@_0BB@PCHLFMAK@ReflectEffectMax?$AA@ DB 'ReflectEffectMax', 00H ; `string'
CONST	ENDS
;	COMDAT ??_C@_0BB@BPODGPLG@ReflectEffectDiv?$AA@
CONST	SEGMENT
??_C@_0BB@BPODGPLG@ReflectEffectDiv?$AA@ DB 'ReflectEffectDiv', 00H ; `string'
CONST	ENDS
;	COMDAT ??_C@_0BD@DINJGEOO@ReflectEffectStart?$AA@
CONST	SEGMENT
??_C@_0BD@DINJGEOO@ReflectEffectStart?$AA@ DB 'ReflectEffectStart', 00H ; `string'
CONST	ENDS
;	COMDAT ??_C@_0BL@OBKCINOG@BerserkerDefenceDivProcent?$AA@
CONST	SEGMENT
??_C@_0BL@OBKCINOG@BerserkerDefenceDivProcent?$AA@ DB 'BerserkerDefenceDi'
	DB	'vProcent', 00H				; `string'
CONST	ENDS
;	COMDAT ??_C@_0BK@MKJOKFKE@BerserkerProcentDamageMax?$AA@
CONST	SEGMENT
??_C@_0BK@MKJOKFKE@BerserkerProcentDamageMax?$AA@ DB 'BerserkerProcentDam'
	DB	'ageMax', 00H				; `string'
CONST	ENDS
;	COMDAT ??_C@_0BB@GIBCNHME@BerserkerTimeMax?$AA@
CONST	SEGMENT
??_C@_0BB@GIBCNHME@BerserkerTimeMax?$AA@ DB 'BerserkerTimeMax', 00H ; `string'
CONST	ENDS
;	COMDAT ??_C@_0BB@IFIKOEHI@BerserkerTimeDiv?$AA@
CONST	SEGMENT
??_C@_0BB@IFIKOEHI@BerserkerTimeDiv?$AA@ DB 'BerserkerTimeDiv', 00H ; `string'
CONST	ENDS
;	COMDAT ??_C@_0BD@BHMKFOOP@BerserkerTimeStart?$AA@
CONST	SEGMENT
??_C@_0BD@BHMKFOOP@BerserkerTimeStart?$AA@ DB 'BerserkerTimeStart', 00H ; `string'
CONST	ENDS
;	COMDAT ??_C@_0BE@OCKOHNE@BerserkerLifeDecDiv?$AA@
CONST	SEGMENT
??_C@_0BE@OCKOHNE@BerserkerLifeDecDiv?$AA@ DB 'BerserkerLifeDecDiv', 00H ; `string'
CONST	ENDS
;	COMDAT ??_C@_0BE@OIPBEFAB@BerserkerManaIncDiv?$AA@
CONST	SEGMENT
??_C@_0BE@OIPBEFAB@BerserkerManaIncDiv?$AA@ DB 'BerserkerManaIncDiv', 00H ; `string'
CONST	ENDS
;	COMDAT ??_C@_0BG@OFMNGAEM@CriticalDamageTimeMax?$AA@
CONST	SEGMENT
??_C@_0BG@OFMNGAEM@CriticalDamageTimeMax?$AA@ DB 'CriticalDamageTimeMax', 00H ; `string'
CONST	ENDS
;	COMDAT ??_C@_0BG@IFFFDPA@CriticalDamageTimeDiv?$AA@
CONST	SEGMENT
??_C@_0BG@IFFFDPA@CriticalDamageTimeDiv?$AA@ DB 'CriticalDamageTimeDiv', 00H ; `string'
CONST	ENDS
;	COMDAT ??_C@_0BI@LBJFOHFM@CriticalDamageTimeStart?$AA@
CONST	SEGMENT
??_C@_0BI@LBJFOHFM@CriticalDamageTimeStart?$AA@ DB 'CriticalDamageTimeSta'
	DB	'rt', 00H					; `string'
CONST	ENDS
;	COMDAT ??_C@_0BI@KHGBJLAD@CriticalDamageEffectMax?$AA@
CONST	SEGMENT
??_C@_0BI@KHGBJLAD@CriticalDamageEffectMax?$AA@ DB 'CriticalDamageEffectM'
	DB	'ax', 00H					; `string'
CONST	ENDS
;	COMDAT ??_C@_0BJ@LGOEADME@CriticalDamageEffectDiv2?$AA@
CONST	SEGMENT
??_C@_0BJ@LGOEADME@CriticalDamageEffectDiv2?$AA@ DB 'CriticalDamageEffect'
	DB	'Div2', 00H					; `string'
CONST	ENDS
;	COMDAT ??_C@_0BJ@JNMJFAAH@CriticalDamageEffectDiv1?$AA@
CONST	SEGMENT
??_C@_0BJ@JNMJFAAH@CriticalDamageEffectDiv1?$AA@ DB 'CriticalDamageEffect'
	DB	'Div1', 00H					; `string'
CONST	ENDS
;	COMDAT ??_C@_0O@OKEHNLCK@ElfAttackTime?$AA@
CONST	SEGMENT
??_C@_0O@OKEHNLCK@ElfAttackTime?$AA@ DB 'ElfAttackTime', 00H ; `string'
CONST	ENDS
;	COMDAT ??_C@_0BD@KEGAFJLN@ElfAttackEffectMax?$AA@
CONST	SEGMENT
??_C@_0BD@KEGAFJLN@ElfAttackEffectMax?$AA@ DB 'ElfAttackEffectMax', 00H ; `string'
CONST	ENDS
;	COMDAT ??_C@_0BD@EJPIGKAB@ElfAttackEffectDiv?$AA@
CONST	SEGMENT
??_C@_0BD@EJPIGKAB@ElfAttackEffectDiv?$AA@ DB 'ElfAttackEffectDiv', 00H ; `string'
CONST	ENDS
;	COMDAT ??_C@_0BE@JJIEGOBK@ElfAttackEffectFact?$AA@
CONST	SEGMENT
??_C@_0BE@JJIEGOBK@ElfAttackEffectFact?$AA@ DB 'ElfAttackEffectFact', 00H ; `string'
CONST	ENDS
;	COMDAT ??_C@_0P@JCGFNEIF@ElfDefenseTime?$AA@
CONST	SEGMENT
??_C@_0P@JCGFNEIF@ElfDefenseTime?$AA@ DB 'ElfDefenseTime', 00H ; `string'
CONST	ENDS
;	COMDAT ??_C@_0BE@NCFLCANM@ElfDefenseEffectMax?$AA@
CONST	SEGMENT
??_C@_0BE@NCFLCANM@ElfDefenseEffectMax?$AA@ DB 'ElfDefenseEffectMax', 00H ; `string'
CONST	ENDS
;	COMDAT ??_C@_0BE@DPMDBDGA@ElfDefenseEffectDiv?$AA@
CONST	SEGMENT
??_C@_0BE@DPMDBDGA@ElfDefenseEffectDiv?$AA@ DB 'ElfDefenseEffectDiv', 00H ; `string'
CONST	ENDS
;	COMDAT ??_C@_0BF@KDEHAEKN@ElfDefenseEffectFact?$AA@
CONST	SEGMENT
??_C@_0BF@KDEHAEKN@ElfDefenseEffectFact?$AA@ DB 'ElfDefenseEffectFact', 00H ; `string'
CONST	ENDS
;	COMDAT ??_C@_0BB@HHFAEEEA@SwellLifeTimeMax?$AA@
CONST	SEGMENT
??_C@_0BB@HHFAEEEA@SwellLifeTimeMax?$AA@ DB 'SwellLifeTimeMax', 00H ; `string'
CONST	ENDS
;	COMDAT ??_C@_0BB@JKMIHHPM@SwellLifeTimeDiv?$AA@
CONST	SEGMENT
??_C@_0BB@JKMIHHPM@SwellLifeTimeDiv?$AA@ DB 'SwellLifeTimeDiv', 00H ; `string'
CONST	ENDS
;	COMDAT ??_C@_0BD@CBCDNOBM@SwellLifeTimeStart?$AA@
CONST	SEGMENT
??_C@_0BD@CBCDNOBM@SwellLifeTimeStart?$AA@ DB 'SwellLifeTimeStart', 00H ; `string'
CONST	ENDS
;	COMDAT ??_C@_0BD@DHNHKCED@SwellLifeEffectMax?$AA@
CONST	SEGMENT
??_C@_0BD@DHNHKCED@SwellLifeEffectMax?$AA@ DB 'SwellLifeEffectMax', 00H ; `string'
CONST	ENDS
;	COMDAT ??_C@_0BE@MAKIPEGN@SwellLifeEffectDiv2?$AA@
CONST	SEGMENT
??_C@_0BE@MAKIPEGN@SwellLifeEffectDiv2?$AA@ DB 'SwellLifeEffectDiv2', 00H ; `string'
CONST	ENDS
;	COMDAT ??_C@_0BE@OLIFKHKO@SwellLifeEffectDiv1?$AA@
CONST	SEGMENT
??_C@_0BE@OLIFKHKO@SwellLifeEffectDiv1?$AA@ DB 'SwellLifeEffectDiv1', 00H ; `string'
CONST	ENDS
;	COMDAT ??_C@_0BF@EDGHIKBF@SwellLifeEffectStart?$AA@
CONST	SEGMENT
??_C@_0BF@EDGHIKBF@SwellLifeEffectStart?$AA@ DB 'SwellLifeEffectStart', 00H ; `string'
CONST	ENDS
;	COMDAT ??_C@_0BE@LJPJLIP@WizardryEnchantTime?$AA@
CONST	SEGMENT
??_C@_0BE@LJPJLIP@WizardryEnchantTime?$AA@ DB 'WizardryEnchantTime', 00H ; `string'
CONST	ENDS
;	COMDAT ??_C@_0BJ@KHNLHFNF@WizardryEnchantDamageMax?$AA@
CONST	SEGMENT
??_C@_0BJ@KHNLHFNF@WizardryEnchantDamageMax?$AA@ DB 'WizardryEnchantDamag'
	DB	'eMax', 00H					; `string'
CONST	ENDS
;	COMDAT ??_C@_02NJPGOMH@?$CFf?$AA@
CONST	SEGMENT
??_C@_02NJPGOMH@?$CFf?$AA@ DB '%f', 00H			; `string'
CONST	ENDS
;	COMDAT ??_C@_0BK@NKOODMFM@WizardryEnchantDamageFact?$AA@
CONST	SEGMENT
??_C@_0BK@NKOODMFM@WizardryEnchantDamageFact?$AA@ DB 'WizardryEnchantDama'
	DB	'geFact', 00H				; `string'
CONST	ENDS
;	COMDAT ??_C@_03PBDDOHNJ@0?42?$AA@
CONST	SEGMENT
??_C@_03PBDDOHNJ@0?42?$AA@ DB '0.2', 00H		; `string'
CONST	ENDS
;	COMDAT ??_C@_0BJ@EKEDEGGJ@WizardryEnchantDamageDiv?$AA@
CONST	SEGMENT
??_C@_0BJ@EKEDEGGJ@WizardryEnchantDamageDiv?$AA@ DB 'WizardryEnchantDamag'
	DB	'eDiv', 00H					; `string'
CONST	ENDS
;	COMDAT ??_C@_0BD@IJCFELOE@SoulBarrierTimeMax?$AA@
CONST	SEGMENT
??_C@_0BD@IJCFELOE@SoulBarrierTimeMax?$AA@ DB 'SoulBarrierTimeMax', 00H ; `string'
CONST	ENDS
;	COMDAT ??_C@_0BD@GELNHIFI@SoulBarrierTimeDiv?$AA@
CONST	SEGMENT
??_C@_0BD@GELNHIFI@SoulBarrierTimeDiv?$AA@ DB 'SoulBarrierTimeDiv', 00H ; `string'
CONST	ENDS
;	COMDAT ??_C@_0BF@HLPHEEBF@SoulBarrierTimeStart?$AA@
CONST	SEGMENT
??_C@_0BF@HLPHEEBF@SoulBarrierTimeStart?$AA@ DB 'SoulBarrierTimeStart', 00H ; `string'
CONST	ENDS
;	COMDAT ??_C@_0BG@CPELIBEP@SoulBarrierDefenseMax?$AA@
CONST	SEGMENT
??_C@_0BG@CPELIBEP@SoulBarrierDefenseMax?$AA@ DB 'SoulBarrierDefenseMax', 00H ; `string'
CONST	ENDS
;	COMDAT ??_C@_0BH@MJAGCEGF@SoulBarrierDefenseDiv2?$AA@
CONST	SEGMENT
??_C@_0BH@MJAGCEGF@SoulBarrierDefenseDiv2?$AA@ DB 'SoulBarrierDefenseDiv2'
	DB	00H						; `string'
CONST	ENDS
;	COMDAT ??_C@_0BH@OCCLHHKG@SoulBarrierDefenseDiv1?$AA@
CONST	SEGMENT
??_C@_0BH@OCCLHHKG@SoulBarrierDefenseDiv1?$AA@ DB 'SoulBarrierDefenseDiv1'
	DB	00H						; `string'
CONST	ENDS
;	COMDAT ??_C@_05OEGOMMDP@Skill?$AA@
CONST	SEGMENT
??_C@_05OEGOMMDP@Skill?$AA@ DB 'Skill', 00H		; `string'
CONST	ENDS
;	COMDAT ??_C@_0BI@ENLFKMPH@SoulBarrierDefenseStart?$AA@
CONST	SEGMENT
??_C@_0BI@ENLFKMPH@SoulBarrierDefenseStart?$AA@ DB 'SoulBarrierDefenseSta'
	DB	'rt', 00H					; `string'
CONST	ENDS
;	COMDAT ??_C@_0BK@EKJAJELJ@?4?4?2Data?2ExData?2Skills?4ini?$AA@
CONST	SEGMENT
??_C@_0BK@EKJAJELJ@?4?4?2Data?2ExData?2Skills?4ini?$AA@ DB '..\Data\ExDat'
	DB	'a\Skills.ini', 00H				; `string'
CONST	ENDS
;	COMDAT ??_C@_0JB@FKMAEBOB@?$FLSkill?5Addition?5Info?$FN?5?$FLFire?5Scre@
CONST	SEGMENT
??_C@_0JB@FKMAEBOB@?$FLSkill?5Addition?5Info?$FN?5?$FLFire?5Scre@ DB '[Sk'
	DB	'ill Addition Info] [Fire Scream] Use(%d) : Explosion Distance'
	DB	'(%d) - Rate(%d), MaxAttack_SameSerial(%d), SerialInitCount(%d'
	DB	'), Check Serial(%d)', 00H			; `string'
CONST	ENDS
;	COMDAT ??_C@_0BG@PJAAPPCH@CheckFireScreamSerial?$AA@
CONST	SEGMENT
??_C@_0BG@PJAAPPCH@CheckFireScreamSerial?$AA@ DB 'CheckFireScreamSerial', 00H ; `string'
CONST	ENDS
;	COMDAT ??_C@_0BK@KNFOPFKG@FireScreamSerialInitCount?$AA@
CONST	SEGMENT
??_C@_0BK@KNFOPFKG@FireScreamSerialInitCount?$AA@ DB 'FireScreamSerialIni'
	DB	'tCount', 00H				; `string'
CONST	ENDS
;	COMDAT ??_C@_0CD@IEHCMBMN@FireScreamMaxAttackCountSameSeri@
CONST	SEGMENT
??_C@_0CD@IEHCMBMN@FireScreamMaxAttackCountSameSeri@ DB 'FireScreamMaxAtt'
	DB	'ackCountSameSerial', 00H			; `string'
CONST	ENDS
;	COMDAT ??_C@_0BI@BFNBGAPD@FireScreamExplosionRate?$AA@
CONST	SEGMENT
??_C@_0BI@BFNBGAPD@FireScreamExplosionRate?$AA@ DB 'FireScreamExplosionRa'
	DB	'te', 00H					; `string'
CONST	ENDS
;	COMDAT ??_C@_0CC@CACJLIIP@FireScreamExplosionAttackDistanc@
CONST	SEGMENT
??_C@_0CC@CACJLIIP@FireScreamExplosionAttackDistanc@ DB 'FireScreamExplos'
	DB	'ionAttackDistance', 00H			; `string'
CONST	ENDS
;	COMDAT ??_C@_0BA@HINCJBHF@FireScreamSkill?$AA@
CONST	SEGMENT
??_C@_0BA@HINCJBHF@FireScreamSkill?$AA@ DB 'FireScreamSkill', 00H ; `string'
CONST	ENDS
;	COMDAT ??_C@_0HG@MDBPHHOC@?$FLSkill?5Addition?5Info?$FN?5?$FLInfinity?5@
CONST	SEGMENT
??_C@_0HG@MDBPHHOC@?$FLSkill?5Addition?5Info?$FN?5?$FLInfinity?5@ DB '[Sk'
	DB	'ill Addition Info] [Infinity Arrow] Skill Time[%d], UseLevel['
	DB	'%d], Arrow MP Consumption +0[%d] +1[%d] +2[%d] +3[%d]', 00H ; `string'
CONST	ENDS
;	COMDAT ??_C@_0CB@KPCFCAAL@InfinityArraowMPConsumptionPlus3@
CONST	SEGMENT
??_C@_0CB@KPCFCAAL@InfinityArraowMPConsumptionPlus3@ DB 'InfinityArraowMP'
	DB	'ConsumptionPlus3', 00H			; `string'
CONST	ENDS
;	COMDAT ??_C@_0CB@JNBDECIJ@InfinityArraowMPConsumptionPlus1@
CONST	SEGMENT
??_C@_0CB@JNBDECIJ@InfinityArraowMPConsumptionPlus1@ DB 'InfinityArraowMP'
	DB	'ConsumptionPlus1', 00H			; `string'
CONST	ENDS
;	COMDAT ??_C@_0CB@IEAIHDMI@InfinityArraowMPConsumptionPlus0@
CONST	SEGMENT
??_C@_0CB@IEAIHDMI@InfinityArraowMPConsumptionPlus0@ DB 'InfinityArraowMP'
	DB	'ConsumptionPlus0', 00H			; `string'
CONST	ENDS
;	COMDAT ??_C@_0BG@DADLDHMB@InfinityArrowUseLevel?$AA@
CONST	SEGMENT
??_C@_0BG@DADLDHMB@InfinityArrowUseLevel?$AA@ DB 'InfinityArrowUseLevel', 00H ; `string'
CONST	ENDS
;	COMDAT ??_C@_09EMMBJNGJ@SkillInfo?$AA@
CONST	SEGMENT
??_C@_09EMMBJNGJ@SkillInfo?$AA@ DB 'SkillInfo', 00H	; `string'
CONST	ENDS
;	COMDAT ??_C@_0BH@KBNHBCCN@InfinityArrowSkillTime?$AA@
CONST	SEGMENT
??_C@_0BH@KBNHBCCN@InfinityArrowSkillTime?$AA@ DB 'InfinityArrowSkillTime'
	DB	00H						; `string'
CONST	ENDS
;	COMDAT ??_C@_03JBJLGPFL@end?$AA@
CONST	SEGMENT
??_C@_03JBJLGPFL@end?$AA@ DB 'end', 00H			; `string'
CONST	ENDS
;	COMDAT ??_C@_01KDCPPGHE@r?$AA@
CONST	SEGMENT
??_C@_01KDCPPGHE@r?$AA@ DB 'r', 00H			; `string'
CONST	ENDS
;	COMDAT ??_C@_0DK@MKBKHGKF@?$FLSkill?5Addition?5Info?$FN?5?9?5File?5loa@
CONST	SEGMENT
??_C@_0DK@MKBKHGKF@?$FLSkill?5Addition?5Info?$FN?5?9?5File?5loa@ DB '[Ski'
	DB	'll Addition Info] - File load error : File Name Error', 00H ; `string'
CONST	ENDS
;	COMDAT ??_C@_00CNPNBAHC@?$AA@
CONST	SEGMENT
??_C@_00CNPNBAHC@?$AA@ DB 00H				; `string'
; Function compile flags: /Odtp /ZI
CONST	ENDS
_TEXT	SEGMENT
_szTempEx$ = -1044					; size = 256
_szFloat$ = -788					; size = 256
_oszTempEx$ = -532					; size = 256
_oszFloat$ = -276					; size = 256
_Level$227398 = -20					; size = 4
_SkillID$227397 = -16					; size = 4
_Token$ = -12						; size = 4
_this$ = -8						; size = 4
__$ArrayPad$ = -4					; size = 4
_lpszFileName$ = 8					; size = 4
?Load@CSkillAdditionInfo@@QAEHPAD@Z PROC		; CSkillAdditionInfo::Load
; _this$ = ecx

; 46   : {

  000e0	55		 push	 ebp
  000e1	8b ec		 mov	 ebp, esp
  000e3	81 ec 54 04 00
	00		 sub	 esp, 1108		; 00000454H
  000e9	a1 00 00 00 00	 mov	 eax, DWORD PTR ___security_cookie
  000ee	33 c5		 xor	 eax, ebp
  000f0	89 45 fc	 mov	 DWORD PTR __$ArrayPad$[ebp], eax
  000f3	53		 push	 ebx
  000f4	56		 push	 esi
  000f5	57		 push	 edi
  000f6	89 4d f8	 mov	 DWORD PTR _this$[ebp], ecx

; 47   : 	if ( lpszFileName == NULL || strcmp(lpszFileName, "") == 0 )

  000f9	83 7d 08 00	 cmp	 DWORD PTR _lpszFileName$[ebp], 0
  000fd	74 15		 je	 SHORT $LN8@Load
  000ff	68 00 00 00 00	 push	 OFFSET ??_C@_00CNPNBAHC@?$AA@
  00104	8b 45 08	 mov	 eax, DWORD PTR _lpszFileName$[ebp]
  00107	50		 push	 eax
  00108	e8 00 00 00 00	 call	 _strcmp
  0010d	83 c4 08	 add	 esp, 8
  00110	85 c0		 test	 eax, eax
  00112	75 15		 jne	 SHORT $LN9@Load
$LN8@Load:

; 48   : 	{
; 49   : 		LogAddTD("[Skill Addition Info] - File load error : File Name Error");

  00114	68 00 00 00 00	 push	 OFFSET ??_C@_0DK@MKBKHGKF@?$FLSkill?5Addition?5Info?$FN?5?9?5File?5loa@
  00119	ff 15 00 00 00
	00		 call	 DWORD PTR ?LogAddTD@@3P6AXPADZZA ; LogAddTD
  0011f	83 c4 04	 add	 esp, 4

; 50   : 		return FALSE;

  00122	33 c0		 xor	 eax, eax
  00124	e9 38 1f 00 00	 jmp	 $LN10@Load
$LN9@Load:

; 51   : 	}
; 52   : 
; 53   : 	int Token;
; 54   : 	this->Init();

  00129	8b 4d f8	 mov	 ecx, DWORD PTR _this$[ebp]
  0012c	e8 00 00 00 00	 call	 ?Init@CSkillAdditionInfo@@QAEXXZ ; CSkillAdditionInfo::Init

; 55   : 	// ----
; 56   : 	SMDFile = fopen(gDirPath.GetNewPath(lpszFileName), "r");

  00131	68 00 00 00 00	 push	 OFFSET ??_C@_01KDCPPGHE@r?$AA@
  00136	8b 45 08	 mov	 eax, DWORD PTR _lpszFileName$[ebp]
  00139	50		 push	 eax
  0013a	b9 00 00 00 00	 mov	 ecx, OFFSET ?gDirPath@@3VCDirPath@@A ; gDirPath
  0013f	e8 00 00 00 00	 call	 ?GetNewPath@CDirPath@@QAEPADPAD@Z ; CDirPath::GetNewPath
  00144	50		 push	 eax
  00145	e8 00 00 00 00	 call	 _fopen
  0014a	83 c4 08	 add	 esp, 8
  0014d	a3 00 00 00 00	 mov	 DWORD PTR _SMDFile, eax

; 57   : 	// ----
; 58   : 	if( SMDFile == 0 )

  00152	83 3d 00 00 00
	00 00		 cmp	 DWORD PTR _SMDFile, 0
  00159	75 28		 jne	 SHORT $LN7@Load

; 59   : 	{
; 60   : 		MsgBox(lMsg.Get(MSGGET(0, 112)), lpszFileName);

  0015b	8b 45 08	 mov	 eax, DWORD PTR _lpszFileName$[ebp]
  0015e	50		 push	 eax
  0015f	6a 70		 push	 112			; 00000070H
  00161	b9 00 00 00 00	 mov	 ecx, OFFSET ?lMsg@@3VCMsg@@A ; lMsg
  00166	e8 00 00 00 00	 call	 ?Get@CMsg@@QAEPADH@Z	; CMsg::Get
  0016b	50		 push	 eax
  0016c	e8 00 00 00 00	 call	 ?MsgBox@@YAXPADZZ	; MsgBox
  00171	83 c4 08	 add	 esp, 8

; 61   : 		ExitProcess(0);

  00174	6a 00		 push	 0
  00176	ff 15 00 00 00
	00		 call	 DWORD PTR __imp__ExitProcess@4

; 62   : 		return false;

  0017c	33 c0		 xor	 eax, eax
  0017e	e9 de 1e 00 00	 jmp	 $LN10@Load
$LN7@Load:

; 63   : 	}
; 64   : 	// ----
; 65   : 	while(true) 

  00183	b8 01 00 00 00	 mov	 eax, 1
  00188	85 c0		 test	 eax, eax
  0018a	74 68		 je	 SHORT $LN5@Load

; 66   : 	{
; 67   : 		Token = GetToken();

  0018c	e8 00 00 00 00	 call	 ?GetToken@@YA?AW4SMDToken@@XZ ; GetToken
  00191	89 45 f4	 mov	 DWORD PTR _Token$[ebp], eax

; 68   : 		// ----
; 69   : 		if( Token == END || !strcmp(TokenString, "end") )

  00194	83 7d f4 02	 cmp	 DWORD PTR _Token$[ebp], 2
  00198	74 16		 je	 SHORT $LN3@Load
  0019a	68 00 00 00 00	 push	 OFFSET ??_C@_03JBJLGPFL@end?$AA@
  0019f	68 00 00 00 00	 push	 OFFSET _TokenString
  001a4	e8 00 00 00 00	 call	 _strcmp
  001a9	83 c4 08	 add	 esp, 8
  001ac	85 c0		 test	 eax, eax
  001ae	75 04		 jne	 SHORT $LN4@Load
$LN3@Load:

; 70   : 		{
; 71   : 			break;

  001b0	eb 42		 jmp	 SHORT $LN5@Load

; 72   : 		}
; 73   : 		else

  001b2	eb 3e		 jmp	 SHORT $LN2@Load
$LN4@Load:

; 74   : 		{
; 75   : 			int SkillID = TokenNumber;

  001b4	d9 05 00 00 00
	00		 fld	 DWORD PTR _TokenNumber
  001ba	e8 00 00 00 00	 call	 __ftol2_sse
  001bf	89 45 f0	 mov	 DWORD PTR _SkillID$227397[ebp], eax

; 76   : 			Token = GetToken();

  001c2	e8 00 00 00 00	 call	 ?GetToken@@YA?AW4SMDToken@@XZ ; GetToken
  001c7	89 45 f4	 mov	 DWORD PTR _Token$[ebp], eax

; 77   : 			int Level	= TokenNumber;

  001ca	d9 05 00 00 00
	00		 fld	 DWORD PTR _TokenNumber
  001d0	e8 00 00 00 00	 call	 __ftol2_sse
  001d5	89 45 ec	 mov	 DWORD PTR _Level$227398[ebp], eax

; 78   : 			// ----
; 79   : 			if( Level < 1 )

  001d8	83 7d ec 01	 cmp	 DWORD PTR _Level$227398[ebp], 1
  001dc	7d 07		 jge	 SHORT $LN1@Load

; 80   : 			{
; 81   : 				Level = 1;

  001de	c7 45 ec 01 00
	00 00		 mov	 DWORD PTR _Level$227398[ebp], 1
$LN1@Load:

; 82   : 			}
; 83   : 			// ----
; 84   : 			this->m_SkillUseReqLevel[SkillID] = Level;

  001e5	8b 45 f0	 mov	 eax, DWORD PTR _SkillID$227397[ebp]
  001e8	8b 4d f8	 mov	 ecx, DWORD PTR _this$[ebp]
  001eb	8b 55 ec	 mov	 edx, DWORD PTR _Level$227398[ebp]
  001ee	89 54 81 5c	 mov	 DWORD PTR [ecx+eax*4+92], edx
$LN2@Load:

; 85   : 		}
; 86   : 	}

  001f2	eb 8f		 jmp	 SHORT $LN7@Load
$LN5@Load:

; 87   : 	// ----
; 88   : 	fclose(SMDFile);

  001f4	a1 00 00 00 00	 mov	 eax, DWORD PTR _SMDFile
  001f9	50		 push	 eax
  001fa	e8 00 00 00 00	 call	 _fclose
  001ff	83 c4 04	 add	 esp, 4

; 89   : 
; 90   : 
; 91   : 	this->m_iInfinityArrowSkillTime = GetPrivateProfileInt("SkillInfo", "InfinityArrowSkillTime", 600, gDirPath.GetNewPath(lpszFileName)); 

  00202	8b 45 08	 mov	 eax, DWORD PTR _lpszFileName$[ebp]
  00205	50		 push	 eax
  00206	b9 00 00 00 00	 mov	 ecx, OFFSET ?gDirPath@@3VCDirPath@@A ; gDirPath
  0020b	e8 00 00 00 00	 call	 ?GetNewPath@CDirPath@@QAEPADPAD@Z ; CDirPath::GetNewPath
  00210	50		 push	 eax
  00211	68 58 02 00 00	 push	 600			; 00000258H
  00216	68 00 00 00 00	 push	 OFFSET ??_C@_0BH@KBNHBCCN@InfinityArrowSkillTime?$AA@
  0021b	68 00 00 00 00	 push	 OFFSET ??_C@_09EMMBJNGJ@SkillInfo?$AA@
  00220	ff 15 00 00 00
	00		 call	 DWORD PTR __imp__GetPrivateProfileIntA@16
  00226	8b 4d f8	 mov	 ecx, DWORD PTR _this$[ebp]
  00229	89 41 04	 mov	 DWORD PTR [ecx+4], eax

; 92   : 	this->m_iInfinityArrowUseLevel = GetPrivateProfileInt("SkillInfo", "InfinityArrowUseLevel", 220, gDirPath.GetNewPath(lpszFileName)); 

  0022c	8b 45 08	 mov	 eax, DWORD PTR _lpszFileName$[ebp]
  0022f	50		 push	 eax
  00230	b9 00 00 00 00	 mov	 ecx, OFFSET ?gDirPath@@3VCDirPath@@A ; gDirPath
  00235	e8 00 00 00 00	 call	 ?GetNewPath@CDirPath@@QAEPADPAD@Z ; CDirPath::GetNewPath
  0023a	50		 push	 eax
  0023b	68 dc 00 00 00	 push	 220			; 000000dcH
  00240	68 00 00 00 00	 push	 OFFSET ??_C@_0BG@DADLDHMB@InfinityArrowUseLevel?$AA@
  00245	68 00 00 00 00	 push	 OFFSET ??_C@_09EMMBJNGJ@SkillInfo?$AA@
  0024a	ff 15 00 00 00
	00		 call	 DWORD PTR __imp__GetPrivateProfileIntA@16
  00250	8b 4d f8	 mov	 ecx, DWORD PTR _this$[ebp]
  00253	89 41 08	 mov	 DWORD PTR [ecx+8], eax

; 93   : 	
; 94   : 	this->m_iInfinityArrowMPConsumptionPlus0 = GetPrivateProfileInt("SkillInfo", "InfinityArraowMPConsumptionPlus0", 0, gDirPath.GetNewPath(lpszFileName));

  00256	8b 45 08	 mov	 eax, DWORD PTR _lpszFileName$[ebp]
  00259	50		 push	 eax
  0025a	b9 00 00 00 00	 mov	 ecx, OFFSET ?gDirPath@@3VCDirPath@@A ; gDirPath
  0025f	e8 00 00 00 00	 call	 ?GetNewPath@CDirPath@@QAEPADPAD@Z ; CDirPath::GetNewPath
  00264	50		 push	 eax
  00265	6a 00		 push	 0
  00267	68 00 00 00 00	 push	 OFFSET ??_C@_0CB@IEAIHDMI@InfinityArraowMPConsumptionPlus0@
  0026c	68 00 00 00 00	 push	 OFFSET ??_C@_09EMMBJNGJ@SkillInfo?$AA@
  00271	ff 15 00 00 00
	00		 call	 DWORD PTR __imp__GetPrivateProfileIntA@16
  00277	8b 4d f8	 mov	 ecx, DWORD PTR _this$[ebp]
  0027a	89 41 0c	 mov	 DWORD PTR [ecx+12], eax

; 95   : 	this->m_iInfinityArrowMPConsumptionPlus1 = GetPrivateProfileInt("SkillInfo", "InfinityArraowMPConsumptionPlus1", 0, gDirPath.GetNewPath(lpszFileName));

  0027d	8b 45 08	 mov	 eax, DWORD PTR _lpszFileName$[ebp]
  00280	50		 push	 eax
  00281	b9 00 00 00 00	 mov	 ecx, OFFSET ?gDirPath@@3VCDirPath@@A ; gDirPath
  00286	e8 00 00 00 00	 call	 ?GetNewPath@CDirPath@@QAEPADPAD@Z ; CDirPath::GetNewPath
  0028b	50		 push	 eax
  0028c	6a 00		 push	 0
  0028e	68 00 00 00 00	 push	 OFFSET ??_C@_0CB@JNBDECIJ@InfinityArraowMPConsumptionPlus1@
  00293	68 00 00 00 00	 push	 OFFSET ??_C@_09EMMBJNGJ@SkillInfo?$AA@
  00298	ff 15 00 00 00
	00		 call	 DWORD PTR __imp__GetPrivateProfileIntA@16
  0029e	8b 4d f8	 mov	 ecx, DWORD PTR _this$[ebp]
  002a1	89 41 10	 mov	 DWORD PTR [ecx+16], eax

; 96   : 	//this->m_iInfinityArrowMPConsumptionPlus2 = GetPrivateProfileInt("SkillInfo", "InfinityArraowMPConsumptionPlus2", 0, gDirPath.GetNewPath(lpszFileName));
; 97   : 	this->m_iInfinityArrowMPConsumptionPlus3 = GetPrivateProfileInt("SkillInfo", "InfinityArraowMPConsumptionPlus3", 0, gDirPath.GetNewPath(lpszFileName));

  002a4	8b 45 08	 mov	 eax, DWORD PTR _lpszFileName$[ebp]
  002a7	50		 push	 eax
  002a8	b9 00 00 00 00	 mov	 ecx, OFFSET ?gDirPath@@3VCDirPath@@A ; gDirPath
  002ad	e8 00 00 00 00	 call	 ?GetNewPath@CDirPath@@QAEPADPAD@Z ; CDirPath::GetNewPath
  002b2	50		 push	 eax
  002b3	6a 00		 push	 0
  002b5	68 00 00 00 00	 push	 OFFSET ??_C@_0CB@KPCFCAAL@InfinityArraowMPConsumptionPlus3@
  002ba	68 00 00 00 00	 push	 OFFSET ??_C@_09EMMBJNGJ@SkillInfo?$AA@
  002bf	ff 15 00 00 00
	00		 call	 DWORD PTR __imp__GetPrivateProfileIntA@16
  002c5	8b 4d f8	 mov	 ecx, DWORD PTR _this$[ebp]
  002c8	89 41 18	 mov	 DWORD PTR [ecx+24], eax

; 98   : 
; 99   : 	LogAddTD("[Skill Addition Info] [Infinity Arrow] Skill Time[%d], UseLevel[%d], Arrow MP Consumption +0[%d] +1[%d] +2[%d] +3[%d]", this->m_iInfinityArrowSkillTime, this->m_iInfinityArrowUseLevel, this->m_iInfinityArrowMPConsumptionPlus0, this->m_iInfinityArrowMPConsumptionPlus1, this->m_iInfinityArrowMPConsumptionPlus2, this->m_iInfinityArrowMPConsumptionPlus3);

  002cb	8b 45 f8	 mov	 eax, DWORD PTR _this$[ebp]
  002ce	8b 48 18	 mov	 ecx, DWORD PTR [eax+24]
  002d1	51		 push	 ecx
  002d2	8b 55 f8	 mov	 edx, DWORD PTR _this$[ebp]
  002d5	8b 42 14	 mov	 eax, DWORD PTR [edx+20]
  002d8	50		 push	 eax
  002d9	8b 4d f8	 mov	 ecx, DWORD PTR _this$[ebp]
  002dc	8b 51 10	 mov	 edx, DWORD PTR [ecx+16]
  002df	52		 push	 edx
  002e0	8b 45 f8	 mov	 eax, DWORD PTR _this$[ebp]
  002e3	8b 48 0c	 mov	 ecx, DWORD PTR [eax+12]
  002e6	51		 push	 ecx
  002e7	8b 55 f8	 mov	 edx, DWORD PTR _this$[ebp]
  002ea	8b 42 08	 mov	 eax, DWORD PTR [edx+8]
  002ed	50		 push	 eax
  002ee	8b 4d f8	 mov	 ecx, DWORD PTR _this$[ebp]
  002f1	8b 51 04	 mov	 edx, DWORD PTR [ecx+4]
  002f4	52		 push	 edx
  002f5	68 00 00 00 00	 push	 OFFSET ??_C@_0HG@MDBPHHOC@?$FLSkill?5Addition?5Info?$FN?5?$FLInfinity?5@
  002fa	ff 15 00 00 00
	00		 call	 DWORD PTR ?LogAddTD@@3P6AXPADZZA ; LogAddTD
  00300	83 c4 1c	 add	 esp, 28			; 0000001cH

; 100  : 
; 101  : 	this->m_bFireScreamSkill = GetPrivateProfileInt("SkillInfo", "FireScreamSkill", 1, gDirPath.GetNewPath(lpszFileName));

  00303	8b 45 08	 mov	 eax, DWORD PTR _lpszFileName$[ebp]
  00306	50		 push	 eax
  00307	b9 00 00 00 00	 mov	 ecx, OFFSET ?gDirPath@@3VCDirPath@@A ; gDirPath
  0030c	e8 00 00 00 00	 call	 ?GetNewPath@CDirPath@@QAEPADPAD@Z ; CDirPath::GetNewPath
  00311	50		 push	 eax
  00312	6a 01		 push	 1
  00314	68 00 00 00 00	 push	 OFFSET ??_C@_0BA@HINCJBHF@FireScreamSkill?$AA@
  00319	68 00 00 00 00	 push	 OFFSET ??_C@_09EMMBJNGJ@SkillInfo?$AA@
  0031e	ff 15 00 00 00
	00		 call	 DWORD PTR __imp__GetPrivateProfileIntA@16
  00324	8b 4d f8	 mov	 ecx, DWORD PTR _this$[ebp]
  00327	89 41 1c	 mov	 DWORD PTR [ecx+28], eax

; 102  : 	this->m_iFireScreamExplosionAttackDistance = GetPrivateProfileInt("SkillInfo", "FireScreamExplosionAttackDistance", 1, gDirPath.GetNewPath(lpszFileName));

  0032a	8b 45 08	 mov	 eax, DWORD PTR _lpszFileName$[ebp]
  0032d	50		 push	 eax
  0032e	b9 00 00 00 00	 mov	 ecx, OFFSET ?gDirPath@@3VCDirPath@@A ; gDirPath
  00333	e8 00 00 00 00	 call	 ?GetNewPath@CDirPath@@QAEPADPAD@Z ; CDirPath::GetNewPath
  00338	50		 push	 eax
  00339	6a 01		 push	 1
  0033b	68 00 00 00 00	 push	 OFFSET ??_C@_0CC@CACJLIIP@FireScreamExplosionAttackDistanc@
  00340	68 00 00 00 00	 push	 OFFSET ??_C@_09EMMBJNGJ@SkillInfo?$AA@
  00345	ff 15 00 00 00
	00		 call	 DWORD PTR __imp__GetPrivateProfileIntA@16
  0034b	8b 4d f8	 mov	 ecx, DWORD PTR _this$[ebp]
  0034e	89 41 20	 mov	 DWORD PTR [ecx+32], eax

; 103  : 	this->m_iFireScreamExplosionRate = GetPrivateProfileInt("SkillInfo", "FireScreamExplosionRate", 300, gDirPath.GetNewPath(lpszFileName));

  00351	8b 45 08	 mov	 eax, DWORD PTR _lpszFileName$[ebp]
  00354	50		 push	 eax
  00355	b9 00 00 00 00	 mov	 ecx, OFFSET ?gDirPath@@3VCDirPath@@A ; gDirPath
  0035a	e8 00 00 00 00	 call	 ?GetNewPath@CDirPath@@QAEPADPAD@Z ; CDirPath::GetNewPath
  0035f	50		 push	 eax
  00360	68 2c 01 00 00	 push	 300			; 0000012cH
  00365	68 00 00 00 00	 push	 OFFSET ??_C@_0BI@BFNBGAPD@FireScreamExplosionRate?$AA@
  0036a	68 00 00 00 00	 push	 OFFSET ??_C@_09EMMBJNGJ@SkillInfo?$AA@
  0036f	ff 15 00 00 00
	00		 call	 DWORD PTR __imp__GetPrivateProfileIntA@16
  00375	8b 4d f8	 mov	 ecx, DWORD PTR _this$[ebp]
  00378	89 41 24	 mov	 DWORD PTR [ecx+36], eax

; 104  : 	this->m_iFireScreamMaxAttackCountSameSerial = GetPrivateProfileInt("SkillInfo", "FireScreamMaxAttackCountSameSerial", 3, gDirPath.GetNewPath(lpszFileName));

  0037b	8b 45 08	 mov	 eax, DWORD PTR _lpszFileName$[ebp]
  0037e	50		 push	 eax
  0037f	b9 00 00 00 00	 mov	 ecx, OFFSET ?gDirPath@@3VCDirPath@@A ; gDirPath
  00384	e8 00 00 00 00	 call	 ?GetNewPath@CDirPath@@QAEPADPAD@Z ; CDirPath::GetNewPath
  00389	50		 push	 eax
  0038a	6a 03		 push	 3
  0038c	68 00 00 00 00	 push	 OFFSET ??_C@_0CD@IEHCMBMN@FireScreamMaxAttackCountSameSeri@
  00391	68 00 00 00 00	 push	 OFFSET ??_C@_09EMMBJNGJ@SkillInfo?$AA@
  00396	ff 15 00 00 00
	00		 call	 DWORD PTR __imp__GetPrivateProfileIntA@16
  0039c	8b 4d f8	 mov	 ecx, DWORD PTR _this$[ebp]
  0039f	89 41 28	 mov	 DWORD PTR [ecx+40], eax

; 105  : 	this->m_iFireScreamSerialInitCount = GetPrivateProfileInt("SkillInfo", "FireScreamSerialInitCount", 100, gDirPath.GetNewPath(lpszFileName));

  003a2	8b 45 08	 mov	 eax, DWORD PTR _lpszFileName$[ebp]
  003a5	50		 push	 eax
  003a6	b9 00 00 00 00	 mov	 ecx, OFFSET ?gDirPath@@3VCDirPath@@A ; gDirPath
  003ab	e8 00 00 00 00	 call	 ?GetNewPath@CDirPath@@QAEPADPAD@Z ; CDirPath::GetNewPath
  003b0	50		 push	 eax
  003b1	6a 64		 push	 100			; 00000064H
  003b3	68 00 00 00 00	 push	 OFFSET ??_C@_0BK@KNFOPFKG@FireScreamSerialInitCount?$AA@
  003b8	68 00 00 00 00	 push	 OFFSET ??_C@_09EMMBJNGJ@SkillInfo?$AA@
  003bd	ff 15 00 00 00
	00		 call	 DWORD PTR __imp__GetPrivateProfileIntA@16
  003c3	8b 4d f8	 mov	 ecx, DWORD PTR _this$[ebp]
  003c6	89 41 2c	 mov	 DWORD PTR [ecx+44], eax

; 106  : 	this->m_bCheckFireScreamSerial = GetPrivateProfileInt("SkillInfo", "CheckFireScreamSerial", 1, gDirPath.GetNewPath(lpszFileName));

  003c9	8b 45 08	 mov	 eax, DWORD PTR _lpszFileName$[ebp]
  003cc	50		 push	 eax
  003cd	b9 00 00 00 00	 mov	 ecx, OFFSET ?gDirPath@@3VCDirPath@@A ; gDirPath
  003d2	e8 00 00 00 00	 call	 ?GetNewPath@CDirPath@@QAEPADPAD@Z ; CDirPath::GetNewPath
  003d7	50		 push	 eax
  003d8	6a 01		 push	 1
  003da	68 00 00 00 00	 push	 OFFSET ??_C@_0BG@PJAAPPCH@CheckFireScreamSerial?$AA@
  003df	68 00 00 00 00	 push	 OFFSET ??_C@_09EMMBJNGJ@SkillInfo?$AA@
  003e4	ff 15 00 00 00
	00		 call	 DWORD PTR __imp__GetPrivateProfileIntA@16
  003ea	8b 4d f8	 mov	 ecx, DWORD PTR _this$[ebp]
  003ed	89 41 30	 mov	 DWORD PTR [ecx+48], eax

; 107  : 
; 108  : 	LogAddTD("[Skill Addition Info] [Fire Scream] Use(%d) : Explosion Distance(%d) - Rate(%d), MaxAttack_SameSerial(%d), SerialInitCount(%d), Check Serial(%d)", this->m_bFireScreamSkill, this->m_iFireScreamExplosionAttackDistance, this->m_iFireScreamExplosionRate, this->m_iFireScreamMaxAttackCountSameSerial, this->m_iFireScreamSerialInitCount, this->m_bCheckFireScreamSerial);

  003f0	8b 45 f8	 mov	 eax, DWORD PTR _this$[ebp]
  003f3	8b 48 30	 mov	 ecx, DWORD PTR [eax+48]
  003f6	51		 push	 ecx
  003f7	8b 55 f8	 mov	 edx, DWORD PTR _this$[ebp]
  003fa	8b 42 2c	 mov	 eax, DWORD PTR [edx+44]
  003fd	50		 push	 eax
  003fe	8b 4d f8	 mov	 ecx, DWORD PTR _this$[ebp]
  00401	8b 51 28	 mov	 edx, DWORD PTR [ecx+40]
  00404	52		 push	 edx
  00405	8b 45 f8	 mov	 eax, DWORD PTR _this$[ebp]
  00408	8b 48 24	 mov	 ecx, DWORD PTR [eax+36]
  0040b	51		 push	 ecx
  0040c	8b 55 f8	 mov	 edx, DWORD PTR _this$[ebp]
  0040f	8b 42 20	 mov	 eax, DWORD PTR [edx+32]
  00412	50		 push	 eax
  00413	8b 4d f8	 mov	 ecx, DWORD PTR _this$[ebp]
  00416	8b 51 1c	 mov	 edx, DWORD PTR [ecx+28]
  00419	52		 push	 edx
  0041a	68 00 00 00 00	 push	 OFFSET ??_C@_0JB@FKMAEBOB@?$FLSkill?5Addition?5Info?$FN?5?$FLFire?5Scre@
  0041f	ff 15 00 00 00
	00		 call	 DWORD PTR ?LogAddTD@@3P6AXPADZZA ; LogAddTD
  00425	83 c4 1c	 add	 esp, 28			; 0000001cH

; 109  : 
; 110  : 	//Season3 Addition
; 111  : 
; 112  : 	// -------------------------------------------------------------------------------------------------------------------------------
; 113  : 	char oszFloat[256];
; 114  : 	this->SoulBarrierDefenseStart				= GetPrivateProfileInt(OTHER_SKILL_CM, "SoulBarrierDefenseStart", 600, OTHER_SKILL_DIR); 

  00428	68 00 00 00 00	 push	 OFFSET ??_C@_0BK@EKJAJELJ@?4?4?2Data?2ExData?2Skills?4ini?$AA@
  0042d	68 58 02 00 00	 push	 600			; 00000258H
  00432	68 00 00 00 00	 push	 OFFSET ??_C@_0BI@ENLFKMPH@SoulBarrierDefenseStart?$AA@
  00437	68 00 00 00 00	 push	 OFFSET ??_C@_05OEGOMMDP@Skill?$AA@
  0043c	ff 15 00 00 00
	00		 call	 DWORD PTR __imp__GetPrivateProfileIntA@16
  00442	8b 4d f8	 mov	 ecx, DWORD PTR _this$[ebp]
  00445	66 89 81 4c 0b
	00 00		 mov	 WORD PTR [ecx+2892], ax

; 115  : 	this->SoulBarrierDefenseDiv1				= GetPrivateProfileInt(OTHER_SKILL_CM, "SoulBarrierDefenseDiv1", 600, OTHER_SKILL_DIR); 

  0044c	68 00 00 00 00	 push	 OFFSET ??_C@_0BK@EKJAJELJ@?4?4?2Data?2ExData?2Skills?4ini?$AA@
  00451	68 58 02 00 00	 push	 600			; 00000258H
  00456	68 00 00 00 00	 push	 OFFSET ??_C@_0BH@OCCLHHKG@SoulBarrierDefenseDiv1?$AA@
  0045b	68 00 00 00 00	 push	 OFFSET ??_C@_05OEGOMMDP@Skill?$AA@
  00460	ff 15 00 00 00
	00		 call	 DWORD PTR __imp__GetPrivateProfileIntA@16
  00466	8b 4d f8	 mov	 ecx, DWORD PTR _this$[ebp]
  00469	66 89 81 4e 0b
	00 00		 mov	 WORD PTR [ecx+2894], ax

; 116  : 	this->SoulBarrierDefenseDiv2				= GetPrivateProfileInt(OTHER_SKILL_CM, "SoulBarrierDefenseDiv2", 600, OTHER_SKILL_DIR); 

  00470	68 00 00 00 00	 push	 OFFSET ??_C@_0BK@EKJAJELJ@?4?4?2Data?2ExData?2Skills?4ini?$AA@
  00475	68 58 02 00 00	 push	 600			; 00000258H
  0047a	68 00 00 00 00	 push	 OFFSET ??_C@_0BH@MJAGCEGF@SoulBarrierDefenseDiv2?$AA@
  0047f	68 00 00 00 00	 push	 OFFSET ??_C@_05OEGOMMDP@Skill?$AA@
  00484	ff 15 00 00 00
	00		 call	 DWORD PTR __imp__GetPrivateProfileIntA@16
  0048a	8b 4d f8	 mov	 ecx, DWORD PTR _this$[ebp]
  0048d	66 89 81 50 0b
	00 00		 mov	 WORD PTR [ecx+2896], ax

; 117  : 	this->SoulBarrierDefenseMax				= GetPrivateProfileInt(OTHER_SKILL_CM, "SoulBarrierDefenseMax", 600, OTHER_SKILL_DIR); 

  00494	68 00 00 00 00	 push	 OFFSET ??_C@_0BK@EKJAJELJ@?4?4?2Data?2ExData?2Skills?4ini?$AA@
  00499	68 58 02 00 00	 push	 600			; 00000258H
  0049e	68 00 00 00 00	 push	 OFFSET ??_C@_0BG@CPELIBEP@SoulBarrierDefenseMax?$AA@
  004a3	68 00 00 00 00	 push	 OFFSET ??_C@_05OEGOMMDP@Skill?$AA@
  004a8	ff 15 00 00 00
	00		 call	 DWORD PTR __imp__GetPrivateProfileIntA@16
  004ae	8b 4d f8	 mov	 ecx, DWORD PTR _this$[ebp]
  004b1	89 81 54 0b 00
	00		 mov	 DWORD PTR [ecx+2900], eax

; 118  : 	this->SoulBarrierTimeStart				= GetPrivateProfileInt(OTHER_SKILL_CM, "SoulBarrierTimeStart", 600, OTHER_SKILL_DIR); 

  004b7	68 00 00 00 00	 push	 OFFSET ??_C@_0BK@EKJAJELJ@?4?4?2Data?2ExData?2Skills?4ini?$AA@
  004bc	68 58 02 00 00	 push	 600			; 00000258H
  004c1	68 00 00 00 00	 push	 OFFSET ??_C@_0BF@HLPHEEBF@SoulBarrierTimeStart?$AA@
  004c6	68 00 00 00 00	 push	 OFFSET ??_C@_05OEGOMMDP@Skill?$AA@
  004cb	ff 15 00 00 00
	00		 call	 DWORD PTR __imp__GetPrivateProfileIntA@16
  004d1	8b 4d f8	 mov	 ecx, DWORD PTR _this$[ebp]
  004d4	66 89 81 58 0b
	00 00		 mov	 WORD PTR [ecx+2904], ax

; 119  : 	this->SoulBarrierTimeDiv					= GetPrivateProfileInt(OTHER_SKILL_CM, "SoulBarrierTimeDiv", 600, OTHER_SKILL_DIR); 

  004db	68 00 00 00 00	 push	 OFFSET ??_C@_0BK@EKJAJELJ@?4?4?2Data?2ExData?2Skills?4ini?$AA@
  004e0	68 58 02 00 00	 push	 600			; 00000258H
  004e5	68 00 00 00 00	 push	 OFFSET ??_C@_0BD@GELNHIFI@SoulBarrierTimeDiv?$AA@
  004ea	68 00 00 00 00	 push	 OFFSET ??_C@_05OEGOMMDP@Skill?$AA@
  004ef	ff 15 00 00 00
	00		 call	 DWORD PTR __imp__GetPrivateProfileIntA@16
  004f5	8b 4d f8	 mov	 ecx, DWORD PTR _this$[ebp]
  004f8	66 89 81 5a 0b
	00 00		 mov	 WORD PTR [ecx+2906], ax

; 120  : 	this->SoulBarrierTimeMax					= GetPrivateProfileInt(OTHER_SKILL_CM, "SoulBarrierTimeMax", 600, OTHER_SKILL_DIR); 

  004ff	68 00 00 00 00	 push	 OFFSET ??_C@_0BK@EKJAJELJ@?4?4?2Data?2ExData?2Skills?4ini?$AA@
  00504	68 58 02 00 00	 push	 600			; 00000258H
  00509	68 00 00 00 00	 push	 OFFSET ??_C@_0BD@IJCFELOE@SoulBarrierTimeMax?$AA@
  0050e	68 00 00 00 00	 push	 OFFSET ??_C@_05OEGOMMDP@Skill?$AA@
  00513	ff 15 00 00 00
	00		 call	 DWORD PTR __imp__GetPrivateProfileIntA@16
  00519	8b 4d f8	 mov	 ecx, DWORD PTR _this$[ebp]
  0051c	89 81 5c 0b 00
	00		 mov	 DWORD PTR [ecx+2908], eax

; 121  : 	this->WizardryEnchantDamageDiv			= GetPrivateProfileInt(OTHER_SKILL_CM, "WizardryEnchantDamageDiv", 600, OTHER_SKILL_DIR); 

  00522	68 00 00 00 00	 push	 OFFSET ??_C@_0BK@EKJAJELJ@?4?4?2Data?2ExData?2Skills?4ini?$AA@
  00527	68 58 02 00 00	 push	 600			; 00000258H
  0052c	68 00 00 00 00	 push	 OFFSET ??_C@_0BJ@EKEDEGGJ@WizardryEnchantDamageDiv?$AA@
  00531	68 00 00 00 00	 push	 OFFSET ??_C@_05OEGOMMDP@Skill?$AA@
  00536	ff 15 00 00 00
	00		 call	 DWORD PTR __imp__GetPrivateProfileIntA@16
  0053c	8b 4d f8	 mov	 ecx, DWORD PTR _this$[ebp]
  0053f	66 89 81 60 0b
	00 00		 mov	 WORD PTR [ecx+2912], ax

; 122  : 	GetPrivateProfileString(OTHER_SKILL_CM, "WizardryEnchantDamageFact", "0.2", oszFloat, 5, OTHER_SKILL_DIR);

  00546	68 00 00 00 00	 push	 OFFSET ??_C@_0BK@EKJAJELJ@?4?4?2Data?2ExData?2Skills?4ini?$AA@
  0054b	6a 05		 push	 5
  0054d	8d 85 ec fe ff
	ff		 lea	 eax, DWORD PTR _oszFloat$[ebp]
  00553	50		 push	 eax
  00554	68 00 00 00 00	 push	 OFFSET ??_C@_03PBDDOHNJ@0?42?$AA@
  00559	68 00 00 00 00	 push	 OFFSET ??_C@_0BK@NKOODMFM@WizardryEnchantDamageFact?$AA@
  0055e	68 00 00 00 00	 push	 OFFSET ??_C@_05OEGOMMDP@Skill?$AA@
  00563	ff 15 00 00 00
	00		 call	 DWORD PTR __imp__GetPrivateProfileStringA@24

; 123  : 	sscanf(oszFloat, "%f", &this->WizardryEnchantDamageFact);

  00569	8b 45 f8	 mov	 eax, DWORD PTR _this$[ebp]
  0056c	05 64 0b 00 00	 add	 eax, 2916		; 00000b64H
  00571	50		 push	 eax
  00572	68 00 00 00 00	 push	 OFFSET ??_C@_02NJPGOMH@?$CFf?$AA@
  00577	8d 8d ec fe ff
	ff		 lea	 ecx, DWORD PTR _oszFloat$[ebp]
  0057d	51		 push	 ecx
  0057e	e8 00 00 00 00	 call	 _sscanf
  00583	83 c4 0c	 add	 esp, 12			; 0000000cH

; 124  : 	this->WizardryEnchantDamageMax			= GetPrivateProfileInt(OTHER_SKILL_CM, "WizardryEnchantDamageMax", 600, OTHER_SKILL_DIR); 

  00586	68 00 00 00 00	 push	 OFFSET ??_C@_0BK@EKJAJELJ@?4?4?2Data?2ExData?2Skills?4ini?$AA@
  0058b	68 58 02 00 00	 push	 600			; 00000258H
  00590	68 00 00 00 00	 push	 OFFSET ??_C@_0BJ@KHNLHFNF@WizardryEnchantDamageMax?$AA@
  00595	68 00 00 00 00	 push	 OFFSET ??_C@_05OEGOMMDP@Skill?$AA@
  0059a	ff 15 00 00 00
	00		 call	 DWORD PTR __imp__GetPrivateProfileIntA@16
  005a0	8b 4d f8	 mov	 ecx, DWORD PTR _this$[ebp]
  005a3	89 81 68 0b 00
	00		 mov	 DWORD PTR [ecx+2920], eax

; 125  : 	this->WizardryEnchantTime					= GetPrivateProfileInt(OTHER_SKILL_CM, "WizardryEnchantTime", 600, OTHER_SKILL_DIR); 

  005a9	68 00 00 00 00	 push	 OFFSET ??_C@_0BK@EKJAJELJ@?4?4?2Data?2ExData?2Skills?4ini?$AA@
  005ae	68 58 02 00 00	 push	 600			; 00000258H
  005b3	68 00 00 00 00	 push	 OFFSET ??_C@_0BE@LJPJLIP@WizardryEnchantTime?$AA@
  005b8	68 00 00 00 00	 push	 OFFSET ??_C@_05OEGOMMDP@Skill?$AA@
  005bd	ff 15 00 00 00
	00		 call	 DWORD PTR __imp__GetPrivateProfileIntA@16
  005c3	8b 4d f8	 mov	 ecx, DWORD PTR _this$[ebp]
  005c6	89 81 6c 0b 00
	00		 mov	 DWORD PTR [ecx+2924], eax

; 126  : 	this->SwellLifeEffectStart				= GetPrivateProfileInt(OTHER_SKILL_CM, "SwellLifeEffectStart", 600, OTHER_SKILL_DIR); 

  005cc	68 00 00 00 00	 push	 OFFSET ??_C@_0BK@EKJAJELJ@?4?4?2Data?2ExData?2Skills?4ini?$AA@
  005d1	68 58 02 00 00	 push	 600			; 00000258H
  005d6	68 00 00 00 00	 push	 OFFSET ??_C@_0BF@EDGHIKBF@SwellLifeEffectStart?$AA@
  005db	68 00 00 00 00	 push	 OFFSET ??_C@_05OEGOMMDP@Skill?$AA@
  005e0	ff 15 00 00 00
	00		 call	 DWORD PTR __imp__GetPrivateProfileIntA@16
  005e6	8b 4d f8	 mov	 ecx, DWORD PTR _this$[ebp]
  005e9	66 89 81 70 0b
	00 00		 mov	 WORD PTR [ecx+2928], ax

; 127  : 	this->SwellLifeEffectDiv1					= GetPrivateProfileInt(OTHER_SKILL_CM, "SwellLifeEffectDiv1", 600, OTHER_SKILL_DIR); 

  005f0	68 00 00 00 00	 push	 OFFSET ??_C@_0BK@EKJAJELJ@?4?4?2Data?2ExData?2Skills?4ini?$AA@
  005f5	68 58 02 00 00	 push	 600			; 00000258H
  005fa	68 00 00 00 00	 push	 OFFSET ??_C@_0BE@OLIFKHKO@SwellLifeEffectDiv1?$AA@
  005ff	68 00 00 00 00	 push	 OFFSET ??_C@_05OEGOMMDP@Skill?$AA@
  00604	ff 15 00 00 00
	00		 call	 DWORD PTR __imp__GetPrivateProfileIntA@16
  0060a	8b 4d f8	 mov	 ecx, DWORD PTR _this$[ebp]
  0060d	66 89 81 72 0b
	00 00		 mov	 WORD PTR [ecx+2930], ax

; 128  : 	this->SwellLifeEffectDiv2					= GetPrivateProfileInt(OTHER_SKILL_CM, "SwellLifeEffectDiv2", 600, OTHER_SKILL_DIR); 

  00614	68 00 00 00 00	 push	 OFFSET ??_C@_0BK@EKJAJELJ@?4?4?2Data?2ExData?2Skills?4ini?$AA@
  00619	68 58 02 00 00	 push	 600			; 00000258H
  0061e	68 00 00 00 00	 push	 OFFSET ??_C@_0BE@MAKIPEGN@SwellLifeEffectDiv2?$AA@
  00623	68 00 00 00 00	 push	 OFFSET ??_C@_05OEGOMMDP@Skill?$AA@
  00628	ff 15 00 00 00
	00		 call	 DWORD PTR __imp__GetPrivateProfileIntA@16
  0062e	8b 4d f8	 mov	 ecx, DWORD PTR _this$[ebp]
  00631	66 89 81 74 0b
	00 00		 mov	 WORD PTR [ecx+2932], ax

; 129  : 	this->SwellLifeEffectMax					= GetPrivateProfileInt(OTHER_SKILL_CM, "SwellLifeEffectMax", 600, OTHER_SKILL_DIR); 

  00638	68 00 00 00 00	 push	 OFFSET ??_C@_0BK@EKJAJELJ@?4?4?2Data?2ExData?2Skills?4ini?$AA@
  0063d	68 58 02 00 00	 push	 600			; 00000258H
  00642	68 00 00 00 00	 push	 OFFSET ??_C@_0BD@DHNHKCED@SwellLifeEffectMax?$AA@
  00647	68 00 00 00 00	 push	 OFFSET ??_C@_05OEGOMMDP@Skill?$AA@
  0064c	ff 15 00 00 00
	00		 call	 DWORD PTR __imp__GetPrivateProfileIntA@16
  00652	8b 4d f8	 mov	 ecx, DWORD PTR _this$[ebp]
  00655	89 81 78 0b 00
	00		 mov	 DWORD PTR [ecx+2936], eax

; 130  : 	this->SwellLifeTimeStart					= GetPrivateProfileInt(OTHER_SKILL_CM, "SwellLifeTimeStart", 600, OTHER_SKILL_DIR); 

  0065b	68 00 00 00 00	 push	 OFFSET ??_C@_0BK@EKJAJELJ@?4?4?2Data?2ExData?2Skills?4ini?$AA@
  00660	68 58 02 00 00	 push	 600			; 00000258H
  00665	68 00 00 00 00	 push	 OFFSET ??_C@_0BD@CBCDNOBM@SwellLifeTimeStart?$AA@
  0066a	68 00 00 00 00	 push	 OFFSET ??_C@_05OEGOMMDP@Skill?$AA@
  0066f	ff 15 00 00 00
	00		 call	 DWORD PTR __imp__GetPrivateProfileIntA@16
  00675	8b 4d f8	 mov	 ecx, DWORD PTR _this$[ebp]
  00678	66 89 81 7c 0b
	00 00		 mov	 WORD PTR [ecx+2940], ax

; 131  : 	this->SwellLifeTimeDiv					= GetPrivateProfileInt(OTHER_SKILL_CM, "SwellLifeTimeDiv", 600, OTHER_SKILL_DIR); 

  0067f	68 00 00 00 00	 push	 OFFSET ??_C@_0BK@EKJAJELJ@?4?4?2Data?2ExData?2Skills?4ini?$AA@
  00684	68 58 02 00 00	 push	 600			; 00000258H
  00689	68 00 00 00 00	 push	 OFFSET ??_C@_0BB@JKMIHHPM@SwellLifeTimeDiv?$AA@
  0068e	68 00 00 00 00	 push	 OFFSET ??_C@_05OEGOMMDP@Skill?$AA@
  00693	ff 15 00 00 00
	00		 call	 DWORD PTR __imp__GetPrivateProfileIntA@16
  00699	8b 4d f8	 mov	 ecx, DWORD PTR _this$[ebp]
  0069c	66 89 81 7e 0b
	00 00		 mov	 WORD PTR [ecx+2942], ax

; 132  : 	this->SwellLifeTimeMax					= GetPrivateProfileInt(OTHER_SKILL_CM, "SwellLifeTimeMax", 600, OTHER_SKILL_DIR); 

  006a3	68 00 00 00 00	 push	 OFFSET ??_C@_0BK@EKJAJELJ@?4?4?2Data?2ExData?2Skills?4ini?$AA@
  006a8	68 58 02 00 00	 push	 600			; 00000258H
  006ad	68 00 00 00 00	 push	 OFFSET ??_C@_0BB@HHFAEEEA@SwellLifeTimeMax?$AA@
  006b2	68 00 00 00 00	 push	 OFFSET ??_C@_05OEGOMMDP@Skill?$AA@
  006b7	ff 15 00 00 00
	00		 call	 DWORD PTR __imp__GetPrivateProfileIntA@16
  006bd	8b 4d f8	 mov	 ecx, DWORD PTR _this$[ebp]
  006c0	89 81 80 0b 00
	00		 mov	 DWORD PTR [ecx+2944], eax

; 133  : 	this->ElfDefenseEffectFact				= GetPrivateProfileInt(OTHER_SKILL_CM, "ElfDefenseEffectFact", 600, OTHER_SKILL_DIR); 

  006c6	68 00 00 00 00	 push	 OFFSET ??_C@_0BK@EKJAJELJ@?4?4?2Data?2ExData?2Skills?4ini?$AA@
  006cb	68 58 02 00 00	 push	 600			; 00000258H
  006d0	68 00 00 00 00	 push	 OFFSET ??_C@_0BF@KDEHAEKN@ElfDefenseEffectFact?$AA@
  006d5	68 00 00 00 00	 push	 OFFSET ??_C@_05OEGOMMDP@Skill?$AA@
  006da	ff 15 00 00 00
	00		 call	 DWORD PTR __imp__GetPrivateProfileIntA@16
  006e0	8b 4d f8	 mov	 ecx, DWORD PTR _this$[ebp]
  006e3	66 89 81 84 0b
	00 00		 mov	 WORD PTR [ecx+2948], ax

; 134  : 	this->ElfDefenseEffectDiv					= GetPrivateProfileInt(OTHER_SKILL_CM, "ElfDefenseEffectDiv", 600, OTHER_SKILL_DIR); 

  006ea	68 00 00 00 00	 push	 OFFSET ??_C@_0BK@EKJAJELJ@?4?4?2Data?2ExData?2Skills?4ini?$AA@
  006ef	68 58 02 00 00	 push	 600			; 00000258H
  006f4	68 00 00 00 00	 push	 OFFSET ??_C@_0BE@DPMDBDGA@ElfDefenseEffectDiv?$AA@
  006f9	68 00 00 00 00	 push	 OFFSET ??_C@_05OEGOMMDP@Skill?$AA@
  006fe	ff 15 00 00 00
	00		 call	 DWORD PTR __imp__GetPrivateProfileIntA@16
  00704	8b 4d f8	 mov	 ecx, DWORD PTR _this$[ebp]
  00707	66 89 81 86 0b
	00 00		 mov	 WORD PTR [ecx+2950], ax

; 135  : 	this->ElfDefenseEffectMax					= GetPrivateProfileInt(OTHER_SKILL_CM, "ElfDefenseEffectMax", 600, OTHER_SKILL_DIR); 

  0070e	68 00 00 00 00	 push	 OFFSET ??_C@_0BK@EKJAJELJ@?4?4?2Data?2ExData?2Skills?4ini?$AA@
  00713	68 58 02 00 00	 push	 600			; 00000258H
  00718	68 00 00 00 00	 push	 OFFSET ??_C@_0BE@NCFLCANM@ElfDefenseEffectMax?$AA@
  0071d	68 00 00 00 00	 push	 OFFSET ??_C@_05OEGOMMDP@Skill?$AA@
  00722	ff 15 00 00 00
	00		 call	 DWORD PTR __imp__GetPrivateProfileIntA@16
  00728	8b 4d f8	 mov	 ecx, DWORD PTR _this$[ebp]
  0072b	89 81 88 0b 00
	00		 mov	 DWORD PTR [ecx+2952], eax

; 136  : 	this->ElfDefenseTime						= GetPrivateProfileInt(OTHER_SKILL_CM, "ElfDefenseTime", 600, OTHER_SKILL_DIR); 

  00731	68 00 00 00 00	 push	 OFFSET ??_C@_0BK@EKJAJELJ@?4?4?2Data?2ExData?2Skills?4ini?$AA@
  00736	68 58 02 00 00	 push	 600			; 00000258H
  0073b	68 00 00 00 00	 push	 OFFSET ??_C@_0P@JCGFNEIF@ElfDefenseTime?$AA@
  00740	68 00 00 00 00	 push	 OFFSET ??_C@_05OEGOMMDP@Skill?$AA@
  00745	ff 15 00 00 00
	00		 call	 DWORD PTR __imp__GetPrivateProfileIntA@16
  0074b	8b 4d f8	 mov	 ecx, DWORD PTR _this$[ebp]
  0074e	89 81 8c 0b 00
	00		 mov	 DWORD PTR [ecx+2956], eax

; 137  : 	this->ElfAttackEffectFact					= GetPrivateProfileInt(OTHER_SKILL_CM, "ElfAttackEffectFact", 600, OTHER_SKILL_DIR); 

  00754	68 00 00 00 00	 push	 OFFSET ??_C@_0BK@EKJAJELJ@?4?4?2Data?2ExData?2Skills?4ini?$AA@
  00759	68 58 02 00 00	 push	 600			; 00000258H
  0075e	68 00 00 00 00	 push	 OFFSET ??_C@_0BE@JJIEGOBK@ElfAttackEffectFact?$AA@
  00763	68 00 00 00 00	 push	 OFFSET ??_C@_05OEGOMMDP@Skill?$AA@
  00768	ff 15 00 00 00
	00		 call	 DWORD PTR __imp__GetPrivateProfileIntA@16
  0076e	8b 4d f8	 mov	 ecx, DWORD PTR _this$[ebp]
  00771	66 89 81 90 0b
	00 00		 mov	 WORD PTR [ecx+2960], ax

; 138  : 	this->ElfAttackEffectDiv					= GetPrivateProfileInt(OTHER_SKILL_CM, "ElfAttackEffectDiv", 600, OTHER_SKILL_DIR); 

  00778	68 00 00 00 00	 push	 OFFSET ??_C@_0BK@EKJAJELJ@?4?4?2Data?2ExData?2Skills?4ini?$AA@
  0077d	68 58 02 00 00	 push	 600			; 00000258H
  00782	68 00 00 00 00	 push	 OFFSET ??_C@_0BD@EJPIGKAB@ElfAttackEffectDiv?$AA@
  00787	68 00 00 00 00	 push	 OFFSET ??_C@_05OEGOMMDP@Skill?$AA@
  0078c	ff 15 00 00 00
	00		 call	 DWORD PTR __imp__GetPrivateProfileIntA@16
  00792	8b 4d f8	 mov	 ecx, DWORD PTR _this$[ebp]
  00795	66 89 81 92 0b
	00 00		 mov	 WORD PTR [ecx+2962], ax

; 139  : 	this->ElfAttackEffectMax					= GetPrivateProfileInt(OTHER_SKILL_CM, "ElfAttackEffectMax", 600, OTHER_SKILL_DIR); 

  0079c	68 00 00 00 00	 push	 OFFSET ??_C@_0BK@EKJAJELJ@?4?4?2Data?2ExData?2Skills?4ini?$AA@
  007a1	68 58 02 00 00	 push	 600			; 00000258H
  007a6	68 00 00 00 00	 push	 OFFSET ??_C@_0BD@KEGAFJLN@ElfAttackEffectMax?$AA@
  007ab	68 00 00 00 00	 push	 OFFSET ??_C@_05OEGOMMDP@Skill?$AA@
  007b0	ff 15 00 00 00
	00		 call	 DWORD PTR __imp__GetPrivateProfileIntA@16
  007b6	8b 4d f8	 mov	 ecx, DWORD PTR _this$[ebp]
  007b9	89 81 94 0b 00
	00		 mov	 DWORD PTR [ecx+2964], eax

; 140  : 	this->ElfAttackTime						= GetPrivateProfileInt(OTHER_SKILL_CM, "ElfAttackTime", 600, OTHER_SKILL_DIR); 

  007bf	68 00 00 00 00	 push	 OFFSET ??_C@_0BK@EKJAJELJ@?4?4?2Data?2ExData?2Skills?4ini?$AA@
  007c4	68 58 02 00 00	 push	 600			; 00000258H
  007c9	68 00 00 00 00	 push	 OFFSET ??_C@_0O@OKEHNLCK@ElfAttackTime?$AA@
  007ce	68 00 00 00 00	 push	 OFFSET ??_C@_05OEGOMMDP@Skill?$AA@
  007d3	ff 15 00 00 00
	00		 call	 DWORD PTR __imp__GetPrivateProfileIntA@16
  007d9	8b 4d f8	 mov	 ecx, DWORD PTR _this$[ebp]
  007dc	89 81 98 0b 00
	00		 mov	 DWORD PTR [ecx+2968], eax

; 141  : 	this->CriticalDamageEffectDiv1			= GetPrivateProfileInt(OTHER_SKILL_CM, "CriticalDamageEffectDiv1", 600, OTHER_SKILL_DIR); 

  007e2	68 00 00 00 00	 push	 OFFSET ??_C@_0BK@EKJAJELJ@?4?4?2Data?2ExData?2Skills?4ini?$AA@
  007e7	68 58 02 00 00	 push	 600			; 00000258H
  007ec	68 00 00 00 00	 push	 OFFSET ??_C@_0BJ@JNMJFAAH@CriticalDamageEffectDiv1?$AA@
  007f1	68 00 00 00 00	 push	 OFFSET ??_C@_05OEGOMMDP@Skill?$AA@
  007f6	ff 15 00 00 00
	00		 call	 DWORD PTR __imp__GetPrivateProfileIntA@16
  007fc	8b 4d f8	 mov	 ecx, DWORD PTR _this$[ebp]
  007ff	66 89 81 9c 0b
	00 00		 mov	 WORD PTR [ecx+2972], ax

; 142  : 	this->CriticalDamageEffectDiv2			= GetPrivateProfileInt(OTHER_SKILL_CM, "CriticalDamageEffectDiv2", 600, OTHER_SKILL_DIR); 

  00806	68 00 00 00 00	 push	 OFFSET ??_C@_0BK@EKJAJELJ@?4?4?2Data?2ExData?2Skills?4ini?$AA@
  0080b	68 58 02 00 00	 push	 600			; 00000258H
  00810	68 00 00 00 00	 push	 OFFSET ??_C@_0BJ@LGOEADME@CriticalDamageEffectDiv2?$AA@
  00815	68 00 00 00 00	 push	 OFFSET ??_C@_05OEGOMMDP@Skill?$AA@
  0081a	ff 15 00 00 00
	00		 call	 DWORD PTR __imp__GetPrivateProfileIntA@16
  00820	8b 4d f8	 mov	 ecx, DWORD PTR _this$[ebp]
  00823	66 89 81 9e 0b
	00 00		 mov	 WORD PTR [ecx+2974], ax

; 143  : 	this->CriticalDamageEffectMax				= GetPrivateProfileInt(OTHER_SKILL_CM, "CriticalDamageEffectMax", 600, OTHER_SKILL_DIR); 

  0082a	68 00 00 00 00	 push	 OFFSET ??_C@_0BK@EKJAJELJ@?4?4?2Data?2ExData?2Skills?4ini?$AA@
  0082f	68 58 02 00 00	 push	 600			; 00000258H
  00834	68 00 00 00 00	 push	 OFFSET ??_C@_0BI@KHGBJLAD@CriticalDamageEffectMax?$AA@
  00839	68 00 00 00 00	 push	 OFFSET ??_C@_05OEGOMMDP@Skill?$AA@
  0083e	ff 15 00 00 00
	00		 call	 DWORD PTR __imp__GetPrivateProfileIntA@16
  00844	8b 4d f8	 mov	 ecx, DWORD PTR _this$[ebp]
  00847	66 89 81 a0 0b
	00 00		 mov	 WORD PTR [ecx+2976], ax

; 144  : 	this->CriticalDamageTimeStart				= GetPrivateProfileInt(OTHER_SKILL_CM, "CriticalDamageTimeStart", 600, OTHER_SKILL_DIR); 

  0084e	68 00 00 00 00	 push	 OFFSET ??_C@_0BK@EKJAJELJ@?4?4?2Data?2ExData?2Skills?4ini?$AA@
  00853	68 58 02 00 00	 push	 600			; 00000258H
  00858	68 00 00 00 00	 push	 OFFSET ??_C@_0BI@LBJFOHFM@CriticalDamageTimeStart?$AA@
  0085d	68 00 00 00 00	 push	 OFFSET ??_C@_05OEGOMMDP@Skill?$AA@
  00862	ff 15 00 00 00
	00		 call	 DWORD PTR __imp__GetPrivateProfileIntA@16
  00868	8b 4d f8	 mov	 ecx, DWORD PTR _this$[ebp]
  0086b	66 89 81 a2 0b
	00 00		 mov	 WORD PTR [ecx+2978], ax

; 145  : 	this->CriticalDamageTimeDiv				= GetPrivateProfileInt(OTHER_SKILL_CM, "CriticalDamageTimeDiv", 600, OTHER_SKILL_DIR); 

  00872	68 00 00 00 00	 push	 OFFSET ??_C@_0BK@EKJAJELJ@?4?4?2Data?2ExData?2Skills?4ini?$AA@
  00877	68 58 02 00 00	 push	 600			; 00000258H
  0087c	68 00 00 00 00	 push	 OFFSET ??_C@_0BG@IFFFDPA@CriticalDamageTimeDiv?$AA@
  00881	68 00 00 00 00	 push	 OFFSET ??_C@_05OEGOMMDP@Skill?$AA@
  00886	ff 15 00 00 00
	00		 call	 DWORD PTR __imp__GetPrivateProfileIntA@16
  0088c	8b 4d f8	 mov	 ecx, DWORD PTR _this$[ebp]
  0088f	66 89 81 a4 0b
	00 00		 mov	 WORD PTR [ecx+2980], ax

; 146  : 	this->CriticalDamageTimeMax				= GetPrivateProfileInt(OTHER_SKILL_CM, "CriticalDamageTimeMax", 600, OTHER_SKILL_DIR); 

  00896	68 00 00 00 00	 push	 OFFSET ??_C@_0BK@EKJAJELJ@?4?4?2Data?2ExData?2Skills?4ini?$AA@
  0089b	68 58 02 00 00	 push	 600			; 00000258H
  008a0	68 00 00 00 00	 push	 OFFSET ??_C@_0BG@OFMNGAEM@CriticalDamageTimeMax?$AA@
  008a5	68 00 00 00 00	 push	 OFFSET ??_C@_05OEGOMMDP@Skill?$AA@
  008aa	ff 15 00 00 00
	00		 call	 DWORD PTR __imp__GetPrivateProfileIntA@16
  008b0	8b 4d f8	 mov	 ecx, DWORD PTR _this$[ebp]
  008b3	89 81 a8 0b 00
	00		 mov	 DWORD PTR [ecx+2984], eax

; 147  : 	this->BerserkerManaIncDiv					= GetPrivateProfileInt(OTHER_SKILL_CM, "BerserkerManaIncDiv", 600, OTHER_SKILL_DIR); 

  008b9	68 00 00 00 00	 push	 OFFSET ??_C@_0BK@EKJAJELJ@?4?4?2Data?2ExData?2Skills?4ini?$AA@
  008be	68 58 02 00 00	 push	 600			; 00000258H
  008c3	68 00 00 00 00	 push	 OFFSET ??_C@_0BE@OIPBEFAB@BerserkerManaIncDiv?$AA@
  008c8	68 00 00 00 00	 push	 OFFSET ??_C@_05OEGOMMDP@Skill?$AA@
  008cd	ff 15 00 00 00
	00		 call	 DWORD PTR __imp__GetPrivateProfileIntA@16
  008d3	8b 4d f8	 mov	 ecx, DWORD PTR _this$[ebp]
  008d6	66 89 81 ac 0b
	00 00		 mov	 WORD PTR [ecx+2988], ax

; 148  : 	this->BerserkerLifeDecDiv					= GetPrivateProfileInt(OTHER_SKILL_CM, "BerserkerLifeDecDiv", 600, OTHER_SKILL_DIR); 

  008dd	68 00 00 00 00	 push	 OFFSET ??_C@_0BK@EKJAJELJ@?4?4?2Data?2ExData?2Skills?4ini?$AA@
  008e2	68 58 02 00 00	 push	 600			; 00000258H
  008e7	68 00 00 00 00	 push	 OFFSET ??_C@_0BE@OCKOHNE@BerserkerLifeDecDiv?$AA@
  008ec	68 00 00 00 00	 push	 OFFSET ??_C@_05OEGOMMDP@Skill?$AA@
  008f1	ff 15 00 00 00
	00		 call	 DWORD PTR __imp__GetPrivateProfileIntA@16
  008f7	8b 4d f8	 mov	 ecx, DWORD PTR _this$[ebp]
  008fa	66 89 81 ae 0b
	00 00		 mov	 WORD PTR [ecx+2990], ax

; 149  : 	this->BerserkerTimeStart					= GetPrivateProfileInt(OTHER_SKILL_CM, "BerserkerTimeStart", 600, OTHER_SKILL_DIR); 

  00901	68 00 00 00 00	 push	 OFFSET ??_C@_0BK@EKJAJELJ@?4?4?2Data?2ExData?2Skills?4ini?$AA@
  00906	68 58 02 00 00	 push	 600			; 00000258H
  0090b	68 00 00 00 00	 push	 OFFSET ??_C@_0BD@BHMKFOOP@BerserkerTimeStart?$AA@
  00910	68 00 00 00 00	 push	 OFFSET ??_C@_05OEGOMMDP@Skill?$AA@
  00915	ff 15 00 00 00
	00		 call	 DWORD PTR __imp__GetPrivateProfileIntA@16
  0091b	8b 4d f8	 mov	 ecx, DWORD PTR _this$[ebp]
  0091e	66 89 81 b0 0b
	00 00		 mov	 WORD PTR [ecx+2992], ax

; 150  : 	this->BerserkerTimeDiv					= GetPrivateProfileInt(OTHER_SKILL_CM, "BerserkerTimeDiv", 600, OTHER_SKILL_DIR); 

  00925	68 00 00 00 00	 push	 OFFSET ??_C@_0BK@EKJAJELJ@?4?4?2Data?2ExData?2Skills?4ini?$AA@
  0092a	68 58 02 00 00	 push	 600			; 00000258H
  0092f	68 00 00 00 00	 push	 OFFSET ??_C@_0BB@IFIKOEHI@BerserkerTimeDiv?$AA@
  00934	68 00 00 00 00	 push	 OFFSET ??_C@_05OEGOMMDP@Skill?$AA@
  00939	ff 15 00 00 00
	00		 call	 DWORD PTR __imp__GetPrivateProfileIntA@16
  0093f	8b 4d f8	 mov	 ecx, DWORD PTR _this$[ebp]
  00942	66 89 81 b2 0b
	00 00		 mov	 WORD PTR [ecx+2994], ax

; 151  : 	this->BerserkerTimeMax					= GetPrivateProfileInt(OTHER_SKILL_CM, "BerserkerTimeMax", 600, OTHER_SKILL_DIR); 

  00949	68 00 00 00 00	 push	 OFFSET ??_C@_0BK@EKJAJELJ@?4?4?2Data?2ExData?2Skills?4ini?$AA@
  0094e	68 58 02 00 00	 push	 600			; 00000258H
  00953	68 00 00 00 00	 push	 OFFSET ??_C@_0BB@GIBCNHME@BerserkerTimeMax?$AA@
  00958	68 00 00 00 00	 push	 OFFSET ??_C@_05OEGOMMDP@Skill?$AA@
  0095d	ff 15 00 00 00
	00		 call	 DWORD PTR __imp__GetPrivateProfileIntA@16
  00963	8b 4d f8	 mov	 ecx, DWORD PTR _this$[ebp]
  00966	89 81 b4 0b 00
	00		 mov	 DWORD PTR [ecx+2996], eax

; 152  : 	this->BerserkerProcentDamageMax				= GetPrivateProfileInt(OTHER_SKILL_CM, "BerserkerProcentDamageMax", 0, OTHER_SKILL_DIR); 

  0096c	68 00 00 00 00	 push	 OFFSET ??_C@_0BK@EKJAJELJ@?4?4?2Data?2ExData?2Skills?4ini?$AA@
  00971	6a 00		 push	 0
  00973	68 00 00 00 00	 push	 OFFSET ??_C@_0BK@MKJOKFKE@BerserkerProcentDamageMax?$AA@
  00978	68 00 00 00 00	 push	 OFFSET ??_C@_05OEGOMMDP@Skill?$AA@
  0097d	ff 15 00 00 00
	00		 call	 DWORD PTR __imp__GetPrivateProfileIntA@16
  00983	8b 4d f8	 mov	 ecx, DWORD PTR _this$[ebp]
  00986	66 89 81 b8 0b
	00 00		 mov	 WORD PTR [ecx+3000], ax

; 153  : 	this->BerserkerDefenceDivProcent	= GetPrivateProfileInt(OTHER_SKILL_CM, "BerserkerDefenceDivProcent", 10, OTHER_SKILL_DIR); 

  0098d	68 00 00 00 00	 push	 OFFSET ??_C@_0BK@EKJAJELJ@?4?4?2Data?2ExData?2Skills?4ini?$AA@
  00992	6a 0a		 push	 10			; 0000000aH
  00994	68 00 00 00 00	 push	 OFFSET ??_C@_0BL@OBKCINOG@BerserkerDefenceDivProcent?$AA@
  00999	68 00 00 00 00	 push	 OFFSET ??_C@_05OEGOMMDP@Skill?$AA@
  0099e	ff 15 00 00 00
	00		 call	 DWORD PTR __imp__GetPrivateProfileIntA@16
  009a4	8b 4d f8	 mov	 ecx, DWORD PTR _this$[ebp]
  009a7	66 89 81 ba 0b
	00 00		 mov	 WORD PTR [ecx+3002], ax

; 154  : 	this->ReflectEffectStart					= GetPrivateProfileInt(OTHER_SKILL_CM, "ReflectEffectStart", 600, OTHER_SKILL_DIR); 

  009ae	68 00 00 00 00	 push	 OFFSET ??_C@_0BK@EKJAJELJ@?4?4?2Data?2ExData?2Skills?4ini?$AA@
  009b3	68 58 02 00 00	 push	 600			; 00000258H
  009b8	68 00 00 00 00	 push	 OFFSET ??_C@_0BD@DINJGEOO@ReflectEffectStart?$AA@
  009bd	68 00 00 00 00	 push	 OFFSET ??_C@_05OEGOMMDP@Skill?$AA@
  009c2	ff 15 00 00 00
	00		 call	 DWORD PTR __imp__GetPrivateProfileIntA@16
  009c8	8b 4d f8	 mov	 ecx, DWORD PTR _this$[ebp]
  009cb	66 89 81 bc 0b
	00 00		 mov	 WORD PTR [ecx+3004], ax

; 155  : 	this->ReflectEffectDiv					= GetPrivateProfileInt(OTHER_SKILL_CM, "ReflectEffectDiv", 600, OTHER_SKILL_DIR); 

  009d2	68 00 00 00 00	 push	 OFFSET ??_C@_0BK@EKJAJELJ@?4?4?2Data?2ExData?2Skills?4ini?$AA@
  009d7	68 58 02 00 00	 push	 600			; 00000258H
  009dc	68 00 00 00 00	 push	 OFFSET ??_C@_0BB@BPODGPLG@ReflectEffectDiv?$AA@
  009e1	68 00 00 00 00	 push	 OFFSET ??_C@_05OEGOMMDP@Skill?$AA@
  009e6	ff 15 00 00 00
	00		 call	 DWORD PTR __imp__GetPrivateProfileIntA@16
  009ec	8b 4d f8	 mov	 ecx, DWORD PTR _this$[ebp]
  009ef	66 89 81 be 0b
	00 00		 mov	 WORD PTR [ecx+3006], ax

; 156  : 	this->ReflectEffectMax					= GetPrivateProfileInt(OTHER_SKILL_CM, "ReflectEffectMax", 600, OTHER_SKILL_DIR); 

  009f6	68 00 00 00 00	 push	 OFFSET ??_C@_0BK@EKJAJELJ@?4?4?2Data?2ExData?2Skills?4ini?$AA@
  009fb	68 58 02 00 00	 push	 600			; 00000258H
  00a00	68 00 00 00 00	 push	 OFFSET ??_C@_0BB@PCHLFMAK@ReflectEffectMax?$AA@
  00a05	68 00 00 00 00	 push	 OFFSET ??_C@_05OEGOMMDP@Skill?$AA@
  00a0a	ff 15 00 00 00
	00		 call	 DWORD PTR __imp__GetPrivateProfileIntA@16
  00a10	8b 4d f8	 mov	 ecx, DWORD PTR _this$[ebp]
  00a13	89 81 c0 0b 00
	00		 mov	 DWORD PTR [ecx+3008], eax

; 157  : 	this->ReflectTimeStart					= GetPrivateProfileInt(OTHER_SKILL_CM, "ReflectTimeStart", 600, OTHER_SKILL_DIR); 

  00a19	68 00 00 00 00	 push	 OFFSET ??_C@_0BK@EKJAJELJ@?4?4?2Data?2ExData?2Skills?4ini?$AA@
  00a1e	68 58 02 00 00	 push	 600			; 00000258H
  00a23	68 00 00 00 00	 push	 OFFSET ??_C@_0BB@OEIPCAFF@ReflectTimeStart?$AA@
  00a28	68 00 00 00 00	 push	 OFFSET ??_C@_05OEGOMMDP@Skill?$AA@
  00a2d	ff 15 00 00 00
	00		 call	 DWORD PTR __imp__GetPrivateProfileIntA@16
  00a33	8b 4d f8	 mov	 ecx, DWORD PTR _this$[ebp]
  00a36	66 89 81 c4 0b
	00 00		 mov	 WORD PTR [ecx+3012], ax

; 158  : 	this->ReflectTimeDiv						= GetPrivateProfileInt(OTHER_SKILL_CM, "ReflectTimeDiv", 600, OTHER_SKILL_DIR); 

  00a3d	68 00 00 00 00	 push	 OFFSET ??_C@_0BK@EKJAJELJ@?4?4?2Data?2ExData?2Skills?4ini?$AA@
  00a42	68 58 02 00 00	 push	 600			; 00000258H
  00a47	68 00 00 00 00	 push	 OFFSET ??_C@_0P@DDPAIKCD@ReflectTimeDiv?$AA@
  00a4c	68 00 00 00 00	 push	 OFFSET ??_C@_05OEGOMMDP@Skill?$AA@
  00a51	ff 15 00 00 00
	00		 call	 DWORD PTR __imp__GetPrivateProfileIntA@16
  00a57	8b 4d f8	 mov	 ecx, DWORD PTR _this$[ebp]
  00a5a	66 89 81 c6 0b
	00 00		 mov	 WORD PTR [ecx+3014], ax

; 159  : 	this->ReflectTimeMax						= GetPrivateProfileInt(OTHER_SKILL_CM, "ReflectTimeMax", 600, OTHER_SKILL_DIR); 

  00a61	68 00 00 00 00	 push	 OFFSET ??_C@_0BK@EKJAJELJ@?4?4?2Data?2ExData?2Skills?4ini?$AA@
  00a66	68 58 02 00 00	 push	 600			; 00000258H
  00a6b	68 00 00 00 00	 push	 OFFSET ??_C@_0P@NOGILJJP@ReflectTimeMax?$AA@
  00a70	68 00 00 00 00	 push	 OFFSET ??_C@_05OEGOMMDP@Skill?$AA@
  00a75	ff 15 00 00 00
	00		 call	 DWORD PTR __imp__GetPrivateProfileIntA@16
  00a7b	8b 4d f8	 mov	 ecx, DWORD PTR _this$[ebp]
  00a7e	89 81 c8 0b 00
	00		 mov	 DWORD PTR [ecx+3016], eax

; 160  : 	this->IgnoreDefenseEffectStart			= GetPrivateProfileInt(OTHER_SKILL_CM, "IgnoreDefenseEffectStart", 600, OTHER_SKILL_DIR); 

  00a84	68 00 00 00 00	 push	 OFFSET ??_C@_0BK@EKJAJELJ@?4?4?2Data?2ExData?2Skills?4ini?$AA@
  00a89	68 58 02 00 00	 push	 600			; 00000258H
  00a8e	68 00 00 00 00	 push	 OFFSET ??_C@_0BJ@OOADAFPG@IgnoreDefenseEffectStart?$AA@
  00a93	68 00 00 00 00	 push	 OFFSET ??_C@_05OEGOMMDP@Skill?$AA@
  00a98	ff 15 00 00 00
	00		 call	 DWORD PTR __imp__GetPrivateProfileIntA@16
  00a9e	8b 4d f8	 mov	 ecx, DWORD PTR _this$[ebp]
  00aa1	66 89 81 cc 0b
	00 00		 mov	 WORD PTR [ecx+3020], ax

; 161  : 	this->IgnoreDefenseEffectSub				= GetPrivateProfileInt(OTHER_SKILL_CM, "IgnoreDefenseEffectSub", 600, OTHER_SKILL_DIR); 

  00aa8	68 00 00 00 00	 push	 OFFSET ??_C@_0BK@EKJAJELJ@?4?4?2Data?2ExData?2Skills?4ini?$AA@
  00aad	68 58 02 00 00	 push	 600			; 00000258H
  00ab2	68 00 00 00 00	 push	 OFFSET ??_C@_0BH@JNFEBFBK@IgnoreDefenseEffectSub?$AA@
  00ab7	68 00 00 00 00	 push	 OFFSET ??_C@_05OEGOMMDP@Skill?$AA@
  00abc	ff 15 00 00 00
	00		 call	 DWORD PTR __imp__GetPrivateProfileIntA@16
  00ac2	8b 4d f8	 mov	 ecx, DWORD PTR _this$[ebp]
  00ac5	66 89 81 ce 0b
	00 00		 mov	 WORD PTR [ecx+3022], ax

; 162  : 	this->IgnoreDefenseEffectDiv				= GetPrivateProfileInt(OTHER_SKILL_CM, "IgnoreDefenseEffectDiv", 600, OTHER_SKILL_DIR); 

  00acc	68 00 00 00 00	 push	 OFFSET ??_C@_0BK@EKJAJELJ@?4?4?2Data?2ExData?2Skills?4ini?$AA@
  00ad1	68 58 02 00 00	 push	 600			; 00000258H
  00ad6	68 00 00 00 00	 push	 OFFSET ??_C@_0BH@GLAIPHHN@IgnoreDefenseEffectDiv?$AA@
  00adb	68 00 00 00 00	 push	 OFFSET ??_C@_05OEGOMMDP@Skill?$AA@
  00ae0	ff 15 00 00 00
	00		 call	 DWORD PTR __imp__GetPrivateProfileIntA@16
  00ae6	8b 4d f8	 mov	 ecx, DWORD PTR _this$[ebp]
  00ae9	66 89 81 d0 0b
	00 00		 mov	 WORD PTR [ecx+3024], ax

; 163  : 	this->IgnoreDefenseEffectMax				= GetPrivateProfileInt(OTHER_SKILL_CM, "IgnoreDefenseEffectMax", 600, OTHER_SKILL_DIR); 

  00af0	68 00 00 00 00	 push	 OFFSET ??_C@_0BK@EKJAJELJ@?4?4?2Data?2ExData?2Skills?4ini?$AA@
  00af5	68 58 02 00 00	 push	 600			; 00000258H
  00afa	68 00 00 00 00	 push	 OFFSET ??_C@_0BH@IGJAMEMB@IgnoreDefenseEffectMax?$AA@
  00aff	68 00 00 00 00	 push	 OFFSET ??_C@_05OEGOMMDP@Skill?$AA@
  00b04	ff 15 00 00 00
	00		 call	 DWORD PTR __imp__GetPrivateProfileIntA@16
  00b0a	8b 4d f8	 mov	 ecx, DWORD PTR _this$[ebp]
  00b0d	89 81 d4 0b 00
	00		 mov	 DWORD PTR [ecx+3028], eax

; 164  : 	this->IgnoreDefenseTimeStart				= GetPrivateProfileInt(OTHER_SKILL_CM, "IgnoreDefenseTimeStart", 600, OTHER_SKILL_DIR); 

  00b13	68 00 00 00 00	 push	 OFFSET ??_C@_0BK@EKJAJELJ@?4?4?2Data?2ExData?2Skills?4ini?$AA@
  00b18	68 58 02 00 00	 push	 600			; 00000258H
  00b1d	68 00 00 00 00	 push	 OFFSET ??_C@_0BH@JAGELIJO@IgnoreDefenseTimeStart?$AA@
  00b22	68 00 00 00 00	 push	 OFFSET ??_C@_05OEGOMMDP@Skill?$AA@
  00b27	ff 15 00 00 00
	00		 call	 DWORD PTR __imp__GetPrivateProfileIntA@16
  00b2d	8b 4d f8	 mov	 ecx, DWORD PTR _this$[ebp]
  00b30	66 89 81 d8 0b
	00 00		 mov	 WORD PTR [ecx+3032], ax

; 165  : 	this->IgnoreDefenseTimeDiv				= GetPrivateProfileInt(OTHER_SKILL_CM, "IgnoreDefenseTimeDiv", 600, OTHER_SKILL_DIR); 

  00b37	68 00 00 00 00	 push	 OFFSET ??_C@_0BK@EKJAJELJ@?4?4?2Data?2ExData?2Skills?4ini?$AA@
  00b3c	68 58 02 00 00	 push	 600			; 00000258H
  00b41	68 00 00 00 00	 push	 OFFSET ??_C@_0BF@HMHOBCNN@IgnoreDefenseTimeDiv?$AA@
  00b46	68 00 00 00 00	 push	 OFFSET ??_C@_05OEGOMMDP@Skill?$AA@
  00b4b	ff 15 00 00 00
	00		 call	 DWORD PTR __imp__GetPrivateProfileIntA@16
  00b51	8b 4d f8	 mov	 ecx, DWORD PTR _this$[ebp]
  00b54	66 89 81 da 0b
	00 00		 mov	 WORD PTR [ecx+3034], ax

; 166  : 	this->IgnoreDefenseTimeMax				= GetPrivateProfileInt(OTHER_SKILL_CM, "IgnoreDefenseTimeMax", 600, OTHER_SKILL_DIR); 

  00b5b	68 00 00 00 00	 push	 OFFSET ??_C@_0BK@EKJAJELJ@?4?4?2Data?2ExData?2Skills?4ini?$AA@
  00b60	68 58 02 00 00	 push	 600			; 00000258H
  00b65	68 00 00 00 00	 push	 OFFSET ??_C@_0BF@JBOGCBGB@IgnoreDefenseTimeMax?$AA@
  00b6a	68 00 00 00 00	 push	 OFFSET ??_C@_05OEGOMMDP@Skill?$AA@
  00b6f	ff 15 00 00 00
	00		 call	 DWORD PTR __imp__GetPrivateProfileIntA@16
  00b75	8b 4d f8	 mov	 ecx, DWORD PTR _this$[ebp]
  00b78	89 81 dc 0b 00
	00		 mov	 DWORD PTR [ecx+3036], eax

; 167  : 	this->IncreaseHealthEffectStart			= GetPrivateProfileInt(OTHER_SKILL_CM, "IncreaseHealthEffectStart", 600, OTHER_SKILL_DIR); 

  00b7e	68 00 00 00 00	 push	 OFFSET ??_C@_0BK@EKJAJELJ@?4?4?2Data?2ExData?2Skills?4ini?$AA@
  00b83	68 58 02 00 00	 push	 600			; 00000258H
  00b88	68 00 00 00 00	 push	 OFFSET ??_C@_0BK@FJGKLFFF@IncreaseHealthEffectStart?$AA@
  00b8d	68 00 00 00 00	 push	 OFFSET ??_C@_05OEGOMMDP@Skill?$AA@
  00b92	ff 15 00 00 00
	00		 call	 DWORD PTR __imp__GetPrivateProfileIntA@16
  00b98	8b 4d f8	 mov	 ecx, DWORD PTR _this$[ebp]
  00b9b	66 89 81 e0 0b
	00 00		 mov	 WORD PTR [ecx+3040], ax

; 168  : 	this->IncreaseHealthEffectSub				= GetPrivateProfileInt(OTHER_SKILL_CM, "IncreaseHealthEffectSub", 600, OTHER_SKILL_DIR); 

  00ba2	68 00 00 00 00	 push	 OFFSET ??_C@_0BK@EKJAJELJ@?4?4?2Data?2ExData?2Skills?4ini?$AA@
  00ba7	68 58 02 00 00	 push	 600			; 00000258H
  00bac	68 00 00 00 00	 push	 OFFSET ??_C@_0BI@MKPMIJHJ@IncreaseHealthEffectSub?$AA@
  00bb1	68 00 00 00 00	 push	 OFFSET ??_C@_05OEGOMMDP@Skill?$AA@
  00bb6	ff 15 00 00 00
	00		 call	 DWORD PTR __imp__GetPrivateProfileIntA@16
  00bbc	8b 4d f8	 mov	 ecx, DWORD PTR _this$[ebp]
  00bbf	66 89 81 e2 0b
	00 00		 mov	 WORD PTR [ecx+3042], ax

; 169  : 
; 170  : 	//this->m_IncreaseHealthEffectDiv				= GetPrivateProfileInt("SkillInfo", "IncreaseHealthEffectDiv", 600, gDirPath.GetNewPath(lpszFileName)); 
; 171  : 	char oszTempEx[256] = { 0 };

  00bc6	c6 85 ec fd ff
	ff 00		 mov	 BYTE PTR _oszTempEx$[ebp], 0
  00bcd	68 ff 00 00 00	 push	 255			; 000000ffH
  00bd2	6a 00		 push	 0
  00bd4	8d 85 ed fd ff
	ff		 lea	 eax, DWORD PTR _oszTempEx$[ebp+1]
  00bda	50		 push	 eax
  00bdb	e8 00 00 00 00	 call	 _memset
  00be0	83 c4 0c	 add	 esp, 12			; 0000000cH

; 172  : 	GetPrivateProfileString(OTHER_SKILL_CM, "DecTimePerAttackSpeed", "10", oszTempEx, 256, OTHER_SKILL_DIR);

  00be3	68 00 00 00 00	 push	 OFFSET ??_C@_0BK@EKJAJELJ@?4?4?2Data?2ExData?2Skills?4ini?$AA@
  00be8	68 00 01 00 00	 push	 256			; 00000100H
  00bed	8d 85 ec fd ff
	ff		 lea	 eax, DWORD PTR _oszTempEx$[ebp]
  00bf3	50		 push	 eax
  00bf4	68 00 00 00 00	 push	 OFFSET ??_C@_02PKFBJPLJ@10?$AA@
  00bf9	68 00 00 00 00	 push	 OFFSET ??_C@_0BG@MPJHCBCJ@DecTimePerAttackSpeed?$AA@
  00bfe	68 00 00 00 00	 push	 OFFSET ??_C@_05OEGOMMDP@Skill?$AA@
  00c03	ff 15 00 00 00
	00		 call	 DWORD PTR __imp__GetPrivateProfileStringA@24

; 173  : 	this->IncreaseHealthEffectDiv = atof(oszTempEx);

  00c09	8d 85 ec fd ff
	ff		 lea	 eax, DWORD PTR _oszTempEx$[ebp]
  00c0f	50		 push	 eax
  00c10	e8 00 00 00 00	 call	 _atof
  00c15	83 c4 04	 add	 esp, 4
  00c18	8b 4d f8	 mov	 ecx, DWORD PTR _this$[ebp]
  00c1b	d9 99 e4 0b 00
	00		 fstp	 DWORD PTR [ecx+3044]

; 174  : 
; 175  : 	this->IncreaseHealthEffectMax				= GetPrivateProfileInt(OTHER_SKILL_CM, "IncreaseHealthEffectMax", 600, OTHER_SKILL_DIR); 

  00c21	68 00 00 00 00	 push	 OFFSET ??_C@_0BK@EKJAJELJ@?4?4?2Data?2ExData?2Skills?4ini?$AA@
  00c26	68 58 02 00 00	 push	 600			; 00000258H
  00c2b	68 00 00 00 00	 push	 OFFSET ??_C@_0BI@NBDIFIKC@IncreaseHealthEffectMax?$AA@
  00c30	68 00 00 00 00	 push	 OFFSET ??_C@_05OEGOMMDP@Skill?$AA@
  00c35	ff 15 00 00 00
	00		 call	 DWORD PTR __imp__GetPrivateProfileIntA@16
  00c3b	8b 4d f8	 mov	 ecx, DWORD PTR _this$[ebp]
  00c3e	89 81 e8 0b 00
	00		 mov	 DWORD PTR [ecx+3048], eax

; 176  : 	this->IncreaseHealthTimeStart				= GetPrivateProfileInt(OTHER_SKILL_CM, "IncreaseHealthTimeStart", 600, OTHER_SKILL_DIR); 

  00c44	68 00 00 00 00	 push	 OFFSET ??_C@_0BK@EKJAJELJ@?4?4?2Data?2ExData?2Skills?4ini?$AA@
  00c49	68 58 02 00 00	 push	 600			; 00000258H
  00c4e	68 00 00 00 00	 push	 OFFSET ??_C@_0BI@MHMMCEPN@IncreaseHealthTimeStart?$AA@
  00c53	68 00 00 00 00	 push	 OFFSET ??_C@_05OEGOMMDP@Skill?$AA@
  00c58	ff 15 00 00 00
	00		 call	 DWORD PTR __imp__GetPrivateProfileIntA@16
  00c5e	8b 4d f8	 mov	 ecx, DWORD PTR _this$[ebp]
  00c61	66 89 81 ec 0b
	00 00		 mov	 WORD PTR [ecx+3052], ax

; 177  : 	this->IncreaseHealthTimeDiv				= GetPrivateProfileInt(OTHER_SKILL_CM, "IncreaseHealthTimeDiv", 600, OTHER_SKILL_DIR); 

  00c68	68 00 00 00 00	 push	 OFFSET ??_C@_0BK@EKJAJELJ@?4?4?2Data?2ExData?2Skills?4ini?$AA@
  00c6d	68 58 02 00 00	 push	 600			; 00000258H
  00c72	68 00 00 00 00	 push	 OFFSET ??_C@_0BG@OPFEMLKC@IncreaseHealthTimeDiv?$AA@
  00c77	68 00 00 00 00	 push	 OFFSET ??_C@_05OEGOMMDP@Skill?$AA@
  00c7c	ff 15 00 00 00
	00		 call	 DWORD PTR __imp__GetPrivateProfileIntA@16
  00c82	8b 4d f8	 mov	 ecx, DWORD PTR _this$[ebp]
  00c85	66 89 81 ee 0b
	00 00		 mov	 WORD PTR [ecx+3054], ax

; 178  : 	this->IncreaseHealthTimeMax				= GetPrivateProfileInt(OTHER_SKILL_CM, "IncreaseHealthTimeMax", 600, OTHER_SKILL_DIR); 

  00c8c	68 00 00 00 00	 push	 OFFSET ??_C@_0BK@EKJAJELJ@?4?4?2Data?2ExData?2Skills?4ini?$AA@
  00c91	68 58 02 00 00	 push	 600			; 00000258H
  00c96	68 00 00 00 00	 push	 OFFSET ??_C@_0BG@CMMPIBO@IncreaseHealthTimeMax?$AA@
  00c9b	68 00 00 00 00	 push	 OFFSET ??_C@_05OEGOMMDP@Skill?$AA@
  00ca0	ff 15 00 00 00
	00		 call	 DWORD PTR __imp__GetPrivateProfileIntA@16
  00ca6	8b 4d f8	 mov	 ecx, DWORD PTR _this$[ebp]
  00ca9	89 81 f0 0b 00
	00		 mov	 DWORD PTR [ecx+3056], eax

; 179  : 	this->IncreaseBlockEffectStart			= GetPrivateProfileInt(OTHER_SKILL_CM, "IncreaseBlockEffectStart", 600, OTHER_SKILL_DIR); 

  00caf	68 00 00 00 00	 push	 OFFSET ??_C@_0BK@EKJAJELJ@?4?4?2Data?2ExData?2Skills?4ini?$AA@
  00cb4	68 58 02 00 00	 push	 600			; 00000258H
  00cb9	68 00 00 00 00	 push	 OFFSET ??_C@_0BJ@MLOJIGOI@IncreaseBlockEffectStart?$AA@
  00cbe	68 00 00 00 00	 push	 OFFSET ??_C@_05OEGOMMDP@Skill?$AA@
  00cc3	ff 15 00 00 00
	00		 call	 DWORD PTR __imp__GetPrivateProfileIntA@16
  00cc9	8b 4d f8	 mov	 ecx, DWORD PTR _this$[ebp]
  00ccc	66 89 81 f4 0b
	00 00		 mov	 WORD PTR [ecx+3060], ax

; 180  : 	this->IncreaseBlockEffectSub				= GetPrivateProfileInt(OTHER_SKILL_CM, "IncreaseBlockEffectSub", 600, OTHER_SKILL_DIR); 

  00cd3	68 00 00 00 00	 push	 OFFSET ??_C@_0BK@EKJAJELJ@?4?4?2Data?2ExData?2Skills?4ini?$AA@
  00cd8	68 58 02 00 00	 push	 600			; 00000258H
  00cdd	68 00 00 00 00	 push	 OFFSET ??_C@_0BH@KJNKHPEI@IncreaseBlockEffectSub?$AA@
  00ce2	68 00 00 00 00	 push	 OFFSET ??_C@_05OEGOMMDP@Skill?$AA@
  00ce7	ff 15 00 00 00
	00		 call	 DWORD PTR __imp__GetPrivateProfileIntA@16
  00ced	8b 4d f8	 mov	 ecx, DWORD PTR _this$[ebp]
  00cf0	66 89 81 f6 0b
	00 00		 mov	 WORD PTR [ecx+3062], ax

; 181  : 	this->IncreaseBlockEffectDiv				= GetPrivateProfileInt(OTHER_SKILL_CM, "IncreaseBlockEffectDiv", 600, OTHER_SKILL_DIR); 

  00cf7	68 00 00 00 00	 push	 OFFSET ??_C@_0BK@EKJAJELJ@?4?4?2Data?2ExData?2Skills?4ini?$AA@
  00cfc	68 58 02 00 00	 push	 600			; 00000258H
  00d01	68 00 00 00 00	 push	 OFFSET ??_C@_0BH@FPIGJNCP@IncreaseBlockEffectDiv?$AA@
  00d06	68 00 00 00 00	 push	 OFFSET ??_C@_05OEGOMMDP@Skill?$AA@
  00d0b	ff 15 00 00 00
	00		 call	 DWORD PTR __imp__GetPrivateProfileIntA@16
  00d11	8b 4d f8	 mov	 ecx, DWORD PTR _this$[ebp]
  00d14	66 89 81 f8 0b
	00 00		 mov	 WORD PTR [ecx+3064], ax

; 182  : 	this->IncreaseBlockEffectMax				= GetPrivateProfileInt(OTHER_SKILL_CM, "IncreaseBlockEffectMax", 600, OTHER_SKILL_DIR); 

  00d1b	68 00 00 00 00	 push	 OFFSET ??_C@_0BK@EKJAJELJ@?4?4?2Data?2ExData?2Skills?4ini?$AA@
  00d20	68 58 02 00 00	 push	 600			; 00000258H
  00d25	68 00 00 00 00	 push	 OFFSET ??_C@_0BH@LCBOKOJD@IncreaseBlockEffectMax?$AA@
  00d2a	68 00 00 00 00	 push	 OFFSET ??_C@_05OEGOMMDP@Skill?$AA@
  00d2f	ff 15 00 00 00
	00		 call	 DWORD PTR __imp__GetPrivateProfileIntA@16
  00d35	8b 4d f8	 mov	 ecx, DWORD PTR _this$[ebp]
  00d38	89 81 fc 0b 00
	00		 mov	 DWORD PTR [ecx+3068], eax

; 183  : 	this->IncreaseBlockTimeStart				= GetPrivateProfileInt(OTHER_SKILL_CM, "IncreaseBlockTimeStart", 600, OTHER_SKILL_DIR); 

  00d3e	68 00 00 00 00	 push	 OFFSET ??_C@_0BK@EKJAJELJ@?4?4?2Data?2ExData?2Skills?4ini?$AA@
  00d43	68 58 02 00 00	 push	 600			; 00000258H
  00d48	68 00 00 00 00	 push	 OFFSET ??_C@_0BH@KEOKNCMM@IncreaseBlockTimeStart?$AA@
  00d4d	68 00 00 00 00	 push	 OFFSET ??_C@_05OEGOMMDP@Skill?$AA@
  00d52	ff 15 00 00 00
	00		 call	 DWORD PTR __imp__GetPrivateProfileIntA@16
  00d58	8b 4d f8	 mov	 ecx, DWORD PTR _this$[ebp]
  00d5b	66 89 81 00 0c
	00 00		 mov	 WORD PTR [ecx+3072], ax

; 184  : 	this->IncreaseBlockTimeDiv				= GetPrivateProfileInt(OTHER_SKILL_CM, "IncreaseBlockTimeDiv", 600, OTHER_SKILL_DIR); 

  00d62	68 00 00 00 00	 push	 OFFSET ??_C@_0BK@EKJAJELJ@?4?4?2Data?2ExData?2Skills?4ini?$AA@
  00d67	68 58 02 00 00	 push	 600			; 00000258H
  00d6c	68 00 00 00 00	 push	 OFFSET ??_C@_0BF@BKDJGFNH@IncreaseBlockTimeDiv?$AA@
  00d71	68 00 00 00 00	 push	 OFFSET ??_C@_05OEGOMMDP@Skill?$AA@
  00d76	ff 15 00 00 00
	00		 call	 DWORD PTR __imp__GetPrivateProfileIntA@16
  00d7c	8b 4d f8	 mov	 ecx, DWORD PTR _this$[ebp]
  00d7f	66 89 81 02 0c
	00 00		 mov	 WORD PTR [ecx+3074], ax

; 185  : 	this->IncreaseBlockTimeMax				= GetPrivateProfileInt(OTHER_SKILL_CM, "IncreaseBlockTimeMax", 600, OTHER_SKILL_DIR); 

  00d86	68 00 00 00 00	 push	 OFFSET ??_C@_0BK@EKJAJELJ@?4?4?2Data?2ExData?2Skills?4ini?$AA@
  00d8b	68 58 02 00 00	 push	 600			; 00000258H
  00d90	68 00 00 00 00	 push	 OFFSET ??_C@_0BF@PHKBFGGL@IncreaseBlockTimeMax?$AA@
  00d95	68 00 00 00 00	 push	 OFFSET ??_C@_05OEGOMMDP@Skill?$AA@
  00d9a	ff 15 00 00 00
	00		 call	 DWORD PTR __imp__GetPrivateProfileIntA@16
  00da0	8b 4d f8	 mov	 ecx, DWORD PTR _this$[ebp]
  00da3	89 81 04 0c 00
	00		 mov	 DWORD PTR [ecx+3076], eax

; 186  : 	// ----
; 187  : 	this->WeaknessEffectStartVsMob			= GetPrivateProfileInt(OTHER_SKILL_CM, "WeaknessEffectStartVsMob", 4, OTHER_SKILL_DIR);

  00da9	68 00 00 00 00	 push	 OFFSET ??_C@_0BK@EKJAJELJ@?4?4?2Data?2ExData?2Skills?4ini?$AA@
  00dae	6a 04		 push	 4
  00db0	68 00 00 00 00	 push	 OFFSET ??_C@_0BJ@JMADKNGD@WeaknessEffectStartVsMob?$AA@
  00db5	68 00 00 00 00	 push	 OFFSET ??_C@_05OEGOMMDP@Skill?$AA@
  00dba	ff 15 00 00 00
	00		 call	 DWORD PTR __imp__GetPrivateProfileIntA@16
  00dc0	8b 4d f8	 mov	 ecx, DWORD PTR _this$[ebp]
  00dc3	66 89 81 08 0c
	00 00		 mov	 WORD PTR [ecx+3080], ax

; 188  : 	this->WeaknessEffectDivVsMob				= GetPrivateProfileInt(OTHER_SKILL_CM, "WeaknessEffectDivVsMob", 58, OTHER_SKILL_DIR);

  00dca	68 00 00 00 00	 push	 OFFSET ??_C@_0BK@EKJAJELJ@?4?4?2Data?2ExData?2Skills?4ini?$AA@
  00dcf	6a 3a		 push	 58			; 0000003aH
  00dd1	68 00 00 00 00	 push	 OFFSET ??_C@_0BH@FFCKBPPA@WeaknessEffectDivVsMob?$AA@
  00dd6	68 00 00 00 00	 push	 OFFSET ??_C@_05OEGOMMDP@Skill?$AA@
  00ddb	ff 15 00 00 00
	00		 call	 DWORD PTR __imp__GetPrivateProfileIntA@16
  00de1	8b 4d f8	 mov	 ecx, DWORD PTR _this$[ebp]
  00de4	66 89 81 0a 0c
	00 00		 mov	 WORD PTR [ecx+3082], ax

; 189  : 	this->WeaknessEffectMaxVsMob				= GetPrivateProfileInt(OTHER_SKILL_CM, "WeaknessEffectMaxVsMob", 0, OTHER_SKILL_DIR);

  00deb	68 00 00 00 00	 push	 OFFSET ??_C@_0BK@EKJAJELJ@?4?4?2Data?2ExData?2Skills?4ini?$AA@
  00df0	6a 00		 push	 0
  00df2	68 00 00 00 00	 push	 OFFSET ??_C@_0BH@HKFDMJED@WeaknessEffectMaxVsMob?$AA@
  00df7	68 00 00 00 00	 push	 OFFSET ??_C@_05OEGOMMDP@Skill?$AA@
  00dfc	ff 15 00 00 00
	00		 call	 DWORD PTR __imp__GetPrivateProfileIntA@16
  00e02	8b 4d f8	 mov	 ecx, DWORD PTR _this$[ebp]
  00e05	66 89 81 0c 0c
	00 00		 mov	 WORD PTR [ecx+3084], ax

; 190  : 
; 191  : 	this->WeaknessTimeStartVsMob				= GetPrivateProfileInt(OTHER_SKILL_CM, "WeaknessTimeStartVsMob", 4, OTHER_SKILL_DIR);

  00e0c	68 00 00 00 00	 push	 OFFSET ??_C@_0BK@EKJAJELJ@?4?4?2Data?2ExData?2Skills?4ini?$AA@
  00e11	6a 04		 push	 4
  00e13	68 00 00 00 00	 push	 OFFSET ??_C@_0BH@EPKMOAKG@WeaknessTimeStartVsMob?$AA@
  00e18	68 00 00 00 00	 push	 OFFSET ??_C@_05OEGOMMDP@Skill?$AA@
  00e1d	ff 15 00 00 00
	00		 call	 DWORD PTR __imp__GetPrivateProfileIntA@16
  00e23	8b 4d f8	 mov	 ecx, DWORD PTR _this$[ebp]
  00e26	66 89 81 0e 0c
	00 00		 mov	 WORD PTR [ecx+3086], ax

; 192  : 	this->WeaknessTimeDivVsMob				= GetPrivateProfileInt(OTHER_SKILL_CM, "WeaknessTimeDivVsMob", 100, OTHER_SKILL_DIR);

  00e2d	68 00 00 00 00	 push	 OFFSET ??_C@_0BK@EKJAJELJ@?4?4?2Data?2ExData?2Skills?4ini?$AA@
  00e32	6a 64		 push	 100			; 00000064H
  00e34	68 00 00 00 00	 push	 OFFSET ??_C@_0BF@DAKMNMPJ@WeaknessTimeDivVsMob?$AA@
  00e39	68 00 00 00 00	 push	 OFFSET ??_C@_05OEGOMMDP@Skill?$AA@
  00e3e	ff 15 00 00 00
	00		 call	 DWORD PTR __imp__GetPrivateProfileIntA@16
  00e44	8b 4d f8	 mov	 ecx, DWORD PTR _this$[ebp]
  00e47	66 89 81 10 0c
	00 00		 mov	 WORD PTR [ecx+3088], ax

; 193  : 	this->WeaknessTimeMaxVsMob				= GetPrivateProfileInt(OTHER_SKILL_CM, "WeaknessTimeMaxVsMob", 0, OTHER_SKILL_DIR);

  00e4e	68 00 00 00 00	 push	 OFFSET ??_C@_0BK@EKJAJELJ@?4?4?2Data?2ExData?2Skills?4ini?$AA@
  00e53	6a 00		 push	 0
  00e55	68 00 00 00 00	 push	 OFFSET ??_C@_0BF@BPNFAKEK@WeaknessTimeMaxVsMob?$AA@
  00e5a	68 00 00 00 00	 push	 OFFSET ??_C@_05OEGOMMDP@Skill?$AA@
  00e5f	ff 15 00 00 00
	00		 call	 DWORD PTR __imp__GetPrivateProfileIntA@16
  00e65	8b 4d f8	 mov	 ecx, DWORD PTR _this$[ebp]
  00e68	66 89 81 12 0c
	00 00		 mov	 WORD PTR [ecx+3090], ax

; 194  : 
; 195  : 	this->WeaknessEffectStartVsUser			= GetPrivateProfileInt(OTHER_SKILL_CM, "WeaknessEffectStartVsUser", 3, OTHER_SKILL_DIR);

  00e6f	68 00 00 00 00	 push	 OFFSET ??_C@_0BK@EKJAJELJ@?4?4?2Data?2ExData?2Skills?4ini?$AA@
  00e74	6a 03		 push	 3
  00e76	68 00 00 00 00	 push	 OFFSET ??_C@_0BK@IGDOAKNK@WeaknessEffectStartVsUser?$AA@
  00e7b	68 00 00 00 00	 push	 OFFSET ??_C@_05OEGOMMDP@Skill?$AA@
  00e80	ff 15 00 00 00
	00		 call	 DWORD PTR __imp__GetPrivateProfileIntA@16
  00e86	8b 4d f8	 mov	 ecx, DWORD PTR _this$[ebp]
  00e89	66 89 81 14 0c
	00 00		 mov	 WORD PTR [ecx+3092], ax

; 196  : 	this->WeaknessEffectDivVsUser				= GetPrivateProfileInt(OTHER_SKILL_CM, "WeaknessEffectDivVsUser", 93, OTHER_SKILL_DIR);

  00e90	68 00 00 00 00	 push	 OFFSET ??_C@_0BK@EKJAJELJ@?4?4?2Data?2ExData?2Skills?4ini?$AA@
  00e95	6a 5d		 push	 93			; 0000005dH
  00e97	68 00 00 00 00	 push	 OFFSET ??_C@_0BI@OPPBOBJG@WeaknessEffectDivVsUser?$AA@
  00e9c	68 00 00 00 00	 push	 OFFSET ??_C@_05OEGOMMDP@Skill?$AA@
  00ea1	ff 15 00 00 00
	00		 call	 DWORD PTR __imp__GetPrivateProfileIntA@16
  00ea7	8b 4d f8	 mov	 ecx, DWORD PTR _this$[ebp]
  00eaa	66 89 81 16 0c
	00 00		 mov	 WORD PTR [ecx+3094], ax

; 197  : 	this->WeaknessEffectMaxVsUser				= GetPrivateProfileInt(OTHER_SKILL_CM, "WeaknessEffectMaxVsUser", 72, OTHER_SKILL_DIR);

  00eb1	68 00 00 00 00	 push	 OFFSET ??_C@_0BK@EKJAJELJ@?4?4?2Data?2ExData?2Skills?4ini?$AA@
  00eb6	6a 48		 push	 72			; 00000048H
  00eb8	68 00 00 00 00	 push	 OFFSET ??_C@_0BI@LNLGHKHG@WeaknessEffectMaxVsUser?$AA@
  00ebd	68 00 00 00 00	 push	 OFFSET ??_C@_05OEGOMMDP@Skill?$AA@
  00ec2	ff 15 00 00 00
	00		 call	 DWORD PTR __imp__GetPrivateProfileIntA@16
  00ec8	8b 4d f8	 mov	 ecx, DWORD PTR _this$[ebp]
  00ecb	66 89 81 18 0c
	00 00		 mov	 WORD PTR [ecx+3096], ax

; 198  : 
; 199  : 	this->WeaknessTimeStartVsUser				= GetPrivateProfileInt(OTHER_SKILL_CM, "WeaknessTimeStartVsUser", 5, OTHER_SKILL_DIR);

  00ed2	68 00 00 00 00	 push	 OFFSET ??_C@_0BK@EKJAJELJ@?4?4?2Data?2ExData?2Skills?4ini?$AA@
  00ed7	6a 05		 push	 5
  00ed9	68 00 00 00 00	 push	 OFFSET ??_C@_0BI@GNODJDKI@WeaknessTimeStartVsUser?$AA@
  00ede	68 00 00 00 00	 push	 OFFSET ??_C@_05OEGOMMDP@Skill?$AA@
  00ee3	ff 15 00 00 00
	00		 call	 DWORD PTR __imp__GetPrivateProfileIntA@16
  00ee9	8b 4d f8	 mov	 ecx, DWORD PTR _this$[ebp]
  00eec	66 89 81 1a 0c
	00 00		 mov	 WORD PTR [ecx+3098], ax

; 200  : 	this->WeaknessTimeDivVsUser				= GetPrivateProfileInt(OTHER_SKILL_CM, "WeaknessTimeDivVsUser", 300, OTHER_SKILL_DIR);

  00ef3	68 00 00 00 00	 push	 OFFSET ??_C@_0BK@EKJAJELJ@?4?4?2Data?2ExData?2Skills?4ini?$AA@
  00ef8	68 2c 01 00 00	 push	 300			; 0000012cH
  00efd	68 00 00 00 00	 push	 OFFSET ??_C@_0BG@JGEINPPB@WeaknessTimeDivVsUser?$AA@
  00f02	68 00 00 00 00	 push	 OFFSET ??_C@_05OEGOMMDP@Skill?$AA@
  00f07	ff 15 00 00 00
	00		 call	 DWORD PTR __imp__GetPrivateProfileIntA@16
  00f0d	8b 4d f8	 mov	 ecx, DWORD PTR _this$[ebp]
  00f10	66 89 81 1c 0c
	00 00		 mov	 WORD PTR [ecx+3100], ax

; 201  : 	this->WeaknessTimeMaxVsUser				= GetPrivateProfileInt(OTHER_SKILL_CM, "WeaknessTimeMaxVsUser", 0, OTHER_SKILL_DIR);

  00f17	68 00 00 00 00	 push	 OFFSET ??_C@_0BK@EKJAJELJ@?4?4?2Data?2ExData?2Skills?4ini?$AA@
  00f1c	6a 00		 push	 0
  00f1e	68 00 00 00 00	 push	 OFFSET ??_C@_0BG@MEAPEEBB@WeaknessTimeMaxVsUser?$AA@
  00f23	68 00 00 00 00	 push	 OFFSET ??_C@_05OEGOMMDP@Skill?$AA@
  00f28	ff 15 00 00 00
	00		 call	 DWORD PTR __imp__GetPrivateProfileIntA@16
  00f2e	8b 4d f8	 mov	 ecx, DWORD PTR _this$[ebp]
  00f31	66 89 81 1e 0c
	00 00		 mov	 WORD PTR [ecx+3102], ax

; 202  : 	this->WeaknessMaxPower				= GetPrivateProfileInt(OTHER_SKILL_CM, "WeaknessMaxPower", 0, OTHER_SKILL_DIR);

  00f38	68 00 00 00 00	 push	 OFFSET ??_C@_0BK@EKJAJELJ@?4?4?2Data?2ExData?2Skills?4ini?$AA@
  00f3d	6a 00		 push	 0
  00f3f	68 00 00 00 00	 push	 OFFSET ??_C@_0BB@EHPNILIJ@WeaknessMaxPower?$AA@
  00f44	68 00 00 00 00	 push	 OFFSET ??_C@_05OEGOMMDP@Skill?$AA@
  00f49	ff 15 00 00 00
	00		 call	 DWORD PTR __imp__GetPrivateProfileIntA@16
  00f4f	8b 4d f8	 mov	 ecx, DWORD PTR _this$[ebp]
  00f52	66 89 81 20 0c
	00 00		 mov	 WORD PTR [ecx+3104], ax

; 203  : 	// ----
; 204  : 	this->InnovationEffectStartVsMob			= GetPrivateProfileInt(OTHER_SKILL_CM, "InnovationEffectStartVsMob", 20, OTHER_SKILL_DIR);

  00f59	68 00 00 00 00	 push	 OFFSET ??_C@_0BK@EKJAJELJ@?4?4?2Data?2ExData?2Skills?4ini?$AA@
  00f5e	6a 14		 push	 20			; 00000014H
  00f60	68 00 00 00 00	 push	 OFFSET ??_C@_0BL@LNNDEEFE@InnovationEffectStartVsMob?$AA@
  00f65	68 00 00 00 00	 push	 OFFSET ??_C@_05OEGOMMDP@Skill?$AA@
  00f6a	ff 15 00 00 00
	00		 call	 DWORD PTR __imp__GetPrivateProfileIntA@16
  00f70	8b 4d f8	 mov	 ecx, DWORD PTR _this$[ebp]
  00f73	66 89 81 22 0c
	00 00		 mov	 WORD PTR [ecx+3106], ax

; 205  : 	this->InnovationEffectDivVsMob			= GetPrivateProfileInt(OTHER_SKILL_CM, "InnovationEffectDivVsMob", 90, OTHER_SKILL_DIR);

  00f7a	68 00 00 00 00	 push	 OFFSET ??_C@_0BK@EKJAJELJ@?4?4?2Data?2ExData?2Skills?4ini?$AA@
  00f7f	6a 5a		 push	 90			; 0000005aH
  00f81	68 00 00 00 00	 push	 OFFSET ??_C@_0BJ@CDAAOLOJ@InnovationEffectDivVsMob?$AA@
  00f86	68 00 00 00 00	 push	 OFFSET ??_C@_05OEGOMMDP@Skill?$AA@
  00f8b	ff 15 00 00 00
	00		 call	 DWORD PTR __imp__GetPrivateProfileIntA@16
  00f91	8b 4d f8	 mov	 ecx, DWORD PTR _this$[ebp]
  00f94	66 89 81 24 0c
	00 00		 mov	 WORD PTR [ecx+3108], ax

; 206  : 	this->InnovationEffectMaxVsMob			= GetPrivateProfileInt(OTHER_SKILL_CM, "InnovationEffectMaxVsMob", 0, OTHER_SKILL_DIR);

  00f9b	68 00 00 00 00	 push	 OFFSET ??_C@_0BK@EKJAJELJ@?4?4?2Data?2ExData?2Skills?4ini?$AA@
  00fa0	6a 00		 push	 0
  00fa2	68 00 00 00 00	 push	 OFFSET ??_C@_0BJ@MHJDNFK@InnovationEffectMaxVsMob?$AA@
  00fa7	68 00 00 00 00	 push	 OFFSET ??_C@_05OEGOMMDP@Skill?$AA@
  00fac	ff 15 00 00 00
	00		 call	 DWORD PTR __imp__GetPrivateProfileIntA@16
  00fb2	8b 4d f8	 mov	 ecx, DWORD PTR _this$[ebp]
  00fb5	66 89 81 26 0c
	00 00		 mov	 WORD PTR [ecx+3110], ax

; 207  : 
; 208  : 	this->InnovationTimeStartVsMob			= GetPrivateProfileInt(OTHER_SKILL_CM, "InnovationTimeStartVsMob", 4, OTHER_SKILL_DIR);

  00fbc	68 00 00 00 00	 push	 OFFSET ??_C@_0BK@EKJAJELJ@?4?4?2Data?2ExData?2Skills?4ini?$AA@
  00fc1	6a 04		 push	 4
  00fc3	68 00 00 00 00	 push	 OFFSET ??_C@_0BJ@DJIGBELP@InnovationTimeStartVsMob?$AA@
  00fc8	68 00 00 00 00	 push	 OFFSET ??_C@_05OEGOMMDP@Skill?$AA@
  00fcd	ff 15 00 00 00
	00		 call	 DWORD PTR __imp__GetPrivateProfileIntA@16
  00fd3	8b 4d f8	 mov	 ecx, DWORD PTR _this$[ebp]
  00fd6	66 89 81 28 0c
	00 00		 mov	 WORD PTR [ecx+3112], ax

; 209  : 	this->InnovationTimeDivVsMob				= GetPrivateProfileInt(OTHER_SKILL_CM, "InnovationTimeDivVsMob", 100, OTHER_SKILL_DIR);

  00fdd	68 00 00 00 00	 push	 OFFSET ??_C@_0BK@EKJAJELJ@?4?4?2Data?2ExData?2Skills?4ini?$AA@
  00fe2	6a 64		 push	 100			; 00000064H
  00fe4	68 00 00 00 00	 push	 OFFSET ??_C@_0BH@DMADMHCM@InnovationTimeDivVsMob?$AA@
  00fe9	68 00 00 00 00	 push	 OFFSET ??_C@_05OEGOMMDP@Skill?$AA@
  00fee	ff 15 00 00 00
	00		 call	 DWORD PTR __imp__GetPrivateProfileIntA@16
  00ff4	8b 4d f8	 mov	 ecx, DWORD PTR _this$[ebp]
  00ff7	66 89 81 2a 0c
	00 00		 mov	 WORD PTR [ecx+3114], ax

; 210  : 	this->InnovationTimeMaxVsMob				= GetPrivateProfileInt(OTHER_SKILL_CM, "InnovationTimeMaxVsMob", 0, OTHER_SKILL_DIR);

  00ffe	68 00 00 00 00	 push	 OFFSET ??_C@_0BK@EKJAJELJ@?4?4?2Data?2ExData?2Skills?4ini?$AA@
  01003	6a 00		 push	 0
  01005	68 00 00 00 00	 push	 OFFSET ??_C@_0BH@BDHKBBJP@InnovationTimeMaxVsMob?$AA@
  0100a	68 00 00 00 00	 push	 OFFSET ??_C@_05OEGOMMDP@Skill?$AA@
  0100f	ff 15 00 00 00
	00		 call	 DWORD PTR __imp__GetPrivateProfileIntA@16
  01015	8b 4d f8	 mov	 ecx, DWORD PTR _this$[ebp]
  01018	66 89 81 2c 0c
	00 00		 mov	 WORD PTR [ecx+3116], ax

; 211  : 
; 212  : 	this->InnovationEffectStartVsUser			= GetPrivateProfileInt(OTHER_SKILL_CM, "InnovationEffectStartVsUser", 12, OTHER_SKILL_DIR);

  0101f	68 00 00 00 00	 push	 OFFSET ??_C@_0BK@EKJAJELJ@?4?4?2Data?2ExData?2Skills?4ini?$AA@
  01024	6a 0c		 push	 12			; 0000000cH
  01026	68 00 00 00 00	 push	 OFFSET ??_C@_0BM@DOKCHPDM@InnovationEffectStartVsUser?$AA@
  0102b	68 00 00 00 00	 push	 OFFSET ??_C@_05OEGOMMDP@Skill?$AA@
  01030	ff 15 00 00 00
	00		 call	 DWORD PTR __imp__GetPrivateProfileIntA@16
  01036	8b 4d f8	 mov	 ecx, DWORD PTR _this$[ebp]
  01039	66 89 81 2e 0c
	00 00		 mov	 WORD PTR [ecx+3118], ax

; 213  : 	this->InnovationEffectDivVsUser			= GetPrivateProfileInt(OTHER_SKILL_CM, "InnovationEffectDivVsUser", 110, OTHER_SKILL_DIR);

  01040	68 00 00 00 00	 push	 OFFSET ??_C@_0BK@EKJAJELJ@?4?4?2Data?2ExData?2Skills?4ini?$AA@
  01045	6a 6e		 push	 110			; 0000006eH
  01047	68 00 00 00 00	 push	 OFFSET ??_C@_0BK@ILOMGDKC@InnovationEffectDivVsUser?$AA@
  0104c	68 00 00 00 00	 push	 OFFSET ??_C@_05OEGOMMDP@Skill?$AA@
  01051	ff 15 00 00 00
	00		 call	 DWORD PTR __imp__GetPrivateProfileIntA@16
  01057	8b 4d f8	 mov	 ecx, DWORD PTR _this$[ebp]
  0105a	66 89 81 30 0c
	00 00		 mov	 WORD PTR [ecx+3120], ax

; 214  : 	this->InnovationEffectMaxVsUser			= GetPrivateProfileInt(OTHER_SKILL_CM, "InnovationEffectMaxVsUser", 0, OTHER_SKILL_DIR);

  01061	68 00 00 00 00	 push	 OFFSET ??_C@_0BK@EKJAJELJ@?4?4?2Data?2ExData?2Skills?4ini?$AA@
  01066	6a 00		 push	 0
  01068	68 00 00 00 00	 push	 OFFSET ??_C@_0BK@NJKLPIEC@InnovationEffectMaxVsUser?$AA@
  0106d	68 00 00 00 00	 push	 OFFSET ??_C@_05OEGOMMDP@Skill?$AA@
  01072	ff 15 00 00 00
	00		 call	 DWORD PTR __imp__GetPrivateProfileIntA@16
  01078	8b 4d f8	 mov	 ecx, DWORD PTR _this$[ebp]
  0107b	66 89 81 32 0c
	00 00		 mov	 WORD PTR [ecx+3122], ax

; 215  : 
; 216  : 	this->InnovationTimeStartVsUser			= GetPrivateProfileInt(OTHER_SKILL_CM, "InnovationTimeStartVsUser", 5, OTHER_SKILL_DIR);

  01082	68 00 00 00 00	 push	 OFFSET ??_C@_0BK@EKJAJELJ@?4?4?2Data?2ExData?2Skills?4ini?$AA@
  01087	6a 05		 push	 5
  01089	68 00 00 00 00	 push	 OFFSET ??_C@_0BK@JPOBBJM@InnovationTimeStartVsUser?$AA@
  0108e	68 00 00 00 00	 push	 OFFSET ??_C@_05OEGOMMDP@Skill?$AA@
  01093	ff 15 00 00 00
	00		 call	 DWORD PTR __imp__GetPrivateProfileIntA@16
  01099	8b 4d f8	 mov	 ecx, DWORD PTR _this$[ebp]
  0109c	66 89 81 34 0c
	00 00		 mov	 WORD PTR [ecx+3124], ax

; 217  : 	this->InnovationTimeDivVsUser				= GetPrivateProfileInt(OTHER_SKILL_CM, "InnovationTimeDivVsUser", 300, OTHER_SKILL_DIR);

  010a3	68 00 00 00 00	 push	 OFFSET ??_C@_0BK@EKJAJELJ@?4?4?2Data?2ExData?2Skills?4ini?$AA@
  010a8	68 2c 01 00 00	 push	 300			; 0000012cH
  010ad	68 00 00 00 00	 push	 OFFSET ??_C@_0BI@GAPNFGLB@InnovationTimeDivVsUser?$AA@
  010b2	68 00 00 00 00	 push	 OFFSET ??_C@_05OEGOMMDP@Skill?$AA@
  010b7	ff 15 00 00 00
	00		 call	 DWORD PTR __imp__GetPrivateProfileIntA@16
  010bd	8b 4d f8	 mov	 ecx, DWORD PTR _this$[ebp]
  010c0	66 89 81 36 0c
	00 00		 mov	 WORD PTR [ecx+3126], ax

; 218  : 	this->InnovationTimeMaxVsUser				= GetPrivateProfileInt(OTHER_SKILL_CM, "InnovationTimeMaxVsUser", 0, OTHER_SKILL_DIR);	

  010c7	68 00 00 00 00	 push	 OFFSET ??_C@_0BK@EKJAJELJ@?4?4?2Data?2ExData?2Skills?4ini?$AA@
  010cc	6a 00		 push	 0
  010ce	68 00 00 00 00	 push	 OFFSET ??_C@_0BI@DCLKMNFB@InnovationTimeMaxVsUser?$AA@
  010d3	68 00 00 00 00	 push	 OFFSET ??_C@_05OEGOMMDP@Skill?$AA@
  010d8	ff 15 00 00 00
	00		 call	 DWORD PTR __imp__GetPrivateProfileIntA@16
  010de	8b 4d f8	 mov	 ecx, DWORD PTR _this$[ebp]
  010e1	66 89 81 38 0c
	00 00		 mov	 WORD PTR [ecx+3128], ax

; 219  : 	this->InnovationMaxPower				= GetPrivateProfileInt(OTHER_SKILL_CM, "InnovationMaxPower", 0, OTHER_SKILL_DIR);	

  010e8	68 00 00 00 00	 push	 OFFSET ??_C@_0BK@EKJAJELJ@?4?4?2Data?2ExData?2Skills?4ini?$AA@
  010ed	6a 00		 push	 0
  010ef	68 00 00 00 00	 push	 OFFSET ??_C@_0BD@GFPKBGOG@InnovationMaxPower?$AA@
  010f4	68 00 00 00 00	 push	 OFFSET ??_C@_05OEGOMMDP@Skill?$AA@
  010f9	ff 15 00 00 00
	00		 call	 DWORD PTR __imp__GetPrivateProfileIntA@16
  010ff	8b 4d f8	 mov	 ecx, DWORD PTR _this$[ebp]
  01102	66 89 81 3a 0c
	00 00		 mov	 WORD PTR [ecx+3130], ax

; 220  : 	// ----
; 221  : 
; 222  : 	this->SleepRateStartVsMob					= GetPrivateProfileInt(OTHER_SKILL_CM, "SleepRateStartVsMob", 20, OTHER_SKILL_DIR);

  01109	68 00 00 00 00	 push	 OFFSET ??_C@_0BK@EKJAJELJ@?4?4?2Data?2ExData?2Skills?4ini?$AA@
  0110e	6a 14		 push	 20			; 00000014H
  01110	68 00 00 00 00	 push	 OFFSET ??_C@_0BE@BNLKCCNC@SleepRateStartVsMob?$AA@
  01115	68 00 00 00 00	 push	 OFFSET ??_C@_05OEGOMMDP@Skill?$AA@
  0111a	ff 15 00 00 00
	00		 call	 DWORD PTR __imp__GetPrivateProfileIntA@16
  01120	8b 4d f8	 mov	 ecx, DWORD PTR _this$[ebp]
  01123	66 89 81 3c 0c
	00 00		 mov	 WORD PTR [ecx+3132], ax

; 223  : 	this->SleepRateDivVsMob					= GetPrivateProfileInt(OTHER_SKILL_CM, "SleepRateDivVsMob", 30, OTHER_SKILL_DIR);

  0112a	68 00 00 00 00	 push	 OFFSET ??_C@_0BK@EKJAJELJ@?4?4?2Data?2ExData?2Skills?4ini?$AA@
  0112f	6a 1e		 push	 30			; 0000001eH
  01131	68 00 00 00 00	 push	 OFFSET ??_C@_0BC@KBJCNCPE@SleepRateDivVsMob?$AA@
  01136	68 00 00 00 00	 push	 OFFSET ??_C@_05OEGOMMDP@Skill?$AA@
  0113b	ff 15 00 00 00
	00		 call	 DWORD PTR __imp__GetPrivateProfileIntA@16
  01141	8b 4d f8	 mov	 ecx, DWORD PTR _this$[ebp]
  01144	66 89 81 3e 0c
	00 00		 mov	 WORD PTR [ecx+3134], ax

; 224  : 	this->SleepRateMaxVsMob					= GetPrivateProfileInt(OTHER_SKILL_CM, "SleepRateMaxVsMob", 0, OTHER_SKILL_DIR);

  0114b	68 00 00 00 00	 push	 OFFSET ??_C@_0BK@EKJAJELJ@?4?4?2Data?2ExData?2Skills?4ini?$AA@
  01150	6a 00		 push	 0
  01152	68 00 00 00 00	 push	 OFFSET ??_C@_0BC@IOOLAEEH@SleepRateMaxVsMob?$AA@
  01157	68 00 00 00 00	 push	 OFFSET ??_C@_05OEGOMMDP@Skill?$AA@
  0115c	ff 15 00 00 00
	00		 call	 DWORD PTR __imp__GetPrivateProfileIntA@16
  01162	8b 4d f8	 mov	 ecx, DWORD PTR _this$[ebp]
  01165	66 89 81 40 0c
	00 00		 mov	 WORD PTR [ecx+3136], ax

; 225  : 
; 226  : 	this->SleepRateStartVsUser				= GetPrivateProfileInt(OTHER_SKILL_CM, "SleepRateStartVsUser", 15, OTHER_SKILL_DIR);

  0116c	68 00 00 00 00	 push	 OFFSET ??_C@_0BK@EKJAJELJ@?4?4?2Data?2ExData?2Skills?4ini?$AA@
  01171	6a 0f		 push	 15			; 0000000fH
  01173	68 00 00 00 00	 push	 OFFSET ??_C@_0BF@DKNJDAEP@SleepRateStartVsUser?$AA@
  01178	68 00 00 00 00	 push	 OFFSET ??_C@_05OEGOMMDP@Skill?$AA@
  0117d	ff 15 00 00 00
	00		 call	 DWORD PTR __imp__GetPrivateProfileIntA@16
  01183	8b 4d f8	 mov	 ecx, DWORD PTR _this$[ebp]
  01186	66 89 81 48 0c
	00 00		 mov	 WORD PTR [ecx+3144], ax

; 227  : 	this->SleepRateDivVsUser					= GetPrivateProfileInt(OTHER_SKILL_CM, "SleepRateDivVsUser", 37, OTHER_SKILL_DIR);

  0118d	68 00 00 00 00	 push	 OFFSET ??_C@_0BK@EKJAJELJ@?4?4?2Data?2ExData?2Skills?4ini?$AA@
  01192	6a 25		 push	 37			; 00000025H
  01194	68 00 00 00 00	 push	 OFFSET ??_C@_0BD@OIGIJNEC@SleepRateDivVsUser?$AA@
  01199	68 00 00 00 00	 push	 OFFSET ??_C@_05OEGOMMDP@Skill?$AA@
  0119e	ff 15 00 00 00
	00		 call	 DWORD PTR __imp__GetPrivateProfileIntA@16
  011a4	8b 4d f8	 mov	 ecx, DWORD PTR _this$[ebp]
  011a7	66 89 81 4a 0c
	00 00		 mov	 WORD PTR [ecx+3146], ax

; 228  : 	this->SleepRateMaxVsUser					= GetPrivateProfileInt(OTHER_SKILL_CM, "SleepRateMaxVsUser", 0, OTHER_SKILL_DIR);

  011ae	68 00 00 00 00	 push	 OFFSET ??_C@_0BK@EKJAJELJ@?4?4?2Data?2ExData?2Skills?4ini?$AA@
  011b3	6a 00		 push	 0
  011b5	68 00 00 00 00	 push	 OFFSET ??_C@_0BD@LKCPAGKC@SleepRateMaxVsUser?$AA@
  011ba	68 00 00 00 00	 push	 OFFSET ??_C@_05OEGOMMDP@Skill?$AA@
  011bf	ff 15 00 00 00
	00		 call	 DWORD PTR __imp__GetPrivateProfileIntA@16
  011c5	8b 4d f8	 mov	 ecx, DWORD PTR _this$[ebp]
  011c8	66 89 81 4c 0c
	00 00		 mov	 WORD PTR [ecx+3148], ax

; 229  : 
; 230  : 	this->SleepTimeStartVsMob					= GetPrivateProfileInt(OTHER_SKILL_CM, "SleepTimeStartVsMob", 5, OTHER_SKILL_DIR);

  011cf	68 00 00 00 00	 push	 OFFSET ??_C@_0BK@EKJAJELJ@?4?4?2Data?2ExData?2Skills?4ini?$AA@
  011d4	6a 05		 push	 5
  011d6	68 00 00 00 00	 push	 OFFSET ??_C@_0BE@DPILEECE@SleepTimeStartVsMob?$AA@
  011db	68 00 00 00 00	 push	 OFFSET ??_C@_05OEGOMMDP@Skill?$AA@
  011e0	ff 15 00 00 00
	00		 call	 DWORD PTR __imp__GetPrivateProfileIntA@16
  011e6	8b 4d f8	 mov	 ecx, DWORD PTR _this$[ebp]
  011e9	66 89 81 42 0c
	00 00		 mov	 WORD PTR [ecx+3138], ax

; 231  : 	this->SleepTimeDivVsMob					= GetPrivateProfileInt(OTHER_SKILL_CM, "SleepTimeDivVsMob", 100, OTHER_SKILL_DIR);

  011f0	68 00 00 00 00	 push	 OFFSET ??_C@_0BK@EKJAJELJ@?4?4?2Data?2ExData?2Skills?4ini?$AA@
  011f5	6a 64		 push	 100			; 00000064H
  011f7	68 00 00 00 00	 push	 OFFSET ??_C@_0BC@NCMAIBJJ@SleepTimeDivVsMob?$AA@
  011fc	68 00 00 00 00	 push	 OFFSET ??_C@_05OEGOMMDP@Skill?$AA@
  01201	ff 15 00 00 00
	00		 call	 DWORD PTR __imp__GetPrivateProfileIntA@16
  01207	8b 4d f8	 mov	 ecx, DWORD PTR _this$[ebp]
  0120a	66 89 81 44 0c
	00 00		 mov	 WORD PTR [ecx+3140], ax

; 232  : 	this->SleepTimeMaxVsMob					= GetPrivateProfileInt(OTHER_SKILL_CM, "SleepTimeMaxVsMob", 0, OTHER_SKILL_DIR);

  01211	68 00 00 00 00	 push	 OFFSET ??_C@_0BK@EKJAJELJ@?4?4?2Data?2ExData?2Skills?4ini?$AA@
  01216	6a 00		 push	 0
  01218	68 00 00 00 00	 push	 OFFSET ??_C@_0BC@PNLJFHCK@SleepTimeMaxVsMob?$AA@
  0121d	68 00 00 00 00	 push	 OFFSET ??_C@_05OEGOMMDP@Skill?$AA@
  01222	ff 15 00 00 00
	00		 call	 DWORD PTR __imp__GetPrivateProfileIntA@16
  01228	8b 4d f8	 mov	 ecx, DWORD PTR _this$[ebp]
  0122b	66 89 81 46 0c
	00 00		 mov	 WORD PTR [ecx+3142], ax

; 233  : 
; 234  : 	this->SleepTimeStartVsUser				= GetPrivateProfileInt(OTHER_SKILL_CM, "SleepTimeStartVsUser", 4, OTHER_SKILL_DIR);

  01232	68 00 00 00 00	 push	 OFFSET ??_C@_0BK@EKJAJELJ@?4?4?2Data?2ExData?2Skills?4ini?$AA@
  01237	6a 04		 push	 4
  01239	68 00 00 00 00	 push	 OFFSET ??_C@_0BF@GOCFFGAA@SleepTimeStartVsUser?$AA@
  0123e	68 00 00 00 00	 push	 OFFSET ??_C@_05OEGOMMDP@Skill?$AA@
  01243	ff 15 00 00 00
	00		 call	 DWORD PTR __imp__GetPrivateProfileIntA@16
  01249	8b 4d f8	 mov	 ecx, DWORD PTR _this$[ebp]
  0124c	66 89 81 4e 0c
	00 00		 mov	 WORD PTR [ecx+3150], ax

; 235  : 	this->SleepTimeDivVsUser					= GetPrivateProfileInt(OTHER_SKILL_CM, "SleepTimeDivVsUser", 250, OTHER_SKILL_DIR);

  01253	68 00 00 00 00	 push	 OFFSET ??_C@_0BK@EKJAJELJ@?4?4?2Data?2ExData?2Skills?4ini?$AA@
  01258	68 fa 00 00 00	 push	 250			; 000000faH
  0125d	68 00 00 00 00	 push	 OFFSET ??_C@_0BD@NLBINCPE@SleepTimeDivVsUser?$AA@
  01262	68 00 00 00 00	 push	 OFFSET ??_C@_05OEGOMMDP@Skill?$AA@
  01267	ff 15 00 00 00
	00		 call	 DWORD PTR __imp__GetPrivateProfileIntA@16
  0126d	8b 4d f8	 mov	 ecx, DWORD PTR _this$[ebp]
  01270	66 89 81 50 0c
	00 00		 mov	 WORD PTR [ecx+3152], ax

; 236  : 	this->SleepTimeMaxVsUser					= GetPrivateProfileInt(OTHER_SKILL_CM, "SleepTimeMaxVsUser", 0, OTHER_SKILL_DIR);

  01277	68 00 00 00 00	 push	 OFFSET ??_C@_0BK@EKJAJELJ@?4?4?2Data?2ExData?2Skills?4ini?$AA@
  0127c	6a 00		 push	 0
  0127e	68 00 00 00 00	 push	 OFFSET ??_C@_0BD@IJFPEJBE@SleepTimeMaxVsUser?$AA@
  01283	68 00 00 00 00	 push	 OFFSET ??_C@_05OEGOMMDP@Skill?$AA@
  01288	ff 15 00 00 00
	00		 call	 DWORD PTR __imp__GetPrivateProfileIntA@16
  0128e	8b 4d f8	 mov	 ecx, DWORD PTR _this$[ebp]
  01291	66 89 81 52 0c
	00 00		 mov	 WORD PTR [ecx+3154], ax

; 237  : 	// -------------------------------------------------------------------------------------------------------------------------------
; 238  : 
; 239  : 	this->m_wSoulBarrierManaRateLevel[0] = GetPrivateProfileInt(MASTER_SKILL_CM, "SoulBarrierManaRate_Level0", 20, MASTER_SKILL_DIR);

  01298	68 00 00 00 00	 push	 OFFSET ??_C@_0CA@DLFJNCO@?4?4?2Data?2ExData?2MasterSkills?4ini?$AA@
  0129d	6a 14		 push	 20			; 00000014H
  0129f	68 00 00 00 00	 push	 OFFSET ??_C@_0BL@CDDNNPHL@SoulBarrierManaRate_Level0?$AA@
  012a4	68 00 00 00 00	 push	 OFFSET ??_C@_0M@ECCCJHIK@MasterSkill?$AA@
  012a9	ff 15 00 00 00
	00		 call	 DWORD PTR __imp__GetPrivateProfileIntA@16
  012af	8b 4d f8	 mov	 ecx, DWORD PTR _this$[ebp]
  012b2	66 89 41 34	 mov	 WORD PTR [ecx+52], ax

; 240  : 	this->m_wSoulBarrierManaRateLevel[1] = GetPrivateProfileInt(MASTER_SKILL_CM, "SoulBarrierManaRate_Level1", 21, MASTER_SKILL_DIR);

  012b6	68 00 00 00 00	 push	 OFFSET ??_C@_0CA@DLFJNCO@?4?4?2Data?2ExData?2MasterSkills?4ini?$AA@
  012bb	6a 15		 push	 21			; 00000015H
  012bd	68 00 00 00 00	 push	 OFFSET ??_C@_0BL@DKCGOODK@SoulBarrierManaRate_Level1?$AA@
  012c2	68 00 00 00 00	 push	 OFFSET ??_C@_0M@ECCCJHIK@MasterSkill?$AA@
  012c7	ff 15 00 00 00
	00		 call	 DWORD PTR __imp__GetPrivateProfileIntA@16
  012cd	8b 4d f8	 mov	 ecx, DWORD PTR _this$[ebp]
  012d0	66 89 41 36	 mov	 WORD PTR [ecx+54], ax

; 241  : 	this->m_wSoulBarrierManaRateLevel[2] = GetPrivateProfileInt(MASTER_SKILL_CM, "SoulBarrierManaRate_Level2", 22, MASTER_SKILL_DIR);

  012d4	68 00 00 00 00	 push	 OFFSET ??_C@_0CA@DLFJNCO@?4?4?2Data?2ExData?2MasterSkills?4ini?$AA@
  012d9	6a 16		 push	 22			; 00000016H
  012db	68 00 00 00 00	 push	 OFFSET ??_C@_0BL@BBALLNPJ@SoulBarrierManaRate_Level2?$AA@
  012e0	68 00 00 00 00	 push	 OFFSET ??_C@_0M@ECCCJHIK@MasterSkill?$AA@
  012e5	ff 15 00 00 00
	00		 call	 DWORD PTR __imp__GetPrivateProfileIntA@16
  012eb	8b 4d f8	 mov	 ecx, DWORD PTR _this$[ebp]
  012ee	66 89 41 38	 mov	 WORD PTR [ecx+56], ax

; 242  : 	this->m_wSoulBarrierManaRateLevel[3] = GetPrivateProfileInt(MASTER_SKILL_CM, "SoulBarrierManaRate_Level3", 23, MASTER_SKILL_DIR);

  012f2	68 00 00 00 00	 push	 OFFSET ??_C@_0CA@DLFJNCO@?4?4?2Data?2ExData?2MasterSkills?4ini?$AA@
  012f7	6a 17		 push	 23			; 00000017H
  012f9	68 00 00 00 00	 push	 OFFSET ??_C@_0BL@IBAIMLI@SoulBarrierManaRate_Level3?$AA@
  012fe	68 00 00 00 00	 push	 OFFSET ??_C@_0M@ECCCJHIK@MasterSkill?$AA@
  01303	ff 15 00 00 00
	00		 call	 DWORD PTR __imp__GetPrivateProfileIntA@16
  01309	8b 4d f8	 mov	 ecx, DWORD PTR _this$[ebp]
  0130c	66 89 41 3a	 mov	 WORD PTR [ecx+58], ax

; 243  : 	this->m_wSoulBarrierManaRateLevel[4] = GetPrivateProfileInt(MASTER_SKILL_CM, "SoulBarrierManaRate_Level4", 24, MASTER_SKILL_DIR);

  01310	68 00 00 00 00	 push	 OFFSET ??_C@_0CA@DLFJNCO@?4?4?2Data?2ExData?2MasterSkills?4ini?$AA@
  01315	6a 18		 push	 24			; 00000018H
  01317	68 00 00 00 00	 push	 OFFSET ??_C@_0BL@EHFBBKHP@SoulBarrierManaRate_Level4?$AA@
  0131c	68 00 00 00 00	 push	 OFFSET ??_C@_0M@ECCCJHIK@MasterSkill?$AA@
  01321	ff 15 00 00 00
	00		 call	 DWORD PTR __imp__GetPrivateProfileIntA@16
  01327	8b 4d f8	 mov	 ecx, DWORD PTR _this$[ebp]
  0132a	66 89 41 3c	 mov	 WORD PTR [ecx+60], ax

; 244  : 	this->m_wSoulBarrierManaRateLevel[5] = GetPrivateProfileInt(MASTER_SKILL_CM, "SoulBarrierManaRate_Level5", 25, MASTER_SKILL_DIR);

  0132e	68 00 00 00 00	 push	 OFFSET ??_C@_0CA@DLFJNCO@?4?4?2Data?2ExData?2MasterSkills?4ini?$AA@
  01333	6a 19		 push	 25			; 00000019H
  01335	68 00 00 00 00	 push	 OFFSET ??_C@_0BL@FOEKCLDO@SoulBarrierManaRate_Level5?$AA@
  0133a	68 00 00 00 00	 push	 OFFSET ??_C@_0M@ECCCJHIK@MasterSkill?$AA@
  0133f	ff 15 00 00 00
	00		 call	 DWORD PTR __imp__GetPrivateProfileIntA@16
  01345	8b 4d f8	 mov	 ecx, DWORD PTR _this$[ebp]
  01348	66 89 41 3e	 mov	 WORD PTR [ecx+62], ax

; 245  : 	this->m_wSoulBarrierManaRateLevel[6] = GetPrivateProfileInt(MASTER_SKILL_CM, "SoulBarrierManaRate_Level6", 26, MASTER_SKILL_DIR);

  0134c	68 00 00 00 00	 push	 OFFSET ??_C@_0CA@DLFJNCO@?4?4?2Data?2ExData?2MasterSkills?4ini?$AA@
  01351	6a 1a		 push	 26			; 0000001aH
  01353	68 00 00 00 00	 push	 OFFSET ??_C@_0BL@HFGHHIPN@SoulBarrierManaRate_Level6?$AA@
  01358	68 00 00 00 00	 push	 OFFSET ??_C@_0M@ECCCJHIK@MasterSkill?$AA@
  0135d	ff 15 00 00 00
	00		 call	 DWORD PTR __imp__GetPrivateProfileIntA@16
  01363	8b 4d f8	 mov	 ecx, DWORD PTR _this$[ebp]
  01366	66 89 41 40	 mov	 WORD PTR [ecx+64], ax

; 246  : 	this->m_wSoulBarrierManaRateLevel[7] = GetPrivateProfileInt(MASTER_SKILL_CM, "SoulBarrierManaRate_Level7", 27, MASTER_SKILL_DIR);

  0136a	68 00 00 00 00	 push	 OFFSET ??_C@_0CA@DLFJNCO@?4?4?2Data?2ExData?2MasterSkills?4ini?$AA@
  0136f	6a 1b		 push	 27			; 0000001bH
  01371	68 00 00 00 00	 push	 OFFSET ??_C@_0BL@GMHMEJLM@SoulBarrierManaRate_Level7?$AA@
  01376	68 00 00 00 00	 push	 OFFSET ??_C@_0M@ECCCJHIK@MasterSkill?$AA@
  0137b	ff 15 00 00 00
	00		 call	 DWORD PTR __imp__GetPrivateProfileIntA@16
  01381	8b 4d f8	 mov	 ecx, DWORD PTR _this$[ebp]
  01384	66 89 41 42	 mov	 WORD PTR [ecx+66], ax

; 247  : 	this->m_wSoulBarrierManaRateLevel[8] = GetPrivateProfileInt(MASTER_SKILL_CM, "SoulBarrierManaRate_Level8", 28, MASTER_SKILL_DIR);

  01388	68 00 00 00 00	 push	 OFFSET ??_C@_0CA@DLFJNCO@?4?4?2Data?2ExData?2MasterSkills?4ini?$AA@
  0138d	6a 1c		 push	 28			; 0000001cH
  0138f	68 00 00 00 00	 push	 OFFSET ??_C@_0BL@OLOEFFHD@SoulBarrierManaRate_Level8?$AA@
  01394	68 00 00 00 00	 push	 OFFSET ??_C@_0M@ECCCJHIK@MasterSkill?$AA@
  01399	ff 15 00 00 00
	00		 call	 DWORD PTR __imp__GetPrivateProfileIntA@16
  0139f	8b 4d f8	 mov	 ecx, DWORD PTR _this$[ebp]
  013a2	66 89 41 44	 mov	 WORD PTR [ecx+68], ax

; 248  : 	this->m_wSoulBarrierManaRateLevel[9] = GetPrivateProfileInt(MASTER_SKILL_CM, "SoulBarrierManaRate_Level9", 29, MASTER_SKILL_DIR);

  013a6	68 00 00 00 00	 push	 OFFSET ??_C@_0CA@DLFJNCO@?4?4?2Data?2ExData?2MasterSkills?4ini?$AA@
  013ab	6a 1d		 push	 29			; 0000001dH
  013ad	68 00 00 00 00	 push	 OFFSET ??_C@_0BL@PCPPGEDC@SoulBarrierManaRate_Level9?$AA@
  013b2	68 00 00 00 00	 push	 OFFSET ??_C@_0M@ECCCJHIK@MasterSkill?$AA@
  013b7	ff 15 00 00 00
	00		 call	 DWORD PTR __imp__GetPrivateProfileIntA@16
  013bd	8b 4d f8	 mov	 ecx, DWORD PTR _this$[ebp]
  013c0	66 89 41 46	 mov	 WORD PTR [ecx+70], ax

; 249  : 	this->m_wSoulBarrierManaRateLevel[10] = GetPrivateProfileInt(MASTER_SKILL_CM, "SoulBarrierManaRate_Level10", 30, MASTER_SKILL_DIR);

  013c4	68 00 00 00 00	 push	 OFFSET ??_C@_0CA@DLFJNCO@?4?4?2Data?2ExData?2MasterSkills?4ini?$AA@
  013c9	6a 1e		 push	 30			; 0000001eH
  013cb	68 00 00 00 00	 push	 OFFSET ??_C@_0BM@BJHAMJKP@SoulBarrierManaRate_Level10?$AA@
  013d0	68 00 00 00 00	 push	 OFFSET ??_C@_0M@ECCCJHIK@MasterSkill?$AA@
  013d5	ff 15 00 00 00
	00		 call	 DWORD PTR __imp__GetPrivateProfileIntA@16
  013db	8b 4d f8	 mov	 ecx, DWORD PTR _this$[ebp]
  013de	66 89 41 48	 mov	 WORD PTR [ecx+72], ax

; 250  : 	this->m_wSoulBarrierManaRateLevel[11] = GetPrivateProfileInt(MASTER_SKILL_CM, "SoulBarrierManaRate_Level11", 31, MASTER_SKILL_DIR);

  013e2	68 00 00 00 00	 push	 OFFSET ??_C@_0CA@DLFJNCO@?4?4?2Data?2ExData?2MasterSkills?4ini?$AA@
  013e7	6a 1f		 push	 31			; 0000001fH
  013e9	68 00 00 00 00	 push	 OFFSET ??_C@_0BM@GLPIOO@SoulBarrierManaRate_Level11?$AA@
  013ee	68 00 00 00 00	 push	 OFFSET ??_C@_0M@ECCCJHIK@MasterSkill?$AA@
  013f3	ff 15 00 00 00
	00		 call	 DWORD PTR __imp__GetPrivateProfileIntA@16
  013f9	8b 4d f8	 mov	 ecx, DWORD PTR _this$[ebp]
  013fc	66 89 41 4a	 mov	 WORD PTR [ecx+74], ax

; 251  : 	this->m_wSoulBarrierManaRateLevel[12] = GetPrivateProfileInt(MASTER_SKILL_CM, "SoulBarrierManaRate_Level12", 32, MASTER_SKILL_DIR);

  01400	68 00 00 00 00	 push	 OFFSET ??_C@_0CA@DLFJNCO@?4?4?2Data?2ExData?2MasterSkills?4ini?$AA@
  01405	6a 20		 push	 32			; 00000020H
  01407	68 00 00 00 00	 push	 OFFSET ??_C@_0BM@CLEGKLCN@SoulBarrierManaRate_Level12?$AA@
  0140c	68 00 00 00 00	 push	 OFFSET ??_C@_0M@ECCCJHIK@MasterSkill?$AA@
  01411	ff 15 00 00 00
	00		 call	 DWORD PTR __imp__GetPrivateProfileIntA@16
  01417	8b 4d f8	 mov	 ecx, DWORD PTR _this$[ebp]
  0141a	66 89 41 4c	 mov	 WORD PTR [ecx+76], ax

; 252  : 	this->m_wSoulBarrierManaRateLevel[13] = GetPrivateProfileInt(MASTER_SKILL_CM, "SoulBarrierManaRate_Level13", 33, MASTER_SKILL_DIR);

  0141e	68 00 00 00 00	 push	 OFFSET ??_C@_0CA@DLFJNCO@?4?4?2Data?2ExData?2MasterSkills?4ini?$AA@
  01423	6a 21		 push	 33			; 00000021H
  01425	68 00 00 00 00	 push	 OFFSET ??_C@_0BM@DCFNJKGM@SoulBarrierManaRate_Level13?$AA@
  0142a	68 00 00 00 00	 push	 OFFSET ??_C@_0M@ECCCJHIK@MasterSkill?$AA@
  0142f	ff 15 00 00 00
	00		 call	 DWORD PTR __imp__GetPrivateProfileIntA@16
  01435	8b 4d f8	 mov	 ecx, DWORD PTR _this$[ebp]
  01438	66 89 41 4e	 mov	 WORD PTR [ecx+78], ax

; 253  : 	this->m_wSoulBarrierManaRateLevel[14] = GetPrivateProfileInt(MASTER_SKILL_CM, "SoulBarrierManaRate_Level14", 34, MASTER_SKILL_DIR);

  0143c	68 00 00 00 00	 push	 OFFSET ??_C@_0CA@DLFJNCO@?4?4?2Data?2ExData?2MasterSkills?4ini?$AA@
  01441	6a 22		 push	 34			; 00000022H
  01443	68 00 00 00 00	 push	 OFFSET ??_C@_0BM@HNBMAMKL@SoulBarrierManaRate_Level14?$AA@
  01448	68 00 00 00 00	 push	 OFFSET ??_C@_0M@ECCCJHIK@MasterSkill?$AA@
  0144d	ff 15 00 00 00
	00		 call	 DWORD PTR __imp__GetPrivateProfileIntA@16
  01453	8b 4d f8	 mov	 ecx, DWORD PTR _this$[ebp]
  01456	66 89 41 50	 mov	 WORD PTR [ecx+80], ax

; 254  : 	this->m_wSoulBarrierManaRateLevel[15] = GetPrivateProfileInt(MASTER_SKILL_CM, "SoulBarrierManaRate_Level15", 35, MASTER_SKILL_DIR);

  0145a	68 00 00 00 00	 push	 OFFSET ??_C@_0CA@DLFJNCO@?4?4?2Data?2ExData?2MasterSkills?4ini?$AA@
  0145f	6a 23		 push	 35			; 00000023H
  01461	68 00 00 00 00	 push	 OFFSET ??_C@_0BM@GEAHDNOK@SoulBarrierManaRate_Level15?$AA@
  01466	68 00 00 00 00	 push	 OFFSET ??_C@_0M@ECCCJHIK@MasterSkill?$AA@
  0146b	ff 15 00 00 00
	00		 call	 DWORD PTR __imp__GetPrivateProfileIntA@16
  01471	8b 4d f8	 mov	 ecx, DWORD PTR _this$[ebp]
  01474	66 89 41 52	 mov	 WORD PTR [ecx+82], ax

; 255  : 	this->m_wSoulBarrierManaRateLevel[16] = GetPrivateProfileInt(MASTER_SKILL_CM, "SoulBarrierManaRate_Level16", 36, MASTER_SKILL_DIR);

  01478	68 00 00 00 00	 push	 OFFSET ??_C@_0CA@DLFJNCO@?4?4?2Data?2ExData?2MasterSkills?4ini?$AA@
  0147d	6a 24		 push	 36			; 00000024H
  0147f	68 00 00 00 00	 push	 OFFSET ??_C@_0BM@EPCKGOCJ@SoulBarrierManaRate_Level16?$AA@
  01484	68 00 00 00 00	 push	 OFFSET ??_C@_0M@ECCCJHIK@MasterSkill?$AA@
  01489	ff 15 00 00 00
	00		 call	 DWORD PTR __imp__GetPrivateProfileIntA@16
  0148f	8b 4d f8	 mov	 ecx, DWORD PTR _this$[ebp]
  01492	66 89 41 54	 mov	 WORD PTR [ecx+84], ax

; 256  : 	this->m_wSoulBarrierManaRateLevel[17] = GetPrivateProfileInt(MASTER_SKILL_CM, "SoulBarrierManaRate_Level17", 37, MASTER_SKILL_DIR);

  01496	68 00 00 00 00	 push	 OFFSET ??_C@_0CA@DLFJNCO@?4?4?2Data?2ExData?2MasterSkills?4ini?$AA@
  0149b	6a 25		 push	 37			; 00000025H
  0149d	68 00 00 00 00	 push	 OFFSET ??_C@_0BM@FGDBFPGI@SoulBarrierManaRate_Level17?$AA@
  014a2	68 00 00 00 00	 push	 OFFSET ??_C@_0M@ECCCJHIK@MasterSkill?$AA@
  014a7	ff 15 00 00 00
	00		 call	 DWORD PTR __imp__GetPrivateProfileIntA@16
  014ad	8b 4d f8	 mov	 ecx, DWORD PTR _this$[ebp]
  014b0	66 89 41 56	 mov	 WORD PTR [ecx+86], ax

; 257  : 	this->m_wSoulBarrierManaRateLevel[18] = GetPrivateProfileInt(MASTER_SKILL_CM, "SoulBarrierManaRate_Level18", 38, MASTER_SKILL_DIR);

  014b4	68 00 00 00 00	 push	 OFFSET ??_C@_0CA@DLFJNCO@?4?4?2Data?2ExData?2MasterSkills?4ini?$AA@
  014b9	6a 26		 push	 38			; 00000026H
  014bb	68 00 00 00 00	 push	 OFFSET ??_C@_0BM@NBKJEDKH@SoulBarrierManaRate_Level18?$AA@
  014c0	68 00 00 00 00	 push	 OFFSET ??_C@_0M@ECCCJHIK@MasterSkill?$AA@
  014c5	ff 15 00 00 00
	00		 call	 DWORD PTR __imp__GetPrivateProfileIntA@16
  014cb	8b 4d f8	 mov	 ecx, DWORD PTR _this$[ebp]
  014ce	66 89 41 58	 mov	 WORD PTR [ecx+88], ax

; 258  : 	this->m_wSoulBarrierManaRateLevel[19] = GetPrivateProfileInt(MASTER_SKILL_CM, "SoulBarrierManaRate_Level19", 39, MASTER_SKILL_DIR);

  014d2	68 00 00 00 00	 push	 OFFSET ??_C@_0CA@DLFJNCO@?4?4?2Data?2ExData?2MasterSkills?4ini?$AA@
  014d7	6a 27		 push	 39			; 00000027H
  014d9	68 00 00 00 00	 push	 OFFSET ??_C@_0BM@MILCHCOG@SoulBarrierManaRate_Level19?$AA@
  014de	68 00 00 00 00	 push	 OFFSET ??_C@_0M@ECCCJHIK@MasterSkill?$AA@
  014e3	ff 15 00 00 00
	00		 call	 DWORD PTR __imp__GetPrivateProfileIntA@16
  014e9	8b 4d f8	 mov	 ecx, DWORD PTR _this$[ebp]
  014ec	66 89 41 5a	 mov	 WORD PTR [ecx+90], ax

; 259  : 	this->m_wSoulBarrierManaRateLevel[20] = GetPrivateProfileInt(MASTER_SKILL_CM, "SoulBarrierManaRate_Level20", 40, MASTER_SKILL_DIR);

  014f0	68 00 00 00 00	 push	 OFFSET ??_C@_0CA@DLFJNCO@?4?4?2Data?2ExData?2MasterSkills?4ini?$AA@
  014f5	6a 28		 push	 40			; 00000028H
  014f7	68 00 00 00 00	 push	 OFFSET ??_C@_0BM@BLDGHHPG@SoulBarrierManaRate_Level20?$AA@
  014fc	68 00 00 00 00	 push	 OFFSET ??_C@_0M@ECCCJHIK@MasterSkill?$AA@
  01501	ff 15 00 00 00
	00		 call	 DWORD PTR __imp__GetPrivateProfileIntA@16
  01507	8b 4d f8	 mov	 ecx, DWORD PTR _this$[ebp]
  0150a	66 89 41 5c	 mov	 WORD PTR [ecx+92], ax

; 260  : 
; 261  : 	char szFloat[256];
; 262  : 	this->m_SoulBarrierDefenseStart				= GetPrivateProfileInt(MASTER_SKILL_CM, "SoulBarrierDefenseStart", 600, MASTER_SKILL_DIR); 

  0150e	68 00 00 00 00	 push	 OFFSET ??_C@_0CA@DLFJNCO@?4?4?2Data?2ExData?2MasterSkills?4ini?$AA@
  01513	68 58 02 00 00	 push	 600			; 00000258H
  01518	68 00 00 00 00	 push	 OFFSET ??_C@_0BI@ENLFKMPH@SoulBarrierDefenseStart?$AA@
  0151d	68 00 00 00 00	 push	 OFFSET ??_C@_0M@ECCCJHIK@MasterSkill?$AA@
  01522	ff 15 00 00 00
	00		 call	 DWORD PTR __imp__GetPrivateProfileIntA@16
  01528	8b 4d f8	 mov	 ecx, DWORD PTR _this$[ebp]
  0152b	66 89 81 54 0c
	00 00		 mov	 WORD PTR [ecx+3156], ax

; 263  : 	this->m_SoulBarrierDefenseDiv1				= GetPrivateProfileInt(MASTER_SKILL_CM, "SoulBarrierDefenseDiv1", 600, MASTER_SKILL_DIR); 

  01532	68 00 00 00 00	 push	 OFFSET ??_C@_0CA@DLFJNCO@?4?4?2Data?2ExData?2MasterSkills?4ini?$AA@
  01537	68 58 02 00 00	 push	 600			; 00000258H
  0153c	68 00 00 00 00	 push	 OFFSET ??_C@_0BH@OCCLHHKG@SoulBarrierDefenseDiv1?$AA@
  01541	68 00 00 00 00	 push	 OFFSET ??_C@_0M@ECCCJHIK@MasterSkill?$AA@
  01546	ff 15 00 00 00
	00		 call	 DWORD PTR __imp__GetPrivateProfileIntA@16
  0154c	8b 4d f8	 mov	 ecx, DWORD PTR _this$[ebp]
  0154f	66 89 81 56 0c
	00 00		 mov	 WORD PTR [ecx+3158], ax

; 264  : 	this->m_SoulBarrierDefenseDiv2				= GetPrivateProfileInt(MASTER_SKILL_CM, "SoulBarrierDefenseDiv2", 600, MASTER_SKILL_DIR); 

  01556	68 00 00 00 00	 push	 OFFSET ??_C@_0CA@DLFJNCO@?4?4?2Data?2ExData?2MasterSkills?4ini?$AA@
  0155b	68 58 02 00 00	 push	 600			; 00000258H
  01560	68 00 00 00 00	 push	 OFFSET ??_C@_0BH@MJAGCEGF@SoulBarrierDefenseDiv2?$AA@
  01565	68 00 00 00 00	 push	 OFFSET ??_C@_0M@ECCCJHIK@MasterSkill?$AA@
  0156a	ff 15 00 00 00
	00		 call	 DWORD PTR __imp__GetPrivateProfileIntA@16
  01570	8b 4d f8	 mov	 ecx, DWORD PTR _this$[ebp]
  01573	66 89 81 58 0c
	00 00		 mov	 WORD PTR [ecx+3160], ax

; 265  : 	this->m_SoulBarrierDefenseMax				= GetPrivateProfileInt(MASTER_SKILL_CM, "SoulBarrierDefenseMax", 600, MASTER_SKILL_DIR); 

  0157a	68 00 00 00 00	 push	 OFFSET ??_C@_0CA@DLFJNCO@?4?4?2Data?2ExData?2MasterSkills?4ini?$AA@
  0157f	68 58 02 00 00	 push	 600			; 00000258H
  01584	68 00 00 00 00	 push	 OFFSET ??_C@_0BG@CPELIBEP@SoulBarrierDefenseMax?$AA@
  01589	68 00 00 00 00	 push	 OFFSET ??_C@_0M@ECCCJHIK@MasterSkill?$AA@
  0158e	ff 15 00 00 00
	00		 call	 DWORD PTR __imp__GetPrivateProfileIntA@16
  01594	8b 4d f8	 mov	 ecx, DWORD PTR _this$[ebp]
  01597	89 81 5c 0c 00
	00		 mov	 DWORD PTR [ecx+3164], eax

; 266  : 	this->m_SoulBarrierTimeStart				= GetPrivateProfileInt(MASTER_SKILL_CM, "SoulBarrierTimeStart", 600, MASTER_SKILL_DIR); 

  0159d	68 00 00 00 00	 push	 OFFSET ??_C@_0CA@DLFJNCO@?4?4?2Data?2ExData?2MasterSkills?4ini?$AA@
  015a2	68 58 02 00 00	 push	 600			; 00000258H
  015a7	68 00 00 00 00	 push	 OFFSET ??_C@_0BF@HLPHEEBF@SoulBarrierTimeStart?$AA@
  015ac	68 00 00 00 00	 push	 OFFSET ??_C@_0M@ECCCJHIK@MasterSkill?$AA@
  015b1	ff 15 00 00 00
	00		 call	 DWORD PTR __imp__GetPrivateProfileIntA@16
  015b7	8b 4d f8	 mov	 ecx, DWORD PTR _this$[ebp]
  015ba	66 89 81 60 0c
	00 00		 mov	 WORD PTR [ecx+3168], ax

; 267  : 	this->m_SoulBarrierTimeDiv					= GetPrivateProfileInt(MASTER_SKILL_CM, "SoulBarrierTimeDiv", 600, MASTER_SKILL_DIR); 

  015c1	68 00 00 00 00	 push	 OFFSET ??_C@_0CA@DLFJNCO@?4?4?2Data?2ExData?2MasterSkills?4ini?$AA@
  015c6	68 58 02 00 00	 push	 600			; 00000258H
  015cb	68 00 00 00 00	 push	 OFFSET ??_C@_0BD@GELNHIFI@SoulBarrierTimeDiv?$AA@
  015d0	68 00 00 00 00	 push	 OFFSET ??_C@_0M@ECCCJHIK@MasterSkill?$AA@
  015d5	ff 15 00 00 00
	00		 call	 DWORD PTR __imp__GetPrivateProfileIntA@16
  015db	8b 4d f8	 mov	 ecx, DWORD PTR _this$[ebp]
  015de	66 89 81 62 0c
	00 00		 mov	 WORD PTR [ecx+3170], ax

; 268  : 	this->m_SoulBarrierTimeMax					= GetPrivateProfileInt(MASTER_SKILL_CM, "SoulBarrierTimeMax", 600, MASTER_SKILL_DIR); 

  015e5	68 00 00 00 00	 push	 OFFSET ??_C@_0CA@DLFJNCO@?4?4?2Data?2ExData?2MasterSkills?4ini?$AA@
  015ea	68 58 02 00 00	 push	 600			; 00000258H
  015ef	68 00 00 00 00	 push	 OFFSET ??_C@_0BD@IJCFELOE@SoulBarrierTimeMax?$AA@
  015f4	68 00 00 00 00	 push	 OFFSET ??_C@_0M@ECCCJHIK@MasterSkill?$AA@
  015f9	ff 15 00 00 00
	00		 call	 DWORD PTR __imp__GetPrivateProfileIntA@16
  015ff	8b 4d f8	 mov	 ecx, DWORD PTR _this$[ebp]
  01602	89 81 64 0c 00
	00		 mov	 DWORD PTR [ecx+3172], eax

; 269  : 	this->m_WizardryEnchantDamageDiv			= GetPrivateProfileInt(MASTER_SKILL_CM, "WizardryEnchantDamageDiv", 600, MASTER_SKILL_DIR); 

  01608	68 00 00 00 00	 push	 OFFSET ??_C@_0CA@DLFJNCO@?4?4?2Data?2ExData?2MasterSkills?4ini?$AA@
  0160d	68 58 02 00 00	 push	 600			; 00000258H
  01612	68 00 00 00 00	 push	 OFFSET ??_C@_0BJ@EKEDEGGJ@WizardryEnchantDamageDiv?$AA@
  01617	68 00 00 00 00	 push	 OFFSET ??_C@_0M@ECCCJHIK@MasterSkill?$AA@
  0161c	ff 15 00 00 00
	00		 call	 DWORD PTR __imp__GetPrivateProfileIntA@16
  01622	8b 4d f8	 mov	 ecx, DWORD PTR _this$[ebp]
  01625	66 89 81 68 0c
	00 00		 mov	 WORD PTR [ecx+3176], ax

; 270  : 	GetPrivateProfileString(MASTER_SKILL_CM, "WizardryEnchantDamageFact", "10", szFloat, 5, MASTER_SKILL_DIR);

  0162c	68 00 00 00 00	 push	 OFFSET ??_C@_0CA@DLFJNCO@?4?4?2Data?2ExData?2MasterSkills?4ini?$AA@
  01631	6a 05		 push	 5
  01633	8d 85 ec fc ff
	ff		 lea	 eax, DWORD PTR _szFloat$[ebp]
  01639	50		 push	 eax
  0163a	68 00 00 00 00	 push	 OFFSET ??_C@_02PKFBJPLJ@10?$AA@
  0163f	68 00 00 00 00	 push	 OFFSET ??_C@_0BK@NKOODMFM@WizardryEnchantDamageFact?$AA@
  01644	68 00 00 00 00	 push	 OFFSET ??_C@_0M@ECCCJHIK@MasterSkill?$AA@
  01649	ff 15 00 00 00
	00		 call	 DWORD PTR __imp__GetPrivateProfileStringA@24

; 271  : 	sscanf(szFloat, "%f", &this->m_WizardryEnchantDamageFact);

  0164f	8b 45 f8	 mov	 eax, DWORD PTR _this$[ebp]
  01652	05 6c 0c 00 00	 add	 eax, 3180		; 00000c6cH
  01657	50		 push	 eax
  01658	68 00 00 00 00	 push	 OFFSET ??_C@_02NJPGOMH@?$CFf?$AA@
  0165d	8d 8d ec fc ff
	ff		 lea	 ecx, DWORD PTR _szFloat$[ebp]
  01663	51		 push	 ecx
  01664	e8 00 00 00 00	 call	 _sscanf
  01669	83 c4 0c	 add	 esp, 12			; 0000000cH

; 272  : 	this->m_WizardryEnchantDamageMax			= GetPrivateProfileInt(MASTER_SKILL_CM, "WizardryEnchantDamageMax", 600, MASTER_SKILL_DIR); 

  0166c	68 00 00 00 00	 push	 OFFSET ??_C@_0CA@DLFJNCO@?4?4?2Data?2ExData?2MasterSkills?4ini?$AA@
  01671	68 58 02 00 00	 push	 600			; 00000258H
  01676	68 00 00 00 00	 push	 OFFSET ??_C@_0BJ@KHNLHFNF@WizardryEnchantDamageMax?$AA@
  0167b	68 00 00 00 00	 push	 OFFSET ??_C@_0M@ECCCJHIK@MasterSkill?$AA@
  01680	ff 15 00 00 00
	00		 call	 DWORD PTR __imp__GetPrivateProfileIntA@16
  01686	8b 4d f8	 mov	 ecx, DWORD PTR _this$[ebp]
  01689	89 81 70 0c 00
	00		 mov	 DWORD PTR [ecx+3184], eax

; 273  : 	this->m_WizardryEnchantTime					= GetPrivateProfileInt(MASTER_SKILL_CM, "WizardryEnchantTime", 600, MASTER_SKILL_DIR); 

  0168f	68 00 00 00 00	 push	 OFFSET ??_C@_0CA@DLFJNCO@?4?4?2Data?2ExData?2MasterSkills?4ini?$AA@
  01694	68 58 02 00 00	 push	 600			; 00000258H
  01699	68 00 00 00 00	 push	 OFFSET ??_C@_0BE@LJPJLIP@WizardryEnchantTime?$AA@
  0169e	68 00 00 00 00	 push	 OFFSET ??_C@_0M@ECCCJHIK@MasterSkill?$AA@
  016a3	ff 15 00 00 00
	00		 call	 DWORD PTR __imp__GetPrivateProfileIntA@16
  016a9	8b 4d f8	 mov	 ecx, DWORD PTR _this$[ebp]
  016ac	89 81 74 0c 00
	00		 mov	 DWORD PTR [ecx+3188], eax

; 274  : 	this->m_SwellLifeEffectStart				= GetPrivateProfileInt(MASTER_SKILL_CM, "SwellLifeEffectStart", 600, MASTER_SKILL_DIR); 

  016b2	68 00 00 00 00	 push	 OFFSET ??_C@_0CA@DLFJNCO@?4?4?2Data?2ExData?2MasterSkills?4ini?$AA@
  016b7	68 58 02 00 00	 push	 600			; 00000258H
  016bc	68 00 00 00 00	 push	 OFFSET ??_C@_0BF@EDGHIKBF@SwellLifeEffectStart?$AA@
  016c1	68 00 00 00 00	 push	 OFFSET ??_C@_0M@ECCCJHIK@MasterSkill?$AA@
  016c6	ff 15 00 00 00
	00		 call	 DWORD PTR __imp__GetPrivateProfileIntA@16
  016cc	8b 4d f8	 mov	 ecx, DWORD PTR _this$[ebp]
  016cf	66 89 81 78 0c
	00 00		 mov	 WORD PTR [ecx+3192], ax

; 275  : 	this->m_SwellLifeEffectDiv1					= GetPrivateProfileInt(MASTER_SKILL_CM, "SwellLifeEffectDiv1", 600, MASTER_SKILL_DIR); 

  016d6	68 00 00 00 00	 push	 OFFSET ??_C@_0CA@DLFJNCO@?4?4?2Data?2ExData?2MasterSkills?4ini?$AA@
  016db	68 58 02 00 00	 push	 600			; 00000258H
  016e0	68 00 00 00 00	 push	 OFFSET ??_C@_0BE@OLIFKHKO@SwellLifeEffectDiv1?$AA@
  016e5	68 00 00 00 00	 push	 OFFSET ??_C@_0M@ECCCJHIK@MasterSkill?$AA@
  016ea	ff 15 00 00 00
	00		 call	 DWORD PTR __imp__GetPrivateProfileIntA@16
  016f0	8b 4d f8	 mov	 ecx, DWORD PTR _this$[ebp]
  016f3	66 89 81 7a 0c
	00 00		 mov	 WORD PTR [ecx+3194], ax

; 276  : 	this->m_SwellLifeEffectDiv2					= GetPrivateProfileInt(MASTER_SKILL_CM, "SwellLifeEffectDiv2", 600, MASTER_SKILL_DIR); 

  016fa	68 00 00 00 00	 push	 OFFSET ??_C@_0CA@DLFJNCO@?4?4?2Data?2ExData?2MasterSkills?4ini?$AA@
  016ff	68 58 02 00 00	 push	 600			; 00000258H
  01704	68 00 00 00 00	 push	 OFFSET ??_C@_0BE@MAKIPEGN@SwellLifeEffectDiv2?$AA@
  01709	68 00 00 00 00	 push	 OFFSET ??_C@_0M@ECCCJHIK@MasterSkill?$AA@
  0170e	ff 15 00 00 00
	00		 call	 DWORD PTR __imp__GetPrivateProfileIntA@16
  01714	8b 4d f8	 mov	 ecx, DWORD PTR _this$[ebp]
  01717	66 89 81 7c 0c
	00 00		 mov	 WORD PTR [ecx+3196], ax

; 277  : 	this->m_SwellLifeEffectMax					= GetPrivateProfileInt(MASTER_SKILL_CM, "SwellLifeEffectMax", 600, MASTER_SKILL_DIR); 

  0171e	68 00 00 00 00	 push	 OFFSET ??_C@_0CA@DLFJNCO@?4?4?2Data?2ExData?2MasterSkills?4ini?$AA@
  01723	68 58 02 00 00	 push	 600			; 00000258H
  01728	68 00 00 00 00	 push	 OFFSET ??_C@_0BD@DHNHKCED@SwellLifeEffectMax?$AA@
  0172d	68 00 00 00 00	 push	 OFFSET ??_C@_0M@ECCCJHIK@MasterSkill?$AA@
  01732	ff 15 00 00 00
	00		 call	 DWORD PTR __imp__GetPrivateProfileIntA@16
  01738	8b 4d f8	 mov	 ecx, DWORD PTR _this$[ebp]
  0173b	89 81 80 0c 00
	00		 mov	 DWORD PTR [ecx+3200], eax

; 278  : 	this->m_SwellLifeTimeStart					= GetPrivateProfileInt(MASTER_SKILL_CM, "SwellLifeTimeStart", 600, MASTER_SKILL_DIR); 

  01741	68 00 00 00 00	 push	 OFFSET ??_C@_0CA@DLFJNCO@?4?4?2Data?2ExData?2MasterSkills?4ini?$AA@
  01746	68 58 02 00 00	 push	 600			; 00000258H
  0174b	68 00 00 00 00	 push	 OFFSET ??_C@_0BD@CBCDNOBM@SwellLifeTimeStart?$AA@
  01750	68 00 00 00 00	 push	 OFFSET ??_C@_0M@ECCCJHIK@MasterSkill?$AA@
  01755	ff 15 00 00 00
	00		 call	 DWORD PTR __imp__GetPrivateProfileIntA@16
  0175b	8b 4d f8	 mov	 ecx, DWORD PTR _this$[ebp]
  0175e	66 89 81 84 0c
	00 00		 mov	 WORD PTR [ecx+3204], ax

; 279  : 	this->m_SwellLifeTimeDiv					= GetPrivateProfileInt(MASTER_SKILL_CM, "SwellLifeTimeDiv", 600, MASTER_SKILL_DIR); 

  01765	68 00 00 00 00	 push	 OFFSET ??_C@_0CA@DLFJNCO@?4?4?2Data?2ExData?2MasterSkills?4ini?$AA@
  0176a	68 58 02 00 00	 push	 600			; 00000258H
  0176f	68 00 00 00 00	 push	 OFFSET ??_C@_0BB@JKMIHHPM@SwellLifeTimeDiv?$AA@
  01774	68 00 00 00 00	 push	 OFFSET ??_C@_0M@ECCCJHIK@MasterSkill?$AA@
  01779	ff 15 00 00 00
	00		 call	 DWORD PTR __imp__GetPrivateProfileIntA@16
  0177f	8b 4d f8	 mov	 ecx, DWORD PTR _this$[ebp]
  01782	66 89 81 86 0c
	00 00		 mov	 WORD PTR [ecx+3206], ax

; 280  : 	this->m_SwellLifeTimeMax					= GetPrivateProfileInt(MASTER_SKILL_CM, "SwellLifeTimeMax", 600, MASTER_SKILL_DIR); 

  01789	68 00 00 00 00	 push	 OFFSET ??_C@_0CA@DLFJNCO@?4?4?2Data?2ExData?2MasterSkills?4ini?$AA@
  0178e	68 58 02 00 00	 push	 600			; 00000258H
  01793	68 00 00 00 00	 push	 OFFSET ??_C@_0BB@HHFAEEEA@SwellLifeTimeMax?$AA@
  01798	68 00 00 00 00	 push	 OFFSET ??_C@_0M@ECCCJHIK@MasterSkill?$AA@
  0179d	ff 15 00 00 00
	00		 call	 DWORD PTR __imp__GetPrivateProfileIntA@16
  017a3	8b 4d f8	 mov	 ecx, DWORD PTR _this$[ebp]
  017a6	89 81 88 0c 00
	00		 mov	 DWORD PTR [ecx+3208], eax

; 281  : 	this->m_ElfDefenseEffectFact				= GetPrivateProfileInt(MASTER_SKILL_CM, "ElfDefenseEffectFact", 600, MASTER_SKILL_DIR); 

  017ac	68 00 00 00 00	 push	 OFFSET ??_C@_0CA@DLFJNCO@?4?4?2Data?2ExData?2MasterSkills?4ini?$AA@
  017b1	68 58 02 00 00	 push	 600			; 00000258H
  017b6	68 00 00 00 00	 push	 OFFSET ??_C@_0BF@KDEHAEKN@ElfDefenseEffectFact?$AA@
  017bb	68 00 00 00 00	 push	 OFFSET ??_C@_0M@ECCCJHIK@MasterSkill?$AA@
  017c0	ff 15 00 00 00
	00		 call	 DWORD PTR __imp__GetPrivateProfileIntA@16
  017c6	8b 4d f8	 mov	 ecx, DWORD PTR _this$[ebp]
  017c9	66 89 81 8c 0c
	00 00		 mov	 WORD PTR [ecx+3212], ax

; 282  : 	this->m_ElfDefenseEffectDiv					= GetPrivateProfileInt(MASTER_SKILL_CM, "ElfDefenseEffectDiv", 600, MASTER_SKILL_DIR); 

  017d0	68 00 00 00 00	 push	 OFFSET ??_C@_0CA@DLFJNCO@?4?4?2Data?2ExData?2MasterSkills?4ini?$AA@
  017d5	68 58 02 00 00	 push	 600			; 00000258H
  017da	68 00 00 00 00	 push	 OFFSET ??_C@_0BE@DPMDBDGA@ElfDefenseEffectDiv?$AA@
  017df	68 00 00 00 00	 push	 OFFSET ??_C@_0M@ECCCJHIK@MasterSkill?$AA@
  017e4	ff 15 00 00 00
	00		 call	 DWORD PTR __imp__GetPrivateProfileIntA@16
  017ea	8b 4d f8	 mov	 ecx, DWORD PTR _this$[ebp]
  017ed	66 89 81 8e 0c
	00 00		 mov	 WORD PTR [ecx+3214], ax

; 283  : 	this->m_ElfDefenseEffectMax					= GetPrivateProfileInt(MASTER_SKILL_CM, "ElfDefenseEffectMax", 600, MASTER_SKILL_DIR); 

  017f4	68 00 00 00 00	 push	 OFFSET ??_C@_0CA@DLFJNCO@?4?4?2Data?2ExData?2MasterSkills?4ini?$AA@
  017f9	68 58 02 00 00	 push	 600			; 00000258H
  017fe	68 00 00 00 00	 push	 OFFSET ??_C@_0BE@NCFLCANM@ElfDefenseEffectMax?$AA@
  01803	68 00 00 00 00	 push	 OFFSET ??_C@_0M@ECCCJHIK@MasterSkill?$AA@
  01808	ff 15 00 00 00
	00		 call	 DWORD PTR __imp__GetPrivateProfileIntA@16
  0180e	8b 4d f8	 mov	 ecx, DWORD PTR _this$[ebp]
  01811	89 81 90 0c 00
	00		 mov	 DWORD PTR [ecx+3216], eax

; 284  : 	this->m_ElfDefenseTime						= GetPrivateProfileInt(MASTER_SKILL_CM, "ElfDefenseTime", 600, MASTER_SKILL_DIR); 

  01817	68 00 00 00 00	 push	 OFFSET ??_C@_0CA@DLFJNCO@?4?4?2Data?2ExData?2MasterSkills?4ini?$AA@
  0181c	68 58 02 00 00	 push	 600			; 00000258H
  01821	68 00 00 00 00	 push	 OFFSET ??_C@_0P@JCGFNEIF@ElfDefenseTime?$AA@
  01826	68 00 00 00 00	 push	 OFFSET ??_C@_0M@ECCCJHIK@MasterSkill?$AA@
  0182b	ff 15 00 00 00
	00		 call	 DWORD PTR __imp__GetPrivateProfileIntA@16
  01831	8b 4d f8	 mov	 ecx, DWORD PTR _this$[ebp]
  01834	89 81 94 0c 00
	00		 mov	 DWORD PTR [ecx+3220], eax

; 285  : 	this->m_ElfAttackEffectFact					= GetPrivateProfileInt(MASTER_SKILL_CM, "ElfAttackEffectFact", 600, MASTER_SKILL_DIR); 

  0183a	68 00 00 00 00	 push	 OFFSET ??_C@_0CA@DLFJNCO@?4?4?2Data?2ExData?2MasterSkills?4ini?$AA@
  0183f	68 58 02 00 00	 push	 600			; 00000258H
  01844	68 00 00 00 00	 push	 OFFSET ??_C@_0BE@JJIEGOBK@ElfAttackEffectFact?$AA@
  01849	68 00 00 00 00	 push	 OFFSET ??_C@_0M@ECCCJHIK@MasterSkill?$AA@
  0184e	ff 15 00 00 00
	00		 call	 DWORD PTR __imp__GetPrivateProfileIntA@16
  01854	8b 4d f8	 mov	 ecx, DWORD PTR _this$[ebp]
  01857	66 89 81 98 0c
	00 00		 mov	 WORD PTR [ecx+3224], ax

; 286  : 	this->m_ElfAttackEffectDiv					= GetPrivateProfileInt(MASTER_SKILL_CM, "ElfAttackEffectDiv", 600, MASTER_SKILL_DIR); 

  0185e	68 00 00 00 00	 push	 OFFSET ??_C@_0CA@DLFJNCO@?4?4?2Data?2ExData?2MasterSkills?4ini?$AA@
  01863	68 58 02 00 00	 push	 600			; 00000258H
  01868	68 00 00 00 00	 push	 OFFSET ??_C@_0BD@EJPIGKAB@ElfAttackEffectDiv?$AA@
  0186d	68 00 00 00 00	 push	 OFFSET ??_C@_0M@ECCCJHIK@MasterSkill?$AA@
  01872	ff 15 00 00 00
	00		 call	 DWORD PTR __imp__GetPrivateProfileIntA@16
  01878	8b 4d f8	 mov	 ecx, DWORD PTR _this$[ebp]
  0187b	66 89 81 9a 0c
	00 00		 mov	 WORD PTR [ecx+3226], ax

; 287  : 	this->m_ElfAttackEffectMax					= GetPrivateProfileInt(MASTER_SKILL_CM, "ElfAttackEffectMax", 600, MASTER_SKILL_DIR); 

  01882	68 00 00 00 00	 push	 OFFSET ??_C@_0CA@DLFJNCO@?4?4?2Data?2ExData?2MasterSkills?4ini?$AA@
  01887	68 58 02 00 00	 push	 600			; 00000258H
  0188c	68 00 00 00 00	 push	 OFFSET ??_C@_0BD@KEGAFJLN@ElfAttackEffectMax?$AA@
  01891	68 00 00 00 00	 push	 OFFSET ??_C@_0M@ECCCJHIK@MasterSkill?$AA@
  01896	ff 15 00 00 00
	00		 call	 DWORD PTR __imp__GetPrivateProfileIntA@16
  0189c	8b 4d f8	 mov	 ecx, DWORD PTR _this$[ebp]
  0189f	89 81 9c 0c 00
	00		 mov	 DWORD PTR [ecx+3228], eax

; 288  : 	this->m_ElfAttackTime						= GetPrivateProfileInt(MASTER_SKILL_CM, "ElfAttackTime", 600, MASTER_SKILL_DIR); 

  018a5	68 00 00 00 00	 push	 OFFSET ??_C@_0CA@DLFJNCO@?4?4?2Data?2ExData?2MasterSkills?4ini?$AA@
  018aa	68 58 02 00 00	 push	 600			; 00000258H
  018af	68 00 00 00 00	 push	 OFFSET ??_C@_0O@OKEHNLCK@ElfAttackTime?$AA@
  018b4	68 00 00 00 00	 push	 OFFSET ??_C@_0M@ECCCJHIK@MasterSkill?$AA@
  018b9	ff 15 00 00 00
	00		 call	 DWORD PTR __imp__GetPrivateProfileIntA@16
  018bf	8b 4d f8	 mov	 ecx, DWORD PTR _this$[ebp]
  018c2	89 81 a0 0c 00
	00		 mov	 DWORD PTR [ecx+3232], eax

; 289  : 	this->m_CriticalDamageEffectDiv1			= GetPrivateProfileInt(MASTER_SKILL_CM, "CriticalDamageEffectDiv1", 600, MASTER_SKILL_DIR); 

  018c8	68 00 00 00 00	 push	 OFFSET ??_C@_0CA@DLFJNCO@?4?4?2Data?2ExData?2MasterSkills?4ini?$AA@
  018cd	68 58 02 00 00	 push	 600			; 00000258H
  018d2	68 00 00 00 00	 push	 OFFSET ??_C@_0BJ@JNMJFAAH@CriticalDamageEffectDiv1?$AA@
  018d7	68 00 00 00 00	 push	 OFFSET ??_C@_0M@ECCCJHIK@MasterSkill?$AA@
  018dc	ff 15 00 00 00
	00		 call	 DWORD PTR __imp__GetPrivateProfileIntA@16
  018e2	8b 4d f8	 mov	 ecx, DWORD PTR _this$[ebp]
  018e5	66 89 81 a4 0c
	00 00		 mov	 WORD PTR [ecx+3236], ax

; 290  : 	this->m_CriticalDamageEffectDiv2			= GetPrivateProfileInt(MASTER_SKILL_CM, "CriticalDamageEffectDiv2", 600, MASTER_SKILL_DIR); 

  018ec	68 00 00 00 00	 push	 OFFSET ??_C@_0CA@DLFJNCO@?4?4?2Data?2ExData?2MasterSkills?4ini?$AA@
  018f1	68 58 02 00 00	 push	 600			; 00000258H
  018f6	68 00 00 00 00	 push	 OFFSET ??_C@_0BJ@LGOEADME@CriticalDamageEffectDiv2?$AA@
  018fb	68 00 00 00 00	 push	 OFFSET ??_C@_0M@ECCCJHIK@MasterSkill?$AA@
  01900	ff 15 00 00 00
	00		 call	 DWORD PTR __imp__GetPrivateProfileIntA@16
  01906	8b 4d f8	 mov	 ecx, DWORD PTR _this$[ebp]
  01909	66 89 81 a6 0c
	00 00		 mov	 WORD PTR [ecx+3238], ax

; 291  : 	this->m_CriticalDamageEffectMax				= GetPrivateProfileInt(MASTER_SKILL_CM, "CriticalDamageEffectMax", 600, MASTER_SKILL_DIR); 

  01910	68 00 00 00 00	 push	 OFFSET ??_C@_0CA@DLFJNCO@?4?4?2Data?2ExData?2MasterSkills?4ini?$AA@
  01915	68 58 02 00 00	 push	 600			; 00000258H
  0191a	68 00 00 00 00	 push	 OFFSET ??_C@_0BI@KHGBJLAD@CriticalDamageEffectMax?$AA@
  0191f	68 00 00 00 00	 push	 OFFSET ??_C@_0M@ECCCJHIK@MasterSkill?$AA@
  01924	ff 15 00 00 00
	00		 call	 DWORD PTR __imp__GetPrivateProfileIntA@16
  0192a	8b 4d f8	 mov	 ecx, DWORD PTR _this$[ebp]
  0192d	66 89 81 a8 0c
	00 00		 mov	 WORD PTR [ecx+3240], ax

; 292  : 	this->m_CriticalDamageTimeStart				= GetPrivateProfileInt(MASTER_SKILL_CM, "CriticalDamageTimeStart", 600, MASTER_SKILL_DIR); 

  01934	68 00 00 00 00	 push	 OFFSET ??_C@_0CA@DLFJNCO@?4?4?2Data?2ExData?2MasterSkills?4ini?$AA@
  01939	68 58 02 00 00	 push	 600			; 00000258H
  0193e	68 00 00 00 00	 push	 OFFSET ??_C@_0BI@LBJFOHFM@CriticalDamageTimeStart?$AA@
  01943	68 00 00 00 00	 push	 OFFSET ??_C@_0M@ECCCJHIK@MasterSkill?$AA@
  01948	ff 15 00 00 00
	00		 call	 DWORD PTR __imp__GetPrivateProfileIntA@16
  0194e	8b 4d f8	 mov	 ecx, DWORD PTR _this$[ebp]
  01951	66 89 81 aa 0c
	00 00		 mov	 WORD PTR [ecx+3242], ax

; 293  : 	this->m_CriticalDamageTimeDiv				= GetPrivateProfileInt(MASTER_SKILL_CM, "CriticalDamageTimeDiv", 600, MASTER_SKILL_DIR); 

  01958	68 00 00 00 00	 push	 OFFSET ??_C@_0CA@DLFJNCO@?4?4?2Data?2ExData?2MasterSkills?4ini?$AA@
  0195d	68 58 02 00 00	 push	 600			; 00000258H
  01962	68 00 00 00 00	 push	 OFFSET ??_C@_0BG@IFFFDPA@CriticalDamageTimeDiv?$AA@
  01967	68 00 00 00 00	 push	 OFFSET ??_C@_0M@ECCCJHIK@MasterSkill?$AA@
  0196c	ff 15 00 00 00
	00		 call	 DWORD PTR __imp__GetPrivateProfileIntA@16
  01972	8b 4d f8	 mov	 ecx, DWORD PTR _this$[ebp]
  01975	66 89 81 ac 0c
	00 00		 mov	 WORD PTR [ecx+3244], ax

; 294  : 	this->m_CriticalDamageTimeMax				= GetPrivateProfileInt(MASTER_SKILL_CM, "CriticalDamageTimeMax", 600, MASTER_SKILL_DIR); 

  0197c	68 00 00 00 00	 push	 OFFSET ??_C@_0CA@DLFJNCO@?4?4?2Data?2ExData?2MasterSkills?4ini?$AA@
  01981	68 58 02 00 00	 push	 600			; 00000258H
  01986	68 00 00 00 00	 push	 OFFSET ??_C@_0BG@OFMNGAEM@CriticalDamageTimeMax?$AA@
  0198b	68 00 00 00 00	 push	 OFFSET ??_C@_0M@ECCCJHIK@MasterSkill?$AA@
  01990	ff 15 00 00 00
	00		 call	 DWORD PTR __imp__GetPrivateProfileIntA@16
  01996	8b 4d f8	 mov	 ecx, DWORD PTR _this$[ebp]
  01999	89 81 b0 0c 00
	00		 mov	 DWORD PTR [ecx+3248], eax

; 295  : 	this->m_BerserkerManaIncDiv					= GetPrivateProfileInt(MASTER_SKILL_CM, "BerserkerManaIncDiv", 600, MASTER_SKILL_DIR); 

  0199f	68 00 00 00 00	 push	 OFFSET ??_C@_0CA@DLFJNCO@?4?4?2Data?2ExData?2MasterSkills?4ini?$AA@
  019a4	68 58 02 00 00	 push	 600			; 00000258H
  019a9	68 00 00 00 00	 push	 OFFSET ??_C@_0BE@OIPBEFAB@BerserkerManaIncDiv?$AA@
  019ae	68 00 00 00 00	 push	 OFFSET ??_C@_0M@ECCCJHIK@MasterSkill?$AA@
  019b3	ff 15 00 00 00
	00		 call	 DWORD PTR __imp__GetPrivateProfileIntA@16
  019b9	8b 4d f8	 mov	 ecx, DWORD PTR _this$[ebp]
  019bc	66 89 81 b4 0c
	00 00		 mov	 WORD PTR [ecx+3252], ax

; 296  : 	this->m_BerserkerLifeDecDiv					= GetPrivateProfileInt(MASTER_SKILL_CM, "BerserkerLifeDecDiv", 600, MASTER_SKILL_DIR); 

  019c3	68 00 00 00 00	 push	 OFFSET ??_C@_0CA@DLFJNCO@?4?4?2Data?2ExData?2MasterSkills?4ini?$AA@
  019c8	68 58 02 00 00	 push	 600			; 00000258H
  019cd	68 00 00 00 00	 push	 OFFSET ??_C@_0BE@OCKOHNE@BerserkerLifeDecDiv?$AA@
  019d2	68 00 00 00 00	 push	 OFFSET ??_C@_0M@ECCCJHIK@MasterSkill?$AA@
  019d7	ff 15 00 00 00
	00		 call	 DWORD PTR __imp__GetPrivateProfileIntA@16
  019dd	8b 4d f8	 mov	 ecx, DWORD PTR _this$[ebp]
  019e0	66 89 81 b6 0c
	00 00		 mov	 WORD PTR [ecx+3254], ax

; 297  : 	this->m_BerserkerTimeStart					= GetPrivateProfileInt(MASTER_SKILL_CM, "BerserkerTimeStart", 600, MASTER_SKILL_DIR); 

  019e7	68 00 00 00 00	 push	 OFFSET ??_C@_0CA@DLFJNCO@?4?4?2Data?2ExData?2MasterSkills?4ini?$AA@
  019ec	68 58 02 00 00	 push	 600			; 00000258H
  019f1	68 00 00 00 00	 push	 OFFSET ??_C@_0BD@BHMKFOOP@BerserkerTimeStart?$AA@
  019f6	68 00 00 00 00	 push	 OFFSET ??_C@_0M@ECCCJHIK@MasterSkill?$AA@
  019fb	ff 15 00 00 00
	00		 call	 DWORD PTR __imp__GetPrivateProfileIntA@16
  01a01	8b 4d f8	 mov	 ecx, DWORD PTR _this$[ebp]
  01a04	66 89 81 b8 0c
	00 00		 mov	 WORD PTR [ecx+3256], ax

; 298  : 	this->m_BerserkerTimeDiv					= GetPrivateProfileInt(MASTER_SKILL_CM, "BerserkerTimeDiv", 600, MASTER_SKILL_DIR); 

  01a0b	68 00 00 00 00	 push	 OFFSET ??_C@_0CA@DLFJNCO@?4?4?2Data?2ExData?2MasterSkills?4ini?$AA@
  01a10	68 58 02 00 00	 push	 600			; 00000258H
  01a15	68 00 00 00 00	 push	 OFFSET ??_C@_0BB@IFIKOEHI@BerserkerTimeDiv?$AA@
  01a1a	68 00 00 00 00	 push	 OFFSET ??_C@_0M@ECCCJHIK@MasterSkill?$AA@
  01a1f	ff 15 00 00 00
	00		 call	 DWORD PTR __imp__GetPrivateProfileIntA@16
  01a25	8b 4d f8	 mov	 ecx, DWORD PTR _this$[ebp]
  01a28	66 89 81 ba 0c
	00 00		 mov	 WORD PTR [ecx+3258], ax

; 299  : 	this->m_BerserkerTimeMax					= GetPrivateProfileInt(MASTER_SKILL_CM, "BerserkerTimeMax", 600, MASTER_SKILL_DIR); 

  01a2f	68 00 00 00 00	 push	 OFFSET ??_C@_0CA@DLFJNCO@?4?4?2Data?2ExData?2MasterSkills?4ini?$AA@
  01a34	68 58 02 00 00	 push	 600			; 00000258H
  01a39	68 00 00 00 00	 push	 OFFSET ??_C@_0BB@GIBCNHME@BerserkerTimeMax?$AA@
  01a3e	68 00 00 00 00	 push	 OFFSET ??_C@_0M@ECCCJHIK@MasterSkill?$AA@
  01a43	ff 15 00 00 00
	00		 call	 DWORD PTR __imp__GetPrivateProfileIntA@16
  01a49	8b 4d f8	 mov	 ecx, DWORD PTR _this$[ebp]
  01a4c	89 81 bc 0c 00
	00		 mov	 DWORD PTR [ecx+3260], eax

; 300  : 	this->m_BerserkerProcentDamageMax				= GetPrivateProfileInt(MASTER_SKILL_CM, "BerserkerProcentDamageMax", 0, MASTER_SKILL_DIR); 

  01a52	68 00 00 00 00	 push	 OFFSET ??_C@_0CA@DLFJNCO@?4?4?2Data?2ExData?2MasterSkills?4ini?$AA@
  01a57	6a 00		 push	 0
  01a59	68 00 00 00 00	 push	 OFFSET ??_C@_0BK@MKJOKFKE@BerserkerProcentDamageMax?$AA@
  01a5e	68 00 00 00 00	 push	 OFFSET ??_C@_0M@ECCCJHIK@MasterSkill?$AA@
  01a63	ff 15 00 00 00
	00		 call	 DWORD PTR __imp__GetPrivateProfileIntA@16
  01a69	8b 4d f8	 mov	 ecx, DWORD PTR _this$[ebp]
  01a6c	66 89 81 c0 0c
	00 00		 mov	 WORD PTR [ecx+3264], ax

; 301  : 	this->m_BerserkerDefenceDivProcent	= GetPrivateProfileInt(MASTER_SKILL_CM, "BerserkerDefenceDivProcent", 10, MASTER_SKILL_DIR); 

  01a73	68 00 00 00 00	 push	 OFFSET ??_C@_0CA@DLFJNCO@?4?4?2Data?2ExData?2MasterSkills?4ini?$AA@
  01a78	6a 0a		 push	 10			; 0000000aH
  01a7a	68 00 00 00 00	 push	 OFFSET ??_C@_0BL@OBKCINOG@BerserkerDefenceDivProcent?$AA@
  01a7f	68 00 00 00 00	 push	 OFFSET ??_C@_0M@ECCCJHIK@MasterSkill?$AA@
  01a84	ff 15 00 00 00
	00		 call	 DWORD PTR __imp__GetPrivateProfileIntA@16
  01a8a	8b 4d f8	 mov	 ecx, DWORD PTR _this$[ebp]
  01a8d	66 89 81 c2 0c
	00 00		 mov	 WORD PTR [ecx+3266], ax

; 302  : 	this->m_ReflectEffectStart					= GetPrivateProfileInt(MASTER_SKILL_CM, "ReflectEffectStart", 600, MASTER_SKILL_DIR); 

  01a94	68 00 00 00 00	 push	 OFFSET ??_C@_0CA@DLFJNCO@?4?4?2Data?2ExData?2MasterSkills?4ini?$AA@
  01a99	68 58 02 00 00	 push	 600			; 00000258H
  01a9e	68 00 00 00 00	 push	 OFFSET ??_C@_0BD@DINJGEOO@ReflectEffectStart?$AA@
  01aa3	68 00 00 00 00	 push	 OFFSET ??_C@_0M@ECCCJHIK@MasterSkill?$AA@
  01aa8	ff 15 00 00 00
	00		 call	 DWORD PTR __imp__GetPrivateProfileIntA@16
  01aae	8b 4d f8	 mov	 ecx, DWORD PTR _this$[ebp]
  01ab1	66 89 81 c4 0c
	00 00		 mov	 WORD PTR [ecx+3268], ax

; 303  : 	this->m_ReflectEffectDiv					= GetPrivateProfileInt(MASTER_SKILL_CM, "ReflectEffectDiv", 600, MASTER_SKILL_DIR); 

  01ab8	68 00 00 00 00	 push	 OFFSET ??_C@_0CA@DLFJNCO@?4?4?2Data?2ExData?2MasterSkills?4ini?$AA@
  01abd	68 58 02 00 00	 push	 600			; 00000258H
  01ac2	68 00 00 00 00	 push	 OFFSET ??_C@_0BB@BPODGPLG@ReflectEffectDiv?$AA@
  01ac7	68 00 00 00 00	 push	 OFFSET ??_C@_0M@ECCCJHIK@MasterSkill?$AA@
  01acc	ff 15 00 00 00
	00		 call	 DWORD PTR __imp__GetPrivateProfileIntA@16
  01ad2	8b 4d f8	 mov	 ecx, DWORD PTR _this$[ebp]
  01ad5	66 89 81 c6 0c
	00 00		 mov	 WORD PTR [ecx+3270], ax

; 304  : 	this->m_ReflectEffectMax					= GetPrivateProfileInt(MASTER_SKILL_CM, "ReflectEffectMax", 600, MASTER_SKILL_DIR); 

  01adc	68 00 00 00 00	 push	 OFFSET ??_C@_0CA@DLFJNCO@?4?4?2Data?2ExData?2MasterSkills?4ini?$AA@
  01ae1	68 58 02 00 00	 push	 600			; 00000258H
  01ae6	68 00 00 00 00	 push	 OFFSET ??_C@_0BB@PCHLFMAK@ReflectEffectMax?$AA@
  01aeb	68 00 00 00 00	 push	 OFFSET ??_C@_0M@ECCCJHIK@MasterSkill?$AA@
  01af0	ff 15 00 00 00
	00		 call	 DWORD PTR __imp__GetPrivateProfileIntA@16
  01af6	8b 4d f8	 mov	 ecx, DWORD PTR _this$[ebp]
  01af9	89 81 c8 0c 00
	00		 mov	 DWORD PTR [ecx+3272], eax

; 305  : 	this->m_ReflectTimeStart					= GetPrivateProfileInt(MASTER_SKILL_CM, "ReflectTimeStart", 600, MASTER_SKILL_DIR); 

  01aff	68 00 00 00 00	 push	 OFFSET ??_C@_0CA@DLFJNCO@?4?4?2Data?2ExData?2MasterSkills?4ini?$AA@
  01b04	68 58 02 00 00	 push	 600			; 00000258H
  01b09	68 00 00 00 00	 push	 OFFSET ??_C@_0BB@OEIPCAFF@ReflectTimeStart?$AA@
  01b0e	68 00 00 00 00	 push	 OFFSET ??_C@_0M@ECCCJHIK@MasterSkill?$AA@
  01b13	ff 15 00 00 00
	00		 call	 DWORD PTR __imp__GetPrivateProfileIntA@16
  01b19	8b 4d f8	 mov	 ecx, DWORD PTR _this$[ebp]
  01b1c	66 89 81 cc 0c
	00 00		 mov	 WORD PTR [ecx+3276], ax

; 306  : 	this->m_ReflectTimeDiv						= GetPrivateProfileInt(MASTER_SKILL_CM, "ReflectTimeDiv", 600, MASTER_SKILL_DIR); 

  01b23	68 00 00 00 00	 push	 OFFSET ??_C@_0CA@DLFJNCO@?4?4?2Data?2ExData?2MasterSkills?4ini?$AA@
  01b28	68 58 02 00 00	 push	 600			; 00000258H
  01b2d	68 00 00 00 00	 push	 OFFSET ??_C@_0P@DDPAIKCD@ReflectTimeDiv?$AA@
  01b32	68 00 00 00 00	 push	 OFFSET ??_C@_0M@ECCCJHIK@MasterSkill?$AA@
  01b37	ff 15 00 00 00
	00		 call	 DWORD PTR __imp__GetPrivateProfileIntA@16
  01b3d	8b 4d f8	 mov	 ecx, DWORD PTR _this$[ebp]
  01b40	66 89 81 ce 0c
	00 00		 mov	 WORD PTR [ecx+3278], ax

; 307  : 	this->m_ReflectTimeMax						= GetPrivateProfileInt(MASTER_SKILL_CM, "ReflectTimeMax", 600, MASTER_SKILL_DIR); 

  01b47	68 00 00 00 00	 push	 OFFSET ??_C@_0CA@DLFJNCO@?4?4?2Data?2ExData?2MasterSkills?4ini?$AA@
  01b4c	68 58 02 00 00	 push	 600			; 00000258H
  01b51	68 00 00 00 00	 push	 OFFSET ??_C@_0P@NOGILJJP@ReflectTimeMax?$AA@
  01b56	68 00 00 00 00	 push	 OFFSET ??_C@_0M@ECCCJHIK@MasterSkill?$AA@
  01b5b	ff 15 00 00 00
	00		 call	 DWORD PTR __imp__GetPrivateProfileIntA@16
  01b61	8b 4d f8	 mov	 ecx, DWORD PTR _this$[ebp]
  01b64	89 81 d0 0c 00
	00		 mov	 DWORD PTR [ecx+3280], eax

; 308  : 	this->m_IgnoreDefenseEffectStart			= GetPrivateProfileInt(MASTER_SKILL_CM, "IgnoreDefenseEffectStart", 600, MASTER_SKILL_DIR); 

  01b6a	68 00 00 00 00	 push	 OFFSET ??_C@_0CA@DLFJNCO@?4?4?2Data?2ExData?2MasterSkills?4ini?$AA@
  01b6f	68 58 02 00 00	 push	 600			; 00000258H
  01b74	68 00 00 00 00	 push	 OFFSET ??_C@_0BJ@OOADAFPG@IgnoreDefenseEffectStart?$AA@
  01b79	68 00 00 00 00	 push	 OFFSET ??_C@_0M@ECCCJHIK@MasterSkill?$AA@
  01b7e	ff 15 00 00 00
	00		 call	 DWORD PTR __imp__GetPrivateProfileIntA@16
  01b84	8b 4d f8	 mov	 ecx, DWORD PTR _this$[ebp]
  01b87	66 89 81 d4 0c
	00 00		 mov	 WORD PTR [ecx+3284], ax

; 309  : 	this->m_IgnoreDefenseEffectSub				= GetPrivateProfileInt(MASTER_SKILL_CM, "IgnoreDefenseEffectSub", 600, MASTER_SKILL_DIR); 

  01b8e	68 00 00 00 00	 push	 OFFSET ??_C@_0CA@DLFJNCO@?4?4?2Data?2ExData?2MasterSkills?4ini?$AA@
  01b93	68 58 02 00 00	 push	 600			; 00000258H
  01b98	68 00 00 00 00	 push	 OFFSET ??_C@_0BH@JNFEBFBK@IgnoreDefenseEffectSub?$AA@
  01b9d	68 00 00 00 00	 push	 OFFSET ??_C@_0M@ECCCJHIK@MasterSkill?$AA@
  01ba2	ff 15 00 00 00
	00		 call	 DWORD PTR __imp__GetPrivateProfileIntA@16
  01ba8	8b 4d f8	 mov	 ecx, DWORD PTR _this$[ebp]
  01bab	66 89 81 d6 0c
	00 00		 mov	 WORD PTR [ecx+3286], ax

; 310  : 	this->m_IgnoreDefenseEffectDiv				= GetPrivateProfileInt(MASTER_SKILL_CM, "IgnoreDefenseEffectDiv", 600, MASTER_SKILL_DIR); 

  01bb2	68 00 00 00 00	 push	 OFFSET ??_C@_0CA@DLFJNCO@?4?4?2Data?2ExData?2MasterSkills?4ini?$AA@
  01bb7	68 58 02 00 00	 push	 600			; 00000258H
  01bbc	68 00 00 00 00	 push	 OFFSET ??_C@_0BH@GLAIPHHN@IgnoreDefenseEffectDiv?$AA@
  01bc1	68 00 00 00 00	 push	 OFFSET ??_C@_0M@ECCCJHIK@MasterSkill?$AA@
  01bc6	ff 15 00 00 00
	00		 call	 DWORD PTR __imp__GetPrivateProfileIntA@16
  01bcc	8b 4d f8	 mov	 ecx, DWORD PTR _this$[ebp]
  01bcf	66 89 81 d8 0c
	00 00		 mov	 WORD PTR [ecx+3288], ax

; 311  : 	this->m_IgnoreDefenseEffectMax				= GetPrivateProfileInt(MASTER_SKILL_CM, "IgnoreDefenseEffectMax", 600, MASTER_SKILL_DIR); 

  01bd6	68 00 00 00 00	 push	 OFFSET ??_C@_0CA@DLFJNCO@?4?4?2Data?2ExData?2MasterSkills?4ini?$AA@
  01bdb	68 58 02 00 00	 push	 600			; 00000258H
  01be0	68 00 00 00 00	 push	 OFFSET ??_C@_0BH@IGJAMEMB@IgnoreDefenseEffectMax?$AA@
  01be5	68 00 00 00 00	 push	 OFFSET ??_C@_0M@ECCCJHIK@MasterSkill?$AA@
  01bea	ff 15 00 00 00
	00		 call	 DWORD PTR __imp__GetPrivateProfileIntA@16
  01bf0	8b 4d f8	 mov	 ecx, DWORD PTR _this$[ebp]
  01bf3	89 81 dc 0c 00
	00		 mov	 DWORD PTR [ecx+3292], eax

; 312  : 	this->m_IgnoreDefenseTimeStart				= GetPrivateProfileInt(MASTER_SKILL_CM, "IgnoreDefenseTimeStart", 600, MASTER_SKILL_DIR); 

  01bf9	68 00 00 00 00	 push	 OFFSET ??_C@_0CA@DLFJNCO@?4?4?2Data?2ExData?2MasterSkills?4ini?$AA@
  01bfe	68 58 02 00 00	 push	 600			; 00000258H
  01c03	68 00 00 00 00	 push	 OFFSET ??_C@_0BH@JAGELIJO@IgnoreDefenseTimeStart?$AA@
  01c08	68 00 00 00 00	 push	 OFFSET ??_C@_0M@ECCCJHIK@MasterSkill?$AA@
  01c0d	ff 15 00 00 00
	00		 call	 DWORD PTR __imp__GetPrivateProfileIntA@16
  01c13	8b 4d f8	 mov	 ecx, DWORD PTR _this$[ebp]
  01c16	66 89 81 e0 0c
	00 00		 mov	 WORD PTR [ecx+3296], ax

; 313  : 	this->m_IgnoreDefenseTimeDiv				= GetPrivateProfileInt(MASTER_SKILL_CM, "IgnoreDefenseTimeDiv", 600, MASTER_SKILL_DIR); 

  01c1d	68 00 00 00 00	 push	 OFFSET ??_C@_0CA@DLFJNCO@?4?4?2Data?2ExData?2MasterSkills?4ini?$AA@
  01c22	68 58 02 00 00	 push	 600			; 00000258H
  01c27	68 00 00 00 00	 push	 OFFSET ??_C@_0BF@HMHOBCNN@IgnoreDefenseTimeDiv?$AA@
  01c2c	68 00 00 00 00	 push	 OFFSET ??_C@_0M@ECCCJHIK@MasterSkill?$AA@
  01c31	ff 15 00 00 00
	00		 call	 DWORD PTR __imp__GetPrivateProfileIntA@16
  01c37	8b 4d f8	 mov	 ecx, DWORD PTR _this$[ebp]
  01c3a	66 89 81 e2 0c
	00 00		 mov	 WORD PTR [ecx+3298], ax

; 314  : 	this->m_IgnoreDefenseTimeMax				= GetPrivateProfileInt(MASTER_SKILL_CM, "IgnoreDefenseTimeMax", 600, MASTER_SKILL_DIR); 

  01c41	68 00 00 00 00	 push	 OFFSET ??_C@_0CA@DLFJNCO@?4?4?2Data?2ExData?2MasterSkills?4ini?$AA@
  01c46	68 58 02 00 00	 push	 600			; 00000258H
  01c4b	68 00 00 00 00	 push	 OFFSET ??_C@_0BF@JBOGCBGB@IgnoreDefenseTimeMax?$AA@
  01c50	68 00 00 00 00	 push	 OFFSET ??_C@_0M@ECCCJHIK@MasterSkill?$AA@
  01c55	ff 15 00 00 00
	00		 call	 DWORD PTR __imp__GetPrivateProfileIntA@16
  01c5b	8b 4d f8	 mov	 ecx, DWORD PTR _this$[ebp]
  01c5e	89 81 e4 0c 00
	00		 mov	 DWORD PTR [ecx+3300], eax

; 315  : 	this->m_IncreaseHealthEffectStart			= GetPrivateProfileInt(MASTER_SKILL_CM, "IncreaseHealthEffectStart", 600, MASTER_SKILL_DIR); 

  01c64	68 00 00 00 00	 push	 OFFSET ??_C@_0CA@DLFJNCO@?4?4?2Data?2ExData?2MasterSkills?4ini?$AA@
  01c69	68 58 02 00 00	 push	 600			; 00000258H
  01c6e	68 00 00 00 00	 push	 OFFSET ??_C@_0BK@FJGKLFFF@IncreaseHealthEffectStart?$AA@
  01c73	68 00 00 00 00	 push	 OFFSET ??_C@_0M@ECCCJHIK@MasterSkill?$AA@
  01c78	ff 15 00 00 00
	00		 call	 DWORD PTR __imp__GetPrivateProfileIntA@16
  01c7e	8b 4d f8	 mov	 ecx, DWORD PTR _this$[ebp]
  01c81	66 89 81 e8 0c
	00 00		 mov	 WORD PTR [ecx+3304], ax

; 316  : 	this->m_IncreaseHealthEffectSub				= GetPrivateProfileInt(MASTER_SKILL_CM, "IncreaseHealthEffectSub", 600, MASTER_SKILL_DIR); 

  01c88	68 00 00 00 00	 push	 OFFSET ??_C@_0CA@DLFJNCO@?4?4?2Data?2ExData?2MasterSkills?4ini?$AA@
  01c8d	68 58 02 00 00	 push	 600			; 00000258H
  01c92	68 00 00 00 00	 push	 OFFSET ??_C@_0BI@MKPMIJHJ@IncreaseHealthEffectSub?$AA@
  01c97	68 00 00 00 00	 push	 OFFSET ??_C@_0M@ECCCJHIK@MasterSkill?$AA@
  01c9c	ff 15 00 00 00
	00		 call	 DWORD PTR __imp__GetPrivateProfileIntA@16
  01ca2	8b 4d f8	 mov	 ecx, DWORD PTR _this$[ebp]
  01ca5	66 89 81 ea 0c
	00 00		 mov	 WORD PTR [ecx+3306], ax

; 317  : 
; 318  : 	//this->m_IncreaseHealthEffectDiv				= GetPrivateProfileInt("SkillInfo", "IncreaseHealthEffectDiv", 600, gDirPath.GetNewPath(lpszFileName)); 
; 319  : 	char szTempEx[256] = { 0 };

  01cac	c6 85 ec fb ff
	ff 00		 mov	 BYTE PTR _szTempEx$[ebp], 0
  01cb3	68 ff 00 00 00	 push	 255			; 000000ffH
  01cb8	6a 00		 push	 0
  01cba	8d 85 ed fb ff
	ff		 lea	 eax, DWORD PTR _szTempEx$[ebp+1]
  01cc0	50		 push	 eax
  01cc1	e8 00 00 00 00	 call	 _memset
  01cc6	83 c4 0c	 add	 esp, 12			; 0000000cH

; 320  : 	GetPrivateProfileString(MASTER_SKILL_CM, "DecTimePerAttackSpeed", "10.00", szTempEx, 256, MASTER_SKILL_DIR);

  01cc9	68 00 00 00 00	 push	 OFFSET ??_C@_0CA@DLFJNCO@?4?4?2Data?2ExData?2MasterSkills?4ini?$AA@
  01cce	68 00 01 00 00	 push	 256			; 00000100H
  01cd3	8d 85 ec fb ff
	ff		 lea	 eax, DWORD PTR _szTempEx$[ebp]
  01cd9	50		 push	 eax
  01cda	68 00 00 00 00	 push	 OFFSET ??_C@_05JLPKDJLM@10?400?$AA@
  01cdf	68 00 00 00 00	 push	 OFFSET ??_C@_0BG@MPJHCBCJ@DecTimePerAttackSpeed?$AA@
  01ce4	68 00 00 00 00	 push	 OFFSET ??_C@_0M@ECCCJHIK@MasterSkill?$AA@
  01ce9	ff 15 00 00 00
	00		 call	 DWORD PTR __imp__GetPrivateProfileStringA@24

; 321  : 	this->m_IncreaseHealthEffectDiv = atof(szTempEx);

  01cef	8d 85 ec fb ff
	ff		 lea	 eax, DWORD PTR _szTempEx$[ebp]
  01cf5	50		 push	 eax
  01cf6	e8 00 00 00 00	 call	 _atof
  01cfb	83 c4 04	 add	 esp, 4
  01cfe	8b 4d f8	 mov	 ecx, DWORD PTR _this$[ebp]
  01d01	d9 99 ec 0c 00
	00		 fstp	 DWORD PTR [ecx+3308]

; 322  : 
; 323  : 	this->m_IncreaseHealthEffectMax				= GetPrivateProfileInt(MASTER_SKILL_CM, "IncreaseHealthEffectMax", 600, MASTER_SKILL_DIR); 

  01d07	68 00 00 00 00	 push	 OFFSET ??_C@_0CA@DLFJNCO@?4?4?2Data?2ExData?2MasterSkills?4ini?$AA@
  01d0c	68 58 02 00 00	 push	 600			; 00000258H
  01d11	68 00 00 00 00	 push	 OFFSET ??_C@_0BI@NBDIFIKC@IncreaseHealthEffectMax?$AA@
  01d16	68 00 00 00 00	 push	 OFFSET ??_C@_0M@ECCCJHIK@MasterSkill?$AA@
  01d1b	ff 15 00 00 00
	00		 call	 DWORD PTR __imp__GetPrivateProfileIntA@16
  01d21	8b 4d f8	 mov	 ecx, DWORD PTR _this$[ebp]
  01d24	89 81 f0 0c 00
	00		 mov	 DWORD PTR [ecx+3312], eax

; 324  : 	this->m_IncreaseHealthTimeStart				= GetPrivateProfileInt(MASTER_SKILL_CM, "IncreaseHealthTimeStart", 600, MASTER_SKILL_DIR); 

  01d2a	68 00 00 00 00	 push	 OFFSET ??_C@_0CA@DLFJNCO@?4?4?2Data?2ExData?2MasterSkills?4ini?$AA@
  01d2f	68 58 02 00 00	 push	 600			; 00000258H
  01d34	68 00 00 00 00	 push	 OFFSET ??_C@_0BI@MHMMCEPN@IncreaseHealthTimeStart?$AA@
  01d39	68 00 00 00 00	 push	 OFFSET ??_C@_0M@ECCCJHIK@MasterSkill?$AA@
  01d3e	ff 15 00 00 00
	00		 call	 DWORD PTR __imp__GetPrivateProfileIntA@16
  01d44	8b 4d f8	 mov	 ecx, DWORD PTR _this$[ebp]
  01d47	66 89 81 f4 0c
	00 00		 mov	 WORD PTR [ecx+3316], ax

; 325  : 	this->m_IncreaseHealthTimeDiv				= GetPrivateProfileInt(MASTER_SKILL_CM, "IncreaseHealthTimeDiv", 600, MASTER_SKILL_DIR); 

  01d4e	68 00 00 00 00	 push	 OFFSET ??_C@_0CA@DLFJNCO@?4?4?2Data?2ExData?2MasterSkills?4ini?$AA@
  01d53	68 58 02 00 00	 push	 600			; 00000258H
  01d58	68 00 00 00 00	 push	 OFFSET ??_C@_0BG@OPFEMLKC@IncreaseHealthTimeDiv?$AA@
  01d5d	68 00 00 00 00	 push	 OFFSET ??_C@_0M@ECCCJHIK@MasterSkill?$AA@
  01d62	ff 15 00 00 00
	00		 call	 DWORD PTR __imp__GetPrivateProfileIntA@16
  01d68	8b 4d f8	 mov	 ecx, DWORD PTR _this$[ebp]
  01d6b	66 89 81 f6 0c
	00 00		 mov	 WORD PTR [ecx+3318], ax

; 326  : 	this->m_IncreaseHealthTimeMax				= GetPrivateProfileInt(MASTER_SKILL_CM, "IncreaseHealthTimeMax", 600, MASTER_SKILL_DIR); 

  01d72	68 00 00 00 00	 push	 OFFSET ??_C@_0CA@DLFJNCO@?4?4?2Data?2ExData?2MasterSkills?4ini?$AA@
  01d77	68 58 02 00 00	 push	 600			; 00000258H
  01d7c	68 00 00 00 00	 push	 OFFSET ??_C@_0BG@CMMPIBO@IncreaseHealthTimeMax?$AA@
  01d81	68 00 00 00 00	 push	 OFFSET ??_C@_0M@ECCCJHIK@MasterSkill?$AA@
  01d86	ff 15 00 00 00
	00		 call	 DWORD PTR __imp__GetPrivateProfileIntA@16
  01d8c	8b 4d f8	 mov	 ecx, DWORD PTR _this$[ebp]
  01d8f	89 81 f8 0c 00
	00		 mov	 DWORD PTR [ecx+3320], eax

; 327  : 	this->m_IncreaseBlockEffectStart			= GetPrivateProfileInt(MASTER_SKILL_CM, "IncreaseBlockEffectStart", 600, MASTER_SKILL_DIR); 

  01d95	68 00 00 00 00	 push	 OFFSET ??_C@_0CA@DLFJNCO@?4?4?2Data?2ExData?2MasterSkills?4ini?$AA@
  01d9a	68 58 02 00 00	 push	 600			; 00000258H
  01d9f	68 00 00 00 00	 push	 OFFSET ??_C@_0BJ@MLOJIGOI@IncreaseBlockEffectStart?$AA@
  01da4	68 00 00 00 00	 push	 OFFSET ??_C@_0M@ECCCJHIK@MasterSkill?$AA@
  01da9	ff 15 00 00 00
	00		 call	 DWORD PTR __imp__GetPrivateProfileIntA@16
  01daf	8b 4d f8	 mov	 ecx, DWORD PTR _this$[ebp]
  01db2	66 89 81 fc 0c
	00 00		 mov	 WORD PTR [ecx+3324], ax

; 328  : 	this->m_IncreaseBlockEffectSub				= GetPrivateProfileInt(MASTER_SKILL_CM, "IncreaseBlockEffectSub", 600, MASTER_SKILL_DIR); 

  01db9	68 00 00 00 00	 push	 OFFSET ??_C@_0CA@DLFJNCO@?4?4?2Data?2ExData?2MasterSkills?4ini?$AA@
  01dbe	68 58 02 00 00	 push	 600			; 00000258H
  01dc3	68 00 00 00 00	 push	 OFFSET ??_C@_0BH@KJNKHPEI@IncreaseBlockEffectSub?$AA@
  01dc8	68 00 00 00 00	 push	 OFFSET ??_C@_0M@ECCCJHIK@MasterSkill?$AA@
  01dcd	ff 15 00 00 00
	00		 call	 DWORD PTR __imp__GetPrivateProfileIntA@16
  01dd3	8b 4d f8	 mov	 ecx, DWORD PTR _this$[ebp]
  01dd6	66 89 81 fe 0c
	00 00		 mov	 WORD PTR [ecx+3326], ax

; 329  : 	this->m_IncreaseBlockEffectDiv				= GetPrivateProfileInt(MASTER_SKILL_CM, "IncreaseBlockEffectDiv", 600, MASTER_SKILL_DIR); 

  01ddd	68 00 00 00 00	 push	 OFFSET ??_C@_0CA@DLFJNCO@?4?4?2Data?2ExData?2MasterSkills?4ini?$AA@
  01de2	68 58 02 00 00	 push	 600			; 00000258H
  01de7	68 00 00 00 00	 push	 OFFSET ??_C@_0BH@FPIGJNCP@IncreaseBlockEffectDiv?$AA@
  01dec	68 00 00 00 00	 push	 OFFSET ??_C@_0M@ECCCJHIK@MasterSkill?$AA@
  01df1	ff 15 00 00 00
	00		 call	 DWORD PTR __imp__GetPrivateProfileIntA@16
  01df7	8b 4d f8	 mov	 ecx, DWORD PTR _this$[ebp]
  01dfa	66 89 81 00 0d
	00 00		 mov	 WORD PTR [ecx+3328], ax

; 330  : 	this->m_IncreaseBlockEffectMax				= GetPrivateProfileInt(MASTER_SKILL_CM, "IncreaseBlockEffectMax", 600, MASTER_SKILL_DIR); 

  01e01	68 00 00 00 00	 push	 OFFSET ??_C@_0CA@DLFJNCO@?4?4?2Data?2ExData?2MasterSkills?4ini?$AA@
  01e06	68 58 02 00 00	 push	 600			; 00000258H
  01e0b	68 00 00 00 00	 push	 OFFSET ??_C@_0BH@LCBOKOJD@IncreaseBlockEffectMax?$AA@
  01e10	68 00 00 00 00	 push	 OFFSET ??_C@_0M@ECCCJHIK@MasterSkill?$AA@
  01e15	ff 15 00 00 00
	00		 call	 DWORD PTR __imp__GetPrivateProfileIntA@16
  01e1b	8b 4d f8	 mov	 ecx, DWORD PTR _this$[ebp]
  01e1e	89 81 04 0d 00
	00		 mov	 DWORD PTR [ecx+3332], eax

; 331  : 	this->m_IncreaseBlockTimeStart				= GetPrivateProfileInt(MASTER_SKILL_CM, "IncreaseBlockTimeStart", 600, MASTER_SKILL_DIR); 

  01e24	68 00 00 00 00	 push	 OFFSET ??_C@_0CA@DLFJNCO@?4?4?2Data?2ExData?2MasterSkills?4ini?$AA@
  01e29	68 58 02 00 00	 push	 600			; 00000258H
  01e2e	68 00 00 00 00	 push	 OFFSET ??_C@_0BH@KEOKNCMM@IncreaseBlockTimeStart?$AA@
  01e33	68 00 00 00 00	 push	 OFFSET ??_C@_0M@ECCCJHIK@MasterSkill?$AA@
  01e38	ff 15 00 00 00
	00		 call	 DWORD PTR __imp__GetPrivateProfileIntA@16
  01e3e	8b 4d f8	 mov	 ecx, DWORD PTR _this$[ebp]
  01e41	66 89 81 08 0d
	00 00		 mov	 WORD PTR [ecx+3336], ax

; 332  : 	this->m_IncreaseBlockTimeDiv				= GetPrivateProfileInt(MASTER_SKILL_CM, "IncreaseBlockTimeDiv", 600, MASTER_SKILL_DIR); 

  01e48	68 00 00 00 00	 push	 OFFSET ??_C@_0CA@DLFJNCO@?4?4?2Data?2ExData?2MasterSkills?4ini?$AA@
  01e4d	68 58 02 00 00	 push	 600			; 00000258H
  01e52	68 00 00 00 00	 push	 OFFSET ??_C@_0BF@BKDJGFNH@IncreaseBlockTimeDiv?$AA@
  01e57	68 00 00 00 00	 push	 OFFSET ??_C@_0M@ECCCJHIK@MasterSkill?$AA@
  01e5c	ff 15 00 00 00
	00		 call	 DWORD PTR __imp__GetPrivateProfileIntA@16
  01e62	8b 4d f8	 mov	 ecx, DWORD PTR _this$[ebp]
  01e65	66 89 81 0a 0d
	00 00		 mov	 WORD PTR [ecx+3338], ax

; 333  : 	this->m_IncreaseBlockTimeMax				= GetPrivateProfileInt(MASTER_SKILL_CM, "IncreaseBlockTimeMax", 600, MASTER_SKILL_DIR); 

  01e6c	68 00 00 00 00	 push	 OFFSET ??_C@_0CA@DLFJNCO@?4?4?2Data?2ExData?2MasterSkills?4ini?$AA@
  01e71	68 58 02 00 00	 push	 600			; 00000258H
  01e76	68 00 00 00 00	 push	 OFFSET ??_C@_0BF@PHKBFGGL@IncreaseBlockTimeMax?$AA@
  01e7b	68 00 00 00 00	 push	 OFFSET ??_C@_0M@ECCCJHIK@MasterSkill?$AA@
  01e80	ff 15 00 00 00
	00		 call	 DWORD PTR __imp__GetPrivateProfileIntA@16
  01e86	8b 4d f8	 mov	 ecx, DWORD PTR _this$[ebp]
  01e89	89 81 0c 0d 00
	00		 mov	 DWORD PTR [ecx+3340], eax

; 334  : 	// ----
; 335  : 	//this->m_WeaknessEffectStartVsMob			= GetPrivateProfileInt(MASTER_SKILL_CM, "WeaknessEffectStartVsMob", 4, MASTER_SKILL_DIR);
; 336  : 	//this->m_WeaknessEffectDivVsMob				= GetPrivateProfileInt(MASTER_SKILL_CM, "WeaknessEffectDivVsMob", 58, MASTER_SKILL_DIR);
; 337  : 	//this->m_WeaknessEffectMaxVsMob				= GetPrivateProfileInt(MASTER_SKILL_CM, "WeaknessEffectMaxVsMob", 0, MASTER_SKILL_DIR);
; 338  : 
; 339  : 	//this->m_WeaknessTimeStartVsMob				= GetPrivateProfileInt(MASTER_SKILL_CM, "WeaknessTimeStartVsMob", 4, MASTER_SKILL_DIR);
; 340  : 	//this->m_WeaknessTimeDivVsMob				= GetPrivateProfileInt(MASTER_SKILL_CM, "WeaknessTimeDivVsMob", 100, MASTER_SKILL_DIR);
; 341  : 	//this->m_WeaknessTimeMaxVsMob				= GetPrivateProfileInt(MASTER_SKILL_CM, "WeaknessTimeMaxVsMob", 0, MASTER_SKILL_DIR);
; 342  : 
; 343  : 	//this->m_WeaknessEffectStartVsUser			= GetPrivateProfileInt(MASTER_SKILL_CM, "WeaknessEffectStartVsUser", 3, MASTER_SKILL_DIR);
; 344  : 	//this->m_WeaknessEffectDivVsUser				= GetPrivateProfileInt(MASTER_SKILL_CM, "WeaknessEffectDivVsUser", 93, MASTER_SKILL_DIR);
; 345  : 	//this->m_WeaknessEffectMaxVsUser				= GetPrivateProfileInt(MASTER_SKILL_CM, "WeaknessEffectMaxVsUser", 72, MASTER_SKILL_DIR);
; 346  : 
; 347  : 	//this->m_WeaknessTimeStartVsUser				= GetPrivateProfileInt(MASTER_SKILL_CM, "WeaknessTimeStartVsUser", 5, MASTER_SKILL_DIR);
; 348  : 	//this->m_WeaknessTimeDivVsUser				= GetPrivateProfileInt(MASTER_SKILL_CM, "WeaknessTimeDivVsUser", 300, MASTER_SKILL_DIR);
; 349  : 	//this->m_WeaknessTimeMaxVsUser				= GetPrivateProfileInt(MASTER_SKILL_CM, "WeaknessTimeMaxVsUser", 0, MASTER_SKILL_DIR);
; 350  : 	//// ----
; 351  : 	//this->m_InnovationEffectStartVsMob			= GetPrivateProfileInt(MASTER_SKILL_CM, "InnovationEffectStartVsMob", 20, MASTER_SKILL_DIR);
; 352  : 	//this->m_InnovationEffectDivVsMob			= GetPrivateProfileInt(MASTER_SKILL_CM, "InnovationEffectDivVsMob", 90, MASTER_SKILL_DIR);
; 353  : 	//this->m_InnovationEffectMaxVsMob			= GetPrivateProfileInt(MASTER_SKILL_CM, "InnovationEffectMaxVsMob", 0, MASTER_SKILL_DIR);
; 354  : 
; 355  : 	//this->m_InnovationTimeStartVsMob			= GetPrivateProfileInt(MASTER_SKILL_CM, "InnovationTimeStartVsMob", 4, MASTER_SKILL_DIR);
; 356  : 	//this->m_InnovationTimeDivVsMob				= GetPrivateProfileInt(MASTER_SKILL_CM, "InnovationTimeDivVsMob", 100, MASTER_SKILL_DIR);
; 357  : 	//this->m_InnovationTimeMaxVsMob				= GetPrivateProfileInt(MASTER_SKILL_CM, "InnovationTimeMaxVsMob", 0, MASTER_SKILL_DIR);
; 358  : 
; 359  : 	//this->m_InnovationEffectStartVsUser			= GetPrivateProfileInt(MASTER_SKILL_CM, "InnovationEffectStartVsUser", 12, MASTER_SKILL_DIR);
; 360  : 	//this->m_InnovationEffectDivVsUser			= GetPrivateProfileInt(MASTER_SKILL_CM, "InnovationEffectDivVsUser", 110, MASTER_SKILL_DIR);
; 361  : 	//this->m_InnovationEffectMaxVsUser			= GetPrivateProfileInt(MASTER_SKILL_CM, "InnovationEffectMaxVsUser", 0, MASTER_SKILL_DIR);
; 362  : 
; 363  : 	//this->m_InnovationTimeStartVsUser			= GetPrivateProfileInt(MASTER_SKILL_CM, "InnovationTimeStartVsUser", 5, MASTER_SKILL_DIR);
; 364  : 	//this->m_InnovationTimeDivVsUser				= GetPrivateProfileInt(MASTER_SKILL_CM, "InnovationTimeDivVsUser", 300, MASTER_SKILL_DIR);
; 365  : 	//this->m_InnovationTimeMaxVsUser				= GetPrivateProfileInt(MASTER_SKILL_CM, "InnovationTimeMaxVsUser", 0, MASTER_SKILL_DIR);	
; 366  : 	//// ----
; 367  : 
; 368  : 	this->m_SleepRateStartVsMob					= GetPrivateProfileInt(MASTER_SKILL_CM, "SleepRateStartVsMob", 20, MASTER_SKILL_DIR);

  01e8f	68 00 00 00 00	 push	 OFFSET ??_C@_0CA@DLFJNCO@?4?4?2Data?2ExData?2MasterSkills?4ini?$AA@
  01e94	6a 14		 push	 20			; 00000014H
  01e96	68 00 00 00 00	 push	 OFFSET ??_C@_0BE@BNLKCCNC@SleepRateStartVsMob?$AA@
  01e9b	68 00 00 00 00	 push	 OFFSET ??_C@_0M@ECCCJHIK@MasterSkill?$AA@
  01ea0	ff 15 00 00 00
	00		 call	 DWORD PTR __imp__GetPrivateProfileIntA@16
  01ea6	8b 4d f8	 mov	 ecx, DWORD PTR _this$[ebp]
  01ea9	66 89 81 10 0d
	00 00		 mov	 WORD PTR [ecx+3344], ax

; 369  : 	this->m_SleepRateDivVsMob					= GetPrivateProfileInt(MASTER_SKILL_CM, "SleepRateDivVsMob", 30, MASTER_SKILL_DIR);

  01eb0	68 00 00 00 00	 push	 OFFSET ??_C@_0CA@DLFJNCO@?4?4?2Data?2ExData?2MasterSkills?4ini?$AA@
  01eb5	6a 1e		 push	 30			; 0000001eH
  01eb7	68 00 00 00 00	 push	 OFFSET ??_C@_0BC@KBJCNCPE@SleepRateDivVsMob?$AA@
  01ebc	68 00 00 00 00	 push	 OFFSET ??_C@_0M@ECCCJHIK@MasterSkill?$AA@
  01ec1	ff 15 00 00 00
	00		 call	 DWORD PTR __imp__GetPrivateProfileIntA@16
  01ec7	8b 4d f8	 mov	 ecx, DWORD PTR _this$[ebp]
  01eca	66 89 81 12 0d
	00 00		 mov	 WORD PTR [ecx+3346], ax

; 370  : 	this->m_SleepRateMaxVsMob					= GetPrivateProfileInt(MASTER_SKILL_CM, "SleepRateMaxVsMob", 0, MASTER_SKILL_DIR);

  01ed1	68 00 00 00 00	 push	 OFFSET ??_C@_0CA@DLFJNCO@?4?4?2Data?2ExData?2MasterSkills?4ini?$AA@
  01ed6	6a 00		 push	 0
  01ed8	68 00 00 00 00	 push	 OFFSET ??_C@_0BC@IOOLAEEH@SleepRateMaxVsMob?$AA@
  01edd	68 00 00 00 00	 push	 OFFSET ??_C@_0M@ECCCJHIK@MasterSkill?$AA@
  01ee2	ff 15 00 00 00
	00		 call	 DWORD PTR __imp__GetPrivateProfileIntA@16
  01ee8	8b 4d f8	 mov	 ecx, DWORD PTR _this$[ebp]
  01eeb	66 89 81 14 0d
	00 00		 mov	 WORD PTR [ecx+3348], ax

; 371  : 
; 372  : 	this->m_SleepRateStartVsUser				= GetPrivateProfileInt(MASTER_SKILL_CM, "SleepRateStartVsUser", 15, MASTER_SKILL_DIR);

  01ef2	68 00 00 00 00	 push	 OFFSET ??_C@_0CA@DLFJNCO@?4?4?2Data?2ExData?2MasterSkills?4ini?$AA@
  01ef7	6a 0f		 push	 15			; 0000000fH
  01ef9	68 00 00 00 00	 push	 OFFSET ??_C@_0BF@DKNJDAEP@SleepRateStartVsUser?$AA@
  01efe	68 00 00 00 00	 push	 OFFSET ??_C@_0M@ECCCJHIK@MasterSkill?$AA@
  01f03	ff 15 00 00 00
	00		 call	 DWORD PTR __imp__GetPrivateProfileIntA@16
  01f09	8b 4d f8	 mov	 ecx, DWORD PTR _this$[ebp]
  01f0c	66 89 81 1c 0d
	00 00		 mov	 WORD PTR [ecx+3356], ax

; 373  : 	this->m_SleepRateDivVsUser					= GetPrivateProfileInt(MASTER_SKILL_CM, "SleepRateDivVsUser", 37, MASTER_SKILL_DIR);

  01f13	68 00 00 00 00	 push	 OFFSET ??_C@_0CA@DLFJNCO@?4?4?2Data?2ExData?2MasterSkills?4ini?$AA@
  01f18	6a 25		 push	 37			; 00000025H
  01f1a	68 00 00 00 00	 push	 OFFSET ??_C@_0BD@OIGIJNEC@SleepRateDivVsUser?$AA@
  01f1f	68 00 00 00 00	 push	 OFFSET ??_C@_0M@ECCCJHIK@MasterSkill?$AA@
  01f24	ff 15 00 00 00
	00		 call	 DWORD PTR __imp__GetPrivateProfileIntA@16
  01f2a	8b 4d f8	 mov	 ecx, DWORD PTR _this$[ebp]
  01f2d	66 89 81 1e 0d
	00 00		 mov	 WORD PTR [ecx+3358], ax

; 374  : 	this->m_SleepRateMaxVsUser					= GetPrivateProfileInt(MASTER_SKILL_CM, "SleepRateMaxVsUser", 0, MASTER_SKILL_DIR);

  01f34	68 00 00 00 00	 push	 OFFSET ??_C@_0CA@DLFJNCO@?4?4?2Data?2ExData?2MasterSkills?4ini?$AA@
  01f39	6a 00		 push	 0
  01f3b	68 00 00 00 00	 push	 OFFSET ??_C@_0BD@LKCPAGKC@SleepRateMaxVsUser?$AA@
  01f40	68 00 00 00 00	 push	 OFFSET ??_C@_0M@ECCCJHIK@MasterSkill?$AA@
  01f45	ff 15 00 00 00
	00		 call	 DWORD PTR __imp__GetPrivateProfileIntA@16
  01f4b	8b 4d f8	 mov	 ecx, DWORD PTR _this$[ebp]
  01f4e	66 89 81 20 0d
	00 00		 mov	 WORD PTR [ecx+3360], ax

; 375  : 
; 376  : 	this->m_SleepTimeStartVsMob					= GetPrivateProfileInt(MASTER_SKILL_CM, "SleepTimeStartVsMob", 5, MASTER_SKILL_DIR);

  01f55	68 00 00 00 00	 push	 OFFSET ??_C@_0CA@DLFJNCO@?4?4?2Data?2ExData?2MasterSkills?4ini?$AA@
  01f5a	6a 05		 push	 5
  01f5c	68 00 00 00 00	 push	 OFFSET ??_C@_0BE@DPILEECE@SleepTimeStartVsMob?$AA@
  01f61	68 00 00 00 00	 push	 OFFSET ??_C@_0M@ECCCJHIK@MasterSkill?$AA@
  01f66	ff 15 00 00 00
	00		 call	 DWORD PTR __imp__GetPrivateProfileIntA@16
  01f6c	8b 4d f8	 mov	 ecx, DWORD PTR _this$[ebp]
  01f6f	66 89 81 16 0d
	00 00		 mov	 WORD PTR [ecx+3350], ax

; 377  : 	this->m_SleepTimeDivVsMob					= GetPrivateProfileInt(MASTER_SKILL_CM, "SleepTimeDivVsMob", 100, MASTER_SKILL_DIR);

  01f76	68 00 00 00 00	 push	 OFFSET ??_C@_0CA@DLFJNCO@?4?4?2Data?2ExData?2MasterSkills?4ini?$AA@
  01f7b	6a 64		 push	 100			; 00000064H
  01f7d	68 00 00 00 00	 push	 OFFSET ??_C@_0BC@NCMAIBJJ@SleepTimeDivVsMob?$AA@
  01f82	68 00 00 00 00	 push	 OFFSET ??_C@_0M@ECCCJHIK@MasterSkill?$AA@
  01f87	ff 15 00 00 00
	00		 call	 DWORD PTR __imp__GetPrivateProfileIntA@16
  01f8d	8b 4d f8	 mov	 ecx, DWORD PTR _this$[ebp]
  01f90	66 89 81 18 0d
	00 00		 mov	 WORD PTR [ecx+3352], ax

; 378  : 	this->m_SleepTimeMaxVsMob					= GetPrivateProfileInt(MASTER_SKILL_CM, "SleepTimeMaxVsMob", 0, MASTER_SKILL_DIR);

  01f97	68 00 00 00 00	 push	 OFFSET ??_C@_0CA@DLFJNCO@?4?4?2Data?2ExData?2MasterSkills?4ini?$AA@
  01f9c	6a 00		 push	 0
  01f9e	68 00 00 00 00	 push	 OFFSET ??_C@_0BC@PNLJFHCK@SleepTimeMaxVsMob?$AA@
  01fa3	68 00 00 00 00	 push	 OFFSET ??_C@_0M@ECCCJHIK@MasterSkill?$AA@
  01fa8	ff 15 00 00 00
	00		 call	 DWORD PTR __imp__GetPrivateProfileIntA@16
  01fae	8b 4d f8	 mov	 ecx, DWORD PTR _this$[ebp]
  01fb1	66 89 81 1a 0d
	00 00		 mov	 WORD PTR [ecx+3354], ax

; 379  : 
; 380  : 	this->m_SleepTimeStartVsUser				= GetPrivateProfileInt(MASTER_SKILL_CM, "SleepTimeStartVsUser", 4, MASTER_SKILL_DIR);

  01fb8	68 00 00 00 00	 push	 OFFSET ??_C@_0CA@DLFJNCO@?4?4?2Data?2ExData?2MasterSkills?4ini?$AA@
  01fbd	6a 04		 push	 4
  01fbf	68 00 00 00 00	 push	 OFFSET ??_C@_0BF@GOCFFGAA@SleepTimeStartVsUser?$AA@
  01fc4	68 00 00 00 00	 push	 OFFSET ??_C@_0M@ECCCJHIK@MasterSkill?$AA@
  01fc9	ff 15 00 00 00
	00		 call	 DWORD PTR __imp__GetPrivateProfileIntA@16
  01fcf	8b 4d f8	 mov	 ecx, DWORD PTR _this$[ebp]
  01fd2	66 89 81 22 0d
	00 00		 mov	 WORD PTR [ecx+3362], ax

; 381  : 	this->m_SleepTimeDivVsUser					= GetPrivateProfileInt(MASTER_SKILL_CM, "SleepTimeDivVsUser", 250, MASTER_SKILL_DIR);

  01fd9	68 00 00 00 00	 push	 OFFSET ??_C@_0CA@DLFJNCO@?4?4?2Data?2ExData?2MasterSkills?4ini?$AA@
  01fde	68 fa 00 00 00	 push	 250			; 000000faH
  01fe3	68 00 00 00 00	 push	 OFFSET ??_C@_0BD@NLBINCPE@SleepTimeDivVsUser?$AA@
  01fe8	68 00 00 00 00	 push	 OFFSET ??_C@_0M@ECCCJHIK@MasterSkill?$AA@
  01fed	ff 15 00 00 00
	00		 call	 DWORD PTR __imp__GetPrivateProfileIntA@16
  01ff3	8b 4d f8	 mov	 ecx, DWORD PTR _this$[ebp]
  01ff6	66 89 81 24 0d
	00 00		 mov	 WORD PTR [ecx+3364], ax

; 382  : 	this->m_SleepTimeMaxVsUser					= GetPrivateProfileInt(MASTER_SKILL_CM, "SleepTimeMaxVsUser", 0, MASTER_SKILL_DIR);

  01ffd	68 00 00 00 00	 push	 OFFSET ??_C@_0CA@DLFJNCO@?4?4?2Data?2ExData?2MasterSkills?4ini?$AA@
  02002	6a 00		 push	 0
  02004	68 00 00 00 00	 push	 OFFSET ??_C@_0BD@IJFPEJBE@SleepTimeMaxVsUser?$AA@
  02009	68 00 00 00 00	 push	 OFFSET ??_C@_0M@ECCCJHIK@MasterSkill?$AA@
  0200e	ff 15 00 00 00
	00		 call	 DWORD PTR __imp__GetPrivateProfileIntA@16
  02014	8b 4d f8	 mov	 ecx, DWORD PTR _this$[ebp]
  02017	66 89 81 26 0d
	00 00		 mov	 WORD PTR [ecx+3366], ax

; 383  : 
; 384  : 	LogAddTD("[Skill Addition Info] [SoulBarrier Strengrhen] BaseSkill(Level0):%d, Level1:%d, 2:%d, 3:%d, 4:%d, 5:%d", this->m_wSoulBarrierManaRateLevel[0], this->m_wSoulBarrierManaRateLevel[1], this->m_wSoulBarrierManaRateLevel[2], this->m_wSoulBarrierManaRateLevel[3], this->m_wSoulBarrierManaRateLevel[4], this->m_wSoulBarrierManaRateLevel[5]);

  0201e	8b 45 f8	 mov	 eax, DWORD PTR _this$[ebp]
  02021	0f bf 48 3e	 movsx	 ecx, WORD PTR [eax+62]
  02025	51		 push	 ecx
  02026	8b 55 f8	 mov	 edx, DWORD PTR _this$[ebp]
  02029	0f bf 42 3c	 movsx	 eax, WORD PTR [edx+60]
  0202d	50		 push	 eax
  0202e	8b 4d f8	 mov	 ecx, DWORD PTR _this$[ebp]
  02031	0f bf 51 3a	 movsx	 edx, WORD PTR [ecx+58]
  02035	52		 push	 edx
  02036	8b 45 f8	 mov	 eax, DWORD PTR _this$[ebp]
  02039	0f bf 48 38	 movsx	 ecx, WORD PTR [eax+56]
  0203d	51		 push	 ecx
  0203e	8b 55 f8	 mov	 edx, DWORD PTR _this$[ebp]
  02041	0f bf 42 36	 movsx	 eax, WORD PTR [edx+54]
  02045	50		 push	 eax
  02046	8b 4d f8	 mov	 ecx, DWORD PTR _this$[ebp]
  02049	0f bf 51 34	 movsx	 edx, WORD PTR [ecx+52]
  0204d	52		 push	 edx
  0204e	68 00 00 00 00	 push	 OFFSET ??_C@_0GH@IFKPHEDI@?$FLSkill?5Addition?5Info?$FN?5?$FLSoulBarri@
  02053	ff 15 00 00 00
	00		 call	 DWORD PTR ?LogAddTD@@3P6AXPADZZA ; LogAddTD
  02059	83 c4 1c	 add	 esp, 28			; 0000001cH

; 385  : 
; 386  : 	return TRUE;

  0205c	b8 01 00 00 00	 mov	 eax, 1
$LN10@Load:

; 387  : }

  02061	5f		 pop	 edi
  02062	5e		 pop	 esi
  02063	5b		 pop	 ebx
  02064	8b 4d fc	 mov	 ecx, DWORD PTR __$ArrayPad$[ebp]
  02067	33 cd		 xor	 ecx, ebp
  02069	e8 00 00 00 00	 call	 @__security_check_cookie@4
  0206e	8b e5		 mov	 esp, ebp
  02070	5d		 pop	 ebp
  02071	c2 04 00	 ret	 4
?Load@CSkillAdditionInfo@@QAEHPAD@Z ENDP		; CSkillAdditionInfo::Load
_TEXT	ENDS
PUBLIC	__$ArrayPad$
EXTRN	_isalnum:PROC
EXTRN	_isalpha:PROC
EXTRN	_isdigit:PROC
EXTRN	_getc:PROC
EXTRN	_ungetc:PROC
EXTRN	_isspace:PROC
EXTRN	_fgetc:PROC
_BSS	SEGMENT
_CurrentToken DD 01H DUP (?)
; Function compile flags: /Odtp /ZI
; File d:\projects\exteam6.3\source\gameserver\include\readscript.h
_BSS	ENDS
_TEXT	SEGMENT
tv90 = -180						; size = 4
_TempString$ = -112					; size = 100
_p$ = -12						; size = 4
_ch$ = -5						; size = 1
__$ArrayPad$ = -4					; size = 4
?GetToken@@YA?AW4SMDToken@@XZ PROC			; GetToken

; 24   : {

  02080	55		 push	 ebp
  02081	8b ec		 mov	 ebp, esp
  02083	81 ec b4 00 00
	00		 sub	 esp, 180		; 000000b4H
  02089	a1 00 00 00 00	 mov	 eax, DWORD PTR ___security_cookie
  0208e	33 c5		 xor	 eax, ebp
  02090	89 45 fc	 mov	 DWORD PTR __$ArrayPad$[ebp], eax
  02093	53		 push	 ebx
  02094	56		 push	 esi
  02095	57		 push	 edi

; 25   : 	char ch;
; 26   : 	char* p;
; 27   : 	char TempString[100];
; 28   : 
; 29   : 	TokenString[0]=0;

  02096	c6 05 00 00 00
	00 00		 mov	 BYTE PTR _TokenString, 0
$LN31@GetToken:

; 30   : 
; 31   : 	do
; 32   : 	{
; 33   : 		if ((ch=fgetc(SMDFile)) == -1)

  0209d	a1 00 00 00 00	 mov	 eax, DWORD PTR _SMDFile
  020a2	50		 push	 eax
  020a3	e8 00 00 00 00	 call	 _fgetc
  020a8	83 c4 04	 add	 esp, 4
  020ab	88 45 fb	 mov	 BYTE PTR _ch$[ebp], al
  020ae	0f be 4d fb	 movsx	 ecx, BYTE PTR _ch$[ebp]
  020b2	83 f9 ff	 cmp	 ecx, -1
  020b5	75 0c		 jne	 SHORT $LN28@GetToken

; 34   : 		{
; 35   : 			return END;	// End of FILE (EOF)

  020b7	b8 02 00 00 00	 mov	 eax, 2
  020bc	e9 f7 02 00 00	 jmp	 $LN32@GetToken

; 36   : 		}
; 37   : 		else

  020c1	eb 5b		 jmp	 SHORT $LN22@GetToken
$LN28@GetToken:

; 38   : 		{	
; 39   : 			if (ch=='/')		// this is /

  020c3	0f be 45 fb	 movsx	 eax, BYTE PTR _ch$[ebp]
  020c7	83 f8 2f	 cmp	 eax, 47			; 0000002fH
  020ca	75 52		 jne	 SHORT $LN22@GetToken

; 40   : 			{
; 41   : 				if((ch=fgetc(SMDFile)) == '/')

  020cc	a1 00 00 00 00	 mov	 eax, DWORD PTR _SMDFile
  020d1	50		 push	 eax
  020d2	e8 00 00 00 00	 call	 _fgetc
  020d7	83 c4 04	 add	 esp, 4
  020da	88 45 fb	 mov	 BYTE PTR _ch$[ebp], al
  020dd	0f be 4d fb	 movsx	 ecx, BYTE PTR _ch$[ebp]
  020e1	83 f9 2f	 cmp	 ecx, 47			; 0000002fH
  020e4	75 38		 jne	 SHORT $LN22@GetToken
$LN24@GetToken:

; 42   : 				{
; 43   : 					while ((ch != '\n') && (ch != -1))	// End of Line (EOL)

  020e6	0f be 45 fb	 movsx	 eax, BYTE PTR _ch$[ebp]
  020ea	83 f8 0a	 cmp	 eax, 10			; 0000000aH
  020ed	74 1c		 je	 SHORT $LN23@GetToken
  020ef	0f be 45 fb	 movsx	 eax, BYTE PTR _ch$[ebp]
  020f3	83 f8 ff	 cmp	 eax, -1
  020f6	74 13		 je	 SHORT $LN23@GetToken

; 44   : 					{
; 45   : 						ch=fgetc(SMDFile);

  020f8	a1 00 00 00 00	 mov	 eax, DWORD PTR _SMDFile
  020fd	50		 push	 eax
  020fe	e8 00 00 00 00	 call	 _fgetc
  02103	83 c4 04	 add	 esp, 4
  02106	88 45 fb	 mov	 BYTE PTR _ch$[ebp], al

; 46   : 					}

  02109	eb db		 jmp	 SHORT $LN24@GetToken
$LN23@GetToken:

; 47   : 	
; 48   : 					if (ch == -1)

  0210b	0f be 45 fb	 movsx	 eax, BYTE PTR _ch$[ebp]
  0210f	83 f8 ff	 cmp	 eax, -1
  02112	75 0a		 jne	 SHORT $LN22@GetToken

; 49   : 					{
; 50   : 						return END;	// End of FILE

  02114	b8 02 00 00 00	 mov	 eax, 2
  02119	e9 9a 02 00 00	 jmp	 $LN32@GetToken
$LN22@GetToken:

; 51   : 					}
; 52   : 				}
; 53   : 			}
; 54   : 		}
; 55   : 	}
; 56   : 	while (isspace(ch) != 0);

  0211e	0f be 45 fb	 movsx	 eax, BYTE PTR _ch$[ebp]
  02122	50		 push	 eax
  02123	e8 00 00 00 00	 call	 _isspace
  02128	83 c4 04	 add	 esp, 4
  0212b	85 c0		 test	 eax, eax
  0212d	0f 85 6a ff ff
	ff		 jne	 $LN31@GetToken

; 57   : 
; 58   : 	
; 59   : 	switch(ch)

  02133	0f be 45 fb	 movsx	 eax, BYTE PTR _ch$[ebp]
  02137	89 85 4c ff ff
	ff		 mov	 DWORD PTR tv90[ebp], eax
  0213d	8b 8d 4c ff ff
	ff		 mov	 ecx, DWORD PTR tv90[ebp]
  02143	83 e9 22	 sub	 ecx, 34			; 00000022H
  02146	89 8d 4c ff ff
	ff		 mov	 DWORD PTR tv90[ebp], ecx
  0214c	83 bd 4c ff ff
	ff 5b		 cmp	 DWORD PTR tv90[ebp], 91	; 0000005bH
  02153	0f 87 a3 01 00
	00		 ja	 $LN6@GetToken
  02159	8b 95 4c ff ff
	ff		 mov	 edx, DWORD PTR tv90[ebp]
  0215f	0f b6 82 00 00
	00 00		 movzx	 eax, BYTE PTR $LN34@GetToken[edx]
  02166	ff 24 85 00 00
	00 00		 jmp	 DWORD PTR $LN35@GetToken[eax*4]
$LN19@GetToken:

; 60   : 	{
; 61   : 
; 62   : 	case 0x23:	// #
; 63   : 		return CurrentToken=COMMAND;

  0216d	c7 05 00 00 00
	00 23 00 00 00	 mov	 DWORD PTR _CurrentToken, 35 ; 00000023H
  02177	a1 00 00 00 00	 mov	 eax, DWORD PTR _CurrentToken
  0217c	e9 37 02 00 00	 jmp	 $LN32@GetToken

; 64   : 		break;

  02181	e9 30 02 00 00	 jmp	 $LN20@GetToken
$LN18@GetToken:

; 65   : 	
; 66   : 	case 0x3B:	// ;
; 67   : 		return CurrentToken=SEMICOLON;

  02186	c7 05 00 00 00
	00 3b 00 00 00	 mov	 DWORD PTR _CurrentToken, 59 ; 0000003bH
  02190	a1 00 00 00 00	 mov	 eax, DWORD PTR _CurrentToken
  02195	e9 1e 02 00 00	 jmp	 $LN32@GetToken

; 68   : 		break;

  0219a	e9 17 02 00 00	 jmp	 $LN20@GetToken
$LN17@GetToken:

; 69   : 	
; 70   : 	case 0x2C:	// ,
; 71   : 
; 72   : 		return CurrentToken=COMMA;

  0219f	c7 05 00 00 00
	00 2c 00 00 00	 mov	 DWORD PTR _CurrentToken, 44 ; 0000002cH
  021a9	a1 00 00 00 00	 mov	 eax, DWORD PTR _CurrentToken
  021ae	e9 05 02 00 00	 jmp	 $LN32@GetToken

; 73   : 		break;

  021b3	e9 fe 01 00 00	 jmp	 $LN20@GetToken
$LN16@GetToken:

; 74   : 	
; 75   : 	case 0x7B:	// {
; 76   : 		return CurrentToken = LP;

  021b8	c7 05 00 00 00
	00 7b 00 00 00	 mov	 DWORD PTR _CurrentToken, 123 ; 0000007bH
  021c2	a1 00 00 00 00	 mov	 eax, DWORD PTR _CurrentToken
  021c7	e9 ec 01 00 00	 jmp	 $LN32@GetToken

; 77   : 		break;

  021cc	e9 e5 01 00 00	 jmp	 $LN20@GetToken
$LN15@GetToken:

; 78   : 
; 79   : 	case 0x7D:	// }
; 80   : 		return CurrentToken = RP;

  021d1	c7 05 00 00 00
	00 7d 00 00 00	 mov	 DWORD PTR _CurrentToken, 125 ; 0000007dH
  021db	a1 00 00 00 00	 mov	 eax, DWORD PTR _CurrentToken
  021e0	e9 d3 01 00 00	 jmp	 $LN32@GetToken

; 81   : 		break;

  021e5	e9 cc 01 00 00	 jmp	 $LN20@GetToken
$LN14@GetToken:

; 82   : 	// Nice Index Table :)	by Deathway
; 83   : 	// Numbers Case
; 84   : 	case 0x2D:	//-
; 85   : 	case 0x2E:	//.
; 86   : 	case '0':	//0
; 87   : 	case '1':	//1
; 88   : 	case '2':	//2
; 89   : 	case '3':	//3
; 90   : 	case '4':	//4		
; 91   : 	case '5':	//5
; 92   : 	case '6':	//6
; 93   : 	case '7':	//7
; 94   : 	case '8':	//8
; 95   : 	case '9':	//9
; 96   : 		ungetc(ch, SMDFile);

  021ea	a1 00 00 00 00	 mov	 eax, DWORD PTR _SMDFile
  021ef	50		 push	 eax
  021f0	0f be 4d fb	 movsx	 ecx, BYTE PTR _ch$[ebp]
  021f4	51		 push	 ecx
  021f5	e8 00 00 00 00	 call	 _ungetc
  021fa	83 c4 08	 add	 esp, 8

; 97   : 		p = TempString;

  021fd	8d 45 90	 lea	 eax, DWORD PTR _TempString$[ebp]
  02200	89 45 f4	 mov	 DWORD PTR _p$[ebp], eax
$LN13@GetToken:

; 98   : 		
; 99   : 		while (((ch=getc(SMDFile)) != -1) && ((ch == 0x2E) || (isdigit(ch) != 0) || (ch == 0x2D)))  // 2e '.'  2D '-'

  02203	a1 00 00 00 00	 mov	 eax, DWORD PTR _SMDFile
  02208	50		 push	 eax
  02209	e8 00 00 00 00	 call	 _getc
  0220e	83 c4 04	 add	 esp, 4
  02211	88 45 fb	 mov	 BYTE PTR _ch$[ebp], al
  02214	0f be 4d fb	 movsx	 ecx, BYTE PTR _ch$[ebp]
  02218	83 f9 ff	 cmp	 ecx, -1
  0221b	74 36		 je	 SHORT $LN12@GetToken
  0221d	0f be 45 fb	 movsx	 eax, BYTE PTR _ch$[ebp]
  02221	83 f8 2e	 cmp	 eax, 46			; 0000002eH
  02224	74 1a		 je	 SHORT $LN11@GetToken
  02226	0f be 45 fb	 movsx	 eax, BYTE PTR _ch$[ebp]
  0222a	50		 push	 eax
  0222b	e8 00 00 00 00	 call	 _isdigit
  02230	83 c4 04	 add	 esp, 4
  02233	85 c0		 test	 eax, eax
  02235	75 09		 jne	 SHORT $LN11@GetToken
  02237	0f be 45 fb	 movsx	 eax, BYTE PTR _ch$[ebp]
  0223b	83 f8 2d	 cmp	 eax, 45			; 0000002dH
  0223e	75 13		 jne	 SHORT $LN12@GetToken
$LN11@GetToken:

; 100  : 		{
; 101  : 			*p = ch;	// Construct a String

  02240	8b 45 f4	 mov	 eax, DWORD PTR _p$[ebp]
  02243	8a 4d fb	 mov	 cl, BYTE PTR _ch$[ebp]
  02246	88 08		 mov	 BYTE PTR [eax], cl

; 102  : 			p++;

  02248	8b 45 f4	 mov	 eax, DWORD PTR _p$[ebp]
  0224b	83 c0 01	 add	 eax, 1
  0224e	89 45 f4	 mov	 DWORD PTR _p$[ebp], eax

; 103  : 		}		

  02251	eb b0		 jmp	 SHORT $LN13@GetToken
$LN12@GetToken:

; 104  : 		*p = 0;

  02253	8b 45 f4	 mov	 eax, DWORD PTR _p$[ebp]
  02256	c6 00 00	 mov	 BYTE PTR [eax], 0

; 105  : 		TokenNumber = atof( TempString);	// Select the first Byte as Main ID

  02259	8d 45 90	 lea	 eax, DWORD PTR _TempString$[ebp]
  0225c	50		 push	 eax
  0225d	e8 00 00 00 00	 call	 _atof
  02262	83 c4 04	 add	 esp, 4
  02265	d9 1d 00 00 00
	00		 fstp	 DWORD PTR _TokenNumber

; 106  : 		return CurrentToken  = NUMBER ;

  0226b	c7 05 00 00 00
	00 01 00 00 00	 mov	 DWORD PTR _CurrentToken, 1
  02275	a1 00 00 00 00	 mov	 eax, DWORD PTR _CurrentToken
  0227a	e9 39 01 00 00	 jmp	 $LN32@GetToken

; 107  : 		break;

  0227f	e9 32 01 00 00	 jmp	 $LN20@GetToken
$LN10@GetToken:

; 108  : 
; 109  : 	case '\"':	// "	String Case
; 110  : 		p=&TokenString[0];

  02284	c7 45 f4 00 00
	00 00		 mov	 DWORD PTR _p$[ebp], OFFSET _TokenString
$LN9@GetToken:

; 111  : 		
; 112  : 		while (((ch=getc(SMDFile)) != -1 ) && (ch != 0x22))	// nice

  0228b	a1 00 00 00 00	 mov	 eax, DWORD PTR _SMDFile
  02290	50		 push	 eax
  02291	e8 00 00 00 00	 call	 _getc
  02296	83 c4 04	 add	 esp, 4
  02299	88 45 fb	 mov	 BYTE PTR _ch$[ebp], al
  0229c	0f be 4d fb	 movsx	 ecx, BYTE PTR _ch$[ebp]
  022a0	83 f9 ff	 cmp	 ecx, -1
  022a3	74 1c		 je	 SHORT $LN8@GetToken
  022a5	0f be 45 fb	 movsx	 eax, BYTE PTR _ch$[ebp]
  022a9	83 f8 22	 cmp	 eax, 34			; 00000022H
  022ac	74 13		 je	 SHORT $LN8@GetToken

; 113  : 		{
; 114  : 			*p = ch;

  022ae	8b 45 f4	 mov	 eax, DWORD PTR _p$[ebp]
  022b1	8a 4d fb	 mov	 cl, BYTE PTR _ch$[ebp]
  022b4	88 08		 mov	 BYTE PTR [eax], cl

; 115  : 			p++;

  022b6	8b 45 f4	 mov	 eax, DWORD PTR _p$[ebp]
  022b9	83 c0 01	 add	 eax, 1
  022bc	89 45 f4	 mov	 DWORD PTR _p$[ebp], eax

; 116  : 		}

  022bf	eb ca		 jmp	 SHORT $LN9@GetToken
$LN8@GetToken:

; 117  : 		if (ch != 0x22 )

  022c1	0f be 45 fb	 movsx	 eax, BYTE PTR _ch$[ebp]
  022c5	83 f8 22	 cmp	 eax, 34			; 00000022H
  022c8	74 13		 je	 SHORT $LN7@GetToken

; 118  : 		{
; 119  : 			ungetc(ch, SMDFile);

  022ca	a1 00 00 00 00	 mov	 eax, DWORD PTR _SMDFile
  022cf	50		 push	 eax
  022d0	0f be 4d fb	 movsx	 ecx, BYTE PTR _ch$[ebp]
  022d4	51		 push	 ecx
  022d5	e8 00 00 00 00	 call	 _ungetc
  022da	83 c4 08	 add	 esp, 8
$LN7@GetToken:

; 120  : 		}
; 121  : 		*p = 0;

  022dd	8b 45 f4	 mov	 eax, DWORD PTR _p$[ebp]
  022e0	c6 00 00	 mov	 BYTE PTR [eax], 0

; 122  : 		return CurrentToken = NAME;

  022e3	c7 05 00 00 00
	00 00 00 00 00	 mov	 DWORD PTR _CurrentToken, 0
  022ed	a1 00 00 00 00	 mov	 eax, DWORD PTR _CurrentToken
  022f2	e9 c1 00 00 00	 jmp	 $LN32@GetToken

; 123  : 		break;

  022f7	e9 ba 00 00 00	 jmp	 $LN20@GetToken
$LN6@GetToken:

; 124  : 
; 125  : 	default:	// Others
; 126  : 		if (isalpha(ch))

  022fc	0f be 45 fb	 movsx	 eax, BYTE PTR _ch$[ebp]
  02300	50		 push	 eax
  02301	e8 00 00 00 00	 call	 _isalpha
  02306	83 c4 04	 add	 esp, 4
  02309	85 c0		 test	 eax, eax
  0230b	0f 84 94 00 00
	00		 je	 $LN5@GetToken

; 127  : 		{
; 128  : 			p=&TokenString[0];

  02311	c7 45 f4 00 00
	00 00		 mov	 DWORD PTR _p$[ebp], OFFSET _TokenString

; 129  : 			*p=ch;

  02318	8b 45 f4	 mov	 eax, DWORD PTR _p$[ebp]
  0231b	8a 4d fb	 mov	 cl, BYTE PTR _ch$[ebp]
  0231e	88 08		 mov	 BYTE PTR [eax], cl

; 130  : 			p++;

  02320	8b 45 f4	 mov	 eax, DWORD PTR _p$[ebp]
  02323	83 c0 01	 add	 eax, 1
  02326	89 45 f4	 mov	 DWORD PTR _p$[ebp], eax
$LN4@GetToken:

; 131  : 
; 132  : 			while ( ((ch=getc(SMDFile)) != -1) && ( (ch == 0x2E) || (ch == 0x5F) || (isalnum(ch) != 0) ) )

  02329	a1 00 00 00 00	 mov	 eax, DWORD PTR _SMDFile
  0232e	50		 push	 eax
  0232f	e8 00 00 00 00	 call	 _getc
  02334	83 c4 04	 add	 esp, 4
  02337	88 45 fb	 mov	 BYTE PTR _ch$[ebp], al
  0233a	0f be 4d fb	 movsx	 ecx, BYTE PTR _ch$[ebp]
  0233e	83 f9 ff	 cmp	 ecx, -1
  02341	74 36		 je	 SHORT $LN3@GetToken
  02343	0f be 45 fb	 movsx	 eax, BYTE PTR _ch$[ebp]
  02347	83 f8 2e	 cmp	 eax, 46			; 0000002eH
  0234a	74 1a		 je	 SHORT $LN2@GetToken
  0234c	0f be 45 fb	 movsx	 eax, BYTE PTR _ch$[ebp]
  02350	83 f8 5f	 cmp	 eax, 95			; 0000005fH
  02353	74 11		 je	 SHORT $LN2@GetToken
  02355	0f be 45 fb	 movsx	 eax, BYTE PTR _ch$[ebp]
  02359	50		 push	 eax
  0235a	e8 00 00 00 00	 call	 _isalnum
  0235f	83 c4 04	 add	 esp, 4
  02362	85 c0		 test	 eax, eax
  02364	74 13		 je	 SHORT $LN3@GetToken
$LN2@GetToken:

; 133  : 			{
; 134  : 				*p=ch;

  02366	8b 45 f4	 mov	 eax, DWORD PTR _p$[ebp]
  02369	8a 4d fb	 mov	 cl, BYTE PTR _ch$[ebp]
  0236c	88 08		 mov	 BYTE PTR [eax], cl

; 135  : 				p++;

  0236e	8b 45 f4	 mov	 eax, DWORD PTR _p$[ebp]
  02371	83 c0 01	 add	 eax, 1
  02374	89 45 f4	 mov	 DWORD PTR _p$[ebp], eax

; 136  : 				
; 137  : 			}

  02377	eb b0		 jmp	 SHORT $LN4@GetToken
$LN3@GetToken:

; 138  : 
; 139  : 			ungetc(ch, SMDFile);

  02379	a1 00 00 00 00	 mov	 eax, DWORD PTR _SMDFile
  0237e	50		 push	 eax
  0237f	0f be 4d fb	 movsx	 ecx, BYTE PTR _ch$[ebp]
  02383	51		 push	 ecx
  02384	e8 00 00 00 00	 call	 _ungetc
  02389	83 c4 08	 add	 esp, 8

; 140  : 			*p=0;

  0238c	8b 45 f4	 mov	 eax, DWORD PTR _p$[ebp]
  0238f	c6 00 00	 mov	 BYTE PTR [eax], 0

; 141  : 			CurrentToken=NAME;

  02392	c7 05 00 00 00
	00 00 00 00 00	 mov	 DWORD PTR _CurrentToken, 0

; 142  : 			return CurrentToken;

  0239c	a1 00 00 00 00	 mov	 eax, DWORD PTR _CurrentToken
  023a1	eb 15		 jmp	 SHORT $LN32@GetToken

; 143  : 		}
; 144  : 		else

  023a3	eb 11		 jmp	 SHORT $LN1@GetToken
$LN5@GetToken:

; 145  : 		{
; 146  : 			return CurrentToken = SMD_ERROR; // '<'

  023a5	c7 05 00 00 00
	00 3c 00 00 00	 mov	 DWORD PTR _CurrentToken, 60 ; 0000003cH
  023af	a1 00 00 00 00	 mov	 eax, DWORD PTR _CurrentToken
  023b4	eb 02		 jmp	 SHORT $LN32@GetToken
$LN1@GetToken:
$LN20@GetToken:

; 147  : 		}
; 148  : 		break;
; 149  : 
; 150  : 	}
; 151  : 
; 152  : 	return NAME;

  023b6	33 c0		 xor	 eax, eax
$LN32@GetToken:

; 153  : }

  023b8	5f		 pop	 edi
  023b9	5e		 pop	 esi
  023ba	5b		 pop	 ebx
  023bb	8b 4d fc	 mov	 ecx, DWORD PTR __$ArrayPad$[ebp]
  023be	33 cd		 xor	 ecx, ebp
  023c0	e8 00 00 00 00	 call	 @__security_check_cookie@4
  023c5	8b e5		 mov	 esp, ebp
  023c7	5d		 pop	 ebp
  023c8	c3		 ret	 0
  023c9	8d 49 00	 npad	 3
$LN35@GetToken:
  023cc	00 00 00 00	 DD	 $LN10@GetToken
  023d0	00 00 00 00	 DD	 $LN19@GetToken
  023d4	00 00 00 00	 DD	 $LN17@GetToken
  023d8	00 00 00 00	 DD	 $LN14@GetToken
  023dc	00 00 00 00	 DD	 $LN18@GetToken
  023e0	00 00 00 00	 DD	 $LN16@GetToken
  023e4	00 00 00 00	 DD	 $LN15@GetToken
  023e8	00 00 00 00	 DD	 $LN6@GetToken
$LN34@GetToken:
  023ec	00		 DB	 0
  023ed	01		 DB	 1
  023ee	07		 DB	 7
  023ef	07		 DB	 7
  023f0	07		 DB	 7
  023f1	07		 DB	 7
  023f2	07		 DB	 7
  023f3	07		 DB	 7
  023f4	07		 DB	 7
  023f5	07		 DB	 7
  023f6	02		 DB	 2
  023f7	03		 DB	 3
  023f8	03		 DB	 3
  023f9	07		 DB	 7
  023fa	03		 DB	 3
  023fb	03		 DB	 3
  023fc	03		 DB	 3
  023fd	03		 DB	 3
  023fe	03		 DB	 3
  023ff	03		 DB	 3
  02400	03		 DB	 3
  02401	03		 DB	 3
  02402	03		 DB	 3
  02403	03		 DB	 3
  02404	07		 DB	 7
  02405	04		 DB	 4
  02406	07		 DB	 7
  02407	07		 DB	 7
  02408	07		 DB	 7
  02409	07		 DB	 7
  0240a	07		 DB	 7
  0240b	07		 DB	 7
  0240c	07		 DB	 7
  0240d	07		 DB	 7
  0240e	07		 DB	 7
  0240f	07		 DB	 7
  02410	07		 DB	 7
  02411	07		 DB	 7
  02412	07		 DB	 7
  02413	07		 DB	 7
  02414	07		 DB	 7
  02415	07		 DB	 7
  02416	07		 DB	 7
  02417	07		 DB	 7
  02418	07		 DB	 7
  02419	07		 DB	 7
  0241a	07		 DB	 7
  0241b	07		 DB	 7
  0241c	07		 DB	 7
  0241d	07		 DB	 7
  0241e	07		 DB	 7
  0241f	07		 DB	 7
  02420	07		 DB	 7
  02421	07		 DB	 7
  02422	07		 DB	 7
  02423	07		 DB	 7
  02424	07		 DB	 7
  02425	07		 DB	 7
  02426	07		 DB	 7
  02427	07		 DB	 7
  02428	07		 DB	 7
  02429	07		 DB	 7
  0242a	07		 DB	 7
  0242b	07		 DB	 7
  0242c	07		 DB	 7
  0242d	07		 DB	 7
  0242e	07		 DB	 7
  0242f	07		 DB	 7
  02430	07		 DB	 7
  02431	07		 DB	 7
  02432	07		 DB	 7
  02433	07		 DB	 7
  02434	07		 DB	 7
  02435	07		 DB	 7
  02436	07		 DB	 7
  02437	07		 DB	 7
  02438	07		 DB	 7
  02439	07		 DB	 7
  0243a	07		 DB	 7
  0243b	07		 DB	 7
  0243c	07		 DB	 7
  0243d	07		 DB	 7
  0243e	07		 DB	 7
  0243f	07		 DB	 7
  02440	07		 DB	 7
  02441	07		 DB	 7
  02442	07		 DB	 7
  02443	07		 DB	 7
  02444	07		 DB	 7
  02445	05		 DB	 5
  02446	07		 DB	 7
  02447	06		 DB	 6
?GetToken@@YA?AW4SMDToken@@XZ ENDP			; GetToken
_TEXT	ENDS
PUBLIC	?GetSoulBarrierManaRateLevel@CSkillAdditionInfo@@QAEFH@Z ; CSkillAdditionInfo::GetSoulBarrierManaRateLevel
; Function compile flags: /Odtp /ZI
; File d:\projects\exteam6.3\source\gameserver\gameserver\skilladditioninfo.cpp
_TEXT	SEGMENT
_this$ = -4						; size = 4
_iLevel$ = 8						; size = 4
?GetSoulBarrierManaRateLevel@CSkillAdditionInfo@@QAEFH@Z PROC ; CSkillAdditionInfo::GetSoulBarrierManaRateLevel
; _this$ = ecx

; 390  : {

  02450	55		 push	 ebp
  02451	8b ec		 mov	 ebp, esp
  02453	83 ec 44	 sub	 esp, 68			; 00000044H
  02456	53		 push	 ebx
  02457	56		 push	 esi
  02458	57		 push	 edi
  02459	89 4d fc	 mov	 DWORD PTR _this$[ebp], ecx

; 391  : 	if(iLevel < 0 || 
; 392  : 		iLevel > 20
; 393  : 		)

  0245c	83 7d 08 00	 cmp	 DWORD PTR _iLevel$[ebp], 0
  02460	7c 06		 jl	 SHORT $LN1@GetSoulBar
  02462	83 7d 08 14	 cmp	 DWORD PTR _iLevel$[ebp], 20 ; 00000014H
  02466	7e 07		 jle	 SHORT $LN2@GetSoulBar
$LN1@GetSoulBar:

; 394  : 	{
; 395  : 		return 20;

  02468	b8 14 00 00 00	 mov	 eax, 20			; 00000014H
  0246d	eb 0b		 jmp	 SHORT $LN3@GetSoulBar
$LN2@GetSoulBar:

; 396  : 	}
; 397  : 
; 398  : 	return this->m_wSoulBarrierManaRateLevel[iLevel];

  0246f	8b 45 08	 mov	 eax, DWORD PTR _iLevel$[ebp]
  02472	8b 4d fc	 mov	 ecx, DWORD PTR _this$[ebp]
  02475	66 8b 44 41 34	 mov	 ax, WORD PTR [ecx+eax*2+52]
$LN3@GetSoulBar:

; 399  : }

  0247a	5f		 pop	 edi
  0247b	5e		 pop	 esi
  0247c	5b		 pop	 ebx
  0247d	8b e5		 mov	 esp, ebp
  0247f	5d		 pop	 ebp
  02480	c2 04 00	 ret	 4
?GetSoulBarrierManaRateLevel@CSkillAdditionInfo@@QAEFH@Z ENDP ; CSkillAdditionInfo::GetSoulBarrierManaRateLevel
_TEXT	ENDS
EXTRN	_atexit:PROC
; Function compile flags: /Odtp /ZI
;	COMDAT ??__Eg_SkillAdditionInfo@@YAXXZ
text$yc	SEGMENT
??__Eg_SkillAdditionInfo@@YAXXZ PROC			; `dynamic initializer for 'g_SkillAdditionInfo'', COMDAT

; 11   : CSkillAdditionInfo g_SkillAdditionInfo;

  00000	55		 push	 ebp
  00001	8b ec		 mov	 ebp, esp
  00003	83 ec 40	 sub	 esp, 64			; 00000040H
  00006	53		 push	 ebx
  00007	56		 push	 esi
  00008	57		 push	 edi
  00009	b9 00 00 00 00	 mov	 ecx, OFFSET ?g_SkillAdditionInfo@@3VCSkillAdditionInfo@@A ; g_SkillAdditionInfo
  0000e	e8 00 00 00 00	 call	 ??0CSkillAdditionInfo@@QAE@XZ ; CSkillAdditionInfo::CSkillAdditionInfo
  00013	68 00 00 00 00	 push	 OFFSET ??__Fg_SkillAdditionInfo@@YAXXZ ; `dynamic atexit destructor for 'g_SkillAdditionInfo''
  00018	e8 00 00 00 00	 call	 _atexit
  0001d	83 c4 04	 add	 esp, 4
  00020	5f		 pop	 edi
  00021	5e		 pop	 esi
  00022	5b		 pop	 ebx
  00023	8b e5		 mov	 esp, ebp
  00025	5d		 pop	 ebp
  00026	c3		 ret	 0
??__Eg_SkillAdditionInfo@@YAXXZ ENDP			; `dynamic initializer for 'g_SkillAdditionInfo''
; Function compile flags: /Odtp /ZI
text$yc	ENDS
;	COMDAT ??__Fg_SkillAdditionInfo@@YAXXZ
text$yd	SEGMENT
??__Fg_SkillAdditionInfo@@YAXXZ PROC			; `dynamic atexit destructor for 'g_SkillAdditionInfo'', COMDAT
  00000	55		 push	 ebp
  00001	8b ec		 mov	 ebp, esp
  00003	83 ec 40	 sub	 esp, 64			; 00000040H
  00006	53		 push	 ebx
  00007	56		 push	 esi
  00008	57		 push	 edi
  00009	b9 00 00 00 00	 mov	 ecx, OFFSET ?g_SkillAdditionInfo@@3VCSkillAdditionInfo@@A ; g_SkillAdditionInfo
  0000e	e8 00 00 00 00	 call	 ??1CSkillAdditionInfo@@UAE@XZ ; CSkillAdditionInfo::~CSkillAdditionInfo
  00013	5f		 pop	 edi
  00014	5e		 pop	 esi
  00015	5b		 pop	 ebx
  00016	8b e5		 mov	 esp, ebp
  00018	5d		 pop	 ebp
  00019	c3		 ret	 0
??__Fg_SkillAdditionInfo@@YAXXZ ENDP			; `dynamic atexit destructor for 'g_SkillAdditionInfo''
text$yd	ENDS
PUBLIC	?g_SkillAdditionInfo@@3VCSkillAdditionInfo@@A	; g_SkillAdditionInfo
_BSS	SEGMENT
?g_SkillAdditionInfo@@3VCSkillAdditionInfo@@A DB 0d28H DUP (?) ; g_SkillAdditionInfo
_BSS	ENDS
CRT$XCU	SEGMENT
_g_SkillAdditionInfo$initializer$ DD FLAT:??__Eg_SkillAdditionInfo@@YAXXZ
CRT$XCU	ENDS
END
