; Listing generated by Microsoft (R) Optimizing Compiler Version 16.00.40219.01 

	TITLE	D:\Projects\ExTeam6.3\Source\GameServer\GameServer\SocketSphere.cpp
	.686P
	.XMM
	include listing.inc
	.model	flat

INCLUDELIB LIBCMT
INCLUDELIB OLDNAMES

PUBLIC	?GetItemIndex@CSeedSphere@@QAEHXZ		; CSeedSphere::GetItemIndex
; Function compile flags: /Odtp /ZI
; File d:\projects\exteam6.3\source\gameserver\gameserver\socketsphere.cpp
_TEXT	SEGMENT
_this$ = -4						; size = 4
?GetItemIndex@CSeedSphere@@QAEHXZ PROC			; CSeedSphere::GetItemIndex
; _this$ = ecx

; 25   : {

  00000	55		 push	 ebp
  00001	8b ec		 mov	 ebp, esp
  00003	83 ec 44	 sub	 esp, 68			; 00000044H
  00006	53		 push	 ebx
  00007	56		 push	 esi
  00008	57		 push	 edi
  00009	89 4d fc	 mov	 DWORD PTR _this$[ebp], ecx

; 26   : 	return this->m_iItemIndex;

  0000c	8b 45 fc	 mov	 eax, DWORD PTR _this$[ebp]
  0000f	8b 40 04	 mov	 eax, DWORD PTR [eax+4]

; 27   : }

  00012	5f		 pop	 edi
  00013	5e		 pop	 esi
  00014	5b		 pop	 ebx
  00015	8b e5		 mov	 esp, ebp
  00017	5d		 pop	 ebp
  00018	c3		 ret	 0
?GetItemIndex@CSeedSphere@@QAEHXZ ENDP			; CSeedSphere::GetItemIndex
_TEXT	ENDS
PUBLIC	?ClearData@CSocketSphere@@QAEXXZ		; CSocketSphere::ClearData
; Function compile flags: /Odtp /ZI
_TEXT	SEGMENT
_n$205134 = -8						; size = 4
_this$ = -4						; size = 4
?ClearData@CSocketSphere@@QAEXXZ PROC			; CSocketSphere::ClearData
; _this$ = ecx

; 31   : {

  00020	55		 push	 ebp
  00021	8b ec		 mov	 ebp, esp
  00023	83 ec 48	 sub	 esp, 72			; 00000048H
  00026	53		 push	 ebx
  00027	56		 push	 esi
  00028	57		 push	 edi
  00029	89 4d fc	 mov	 DWORD PTR _this$[ebp], ecx

; 32   : 	this->m_btOptionIndex = 0;

  0002c	8b 45 fc	 mov	 eax, DWORD PTR _this$[ebp]
  0002f	c6 00 00	 mov	 BYTE PTR [eax], 0

; 33   : 	this->m_btEffectType = 0;

  00032	8b 45 fc	 mov	 eax, DWORD PTR _this$[ebp]
  00035	c6 40 01 00	 mov	 BYTE PTR [eax+1], 0

; 34   : 	this->m_btElementIndex = 0;

  00039	8b 45 fc	 mov	 eax, DWORD PTR _this$[ebp]
  0003c	c6 40 02 00	 mov	 BYTE PTR [eax+2], 0

; 35   : 	this->m_btElementType = 0;

  00040	8b 45 fc	 mov	 eax, DWORD PTR _this$[ebp]
  00043	c6 40 03 00	 mov	 BYTE PTR [eax+3], 0

; 36   : 	this->m_btOptionType = 0;

  00047	8b 45 fc	 mov	 eax, DWORD PTR _this$[ebp]
  0004a	c6 40 04 00	 mov	 BYTE PTR [eax+4], 0

; 37   : 	this->m_btOptionValue = 0;

  0004e	8b 45 fc	 mov	 eax, DWORD PTR _this$[ebp]
  00051	c6 40 05 00	 mov	 BYTE PTR [eax+5], 0

; 38   : 	this->m_iOptionRate = 0;

  00055	8b 45 fc	 mov	 eax, DWORD PTR _this$[ebp]
  00058	c7 40 08 00 00
	00 00		 mov	 DWORD PTR [eax+8], 0

; 39   : 
; 40   : 	for(int n = 0;n < 5;n++)

  0005f	c7 45 f8 00 00
	00 00		 mov	 DWORD PTR _n$205134[ebp], 0
  00066	eb 09		 jmp	 SHORT $LN3@ClearData
$LN2@ClearData:
  00068	8b 45 f8	 mov	 eax, DWORD PTR _n$205134[ebp]
  0006b	83 c0 01	 add	 eax, 1
  0006e	89 45 f8	 mov	 DWORD PTR _n$205134[ebp], eax
$LN3@ClearData:
  00071	83 7d f8 05	 cmp	 DWORD PTR _n$205134[ebp], 5
  00075	7d 0c		 jge	 SHORT $LN1@ClearData

; 41   : 	{
; 42   : 		this->m_btSocketSlot[n] = 0;

  00077	8b 45 fc	 mov	 eax, DWORD PTR _this$[ebp]
  0007a	03 45 f8	 add	 eax, DWORD PTR _n$205134[ebp]
  0007d	c6 40 0c 00	 mov	 BYTE PTR [eax+12], 0

; 43   : 	}

  00081	eb e5		 jmp	 SHORT $LN2@ClearData
$LN1@ClearData:

; 44   : 
; 45   : 	this->m_btSocketSlotCount = 0;

  00083	8b 45 fc	 mov	 eax, DWORD PTR _this$[ebp]
  00086	c6 40 11 00	 mov	 BYTE PTR [eax+17], 0

; 46   : }

  0008a	5f		 pop	 edi
  0008b	5e		 pop	 esi
  0008c	5b		 pop	 ebx
  0008d	8b e5		 mov	 esp, ebp
  0008f	5d		 pop	 ebp
  00090	c3		 ret	 0
?ClearData@CSocketSphere@@QAEXXZ ENDP			; CSocketSphere::ClearData
_TEXT	ENDS
END
