; Listing generated by Microsoft (R) Optimizing Compiler Version 16.00.40219.01 

	TITLE	D:\Projects\ExTeam6.3\Source\GameServer\GameServer\SystemOfRage.cpp
	.686P
	.XMM
	include listing.inc
	.model	flat

INCLUDELIB LIBCMT
INCLUDELIB OLDNAMES

PUBLIC	?gSystemOfRage@@3VcSystemOfRage@@A		; gSystemOfRage
_BSS	SEGMENT
?gSystemOfRage@@3VcSystemOfRage@@A DB 024a8d0H DUP (?)	; gSystemOfRage
_BSS	ENDS
PUBLIC	??_H@YGXPAXIHP6EPAX0@Z@Z			; `vector constructor iterator'
; Function compile flags: /Odtp /ZI
;	COMDAT ??_H@YGXPAXIHP6EPAX0@Z@Z
_TEXT	SEGMENT
___t$ = 8						; size = 4
___s$ = 12						; size = 4
___n$ = 16						; size = 4
___f$ = 20						; size = 4
??_H@YGXPAXIHP6EPAX0@Z@Z PROC				; `vector constructor iterator', COMDAT
  00000	55		 push	 ebp
  00001	8b ec		 mov	 ebp, esp
  00003	83 ec 40	 sub	 esp, 64			; 00000040H
  00006	53		 push	 ebx
  00007	56		 push	 esi
  00008	57		 push	 edi
$LN2@vector:
  00009	8b 45 10	 mov	 eax, DWORD PTR ___n$[ebp]
  0000c	83 e8 01	 sub	 eax, 1
  0000f	89 45 10	 mov	 DWORD PTR ___n$[ebp], eax
  00012	78 11		 js	 SHORT $LN3@vector
  00014	8b 4d 08	 mov	 ecx, DWORD PTR ___t$[ebp]
  00017	ff 55 14	 call	 DWORD PTR ___f$[ebp]
  0001a	8b 45 08	 mov	 eax, DWORD PTR ___t$[ebp]
  0001d	03 45 0c	 add	 eax, DWORD PTR ___s$[ebp]
  00020	89 45 08	 mov	 DWORD PTR ___t$[ebp], eax
  00023	eb e4		 jmp	 SHORT $LN2@vector
$LN3@vector:
  00025	5f		 pop	 edi
  00026	5e		 pop	 esi
  00027	5b		 pop	 ebx
  00028	8b e5		 mov	 esp, ebp
  0002a	5d		 pop	 ebp
  0002b	c2 10 00	 ret	 16			; 00000010H
??_H@YGXPAXIHP6EPAX0@Z@Z ENDP				; `vector constructor iterator'
_TEXT	ENDS
PUBLIC	?int_binary@@YAHHHPAE@Z				; int_binary
; Function compile flags: /Odtp /ZI
; File d:\projects\exteam6.3\source\gameserver\gameserver\systemofrage.cpp
_TEXT	SEGMENT
_loWord$ = -8						; size = 2
_hiWord$ = -4						; size = 2
_a$ = 8							; size = 4
_b$ = 12						; size = 4
_buf$ = 16						; size = 4
?int_binary@@YAHHHPAE@Z PROC				; int_binary

; 17   : {

  00000	55		 push	 ebp
  00001	8b ec		 mov	 ebp, esp
  00003	83 ec 48	 sub	 esp, 72			; 00000048H
  00006	53		 push	 ebx
  00007	56		 push	 esi
  00008	57		 push	 edi

; 18   : 	WORD hiWord = SET_NUMBERHW(a);

  00009	8b 45 08	 mov	 eax, DWORD PTR _a$[ebp]
  0000c	c1 e8 10	 shr	 eax, 16			; 00000010H
  0000f	66 89 45 fc	 mov	 WORD PTR _hiWord$[ebp], ax

; 19   : 	WORD loWord = SET_NUMBERLW(a);

  00013	8b 45 08	 mov	 eax, DWORD PTR _a$[ebp]
  00016	25 ff ff 00 00	 and	 eax, 65535		; 0000ffffH
  0001b	66 89 45 f8	 mov	 WORD PTR _loWord$[ebp], ax

; 20   : 	buf[b] = SET_NUMBERH(hiWord);

  0001f	0f b7 45 fc	 movzx	 eax, WORD PTR _hiWord$[ebp]
  00023	c1 e8 08	 shr	 eax, 8
  00026	8b 4d 10	 mov	 ecx, DWORD PTR _buf$[ebp]
  00029	03 4d 0c	 add	 ecx, DWORD PTR _b$[ebp]
  0002c	88 01		 mov	 BYTE PTR [ecx], al

; 21   : 	b++;

  0002e	8b 45 0c	 mov	 eax, DWORD PTR _b$[ebp]
  00031	83 c0 01	 add	 eax, 1
  00034	89 45 0c	 mov	 DWORD PTR _b$[ebp], eax

; 22   : 	buf[b] = SET_NUMBERL(hiWord);

  00037	0f b7 45 fc	 movzx	 eax, WORD PTR _hiWord$[ebp]
  0003b	25 ff 00 00 00	 and	 eax, 255		; 000000ffH
  00040	8b 4d 10	 mov	 ecx, DWORD PTR _buf$[ebp]
  00043	03 4d 0c	 add	 ecx, DWORD PTR _b$[ebp]
  00046	88 01		 mov	 BYTE PTR [ecx], al

; 23   : 	b++;

  00048	8b 45 0c	 mov	 eax, DWORD PTR _b$[ebp]
  0004b	83 c0 01	 add	 eax, 1
  0004e	89 45 0c	 mov	 DWORD PTR _b$[ebp], eax

; 24   : 	buf[b] = SET_NUMBERH(loWord);

  00051	0f b7 45 f8	 movzx	 eax, WORD PTR _loWord$[ebp]
  00055	c1 e8 08	 shr	 eax, 8
  00058	8b 4d 10	 mov	 ecx, DWORD PTR _buf$[ebp]
  0005b	03 4d 0c	 add	 ecx, DWORD PTR _b$[ebp]
  0005e	88 01		 mov	 BYTE PTR [ecx], al

; 25   : 	b++;

  00060	8b 45 0c	 mov	 eax, DWORD PTR _b$[ebp]
  00063	83 c0 01	 add	 eax, 1
  00066	89 45 0c	 mov	 DWORD PTR _b$[ebp], eax

; 26   : 	buf[b] = SET_NUMBERL(loWord);

  00069	0f b7 45 f8	 movzx	 eax, WORD PTR _loWord$[ebp]
  0006d	25 ff 00 00 00	 and	 eax, 255		; 000000ffH
  00072	8b 4d 10	 mov	 ecx, DWORD PTR _buf$[ebp]
  00075	03 4d 0c	 add	 ecx, DWORD PTR _b$[ebp]
  00078	88 01		 mov	 BYTE PTR [ecx], al

; 27   : 	b++;

  0007a	8b 45 0c	 mov	 eax, DWORD PTR _b$[ebp]
  0007d	83 c0 01	 add	 eax, 1
  00080	89 45 0c	 mov	 DWORD PTR _b$[ebp], eax

; 28   : 	return b;

  00083	8b 45 0c	 mov	 eax, DWORD PTR _b$[ebp]

; 29   : }

  00086	5f		 pop	 edi
  00087	5e		 pop	 esi
  00088	5b		 pop	 ebx
  00089	8b e5		 mov	 esp, ebp
  0008b	5d		 pop	 ebp
  0008c	c3		 ret	 0
?int_binary@@YAHHHPAE@Z ENDP				; int_binary
_TEXT	ENDS
PUBLIC	?bynary_int@@YAHAAHHPAE@Z			; bynary_int
; Function compile flags: /Odtp /ZI
_TEXT	SEGMENT
_loword$ = -8						; size = 2
_hiword$ = -4						; size = 2
_a$ = 8							; size = 4
_b$ = 12						; size = 4
_buf$ = 16						; size = 4
?bynary_int@@YAHAAHHPAE@Z PROC				; bynary_int

; 32   : {

  00090	55		 push	 ebp
  00091	8b ec		 mov	 ebp, esp
  00093	83 ec 48	 sub	 esp, 72			; 00000048H
  00096	53		 push	 ebx
  00097	56		 push	 esi
  00098	57		 push	 edi

; 33   : 	a = 0;

  00099	8b 45 08	 mov	 eax, DWORD PTR _a$[ebp]
  0009c	c7 00 00 00 00
	00		 mov	 DWORD PTR [eax], 0

; 34   : 	WORD hiword = MAKE_NUMBERW(buf[b], buf[b+1]);

  000a2	8b 45 10	 mov	 eax, DWORD PTR _buf$[ebp]
  000a5	03 45 0c	 add	 eax, DWORD PTR _b$[ebp]
  000a8	0f b6 48 01	 movzx	 ecx, BYTE PTR [eax+1]
  000ac	81 e1 ff 00 00
	00		 and	 ecx, 255		; 000000ffH
  000b2	0f b6 d1	 movzx	 edx, cl
  000b5	8b 45 10	 mov	 eax, DWORD PTR _buf$[ebp]
  000b8	03 45 0c	 add	 eax, DWORD PTR _b$[ebp]
  000bb	0f b6 08	 movzx	 ecx, BYTE PTR [eax]
  000be	81 e1 ff 00 00
	00		 and	 ecx, 255		; 000000ffH
  000c4	0f b6 c1	 movzx	 eax, cl
  000c7	c1 e0 08	 shl	 eax, 8
  000ca	0b d0		 or	 edx, eax
  000cc	66 89 55 fc	 mov	 WORD PTR _hiword$[ebp], dx

; 35   : 	WORD loword = MAKE_NUMBERW(buf[b+2], buf[b+3]);

  000d0	8b 45 10	 mov	 eax, DWORD PTR _buf$[ebp]
  000d3	03 45 0c	 add	 eax, DWORD PTR _b$[ebp]
  000d6	0f b6 48 03	 movzx	 ecx, BYTE PTR [eax+3]
  000da	81 e1 ff 00 00
	00		 and	 ecx, 255		; 000000ffH
  000e0	0f b6 d1	 movzx	 edx, cl
  000e3	8b 45 10	 mov	 eax, DWORD PTR _buf$[ebp]
  000e6	03 45 0c	 add	 eax, DWORD PTR _b$[ebp]
  000e9	0f b6 48 02	 movzx	 ecx, BYTE PTR [eax+2]
  000ed	81 e1 ff 00 00
	00		 and	 ecx, 255		; 000000ffH
  000f3	0f b6 c1	 movzx	 eax, cl
  000f6	c1 e0 08	 shl	 eax, 8
  000f9	0b d0		 or	 edx, eax
  000fb	66 89 55 f8	 mov	 WORD PTR _loword$[ebp], dx

; 36   : 	a = MAKE_NUMBERDW(hiword, loword);

  000ff	0f b7 45 f8	 movzx	 eax, WORD PTR _loword$[ebp]
  00103	25 ff ff 00 00	 and	 eax, 65535		; 0000ffffH
  00108	0f b7 c8	 movzx	 ecx, ax
  0010b	0f b7 55 fc	 movzx	 edx, WORD PTR _hiword$[ebp]
  0010f	81 e2 ff ff 00
	00		 and	 edx, 65535		; 0000ffffH
  00115	0f b7 c2	 movzx	 eax, dx
  00118	c1 e0 10	 shl	 eax, 16			; 00000010H
  0011b	0b c8		 or	 ecx, eax
  0011d	8b 55 08	 mov	 edx, DWORD PTR _a$[ebp]
  00120	89 0a		 mov	 DWORD PTR [edx], ecx

; 37   : 	return b+4;

  00122	8b 45 0c	 mov	 eax, DWORD PTR _b$[ebp]
  00125	83 c0 04	 add	 eax, 4

; 38   : }

  00128	5f		 pop	 edi
  00129	5e		 pop	 esi
  0012a	5b		 pop	 ebx
  0012b	8b e5		 mov	 esp, ebp
  0012d	5d		 pop	 ebp
  0012e	c3		 ret	 0
?bynary_int@@YAHAAHHPAE@Z ENDP				; bynary_int
_TEXT	ENDS
PUBLIC	?LoadSkill@cSystemOfRage@@QAEXHPADHHH_N@Z	; cSystemOfRage::LoadSkill
EXTRN	_strcpy:PROC
; Function compile flags: /Odtp /ZI
_TEXT	SEGMENT
_this$ = -4						; size = 4
_ID$ = 8						; size = 4
_cName$ = 12						; size = 4
_a1$ = 16						; size = 4
_a2$ = 20						; size = 4
_NextPoint$ = 24					; size = 4
_Percent$ = 28						; size = 1
?LoadSkill@cSystemOfRage@@QAEXHPADHHH_N@Z PROC		; cSystemOfRage::LoadSkill
; _this$ = ecx

; 45   : {

  00130	55		 push	 ebp
  00131	8b ec		 mov	 ebp, esp
  00133	83 ec 44	 sub	 esp, 68			; 00000044H
  00136	53		 push	 ebx
  00137	56		 push	 esi
  00138	57		 push	 edi
  00139	89 4d fc	 mov	 DWORD PTR _this$[ebp], ecx

; 46   : 	strcpy(this->rSkill[ID].Name,cName);

  0013c	8b 45 0c	 mov	 eax, DWORD PTR _cName$[ebp]
  0013f	50		 push	 eax
  00140	8b 4d 08	 mov	 ecx, DWORD PTR _ID$[ebp]
  00143	6b c9 44	 imul	 ecx, 68			; 00000044H
  00146	8b 55 fc	 mov	 edx, DWORD PTR _this$[ebp]
  00149	8d 84 0a 30 9f
	24 00		 lea	 eax, DWORD PTR [edx+ecx+2400048]
  00150	50		 push	 eax
  00151	e8 00 00 00 00	 call	 _strcpy
  00156	83 c4 08	 add	 esp, 8

; 47   : 	this->rSkill[ID].StartDamage = a1;

  00159	8b 45 08	 mov	 eax, DWORD PTR _ID$[ebp]
  0015c	6b c0 44	 imul	 eax, 68			; 00000044H
  0015f	8b 4d fc	 mov	 ecx, DWORD PTR _this$[ebp]
  00162	8b 55 10	 mov	 edx, DWORD PTR _a1$[ebp]
  00165	89 94 01 64 9f
	24 00		 mov	 DWORD PTR [ecx+eax+2400100], edx

; 48   : 	this->rSkill[ID].MaxPoint = a2;

  0016c	8b 45 08	 mov	 eax, DWORD PTR _ID$[ebp]
  0016f	6b c0 44	 imul	 eax, 68			; 00000044H
  00172	8b 4d fc	 mov	 ecx, DWORD PTR _this$[ebp]
  00175	8b 55 14	 mov	 edx, DWORD PTR _a2$[ebp]
  00178	89 94 01 68 9f
	24 00		 mov	 DWORD PTR [ecx+eax+2400104], edx

; 49   : 	this->rSkill[ID].PointNext = NextPoint;

  0017f	8b 45 08	 mov	 eax, DWORD PTR _ID$[ebp]
  00182	6b c0 44	 imul	 eax, 68			; 00000044H
  00185	8b 4d fc	 mov	 ecx, DWORD PTR _this$[ebp]
  00188	8b 55 18	 mov	 edx, DWORD PTR _NextPoint$[ebp]
  0018b	89 94 01 70 9f
	24 00		 mov	 DWORD PTR [ecx+eax+2400112], edx

; 50   : 	this->rSkill[ID].Percent = Percent;

  00192	8b 45 08	 mov	 eax, DWORD PTR _ID$[ebp]
  00195	6b c0 44	 imul	 eax, 68			; 00000044H
  00198	8b 4d fc	 mov	 ecx, DWORD PTR _this$[ebp]
  0019b	8a 55 1c	 mov	 dl, BYTE PTR _Percent$[ebp]
  0019e	88 94 01 6c 9f
	24 00		 mov	 BYTE PTR [ecx+eax+2400108], dl

; 51   : }

  001a5	5f		 pop	 edi
  001a6	5e		 pop	 esi
  001a7	5b		 pop	 ebx
  001a8	8b e5		 mov	 esp, ebp
  001aa	5d		 pop	 ebp
  001ab	c2 18 00	 ret	 24			; 00000018H
?LoadSkill@cSystemOfRage@@QAEXHPADHHH_N@Z ENDP		; cSystemOfRage::LoadSkill
_TEXT	ENDS
PUBLIC	__real@0000000000000000
PUBLIC	??_C@_03JBJLGPFL@end?$AA@			; `string'
PUBLIC	??_C@_0P@BPENEPNJ@CRITICAL?5ERROR?$AA@		; `string'
PUBLIC	??_C@_0BO@OOIHKAPG@?4?4?2Data?2ExData?2RageSystem?4ini?$AA@ ; `string'
PUBLIC	??_C@_01KDCPPGHE@r?$AA@				; `string'
PUBLIC	__$ArrayPad$
PUBLIC	?Load@cSystemOfRage@@QAEXXZ			; cSystemOfRage::Load
EXTRN	_fclose:PROC
EXTRN	_strcmp:PROC
EXTRN	__imp__MessageBoxA@16:PROC
EXTRN	_fopen:PROC
EXTRN	?g_ExLicense@@3VCExLicense@@A:BYTE		; g_ExLicense
EXTRN	___security_cookie:DWORD
EXTRN	__fltused:DWORD
EXTRN	@__security_check_cookie@4:PROC
EXTRN	__ftol2_sse:PROC
_BSS	SEGMENT
_TokenString DB	064H DUP (?)
_TokenNumber DD	01H DUP (?)
_SMDFile DD	01H DUP (?)
_BSS	ENDS
;	COMDAT __real@0000000000000000
CONST	SEGMENT
__real@0000000000000000 DQ 00000000000000000r	; 0
CONST	ENDS
;	COMDAT ??_C@_03JBJLGPFL@end?$AA@
CONST	SEGMENT
??_C@_03JBJLGPFL@end?$AA@ DB 'end', 00H			; `string'
CONST	ENDS
;	COMDAT ??_C@_0P@BPENEPNJ@CRITICAL?5ERROR?$AA@
CONST	SEGMENT
??_C@_0P@BPENEPNJ@CRITICAL?5ERROR?$AA@ DB 'CRITICAL ERROR', 00H ; `string'
CONST	ENDS
;	COMDAT ??_C@_0BO@OOIHKAPG@?4?4?2Data?2ExData?2RageSystem?4ini?$AA@
CONST	SEGMENT
??_C@_0BO@OOIHKAPG@?4?4?2Data?2ExData?2RageSystem?4ini?$AA@ DB '..\Data\E'
	DB	'xData\RageSystem.ini', 00H			; `string'
CONST	ENDS
;	COMDAT ??_C@_01KDCPPGHE@r?$AA@
CONST	SEGMENT
??_C@_01KDCPPGHE@r?$AA@ DB 'r', 00H			; `string'
; Function compile flags: /Odtp /ZI
CONST	ENDS
_TEXT	SEGMENT
tv402 = -172						; size = 4
tv392 = -172						; size = 4
tv382 = -172						; size = 4
tv400 = -168						; size = 4
tv390 = -168						; size = 4
tv380 = -168						; size = 4
tv397 = -162						; size = 2
tv387 = -162						; size = 2
tv377 = -162						; size = 2
tv95 = -161						; size = 1
_sProc$221662 = -96					; size = 4
_NextPoint$221661 = -92					; size = 4
_MaxPoint$221660 = -88					; size = 4
_Damage$221659 = -84					; size = 4
_sName$221658 = -80					; size = 50
_sN$221657 = -28					; size = 4
_lNum$ = -24						; size = 4
_sNum$ = -20						; size = 4
_type$ = -16						; size = 4
_Token$ = -12						; size = 4
_this$ = -8						; size = 4
__$ArrayPad$ = -4					; size = 4
?Load@cSystemOfRage@@QAEXXZ PROC			; cSystemOfRage::Load
; _this$ = ecx

; 54   : {

  001b0	55		 push	 ebp
  001b1	8b ec		 mov	 ebp, esp
  001b3	81 ec ac 00 00
	00		 sub	 esp, 172		; 000000acH
  001b9	a1 00 00 00 00	 mov	 eax, DWORD PTR ___security_cookie
  001be	33 c5		 xor	 eax, ebp
  001c0	89 45 fc	 mov	 DWORD PTR __$ArrayPad$[ebp], eax
  001c3	53		 push	 ebx
  001c4	56		 push	 esi
  001c5	57		 push	 edi
  001c6	89 4d f8	 mov	 DWORD PTR _this$[ebp], ecx

; 55   : 	this->Enable = g_ExLicense.user.Rage;

  001c9	8b 45 f8	 mov	 eax, DWORD PTR _this$[ebp]
  001cc	8a 0d c9 00 00
	00		 mov	 cl, BYTE PTR ?g_ExLicense@@3VCExLicense@@A+201
  001d2	88 08		 mov	 BYTE PTR [eax], cl

; 56   : 
; 57   : 	if(!this->Enable)

  001d4	8b 45 f8	 mov	 eax, DWORD PTR _this$[ebp]
  001d7	0f b6 08	 movzx	 ecx, BYTE PTR [eax]
  001da	85 c9		 test	 ecx, ecx
  001dc	75 05		 jne	 SHORT $LN21@Load

; 58   : 	{
; 59   : 		return;

  001de	e9 d1 04 00 00	 jmp	 $LN22@Load
$LN21@Load:

; 60   : 	}
; 61   : 
; 62   : 	this->m_sNPC_Class = 0;

  001e3	33 c0		 xor	 eax, eax
  001e5	8b 4d f8	 mov	 ecx, DWORD PTR _this$[ebp]
  001e8	66 89 81 c0 a8
	24 00		 mov	 WORD PTR [ecx+2402496], ax

; 63   : 	this->m_btNPC_Map = 0;

  001ef	8b 45 f8	 mov	 eax, DWORD PTR _this$[ebp]
  001f2	c6 80 c2 a8 24
	00 00		 mov	 BYTE PTR [eax+2402498], 0

; 64   : 	this->m_btNPC_X = 0;

  001f9	8b 45 f8	 mov	 eax, DWORD PTR _this$[ebp]
  001fc	c6 80 c3 a8 24
	00 00		 mov	 BYTE PTR [eax+2402499], 0

; 65   : 	this->m_btNPC_Y = 0;

  00203	8b 45 f8	 mov	 eax, DWORD PTR _this$[ebp]
  00206	c6 80 c4 a8 24
	00 00		 mov	 BYTE PTR [eax+2402500], 0

; 66   : 	this->m_ResetRageWCoin = 0;

  0020d	8b 45 f8	 mov	 eax, DWORD PTR _this$[ebp]
  00210	c7 80 c8 a8 24
	00 00 00 00 00	 mov	 DWORD PTR [eax+2402504], 0

; 67   : 	this->m_ResetRageCredit = 0;

  0021a	8b 45 f8	 mov	 eax, DWORD PTR _this$[ebp]
  0021d	c7 80 cc a8 24
	00 00 00 00 00	 mov	 DWORD PTR [eax+2402508], 0

; 68   : 
; 69   : 	//ZeroMemory(&this->rUser,sizeof(this->rUser));
; 70   : 
; 71   : 	SMDFile = fopen(RAGE_SYSTEM_DIR, "r");

  00227	68 00 00 00 00	 push	 OFFSET ??_C@_01KDCPPGHE@r?$AA@
  0022c	68 00 00 00 00	 push	 OFFSET ??_C@_0BO@OOIHKAPG@?4?4?2Data?2ExData?2RageSystem?4ini?$AA@
  00231	e8 00 00 00 00	 call	 _fopen
  00236	83 c4 08	 add	 esp, 8
  00239	a3 00 00 00 00	 mov	 DWORD PTR _SMDFile, eax

; 72   : 
; 73   : 	if ( SMDFile == NULL )

  0023e	83 3d 00 00 00
	00 00		 cmp	 DWORD PTR _SMDFile, 0
  00245	75 1f		 jne	 SHORT $LN20@Load

; 74   : 	{
; 75   : 		MessageBoxA(0,RAGE_SYSTEM_DIR,"CRITICAL ERROR",0);

  00247	6a 00		 push	 0
  00249	68 00 00 00 00	 push	 OFFSET ??_C@_0P@BPENEPNJ@CRITICAL?5ERROR?$AA@
  0024e	68 00 00 00 00	 push	 OFFSET ??_C@_0BO@OOIHKAPG@?4?4?2Data?2ExData?2RageSystem?4ini?$AA@
  00253	6a 00		 push	 0
  00255	ff 15 00 00 00
	00		 call	 DWORD PTR __imp__MessageBoxA@16

; 76   : 		this->Enable = false;

  0025b	8b 45 f8	 mov	 eax, DWORD PTR _this$[ebp]
  0025e	c6 00 00	 mov	 BYTE PTR [eax], 0

; 77   : 		return;

  00261	e9 4e 04 00 00	 jmp	 $LN22@Load
$LN20@Load:

; 78   : 	}
; 79   : 
; 80   : 	int Token;
; 81   : 	int type = -1;

  00266	c7 45 f0 ff ff
	ff ff		 mov	 DWORD PTR _type$[ebp], -1

; 82   : 
; 83   : 	int sNum = 1;

  0026d	c7 45 ec 01 00
	00 00		 mov	 DWORD PTR _sNum$[ebp], 1

; 84   : 	int lNum = 1;

  00274	c7 45 e8 01 00
	00 00		 mov	 DWORD PTR _lNum$[ebp], 1
$LN19@Load:

; 85   : 
; 86   : 	while ( true )

  0027b	b8 01 00 00 00	 mov	 eax, 1
  00280	85 c0		 test	 eax, eax
  00282	0f 84 1e 04 00
	00		 je	 $LN18@Load

; 87   : 	{
; 88   : 	    Token = GetToken();

  00288	e8 00 00 00 00	 call	 ?GetToken@@YA?AW4SMDToken@@XZ ; GetToken
  0028d	89 45 f4	 mov	 DWORD PTR _Token$[ebp], eax

; 89   : 
; 90   :         if( Token == END)

  00290	83 7d f4 02	 cmp	 DWORD PTR _Token$[ebp], 2
  00294	75 05		 jne	 SHORT $LN17@Load

; 91   : 		{
; 92   :             break;

  00296	e9 0b 04 00 00	 jmp	 $LN18@Load
$LN17@Load:

; 93   : 		}
; 94   : 
; 95   : 		type = (int)TokenNumber;

  0029b	d9 05 00 00 00
	00		 fld	 DWORD PTR _TokenNumber
  002a1	e8 00 00 00 00	 call	 __ftol2_sse
  002a6	89 45 f0	 mov	 DWORD PTR _type$[ebp], eax

; 96   : 
; 97   : 		if(type == 3)

  002a9	83 7d f0 03	 cmp	 DWORD PTR _type$[ebp], 3
  002ad	75 0e		 jne	 SHORT $LN15@Load

; 98   : 		{
; 99   : 			if(!THINNAKORN_MAC)

  002af	b8 01 00 00 00	 mov	 eax, 1
  002b4	85 c0		 test	 eax, eax
  002b6	74 05		 je	 SHORT $LN15@Load

; 100  : 			{
; 101  : 				break;

  002b8	e9 e9 03 00 00	 jmp	 $LN18@Load
$LN15@Load:

; 102  : 			}
; 103  : 		}
; 104  : 
; 105  : 		while ( true )

  002bd	b8 01 00 00 00	 mov	 eax, 1
  002c2	85 c0		 test	 eax, eax
  002c4	0f 84 d7 03 00
	00		 je	 $LN13@Load

; 106  : 		{
; 107  : 			if(type == 0)

  002ca	83 7d f0 00	 cmp	 DWORD PTR _type$[ebp], 0
  002ce	0f 85 1c 01 00
	00		 jne	 $LN12@Load

; 108  : 			{
; 109  : 				Token = GetToken();

  002d4	e8 00 00 00 00	 call	 ?GetToken@@YA?AW4SMDToken@@XZ ; GetToken
  002d9	89 45 f4	 mov	 DWORD PTR _Token$[ebp], eax

; 110  : 
; 111  : 				if (strcmp("end", TokenString ) == 0)

  002dc	68 00 00 00 00	 push	 OFFSET _TokenString
  002e1	68 00 00 00 00	 push	 OFFSET ??_C@_03JBJLGPFL@end?$AA@
  002e6	e8 00 00 00 00	 call	 _strcmp
  002eb	83 c4 08	 add	 esp, 8
  002ee	85 c0		 test	 eax, eax
  002f0	75 05		 jne	 SHORT $LN11@Load

; 112  : 				{
; 113  : 					break;

  002f2	e9 aa 03 00 00	 jmp	 $LN13@Load
$LN11@Load:

; 114  : 				}
; 115  : 
; 116  : 				this->Enable = TokenNumber;

  002f7	d9 05 00 00 00
	00		 fld	 DWORD PTR _TokenNumber
  002fd	d9 ee		 fldz
  002ff	da e9		 fucompp
  00301	df e0		 fnstsw	 ax
  00303	f6 c4 44	 test	 ah, 68			; 00000044H
  00306	7b 09		 jnp	 SHORT $LN24@Load
  00308	c6 85 5f ff ff
	ff 01		 mov	 BYTE PTR tv95[ebp], 1
  0030f	eb 07		 jmp	 SHORT $LN25@Load
$LN24@Load:
  00311	c6 85 5f ff ff
	ff 00		 mov	 BYTE PTR tv95[ebp], 0
$LN25@Load:
  00318	8b 45 f8	 mov	 eax, DWORD PTR _this$[ebp]
  0031b	8a 8d 5f ff ff
	ff		 mov	 cl, BYTE PTR tv95[ebp]
  00321	88 08		 mov	 BYTE PTR [eax], cl

; 117  : 
; 118  : 				Token = GetToken();

  00323	e8 00 00 00 00	 call	 ?GetToken@@YA?AW4SMDToken@@XZ ; GetToken
  00328	89 45 f4	 mov	 DWORD PTR _Token$[ebp], eax

; 119  : 				this->AddExp = TokenNumber;

  0032b	d9 05 00 00 00
	00		 fld	 DWORD PTR _TokenNumber
  00331	e8 00 00 00 00	 call	 __ftol2_sse
  00336	8b 4d f8	 mov	 ecx, DWORD PTR _this$[ebp]
  00339	89 41 08	 mov	 DWORD PTR [ecx+8], eax

; 120  : 
; 121  : 				Token = GetToken();

  0033c	e8 00 00 00 00	 call	 ?GetToken@@YA?AW4SMDToken@@XZ ; GetToken
  00341	89 45 f4	 mov	 DWORD PTR _Token$[ebp], eax

; 122  : 				this->CreateMob = TokenNumber;

  00344	d9 05 00 00 00
	00		 fld	 DWORD PTR _TokenNumber
  0034a	e8 00 00 00 00	 call	 __ftol2_sse
  0034f	8b 4d f8	 mov	 ecx, DWORD PTR _this$[ebp]
  00352	89 41 18	 mov	 DWORD PTR [ecx+24], eax

; 123  : 
; 124  : 				Token = GetToken();

  00355	e8 00 00 00 00	 call	 ?GetToken@@YA?AW4SMDToken@@XZ ; GetToken
  0035a	89 45 f4	 mov	 DWORD PTR _Token$[ebp], eax

; 125  : 				this->MaxLevel = TokenNumber;

  0035d	d9 05 00 00 00
	00		 fld	 DWORD PTR _TokenNumber
  00363	e8 00 00 00 00	 call	 __ftol2_sse
  00368	8b 4d f8	 mov	 ecx, DWORD PTR _this$[ebp]
  0036b	89 41 04	 mov	 DWORD PTR [ecx+4], eax

; 126  : 
; 127  : 				Token = GetToken();

  0036e	e8 00 00 00 00	 call	 ?GetToken@@YA?AW4SMDToken@@XZ ; GetToken
  00373	89 45 f4	 mov	 DWORD PTR _Token$[ebp], eax

; 128  : 				this->rPointLvl = TokenNumber;

  00376	d9 05 00 00 00
	00		 fld	 DWORD PTR _TokenNumber
  0037c	e8 00 00 00 00	 call	 __ftol2_sse
  00381	8b 4d f8	 mov	 ecx, DWORD PTR _this$[ebp]
  00384	89 41 1c	 mov	 DWORD PTR [ecx+28], eax

; 129  : 
; 130  : 				Token = GetToken();

  00387	e8 00 00 00 00	 call	 ?GetToken@@YA?AW4SMDToken@@XZ ; GetToken
  0038c	89 45 f4	 mov	 DWORD PTR _Token$[ebp], eax

; 131  : 				this->NextExp = TokenNumber;

  0038f	d9 05 00 00 00
	00		 fld	 DWORD PTR _TokenNumber
  00395	e8 00 00 00 00	 call	 __ftol2_sse
  0039a	8b 4d f8	 mov	 ecx, DWORD PTR _this$[ebp]
  0039d	89 41 20	 mov	 DWORD PTR [ecx+32], eax

; 132  : 
; 133  : 				Token = GetToken();

  003a0	e8 00 00 00 00	 call	 ?GetToken@@YA?AW4SMDToken@@XZ ; GetToken
  003a5	89 45 f4	 mov	 DWORD PTR _Token$[ebp], eax

; 134  : 				this->MobExpLvL = TokenNumber;

  003a8	d9 05 00 00 00
	00		 fld	 DWORD PTR _TokenNumber
  003ae	e8 00 00 00 00	 call	 __ftol2_sse
  003b3	8b 4d f8	 mov	 ecx, DWORD PTR _this$[ebp]
  003b6	89 41 24	 mov	 DWORD PTR [ecx+36], eax

; 135  : 
; 136  : 				Token = GetToken();

  003b9	e8 00 00 00 00	 call	 ?GetToken@@YA?AW4SMDToken@@XZ ; GetToken
  003be	89 45 f4	 mov	 DWORD PTR _Token$[ebp], eax

; 137  : 				this->NeedLevel = TokenNumber;

  003c1	d9 05 00 00 00
	00		 fld	 DWORD PTR _TokenNumber
  003c7	e8 00 00 00 00	 call	 __ftol2_sse
  003cc	8b 4d f8	 mov	 ecx, DWORD PTR _this$[ebp]
  003cf	89 41 28	 mov	 DWORD PTR [ecx+40], eax

; 138  : 
; 139  : 				Token = GetToken();

  003d2	e8 00 00 00 00	 call	 ?GetToken@@YA?AW4SMDToken@@XZ ; GetToken
  003d7	89 45 f4	 mov	 DWORD PTR _Token$[ebp], eax

; 140  : 				this->NeedMasterLevel = TokenNumber;

  003da	d9 05 00 00 00
	00		 fld	 DWORD PTR _TokenNumber
  003e0	e8 00 00 00 00	 call	 __ftol2_sse
  003e5	8b 4d f8	 mov	 ecx, DWORD PTR _this$[ebp]
  003e8	89 41 2c	 mov	 DWORD PTR [ecx+44], eax
  003eb	e9 ac 02 00 00	 jmp	 $LN2@Load
$LN12@Load:

; 141  : 			}	
; 142  : 			else if(type == 1)

  003f0	83 7d f0 01	 cmp	 DWORD PTR _type$[ebp], 1
  003f4	75 6b		 jne	 SHORT $LN9@Load

; 143  : 			{
; 144  : 				Token = GetToken();

  003f6	e8 00 00 00 00	 call	 ?GetToken@@YA?AW4SMDToken@@XZ ; GetToken
  003fb	89 45 f4	 mov	 DWORD PTR _Token$[ebp], eax

; 145  : 
; 146  : 				if ( strcmp("end", TokenString ) == 0)

  003fe	68 00 00 00 00	 push	 OFFSET _TokenString
  00403	68 00 00 00 00	 push	 OFFSET ??_C@_03JBJLGPFL@end?$AA@
  00408	e8 00 00 00 00	 call	 _strcmp
  0040d	83 c4 08	 add	 esp, 8
  00410	85 c0		 test	 eax, eax
  00412	75 05		 jne	 SHORT $LN8@Load

; 147  : 				{
; 148  : 					break;

  00414	e9 88 02 00 00	 jmp	 $LN13@Load
$LN8@Load:

; 149  : 				}
; 150  : 
; 151  : 				this->TeleportMap = TokenNumber;

  00419	d9 05 00 00 00
	00		 fld	 DWORD PTR _TokenNumber
  0041f	e8 00 00 00 00	 call	 __ftol2_sse
  00424	8b 4d f8	 mov	 ecx, DWORD PTR _this$[ebp]
  00427	89 41 0c	 mov	 DWORD PTR [ecx+12], eax

; 152  : 
; 153  : 				Token = GetToken();

  0042a	e8 00 00 00 00	 call	 ?GetToken@@YA?AW4SMDToken@@XZ ; GetToken
  0042f	89 45 f4	 mov	 DWORD PTR _Token$[ebp], eax

; 154  : 				this->TeleportX = TokenNumber;

  00432	d9 05 00 00 00
	00		 fld	 DWORD PTR _TokenNumber
  00438	e8 00 00 00 00	 call	 __ftol2_sse
  0043d	8b 4d f8	 mov	 ecx, DWORD PTR _this$[ebp]
  00440	89 41 10	 mov	 DWORD PTR [ecx+16], eax

; 155  : 
; 156  : 				Token = GetToken();

  00443	e8 00 00 00 00	 call	 ?GetToken@@YA?AW4SMDToken@@XZ ; GetToken
  00448	89 45 f4	 mov	 DWORD PTR _Token$[ebp], eax

; 157  : 				this->TeleportY = TokenNumber;

  0044b	d9 05 00 00 00
	00		 fld	 DWORD PTR _TokenNumber
  00451	e8 00 00 00 00	 call	 __ftol2_sse
  00456	8b 4d f8	 mov	 ecx, DWORD PTR _this$[ebp]
  00459	89 41 14	 mov	 DWORD PTR [ecx+20], eax
  0045c	e9 3b 02 00 00	 jmp	 $LN2@Load
$LN9@Load:

; 158  : 			}
; 159  : 			else if(type == 2)

  00461	83 7d f0 02	 cmp	 DWORD PTR _type$[ebp], 2
  00465	0f 85 e2 00 00
	00		 jne	 $LN6@Load

; 160  : 			{
; 161  : 				Token = GetToken();

  0046b	e8 00 00 00 00	 call	 ?GetToken@@YA?AW4SMDToken@@XZ ; GetToken
  00470	89 45 f4	 mov	 DWORD PTR _Token$[ebp], eax

; 162  : 
; 163  : 				if ( strcmp("end", TokenString ) == 0)

  00473	68 00 00 00 00	 push	 OFFSET _TokenString
  00478	68 00 00 00 00	 push	 OFFSET ??_C@_03JBJLGPFL@end?$AA@
  0047d	e8 00 00 00 00	 call	 _strcmp
  00482	83 c4 08	 add	 esp, 8
  00485	85 c0		 test	 eax, eax
  00487	75 05		 jne	 SHORT $LN5@Load

; 164  : 				{
; 165  : 					break;

  00489	e9 13 02 00 00	 jmp	 $LN13@Load
$LN5@Load:

; 166  : 				}
; 167  : 
; 168  : 				if(sNum >= R_MAX_SKILL)

  0048e	83 7d ec 24	 cmp	 DWORD PTR _sNum$[ebp], 36 ; 00000024H
  00492	7c 05		 jl	 SHORT $LN4@Load

; 169  : 				{
; 170  : 					break;

  00494	e9 08 02 00 00	 jmp	 $LN13@Load
$LN4@Load:

; 171  : 				}
; 172  : 
; 173  : 				int sN = TokenNumber;

  00499	d9 05 00 00 00
	00		 fld	 DWORD PTR _TokenNumber
  0049f	e8 00 00 00 00	 call	 __ftol2_sse
  004a4	89 45 e4	 mov	 DWORD PTR _sN$221657[ebp], eax

; 174  : 
; 175  : 				char sName[50];
; 176  : 				Token = GetToken();

  004a7	e8 00 00 00 00	 call	 ?GetToken@@YA?AW4SMDToken@@XZ ; GetToken
  004ac	89 45 f4	 mov	 DWORD PTR _Token$[ebp], eax

; 177  : 				strcpy(sName, TokenString );

  004af	68 00 00 00 00	 push	 OFFSET _TokenString
  004b4	8d 45 b0	 lea	 eax, DWORD PTR _sName$221658[ebp]
  004b7	50		 push	 eax
  004b8	e8 00 00 00 00	 call	 _strcpy
  004bd	83 c4 08	 add	 esp, 8

; 178  : 
; 179  : 				Token = GetToken();

  004c0	e8 00 00 00 00	 call	 ?GetToken@@YA?AW4SMDToken@@XZ ; GetToken
  004c5	89 45 f4	 mov	 DWORD PTR _Token$[ebp], eax

; 180  : 				int Damage = TokenNumber;

  004c8	d9 05 00 00 00
	00		 fld	 DWORD PTR _TokenNumber
  004ce	e8 00 00 00 00	 call	 __ftol2_sse
  004d3	89 45 ac	 mov	 DWORD PTR _Damage$221659[ebp], eax

; 181  : 
; 182  : 				Token = GetToken();

  004d6	e8 00 00 00 00	 call	 ?GetToken@@YA?AW4SMDToken@@XZ ; GetToken
  004db	89 45 f4	 mov	 DWORD PTR _Token$[ebp], eax

; 183  : 				int MaxPoint = TokenNumber;

  004de	d9 05 00 00 00
	00		 fld	 DWORD PTR _TokenNumber
  004e4	e8 00 00 00 00	 call	 __ftol2_sse
  004e9	89 45 a8	 mov	 DWORD PTR _MaxPoint$221660[ebp], eax

; 184  : 
; 185  : 				Token = GetToken();

  004ec	e8 00 00 00 00	 call	 ?GetToken@@YA?AW4SMDToken@@XZ ; GetToken
  004f1	89 45 f4	 mov	 DWORD PTR _Token$[ebp], eax

; 186  : 				int NextPoint = TokenNumber;

  004f4	d9 05 00 00 00
	00		 fld	 DWORD PTR _TokenNumber
  004fa	e8 00 00 00 00	 call	 __ftol2_sse
  004ff	89 45 a4	 mov	 DWORD PTR _NextPoint$221661[ebp], eax

; 187  : 
; 188  : 				Token = GetToken();

  00502	e8 00 00 00 00	 call	 ?GetToken@@YA?AW4SMDToken@@XZ ; GetToken
  00507	89 45 f4	 mov	 DWORD PTR _Token$[ebp], eax

; 189  : 				int sProc = TokenNumber;

  0050a	d9 05 00 00 00
	00		 fld	 DWORD PTR _TokenNumber
  00510	e8 00 00 00 00	 call	 __ftol2_sse
  00515	89 45 a0	 mov	 DWORD PTR _sProc$221662[ebp], eax

; 190  : 
; 191  : 				this->LoadSkill(sN, sName,Damage,MaxPoint,NextPoint,(bool)sProc);

  00518	83 7d a0 00	 cmp	 DWORD PTR _sProc$221662[ebp], 0
  0051c	0f 95 c0	 setne	 al
  0051f	0f b6 c8	 movzx	 ecx, al
  00522	51		 push	 ecx
  00523	8b 55 a4	 mov	 edx, DWORD PTR _NextPoint$221661[ebp]
  00526	52		 push	 edx
  00527	8b 45 a8	 mov	 eax, DWORD PTR _MaxPoint$221660[ebp]
  0052a	50		 push	 eax
  0052b	8b 4d ac	 mov	 ecx, DWORD PTR _Damage$221659[ebp]
  0052e	51		 push	 ecx
  0052f	8d 55 b0	 lea	 edx, DWORD PTR _sName$221658[ebp]
  00532	52		 push	 edx
  00533	8b 45 e4	 mov	 eax, DWORD PTR _sN$221657[ebp]
  00536	50		 push	 eax
  00537	8b 4d f8	 mov	 ecx, DWORD PTR _this$[ebp]
  0053a	e8 00 00 00 00	 call	 ?LoadSkill@cSystemOfRage@@QAEXHPADHHH_N@Z ; cSystemOfRage::LoadSkill

; 192  : 
; 193  : 				sNum++;

  0053f	8b 45 ec	 mov	 eax, DWORD PTR _sNum$[ebp]
  00542	83 c0 01	 add	 eax, 1
  00545	89 45 ec	 mov	 DWORD PTR _sNum$[ebp], eax
  00548	e9 4f 01 00 00	 jmp	 $LN2@Load
$LN6@Load:

; 194  : 			}
; 195  : 			else if(type == 3)

  0054d	83 7d f0 03	 cmp	 DWORD PTR _type$[ebp], 3
  00551	0f 85 45 01 00
	00		 jne	 $LN2@Load

; 196  : 			{
; 197  : 				Token = GetToken();

  00557	e8 00 00 00 00	 call	 ?GetToken@@YA?AW4SMDToken@@XZ ; GetToken
  0055c	89 45 f4	 mov	 DWORD PTR _Token$[ebp], eax

; 198  : 
; 199  : 				if ( strcmp("end", TokenString ) == 0)

  0055f	68 00 00 00 00	 push	 OFFSET _TokenString
  00564	68 00 00 00 00	 push	 OFFSET ??_C@_03JBJLGPFL@end?$AA@
  00569	e8 00 00 00 00	 call	 _strcmp
  0056e	83 c4 08	 add	 esp, 8
  00571	85 c0		 test	 eax, eax
  00573	75 05		 jne	 SHORT $LN1@Load

; 200  : 				{
; 201  : 					break;

  00575	e9 27 01 00 00	 jmp	 $LN13@Load
$LN1@Load:

; 202  : 				}
; 203  : 
; 204  : 				this->m_sNPC_Class = TokenNumber;

  0057a	d9 05 00 00 00
	00		 fld	 DWORD PTR _TokenNumber
  00580	e8 00 00 00 00	 call	 __ftol2_sse
  00585	8b 4d f8	 mov	 ecx, DWORD PTR _this$[ebp]
  00588	66 89 81 c0 a8
	24 00		 mov	 WORD PTR [ecx+2402496], ax

; 205  : 
; 206  : 				Token = GetToken();

  0058f	e8 00 00 00 00	 call	 ?GetToken@@YA?AW4SMDToken@@XZ ; GetToken
  00594	89 45 f4	 mov	 DWORD PTR _Token$[ebp], eax

; 207  : 				this->m_btNPC_Map = TokenNumber;

  00597	d9 05 00 00 00
	00		 fld	 DWORD PTR _TokenNumber
  0059d	d9 bd 5e ff ff
	ff		 fnstcw	 WORD PTR tv377[ebp]
  005a3	0f b7 85 5e ff
	ff ff		 movzx	 eax, WORD PTR tv377[ebp]
  005aa	0d 00 0c 00 00	 or	 eax, 3072		; 00000c00H
  005af	89 85 58 ff ff
	ff		 mov	 DWORD PTR tv380[ebp], eax
  005b5	d9 ad 58 ff ff
	ff		 fldcw	 WORD PTR tv380[ebp]
  005bb	db 9d 54 ff ff
	ff		 fistp	 DWORD PTR tv382[ebp]
  005c1	d9 ad 5e ff ff
	ff		 fldcw	 WORD PTR tv377[ebp]
  005c7	8a 85 54 ff ff
	ff		 mov	 al, BYTE PTR tv382[ebp]
  005cd	8b 4d f8	 mov	 ecx, DWORD PTR _this$[ebp]
  005d0	88 81 c2 a8 24
	00		 mov	 BYTE PTR [ecx+2402498], al

; 208  : 
; 209  : 				Token = GetToken();

  005d6	e8 00 00 00 00	 call	 ?GetToken@@YA?AW4SMDToken@@XZ ; GetToken
  005db	89 45 f4	 mov	 DWORD PTR _Token$[ebp], eax

; 210  : 				this->m_btNPC_X = TokenNumber;

  005de	d9 05 00 00 00
	00		 fld	 DWORD PTR _TokenNumber
  005e4	d9 bd 5e ff ff
	ff		 fnstcw	 WORD PTR tv387[ebp]
  005ea	0f b7 85 5e ff
	ff ff		 movzx	 eax, WORD PTR tv387[ebp]
  005f1	0d 00 0c 00 00	 or	 eax, 3072		; 00000c00H
  005f6	89 85 58 ff ff
	ff		 mov	 DWORD PTR tv390[ebp], eax
  005fc	d9 ad 58 ff ff
	ff		 fldcw	 WORD PTR tv390[ebp]
  00602	db 9d 54 ff ff
	ff		 fistp	 DWORD PTR tv392[ebp]
  00608	d9 ad 5e ff ff
	ff		 fldcw	 WORD PTR tv387[ebp]
  0060e	8a 85 54 ff ff
	ff		 mov	 al, BYTE PTR tv392[ebp]
  00614	8b 4d f8	 mov	 ecx, DWORD PTR _this$[ebp]
  00617	88 81 c3 a8 24
	00		 mov	 BYTE PTR [ecx+2402499], al

; 211  : 
; 212  : 				Token = GetToken();

  0061d	e8 00 00 00 00	 call	 ?GetToken@@YA?AW4SMDToken@@XZ ; GetToken
  00622	89 45 f4	 mov	 DWORD PTR _Token$[ebp], eax

; 213  : 				this->m_btNPC_Y = TokenNumber;

  00625	d9 05 00 00 00
	00		 fld	 DWORD PTR _TokenNumber
  0062b	d9 bd 5e ff ff
	ff		 fnstcw	 WORD PTR tv397[ebp]
  00631	0f b7 85 5e ff
	ff ff		 movzx	 eax, WORD PTR tv397[ebp]
  00638	0d 00 0c 00 00	 or	 eax, 3072		; 00000c00H
  0063d	89 85 58 ff ff
	ff		 mov	 DWORD PTR tv400[ebp], eax
  00643	d9 ad 58 ff ff
	ff		 fldcw	 WORD PTR tv400[ebp]
  00649	db 9d 54 ff ff
	ff		 fistp	 DWORD PTR tv402[ebp]
  0064f	d9 ad 5e ff ff
	ff		 fldcw	 WORD PTR tv397[ebp]
  00655	8a 85 54 ff ff
	ff		 mov	 al, BYTE PTR tv402[ebp]
  0065b	8b 4d f8	 mov	 ecx, DWORD PTR _this$[ebp]
  0065e	88 81 c4 a8 24
	00		 mov	 BYTE PTR [ecx+2402500], al

; 214  : 
; 215  : 				Token = GetToken();

  00664	e8 00 00 00 00	 call	 ?GetToken@@YA?AW4SMDToken@@XZ ; GetToken
  00669	89 45 f4	 mov	 DWORD PTR _Token$[ebp], eax

; 216  : 				this->m_ResetRageWCoin = TokenNumber;

  0066c	d9 05 00 00 00
	00		 fld	 DWORD PTR _TokenNumber
  00672	e8 00 00 00 00	 call	 __ftol2_sse
  00677	8b 4d f8	 mov	 ecx, DWORD PTR _this$[ebp]
  0067a	89 81 c8 a8 24
	00		 mov	 DWORD PTR [ecx+2402504], eax

; 217  : 
; 218  : 				Token = GetToken();

  00680	e8 00 00 00 00	 call	 ?GetToken@@YA?AW4SMDToken@@XZ ; GetToken
  00685	89 45 f4	 mov	 DWORD PTR _Token$[ebp], eax

; 219  : 				this->m_ResetRageCredit = TokenNumber;

  00688	d9 05 00 00 00
	00		 fld	 DWORD PTR _TokenNumber
  0068e	e8 00 00 00 00	 call	 __ftol2_sse
  00693	8b 4d f8	 mov	 ecx, DWORD PTR _this$[ebp]
  00696	89 81 cc a8 24
	00		 mov	 DWORD PTR [ecx+2402508], eax
$LN2@Load:

; 220  : 			}
; 221  : 		}

  0069c	e9 1c fc ff ff	 jmp	 $LN15@Load
$LN13@Load:

; 222  :     }

  006a1	e9 d5 fb ff ff	 jmp	 $LN19@Load
$LN18@Load:

; 223  : 
; 224  : 	fclose(SMDFile);

  006a6	a1 00 00 00 00	 mov	 eax, DWORD PTR _SMDFile
  006ab	50		 push	 eax
  006ac	e8 00 00 00 00	 call	 _fclose
  006b1	83 c4 04	 add	 esp, 4
$LN22@Load:

; 225  : }

  006b4	5f		 pop	 edi
  006b5	5e		 pop	 esi
  006b6	5b		 pop	 ebx
  006b7	8b 4d fc	 mov	 ecx, DWORD PTR __$ArrayPad$[ebp]
  006ba	33 cd		 xor	 ecx, ebp
  006bc	e8 00 00 00 00	 call	 @__security_check_cookie@4
  006c1	8b e5		 mov	 esp, ebp
  006c3	5d		 pop	 ebp
  006c4	c3		 ret	 0
?Load@cSystemOfRage@@QAEXXZ ENDP			; cSystemOfRage::Load
_TEXT	ENDS
PUBLIC	__$ArrayPad$
EXTRN	_isalnum:PROC
EXTRN	_isalpha:PROC
EXTRN	_atof:PROC
EXTRN	_isdigit:PROC
EXTRN	_getc:PROC
EXTRN	_ungetc:PROC
EXTRN	_isspace:PROC
EXTRN	_fgetc:PROC
_BSS	SEGMENT
_CurrentToken DD 01H DUP (?)
; Function compile flags: /Odtp /ZI
; File d:\projects\exteam6.3\source\gameserver\include\readscript.h
_BSS	ENDS
_TEXT	SEGMENT
tv90 = -180						; size = 4
_TempString$ = -112					; size = 100
_p$ = -12						; size = 4
_ch$ = -5						; size = 1
__$ArrayPad$ = -4					; size = 4
?GetToken@@YA?AW4SMDToken@@XZ PROC			; GetToken

; 24   : {

  006d0	55		 push	 ebp
  006d1	8b ec		 mov	 ebp, esp
  006d3	81 ec b4 00 00
	00		 sub	 esp, 180		; 000000b4H
  006d9	a1 00 00 00 00	 mov	 eax, DWORD PTR ___security_cookie
  006de	33 c5		 xor	 eax, ebp
  006e0	89 45 fc	 mov	 DWORD PTR __$ArrayPad$[ebp], eax
  006e3	53		 push	 ebx
  006e4	56		 push	 esi
  006e5	57		 push	 edi

; 25   : 	char ch;
; 26   : 	char* p;
; 27   : 	char TempString[100];
; 28   : 
; 29   : 	TokenString[0]=0;

  006e6	c6 05 00 00 00
	00 00		 mov	 BYTE PTR _TokenString, 0
$LN31@GetToken:

; 30   : 
; 31   : 	do
; 32   : 	{
; 33   : 		if ((ch=fgetc(SMDFile)) == -1)

  006ed	a1 00 00 00 00	 mov	 eax, DWORD PTR _SMDFile
  006f2	50		 push	 eax
  006f3	e8 00 00 00 00	 call	 _fgetc
  006f8	83 c4 04	 add	 esp, 4
  006fb	88 45 fb	 mov	 BYTE PTR _ch$[ebp], al
  006fe	0f be 4d fb	 movsx	 ecx, BYTE PTR _ch$[ebp]
  00702	83 f9 ff	 cmp	 ecx, -1
  00705	75 0c		 jne	 SHORT $LN28@GetToken

; 34   : 		{
; 35   : 			return END;	// End of FILE (EOF)

  00707	b8 02 00 00 00	 mov	 eax, 2
  0070c	e9 f7 02 00 00	 jmp	 $LN32@GetToken

; 36   : 		}
; 37   : 		else

  00711	eb 5b		 jmp	 SHORT $LN22@GetToken
$LN28@GetToken:

; 38   : 		{	
; 39   : 			if (ch=='/')		// this is /

  00713	0f be 45 fb	 movsx	 eax, BYTE PTR _ch$[ebp]
  00717	83 f8 2f	 cmp	 eax, 47			; 0000002fH
  0071a	75 52		 jne	 SHORT $LN22@GetToken

; 40   : 			{
; 41   : 				if((ch=fgetc(SMDFile)) == '/')

  0071c	a1 00 00 00 00	 mov	 eax, DWORD PTR _SMDFile
  00721	50		 push	 eax
  00722	e8 00 00 00 00	 call	 _fgetc
  00727	83 c4 04	 add	 esp, 4
  0072a	88 45 fb	 mov	 BYTE PTR _ch$[ebp], al
  0072d	0f be 4d fb	 movsx	 ecx, BYTE PTR _ch$[ebp]
  00731	83 f9 2f	 cmp	 ecx, 47			; 0000002fH
  00734	75 38		 jne	 SHORT $LN22@GetToken
$LN24@GetToken:

; 42   : 				{
; 43   : 					while ((ch != '\n') && (ch != -1))	// End of Line (EOL)

  00736	0f be 45 fb	 movsx	 eax, BYTE PTR _ch$[ebp]
  0073a	83 f8 0a	 cmp	 eax, 10			; 0000000aH
  0073d	74 1c		 je	 SHORT $LN23@GetToken
  0073f	0f be 45 fb	 movsx	 eax, BYTE PTR _ch$[ebp]
  00743	83 f8 ff	 cmp	 eax, -1
  00746	74 13		 je	 SHORT $LN23@GetToken

; 44   : 					{
; 45   : 						ch=fgetc(SMDFile);

  00748	a1 00 00 00 00	 mov	 eax, DWORD PTR _SMDFile
  0074d	50		 push	 eax
  0074e	e8 00 00 00 00	 call	 _fgetc
  00753	83 c4 04	 add	 esp, 4
  00756	88 45 fb	 mov	 BYTE PTR _ch$[ebp], al

; 46   : 					}

  00759	eb db		 jmp	 SHORT $LN24@GetToken
$LN23@GetToken:

; 47   : 	
; 48   : 					if (ch == -1)

  0075b	0f be 45 fb	 movsx	 eax, BYTE PTR _ch$[ebp]
  0075f	83 f8 ff	 cmp	 eax, -1
  00762	75 0a		 jne	 SHORT $LN22@GetToken

; 49   : 					{
; 50   : 						return END;	// End of FILE

  00764	b8 02 00 00 00	 mov	 eax, 2
  00769	e9 9a 02 00 00	 jmp	 $LN32@GetToken
$LN22@GetToken:

; 51   : 					}
; 52   : 				}
; 53   : 			}
; 54   : 		}
; 55   : 	}
; 56   : 	while (isspace(ch) != 0);

  0076e	0f be 45 fb	 movsx	 eax, BYTE PTR _ch$[ebp]
  00772	50		 push	 eax
  00773	e8 00 00 00 00	 call	 _isspace
  00778	83 c4 04	 add	 esp, 4
  0077b	85 c0		 test	 eax, eax
  0077d	0f 85 6a ff ff
	ff		 jne	 $LN31@GetToken

; 57   : 
; 58   : 	
; 59   : 	switch(ch)

  00783	0f be 45 fb	 movsx	 eax, BYTE PTR _ch$[ebp]
  00787	89 85 4c ff ff
	ff		 mov	 DWORD PTR tv90[ebp], eax
  0078d	8b 8d 4c ff ff
	ff		 mov	 ecx, DWORD PTR tv90[ebp]
  00793	83 e9 22	 sub	 ecx, 34			; 00000022H
  00796	89 8d 4c ff ff
	ff		 mov	 DWORD PTR tv90[ebp], ecx
  0079c	83 bd 4c ff ff
	ff 5b		 cmp	 DWORD PTR tv90[ebp], 91	; 0000005bH
  007a3	0f 87 a3 01 00
	00		 ja	 $LN6@GetToken
  007a9	8b 95 4c ff ff
	ff		 mov	 edx, DWORD PTR tv90[ebp]
  007af	0f b6 82 00 00
	00 00		 movzx	 eax, BYTE PTR $LN34@GetToken[edx]
  007b6	ff 24 85 00 00
	00 00		 jmp	 DWORD PTR $LN35@GetToken[eax*4]
$LN19@GetToken:

; 60   : 	{
; 61   : 
; 62   : 	case 0x23:	// #
; 63   : 		return CurrentToken=COMMAND;

  007bd	c7 05 00 00 00
	00 23 00 00 00	 mov	 DWORD PTR _CurrentToken, 35 ; 00000023H
  007c7	a1 00 00 00 00	 mov	 eax, DWORD PTR _CurrentToken
  007cc	e9 37 02 00 00	 jmp	 $LN32@GetToken

; 64   : 		break;

  007d1	e9 30 02 00 00	 jmp	 $LN20@GetToken
$LN18@GetToken:

; 65   : 	
; 66   : 	case 0x3B:	// ;
; 67   : 		return CurrentToken=SEMICOLON;

  007d6	c7 05 00 00 00
	00 3b 00 00 00	 mov	 DWORD PTR _CurrentToken, 59 ; 0000003bH
  007e0	a1 00 00 00 00	 mov	 eax, DWORD PTR _CurrentToken
  007e5	e9 1e 02 00 00	 jmp	 $LN32@GetToken

; 68   : 		break;

  007ea	e9 17 02 00 00	 jmp	 $LN20@GetToken
$LN17@GetToken:

; 69   : 	
; 70   : 	case 0x2C:	// ,
; 71   : 
; 72   : 		return CurrentToken=COMMA;

  007ef	c7 05 00 00 00
	00 2c 00 00 00	 mov	 DWORD PTR _CurrentToken, 44 ; 0000002cH
  007f9	a1 00 00 00 00	 mov	 eax, DWORD PTR _CurrentToken
  007fe	e9 05 02 00 00	 jmp	 $LN32@GetToken

; 73   : 		break;

  00803	e9 fe 01 00 00	 jmp	 $LN20@GetToken
$LN16@GetToken:

; 74   : 	
; 75   : 	case 0x7B:	// {
; 76   : 		return CurrentToken = LP;

  00808	c7 05 00 00 00
	00 7b 00 00 00	 mov	 DWORD PTR _CurrentToken, 123 ; 0000007bH
  00812	a1 00 00 00 00	 mov	 eax, DWORD PTR _CurrentToken
  00817	e9 ec 01 00 00	 jmp	 $LN32@GetToken

; 77   : 		break;

  0081c	e9 e5 01 00 00	 jmp	 $LN20@GetToken
$LN15@GetToken:

; 78   : 
; 79   : 	case 0x7D:	// }
; 80   : 		return CurrentToken = RP;

  00821	c7 05 00 00 00
	00 7d 00 00 00	 mov	 DWORD PTR _CurrentToken, 125 ; 0000007dH
  0082b	a1 00 00 00 00	 mov	 eax, DWORD PTR _CurrentToken
  00830	e9 d3 01 00 00	 jmp	 $LN32@GetToken

; 81   : 		break;

  00835	e9 cc 01 00 00	 jmp	 $LN20@GetToken
$LN14@GetToken:

; 82   : 	// Nice Index Table :)	by Deathway
; 83   : 	// Numbers Case
; 84   : 	case 0x2D:	//-
; 85   : 	case 0x2E:	//.
; 86   : 	case '0':	//0
; 87   : 	case '1':	//1
; 88   : 	case '2':	//2
; 89   : 	case '3':	//3
; 90   : 	case '4':	//4		
; 91   : 	case '5':	//5
; 92   : 	case '6':	//6
; 93   : 	case '7':	//7
; 94   : 	case '8':	//8
; 95   : 	case '9':	//9
; 96   : 		ungetc(ch, SMDFile);

  0083a	a1 00 00 00 00	 mov	 eax, DWORD PTR _SMDFile
  0083f	50		 push	 eax
  00840	0f be 4d fb	 movsx	 ecx, BYTE PTR _ch$[ebp]
  00844	51		 push	 ecx
  00845	e8 00 00 00 00	 call	 _ungetc
  0084a	83 c4 08	 add	 esp, 8

; 97   : 		p = TempString;

  0084d	8d 45 90	 lea	 eax, DWORD PTR _TempString$[ebp]
  00850	89 45 f4	 mov	 DWORD PTR _p$[ebp], eax
$LN13@GetToken:

; 98   : 		
; 99   : 		while (((ch=getc(SMDFile)) != -1) && ((ch == 0x2E) || (isdigit(ch) != 0) || (ch == 0x2D)))  // 2e '.'  2D '-'

  00853	a1 00 00 00 00	 mov	 eax, DWORD PTR _SMDFile
  00858	50		 push	 eax
  00859	e8 00 00 00 00	 call	 _getc
  0085e	83 c4 04	 add	 esp, 4
  00861	88 45 fb	 mov	 BYTE PTR _ch$[ebp], al
  00864	0f be 4d fb	 movsx	 ecx, BYTE PTR _ch$[ebp]
  00868	83 f9 ff	 cmp	 ecx, -1
  0086b	74 36		 je	 SHORT $LN12@GetToken
  0086d	0f be 45 fb	 movsx	 eax, BYTE PTR _ch$[ebp]
  00871	83 f8 2e	 cmp	 eax, 46			; 0000002eH
  00874	74 1a		 je	 SHORT $LN11@GetToken
  00876	0f be 45 fb	 movsx	 eax, BYTE PTR _ch$[ebp]
  0087a	50		 push	 eax
  0087b	e8 00 00 00 00	 call	 _isdigit
  00880	83 c4 04	 add	 esp, 4
  00883	85 c0		 test	 eax, eax
  00885	75 09		 jne	 SHORT $LN11@GetToken
  00887	0f be 45 fb	 movsx	 eax, BYTE PTR _ch$[ebp]
  0088b	83 f8 2d	 cmp	 eax, 45			; 0000002dH
  0088e	75 13		 jne	 SHORT $LN12@GetToken
$LN11@GetToken:

; 100  : 		{
; 101  : 			*p = ch;	// Construct a String

  00890	8b 45 f4	 mov	 eax, DWORD PTR _p$[ebp]
  00893	8a 4d fb	 mov	 cl, BYTE PTR _ch$[ebp]
  00896	88 08		 mov	 BYTE PTR [eax], cl

; 102  : 			p++;

  00898	8b 45 f4	 mov	 eax, DWORD PTR _p$[ebp]
  0089b	83 c0 01	 add	 eax, 1
  0089e	89 45 f4	 mov	 DWORD PTR _p$[ebp], eax

; 103  : 		}		

  008a1	eb b0		 jmp	 SHORT $LN13@GetToken
$LN12@GetToken:

; 104  : 		*p = 0;

  008a3	8b 45 f4	 mov	 eax, DWORD PTR _p$[ebp]
  008a6	c6 00 00	 mov	 BYTE PTR [eax], 0

; 105  : 		TokenNumber = atof( TempString);	// Select the first Byte as Main ID

  008a9	8d 45 90	 lea	 eax, DWORD PTR _TempString$[ebp]
  008ac	50		 push	 eax
  008ad	e8 00 00 00 00	 call	 _atof
  008b2	83 c4 04	 add	 esp, 4
  008b5	d9 1d 00 00 00
	00		 fstp	 DWORD PTR _TokenNumber

; 106  : 		return CurrentToken  = NUMBER ;

  008bb	c7 05 00 00 00
	00 01 00 00 00	 mov	 DWORD PTR _CurrentToken, 1
  008c5	a1 00 00 00 00	 mov	 eax, DWORD PTR _CurrentToken
  008ca	e9 39 01 00 00	 jmp	 $LN32@GetToken

; 107  : 		break;

  008cf	e9 32 01 00 00	 jmp	 $LN20@GetToken
$LN10@GetToken:

; 108  : 
; 109  : 	case '\"':	// "	String Case
; 110  : 		p=&TokenString[0];

  008d4	c7 45 f4 00 00
	00 00		 mov	 DWORD PTR _p$[ebp], OFFSET _TokenString
$LN9@GetToken:

; 111  : 		
; 112  : 		while (((ch=getc(SMDFile)) != -1 ) && (ch != 0x22))	// nice

  008db	a1 00 00 00 00	 mov	 eax, DWORD PTR _SMDFile
  008e0	50		 push	 eax
  008e1	e8 00 00 00 00	 call	 _getc
  008e6	83 c4 04	 add	 esp, 4
  008e9	88 45 fb	 mov	 BYTE PTR _ch$[ebp], al
  008ec	0f be 4d fb	 movsx	 ecx, BYTE PTR _ch$[ebp]
  008f0	83 f9 ff	 cmp	 ecx, -1
  008f3	74 1c		 je	 SHORT $LN8@GetToken
  008f5	0f be 45 fb	 movsx	 eax, BYTE PTR _ch$[ebp]
  008f9	83 f8 22	 cmp	 eax, 34			; 00000022H
  008fc	74 13		 je	 SHORT $LN8@GetToken

; 113  : 		{
; 114  : 			*p = ch;

  008fe	8b 45 f4	 mov	 eax, DWORD PTR _p$[ebp]
  00901	8a 4d fb	 mov	 cl, BYTE PTR _ch$[ebp]
  00904	88 08		 mov	 BYTE PTR [eax], cl

; 115  : 			p++;

  00906	8b 45 f4	 mov	 eax, DWORD PTR _p$[ebp]
  00909	83 c0 01	 add	 eax, 1
  0090c	89 45 f4	 mov	 DWORD PTR _p$[ebp], eax

; 116  : 		}

  0090f	eb ca		 jmp	 SHORT $LN9@GetToken
$LN8@GetToken:

; 117  : 		if (ch != 0x22 )

  00911	0f be 45 fb	 movsx	 eax, BYTE PTR _ch$[ebp]
  00915	83 f8 22	 cmp	 eax, 34			; 00000022H
  00918	74 13		 je	 SHORT $LN7@GetToken

; 118  : 		{
; 119  : 			ungetc(ch, SMDFile);

  0091a	a1 00 00 00 00	 mov	 eax, DWORD PTR _SMDFile
  0091f	50		 push	 eax
  00920	0f be 4d fb	 movsx	 ecx, BYTE PTR _ch$[ebp]
  00924	51		 push	 ecx
  00925	e8 00 00 00 00	 call	 _ungetc
  0092a	83 c4 08	 add	 esp, 8
$LN7@GetToken:

; 120  : 		}
; 121  : 		*p = 0;

  0092d	8b 45 f4	 mov	 eax, DWORD PTR _p$[ebp]
  00930	c6 00 00	 mov	 BYTE PTR [eax], 0

; 122  : 		return CurrentToken = NAME;

  00933	c7 05 00 00 00
	00 00 00 00 00	 mov	 DWORD PTR _CurrentToken, 0
  0093d	a1 00 00 00 00	 mov	 eax, DWORD PTR _CurrentToken
  00942	e9 c1 00 00 00	 jmp	 $LN32@GetToken

; 123  : 		break;

  00947	e9 ba 00 00 00	 jmp	 $LN20@GetToken
$LN6@GetToken:

; 124  : 
; 125  : 	default:	// Others
; 126  : 		if (isalpha(ch))

  0094c	0f be 45 fb	 movsx	 eax, BYTE PTR _ch$[ebp]
  00950	50		 push	 eax
  00951	e8 00 00 00 00	 call	 _isalpha
  00956	83 c4 04	 add	 esp, 4
  00959	85 c0		 test	 eax, eax
  0095b	0f 84 94 00 00
	00		 je	 $LN5@GetToken

; 127  : 		{
; 128  : 			p=&TokenString[0];

  00961	c7 45 f4 00 00
	00 00		 mov	 DWORD PTR _p$[ebp], OFFSET _TokenString

; 129  : 			*p=ch;

  00968	8b 45 f4	 mov	 eax, DWORD PTR _p$[ebp]
  0096b	8a 4d fb	 mov	 cl, BYTE PTR _ch$[ebp]
  0096e	88 08		 mov	 BYTE PTR [eax], cl

; 130  : 			p++;

  00970	8b 45 f4	 mov	 eax, DWORD PTR _p$[ebp]
  00973	83 c0 01	 add	 eax, 1
  00976	89 45 f4	 mov	 DWORD PTR _p$[ebp], eax
$LN4@GetToken:

; 131  : 
; 132  : 			while ( ((ch=getc(SMDFile)) != -1) && ( (ch == 0x2E) || (ch == 0x5F) || (isalnum(ch) != 0) ) )

  00979	a1 00 00 00 00	 mov	 eax, DWORD PTR _SMDFile
  0097e	50		 push	 eax
  0097f	e8 00 00 00 00	 call	 _getc
  00984	83 c4 04	 add	 esp, 4
  00987	88 45 fb	 mov	 BYTE PTR _ch$[ebp], al
  0098a	0f be 4d fb	 movsx	 ecx, BYTE PTR _ch$[ebp]
  0098e	83 f9 ff	 cmp	 ecx, -1
  00991	74 36		 je	 SHORT $LN3@GetToken
  00993	0f be 45 fb	 movsx	 eax, BYTE PTR _ch$[ebp]
  00997	83 f8 2e	 cmp	 eax, 46			; 0000002eH
  0099a	74 1a		 je	 SHORT $LN2@GetToken
  0099c	0f be 45 fb	 movsx	 eax, BYTE PTR _ch$[ebp]
  009a0	83 f8 5f	 cmp	 eax, 95			; 0000005fH
  009a3	74 11		 je	 SHORT $LN2@GetToken
  009a5	0f be 45 fb	 movsx	 eax, BYTE PTR _ch$[ebp]
  009a9	50		 push	 eax
  009aa	e8 00 00 00 00	 call	 _isalnum
  009af	83 c4 04	 add	 esp, 4
  009b2	85 c0		 test	 eax, eax
  009b4	74 13		 je	 SHORT $LN3@GetToken
$LN2@GetToken:

; 133  : 			{
; 134  : 				*p=ch;

  009b6	8b 45 f4	 mov	 eax, DWORD PTR _p$[ebp]
  009b9	8a 4d fb	 mov	 cl, BYTE PTR _ch$[ebp]
  009bc	88 08		 mov	 BYTE PTR [eax], cl

; 135  : 				p++;

  009be	8b 45 f4	 mov	 eax, DWORD PTR _p$[ebp]
  009c1	83 c0 01	 add	 eax, 1
  009c4	89 45 f4	 mov	 DWORD PTR _p$[ebp], eax

; 136  : 				
; 137  : 			}

  009c7	eb b0		 jmp	 SHORT $LN4@GetToken
$LN3@GetToken:

; 138  : 
; 139  : 			ungetc(ch, SMDFile);

  009c9	a1 00 00 00 00	 mov	 eax, DWORD PTR _SMDFile
  009ce	50		 push	 eax
  009cf	0f be 4d fb	 movsx	 ecx, BYTE PTR _ch$[ebp]
  009d3	51		 push	 ecx
  009d4	e8 00 00 00 00	 call	 _ungetc
  009d9	83 c4 08	 add	 esp, 8

; 140  : 			*p=0;

  009dc	8b 45 f4	 mov	 eax, DWORD PTR _p$[ebp]
  009df	c6 00 00	 mov	 BYTE PTR [eax], 0

; 141  : 			CurrentToken=NAME;

  009e2	c7 05 00 00 00
	00 00 00 00 00	 mov	 DWORD PTR _CurrentToken, 0

; 142  : 			return CurrentToken;

  009ec	a1 00 00 00 00	 mov	 eax, DWORD PTR _CurrentToken
  009f1	eb 15		 jmp	 SHORT $LN32@GetToken

; 143  : 		}
; 144  : 		else

  009f3	eb 11		 jmp	 SHORT $LN1@GetToken
$LN5@GetToken:

; 145  : 		{
; 146  : 			return CurrentToken = SMD_ERROR; // '<'

  009f5	c7 05 00 00 00
	00 3c 00 00 00	 mov	 DWORD PTR _CurrentToken, 60 ; 0000003cH
  009ff	a1 00 00 00 00	 mov	 eax, DWORD PTR _CurrentToken
  00a04	eb 02		 jmp	 SHORT $LN32@GetToken
$LN1@GetToken:
$LN20@GetToken:

; 147  : 		}
; 148  : 		break;
; 149  : 
; 150  : 	}
; 151  : 
; 152  : 	return NAME;

  00a06	33 c0		 xor	 eax, eax
$LN32@GetToken:

; 153  : }

  00a08	5f		 pop	 edi
  00a09	5e		 pop	 esi
  00a0a	5b		 pop	 ebx
  00a0b	8b 4d fc	 mov	 ecx, DWORD PTR __$ArrayPad$[ebp]
  00a0e	33 cd		 xor	 ecx, ebp
  00a10	e8 00 00 00 00	 call	 @__security_check_cookie@4
  00a15	8b e5		 mov	 esp, ebp
  00a17	5d		 pop	 ebp
  00a18	c3		 ret	 0
  00a19	8d 49 00	 npad	 3
$LN35@GetToken:
  00a1c	00 00 00 00	 DD	 $LN10@GetToken
  00a20	00 00 00 00	 DD	 $LN19@GetToken
  00a24	00 00 00 00	 DD	 $LN17@GetToken
  00a28	00 00 00 00	 DD	 $LN14@GetToken
  00a2c	00 00 00 00	 DD	 $LN18@GetToken
  00a30	00 00 00 00	 DD	 $LN16@GetToken
  00a34	00 00 00 00	 DD	 $LN15@GetToken
  00a38	00 00 00 00	 DD	 $LN6@GetToken
$LN34@GetToken:
  00a3c	00		 DB	 0
  00a3d	01		 DB	 1
  00a3e	07		 DB	 7
  00a3f	07		 DB	 7
  00a40	07		 DB	 7
  00a41	07		 DB	 7
  00a42	07		 DB	 7
  00a43	07		 DB	 7
  00a44	07		 DB	 7
  00a45	07		 DB	 7
  00a46	02		 DB	 2
  00a47	03		 DB	 3
  00a48	03		 DB	 3
  00a49	07		 DB	 7
  00a4a	03		 DB	 3
  00a4b	03		 DB	 3
  00a4c	03		 DB	 3
  00a4d	03		 DB	 3
  00a4e	03		 DB	 3
  00a4f	03		 DB	 3
  00a50	03		 DB	 3
  00a51	03		 DB	 3
  00a52	03		 DB	 3
  00a53	03		 DB	 3
  00a54	07		 DB	 7
  00a55	04		 DB	 4
  00a56	07		 DB	 7
  00a57	07		 DB	 7
  00a58	07		 DB	 7
  00a59	07		 DB	 7
  00a5a	07		 DB	 7
  00a5b	07		 DB	 7
  00a5c	07		 DB	 7
  00a5d	07		 DB	 7
  00a5e	07		 DB	 7
  00a5f	07		 DB	 7
  00a60	07		 DB	 7
  00a61	07		 DB	 7
  00a62	07		 DB	 7
  00a63	07		 DB	 7
  00a64	07		 DB	 7
  00a65	07		 DB	 7
  00a66	07		 DB	 7
  00a67	07		 DB	 7
  00a68	07		 DB	 7
  00a69	07		 DB	 7
  00a6a	07		 DB	 7
  00a6b	07		 DB	 7
  00a6c	07		 DB	 7
  00a6d	07		 DB	 7
  00a6e	07		 DB	 7
  00a6f	07		 DB	 7
  00a70	07		 DB	 7
  00a71	07		 DB	 7
  00a72	07		 DB	 7
  00a73	07		 DB	 7
  00a74	07		 DB	 7
  00a75	07		 DB	 7
  00a76	07		 DB	 7
  00a77	07		 DB	 7
  00a78	07		 DB	 7
  00a79	07		 DB	 7
  00a7a	07		 DB	 7
  00a7b	07		 DB	 7
  00a7c	07		 DB	 7
  00a7d	07		 DB	 7
  00a7e	07		 DB	 7
  00a7f	07		 DB	 7
  00a80	07		 DB	 7
  00a81	07		 DB	 7
  00a82	07		 DB	 7
  00a83	07		 DB	 7
  00a84	07		 DB	 7
  00a85	07		 DB	 7
  00a86	07		 DB	 7
  00a87	07		 DB	 7
  00a88	07		 DB	 7
  00a89	07		 DB	 7
  00a8a	07		 DB	 7
  00a8b	07		 DB	 7
  00a8c	07		 DB	 7
  00a8d	07		 DB	 7
  00a8e	07		 DB	 7
  00a8f	07		 DB	 7
  00a90	07		 DB	 7
  00a91	07		 DB	 7
  00a92	07		 DB	 7
  00a93	07		 DB	 7
  00a94	07		 DB	 7
  00a95	05		 DB	 5
  00a96	07		 DB	 7
  00a97	06		 DB	 6
?GetToken@@YA?AW4SMDToken@@XZ ENDP			; GetToken
_TEXT	ENDS
PUBLIC	?FilterSkill@cSystemOfRage@@QAEXHH@Z		; cSystemOfRage::FilterSkill
; Function compile flags: /Odtp /ZI
; File d:\projects\exteam6.3\source\gameserver\gameserver\systemofrage.cpp
_TEXT	SEGMENT
tv64 = -72						; size = 4
_this$ = -4						; size = 4
_aIndex$ = 8						; size = 4
_SkillID$ = 12						; size = 4
?FilterSkill@cSystemOfRage@@QAEXHH@Z PROC		; cSystemOfRage::FilterSkill
; _this$ = ecx

; 228  : {

  00aa0	55		 push	 ebp
  00aa1	8b ec		 mov	 ebp, esp
  00aa3	83 ec 48	 sub	 esp, 72			; 00000048H
  00aa6	53		 push	 ebx
  00aa7	56		 push	 esi
  00aa8	57		 push	 edi
  00aa9	89 4d fc	 mov	 DWORD PTR _this$[ebp], ecx

; 229  : 	switch(SkillID)

  00aac	8b 45 0c	 mov	 eax, DWORD PTR _SkillID$[ebp]
  00aaf	89 45 b8	 mov	 DWORD PTR tv64[ebp], eax
  00ab2	8b 4d b8	 mov	 ecx, DWORD PTR tv64[ebp]
  00ab5	83 e9 01	 sub	 ecx, 1
  00ab8	89 4d b8	 mov	 DWORD PTR tv64[ebp], ecx
  00abb	83 7d b8 22	 cmp	 DWORD PTR tv64[ebp], 34	; 00000022H
  00abf	0f 87 ec 05 00
	00		 ja	 $LN38@FilterSkil
  00ac5	8b 55 b8	 mov	 edx, DWORD PTR tv64[ebp]
  00ac8	ff 24 95 00 00
	00 00		 jmp	 DWORD PTR $LN40@FilterSkil[edx*4]
$LN35@FilterSkil:

; 230  : 	{
; 231  : 	case eSkill1:  this->rUser[aIndex].Damage++;		break;

  00acf	8b 45 08	 mov	 eax, DWORD PTR _aIndex$[ebp]
  00ad2	69 c0 a0 00 00
	00		 imul	 eax, 160		; 000000a0H
  00ad8	8b 4d fc	 mov	 ecx, DWORD PTR _this$[ebp]
  00adb	8b 54 01 44	 mov	 edx, DWORD PTR [ecx+eax+68]
  00adf	83 c2 01	 add	 edx, 1
  00ae2	8b 45 08	 mov	 eax, DWORD PTR _aIndex$[ebp]
  00ae5	69 c0 a0 00 00
	00		 imul	 eax, 160		; 000000a0H
  00aeb	8b 4d fc	 mov	 ecx, DWORD PTR _this$[ebp]
  00aee	89 54 01 44	 mov	 DWORD PTR [ecx+eax+68], edx
  00af2	e9 ba 05 00 00	 jmp	 $LN38@FilterSkil
$LN34@FilterSkil:

; 232  : 	case eSkill2:  this->rUser[aIndex].FreePoints++;		break;

  00af7	8b 45 08	 mov	 eax, DWORD PTR _aIndex$[ebp]
  00afa	69 c0 a0 00 00
	00		 imul	 eax, 160		; 000000a0H
  00b00	8b 4d fc	 mov	 ecx, DWORD PTR _this$[ebp]
  00b03	8b 54 01 48	 mov	 edx, DWORD PTR [ecx+eax+72]
  00b07	83 c2 01	 add	 edx, 1
  00b0a	8b 45 08	 mov	 eax, DWORD PTR _aIndex$[ebp]
  00b0d	69 c0 a0 00 00
	00		 imul	 eax, 160		; 000000a0H
  00b13	8b 4d fc	 mov	 ecx, DWORD PTR _this$[ebp]
  00b16	89 54 01 48	 mov	 DWORD PTR [ecx+eax+72], edx
  00b1a	e9 92 05 00 00	 jmp	 $LN38@FilterSkil
$LN33@FilterSkil:

; 233  : 	case eSkill3:  this->rUser[aIndex].SummonPet++;		break;

  00b1f	8b 45 08	 mov	 eax, DWORD PTR _aIndex$[ebp]
  00b22	69 c0 a0 00 00
	00		 imul	 eax, 160		; 000000a0H
  00b28	8b 4d fc	 mov	 ecx, DWORD PTR _this$[ebp]
  00b2b	8b 54 01 4c	 mov	 edx, DWORD PTR [ecx+eax+76]
  00b2f	83 c2 01	 add	 edx, 1
  00b32	8b 45 08	 mov	 eax, DWORD PTR _aIndex$[ebp]
  00b35	69 c0 a0 00 00
	00		 imul	 eax, 160		; 000000a0H
  00b3b	8b 4d fc	 mov	 ecx, DWORD PTR _this$[ebp]
  00b3e	89 54 01 4c	 mov	 DWORD PTR [ecx+eax+76], edx
  00b42	e9 6a 05 00 00	 jmp	 $LN38@FilterSkil
$LN32@FilterSkil:

; 234  : 	case eSkill4:  this->rUser[aIndex].WingsDamagePlus++;		break;

  00b47	8b 45 08	 mov	 eax, DWORD PTR _aIndex$[ebp]
  00b4a	69 c0 a0 00 00
	00		 imul	 eax, 160		; 000000a0H
  00b50	8b 4d fc	 mov	 ecx, DWORD PTR _this$[ebp]
  00b53	8b 54 01 50	 mov	 edx, DWORD PTR [ecx+eax+80]
  00b57	83 c2 01	 add	 edx, 1
  00b5a	8b 45 08	 mov	 eax, DWORD PTR _aIndex$[ebp]
  00b5d	69 c0 a0 00 00
	00		 imul	 eax, 160		; 000000a0H
  00b63	8b 4d fc	 mov	 ecx, DWORD PTR _this$[ebp]
  00b66	89 54 01 50	 mov	 DWORD PTR [ecx+eax+80], edx
  00b6a	e9 42 05 00 00	 jmp	 $LN38@FilterSkil
$LN31@FilterSkil:

; 235  : 	case eSkill5:  this->rUser[aIndex].FinalMana++;		break;

  00b6f	8b 45 08	 mov	 eax, DWORD PTR _aIndex$[ebp]
  00b72	69 c0 a0 00 00
	00		 imul	 eax, 160		; 000000a0H
  00b78	8b 4d fc	 mov	 ecx, DWORD PTR _this$[ebp]
  00b7b	8b 54 01 54	 mov	 edx, DWORD PTR [ecx+eax+84]
  00b7f	83 c2 01	 add	 edx, 1
  00b82	8b 45 08	 mov	 eax, DWORD PTR _aIndex$[ebp]
  00b85	69 c0 a0 00 00
	00		 imul	 eax, 160		; 000000a0H
  00b8b	8b 4d fc	 mov	 ecx, DWORD PTR _this$[ebp]
  00b8e	89 54 01 54	 mov	 DWORD PTR [ecx+eax+84], edx
  00b92	e9 1a 05 00 00	 jmp	 $LN38@FilterSkil
$LN30@FilterSkil:

; 236  : 	case eSkill6:  this->rUser[aIndex].IgnoreDefence++;		break;

  00b97	8b 45 08	 mov	 eax, DWORD PTR _aIndex$[ebp]
  00b9a	69 c0 a0 00 00
	00		 imul	 eax, 160		; 000000a0H
  00ba0	8b 4d fc	 mov	 ecx, DWORD PTR _this$[ebp]
  00ba3	8b 54 01 58	 mov	 edx, DWORD PTR [ecx+eax+88]
  00ba7	83 c2 01	 add	 edx, 1
  00baa	8b 45 08	 mov	 eax, DWORD PTR _aIndex$[ebp]
  00bad	69 c0 a0 00 00
	00		 imul	 eax, 160		; 000000a0H
  00bb3	8b 4d fc	 mov	 ecx, DWORD PTR _this$[ebp]
  00bb6	89 54 01 58	 mov	 DWORD PTR [ecx+eax+88], edx
  00bba	e9 f2 04 00 00	 jmp	 $LN38@FilterSkil
$LN29@FilterSkil:

; 237  : 	case eSkill7:  this->rUser[aIndex].ResetLevel++;		break;

  00bbf	8b 45 08	 mov	 eax, DWORD PTR _aIndex$[ebp]
  00bc2	69 c0 a0 00 00
	00		 imul	 eax, 160		; 000000a0H
  00bc8	8b 4d fc	 mov	 ecx, DWORD PTR _this$[ebp]
  00bcb	8b 54 01 5c	 mov	 edx, DWORD PTR [ecx+eax+92]
  00bcf	83 c2 01	 add	 edx, 1
  00bd2	8b 45 08	 mov	 eax, DWORD PTR _aIndex$[ebp]
  00bd5	69 c0 a0 00 00
	00		 imul	 eax, 160		; 000000a0H
  00bdb	8b 4d fc	 mov	 ecx, DWORD PTR _this$[ebp]
  00bde	89 54 01 5c	 mov	 DWORD PTR [ecx+eax+92], edx
  00be2	e9 ca 04 00 00	 jmp	 $LN38@FilterSkil
$LN28@FilterSkil:

; 238  : 	case eSkill8:  this->rUser[aIndex].Teleport++;		break;

  00be7	8b 45 08	 mov	 eax, DWORD PTR _aIndex$[ebp]
  00bea	69 c0 a0 00 00
	00		 imul	 eax, 160		; 000000a0H
  00bf0	8b 4d fc	 mov	 ecx, DWORD PTR _this$[ebp]
  00bf3	8b 54 01 60	 mov	 edx, DWORD PTR [ecx+eax+96]
  00bf7	83 c2 01	 add	 edx, 1
  00bfa	8b 45 08	 mov	 eax, DWORD PTR _aIndex$[ebp]
  00bfd	69 c0 a0 00 00
	00		 imul	 eax, 160		; 000000a0H
  00c03	8b 4d fc	 mov	 ecx, DWORD PTR _this$[ebp]
  00c06	89 54 01 60	 mov	 DWORD PTR [ecx+eax+96], edx
  00c0a	e9 a2 04 00 00	 jmp	 $LN38@FilterSkil
$LN27@FilterSkil:

; 239  : 	case eSkill9:  this->rUser[aIndex].CriticalDamageRate++;		break;

  00c0f	8b 45 08	 mov	 eax, DWORD PTR _aIndex$[ebp]
  00c12	69 c0 a0 00 00
	00		 imul	 eax, 160		; 000000a0H
  00c18	8b 4d fc	 mov	 ecx, DWORD PTR _this$[ebp]
  00c1b	8b 54 01 64	 mov	 edx, DWORD PTR [ecx+eax+100]
  00c1f	83 c2 01	 add	 edx, 1
  00c22	8b 45 08	 mov	 eax, DWORD PTR _aIndex$[ebp]
  00c25	69 c0 a0 00 00
	00		 imul	 eax, 160		; 000000a0H
  00c2b	8b 4d fc	 mov	 ecx, DWORD PTR _this$[ebp]
  00c2e	89 54 01 64	 mov	 DWORD PTR [ecx+eax+100], edx
  00c32	e9 7a 04 00 00	 jmp	 $LN38@FilterSkil
$LN26@FilterSkil:

; 240  : 	case eSkill10: this->rUser[aIndex].AbsordDamage++;	break;

  00c37	8b 45 08	 mov	 eax, DWORD PTR _aIndex$[ebp]
  00c3a	69 c0 a0 00 00
	00		 imul	 eax, 160		; 000000a0H
  00c40	8b 4d fc	 mov	 ecx, DWORD PTR _this$[ebp]
  00c43	8b 54 01 68	 mov	 edx, DWORD PTR [ecx+eax+104]
  00c47	83 c2 01	 add	 edx, 1
  00c4a	8b 45 08	 mov	 eax, DWORD PTR _aIndex$[ebp]
  00c4d	69 c0 a0 00 00
	00		 imul	 eax, 160		; 000000a0H
  00c53	8b 4d fc	 mov	 ecx, DWORD PTR _this$[ebp]
  00c56	89 54 01 68	 mov	 DWORD PTR [ecx+eax+104], edx
  00c5a	e9 52 04 00 00	 jmp	 $LN38@FilterSkil
$LN25@FilterSkil:

; 241  : 	case eSkill11: this->rUser[aIndex].PetDamageBonus++;	break;

  00c5f	8b 45 08	 mov	 eax, DWORD PTR _aIndex$[ebp]
  00c62	69 c0 a0 00 00
	00		 imul	 eax, 160		; 000000a0H
  00c68	8b 4d fc	 mov	 ecx, DWORD PTR _this$[ebp]
  00c6b	8b 54 01 6c	 mov	 edx, DWORD PTR [ecx+eax+108]
  00c6f	83 c2 01	 add	 edx, 1
  00c72	8b 45 08	 mov	 eax, DWORD PTR _aIndex$[ebp]
  00c75	69 c0 a0 00 00
	00		 imul	 eax, 160		; 000000a0H
  00c7b	8b 4d fc	 mov	 ecx, DWORD PTR _this$[ebp]
  00c7e	89 54 01 6c	 mov	 DWORD PTR [ecx+eax+108], edx
  00c82	e9 2a 04 00 00	 jmp	 $LN38@FilterSkil
$LN24@FilterSkil:

; 242  : 	case eSkill12: this->rUser[aIndex].FinalLife++;	break;

  00c87	8b 45 08	 mov	 eax, DWORD PTR _aIndex$[ebp]
  00c8a	69 c0 a0 00 00
	00		 imul	 eax, 160		; 000000a0H
  00c90	8b 4d fc	 mov	 ecx, DWORD PTR _this$[ebp]
  00c93	8b 54 01 70	 mov	 edx, DWORD PTR [ecx+eax+112]
  00c97	83 c2 01	 add	 edx, 1
  00c9a	8b 45 08	 mov	 eax, DWORD PTR _aIndex$[ebp]
  00c9d	69 c0 a0 00 00
	00		 imul	 eax, 160		; 000000a0H
  00ca3	8b 4d fc	 mov	 ecx, DWORD PTR _this$[ebp]
  00ca6	89 54 01 70	 mov	 DWORD PTR [ecx+eax+112], edx
  00caa	e9 02 04 00 00	 jmp	 $LN38@FilterSkil
$LN23@FilterSkil:

; 243  : 	case eSkill13: this->rUser[aIndex].Strength++;	break;

  00caf	8b 45 08	 mov	 eax, DWORD PTR _aIndex$[ebp]
  00cb2	69 c0 a0 00 00
	00		 imul	 eax, 160		; 000000a0H
  00cb8	8b 4d fc	 mov	 ecx, DWORD PTR _this$[ebp]
  00cbb	8b 54 01 74	 mov	 edx, DWORD PTR [ecx+eax+116]
  00cbf	83 c2 01	 add	 edx, 1
  00cc2	8b 45 08	 mov	 eax, DWORD PTR _aIndex$[ebp]
  00cc5	69 c0 a0 00 00
	00		 imul	 eax, 160		; 000000a0H
  00ccb	8b 4d fc	 mov	 ecx, DWORD PTR _this$[ebp]
  00cce	89 54 01 74	 mov	 DWORD PTR [ecx+eax+116], edx
  00cd2	e9 da 03 00 00	 jmp	 $LN38@FilterSkil
$LN22@FilterSkil:

; 244  : 	case eSkill14: this->rUser[aIndex].DefenceRate++;	break;

  00cd7	8b 45 08	 mov	 eax, DWORD PTR _aIndex$[ebp]
  00cda	69 c0 a0 00 00
	00		 imul	 eax, 160		; 000000a0H
  00ce0	8b 4d fc	 mov	 ecx, DWORD PTR _this$[ebp]
  00ce3	8b 54 01 78	 mov	 edx, DWORD PTR [ecx+eax+120]
  00ce7	83 c2 01	 add	 edx, 1
  00cea	8b 45 08	 mov	 eax, DWORD PTR _aIndex$[ebp]
  00ced	69 c0 a0 00 00
	00		 imul	 eax, 160		; 000000a0H
  00cf3	8b 4d fc	 mov	 ecx, DWORD PTR _this$[ebp]
  00cf6	89 54 01 78	 mov	 DWORD PTR [ecx+eax+120], edx
  00cfa	e9 b2 03 00 00	 jmp	 $LN38@FilterSkil
$LN21@FilterSkil:

; 245  : 	case eSkill15: this->rUser[aIndex].FireDamage++;	break;

  00cff	8b 45 08	 mov	 eax, DWORD PTR _aIndex$[ebp]
  00d02	69 c0 a0 00 00
	00		 imul	 eax, 160		; 000000a0H
  00d08	8b 4d fc	 mov	 ecx, DWORD PTR _this$[ebp]
  00d0b	8b 54 01 7c	 mov	 edx, DWORD PTR [ecx+eax+124]
  00d0f	83 c2 01	 add	 edx, 1
  00d12	8b 45 08	 mov	 eax, DWORD PTR _aIndex$[ebp]
  00d15	69 c0 a0 00 00
	00		 imul	 eax, 160		; 000000a0H
  00d1b	8b 4d fc	 mov	 ecx, DWORD PTR _this$[ebp]
  00d1e	89 54 01 7c	 mov	 DWORD PTR [ecx+eax+124], edx
  00d22	e9 8a 03 00 00	 jmp	 $LN38@FilterSkil
$LN20@FilterSkil:

; 246  : 	case eSkill16: this->rUser[aIndex].Energy++;	break;

  00d27	8b 45 08	 mov	 eax, DWORD PTR _aIndex$[ebp]
  00d2a	69 c0 a0 00 00
	00		 imul	 eax, 160		; 000000a0H
  00d30	8b 4d fc	 mov	 ecx, DWORD PTR _this$[ebp]
  00d33	8b 94 01 80 00
	00 00		 mov	 edx, DWORD PTR [ecx+eax+128]
  00d3a	83 c2 01	 add	 edx, 1
  00d3d	8b 45 08	 mov	 eax, DWORD PTR _aIndex$[ebp]
  00d40	69 c0 a0 00 00
	00		 imul	 eax, 160		; 000000a0H
  00d46	8b 4d fc	 mov	 ecx, DWORD PTR _this$[ebp]
  00d49	89 94 01 80 00
	00 00		 mov	 DWORD PTR [ecx+eax+128], edx
  00d50	e9 5c 03 00 00	 jmp	 $LN38@FilterSkil
$LN19@FilterSkil:

; 247  : 	case eSkill17: this->rUser[aIndex].Agility++;	break;

  00d55	8b 45 08	 mov	 eax, DWORD PTR _aIndex$[ebp]
  00d58	69 c0 a0 00 00
	00		 imul	 eax, 160		; 000000a0H
  00d5e	8b 4d fc	 mov	 ecx, DWORD PTR _this$[ebp]
  00d61	8b 94 01 84 00
	00 00		 mov	 edx, DWORD PTR [ecx+eax+132]
  00d68	83 c2 01	 add	 edx, 1
  00d6b	8b 45 08	 mov	 eax, DWORD PTR _aIndex$[ebp]
  00d6e	69 c0 a0 00 00
	00		 imul	 eax, 160		; 000000a0H
  00d74	8b 4d fc	 mov	 ecx, DWORD PTR _this$[ebp]
  00d77	89 94 01 84 00
	00 00		 mov	 DWORD PTR [ecx+eax+132], edx
  00d7e	e9 2e 03 00 00	 jmp	 $LN38@FilterSkil
$LN18@FilterSkil:

; 248  : 	case eSkill18: this->rUser[aIndex].DoubleDamage++;	break;

  00d83	8b 45 08	 mov	 eax, DWORD PTR _aIndex$[ebp]
  00d86	69 c0 a0 00 00
	00		 imul	 eax, 160		; 000000a0H
  00d8c	8b 4d fc	 mov	 ecx, DWORD PTR _this$[ebp]
  00d8f	8b 94 01 88 00
	00 00		 mov	 edx, DWORD PTR [ecx+eax+136]
  00d96	83 c2 01	 add	 edx, 1
  00d99	8b 45 08	 mov	 eax, DWORD PTR _aIndex$[ebp]
  00d9c	69 c0 a0 00 00
	00		 imul	 eax, 160		; 000000a0H
  00da2	8b 4d fc	 mov	 ecx, DWORD PTR _this$[ebp]
  00da5	89 94 01 88 00
	00 00		 mov	 DWORD PTR [ecx+eax+136], edx
  00dac	e9 00 03 00 00	 jmp	 $LN38@FilterSkil
$LN17@FilterSkil:

; 249  : 	case eSkill19: this->rUser[aIndex].FinalSD++;	break;

  00db1	8b 45 08	 mov	 eax, DWORD PTR _aIndex$[ebp]
  00db4	69 c0 a0 00 00
	00		 imul	 eax, 160		; 000000a0H
  00dba	8b 4d fc	 mov	 ecx, DWORD PTR _this$[ebp]
  00dbd	8b 94 01 8c 00
	00 00		 mov	 edx, DWORD PTR [ecx+eax+140]
  00dc4	83 c2 01	 add	 edx, 1
  00dc7	8b 45 08	 mov	 eax, DWORD PTR _aIndex$[ebp]
  00dca	69 c0 a0 00 00
	00		 imul	 eax, 160		; 000000a0H
  00dd0	8b 4d fc	 mov	 ecx, DWORD PTR _this$[ebp]
  00dd3	89 94 01 8c 00
	00 00		 mov	 DWORD PTR [ecx+eax+140], edx
  00dda	e9 d2 02 00 00	 jmp	 $LN38@FilterSkil
$LN16@FilterSkil:

; 250  : 	case eSkill20: this->rUser[aIndex].FinalDefence++;	break;

  00ddf	8b 45 08	 mov	 eax, DWORD PTR _aIndex$[ebp]
  00de2	69 c0 a0 00 00
	00		 imul	 eax, 160		; 000000a0H
  00de8	8b 4d fc	 mov	 ecx, DWORD PTR _this$[ebp]
  00deb	8b 94 01 90 00
	00 00		 mov	 edx, DWORD PTR [ecx+eax+144]
  00df2	83 c2 01	 add	 edx, 1
  00df5	8b 45 08	 mov	 eax, DWORD PTR _aIndex$[ebp]
  00df8	69 c0 a0 00 00
	00		 imul	 eax, 160		; 000000a0H
  00dfe	8b 4d fc	 mov	 ecx, DWORD PTR _this$[ebp]
  00e01	89 94 01 90 00
	00 00		 mov	 DWORD PTR [ecx+eax+144], edx
  00e08	e9 a4 02 00 00	 jmp	 $LN38@FilterSkil
$LN15@FilterSkil:

; 251  : 	case eSkill21: this->rUser[aIndex].ZenDrop++;	break;

  00e0d	8b 45 08	 mov	 eax, DWORD PTR _aIndex$[ebp]
  00e10	69 c0 a0 00 00
	00		 imul	 eax, 160		; 000000a0H
  00e16	8b 4d fc	 mov	 ecx, DWORD PTR _this$[ebp]
  00e19	8b 94 01 94 00
	00 00		 mov	 edx, DWORD PTR [ecx+eax+148]
  00e20	83 c2 01	 add	 edx, 1
  00e23	8b 45 08	 mov	 eax, DWORD PTR _aIndex$[ebp]
  00e26	69 c0 a0 00 00
	00		 imul	 eax, 160		; 000000a0H
  00e2c	8b 4d fc	 mov	 ecx, DWORD PTR _this$[ebp]
  00e2f	89 94 01 94 00
	00 00		 mov	 DWORD PTR [ecx+eax+148], edx
  00e36	e9 76 02 00 00	 jmp	 $LN38@FilterSkil
$LN14@FilterSkil:

; 252  : 	case eSkill22: this->rUser[aIndex].GuildBonus++;	break;

  00e3b	8b 45 08	 mov	 eax, DWORD PTR _aIndex$[ebp]
  00e3e	69 c0 a0 00 00
	00		 imul	 eax, 160		; 000000a0H
  00e44	8b 4d fc	 mov	 ecx, DWORD PTR _this$[ebp]
  00e47	8b 94 01 98 00
	00 00		 mov	 edx, DWORD PTR [ecx+eax+152]
  00e4e	83 c2 01	 add	 edx, 1
  00e51	8b 45 08	 mov	 eax, DWORD PTR _aIndex$[ebp]
  00e54	69 c0 a0 00 00
	00		 imul	 eax, 160		; 000000a0H
  00e5a	8b 4d fc	 mov	 ecx, DWORD PTR _this$[ebp]
  00e5d	89 94 01 98 00
	00 00		 mov	 DWORD PTR [ecx+eax+152], edx
  00e64	e9 48 02 00 00	 jmp	 $LN38@FilterSkil
$LN13@FilterSkil:

; 253  : 	case eSkill23: this->rUser[aIndex].ReflectDamage++;	break;

  00e69	8b 45 08	 mov	 eax, DWORD PTR _aIndex$[ebp]
  00e6c	69 c0 a0 00 00
	00		 imul	 eax, 160		; 000000a0H
  00e72	8b 4d fc	 mov	 ecx, DWORD PTR _this$[ebp]
  00e75	8b 94 01 9c 00
	00 00		 mov	 edx, DWORD PTR [ecx+eax+156]
  00e7c	83 c2 01	 add	 edx, 1
  00e7f	8b 45 08	 mov	 eax, DWORD PTR _aIndex$[ebp]
  00e82	69 c0 a0 00 00
	00		 imul	 eax, 160		; 000000a0H
  00e88	8b 4d fc	 mov	 ecx, DWORD PTR _this$[ebp]
  00e8b	89 94 01 9c 00
	00 00		 mov	 DWORD PTR [ecx+eax+156], edx
  00e92	e9 1a 02 00 00	 jmp	 $LN38@FilterSkil
$LN12@FilterSkil:

; 254  : 	case eSkill24: this->rUser[aIndex].ExellentDamageRate++;	break;

  00e97	8b 45 08	 mov	 eax, DWORD PTR _aIndex$[ebp]
  00e9a	69 c0 a0 00 00
	00		 imul	 eax, 160		; 000000a0H
  00ea0	8b 4d fc	 mov	 ecx, DWORD PTR _this$[ebp]
  00ea3	8b 94 01 a0 00
	00 00		 mov	 edx, DWORD PTR [ecx+eax+160]
  00eaa	83 c2 01	 add	 edx, 1
  00ead	8b 45 08	 mov	 eax, DWORD PTR _aIndex$[ebp]
  00eb0	69 c0 a0 00 00
	00		 imul	 eax, 160		; 000000a0H
  00eb6	8b 4d fc	 mov	 ecx, DWORD PTR _this$[ebp]
  00eb9	89 94 01 a0 00
	00 00		 mov	 DWORD PTR [ecx+eax+160], edx
  00ec0	e9 ec 01 00 00	 jmp	 $LN38@FilterSkil
$LN11@FilterSkil:

; 255  : 	case eSkill25: this->rUser[aIndex].PvPBonusPlus++;	break;

  00ec5	8b 45 08	 mov	 eax, DWORD PTR _aIndex$[ebp]
  00ec8	69 c0 a0 00 00
	00		 imul	 eax, 160		; 000000a0H
  00ece	8b 4d fc	 mov	 ecx, DWORD PTR _this$[ebp]
  00ed1	8b 94 01 a4 00
	00 00		 mov	 edx, DWORD PTR [ecx+eax+164]
  00ed8	83 c2 01	 add	 edx, 1
  00edb	8b 45 08	 mov	 eax, DWORD PTR _aIndex$[ebp]
  00ede	69 c0 a0 00 00
	00		 imul	 eax, 160		; 000000a0H
  00ee4	8b 4d fc	 mov	 ecx, DWORD PTR _this$[ebp]
  00ee7	89 94 01 a4 00
	00 00		 mov	 DWORD PTR [ecx+eax+164], edx
  00eee	e9 be 01 00 00	 jmp	 $LN38@FilterSkil
$LN10@FilterSkil:

; 256  : 	case eSkill26: this->rUser[aIndex].MinDefence++;	break;

  00ef3	8b 45 08	 mov	 eax, DWORD PTR _aIndex$[ebp]
  00ef6	69 c0 a0 00 00
	00		 imul	 eax, 160		; 000000a0H
  00efc	8b 4d fc	 mov	 ecx, DWORD PTR _this$[ebp]
  00eff	8b 94 01 a8 00
	00 00		 mov	 edx, DWORD PTR [ecx+eax+168]
  00f06	83 c2 01	 add	 edx, 1
  00f09	8b 45 08	 mov	 eax, DWORD PTR _aIndex$[ebp]
  00f0c	69 c0 a0 00 00
	00		 imul	 eax, 160		; 000000a0H
  00f12	8b 4d fc	 mov	 ecx, DWORD PTR _this$[ebp]
  00f15	89 94 01 a8 00
	00 00		 mov	 DWORD PTR [ecx+eax+168], edx
  00f1c	e9 90 01 00 00	 jmp	 $LN38@FilterSkil
$LN9@FilterSkil:

; 257  : 	case eSkill27: this->rUser[aIndex].Experience++;	break;

  00f21	8b 45 08	 mov	 eax, DWORD PTR _aIndex$[ebp]
  00f24	69 c0 a0 00 00
	00		 imul	 eax, 160		; 000000a0H
  00f2a	8b 4d fc	 mov	 ecx, DWORD PTR _this$[ebp]
  00f2d	8b 94 01 ac 00
	00 00		 mov	 edx, DWORD PTR [ecx+eax+172]
  00f34	83 c2 01	 add	 edx, 1
  00f37	8b 45 08	 mov	 eax, DWORD PTR _aIndex$[ebp]
  00f3a	69 c0 a0 00 00
	00		 imul	 eax, 160		; 000000a0H
  00f40	8b 4d fc	 mov	 ecx, DWORD PTR _this$[ebp]
  00f43	89 94 01 ac 00
	00 00		 mov	 DWORD PTR [ecx+eax+172], edx
  00f4a	e9 62 01 00 00	 jmp	 $LN38@FilterSkil
$LN8@FilterSkil:

; 258  : 	case eSkill28: this->rUser[aIndex].StartSD++;	break;

  00f4f	8b 45 08	 mov	 eax, DWORD PTR _aIndex$[ebp]
  00f52	69 c0 a0 00 00
	00		 imul	 eax, 160		; 000000a0H
  00f58	8b 4d fc	 mov	 ecx, DWORD PTR _this$[ebp]
  00f5b	8b 94 01 b0 00
	00 00		 mov	 edx, DWORD PTR [ecx+eax+176]
  00f62	83 c2 01	 add	 edx, 1
  00f65	8b 45 08	 mov	 eax, DWORD PTR _aIndex$[ebp]
  00f68	69 c0 a0 00 00
	00		 imul	 eax, 160		; 000000a0H
  00f6e	8b 4d fc	 mov	 ecx, DWORD PTR _this$[ebp]
  00f71	89 94 01 b0 00
	00 00		 mov	 DWORD PTR [ecx+eax+176], edx
  00f78	e9 34 01 00 00	 jmp	 $LN38@FilterSkil
$LN7@FilterSkil:

; 259  : 	case eSkill29: this->rUser[aIndex].PartyBonus++;	break;

  00f7d	8b 45 08	 mov	 eax, DWORD PTR _aIndex$[ebp]
  00f80	69 c0 a0 00 00
	00		 imul	 eax, 160		; 000000a0H
  00f86	8b 4d fc	 mov	 ecx, DWORD PTR _this$[ebp]
  00f89	8b 94 01 b4 00
	00 00		 mov	 edx, DWORD PTR [ecx+eax+180]
  00f90	83 c2 01	 add	 edx, 1
  00f93	8b 45 08	 mov	 eax, DWORD PTR _aIndex$[ebp]
  00f96	69 c0 a0 00 00
	00		 imul	 eax, 160		; 000000a0H
  00f9c	8b 4d fc	 mov	 ecx, DWORD PTR _this$[ebp]
  00f9f	89 94 01 b4 00
	00 00		 mov	 DWORD PTR [ecx+eax+180], edx
  00fa6	e9 06 01 00 00	 jmp	 $LN38@FilterSkil
$LN6@FilterSkil:

; 260  : 	case eSkill30: this->rUser[aIndex].IceDamage++;	break;

  00fab	8b 45 08	 mov	 eax, DWORD PTR _aIndex$[ebp]
  00fae	69 c0 a0 00 00
	00		 imul	 eax, 160		; 000000a0H
  00fb4	8b 4d fc	 mov	 ecx, DWORD PTR _this$[ebp]
  00fb7	8b 94 01 b8 00
	00 00		 mov	 edx, DWORD PTR [ecx+eax+184]
  00fbe	83 c2 01	 add	 edx, 1
  00fc1	8b 45 08	 mov	 eax, DWORD PTR _aIndex$[ebp]
  00fc4	69 c0 a0 00 00
	00		 imul	 eax, 160		; 000000a0H
  00fca	8b 4d fc	 mov	 ecx, DWORD PTR _this$[ebp]
  00fcd	89 94 01 b8 00
	00 00		 mov	 DWORD PTR [ecx+eax+184], edx
  00fd4	e9 d8 00 00 00	 jmp	 $LN38@FilterSkil
$LN5@FilterSkil:

; 261  : 	case eSkill31: this->rUser[aIndex].DistanceAttack++;	break;

  00fd9	8b 45 08	 mov	 eax, DWORD PTR _aIndex$[ebp]
  00fdc	69 c0 a0 00 00
	00		 imul	 eax, 160		; 000000a0H
  00fe2	8b 4d fc	 mov	 ecx, DWORD PTR _this$[ebp]
  00fe5	8b 94 01 bc 00
	00 00		 mov	 edx, DWORD PTR [ecx+eax+188]
  00fec	83 c2 01	 add	 edx, 1
  00fef	8b 45 08	 mov	 eax, DWORD PTR _aIndex$[ebp]
  00ff2	69 c0 a0 00 00
	00		 imul	 eax, 160		; 000000a0H
  00ff8	8b 4d fc	 mov	 ecx, DWORD PTR _this$[ebp]
  00ffb	89 94 01 bc 00
	00 00		 mov	 DWORD PTR [ecx+eax+188], edx
  01002	e9 aa 00 00 00	 jmp	 $LN38@FilterSkil
$LN4@FilterSkil:

; 262  : 	case eSkill32: this->rUser[aIndex].AttackRate++;	break;

  01007	8b 45 08	 mov	 eax, DWORD PTR _aIndex$[ebp]
  0100a	69 c0 a0 00 00
	00		 imul	 eax, 160		; 000000a0H
  01010	8b 4d fc	 mov	 ecx, DWORD PTR _this$[ebp]
  01013	8b 94 01 c0 00
	00 00		 mov	 edx, DWORD PTR [ecx+eax+192]
  0101a	83 c2 01	 add	 edx, 1
  0101d	8b 45 08	 mov	 eax, DWORD PTR _aIndex$[ebp]
  01020	69 c0 a0 00 00
	00		 imul	 eax, 160		; 000000a0H
  01026	8b 4d fc	 mov	 ecx, DWORD PTR _this$[ebp]
  01029	89 94 01 c0 00
	00 00		 mov	 DWORD PTR [ecx+eax+192], edx
  01030	eb 7f		 jmp	 SHORT $LN38@FilterSkil
$LN3@FilterSkil:

; 263  : 	case eSkill33: this->rUser[aIndex].WeaponBonus++;	break;

  01032	8b 45 08	 mov	 eax, DWORD PTR _aIndex$[ebp]
  01035	69 c0 a0 00 00
	00		 imul	 eax, 160		; 000000a0H
  0103b	8b 4d fc	 mov	 ecx, DWORD PTR _this$[ebp]
  0103e	8b 94 01 c4 00
	00 00		 mov	 edx, DWORD PTR [ecx+eax+196]
  01045	83 c2 01	 add	 edx, 1
  01048	8b 45 08	 mov	 eax, DWORD PTR _aIndex$[ebp]
  0104b	69 c0 a0 00 00
	00		 imul	 eax, 160		; 000000a0H
  01051	8b 4d fc	 mov	 ecx, DWORD PTR _this$[ebp]
  01054	89 94 01 c4 00
	00 00		 mov	 DWORD PTR [ecx+eax+196], edx
  0105b	eb 54		 jmp	 SHORT $LN38@FilterSkil
$LN2@FilterSkil:

; 264  : 	case eSkill34: this->rUser[aIndex].ExellentDamage++;	break;

  0105d	8b 45 08	 mov	 eax, DWORD PTR _aIndex$[ebp]
  01060	69 c0 a0 00 00
	00		 imul	 eax, 160		; 000000a0H
  01066	8b 4d fc	 mov	 ecx, DWORD PTR _this$[ebp]
  01069	8b 94 01 c8 00
	00 00		 mov	 edx, DWORD PTR [ecx+eax+200]
  01070	83 c2 01	 add	 edx, 1
  01073	8b 45 08	 mov	 eax, DWORD PTR _aIndex$[ebp]
  01076	69 c0 a0 00 00
	00		 imul	 eax, 160		; 000000a0H
  0107c	8b 4d fc	 mov	 ecx, DWORD PTR _this$[ebp]
  0107f	89 94 01 c8 00
	00 00		 mov	 DWORD PTR [ecx+eax+200], edx
  01086	eb 29		 jmp	 SHORT $LN38@FilterSkil
$LN1@FilterSkil:

; 265  : 	case eSkill35: this->rUser[aIndex].CriticalDamage++;	break;

  01088	8b 45 08	 mov	 eax, DWORD PTR _aIndex$[ebp]
  0108b	69 c0 a0 00 00
	00		 imul	 eax, 160		; 000000a0H
  01091	8b 4d fc	 mov	 ecx, DWORD PTR _this$[ebp]
  01094	8b 94 01 cc 00
	00 00		 mov	 edx, DWORD PTR [ecx+eax+204]
  0109b	83 c2 01	 add	 edx, 1
  0109e	8b 45 08	 mov	 eax, DWORD PTR _aIndex$[ebp]
  010a1	69 c0 a0 00 00
	00		 imul	 eax, 160		; 000000a0H
  010a7	8b 4d fc	 mov	 ecx, DWORD PTR _this$[ebp]
  010aa	89 94 01 cc 00
	00 00		 mov	 DWORD PTR [ecx+eax+204], edx
$LN38@FilterSkil:

; 266  : 	}
; 267  : 
; 268  : 	//LPOBJ lpObj =&gObj[aIndex];
; 269  : 	//if(SkillID == eSkill2)
; 270  : 	//{
; 271  : 	//	lpObj->LevelUpPoint += this->rSkill[eSkill2].StartDamage; 
; 272  : 	//	lpObj->ExFreePoints += this->rSkill[eSkill2].StartDamage;
; 273  : 	//}
; 274  : 	////Fix Debug
; 275  : 	////Strength
; 276  : 	//if(SkillID == eSkill13)
; 277  : 	//{
; 278  : 	//	lpObj->Strength += this->rSkill[SkillID].StartDamage;
; 279  : 	//}
; 280  : 	////Energy
; 281  : 	//if(SkillID == eSkill16)
; 282  : 	//{
; 283  : 	//	lpObj->Energy += this->rSkill[SkillID].StartDamage;
; 284  : 	//}
; 285  : 	////Agility
; 286  : 	//if(SkillID == eSkill17)
; 287  : 	//{
; 288  : 	//	lpObj->Dexterity += this->ReturnCalc(aIndex, SkillID,0);
; 289  : 	//}
; 290  : }

  010b1	5f		 pop	 edi
  010b2	5e		 pop	 esi
  010b3	5b		 pop	 ebx
  010b4	8b e5		 mov	 esp, ebp
  010b6	5d		 pop	 ebp
  010b7	c2 08 00	 ret	 8
  010ba	8b ff		 npad	 2
$LN40@FilterSkil:
  010bc	00 00 00 00	 DD	 $LN35@FilterSkil
  010c0	00 00 00 00	 DD	 $LN34@FilterSkil
  010c4	00 00 00 00	 DD	 $LN33@FilterSkil
  010c8	00 00 00 00	 DD	 $LN32@FilterSkil
  010cc	00 00 00 00	 DD	 $LN31@FilterSkil
  010d0	00 00 00 00	 DD	 $LN30@FilterSkil
  010d4	00 00 00 00	 DD	 $LN29@FilterSkil
  010d8	00 00 00 00	 DD	 $LN28@FilterSkil
  010dc	00 00 00 00	 DD	 $LN27@FilterSkil
  010e0	00 00 00 00	 DD	 $LN26@FilterSkil
  010e4	00 00 00 00	 DD	 $LN25@FilterSkil
  010e8	00 00 00 00	 DD	 $LN24@FilterSkil
  010ec	00 00 00 00	 DD	 $LN23@FilterSkil
  010f0	00 00 00 00	 DD	 $LN22@FilterSkil
  010f4	00 00 00 00	 DD	 $LN21@FilterSkil
  010f8	00 00 00 00	 DD	 $LN20@FilterSkil
  010fc	00 00 00 00	 DD	 $LN19@FilterSkil
  01100	00 00 00 00	 DD	 $LN18@FilterSkil
  01104	00 00 00 00	 DD	 $LN17@FilterSkil
  01108	00 00 00 00	 DD	 $LN16@FilterSkil
  0110c	00 00 00 00	 DD	 $LN15@FilterSkil
  01110	00 00 00 00	 DD	 $LN14@FilterSkil
  01114	00 00 00 00	 DD	 $LN13@FilterSkil
  01118	00 00 00 00	 DD	 $LN12@FilterSkil
  0111c	00 00 00 00	 DD	 $LN11@FilterSkil
  01120	00 00 00 00	 DD	 $LN10@FilterSkil
  01124	00 00 00 00	 DD	 $LN9@FilterSkil
  01128	00 00 00 00	 DD	 $LN8@FilterSkil
  0112c	00 00 00 00	 DD	 $LN7@FilterSkil
  01130	00 00 00 00	 DD	 $LN6@FilterSkil
  01134	00 00 00 00	 DD	 $LN5@FilterSkil
  01138	00 00 00 00	 DD	 $LN4@FilterSkil
  0113c	00 00 00 00	 DD	 $LN3@FilterSkil
  01140	00 00 00 00	 DD	 $LN2@FilterSkil
  01144	00 00 00 00	 DD	 $LN1@FilterSkil
?FilterSkill@cSystemOfRage@@QAEXHH@Z ENDP		; cSystemOfRage::FilterSkill
_TEXT	ENDS
PUBLIC	?ReturnPoint@cSystemOfRage@@QAEHHH@Z		; cSystemOfRage::ReturnPoint
EXTRN	?CloseClient@@YAXH@Z:PROC			; CloseClient
; Function compile flags: /Odtp /ZI
_TEXT	SEGMENT
tv64 = -72						; size = 4
_this$ = -4						; size = 4
_aIndex$ = 8						; size = 4
_SkillID$ = 12						; size = 4
?ReturnPoint@cSystemOfRage@@QAEHHH@Z PROC		; cSystemOfRage::ReturnPoint
; _this$ = ecx

; 293  : {

  01150	55		 push	 ebp
  01151	8b ec		 mov	 ebp, esp
  01153	83 ec 48	 sub	 esp, 72			; 00000048H
  01156	53		 push	 ebx
  01157	56		 push	 esi
  01158	57		 push	 edi
  01159	89 4d fc	 mov	 DWORD PTR _this$[ebp], ecx

; 294  : 	switch(SkillID)

  0115c	8b 45 0c	 mov	 eax, DWORD PTR _SkillID$[ebp]
  0115f	89 45 b8	 mov	 DWORD PTR tv64[ebp], eax
  01162	8b 4d b8	 mov	 ecx, DWORD PTR tv64[ebp]
  01165	83 e9 01	 sub	 ecx, 1
  01168	89 4d b8	 mov	 DWORD PTR tv64[ebp], ecx
  0116b	83 7d b8 22	 cmp	 DWORD PTR tv64[ebp], 34	; 00000022H
  0116f	0f 87 b1 03 00
	00		 ja	 $LN36@ReturnPoin
  01175	8b 55 b8	 mov	 edx, DWORD PTR tv64[ebp]
  01178	ff 24 95 00 00
	00 00		 jmp	 DWORD PTR $LN40@ReturnPoin[edx*4]
$LN35@ReturnPoin:

; 295  : 	{
; 296  : 	case eSkill1:  return this->rUser[aIndex].Damage;		break;

  0117f	8b 45 08	 mov	 eax, DWORD PTR _aIndex$[ebp]
  01182	69 c0 a0 00 00
	00		 imul	 eax, 160		; 000000a0H
  01188	8b 4d fc	 mov	 ecx, DWORD PTR _this$[ebp]
  0118b	8b 44 01 44	 mov	 eax, DWORD PTR [ecx+eax+68]
  0118f	e9 a1 03 00 00	 jmp	 $LN38@ReturnPoin
  01194	e9 8d 03 00 00	 jmp	 $LN36@ReturnPoin
$LN34@ReturnPoin:

; 297  : 	case eSkill2:  return this->rUser[aIndex].FreePoints;		break;

  01199	8b 45 08	 mov	 eax, DWORD PTR _aIndex$[ebp]
  0119c	69 c0 a0 00 00
	00		 imul	 eax, 160		; 000000a0H
  011a2	8b 4d fc	 mov	 ecx, DWORD PTR _this$[ebp]
  011a5	8b 44 01 48	 mov	 eax, DWORD PTR [ecx+eax+72]
  011a9	e9 87 03 00 00	 jmp	 $LN38@ReturnPoin
  011ae	e9 73 03 00 00	 jmp	 $LN36@ReturnPoin
$LN33@ReturnPoin:

; 298  : 	case eSkill3:  return this->rUser[aIndex].SummonPet;		break;

  011b3	8b 45 08	 mov	 eax, DWORD PTR _aIndex$[ebp]
  011b6	69 c0 a0 00 00
	00		 imul	 eax, 160		; 000000a0H
  011bc	8b 4d fc	 mov	 ecx, DWORD PTR _this$[ebp]
  011bf	8b 44 01 4c	 mov	 eax, DWORD PTR [ecx+eax+76]
  011c3	e9 6d 03 00 00	 jmp	 $LN38@ReturnPoin
  011c8	e9 59 03 00 00	 jmp	 $LN36@ReturnPoin
$LN32@ReturnPoin:

; 299  : 	case eSkill4:  return this->rUser[aIndex].WingsDamagePlus;		break;

  011cd	8b 45 08	 mov	 eax, DWORD PTR _aIndex$[ebp]
  011d0	69 c0 a0 00 00
	00		 imul	 eax, 160		; 000000a0H
  011d6	8b 4d fc	 mov	 ecx, DWORD PTR _this$[ebp]
  011d9	8b 44 01 50	 mov	 eax, DWORD PTR [ecx+eax+80]
  011dd	e9 53 03 00 00	 jmp	 $LN38@ReturnPoin
  011e2	e9 3f 03 00 00	 jmp	 $LN36@ReturnPoin
$LN31@ReturnPoin:

; 300  : 	case eSkill5:  return this->rUser[aIndex].FinalMana;		break;

  011e7	8b 45 08	 mov	 eax, DWORD PTR _aIndex$[ebp]
  011ea	69 c0 a0 00 00
	00		 imul	 eax, 160		; 000000a0H
  011f0	8b 4d fc	 mov	 ecx, DWORD PTR _this$[ebp]
  011f3	8b 44 01 54	 mov	 eax, DWORD PTR [ecx+eax+84]
  011f7	e9 39 03 00 00	 jmp	 $LN38@ReturnPoin
  011fc	e9 25 03 00 00	 jmp	 $LN36@ReturnPoin
$LN30@ReturnPoin:

; 301  : 	case eSkill6:  return this->rUser[aIndex].IgnoreDefence;		break;

  01201	8b 45 08	 mov	 eax, DWORD PTR _aIndex$[ebp]
  01204	69 c0 a0 00 00
	00		 imul	 eax, 160		; 000000a0H
  0120a	8b 4d fc	 mov	 ecx, DWORD PTR _this$[ebp]
  0120d	8b 44 01 58	 mov	 eax, DWORD PTR [ecx+eax+88]
  01211	e9 1f 03 00 00	 jmp	 $LN38@ReturnPoin
  01216	e9 0b 03 00 00	 jmp	 $LN36@ReturnPoin
$LN29@ReturnPoin:

; 302  : 	case eSkill7:  return this->rUser[aIndex].ResetLevel;		break;

  0121b	8b 45 08	 mov	 eax, DWORD PTR _aIndex$[ebp]
  0121e	69 c0 a0 00 00
	00		 imul	 eax, 160		; 000000a0H
  01224	8b 4d fc	 mov	 ecx, DWORD PTR _this$[ebp]
  01227	8b 44 01 5c	 mov	 eax, DWORD PTR [ecx+eax+92]
  0122b	e9 05 03 00 00	 jmp	 $LN38@ReturnPoin
  01230	e9 f1 02 00 00	 jmp	 $LN36@ReturnPoin
$LN28@ReturnPoin:

; 303  : 	case eSkill8:  return this->rUser[aIndex].Teleport;		break;

  01235	8b 45 08	 mov	 eax, DWORD PTR _aIndex$[ebp]
  01238	69 c0 a0 00 00
	00		 imul	 eax, 160		; 000000a0H
  0123e	8b 4d fc	 mov	 ecx, DWORD PTR _this$[ebp]
  01241	8b 44 01 60	 mov	 eax, DWORD PTR [ecx+eax+96]
  01245	e9 eb 02 00 00	 jmp	 $LN38@ReturnPoin
  0124a	e9 d7 02 00 00	 jmp	 $LN36@ReturnPoin
$LN27@ReturnPoin:

; 304  : 	case eSkill9:  return this->rUser[aIndex].CriticalDamageRate;		break;

  0124f	8b 45 08	 mov	 eax, DWORD PTR _aIndex$[ebp]
  01252	69 c0 a0 00 00
	00		 imul	 eax, 160		; 000000a0H
  01258	8b 4d fc	 mov	 ecx, DWORD PTR _this$[ebp]
  0125b	8b 44 01 64	 mov	 eax, DWORD PTR [ecx+eax+100]
  0125f	e9 d1 02 00 00	 jmp	 $LN38@ReturnPoin
  01264	e9 bd 02 00 00	 jmp	 $LN36@ReturnPoin
$LN26@ReturnPoin:

; 305  : 	case eSkill10: return this->rUser[aIndex].AbsordDamage;	break;

  01269	8b 45 08	 mov	 eax, DWORD PTR _aIndex$[ebp]
  0126c	69 c0 a0 00 00
	00		 imul	 eax, 160		; 000000a0H
  01272	8b 4d fc	 mov	 ecx, DWORD PTR _this$[ebp]
  01275	8b 44 01 68	 mov	 eax, DWORD PTR [ecx+eax+104]
  01279	e9 b7 02 00 00	 jmp	 $LN38@ReturnPoin
  0127e	e9 a3 02 00 00	 jmp	 $LN36@ReturnPoin
$LN25@ReturnPoin:

; 306  : 	case eSkill11: return this->rUser[aIndex].PetDamageBonus;	break;

  01283	8b 45 08	 mov	 eax, DWORD PTR _aIndex$[ebp]
  01286	69 c0 a0 00 00
	00		 imul	 eax, 160		; 000000a0H
  0128c	8b 4d fc	 mov	 ecx, DWORD PTR _this$[ebp]
  0128f	8b 44 01 6c	 mov	 eax, DWORD PTR [ecx+eax+108]
  01293	e9 9d 02 00 00	 jmp	 $LN38@ReturnPoin
  01298	e9 89 02 00 00	 jmp	 $LN36@ReturnPoin
$LN24@ReturnPoin:

; 307  : 	case eSkill12: return this->rUser[aIndex].FinalLife;	break;

  0129d	8b 45 08	 mov	 eax, DWORD PTR _aIndex$[ebp]
  012a0	69 c0 a0 00 00
	00		 imul	 eax, 160		; 000000a0H
  012a6	8b 4d fc	 mov	 ecx, DWORD PTR _this$[ebp]
  012a9	8b 44 01 70	 mov	 eax, DWORD PTR [ecx+eax+112]
  012ad	e9 83 02 00 00	 jmp	 $LN38@ReturnPoin
  012b2	e9 6f 02 00 00	 jmp	 $LN36@ReturnPoin
$LN23@ReturnPoin:

; 308  : 	case eSkill13: return this->rUser[aIndex].Strength;	break;

  012b7	8b 45 08	 mov	 eax, DWORD PTR _aIndex$[ebp]
  012ba	69 c0 a0 00 00
	00		 imul	 eax, 160		; 000000a0H
  012c0	8b 4d fc	 mov	 ecx, DWORD PTR _this$[ebp]
  012c3	8b 44 01 74	 mov	 eax, DWORD PTR [ecx+eax+116]
  012c7	e9 69 02 00 00	 jmp	 $LN38@ReturnPoin
  012cc	e9 55 02 00 00	 jmp	 $LN36@ReturnPoin
$LN22@ReturnPoin:

; 309  : 	case eSkill14: return this->rUser[aIndex].DefenceRate;	break;

  012d1	8b 45 08	 mov	 eax, DWORD PTR _aIndex$[ebp]
  012d4	69 c0 a0 00 00
	00		 imul	 eax, 160		; 000000a0H
  012da	8b 4d fc	 mov	 ecx, DWORD PTR _this$[ebp]
  012dd	8b 44 01 78	 mov	 eax, DWORD PTR [ecx+eax+120]
  012e1	e9 4f 02 00 00	 jmp	 $LN38@ReturnPoin
  012e6	e9 3b 02 00 00	 jmp	 $LN36@ReturnPoin
$LN21@ReturnPoin:

; 310  : 	case eSkill15: return this->rUser[aIndex].FireDamage;	break;

  012eb	8b 45 08	 mov	 eax, DWORD PTR _aIndex$[ebp]
  012ee	69 c0 a0 00 00
	00		 imul	 eax, 160		; 000000a0H
  012f4	8b 4d fc	 mov	 ecx, DWORD PTR _this$[ebp]
  012f7	8b 44 01 7c	 mov	 eax, DWORD PTR [ecx+eax+124]
  012fb	e9 35 02 00 00	 jmp	 $LN38@ReturnPoin
  01300	e9 21 02 00 00	 jmp	 $LN36@ReturnPoin
$LN20@ReturnPoin:

; 311  : 	case eSkill16: return this->rUser[aIndex].Energy;	break;

  01305	8b 45 08	 mov	 eax, DWORD PTR _aIndex$[ebp]
  01308	69 c0 a0 00 00
	00		 imul	 eax, 160		; 000000a0H
  0130e	8b 4d fc	 mov	 ecx, DWORD PTR _this$[ebp]
  01311	8b 84 01 80 00
	00 00		 mov	 eax, DWORD PTR [ecx+eax+128]
  01318	e9 18 02 00 00	 jmp	 $LN38@ReturnPoin
  0131d	e9 04 02 00 00	 jmp	 $LN36@ReturnPoin
$LN19@ReturnPoin:

; 312  : 	case eSkill17: return this->rUser[aIndex].Agility;	break;

  01322	8b 45 08	 mov	 eax, DWORD PTR _aIndex$[ebp]
  01325	69 c0 a0 00 00
	00		 imul	 eax, 160		; 000000a0H
  0132b	8b 4d fc	 mov	 ecx, DWORD PTR _this$[ebp]
  0132e	8b 84 01 84 00
	00 00		 mov	 eax, DWORD PTR [ecx+eax+132]
  01335	e9 fb 01 00 00	 jmp	 $LN38@ReturnPoin
  0133a	e9 e7 01 00 00	 jmp	 $LN36@ReturnPoin
$LN18@ReturnPoin:

; 313  : 	case eSkill18: return this->rUser[aIndex].DoubleDamage;	break;

  0133f	8b 45 08	 mov	 eax, DWORD PTR _aIndex$[ebp]
  01342	69 c0 a0 00 00
	00		 imul	 eax, 160		; 000000a0H
  01348	8b 4d fc	 mov	 ecx, DWORD PTR _this$[ebp]
  0134b	8b 84 01 88 00
	00 00		 mov	 eax, DWORD PTR [ecx+eax+136]
  01352	e9 de 01 00 00	 jmp	 $LN38@ReturnPoin
  01357	e9 ca 01 00 00	 jmp	 $LN36@ReturnPoin
$LN17@ReturnPoin:

; 314  : 	case eSkill19: return this->rUser[aIndex].FinalSD;	break;

  0135c	8b 45 08	 mov	 eax, DWORD PTR _aIndex$[ebp]
  0135f	69 c0 a0 00 00
	00		 imul	 eax, 160		; 000000a0H
  01365	8b 4d fc	 mov	 ecx, DWORD PTR _this$[ebp]
  01368	8b 84 01 8c 00
	00 00		 mov	 eax, DWORD PTR [ecx+eax+140]
  0136f	e9 c1 01 00 00	 jmp	 $LN38@ReturnPoin
  01374	e9 ad 01 00 00	 jmp	 $LN36@ReturnPoin
$LN16@ReturnPoin:

; 315  : 	case eSkill20: return this->rUser[aIndex].FinalDefence;	break;

  01379	8b 45 08	 mov	 eax, DWORD PTR _aIndex$[ebp]
  0137c	69 c0 a0 00 00
	00		 imul	 eax, 160		; 000000a0H
  01382	8b 4d fc	 mov	 ecx, DWORD PTR _this$[ebp]
  01385	8b 84 01 90 00
	00 00		 mov	 eax, DWORD PTR [ecx+eax+144]
  0138c	e9 a4 01 00 00	 jmp	 $LN38@ReturnPoin
  01391	e9 90 01 00 00	 jmp	 $LN36@ReturnPoin
$LN15@ReturnPoin:

; 316  : 	case eSkill21: return this->rUser[aIndex].ZenDrop;	break;

  01396	8b 45 08	 mov	 eax, DWORD PTR _aIndex$[ebp]
  01399	69 c0 a0 00 00
	00		 imul	 eax, 160		; 000000a0H
  0139f	8b 4d fc	 mov	 ecx, DWORD PTR _this$[ebp]
  013a2	8b 84 01 94 00
	00 00		 mov	 eax, DWORD PTR [ecx+eax+148]
  013a9	e9 87 01 00 00	 jmp	 $LN38@ReturnPoin
  013ae	e9 73 01 00 00	 jmp	 $LN36@ReturnPoin
$LN14@ReturnPoin:

; 317  : 	case eSkill22: return this->rUser[aIndex].GuildBonus;	break;

  013b3	8b 45 08	 mov	 eax, DWORD PTR _aIndex$[ebp]
  013b6	69 c0 a0 00 00
	00		 imul	 eax, 160		; 000000a0H
  013bc	8b 4d fc	 mov	 ecx, DWORD PTR _this$[ebp]
  013bf	8b 84 01 98 00
	00 00		 mov	 eax, DWORD PTR [ecx+eax+152]
  013c6	e9 6a 01 00 00	 jmp	 $LN38@ReturnPoin
  013cb	e9 56 01 00 00	 jmp	 $LN36@ReturnPoin
$LN13@ReturnPoin:

; 318  : 	case eSkill23: return this->rUser[aIndex].ReflectDamage;	break;

  013d0	8b 45 08	 mov	 eax, DWORD PTR _aIndex$[ebp]
  013d3	69 c0 a0 00 00
	00		 imul	 eax, 160		; 000000a0H
  013d9	8b 4d fc	 mov	 ecx, DWORD PTR _this$[ebp]
  013dc	8b 84 01 9c 00
	00 00		 mov	 eax, DWORD PTR [ecx+eax+156]
  013e3	e9 4d 01 00 00	 jmp	 $LN38@ReturnPoin
  013e8	e9 39 01 00 00	 jmp	 $LN36@ReturnPoin
$LN12@ReturnPoin:

; 319  : 	case eSkill24: return this->rUser[aIndex].ExellentDamageRate;	break;

  013ed	8b 45 08	 mov	 eax, DWORD PTR _aIndex$[ebp]
  013f0	69 c0 a0 00 00
	00		 imul	 eax, 160		; 000000a0H
  013f6	8b 4d fc	 mov	 ecx, DWORD PTR _this$[ebp]
  013f9	8b 84 01 a0 00
	00 00		 mov	 eax, DWORD PTR [ecx+eax+160]
  01400	e9 30 01 00 00	 jmp	 $LN38@ReturnPoin
  01405	e9 1c 01 00 00	 jmp	 $LN36@ReturnPoin
$LN11@ReturnPoin:

; 320  : 	case eSkill25: return this->rUser[aIndex].PvPBonusPlus;	break;

  0140a	8b 45 08	 mov	 eax, DWORD PTR _aIndex$[ebp]
  0140d	69 c0 a0 00 00
	00		 imul	 eax, 160		; 000000a0H
  01413	8b 4d fc	 mov	 ecx, DWORD PTR _this$[ebp]
  01416	8b 84 01 a4 00
	00 00		 mov	 eax, DWORD PTR [ecx+eax+164]
  0141d	e9 13 01 00 00	 jmp	 $LN38@ReturnPoin
  01422	e9 ff 00 00 00	 jmp	 $LN36@ReturnPoin
$LN10@ReturnPoin:

; 321  : 	case eSkill26: return this->rUser[aIndex].MinDefence;	break;

  01427	8b 45 08	 mov	 eax, DWORD PTR _aIndex$[ebp]
  0142a	69 c0 a0 00 00
	00		 imul	 eax, 160		; 000000a0H
  01430	8b 4d fc	 mov	 ecx, DWORD PTR _this$[ebp]
  01433	8b 84 01 a8 00
	00 00		 mov	 eax, DWORD PTR [ecx+eax+168]
  0143a	e9 f6 00 00 00	 jmp	 $LN38@ReturnPoin
  0143f	e9 e2 00 00 00	 jmp	 $LN36@ReturnPoin
$LN9@ReturnPoin:

; 322  : 	case eSkill27: return this->rUser[aIndex].Experience;	break;

  01444	8b 45 08	 mov	 eax, DWORD PTR _aIndex$[ebp]
  01447	69 c0 a0 00 00
	00		 imul	 eax, 160		; 000000a0H
  0144d	8b 4d fc	 mov	 ecx, DWORD PTR _this$[ebp]
  01450	8b 84 01 ac 00
	00 00		 mov	 eax, DWORD PTR [ecx+eax+172]
  01457	e9 d9 00 00 00	 jmp	 $LN38@ReturnPoin
  0145c	e9 c5 00 00 00	 jmp	 $LN36@ReturnPoin
$LN8@ReturnPoin:

; 323  : 	case eSkill28: return this->rUser[aIndex].StartSD;	break;

  01461	8b 45 08	 mov	 eax, DWORD PTR _aIndex$[ebp]
  01464	69 c0 a0 00 00
	00		 imul	 eax, 160		; 000000a0H
  0146a	8b 4d fc	 mov	 ecx, DWORD PTR _this$[ebp]
  0146d	8b 84 01 b0 00
	00 00		 mov	 eax, DWORD PTR [ecx+eax+176]
  01474	e9 bc 00 00 00	 jmp	 $LN38@ReturnPoin
  01479	e9 a8 00 00 00	 jmp	 $LN36@ReturnPoin
$LN7@ReturnPoin:

; 324  : 	case eSkill29: return this->rUser[aIndex].PartyBonus;	break;

  0147e	8b 45 08	 mov	 eax, DWORD PTR _aIndex$[ebp]
  01481	69 c0 a0 00 00
	00		 imul	 eax, 160		; 000000a0H
  01487	8b 4d fc	 mov	 ecx, DWORD PTR _this$[ebp]
  0148a	8b 84 01 b4 00
	00 00		 mov	 eax, DWORD PTR [ecx+eax+180]
  01491	e9 9f 00 00 00	 jmp	 $LN38@ReturnPoin
  01496	e9 8b 00 00 00	 jmp	 $LN36@ReturnPoin
$LN6@ReturnPoin:

; 325  : 	case eSkill30: return this->rUser[aIndex].IceDamage;	break;

  0149b	8b 45 08	 mov	 eax, DWORD PTR _aIndex$[ebp]
  0149e	69 c0 a0 00 00
	00		 imul	 eax, 160		; 000000a0H
  014a4	8b 4d fc	 mov	 ecx, DWORD PTR _this$[ebp]
  014a7	8b 84 01 b8 00
	00 00		 mov	 eax, DWORD PTR [ecx+eax+184]
  014ae	e9 82 00 00 00	 jmp	 $LN38@ReturnPoin
  014b3	eb 71		 jmp	 SHORT $LN36@ReturnPoin
$LN5@ReturnPoin:

; 326  : 	case eSkill31: return this->rUser[aIndex].DistanceAttack;	break;

  014b5	8b 45 08	 mov	 eax, DWORD PTR _aIndex$[ebp]
  014b8	69 c0 a0 00 00
	00		 imul	 eax, 160		; 000000a0H
  014be	8b 4d fc	 mov	 ecx, DWORD PTR _this$[ebp]
  014c1	8b 84 01 bc 00
	00 00		 mov	 eax, DWORD PTR [ecx+eax+188]
  014c8	eb 6b		 jmp	 SHORT $LN38@ReturnPoin
  014ca	eb 5a		 jmp	 SHORT $LN36@ReturnPoin
$LN4@ReturnPoin:

; 327  : 	case eSkill32: return this->rUser[aIndex].AttackRate;	break;

  014cc	8b 45 08	 mov	 eax, DWORD PTR _aIndex$[ebp]
  014cf	69 c0 a0 00 00
	00		 imul	 eax, 160		; 000000a0H
  014d5	8b 4d fc	 mov	 ecx, DWORD PTR _this$[ebp]
  014d8	8b 84 01 c0 00
	00 00		 mov	 eax, DWORD PTR [ecx+eax+192]
  014df	eb 54		 jmp	 SHORT $LN38@ReturnPoin
  014e1	eb 43		 jmp	 SHORT $LN36@ReturnPoin
$LN3@ReturnPoin:

; 328  : 	case eSkill33: return this->rUser[aIndex].WeaponBonus;	break;

  014e3	8b 45 08	 mov	 eax, DWORD PTR _aIndex$[ebp]
  014e6	69 c0 a0 00 00
	00		 imul	 eax, 160		; 000000a0H
  014ec	8b 4d fc	 mov	 ecx, DWORD PTR _this$[ebp]
  014ef	8b 84 01 c4 00
	00 00		 mov	 eax, DWORD PTR [ecx+eax+196]
  014f6	eb 3d		 jmp	 SHORT $LN38@ReturnPoin
  014f8	eb 2c		 jmp	 SHORT $LN36@ReturnPoin
$LN2@ReturnPoin:

; 329  : 	case eSkill34: return this->rUser[aIndex].ExellentDamage;	break;

  014fa	8b 45 08	 mov	 eax, DWORD PTR _aIndex$[ebp]
  014fd	69 c0 a0 00 00
	00		 imul	 eax, 160		; 000000a0H
  01503	8b 4d fc	 mov	 ecx, DWORD PTR _this$[ebp]
  01506	8b 84 01 c8 00
	00 00		 mov	 eax, DWORD PTR [ecx+eax+200]
  0150d	eb 26		 jmp	 SHORT $LN38@ReturnPoin
  0150f	eb 15		 jmp	 SHORT $LN36@ReturnPoin
$LN1@ReturnPoin:

; 330  : 	case eSkill35: return this->rUser[aIndex].CriticalDamage;	break;

  01511	8b 45 08	 mov	 eax, DWORD PTR _aIndex$[ebp]
  01514	69 c0 a0 00 00
	00		 imul	 eax, 160		; 000000a0H
  0151a	8b 4d fc	 mov	 ecx, DWORD PTR _this$[ebp]
  0151d	8b 84 01 cc 00
	00 00		 mov	 eax, DWORD PTR [ecx+eax+204]
  01524	eb 0f		 jmp	 SHORT $LN38@ReturnPoin
$LN36@ReturnPoin:

; 331  : 	}
; 332  : 	CloseClient(aIndex);

  01526	8b 45 08	 mov	 eax, DWORD PTR _aIndex$[ebp]
  01529	50		 push	 eax
  0152a	e8 00 00 00 00	 call	 ?CloseClient@@YAXH@Z	; CloseClient
  0152f	83 c4 04	 add	 esp, 4

; 333  : 	return -1;

  01532	83 c8 ff	 or	 eax, -1
$LN38@ReturnPoin:

; 334  : }

  01535	5f		 pop	 edi
  01536	5e		 pop	 esi
  01537	5b		 pop	 ebx
  01538	8b e5		 mov	 esp, ebp
  0153a	5d		 pop	 ebp
  0153b	c2 08 00	 ret	 8
  0153e	8b ff		 npad	 2
$LN40@ReturnPoin:
  01540	00 00 00 00	 DD	 $LN35@ReturnPoin
  01544	00 00 00 00	 DD	 $LN34@ReturnPoin
  01548	00 00 00 00	 DD	 $LN33@ReturnPoin
  0154c	00 00 00 00	 DD	 $LN32@ReturnPoin
  01550	00 00 00 00	 DD	 $LN31@ReturnPoin
  01554	00 00 00 00	 DD	 $LN30@ReturnPoin
  01558	00 00 00 00	 DD	 $LN29@ReturnPoin
  0155c	00 00 00 00	 DD	 $LN28@ReturnPoin
  01560	00 00 00 00	 DD	 $LN27@ReturnPoin
  01564	00 00 00 00	 DD	 $LN26@ReturnPoin
  01568	00 00 00 00	 DD	 $LN25@ReturnPoin
  0156c	00 00 00 00	 DD	 $LN24@ReturnPoin
  01570	00 00 00 00	 DD	 $LN23@ReturnPoin
  01574	00 00 00 00	 DD	 $LN22@ReturnPoin
  01578	00 00 00 00	 DD	 $LN21@ReturnPoin
  0157c	00 00 00 00	 DD	 $LN20@ReturnPoin
  01580	00 00 00 00	 DD	 $LN19@ReturnPoin
  01584	00 00 00 00	 DD	 $LN18@ReturnPoin
  01588	00 00 00 00	 DD	 $LN17@ReturnPoin
  0158c	00 00 00 00	 DD	 $LN16@ReturnPoin
  01590	00 00 00 00	 DD	 $LN15@ReturnPoin
  01594	00 00 00 00	 DD	 $LN14@ReturnPoin
  01598	00 00 00 00	 DD	 $LN13@ReturnPoin
  0159c	00 00 00 00	 DD	 $LN12@ReturnPoin
  015a0	00 00 00 00	 DD	 $LN11@ReturnPoin
  015a4	00 00 00 00	 DD	 $LN10@ReturnPoin
  015a8	00 00 00 00	 DD	 $LN9@ReturnPoin
  015ac	00 00 00 00	 DD	 $LN8@ReturnPoin
  015b0	00 00 00 00	 DD	 $LN7@ReturnPoin
  015b4	00 00 00 00	 DD	 $LN6@ReturnPoin
  015b8	00 00 00 00	 DD	 $LN5@ReturnPoin
  015bc	00 00 00 00	 DD	 $LN4@ReturnPoin
  015c0	00 00 00 00	 DD	 $LN3@ReturnPoin
  015c4	00 00 00 00	 DD	 $LN2@ReturnPoin
  015c8	00 00 00 00	 DD	 $LN1@ReturnPoin
?ReturnPoint@cSystemOfRage@@QAEHHH@Z ENDP		; cSystemOfRage::ReturnPoint
_TEXT	ENDS
PUBLIC	?ReturnCalc@cSystemOfRage@@QAEHHHH@Z		; cSystemOfRage::ReturnCalc
; Function compile flags: /Odtp /ZI
_TEXT	SEGMENT
tv64 = -76						; size = 4
_Result$ = -8						; size = 4
_this$ = -4						; size = 4
_aIndex$ = 8						; size = 4
_SkillID$ = 12						; size = 4
_Pw$ = 16						; size = 4
?ReturnCalc@cSystemOfRage@@QAEHHHH@Z PROC		; cSystemOfRage::ReturnCalc
; _this$ = ecx

; 337  : {

  015d0	55		 push	 ebp
  015d1	8b ec		 mov	 ebp, esp
  015d3	83 ec 4c	 sub	 esp, 76			; 0000004cH
  015d6	53		 push	 ebx
  015d7	56		 push	 esi
  015d8	57		 push	 edi
  015d9	89 4d fc	 mov	 DWORD PTR _this$[ebp], ecx

; 338  : 	int Result = 0;

  015dc	c7 45 f8 00 00
	00 00		 mov	 DWORD PTR _Result$[ebp], 0

; 339  : 	switch(SkillID)

  015e3	8b 45 0c	 mov	 eax, DWORD PTR _SkillID$[ebp]
  015e6	89 45 b4	 mov	 DWORD PTR tv64[ebp], eax
  015e9	8b 4d b4	 mov	 ecx, DWORD PTR tv64[ebp]
  015ec	83 e9 01	 sub	 ecx, 1
  015ef	89 4d b4	 mov	 DWORD PTR tv64[ebp], ecx
  015f2	83 7d b4 22	 cmp	 DWORD PTR tv64[ebp], 34	; 00000022H
  015f6	0f 87 d3 05 00
	00		 ja	 $LN40@ReturnCalc
  015fc	8b 55 b4	 mov	 edx, DWORD PTR tv64[ebp]
  015ff	ff 24 95 00 00
	00 00		 jmp	 DWORD PTR $LN44@ReturnCalc[edx*4]
$LN39@ReturnCalc:

; 340  : 	{
; 341  : 	case eSkill1:  Result = this->rUser[aIndex].Damage * this->rSkill[SkillID].StartDamage;		break;

  01606	8b 45 08	 mov	 eax, DWORD PTR _aIndex$[ebp]
  01609	69 c0 a0 00 00
	00		 imul	 eax, 160		; 000000a0H
  0160f	8b 4d 0c	 mov	 ecx, DWORD PTR _SkillID$[ebp]
  01612	6b c9 44	 imul	 ecx, 68			; 00000044H
  01615	8b 55 fc	 mov	 edx, DWORD PTR _this$[ebp]
  01618	8b 75 fc	 mov	 esi, DWORD PTR _this$[ebp]
  0161b	8b 44 02 44	 mov	 eax, DWORD PTR [edx+eax+68]
  0161f	0f af 84 0e 64
	9f 24 00	 imul	 eax, DWORD PTR [esi+ecx+2400100]
  01627	89 45 f8	 mov	 DWORD PTR _Result$[ebp], eax
  0162a	e9 a0 05 00 00	 jmp	 $LN40@ReturnCalc
$LN38@ReturnCalc:

; 342  : 	case eSkill2:  Result = this->rUser[aIndex].FreePoints * this->rSkill[SkillID].StartDamage;		break;

  0162f	8b 45 08	 mov	 eax, DWORD PTR _aIndex$[ebp]
  01632	69 c0 a0 00 00
	00		 imul	 eax, 160		; 000000a0H
  01638	8b 4d 0c	 mov	 ecx, DWORD PTR _SkillID$[ebp]
  0163b	6b c9 44	 imul	 ecx, 68			; 00000044H
  0163e	8b 55 fc	 mov	 edx, DWORD PTR _this$[ebp]
  01641	8b 75 fc	 mov	 esi, DWORD PTR _this$[ebp]
  01644	8b 44 02 48	 mov	 eax, DWORD PTR [edx+eax+72]
  01648	0f af 84 0e 64
	9f 24 00	 imul	 eax, DWORD PTR [esi+ecx+2400100]
  01650	89 45 f8	 mov	 DWORD PTR _Result$[ebp], eax
  01653	e9 77 05 00 00	 jmp	 $LN40@ReturnCalc
$LN37@ReturnCalc:

; 343  : 	case eSkill3:  Result = this->rUser[aIndex].SummonPet * this->rSkill[SkillID].StartDamage;		break;

  01658	8b 45 08	 mov	 eax, DWORD PTR _aIndex$[ebp]
  0165b	69 c0 a0 00 00
	00		 imul	 eax, 160		; 000000a0H
  01661	8b 4d 0c	 mov	 ecx, DWORD PTR _SkillID$[ebp]
  01664	6b c9 44	 imul	 ecx, 68			; 00000044H
  01667	8b 55 fc	 mov	 edx, DWORD PTR _this$[ebp]
  0166a	8b 75 fc	 mov	 esi, DWORD PTR _this$[ebp]
  0166d	8b 44 02 4c	 mov	 eax, DWORD PTR [edx+eax+76]
  01671	0f af 84 0e 64
	9f 24 00	 imul	 eax, DWORD PTR [esi+ecx+2400100]
  01679	89 45 f8	 mov	 DWORD PTR _Result$[ebp], eax
  0167c	e9 4e 05 00 00	 jmp	 $LN40@ReturnCalc
$LN36@ReturnCalc:

; 344  : 	case eSkill4:  Result = this->rUser[aIndex].WingsDamagePlus * this->rSkill[SkillID].StartDamage;		break;

  01681	8b 45 08	 mov	 eax, DWORD PTR _aIndex$[ebp]
  01684	69 c0 a0 00 00
	00		 imul	 eax, 160		; 000000a0H
  0168a	8b 4d 0c	 mov	 ecx, DWORD PTR _SkillID$[ebp]
  0168d	6b c9 44	 imul	 ecx, 68			; 00000044H
  01690	8b 55 fc	 mov	 edx, DWORD PTR _this$[ebp]
  01693	8b 75 fc	 mov	 esi, DWORD PTR _this$[ebp]
  01696	8b 44 02 50	 mov	 eax, DWORD PTR [edx+eax+80]
  0169a	0f af 84 0e 64
	9f 24 00	 imul	 eax, DWORD PTR [esi+ecx+2400100]
  016a2	89 45 f8	 mov	 DWORD PTR _Result$[ebp], eax
  016a5	e9 25 05 00 00	 jmp	 $LN40@ReturnCalc
$LN35@ReturnCalc:

; 345  : 	case eSkill5:  Result = this->rUser[aIndex].FinalMana * this->rSkill[SkillID].StartDamage;		break;

  016aa	8b 45 08	 mov	 eax, DWORD PTR _aIndex$[ebp]
  016ad	69 c0 a0 00 00
	00		 imul	 eax, 160		; 000000a0H
  016b3	8b 4d 0c	 mov	 ecx, DWORD PTR _SkillID$[ebp]
  016b6	6b c9 44	 imul	 ecx, 68			; 00000044H
  016b9	8b 55 fc	 mov	 edx, DWORD PTR _this$[ebp]
  016bc	8b 75 fc	 mov	 esi, DWORD PTR _this$[ebp]
  016bf	8b 44 02 54	 mov	 eax, DWORD PTR [edx+eax+84]
  016c3	0f af 84 0e 64
	9f 24 00	 imul	 eax, DWORD PTR [esi+ecx+2400100]
  016cb	89 45 f8	 mov	 DWORD PTR _Result$[ebp], eax
  016ce	e9 fc 04 00 00	 jmp	 $LN40@ReturnCalc
$LN34@ReturnCalc:

; 346  : 	case eSkill6:  Result = this->rUser[aIndex].IgnoreDefence * this->rSkill[SkillID].StartDamage;		break;

  016d3	8b 45 08	 mov	 eax, DWORD PTR _aIndex$[ebp]
  016d6	69 c0 a0 00 00
	00		 imul	 eax, 160		; 000000a0H
  016dc	8b 4d 0c	 mov	 ecx, DWORD PTR _SkillID$[ebp]
  016df	6b c9 44	 imul	 ecx, 68			; 00000044H
  016e2	8b 55 fc	 mov	 edx, DWORD PTR _this$[ebp]
  016e5	8b 75 fc	 mov	 esi, DWORD PTR _this$[ebp]
  016e8	8b 44 02 58	 mov	 eax, DWORD PTR [edx+eax+88]
  016ec	0f af 84 0e 64
	9f 24 00	 imul	 eax, DWORD PTR [esi+ecx+2400100]
  016f4	89 45 f8	 mov	 DWORD PTR _Result$[ebp], eax
  016f7	e9 d3 04 00 00	 jmp	 $LN40@ReturnCalc
$LN33@ReturnCalc:

; 347  : 	case eSkill7:  Result = this->rUser[aIndex].ResetLevel * this->rSkill[SkillID].StartDamage;		break;

  016fc	8b 45 08	 mov	 eax, DWORD PTR _aIndex$[ebp]
  016ff	69 c0 a0 00 00
	00		 imul	 eax, 160		; 000000a0H
  01705	8b 4d 0c	 mov	 ecx, DWORD PTR _SkillID$[ebp]
  01708	6b c9 44	 imul	 ecx, 68			; 00000044H
  0170b	8b 55 fc	 mov	 edx, DWORD PTR _this$[ebp]
  0170e	8b 75 fc	 mov	 esi, DWORD PTR _this$[ebp]
  01711	8b 44 02 5c	 mov	 eax, DWORD PTR [edx+eax+92]
  01715	0f af 84 0e 64
	9f 24 00	 imul	 eax, DWORD PTR [esi+ecx+2400100]
  0171d	89 45 f8	 mov	 DWORD PTR _Result$[ebp], eax
  01720	e9 aa 04 00 00	 jmp	 $LN40@ReturnCalc
$LN32@ReturnCalc:

; 348  : 	case eSkill8:  Result = this->rUser[aIndex].Teleport * this->rSkill[SkillID].StartDamage;		break;

  01725	8b 45 08	 mov	 eax, DWORD PTR _aIndex$[ebp]
  01728	69 c0 a0 00 00
	00		 imul	 eax, 160		; 000000a0H
  0172e	8b 4d 0c	 mov	 ecx, DWORD PTR _SkillID$[ebp]
  01731	6b c9 44	 imul	 ecx, 68			; 00000044H
  01734	8b 55 fc	 mov	 edx, DWORD PTR _this$[ebp]
  01737	8b 75 fc	 mov	 esi, DWORD PTR _this$[ebp]
  0173a	8b 44 02 60	 mov	 eax, DWORD PTR [edx+eax+96]
  0173e	0f af 84 0e 64
	9f 24 00	 imul	 eax, DWORD PTR [esi+ecx+2400100]
  01746	89 45 f8	 mov	 DWORD PTR _Result$[ebp], eax
  01749	e9 81 04 00 00	 jmp	 $LN40@ReturnCalc
$LN31@ReturnCalc:

; 349  : 	case eSkill9:  Result = this->rUser[aIndex].CriticalDamageRate * this->rSkill[SkillID].StartDamage;		break;

  0174e	8b 45 08	 mov	 eax, DWORD PTR _aIndex$[ebp]
  01751	69 c0 a0 00 00
	00		 imul	 eax, 160		; 000000a0H
  01757	8b 4d 0c	 mov	 ecx, DWORD PTR _SkillID$[ebp]
  0175a	6b c9 44	 imul	 ecx, 68			; 00000044H
  0175d	8b 55 fc	 mov	 edx, DWORD PTR _this$[ebp]
  01760	8b 75 fc	 mov	 esi, DWORD PTR _this$[ebp]
  01763	8b 44 02 64	 mov	 eax, DWORD PTR [edx+eax+100]
  01767	0f af 84 0e 64
	9f 24 00	 imul	 eax, DWORD PTR [esi+ecx+2400100]
  0176f	89 45 f8	 mov	 DWORD PTR _Result$[ebp], eax
  01772	e9 58 04 00 00	 jmp	 $LN40@ReturnCalc
$LN30@ReturnCalc:

; 350  : 	case eSkill10: Result = this->rUser[aIndex].AbsordDamage * this->rSkill[SkillID].StartDamage;	break;

  01777	8b 45 08	 mov	 eax, DWORD PTR _aIndex$[ebp]
  0177a	69 c0 a0 00 00
	00		 imul	 eax, 160		; 000000a0H
  01780	8b 4d 0c	 mov	 ecx, DWORD PTR _SkillID$[ebp]
  01783	6b c9 44	 imul	 ecx, 68			; 00000044H
  01786	8b 55 fc	 mov	 edx, DWORD PTR _this$[ebp]
  01789	8b 75 fc	 mov	 esi, DWORD PTR _this$[ebp]
  0178c	8b 44 02 68	 mov	 eax, DWORD PTR [edx+eax+104]
  01790	0f af 84 0e 64
	9f 24 00	 imul	 eax, DWORD PTR [esi+ecx+2400100]
  01798	89 45 f8	 mov	 DWORD PTR _Result$[ebp], eax
  0179b	e9 2f 04 00 00	 jmp	 $LN40@ReturnCalc
$LN29@ReturnCalc:

; 351  : 	case eSkill11: Result = this->rUser[aIndex].PetDamageBonus * this->rSkill[SkillID].StartDamage;	break;

  017a0	8b 45 08	 mov	 eax, DWORD PTR _aIndex$[ebp]
  017a3	69 c0 a0 00 00
	00		 imul	 eax, 160		; 000000a0H
  017a9	8b 4d 0c	 mov	 ecx, DWORD PTR _SkillID$[ebp]
  017ac	6b c9 44	 imul	 ecx, 68			; 00000044H
  017af	8b 55 fc	 mov	 edx, DWORD PTR _this$[ebp]
  017b2	8b 75 fc	 mov	 esi, DWORD PTR _this$[ebp]
  017b5	8b 44 02 6c	 mov	 eax, DWORD PTR [edx+eax+108]
  017b9	0f af 84 0e 64
	9f 24 00	 imul	 eax, DWORD PTR [esi+ecx+2400100]
  017c1	89 45 f8	 mov	 DWORD PTR _Result$[ebp], eax
  017c4	e9 06 04 00 00	 jmp	 $LN40@ReturnCalc
$LN28@ReturnCalc:

; 352  : 	case eSkill12: Result = this->rUser[aIndex].FinalLife * this->rSkill[SkillID].StartDamage;	break;

  017c9	8b 45 08	 mov	 eax, DWORD PTR _aIndex$[ebp]
  017cc	69 c0 a0 00 00
	00		 imul	 eax, 160		; 000000a0H
  017d2	8b 4d 0c	 mov	 ecx, DWORD PTR _SkillID$[ebp]
  017d5	6b c9 44	 imul	 ecx, 68			; 00000044H
  017d8	8b 55 fc	 mov	 edx, DWORD PTR _this$[ebp]
  017db	8b 75 fc	 mov	 esi, DWORD PTR _this$[ebp]
  017de	8b 44 02 70	 mov	 eax, DWORD PTR [edx+eax+112]
  017e2	0f af 84 0e 64
	9f 24 00	 imul	 eax, DWORD PTR [esi+ecx+2400100]
  017ea	89 45 f8	 mov	 DWORD PTR _Result$[ebp], eax
  017ed	e9 dd 03 00 00	 jmp	 $LN40@ReturnCalc
$LN27@ReturnCalc:

; 353  : 	case eSkill13: Result = this->rUser[aIndex].Strength * this->rSkill[SkillID].StartDamage;	break;

  017f2	8b 45 08	 mov	 eax, DWORD PTR _aIndex$[ebp]
  017f5	69 c0 a0 00 00
	00		 imul	 eax, 160		; 000000a0H
  017fb	8b 4d 0c	 mov	 ecx, DWORD PTR _SkillID$[ebp]
  017fe	6b c9 44	 imul	 ecx, 68			; 00000044H
  01801	8b 55 fc	 mov	 edx, DWORD PTR _this$[ebp]
  01804	8b 75 fc	 mov	 esi, DWORD PTR _this$[ebp]
  01807	8b 44 02 74	 mov	 eax, DWORD PTR [edx+eax+116]
  0180b	0f af 84 0e 64
	9f 24 00	 imul	 eax, DWORD PTR [esi+ecx+2400100]
  01813	89 45 f8	 mov	 DWORD PTR _Result$[ebp], eax
  01816	e9 b4 03 00 00	 jmp	 $LN40@ReturnCalc
$LN26@ReturnCalc:

; 354  : 	case eSkill14: Result = this->rUser[aIndex].DefenceRate * this->rSkill[SkillID].StartDamage;	break;

  0181b	8b 45 08	 mov	 eax, DWORD PTR _aIndex$[ebp]
  0181e	69 c0 a0 00 00
	00		 imul	 eax, 160		; 000000a0H
  01824	8b 4d 0c	 mov	 ecx, DWORD PTR _SkillID$[ebp]
  01827	6b c9 44	 imul	 ecx, 68			; 00000044H
  0182a	8b 55 fc	 mov	 edx, DWORD PTR _this$[ebp]
  0182d	8b 75 fc	 mov	 esi, DWORD PTR _this$[ebp]
  01830	8b 44 02 78	 mov	 eax, DWORD PTR [edx+eax+120]
  01834	0f af 84 0e 64
	9f 24 00	 imul	 eax, DWORD PTR [esi+ecx+2400100]
  0183c	89 45 f8	 mov	 DWORD PTR _Result$[ebp], eax
  0183f	e9 8b 03 00 00	 jmp	 $LN40@ReturnCalc
$LN25@ReturnCalc:

; 355  : 	case eSkill15: Result = this->rUser[aIndex].FireDamage * this->rSkill[SkillID].StartDamage;	break;

  01844	8b 45 08	 mov	 eax, DWORD PTR _aIndex$[ebp]
  01847	69 c0 a0 00 00
	00		 imul	 eax, 160		; 000000a0H
  0184d	8b 4d 0c	 mov	 ecx, DWORD PTR _SkillID$[ebp]
  01850	6b c9 44	 imul	 ecx, 68			; 00000044H
  01853	8b 55 fc	 mov	 edx, DWORD PTR _this$[ebp]
  01856	8b 75 fc	 mov	 esi, DWORD PTR _this$[ebp]
  01859	8b 44 02 7c	 mov	 eax, DWORD PTR [edx+eax+124]
  0185d	0f af 84 0e 64
	9f 24 00	 imul	 eax, DWORD PTR [esi+ecx+2400100]
  01865	89 45 f8	 mov	 DWORD PTR _Result$[ebp], eax
  01868	e9 62 03 00 00	 jmp	 $LN40@ReturnCalc
$LN24@ReturnCalc:

; 356  : 	case eSkill16: Result = this->rUser[aIndex].Energy * this->rSkill[SkillID].StartDamage;	break;

  0186d	8b 45 08	 mov	 eax, DWORD PTR _aIndex$[ebp]
  01870	69 c0 a0 00 00
	00		 imul	 eax, 160		; 000000a0H
  01876	8b 4d 0c	 mov	 ecx, DWORD PTR _SkillID$[ebp]
  01879	6b c9 44	 imul	 ecx, 68			; 00000044H
  0187c	8b 55 fc	 mov	 edx, DWORD PTR _this$[ebp]
  0187f	8b 75 fc	 mov	 esi, DWORD PTR _this$[ebp]
  01882	8b 84 02 80 00
	00 00		 mov	 eax, DWORD PTR [edx+eax+128]
  01889	0f af 84 0e 64
	9f 24 00	 imul	 eax, DWORD PTR [esi+ecx+2400100]
  01891	89 45 f8	 mov	 DWORD PTR _Result$[ebp], eax
  01894	e9 36 03 00 00	 jmp	 $LN40@ReturnCalc
$LN23@ReturnCalc:

; 357  : 	case eSkill17: Result = this->rUser[aIndex].Agility * this->rSkill[SkillID].StartDamage;	break;

  01899	8b 45 08	 mov	 eax, DWORD PTR _aIndex$[ebp]
  0189c	69 c0 a0 00 00
	00		 imul	 eax, 160		; 000000a0H
  018a2	8b 4d 0c	 mov	 ecx, DWORD PTR _SkillID$[ebp]
  018a5	6b c9 44	 imul	 ecx, 68			; 00000044H
  018a8	8b 55 fc	 mov	 edx, DWORD PTR _this$[ebp]
  018ab	8b 75 fc	 mov	 esi, DWORD PTR _this$[ebp]
  018ae	8b 84 02 84 00
	00 00		 mov	 eax, DWORD PTR [edx+eax+132]
  018b5	0f af 84 0e 64
	9f 24 00	 imul	 eax, DWORD PTR [esi+ecx+2400100]
  018bd	89 45 f8	 mov	 DWORD PTR _Result$[ebp], eax
  018c0	e9 0a 03 00 00	 jmp	 $LN40@ReturnCalc
$LN22@ReturnCalc:

; 358  : 	case eSkill18: Result = this->rUser[aIndex].DoubleDamage * this->rSkill[SkillID].StartDamage;	break;

  018c5	8b 45 08	 mov	 eax, DWORD PTR _aIndex$[ebp]
  018c8	69 c0 a0 00 00
	00		 imul	 eax, 160		; 000000a0H
  018ce	8b 4d 0c	 mov	 ecx, DWORD PTR _SkillID$[ebp]
  018d1	6b c9 44	 imul	 ecx, 68			; 00000044H
  018d4	8b 55 fc	 mov	 edx, DWORD PTR _this$[ebp]
  018d7	8b 75 fc	 mov	 esi, DWORD PTR _this$[ebp]
  018da	8b 84 02 88 00
	00 00		 mov	 eax, DWORD PTR [edx+eax+136]
  018e1	0f af 84 0e 64
	9f 24 00	 imul	 eax, DWORD PTR [esi+ecx+2400100]
  018e9	89 45 f8	 mov	 DWORD PTR _Result$[ebp], eax
  018ec	e9 de 02 00 00	 jmp	 $LN40@ReturnCalc
$LN21@ReturnCalc:

; 359  : 	case eSkill19: Result = this->rUser[aIndex].FinalSD * this->rSkill[SkillID].StartDamage;	break;

  018f1	8b 45 08	 mov	 eax, DWORD PTR _aIndex$[ebp]
  018f4	69 c0 a0 00 00
	00		 imul	 eax, 160		; 000000a0H
  018fa	8b 4d 0c	 mov	 ecx, DWORD PTR _SkillID$[ebp]
  018fd	6b c9 44	 imul	 ecx, 68			; 00000044H
  01900	8b 55 fc	 mov	 edx, DWORD PTR _this$[ebp]
  01903	8b 75 fc	 mov	 esi, DWORD PTR _this$[ebp]
  01906	8b 84 02 8c 00
	00 00		 mov	 eax, DWORD PTR [edx+eax+140]
  0190d	0f af 84 0e 64
	9f 24 00	 imul	 eax, DWORD PTR [esi+ecx+2400100]
  01915	89 45 f8	 mov	 DWORD PTR _Result$[ebp], eax
  01918	e9 b2 02 00 00	 jmp	 $LN40@ReturnCalc
$LN20@ReturnCalc:

; 360  : 	case eSkill20: Result = this->rUser[aIndex].FinalDefence * this->rSkill[SkillID].StartDamage;	break;

  0191d	8b 45 08	 mov	 eax, DWORD PTR _aIndex$[ebp]
  01920	69 c0 a0 00 00
	00		 imul	 eax, 160		; 000000a0H
  01926	8b 4d 0c	 mov	 ecx, DWORD PTR _SkillID$[ebp]
  01929	6b c9 44	 imul	 ecx, 68			; 00000044H
  0192c	8b 55 fc	 mov	 edx, DWORD PTR _this$[ebp]
  0192f	8b 75 fc	 mov	 esi, DWORD PTR _this$[ebp]
  01932	8b 84 02 90 00
	00 00		 mov	 eax, DWORD PTR [edx+eax+144]
  01939	0f af 84 0e 64
	9f 24 00	 imul	 eax, DWORD PTR [esi+ecx+2400100]
  01941	89 45 f8	 mov	 DWORD PTR _Result$[ebp], eax
  01944	e9 86 02 00 00	 jmp	 $LN40@ReturnCalc
$LN19@ReturnCalc:

; 361  : 	case eSkill21: Result = this->rUser[aIndex].ZenDrop * this->rSkill[SkillID].StartDamage;	break;

  01949	8b 45 08	 mov	 eax, DWORD PTR _aIndex$[ebp]
  0194c	69 c0 a0 00 00
	00		 imul	 eax, 160		; 000000a0H
  01952	8b 4d 0c	 mov	 ecx, DWORD PTR _SkillID$[ebp]
  01955	6b c9 44	 imul	 ecx, 68			; 00000044H
  01958	8b 55 fc	 mov	 edx, DWORD PTR _this$[ebp]
  0195b	8b 75 fc	 mov	 esi, DWORD PTR _this$[ebp]
  0195e	8b 84 02 94 00
	00 00		 mov	 eax, DWORD PTR [edx+eax+148]
  01965	0f af 84 0e 64
	9f 24 00	 imul	 eax, DWORD PTR [esi+ecx+2400100]
  0196d	89 45 f8	 mov	 DWORD PTR _Result$[ebp], eax
  01970	e9 5a 02 00 00	 jmp	 $LN40@ReturnCalc
$LN18@ReturnCalc:

; 362  : 	case eSkill22: Result = this->rUser[aIndex].GuildBonus * this->rSkill[SkillID].StartDamage;	break;

  01975	8b 45 08	 mov	 eax, DWORD PTR _aIndex$[ebp]
  01978	69 c0 a0 00 00
	00		 imul	 eax, 160		; 000000a0H
  0197e	8b 4d 0c	 mov	 ecx, DWORD PTR _SkillID$[ebp]
  01981	6b c9 44	 imul	 ecx, 68			; 00000044H
  01984	8b 55 fc	 mov	 edx, DWORD PTR _this$[ebp]
  01987	8b 75 fc	 mov	 esi, DWORD PTR _this$[ebp]
  0198a	8b 84 02 98 00
	00 00		 mov	 eax, DWORD PTR [edx+eax+152]
  01991	0f af 84 0e 64
	9f 24 00	 imul	 eax, DWORD PTR [esi+ecx+2400100]
  01999	89 45 f8	 mov	 DWORD PTR _Result$[ebp], eax
  0199c	e9 2e 02 00 00	 jmp	 $LN40@ReturnCalc
$LN17@ReturnCalc:

; 363  : 	case eSkill23: Result = this->rUser[aIndex].ReflectDamage * this->rSkill[SkillID].StartDamage;	break;

  019a1	8b 45 08	 mov	 eax, DWORD PTR _aIndex$[ebp]
  019a4	69 c0 a0 00 00
	00		 imul	 eax, 160		; 000000a0H
  019aa	8b 4d 0c	 mov	 ecx, DWORD PTR _SkillID$[ebp]
  019ad	6b c9 44	 imul	 ecx, 68			; 00000044H
  019b0	8b 55 fc	 mov	 edx, DWORD PTR _this$[ebp]
  019b3	8b 75 fc	 mov	 esi, DWORD PTR _this$[ebp]
  019b6	8b 84 02 9c 00
	00 00		 mov	 eax, DWORD PTR [edx+eax+156]
  019bd	0f af 84 0e 64
	9f 24 00	 imul	 eax, DWORD PTR [esi+ecx+2400100]
  019c5	89 45 f8	 mov	 DWORD PTR _Result$[ebp], eax
  019c8	e9 02 02 00 00	 jmp	 $LN40@ReturnCalc
$LN16@ReturnCalc:

; 364  : 	case eSkill24: Result = this->rUser[aIndex].ExellentDamageRate * this->rSkill[SkillID].StartDamage;	break;

  019cd	8b 45 08	 mov	 eax, DWORD PTR _aIndex$[ebp]
  019d0	69 c0 a0 00 00
	00		 imul	 eax, 160		; 000000a0H
  019d6	8b 4d 0c	 mov	 ecx, DWORD PTR _SkillID$[ebp]
  019d9	6b c9 44	 imul	 ecx, 68			; 00000044H
  019dc	8b 55 fc	 mov	 edx, DWORD PTR _this$[ebp]
  019df	8b 75 fc	 mov	 esi, DWORD PTR _this$[ebp]
  019e2	8b 84 02 a0 00
	00 00		 mov	 eax, DWORD PTR [edx+eax+160]
  019e9	0f af 84 0e 64
	9f 24 00	 imul	 eax, DWORD PTR [esi+ecx+2400100]
  019f1	89 45 f8	 mov	 DWORD PTR _Result$[ebp], eax
  019f4	e9 d6 01 00 00	 jmp	 $LN40@ReturnCalc
$LN15@ReturnCalc:

; 365  : 	case eSkill25: Result = this->rUser[aIndex].PvPBonusPlus * this->rSkill[SkillID].StartDamage;	break;

  019f9	8b 45 08	 mov	 eax, DWORD PTR _aIndex$[ebp]
  019fc	69 c0 a0 00 00
	00		 imul	 eax, 160		; 000000a0H
  01a02	8b 4d 0c	 mov	 ecx, DWORD PTR _SkillID$[ebp]
  01a05	6b c9 44	 imul	 ecx, 68			; 00000044H
  01a08	8b 55 fc	 mov	 edx, DWORD PTR _this$[ebp]
  01a0b	8b 75 fc	 mov	 esi, DWORD PTR _this$[ebp]
  01a0e	8b 84 02 a4 00
	00 00		 mov	 eax, DWORD PTR [edx+eax+164]
  01a15	0f af 84 0e 64
	9f 24 00	 imul	 eax, DWORD PTR [esi+ecx+2400100]
  01a1d	89 45 f8	 mov	 DWORD PTR _Result$[ebp], eax
  01a20	e9 aa 01 00 00	 jmp	 $LN40@ReturnCalc
$LN14@ReturnCalc:

; 366  : 	case eSkill26: Result = this->rUser[aIndex].MinDefence * this->rSkill[SkillID].StartDamage;	break;

  01a25	8b 45 08	 mov	 eax, DWORD PTR _aIndex$[ebp]
  01a28	69 c0 a0 00 00
	00		 imul	 eax, 160		; 000000a0H
  01a2e	8b 4d 0c	 mov	 ecx, DWORD PTR _SkillID$[ebp]
  01a31	6b c9 44	 imul	 ecx, 68			; 00000044H
  01a34	8b 55 fc	 mov	 edx, DWORD PTR _this$[ebp]
  01a37	8b 75 fc	 mov	 esi, DWORD PTR _this$[ebp]
  01a3a	8b 84 02 a8 00
	00 00		 mov	 eax, DWORD PTR [edx+eax+168]
  01a41	0f af 84 0e 64
	9f 24 00	 imul	 eax, DWORD PTR [esi+ecx+2400100]
  01a49	89 45 f8	 mov	 DWORD PTR _Result$[ebp], eax
  01a4c	e9 7e 01 00 00	 jmp	 $LN40@ReturnCalc
$LN13@ReturnCalc:

; 367  : 	case eSkill27: Result = this->rUser[aIndex].Experience * this->rSkill[SkillID].StartDamage;	break;

  01a51	8b 45 08	 mov	 eax, DWORD PTR _aIndex$[ebp]
  01a54	69 c0 a0 00 00
	00		 imul	 eax, 160		; 000000a0H
  01a5a	8b 4d 0c	 mov	 ecx, DWORD PTR _SkillID$[ebp]
  01a5d	6b c9 44	 imul	 ecx, 68			; 00000044H
  01a60	8b 55 fc	 mov	 edx, DWORD PTR _this$[ebp]
  01a63	8b 75 fc	 mov	 esi, DWORD PTR _this$[ebp]
  01a66	8b 84 02 ac 00
	00 00		 mov	 eax, DWORD PTR [edx+eax+172]
  01a6d	0f af 84 0e 64
	9f 24 00	 imul	 eax, DWORD PTR [esi+ecx+2400100]
  01a75	89 45 f8	 mov	 DWORD PTR _Result$[ebp], eax
  01a78	e9 52 01 00 00	 jmp	 $LN40@ReturnCalc
$LN12@ReturnCalc:

; 368  : 	case eSkill28: Result = this->rUser[aIndex].StartSD * this->rSkill[SkillID].StartDamage;	break;

  01a7d	8b 45 08	 mov	 eax, DWORD PTR _aIndex$[ebp]
  01a80	69 c0 a0 00 00
	00		 imul	 eax, 160		; 000000a0H
  01a86	8b 4d 0c	 mov	 ecx, DWORD PTR _SkillID$[ebp]
  01a89	6b c9 44	 imul	 ecx, 68			; 00000044H
  01a8c	8b 55 fc	 mov	 edx, DWORD PTR _this$[ebp]
  01a8f	8b 75 fc	 mov	 esi, DWORD PTR _this$[ebp]
  01a92	8b 84 02 b0 00
	00 00		 mov	 eax, DWORD PTR [edx+eax+176]
  01a99	0f af 84 0e 64
	9f 24 00	 imul	 eax, DWORD PTR [esi+ecx+2400100]
  01aa1	89 45 f8	 mov	 DWORD PTR _Result$[ebp], eax
  01aa4	e9 26 01 00 00	 jmp	 $LN40@ReturnCalc
$LN11@ReturnCalc:

; 369  : 	case eSkill29: Result = this->rUser[aIndex].PartyBonus * this->rSkill[SkillID].StartDamage;	break;

  01aa9	8b 45 08	 mov	 eax, DWORD PTR _aIndex$[ebp]
  01aac	69 c0 a0 00 00
	00		 imul	 eax, 160		; 000000a0H
  01ab2	8b 4d 0c	 mov	 ecx, DWORD PTR _SkillID$[ebp]
  01ab5	6b c9 44	 imul	 ecx, 68			; 00000044H
  01ab8	8b 55 fc	 mov	 edx, DWORD PTR _this$[ebp]
  01abb	8b 75 fc	 mov	 esi, DWORD PTR _this$[ebp]
  01abe	8b 84 02 b4 00
	00 00		 mov	 eax, DWORD PTR [edx+eax+180]
  01ac5	0f af 84 0e 64
	9f 24 00	 imul	 eax, DWORD PTR [esi+ecx+2400100]
  01acd	89 45 f8	 mov	 DWORD PTR _Result$[ebp], eax
  01ad0	e9 fa 00 00 00	 jmp	 $LN40@ReturnCalc
$LN10@ReturnCalc:

; 370  : 	case eSkill30: Result = this->rUser[aIndex].IceDamage * this->rSkill[SkillID].StartDamage;	break;

  01ad5	8b 45 08	 mov	 eax, DWORD PTR _aIndex$[ebp]
  01ad8	69 c0 a0 00 00
	00		 imul	 eax, 160		; 000000a0H
  01ade	8b 4d 0c	 mov	 ecx, DWORD PTR _SkillID$[ebp]
  01ae1	6b c9 44	 imul	 ecx, 68			; 00000044H
  01ae4	8b 55 fc	 mov	 edx, DWORD PTR _this$[ebp]
  01ae7	8b 75 fc	 mov	 esi, DWORD PTR _this$[ebp]
  01aea	8b 84 02 b8 00
	00 00		 mov	 eax, DWORD PTR [edx+eax+184]
  01af1	0f af 84 0e 64
	9f 24 00	 imul	 eax, DWORD PTR [esi+ecx+2400100]
  01af9	89 45 f8	 mov	 DWORD PTR _Result$[ebp], eax
  01afc	e9 ce 00 00 00	 jmp	 $LN40@ReturnCalc
$LN9@ReturnCalc:

; 371  : 	case eSkill31: Result = this->rUser[aIndex].DistanceAttack * this->rSkill[SkillID].StartDamage;	break;

  01b01	8b 45 08	 mov	 eax, DWORD PTR _aIndex$[ebp]
  01b04	69 c0 a0 00 00
	00		 imul	 eax, 160		; 000000a0H
  01b0a	8b 4d 0c	 mov	 ecx, DWORD PTR _SkillID$[ebp]
  01b0d	6b c9 44	 imul	 ecx, 68			; 00000044H
  01b10	8b 55 fc	 mov	 edx, DWORD PTR _this$[ebp]
  01b13	8b 75 fc	 mov	 esi, DWORD PTR _this$[ebp]
  01b16	8b 84 02 bc 00
	00 00		 mov	 eax, DWORD PTR [edx+eax+188]
  01b1d	0f af 84 0e 64
	9f 24 00	 imul	 eax, DWORD PTR [esi+ecx+2400100]
  01b25	89 45 f8	 mov	 DWORD PTR _Result$[ebp], eax
  01b28	e9 a2 00 00 00	 jmp	 $LN40@ReturnCalc
$LN8@ReturnCalc:

; 372  : 	case eSkill32: Result = this->rUser[aIndex].AttackRate * this->rSkill[SkillID].StartDamage;	break;

  01b2d	8b 45 08	 mov	 eax, DWORD PTR _aIndex$[ebp]
  01b30	69 c0 a0 00 00
	00		 imul	 eax, 160		; 000000a0H
  01b36	8b 4d 0c	 mov	 ecx, DWORD PTR _SkillID$[ebp]
  01b39	6b c9 44	 imul	 ecx, 68			; 00000044H
  01b3c	8b 55 fc	 mov	 edx, DWORD PTR _this$[ebp]
  01b3f	8b 75 fc	 mov	 esi, DWORD PTR _this$[ebp]
  01b42	8b 84 02 c0 00
	00 00		 mov	 eax, DWORD PTR [edx+eax+192]
  01b49	0f af 84 0e 64
	9f 24 00	 imul	 eax, DWORD PTR [esi+ecx+2400100]
  01b51	89 45 f8	 mov	 DWORD PTR _Result$[ebp], eax
  01b54	eb 79		 jmp	 SHORT $LN40@ReturnCalc
$LN7@ReturnCalc:

; 373  : 	case eSkill33: Result = this->rUser[aIndex].WeaponBonus * this->rSkill[SkillID].StartDamage;	break;

  01b56	8b 45 08	 mov	 eax, DWORD PTR _aIndex$[ebp]
  01b59	69 c0 a0 00 00
	00		 imul	 eax, 160		; 000000a0H
  01b5f	8b 4d 0c	 mov	 ecx, DWORD PTR _SkillID$[ebp]
  01b62	6b c9 44	 imul	 ecx, 68			; 00000044H
  01b65	8b 55 fc	 mov	 edx, DWORD PTR _this$[ebp]
  01b68	8b 75 fc	 mov	 esi, DWORD PTR _this$[ebp]
  01b6b	8b 84 02 c4 00
	00 00		 mov	 eax, DWORD PTR [edx+eax+196]
  01b72	0f af 84 0e 64
	9f 24 00	 imul	 eax, DWORD PTR [esi+ecx+2400100]
  01b7a	89 45 f8	 mov	 DWORD PTR _Result$[ebp], eax
  01b7d	eb 50		 jmp	 SHORT $LN40@ReturnCalc
$LN6@ReturnCalc:

; 374  : 	case eSkill34: Result = this->rUser[aIndex].ExellentDamage * this->rSkill[SkillID].StartDamage;	break;

  01b7f	8b 45 08	 mov	 eax, DWORD PTR _aIndex$[ebp]
  01b82	69 c0 a0 00 00
	00		 imul	 eax, 160		; 000000a0H
  01b88	8b 4d 0c	 mov	 ecx, DWORD PTR _SkillID$[ebp]
  01b8b	6b c9 44	 imul	 ecx, 68			; 00000044H
  01b8e	8b 55 fc	 mov	 edx, DWORD PTR _this$[ebp]
  01b91	8b 75 fc	 mov	 esi, DWORD PTR _this$[ebp]
  01b94	8b 84 02 c8 00
	00 00		 mov	 eax, DWORD PTR [edx+eax+200]
  01b9b	0f af 84 0e 64
	9f 24 00	 imul	 eax, DWORD PTR [esi+ecx+2400100]
  01ba3	89 45 f8	 mov	 DWORD PTR _Result$[ebp], eax
  01ba6	eb 27		 jmp	 SHORT $LN40@ReturnCalc
$LN5@ReturnCalc:

; 375  : 	case eSkill35: Result = this->rUser[aIndex].CriticalDamage * this->rSkill[SkillID].StartDamage;	break;

  01ba8	8b 45 08	 mov	 eax, DWORD PTR _aIndex$[ebp]
  01bab	69 c0 a0 00 00
	00		 imul	 eax, 160		; 000000a0H
  01bb1	8b 4d 0c	 mov	 ecx, DWORD PTR _SkillID$[ebp]
  01bb4	6b c9 44	 imul	 ecx, 68			; 00000044H
  01bb7	8b 55 fc	 mov	 edx, DWORD PTR _this$[ebp]
  01bba	8b 75 fc	 mov	 esi, DWORD PTR _this$[ebp]
  01bbd	8b 84 02 cc 00
	00 00		 mov	 eax, DWORD PTR [edx+eax+204]
  01bc4	0f af 84 0e 64
	9f 24 00	 imul	 eax, DWORD PTR [esi+ecx+2400100]
  01bcc	89 45 f8	 mov	 DWORD PTR _Result$[ebp], eax
$LN40@ReturnCalc:

; 376  : 	}
; 377  : 
; 378  : 	if(Pw > 0)

  01bcf	83 7d 10 00	 cmp	 DWORD PTR _Pw$[ebp], 0
  01bd3	7e 13		 jle	 SHORT $LN4@ReturnCalc

; 379  : 	{
; 380  : #if(RAGE_DEBUG==1)
; 381  : 		LogAddC(2,"%s : ( %d * %d ) / 100 = %d",this->rSkill[SkillID].Name,Result,Pw,( Result * Pw ) / 100);
; 382  : #endif
; 383  : 		return ( Result * Pw ) / 100;

  01bd5	8b 45 f8	 mov	 eax, DWORD PTR _Result$[ebp]
  01bd8	0f af 45 10	 imul	 eax, DWORD PTR _Pw$[ebp]
  01bdc	99		 cdq
  01bdd	b9 64 00 00 00	 mov	 ecx, 100		; 00000064H
  01be2	f7 f9		 idiv	 ecx
  01be4	eb 2d		 jmp	 SHORT $LN42@ReturnCalc
  01be6	eb 2b		 jmp	 SHORT $LN42@ReturnCalc
$LN4@ReturnCalc:

; 384  : 	}
; 385  : 	else if(this->rSkill[SkillID].Percent == true)

  01be8	8b 45 0c	 mov	 eax, DWORD PTR _SkillID$[ebp]
  01beb	6b c0 44	 imul	 eax, 68			; 00000044H
  01bee	8b 4d fc	 mov	 ecx, DWORD PTR _this$[ebp]
  01bf1	0f b6 94 01 6c
	9f 24 00	 movzx	 edx, BYTE PTR [ecx+eax+2400108]
  01bf9	83 fa 01	 cmp	 edx, 1
  01bfc	75 12		 jne	 SHORT $LN2@ReturnCalc

; 386  : 	{
; 387  : #if(RAGE_DEBUG==1)
; 388  : 		LogAddC(2,"%s : ( %d * 100 ) / 100 = %d",this->rSkill[SkillID].Name,Result,( Result * 100 ) / 100);
; 389  : #endif
; 390  : 		return ( Result * 100 ) / 100;

  01bfe	8b 45 f8	 mov	 eax, DWORD PTR _Result$[ebp]
  01c01	6b c0 64	 imul	 eax, 100		; 00000064H
  01c04	99		 cdq
  01c05	b9 64 00 00 00	 mov	 ecx, 100		; 00000064H
  01c0a	f7 f9		 idiv	 ecx
  01c0c	eb 05		 jmp	 SHORT $LN42@ReturnCalc

; 391  : 	}
; 392  : 	else

  01c0e	eb 03		 jmp	 SHORT $LN42@ReturnCalc
$LN2@ReturnCalc:

; 393  : 	{
; 394  : 		return Result;

  01c10	8b 45 f8	 mov	 eax, DWORD PTR _Result$[ebp]
$LN42@ReturnCalc:

; 395  : 	}
; 396  : }

  01c13	5f		 pop	 edi
  01c14	5e		 pop	 esi
  01c15	5b		 pop	 ebx
  01c16	8b e5		 mov	 esp, ebp
  01c18	5d		 pop	 ebp
  01c19	c2 0c 00	 ret	 12			; 0000000cH
$LN44@ReturnCalc:
  01c1c	00 00 00 00	 DD	 $LN39@ReturnCalc
  01c20	00 00 00 00	 DD	 $LN38@ReturnCalc
  01c24	00 00 00 00	 DD	 $LN37@ReturnCalc
  01c28	00 00 00 00	 DD	 $LN36@ReturnCalc
  01c2c	00 00 00 00	 DD	 $LN35@ReturnCalc
  01c30	00 00 00 00	 DD	 $LN34@ReturnCalc
  01c34	00 00 00 00	 DD	 $LN33@ReturnCalc
  01c38	00 00 00 00	 DD	 $LN32@ReturnCalc
  01c3c	00 00 00 00	 DD	 $LN31@ReturnCalc
  01c40	00 00 00 00	 DD	 $LN30@ReturnCalc
  01c44	00 00 00 00	 DD	 $LN29@ReturnCalc
  01c48	00 00 00 00	 DD	 $LN28@ReturnCalc
  01c4c	00 00 00 00	 DD	 $LN27@ReturnCalc
  01c50	00 00 00 00	 DD	 $LN26@ReturnCalc
  01c54	00 00 00 00	 DD	 $LN25@ReturnCalc
  01c58	00 00 00 00	 DD	 $LN24@ReturnCalc
  01c5c	00 00 00 00	 DD	 $LN23@ReturnCalc
  01c60	00 00 00 00	 DD	 $LN22@ReturnCalc
  01c64	00 00 00 00	 DD	 $LN21@ReturnCalc
  01c68	00 00 00 00	 DD	 $LN20@ReturnCalc
  01c6c	00 00 00 00	 DD	 $LN19@ReturnCalc
  01c70	00 00 00 00	 DD	 $LN18@ReturnCalc
  01c74	00 00 00 00	 DD	 $LN17@ReturnCalc
  01c78	00 00 00 00	 DD	 $LN16@ReturnCalc
  01c7c	00 00 00 00	 DD	 $LN15@ReturnCalc
  01c80	00 00 00 00	 DD	 $LN14@ReturnCalc
  01c84	00 00 00 00	 DD	 $LN13@ReturnCalc
  01c88	00 00 00 00	 DD	 $LN12@ReturnCalc
  01c8c	00 00 00 00	 DD	 $LN11@ReturnCalc
  01c90	00 00 00 00	 DD	 $LN10@ReturnCalc
  01c94	00 00 00 00	 DD	 $LN9@ReturnCalc
  01c98	00 00 00 00	 DD	 $LN8@ReturnCalc
  01c9c	00 00 00 00	 DD	 $LN7@ReturnCalc
  01ca0	00 00 00 00	 DD	 $LN6@ReturnCalc
  01ca4	00 00 00 00	 DD	 $LN5@ReturnCalc
?ReturnCalc@cSystemOfRage@@QAEHHHH@Z ENDP		; cSystemOfRage::ReturnCalc
_TEXT	ENDS
PUBLIC	?set@PBMSG_HEAD2@@QAEXPAEEEE@Z			; PBMSG_HEAD2::set
PUBLIC	?DataRecv@cSystemOfRage@@QAEXPAUClickSend@@H@Z	; cSystemOfRage::DataRecv
EXTRN	?gObjCalCharacter@@YAXH@Z:PROC			; gObjCalCharacter
EXTRN	?DataSend@@YAHHPAEK@Z:PROC			; DataSend
; Function compile flags: /Odtp /ZI
_TEXT	SEGMENT
_rSend$221812 = -16					; size = 8
_iSkill$ = -8						; size = 4
_this$ = -4						; size = 4
_aRecv$ = 8						; size = 4
_aIndex$ = 12						; size = 4
?DataRecv@cSystemOfRage@@QAEXPAUClickSend@@H@Z PROC	; cSystemOfRage::DataRecv
; _this$ = ecx

; 399  : {

  01cb0	55		 push	 ebp
  01cb1	8b ec		 mov	 ebp, esp
  01cb3	83 ec 50	 sub	 esp, 80			; 00000050H
  01cb6	53		 push	 ebx
  01cb7	56		 push	 esi
  01cb8	57		 push	 edi
  01cb9	89 4d fc	 mov	 DWORD PTR _this$[ebp], ecx

; 400  : 	int iSkill = aRecv->SkillID;

  01cbc	8b 45 08	 mov	 eax, DWORD PTR _aRecv$[ebp]
  01cbf	0f b7 48 06	 movzx	 ecx, WORD PTR [eax+6]
  01cc3	89 4d f8	 mov	 DWORD PTR _iSkill$[ebp], ecx

; 401  : 
; 402  : 	if(this->rUser[aIndex].rPoints > 0 && this->rSkill[iSkill].MaxPoint > this->ReturnPoint(aIndex,iSkill))

  01cc6	8b 45 0c	 mov	 eax, DWORD PTR _aIndex$[ebp]
  01cc9	69 c0 a0 00 00
	00		 imul	 eax, 160		; 000000a0H
  01ccf	8b 4d fc	 mov	 ecx, DWORD PTR _this$[ebp]
  01cd2	83 7c 01 38 00	 cmp	 DWORD PTR [ecx+eax+56], 0
  01cd7	0f 8e 99 00 00
	00		 jle	 $LN2@DataRecv
  01cdd	8b 75 f8	 mov	 esi, DWORD PTR _iSkill$[ebp]
  01ce0	6b f6 44	 imul	 esi, 68			; 00000044H
  01ce3	8b 45 f8	 mov	 eax, DWORD PTR _iSkill$[ebp]
  01ce6	50		 push	 eax
  01ce7	8b 4d 0c	 mov	 ecx, DWORD PTR _aIndex$[ebp]
  01cea	51		 push	 ecx
  01ceb	8b 4d fc	 mov	 ecx, DWORD PTR _this$[ebp]
  01cee	e8 00 00 00 00	 call	 ?ReturnPoint@cSystemOfRage@@QAEHHH@Z ; cSystemOfRage::ReturnPoint
  01cf3	8b 55 fc	 mov	 edx, DWORD PTR _this$[ebp]
  01cf6	39 84 32 68 9f
	24 00		 cmp	 DWORD PTR [edx+esi+2400104], eax
  01cfd	7e 77		 jle	 SHORT $LN2@DataRecv

; 403  : 	{
; 404  : 		this->rUser[aIndex].rPoints--;

  01cff	8b 45 0c	 mov	 eax, DWORD PTR _aIndex$[ebp]
  01d02	69 c0 a0 00 00
	00		 imul	 eax, 160		; 000000a0H
  01d08	8b 4d fc	 mov	 ecx, DWORD PTR _this$[ebp]
  01d0b	8b 54 01 38	 mov	 edx, DWORD PTR [ecx+eax+56]
  01d0f	83 ea 01	 sub	 edx, 1
  01d12	8b 45 0c	 mov	 eax, DWORD PTR _aIndex$[ebp]
  01d15	69 c0 a0 00 00
	00		 imul	 eax, 160		; 000000a0H
  01d1b	8b 4d fc	 mov	 ecx, DWORD PTR _this$[ebp]
  01d1e	89 54 01 38	 mov	 DWORD PTR [ecx+eax+56], edx

; 405  : 		this->FilterSkill(aIndex,iSkill);

  01d22	8b 45 f8	 mov	 eax, DWORD PTR _iSkill$[ebp]
  01d25	50		 push	 eax
  01d26	8b 4d 0c	 mov	 ecx, DWORD PTR _aIndex$[ebp]
  01d29	51		 push	 ecx
  01d2a	8b 4d fc	 mov	 ecx, DWORD PTR _this$[ebp]
  01d2d	e8 00 00 00 00	 call	 ?FilterSkill@cSystemOfRage@@QAEXHH@Z ; cSystemOfRage::FilterSkill

; 406  : 
; 407  : 		ClickSend rSend;
; 408  : 		rSend.h.set((LPBYTE)&rSend, 0xFB, 1, sizeof(rSend));

  01d32	6a 08		 push	 8
  01d34	6a 01		 push	 1
  01d36	68 fb 00 00 00	 push	 251			; 000000fbH
  01d3b	8d 45 f0	 lea	 eax, DWORD PTR _rSend$221812[ebp]
  01d3e	50		 push	 eax
  01d3f	8d 4d f0	 lea	 ecx, DWORD PTR _rSend$221812[ebp]
  01d42	e8 00 00 00 00	 call	 ?set@PBMSG_HEAD2@@QAEXPAEEEE@Z ; PBMSG_HEAD2::set

; 409  : 		rSend.Click = 1;

  01d47	c6 45 f4 01	 mov	 BYTE PTR _rSend$221812[ebp+4], 1

; 410  : 		rSend.SkillID = aRecv->SkillID;

  01d4b	8b 45 08	 mov	 eax, DWORD PTR _aRecv$[ebp]
  01d4e	66 8b 48 06	 mov	 cx, WORD PTR [eax+6]
  01d52	66 89 4d f6	 mov	 WORD PTR _rSend$221812[ebp+6], cx

; 411  : 		DataSend(aIndex,(LPBYTE)&rSend,sizeof(rSend));

  01d56	6a 08		 push	 8
  01d58	8d 45 f0	 lea	 eax, DWORD PTR _rSend$221812[ebp]
  01d5b	50		 push	 eax
  01d5c	8b 4d 0c	 mov	 ecx, DWORD PTR _aIndex$[ebp]
  01d5f	51		 push	 ecx
  01d60	e8 00 00 00 00	 call	 ?DataSend@@YAHHPAEK@Z	; DataSend
  01d65	83 c4 0c	 add	 esp, 12			; 0000000cH

; 412  : 		gObjCalCharacter(aIndex);

  01d68	8b 45 0c	 mov	 eax, DWORD PTR _aIndex$[ebp]
  01d6b	50		 push	 eax
  01d6c	e8 00 00 00 00	 call	 ?gObjCalCharacter@@YAXH@Z ; gObjCalCharacter
  01d71	83 c4 04	 add	 esp, 4

; 413  : 	}
; 414  : 	else

  01d74	eb 0c		 jmp	 SHORT $LN3@DataRecv
$LN2@DataRecv:

; 415  : 	{
; 416  : 		CloseClient(aIndex);

  01d76	8b 45 0c	 mov	 eax, DWORD PTR _aIndex$[ebp]
  01d79	50		 push	 eax
  01d7a	e8 00 00 00 00	 call	 ?CloseClient@@YAXH@Z	; CloseClient
  01d7f	83 c4 04	 add	 esp, 4
$LN3@DataRecv:

; 417  : 	}
; 418  : }

  01d82	5f		 pop	 edi
  01d83	5e		 pop	 esi
  01d84	5b		 pop	 ebx
  01d85	8b e5		 mov	 esp, ebp
  01d87	5d		 pop	 ebp
  01d88	c2 08 00	 ret	 8
?DataRecv@cSystemOfRage@@QAEXPAUClickSend@@H@Z ENDP	; cSystemOfRage::DataRecv
; Function compile flags: /Odtp /ZI
; File d:\projects\exteam6.3\source\gameserver\include\prodef.h
_TEXT	ENDS
;	COMDAT ?set@PBMSG_HEAD2@@QAEXPAEEEE@Z
_TEXT	SEGMENT
_this$ = -4						; size = 4
_lpBuf$ = 8						; size = 4
_head$ = 12						; size = 1
_sub$ = 16						; size = 1
_size$ = 20						; size = 1
?set@PBMSG_HEAD2@@QAEXPAEEEE@Z PROC			; PBMSG_HEAD2::set, COMDAT
; _this$ = ecx

; 104  : 	{

  00000	55		 push	 ebp
  00001	8b ec		 mov	 ebp, esp
  00003	83 ec 44	 sub	 esp, 68			; 00000044H
  00006	53		 push	 ebx
  00007	56		 push	 esi
  00008	57		 push	 edi
  00009	89 4d fc	 mov	 DWORD PTR _this$[ebp], ecx

; 105  : 		lpBuf[0] = 0xC1;

  0000c	8b 45 08	 mov	 eax, DWORD PTR _lpBuf$[ebp]
  0000f	c6 00 c1	 mov	 BYTE PTR [eax], 193	; 000000c1H

; 106  : 		lpBuf[1] = size;

  00012	8b 45 08	 mov	 eax, DWORD PTR _lpBuf$[ebp]
  00015	8a 4d 14	 mov	 cl, BYTE PTR _size$[ebp]
  00018	88 48 01	 mov	 BYTE PTR [eax+1], cl

; 107  : 		lpBuf[2] = head;

  0001b	8b 45 08	 mov	 eax, DWORD PTR _lpBuf$[ebp]
  0001e	8a 4d 0c	 mov	 cl, BYTE PTR _head$[ebp]
  00021	88 48 02	 mov	 BYTE PTR [eax+2], cl

; 108  : 		lpBuf[3] = sub;

  00024	8b 45 08	 mov	 eax, DWORD PTR _lpBuf$[ebp]
  00027	8a 4d 10	 mov	 cl, BYTE PTR _sub$[ebp]
  0002a	88 48 03	 mov	 BYTE PTR [eax+3], cl

; 109  : 	};

  0002d	5f		 pop	 edi
  0002e	5e		 pop	 esi
  0002f	5b		 pop	 ebx
  00030	8b e5		 mov	 esp, ebp
  00032	5d		 pop	 ebp
  00033	c2 10 00	 ret	 16			; 00000010H
?set@PBMSG_HEAD2@@QAEXPAEEEE@Z ENDP			; PBMSG_HEAD2::set
_TEXT	ENDS
PUBLIC	?CalcCharacter@cSystemOfRage@@QAEXH@Z		; cSystemOfRage::CalcCharacter
EXTRN	?IsItem@CItem@@QAEHXZ:PROC			; CItem::IsItem
EXTRN	?gObjWingSprite@@YAHPAUOBJECTSTRUCT@@@Z:PROC	; gObjWingSprite
EXTRN	?gObj@@3PAUOBJECTSTRUCT@@A:DWORD		; gObj
; Function compile flags: /Odtp /ZI
; File d:\projects\exteam6.3\source\gameserver\gameserver\systemofrage.cpp
_TEXT	SEGMENT
_iAddFinallife$ = -12					; size = 4
_lpObj$ = -8						; size = 4
_this$ = -4						; size = 4
_aIndex$ = 8						; size = 4
?CalcCharacter@cSystemOfRage@@QAEXH@Z PROC		; cSystemOfRage::CalcCharacter
; _this$ = ecx

; 421  : {

  01d90	55		 push	 ebp
  01d91	8b ec		 mov	 ebp, esp
  01d93	83 ec 4c	 sub	 esp, 76			; 0000004cH
  01d96	53		 push	 ebx
  01d97	56		 push	 esi
  01d98	57		 push	 edi
  01d99	89 4d fc	 mov	 DWORD PTR _this$[ebp], ecx

; 422  : 	if(!Enable)return;

  01d9c	8b 45 fc	 mov	 eax, DWORD PTR _this$[ebp]
  01d9f	0f b6 08	 movzx	 ecx, BYTE PTR [eax]
  01da2	85 c9		 test	 ecx, ecx
  01da4	75 05		 jne	 SHORT $LN13@CalcCharac
  01da6	e9 6f 08 00 00	 jmp	 $LN14@CalcCharac
$LN13@CalcCharac:

; 423  : 	LPOBJ lpObj = &gObj[aIndex];

  01dab	8b 45 08	 mov	 eax, DWORD PTR _aIndex$[ebp]
  01dae	69 c0 38 2b 00
	00		 imul	 eax, 11064		; 00002b38H
  01db4	03 05 00 00 00
	00		 add	 eax, DWORD PTR ?gObj@@3PAUOBJECTSTRUCT@@A ; gObj
  01dba	89 45 f8	 mov	 DWORD PTR _lpObj$[ebp], eax

; 424  : 	//Damage
; 425  : 	lpObj->m_AttackDamageMinRight += this->ReturnCalc(aIndex, eSkill1,0);	// 6

  01dbd	6a 00		 push	 0
  01dbf	6a 01		 push	 1
  01dc1	8b 45 08	 mov	 eax, DWORD PTR _aIndex$[ebp]
  01dc4	50		 push	 eax
  01dc5	8b 4d fc	 mov	 ecx, DWORD PTR _this$[ebp]
  01dc8	e8 00 00 00 00	 call	 ?ReturnCalc@cSystemOfRage@@QAEHHHH@Z ; cSystemOfRage::ReturnCalc
  01dcd	8b 4d f8	 mov	 ecx, DWORD PTR _lpObj$[ebp]
  01dd0	03 81 84 04 00
	00		 add	 eax, DWORD PTR [ecx+1156]
  01dd6	8b 55 f8	 mov	 edx, DWORD PTR _lpObj$[ebp]
  01dd9	89 82 84 04 00
	00		 mov	 DWORD PTR [edx+1156], eax

; 426  : 	lpObj->m_AttackDamageMaxRight += this->ReturnCalc(aIndex, eSkill1,0);// 4

  01ddf	6a 00		 push	 0
  01de1	6a 01		 push	 1
  01de3	8b 45 08	 mov	 eax, DWORD PTR _aIndex$[ebp]
  01de6	50		 push	 eax
  01de7	8b 4d fc	 mov	 ecx, DWORD PTR _this$[ebp]
  01dea	e8 00 00 00 00	 call	 ?ReturnCalc@cSystemOfRage@@QAEHHHH@Z ; cSystemOfRage::ReturnCalc
  01def	8b 4d f8	 mov	 ecx, DWORD PTR _lpObj$[ebp]
  01df2	03 81 80 04 00
	00		 add	 eax, DWORD PTR [ecx+1152]
  01df8	8b 55 f8	 mov	 edx, DWORD PTR _lpObj$[ebp]
  01dfb	89 82 80 04 00
	00		 mov	 DWORD PTR [edx+1152], eax

; 427  : 	lpObj->m_AttackDamageMinLeft += this->ReturnCalc(aIndex, eSkill1,0);	// 6

  01e01	6a 00		 push	 0
  01e03	6a 01		 push	 1
  01e05	8b 45 08	 mov	 eax, DWORD PTR _aIndex$[ebp]
  01e08	50		 push	 eax
  01e09	8b 4d fc	 mov	 ecx, DWORD PTR _this$[ebp]
  01e0c	e8 00 00 00 00	 call	 ?ReturnCalc@cSystemOfRage@@QAEHHHH@Z ; cSystemOfRage::ReturnCalc
  01e11	8b 4d f8	 mov	 ecx, DWORD PTR _lpObj$[ebp]
  01e14	03 81 7c 04 00
	00		 add	 eax, DWORD PTR [ecx+1148]
  01e1a	8b 55 f8	 mov	 edx, DWORD PTR _lpObj$[ebp]
  01e1d	89 82 7c 04 00
	00		 mov	 DWORD PTR [edx+1148], eax

; 428  : 	lpObj->m_AttackDamageMaxLeft += this->ReturnCalc(aIndex, eSkill1,0);	// 4

  01e23	6a 00		 push	 0
  01e25	6a 01		 push	 1
  01e27	8b 45 08	 mov	 eax, DWORD PTR _aIndex$[ebp]
  01e2a	50		 push	 eax
  01e2b	8b 4d fc	 mov	 ecx, DWORD PTR _this$[ebp]
  01e2e	e8 00 00 00 00	 call	 ?ReturnCalc@cSystemOfRage@@QAEHHHH@Z ; cSystemOfRage::ReturnCalc
  01e33	8b 4d f8	 mov	 ecx, DWORD PTR _lpObj$[ebp]
  01e36	03 81 78 04 00
	00		 add	 eax, DWORD PTR [ecx+1144]
  01e3c	8b 55 f8	 mov	 edx, DWORD PTR _lpObj$[ebp]
  01e3f	89 82 78 04 00
	00		 mov	 DWORD PTR [edx+1144], eax

; 429  : 	lpObj->m_MagicDamageMin += this->ReturnCalc(aIndex, eSkill1,0);

  01e45	6a 00		 push	 0
  01e47	6a 01		 push	 1
  01e49	8b 45 08	 mov	 eax, DWORD PTR _aIndex$[ebp]
  01e4c	50		 push	 eax
  01e4d	8b 4d fc	 mov	 ecx, DWORD PTR _this$[ebp]
  01e50	e8 00 00 00 00	 call	 ?ReturnCalc@cSystemOfRage@@QAEHHHH@Z ; cSystemOfRage::ReturnCalc
  01e55	8b 4d f8	 mov	 ecx, DWORD PTR _lpObj$[ebp]
  01e58	03 81 68 04 00
	00		 add	 eax, DWORD PTR [ecx+1128]
  01e5e	8b 55 f8	 mov	 edx, DWORD PTR _lpObj$[ebp]
  01e61	89 82 68 04 00
	00		 mov	 DWORD PTR [edx+1128], eax

; 430  : 	lpObj->m_MagicDamageMax += this->ReturnCalc(aIndex, eSkill1,0);

  01e67	6a 00		 push	 0
  01e69	6a 01		 push	 1
  01e6b	8b 45 08	 mov	 eax, DWORD PTR _aIndex$[ebp]
  01e6e	50		 push	 eax
  01e6f	8b 4d fc	 mov	 ecx, DWORD PTR _this$[ebp]
  01e72	e8 00 00 00 00	 call	 ?ReturnCalc@cSystemOfRage@@QAEHHHH@Z ; cSystemOfRage::ReturnCalc
  01e77	8b 4d f8	 mov	 ecx, DWORD PTR _lpObj$[ebp]
  01e7a	03 81 6c 04 00
	00		 add	 eax, DWORD PTR [ecx+1132]
  01e80	8b 55 f8	 mov	 edx, DWORD PTR _lpObj$[ebp]
  01e83	89 82 6c 04 00
	00		 mov	 DWORD PTR [edx+1132], eax

; 431  : 	//WingsDamagePlus
; 432  : 	if(gObjWingSprite(lpObj))

  01e89	8b 45 f8	 mov	 eax, DWORD PTR _lpObj$[ebp]
  01e8c	50		 push	 eax
  01e8d	e8 00 00 00 00	 call	 ?gObjWingSprite@@YAHPAUOBJECTSTRUCT@@@Z ; gObjWingSprite
  01e92	83 c4 04	 add	 esp, 4
  01e95	85 c0		 test	 eax, eax
  01e97	0f 84 cc 00 00
	00		 je	 $LN12@CalcCharac

; 433  : 	{
; 434  : 		lpObj->m_AttackDamageMinRight += this->ReturnCalc(aIndex, eSkill4,0);

  01e9d	6a 00		 push	 0
  01e9f	6a 04		 push	 4
  01ea1	8b 45 08	 mov	 eax, DWORD PTR _aIndex$[ebp]
  01ea4	50		 push	 eax
  01ea5	8b 4d fc	 mov	 ecx, DWORD PTR _this$[ebp]
  01ea8	e8 00 00 00 00	 call	 ?ReturnCalc@cSystemOfRage@@QAEHHHH@Z ; cSystemOfRage::ReturnCalc
  01ead	8b 4d f8	 mov	 ecx, DWORD PTR _lpObj$[ebp]
  01eb0	03 81 84 04 00
	00		 add	 eax, DWORD PTR [ecx+1156]
  01eb6	8b 55 f8	 mov	 edx, DWORD PTR _lpObj$[ebp]
  01eb9	89 82 84 04 00
	00		 mov	 DWORD PTR [edx+1156], eax

; 435  : 		lpObj->m_AttackDamageMaxRight += this->ReturnCalc(aIndex, eSkill4,0);

  01ebf	6a 00		 push	 0
  01ec1	6a 04		 push	 4
  01ec3	8b 45 08	 mov	 eax, DWORD PTR _aIndex$[ebp]
  01ec6	50		 push	 eax
  01ec7	8b 4d fc	 mov	 ecx, DWORD PTR _this$[ebp]
  01eca	e8 00 00 00 00	 call	 ?ReturnCalc@cSystemOfRage@@QAEHHHH@Z ; cSystemOfRage::ReturnCalc
  01ecf	8b 4d f8	 mov	 ecx, DWORD PTR _lpObj$[ebp]
  01ed2	03 81 80 04 00
	00		 add	 eax, DWORD PTR [ecx+1152]
  01ed8	8b 55 f8	 mov	 edx, DWORD PTR _lpObj$[ebp]
  01edb	89 82 80 04 00
	00		 mov	 DWORD PTR [edx+1152], eax

; 436  : 		lpObj->m_AttackDamageMinLeft += this->ReturnCalc(aIndex, eSkill4,0);

  01ee1	6a 00		 push	 0
  01ee3	6a 04		 push	 4
  01ee5	8b 45 08	 mov	 eax, DWORD PTR _aIndex$[ebp]
  01ee8	50		 push	 eax
  01ee9	8b 4d fc	 mov	 ecx, DWORD PTR _this$[ebp]
  01eec	e8 00 00 00 00	 call	 ?ReturnCalc@cSystemOfRage@@QAEHHHH@Z ; cSystemOfRage::ReturnCalc
  01ef1	8b 4d f8	 mov	 ecx, DWORD PTR _lpObj$[ebp]
  01ef4	03 81 7c 04 00
	00		 add	 eax, DWORD PTR [ecx+1148]
  01efa	8b 55 f8	 mov	 edx, DWORD PTR _lpObj$[ebp]
  01efd	89 82 7c 04 00
	00		 mov	 DWORD PTR [edx+1148], eax

; 437  : 		lpObj->m_AttackDamageMaxLeft += this->ReturnCalc(aIndex, eSkill4,0);

  01f03	6a 00		 push	 0
  01f05	6a 04		 push	 4
  01f07	8b 45 08	 mov	 eax, DWORD PTR _aIndex$[ebp]
  01f0a	50		 push	 eax
  01f0b	8b 4d fc	 mov	 ecx, DWORD PTR _this$[ebp]
  01f0e	e8 00 00 00 00	 call	 ?ReturnCalc@cSystemOfRage@@QAEHHHH@Z ; cSystemOfRage::ReturnCalc
  01f13	8b 4d f8	 mov	 ecx, DWORD PTR _lpObj$[ebp]
  01f16	03 81 78 04 00
	00		 add	 eax, DWORD PTR [ecx+1144]
  01f1c	8b 55 f8	 mov	 edx, DWORD PTR _lpObj$[ebp]
  01f1f	89 82 78 04 00
	00		 mov	 DWORD PTR [edx+1144], eax

; 438  : 		lpObj->m_MagicDamageMin += this->ReturnCalc(aIndex, eSkill4,0);

  01f25	6a 00		 push	 0
  01f27	6a 04		 push	 4
  01f29	8b 45 08	 mov	 eax, DWORD PTR _aIndex$[ebp]
  01f2c	50		 push	 eax
  01f2d	8b 4d fc	 mov	 ecx, DWORD PTR _this$[ebp]
  01f30	e8 00 00 00 00	 call	 ?ReturnCalc@cSystemOfRage@@QAEHHHH@Z ; cSystemOfRage::ReturnCalc
  01f35	8b 4d f8	 mov	 ecx, DWORD PTR _lpObj$[ebp]
  01f38	03 81 68 04 00
	00		 add	 eax, DWORD PTR [ecx+1128]
  01f3e	8b 55 f8	 mov	 edx, DWORD PTR _lpObj$[ebp]
  01f41	89 82 68 04 00
	00		 mov	 DWORD PTR [edx+1128], eax

; 439  : 		lpObj->m_MagicDamageMax += this->ReturnCalc(aIndex, eSkill4,0);

  01f47	6a 00		 push	 0
  01f49	6a 04		 push	 4
  01f4b	8b 45 08	 mov	 eax, DWORD PTR _aIndex$[ebp]
  01f4e	50		 push	 eax
  01f4f	8b 4d fc	 mov	 ecx, DWORD PTR _this$[ebp]
  01f52	e8 00 00 00 00	 call	 ?ReturnCalc@cSystemOfRage@@QAEHHHH@Z ; cSystemOfRage::ReturnCalc
  01f57	8b 4d f8	 mov	 ecx, DWORD PTR _lpObj$[ebp]
  01f5a	03 81 6c 04 00
	00		 add	 eax, DWORD PTR [ecx+1132]
  01f60	8b 55 f8	 mov	 edx, DWORD PTR _lpObj$[ebp]
  01f63	89 82 6c 04 00
	00		 mov	 DWORD PTR [edx+1132], eax
$LN12@CalcCharac:

; 440  : 	}
; 441  : 	//FinalMana
; 442  : 	lpObj->AddMana +=  this->ReturnCalc(aIndex, eSkill5,(lpObj->Mana));

  01f69	8b 45 f8	 mov	 eax, DWORD PTR _lpObj$[ebp]
  01f6c	d9 80 10 01 00
	00		 fld	 DWORD PTR [eax+272]
  01f72	e8 00 00 00 00	 call	 __ftol2_sse
  01f77	50		 push	 eax
  01f78	6a 05		 push	 5
  01f7a	8b 4d 08	 mov	 ecx, DWORD PTR _aIndex$[ebp]
  01f7d	51		 push	 ecx
  01f7e	8b 4d fc	 mov	 ecx, DWORD PTR _this$[ebp]
  01f81	e8 00 00 00 00	 call	 ?ReturnCalc@cSystemOfRage@@QAEHHHH@Z ; cSystemOfRage::ReturnCalc
  01f86	8b 55 f8	 mov	 edx, DWORD PTR _lpObj$[ebp]
  01f89	03 82 50 01 00
	00		 add	 eax, DWORD PTR [edx+336]
  01f8f	8b 4d f8	 mov	 ecx, DWORD PTR _lpObj$[ebp]
  01f92	89 81 50 01 00
	00		 mov	 DWORD PTR [ecx+336], eax

; 443  : 	//IgnoreDefence
; 444  : 	lpObj->SetOpIgnoreDefense += this->ReturnCalc(aIndex, eSkill6,0);

  01f98	6a 00		 push	 0
  01f9a	6a 06		 push	 6
  01f9c	8b 45 08	 mov	 eax, DWORD PTR _aIndex$[ebp]
  01f9f	50		 push	 eax
  01fa0	8b 4d fc	 mov	 ecx, DWORD PTR _this$[ebp]
  01fa3	e8 00 00 00 00	 call	 ?ReturnCalc@cSystemOfRage@@QAEHHHH@Z ; cSystemOfRage::ReturnCalc
  01fa8	8b 4d f8	 mov	 ecx, DWORD PTR _lpObj$[ebp]
  01fab	0f b6 91 3e 11
	00 00		 movzx	 edx, BYTE PTR [ecx+4414]
  01fb2	03 d0		 add	 edx, eax
  01fb4	8b 45 f8	 mov	 eax, DWORD PTR _lpObj$[ebp]
  01fb7	88 90 3e 11 00
	00		 mov	 BYTE PTR [eax+4414], dl

; 445  : 	if(lpObj->SetOpIgnoreDefense>90)

  01fbd	8b 45 f8	 mov	 eax, DWORD PTR _lpObj$[ebp]
  01fc0	0f b6 88 3e 11
	00 00		 movzx	 ecx, BYTE PTR [eax+4414]
  01fc7	83 f9 5a	 cmp	 ecx, 90			; 0000005aH
  01fca	7e 0a		 jle	 SHORT $LN11@CalcCharac

; 446  : 	{
; 447  : 		lpObj->SetOpIgnoreDefense = 90;

  01fcc	8b 45 f8	 mov	 eax, DWORD PTR _lpObj$[ebp]
  01fcf	c6 80 3e 11 00
	00 5a		 mov	 BYTE PTR [eax+4414], 90	; 0000005aH
$LN11@CalcCharac:

; 448  : 	}
; 449  : 	//CriticalDamageRate
; 450  : 	lpObj->m_CriticalDamage += this->ReturnCalc(aIndex, eSkill9,0);

  01fd6	6a 00		 push	 0
  01fd8	6a 09		 push	 9
  01fda	8b 45 08	 mov	 eax, DWORD PTR _aIndex$[ebp]
  01fdd	50		 push	 eax
  01fde	8b 4d fc	 mov	 ecx, DWORD PTR _this$[ebp]
  01fe1	e8 00 00 00 00	 call	 ?ReturnCalc@cSystemOfRage@@QAEHHHH@Z ; cSystemOfRage::ReturnCalc
  01fe6	8b 4d f8	 mov	 ecx, DWORD PTR _lpObj$[ebp]
  01fe9	03 81 bc 04 00
	00		 add	 eax, DWORD PTR [ecx+1212]
  01fef	8b 55 f8	 mov	 edx, DWORD PTR _lpObj$[ebp]
  01ff2	89 82 bc 04 00
	00		 mov	 DWORD PTR [edx+1212], eax

; 451  : 	if(lpObj->m_CriticalDamage>90)

  01ff8	8b 45 f8	 mov	 eax, DWORD PTR _lpObj$[ebp]
  01ffb	83 b8 bc 04 00
	00 5a		 cmp	 DWORD PTR [eax+1212], 90 ; 0000005aH
  02002	7e 0d		 jle	 SHORT $LN10@CalcCharac

; 452  : 	{
; 453  : 		lpObj->m_CriticalDamage = 90;

  02004	8b 45 f8	 mov	 eax, DWORD PTR _lpObj$[ebp]
  02007	c7 80 bc 04 00
	00 5a 00 00 00	 mov	 DWORD PTR [eax+1212], 90 ; 0000005aH
$LN10@CalcCharac:

; 454  : 	}
; 455  : 	//AbsordDamage
; 456  : 	lpObj->DamageMinus += this->ReturnCalc(aIndex, eSkill10,0);	//DeBug Error Fix

  02011	6a 00		 push	 0
  02013	6a 0a		 push	 10			; 0000000aH
  02015	8b 45 08	 mov	 eax, DWORD PTR _aIndex$[ebp]
  02018	50		 push	 eax
  02019	8b 4d fc	 mov	 ecx, DWORD PTR _this$[ebp]
  0201c	e8 00 00 00 00	 call	 ?ReturnCalc@cSystemOfRage@@QAEHHHH@Z ; cSystemOfRage::ReturnCalc
  02021	8b 4d f8	 mov	 ecx, DWORD PTR _lpObj$[ebp]
  02024	0f b6 91 70 01
	00 00		 movzx	 edx, BYTE PTR [ecx+368]
  0202b	03 d0		 add	 edx, eax
  0202d	8b 45 f8	 mov	 eax, DWORD PTR _lpObj$[ebp]
  02030	88 90 70 01 00
	00		 mov	 BYTE PTR [eax+368], dl

; 457  : 	if(lpObj->DamageMinus > 50)

  02036	8b 45 f8	 mov	 eax, DWORD PTR _lpObj$[ebp]
  02039	0f b6 88 70 01
	00 00		 movzx	 ecx, BYTE PTR [eax+368]
  02040	83 f9 32	 cmp	 ecx, 50			; 00000032H
  02043	7e 0a		 jle	 SHORT $LN9@CalcCharac

; 458  : 	{
; 459  : 		lpObj->DamageMinus = 50;

  02045	8b 45 f8	 mov	 eax, DWORD PTR _lpObj$[ebp]
  02048	c6 80 70 01 00
	00 32		 mov	 BYTE PTR [eax+368], 50	; 00000032H
$LN9@CalcCharac:

; 460  : 	}
; 461  : 	//PetDamageBonus
; 462  : 	if(lpObj->pInventory[8].IsItem())

  0204f	8b 45 f8	 mov	 eax, DWORD PTR _lpObj$[ebp]
  02052	8b 88 24 0e 00
	00		 mov	 ecx, DWORD PTR [eax+3620]
  02058	81 c1 a0 06 00
	00		 add	 ecx, 1696		; 000006a0H
  0205e	e8 00 00 00 00	 call	 ?IsItem@CItem@@QAEHXZ	; CItem::IsItem
  02063	85 c0		 test	 eax, eax
  02065	0f 84 cc 00 00
	00		 je	 $LN8@CalcCharac

; 463  : 	{
; 464  : 		lpObj->m_AttackDamageMinRight += this->ReturnCalc(aIndex, eSkill11,0);

  0206b	6a 00		 push	 0
  0206d	6a 0b		 push	 11			; 0000000bH
  0206f	8b 45 08	 mov	 eax, DWORD PTR _aIndex$[ebp]
  02072	50		 push	 eax
  02073	8b 4d fc	 mov	 ecx, DWORD PTR _this$[ebp]
  02076	e8 00 00 00 00	 call	 ?ReturnCalc@cSystemOfRage@@QAEHHHH@Z ; cSystemOfRage::ReturnCalc
  0207b	8b 4d f8	 mov	 ecx, DWORD PTR _lpObj$[ebp]
  0207e	03 81 84 04 00
	00		 add	 eax, DWORD PTR [ecx+1156]
  02084	8b 55 f8	 mov	 edx, DWORD PTR _lpObj$[ebp]
  02087	89 82 84 04 00
	00		 mov	 DWORD PTR [edx+1156], eax

; 465  : 		lpObj->m_AttackDamageMaxRight += this->ReturnCalc(aIndex, eSkill11,0);

  0208d	6a 00		 push	 0
  0208f	6a 0b		 push	 11			; 0000000bH
  02091	8b 45 08	 mov	 eax, DWORD PTR _aIndex$[ebp]
  02094	50		 push	 eax
  02095	8b 4d fc	 mov	 ecx, DWORD PTR _this$[ebp]
  02098	e8 00 00 00 00	 call	 ?ReturnCalc@cSystemOfRage@@QAEHHHH@Z ; cSystemOfRage::ReturnCalc
  0209d	8b 4d f8	 mov	 ecx, DWORD PTR _lpObj$[ebp]
  020a0	03 81 80 04 00
	00		 add	 eax, DWORD PTR [ecx+1152]
  020a6	8b 55 f8	 mov	 edx, DWORD PTR _lpObj$[ebp]
  020a9	89 82 80 04 00
	00		 mov	 DWORD PTR [edx+1152], eax

; 466  : 		lpObj->m_AttackDamageMinLeft += this->ReturnCalc(aIndex, eSkill11,0);

  020af	6a 00		 push	 0
  020b1	6a 0b		 push	 11			; 0000000bH
  020b3	8b 45 08	 mov	 eax, DWORD PTR _aIndex$[ebp]
  020b6	50		 push	 eax
  020b7	8b 4d fc	 mov	 ecx, DWORD PTR _this$[ebp]
  020ba	e8 00 00 00 00	 call	 ?ReturnCalc@cSystemOfRage@@QAEHHHH@Z ; cSystemOfRage::ReturnCalc
  020bf	8b 4d f8	 mov	 ecx, DWORD PTR _lpObj$[ebp]
  020c2	03 81 7c 04 00
	00		 add	 eax, DWORD PTR [ecx+1148]
  020c8	8b 55 f8	 mov	 edx, DWORD PTR _lpObj$[ebp]
  020cb	89 82 7c 04 00
	00		 mov	 DWORD PTR [edx+1148], eax

; 467  : 		lpObj->m_AttackDamageMaxLeft += this->ReturnCalc(aIndex, eSkill11,0);

  020d1	6a 00		 push	 0
  020d3	6a 0b		 push	 11			; 0000000bH
  020d5	8b 45 08	 mov	 eax, DWORD PTR _aIndex$[ebp]
  020d8	50		 push	 eax
  020d9	8b 4d fc	 mov	 ecx, DWORD PTR _this$[ebp]
  020dc	e8 00 00 00 00	 call	 ?ReturnCalc@cSystemOfRage@@QAEHHHH@Z ; cSystemOfRage::ReturnCalc
  020e1	8b 4d f8	 mov	 ecx, DWORD PTR _lpObj$[ebp]
  020e4	03 81 78 04 00
	00		 add	 eax, DWORD PTR [ecx+1144]
  020ea	8b 55 f8	 mov	 edx, DWORD PTR _lpObj$[ebp]
  020ed	89 82 78 04 00
	00		 mov	 DWORD PTR [edx+1144], eax

; 468  : 		lpObj->m_MagicDamageMin += this->ReturnCalc(aIndex, eSkill11,0);

  020f3	6a 00		 push	 0
  020f5	6a 0b		 push	 11			; 0000000bH
  020f7	8b 45 08	 mov	 eax, DWORD PTR _aIndex$[ebp]
  020fa	50		 push	 eax
  020fb	8b 4d fc	 mov	 ecx, DWORD PTR _this$[ebp]
  020fe	e8 00 00 00 00	 call	 ?ReturnCalc@cSystemOfRage@@QAEHHHH@Z ; cSystemOfRage::ReturnCalc
  02103	8b 4d f8	 mov	 ecx, DWORD PTR _lpObj$[ebp]
  02106	03 81 68 04 00
	00		 add	 eax, DWORD PTR [ecx+1128]
  0210c	8b 55 f8	 mov	 edx, DWORD PTR _lpObj$[ebp]
  0210f	89 82 68 04 00
	00		 mov	 DWORD PTR [edx+1128], eax

; 469  : 		lpObj->m_MagicDamageMax += this->ReturnCalc(aIndex, eSkill11,0);

  02115	6a 00		 push	 0
  02117	6a 0b		 push	 11			; 0000000bH
  02119	8b 45 08	 mov	 eax, DWORD PTR _aIndex$[ebp]
  0211c	50		 push	 eax
  0211d	8b 4d fc	 mov	 ecx, DWORD PTR _this$[ebp]
  02120	e8 00 00 00 00	 call	 ?ReturnCalc@cSystemOfRage@@QAEHHHH@Z ; cSystemOfRage::ReturnCalc
  02125	8b 4d f8	 mov	 ecx, DWORD PTR _lpObj$[ebp]
  02128	03 81 6c 04 00
	00		 add	 eax, DWORD PTR [ecx+1132]
  0212e	8b 55 f8	 mov	 edx, DWORD PTR _lpObj$[ebp]
  02131	89 82 6c 04 00
	00		 mov	 DWORD PTR [edx+1132], eax
$LN8@CalcCharac:

; 470  : 	}
; 471  : 	//FinalLife
; 472  : 	int iAddFinallife = this->ReturnCalc(aIndex, eSkill12,(lpObj->MaxLife+lpObj->AddLife));

  02137	8b 45 f8	 mov	 eax, DWORD PTR _lpObj$[ebp]
  0213a	db 80 4c 01 00
	00		 fild	 DWORD PTR [eax+332]
  02140	8b 4d f8	 mov	 ecx, DWORD PTR _lpObj$[ebp]
  02143	d8 81 00 01 00
	00		 fadd	 DWORD PTR [ecx+256]
  02149	e8 00 00 00 00	 call	 __ftol2_sse
  0214e	50		 push	 eax
  0214f	6a 0c		 push	 12			; 0000000cH
  02151	8b 55 08	 mov	 edx, DWORD PTR _aIndex$[ebp]
  02154	52		 push	 edx
  02155	8b 4d fc	 mov	 ecx, DWORD PTR _this$[ebp]
  02158	e8 00 00 00 00	 call	 ?ReturnCalc@cSystemOfRage@@QAEHHHH@Z ; cSystemOfRage::ReturnCalc
  0215d	89 45 f4	 mov	 DWORD PTR _iAddFinallife$[ebp], eax

; 473  : 	lpObj->AddLife += iAddFinallife;

  02160	8b 45 f8	 mov	 eax, DWORD PTR _lpObj$[ebp]
  02163	8b 88 4c 01 00
	00		 mov	 ecx, DWORD PTR [eax+332]
  02169	03 4d f4	 add	 ecx, DWORD PTR _iAddFinallife$[ebp]
  0216c	8b 55 f8	 mov	 edx, DWORD PTR _lpObj$[ebp]
  0216f	89 8a 4c 01 00
	00		 mov	 DWORD PTR [edx+332], ecx

; 474  : 	//DoubleDamage
; 475  : 	lpObj->SetOpDoubleDamage +=  this->ReturnCalc(aIndex, eSkill18,0);

  02175	6a 00		 push	 0
  02177	6a 12		 push	 18			; 00000012H
  02179	8b 45 08	 mov	 eax, DWORD PTR _aIndex$[ebp]
  0217c	50		 push	 eax
  0217d	8b 4d fc	 mov	 ecx, DWORD PTR _this$[ebp]
  02180	e8 00 00 00 00	 call	 ?ReturnCalc@cSystemOfRage@@QAEHHHH@Z ; cSystemOfRage::ReturnCalc
  02185	8b 4d f8	 mov	 ecx, DWORD PTR _lpObj$[ebp]
  02188	0f b6 91 3f 11
	00 00		 movzx	 edx, BYTE PTR [ecx+4415]
  0218f	03 d0		 add	 edx, eax
  02191	8b 45 f8	 mov	 eax, DWORD PTR _lpObj$[ebp]
  02194	88 90 3f 11 00
	00		 mov	 BYTE PTR [eax+4415], dl

; 476  : 	//FinalSD
; 477  : 	lpObj->iAddShield += this->ReturnCalc(aIndex, eSkill19,(lpObj->iMaxShield+lpObj->iAddShield));

  0219a	8b 45 f8	 mov	 eax, DWORD PTR _lpObj$[ebp]
  0219d	8b 88 58 01 00
	00		 mov	 ecx, DWORD PTR [eax+344]
  021a3	8b 55 f8	 mov	 edx, DWORD PTR _lpObj$[ebp]
  021a6	03 8a 5c 01 00
	00		 add	 ecx, DWORD PTR [edx+348]
  021ac	51		 push	 ecx
  021ad	6a 13		 push	 19			; 00000013H
  021af	8b 45 08	 mov	 eax, DWORD PTR _aIndex$[ebp]
  021b2	50		 push	 eax
  021b3	8b 4d fc	 mov	 ecx, DWORD PTR _this$[ebp]
  021b6	e8 00 00 00 00	 call	 ?ReturnCalc@cSystemOfRage@@QAEHHHH@Z ; cSystemOfRage::ReturnCalc
  021bb	8b 4d f8	 mov	 ecx, DWORD PTR _lpObj$[ebp]
  021be	03 81 5c 01 00
	00		 add	 eax, DWORD PTR [ecx+348]
  021c4	8b 55 f8	 mov	 edx, DWORD PTR _lpObj$[ebp]
  021c7	89 82 5c 01 00
	00		 mov	 DWORD PTR [edx+348], eax

; 478  : 	//FinalDefence
; 479  : 	lpObj->m_Defense += this->ReturnCalc(aIndex, eSkill20,lpObj->m_Defense);

  021cd	8b 45 f8	 mov	 eax, DWORD PTR _lpObj$[ebp]
  021d0	8b 88 94 04 00
	00		 mov	 ecx, DWORD PTR [eax+1172]
  021d6	51		 push	 ecx
  021d7	6a 14		 push	 20			; 00000014H
  021d9	8b 55 08	 mov	 edx, DWORD PTR _aIndex$[ebp]
  021dc	52		 push	 edx
  021dd	8b 4d fc	 mov	 ecx, DWORD PTR _this$[ebp]
  021e0	e8 00 00 00 00	 call	 ?ReturnCalc@cSystemOfRage@@QAEHHHH@Z ; cSystemOfRage::ReturnCalc
  021e5	8b 4d f8	 mov	 ecx, DWORD PTR _lpObj$[ebp]
  021e8	03 81 94 04 00
	00		 add	 eax, DWORD PTR [ecx+1172]
  021ee	8b 55 f8	 mov	 edx, DWORD PTR _lpObj$[ebp]
  021f1	89 82 94 04 00
	00		 mov	 DWORD PTR [edx+1172], eax

; 480  : 
; 481  : 	//GuildBonus
; 482  : 	if ( lpObj->GuildNumber > 0 )

  021f7	8b 45 f8	 mov	 eax, DWORD PTR _lpObj$[ebp]
  021fa	83 b8 34 04 00
	00 00		 cmp	 DWORD PTR [eax+1076], 0
  02201	7e 44		 jle	 SHORT $LN7@CalcCharac

; 483  : 	{
; 484  : 		lpObj->AddLife += this->ReturnCalc(aIndex, eSkill22,0);

  02203	6a 00		 push	 0
  02205	6a 16		 push	 22			; 00000016H
  02207	8b 45 08	 mov	 eax, DWORD PTR _aIndex$[ebp]
  0220a	50		 push	 eax
  0220b	8b 4d fc	 mov	 ecx, DWORD PTR _this$[ebp]
  0220e	e8 00 00 00 00	 call	 ?ReturnCalc@cSystemOfRage@@QAEHHHH@Z ; cSystemOfRage::ReturnCalc
  02213	8b 4d f8	 mov	 ecx, DWORD PTR _lpObj$[ebp]
  02216	03 81 4c 01 00
	00		 add	 eax, DWORD PTR [ecx+332]
  0221c	8b 55 f8	 mov	 edx, DWORD PTR _lpObj$[ebp]
  0221f	89 82 4c 01 00
	00		 mov	 DWORD PTR [edx+332], eax

; 485  : 		lpObj->m_Defense += this->ReturnCalc(aIndex, eSkill22,0);

  02225	6a 00		 push	 0
  02227	6a 16		 push	 22			; 00000016H
  02229	8b 45 08	 mov	 eax, DWORD PTR _aIndex$[ebp]
  0222c	50		 push	 eax
  0222d	8b 4d fc	 mov	 ecx, DWORD PTR _this$[ebp]
  02230	e8 00 00 00 00	 call	 ?ReturnCalc@cSystemOfRage@@QAEHHHH@Z ; cSystemOfRage::ReturnCalc
  02235	8b 4d f8	 mov	 ecx, DWORD PTR _lpObj$[ebp]
  02238	03 81 94 04 00
	00		 add	 eax, DWORD PTR [ecx+1172]
  0223e	8b 55 f8	 mov	 edx, DWORD PTR _lpObj$[ebp]
  02241	89 82 94 04 00
	00		 mov	 DWORD PTR [edx+1172], eax
$LN7@CalcCharac:

; 486  : 	}
; 487  : 	//ReflectDamage
; 488  : 	lpObj->DamageReflect += this->ReturnCalc(aIndex, eSkill23,0);

  02247	6a 00		 push	 0
  02249	6a 17		 push	 23			; 00000017H
  0224b	8b 45 08	 mov	 eax, DWORD PTR _aIndex$[ebp]
  0224e	50		 push	 eax
  0224f	8b 4d fc	 mov	 ecx, DWORD PTR _this$[ebp]
  02252	e8 00 00 00 00	 call	 ?ReturnCalc@cSystemOfRage@@QAEHHHH@Z ; cSystemOfRage::ReturnCalc
  02257	8b 4d f8	 mov	 ecx, DWORD PTR _lpObj$[ebp]
  0225a	0f b6 91 71 01
	00 00		 movzx	 edx, BYTE PTR [ecx+369]
  02261	03 d0		 add	 edx, eax
  02263	8b 45 f8	 mov	 eax, DWORD PTR _lpObj$[ebp]
  02266	88 90 71 01 00
	00		 mov	 BYTE PTR [eax+369], dl

; 489  : 	if(lpObj->DamageReflect>90)

  0226c	8b 45 f8	 mov	 eax, DWORD PTR _lpObj$[ebp]
  0226f	0f b6 88 71 01
	00 00		 movzx	 ecx, BYTE PTR [eax+369]
  02276	83 f9 5a	 cmp	 ecx, 90			; 0000005aH
  02279	7e 0a		 jle	 SHORT $LN6@CalcCharac

; 490  : 	{
; 491  : 		lpObj->DamageReflect = 90;

  0227b	8b 45 f8	 mov	 eax, DWORD PTR _lpObj$[ebp]
  0227e	c6 80 71 01 00
	00 5a		 mov	 BYTE PTR [eax+369], 90	; 0000005aH
$LN6@CalcCharac:

; 492  : 	}
; 493  : 	//MinDefence
; 494  : 	lpObj->m_Defense += this->ReturnCalc(aIndex, eSkill26,0);

  02285	6a 00		 push	 0
  02287	6a 1a		 push	 26			; 0000001aH
  02289	8b 45 08	 mov	 eax, DWORD PTR _aIndex$[ebp]
  0228c	50		 push	 eax
  0228d	8b 4d fc	 mov	 ecx, DWORD PTR _this$[ebp]
  02290	e8 00 00 00 00	 call	 ?ReturnCalc@cSystemOfRage@@QAEHHHH@Z ; cSystemOfRage::ReturnCalc
  02295	8b 4d f8	 mov	 ecx, DWORD PTR _lpObj$[ebp]
  02298	03 81 94 04 00
	00		 add	 eax, DWORD PTR [ecx+1172]
  0229e	8b 55 f8	 mov	 edx, DWORD PTR _lpObj$[ebp]
  022a1	89 82 94 04 00
	00		 mov	 DWORD PTR [edx+1172], eax

; 495  : 	//StartSD
; 496  : 	lpObj->iAddShield += this->ReturnCalc(aIndex, eSkill28,0);

  022a7	6a 00		 push	 0
  022a9	6a 1c		 push	 28			; 0000001cH
  022ab	8b 45 08	 mov	 eax, DWORD PTR _aIndex$[ebp]
  022ae	50		 push	 eax
  022af	8b 4d fc	 mov	 ecx, DWORD PTR _this$[ebp]
  022b2	e8 00 00 00 00	 call	 ?ReturnCalc@cSystemOfRage@@QAEHHHH@Z ; cSystemOfRage::ReturnCalc
  022b7	8b 4d f8	 mov	 ecx, DWORD PTR _lpObj$[ebp]
  022ba	03 81 5c 01 00
	00		 add	 eax, DWORD PTR [ecx+348]
  022c0	8b 55 f8	 mov	 edx, DWORD PTR _lpObj$[ebp]
  022c3	89 82 5c 01 00
	00		 mov	 DWORD PTR [edx+348], eax

; 497  : 	//PartyBonus
; 498  : 	if(lpObj->PartyNumber >= 0)

  022c9	8b 45 f8	 mov	 eax, DWORD PTR _lpObj$[ebp]
  022cc	83 b8 2c 04 00
	00 00		 cmp	 DWORD PTR [eax+1068], 0
  022d3	0f 8c ee 00 00
	00		 jl	 $LN5@CalcCharac

; 499  : 	{
; 500  : 		lpObj->m_AttackDamageMinRight += this->ReturnCalc(aIndex, eSkill29,0);

  022d9	6a 00		 push	 0
  022db	6a 1d		 push	 29			; 0000001dH
  022dd	8b 45 08	 mov	 eax, DWORD PTR _aIndex$[ebp]
  022e0	50		 push	 eax
  022e1	8b 4d fc	 mov	 ecx, DWORD PTR _this$[ebp]
  022e4	e8 00 00 00 00	 call	 ?ReturnCalc@cSystemOfRage@@QAEHHHH@Z ; cSystemOfRage::ReturnCalc
  022e9	8b 4d f8	 mov	 ecx, DWORD PTR _lpObj$[ebp]
  022ec	03 81 84 04 00
	00		 add	 eax, DWORD PTR [ecx+1156]
  022f2	8b 55 f8	 mov	 edx, DWORD PTR _lpObj$[ebp]
  022f5	89 82 84 04 00
	00		 mov	 DWORD PTR [edx+1156], eax

; 501  : 		lpObj->m_AttackDamageMaxRight += this->ReturnCalc(aIndex, eSkill29,0);

  022fb	6a 00		 push	 0
  022fd	6a 1d		 push	 29			; 0000001dH
  022ff	8b 45 08	 mov	 eax, DWORD PTR _aIndex$[ebp]
  02302	50		 push	 eax
  02303	8b 4d fc	 mov	 ecx, DWORD PTR _this$[ebp]
  02306	e8 00 00 00 00	 call	 ?ReturnCalc@cSystemOfRage@@QAEHHHH@Z ; cSystemOfRage::ReturnCalc
  0230b	8b 4d f8	 mov	 ecx, DWORD PTR _lpObj$[ebp]
  0230e	03 81 80 04 00
	00		 add	 eax, DWORD PTR [ecx+1152]
  02314	8b 55 f8	 mov	 edx, DWORD PTR _lpObj$[ebp]
  02317	89 82 80 04 00
	00		 mov	 DWORD PTR [edx+1152], eax

; 502  : 		lpObj->m_AttackDamageMinLeft += this->ReturnCalc(aIndex, eSkill29,0);

  0231d	6a 00		 push	 0
  0231f	6a 1d		 push	 29			; 0000001dH
  02321	8b 45 08	 mov	 eax, DWORD PTR _aIndex$[ebp]
  02324	50		 push	 eax
  02325	8b 4d fc	 mov	 ecx, DWORD PTR _this$[ebp]
  02328	e8 00 00 00 00	 call	 ?ReturnCalc@cSystemOfRage@@QAEHHHH@Z ; cSystemOfRage::ReturnCalc
  0232d	8b 4d f8	 mov	 ecx, DWORD PTR _lpObj$[ebp]
  02330	03 81 7c 04 00
	00		 add	 eax, DWORD PTR [ecx+1148]
  02336	8b 55 f8	 mov	 edx, DWORD PTR _lpObj$[ebp]
  02339	89 82 7c 04 00
	00		 mov	 DWORD PTR [edx+1148], eax

; 503  : 		lpObj->m_AttackDamageMaxLeft += this->ReturnCalc(aIndex, eSkill29,0);

  0233f	6a 00		 push	 0
  02341	6a 1d		 push	 29			; 0000001dH
  02343	8b 45 08	 mov	 eax, DWORD PTR _aIndex$[ebp]
  02346	50		 push	 eax
  02347	8b 4d fc	 mov	 ecx, DWORD PTR _this$[ebp]
  0234a	e8 00 00 00 00	 call	 ?ReturnCalc@cSystemOfRage@@QAEHHHH@Z ; cSystemOfRage::ReturnCalc
  0234f	8b 4d f8	 mov	 ecx, DWORD PTR _lpObj$[ebp]
  02352	03 81 78 04 00
	00		 add	 eax, DWORD PTR [ecx+1144]
  02358	8b 55 f8	 mov	 edx, DWORD PTR _lpObj$[ebp]
  0235b	89 82 78 04 00
	00		 mov	 DWORD PTR [edx+1144], eax

; 504  : 		lpObj->m_MagicDamageMin += this->ReturnCalc(aIndex, eSkill29,0);

  02361	6a 00		 push	 0
  02363	6a 1d		 push	 29			; 0000001dH
  02365	8b 45 08	 mov	 eax, DWORD PTR _aIndex$[ebp]
  02368	50		 push	 eax
  02369	8b 4d fc	 mov	 ecx, DWORD PTR _this$[ebp]
  0236c	e8 00 00 00 00	 call	 ?ReturnCalc@cSystemOfRage@@QAEHHHH@Z ; cSystemOfRage::ReturnCalc
  02371	8b 4d f8	 mov	 ecx, DWORD PTR _lpObj$[ebp]
  02374	03 81 68 04 00
	00		 add	 eax, DWORD PTR [ecx+1128]
  0237a	8b 55 f8	 mov	 edx, DWORD PTR _lpObj$[ebp]
  0237d	89 82 68 04 00
	00		 mov	 DWORD PTR [edx+1128], eax

; 505  : 		lpObj->m_MagicDamageMax += this->ReturnCalc(aIndex, eSkill29,0);

  02383	6a 00		 push	 0
  02385	6a 1d		 push	 29			; 0000001dH
  02387	8b 45 08	 mov	 eax, DWORD PTR _aIndex$[ebp]
  0238a	50		 push	 eax
  0238b	8b 4d fc	 mov	 ecx, DWORD PTR _this$[ebp]
  0238e	e8 00 00 00 00	 call	 ?ReturnCalc@cSystemOfRage@@QAEHHHH@Z ; cSystemOfRage::ReturnCalc
  02393	8b 4d f8	 mov	 ecx, DWORD PTR _lpObj$[ebp]
  02396	03 81 6c 04 00
	00		 add	 eax, DWORD PTR [ecx+1132]
  0239c	8b 55 f8	 mov	 edx, DWORD PTR _lpObj$[ebp]
  0239f	89 82 6c 04 00
	00		 mov	 DWORD PTR [edx+1132], eax

; 506  : 		lpObj->AddLife += this->ReturnCalc(aIndex, eSkill29,0);

  023a5	6a 00		 push	 0
  023a7	6a 1d		 push	 29			; 0000001dH
  023a9	8b 45 08	 mov	 eax, DWORD PTR _aIndex$[ebp]
  023ac	50		 push	 eax
  023ad	8b 4d fc	 mov	 ecx, DWORD PTR _this$[ebp]
  023b0	e8 00 00 00 00	 call	 ?ReturnCalc@cSystemOfRage@@QAEHHHH@Z ; cSystemOfRage::ReturnCalc
  023b5	8b 4d f8	 mov	 ecx, DWORD PTR _lpObj$[ebp]
  023b8	03 81 4c 01 00
	00		 add	 eax, DWORD PTR [ecx+332]
  023be	8b 55 f8	 mov	 edx, DWORD PTR _lpObj$[ebp]
  023c1	89 82 4c 01 00
	00		 mov	 DWORD PTR [edx+332], eax
$LN5@CalcCharac:

; 507  : 	}
; 508  : 	//WeaponBonus
; 509  : 	if(lpObj->pInventory[0].IsItem() || lpObj->pInventory[1].IsItem())

  023c7	8b 45 f8	 mov	 eax, DWORD PTR _lpObj$[ebp]
  023ca	8b 88 24 0e 00
	00		 mov	 ecx, DWORD PTR [eax+3620]
  023d0	e8 00 00 00 00	 call	 ?IsItem@CItem@@QAEHXZ	; CItem::IsItem
  023d5	85 c0		 test	 eax, eax
  023d7	75 1c		 jne	 SHORT $LN3@CalcCharac
  023d9	8b 45 f8	 mov	 eax, DWORD PTR _lpObj$[ebp]
  023dc	8b 88 24 0e 00
	00		 mov	 ecx, DWORD PTR [eax+3620]
  023e2	81 c1 d4 00 00
	00		 add	 ecx, 212		; 000000d4H
  023e8	e8 00 00 00 00	 call	 ?IsItem@CItem@@QAEHXZ	; CItem::IsItem
  023ed	85 c0		 test	 eax, eax
  023ef	0f 84 cc 00 00
	00		 je	 $LN4@CalcCharac
$LN3@CalcCharac:

; 510  : 	{
; 511  : 		lpObj->m_AttackDamageMinRight += this->ReturnCalc(aIndex, eSkill33,0);

  023f5	6a 00		 push	 0
  023f7	6a 21		 push	 33			; 00000021H
  023f9	8b 45 08	 mov	 eax, DWORD PTR _aIndex$[ebp]
  023fc	50		 push	 eax
  023fd	8b 4d fc	 mov	 ecx, DWORD PTR _this$[ebp]
  02400	e8 00 00 00 00	 call	 ?ReturnCalc@cSystemOfRage@@QAEHHHH@Z ; cSystemOfRage::ReturnCalc
  02405	8b 4d f8	 mov	 ecx, DWORD PTR _lpObj$[ebp]
  02408	03 81 84 04 00
	00		 add	 eax, DWORD PTR [ecx+1156]
  0240e	8b 55 f8	 mov	 edx, DWORD PTR _lpObj$[ebp]
  02411	89 82 84 04 00
	00		 mov	 DWORD PTR [edx+1156], eax

; 512  : 		lpObj->m_AttackDamageMaxRight += this->ReturnCalc(aIndex, eSkill33,0);

  02417	6a 00		 push	 0
  02419	6a 21		 push	 33			; 00000021H
  0241b	8b 45 08	 mov	 eax, DWORD PTR _aIndex$[ebp]
  0241e	50		 push	 eax
  0241f	8b 4d fc	 mov	 ecx, DWORD PTR _this$[ebp]
  02422	e8 00 00 00 00	 call	 ?ReturnCalc@cSystemOfRage@@QAEHHHH@Z ; cSystemOfRage::ReturnCalc
  02427	8b 4d f8	 mov	 ecx, DWORD PTR _lpObj$[ebp]
  0242a	03 81 80 04 00
	00		 add	 eax, DWORD PTR [ecx+1152]
  02430	8b 55 f8	 mov	 edx, DWORD PTR _lpObj$[ebp]
  02433	89 82 80 04 00
	00		 mov	 DWORD PTR [edx+1152], eax

; 513  : 		lpObj->m_AttackDamageMinLeft += this->ReturnCalc(aIndex, eSkill33,0);

  02439	6a 00		 push	 0
  0243b	6a 21		 push	 33			; 00000021H
  0243d	8b 45 08	 mov	 eax, DWORD PTR _aIndex$[ebp]
  02440	50		 push	 eax
  02441	8b 4d fc	 mov	 ecx, DWORD PTR _this$[ebp]
  02444	e8 00 00 00 00	 call	 ?ReturnCalc@cSystemOfRage@@QAEHHHH@Z ; cSystemOfRage::ReturnCalc
  02449	8b 4d f8	 mov	 ecx, DWORD PTR _lpObj$[ebp]
  0244c	03 81 7c 04 00
	00		 add	 eax, DWORD PTR [ecx+1148]
  02452	8b 55 f8	 mov	 edx, DWORD PTR _lpObj$[ebp]
  02455	89 82 7c 04 00
	00		 mov	 DWORD PTR [edx+1148], eax

; 514  : 		lpObj->m_AttackDamageMaxLeft += this->ReturnCalc(aIndex, eSkill33,0);

  0245b	6a 00		 push	 0
  0245d	6a 21		 push	 33			; 00000021H
  0245f	8b 45 08	 mov	 eax, DWORD PTR _aIndex$[ebp]
  02462	50		 push	 eax
  02463	8b 4d fc	 mov	 ecx, DWORD PTR _this$[ebp]
  02466	e8 00 00 00 00	 call	 ?ReturnCalc@cSystemOfRage@@QAEHHHH@Z ; cSystemOfRage::ReturnCalc
  0246b	8b 4d f8	 mov	 ecx, DWORD PTR _lpObj$[ebp]
  0246e	03 81 78 04 00
	00		 add	 eax, DWORD PTR [ecx+1144]
  02474	8b 55 f8	 mov	 edx, DWORD PTR _lpObj$[ebp]
  02477	89 82 78 04 00
	00		 mov	 DWORD PTR [edx+1144], eax

; 515  : 		lpObj->m_MagicDamageMin += this->ReturnCalc(aIndex, eSkill33,0);

  0247d	6a 00		 push	 0
  0247f	6a 21		 push	 33			; 00000021H
  02481	8b 45 08	 mov	 eax, DWORD PTR _aIndex$[ebp]
  02484	50		 push	 eax
  02485	8b 4d fc	 mov	 ecx, DWORD PTR _this$[ebp]
  02488	e8 00 00 00 00	 call	 ?ReturnCalc@cSystemOfRage@@QAEHHHH@Z ; cSystemOfRage::ReturnCalc
  0248d	8b 4d f8	 mov	 ecx, DWORD PTR _lpObj$[ebp]
  02490	03 81 68 04 00
	00		 add	 eax, DWORD PTR [ecx+1128]
  02496	8b 55 f8	 mov	 edx, DWORD PTR _lpObj$[ebp]
  02499	89 82 68 04 00
	00		 mov	 DWORD PTR [edx+1128], eax

; 516  : 		lpObj->m_MagicDamageMax += this->ReturnCalc(aIndex, eSkill33,0);

  0249f	6a 00		 push	 0
  024a1	6a 21		 push	 33			; 00000021H
  024a3	8b 45 08	 mov	 eax, DWORD PTR _aIndex$[ebp]
  024a6	50		 push	 eax
  024a7	8b 4d fc	 mov	 ecx, DWORD PTR _this$[ebp]
  024aa	e8 00 00 00 00	 call	 ?ReturnCalc@cSystemOfRage@@QAEHHHH@Z ; cSystemOfRage::ReturnCalc
  024af	8b 4d f8	 mov	 ecx, DWORD PTR _lpObj$[ebp]
  024b2	03 81 6c 04 00
	00		 add	 eax, DWORD PTR [ecx+1132]
  024b8	8b 55 f8	 mov	 edx, DWORD PTR _lpObj$[ebp]
  024bb	89 82 6c 04 00
	00		 mov	 DWORD PTR [edx+1132], eax
$LN4@CalcCharac:

; 517  : 	}
; 518  : 	//ExellentDamageRate
; 519  : 	lpObj->m_ExcelentDamage += this->ReturnCalc(aIndex, eSkill24,0);		

  024c1	6a 00		 push	 0
  024c3	6a 18		 push	 24			; 00000018H
  024c5	8b 45 08	 mov	 eax, DWORD PTR _aIndex$[ebp]
  024c8	50		 push	 eax
  024c9	8b 4d fc	 mov	 ecx, DWORD PTR _this$[ebp]
  024cc	e8 00 00 00 00	 call	 ?ReturnCalc@cSystemOfRage@@QAEHHHH@Z ; cSystemOfRage::ReturnCalc
  024d1	8b 4d f8	 mov	 ecx, DWORD PTR _lpObj$[ebp]
  024d4	03 81 c0 04 00
	00		 add	 eax, DWORD PTR [ecx+1216]
  024da	8b 55 f8	 mov	 edx, DWORD PTR _lpObj$[ebp]
  024dd	89 82 c0 04 00
	00		 mov	 DWORD PTR [edx+1216], eax

; 520  : 	if(lpObj->m_ExcelentDamage>90)

  024e3	8b 45 f8	 mov	 eax, DWORD PTR _lpObj$[ebp]
  024e6	83 b8 c0 04 00
	00 5a		 cmp	 DWORD PTR [eax+1216], 90 ; 0000005aH
  024ed	7e 0d		 jle	 SHORT $LN2@CalcCharac

; 521  : 	{
; 522  : 		lpObj->m_ExcelentDamage = 90;

  024ef	8b 45 f8	 mov	 eax, DWORD PTR _lpObj$[ebp]
  024f2	c7 80 c0 04 00
	00 5a 00 00 00	 mov	 DWORD PTR [eax+1216], 90 ; 0000005aH
$LN2@CalcCharac:

; 523  : 	}
; 524  : 
; 525  : 	//LPOBJ lpObj =&gObj[aIndex];
; 526  : 	//if(SkillID == eSkill2)
; 527  : 	//{
; 528  : 	//	lpObj->LevelUpPoint += this->rSkill[eSkill2].StartDamage; 
; 529  : 	//	lpObj->ExFreePoints += this->rSkill[eSkill2].StartDamage;
; 530  : 	//}
; 531  : 	//Fix Debug
; 532  : 	//Strength
; 533  : 	lpObj->m_AttackDamageMinRight += this->ReturnCalc(aIndex, eSkill13,0);

  024fc	6a 00		 push	 0
  024fe	6a 0d		 push	 13			; 0000000dH
  02500	8b 45 08	 mov	 eax, DWORD PTR _aIndex$[ebp]
  02503	50		 push	 eax
  02504	8b 4d fc	 mov	 ecx, DWORD PTR _this$[ebp]
  02507	e8 00 00 00 00	 call	 ?ReturnCalc@cSystemOfRage@@QAEHHHH@Z ; cSystemOfRage::ReturnCalc
  0250c	8b 4d f8	 mov	 ecx, DWORD PTR _lpObj$[ebp]
  0250f	03 81 84 04 00
	00		 add	 eax, DWORD PTR [ecx+1156]
  02515	8b 55 f8	 mov	 edx, DWORD PTR _lpObj$[ebp]
  02518	89 82 84 04 00
	00		 mov	 DWORD PTR [edx+1156], eax

; 534  : 	lpObj->m_AttackDamageMaxRight += this->ReturnCalc(aIndex, eSkill13,0);

  0251e	6a 00		 push	 0
  02520	6a 0d		 push	 13			; 0000000dH
  02522	8b 45 08	 mov	 eax, DWORD PTR _aIndex$[ebp]
  02525	50		 push	 eax
  02526	8b 4d fc	 mov	 ecx, DWORD PTR _this$[ebp]
  02529	e8 00 00 00 00	 call	 ?ReturnCalc@cSystemOfRage@@QAEHHHH@Z ; cSystemOfRage::ReturnCalc
  0252e	8b 4d f8	 mov	 ecx, DWORD PTR _lpObj$[ebp]
  02531	03 81 80 04 00
	00		 add	 eax, DWORD PTR [ecx+1152]
  02537	8b 55 f8	 mov	 edx, DWORD PTR _lpObj$[ebp]
  0253a	89 82 80 04 00
	00		 mov	 DWORD PTR [edx+1152], eax

; 535  : 	lpObj->m_AttackDamageMinLeft += this->ReturnCalc(aIndex, eSkill13,0);

  02540	6a 00		 push	 0
  02542	6a 0d		 push	 13			; 0000000dH
  02544	8b 45 08	 mov	 eax, DWORD PTR _aIndex$[ebp]
  02547	50		 push	 eax
  02548	8b 4d fc	 mov	 ecx, DWORD PTR _this$[ebp]
  0254b	e8 00 00 00 00	 call	 ?ReturnCalc@cSystemOfRage@@QAEHHHH@Z ; cSystemOfRage::ReturnCalc
  02550	8b 4d f8	 mov	 ecx, DWORD PTR _lpObj$[ebp]
  02553	03 81 7c 04 00
	00		 add	 eax, DWORD PTR [ecx+1148]
  02559	8b 55 f8	 mov	 edx, DWORD PTR _lpObj$[ebp]
  0255c	89 82 7c 04 00
	00		 mov	 DWORD PTR [edx+1148], eax

; 536  : 	lpObj->m_AttackDamageMaxLeft += this->ReturnCalc(aIndex, eSkill13,0);

  02562	6a 00		 push	 0
  02564	6a 0d		 push	 13			; 0000000dH
  02566	8b 45 08	 mov	 eax, DWORD PTR _aIndex$[ebp]
  02569	50		 push	 eax
  0256a	8b 4d fc	 mov	 ecx, DWORD PTR _this$[ebp]
  0256d	e8 00 00 00 00	 call	 ?ReturnCalc@cSystemOfRage@@QAEHHHH@Z ; cSystemOfRage::ReturnCalc
  02572	8b 4d f8	 mov	 ecx, DWORD PTR _lpObj$[ebp]
  02575	03 81 78 04 00
	00		 add	 eax, DWORD PTR [ecx+1144]
  0257b	8b 55 f8	 mov	 edx, DWORD PTR _lpObj$[ebp]
  0257e	89 82 78 04 00
	00		 mov	 DWORD PTR [edx+1144], eax

; 537  : 	//if(SkillID == eSkill13)
; 538  : 	//{
; 539  : 	//	lpObj->Strength += this->rSkill[SkillID].StartDamage;
; 540  : 	//}
; 541  : 	////Energy
; 542  : 	lpObj->m_MagicDamageMin += this->ReturnCalc(aIndex, eSkill16,0);

  02584	6a 00		 push	 0
  02586	6a 10		 push	 16			; 00000010H
  02588	8b 45 08	 mov	 eax, DWORD PTR _aIndex$[ebp]
  0258b	50		 push	 eax
  0258c	8b 4d fc	 mov	 ecx, DWORD PTR _this$[ebp]
  0258f	e8 00 00 00 00	 call	 ?ReturnCalc@cSystemOfRage@@QAEHHHH@Z ; cSystemOfRage::ReturnCalc
  02594	8b 4d f8	 mov	 ecx, DWORD PTR _lpObj$[ebp]
  02597	03 81 68 04 00
	00		 add	 eax, DWORD PTR [ecx+1128]
  0259d	8b 55 f8	 mov	 edx, DWORD PTR _lpObj$[ebp]
  025a0	89 82 68 04 00
	00		 mov	 DWORD PTR [edx+1128], eax

; 543  : 	lpObj->m_MagicDamageMax += this->ReturnCalc(aIndex, eSkill16,0);

  025a6	6a 00		 push	 0
  025a8	6a 10		 push	 16			; 00000010H
  025aa	8b 45 08	 mov	 eax, DWORD PTR _aIndex$[ebp]
  025ad	50		 push	 eax
  025ae	8b 4d fc	 mov	 ecx, DWORD PTR _this$[ebp]
  025b1	e8 00 00 00 00	 call	 ?ReturnCalc@cSystemOfRage@@QAEHHHH@Z ; cSystemOfRage::ReturnCalc
  025b6	8b 4d f8	 mov	 ecx, DWORD PTR _lpObj$[ebp]
  025b9	03 81 6c 04 00
	00		 add	 eax, DWORD PTR [ecx+1132]
  025bf	8b 55 f8	 mov	 edx, DWORD PTR _lpObj$[ebp]
  025c2	89 82 6c 04 00
	00		 mov	 DWORD PTR [edx+1132], eax

; 544  : 	//if(SkillID == eSkill16)
; 545  : 	//{
; 546  : 	//	lpObj->Energy += this->rSkill[SkillID].StartDamage;
; 547  : 	//}
; 548  : 	////Agility
; 549  : 	if(lpObj->pInventory[1].m_Type >= ITEMGET(6,0) && lpObj->pInventory[1].m_Type <= ITEMGET(6,255))

  025c8	8b 45 f8	 mov	 eax, DWORD PTR _lpObj$[ebp]
  025cb	8b 88 24 0e 00
	00		 mov	 ecx, DWORD PTR [eax+3620]
  025d1	0f bf 91 da 00
	00 00		 movsx	 edx, WORD PTR [ecx+218]
  025d8	81 fa 00 0c 00
	00		 cmp	 edx, 3072		; 00000c00H
  025de	7c 3a		 jl	 SHORT $LN1@CalcCharac
  025e0	8b 45 f8	 mov	 eax, DWORD PTR _lpObj$[ebp]
  025e3	8b 88 24 0e 00
	00		 mov	 ecx, DWORD PTR [eax+3620]
  025e9	0f bf 91 da 00
	00 00		 movsx	 edx, WORD PTR [ecx+218]
  025f0	81 fa ff 0c 00
	00		 cmp	 edx, 3327		; 00000cffH
  025f6	7f 22		 jg	 SHORT $LN1@CalcCharac

; 550  : 	{
; 551  : 		lpObj->m_Defense += this->ReturnCalc(aIndex, eSkill17,0);

  025f8	6a 00		 push	 0
  025fa	6a 11		 push	 17			; 00000011H
  025fc	8b 45 08	 mov	 eax, DWORD PTR _aIndex$[ebp]
  025ff	50		 push	 eax
  02600	8b 4d fc	 mov	 ecx, DWORD PTR _this$[ebp]
  02603	e8 00 00 00 00	 call	 ?ReturnCalc@cSystemOfRage@@QAEHHHH@Z ; cSystemOfRage::ReturnCalc
  02608	8b 4d f8	 mov	 ecx, DWORD PTR _lpObj$[ebp]
  0260b	03 81 94 04 00
	00		 add	 eax, DWORD PTR [ecx+1172]
  02611	8b 55 f8	 mov	 edx, DWORD PTR _lpObj$[ebp]
  02614	89 82 94 04 00
	00		 mov	 DWORD PTR [edx+1172], eax
$LN1@CalcCharac:
$LN14@CalcCharac:

; 552  : 	}
; 553  : 	//if(SkillID == eSkill17)
; 554  : 	//{
; 555  : 	//	lpObj->Dexterity += this->ReturnCalc(aIndex, SkillID,0);
; 556  : 	//}
; 557  : }

  0261a	5f		 pop	 edi
  0261b	5e		 pop	 esi
  0261c	5b		 pop	 ebx
  0261d	8b e5		 mov	 esp, ebp
  0261f	5d		 pop	 ebp
  02620	c2 04 00	 ret	 4
?CalcCharacter@cSystemOfRage@@QAEXH@Z ENDP		; cSystemOfRage::CalcCharacter
_TEXT	ENDS
PUBLIC	?SummonPetSkill@cSystemOfRage@@QAEXH@Z		; cSystemOfRage::SummonPetSkill
EXTRN	?SkillMonsterCall@CObjUseSkill@@QAEHHHHH@Z:PROC	; CObjUseSkill::SkillMonsterCall
EXTRN	?gObjUseSkill@@3VCObjUseSkill@@A:DWORD		; gObjUseSkill
; Function compile flags: /Odtp /ZI
_TEXT	SEGMENT
_mObj$ = -16						; size = 4
_mIndex$ = -12						; size = 4
_lpObj$ = -8						; size = 4
_this$ = -4						; size = 4
_aIndex$ = 8						; size = 4
?SummonPetSkill@cSystemOfRage@@QAEXH@Z PROC		; cSystemOfRage::SummonPetSkill
; _this$ = ecx

; 560  : {

  02630	55		 push	 ebp
  02631	8b ec		 mov	 ebp, esp
  02633	83 ec 50	 sub	 esp, 80			; 00000050H
  02636	53		 push	 ebx
  02637	56		 push	 esi
  02638	57		 push	 edi
  02639	89 4d fc	 mov	 DWORD PTR _this$[ebp], ecx

; 561  : 	LPOBJ lpObj = &gObj[aIndex];

  0263c	8b 45 08	 mov	 eax, DWORD PTR _aIndex$[ebp]
  0263f	69 c0 38 2b 00
	00		 imul	 eax, 11064		; 00002b38H
  02645	03 05 00 00 00
	00		 add	 eax, DWORD PTR ?gObj@@3PAUOBJECTSTRUCT@@A ; gObj
  0264b	89 45 f8	 mov	 DWORD PTR _lpObj$[ebp], eax

; 562  : 	gObjUseSkill.SkillMonsterCall(lpObj->m_Index,this->CreateMob,lpObj->X-1,lpObj->Y+1);

  0264e	8b 45 f8	 mov	 eax, DWORD PTR _lpObj$[ebp]
  02651	0f bf 88 46 01
	00 00		 movsx	 ecx, WORD PTR [eax+326]
  02658	83 c1 01	 add	 ecx, 1
  0265b	51		 push	 ecx
  0265c	8b 55 f8	 mov	 edx, DWORD PTR _lpObj$[ebp]
  0265f	0f bf 82 44 01
	00 00		 movsx	 eax, WORD PTR [edx+324]
  02666	83 e8 01	 sub	 eax, 1
  02669	50		 push	 eax
  0266a	8b 4d fc	 mov	 ecx, DWORD PTR _this$[ebp]
  0266d	8b 51 18	 mov	 edx, DWORD PTR [ecx+24]
  02670	52		 push	 edx
  02671	8b 45 f8	 mov	 eax, DWORD PTR _lpObj$[ebp]
  02674	8b 08		 mov	 ecx, DWORD PTR [eax]
  02676	51		 push	 ecx
  02677	b9 00 00 00 00	 mov	 ecx, OFFSET ?gObjUseSkill@@3VCObjUseSkill@@A ; gObjUseSkill
  0267c	e8 00 00 00 00	 call	 ?SkillMonsterCall@CObjUseSkill@@QAEHHHHH@Z ; CObjUseSkill::SkillMonsterCall

; 563  : 
; 564  : 	int mIndex = gObj[aIndex].m_RecallMon;

  02681	8b 45 08	 mov	 eax, DWORD PTR _aIndex$[ebp]
  02684	69 c0 38 2b 00
	00		 imul	 eax, 11064		; 00002b38H
  0268a	8b 0d 00 00 00
	00		 mov	 ecx, DWORD PTR ?gObj@@3PAUOBJECTSTRUCT@@A ; gObj
  02690	8b 94 01 50 04
	00 00		 mov	 edx, DWORD PTR [ecx+eax+1104]
  02697	89 55 f4	 mov	 DWORD PTR _mIndex$[ebp], edx

; 565  : 	LPOBJ mObj = &gObj[mIndex];

  0269a	8b 45 f4	 mov	 eax, DWORD PTR _mIndex$[ebp]
  0269d	69 c0 38 2b 00
	00		 imul	 eax, 11064		; 00002b38H
  026a3	03 05 00 00 00
	00		 add	 eax, DWORD PTR ?gObj@@3PAUOBJECTSTRUCT@@A ; gObj
  026a9	89 45 f0	 mov	 DWORD PTR _mObj$[ebp], eax

; 566  : 
; 567  : 	mObj->m_AttackDamageMin += this->ReturnCalc(aIndex, eSkill3,0);

  026ac	6a 00		 push	 0
  026ae	6a 03		 push	 3
  026b0	8b 45 08	 mov	 eax, DWORD PTR _aIndex$[ebp]
  026b3	50		 push	 eax
  026b4	8b 4d fc	 mov	 ecx, DWORD PTR _this$[ebp]
  026b7	e8 00 00 00 00	 call	 ?ReturnCalc@cSystemOfRage@@QAEHHHH@Z ; cSystemOfRage::ReturnCalc
  026bc	8b 4d f0	 mov	 ecx, DWORD PTR _mObj$[ebp]
  026bf	03 81 60 04 00
	00		 add	 eax, DWORD PTR [ecx+1120]
  026c5	8b 55 f0	 mov	 edx, DWORD PTR _mObj$[ebp]
  026c8	89 82 60 04 00
	00		 mov	 DWORD PTR [edx+1120], eax

; 568  : 	mObj->m_AttackDamageMax += this->ReturnCalc(aIndex, eSkill3,0);

  026ce	6a 00		 push	 0
  026d0	6a 03		 push	 3
  026d2	8b 45 08	 mov	 eax, DWORD PTR _aIndex$[ebp]
  026d5	50		 push	 eax
  026d6	8b 4d fc	 mov	 ecx, DWORD PTR _this$[ebp]
  026d9	e8 00 00 00 00	 call	 ?ReturnCalc@cSystemOfRage@@QAEHHHH@Z ; cSystemOfRage::ReturnCalc
  026de	8b 4d f0	 mov	 ecx, DWORD PTR _mObj$[ebp]
  026e1	03 81 64 04 00
	00		 add	 eax, DWORD PTR [ecx+1124]
  026e7	8b 55 f0	 mov	 edx, DWORD PTR _mObj$[ebp]
  026ea	89 82 64 04 00
	00		 mov	 DWORD PTR [edx+1124], eax

; 569  : 	mObj->m_AttackDamageMinRight += this->ReturnCalc(aIndex, eSkill3,0);

  026f0	6a 00		 push	 0
  026f2	6a 03		 push	 3
  026f4	8b 45 08	 mov	 eax, DWORD PTR _aIndex$[ebp]
  026f7	50		 push	 eax
  026f8	8b 4d fc	 mov	 ecx, DWORD PTR _this$[ebp]
  026fb	e8 00 00 00 00	 call	 ?ReturnCalc@cSystemOfRage@@QAEHHHH@Z ; cSystemOfRage::ReturnCalc
  02700	8b 4d f0	 mov	 ecx, DWORD PTR _mObj$[ebp]
  02703	03 81 84 04 00
	00		 add	 eax, DWORD PTR [ecx+1156]
  02709	8b 55 f0	 mov	 edx, DWORD PTR _mObj$[ebp]
  0270c	89 82 84 04 00
	00		 mov	 DWORD PTR [edx+1156], eax

; 570  : 	mObj->m_AttackDamageMaxRight += this->ReturnCalc(aIndex, eSkill3,0);

  02712	6a 00		 push	 0
  02714	6a 03		 push	 3
  02716	8b 45 08	 mov	 eax, DWORD PTR _aIndex$[ebp]
  02719	50		 push	 eax
  0271a	8b 4d fc	 mov	 ecx, DWORD PTR _this$[ebp]
  0271d	e8 00 00 00 00	 call	 ?ReturnCalc@cSystemOfRage@@QAEHHHH@Z ; cSystemOfRage::ReturnCalc
  02722	8b 4d f0	 mov	 ecx, DWORD PTR _mObj$[ebp]
  02725	03 81 80 04 00
	00		 add	 eax, DWORD PTR [ecx+1152]
  0272b	8b 55 f0	 mov	 edx, DWORD PTR _mObj$[ebp]
  0272e	89 82 80 04 00
	00		 mov	 DWORD PTR [edx+1152], eax

; 571  : 	mObj->m_AttackDamageMinLeft += this->ReturnCalc(aIndex, eSkill3,0);

  02734	6a 00		 push	 0
  02736	6a 03		 push	 3
  02738	8b 45 08	 mov	 eax, DWORD PTR _aIndex$[ebp]
  0273b	50		 push	 eax
  0273c	8b 4d fc	 mov	 ecx, DWORD PTR _this$[ebp]
  0273f	e8 00 00 00 00	 call	 ?ReturnCalc@cSystemOfRage@@QAEHHHH@Z ; cSystemOfRage::ReturnCalc
  02744	8b 4d f0	 mov	 ecx, DWORD PTR _mObj$[ebp]
  02747	03 81 7c 04 00
	00		 add	 eax, DWORD PTR [ecx+1148]
  0274d	8b 55 f0	 mov	 edx, DWORD PTR _mObj$[ebp]
  02750	89 82 7c 04 00
	00		 mov	 DWORD PTR [edx+1148], eax

; 572  : 	mObj->m_AttackDamageMaxLeft += this->ReturnCalc(aIndex, eSkill3,0);

  02756	6a 00		 push	 0
  02758	6a 03		 push	 3
  0275a	8b 45 08	 mov	 eax, DWORD PTR _aIndex$[ebp]
  0275d	50		 push	 eax
  0275e	8b 4d fc	 mov	 ecx, DWORD PTR _this$[ebp]
  02761	e8 00 00 00 00	 call	 ?ReturnCalc@cSystemOfRage@@QAEHHHH@Z ; cSystemOfRage::ReturnCalc
  02766	8b 4d f0	 mov	 ecx, DWORD PTR _mObj$[ebp]
  02769	03 81 78 04 00
	00		 add	 eax, DWORD PTR [ecx+1144]
  0276f	8b 55 f0	 mov	 edx, DWORD PTR _mObj$[ebp]
  02772	89 82 78 04 00
	00		 mov	 DWORD PTR [edx+1144], eax

; 573  : 	mObj->m_MagicDamageMin += this->ReturnCalc(aIndex, eSkill3,0);

  02778	6a 00		 push	 0
  0277a	6a 03		 push	 3
  0277c	8b 45 08	 mov	 eax, DWORD PTR _aIndex$[ebp]
  0277f	50		 push	 eax
  02780	8b 4d fc	 mov	 ecx, DWORD PTR _this$[ebp]
  02783	e8 00 00 00 00	 call	 ?ReturnCalc@cSystemOfRage@@QAEHHHH@Z ; cSystemOfRage::ReturnCalc
  02788	8b 4d f0	 mov	 ecx, DWORD PTR _mObj$[ebp]
  0278b	03 81 68 04 00
	00		 add	 eax, DWORD PTR [ecx+1128]
  02791	8b 55 f0	 mov	 edx, DWORD PTR _mObj$[ebp]
  02794	89 82 68 04 00
	00		 mov	 DWORD PTR [edx+1128], eax

; 574  : 	mObj->m_MagicDamageMax += this->ReturnCalc(aIndex, eSkill3,0);

  0279a	6a 00		 push	 0
  0279c	6a 03		 push	 3
  0279e	8b 45 08	 mov	 eax, DWORD PTR _aIndex$[ebp]
  027a1	50		 push	 eax
  027a2	8b 4d fc	 mov	 ecx, DWORD PTR _this$[ebp]
  027a5	e8 00 00 00 00	 call	 ?ReturnCalc@cSystemOfRage@@QAEHHHH@Z ; cSystemOfRage::ReturnCalc
  027aa	8b 4d f0	 mov	 ecx, DWORD PTR _mObj$[ebp]
  027ad	03 81 6c 04 00
	00		 add	 eax, DWORD PTR [ecx+1132]
  027b3	8b 55 f0	 mov	 edx, DWORD PTR _mObj$[ebp]
  027b6	89 82 6c 04 00
	00		 mov	 DWORD PTR [edx+1132], eax

; 575  : 	mObj->m_Defense += this->ReturnCalc(aIndex, eSkill3,0);

  027bc	6a 00		 push	 0
  027be	6a 03		 push	 3
  027c0	8b 45 08	 mov	 eax, DWORD PTR _aIndex$[ebp]
  027c3	50		 push	 eax
  027c4	8b 4d fc	 mov	 ecx, DWORD PTR _this$[ebp]
  027c7	e8 00 00 00 00	 call	 ?ReturnCalc@cSystemOfRage@@QAEHHHH@Z ; cSystemOfRage::ReturnCalc
  027cc	8b 4d f0	 mov	 ecx, DWORD PTR _mObj$[ebp]
  027cf	03 81 94 04 00
	00		 add	 eax, DWORD PTR [ecx+1172]
  027d5	8b 55 f0	 mov	 edx, DWORD PTR _mObj$[ebp]
  027d8	89 82 94 04 00
	00		 mov	 DWORD PTR [edx+1172], eax

; 576  : }

  027de	5f		 pop	 edi
  027df	5e		 pop	 esi
  027e0	5b		 pop	 ebx
  027e1	8b e5		 mov	 esp, ebp
  027e3	5d		 pop	 ebp
  027e4	c2 04 00	 ret	 4
?SummonPetSkill@cSystemOfRage@@QAEXH@Z ENDP		; cSystemOfRage::SummonPetSkill
_TEXT	ENDS
PUBLIC	?TeleportSkill@cSystemOfRage@@QAEXH@Z		; cSystemOfRage::TeleportSkill
EXTRN	?gObjTeleport@@YAXHHHH@Z:PROC			; gObjTeleport
; Function compile flags: /Odtp /ZI
_TEXT	SEGMENT
_this$ = -4						; size = 4
_aIndex$ = 8						; size = 4
?TeleportSkill@cSystemOfRage@@QAEXH@Z PROC		; cSystemOfRage::TeleportSkill
; _this$ = ecx

; 579  : {

  027f0	55		 push	 ebp
  027f1	8b ec		 mov	 ebp, esp
  027f3	83 ec 44	 sub	 esp, 68			; 00000044H
  027f6	53		 push	 ebx
  027f7	56		 push	 esi
  027f8	57		 push	 edi
  027f9	89 4d fc	 mov	 DWORD PTR _this$[ebp], ecx

; 580  : 	gObjTeleport(aIndex, this->TeleportMap, this->TeleportX, this->TeleportY);

  027fc	8b 45 fc	 mov	 eax, DWORD PTR _this$[ebp]
  027ff	8b 48 14	 mov	 ecx, DWORD PTR [eax+20]
  02802	51		 push	 ecx
  02803	8b 55 fc	 mov	 edx, DWORD PTR _this$[ebp]
  02806	8b 42 10	 mov	 eax, DWORD PTR [edx+16]
  02809	50		 push	 eax
  0280a	8b 4d fc	 mov	 ecx, DWORD PTR _this$[ebp]
  0280d	8b 51 0c	 mov	 edx, DWORD PTR [ecx+12]
  02810	52		 push	 edx
  02811	8b 45 08	 mov	 eax, DWORD PTR _aIndex$[ebp]
  02814	50		 push	 eax
  02815	e8 00 00 00 00	 call	 ?gObjTeleport@@YAXHHHH@Z ; gObjTeleport
  0281a	83 c4 10	 add	 esp, 16			; 00000010H

; 581  : }

  0281d	5f		 pop	 edi
  0281e	5e		 pop	 esi
  0281f	5b		 pop	 ebx
  02820	8b e5		 mov	 esp, ebp
  02822	5d		 pop	 ebp
  02823	c2 04 00	 ret	 4
?TeleportSkill@cSystemOfRage@@QAEXH@Z ENDP		; cSystemOfRage::TeleportSkill
_TEXT	ENDS
PUBLIC	?CalcStats@cSystemOfRage@@QAEXH@Z		; cSystemOfRage::CalcStats
; Function compile flags: /Odtp /ZI
_TEXT	SEGMENT
_this$ = -4						; size = 4
_aIndex$ = 8						; size = 4
?CalcStats@cSystemOfRage@@QAEXH@Z PROC			; cSystemOfRage::CalcStats
; _this$ = ecx

; 584  : {

  02830	55		 push	 ebp
  02831	8b ec		 mov	 ebp, esp
  02833	83 ec 44	 sub	 esp, 68			; 00000044H
  02836	53		 push	 ebx
  02837	56		 push	 esi
  02838	57		 push	 edi
  02839	89 4d fc	 mov	 DWORD PTR _this$[ebp], ecx

; 585  : 	//Fix
; 586  : 	//LPOBJ lpObj = &gObj[aIndex];
; 587  : 	////Strength
; 588  : 	//lpObj->AddStrength += this->ReturnCalc(aIndex, eSkill13,0);
; 589  : 	////Energy
; 590  : 	//lpObj->AddEnergy += this->ReturnCalc(aIndex, eSkill16,0);
; 591  : 	////Agility
; 592  : 	//lpObj->AddDexterity += this->ReturnCalc(aIndex, eSkill17,0);
; 593  : }

  0283c	5f		 pop	 edi
  0283d	5e		 pop	 esi
  0283e	5b		 pop	 ebx
  0283f	8b e5		 mov	 esp, ebp
  02841	5d		 pop	 ebp
  02842	c2 04 00	 ret	 4
?CalcStats@cSystemOfRage@@QAEXH@Z ENDP			; cSystemOfRage::CalcStats
_TEXT	ENDS
PUBLIC	?DropZen@cSystemOfRage@@QAEXHAAM@Z		; cSystemOfRage::DropZen
; Function compile flags: /Odtp /ZI
_TEXT	SEGMENT
tv79 = -72						; size = 4
_this$ = -4						; size = 4
_aIndex$ = 8						; size = 4
_money$ = 12						; size = 4
?DropZen@cSystemOfRage@@QAEXHAAM@Z PROC			; cSystemOfRage::DropZen
; _this$ = ecx

; 596  : {

  02850	55		 push	 ebp
  02851	8b ec		 mov	 ebp, esp
  02853	83 ec 48	 sub	 esp, 72			; 00000048H
  02856	53		 push	 ebx
  02857	56		 push	 esi
  02858	57		 push	 edi
  02859	89 4d fc	 mov	 DWORD PTR _this$[ebp], ecx

; 597  : 	if(!this->Enable) return;

  0285c	8b 45 fc	 mov	 eax, DWORD PTR _this$[ebp]
  0285f	0f b6 08	 movzx	 ecx, BYTE PTR [eax]
  02862	85 c9		 test	 ecx, ecx
  02864	75 02		 jne	 SHORT $LN1@DropZen
  02866	eb 20		 jmp	 SHORT $LN2@DropZen
$LN1@DropZen:

; 598  : 
; 599  : 	money += this->ReturnCalc(aIndex, eSkill17,0);

  02868	6a 00		 push	 0
  0286a	6a 11		 push	 17			; 00000011H
  0286c	8b 45 08	 mov	 eax, DWORD PTR _aIndex$[ebp]
  0286f	50		 push	 eax
  02870	8b 4d fc	 mov	 ecx, DWORD PTR _this$[ebp]
  02873	e8 00 00 00 00	 call	 ?ReturnCalc@cSystemOfRage@@QAEHHHH@Z ; cSystemOfRage::ReturnCalc
  02878	89 45 b8	 mov	 DWORD PTR tv79[ebp], eax
  0287b	db 45 b8	 fild	 DWORD PTR tv79[ebp]
  0287e	8b 4d 0c	 mov	 ecx, DWORD PTR _money$[ebp]
  02881	d8 01		 fadd	 DWORD PTR [ecx]
  02883	8b 55 0c	 mov	 edx, DWORD PTR _money$[ebp]
  02886	d9 1a		 fstp	 DWORD PTR [edx]
$LN2@DropZen:

; 600  : }

  02888	5f		 pop	 edi
  02889	5e		 pop	 esi
  0288a	5b		 pop	 ebx
  0288b	8b e5		 mov	 esp, ebp
  0288d	5d		 pop	 ebp
  0288e	c2 08 00	 ret	 8
?DropZen@cSystemOfRage@@QAEXHAAM@Z ENDP			; cSystemOfRage::DropZen
_TEXT	ENDS
PUBLIC	?ExpFunction@cSystemOfRage@@QAEXHAA_J@Z		; cSystemOfRage::ExpFunction
; Function compile flags: /Odtp /ZI
_TEXT	SEGMENT
_this$ = -4						; size = 4
_aIndex$ = 8						; size = 4
_exp$ = 12						; size = 4
?ExpFunction@cSystemOfRage@@QAEXHAA_J@Z PROC		; cSystemOfRage::ExpFunction
; _this$ = ecx

; 603  : {

  028a0	55		 push	 ebp
  028a1	8b ec		 mov	 ebp, esp
  028a3	83 ec 44	 sub	 esp, 68			; 00000044H
  028a6	53		 push	 ebx
  028a7	56		 push	 esi
  028a8	57		 push	 edi
  028a9	89 4d fc	 mov	 DWORD PTR _this$[ebp], ecx

; 604  : 	exp += this->ReturnCalc(aIndex, eSkill27,0);

  028ac	6a 00		 push	 0
  028ae	6a 1b		 push	 27			; 0000001bH
  028b0	8b 45 08	 mov	 eax, DWORD PTR _aIndex$[ebp]
  028b3	50		 push	 eax
  028b4	8b 4d fc	 mov	 ecx, DWORD PTR _this$[ebp]
  028b7	e8 00 00 00 00	 call	 ?ReturnCalc@cSystemOfRage@@QAEHHHH@Z ; cSystemOfRage::ReturnCalc
  028bc	99		 cdq
  028bd	8b 4d 0c	 mov	 ecx, DWORD PTR _exp$[ebp]
  028c0	03 01		 add	 eax, DWORD PTR [ecx]
  028c2	13 51 04	 adc	 edx, DWORD PTR [ecx+4]
  028c5	8b 4d 0c	 mov	 ecx, DWORD PTR _exp$[ebp]
  028c8	89 01		 mov	 DWORD PTR [ecx], eax
  028ca	89 51 04	 mov	 DWORD PTR [ecx+4], edx

; 605  : }

  028cd	5f		 pop	 edi
  028ce	5e		 pop	 esi
  028cf	5b		 pop	 ebx
  028d0	8b e5		 mov	 esp, ebp
  028d2	5d		 pop	 ebp
  028d3	c2 08 00	 ret	 8
?ExpFunction@cSystemOfRage@@QAEXHAA_J@Z ENDP		; cSystemOfRage::ExpFunction
_TEXT	ENDS
PUBLIC	?AttackDefenceRate@cSystemOfRage@@QAEXHHAAM0@Z	; cSystemOfRage::AttackDefenceRate
; Function compile flags: /Odtp /ZI
_TEXT	SEGMENT
tv93 = -72						; size = 4
tv86 = -72						; size = 4
_this$ = -4						; size = 4
_aIndex$ = 8						; size = 4
_Target$ = 12						; size = 4
_Attack$ = 16						; size = 4
_Defence$ = 20						; size = 4
?AttackDefenceRate@cSystemOfRage@@QAEXHHAAM0@Z PROC	; cSystemOfRage::AttackDefenceRate
; _this$ = ecx

; 608  : {

  028e0	55		 push	 ebp
  028e1	8b ec		 mov	 ebp, esp
  028e3	83 ec 48	 sub	 esp, 72			; 00000048H
  028e6	53		 push	 ebx
  028e7	56		 push	 esi
  028e8	57		 push	 edi
  028e9	89 4d fc	 mov	 DWORD PTR _this$[ebp], ecx

; 609  : 	Attack += this->ReturnCalc(aIndex, eSkill32,0);

  028ec	6a 00		 push	 0
  028ee	6a 20		 push	 32			; 00000020H
  028f0	8b 45 08	 mov	 eax, DWORD PTR _aIndex$[ebp]
  028f3	50		 push	 eax
  028f4	8b 4d fc	 mov	 ecx, DWORD PTR _this$[ebp]
  028f7	e8 00 00 00 00	 call	 ?ReturnCalc@cSystemOfRage@@QAEHHHH@Z ; cSystemOfRage::ReturnCalc
  028fc	89 45 b8	 mov	 DWORD PTR tv86[ebp], eax
  028ff	db 45 b8	 fild	 DWORD PTR tv86[ebp]
  02902	8b 4d 10	 mov	 ecx, DWORD PTR _Attack$[ebp]
  02905	d8 01		 fadd	 DWORD PTR [ecx]
  02907	8b 55 10	 mov	 edx, DWORD PTR _Attack$[ebp]
  0290a	d9 1a		 fstp	 DWORD PTR [edx]

; 610  : 	Defence += this->ReturnCalc(Target, eSkill14,0);

  0290c	6a 00		 push	 0
  0290e	6a 0e		 push	 14			; 0000000eH
  02910	8b 45 0c	 mov	 eax, DWORD PTR _Target$[ebp]
  02913	50		 push	 eax
  02914	8b 4d fc	 mov	 ecx, DWORD PTR _this$[ebp]
  02917	e8 00 00 00 00	 call	 ?ReturnCalc@cSystemOfRage@@QAEHHHH@Z ; cSystemOfRage::ReturnCalc
  0291c	89 45 b8	 mov	 DWORD PTR tv93[ebp], eax
  0291f	db 45 b8	 fild	 DWORD PTR tv93[ebp]
  02922	8b 4d 14	 mov	 ecx, DWORD PTR _Defence$[ebp]
  02925	d8 01		 fadd	 DWORD PTR [ecx]
  02927	8b 55 14	 mov	 edx, DWORD PTR _Defence$[ebp]
  0292a	d9 1a		 fstp	 DWORD PTR [edx]

; 611  : }

  0292c	5f		 pop	 edi
  0292d	5e		 pop	 esi
  0292e	5b		 pop	 ebx
  0292f	8b e5		 mov	 esp, ebp
  02931	5d		 pop	 ebp
  02932	c2 10 00	 ret	 16			; 00000010H
?AttackDefenceRate@cSystemOfRage@@QAEXHHAAM0@Z ENDP	; cSystemOfRage::AttackDefenceRate
_TEXT	ENDS
PUBLIC	?ExlCritDamage@cSystemOfRage@@QAEXHHAAH@Z	; cSystemOfRage::ExlCritDamage
; Function compile flags: /Odtp /ZI
_TEXT	SEGMENT
_this$ = -4						; size = 4
_aIndex$ = 8						; size = 4
_effect$ = 12						; size = 4
_AttackDamage$ = 16					; size = 4
?ExlCritDamage@cSystemOfRage@@QAEXHHAAH@Z PROC		; cSystemOfRage::ExlCritDamage
; _this$ = ecx

; 614  : {

  02940	55		 push	 ebp
  02941	8b ec		 mov	 ebp, esp
  02943	83 ec 44	 sub	 esp, 68			; 00000044H
  02946	53		 push	 ebx
  02947	56		 push	 esi
  02948	57		 push	 edi
  02949	89 4d fc	 mov	 DWORD PTR _this$[ebp], ecx

; 615  : 	if(effect == 2)//Exl Damage

  0294c	83 7d 0c 02	 cmp	 DWORD PTR _effect$[ebp], 2
  02950	75 1a		 jne	 SHORT $LN2@ExlCritDam

; 616  : 	{
; 617  : 		AttackDamage += this->ReturnCalc(aIndex, eSkill34,0);

  02952	6a 00		 push	 0
  02954	6a 22		 push	 34			; 00000022H
  02956	8b 45 08	 mov	 eax, DWORD PTR _aIndex$[ebp]
  02959	50		 push	 eax
  0295a	8b 4d fc	 mov	 ecx, DWORD PTR _this$[ebp]
  0295d	e8 00 00 00 00	 call	 ?ReturnCalc@cSystemOfRage@@QAEHHHH@Z ; cSystemOfRage::ReturnCalc
  02962	8b 4d 10	 mov	 ecx, DWORD PTR _AttackDamage$[ebp]
  02965	03 01		 add	 eax, DWORD PTR [ecx]
  02967	8b 55 10	 mov	 edx, DWORD PTR _AttackDamage$[ebp]
  0296a	89 02		 mov	 DWORD PTR [edx], eax
$LN2@ExlCritDam:

; 618  : 	}
; 619  : 	if(effect == 3)//Critical Damage

  0296c	83 7d 0c 03	 cmp	 DWORD PTR _effect$[ebp], 3
  02970	75 1a		 jne	 SHORT $LN3@ExlCritDam

; 620  : 	{
; 621  : 		AttackDamage += this->ReturnCalc(aIndex, eSkill35,0);

  02972	6a 00		 push	 0
  02974	6a 23		 push	 35			; 00000023H
  02976	8b 45 08	 mov	 eax, DWORD PTR _aIndex$[ebp]
  02979	50		 push	 eax
  0297a	8b 4d fc	 mov	 ecx, DWORD PTR _this$[ebp]
  0297d	e8 00 00 00 00	 call	 ?ReturnCalc@cSystemOfRage@@QAEHHHH@Z ; cSystemOfRage::ReturnCalc
  02982	8b 4d 10	 mov	 ecx, DWORD PTR _AttackDamage$[ebp]
  02985	03 01		 add	 eax, DWORD PTR [ecx]
  02987	8b 55 10	 mov	 edx, DWORD PTR _AttackDamage$[ebp]
  0298a	89 02		 mov	 DWORD PTR [edx], eax
$LN3@ExlCritDam:

; 622  : 	}
; 623  : }

  0298c	5f		 pop	 edi
  0298d	5e		 pop	 esi
  0298e	5b		 pop	 ebx
  0298f	8b e5		 mov	 esp, ebp
  02991	5d		 pop	 ebp
  02992	c2 0c 00	 ret	 12			; 0000000cH
?ExlCritDamage@cSystemOfRage@@QAEXHHAAH@Z ENDP		; cSystemOfRage::ExlCritDamage
_TEXT	ENDS
PUBLIC	?AttackDamageRG@cSystemOfRage@@QAEXPAUOBJECTSTRUCT@@0AAH_N@Z ; cSystemOfRage::AttackDamageRG
EXTRN	?gObjCalDistance@@YAHPAUOBJECTSTRUCT@@0@Z:PROC	; gObjCalDistance
; Function compile flags: /Odtp /ZI
_TEXT	SEGMENT
_Magic$ = -12						; size = 4
_aIndex$ = -8						; size = 4
_this$ = -4						; size = 4
_lpObj$ = 8						; size = 4
_lpTarget$ = 12						; size = 4
_dmg$ = 16						; size = 4
_bDamageReflect$ = 20					; size = 1
?AttackDamageRG@cSystemOfRage@@QAEXPAUOBJECTSTRUCT@@0AAH_N@Z PROC ; cSystemOfRage::AttackDamageRG
; _this$ = ecx

; 626  : {

  029a0	55		 push	 ebp
  029a1	8b ec		 mov	 ebp, esp
  029a3	83 ec 4c	 sub	 esp, 76			; 0000004cH
  029a6	53		 push	 ebx
  029a7	56		 push	 esi
  029a8	57		 push	 edi
  029a9	89 4d fc	 mov	 DWORD PTR _this$[ebp], ecx

; 627  : 	if(bDamageReflect == true) return;

  029ac	0f b6 45 14	 movzx	 eax, BYTE PTR _bDamageReflect$[ebp]
  029b0	83 f8 01	 cmp	 eax, 1
  029b3	75 05		 jne	 SHORT $LN9@AttackDama
  029b5	e9 32 01 00 00	 jmp	 $LN10@AttackDama
$LN9@AttackDama:

; 628  : 	if(lpObj->Type != OBJ_USER)

  029ba	8b 45 08	 mov	 eax, DWORD PTR _lpObj$[ebp]
  029bd	0f b7 48 68	 movzx	 ecx, WORD PTR [eax+104]
  029c1	83 f9 01	 cmp	 ecx, 1
  029c4	74 05		 je	 SHORT $LN8@AttackDama

; 629  : 	{
; 630  : 		return;

  029c6	e9 21 01 00 00	 jmp	 $LN10@AttackDama
$LN8@AttackDama:

; 631  : 	}
; 632  : 	int aIndex =  lpObj->m_Index;

  029cb	8b 45 08	 mov	 eax, DWORD PTR _lpObj$[ebp]
  029ce	8b 08		 mov	 ecx, DWORD PTR [eax]
  029d0	89 4d f8	 mov	 DWORD PTR _aIndex$[ebp], ecx

; 633  : 	int Magic = lpObj->UseMagicNumber;

  029d3	8b 45 08	 mov	 eax, DWORD PTR _lpObj$[ebp]
  029d6	0f b6 88 cd 04
	00 00		 movzx	 ecx, BYTE PTR [eax+1229]
  029dd	89 4d f4	 mov	 DWORD PTR _Magic$[ebp], ecx

; 634  : 	//Ice Damage
; 635  : 	if(Magic == 7 || Magic == 39 || Magic == 51 || Magic == 75 ||
; 636  : 		Magic == 450 || Magic == 451 || Magic == 452 || Magic == 453 || Magic == 454)

  029e0	83 7d f4 07	 cmp	 DWORD PTR _Magic$[ebp], 7
  029e4	74 3f		 je	 SHORT $LN6@AttackDama
  029e6	83 7d f4 27	 cmp	 DWORD PTR _Magic$[ebp], 39 ; 00000027H
  029ea	74 39		 je	 SHORT $LN6@AttackDama
  029ec	83 7d f4 33	 cmp	 DWORD PTR _Magic$[ebp], 51 ; 00000033H
  029f0	74 33		 je	 SHORT $LN6@AttackDama
  029f2	83 7d f4 4b	 cmp	 DWORD PTR _Magic$[ebp], 75 ; 0000004bH
  029f6	74 2d		 je	 SHORT $LN6@AttackDama
  029f8	81 7d f4 c2 01
	00 00		 cmp	 DWORD PTR _Magic$[ebp], 450 ; 000001c2H
  029ff	74 24		 je	 SHORT $LN6@AttackDama
  02a01	81 7d f4 c3 01
	00 00		 cmp	 DWORD PTR _Magic$[ebp], 451 ; 000001c3H
  02a08	74 1b		 je	 SHORT $LN6@AttackDama
  02a0a	81 7d f4 c4 01
	00 00		 cmp	 DWORD PTR _Magic$[ebp], 452 ; 000001c4H
  02a11	74 12		 je	 SHORT $LN6@AttackDama
  02a13	81 7d f4 c5 01
	00 00		 cmp	 DWORD PTR _Magic$[ebp], 453 ; 000001c5H
  02a1a	74 09		 je	 SHORT $LN6@AttackDama
  02a1c	81 7d f4 c6 01
	00 00		 cmp	 DWORD PTR _Magic$[ebp], 454 ; 000001c6H
  02a23	75 1c		 jne	 SHORT $LN7@AttackDama
$LN6@AttackDama:

; 637  : 	{
; 638  : 		dmg += this->ReturnCalc(aIndex, eSkill30,0);

  02a25	6a 00		 push	 0
  02a27	6a 1e		 push	 30			; 0000001eH
  02a29	8b 45 f8	 mov	 eax, DWORD PTR _aIndex$[ebp]
  02a2c	50		 push	 eax
  02a2d	8b 4d fc	 mov	 ecx, DWORD PTR _this$[ebp]
  02a30	e8 00 00 00 00	 call	 ?ReturnCalc@cSystemOfRage@@QAEHHHH@Z ; cSystemOfRage::ReturnCalc
  02a35	8b 4d 10	 mov	 ecx, DWORD PTR _dmg$[ebp]
  02a38	03 01		 add	 eax, DWORD PTR [ecx]
  02a3a	8b 55 10	 mov	 edx, DWORD PTR _dmg$[ebp]
  02a3d	89 02		 mov	 DWORD PTR [edx], eax

; 639  : 	}
; 640  : 	//Fire Damage
; 641  : 	else if(Magic == 4 || Magic == 10 || Magic == 49 || Magic == 61 ||

  02a3f	eb 4a		 jmp	 SHORT $LN5@AttackDama
$LN7@AttackDama:

; 642  : 		Magic == 74 ||Magic == 78 ||Magic == 14 || Magic == 55 )

  02a41	83 7d f4 04	 cmp	 DWORD PTR _Magic$[ebp], 4
  02a45	74 2a		 je	 SHORT $LN3@AttackDama
  02a47	83 7d f4 0a	 cmp	 DWORD PTR _Magic$[ebp], 10 ; 0000000aH
  02a4b	74 24		 je	 SHORT $LN3@AttackDama
  02a4d	83 7d f4 31	 cmp	 DWORD PTR _Magic$[ebp], 49 ; 00000031H
  02a51	74 1e		 je	 SHORT $LN3@AttackDama
  02a53	83 7d f4 3d	 cmp	 DWORD PTR _Magic$[ebp], 61 ; 0000003dH
  02a57	74 18		 je	 SHORT $LN3@AttackDama
  02a59	83 7d f4 4a	 cmp	 DWORD PTR _Magic$[ebp], 74 ; 0000004aH
  02a5d	74 12		 je	 SHORT $LN3@AttackDama
  02a5f	83 7d f4 4e	 cmp	 DWORD PTR _Magic$[ebp], 78 ; 0000004eH
  02a63	74 0c		 je	 SHORT $LN3@AttackDama
  02a65	83 7d f4 0e	 cmp	 DWORD PTR _Magic$[ebp], 14 ; 0000000eH
  02a69	74 06		 je	 SHORT $LN3@AttackDama
  02a6b	83 7d f4 37	 cmp	 DWORD PTR _Magic$[ebp], 55 ; 00000037H
  02a6f	75 1a		 jne	 SHORT $LN5@AttackDama
$LN3@AttackDama:

; 643  : 	{
; 644  : 		dmg += this->ReturnCalc(aIndex, eSkill15,0);

  02a71	6a 00		 push	 0
  02a73	6a 0f		 push	 15			; 0000000fH
  02a75	8b 45 f8	 mov	 eax, DWORD PTR _aIndex$[ebp]
  02a78	50		 push	 eax
  02a79	8b 4d fc	 mov	 ecx, DWORD PTR _this$[ebp]
  02a7c	e8 00 00 00 00	 call	 ?ReturnCalc@cSystemOfRage@@QAEHHHH@Z ; cSystemOfRage::ReturnCalc
  02a81	8b 4d 10	 mov	 ecx, DWORD PTR _dmg$[ebp]
  02a84	03 01		 add	 eax, DWORD PTR [ecx]
  02a86	8b 55 10	 mov	 edx, DWORD PTR _dmg$[ebp]
  02a89	89 02		 mov	 DWORD PTR [edx], eax
$LN5@AttackDama:

; 645  : 	}
; 646  : 	//DistanceAttack
; 647  : 	if(gObjCalDistance(lpObj, lpTarget) > 2)

  02a8b	8b 45 0c	 mov	 eax, DWORD PTR _lpTarget$[ebp]
  02a8e	50		 push	 eax
  02a8f	8b 4d 08	 mov	 ecx, DWORD PTR _lpObj$[ebp]
  02a92	51		 push	 ecx
  02a93	e8 00 00 00 00	 call	 ?gObjCalDistance@@YAHPAUOBJECTSTRUCT@@0@Z ; gObjCalDistance
  02a98	83 c4 08	 add	 esp, 8
  02a9b	83 f8 02	 cmp	 eax, 2
  02a9e	7e 1a		 jle	 SHORT $LN2@AttackDama

; 648  : 	{
; 649  : 		dmg += this->ReturnCalc(aIndex, eSkill31,0);

  02aa0	6a 00		 push	 0
  02aa2	6a 1f		 push	 31			; 0000001fH
  02aa4	8b 45 f8	 mov	 eax, DWORD PTR _aIndex$[ebp]
  02aa7	50		 push	 eax
  02aa8	8b 4d fc	 mov	 ecx, DWORD PTR _this$[ebp]
  02aab	e8 00 00 00 00	 call	 ?ReturnCalc@cSystemOfRage@@QAEHHHH@Z ; cSystemOfRage::ReturnCalc
  02ab0	8b 4d 10	 mov	 ecx, DWORD PTR _dmg$[ebp]
  02ab3	03 01		 add	 eax, DWORD PTR [ecx]
  02ab5	8b 55 10	 mov	 edx, DWORD PTR _dmg$[ebp]
  02ab8	89 02		 mov	 DWORD PTR [edx], eax
$LN2@AttackDama:

; 650  : 	}
; 651  : 	if(lpObj->Type == OBJ_USER && lpTarget->Type == OBJ_USER)

  02aba	8b 45 08	 mov	 eax, DWORD PTR _lpObj$[ebp]
  02abd	0f b7 48 68	 movzx	 ecx, WORD PTR [eax+104]
  02ac1	83 f9 01	 cmp	 ecx, 1
  02ac4	75 26		 jne	 SHORT $LN10@AttackDama
  02ac6	8b 45 0c	 mov	 eax, DWORD PTR _lpTarget$[ebp]
  02ac9	0f b7 48 68	 movzx	 ecx, WORD PTR [eax+104]
  02acd	83 f9 01	 cmp	 ecx, 1
  02ad0	75 1a		 jne	 SHORT $LN10@AttackDama

; 652  : 	{
; 653  : 		dmg += this->ReturnCalc(aIndex, eSkill25,0);

  02ad2	6a 00		 push	 0
  02ad4	6a 19		 push	 25			; 00000019H
  02ad6	8b 45 f8	 mov	 eax, DWORD PTR _aIndex$[ebp]
  02ad9	50		 push	 eax
  02ada	8b 4d fc	 mov	 ecx, DWORD PTR _this$[ebp]
  02add	e8 00 00 00 00	 call	 ?ReturnCalc@cSystemOfRage@@QAEHHHH@Z ; cSystemOfRage::ReturnCalc
  02ae2	8b 4d 10	 mov	 ecx, DWORD PTR _dmg$[ebp]
  02ae5	03 01		 add	 eax, DWORD PTR [ecx]
  02ae7	8b 55 10	 mov	 edx, DWORD PTR _dmg$[ebp]
  02aea	89 02		 mov	 DWORD PTR [edx], eax
$LN10@AttackDama:

; 654  : 	}
; 655  : }

  02aec	5f		 pop	 edi
  02aed	5e		 pop	 esi
  02aee	5b		 pop	 ebx
  02aef	8b e5		 mov	 esp, ebp
  02af1	5d		 pop	 ebp
  02af2	c2 10 00	 ret	 16			; 00000010H
?AttackDamageRG@cSystemOfRage@@QAEXPAUOBJECTSTRUCT@@0AAH_N@Z ENDP ; cSystemOfRage::AttackDamageRG
_TEXT	ENDS
PUBLIC	__$ArrayPad$
PUBLIC	?SendUser@cSystemOfRage@@QAEXH@Z		; cSystemOfRage::SendUser
; Function compile flags: /Odtp /ZI
_TEXT	SEGMENT
_rSend$ = -172						; size = 160
_lpObj$ = -12						; size = 4
_this$ = -8						; size = 4
__$ArrayPad$ = -4					; size = 4
_aIndex$ = 8						; size = 4
?SendUser@cSystemOfRage@@QAEXH@Z PROC			; cSystemOfRage::SendUser
; _this$ = ecx

; 658  : {

  02b00	55		 push	 ebp
  02b01	8b ec		 mov	 ebp, esp
  02b03	81 ec ec 00 00
	00		 sub	 esp, 236		; 000000ecH
  02b09	a1 00 00 00 00	 mov	 eax, DWORD PTR ___security_cookie
  02b0e	33 c5		 xor	 eax, ebp
  02b10	89 45 fc	 mov	 DWORD PTR __$ArrayPad$[ebp], eax
  02b13	53		 push	 ebx
  02b14	56		 push	 esi
  02b15	57		 push	 edi
  02b16	89 4d f8	 mov	 DWORD PTR _this$[ebp], ecx

; 659  : 	LPOBJ lpObj = &gObj[aIndex];

  02b19	8b 45 08	 mov	 eax, DWORD PTR _aIndex$[ebp]
  02b1c	69 c0 38 2b 00
	00		 imul	 eax, 11064		; 00002b38H
  02b22	03 05 00 00 00
	00		 add	 eax, DWORD PTR ?gObj@@3PAUOBJECTSTRUCT@@A ; gObj
  02b28	89 45 f4	 mov	 DWORD PTR _lpObj$[ebp], eax

; 660  : 
; 661  : 	sRageUserSend rSend;
; 662  : 
; 663  : 	rSend.h.set((LPBYTE)&rSend, 0xFB, 2, sizeof(rSend));

  02b2b	68 a0 00 00 00	 push	 160			; 000000a0H
  02b30	6a 02		 push	 2
  02b32	68 fb 00 00 00	 push	 251			; 000000fbH
  02b37	8d 85 54 ff ff
	ff		 lea	 eax, DWORD PTR _rSend$[ebp]
  02b3d	50		 push	 eax
  02b3e	8d 8d 54 ff ff
	ff		 lea	 ecx, DWORD PTR _rSend$[ebp]
  02b44	e8 00 00 00 00	 call	 ?set@PBMSG_HEAD2@@QAEXPAEEEE@Z ; PBMSG_HEAD2::set

; 664  : 
; 665  : 	rSend.rLevel = this->rUser[aIndex].rLevel;

  02b49	8b 45 08	 mov	 eax, DWORD PTR _aIndex$[ebp]
  02b4c	69 c0 a0 00 00
	00		 imul	 eax, 160		; 000000a0H
  02b52	8b 4d f8	 mov	 ecx, DWORD PTR _this$[ebp]
  02b55	8b 54 01 34	 mov	 edx, DWORD PTR [ecx+eax+52]
  02b59	89 95 58 ff ff
	ff		 mov	 DWORD PTR _rSend$[ebp+4], edx

; 666  : 	rSend.rPoints = this->rUser[aIndex].rPoints;

  02b5f	8b 45 08	 mov	 eax, DWORD PTR _aIndex$[ebp]
  02b62	69 c0 a0 00 00
	00		 imul	 eax, 160		; 000000a0H
  02b68	8b 4d f8	 mov	 ecx, DWORD PTR _this$[ebp]
  02b6b	8b 54 01 38	 mov	 edx, DWORD PTR [ecx+eax+56]
  02b6f	89 95 5c ff ff
	ff		 mov	 DWORD PTR _rSend$[ebp+8], edx

; 667  : 	rSend.rExperience = this->rUser[aIndex].rExperience;

  02b75	8b 45 08	 mov	 eax, DWORD PTR _aIndex$[ebp]
  02b78	69 c0 a0 00 00
	00		 imul	 eax, 160		; 000000a0H
  02b7e	8b 4d f8	 mov	 ecx, DWORD PTR _this$[ebp]
  02b81	8b 54 01 3c	 mov	 edx, DWORD PTR [ecx+eax+60]
  02b85	89 95 60 ff ff
	ff		 mov	 DWORD PTR _rSend$[ebp+12], edx

; 668  : 
; 669  : 	rSend.Damage = this->rUser[aIndex].Damage;

  02b8b	8b 45 08	 mov	 eax, DWORD PTR _aIndex$[ebp]
  02b8e	69 c0 a0 00 00
	00		 imul	 eax, 160		; 000000a0H
  02b94	8b 4d f8	 mov	 ecx, DWORD PTR _this$[ebp]
  02b97	8b 54 01 44	 mov	 edx, DWORD PTR [ecx+eax+68]
  02b9b	89 95 64 ff ff
	ff		 mov	 DWORD PTR _rSend$[ebp+16], edx

; 670  : 	rSend.FreePoints = this->rUser[aIndex].FreePoints;

  02ba1	8b 45 08	 mov	 eax, DWORD PTR _aIndex$[ebp]
  02ba4	69 c0 a0 00 00
	00		 imul	 eax, 160		; 000000a0H
  02baa	8b 4d f8	 mov	 ecx, DWORD PTR _this$[ebp]
  02bad	8b 54 01 48	 mov	 edx, DWORD PTR [ecx+eax+72]
  02bb1	89 95 68 ff ff
	ff		 mov	 DWORD PTR _rSend$[ebp+20], edx

; 671  : 	rSend.SummonPet = this->rUser[aIndex].SummonPet;

  02bb7	8b 45 08	 mov	 eax, DWORD PTR _aIndex$[ebp]
  02bba	69 c0 a0 00 00
	00		 imul	 eax, 160		; 000000a0H
  02bc0	8b 4d f8	 mov	 ecx, DWORD PTR _this$[ebp]
  02bc3	8b 54 01 4c	 mov	 edx, DWORD PTR [ecx+eax+76]
  02bc7	89 95 6c ff ff
	ff		 mov	 DWORD PTR _rSend$[ebp+24], edx

; 672  : 	rSend.WingsDamagePlus = this->rUser[aIndex].WingsDamagePlus;

  02bcd	8b 45 08	 mov	 eax, DWORD PTR _aIndex$[ebp]
  02bd0	69 c0 a0 00 00
	00		 imul	 eax, 160		; 000000a0H
  02bd6	8b 4d f8	 mov	 ecx, DWORD PTR _this$[ebp]
  02bd9	8b 54 01 50	 mov	 edx, DWORD PTR [ecx+eax+80]
  02bdd	89 95 70 ff ff
	ff		 mov	 DWORD PTR _rSend$[ebp+28], edx

; 673  : 	rSend.FinalMana = this->rUser[aIndex].FinalMana;

  02be3	8b 45 08	 mov	 eax, DWORD PTR _aIndex$[ebp]
  02be6	69 c0 a0 00 00
	00		 imul	 eax, 160		; 000000a0H
  02bec	8b 4d f8	 mov	 ecx, DWORD PTR _this$[ebp]
  02bef	8b 54 01 54	 mov	 edx, DWORD PTR [ecx+eax+84]
  02bf3	89 95 74 ff ff
	ff		 mov	 DWORD PTR _rSend$[ebp+32], edx

; 674  : 	rSend.IgnoreDefence = this->rUser[aIndex].IgnoreDefence;

  02bf9	8b 45 08	 mov	 eax, DWORD PTR _aIndex$[ebp]
  02bfc	69 c0 a0 00 00
	00		 imul	 eax, 160		; 000000a0H
  02c02	8b 4d f8	 mov	 ecx, DWORD PTR _this$[ebp]
  02c05	8b 54 01 58	 mov	 edx, DWORD PTR [ecx+eax+88]
  02c09	89 95 78 ff ff
	ff		 mov	 DWORD PTR _rSend$[ebp+36], edx

; 675  : 	rSend.ResetLevel = this->rUser[aIndex].ResetLevel;

  02c0f	8b 45 08	 mov	 eax, DWORD PTR _aIndex$[ebp]
  02c12	69 c0 a0 00 00
	00		 imul	 eax, 160		; 000000a0H
  02c18	8b 4d f8	 mov	 ecx, DWORD PTR _this$[ebp]
  02c1b	8b 54 01 5c	 mov	 edx, DWORD PTR [ecx+eax+92]
  02c1f	89 95 7c ff ff
	ff		 mov	 DWORD PTR _rSend$[ebp+40], edx

; 676  : 	rSend.Teleport = this->rUser[aIndex].Teleport;

  02c25	8b 45 08	 mov	 eax, DWORD PTR _aIndex$[ebp]
  02c28	69 c0 a0 00 00
	00		 imul	 eax, 160		; 000000a0H
  02c2e	8b 4d f8	 mov	 ecx, DWORD PTR _this$[ebp]
  02c31	8b 54 01 60	 mov	 edx, DWORD PTR [ecx+eax+96]
  02c35	89 55 80	 mov	 DWORD PTR _rSend$[ebp+44], edx

; 677  : 	rSend.CriticalDamageRate = this->rUser[aIndex].CriticalDamageRate;

  02c38	8b 45 08	 mov	 eax, DWORD PTR _aIndex$[ebp]
  02c3b	69 c0 a0 00 00
	00		 imul	 eax, 160		; 000000a0H
  02c41	8b 4d f8	 mov	 ecx, DWORD PTR _this$[ebp]
  02c44	8b 54 01 64	 mov	 edx, DWORD PTR [ecx+eax+100]
  02c48	89 55 84	 mov	 DWORD PTR _rSend$[ebp+48], edx

; 678  : 	rSend.AbsordDamage = this->rUser[aIndex].AbsordDamage;

  02c4b	8b 45 08	 mov	 eax, DWORD PTR _aIndex$[ebp]
  02c4e	69 c0 a0 00 00
	00		 imul	 eax, 160		; 000000a0H
  02c54	8b 4d f8	 mov	 ecx, DWORD PTR _this$[ebp]
  02c57	8b 54 01 68	 mov	 edx, DWORD PTR [ecx+eax+104]
  02c5b	89 55 88	 mov	 DWORD PTR _rSend$[ebp+52], edx

; 679  : 	rSend.PetDamageBonus = this->rUser[aIndex].PetDamageBonus;

  02c5e	8b 45 08	 mov	 eax, DWORD PTR _aIndex$[ebp]
  02c61	69 c0 a0 00 00
	00		 imul	 eax, 160		; 000000a0H
  02c67	8b 4d f8	 mov	 ecx, DWORD PTR _this$[ebp]
  02c6a	8b 54 01 6c	 mov	 edx, DWORD PTR [ecx+eax+108]
  02c6e	89 55 8c	 mov	 DWORD PTR _rSend$[ebp+56], edx

; 680  : 	rSend.FinalLife = this->rUser[aIndex].FinalLife;

  02c71	8b 45 08	 mov	 eax, DWORD PTR _aIndex$[ebp]
  02c74	69 c0 a0 00 00
	00		 imul	 eax, 160		; 000000a0H
  02c7a	8b 4d f8	 mov	 ecx, DWORD PTR _this$[ebp]
  02c7d	8b 54 01 70	 mov	 edx, DWORD PTR [ecx+eax+112]
  02c81	89 55 90	 mov	 DWORD PTR _rSend$[ebp+60], edx

; 681  : 	rSend.Strength = this->rUser[aIndex].Strength;

  02c84	8b 45 08	 mov	 eax, DWORD PTR _aIndex$[ebp]
  02c87	69 c0 a0 00 00
	00		 imul	 eax, 160		; 000000a0H
  02c8d	8b 4d f8	 mov	 ecx, DWORD PTR _this$[ebp]
  02c90	8b 54 01 74	 mov	 edx, DWORD PTR [ecx+eax+116]
  02c94	89 55 94	 mov	 DWORD PTR _rSend$[ebp+64], edx

; 682  : 	rSend.DefenceRate = this->rUser[aIndex].DefenceRate;

  02c97	8b 45 08	 mov	 eax, DWORD PTR _aIndex$[ebp]
  02c9a	69 c0 a0 00 00
	00		 imul	 eax, 160		; 000000a0H
  02ca0	8b 4d f8	 mov	 ecx, DWORD PTR _this$[ebp]
  02ca3	8b 54 01 78	 mov	 edx, DWORD PTR [ecx+eax+120]
  02ca7	89 55 98	 mov	 DWORD PTR _rSend$[ebp+68], edx

; 683  : 	rSend.FireDamage = this->rUser[aIndex].FireDamage;

  02caa	8b 45 08	 mov	 eax, DWORD PTR _aIndex$[ebp]
  02cad	69 c0 a0 00 00
	00		 imul	 eax, 160		; 000000a0H
  02cb3	8b 4d f8	 mov	 ecx, DWORD PTR _this$[ebp]
  02cb6	8b 54 01 7c	 mov	 edx, DWORD PTR [ecx+eax+124]
  02cba	89 55 9c	 mov	 DWORD PTR _rSend$[ebp+72], edx

; 684  : 	rSend.Energy = this->rUser[aIndex].Energy;

  02cbd	8b 45 08	 mov	 eax, DWORD PTR _aIndex$[ebp]
  02cc0	69 c0 a0 00 00
	00		 imul	 eax, 160		; 000000a0H
  02cc6	8b 4d f8	 mov	 ecx, DWORD PTR _this$[ebp]
  02cc9	8b 94 01 80 00
	00 00		 mov	 edx, DWORD PTR [ecx+eax+128]
  02cd0	89 55 a0	 mov	 DWORD PTR _rSend$[ebp+76], edx

; 685  : 	rSend.Agility = this->rUser[aIndex].Agility;

  02cd3	8b 45 08	 mov	 eax, DWORD PTR _aIndex$[ebp]
  02cd6	69 c0 a0 00 00
	00		 imul	 eax, 160		; 000000a0H
  02cdc	8b 4d f8	 mov	 ecx, DWORD PTR _this$[ebp]
  02cdf	8b 94 01 84 00
	00 00		 mov	 edx, DWORD PTR [ecx+eax+132]
  02ce6	89 55 a4	 mov	 DWORD PTR _rSend$[ebp+80], edx

; 686  : 	rSend.DoubleDamage = this->rUser[aIndex].DoubleDamage;

  02ce9	8b 45 08	 mov	 eax, DWORD PTR _aIndex$[ebp]
  02cec	69 c0 a0 00 00
	00		 imul	 eax, 160		; 000000a0H
  02cf2	8b 4d f8	 mov	 ecx, DWORD PTR _this$[ebp]
  02cf5	8b 94 01 88 00
	00 00		 mov	 edx, DWORD PTR [ecx+eax+136]
  02cfc	89 55 a8	 mov	 DWORD PTR _rSend$[ebp+84], edx

; 687  : 	rSend.FinalSD = this->rUser[aIndex].FinalSD;

  02cff	8b 45 08	 mov	 eax, DWORD PTR _aIndex$[ebp]
  02d02	69 c0 a0 00 00
	00		 imul	 eax, 160		; 000000a0H
  02d08	8b 4d f8	 mov	 ecx, DWORD PTR _this$[ebp]
  02d0b	8b 94 01 8c 00
	00 00		 mov	 edx, DWORD PTR [ecx+eax+140]
  02d12	89 55 ac	 mov	 DWORD PTR _rSend$[ebp+88], edx

; 688  : 	rSend.FinalDefence = this->rUser[aIndex].FinalDefence;

  02d15	8b 45 08	 mov	 eax, DWORD PTR _aIndex$[ebp]
  02d18	69 c0 a0 00 00
	00		 imul	 eax, 160		; 000000a0H
  02d1e	8b 4d f8	 mov	 ecx, DWORD PTR _this$[ebp]
  02d21	8b 94 01 90 00
	00 00		 mov	 edx, DWORD PTR [ecx+eax+144]
  02d28	89 55 b0	 mov	 DWORD PTR _rSend$[ebp+92], edx

; 689  : 	rSend.ZenDrop = this->rUser[aIndex].ZenDrop;

  02d2b	8b 45 08	 mov	 eax, DWORD PTR _aIndex$[ebp]
  02d2e	69 c0 a0 00 00
	00		 imul	 eax, 160		; 000000a0H
  02d34	8b 4d f8	 mov	 ecx, DWORD PTR _this$[ebp]
  02d37	8b 94 01 94 00
	00 00		 mov	 edx, DWORD PTR [ecx+eax+148]
  02d3e	89 55 b4	 mov	 DWORD PTR _rSend$[ebp+96], edx

; 690  : 	rSend.GuildBonus = this->rUser[aIndex].GuildBonus;

  02d41	8b 45 08	 mov	 eax, DWORD PTR _aIndex$[ebp]
  02d44	69 c0 a0 00 00
	00		 imul	 eax, 160		; 000000a0H
  02d4a	8b 4d f8	 mov	 ecx, DWORD PTR _this$[ebp]
  02d4d	8b 94 01 98 00
	00 00		 mov	 edx, DWORD PTR [ecx+eax+152]
  02d54	89 55 b8	 mov	 DWORD PTR _rSend$[ebp+100], edx

; 691  : 	rSend.ReflectDamage = this->rUser[aIndex].ReflectDamage;

  02d57	8b 45 08	 mov	 eax, DWORD PTR _aIndex$[ebp]
  02d5a	69 c0 a0 00 00
	00		 imul	 eax, 160		; 000000a0H
  02d60	8b 4d f8	 mov	 ecx, DWORD PTR _this$[ebp]
  02d63	8b 94 01 9c 00
	00 00		 mov	 edx, DWORD PTR [ecx+eax+156]
  02d6a	89 55 bc	 mov	 DWORD PTR _rSend$[ebp+104], edx

; 692  : 	rSend.ExellentDamageRate = this->rUser[aIndex].ExellentDamageRate;

  02d6d	8b 45 08	 mov	 eax, DWORD PTR _aIndex$[ebp]
  02d70	69 c0 a0 00 00
	00		 imul	 eax, 160		; 000000a0H
  02d76	8b 4d f8	 mov	 ecx, DWORD PTR _this$[ebp]
  02d79	8b 94 01 a0 00
	00 00		 mov	 edx, DWORD PTR [ecx+eax+160]
  02d80	89 55 c0	 mov	 DWORD PTR _rSend$[ebp+108], edx

; 693  : 	rSend.PvPBonusPlus = this->rUser[aIndex].PvPBonusPlus;

  02d83	8b 45 08	 mov	 eax, DWORD PTR _aIndex$[ebp]
  02d86	69 c0 a0 00 00
	00		 imul	 eax, 160		; 000000a0H
  02d8c	8b 4d f8	 mov	 ecx, DWORD PTR _this$[ebp]
  02d8f	8b 94 01 a4 00
	00 00		 mov	 edx, DWORD PTR [ecx+eax+164]
  02d96	89 55 c4	 mov	 DWORD PTR _rSend$[ebp+112], edx

; 694  : 	rSend.MinDefence = this->rUser[aIndex].MinDefence;

  02d99	8b 45 08	 mov	 eax, DWORD PTR _aIndex$[ebp]
  02d9c	69 c0 a0 00 00
	00		 imul	 eax, 160		; 000000a0H
  02da2	8b 4d f8	 mov	 ecx, DWORD PTR _this$[ebp]
  02da5	8b 94 01 a8 00
	00 00		 mov	 edx, DWORD PTR [ecx+eax+168]
  02dac	89 55 c8	 mov	 DWORD PTR _rSend$[ebp+116], edx

; 695  : 	rSend.Experience = this->rUser[aIndex].Experience;

  02daf	8b 45 08	 mov	 eax, DWORD PTR _aIndex$[ebp]
  02db2	69 c0 a0 00 00
	00		 imul	 eax, 160		; 000000a0H
  02db8	8b 4d f8	 mov	 ecx, DWORD PTR _this$[ebp]
  02dbb	8b 94 01 ac 00
	00 00		 mov	 edx, DWORD PTR [ecx+eax+172]
  02dc2	89 55 cc	 mov	 DWORD PTR _rSend$[ebp+120], edx

; 696  : 	rSend.StartSD = this->rUser[aIndex].StartSD;

  02dc5	8b 45 08	 mov	 eax, DWORD PTR _aIndex$[ebp]
  02dc8	69 c0 a0 00 00
	00		 imul	 eax, 160		; 000000a0H
  02dce	8b 4d f8	 mov	 ecx, DWORD PTR _this$[ebp]
  02dd1	8b 94 01 b0 00
	00 00		 mov	 edx, DWORD PTR [ecx+eax+176]
  02dd8	89 55 d0	 mov	 DWORD PTR _rSend$[ebp+124], edx

; 697  : 	rSend.PartyBonus = this->rUser[aIndex].PartyBonus;

  02ddb	8b 45 08	 mov	 eax, DWORD PTR _aIndex$[ebp]
  02dde	69 c0 a0 00 00
	00		 imul	 eax, 160		; 000000a0H
  02de4	8b 4d f8	 mov	 ecx, DWORD PTR _this$[ebp]
  02de7	8b 94 01 b4 00
	00 00		 mov	 edx, DWORD PTR [ecx+eax+180]
  02dee	89 55 d4	 mov	 DWORD PTR _rSend$[ebp+128], edx

; 698  : 	rSend.IceDamage = this->rUser[aIndex].IceDamage;

  02df1	8b 45 08	 mov	 eax, DWORD PTR _aIndex$[ebp]
  02df4	69 c0 a0 00 00
	00		 imul	 eax, 160		; 000000a0H
  02dfa	8b 4d f8	 mov	 ecx, DWORD PTR _this$[ebp]
  02dfd	8b 94 01 b8 00
	00 00		 mov	 edx, DWORD PTR [ecx+eax+184]
  02e04	89 55 d8	 mov	 DWORD PTR _rSend$[ebp+132], edx

; 699  : 	rSend.DistanceAttack = this->rUser[aIndex].DistanceAttack;

  02e07	8b 45 08	 mov	 eax, DWORD PTR _aIndex$[ebp]
  02e0a	69 c0 a0 00 00
	00		 imul	 eax, 160		; 000000a0H
  02e10	8b 4d f8	 mov	 ecx, DWORD PTR _this$[ebp]
  02e13	8b 94 01 bc 00
	00 00		 mov	 edx, DWORD PTR [ecx+eax+188]
  02e1a	89 55 dc	 mov	 DWORD PTR _rSend$[ebp+136], edx

; 700  : 	rSend.AttackRate = this->rUser[aIndex].AttackRate;

  02e1d	8b 45 08	 mov	 eax, DWORD PTR _aIndex$[ebp]
  02e20	69 c0 a0 00 00
	00		 imul	 eax, 160		; 000000a0H
  02e26	8b 4d f8	 mov	 ecx, DWORD PTR _this$[ebp]
  02e29	8b 94 01 c0 00
	00 00		 mov	 edx, DWORD PTR [ecx+eax+192]
  02e30	89 55 e0	 mov	 DWORD PTR _rSend$[ebp+140], edx

; 701  : 	rSend.WeaponBonus = this->rUser[aIndex].WeaponBonus;

  02e33	8b 45 08	 mov	 eax, DWORD PTR _aIndex$[ebp]
  02e36	69 c0 a0 00 00
	00		 imul	 eax, 160		; 000000a0H
  02e3c	8b 4d f8	 mov	 ecx, DWORD PTR _this$[ebp]
  02e3f	8b 94 01 c4 00
	00 00		 mov	 edx, DWORD PTR [ecx+eax+196]
  02e46	89 55 e4	 mov	 DWORD PTR _rSend$[ebp+144], edx

; 702  : 	rSend.ExellentDamage = this->rUser[aIndex].ExellentDamage;

  02e49	8b 45 08	 mov	 eax, DWORD PTR _aIndex$[ebp]
  02e4c	69 c0 a0 00 00
	00		 imul	 eax, 160		; 000000a0H
  02e52	8b 4d f8	 mov	 ecx, DWORD PTR _this$[ebp]
  02e55	8b 94 01 c8 00
	00 00		 mov	 edx, DWORD PTR [ecx+eax+200]
  02e5c	89 55 e8	 mov	 DWORD PTR _rSend$[ebp+148], edx

; 703  : 	rSend.CriticalDamage = this->rUser[aIndex].CriticalDamage;

  02e5f	8b 45 08	 mov	 eax, DWORD PTR _aIndex$[ebp]
  02e62	69 c0 a0 00 00
	00		 imul	 eax, 160		; 000000a0H
  02e68	8b 4d f8	 mov	 ecx, DWORD PTR _this$[ebp]
  02e6b	8b 94 01 cc 00
	00 00		 mov	 edx, DWORD PTR [ecx+eax+204]
  02e72	89 55 ec	 mov	 DWORD PTR _rSend$[ebp+152], edx

; 704  : 
; 705  : 	rSend.NextExp = this->NextExp * this->rUser[aIndex].rLevel;

  02e75	8b 45 08	 mov	 eax, DWORD PTR _aIndex$[ebp]
  02e78	69 c0 a0 00 00
	00		 imul	 eax, 160		; 000000a0H
  02e7e	8b 4d f8	 mov	 ecx, DWORD PTR _this$[ebp]
  02e81	8b 55 f8	 mov	 edx, DWORD PTR _this$[ebp]
  02e84	8b 49 20	 mov	 ecx, DWORD PTR [ecx+32]
  02e87	0f af 4c 02 34	 imul	 ecx, DWORD PTR [edx+eax+52]
  02e8c	89 4d f0	 mov	 DWORD PTR _rSend$[ebp+156], ecx

; 706  : 
; 707  : 	DataSend(aIndex,(LPBYTE)&rSend,sizeof(rSend));

  02e8f	68 a0 00 00 00	 push	 160			; 000000a0H
  02e94	8d 85 54 ff ff
	ff		 lea	 eax, DWORD PTR _rSend$[ebp]
  02e9a	50		 push	 eax
  02e9b	8b 4d 08	 mov	 ecx, DWORD PTR _aIndex$[ebp]
  02e9e	51		 push	 ecx
  02e9f	e8 00 00 00 00	 call	 ?DataSend@@YAHHPAEK@Z	; DataSend
  02ea4	83 c4 0c	 add	 esp, 12			; 0000000cH

; 708  : }

  02ea7	5f		 pop	 edi
  02ea8	5e		 pop	 esi
  02ea9	5b		 pop	 ebx
  02eaa	8b 4d fc	 mov	 ecx, DWORD PTR __$ArrayPad$[ebp]
  02ead	33 cd		 xor	 ecx, ebp
  02eaf	e8 00 00 00 00	 call	 @__security_check_cookie@4
  02eb4	8b e5		 mov	 esp, ebp
  02eb6	5d		 pop	 ebp
  02eb7	c2 04 00	 ret	 4
?SendUser@cSystemOfRage@@QAEXH@Z ENDP			; cSystemOfRage::SendUser
_TEXT	ENDS
PUBLIC	??_C@_0P@HAENLNCN@Rage?5Level?3?5?$CFd?$AA@	; `string'
PUBLIC	?RageExpFunction@cSystemOfRage@@QAEXPAUOBJECTSTRUCT@@0@Z ; cSystemOfRage::RageExpFunction
EXTRN	?CheckLevels@cBMQuest@@QAEXH@Z:PROC		; cBMQuest::CheckLevels
EXTRN	?BMQuest@@3VcBMQuest@@A:BYTE			; BMQuest
EXTRN	?MsgNormal@@YAXHPADZZ:PROC			; MsgNormal
;	COMDAT ??_C@_0P@HAENLNCN@Rage?5Level?3?5?$CFd?$AA@
CONST	SEGMENT
??_C@_0P@HAENLNCN@Rage?5Level?3?5?$CFd?$AA@ DB 'Rage Level: %d', 00H ; `string'
; Function compile flags: /Odtp /ZI
CONST	ENDS
_TEXT	SEGMENT
_tExp$ = -12						; size = 4
_aIndex$ = -8						; size = 4
_this$ = -4						; size = 4
_lpObj$ = 8						; size = 4
_TargetObj$ = 12					; size = 4
?RageExpFunction@cSystemOfRage@@QAEXPAUOBJECTSTRUCT@@0@Z PROC ; cSystemOfRage::RageExpFunction
; _this$ = ecx

; 711  : {

  02ec0	55		 push	 ebp
  02ec1	8b ec		 mov	 ebp, esp
  02ec3	83 ec 4c	 sub	 esp, 76			; 0000004cH
  02ec6	53		 push	 ebx
  02ec7	56		 push	 esi
  02ec8	57		 push	 edi
  02ec9	89 4d fc	 mov	 DWORD PTR _this$[ebp], ecx

; 712  : 	int aIndex = lpObj->m_Index;

  02ecc	8b 45 08	 mov	 eax, DWORD PTR _lpObj$[ebp]
  02ecf	8b 08		 mov	 ecx, DWORD PTR [eax]
  02ed1	89 4d f8	 mov	 DWORD PTR _aIndex$[ebp], ecx

; 713  : 	if(!this->Enable)

  02ed4	8b 45 fc	 mov	 eax, DWORD PTR _this$[ebp]
  02ed7	0f b6 08	 movzx	 ecx, BYTE PTR [eax]
  02eda	85 c9		 test	 ecx, ecx
  02edc	75 05		 jne	 SHORT $LN5@RageExpFun

; 714  : 	{
; 715  : 		return;

  02ede	e9 37 01 00 00	 jmp	 $LN6@RageExpFun
$LN5@RageExpFun:

; 716  : 	}
; 717  : 
; 718  : 	if(this->rUser[aIndex].rLevel >= this->MaxLevel)

  02ee3	8b 45 f8	 mov	 eax, DWORD PTR _aIndex$[ebp]
  02ee6	69 c0 a0 00 00
	00		 imul	 eax, 160		; 000000a0H
  02eec	8b 4d fc	 mov	 ecx, DWORD PTR _this$[ebp]
  02eef	8b 55 fc	 mov	 edx, DWORD PTR _this$[ebp]
  02ef2	8b 44 01 34	 mov	 eax, DWORD PTR [ecx+eax+52]
  02ef6	3b 42 04	 cmp	 eax, DWORD PTR [edx+4]
  02ef9	7c 05		 jl	 SHORT $LN4@RageExpFun

; 719  : 	{
; 720  : 		return;

  02efb	e9 1a 01 00 00	 jmp	 $LN6@RageExpFun
$LN4@RageExpFun:

; 721  : 	}
; 722  : 
; 723  : 	if(this->NeedLevel > lpObj->Level || this->NeedMasterLevel > lpObj->MLevel)

  02f00	8b 45 08	 mov	 eax, DWORD PTR _lpObj$[ebp]
  02f03	0f bf 88 be 00
	00 00		 movsx	 ecx, WORD PTR [eax+190]
  02f0a	8b 55 fc	 mov	 edx, DWORD PTR _this$[ebp]
  02f0d	39 4a 28	 cmp	 DWORD PTR [edx+40], ecx
  02f10	7f 12		 jg	 SHORT $LN2@RageExpFun
  02f12	8b 45 08	 mov	 eax, DWORD PTR _lpObj$[ebp]
  02f15	0f bf 88 d0 00
	00 00		 movsx	 ecx, WORD PTR [eax+208]
  02f1c	8b 55 fc	 mov	 edx, DWORD PTR _this$[ebp]
  02f1f	39 4a 2c	 cmp	 DWORD PTR [edx+44], ecx
  02f22	7e 05		 jle	 SHORT $LN3@RageExpFun
$LN2@RageExpFun:

; 724  : 	{
; 725  : 		return;

  02f24	e9 f1 00 00 00	 jmp	 $LN6@RageExpFun
$LN3@RageExpFun:

; 726  : 	}
; 727  : 
; 728  : 	int tExp = TargetObj->Level * this->AddExp;

  02f29	8b 45 0c	 mov	 eax, DWORD PTR _TargetObj$[ebp]
  02f2c	0f bf 88 be 00
	00 00		 movsx	 ecx, WORD PTR [eax+190]
  02f33	8b 55 fc	 mov	 edx, DWORD PTR _this$[ebp]
  02f36	0f af 4a 08	 imul	 ecx, DWORD PTR [edx+8]
  02f3a	89 4d f4	 mov	 DWORD PTR _tExp$[ebp], ecx

; 729  : 	//MsgNormal(aIndex,"Rage Exp: %d Obtainded",tExp);
; 730  : 	this->rUser[aIndex].rExperience += tExp;

  02f3d	8b 45 f8	 mov	 eax, DWORD PTR _aIndex$[ebp]
  02f40	69 c0 a0 00 00
	00		 imul	 eax, 160		; 000000a0H
  02f46	8b 4d fc	 mov	 ecx, DWORD PTR _this$[ebp]
  02f49	8b 54 01 3c	 mov	 edx, DWORD PTR [ecx+eax+60]
  02f4d	03 55 f4	 add	 edx, DWORD PTR _tExp$[ebp]
  02f50	8b 45 f8	 mov	 eax, DWORD PTR _aIndex$[ebp]
  02f53	69 c0 a0 00 00
	00		 imul	 eax, 160		; 000000a0H
  02f59	8b 4d fc	 mov	 ecx, DWORD PTR _this$[ebp]
  02f5c	89 54 01 3c	 mov	 DWORD PTR [ecx+eax+60], edx

; 731  : 	if(this->rUser[aIndex].rExperience > (this->NextExp * this->rUser[aIndex].rLevel))

  02f60	8b 45 f8	 mov	 eax, DWORD PTR _aIndex$[ebp]
  02f63	69 c0 a0 00 00
	00		 imul	 eax, 160		; 000000a0H
  02f69	8b 4d f8	 mov	 ecx, DWORD PTR _aIndex$[ebp]
  02f6c	69 c9 a0 00 00
	00		 imul	 ecx, 160		; 000000a0H
  02f72	8b 55 fc	 mov	 edx, DWORD PTR _this$[ebp]
  02f75	8b 75 fc	 mov	 esi, DWORD PTR _this$[ebp]
  02f78	8b 52 20	 mov	 edx, DWORD PTR [edx+32]
  02f7b	0f af 54 0e 34	 imul	 edx, DWORD PTR [esi+ecx+52]
  02f80	8b 4d fc	 mov	 ecx, DWORD PTR _this$[ebp]
  02f83	39 54 01 3c	 cmp	 DWORD PTR [ecx+eax+60], edx
  02f87	0f 8e 8d 00 00
	00		 jle	 $LN6@RageExpFun

; 732  : 	{
; 733  : 		this->rUser[aIndex].rLevel++;

  02f8d	8b 45 f8	 mov	 eax, DWORD PTR _aIndex$[ebp]
  02f90	69 c0 a0 00 00
	00		 imul	 eax, 160		; 000000a0H
  02f96	8b 4d fc	 mov	 ecx, DWORD PTR _this$[ebp]
  02f99	8b 54 01 34	 mov	 edx, DWORD PTR [ecx+eax+52]
  02f9d	83 c2 01	 add	 edx, 1
  02fa0	8b 45 f8	 mov	 eax, DWORD PTR _aIndex$[ebp]
  02fa3	69 c0 a0 00 00
	00		 imul	 eax, 160		; 000000a0H
  02fa9	8b 4d fc	 mov	 ecx, DWORD PTR _this$[ebp]
  02fac	89 54 01 34	 mov	 DWORD PTR [ecx+eax+52], edx

; 734  : 		this->rUser[aIndex].rPoints += this->rPointLvl;

  02fb0	8b 45 f8	 mov	 eax, DWORD PTR _aIndex$[ebp]
  02fb3	69 c0 a0 00 00
	00		 imul	 eax, 160		; 000000a0H
  02fb9	8b 4d fc	 mov	 ecx, DWORD PTR _this$[ebp]
  02fbc	8b 54 01 38	 mov	 edx, DWORD PTR [ecx+eax+56]
  02fc0	8b 45 fc	 mov	 eax, DWORD PTR _this$[ebp]
  02fc3	03 50 1c	 add	 edx, DWORD PTR [eax+28]
  02fc6	8b 4d f8	 mov	 ecx, DWORD PTR _aIndex$[ebp]
  02fc9	69 c9 a0 00 00
	00		 imul	 ecx, 160		; 000000a0H
  02fcf	8b 45 fc	 mov	 eax, DWORD PTR _this$[ebp]
  02fd2	89 54 08 38	 mov	 DWORD PTR [eax+ecx+56], edx

; 735  : 		this->rUser[aIndex].rExperience = 0;

  02fd6	8b 45 f8	 mov	 eax, DWORD PTR _aIndex$[ebp]
  02fd9	69 c0 a0 00 00
	00		 imul	 eax, 160		; 000000a0H
  02fdf	8b 4d fc	 mov	 ecx, DWORD PTR _this$[ebp]
  02fe2	c7 44 01 3c 00
	00 00 00	 mov	 DWORD PTR [ecx+eax+60], 0

; 736  : 		MsgNormal(aIndex,"Rage Level: %d",this->rUser[aIndex].rLevel);

  02fea	8b 45 f8	 mov	 eax, DWORD PTR _aIndex$[ebp]
  02fed	69 c0 a0 00 00
	00		 imul	 eax, 160		; 000000a0H
  02ff3	8b 4d fc	 mov	 ecx, DWORD PTR _this$[ebp]
  02ff6	8b 54 01 34	 mov	 edx, DWORD PTR [ecx+eax+52]
  02ffa	52		 push	 edx
  02ffb	68 00 00 00 00	 push	 OFFSET ??_C@_0P@HAENLNCN@Rage?5Level?3?5?$CFd?$AA@
  03000	8b 45 f8	 mov	 eax, DWORD PTR _aIndex$[ebp]
  03003	50		 push	 eax
  03004	e8 00 00 00 00	 call	 ?MsgNormal@@YAXHPADZZ	; MsgNormal
  03009	83 c4 0c	 add	 esp, 12			; 0000000cH

; 737  : 
; 738  : 		BMQuest.CheckLevels(aIndex);

  0300c	8b 45 f8	 mov	 eax, DWORD PTR _aIndex$[ebp]
  0300f	50		 push	 eax
  03010	b9 00 00 00 00	 mov	 ecx, OFFSET ?BMQuest@@3VcBMQuest@@A ; BMQuest
  03015	e8 00 00 00 00	 call	 ?CheckLevels@cBMQuest@@QAEXH@Z ; cBMQuest::CheckLevels
$LN6@RageExpFun:

; 739  : 	}
; 740  : 
; 741  : 	//RageExpSend rSend;
; 742  : 	//rSend.h.set((LPBYTE)&rSend, 0xFB, 3, sizeof(rSend));
; 743  : 	//rSend.Level = this->rUser[aIndex].rLevel;
; 744  : 	//rSend.Point = this->rUser[aIndex].rPoints;
; 745  : 	//rSend.Exp = this->rUser[aIndex].rExperience;
; 746  : 	//rSend.NextExp = (this->NextExp * this->rUser[aIndex].rLevel);
; 747  : 	//
; 748  : 	//DataSend(aIndex,(LPBYTE)&rSend,sizeof(rSend));
; 749  : }

  0301a	5f		 pop	 edi
  0301b	5e		 pop	 esi
  0301c	5b		 pop	 ebx
  0301d	8b e5		 mov	 esp, ebp
  0301f	5d		 pop	 ebp
  03020	c2 08 00	 ret	 8
?RageExpFunction@cSystemOfRage@@QAEXPAUOBJECTSTRUCT@@0@Z ENDP ; cSystemOfRage::RageExpFunction
_TEXT	ENDS
PUBLIC	?EvoRageReset@cSystemOfRage@@QAEXH@Z		; cSystemOfRage::EvoRageReset
PUBLIC	?RecvActiveSkill@cSystemOfRage@@QAEXPAUsRageTabSend@@H@Z ; cSystemOfRage::RecvActiveSkill
EXTRN	?CheckUser@CExLicense@@QAE_NH@Z:PROC		; CExLicense::CheckUser
; Function compile flags: /Odtp /ZI
_TEXT	SEGMENT
_this$ = -4						; size = 4
_aRecv$ = 8						; size = 4
_aIndex$ = 12						; size = 4
?RecvActiveSkill@cSystemOfRage@@QAEXPAUsRageTabSend@@H@Z PROC ; cSystemOfRage::RecvActiveSkill
; _this$ = ecx

; 752  : {

  03030	55		 push	 ebp
  03031	8b ec		 mov	 ebp, esp
  03033	83 ec 44	 sub	 esp, 68			; 00000044H
  03036	53		 push	 ebx
  03037	56		 push	 esi
  03038	57		 push	 edi
  03039	89 4d fc	 mov	 DWORD PTR _this$[ebp], ecx

; 753  : 	if(aRecv->Num == eSkill8 && this->rUser[aIndex].Teleport > 0)	//Teleport

  0303c	8b 45 08	 mov	 eax, DWORD PTR _aRecv$[ebp]
  0303f	83 78 04 08	 cmp	 DWORD PTR [eax+4], 8
  03043	75 21		 jne	 SHORT $LN6@RecvActive
  03045	8b 45 0c	 mov	 eax, DWORD PTR _aIndex$[ebp]
  03048	69 c0 a0 00 00
	00		 imul	 eax, 160		; 000000a0H
  0304e	8b 4d fc	 mov	 ecx, DWORD PTR _this$[ebp]
  03051	83 7c 01 60 00	 cmp	 DWORD PTR [ecx+eax+96], 0
  03056	7e 0e		 jle	 SHORT $LN6@RecvActive

; 754  : 	{
; 755  : 		this->TeleportSkill(aIndex);

  03058	8b 45 0c	 mov	 eax, DWORD PTR _aIndex$[ebp]
  0305b	50		 push	 eax
  0305c	8b 4d fc	 mov	 ecx, DWORD PTR _this$[ebp]
  0305f	e8 00 00 00 00	 call	 ?TeleportSkill@cSystemOfRage@@QAEXH@Z ; cSystemOfRage::TeleportSkill
  03064	eb 28		 jmp	 SHORT $LN5@RecvActive
$LN6@RecvActive:

; 756  : 	}
; 757  : 	else if(aRecv->Num == eSkill3 && this->rUser[aIndex].SummonPet > 0)

  03066	8b 45 08	 mov	 eax, DWORD PTR _aRecv$[ebp]
  03069	83 78 04 03	 cmp	 DWORD PTR [eax+4], 3
  0306d	75 1f		 jne	 SHORT $LN5@RecvActive
  0306f	8b 45 0c	 mov	 eax, DWORD PTR _aIndex$[ebp]
  03072	69 c0 a0 00 00
	00		 imul	 eax, 160		; 000000a0H
  03078	8b 4d fc	 mov	 ecx, DWORD PTR _this$[ebp]
  0307b	83 7c 01 4c 00	 cmp	 DWORD PTR [ecx+eax+76], 0
  03080	7e 0c		 jle	 SHORT $LN5@RecvActive

; 758  : 	{
; 759  : 		this->SummonPetSkill(aIndex);

  03082	8b 45 0c	 mov	 eax, DWORD PTR _aIndex$[ebp]
  03085	50		 push	 eax
  03086	8b 4d fc	 mov	 ecx, DWORD PTR _this$[ebp]
  03089	e8 00 00 00 00	 call	 ?SummonPetSkill@cSystemOfRage@@QAEXH@Z ; cSystemOfRage::SummonPetSkill
$LN5@RecvActive:

; 760  : 	}
; 761  : 
; 762  : 	if( g_ExLicense.CheckUser(eExUB::Gredy) || g_ExLicense.CheckUser(eExUB::Gredy2) || g_ExLicense.CheckUser(eExUB::GredyLocal) )

  0308e	6a 20		 push	 32			; 00000020H
  03090	b9 00 00 00 00	 mov	 ecx, OFFSET ?g_ExLicense@@3VCExLicense@@A ; g_ExLicense
  03095	e8 00 00 00 00	 call	 ?CheckUser@CExLicense@@QAE_NH@Z ; CExLicense::CheckUser
  0309a	0f b6 c0	 movzx	 eax, al
  0309d	85 c0		 test	 eax, eax
  0309f	75 26		 jne	 SHORT $LN2@RecvActive
  030a1	6a 22		 push	 34			; 00000022H
  030a3	b9 00 00 00 00	 mov	 ecx, OFFSET ?g_ExLicense@@3VCExLicense@@A ; g_ExLicense
  030a8	e8 00 00 00 00	 call	 ?CheckUser@CExLicense@@QAE_NH@Z ; CExLicense::CheckUser
  030ad	0f b6 c0	 movzx	 eax, al
  030b0	85 c0		 test	 eax, eax
  030b2	75 13		 jne	 SHORT $LN2@RecvActive
  030b4	6a 21		 push	 33			; 00000021H
  030b6	b9 00 00 00 00	 mov	 ecx, OFFSET ?g_ExLicense@@3VCExLicense@@A ; g_ExLicense
  030bb	e8 00 00 00 00	 call	 ?CheckUser@CExLicense@@QAE_NH@Z ; CExLicense::CheckUser
  030c0	0f b6 c0	 movzx	 eax, al
  030c3	85 c0		 test	 eax, eax
  030c5	74 15		 je	 SHORT $LN7@RecvActive
$LN2@RecvActive:

; 763  : 	{
; 764  : 		if(aRecv->Num == eSkillReset)

  030c7	8b 45 08	 mov	 eax, DWORD PTR _aRecv$[ebp]
  030ca	83 78 04 24	 cmp	 DWORD PTR [eax+4], 36	; 00000024H
  030ce	75 0c		 jne	 SHORT $LN7@RecvActive

; 765  : 		{
; 766  : 			this->EvoRageReset(aIndex);

  030d0	8b 45 0c	 mov	 eax, DWORD PTR _aIndex$[ebp]
  030d3	50		 push	 eax
  030d4	8b 4d fc	 mov	 ecx, DWORD PTR _this$[ebp]
  030d7	e8 00 00 00 00	 call	 ?EvoRageReset@cSystemOfRage@@QAEXH@Z ; cSystemOfRage::EvoRageReset
$LN7@RecvActive:

; 767  : 		}
; 768  : 	}
; 769  : }

  030dc	5f		 pop	 edi
  030dd	5e		 pop	 esi
  030de	5b		 pop	 ebx
  030df	8b e5		 mov	 esp, ebp
  030e1	5d		 pop	 ebp
  030e2	c2 08 00	 ret	 8
?RecvActiveSkill@cSystemOfRage@@QAEXPAUsRageTabSend@@H@Z ENDP ; cSystemOfRage::RecvActiveSkill
_TEXT	ENDS
PUBLIC	__$ArrayPad$
PUBLIC	?ConfigSend@cSystemOfRage@@QAEXH@Z		; cSystemOfRage::ConfigSend
; Function compile flags: /Odtp /ZI
_TEXT	SEGMENT
_rSend$221934 = -60					; size = 48
_i$221930 = -12						; size = 4
_this$ = -8						; size = 4
__$ArrayPad$ = -4					; size = 4
_aIndex$ = 8						; size = 4
?ConfigSend@cSystemOfRage@@QAEXH@Z PROC			; cSystemOfRage::ConfigSend
; _this$ = ecx

; 772  : {

  030f0	55		 push	 ebp
  030f1	8b ec		 mov	 ebp, esp
  030f3	83 ec 7c	 sub	 esp, 124		; 0000007cH
  030f6	a1 00 00 00 00	 mov	 eax, DWORD PTR ___security_cookie
  030fb	33 c5		 xor	 eax, ebp
  030fd	89 45 fc	 mov	 DWORD PTR __$ArrayPad$[ebp], eax
  03100	53		 push	 ebx
  03101	56		 push	 esi
  03102	57		 push	 edi
  03103	89 4d f8	 mov	 DWORD PTR _this$[ebp], ecx

; 773  : 	for(int i=1;i<R_MAX_SKILL;i++)

  03106	c7 45 f4 01 00
	00 00		 mov	 DWORD PTR _i$221930[ebp], 1
  0310d	eb 09		 jmp	 SHORT $LN3@ConfigSend
$LN2@ConfigSend:
  0310f	8b 45 f4	 mov	 eax, DWORD PTR _i$221930[ebp]
  03112	83 c0 01	 add	 eax, 1
  03115	89 45 f4	 mov	 DWORD PTR _i$221930[ebp], eax
$LN3@ConfigSend:
  03118	83 7d f4 24	 cmp	 DWORD PTR _i$221930[ebp], 36 ; 00000024H
  0311c	0f 8d 9b 00 00
	00		 jge	 $LN4@ConfigSend

; 774  : 	{
; 775  : 		sConfigStruct rSend;
; 776  : 		rSend.h.set((LPBYTE)&rSend, 0xFB, 0x00, sizeof(rSend));

  03122	6a 30		 push	 48			; 00000030H
  03124	6a 00		 push	 0
  03126	68 fb 00 00 00	 push	 251			; 000000fbH
  0312b	8d 45 c4	 lea	 eax, DWORD PTR _rSend$221934[ebp]
  0312e	50		 push	 eax
  0312f	8d 4d c4	 lea	 ecx, DWORD PTR _rSend$221934[ebp]
  03132	e8 00 00 00 00	 call	 ?set@PBMSG_HEAD2@@QAEXPAEEEE@Z ; PBMSG_HEAD2::set

; 777  : 		rSend.SkillID = i;

  03137	8a 45 f4	 mov	 al, BYTE PTR _i$221930[ebp]
  0313a	88 45 c8	 mov	 BYTE PTR _rSend$221934[ebp+4], al

; 778  : 		strcpy(rSend.Name,this->rSkill[i].Name);

  0313d	8b 45 f4	 mov	 eax, DWORD PTR _i$221930[ebp]
  03140	6b c0 44	 imul	 eax, 68			; 00000044H
  03143	8b 4d f8	 mov	 ecx, DWORD PTR _this$[ebp]
  03146	8d 94 01 30 9f
	24 00		 lea	 edx, DWORD PTR [ecx+eax+2400048]
  0314d	52		 push	 edx
  0314e	8d 45 c9	 lea	 eax, DWORD PTR _rSend$221934[ebp+5]
  03151	50		 push	 eax
  03152	e8 00 00 00 00	 call	 _strcpy
  03157	83 c4 08	 add	 esp, 8

; 779  : 		rSend.Damage = this->rSkill[i].StartDamage;

  0315a	8b 45 f4	 mov	 eax, DWORD PTR _i$221930[ebp]
  0315d	6b c0 44	 imul	 eax, 68			; 00000044H
  03160	8b 4d f8	 mov	 ecx, DWORD PTR _this$[ebp]
  03163	8b 94 01 64 9f
	24 00		 mov	 edx, DWORD PTR [ecx+eax+2400100]
  0316a	89 55 e4	 mov	 DWORD PTR _rSend$221934[ebp+32], edx

; 780  : 		rSend.MaxPoint = this->rSkill[i].MaxPoint;

  0316d	8b 45 f4	 mov	 eax, DWORD PTR _i$221930[ebp]
  03170	6b c0 44	 imul	 eax, 68			; 00000044H
  03173	8b 4d f8	 mov	 ecx, DWORD PTR _this$[ebp]
  03176	8b 94 01 68 9f
	24 00		 mov	 edx, DWORD PTR [ecx+eax+2400104]
  0317d	89 55 e8	 mov	 DWORD PTR _rSend$221934[ebp+36], edx

; 781  : 		rSend.PointNext = this->rSkill[i].PointNext;

  03180	8b 45 f4	 mov	 eax, DWORD PTR _i$221930[ebp]
  03183	6b c0 44	 imul	 eax, 68			; 00000044H
  03186	8b 4d f8	 mov	 ecx, DWORD PTR _this$[ebp]
  03189	8b 94 01 70 9f
	24 00		 mov	 edx, DWORD PTR [ecx+eax+2400112]
  03190	89 55 ec	 mov	 DWORD PTR _rSend$221934[ebp+40], edx

; 782  : 		rSend.Percent = this->rSkill[i].Percent;

  03193	8b 45 f4	 mov	 eax, DWORD PTR _i$221930[ebp]
  03196	6b c0 44	 imul	 eax, 68			; 00000044H
  03199	8b 4d f8	 mov	 ecx, DWORD PTR _this$[ebp]
  0319c	8a 94 01 6c 9f
	24 00		 mov	 dl, BYTE PTR [ecx+eax+2400108]
  031a3	88 55 f0	 mov	 BYTE PTR _rSend$221934[ebp+44], dl

; 783  : 		DataSend(aIndex,(LPBYTE)&rSend,sizeof(rSend));

  031a6	6a 30		 push	 48			; 00000030H
  031a8	8d 45 c4	 lea	 eax, DWORD PTR _rSend$221934[ebp]
  031ab	50		 push	 eax
  031ac	8b 4d 08	 mov	 ecx, DWORD PTR _aIndex$[ebp]
  031af	51		 push	 ecx
  031b0	e8 00 00 00 00	 call	 ?DataSend@@YAHHPAEK@Z	; DataSend
  031b5	83 c4 0c	 add	 esp, 12			; 0000000cH

; 784  : 	}

  031b8	e9 52 ff ff ff	 jmp	 $LN2@ConfigSend
$LN4@ConfigSend:

; 785  : }

  031bd	5f		 pop	 edi
  031be	5e		 pop	 esi
  031bf	5b		 pop	 ebx
  031c0	8b 4d fc	 mov	 ecx, DWORD PTR __$ArrayPad$[ebp]
  031c3	33 cd		 xor	 ecx, ebp
  031c5	e8 00 00 00 00	 call	 @__security_check_cookie@4
  031ca	8b e5		 mov	 esp, ebp
  031cc	5d		 pop	 ebp
  031cd	c2 04 00	 ret	 4
?ConfigSend@cSystemOfRage@@QAEXH@Z ENDP			; cSystemOfRage::ConfigSend
_TEXT	ENDS
PUBLIC	__$ArrayPad$
PUBLIC	?SendDataServer@cSystemOfRage@@QAEXHPAD@Z	; cSystemOfRage::SendDataServer
EXTRN	?Send@DBSockMng@@QAEHPADH@Z:PROC		; DBSockMng::Send
EXTRN	?cDBSMng@@3VDBSockMng@@A:BYTE			; cDBSMng
EXTRN	_strncpy:PROC
; Function compile flags: /Odtp /ZI
_TEXT	SEGMENT
_pInfo$ = -28						; size = 20
_this$ = -8						; size = 4
__$ArrayPad$ = -4					; size = 4
_aIndex$ = 8						; size = 4
_NAme$ = 12						; size = 4
?SendDataServer@cSystemOfRage@@QAEXHPAD@Z PROC		; cSystemOfRage::SendDataServer
; _this$ = ecx

; 788  : {

  031d0	55		 push	 ebp
  031d1	8b ec		 mov	 ebp, esp
  031d3	83 ec 5c	 sub	 esp, 92			; 0000005cH
  031d6	a1 00 00 00 00	 mov	 eax, DWORD PTR ___security_cookie
  031db	33 c5		 xor	 eax, ebp
  031dd	89 45 fc	 mov	 DWORD PTR __$ArrayPad$[ebp], eax
  031e0	53		 push	 ebx
  031e1	56		 push	 esi
  031e2	57		 push	 edi
  031e3	89 4d f8	 mov	 DWORD PTR _this$[ebp], ecx

; 789  : 	DSQuerySend pInfo;
; 790  : 
; 791  : 	pInfo.h.c =0xC1;

  031e6	c6 45 e4 c1	 mov	 BYTE PTR _pInfo$[ebp], 193 ; 000000c1H

; 792  : 	pInfo.h.size = sizeof(DSQuerySend);

  031ea	c6 45 e5 14	 mov	 BYTE PTR _pInfo$[ebp+1], 20 ; 00000014H

; 793  : 	pInfo.h.headcode =0xE0;

  031ee	c6 45 e6 e0	 mov	 BYTE PTR _pInfo$[ebp+2], 224 ; 000000e0H

; 794  : 	pInfo.aIndex = aIndex;

  031f2	8b 45 08	 mov	 eax, DWORD PTR _aIndex$[ebp]
  031f5	89 45 e8	 mov	 DWORD PTR _pInfo$[ebp+4], eax

; 795  : 	//strncpy(pInfo.Accaunt,gObj[aIndex].AccountID,10);
; 796  : 	strncpy(pInfo.Name,NAme,10);

  031f8	6a 0a		 push	 10			; 0000000aH
  031fa	8b 45 0c	 mov	 eax, DWORD PTR _NAme$[ebp]
  031fd	50		 push	 eax
  031fe	8d 4d ec	 lea	 ecx, DWORD PTR _pInfo$[ebp+8]
  03201	51		 push	 ecx
  03202	e8 00 00 00 00	 call	 _strncpy
  03207	83 c4 0c	 add	 esp, 12			; 0000000cH

; 797  : 
; 798  : 	cDBSMng.Send((char*)&pInfo, pInfo.h.size);

  0320a	0f b6 45 e5	 movzx	 eax, BYTE PTR _pInfo$[ebp+1]
  0320e	50		 push	 eax
  0320f	8d 4d e4	 lea	 ecx, DWORD PTR _pInfo$[ebp]
  03212	51		 push	 ecx
  03213	b9 00 00 00 00	 mov	 ecx, OFFSET ?cDBSMng@@3VDBSockMng@@A ; cDBSMng
  03218	e8 00 00 00 00	 call	 ?Send@DBSockMng@@QAEHPADH@Z ; DBSockMng::Send

; 799  : }

  0321d	5f		 pop	 edi
  0321e	5e		 pop	 esi
  0321f	5b		 pop	 ebx
  03220	8b 4d fc	 mov	 ecx, DWORD PTR __$ArrayPad$[ebp]
  03223	33 cd		 xor	 ecx, ebp
  03225	e8 00 00 00 00	 call	 @__security_check_cookie@4
  0322a	8b e5		 mov	 esp, ebp
  0322c	5d		 pop	 ebp
  0322d	c2 08 00	 ret	 8
?SendDataServer@cSystemOfRage@@QAEXHPAD@Z ENDP		; cSystemOfRage::SendDataServer
_TEXT	ENDS
PUBLIC	?RageConnect@cSystemOfRage@@QAEXH@Z		; cSystemOfRage::RageConnect
; Function compile flags: /Odtp /ZI
_TEXT	SEGMENT
_lpObj$ = -8						; size = 4
_this$ = -4						; size = 4
_aIndex$ = 8						; size = 4
?RageConnect@cSystemOfRage@@QAEXH@Z PROC		; cSystemOfRage::RageConnect
; _this$ = ecx

; 802  : {

  03230	55		 push	 ebp
  03231	8b ec		 mov	 ebp, esp
  03233	83 ec 48	 sub	 esp, 72			; 00000048H
  03236	53		 push	 ebx
  03237	56		 push	 esi
  03238	57		 push	 edi
  03239	89 4d fc	 mov	 DWORD PTR _this$[ebp], ecx

; 803  : 	LPOBJ lpObj = &gObj[aIndex];

  0323c	8b 45 08	 mov	 eax, DWORD PTR _aIndex$[ebp]
  0323f	69 c0 38 2b 00
	00		 imul	 eax, 11064		; 00002b38H
  03245	03 05 00 00 00
	00		 add	 eax, DWORD PTR ?gObj@@3PAUOBJECTSTRUCT@@A ; gObj
  0324b	89 45 f8	 mov	 DWORD PTR _lpObj$[ebp], eax

; 804  : 	this->SendDataServer(aIndex, lpObj->Name);

  0324e	8b 45 f8	 mov	 eax, DWORD PTR _lpObj$[ebp]
  03251	83 c0 77	 add	 eax, 119		; 00000077H
  03254	50		 push	 eax
  03255	8b 4d 08	 mov	 ecx, DWORD PTR _aIndex$[ebp]
  03258	51		 push	 ecx
  03259	8b 4d fc	 mov	 ecx, DWORD PTR _this$[ebp]
  0325c	e8 00 00 00 00	 call	 ?SendDataServer@cSystemOfRage@@QAEXHPAD@Z ; cSystemOfRage::SendDataServer

; 805  : }

  03261	5f		 pop	 edi
  03262	5e		 pop	 esi
  03263	5b		 pop	 ebx
  03264	8b e5		 mov	 esp, ebp
  03266	5d		 pop	 ebp
  03267	c2 04 00	 ret	 4
?RageConnect@cSystemOfRage@@QAEXH@Z ENDP		; cSystemOfRage::RageConnect
_TEXT	ENDS
PUBLIC	?NewDBLoad@cSystemOfRage@@QAEXHPAE@Z		; cSystemOfRage::NewDBLoad
PUBLIC	?RecvDSProtocol@cSystemOfRage@@QAEXPAUDSRageUser@@@Z ; cSystemOfRage::RecvDSProtocol
; Function compile flags: /Odtp /ZI
_TEXT	SEGMENT
_this$ = -4						; size = 4
_aRecv$ = 8						; size = 4
?RecvDSProtocol@cSystemOfRage@@QAEXPAUDSRageUser@@@Z PROC ; cSystemOfRage::RecvDSProtocol
; _this$ = ecx

; 808  : {

  03270	55		 push	 ebp
  03271	8b ec		 mov	 ebp, esp
  03273	83 ec 44	 sub	 esp, 68			; 00000044H
  03276	53		 push	 ebx
  03277	56		 push	 esi
  03278	57		 push	 edi
  03279	89 4d fc	 mov	 DWORD PTR _this$[ebp], ecx

; 809  : 
; 810  : 	if(g_ExLicense.user.Rage)

  0327c	0f b6 05 c9 00
	00 00		 movzx	 eax, BYTE PTR ?g_ExLicense@@3VCExLicense@@A+201
  03283	85 c0		 test	 eax, eax
  03285	74 18		 je	 SHORT $LN2@RecvDSProt

; 811  : 	{
; 812  : 		gSystemOfRage.NewDBLoad(aRecv->aIndex, aRecv->RageSystem);

  03287	8b 45 08	 mov	 eax, DWORD PTR _aRecv$[ebp]
  0328a	83 c0 14	 add	 eax, 20			; 00000014H
  0328d	50		 push	 eax
  0328e	8b 4d 08	 mov	 ecx, DWORD PTR _aRecv$[ebp]
  03291	8b 51 04	 mov	 edx, DWORD PTR [ecx+4]
  03294	52		 push	 edx
  03295	b9 00 00 00 00	 mov	 ecx, OFFSET ?gSystemOfRage@@3VcSystemOfRage@@A ; gSystemOfRage
  0329a	e8 00 00 00 00	 call	 ?NewDBLoad@cSystemOfRage@@QAEXHPAE@Z ; cSystemOfRage::NewDBLoad
$LN2@RecvDSProt:

; 813  : 	}
; 814  : 	return;
; 815  : }

  0329f	5f		 pop	 edi
  032a0	5e		 pop	 esi
  032a1	5b		 pop	 ebx
  032a2	8b e5		 mov	 esp, ebp
  032a4	5d		 pop	 ebp
  032a5	c2 04 00	 ret	 4
?RecvDSProtocol@cSystemOfRage@@QAEXPAUDSRageUser@@@Z ENDP ; cSystemOfRage::RecvDSProtocol
_TEXT	ENDS
PUBLIC	?NewDBSave@cSystemOfRage@@QAEXHPAE@Z		; cSystemOfRage::NewDBSave
PUBLIC	__$ArrayPad$
PUBLIC	?SendSaveData@cSystemOfRage@@QAEXH@Z		; cSystemOfRage::SendSaveData
; Function compile flags: /Odtp /ZI
_TEXT	SEGMENT
_pInfo$ = -180						; size = 166
_lpUser$ = -12						; size = 4
_this$ = -8						; size = 4
__$ArrayPad$ = -4					; size = 4
_aIndex$ = 8						; size = 4
?SendSaveData@cSystemOfRage@@QAEXH@Z PROC		; cSystemOfRage::SendSaveData
; _this$ = ecx

; 818  : {

  032b0	55		 push	 ebp
  032b1	8b ec		 mov	 ebp, esp
  032b3	81 ec f4 00 00
	00		 sub	 esp, 244		; 000000f4H
  032b9	a1 00 00 00 00	 mov	 eax, DWORD PTR ___security_cookie
  032be	33 c5		 xor	 eax, ebp
  032c0	89 45 fc	 mov	 DWORD PTR __$ArrayPad$[ebp], eax
  032c3	53		 push	 ebx
  032c4	56		 push	 esi
  032c5	57		 push	 edi
  032c6	89 4d f8	 mov	 DWORD PTR _this$[ebp], ecx

; 819  : 	if(!this->Enable) return;

  032c9	8b 45 f8	 mov	 eax, DWORD PTR _this$[ebp]
  032cc	0f b6 08	 movzx	 ecx, BYTE PTR [eax]
  032cf	85 c9		 test	 ecx, ecx
  032d1	75 05		 jne	 SHORT $LN2@SendSaveDa
  032d3	e9 82 00 00 00	 jmp	 $LN3@SendSaveDa
$LN2@SendSaveDa:

; 820  : 
; 821  : 	if(!this->rUser[aIndex].LoadInfo)

  032d8	8b 45 08	 mov	 eax, DWORD PTR _aIndex$[ebp]
  032db	69 c0 a0 00 00
	00		 imul	 eax, 160		; 000000a0H
  032e1	8b 4d f8	 mov	 ecx, DWORD PTR _this$[ebp]
  032e4	83 7c 01 30 00	 cmp	 DWORD PTR [ecx+eax+48], 0
  032e9	75 02		 jne	 SHORT $LN1@SendSaveDa

; 822  : 	{
; 823  : 		return;

  032eb	eb 6d		 jmp	 SHORT $LN3@SendSaveDa
$LN1@SendSaveDa:

; 824  : 	}
; 825  : 
; 826  : 	LPOBJ lpUser = &gObj[aIndex];

  032ed	8b 45 08	 mov	 eax, DWORD PTR _aIndex$[ebp]
  032f0	69 c0 38 2b 00
	00		 imul	 eax, 11064		; 00002b38H
  032f6	03 05 00 00 00
	00		 add	 eax, DWORD PTR ?gObj@@3PAUOBJECTSTRUCT@@A ; gObj
  032fc	89 45 f4	 mov	 DWORD PTR _lpUser$[ebp], eax

; 827  : 
; 828  : 	DBRageUserSave pInfo;
; 829  : 	pInfo.h.c =0xC1;

  032ff	c6 85 4c ff ff
	ff c1		 mov	 BYTE PTR _pInfo$[ebp], 193 ; 000000c1H

; 830  : 	pInfo.h.size = sizeof(DBRageUserSave);

  03306	c6 85 4d ff ff
	ff a6		 mov	 BYTE PTR _pInfo$[ebp+1], 166 ; 000000a6H

; 831  : 	pInfo.h.headcode =0xE1;

  0330d	c6 85 4e ff ff
	ff e1		 mov	 BYTE PTR _pInfo$[ebp+2], 225 ; 000000e1H

; 832  : 	strncpy(pInfo.Name,lpUser->Name,10);

  03314	6a 0a		 push	 10			; 0000000aH
  03316	8b 45 f4	 mov	 eax, DWORD PTR _lpUser$[ebp]
  03319	83 c0 77	 add	 eax, 119		; 00000077H
  0331c	50		 push	 eax
  0331d	8d 8d 4f ff ff
	ff		 lea	 ecx, DWORD PTR _pInfo$[ebp+3]
  03323	51		 push	 ecx
  03324	e8 00 00 00 00	 call	 _strncpy
  03329	83 c4 0c	 add	 esp, 12			; 0000000cH

; 833  : 	gSystemOfRage.NewDBSave(aIndex, pInfo.RageSystem);

  0332c	8d 85 5a ff ff
	ff		 lea	 eax, DWORD PTR _pInfo$[ebp+14]
  03332	50		 push	 eax
  03333	8b 4d 08	 mov	 ecx, DWORD PTR _aIndex$[ebp]
  03336	51		 push	 ecx
  03337	b9 00 00 00 00	 mov	 ecx, OFFSET ?gSystemOfRage@@3VcSystemOfRage@@A ; gSystemOfRage
  0333c	e8 00 00 00 00	 call	 ?NewDBSave@cSystemOfRage@@QAEXHPAE@Z ; cSystemOfRage::NewDBSave

; 834  : 	cDBSMng.Send((char*)&pInfo, pInfo.h.size);

  03341	0f b6 85 4d ff
	ff ff		 movzx	 eax, BYTE PTR _pInfo$[ebp+1]
  03348	50		 push	 eax
  03349	8d 8d 4c ff ff
	ff		 lea	 ecx, DWORD PTR _pInfo$[ebp]
  0334f	51		 push	 ecx
  03350	b9 00 00 00 00	 mov	 ecx, OFFSET ?cDBSMng@@3VDBSockMng@@A ; cDBSMng
  03355	e8 00 00 00 00	 call	 ?Send@DBSockMng@@QAEHPADH@Z ; DBSockMng::Send
$LN3@SendSaveDa:

; 835  : }

  0335a	5f		 pop	 edi
  0335b	5e		 pop	 esi
  0335c	5b		 pop	 ebx
  0335d	8b 4d fc	 mov	 ecx, DWORD PTR __$ArrayPad$[ebp]
  03360	33 cd		 xor	 ecx, ebp
  03362	e8 00 00 00 00	 call	 @__security_check_cookie@4
  03367	8b e5		 mov	 esp, ebp
  03369	5d		 pop	 ebp
  0336a	c2 04 00	 ret	 4
?SendSaveData@cSystemOfRage@@QAEXH@Z ENDP		; cSystemOfRage::SendSaveData
_TEXT	ENDS
PUBLIC	?JewelsDropRate@cSystemOfRage@@QAEXPAUOBJECTSTRUCT@@0@Z ; cSystemOfRage::JewelsDropRate
EXTRN	?ItemSerialCreateSend@@YAXHEEEHEEEEEHEE@Z:PROC	; ItemSerialCreateSend
EXTRN	?gObjMonsterTopHitDamageUser@@YAHPAUOBJECTSTRUCT@@@Z:PROC ; gObjMonsterTopHitDamageUser
EXTRN	_rand:PROC
; Function compile flags: /Odtp /ZI
_TEXT	SEGMENT
_num$221974 = -16					; size = 4
_Type$221973 = -12					; size = 4
_iTopHitUser$221972 = -8				; size = 4
_this$ = -4						; size = 4
_lpObj$ = 8						; size = 4
_lpMobObj$ = 12						; size = 4
?JewelsDropRate@cSystemOfRage@@QAEXPAUOBJECTSTRUCT@@0@Z PROC ; cSystemOfRage::JewelsDropRate
; _this$ = ecx

; 838  : {

  03370	55		 push	 ebp
  03371	8b ec		 mov	 ebp, esp
  03373	83 ec 50	 sub	 esp, 80			; 00000050H
  03376	53		 push	 ebx
  03377	56		 push	 esi
  03378	57		 push	 edi
  03379	89 4d fc	 mov	 DWORD PTR _this$[ebp], ecx

; 839  : 	if(!this->Enable) return;

  0337c	8b 45 fc	 mov	 eax, DWORD PTR _this$[ebp]
  0337f	0f b6 08	 movzx	 ecx, BYTE PTR [eax]
  03382	85 c9		 test	 ecx, ecx
  03384	75 05		 jne	 SHORT $LN10@JewelsDrop
  03386	e9 d4 00 00 00	 jmp	 $LN11@JewelsDrop
$LN10@JewelsDrop:

; 840  : 	if ( (rand()%10000) < this->ReturnCalc(lpObj->m_Index, eSkill2,0) )

  0338b	e8 00 00 00 00	 call	 _rand
  03390	99		 cdq
  03391	b9 10 27 00 00	 mov	 ecx, 10000		; 00002710H
  03396	f7 f9		 idiv	 ecx
  03398	8b f2		 mov	 esi, edx
  0339a	6a 00		 push	 0
  0339c	6a 02		 push	 2
  0339e	8b 55 08	 mov	 edx, DWORD PTR _lpObj$[ebp]
  033a1	8b 02		 mov	 eax, DWORD PTR [edx]
  033a3	50		 push	 eax
  033a4	8b 4d fc	 mov	 ecx, DWORD PTR _this$[ebp]
  033a7	e8 00 00 00 00	 call	 ?ReturnCalc@cSystemOfRage@@QAEHHHH@Z ; cSystemOfRage::ReturnCalc
  033ac	3b f0		 cmp	 esi, eax
  033ae	0f 8d ab 00 00
	00		 jge	 $LN11@JewelsDrop

; 841  : 	{
; 842  : 		int iTopHitUser = gObjMonsterTopHitDamageUser(lpMobObj);

  033b4	8b 45 0c	 mov	 eax, DWORD PTR _lpMobObj$[ebp]
  033b7	50		 push	 eax
  033b8	e8 00 00 00 00	 call	 ?gObjMonsterTopHitDamageUser@@YAHPAUOBJECTSTRUCT@@@Z ; gObjMonsterTopHitDamageUser
  033bd	83 c4 04	 add	 esp, 4
  033c0	89 45 f8	 mov	 DWORD PTR _iTopHitUser$221972[ebp], eax

; 843  : 
; 844  : 		int Type;
; 845  : 		int num = rand()%4;

  033c3	e8 00 00 00 00	 call	 _rand
  033c8	25 03 00 00 80	 and	 eax, -2147483645	; 80000003H
  033cd	79 05		 jns	 SHORT $LN13@JewelsDrop
  033cf	48		 dec	 eax
  033d0	83 c8 fc	 or	 eax, -4			; fffffffcH
  033d3	40		 inc	 eax
$LN13@JewelsDrop:
  033d4	89 45 f0	 mov	 DWORD PTR _num$221974[ebp], eax

; 846  : 		if(num == 0)

  033d7	83 7d f0 00	 cmp	 DWORD PTR _num$221974[ebp], 0
  033db	75 09		 jne	 SHORT $LN8@JewelsDrop

; 847  : 		Type = ITEMGET(12,15);

  033dd	c7 45 f4 0f 18
	00 00		 mov	 DWORD PTR _Type$221973[ebp], 6159 ; 0000180fH
  033e4	eb 34		 jmp	 SHORT $LN7@JewelsDrop
$LN8@JewelsDrop:

; 848  : 		else if(num == 1)

  033e6	83 7d f0 01	 cmp	 DWORD PTR _num$221974[ebp], 1
  033ea	75 09		 jne	 SHORT $LN6@JewelsDrop

; 849  : 		Type = ITEMGET(14,13);

  033ec	c7 45 f4 0d 1c
	00 00		 mov	 DWORD PTR _Type$221973[ebp], 7181 ; 00001c0dH
  033f3	eb 25		 jmp	 SHORT $LN7@JewelsDrop
$LN6@JewelsDrop:

; 850  : 		else if(num == 2)

  033f5	83 7d f0 02	 cmp	 DWORD PTR _num$221974[ebp], 2
  033f9	75 09		 jne	 SHORT $LN4@JewelsDrop

; 851  : 		Type =  ITEMGET(14,14);

  033fb	c7 45 f4 0e 1c
	00 00		 mov	 DWORD PTR _Type$221973[ebp], 7182 ; 00001c0eH
  03402	eb 16		 jmp	 SHORT $LN7@JewelsDrop
$LN4@JewelsDrop:

; 852  : 		else if(num == 3)

  03404	83 7d f0 03	 cmp	 DWORD PTR _num$221974[ebp], 3
  03408	75 09		 jne	 SHORT $LN2@JewelsDrop

; 853  : 		Type = ITEMGET(14,16);

  0340a	c7 45 f4 10 1c
	00 00		 mov	 DWORD PTR _Type$221973[ebp], 7184 ; 00001c10H

; 854  : 		else

  03411	eb 07		 jmp	 SHORT $LN7@JewelsDrop
$LN2@JewelsDrop:

; 855  : 		Type = ITEMGET(14,22);

  03413	c7 45 f4 16 1c
	00 00		 mov	 DWORD PTR _Type$221973[ebp], 7190 ; 00001c16H
$LN7@JewelsDrop:

; 856  : 
; 857  : 		ItemSerialCreateSend(lpMobObj->m_Index,lpMobObj->MapNumber,lpMobObj->X,lpMobObj->Y,Type,0,0,0,0,0,iTopHitUser,0,0);

  0341a	6a 00		 push	 0
  0341c	6a 00		 push	 0
  0341e	8b 45 f8	 mov	 eax, DWORD PTR _iTopHitUser$221972[ebp]
  03421	50		 push	 eax
  03422	6a 00		 push	 0
  03424	6a 00		 push	 0
  03426	6a 00		 push	 0
  03428	6a 00		 push	 0
  0342a	6a 00		 push	 0
  0342c	8b 4d f4	 mov	 ecx, DWORD PTR _Type$221973[ebp]
  0342f	51		 push	 ecx
  03430	8b 55 0c	 mov	 edx, DWORD PTR _lpMobObj$[ebp]
  03433	0f b6 82 46 01
	00 00		 movzx	 eax, BYTE PTR [edx+326]
  0343a	50		 push	 eax
  0343b	8b 4d 0c	 mov	 ecx, DWORD PTR _lpMobObj$[ebp]
  0343e	0f b6 91 44 01
	00 00		 movzx	 edx, BYTE PTR [ecx+324]
  03445	52		 push	 edx
  03446	8b 45 0c	 mov	 eax, DWORD PTR _lpMobObj$[ebp]
  03449	0f b6 88 49 01
	00 00		 movzx	 ecx, BYTE PTR [eax+329]
  03450	51		 push	 ecx
  03451	8b 55 0c	 mov	 edx, DWORD PTR _lpMobObj$[ebp]
  03454	8b 02		 mov	 eax, DWORD PTR [edx]
  03456	50		 push	 eax
  03457	e8 00 00 00 00	 call	 ?ItemSerialCreateSend@@YAXHEEEHEEEEEHEE@Z ; ItemSerialCreateSend
  0345c	83 c4 34	 add	 esp, 52			; 00000034H
$LN11@JewelsDrop:

; 858  : 	}
; 859  : }

  0345f	5f		 pop	 edi
  03460	5e		 pop	 esi
  03461	5b		 pop	 ebx
  03462	8b e5		 mov	 esp, ebp
  03464	5d		 pop	 ebp
  03465	c2 08 00	 ret	 8
?JewelsDropRate@cSystemOfRage@@QAEXPAUOBJECTSTRUCT@@0@Z ENDP ; cSystemOfRage::JewelsDropRate
_TEXT	ENDS
PUBLIC	?GetActive@cSystemOfRage@@QAE_NXZ		; cSystemOfRage::GetActive
; Function compile flags: /Odtp /ZI
_TEXT	SEGMENT
_this$ = -4						; size = 4
?GetActive@cSystemOfRage@@QAE_NXZ PROC			; cSystemOfRage::GetActive
; _this$ = ecx

; 862  : {

  03470	55		 push	 ebp
  03471	8b ec		 mov	 ebp, esp
  03473	83 ec 44	 sub	 esp, 68			; 00000044H
  03476	53		 push	 ebx
  03477	56		 push	 esi
  03478	57		 push	 edi
  03479	89 4d fc	 mov	 DWORD PTR _this$[ebp], ecx

; 863  : 	return this->Enable;

  0347c	8b 45 fc	 mov	 eax, DWORD PTR _this$[ebp]
  0347f	8a 00		 mov	 al, BYTE PTR [eax]

; 864  : }

  03481	5f		 pop	 edi
  03482	5e		 pop	 esi
  03483	5b		 pop	 ebx
  03484	8b e5		 mov	 esp, ebp
  03486	5d		 pop	 ebp
  03487	c3		 ret	 0
?GetActive@cSystemOfRage@@QAE_NXZ ENDP			; cSystemOfRage::GetActive
_TEXT	ENDS
PUBLIC	__$ArrayPad$
PUBLIC	?RageClientSend@cSystemOfRage@@QAEXXZ		; cSystemOfRage::RageClientSend
; Function compile flags: /Odtp /ZI
_TEXT	SEGMENT
_rSend$221998 = -36					; size = 20
_lpObj$221994 = -16					; size = 4
_aIndex$221990 = -12					; size = 4
_this$ = -8						; size = 4
__$ArrayPad$ = -4					; size = 4
?RageClientSend@cSystemOfRage@@QAEXXZ PROC		; cSystemOfRage::RageClientSend
; _this$ = ecx

; 867  : {

  03490	55		 push	 ebp
  03491	8b ec		 mov	 ebp, esp
  03493	83 ec 64	 sub	 esp, 100		; 00000064H
  03496	a1 00 00 00 00	 mov	 eax, DWORD PTR ___security_cookie
  0349b	33 c5		 xor	 eax, ebp
  0349d	89 45 fc	 mov	 DWORD PTR __$ArrayPad$[ebp], eax
  034a0	53		 push	 ebx
  034a1	56		 push	 esi
  034a2	57		 push	 edi
  034a3	89 4d f8	 mov	 DWORD PTR _this$[ebp], ecx

; 868  : 	if(!this->Enable) return;

  034a6	8b 45 f8	 mov	 eax, DWORD PTR _this$[ebp]
  034a9	0f b6 08	 movzx	 ecx, BYTE PTR [eax]
  034ac	85 c9		 test	 ecx, ecx
  034ae	75 05		 jne	 SHORT $LN7@RageClient
  034b0	e9 d5 00 00 00	 jmp	 $LN8@RageClient
$LN7@RageClient:

; 869  : 	for (int  aIndex=OBJ_STARTUSERINDEX;aIndex<OBJMAX;aIndex++)

  034b5	c7 45 f4 b0 36
	00 00		 mov	 DWORD PTR _aIndex$221990[ebp], 14000 ; 000036b0H
  034bc	eb 09		 jmp	 SHORT $LN6@RageClient
$LN5@RageClient:
  034be	8b 45 f4	 mov	 eax, DWORD PTR _aIndex$221990[ebp]
  034c1	83 c0 01	 add	 eax, 1
  034c4	89 45 f4	 mov	 DWORD PTR _aIndex$221990[ebp], eax
$LN6@RageClient:
  034c7	81 7d f4 98 3a
	00 00		 cmp	 DWORD PTR _aIndex$221990[ebp], 15000 ; 00003a98H
  034ce	0f 8d b6 00 00
	00		 jge	 $LN8@RageClient

; 870  : 	{
; 871  : 		LPOBJ lpObj = &gObj[aIndex];

  034d4	8b 45 f4	 mov	 eax, DWORD PTR _aIndex$221990[ebp]
  034d7	69 c0 38 2b 00
	00		 imul	 eax, 11064		; 00002b38H
  034dd	03 05 00 00 00
	00		 add	 eax, DWORD PTR ?gObj@@3PAUOBJECTSTRUCT@@A ; gObj
  034e3	89 45 f0	 mov	 DWORD PTR _lpObj$221994[ebp], eax

; 872  : 		if(lpObj->Connected < PLAYER_PLAYING ) continue;

  034e6	8b 45 f0	 mov	 eax, DWORD PTR _lpObj$221994[ebp]
  034e9	83 78 04 03	 cmp	 DWORD PTR [eax+4], 3
  034ed	7d 02		 jge	 SHORT $LN3@RageClient
  034ef	eb cd		 jmp	 SHORT $LN5@RageClient
$LN3@RageClient:

; 873  : 
; 874  : 		if(lpObj->OffExp != 0 || lpObj->OffTrade != 0) continue;

  034f1	8b 45 f0	 mov	 eax, DWORD PTR _lpObj$221994[ebp]
  034f4	83 b8 98 22 00
	00 00		 cmp	 DWORD PTR [eax+8856], 0
  034fb	75 0c		 jne	 SHORT $LN1@RageClient
  034fd	8b 45 f0	 mov	 eax, DWORD PTR _lpObj$221994[ebp]
  03500	83 b8 ac 22 00
	00 00		 cmp	 DWORD PTR [eax+8876], 0
  03507	74 02		 je	 SHORT $LN2@RageClient
$LN1@RageClient:
  03509	eb b3		 jmp	 SHORT $LN5@RageClient
$LN2@RageClient:

; 875  : 
; 876  : 		RageExpSend rSend;
; 877  : 		rSend.h.set((LPBYTE)&rSend, 0xFB, 3, sizeof(rSend));

  0350b	6a 14		 push	 20			; 00000014H
  0350d	6a 03		 push	 3
  0350f	68 fb 00 00 00	 push	 251			; 000000fbH
  03514	8d 45 dc	 lea	 eax, DWORD PTR _rSend$221998[ebp]
  03517	50		 push	 eax
  03518	8d 4d dc	 lea	 ecx, DWORD PTR _rSend$221998[ebp]
  0351b	e8 00 00 00 00	 call	 ?set@PBMSG_HEAD2@@QAEXPAEEEE@Z ; PBMSG_HEAD2::set

; 878  : 		rSend.Level = this->rUser[aIndex].rLevel;

  03520	8b 45 f4	 mov	 eax, DWORD PTR _aIndex$221990[ebp]
  03523	69 c0 a0 00 00
	00		 imul	 eax, 160		; 000000a0H
  03529	8b 4d f8	 mov	 ecx, DWORD PTR _this$[ebp]
  0352c	8b 54 01 34	 mov	 edx, DWORD PTR [ecx+eax+52]
  03530	89 55 e0	 mov	 DWORD PTR _rSend$221998[ebp+4], edx

; 879  : 		rSend.Point = this->rUser[aIndex].rPoints;

  03533	8b 45 f4	 mov	 eax, DWORD PTR _aIndex$221990[ebp]
  03536	69 c0 a0 00 00
	00		 imul	 eax, 160		; 000000a0H
  0353c	8b 4d f8	 mov	 ecx, DWORD PTR _this$[ebp]
  0353f	8b 54 01 38	 mov	 edx, DWORD PTR [ecx+eax+56]
  03543	89 55 e4	 mov	 DWORD PTR _rSend$221998[ebp+8], edx

; 880  : 		rSend.Exp = this->rUser[aIndex].rExperience;

  03546	8b 45 f4	 mov	 eax, DWORD PTR _aIndex$221990[ebp]
  03549	69 c0 a0 00 00
	00		 imul	 eax, 160		; 000000a0H
  0354f	8b 4d f8	 mov	 ecx, DWORD PTR _this$[ebp]
  03552	8b 54 01 3c	 mov	 edx, DWORD PTR [ecx+eax+60]
  03556	89 55 e8	 mov	 DWORD PTR _rSend$221998[ebp+12], edx

; 881  : 		rSend.NextExp = (this->NextExp * this->rUser[aIndex].rLevel);

  03559	8b 45 f4	 mov	 eax, DWORD PTR _aIndex$221990[ebp]
  0355c	69 c0 a0 00 00
	00		 imul	 eax, 160		; 000000a0H
  03562	8b 4d f8	 mov	 ecx, DWORD PTR _this$[ebp]
  03565	8b 55 f8	 mov	 edx, DWORD PTR _this$[ebp]
  03568	8b 49 20	 mov	 ecx, DWORD PTR [ecx+32]
  0356b	0f af 4c 02 34	 imul	 ecx, DWORD PTR [edx+eax+52]
  03570	89 4d ec	 mov	 DWORD PTR _rSend$221998[ebp+16], ecx

; 882  : 	
; 883  : 		DataSend(aIndex,(LPBYTE)&rSend,sizeof(rSend));

  03573	6a 14		 push	 20			; 00000014H
  03575	8d 45 dc	 lea	 eax, DWORD PTR _rSend$221998[ebp]
  03578	50		 push	 eax
  03579	8b 4d f4	 mov	 ecx, DWORD PTR _aIndex$221990[ebp]
  0357c	51		 push	 ecx
  0357d	e8 00 00 00 00	 call	 ?DataSend@@YAHHPAEK@Z	; DataSend
  03582	83 c4 0c	 add	 esp, 12			; 0000000cH

; 884  : 	}

  03585	e9 34 ff ff ff	 jmp	 $LN5@RageClient
$LN8@RageClient:

; 885  : }

  0358a	5f		 pop	 edi
  0358b	5e		 pop	 esi
  0358c	5b		 pop	 ebx
  0358d	8b 4d fc	 mov	 ecx, DWORD PTR __$ArrayPad$[ebp]
  03590	33 cd		 xor	 ecx, ebp
  03592	e8 00 00 00 00	 call	 @__security_check_cookie@4
  03597	8b e5		 mov	 esp, ebp
  03599	5d		 pop	 ebp
  0359a	c3		 ret	 0
?RageClientSend@cSystemOfRage@@QAEXXZ ENDP		; cSystemOfRage::RageClientSend
; Function compile flags: /Odtp /ZI
_irSave$ = -12						; size = 4
_DataSize$ = -8						; size = 4
_this$ = -4						; size = 4
_aIndex$ = 8						; size = 4
_buf$ = 12						; size = 4
?NewDBSave@cSystemOfRage@@QAEXHPAE@Z PROC		; cSystemOfRage::NewDBSave
; _this$ = ecx

; 888  : {

  035a0	55		 push	 ebp
  035a1	8b ec		 mov	 ebp, esp
  035a3	83 ec 4c	 sub	 esp, 76			; 0000004cH
  035a6	53		 push	 ebx
  035a7	56		 push	 esi
  035a8	57		 push	 edi
  035a9	89 4d fc	 mov	 DWORD PTR _this$[ebp], ecx

; 889  : 	if(!this->Enable) return;

  035ac	8b 45 fc	 mov	 eax, DWORD PTR _this$[ebp]
  035af	0f b6 08	 movzx	 ecx, BYTE PTR [eax]
  035b2	85 c9		 test	 ecx, ecx
  035b4	75 05		 jne	 SHORT $LN1@NewDBSave
  035b6	e9 86 06 00 00	 jmp	 $LN2@NewDBSave
$LN1@NewDBSave:

; 890  : 
; 891  : 	int DataSize = 0;

  035bb	c7 45 f8 00 00
	00 00		 mov	 DWORD PTR _DataSize$[ebp], 0

; 892  : 	int irSave = 0;

  035c2	c7 45 f4 00 00
	00 00		 mov	 DWORD PTR _irSave$[ebp], 0

; 893  : 
; 894  : 	irSave = this->rUser[aIndex].rLevel;

  035c9	8b 45 08	 mov	 eax, DWORD PTR _aIndex$[ebp]
  035cc	69 c0 a0 00 00
	00		 imul	 eax, 160		; 000000a0H
  035d2	8b 4d fc	 mov	 ecx, DWORD PTR _this$[ebp]
  035d5	8b 54 01 34	 mov	 edx, DWORD PTR [ecx+eax+52]
  035d9	89 55 f4	 mov	 DWORD PTR _irSave$[ebp], edx

; 895  : 	DataSize = int_binary( irSave, DataSize, buf );

  035dc	8b 45 0c	 mov	 eax, DWORD PTR _buf$[ebp]
  035df	50		 push	 eax
  035e0	8b 4d f8	 mov	 ecx, DWORD PTR _DataSize$[ebp]
  035e3	51		 push	 ecx
  035e4	8b 55 f4	 mov	 edx, DWORD PTR _irSave$[ebp]
  035e7	52		 push	 edx
  035e8	e8 00 00 00 00	 call	 ?int_binary@@YAHHHPAE@Z	; int_binary
  035ed	83 c4 0c	 add	 esp, 12			; 0000000cH
  035f0	89 45 f8	 mov	 DWORD PTR _DataSize$[ebp], eax

; 896  : 	irSave = this->rUser[aIndex].rPoints;

  035f3	8b 45 08	 mov	 eax, DWORD PTR _aIndex$[ebp]
  035f6	69 c0 a0 00 00
	00		 imul	 eax, 160		; 000000a0H
  035fc	8b 4d fc	 mov	 ecx, DWORD PTR _this$[ebp]
  035ff	8b 54 01 38	 mov	 edx, DWORD PTR [ecx+eax+56]
  03603	89 55 f4	 mov	 DWORD PTR _irSave$[ebp], edx

; 897  : 	DataSize = int_binary( irSave, DataSize, buf );

  03606	8b 45 0c	 mov	 eax, DWORD PTR _buf$[ebp]
  03609	50		 push	 eax
  0360a	8b 4d f8	 mov	 ecx, DWORD PTR _DataSize$[ebp]
  0360d	51		 push	 ecx
  0360e	8b 55 f4	 mov	 edx, DWORD PTR _irSave$[ebp]
  03611	52		 push	 edx
  03612	e8 00 00 00 00	 call	 ?int_binary@@YAHHHPAE@Z	; int_binary
  03617	83 c4 0c	 add	 esp, 12			; 0000000cH
  0361a	89 45 f8	 mov	 DWORD PTR _DataSize$[ebp], eax

; 898  : 	irSave = this->rUser[aIndex].rExperience;

  0361d	8b 45 08	 mov	 eax, DWORD PTR _aIndex$[ebp]
  03620	69 c0 a0 00 00
	00		 imul	 eax, 160		; 000000a0H
  03626	8b 4d fc	 mov	 ecx, DWORD PTR _this$[ebp]
  03629	8b 54 01 3c	 mov	 edx, DWORD PTR [ecx+eax+60]
  0362d	89 55 f4	 mov	 DWORD PTR _irSave$[ebp], edx

; 899  : 	DataSize = int_binary( irSave, DataSize, buf );

  03630	8b 45 0c	 mov	 eax, DWORD PTR _buf$[ebp]
  03633	50		 push	 eax
  03634	8b 4d f8	 mov	 ecx, DWORD PTR _DataSize$[ebp]
  03637	51		 push	 ecx
  03638	8b 55 f4	 mov	 edx, DWORD PTR _irSave$[ebp]
  0363b	52		 push	 edx
  0363c	e8 00 00 00 00	 call	 ?int_binary@@YAHHHPAE@Z	; int_binary
  03641	83 c4 0c	 add	 esp, 12			; 0000000cH
  03644	89 45 f8	 mov	 DWORD PTR _DataSize$[ebp], eax

; 900  : 	irSave = this->rUser[aIndex].Damage;

  03647	8b 45 08	 mov	 eax, DWORD PTR _aIndex$[ebp]
  0364a	69 c0 a0 00 00
	00		 imul	 eax, 160		; 000000a0H
  03650	8b 4d fc	 mov	 ecx, DWORD PTR _this$[ebp]
  03653	8b 54 01 44	 mov	 edx, DWORD PTR [ecx+eax+68]
  03657	89 55 f4	 mov	 DWORD PTR _irSave$[ebp], edx

; 901  : 	DataSize = int_binary( irSave, DataSize, buf );

  0365a	8b 45 0c	 mov	 eax, DWORD PTR _buf$[ebp]
  0365d	50		 push	 eax
  0365e	8b 4d f8	 mov	 ecx, DWORD PTR _DataSize$[ebp]
  03661	51		 push	 ecx
  03662	8b 55 f4	 mov	 edx, DWORD PTR _irSave$[ebp]
  03665	52		 push	 edx
  03666	e8 00 00 00 00	 call	 ?int_binary@@YAHHHPAE@Z	; int_binary
  0366b	83 c4 0c	 add	 esp, 12			; 0000000cH
  0366e	89 45 f8	 mov	 DWORD PTR _DataSize$[ebp], eax

; 902  : 	irSave = this->rUser[aIndex].FreePoints;

  03671	8b 45 08	 mov	 eax, DWORD PTR _aIndex$[ebp]
  03674	69 c0 a0 00 00
	00		 imul	 eax, 160		; 000000a0H
  0367a	8b 4d fc	 mov	 ecx, DWORD PTR _this$[ebp]
  0367d	8b 54 01 48	 mov	 edx, DWORD PTR [ecx+eax+72]
  03681	89 55 f4	 mov	 DWORD PTR _irSave$[ebp], edx

; 903  : 	DataSize = int_binary( irSave, DataSize, buf );

  03684	8b 45 0c	 mov	 eax, DWORD PTR _buf$[ebp]
  03687	50		 push	 eax
  03688	8b 4d f8	 mov	 ecx, DWORD PTR _DataSize$[ebp]
  0368b	51		 push	 ecx
  0368c	8b 55 f4	 mov	 edx, DWORD PTR _irSave$[ebp]
  0368f	52		 push	 edx
  03690	e8 00 00 00 00	 call	 ?int_binary@@YAHHHPAE@Z	; int_binary
  03695	83 c4 0c	 add	 esp, 12			; 0000000cH
  03698	89 45 f8	 mov	 DWORD PTR _DataSize$[ebp], eax

; 904  : 	irSave = this->rUser[aIndex].SummonPet;

  0369b	8b 45 08	 mov	 eax, DWORD PTR _aIndex$[ebp]
  0369e	69 c0 a0 00 00
	00		 imul	 eax, 160		; 000000a0H
  036a4	8b 4d fc	 mov	 ecx, DWORD PTR _this$[ebp]
  036a7	8b 54 01 4c	 mov	 edx, DWORD PTR [ecx+eax+76]
  036ab	89 55 f4	 mov	 DWORD PTR _irSave$[ebp], edx

; 905  : 	DataSize = int_binary( irSave, DataSize, buf );

  036ae	8b 45 0c	 mov	 eax, DWORD PTR _buf$[ebp]
  036b1	50		 push	 eax
  036b2	8b 4d f8	 mov	 ecx, DWORD PTR _DataSize$[ebp]
  036b5	51		 push	 ecx
  036b6	8b 55 f4	 mov	 edx, DWORD PTR _irSave$[ebp]
  036b9	52		 push	 edx
  036ba	e8 00 00 00 00	 call	 ?int_binary@@YAHHHPAE@Z	; int_binary
  036bf	83 c4 0c	 add	 esp, 12			; 0000000cH
  036c2	89 45 f8	 mov	 DWORD PTR _DataSize$[ebp], eax

; 906  : 	irSave = this->rUser[aIndex].WingsDamagePlus;

  036c5	8b 45 08	 mov	 eax, DWORD PTR _aIndex$[ebp]
  036c8	69 c0 a0 00 00
	00		 imul	 eax, 160		; 000000a0H
  036ce	8b 4d fc	 mov	 ecx, DWORD PTR _this$[ebp]
  036d1	8b 54 01 50	 mov	 edx, DWORD PTR [ecx+eax+80]
  036d5	89 55 f4	 mov	 DWORD PTR _irSave$[ebp], edx

; 907  : 	DataSize = int_binary( irSave, DataSize, buf );

  036d8	8b 45 0c	 mov	 eax, DWORD PTR _buf$[ebp]
  036db	50		 push	 eax
  036dc	8b 4d f8	 mov	 ecx, DWORD PTR _DataSize$[ebp]
  036df	51		 push	 ecx
  036e0	8b 55 f4	 mov	 edx, DWORD PTR _irSave$[ebp]
  036e3	52		 push	 edx
  036e4	e8 00 00 00 00	 call	 ?int_binary@@YAHHHPAE@Z	; int_binary
  036e9	83 c4 0c	 add	 esp, 12			; 0000000cH
  036ec	89 45 f8	 mov	 DWORD PTR _DataSize$[ebp], eax

; 908  : 	irSave = this->rUser[aIndex].FinalMana;

  036ef	8b 45 08	 mov	 eax, DWORD PTR _aIndex$[ebp]
  036f2	69 c0 a0 00 00
	00		 imul	 eax, 160		; 000000a0H
  036f8	8b 4d fc	 mov	 ecx, DWORD PTR _this$[ebp]
  036fb	8b 54 01 54	 mov	 edx, DWORD PTR [ecx+eax+84]
  036ff	89 55 f4	 mov	 DWORD PTR _irSave$[ebp], edx

; 909  : 	DataSize = int_binary( irSave, DataSize, buf );

  03702	8b 45 0c	 mov	 eax, DWORD PTR _buf$[ebp]
  03705	50		 push	 eax
  03706	8b 4d f8	 mov	 ecx, DWORD PTR _DataSize$[ebp]
  03709	51		 push	 ecx
  0370a	8b 55 f4	 mov	 edx, DWORD PTR _irSave$[ebp]
  0370d	52		 push	 edx
  0370e	e8 00 00 00 00	 call	 ?int_binary@@YAHHHPAE@Z	; int_binary
  03713	83 c4 0c	 add	 esp, 12			; 0000000cH
  03716	89 45 f8	 mov	 DWORD PTR _DataSize$[ebp], eax

; 910  : 	irSave = this->rUser[aIndex].IgnoreDefence;

  03719	8b 45 08	 mov	 eax, DWORD PTR _aIndex$[ebp]
  0371c	69 c0 a0 00 00
	00		 imul	 eax, 160		; 000000a0H
  03722	8b 4d fc	 mov	 ecx, DWORD PTR _this$[ebp]
  03725	8b 54 01 58	 mov	 edx, DWORD PTR [ecx+eax+88]
  03729	89 55 f4	 mov	 DWORD PTR _irSave$[ebp], edx

; 911  : 	DataSize = int_binary( irSave, DataSize, buf );

  0372c	8b 45 0c	 mov	 eax, DWORD PTR _buf$[ebp]
  0372f	50		 push	 eax
  03730	8b 4d f8	 mov	 ecx, DWORD PTR _DataSize$[ebp]
  03733	51		 push	 ecx
  03734	8b 55 f4	 mov	 edx, DWORD PTR _irSave$[ebp]
  03737	52		 push	 edx
  03738	e8 00 00 00 00	 call	 ?int_binary@@YAHHHPAE@Z	; int_binary
  0373d	83 c4 0c	 add	 esp, 12			; 0000000cH
  03740	89 45 f8	 mov	 DWORD PTR _DataSize$[ebp], eax

; 912  : 	irSave = this->rUser[aIndex].ResetLevel;

  03743	8b 45 08	 mov	 eax, DWORD PTR _aIndex$[ebp]
  03746	69 c0 a0 00 00
	00		 imul	 eax, 160		; 000000a0H
  0374c	8b 4d fc	 mov	 ecx, DWORD PTR _this$[ebp]
  0374f	8b 54 01 5c	 mov	 edx, DWORD PTR [ecx+eax+92]
  03753	89 55 f4	 mov	 DWORD PTR _irSave$[ebp], edx

; 913  : 	DataSize = int_binary( irSave, DataSize, buf );

  03756	8b 45 0c	 mov	 eax, DWORD PTR _buf$[ebp]
  03759	50		 push	 eax
  0375a	8b 4d f8	 mov	 ecx, DWORD PTR _DataSize$[ebp]
  0375d	51		 push	 ecx
  0375e	8b 55 f4	 mov	 edx, DWORD PTR _irSave$[ebp]
  03761	52		 push	 edx
  03762	e8 00 00 00 00	 call	 ?int_binary@@YAHHHPAE@Z	; int_binary
