; Listing generated by Microsoft (R) Optimizing Compiler Version 16.00.40219.01 

	TITLE	D:\Projects\ExTeam6.3\Source\GameServer\GameServer\TMonsterSkillUnit.cpp
	.686P
	.XMM
	include listing.inc
	.model	flat

INCLUDELIB LIBCMT
INCLUDELIB OLDNAMES

PUBLIC	?s_bDataLoad@TMonsterSkillUnit@@2HA		; TMonsterSkillUnit::s_bDataLoad
_BSS	SEGMENT
?s_bDataLoad@TMonsterSkillUnit@@2HA DD 01H DUP (?)	; TMonsterSkillUnit::s_bDataLoad
_BSS	ENDS
PUBLIC	?Reset@TMonsterSkillUnit@@QAEXXZ		; TMonsterSkillUnit::Reset
PUBLIC	??_7TMonsterSkillUnit@@6B@			; TMonsterSkillUnit::`vftable'
PUBLIC	??0TMonsterSkillUnit@@QAE@XZ			; TMonsterSkillUnit::TMonsterSkillUnit
PUBLIC	??_R4TMonsterSkillUnit@@6B@			; TMonsterSkillUnit::`RTTI Complete Object Locator'
PUBLIC	??_R0?AVTMonsterSkillUnit@@@8			; TMonsterSkillUnit `RTTI Type Descriptor'
PUBLIC	??_R3TMonsterSkillUnit@@8			; TMonsterSkillUnit::`RTTI Class Hierarchy Descriptor'
PUBLIC	??_R2TMonsterSkillUnit@@8			; TMonsterSkillUnit::`RTTI Base Class Array'
PUBLIC	??_R1A@?0A@EA@TMonsterSkillUnit@@8		; TMonsterSkillUnit::`RTTI Base Class Descriptor at (0,-1,0,64)'
PUBLIC	??_R13?0A@EA@TSkillUnit@@8			; TSkillUnit::`RTTI Base Class Descriptor at (4,-1,0,64)'
PUBLIC	??_R0?AVTSkillUnit@@@8				; TSkillUnit `RTTI Type Descriptor'
PUBLIC	??_R3TSkillUnit@@8				; TSkillUnit::`RTTI Class Hierarchy Descriptor'
PUBLIC	??_R2TSkillUnit@@8				; TSkillUnit::`RTTI Base Class Array'
PUBLIC	??_R1A@?0A@EA@TSkillUnit@@8			; TSkillUnit::`RTTI Base Class Descriptor at (0,-1,0,64)'
EXTRN	??_7type_info@@6B@:QWORD			; type_info::`vftable'
EXTRN	??_ETMonsterSkillUnit@@UAEPAXI@Z:PROC		; TMonsterSkillUnit::`vector deleting destructor'
;	COMDAT ??_R1A@?0A@EA@TSkillUnit@@8
; File d:\projects\exteam6.3\source\gameserver\gameserver\tmonsterskillunit.cpp
rdata$r	SEGMENT
??_R1A@?0A@EA@TSkillUnit@@8 DD FLAT:??_R0?AVTSkillUnit@@@8 ; TSkillUnit::`RTTI Base Class Descriptor at (0,-1,0,64)'
	DD	00H
	DD	00H
	DD	0ffffffffH
	DD	00H
	DD	040H
	DD	FLAT:??_R3TSkillUnit@@8
rdata$r	ENDS
;	COMDAT ??_R2TSkillUnit@@8
rdata$r	SEGMENT
??_R2TSkillUnit@@8 DD FLAT:??_R1A@?0A@EA@TSkillUnit@@8	; TSkillUnit::`RTTI Base Class Array'
rdata$r	ENDS
;	COMDAT ??_R3TSkillUnit@@8
rdata$r	SEGMENT
??_R3TSkillUnit@@8 DD 00H				; TSkillUnit::`RTTI Class Hierarchy Descriptor'
	DD	00H
	DD	01H
	DD	FLAT:??_R2TSkillUnit@@8
rdata$r	ENDS
;	COMDAT ??_R0?AVTSkillUnit@@@8
_DATA	SEGMENT
??_R0?AVTSkillUnit@@@8 DD FLAT:??_7type_info@@6B@	; TSkillUnit `RTTI Type Descriptor'
	DD	00H
	DB	'.?AVTSkillUnit@@', 00H
_DATA	ENDS
;	COMDAT ??_R13?0A@EA@TSkillUnit@@8
rdata$r	SEGMENT
??_R13?0A@EA@TSkillUnit@@8 DD FLAT:??_R0?AVTSkillUnit@@@8 ; TSkillUnit::`RTTI Base Class Descriptor at (4,-1,0,64)'
	DD	00H
	DD	04H
	DD	0ffffffffH
	DD	00H
	DD	040H
	DD	FLAT:??_R3TSkillUnit@@8
rdata$r	ENDS
;	COMDAT ??_R1A@?0A@EA@TMonsterSkillUnit@@8
rdata$r	SEGMENT
??_R1A@?0A@EA@TMonsterSkillUnit@@8 DD FLAT:??_R0?AVTMonsterSkillUnit@@@8 ; TMonsterSkillUnit::`RTTI Base Class Descriptor at (0,-1,0,64)'
	DD	01H
	DD	00H
	DD	0ffffffffH
	DD	00H
	DD	040H
	DD	FLAT:??_R3TMonsterSkillUnit@@8
rdata$r	ENDS
;	COMDAT ??_R2TMonsterSkillUnit@@8
rdata$r	SEGMENT
??_R2TMonsterSkillUnit@@8 DD FLAT:??_R1A@?0A@EA@TMonsterSkillUnit@@8 ; TMonsterSkillUnit::`RTTI Base Class Array'
	DD	FLAT:??_R13?0A@EA@TSkillUnit@@8
rdata$r	ENDS
;	COMDAT ??_R3TMonsterSkillUnit@@8
rdata$r	SEGMENT
??_R3TMonsterSkillUnit@@8 DD 00H			; TMonsterSkillUnit::`RTTI Class Hierarchy Descriptor'
	DD	00H
	DD	02H
	DD	FLAT:??_R2TMonsterSkillUnit@@8
rdata$r	ENDS
;	COMDAT ??_R0?AVTMonsterSkillUnit@@@8
_DATA	SEGMENT
??_R0?AVTMonsterSkillUnit@@@8 DD FLAT:??_7type_info@@6B@ ; TMonsterSkillUnit `RTTI Type Descriptor'
	DD	00H
	DB	'.?AVTMonsterSkillUnit@@', 00H
_DATA	ENDS
;	COMDAT ??_R4TMonsterSkillUnit@@6B@
rdata$r	SEGMENT
??_R4TMonsterSkillUnit@@6B@ DD 00H			; TMonsterSkillUnit::`RTTI Complete Object Locator'
	DD	00H
	DD	00H
	DD	FLAT:??_R0?AVTMonsterSkillUnit@@@8
	DD	FLAT:??_R3TMonsterSkillUnit@@8
rdata$r	ENDS
;	COMDAT ??_7TMonsterSkillUnit@@6B@
CONST	SEGMENT
??_7TMonsterSkillUnit@@6B@ DD FLAT:??_R4TMonsterSkillUnit@@6B@ ; TMonsterSkillUnit::`vftable'
	DD	FLAT:??_ETMonsterSkillUnit@@UAEPAXI@Z
; Function compile flags: /Odtp /ZI
CONST	ENDS
_TEXT	SEGMENT
_this$ = -4						; size = 4
??0TMonsterSkillUnit@@QAE@XZ PROC			; TMonsterSkillUnit::TMonsterSkillUnit
; _this$ = ecx

; 21   : {

  00000	55		 push	 ebp
  00001	8b ec		 mov	 ebp, esp
  00003	83 ec 44	 sub	 esp, 68			; 00000044H
  00006	53		 push	 ebx
  00007	56		 push	 esi
  00008	57		 push	 edi
  00009	89 4d fc	 mov	 DWORD PTR _this$[ebp], ecx
  0000c	8b 45 fc	 mov	 eax, DWORD PTR _this$[ebp]
  0000f	c7 00 00 00 00
	00		 mov	 DWORD PTR [eax], OFFSET ??_7TMonsterSkillUnit@@6B@

; 22   : 	this->Reset();

  00015	8b 4d fc	 mov	 ecx, DWORD PTR _this$[ebp]
  00018	e8 00 00 00 00	 call	 ?Reset@TMonsterSkillUnit@@QAEXXZ ; TMonsterSkillUnit::Reset

; 23   : }

  0001d	8b 45 fc	 mov	 eax, DWORD PTR _this$[ebp]
  00020	5f		 pop	 edi
  00021	5e		 pop	 esi
  00022	5b		 pop	 ebx
  00023	8b e5		 mov	 esp, ebp
  00025	5d		 pop	 ebp
  00026	c3		 ret	 0
??0TMonsterSkillUnit@@QAE@XZ ENDP			; TMonsterSkillUnit::TMonsterSkillUnit
_TEXT	ENDS
PUBLIC	??1TMonsterSkillUnit@@UAE@XZ			; TMonsterSkillUnit::~TMonsterSkillUnit
EXTRN	??3@YAXPAX@Z:PROC				; operator delete
; Function compile flags: /Odtp /ZI
;	COMDAT ??_GTMonsterSkillUnit@@UAEPAXI@Z
_TEXT	SEGMENT
_this$ = -4						; size = 4
___flags$ = 8						; size = 4
??_GTMonsterSkillUnit@@UAEPAXI@Z PROC			; TMonsterSkillUnit::`scalar deleting destructor', COMDAT
; _this$ = ecx
  00000	55		 push	 ebp
  00001	8b ec		 mov	 ebp, esp
  00003	83 ec 44	 sub	 esp, 68			; 00000044H
  00006	53		 push	 ebx
  00007	56		 push	 esi
  00008	57		 push	 edi
  00009	89 4d fc	 mov	 DWORD PTR _this$[ebp], ecx
  0000c	8b 4d fc	 mov	 ecx, DWORD PTR _this$[ebp]
  0000f	e8 00 00 00 00	 call	 ??1TMonsterSkillUnit@@UAE@XZ ; TMonsterSkillUnit::~TMonsterSkillUnit
  00014	8b 45 08	 mov	 eax, DWORD PTR ___flags$[ebp]
  00017	83 e0 01	 and	 eax, 1
  0001a	74 0c		 je	 SHORT $LN1@scalar
  0001c	8b 45 fc	 mov	 eax, DWORD PTR _this$[ebp]
  0001f	50		 push	 eax
  00020	e8 00 00 00 00	 call	 ??3@YAXPAX@Z		; operator delete
  00025	83 c4 04	 add	 esp, 4
$LN1@scalar:
  00028	8b 45 fc	 mov	 eax, DWORD PTR _this$[ebp]
  0002b	5f		 pop	 edi
  0002c	5e		 pop	 esi
  0002d	5b		 pop	 ebx
  0002e	8b e5		 mov	 esp, ebp
  00030	5d		 pop	 ebp
  00031	c2 04 00	 ret	 4
??_GTMonsterSkillUnit@@UAEPAXI@Z ENDP			; TMonsterSkillUnit::`scalar deleting destructor'
; Function compile flags: /Odtp /ZI
_TEXT	ENDS
_TEXT	SEGMENT
_this$ = -4						; size = 4
??1TMonsterSkillUnit@@UAE@XZ PROC			; TMonsterSkillUnit::~TMonsterSkillUnit
; _this$ = ecx

; 26   : {

  00030	55		 push	 ebp
  00031	8b ec		 mov	 ebp, esp
  00033	83 ec 44	 sub	 esp, 68			; 00000044H
  00036	53		 push	 ebx
  00037	56		 push	 esi
  00038	57		 push	 edi
  00039	89 4d fc	 mov	 DWORD PTR _this$[ebp], ecx
  0003c	8b 45 fc	 mov	 eax, DWORD PTR _this$[ebp]
  0003f	c7 00 00 00 00
	00		 mov	 DWORD PTR [eax], OFFSET ??_7TMonsterSkillUnit@@6B@

; 27   : 	return;
; 28   : }

  00045	5f		 pop	 edi
  00046	5e		 pop	 esi
  00047	5b		 pop	 ebx
  00048	8b e5		 mov	 esp, ebp
  0004a	5d		 pop	 ebp
  0004b	c3		 ret	 0
??1TMonsterSkillUnit@@UAE@XZ ENDP			; TMonsterSkillUnit::~TMonsterSkillUnit
_TEXT	ENDS
EXTRN	_memset:PROC
; Function compile flags: /Odtp /ZI
_TEXT	SEGMENT
_i$204740 = -8						; size = 4
_this$ = -4						; size = 4
?Reset@TMonsterSkillUnit@@QAEXXZ PROC			; TMonsterSkillUnit::Reset
; _this$ = ecx

; 32   : {

  00050	55		 push	 ebp
  00051	8b ec		 mov	 ebp, esp
  00053	83 ec 48	 sub	 esp, 72			; 00000048H
  00056	53		 push	 ebx
  00057	56		 push	 esi
  00058	57		 push	 edi
  00059	89 4d fc	 mov	 DWORD PTR _this$[ebp], ecx

; 33   : 	this->m_iUnitTargetType = -1;

  0005c	8b 45 fc	 mov	 eax, DWORD PTR _this$[ebp]
  0005f	c7 40 1c ff ff
	ff ff		 mov	 DWORD PTR [eax+28], -1

; 34   : 	this->m_iUnitScopeType = -1;

  00066	8b 45 fc	 mov	 eax, DWORD PTR _this$[ebp]
  00069	c7 40 20 ff ff
	ff ff		 mov	 DWORD PTR [eax+32], -1

; 35   : 	this->m_iUnitScopeValue = -1;

  00070	8b 45 fc	 mov	 eax, DWORD PTR _this$[ebp]
  00073	c7 40 24 ff ff
	ff ff		 mov	 DWORD PTR [eax+36], -1

; 36   : 	this->m_iDelay = -1;

  0007a	8b 45 fc	 mov	 eax, DWORD PTR _this$[ebp]
  0007d	c7 40 28 ff ff
	ff ff		 mov	 DWORD PTR [eax+40], -1

; 37   : 	this->m_iUnitNumber = -1;

  00084	8b 45 fc	 mov	 eax, DWORD PTR _this$[ebp]
  00087	c7 40 18 ff ff
	ff ff		 mov	 DWORD PTR [eax+24], -1

; 38   : 	memset(this->m_szUnitName, 0, sizeof(this->m_szUnitName));

  0008e	6a 14		 push	 20			; 00000014H
  00090	6a 00		 push	 0
  00092	8b 45 fc	 mov	 eax, DWORD PTR _this$[ebp]
  00095	83 c0 04	 add	 eax, 4
  00098	50		 push	 eax
  00099	e8 00 00 00 00	 call	 _memset
  0009e	83 c4 0c	 add	 esp, 12			; 0000000cH

; 39   : 	this->m_iElementsCount = -1;

  000a1	8b 45 fc	 mov	 eax, DWORD PTR _this$[ebp]
  000a4	c7 40 2c ff ff
	ff ff		 mov	 DWORD PTR [eax+44], -1

; 40   : 
; 41   : 	for (int i=0;i<5;i++)

  000ab	c7 45 f8 00 00
	00 00		 mov	 DWORD PTR _i$204740[ebp], 0
  000b2	eb 09		 jmp	 SHORT $LN3@Reset
$LN2@Reset:
  000b4	8b 45 f8	 mov	 eax, DWORD PTR _i$204740[ebp]
  000b7	83 c0 01	 add	 eax, 1
  000ba	89 45 f8	 mov	 DWORD PTR _i$204740[ebp], eax
$LN3@Reset:
  000bd	83 7d f8 05	 cmp	 DWORD PTR _i$204740[ebp], 5
  000c1	7d 10		 jge	 SHORT $LN4@Reset

; 42   : 	{
; 43   : 		this->m_lpElementsSlot[i] = NULL;

  000c3	8b 45 f8	 mov	 eax, DWORD PTR _i$204740[ebp]
  000c6	8b 4d fc	 mov	 ecx, DWORD PTR _this$[ebp]
  000c9	c7 44 81 30 00
	00 00 00	 mov	 DWORD PTR [ecx+eax*4+48], 0

; 44   : 	}

  000d1	eb e1		 jmp	 SHORT $LN2@Reset
$LN4@Reset:

; 45   : }

  000d3	5f		 pop	 edi
  000d4	5e		 pop	 esi
  000d5	5b		 pop	 ebx
  000d6	8b e5		 mov	 esp, ebp
  000d8	5d		 pop	 ebp
  000d9	c3		 ret	 0
?Reset@TMonsterSkillUnit@@QAEXXZ ENDP			; TMonsterSkillUnit::Reset
_TEXT	ENDS
PUBLIC	??_C@_0DL@OOGJKOMD@?$FLMonster?5Skill?5Unit?$FN?5?9?5Loading?5E@ ; `string'
PUBLIC	??_C@_0CJ@ODDJOAOF@?$FLMonster?5Skill?5Unit?$FN?5?9?5?$CFs?5file?5i@ ; `string'
PUBLIC	??_C@_0DD@HAEDKJID@?$FLMonster?5Skill?5Unit?$FN?5?9?5Not?5Found@ ; `string'
PUBLIC	??_C@_0DD@HMCEGHBH@?$FLMonster?5Skill?5Unit?$FN?5?9?5Found?5Ski@ ; `string'
PUBLIC	?GetElementName@TMonsterSkillElement@@QAEPADXZ	; TMonsterSkillElement::GetElementName
PUBLIC	??_C@_0FG@GEINPOHG@?$KB?ZNum?3?$CFd?0Name?3?$CFs?0TType?3?$CFd?0SType?3@ ; `string'
PUBLIC	??_C@_0DB@DEDEIALP@?$FLMonster?5SkillUnit?$FN?5?9?5Unit?$CI?$CFd?$CJ?5E@ ; `string'
PUBLIC	??_C@_03JBJLGPFL@end?$AA@			; `string'
PUBLIC	?DelAllSkillUnit@TMonsterSkillUnit@@SAHXZ	; TMonsterSkillUnit::DelAllSkillUnit
PUBLIC	??_C@_0CG@GBNGOID@?$FLMonster?5Skill?5Unit?$FN?5?9?5Can?8t?5Ope@ ; `string'
PUBLIC	??_C@_01KDCPPGHE@r?$AA@				; `string'
PUBLIC	??_C@_0DJ@PCBEFLCK@?$FLMonster?5Skill?5Unit?$FN?5?9?5File?5load@ ; `string'
PUBLIC	??_C@_00CNPNBAHC@?$AA@				; `string'
PUBLIC	__$ArrayPad$
PUBLIC	?LoadData@TMonsterSkillUnit@@SAHPAD@Z		; TMonsterSkillUnit::LoadData
EXTRN	_fclose:PROC
EXTRN	?LogAddC@@3P6AXEPADZZA:DWORD			; LogAddC
EXTRN	?FindSkillElement@TMonsterSkillElement@@SAPAV1@H@Z:PROC ; TMonsterSkillElement::FindSkillElement
EXTRN	__imp__OutputDebugStringA@4:PROC
EXTRN	__imp__wsprintfA:PROC
EXTRN	_memcpy:PROC
EXTRN	_fopen:PROC
EXTRN	?MsgBox@@YAXPADZZ:PROC				; MsgBox
EXTRN	_strcmp:PROC
EXTRN	___security_cookie:DWORD
EXTRN	___CxxFrameHandler3:PROC
EXTRN	@__security_check_cookie@4:PROC
EXTRN	_memset:PROC
EXTRN	__ftol2_sse:PROC
_BSS	SEGMENT
_TokenString DB	064H DUP (?)
_TokenNumber DD	01H DUP (?)
_SMDFile DD	01H DUP (?)
_BSS	ENDS
;	COMDAT ??_C@_0DL@OOGJKOMD@?$FLMonster?5Skill?5Unit?$FN?5?9?5Loading?5E@
CONST	SEGMENT
??_C@_0DL@OOGJKOMD@?$FLMonster?5Skill?5Unit?$FN?5?9?5Loading?5E@ DB '[Mon'
	DB	'ster Skill Unit] - Loading Exception Error (%s) File. ', 00H ; `string'
CONST	ENDS
;	COMDAT ??_C@_0CJ@ODDJOAOF@?$FLMonster?5Skill?5Unit?$FN?5?9?5?$CFs?5file?5i@
CONST	SEGMENT
??_C@_0CJ@ODDJOAOF@?$FLMonster?5Skill?5Unit?$FN?5?9?5?$CFs?5file?5i@ DB '['
	DB	'Monster Skill Unit] - %s file is Loaded', 00H ; `string'
CONST	ENDS
;	COMDAT ??_C@_0DD@HAEDKJID@?$FLMonster?5Skill?5Unit?$FN?5?9?5Not?5Found@
CONST	SEGMENT
??_C@_0DD@HAEDKJID@?$FLMonster?5Skill?5Unit?$FN?5?9?5Not?5Found@ DB '[Mon'
	DB	'ster Skill Unit] - Not Found SkillElement (%d)', 00H ; `string'
CONST	ENDS
;	COMDAT ??_C@_0DD@HMCEGHBH@?$FLMonster?5Skill?5Unit?$FN?5?9?5Found?5Ski@
CONST	SEGMENT
??_C@_0DD@HMCEGHBH@?$FLMonster?5Skill?5Unit?$FN?5?9?5Found?5Ski@ DB '[Mon'
	DB	'ster Skill Unit] - Found SkillElement (%d)(%s)', 00H ; `string'
CONST	ENDS
;	COMDAT ??_C@_0FG@GEINPOHG@?$KB?ZNum?3?$CFd?0Name?3?$CFs?0TType?3?$CFd?0SType?3@
CONST	SEGMENT
??_C@_0FG@GEINPOHG@?$KB?ZNum?3?$CFd?0Name?3?$CFs?0TType?3?$CFd?0SType?3@ DB 0a1H
	DB	0daH, 'Num:%d,Name:%s,TType:%d,SType:%d,SValue:%d,Delay:%d, E0'
	DB	':%d,E1:%d,E2:%d,E3:%d,E4:%d', 0aH, 00H	; `string'
CONST	ENDS
;	COMDAT ??_C@_0DB@DEDEIALP@?$FLMonster?5SkillUnit?$FN?5?9?5Unit?$CI?$CFd?$CJ?5E@
CONST	SEGMENT
??_C@_0DB@DEDEIALP@?$FLMonster?5SkillUnit?$FN?5?9?5Unit?$CI?$CFd?$CJ?5E@ DB '['
	DB	'Monster SkillUnit] - Unit(%d) Error (%s) File. ', 00H ; `string'
CONST	ENDS
;	COMDAT ??_C@_03JBJLGPFL@end?$AA@
CONST	SEGMENT
??_C@_03JBJLGPFL@end?$AA@ DB 'end', 00H			; `string'
CONST	ENDS
;	COMDAT ??_C@_0CG@GBNGOID@?$FLMonster?5Skill?5Unit?$FN?5?9?5Can?8t?5Ope@
CONST	SEGMENT
??_C@_0CG@GBNGOID@?$FLMonster?5Skill?5Unit?$FN?5?9?5Can?8t?5Ope@ DB '[Mon'
	DB	'ster Skill Unit] - Can''t Open %s ', 00H	; `string'
CONST	ENDS
;	COMDAT ??_C@_01KDCPPGHE@r?$AA@
CONST	SEGMENT
??_C@_01KDCPPGHE@r?$AA@ DB 'r', 00H			; `string'
CONST	ENDS
;	COMDAT ??_C@_0DJ@PCBEFLCK@?$FLMonster?5Skill?5Unit?$FN?5?9?5File?5load@
CONST	SEGMENT
??_C@_0DJ@PCBEFLCK@?$FLMonster?5Skill?5Unit?$FN?5?9?5File?5load@ DB '[Mon'
	DB	'ster Skill Unit] - File load error : File Name Error', 00H ; `string'
CONST	ENDS
;	COMDAT ??_C@_00CNPNBAHC@?$AA@
CONST	SEGMENT
??_C@_00CNPNBAHC@?$AA@ DB 00H				; `string'
CONST	ENDS
xdata$x	SEGMENT
__catchsym$?LoadData@TMonsterSkillUnit@@SAHPAD@Z$2 DD 040H
	DD	00H
	DD	00H
	DD	FLAT:__catch$?LoadData@TMonsterSkillUnit@@SAHPAD@Z$0
__unwindtable$?LoadData@TMonsterSkillUnit@@SAHPAD@Z DD 0ffffffffH
	DD	00H
	DD	0ffffffffH
	DD	00H
__tryblocktable$?LoadData@TMonsterSkillUnit@@SAHPAD@Z DD 00H
	DD	00H
	DD	01H
	DD	01H
	DD	FLAT:__catchsym$?LoadData@TMonsterSkillUnit@@SAHPAD@Z$2
__ehfuncinfo$?LoadData@TMonsterSkillUnit@@SAHPAD@Z DD 019930522H
	DD	02H
	DD	FLAT:__unwindtable$?LoadData@TMonsterSkillUnit@@SAHPAD@Z
	DD	01H
	DD	FLAT:__tryblocktable$?LoadData@TMonsterSkillUnit@@SAHPAD@Z
	DD	2 DUP(00H)
	DD	00H
	DD	01H
; Function compile flags: /Odtp /ZI
xdata$x	ENDS
_TEXT	SEGMENT
tv233 = -376						; size = 4
tv232 = -376						; size = 4
tv231 = -376						; size = 4
tv230 = -376						; size = 4
tv229 = -376						; size = 4
tv228 = -376						; size = 4
tv227 = -376						; size = 4
tv226 = -376						; size = 4
tv225 = -376						; size = 4
tv224 = -376						; size = 4
_pMonsterSkillElement$204804 = -308			; size = 4
_iElement$204802 = -304					; size = 4
_i$204798 = -300					; size = 4
_szMsg$204796 = -296					; size = 200
_i$204787 = -96						; size = 4
_iElementsSlot$204773 = -92				; size = 20
_iElementCount$204772 = -72				; size = 4
_iDelay$204771 = -68					; size = 4
_iUnitScopeValue$204770 = -64				; size = 4
_iUnitScopeType$204769 = -60				; size = 4
_iUnitTargetType$204768 = -56				; size = 4
_iUnitNumber$204767 = -52				; size = 4
_szUnitName$204766 = -48				; size = 20
_iType$204755 = -28					; size = 4
_Token$204751 = -24					; size = 4
__$ArrayPad$ = -20					; size = 4
__$EHRec$ = -16						; size = 16
_lpszFileName$ = 8					; size = 4
?LoadData@TMonsterSkillUnit@@SAHPAD@Z PROC		; TMonsterSkillUnit::LoadData

; 52   : {

  000e0	55		 push	 ebp
  000e1	8b ec		 mov	 ebp, esp
  000e3	6a ff		 push	 -1
  000e5	68 00 00 00 00	 push	 __ehhandler$?LoadData@TMonsterSkillUnit@@SAHPAD@Z
  000ea	64 a1 00 00 00
	00		 mov	 eax, DWORD PTR fs:0
  000f0	50		 push	 eax
  000f1	51		 push	 ecx
  000f2	81 ec 68 01 00
	00		 sub	 esp, 360		; 00000168H
  000f8	a1 00 00 00 00	 mov	 eax, DWORD PTR ___security_cookie
  000fd	33 c5		 xor	 eax, ebp
  000ff	89 45 ec	 mov	 DWORD PTR __$ArrayPad$[ebp], eax
  00102	53		 push	 ebx
  00103	56		 push	 esi
  00104	57		 push	 edi
  00105	50		 push	 eax
  00106	8d 45 f4	 lea	 eax, DWORD PTR __$EHRec$[ebp+4]
  00109	64 a3 00 00 00
	00		 mov	 DWORD PTR fs:0, eax
  0010f	89 65 f0	 mov	 DWORD PTR __$EHRec$[ebp], esp

; 53   : 	TMonsterSkillUnit::s_bDataLoad = FALSE;

  00112	c7 05 00 00 00
	00 00 00 00 00	 mov	 DWORD PTR ?s_bDataLoad@TMonsterSkillUnit@@2HA, 0 ; TMonsterSkillUnit::s_bDataLoad

; 54   : 
; 55   : 	if ( lpszFileName == NULL || strcmp(lpszFileName, "") == 0 )

  0011c	83 7d 08 00	 cmp	 DWORD PTR _lpszFileName$[ebp], 0
  00120	74 15		 je	 SHORT $LN21@LoadData
  00122	68 00 00 00 00	 push	 OFFSET ??_C@_00CNPNBAHC@?$AA@
  00127	8b 45 08	 mov	 eax, DWORD PTR _lpszFileName$[ebp]
  0012a	50		 push	 eax
  0012b	e8 00 00 00 00	 call	 _strcmp
  00130	83 c4 08	 add	 esp, 8
  00133	85 c0		 test	 eax, eax
  00135	75 14		 jne	 SHORT $LN22@LoadData
$LN21@LoadData:

; 56   : 	{
; 57   : 		MsgBox("[Monster Skill Unit] - File load error : File Name Error");

  00137	68 00 00 00 00	 push	 OFFSET ??_C@_0DJ@PCBEFLCK@?$FLMonster?5Skill?5Unit?$FN?5?9?5File?5load@
  0013c	e8 00 00 00 00	 call	 ?MsgBox@@YAXPADZZ	; MsgBox
  00141	83 c4 04	 add	 esp, 4

; 58   : 		return FALSE;

  00144	33 c0		 xor	 eax, eax
  00146	e9 65 04 00 00	 jmp	 $LN23@LoadData
$LN22@LoadData:

; 59   : 	}
; 60   : 
; 61   : 	try
; 62   : 	{

  0014b	c7 45 fc 00 00
	00 00		 mov	 DWORD PTR __$EHRec$[ebp+12], 0

; 63   : 		SMDToken Token;
; 64   : 		SMDFile = fopen(lpszFileName, "r");

  00152	68 00 00 00 00	 push	 OFFSET ??_C@_01KDCPPGHE@r?$AA@
  00157	8b 45 08	 mov	 eax, DWORD PTR _lpszFileName$[ebp]
  0015a	50		 push	 eax
  0015b	e8 00 00 00 00	 call	 _fopen
  00160	83 c4 08	 add	 esp, 8
  00163	a3 00 00 00 00	 mov	 DWORD PTR _SMDFile, eax

; 65   : 
; 66   : 		if ( SMDFile == NULL )

  00168	83 3d 00 00 00
	00 00		 cmp	 DWORD PTR _SMDFile, 0
  0016f	75 18		 jne	 SHORT $LN19@LoadData

; 67   : 		{
; 68   : 			MsgBox("[Monster Skill Unit] - Can't Open %s ", lpszFileName);

  00171	8b 45 08	 mov	 eax, DWORD PTR _lpszFileName$[ebp]
  00174	50		 push	 eax
  00175	68 00 00 00 00	 push	 OFFSET ??_C@_0CG@GBNGOID@?$FLMonster?5Skill?5Unit?$FN?5?9?5Can?8t?5Ope@
  0017a	e8 00 00 00 00	 call	 ?MsgBox@@YAXPADZZ	; MsgBox
  0017f	83 c4 08	 add	 esp, 8

; 69   : 			return FALSE;

  00182	33 c0		 xor	 eax, eax
  00184	e9 27 04 00 00	 jmp	 $LN23@LoadData
$LN19@LoadData:

; 70   : 		}
; 71   : 
; 72   : 
; 73   : 		TMonsterSkillUnit::DelAllSkillUnit();

  00189	e8 00 00 00 00	 call	 ?DelAllSkillUnit@TMonsterSkillUnit@@SAHXZ ; TMonsterSkillUnit::DelAllSkillUnit

; 74   : 		int iType = -1;

  0018e	c7 45 e4 ff ff
	ff ff		 mov	 DWORD PTR _iType$204755[ebp], -1
$LN18@LoadData:

; 75   : 
; 76   : 		while ( true )

  00195	b8 01 00 00 00	 mov	 eax, 1
  0019a	85 c0		 test	 eax, eax
  0019c	0f 84 b9 03 00
	00		 je	 $LN17@LoadData

; 77   : 		{
; 78   : 			Token = (SMDToken)GetToken();

  001a2	e8 00 00 00 00	 call	 ?GetToken@@YA?AW4SMDToken@@XZ ; GetToken
  001a7	89 85 88 fe ff
	ff		 mov	 DWORD PTR tv224[ebp], eax
  001ad	8b 85 88 fe ff
	ff		 mov	 eax, DWORD PTR tv224[ebp]
  001b3	89 45 e8	 mov	 DWORD PTR _Token$204751[ebp], eax

; 79   : 
; 80   : 			if ( Token == END )

  001b6	83 7d e8 02	 cmp	 DWORD PTR _Token$204751[ebp], 2
  001ba	75 05		 jne	 SHORT $LN16@LoadData

; 81   : 				break;

  001bc	e9 9a 03 00 00	 jmp	 $LN17@LoadData
$LN16@LoadData:

; 82   : 
; 83   : 			iType = (int)TokenNumber;

  001c1	d9 05 00 00 00
	00		 fld	 DWORD PTR _TokenNumber
  001c7	e8 00 00 00 00	 call	 __ftol2_sse
  001cc	89 45 e4	 mov	 DWORD PTR _iType$204755[ebp], eax
$LN15@LoadData:

; 84   : 
; 85   : 			while ( true )

  001cf	b8 01 00 00 00	 mov	 eax, 1
  001d4	85 c0		 test	 eax, eax
  001d6	0f 84 7a 03 00
	00		 je	 $LN14@LoadData

; 86   : 			{
; 87   : 				if ( iType == 0 )

  001dc	83 7d e4 00	 cmp	 DWORD PTR _iType$204755[ebp], 0
  001e0	0f 85 6b 03 00
	00		 jne	 $LN13@LoadData

; 88   : 				{
; 89   : 					char szUnitName[20] = {0};

  001e6	c6 45 d0 00	 mov	 BYTE PTR _szUnitName$204766[ebp], 0
  001ea	33 c0		 xor	 eax, eax
  001ec	89 45 d1	 mov	 DWORD PTR _szUnitName$204766[ebp+1], eax
  001ef	89 45 d5	 mov	 DWORD PTR _szUnitName$204766[ebp+5], eax
  001f2	89 45 d9	 mov	 DWORD PTR _szUnitName$204766[ebp+9], eax
  001f5	89 45 dd	 mov	 DWORD PTR _szUnitName$204766[ebp+13], eax
  001f8	66 89 45 e1	 mov	 WORD PTR _szUnitName$204766[ebp+17], ax
  001fc	88 45 e3	 mov	 BYTE PTR _szUnitName$204766[ebp+19], al

; 90   : 					int iUnitNumber = -1;

  001ff	c7 45 cc ff ff
	ff ff		 mov	 DWORD PTR _iUnitNumber$204767[ebp], -1

; 91   : 					int iUnitTargetType = -1;

  00206	c7 45 c8 ff ff
	ff ff		 mov	 DWORD PTR _iUnitTargetType$204768[ebp], -1

; 92   : 					int iUnitScopeType = -1;

  0020d	c7 45 c4 ff ff
	ff ff		 mov	 DWORD PTR _iUnitScopeType$204769[ebp], -1

; 93   : 					int iUnitScopeValue = -1;

  00214	c7 45 c0 ff ff
	ff ff		 mov	 DWORD PTR _iUnitScopeValue$204770[ebp], -1

; 94   : 					int iDelay = -1;

  0021b	c7 45 bc ff ff
	ff ff		 mov	 DWORD PTR _iDelay$204771[ebp], -1

; 95   : 					int iElementCount = 0;

  00222	c7 45 b8 00 00
	00 00		 mov	 DWORD PTR _iElementCount$204772[ebp], 0

; 96   : 					int iElementsSlot[5] = { -1};

  00229	c7 45 a4 ff ff
	ff ff		 mov	 DWORD PTR _iElementsSlot$204773[ebp], -1
  00230	33 c0		 xor	 eax, eax
  00232	89 45 a8	 mov	 DWORD PTR _iElementsSlot$204773[ebp+4], eax
  00235	89 45 ac	 mov	 DWORD PTR _iElementsSlot$204773[ebp+8], eax
  00238	89 45 b0	 mov	 DWORD PTR _iElementsSlot$204773[ebp+12], eax
  0023b	89 45 b4	 mov	 DWORD PTR _iElementsSlot$204773[ebp+16], eax

; 97   : 	
; 98   : 					Token = (SMDToken)GetToken();

  0023e	e8 00 00 00 00	 call	 ?GetToken@@YA?AW4SMDToken@@XZ ; GetToken
  00243	89 85 88 fe ff
	ff		 mov	 DWORD PTR tv225[ebp], eax
  00249	8b 85 88 fe ff
	ff		 mov	 eax, DWORD PTR tv225[ebp]
  0024f	89 45 e8	 mov	 DWORD PTR _Token$204751[ebp], eax

; 99   : 
; 100  : 					if ( strcmp("end", TokenString) == 0 )

  00252	68 00 00 00 00	 push	 OFFSET _TokenString
  00257	68 00 00 00 00	 push	 OFFSET ??_C@_03JBJLGPFL@end?$AA@
  0025c	e8 00 00 00 00	 call	 _strcmp
  00261	83 c4 08	 add	 esp, 8
  00264	85 c0		 test	 eax, eax
  00266	75 05		 jne	 SHORT $LN12@LoadData

; 101  : 						break;

  00268	e9 e9 02 00 00	 jmp	 $LN14@LoadData
$LN12@LoadData:

; 102  : 
; 103  : 					iUnitNumber = (int)TokenNumber;

  0026d	d9 05 00 00 00
	00		 fld	 DWORD PTR _TokenNumber
  00273	e8 00 00 00 00	 call	 __ftol2_sse
  00278	89 45 cc	 mov	 DWORD PTR _iUnitNumber$204767[ebp], eax

; 104  : 
; 105  : 					Token = (SMDToken)GetToken();

  0027b	e8 00 00 00 00	 call	 ?GetToken@@YA?AW4SMDToken@@XZ ; GetToken
  00280	89 85 88 fe ff
	ff		 mov	 DWORD PTR tv226[ebp], eax
  00286	8b 85 88 fe ff
	ff		 mov	 eax, DWORD PTR tv226[ebp]
  0028c	89 45 e8	 mov	 DWORD PTR _Token$204751[ebp], eax

; 106  : 					memcpy(szUnitName, TokenString, sizeof(szUnitName));

  0028f	6a 14		 push	 20			; 00000014H
  00291	68 00 00 00 00	 push	 OFFSET _TokenString
  00296	8d 45 d0	 lea	 eax, DWORD PTR _szUnitName$204766[ebp]
  00299	50		 push	 eax
  0029a	e8 00 00 00 00	 call	 _memcpy
  0029f	83 c4 0c	 add	 esp, 12			; 0000000cH

; 107  : 
; 108  : 					Token = (SMDToken)GetToken();

  002a2	e8 00 00 00 00	 call	 ?GetToken@@YA?AW4SMDToken@@XZ ; GetToken
  002a7	89 85 88 fe ff
	ff		 mov	 DWORD PTR tv227[ebp], eax
  002ad	8b 85 88 fe ff
	ff		 mov	 eax, DWORD PTR tv227[ebp]
  002b3	89 45 e8	 mov	 DWORD PTR _Token$204751[ebp], eax

; 109  : 					iUnitTargetType = (int)TokenNumber;

  002b6	d9 05 00 00 00
	00		 fld	 DWORD PTR _TokenNumber
  002bc	e8 00 00 00 00	 call	 __ftol2_sse
  002c1	89 45 c8	 mov	 DWORD PTR _iUnitTargetType$204768[ebp], eax

; 110  : 
; 111  : 					Token = (SMDToken)GetToken();

  002c4	e8 00 00 00 00	 call	 ?GetToken@@YA?AW4SMDToken@@XZ ; GetToken
  002c9	89 85 88 fe ff
	ff		 mov	 DWORD PTR tv228[ebp], eax
  002cf	8b 85 88 fe ff
	ff		 mov	 eax, DWORD PTR tv228[ebp]
  002d5	89 45 e8	 mov	 DWORD PTR _Token$204751[ebp], eax

; 112  : 					iUnitScopeType = (int)TokenNumber;

  002d8	d9 05 00 00 00
	00		 fld	 DWORD PTR _TokenNumber
  002de	e8 00 00 00 00	 call	 __ftol2_sse
  002e3	89 45 c4	 mov	 DWORD PTR _iUnitScopeType$204769[ebp], eax

; 113  : 
; 114  : 					Token = (SMDToken)GetToken();

  002e6	e8 00 00 00 00	 call	 ?GetToken@@YA?AW4SMDToken@@XZ ; GetToken
  002eb	89 85 88 fe ff
	ff		 mov	 DWORD PTR tv229[ebp], eax
  002f1	8b 85 88 fe ff
	ff		 mov	 eax, DWORD PTR tv229[ebp]
  002f7	89 45 e8	 mov	 DWORD PTR _Token$204751[ebp], eax

; 115  : 					iUnitScopeValue = (int)TokenNumber;

  002fa	d9 05 00 00 00
	00		 fld	 DWORD PTR _TokenNumber
  00300	e8 00 00 00 00	 call	 __ftol2_sse
  00305	89 45 c0	 mov	 DWORD PTR _iUnitScopeValue$204770[ebp], eax

; 116  : 
; 117  : 					Token = (SMDToken)GetToken();

  00308	e8 00 00 00 00	 call	 ?GetToken@@YA?AW4SMDToken@@XZ ; GetToken
  0030d	89 85 88 fe ff
	ff		 mov	 DWORD PTR tv230[ebp], eax
  00313	8b 85 88 fe ff
	ff		 mov	 eax, DWORD PTR tv230[ebp]
  00319	89 45 e8	 mov	 DWORD PTR _Token$204751[ebp], eax

; 118  : 					iDelay = (int)TokenNumber;

  0031c	d9 05 00 00 00
	00		 fld	 DWORD PTR _TokenNumber
  00322	e8 00 00 00 00	 call	 __ftol2_sse
  00327	89 45 bc	 mov	 DWORD PTR _iDelay$204771[ebp], eax

; 119  : 
; 120  : 					for ( int i=0;i<5;i++)

  0032a	c7 45 a0 00 00
	00 00		 mov	 DWORD PTR _i$204787[ebp], 0
  00331	eb 09		 jmp	 SHORT $LN11@LoadData
$LN10@LoadData:
  00333	8b 45 a0	 mov	 eax, DWORD PTR _i$204787[ebp]
  00336	83 c0 01	 add	 eax, 1
  00339	89 45 a0	 mov	 DWORD PTR _i$204787[ebp], eax
$LN11@LoadData:
  0033c	83 7d a0 05	 cmp	 DWORD PTR _i$204787[ebp], 5
  00340	7d 28		 jge	 SHORT $LN9@LoadData

; 121  : 					{
; 122  : 						Token = (SMDToken)GetToken();

  00342	e8 00 00 00 00	 call	 ?GetToken@@YA?AW4SMDToken@@XZ ; GetToken
  00347	89 85 88 fe ff
	ff		 mov	 DWORD PTR tv231[ebp], eax
  0034d	8b 85 88 fe ff
	ff		 mov	 eax, DWORD PTR tv231[ebp]
  00353	89 45 e8	 mov	 DWORD PTR _Token$204751[ebp], eax

; 123  : 						iElementsSlot[i] = (int)TokenNumber;

  00356	d9 05 00 00 00
	00		 fld	 DWORD PTR _TokenNumber
  0035c	e8 00 00 00 00	 call	 __ftol2_sse
  00361	8b 4d a0	 mov	 ecx, DWORD PTR _i$204787[ebp]
  00364	89 44 8d a4	 mov	 DWORD PTR _iElementsSlot$204773[ebp+ecx*4], eax

; 124  : 					}

  00368	eb c9		 jmp	 SHORT $LN10@LoadData
$LN9@LoadData:

; 125  : 
; 126  : 					if ( iUnitNumber < 0 || iUnitNumber >= MAX_MONSTER_SKILL_UNIT_ARRAY )

  0036a	83 7d cc 00	 cmp	 DWORD PTR _iUnitNumber$204767[ebp], 0
  0036e	7c 09		 jl	 SHORT $LN7@LoadData
  00370	81 7d cc c8 00
	00 00		 cmp	 DWORD PTR _iUnitNumber$204767[ebp], 200 ; 000000c8H
  00377	7c 1a		 jl	 SHORT $LN8@LoadData
$LN7@LoadData:

; 127  : 					{
; 128  : 						MsgBox("[Monster SkillUnit] - Unit(%d) Error (%s) File. "
; 129  : 							,iUnitNumber , lpszFileName);

  00379	8b 45 08	 mov	 eax, DWORD PTR _lpszFileName$[ebp]
  0037c	50		 push	 eax
  0037d	8b 4d cc	 mov	 ecx, DWORD PTR _iUnitNumber$204767[ebp]
  00380	51		 push	 ecx
  00381	68 00 00 00 00	 push	 OFFSET ??_C@_0DB@DEDEIALP@?$FLMonster?5SkillUnit?$FN?5?9?5Unit?$CI?$CFd?$CJ?5E@
  00386	e8 00 00 00 00	 call	 ?MsgBox@@YAXPADZZ	; MsgBox
  0038b	83 c4 0c	 add	 esp, 12			; 0000000cH

; 130  : 						continue;

  0038e	e9 3c fe ff ff	 jmp	 $LN15@LoadData
$LN8@LoadData:

; 131  : 					}
; 132  : 
; 133  : 					char szMsg[200] = {0};

  00393	c6 85 d8 fe ff
	ff 00		 mov	 BYTE PTR _szMsg$204796[ebp], 0
  0039a	68 c7 00 00 00	 push	 199			; 000000c7H
  0039f	6a 00		 push	 0
  003a1	8d 85 d9 fe ff
	ff		 lea	 eax, DWORD PTR _szMsg$204796[ebp+1]
  003a7	50		 push	 eax
  003a8	e8 00 00 00 00	 call	 _memset
  003ad	83 c4 0c	 add	 esp, 12			; 0000000cH

; 134  : 
; 135  : 					wsprintf(szMsg, "¡ÚNum:%d,Name:%s,TType:%d,SType:%d,SValue:%d,Delay:%d, E0:%d,E1:%d,E2:%d,E3:%d,E4:%d\n",
; 136  : 						iUnitNumber, szUnitName, iUnitTargetType, iUnitScopeType, iUnitScopeValue, iDelay,
; 137  : 						iElementsSlot[0], iElementsSlot[1], iElementsSlot[2], iElementsSlot[3], iElementsSlot[4]);

  003b0	8b 45 b4	 mov	 eax, DWORD PTR _iElementsSlot$204773[ebp+16]
  003b3	50		 push	 eax
  003b4	8b 4d b0	 mov	 ecx, DWORD PTR _iElementsSlot$204773[ebp+12]
  003b7	51		 push	 ecx
  003b8	8b 55 ac	 mov	 edx, DWORD PTR _iElementsSlot$204773[ebp+8]
  003bb	52		 push	 edx
  003bc	8b 45 a8	 mov	 eax, DWORD PTR _iElementsSlot$204773[ebp+4]
  003bf	50		 push	 eax
  003c0	8b 4d a4	 mov	 ecx, DWORD PTR _iElementsSlot$204773[ebp]
  003c3	51		 push	 ecx
  003c4	8b 55 bc	 mov	 edx, DWORD PTR _iDelay$204771[ebp]
  003c7	52		 push	 edx
  003c8	8b 45 c0	 mov	 eax, DWORD PTR _iUnitScopeValue$204770[ebp]
  003cb	50		 push	 eax
  003cc	8b 4d c4	 mov	 ecx, DWORD PTR _iUnitScopeType$204769[ebp]
  003cf	51		 push	 ecx
  003d0	8b 55 c8	 mov	 edx, DWORD PTR _iUnitTargetType$204768[ebp]
  003d3	52		 push	 edx
  003d4	8d 45 d0	 lea	 eax, DWORD PTR _szUnitName$204766[ebp]
  003d7	50		 push	 eax
  003d8	8b 4d cc	 mov	 ecx, DWORD PTR _iUnitNumber$204767[ebp]
  003db	51		 push	 ecx
  003dc	68 00 00 00 00	 push	 OFFSET ??_C@_0FG@GEINPOHG@?$KB?ZNum?3?$CFd?0Name?3?$CFs?0TType?3?$CFd?0SType?3@
  003e1	8d 95 d8 fe ff
	ff		 lea	 edx, DWORD PTR _szMsg$204796[ebp]
  003e7	52		 push	 edx
  003e8	ff 15 00 00 00
	00		 call	 DWORD PTR __imp__wsprintfA
  003ee	83 c4 34	 add	 esp, 52			; 00000034H

; 138  : 
; 139  : 					OutputDebugString(szMsg);

  003f1	8d 85 d8 fe ff
	ff		 lea	 eax, DWORD PTR _szMsg$204796[ebp]
  003f7	50		 push	 eax
  003f8	ff 15 00 00 00
	00		 call	 DWORD PTR __imp__OutputDebugStringA@4

; 140  : 
; 141  : 					TMonsterSkillUnit::s_MonsterSkillUnitArray[iUnitNumber].m_iUnitNumber = iUnitNumber;

  003fe	8b 45 cc	 mov	 eax, DWORD PTR _iUnitNumber$204767[ebp]
  00401	6b c0 44	 imul	 eax, 68			; 00000044H
  00404	8b 4d cc	 mov	 ecx, DWORD PTR _iUnitNumber$204767[ebp]
  00407	89 88 18 00 00
	00		 mov	 DWORD PTR ?s_MonsterSkillUnitArray@TMonsterSkillUnit@@2PAV1@A[eax+24], ecx

; 142  : 					TMonsterSkillUnit::s_MonsterSkillUnitArray[iUnitNumber].m_iUnitTargetType = iUnitTargetType;

  0040d	8b 45 cc	 mov	 eax, DWORD PTR _iUnitNumber$204767[ebp]
  00410	6b c0 44	 imul	 eax, 68			; 00000044H
  00413	8b 4d c8	 mov	 ecx, DWORD PTR _iUnitTargetType$204768[ebp]
  00416	89 88 1c 00 00
	00		 mov	 DWORD PTR ?s_MonsterSkillUnitArray@TMonsterSkillUnit@@2PAV1@A[eax+28], ecx

; 143  : 					TMonsterSkillUnit::s_MonsterSkillUnitArray[iUnitNumber].m_iUnitScopeType = iUnitScopeType;

  0041c	8b 45 cc	 mov	 eax, DWORD PTR _iUnitNumber$204767[ebp]
  0041f	6b c0 44	 imul	 eax, 68			; 00000044H
  00422	8b 4d c4	 mov	 ecx, DWORD PTR _iUnitScopeType$204769[ebp]
  00425	89 88 20 00 00
	00		 mov	 DWORD PTR ?s_MonsterSkillUnitArray@TMonsterSkillUnit@@2PAV1@A[eax+32], ecx

; 144  : 					TMonsterSkillUnit::s_MonsterSkillUnitArray[iUnitNumber].m_iUnitScopeValue = iUnitScopeValue;

  0042b	8b 45 cc	 mov	 eax, DWORD PTR _iUnitNumber$204767[ebp]
  0042e	6b c0 44	 imul	 eax, 68			; 00000044H
  00431	8b 4d c0	 mov	 ecx, DWORD PTR _iUnitScopeValue$204770[ebp]
  00434	89 88 24 00 00
	00		 mov	 DWORD PTR ?s_MonsterSkillUnitArray@TMonsterSkillUnit@@2PAV1@A[eax+36], ecx

; 145  : 					TMonsterSkillUnit::s_MonsterSkillUnitArray[iUnitNumber].m_iDelay = iDelay;

  0043a	8b 45 cc	 mov	 eax, DWORD PTR _iUnitNumber$204767[ebp]
  0043d	6b c0 44	 imul	 eax, 68			; 00000044H
  00440	8b 4d bc	 mov	 ecx, DWORD PTR _iDelay$204771[ebp]
  00443	89 88 28 00 00
	00		 mov	 DWORD PTR ?s_MonsterSkillUnitArray@TMonsterSkillUnit@@2PAV1@A[eax+40], ecx

; 146  : 					memcpy(TMonsterSkillUnit::s_MonsterSkillUnitArray[iUnitNumber].m_szUnitName, szUnitName,
; 147  : 						sizeof(TMonsterSkillUnit::s_MonsterSkillUnitArray[iUnitNumber].m_szUnitName));

  00449	6a 14		 push	 20			; 00000014H
  0044b	8d 45 d0	 lea	 eax, DWORD PTR _szUnitName$204766[ebp]
  0044e	50		 push	 eax
  0044f	8b 4d cc	 mov	 ecx, DWORD PTR _iUnitNumber$204767[ebp]
  00452	6b c9 44	 imul	 ecx, 68			; 00000044H
  00455	81 c1 04 00 00
	00		 add	 ecx, OFFSET ?s_MonsterSkillUnitArray@TMonsterSkillUnit@@2PAV1@A+4
  0045b	51		 push	 ecx
  0045c	e8 00 00 00 00	 call	 _memcpy
  00461	83 c4 0c	 add	 esp, 12			; 0000000cH

; 148  : 
; 149  : 					for(int i=0;i<5;i++)

  00464	c7 85 d4 fe ff
	ff 00 00 00 00	 mov	 DWORD PTR _i$204798[ebp], 0
  0046e	eb 0f		 jmp	 SHORT $LN6@LoadData
$LN5@LoadData:
  00470	8b 85 d4 fe ff
	ff		 mov	 eax, DWORD PTR _i$204798[ebp]
  00476	83 c0 01	 add	 eax, 1
  00479	89 85 d4 fe ff
	ff		 mov	 DWORD PTR _i$204798[ebp], eax
$LN6@LoadData:
  0047f	83 bd d4 fe ff
	ff 05		 cmp	 DWORD PTR _i$204798[ebp], 5
  00486	0f 8d b6 00 00
	00		 jge	 $LN4@LoadData

; 150  : 					{
; 151  : 						int iElement = iElementsSlot[i];

  0048c	8b 85 d4 fe ff
	ff		 mov	 eax, DWORD PTR _i$204798[ebp]
  00492	8b 4c 85 a4	 mov	 ecx, DWORD PTR _iElementsSlot$204773[ebp+eax*4]
  00496	89 8d d0 fe ff
	ff		 mov	 DWORD PTR _iElement$204802[ebp], ecx

; 152  : 
; 153  : 						if ( iElement != -1 )

  0049c	83 bd d0 fe ff
	ff ff		 cmp	 DWORD PTR _iElement$204802[ebp], -1
  004a3	0f 84 94 00 00
	00		 je	 $LN1@LoadData

; 154  : 						{
; 155  : 							TMonsterSkillElement * pMonsterSkillElement = TMonsterSkillElement::FindSkillElement(iElement);

  004a9	8b 85 d0 fe ff
	ff		 mov	 eax, DWORD PTR _iElement$204802[ebp]
  004af	50		 push	 eax
  004b0	e8 00 00 00 00	 call	 ?FindSkillElement@TMonsterSkillElement@@SAPAV1@H@Z ; TMonsterSkillElement::FindSkillElement
  004b5	83 c4 04	 add	 esp, 4
  004b8	89 85 88 fe ff
	ff		 mov	 DWORD PTR tv232[ebp], eax
  004be	8b 8d 88 fe ff
	ff		 mov	 ecx, DWORD PTR tv232[ebp]
  004c4	89 8d cc fe ff
	ff		 mov	 DWORD PTR _pMonsterSkillElement$204804[ebp], ecx

; 156  : 
; 157  : 							if ( pMonsterSkillElement )

  004ca	83 bd cc fe ff
	ff 00		 cmp	 DWORD PTR _pMonsterSkillElement$204804[ebp], 0
  004d1	74 53		 je	 SHORT $LN2@LoadData

; 158  : 							{
; 159  : 								iElementCount++;

  004d3	8b 45 b8	 mov	 eax, DWORD PTR _iElementCount$204772[ebp]
  004d6	83 c0 01	 add	 eax, 1
  004d9	89 45 b8	 mov	 DWORD PTR _iElementCount$204772[ebp], eax

; 160  : 								TMonsterSkillUnit::s_MonsterSkillUnitArray[iUnitNumber].m_lpElementsSlot[i] = pMonsterSkillElement;

  004dc	8b 45 cc	 mov	 eax, DWORD PTR _iUnitNumber$204767[ebp]
  004df	6b c0 44	 imul	 eax, 68			; 00000044H
  004e2	8b 8d d4 fe ff
	ff		 mov	 ecx, DWORD PTR _i$204798[ebp]
  004e8	8b 95 cc fe ff
	ff		 mov	 edx, DWORD PTR _pMonsterSkillElement$204804[ebp]
  004ee	89 94 88 30 00
	00 00		 mov	 DWORD PTR ?s_MonsterSkillUnitArray@TMonsterSkillUnit@@2PAV1@A[eax+ecx*4+48], edx

; 161  : 
; 162  : 								LogAddC(4, "[Monster Skill Unit] - Found SkillElement (%d)(%s)",
; 163  : 									iElement, pMonsterSkillElement->GetElementName());

  004f5	8b 8d cc fe ff
	ff		 mov	 ecx, DWORD PTR _pMonsterSkillElement$204804[ebp]
  004fb	e8 00 00 00 00	 call	 ?GetElementName@TMonsterSkillElement@@QAEPADXZ ; TMonsterSkillElement::GetElementName
  00500	89 85 88 fe ff
	ff		 mov	 DWORD PTR tv233[ebp], eax
  00506	8b 85 88 fe ff
	ff		 mov	 eax, DWORD PTR tv233[ebp]
  0050c	50		 push	 eax
  0050d	8b 8d d0 fe ff
	ff		 mov	 ecx, DWORD PTR _iElement$204802[ebp]
  00513	51		 push	 ecx
  00514	68 00 00 00 00	 push	 OFFSET ??_C@_0DD@HMCEGHBH@?$FLMonster?5Skill?5Unit?$FN?5?9?5Found?5Ski@
  00519	6a 04		 push	 4
  0051b	ff 15 00 00 00
	00		 call	 DWORD PTR ?LogAddC@@3P6AXEPADZZA ; LogAddC
  00521	83 c4 10	 add	 esp, 16			; 00000010H

; 164  : 							}
; 165  : 							else

  00524	eb 17		 jmp	 SHORT $LN1@LoadData
$LN2@LoadData:

; 166  : 							{
; 167  : 								LogAddC(2, "[Monster Skill Unit] - Not Found SkillElement (%d)",
; 168  : 									iElement);	

  00526	8b 85 d0 fe ff
	ff		 mov	 eax, DWORD PTR _iElement$204802[ebp]
  0052c	50		 push	 eax
  0052d	68 00 00 00 00	 push	 OFFSET ??_C@_0DD@HAEDKJID@?$FLMonster?5Skill?5Unit?$FN?5?9?5Not?5Found@
  00532	6a 02		 push	 2
  00534	ff 15 00 00 00
	00		 call	 DWORD PTR ?LogAddC@@3P6AXEPADZZA ; LogAddC
  0053a	83 c4 0c	 add	 esp, 12			; 0000000cH
$LN1@LoadData:

; 169  : 							}
; 170  : 						}
; 171  : 					}

  0053d	e9 2e ff ff ff	 jmp	 $LN5@LoadData
$LN4@LoadData:

; 172  : 
; 173  : 					TMonsterSkillUnit::s_MonsterSkillUnitArray[iUnitNumber].m_iElementsCount = iElementCount;

  00542	8b 45 cc	 mov	 eax, DWORD PTR _iUnitNumber$204767[ebp]
  00545	6b c0 44	 imul	 eax, 68			; 00000044H
  00548	8b 4d b8	 mov	 ecx, DWORD PTR _iElementCount$204772[ebp]
  0054b	89 88 2c 00 00
	00		 mov	 DWORD PTR ?s_MonsterSkillUnitArray@TMonsterSkillUnit@@2PAV1@A[eax+44], ecx
$LN13@LoadData:

; 174  : 				}
; 175  : 			}

  00551	e9 79 fc ff ff	 jmp	 $LN15@LoadData
$LN14@LoadData:

; 176  : 		
; 177  : 		}

  00556	e9 3a fc ff ff	 jmp	 $LN18@LoadData
$LN17@LoadData:

; 178  : 
; 179  : 		fclose(SMDFile);

  0055b	a1 00 00 00 00	 mov	 eax, DWORD PTR _SMDFile
  00560	50		 push	 eax
  00561	e8 00 00 00 00	 call	 _fclose
  00566	83 c4 04	 add	 esp, 4

; 180  : 		LogAddC(2,"[Monster Skill Unit] - %s file is Loaded", lpszFileName);

  00569	8b 45 08	 mov	 eax, DWORD PTR _lpszFileName$[ebp]
  0056c	50		 push	 eax
  0056d	68 00 00 00 00	 push	 OFFSET ??_C@_0CJ@ODDJOAOF@?$FLMonster?5Skill?5Unit?$FN?5?9?5?$CFs?5file?5i@
  00572	6a 02		 push	 2
  00574	ff 15 00 00 00
	00		 call	 DWORD PTR ?LogAddC@@3P6AXEPADZZA ; LogAddC
  0057a	83 c4 0c	 add	 esp, 12			; 0000000cH

; 181  : 		TMonsterSkillUnit::s_bDataLoad = TRUE;

  0057d	c7 05 00 00 00
	00 01 00 00 00	 mov	 DWORD PTR ?s_bDataLoad@TMonsterSkillUnit@@2HA, 1 ; TMonsterSkillUnit::s_bDataLoad

; 182  : 	}

  00587	eb 1e		 jmp	 SHORT $LN25@LoadData
__catch$?LoadData@TMonsterSkillUnit@@SAHPAD@Z$0:

; 183  : 	catch(...)
; 184  : 	{
; 185  : 		MsgBox("[Monster Skill Unit] - Loading Exception Error (%s) File. ", lpszFileName);

  00589	8b 45 08	 mov	 eax, DWORD PTR _lpszFileName$[ebp]
  0058c	50		 push	 eax
  0058d	68 00 00 00 00	 push	 OFFSET ??_C@_0DL@OOGJKOMD@?$FLMonster?5Skill?5Unit?$FN?5?9?5Loading?5E@
  00592	e8 00 00 00 00	 call	 ?MsgBox@@YAXPADZZ	; MsgBox
  00597	83 c4 08	 add	 esp, 8

; 186  : 	}

  0059a	c7 45 fc ff ff
	ff ff		 mov	 DWORD PTR __$EHRec$[ebp+12], -1
  005a1	b8 00 00 00 00	 mov	 eax, $LN28@LoadData
  005a6	c3		 ret	 0
$LN25@LoadData:
  005a7	c7 45 fc ff ff
	ff ff		 mov	 DWORD PTR __$EHRec$[ebp+12], -1
$LN28@LoadData:

; 187  : 
; 188  : 	return FALSE;

  005ae	33 c0		 xor	 eax, eax
$LN23@LoadData:

; 189  : }

  005b0	8b 4d f4	 mov	 ecx, DWORD PTR __$EHRec$[ebp+4]
  005b3	64 89 0d 00 00
	00 00		 mov	 DWORD PTR fs:0, ecx
  005ba	59		 pop	 ecx
  005bb	5f		 pop	 edi
  005bc	5e		 pop	 esi
  005bd	5b		 pop	 ebx
  005be	8b 4d ec	 mov	 ecx, DWORD PTR __$ArrayPad$[ebp]
  005c1	33 cd		 xor	 ecx, ebp
  005c3	e8 00 00 00 00	 call	 @__security_check_cookie@4
  005c8	8b e5		 mov	 esp, ebp
  005ca	5d		 pop	 ebp
  005cb	c3		 ret	 0
_TEXT	ENDS
text$x	SEGMENT
__ehhandler$?LoadData@TMonsterSkillUnit@@SAHPAD@Z:
  00000	8b 54 24 08	 mov	 edx, DWORD PTR [esp+8]
  00004	8d 42 0c	 lea	 eax, DWORD PTR [edx+12]
  00007	8b 8a 84 fe ff
	ff		 mov	 ecx, DWORD PTR [edx-380]
  0000d	33 c8		 xor	 ecx, eax
  0000f	e8 00 00 00 00	 call	 @__security_check_cookie@4
  00014	8b 4a f8	 mov	 ecx, DWORD PTR [edx-8]
  00017	33 c8		 xor	 ecx, eax
  00019	e8 00 00 00 00	 call	 @__security_check_cookie@4
  0001e	b8 00 00 00 00	 mov	 eax, OFFSET __ehfuncinfo$?LoadData@TMonsterSkillUnit@@SAHPAD@Z
  00023	e9 00 00 00 00	 jmp	 ___CxxFrameHandler3
text$x	ENDS
?LoadData@TMonsterSkillUnit@@SAHPAD@Z ENDP		; TMonsterSkillUnit::LoadData
PUBLIC	__$ArrayPad$
EXTRN	_isalnum:PROC
EXTRN	_isalpha:PROC
EXTRN	_atof:PROC
EXTRN	_isdigit:PROC
EXTRN	_getc:PROC
EXTRN	_ungetc:PROC
EXTRN	_isspace:PROC
EXTRN	_fgetc:PROC
EXTRN	__fltused:DWORD
_BSS	SEGMENT
_CurrentToken DD 01H DUP (?)
; Function compile flags: /Odtp /ZI
; File d:\projects\exteam6.3\source\gameserver\include\readscript.h
_BSS	ENDS
_TEXT	SEGMENT
tv90 = -180						; size = 4
_TempString$ = -112					; size = 100
_p$ = -12						; size = 4
_ch$ = -5						; size = 1
__$ArrayPad$ = -4					; size = 4
?GetToken@@YA?AW4SMDToken@@XZ PROC			; GetToken

; 24   : {

  005d0	55		 push	 ebp
  005d1	8b ec		 mov	 ebp, esp
  005d3	81 ec b4 00 00
	00		 sub	 esp, 180		; 000000b4H
  005d9	a1 00 00 00 00	 mov	 eax, DWORD PTR ___security_cookie
  005de	33 c5		 xor	 eax, ebp
  005e0	89 45 fc	 mov	 DWORD PTR __$ArrayPad$[ebp], eax
  005e3	53		 push	 ebx
  005e4	56		 push	 esi
  005e5	57		 push	 edi

; 25   : 	char ch;
; 26   : 	char* p;
; 27   : 	char TempString[100];
; 28   : 
; 29   : 	TokenString[0]=0;

  005e6	c6 05 00 00 00
	00 00		 mov	 BYTE PTR _TokenString, 0
$LN31@GetToken:

; 30   : 
; 31   : 	do
; 32   : 	{
; 33   : 		if ((ch=fgetc(SMDFile)) == -1)

  005ed	a1 00 00 00 00	 mov	 eax, DWORD PTR _SMDFile
  005f2	50		 push	 eax
  005f3	e8 00 00 00 00	 call	 _fgetc
  005f8	83 c4 04	 add	 esp, 4
  005fb	88 45 fb	 mov	 BYTE PTR _ch$[ebp], al
  005fe	0f be 4d fb	 movsx	 ecx, BYTE PTR _ch$[ebp]
  00602	83 f9 ff	 cmp	 ecx, -1
  00605	75 0c		 jne	 SHORT $LN28@GetToken

; 34   : 		{
; 35   : 			return END;	// End of FILE (EOF)

  00607	b8 02 00 00 00	 mov	 eax, 2
  0060c	e9 f7 02 00 00	 jmp	 $LN32@GetToken

; 36   : 		}
; 37   : 		else

  00611	eb 5b		 jmp	 SHORT $LN22@GetToken
$LN28@GetToken:

; 38   : 		{	
; 39   : 			if (ch=='/')		// this is /

  00613	0f be 45 fb	 movsx	 eax, BYTE PTR _ch$[ebp]
  00617	83 f8 2f	 cmp	 eax, 47			; 0000002fH
  0061a	75 52		 jne	 SHORT $LN22@GetToken

; 40   : 			{
; 41   : 				if((ch=fgetc(SMDFile)) == '/')

  0061c	a1 00 00 00 00	 mov	 eax, DWORD PTR _SMDFile
  00621	50		 push	 eax
  00622	e8 00 00 00 00	 call	 _fgetc
  00627	83 c4 04	 add	 esp, 4
  0062a	88 45 fb	 mov	 BYTE PTR _ch$[ebp], al
  0062d	0f be 4d fb	 movsx	 ecx, BYTE PTR _ch$[ebp]
  00631	83 f9 2f	 cmp	 ecx, 47			; 0000002fH
  00634	75 38		 jne	 SHORT $LN22@GetToken
$LN24@GetToken:

; 42   : 				{
; 43   : 					while ((ch != '\n') && (ch != -1))	// End of Line (EOL)

  00636	0f be 45 fb	 movsx	 eax, BYTE PTR _ch$[ebp]
  0063a	83 f8 0a	 cmp	 eax, 10			; 0000000aH
  0063d	74 1c		 je	 SHORT $LN23@GetToken
  0063f	0f be 45 fb	 movsx	 eax, BYTE PTR _ch$[ebp]
  00643	83 f8 ff	 cmp	 eax, -1
  00646	74 13		 je	 SHORT $LN23@GetToken

; 44   : 					{
; 45   : 						ch=fgetc(SMDFile);

  00648	a1 00 00 00 00	 mov	 eax, DWORD PTR _SMDFile
  0064d	50		 push	 eax
  0064e	e8 00 00 00 00	 call	 _fgetc
  00653	83 c4 04	 add	 esp, 4
  00656	88 45 fb	 mov	 BYTE PTR _ch$[ebp], al

; 46   : 					}

  00659	eb db		 jmp	 SHORT $LN24@GetToken
$LN23@GetToken:

; 47   : 	
; 48   : 					if (ch == -1)

  0065b	0f be 45 fb	 movsx	 eax, BYTE PTR _ch$[ebp]
  0065f	83 f8 ff	 cmp	 eax, -1
  00662	75 0a		 jne	 SHORT $LN22@GetToken

; 49   : 					{
; 50   : 						return END;	// End of FILE

  00664	b8 02 00 00 00	 mov	 eax, 2
  00669	e9 9a 02 00 00	 jmp	 $LN32@GetToken
$LN22@GetToken:

; 51   : 					}
; 52   : 				}
; 53   : 			}
; 54   : 		}
; 55   : 	}
; 56   : 	while (isspace(ch) != 0);

  0066e	0f be 45 fb	 movsx	 eax, BYTE PTR _ch$[ebp]
  00672	50		 push	 eax
  00673	e8 00 00 00 00	 call	 _isspace
  00678	83 c4 04	 add	 esp, 4
  0067b	85 c0		 test	 eax, eax
  0067d	0f 85 6a ff ff
	ff		 jne	 $LN31@GetToken

; 57   : 
; 58   : 	
; 59   : 	switch(ch)

  00683	0f be 45 fb	 movsx	 eax, BYTE PTR _ch$[ebp]
  00687	89 85 4c ff ff
	ff		 mov	 DWORD PTR tv90[ebp], eax
  0068d	8b 8d 4c ff ff
	ff		 mov	 ecx, DWORD PTR tv90[ebp]
  00693	83 e9 22	 sub	 ecx, 34			; 00000022H
  00696	89 8d 4c ff ff
	ff		 mov	 DWORD PTR tv90[ebp], ecx
  0069c	83 bd 4c ff ff
	ff 5b		 cmp	 DWORD PTR tv90[ebp], 91	; 0000005bH
  006a3	0f 87 a3 01 00
	00		 ja	 $LN6@GetToken
  006a9	8b 95 4c ff ff
	ff		 mov	 edx, DWORD PTR tv90[ebp]
  006af	0f b6 82 00 00
	00 00		 movzx	 eax, BYTE PTR $LN34@GetToken[edx]
  006b6	ff 24 85 00 00
	00 00		 jmp	 DWORD PTR $LN35@GetToken[eax*4]
$LN19@GetToken:

; 60   : 	{
; 61   : 
; 62   : 	case 0x23:	// #
; 63   : 		return CurrentToken=COMMAND;

  006bd	c7 05 00 00 00
	00 23 00 00 00	 mov	 DWORD PTR _CurrentToken, 35 ; 00000023H
  006c7	a1 00 00 00 00	 mov	 eax, DWORD PTR _CurrentToken
  006cc	e9 37 02 00 00	 jmp	 $LN32@GetToken

; 64   : 		break;

  006d1	e9 30 02 00 00	 jmp	 $LN20@GetToken
$LN18@GetToken:

; 65   : 	
; 66   : 	case 0x3B:	// ;
; 67   : 		return CurrentToken=SEMICOLON;

  006d6	c7 05 00 00 00
	00 3b 00 00 00	 mov	 DWORD PTR _CurrentToken, 59 ; 0000003bH
  006e0	a1 00 00 00 00	 mov	 eax, DWORD PTR _CurrentToken
  006e5	e9 1e 02 00 00	 jmp	 $LN32@GetToken

; 68   : 		break;

  006ea	e9 17 02 00 00	 jmp	 $LN20@GetToken
$LN17@GetToken:

; 69   : 	
; 70   : 	case 0x2C:	// ,
; 71   : 
; 72   : 		return CurrentToken=COMMA;

  006ef	c7 05 00 00 00
	00 2c 00 00 00	 mov	 DWORD PTR _CurrentToken, 44 ; 0000002cH
  006f9	a1 00 00 00 00	 mov	 eax, DWORD PTR _CurrentToken
  006fe	e9 05 02 00 00	 jmp	 $LN32@GetToken

; 73   : 		break;

  00703	e9 fe 01 00 00	 jmp	 $LN20@GetToken
$LN16@GetToken:

; 74   : 	
; 75   : 	case 0x7B:	// {
; 76   : 		return CurrentToken = LP;

  00708	c7 05 00 00 00
	00 7b 00 00 00	 mov	 DWORD PTR _CurrentToken, 123 ; 0000007bH
  00712	a1 00 00 00 00	 mov	 eax, DWORD PTR _CurrentToken
  00717	e9 ec 01 00 00	 jmp	 $LN32@GetToken

; 77   : 		break;

  0071c	e9 e5 01 00 00	 jmp	 $LN20@GetToken
$LN15@GetToken:

; 78   : 
; 79   : 	case 0x7D:	// }
; 80   : 		return CurrentToken = RP;

  00721	c7 05 00 00 00
	00 7d 00 00 00	 mov	 DWORD PTR _CurrentToken, 125 ; 0000007dH
  0072b	a1 00 00 00 00	 mov	 eax, DWORD PTR _CurrentToken
  00730	e9 d3 01 00 00	 jmp	 $LN32@GetToken

; 81   : 		break;

  00735	e9 cc 01 00 00	 jmp	 $LN20@GetToken
$LN14@GetToken:

; 82   : 	// Nice Index Table :)	by Deathway
; 83   : 	// Numbers Case
; 84   : 	case 0x2D:	//-
; 85   : 	case 0x2E:	//.
; 86   : 	case '0':	//0
; 87   : 	case '1':	//1
; 88   : 	case '2':	//2
; 89   : 	case '3':	//3
; 90   : 	case '4':	//4		
; 91   : 	case '5':	//5
; 92   : 	case '6':	//6
; 93   : 	case '7':	//7
; 94   : 	case '8':	//8
; 95   : 	case '9':	//9
; 96   : 		ungetc(ch, SMDFile);

  0073a	a1 00 00 00 00	 mov	 eax, DWORD PTR _SMDFile
  0073f	50		 push	 eax
  00740	0f be 4d fb	 movsx	 ecx, BYTE PTR _ch$[ebp]
  00744	51		 push	 ecx
  00745	e8 00 00 00 00	 call	 _ungetc
  0074a	83 c4 08	 add	 esp, 8

; 97   : 		p = TempString;

  0074d	8d 45 90	 lea	 eax, DWORD PTR _TempString$[ebp]
  00750	89 45 f4	 mov	 DWORD PTR _p$[ebp], eax
$LN13@GetToken:

; 98   : 		
; 99   : 		while (((ch=getc(SMDFile)) != -1) && ((ch == 0x2E) || (isdigit(ch) != 0) || (ch == 0x2D)))  // 2e '.'  2D '-'

  00753	a1 00 00 00 00	 mov	 eax, DWORD PTR _SMDFile
  00758	50		 push	 eax
  00759	e8 00 00 00 00	 call	 _getc
  0075e	83 c4 04	 add	 esp, 4
  00761	88 45 fb	 mov	 BYTE PTR _ch$[ebp], al
  00764	0f be 4d fb	 movsx	 ecx, BYTE PTR _ch$[ebp]
  00768	83 f9 ff	 cmp	 ecx, -1
  0076b	74 36		 je	 SHORT $LN12@GetToken
  0076d	0f be 45 fb	 movsx	 eax, BYTE PTR _ch$[ebp]
  00771	83 f8 2e	 cmp	 eax, 46			; 0000002eH
  00774	74 1a		 je	 SHORT $LN11@GetToken
  00776	0f be 45 fb	 movsx	 eax, BYTE PTR _ch$[ebp]
  0077a	50		 push	 eax
  0077b	e8 00 00 00 00	 call	 _isdigit
  00780	83 c4 04	 add	 esp, 4
  00783	85 c0		 test	 eax, eax
  00785	75 09		 jne	 SHORT $LN11@GetToken
  00787	0f be 45 fb	 movsx	 eax, BYTE PTR _ch$[ebp]
  0078b	83 f8 2d	 cmp	 eax, 45			; 0000002dH
  0078e	75 13		 jne	 SHORT $LN12@GetToken
$LN11@GetToken:

; 100  : 		{
; 101  : 			*p = ch;	// Construct a String

  00790	8b 45 f4	 mov	 eax, DWORD PTR _p$[ebp]
  00793	8a 4d fb	 mov	 cl, BYTE PTR _ch$[ebp]
  00796	88 08		 mov	 BYTE PTR [eax], cl

; 102  : 			p++;

  00798	8b 45 f4	 mov	 eax, DWORD PTR _p$[ebp]
  0079b	83 c0 01	 add	 eax, 1
  0079e	89 45 f4	 mov	 DWORD PTR _p$[ebp], eax

; 103  : 		}		

  007a1	eb b0		 jmp	 SHORT $LN13@GetToken
$LN12@GetToken:

; 104  : 		*p = 0;

  007a3	8b 45 f4	 mov	 eax, DWORD PTR _p$[ebp]
  007a6	c6 00 00	 mov	 BYTE PTR [eax], 0

; 105  : 		TokenNumber = atof( TempString);	// Select the first Byte as Main ID

  007a9	8d 45 90	 lea	 eax, DWORD PTR _TempString$[ebp]
  007ac	50		 push	 eax
  007ad	e8 00 00 00 00	 call	 _atof
  007b2	83 c4 04	 add	 esp, 4
  007b5	d9 1d 00 00 00
	00		 fstp	 DWORD PTR _TokenNumber

; 106  : 		return CurrentToken  = NUMBER ;

  007bb	c7 05 00 00 00
	00 01 00 00 00	 mov	 DWORD PTR _CurrentToken, 1
  007c5	a1 00 00 00 00	 mov	 eax, DWORD PTR _CurrentToken
  007ca	e9 39 01 00 00	 jmp	 $LN32@GetToken

; 107  : 		break;

  007cf	e9 32 01 00 00	 jmp	 $LN20@GetToken
$LN10@GetToken:

; 108  : 
; 109  : 	case '\"':	// "	String Case
; 110  : 		p=&TokenString[0];

  007d4	c7 45 f4 00 00
	00 00		 mov	 DWORD PTR _p$[ebp], OFFSET _TokenString
$LN9@GetToken:

; 111  : 		
; 112  : 		while (((ch=getc(SMDFile)) != -1 ) && (ch != 0x22))	// nice

  007db	a1 00 00 00 00	 mov	 eax, DWORD PTR _SMDFile
  007e0	50		 push	 eax
  007e1	e8 00 00 00 00	 call	 _getc
  007e6	83 c4 04	 add	 esp, 4
  007e9	88 45 fb	 mov	 BYTE PTR _ch$[ebp], al
  007ec	0f be 4d fb	 movsx	 ecx, BYTE PTR _ch$[ebp]
  007f0	83 f9 ff	 cmp	 ecx, -1
  007f3	74 1c		 je	 SHORT $LN8@GetToken
  007f5	0f be 45 fb	 movsx	 eax, BYTE PTR _ch$[ebp]
  007f9	83 f8 22	 cmp	 eax, 34			; 00000022H
  007fc	74 13		 je	 SHORT $LN8@GetToken

; 113  : 		{
; 114  : 			*p = ch;

  007fe	8b 45 f4	 mov	 eax, DWORD PTR _p$[ebp]
  00801	8a 4d fb	 mov	 cl, BYTE PTR _ch$[ebp]
  00804	88 08		 mov	 BYTE PTR [eax], cl

; 115  : 			p++;

  00806	8b 45 f4	 mov	 eax, DWORD PTR _p$[ebp]
  00809	83 c0 01	 add	 eax, 1
  0080c	89 45 f4	 mov	 DWORD PTR _p$[ebp], eax

; 116  : 		}

  0080f	eb ca		 jmp	 SHORT $LN9@GetToken
$LN8@GetToken:

; 117  : 		if (ch != 0x22 )

  00811	0f be 45 fb	 movsx	 eax, BYTE PTR _ch$[ebp]
  00815	83 f8 22	 cmp	 eax, 34			; 00000022H
  00818	74 13		 je	 SHORT $LN7@GetToken

; 118  : 		{
; 119  : 			ungetc(ch, SMDFile);

  0081a	a1 00 00 00 00	 mov	 eax, DWORD PTR _SMDFile
  0081f	50		 push	 eax
  00820	0f be 4d fb	 movsx	 ecx, BYTE PTR _ch$[ebp]
  00824	51		 push	 ecx
  00825	e8 00 00 00 00	 call	 _ungetc
  0082a	83 c4 08	 add	 esp, 8
$LN7@GetToken:

; 120  : 		}
; 121  : 		*p = 0;

  0082d	8b 45 f4	 mov	 eax, DWORD PTR _p$[ebp]
  00830	c6 00 00	 mov	 BYTE PTR [eax], 0

; 122  : 		return CurrentToken = NAME;

  00833	c7 05 00 00 00
	00 00 00 00 00	 mov	 DWORD PTR _CurrentToken, 0
  0083d	a1 00 00 00 00	 mov	 eax, DWORD PTR _CurrentToken
  00842	e9 c1 00 00 00	 jmp	 $LN32@GetToken

; 123  : 		break;

  00847	e9 ba 00 00 00	 jmp	 $LN20@GetToken
$LN6@GetToken:

; 124  : 
; 125  : 	default:	// Others
; 126  : 		if (isalpha(ch))

  0084c	0f be 45 fb	 movsx	 eax, BYTE PTR _ch$[ebp]
  00850	50		 push	 eax
  00851	e8 00 00 00 00	 call	 _isalpha
  00856	83 c4 04	 add	 esp, 4
  00859	85 c0		 test	 eax, eax
  0085b	0f 84 94 00 00
	00		 je	 $LN5@GetToken

; 127  : 		{
; 128  : 			p=&TokenString[0];

  00861	c7 45 f4 00 00
	00 00		 mov	 DWORD PTR _p$[ebp], OFFSET _TokenString

; 129  : 			*p=ch;

  00868	8b 45 f4	 mov	 eax, DWORD PTR _p$[ebp]
  0086b	8a 4d fb	 mov	 cl, BYTE PTR _ch$[ebp]
  0086e	88 08		 mov	 BYTE PTR [eax], cl

; 130  : 			p++;

  00870	8b 45 f4	 mov	 eax, DWORD PTR _p$[ebp]
  00873	83 c0 01	 add	 eax, 1
  00876	89 45 f4	 mov	 DWORD PTR _p$[ebp], eax
$LN4@GetToken:

; 131  : 
; 132  : 			while ( ((ch=getc(SMDFile)) != -1) && ( (ch == 0x2E) || (ch == 0x5F) || (isalnum(ch) != 0) ) )

  00879	a1 00 00 00 00	 mov	 eax, DWORD PTR _SMDFile
  0087e	50		 push	 eax
  0087f	e8 00 00 00 00	 call	 _getc
  00884	83 c4 04	 add	 esp, 4
  00887	88 45 fb	 mov	 BYTE PTR _ch$[ebp], al
  0088a	0f be 4d fb	 movsx	 ecx, BYTE PTR _ch$[ebp]
  0088e	83 f9 ff	 cmp	 ecx, -1
  00891	74 36		 je	 SHORT $LN3@GetToken
  00893	0f be 45 fb	 movsx	 eax, BYTE PTR _ch$[ebp]
  00897	83 f8 2e	 cmp	 eax, 46			; 0000002eH
  0089a	74 1a		 je	 SHORT $LN2@GetToken
  0089c	0f be 45 fb	 movsx	 eax, BYTE PTR _ch$[ebp]
  008a0	83 f8 5f	 cmp	 eax, 95			; 0000005fH
  008a3	74 11		 je	 SHORT $LN2@GetToken
  008a5	0f be 45 fb	 movsx	 eax, BYTE PTR _ch$[ebp]
  008a9	50		 push	 eax
  008aa	e8 00 00 00 00	 call	 _isalnum
  008af	83 c4 04	 add	 esp, 4
  008b2	85 c0		 test	 eax, eax
  008b4	74 13		 je	 SHORT $LN3@GetToken
$LN2@GetToken:

; 133  : 			{
; 134  : 				*p=ch;

  008b6	8b 45 f4	 mov	 eax, DWORD PTR _p$[ebp]
  008b9	8a 4d fb	 mov	 cl, BYTE PTR _ch$[ebp]
  008bc	88 08		 mov	 BYTE PTR [eax], cl

; 135  : 				p++;

  008be	8b 45 f4	 mov	 eax, DWORD PTR _p$[ebp]
  008c1	83 c0 01	 add	 eax, 1
  008c4	89 45 f4	 mov	 DWORD PTR _p$[ebp], eax

; 136  : 				
; 137  : 			}

  008c7	eb b0		 jmp	 SHORT $LN4@GetToken
$LN3@GetToken:

; 138  : 
; 139  : 			ungetc(ch, SMDFile);

  008c9	a1 00 00 00 00	 mov	 eax, DWORD PTR _SMDFile
  008ce	50		 push	 eax
  008cf	0f be 4d fb	 movsx	 ecx, BYTE PTR _ch$[ebp]
  008d3	51		 push	 ecx
  008d4	e8 00 00 00 00	 call	 _ungetc
  008d9	83 c4 08	 add	 esp, 8

; 140  : 			*p=0;

  008dc	8b 45 f4	 mov	 eax, DWORD PTR _p$[ebp]
  008df	c6 00 00	 mov	 BYTE PTR [eax], 0

; 141  : 			CurrentToken=NAME;

  008e2	c7 05 00 00 00
	00 00 00 00 00	 mov	 DWORD PTR _CurrentToken, 0

; 142  : 			return CurrentToken;

  008ec	a1 00 00 00 00	 mov	 eax, DWORD PTR _CurrentToken
  008f1	eb 15		 jmp	 SHORT $LN32@GetToken

; 143  : 		}
; 144  : 		else

  008f3	eb 11		 jmp	 SHORT $LN1@GetToken
$LN5@GetToken:

; 145  : 		{
; 146  : 			return CurrentToken = SMD_ERROR; // '<'

  008f5	c7 05 00 00 00
	00 3c 00 00 00	 mov	 DWORD PTR _CurrentToken, 60 ; 0000003cH
  008ff	a1 00 00 00 00	 mov	 eax, DWORD PTR _CurrentToken
  00904	eb 02		 jmp	 SHORT $LN32@GetToken
$LN1@GetToken:
$LN20@GetToken:

; 147  : 		}
; 148  : 		break;
; 149  : 
; 150  : 	}
; 151  : 
; 152  : 	return NAME;

  00906	33 c0		 xor	 eax, eax
$LN32@GetToken:

; 153  : }

  00908	5f		 pop	 edi
  00909	5e		 pop	 esi
  0090a	5b		 pop	 ebx
  0090b	8b 4d fc	 mov	 ecx, DWORD PTR __$ArrayPad$[ebp]
  0090e	33 cd		 xor	 ecx, ebp
  00910	e8 00 00 00 00	 call	 @__security_check_cookie@4
  00915	8b e5		 mov	 esp, ebp
  00917	5d		 pop	 ebp
  00918	c3		 ret	 0
  00919	8d 49 00	 npad	 3
$LN35@GetToken:
  0091c	00 00 00 00	 DD	 $LN10@GetToken
  00920	00 00 00 00	 DD	 $LN19@GetToken
  00924	00 00 00 00	 DD	 $LN17@GetToken
  00928	00 00 00 00	 DD	 $LN14@GetToken
  0092c	00 00 00 00	 DD	 $LN18@GetToken
  00930	00 00 00 00	 DD	 $LN16@GetToken
  00934	00 00 00 00	 DD	 $LN15@GetToken
  00938	00 00 00 00	 DD	 $LN6@GetToken
$LN34@GetToken:
  0093c	00		 DB	 0
  0093d	01		 DB	 1
  0093e	07		 DB	 7
  0093f	07		 DB	 7
  00940	07		 DB	 7
  00941	07		 DB	 7
  00942	07		 DB	 7
  00943	07		 DB	 7
  00944	07		 DB	 7
  00945	07		 DB	 7
  00946	02		 DB	 2
  00947	03		 DB	 3
  00948	03		 DB	 3
  00949	07		 DB	 7
  0094a	03		 DB	 3
  0094b	03		 DB	 3
  0094c	03		 DB	 3
  0094d	03		 DB	 3
  0094e	03		 DB	 3
  0094f	03		 DB	 3
  00950	03		 DB	 3
  00951	03		 DB	 3
  00952	03		 DB	 3
  00953	03		 DB	 3
  00954	07		 DB	 7
  00955	04		 DB	 4
  00956	07		 DB	 7
  00957	07		 DB	 7
  00958	07		 DB	 7
  00959	07		 DB	 7
  0095a	07		 DB	 7
  0095b	07		 DB	 7
  0095c	07		 DB	 7
  0095d	07		 DB	 7
  0095e	07		 DB	 7
  0095f	07		 DB	 7
  00960	07		 DB	 7
  00961	07		 DB	 7
  00962	07		 DB	 7
  00963	07		 DB	 7
  00964	07		 DB	 7
  00965	07		 DB	 7
  00966	07		 DB	 7
  00967	07		 DB	 7
  00968	07		 DB	 7
  00969	07		 DB	 7
  0096a	07		 DB	 7
  0096b	07		 DB	 7
  0096c	07		 DB	 7
  0096d	07		 DB	 7
  0096e	07		 DB	 7
  0096f	07		 DB	 7
  00970	07		 DB	 7
  00971	07		 DB	 7
  00972	07		 DB	 7
  00973	07		 DB	 7
  00974	07		 DB	 7
  00975	07		 DB	 7
  00976	07		 DB	 7
  00977	07		 DB	 7
  00978	07		 DB	 7
  00979	07		 DB	 7
  0097a	07		 DB	 7
  0097b	07		 DB	 7
  0097c	07		 DB	 7
  0097d	07		 DB	 7
  0097e	07		 DB	 7
  0097f	07		 DB	 7
  00980	07		 DB	 7
  00981	07		 DB	 7
  00982	07		 DB	 7
  00983	07		 DB	 7
  00984	07		 DB	 7
  00985	07		 DB	 7
  00986	07		 DB	 7
  00987	07		 DB	 7
  00988	07		 DB	 7
  00989	07		 DB	 7
  0098a	07		 DB	 7
  0098b	07		 DB	 7
  0098c	07		 DB	 7
  0098d	07		 DB	 7
  0098e	07		 DB	 7
  0098f	07		 DB	 7
  00990	07		 DB	 7
  00991	07		 DB	 7
  00992	07		 DB	 7
  00993	07		 DB	 7
  00994	07		 DB	 7
  00995	05		 DB	 5
  00996	07		 DB	 7
  00997	06		 DB	 6
?GetToken@@YA?AW4SMDToken@@XZ ENDP			; GetToken
; Function compile flags: /Odtp /ZI
; File d:\projects\exteam6.3\source\gameserver\gameserver\tmonsterskillunit.cpp
_i$204813 = -4						; size = 4
?DelAllSkillUnit@TMonsterSkillUnit@@SAHXZ PROC		; TMonsterSkillUnit::DelAllSkillUnit

; 195  : {

  009a0	55		 push	 ebp
  009a1	8b ec		 mov	 ebp, esp
  009a3	83 ec 44	 sub	 esp, 68			; 00000044H
  009a6	53		 push	 ebx
  009a7	56		 push	 esi
  009a8	57		 push	 edi

; 196  : 	for(int i=0;i<MAX_MONSTER_SKILL_UNIT_ARRAY;i++)

  009a9	c7 45 fc 00 00
	00 00		 mov	 DWORD PTR _i$204813[ebp], 0
  009b0	eb 09		 jmp	 SHORT $LN3@DelAllSkil
$LN2@DelAllSkil:
  009b2	8b 45 fc	 mov	 eax, DWORD PTR _i$204813[ebp]
  009b5	83 c0 01	 add	 eax, 1
  009b8	89 45 fc	 mov	 DWORD PTR _i$204813[ebp], eax
$LN3@DelAllSkil:
  009bb	81 7d fc c8 00
	00 00		 cmp	 DWORD PTR _i$204813[ebp], 200 ; 000000c8H
  009c2	7d 13		 jge	 SHORT $LN1@DelAllSkil

; 197  : 	{
; 198  : 		TMonsterSkillUnit::s_MonsterSkillUnitArray[i].Reset();

  009c4	8b 4d fc	 mov	 ecx, DWORD PTR _i$204813[ebp]
  009c7	6b c9 44	 imul	 ecx, 68			; 00000044H
  009ca	81 c1 00 00 00
	00		 add	 ecx, OFFSET ?s_MonsterSkillUnitArray@TMonsterSkillUnit@@2PAV1@A ; TMonsterSkillUnit::s_MonsterSkillUnitArray
  009d0	e8 00 00 00 00	 call	 ?Reset@TMonsterSkillUnit@@QAEXXZ ; TMonsterSkillUnit::Reset

; 199  : 	}

  009d5	eb db		 jmp	 SHORT $LN2@DelAllSkil
$LN1@DelAllSkil:

; 200  : 
; 201  : 	return FALSE;

  009d7	33 c0		 xor	 eax, eax

; 202  : }

  009d9	5f		 pop	 edi
  009da	5e		 pop	 esi
  009db	5b		 pop	 ebx
  009dc	8b e5		 mov	 esp, ebp
  009de	5d		 pop	 ebp
  009df	c3		 ret	 0
?DelAllSkillUnit@TMonsterSkillUnit@@SAHXZ ENDP		; TMonsterSkillUnit::DelAllSkillUnit
_TEXT	ENDS
PUBLIC	??_C@_0DN@DDJJOPJK@?$FLMonster?5SkillUnit?$FN?5FindSkillUni@ ; `string'
PUBLIC	?FindSkillUnit@TMonsterSkillUnit@@SAPAV1@H@Z	; TMonsterSkillUnit::FindSkillUnit
EXTRN	?LogAddTD@@3P6AXPADZZA:DWORD			; LogAddTD
;	COMDAT ??_C@_0DN@DDJJOPJK@?$FLMonster?5SkillUnit?$FN?5FindSkillUni@
CONST	SEGMENT
??_C@_0DN@DDJJOPJK@?$FLMonster?5SkillUnit?$FN?5FindSkillUni@ DB '[Monster'
	DB	' SkillUnit] FindSkillUnit() Error - (UnitNumber=%d) ', 00H ; `string'
; Function compile flags: /Odtp /ZI
CONST	ENDS
_TEXT	SEGMENT
_iUnitNumber$ = 8					; size = 4
?FindSkillUnit@TMonsterSkillUnit@@SAPAV1@H@Z PROC	; TMonsterSkillUnit::FindSkillUnit

; 207  : {

  009e0	55		 push	 ebp
  009e1	8b ec		 mov	 ebp, esp
  009e3	83 ec 40	 sub	 esp, 64			; 00000040H
  009e6	53		 push	 ebx
  009e7	56		 push	 esi
  009e8	57		 push	 edi

; 208  : 	if ( iUnitNumber < 0 || iUnitNumber >= MAX_MONSTER_SKILL_UNIT_ARRAY )

  009e9	83 7d 08 00	 cmp	 DWORD PTR _iUnitNumber$[ebp], 0
  009ed	7c 09		 jl	 SHORT $LN2@FindSkillU
  009ef	81 7d 08 c8 00
	00 00		 cmp	 DWORD PTR _iUnitNumber$[ebp], 200 ; 000000c8H
  009f6	7c 16		 jl	 SHORT $LN3@FindSkillU
$LN2@FindSkillU:

; 209  : 	{
; 210  : 		LogAddTD("[Monster SkillUnit] FindSkillUnit() Error - (UnitNumber=%d) ",
; 211  : 			iUnitNumber);

  009f8	8b 45 08	 mov	 eax, DWORD PTR _iUnitNumber$[ebp]
  009fb	50		 push	 eax
  009fc	68 00 00 00 00	 push	 OFFSET ??_C@_0DN@DDJJOPJK@?$FLMonster?5SkillUnit?$FN?5FindSkillUni@
  00a01	ff 15 00 00 00
	00		 call	 DWORD PTR ?LogAddTD@@3P6AXPADZZA ; LogAddTD
  00a07	83 c4 08	 add	 esp, 8

; 212  : 
; 213  : 		return NULL;

  00a0a	33 c0		 xor	 eax, eax
  00a0c	eb 32		 jmp	 SHORT $LN4@FindSkillU
$LN3@FindSkillU:

; 214  : 	}
; 215  : 
; 216  : 	if ( TMonsterSkillUnit::s_MonsterSkillUnitArray[iUnitNumber].m_iUnitNumber == iUnitNumber )

  00a0e	8b 45 08	 mov	 eax, DWORD PTR _iUnitNumber$[ebp]
  00a11	6b c0 44	 imul	 eax, 68			; 00000044H
  00a14	8b 88 18 00 00
	00		 mov	 ecx, DWORD PTR ?s_MonsterSkillUnitArray@TMonsterSkillUnit@@2PAV1@A[eax+24]
  00a1a	3b 4d 08	 cmp	 ecx, DWORD PTR _iUnitNumber$[ebp]
  00a1d	75 0d		 jne	 SHORT $LN1@FindSkillU

; 217  : 	{
; 218  : 		return &TMonsterSkillUnit::s_MonsterSkillUnitArray[iUnitNumber];

  00a1f	8b 45 08	 mov	 eax, DWORD PTR _iUnitNumber$[ebp]
  00a22	6b c0 44	 imul	 eax, 68			; 00000044H
  00a25	05 00 00 00 00	 add	 eax, OFFSET ?s_MonsterSkillUnitArray@TMonsterSkillUnit@@2PAV1@A ; TMonsterSkillUnit::s_MonsterSkillUnitArray
  00a2a	eb 14		 jmp	 SHORT $LN4@FindSkillU
$LN1@FindSkillU:

; 219  : 	}
; 220  : 
; 221  : 	LogAddTD("[Monster SkillUnit] FindSkillUnit() Error - (UnitNumber=%d) ",
; 222  : 		iUnitNumber);

  00a2c	8b 45 08	 mov	 eax, DWORD PTR _iUnitNumber$[ebp]
  00a2f	50		 push	 eax
  00a30	68 00 00 00 00	 push	 OFFSET ??_C@_0DN@DDJJOPJK@?$FLMonster?5SkillUnit?$FN?5FindSkillUni@
  00a35	ff 15 00 00 00
	00		 call	 DWORD PTR ?LogAddTD@@3P6AXPADZZA ; LogAddTD
  00a3b	83 c4 08	 add	 esp, 8

; 223  : 
; 224  : 	return FALSE;

  00a3e	33 c0		 xor	 eax, eax
$LN4@FindSkillU:

; 225  : }

  00a40	5f		 pop	 edi
  00a41	5e		 pop	 esi
  00a42	5b		 pop	 ebx
  00a43	8b e5		 mov	 esp, ebp
  00a45	5d		 pop	 ebp
  00a46	c3		 ret	 0
?FindSkillUnit@TMonsterSkillUnit@@SAPAV1@H@Z ENDP	; TMonsterSkillUnit::FindSkillUnit
_TEXT	ENDS
PUBLIC	??_C@_0CJ@POAODADC@?$FLMonster?5SkillUnit?$FN?5SkillElement@ ; `string'
PUBLIC	__$ArrayPad$
PUBLIC	?RunSkill@TMonsterSkillUnit@@QAEXHH@Z		; TMonsterSkillUnit::RunSkill
;	COMDAT ??_C@_0CJ@POAODADC@?$FLMonster?5SkillUnit?$FN?5SkillElement@
CONST	SEGMENT
??_C@_0CJ@POAODADC@?$FLMonster?5SkillUnit?$FN?5SkillElement@ DB '[Monster'
	DB	' SkillUnit] SkillElement is NULL', 00H	; `string'
; Function compile flags: /Odtp /ZI
CONST	ENDS
_TEXT	SEGMENT
_i$204830 = -112					; size = 4
_szElementsName$ = -108					; size = 100
_this$ = -8						; size = 4
__$ArrayPad$ = -4					; size = 4
_iIndex$ = 8						; size = 4
_iTargetIndex$ = 12					; size = 4
?RunSkill@TMonsterSkillUnit@@QAEXHH@Z PROC		; TMonsterSkillUnit::RunSkill
; _this$ = ecx

; 228  : {

  00a50	55		 push	 ebp
  00a51	8b ec		 mov	 ebp, esp
  00a53	81 ec b0 00 00
	00		 sub	 esp, 176		; 000000b0H
  00a59	a1 00 00 00 00	 mov	 eax, DWORD PTR ___security_cookie
  00a5e	33 c5		 xor	 eax, ebp
  00a60	89 45 fc	 mov	 DWORD PTR __$ArrayPad$[ebp], eax
  00a63	53		 push	 ebx
  00a64	56		 push	 esi
  00a65	57		 push	 edi
  00a66	89 4d f8	 mov	 DWORD PTR _this$[ebp], ecx

; 229  : 	char szElementsName[5][20] = {0};

  00a69	c6 45 94 00	 mov	 BYTE PTR _szElementsName$[ebp], 0
  00a6d	6a 63		 push	 99			; 00000063H
  00a6f	6a 00		 push	 0
  00a71	8d 45 95	 lea	 eax, DWORD PTR _szElementsName$[ebp+1]
  00a74	50		 push	 eax
  00a75	e8 00 00 00 00	 call	 _memset
  00a7a	83 c4 0c	 add	 esp, 12			; 0000000cH

; 230  : 
; 231  : 	for ( int i=0;i<this->m_iElementsCount;i++)

  00a7d	c7 45 90 00 00
	00 00		 mov	 DWORD PTR _i$204830[ebp], 0
  00a84	eb 09		 jmp	 SHORT $LN4@RunSkill
$LN3@RunSkill:
  00a86	8b 45 90	 mov	 eax, DWORD PTR _i$204830[ebp]
  00a89	83 c0 01	 add	 eax, 1
  00a8c	89 45 90	 mov	 DWORD PTR _i$204830[ebp], eax
$LN4@RunSkill:
  00a8f	8b 45 f8	 mov	 eax, DWORD PTR _this$[ebp]
  00a92	8b 4d 90	 mov	 ecx, DWORD PTR _i$204830[ebp]
  00a95	3b 48 2c	 cmp	 ecx, DWORD PTR [eax+44]
  00a98	7d 45		 jge	 SHORT $LN5@RunSkill

; 232  : 	{
; 233  : 		if ( this->m_lpElementsSlot[i] == NULL )

  00a9a	8b 45 90	 mov	 eax, DWORD PTR _i$204830[ebp]
  00a9d	8b 4d f8	 mov	 ecx, DWORD PTR _this$[ebp]
  00aa0	83 7c 81 30 00	 cmp	 DWORD PTR [ecx+eax*4+48], 0
  00aa5	75 12		 jne	 SHORT $LN1@RunSkill

; 234  : 		{
; 235  : 			LogAddC(2, "[Monster SkillUnit] SkillElement is NULL");

  00aa7	68 00 00 00 00	 push	 OFFSET ??_C@_0CJ@POAODADC@?$FLMonster?5SkillUnit?$FN?5SkillElement@
  00aac	6a 02		 push	 2
  00aae	ff 15 00 00 00
	00		 call	 DWORD PTR ?LogAddC@@3P6AXEPADZZA ; LogAddC
  00ab4	83 c4 08	 add	 esp, 8

; 236  : 			continue;

  00ab7	eb cd		 jmp	 SHORT $LN3@RunSkill
$LN1@RunSkill:

; 237  : 		}
; 238  : 
; 239  : 		this->m_lpElementsSlot[i]->ForceSkillElement(iIndex, iTargetIndex);

  00ab9	8b 45 0c	 mov	 eax, DWORD PTR _iTargetIndex$[ebp]
  00abc	50		 push	 eax
  00abd	8b 4d 08	 mov	 ecx, DWORD PTR _iIndex$[ebp]
  00ac0	51		 push	 ecx
  00ac1	8b 55 90	 mov	 edx, DWORD PTR _i$204830[ebp]
  00ac4	8b 45 f8	 mov	 eax, DWORD PTR _this$[ebp]
  00ac7	8b 4c 90 30	 mov	 ecx, DWORD PTR [eax+edx*4+48]
  00acb	8b 55 90	 mov	 edx, DWORD PTR _i$204830[ebp]
  00ace	8b 45 f8	 mov	 eax, DWORD PTR _this$[ebp]
  00ad1	8b 54 90 30	 mov	 edx, DWORD PTR [eax+edx*4+48]
  00ad5	8b 01		 mov	 eax, DWORD PTR [ecx]
  00ad7	8b ca		 mov	 ecx, edx
  00ad9	8b 10		 mov	 edx, DWORD PTR [eax]
  00adb	ff d2		 call	 edx

; 240  : 	}

  00add	eb a7		 jmp	 SHORT $LN3@RunSkill
$LN5@RunSkill:

; 241  : }

  00adf	5f		 pop	 edi
  00ae0	5e		 pop	 esi
  00ae1	5b		 pop	 ebx
  00ae2	8b 4d fc	 mov	 ecx, DWORD PTR __$ArrayPad$[ebp]
  00ae5	33 cd		 xor	 ecx, ebp
  00ae7	e8 00 00 00 00	 call	 @__security_check_cookie@4
  00aec	8b e5		 mov	 esp, ebp
  00aee	5d		 pop	 ebp
  00aef	c2 08 00	 ret	 8
?RunSkill@TMonsterSkillUnit@@QAEXHH@Z ENDP		; TMonsterSkillUnit::RunSkill
; Function compile flags: /Odtp /ZI
_this$ = -4						; size = 4
?GetElementName@TMonsterSkillElement@@QAEPADXZ PROC	; TMonsterSkillElement::GetElementName
; _this$ = ecx

; 245  : {

  00b00	55		 push	 ebp
  00b01	8b ec		 mov	 ebp, esp
  00b03	83 ec 44	 sub	 esp, 68			; 00000044H
  00b06	53		 push	 ebx
  00b07	56		 push	 esi
  00b08	57		 push	 edi
  00b09	89 4d fc	 mov	 DWORD PTR _this$[ebp], ecx

; 246  : 	return this->m_szElementName;

  00b0c	8b 45 fc	 mov	 eax, DWORD PTR _this$[ebp]
  00b0f	83 c0 04	 add	 eax, 4

; 247  : }

  00b12	5f		 pop	 edi
  00b13	5e		 pop	 esi
  00b14	5b		 pop	 ebx
  00b15	8b e5		 mov	 esp, ebp
  00b17	5d		 pop	 ebp
  00b18	c3		 ret	 0
?GetElementName@TMonsterSkillElement@@QAEPADXZ ENDP	; TMonsterSkillElement::GetElementName
_TEXT	ENDS
EXTRN	_atexit:PROC
EXTRN	??_L@YGXPAXIHP6EX0@Z1@Z:PROC			; `eh vector constructor iterator'
; Function compile flags: /Odtp /ZI
;	COMDAT ??__E?s_MonsterSkillUnitArray@TMonsterSkillUnit@@2PAV1@A@@YAXXZ
text$yc	SEGMENT
??__E?s_MonsterSkillUnitArray@TMonsterSkillUnit@@2PAV1@A@@YAXXZ PROC ; `dynamic initializer for 'TMonsterSkillUnit::s_MonsterSkillUnitArray'', COMDAT

; 13   : TMonsterSkillUnit TMonsterSkillUnit::s_MonsterSkillUnitArray[MAX_MONSTER_SKILL_UNIT_ARRAY];

  00000	55		 push	 ebp
  00001	8b ec		 mov	 ebp, esp
  00003	83 ec 40	 sub	 esp, 64			; 00000040H
  00006	53		 push	 ebx
  00007	56		 push	 esi
  00008	57		 push	 edi
  00009	68 00 00 00 00	 push	 OFFSET ??1TMonsterSkillUnit@@UAE@XZ ; TMonsterSkillUnit::~TMonsterSkillUnit
  0000e	68 00 00 00 00	 push	 OFFSET ??0TMonsterSkillUnit@@QAE@XZ ; TMonsterSkillUnit::TMonsterSkillUnit
  00013	68 c8 00 00 00	 push	 200			; 000000c8H
  00018	6a 44		 push	 68			; 00000044H
  0001a	68 00 00 00 00	 push	 OFFSET ?s_MonsterSkillUnitArray@TMonsterSkillUnit@@2PAV1@A ; TMonsterSkillUnit::s_MonsterSkillUnitArray
  0001f	e8 00 00 00 00	 call	 ??_L@YGXPAXIHP6EX0@Z1@Z
  00024	68 00 00 00 00	 push	 OFFSET ??__F?s_MonsterSkillUnitArray@TMonsterSkillUnit@@2PAV1@A@@YAXXZ ; `dynamic atexit destructor for 'TMonsterSkillUnit::s_MonsterSkillUnitArray''
  00029	e8 00 00 00 00	 call	 _atexit
  0002e	83 c4 04	 add	 esp, 4
  00031	5f		 pop	 edi
  00032	5e		 pop	 esi
  00033	5b		 pop	 ebx
  00034	8b e5		 mov	 esp, ebp
  00036	5d		 pop	 ebp
  00037	c3		 ret	 0
??__E?s_MonsterSkillUnitArray@TMonsterSkillUnit@@2PAV1@A@@YAXXZ ENDP ; `dynamic initializer for 'TMonsterSkillUnit::s_MonsterSkillUnitArray''
text$yc	ENDS
EXTRN	??_M@YGXPAXIHP6EX0@Z@Z:PROC			; `eh vector destructor iterator'
; Function compile flags: /Odtp /ZI
;	COMDAT ??__F?s_MonsterSkillUnitArray@TMonsterSkillUnit@@2PAV1@A@@YAXXZ
text$yd	SEGMENT
??__F?s_MonsterSkillUnitArray@TMonsterSkillUnit@@2PAV1@A@@YAXXZ PROC ; `dynamic atexit destructor for 'TMonsterSkillUnit::s_MonsterSkillUnitArray'', COMDAT
  00000	55		 push	 ebp
  00001	8b ec		 mov	 ebp, esp
  00003	83 ec 40	 sub	 esp, 64			; 00000040H
  00006	53		 push	 ebx
  00007	56		 push	 esi
  00008	57		 push	 edi
  00009	68 00 00 00 00	 push	 OFFSET ??1TMonsterSkillUnit@@UAE@XZ ; TMonsterSkillUnit::~TMonsterSkillUnit
  0000e	68 c8 00 00 00	 push	 200			; 000000c8H
  00013	6a 44		 push	 68			; 00000044H
  00015	68 00 00 00 00	 push	 OFFSET ?s_MonsterSkillUnitArray@TMonsterSkillUnit@@2PAV1@A ; TMonsterSkillUnit::s_MonsterSkillUnitArray
  0001a	e8 00 00 00 00	 call	 ??_M@YGXPAXIHP6EX0@Z@Z
  0001f	5f		 pop	 edi
  00020	5e		 pop	 esi
  00021	5b		 pop	 ebx
  00022	8b e5		 mov	 esp, ebp
  00024	5d		 pop	 ebp
  00025	c3		 ret	 0
??__F?s_MonsterSkillUnitArray@TMonsterSkillUnit@@2PAV1@A@@YAXXZ ENDP ; `dynamic atexit destructor for 'TMonsterSkillUnit::s_MonsterSkillUnitArray''
text$yd	ENDS
PUBLIC	?s_MonsterSkillUnitArray@TMonsterSkillUnit@@2PAV1@A ; TMonsterSkillUnit::s_MonsterSkillUnitArray
_BSS	SEGMENT
?s_MonsterSkillUnitArray@TMonsterSkillUnit@@2PAV1@A DB 03520H DUP (?) ; TMonsterSkillUnit::s_MonsterSkillUnitArray
_BSS	ENDS
CRT$XCU	SEGMENT
?s_MonsterSkillUnitArray$initializer$@TMonsterSkillUnit@@2P6AXXZA DD FLAT:??__E?s_MonsterSkillUnitArray@TMonsterSkillUnit@@2PAV1@A@@YAXXZ ; TMonsterSkillUnit::s_MonsterSkillUnitArray$initializer$
CRT$XCU	ENDS
END
