; Listing generated by Microsoft (R) Optimizing Compiler Version 16.00.40219.01 

	TITLE	D:\Projects\ExTeam6.3\Source\GameServer\GameServer\TMonsterAIElement.cpp
	.686P
	.XMM
	include listing.inc
	.model	flat

INCLUDELIB LIBCMT
INCLUDELIB OLDNAMES

PUBLIC	?s_bDataLoad@TMonsterAIElement@@2HA		; TMonsterAIElement::s_bDataLoad
_BSS	SEGMENT
?s_bDataLoad@TMonsterAIElement@@2HA DD 01H DUP (?)	; TMonsterAIElement::s_bDataLoad
_BSS	ENDS
_DATA	SEGMENT
_g_iNpcUpDfLevel_CGATE DD 01H
	DD	02H
	DD	02dc6c0H
	DD	02H
	DD	03H
	DD	02dc6c0H
	DD	03H
	DD	04H
	DD	02dc6c0H
_g_iNpcUpDfLevel_CSTATUE DD 01H
	DD	03H
	DD	02dc6c0H
	DD	02H
	DD	05H
	DD	02dc6c0H
	DD	03H
	DD	07H
	DD	02dc6c0H
_g_iNpcUpMaxHP_CGATE DD 02625a0H
	DD	02H
	DD	0f4240H
	DD	03567e0H
	DD	03H
	DD	0f4240H
	DD	04f5880H
	DD	04H
	DD	0f4240H
_g_iNpcUpMaxHP_CSTATUE DD 02191c0H
	DD	03H
	DD	0f4240H
	DD	033e140H
	DD	05H
	DD	0f4240H
	DD	04c4b40H
	DD	07H
	DD	0f4240H
_g_iNpcUpRgLevel_CSTATUE DD 01H
	DD	03H
	DD	04c4b40H
	DD	02H
	DD	05H
	DD	04c4b40H
	DD	03H
	DD	07H
	DD	04c4b40H
_g_iCsUserReSpawnArea DD 023H
	DD	011H
	DD	090H
	DD	030H
	DD	04aH
	DD	090H
	DD	073H
	DD	09aH
	DD	023H
	DD	011H
	DD	090H
	DD	030H
_g_iNpcDefense_CGATE DD 064H
	DD	0b4H
	DD	012cH
	DD	0208H
_g_iNpcDefense_CSTATUE DD 050H
	DD	0b4H
	DD	0154H
	DD	0226H
_g_iCastleWallStepAxisY DD 071H
	DD	0a0H
	DD	0cbH
_DATA	ENDS
PUBLIC	??_H@YGXPAXIHP6EPAX0@Z@Z			; `vector constructor iterator'
; Function compile flags: /Odtp /ZI
;	COMDAT ??_H@YGXPAXIHP6EPAX0@Z@Z
_TEXT	SEGMENT
___t$ = 8						; size = 4
___s$ = 12						; size = 4
___n$ = 16						; size = 4
___f$ = 20						; size = 4
??_H@YGXPAXIHP6EPAX0@Z@Z PROC				; `vector constructor iterator', COMDAT
  00000	55		 push	 ebp
  00001	8b ec		 mov	 ebp, esp
  00003	83 ec 40	 sub	 esp, 64			; 00000040H
  00006	53		 push	 ebx
  00007	56		 push	 esi
  00008	57		 push	 edi
$LN2@vector:
  00009	8b 45 10	 mov	 eax, DWORD PTR ___n$[ebp]
  0000c	83 e8 01	 sub	 eax, 1
  0000f	89 45 10	 mov	 DWORD PTR ___n$[ebp], eax
  00012	78 11		 js	 SHORT $LN3@vector
  00014	8b 4d 08	 mov	 ecx, DWORD PTR ___t$[ebp]
  00017	ff 55 14	 call	 DWORD PTR ___f$[ebp]
  0001a	8b 45 08	 mov	 eax, DWORD PTR ___t$[ebp]
  0001d	03 45 0c	 add	 eax, DWORD PTR ___s$[ebp]
  00020	89 45 08	 mov	 DWORD PTR ___t$[ebp], eax
  00023	eb e4		 jmp	 SHORT $LN2@vector
$LN3@vector:
  00025	5f		 pop	 edi
  00026	5e		 pop	 esi
  00027	5b		 pop	 ebx
  00028	8b e5		 mov	 esp, ebp
  0002a	5d		 pop	 ebp
  0002b	c2 10 00	 ret	 16			; 00000010H
??_H@YGXPAXIHP6EPAX0@Z@Z ENDP				; `vector constructor iterator'
_TEXT	ENDS
PUBLIC	?Reset@TMonsterAIElement@@QAEXXZ		; TMonsterAIElement::Reset
PUBLIC	??_7TMonsterAIElement@@6B@			; TMonsterAIElement::`vftable'
PUBLIC	??0TMonsterAIElement@@QAE@XZ			; TMonsterAIElement::TMonsterAIElement
PUBLIC	??_R4TMonsterAIElement@@6B@			; TMonsterAIElement::`RTTI Complete Object Locator'
PUBLIC	??_R0?AVTMonsterAIElement@@@8			; TMonsterAIElement `RTTI Type Descriptor'
PUBLIC	??_R3TMonsterAIElement@@8			; TMonsterAIElement::`RTTI Class Hierarchy Descriptor'
PUBLIC	??_R2TMonsterAIElement@@8			; TMonsterAIElement::`RTTI Base Class Array'
PUBLIC	??_R1A@?0A@EA@TMonsterAIElement@@8		; TMonsterAIElement::`RTTI Base Class Descriptor at (0,-1,0,64)'
EXTRN	??_7type_info@@6B@:QWORD			; type_info::`vftable'
EXTRN	??_ETMonsterAIElement@@UAEPAXI@Z:PROC		; TMonsterAIElement::`vector deleting destructor'
;	COMDAT ??_R1A@?0A@EA@TMonsterAIElement@@8
; File d:\projects\exteam6.3\source\gameserver\gameserver\tmonsteraielement.cpp
rdata$r	SEGMENT
??_R1A@?0A@EA@TMonsterAIElement@@8 DD FLAT:??_R0?AVTMonsterAIElement@@@8 ; TMonsterAIElement::`RTTI Base Class Descriptor at (0,-1,0,64)'
	DD	00H
	DD	00H
	DD	0ffffffffH
	DD	00H
	DD	040H
	DD	FLAT:??_R3TMonsterAIElement@@8
rdata$r	ENDS
;	COMDAT ??_R2TMonsterAIElement@@8
rdata$r	SEGMENT
??_R2TMonsterAIElement@@8 DD FLAT:??_R1A@?0A@EA@TMonsterAIElement@@8 ; TMonsterAIElement::`RTTI Base Class Array'
rdata$r	ENDS
;	COMDAT ??_R3TMonsterAIElement@@8
rdata$r	SEGMENT
??_R3TMonsterAIElement@@8 DD 00H			; TMonsterAIElement::`RTTI Class Hierarchy Descriptor'
	DD	00H
	DD	01H
	DD	FLAT:??_R2TMonsterAIElement@@8
rdata$r	ENDS
;	COMDAT ??_R0?AVTMonsterAIElement@@@8
_DATA	SEGMENT
??_R0?AVTMonsterAIElement@@@8 DD FLAT:??_7type_info@@6B@ ; TMonsterAIElement `RTTI Type Descriptor'
	DD	00H
	DB	'.?AVTMonsterAIElement@@', 00H
_DATA	ENDS
;	COMDAT ??_R4TMonsterAIElement@@6B@
rdata$r	SEGMENT
??_R4TMonsterAIElement@@6B@ DD 00H			; TMonsterAIElement::`RTTI Complete Object Locator'
	DD	00H
	DD	00H
	DD	FLAT:??_R0?AVTMonsterAIElement@@@8
	DD	FLAT:??_R3TMonsterAIElement@@8
rdata$r	ENDS
;	COMDAT ??_7TMonsterAIElement@@6B@
CONST	SEGMENT
??_7TMonsterAIElement@@6B@ DD FLAT:??_R4TMonsterAIElement@@6B@ ; TMonsterAIElement::`vftable'
	DD	FLAT:??_ETMonsterAIElement@@UAEPAXI@Z
; Function compile flags: /Odtp /ZI
CONST	ENDS
_TEXT	SEGMENT
_this$ = -4						; size = 4
??0TMonsterAIElement@@QAE@XZ PROC			; TMonsterAIElement::TMonsterAIElement
; _this$ = ecx

; 28   : {

  00000	55		 push	 ebp
  00001	8b ec		 mov	 ebp, esp
  00003	83 ec 44	 sub	 esp, 68			; 00000044H
  00006	53		 push	 ebx
  00007	56		 push	 esi
  00008	57		 push	 edi
  00009	89 4d fc	 mov	 DWORD PTR _this$[ebp], ecx
  0000c	8b 45 fc	 mov	 eax, DWORD PTR _this$[ebp]
  0000f	c7 00 00 00 00
	00		 mov	 DWORD PTR [eax], OFFSET ??_7TMonsterAIElement@@6B@

; 29   : 	this->Reset();

  00015	8b 4d fc	 mov	 ecx, DWORD PTR _this$[ebp]
  00018	e8 00 00 00 00	 call	 ?Reset@TMonsterAIElement@@QAEXXZ ; TMonsterAIElement::Reset

; 30   : }

  0001d	8b 45 fc	 mov	 eax, DWORD PTR _this$[ebp]
  00020	5f		 pop	 edi
  00021	5e		 pop	 esi
  00022	5b		 pop	 ebx
  00023	8b e5		 mov	 esp, ebp
  00025	5d		 pop	 ebp
  00026	c3		 ret	 0
??0TMonsterAIElement@@QAE@XZ ENDP			; TMonsterAIElement::TMonsterAIElement
_TEXT	ENDS
PUBLIC	??1TMonsterAIElement@@UAE@XZ			; TMonsterAIElement::~TMonsterAIElement
EXTRN	??3@YAXPAX@Z:PROC				; operator delete
; Function compile flags: /Odtp /ZI
;	COMDAT ??_GTMonsterAIElement@@UAEPAXI@Z
_TEXT	SEGMENT
_this$ = -4						; size = 4
___flags$ = 8						; size = 4
??_GTMonsterAIElement@@UAEPAXI@Z PROC			; TMonsterAIElement::`scalar deleting destructor', COMDAT
; _this$ = ecx
  00000	55		 push	 ebp
  00001	8b ec		 mov	 ebp, esp
  00003	83 ec 44	 sub	 esp, 68			; 00000044H
  00006	53		 push	 ebx
  00007	56		 push	 esi
  00008	57		 push	 edi
  00009	89 4d fc	 mov	 DWORD PTR _this$[ebp], ecx
  0000c	8b 4d fc	 mov	 ecx, DWORD PTR _this$[ebp]
  0000f	e8 00 00 00 00	 call	 ??1TMonsterAIElement@@UAE@XZ ; TMonsterAIElement::~TMonsterAIElement
  00014	8b 45 08	 mov	 eax, DWORD PTR ___flags$[ebp]
  00017	83 e0 01	 and	 eax, 1
  0001a	74 0c		 je	 SHORT $LN1@scalar
  0001c	8b 45 fc	 mov	 eax, DWORD PTR _this$[ebp]
  0001f	50		 push	 eax
  00020	e8 00 00 00 00	 call	 ??3@YAXPAX@Z		; operator delete
  00025	83 c4 04	 add	 esp, 4
$LN1@scalar:
  00028	8b 45 fc	 mov	 eax, DWORD PTR _this$[ebp]
  0002b	5f		 pop	 edi
  0002c	5e		 pop	 esi
  0002d	5b		 pop	 ebx
  0002e	8b e5		 mov	 esp, ebp
  00030	5d		 pop	 ebp
  00031	c2 04 00	 ret	 4
??_GTMonsterAIElement@@UAEPAXI@Z ENDP			; TMonsterAIElement::`scalar deleting destructor'
; Function compile flags: /Odtp /ZI
_TEXT	ENDS
_TEXT	SEGMENT
_this$ = -4						; size = 4
??1TMonsterAIElement@@UAE@XZ PROC			; TMonsterAIElement::~TMonsterAIElement
; _this$ = ecx

; 33   : {

  00030	55		 push	 ebp
  00031	8b ec		 mov	 ebp, esp
  00033	83 ec 44	 sub	 esp, 68			; 00000044H
  00036	53		 push	 ebx
  00037	56		 push	 esi
  00038	57		 push	 edi
  00039	89 4d fc	 mov	 DWORD PTR _this$[ebp], ecx
  0003c	8b 45 fc	 mov	 eax, DWORD PTR _this$[ebp]
  0003f	c7 00 00 00 00
	00		 mov	 DWORD PTR [eax], OFFSET ??_7TMonsterAIElement@@6B@

; 34   : 
; 35   : }

  00045	5f		 pop	 edi
  00046	5e		 pop	 esi
  00047	5b		 pop	 ebx
  00048	8b e5		 mov	 esp, ebp
  0004a	5d		 pop	 ebp
  0004b	c3		 ret	 0
??1TMonsterAIElement@@UAE@XZ ENDP			; TMonsterAIElement::~TMonsterAIElement
_TEXT	ENDS
EXTRN	_memset:PROC
; Function compile flags: /Odtp /ZI
_TEXT	SEGMENT
_this$ = -4						; size = 4
?Reset@TMonsterAIElement@@QAEXXZ PROC			; TMonsterAIElement::Reset
; _this$ = ecx

; 38   : {

  00050	55		 push	 ebp
  00051	8b ec		 mov	 ebp, esp
  00053	83 ec 44	 sub	 esp, 68			; 00000044H
  00056	53		 push	 ebx
  00057	56		 push	 esi
  00058	57		 push	 edi
  00059	89 4d fc	 mov	 DWORD PTR _this$[ebp], ecx

; 39   : 	this->m_iElementClass = -1;

  0005c	8b 45 fc	 mov	 eax, DWORD PTR _this$[ebp]
  0005f	c7 40 3c ff ff
	ff ff		 mov	 DWORD PTR [eax+60], -1

; 40   : 	this->m_iElementType = -1;

  00066	8b 45 fc	 mov	 eax, DWORD PTR _this$[ebp]
  00069	c7 40 40 ff ff
	ff ff		 mov	 DWORD PTR [eax+64], -1

; 41   : 	this->m_iElementNumber = -1;

  00070	8b 45 fc	 mov	 eax, DWORD PTR _this$[ebp]
  00073	c7 40 38 ff ff
	ff ff		 mov	 DWORD PTR [eax+56], -1

; 42   : 	this->m_iSuccessRate = -1;

  0007a	8b 45 fc	 mov	 eax, DWORD PTR _this$[ebp]
  0007d	c7 40 44 ff ff
	ff ff		 mov	 DWORD PTR [eax+68], -1

; 43   : 	this->m_iDelayTime = -1;

  00084	8b 45 fc	 mov	 eax, DWORD PTR _this$[ebp]
  00087	c7 40 48 ff ff
	ff ff		 mov	 DWORD PTR [eax+72], -1

; 44   : 	this->m_iTargetType = -1;

  0008e	8b 45 fc	 mov	 eax, DWORD PTR _this$[ebp]
  00091	c7 40 4c ff ff
	ff ff		 mov	 DWORD PTR [eax+76], -1

; 45   : 	this->m_iX = -1;

  00098	8b 45 fc	 mov	 eax, DWORD PTR _this$[ebp]
  0009b	c7 40 50 ff ff
	ff ff		 mov	 DWORD PTR [eax+80], -1

; 46   : 	this->m_iY = -1;

  000a2	8b 45 fc	 mov	 eax, DWORD PTR _this$[ebp]
  000a5	c7 40 54 ff ff
	ff ff		 mov	 DWORD PTR [eax+84], -1

; 47   : 	memset(this->m_szElementName, 0, sizeof(this->m_szElementName));

  000ac	6a 32		 push	 50			; 00000032H
  000ae	6a 00		 push	 0
  000b0	8b 45 fc	 mov	 eax, DWORD PTR _this$[ebp]
  000b3	83 c0 04	 add	 eax, 4
  000b6	50		 push	 eax
  000b7	e8 00 00 00 00	 call	 _memset
  000bc	83 c4 0c	 add	 esp, 12			; 0000000cH

; 48   : }

  000bf	5f		 pop	 edi
  000c0	5e		 pop	 esi
  000c1	5b		 pop	 ebx
  000c2	8b e5		 mov	 esp, ebp
  000c4	5d		 pop	 ebp
  000c5	c3		 ret	 0
?Reset@TMonsterAIElement@@QAEXXZ ENDP			; TMonsterAIElement::Reset
_TEXT	ENDS
PUBLIC	??_C@_0BJ@BOBOOIND@Monsters?2MovePath_35?4dat?$AA@ ; `string'
PUBLIC	??_C@_0DL@GHCFCCJM@?$FLMonster?5AI?5Element?$FN?5?9?5Loading?5E@ ; `string'
PUBLIC	??_C@_0CJ@CODEEKKA@?$FLMonster?5AI?5Element?$FN?5?9?5?$CFs?5file?5i@ ; `string'
PUBLIC	??_C@_0DK@KJDEHPPO@?$FLMonster?5AI?5Element?$FN?5?9?5ElementCl@ ; `string'
PUBLIC	??_C@_0DL@BLNJIJKI@?$FLMonster?5AI?5Element?$FN?5?9?5ElementNu@ ; `string'
PUBLIC	??_C@_03JBJLGPFL@end?$AA@			; `string'
PUBLIC	?DelAllAIElement@TMonsterAIElement@@SAHXZ	; TMonsterAIElement::DelAllAIElement
PUBLIC	??_C@_0CG@GEEPJADH@?$FLMonster?5AI?5Element?$FN?5?9?5Can?8t?5Ope@ ; `string'
PUBLIC	??_C@_01KDCPPGHE@r?$AA@				; `string'
PUBLIC	??_C@_0DJ@OKEPGHGM@?$FLMonster?5AI?5Element?$FN?5?9?5File?5load@ ; `string'
PUBLIC	??_C@_00CNPNBAHC@?$AA@				; `string'
PUBLIC	__$ArrayPad$
PUBLIC	?LoadData@TMonsterAIElement@@SAHPAD@Z		; TMonsterAIElement::LoadData
EXTRN	?LoadData@TMonsterAIMovePath@@QAEHPAD@Z:PROC	; TMonsterAIMovePath::LoadData
EXTRN	?GetNewPath@CDirPath@@QAEPADPAD@Z:PROC		; CDirPath::GetNewPath
EXTRN	?gDirPath@@3VCDirPath@@A:BYTE			; gDirPath
EXTRN	?LogAddC@@3P6AXEPADZZA:DWORD			; LogAddC
EXTRN	_fclose:PROC
EXTRN	_memcpy:PROC
EXTRN	_fopen:PROC
EXTRN	?MsgBox@@YAXPADZZ:PROC				; MsgBox
EXTRN	_strcmp:PROC
EXTRN	___security_cookie:DWORD
EXTRN	___CxxFrameHandler3:PROC
EXTRN	@__security_check_cookie@4:PROC
EXTRN	_memset:PROC
EXTRN	__ftol2_sse:PROC
_BSS	SEGMENT
_TokenString DB	064H DUP (?)
_TokenNumber DD	01H DUP (?)
_SMDFile DD	01H DUP (?)
_BSS	ENDS
;	COMDAT ??_C@_0BJ@BOBOOIND@Monsters?2MovePath_35?4dat?$AA@
CONST	SEGMENT
??_C@_0BJ@BOBOOIND@Monsters?2MovePath_35?4dat?$AA@ DB 'Monsters\MovePath_'
	DB	'35.dat', 00H				; `string'
CONST	ENDS
;	COMDAT ??_C@_0DL@GHCFCCJM@?$FLMonster?5AI?5Element?$FN?5?9?5Loading?5E@
CONST	SEGMENT
??_C@_0DL@GHCFCCJM@?$FLMonster?5AI?5Element?$FN?5?9?5Loading?5E@ DB '[Mon'
	DB	'ster AI Element] - Loading Exception Error (%s) File. ', 00H ; `string'
CONST	ENDS
;	COMDAT ??_C@_0CJ@CODEEKKA@?$FLMonster?5AI?5Element?$FN?5?9?5?$CFs?5file?5i@
CONST	SEGMENT
??_C@_0CJ@CODEEKKA@?$FLMonster?5AI?5Element?$FN?5?9?5?$CFs?5file?5i@ DB '['
	DB	'Monster AI Element] - %s file is Loaded', 00H ; `string'
CONST	ENDS
;	COMDAT ??_C@_0DK@KJDEHPPO@?$FLMonster?5AI?5Element?$FN?5?9?5ElementCl@
CONST	SEGMENT
??_C@_0DK@KJDEHPPO@?$FLMonster?5AI?5Element?$FN?5?9?5ElementCl@ DB '[Mons'
	DB	'ter AI Element] - ElementClass(%d) Error (%s) File. ', 00H ; `string'
CONST	ENDS
;	COMDAT ??_C@_0DL@BLNJIJKI@?$FLMonster?5AI?5Element?$FN?5?9?5ElementNu@
CONST	SEGMENT
??_C@_0DL@BLNJIJKI@?$FLMonster?5AI?5Element?$FN?5?9?5ElementNu@ DB '[Mons'
	DB	'ter AI Element] - ElementNumber(%d) Error (%s) File. ', 00H ; `string'
CONST	ENDS
;	COMDAT ??_C@_03JBJLGPFL@end?$AA@
CONST	SEGMENT
??_C@_03JBJLGPFL@end?$AA@ DB 'end', 00H			; `string'
CONST	ENDS
;	COMDAT ??_C@_0CG@GEEPJADH@?$FLMonster?5AI?5Element?$FN?5?9?5Can?8t?5Ope@
CONST	SEGMENT
??_C@_0CG@GEEPJADH@?$FLMonster?5AI?5Element?$FN?5?9?5Can?8t?5Ope@ DB '[Mo'
	DB	'nster AI Element] - Can''t Open %s ', 00H	; `string'
CONST	ENDS
;	COMDAT ??_C@_01KDCPPGHE@r?$AA@
CONST	SEGMENT
??_C@_01KDCPPGHE@r?$AA@ DB 'r', 00H			; `string'
CONST	ENDS
;	COMDAT ??_C@_0DJ@OKEPGHGM@?$FLMonster?5AI?5Element?$FN?5?9?5File?5load@
CONST	SEGMENT
??_C@_0DJ@OKEPGHGM@?$FLMonster?5AI?5Element?$FN?5?9?5File?5load@ DB '[Mon'
	DB	'ster AI Element] - File load error : File Name Error', 00H ; `string'
CONST	ENDS
;	COMDAT ??_C@_00CNPNBAHC@?$AA@
CONST	SEGMENT
??_C@_00CNPNBAHC@?$AA@ DB 00H				; `string'
CONST	ENDS
xdata$x	SEGMENT
__catchsym$?LoadData@TMonsterAIElement@@SAHPAD@Z$2 DD 040H
	DD	00H
	DD	00H
	DD	FLAT:__catch$?LoadData@TMonsterAIElement@@SAHPAD@Z$0
__unwindtable$?LoadData@TMonsterAIElement@@SAHPAD@Z DD 0ffffffffH
	DD	00H
	DD	0ffffffffH
	DD	00H
__tryblocktable$?LoadData@TMonsterAIElement@@SAHPAD@Z DD 00H
	DD	00H
	DD	01H
	DD	01H
	DD	FLAT:__catchsym$?LoadData@TMonsterAIElement@@SAHPAD@Z$2
__ehfuncinfo$?LoadData@TMonsterAIElement@@SAHPAD@Z DD 019930522H
	DD	02H
	DD	FLAT:__unwindtable$?LoadData@TMonsterAIElement@@SAHPAD@Z
	DD	01H
	DD	FLAT:__tryblocktable$?LoadData@TMonsterAIElement@@SAHPAD@Z
	DD	2 DUP(00H)
	DD	00H
	DD	01H
; Function compile flags: /Odtp /ZI
xdata$x	ENDS
_TEXT	SEGMENT
tv203 = -180						; size = 4
tv202 = -180						; size = 4
tv201 = -180						; size = 4
tv200 = -180						; size = 4
tv199 = -180						; size = 4
tv198 = -180						; size = 4
tv197 = -180						; size = 4
tv196 = -180						; size = 4
tv195 = -180						; size = 4
tv194 = -180						; size = 4
_iY$228680 = -112					; size = 4
_iX$228679 = -108					; size = 4
_iTargetType$228678 = -104				; size = 4
_iDelayTime$228677 = -100				; size = 4
_iSuccessRate$228676 = -96				; size = 4
_iElementType$228675 = -92				; size = 4
_iElementClass$228674 = -88				; size = 4
_iElementNumber$228673 = -84				; size = 4
_szElementName$228672 = -80				; size = 50
_iType$228645 = -28					; size = 4
_Token$228641 = -24					; size = 4
__$ArrayPad$ = -20					; size = 4
__$EHRec$ = -16						; size = 16
_lpszFileName$ = 8					; size = 4
?LoadData@TMonsterAIElement@@SAHPAD@Z PROC		; TMonsterAIElement::LoadData

; 51   : {

  000d0	55		 push	 ebp
  000d1	8b ec		 mov	 ebp, esp
  000d3	6a ff		 push	 -1
  000d5	68 00 00 00 00	 push	 __ehhandler$?LoadData@TMonsterAIElement@@SAHPAD@Z
  000da	64 a1 00 00 00
	00		 mov	 eax, DWORD PTR fs:0
  000e0	50		 push	 eax
  000e1	51		 push	 ecx
  000e2	81 ec a4 00 00
	00		 sub	 esp, 164		; 000000a4H
  000e8	a1 00 00 00 00	 mov	 eax, DWORD PTR ___security_cookie
  000ed	33 c5		 xor	 eax, ebp
  000ef	89 45 ec	 mov	 DWORD PTR __$ArrayPad$[ebp], eax
  000f2	53		 push	 ebx
  000f3	56		 push	 esi
  000f4	57		 push	 edi
  000f5	50		 push	 eax
  000f6	8d 45 f4	 lea	 eax, DWORD PTR __$EHRec$[ebp+4]
  000f9	64 a3 00 00 00
	00		 mov	 DWORD PTR fs:0, eax
  000ff	89 65 f0	 mov	 DWORD PTR __$EHRec$[ebp], esp

; 52   : 	TMonsterAIElement::s_bDataLoad = FALSE;

  00102	c7 05 00 00 00
	00 00 00 00 00	 mov	 DWORD PTR ?s_bDataLoad@TMonsterAIElement@@2HA, 0 ; TMonsterAIElement::s_bDataLoad

; 53   : 
; 54   : 	if ( lpszFileName == NULL || strcmp(lpszFileName, "") == 0 )

  0010c	83 7d 08 00	 cmp	 DWORD PTR _lpszFileName$[ebp], 0
  00110	74 15		 je	 SHORT $LN14@LoadData
  00112	68 00 00 00 00	 push	 OFFSET ??_C@_00CNPNBAHC@?$AA@
  00117	8b 45 08	 mov	 eax, DWORD PTR _lpszFileName$[ebp]
  0011a	50		 push	 eax
  0011b	e8 00 00 00 00	 call	 _strcmp
  00120	83 c4 08	 add	 esp, 8
  00123	85 c0		 test	 eax, eax
  00125	75 14		 jne	 SHORT $LN15@LoadData
$LN14@LoadData:

; 55   : 	{
; 56   : 		MsgBox("[Monster AI Element] - File load error : File Name Error");

  00127	68 00 00 00 00	 push	 OFFSET ??_C@_0DJ@OKEPGHGM@?$FLMonster?5AI?5Element?$FN?5?9?5File?5load@
  0012c	e8 00 00 00 00	 call	 ?MsgBox@@YAXPADZZ	; MsgBox
  00131	83 c4 04	 add	 esp, 4

; 57   : 		return FALSE;

  00134	33 c0		 xor	 eax, eax
  00136	e9 91 03 00 00	 jmp	 $LN16@LoadData
$LN15@LoadData:

; 58   : 	}
; 59   : 
; 60   : 	try
; 61   : 	{

  0013b	c7 45 fc 00 00
	00 00		 mov	 DWORD PTR __$EHRec$[ebp+12], 0

; 62   : 		SMDToken Token;
; 63   : 		SMDFile = fopen(lpszFileName, "r");

  00142	68 00 00 00 00	 push	 OFFSET ??_C@_01KDCPPGHE@r?$AA@
  00147	8b 45 08	 mov	 eax, DWORD PTR _lpszFileName$[ebp]
  0014a	50		 push	 eax
  0014b	e8 00 00 00 00	 call	 _fopen
  00150	83 c4 08	 add	 esp, 8
  00153	a3 00 00 00 00	 mov	 DWORD PTR _SMDFile, eax

; 64   : 
; 65   : 		if ( !SMDFile )

  00158	83 3d 00 00 00
	00 00		 cmp	 DWORD PTR _SMDFile, 0
  0015f	75 18		 jne	 SHORT $LN12@LoadData

; 66   : 		{
; 67   : 			MsgBox("[Monster AI Element] - Can't Open %s ", lpszFileName);

  00161	8b 45 08	 mov	 eax, DWORD PTR _lpszFileName$[ebp]
  00164	50		 push	 eax
  00165	68 00 00 00 00	 push	 OFFSET ??_C@_0CG@GEEPJADH@?$FLMonster?5AI?5Element?$FN?5?9?5Can?8t?5Ope@
  0016a	e8 00 00 00 00	 call	 ?MsgBox@@YAXPADZZ	; MsgBox
  0016f	83 c4 08	 add	 esp, 8

; 68   : 			return FALSE;

  00172	33 c0		 xor	 eax, eax
  00174	e9 53 03 00 00	 jmp	 $LN16@LoadData
$LN12@LoadData:

; 69   : 		}
; 70   : 
; 71   : 		TMonsterAIElement::DelAllAIElement();

  00179	e8 00 00 00 00	 call	 ?DelAllAIElement@TMonsterAIElement@@SAHXZ ; TMonsterAIElement::DelAllAIElement

; 72   : 		int iType = -1;

  0017e	c7 45 e4 ff ff
	ff ff		 mov	 DWORD PTR _iType$228645[ebp], -1
$LN11@LoadData:

; 73   : 
; 74   : 		while ( true )

  00185	b8 01 00 00 00	 mov	 eax, 1
  0018a	85 c0		 test	 eax, eax
  0018c	0f 84 cb 02 00
	00		 je	 $LN10@LoadData

; 75   : 		{
; 76   : 			Token = (SMDToken)GetToken();

  00192	e8 00 00 00 00	 call	 ?GetToken@@YA?AW4SMDToken@@XZ ; GetToken
  00197	89 85 4c ff ff
	ff		 mov	 DWORD PTR tv194[ebp], eax
  0019d	8b 85 4c ff ff
	ff		 mov	 eax, DWORD PTR tv194[ebp]
  001a3	89 45 e8	 mov	 DWORD PTR _Token$228641[ebp], eax

; 77   : 
; 78   : 			if( Token == END )

  001a6	83 7d e8 02	 cmp	 DWORD PTR _Token$228641[ebp], 2
  001aa	75 05		 jne	 SHORT $LN9@LoadData

; 79   : 				break;

  001ac	e9 ac 02 00 00	 jmp	 $LN10@LoadData
$LN9@LoadData:

; 80   : 
; 81   : 			iType = (int)TokenNumber;

  001b1	d9 05 00 00 00
	00		 fld	 DWORD PTR _TokenNumber
  001b7	e8 00 00 00 00	 call	 __ftol2_sse
  001bc	89 45 e4	 mov	 DWORD PTR _iType$228645[ebp], eax
$LN8@LoadData:

; 82   : 
; 83   : 			while ( true )

  001bf	b8 01 00 00 00	 mov	 eax, 1
  001c4	85 c0		 test	 eax, eax
  001c6	0f 84 8c 02 00
	00		 je	 $LN7@LoadData

; 84   : 			{
; 85   : 				if ( iType == 0 )

  001cc	83 7d e4 00	 cmp	 DWORD PTR _iType$228645[ebp], 0
  001d0	0f 85 7d 02 00
	00		 jne	 $LN6@LoadData

; 86   : 				{
; 87   : 					char szElementName[50]={0};

  001d6	c6 45 b0 00	 mov	 BYTE PTR _szElementName$228672[ebp], 0
  001da	6a 31		 push	 49			; 00000031H
  001dc	6a 00		 push	 0
  001de	8d 45 b1	 lea	 eax, DWORD PTR _szElementName$228672[ebp+1]
  001e1	50		 push	 eax
  001e2	e8 00 00 00 00	 call	 _memset
  001e7	83 c4 0c	 add	 esp, 12			; 0000000cH

; 88   : 					int iElementNumber = -1;

  001ea	c7 45 ac ff ff
	ff ff		 mov	 DWORD PTR _iElementNumber$228673[ebp], -1

; 89   : 					int iElementClass = -1;

  001f1	c7 45 a8 ff ff
	ff ff		 mov	 DWORD PTR _iElementClass$228674[ebp], -1

; 90   : 					int iElementType = -1;

  001f8	c7 45 a4 ff ff
	ff ff		 mov	 DWORD PTR _iElementType$228675[ebp], -1

; 91   : 					int iSuccessRate = -1;

  001ff	c7 45 a0 ff ff
	ff ff		 mov	 DWORD PTR _iSuccessRate$228676[ebp], -1

; 92   : 					int iDelayTime = -1;

  00206	c7 45 9c ff ff
	ff ff		 mov	 DWORD PTR _iDelayTime$228677[ebp], -1

; 93   : 					int iTargetType = -1;

  0020d	c7 45 98 ff ff
	ff ff		 mov	 DWORD PTR _iTargetType$228678[ebp], -1

; 94   : 					int iX = -1;

  00214	c7 45 94 ff ff
	ff ff		 mov	 DWORD PTR _iX$228679[ebp], -1

; 95   : 					int iY = -1;

  0021b	c7 45 90 ff ff
	ff ff		 mov	 DWORD PTR _iY$228680[ebp], -1

; 96   : 
; 97   : 					Token = (SMDToken)GetToken();

  00222	e8 00 00 00 00	 call	 ?GetToken@@YA?AW4SMDToken@@XZ ; GetToken
  00227	89 85 4c ff ff
	ff		 mov	 DWORD PTR tv195[ebp], eax
  0022d	8b 85 4c ff ff
	ff		 mov	 eax, DWORD PTR tv195[ebp]
  00233	89 45 e8	 mov	 DWORD PTR _Token$228641[ebp], eax

; 98   : 
; 99   : 					if ( !strcmp("end", TokenString))

  00236	68 00 00 00 00	 push	 OFFSET _TokenString
  0023b	68 00 00 00 00	 push	 OFFSET ??_C@_03JBJLGPFL@end?$AA@
  00240	e8 00 00 00 00	 call	 _strcmp
  00245	83 c4 08	 add	 esp, 8
  00248	85 c0		 test	 eax, eax
  0024a	75 05		 jne	 SHORT $LN5@LoadData

; 100  : 						break;

  0024c	e9 07 02 00 00	 jmp	 $LN7@LoadData
$LN5@LoadData:

; 101  : 
; 102  : 					iElementNumber = (int)TokenNumber;

  00251	d9 05 00 00 00
	00		 fld	 DWORD PTR _TokenNumber
  00257	e8 00 00 00 00	 call	 __ftol2_sse
  0025c	89 45 ac	 mov	 DWORD PTR _iElementNumber$228673[ebp], eax

; 103  : 
; 104  : 					Token = (SMDToken)GetToken();

  0025f	e8 00 00 00 00	 call	 ?GetToken@@YA?AW4SMDToken@@XZ ; GetToken
  00264	89 85 4c ff ff
	ff		 mov	 DWORD PTR tv196[ebp], eax
  0026a	8b 85 4c ff ff
	ff		 mov	 eax, DWORD PTR tv196[ebp]
  00270	89 45 e8	 mov	 DWORD PTR _Token$228641[ebp], eax

; 105  : 					memcpy(szElementName, TokenString, sizeof(szElementName));

  00273	6a 32		 push	 50			; 00000032H
  00275	68 00 00 00 00	 push	 OFFSET _TokenString
  0027a	8d 45 b0	 lea	 eax, DWORD PTR _szElementName$228672[ebp]
  0027d	50		 push	 eax
  0027e	e8 00 00 00 00	 call	 _memcpy
  00283	83 c4 0c	 add	 esp, 12			; 0000000cH

; 106  : 
; 107  : 					Token = (SMDToken)GetToken();

  00286	e8 00 00 00 00	 call	 ?GetToken@@YA?AW4SMDToken@@XZ ; GetToken
  0028b	89 85 4c ff ff
	ff		 mov	 DWORD PTR tv197[ebp], eax
  00291	8b 85 4c ff ff
	ff		 mov	 eax, DWORD PTR tv197[ebp]
  00297	89 45 e8	 mov	 DWORD PTR _Token$228641[ebp], eax

; 108  : 					iElementClass = (int)TokenNumber;

  0029a	d9 05 00 00 00
	00		 fld	 DWORD PTR _TokenNumber
  002a0	e8 00 00 00 00	 call	 __ftol2_sse
  002a5	89 45 a8	 mov	 DWORD PTR _iElementClass$228674[ebp], eax

; 109  : 
; 110  : 					Token = (SMDToken)GetToken();

  002a8	e8 00 00 00 00	 call	 ?GetToken@@YA?AW4SMDToken@@XZ ; GetToken
  002ad	89 85 4c ff ff
	ff		 mov	 DWORD PTR tv198[ebp], eax
  002b3	8b 85 4c ff ff
	ff		 mov	 eax, DWORD PTR tv198[ebp]
  002b9	89 45 e8	 mov	 DWORD PTR _Token$228641[ebp], eax

; 111  : 					iElementType = (int)TokenNumber;

  002bc	d9 05 00 00 00
	00		 fld	 DWORD PTR _TokenNumber
  002c2	e8 00 00 00 00	 call	 __ftol2_sse
  002c7	89 45 a4	 mov	 DWORD PTR _iElementType$228675[ebp], eax

; 112  : 
; 113  : 					Token = (SMDToken)GetToken();

  002ca	e8 00 00 00 00	 call	 ?GetToken@@YA?AW4SMDToken@@XZ ; GetToken
  002cf	89 85 4c ff ff
	ff		 mov	 DWORD PTR tv199[ebp], eax
  002d5	8b 85 4c ff ff
	ff		 mov	 eax, DWORD PTR tv199[ebp]
  002db	89 45 e8	 mov	 DWORD PTR _Token$228641[ebp], eax

; 114  : 					iSuccessRate = (int)TokenNumber;

  002de	d9 05 00 00 00
	00		 fld	 DWORD PTR _TokenNumber
  002e4	e8 00 00 00 00	 call	 __ftol2_sse
  002e9	89 45 a0	 mov	 DWORD PTR _iSuccessRate$228676[ebp], eax

; 115  : 
; 116  : 					Token = (SMDToken)GetToken();

  002ec	e8 00 00 00 00	 call	 ?GetToken@@YA?AW4SMDToken@@XZ ; GetToken
  002f1	89 85 4c ff ff
	ff		 mov	 DWORD PTR tv200[ebp], eax
  002f7	8b 85 4c ff ff
	ff		 mov	 eax, DWORD PTR tv200[ebp]
  002fd	89 45 e8	 mov	 DWORD PTR _Token$228641[ebp], eax

; 117  : 					iDelayTime = (int)TokenNumber;

  00300	d9 05 00 00 00
	00		 fld	 DWORD PTR _TokenNumber
  00306	e8 00 00 00 00	 call	 __ftol2_sse
  0030b	89 45 9c	 mov	 DWORD PTR _iDelayTime$228677[ebp], eax

; 118  : 
; 119  : 					Token = (SMDToken)GetToken();

  0030e	e8 00 00 00 00	 call	 ?GetToken@@YA?AW4SMDToken@@XZ ; GetToken
  00313	89 85 4c ff ff
	ff		 mov	 DWORD PTR tv201[ebp], eax
  00319	8b 85 4c ff ff
	ff		 mov	 eax, DWORD PTR tv201[ebp]
  0031f	89 45 e8	 mov	 DWORD PTR _Token$228641[ebp], eax

; 120  : 					iTargetType = (int)TokenNumber;

  00322	d9 05 00 00 00
	00		 fld	 DWORD PTR _TokenNumber
  00328	e8 00 00 00 00	 call	 __ftol2_sse
  0032d	89 45 98	 mov	 DWORD PTR _iTargetType$228678[ebp], eax

; 121  : 
; 122  : 					Token = (SMDToken)GetToken();

  00330	e8 00 00 00 00	 call	 ?GetToken@@YA?AW4SMDToken@@XZ ; GetToken
  00335	89 85 4c ff ff
	ff		 mov	 DWORD PTR tv202[ebp], eax
  0033b	8b 85 4c ff ff
	ff		 mov	 eax, DWORD PTR tv202[ebp]
  00341	89 45 e8	 mov	 DWORD PTR _Token$228641[ebp], eax

; 123  : 					iX = (int)TokenNumber;

  00344	d9 05 00 00 00
	00		 fld	 DWORD PTR _TokenNumber
  0034a	e8 00 00 00 00	 call	 __ftol2_sse
  0034f	89 45 94	 mov	 DWORD PTR _iX$228679[ebp], eax

; 124  : 
; 125  : 					Token = (SMDToken)GetToken();

  00352	e8 00 00 00 00	 call	 ?GetToken@@YA?AW4SMDToken@@XZ ; GetToken
  00357	89 85 4c ff ff
	ff		 mov	 DWORD PTR tv203[ebp], eax
  0035d	8b 85 4c ff ff
	ff		 mov	 eax, DWORD PTR tv203[ebp]
  00363	89 45 e8	 mov	 DWORD PTR _Token$228641[ebp], eax

; 126  : 					iY = (int)TokenNumber;

  00366	d9 05 00 00 00
	00		 fld	 DWORD PTR _TokenNumber
  0036c	e8 00 00 00 00	 call	 __ftol2_sse
  00371	89 45 90	 mov	 DWORD PTR _iY$228680[ebp], eax

; 127  : 
; 128  : 					if ( iElementNumber < 0 || iElementNumber >= MAX_AI_ELEMENT )

  00374	83 7d ac 00	 cmp	 DWORD PTR _iElementNumber$228673[ebp], 0
  00378	7c 06		 jl	 SHORT $LN3@LoadData
  0037a	83 7d ac 64	 cmp	 DWORD PTR _iElementNumber$228673[ebp], 100 ; 00000064H
  0037e	7c 1a		 jl	 SHORT $LN4@LoadData
$LN3@LoadData:

; 129  : 					{
; 130  : 						MsgBox("[Monster AI Element] - ElementNumber(%d) Error (%s) File. ", iElementNumber, lpszFileName);

  00380	8b 45 08	 mov	 eax, DWORD PTR _lpszFileName$[ebp]
  00383	50		 push	 eax
  00384	8b 4d ac	 mov	 ecx, DWORD PTR _iElementNumber$228673[ebp]
  00387	51		 push	 ecx
  00388	68 00 00 00 00	 push	 OFFSET ??_C@_0DL@BLNJIJKI@?$FLMonster?5AI?5Element?$FN?5?9?5ElementNu@
  0038d	e8 00 00 00 00	 call	 ?MsgBox@@YAXPADZZ	; MsgBox
  00392	83 c4 0c	 add	 esp, 12			; 0000000cH

; 131  : 						continue;

  00395	e9 25 fe ff ff	 jmp	 $LN8@LoadData
$LN4@LoadData:

; 132  : 					}
; 133  : 
; 134  : 					if ( iElementClass < 0 || iElementClass >= MAX_AI_ELEMENT_CLASS )

  0039a	83 7d a8 00	 cmp	 DWORD PTR _iElementClass$228674[ebp], 0
  0039e	7c 06		 jl	 SHORT $LN1@LoadData
  003a0	83 7d a8 08	 cmp	 DWORD PTR _iElementClass$228674[ebp], 8
  003a4	7c 1a		 jl	 SHORT $LN2@LoadData
$LN1@LoadData:

; 135  : 					{
; 136  : 						MsgBox("[Monster AI Element] - ElementClass(%d) Error (%s) File. ", iElementClass, lpszFileName);

  003a6	8b 45 08	 mov	 eax, DWORD PTR _lpszFileName$[ebp]
  003a9	50		 push	 eax
  003aa	8b 4d a8	 mov	 ecx, DWORD PTR _iElementClass$228674[ebp]
  003ad	51		 push	 ecx
  003ae	68 00 00 00 00	 push	 OFFSET ??_C@_0DK@KJDEHPPO@?$FLMonster?5AI?5Element?$FN?5?9?5ElementCl@
  003b3	e8 00 00 00 00	 call	 ?MsgBox@@YAXPADZZ	; MsgBox
  003b8	83 c4 0c	 add	 esp, 12			; 0000000cH

; 137  : 						continue;

  003bb	e9 ff fd ff ff	 jmp	 $LN8@LoadData
$LN2@LoadData:

; 138  : 					}
; 139  : 
; 140  : 					TMonsterAIElement::s_MonsterAIElementArray[iElementNumber].m_iElementNumber = iElementNumber;

  003c0	8b 45 ac	 mov	 eax, DWORD PTR _iElementNumber$228673[ebp]
  003c3	6b c0 58	 imul	 eax, 88			; 00000058H
  003c6	8b 4d ac	 mov	 ecx, DWORD PTR _iElementNumber$228673[ebp]
  003c9	89 88 38 00 00
	00		 mov	 DWORD PTR ?s_MonsterAIElementArray@TMonsterAIElement@@2PAV1@A[eax+56], ecx

; 141  : 					TMonsterAIElement::s_MonsterAIElementArray[iElementNumber].m_iElementClass = iElementClass;

  003cf	8b 45 ac	 mov	 eax, DWORD PTR _iElementNumber$228673[ebp]
  003d2	6b c0 58	 imul	 eax, 88			; 00000058H
  003d5	8b 4d a8	 mov	 ecx, DWORD PTR _iElementClass$228674[ebp]
  003d8	89 88 3c 00 00
	00		 mov	 DWORD PTR ?s_MonsterAIElementArray@TMonsterAIElement@@2PAV1@A[eax+60], ecx

; 142  : 					TMonsterAIElement::s_MonsterAIElementArray[iElementNumber].m_iElementType = iElementType;

  003de	8b 45 ac	 mov	 eax, DWORD PTR _iElementNumber$228673[ebp]
  003e1	6b c0 58	 imul	 eax, 88			; 00000058H
  003e4	8b 4d a4	 mov	 ecx, DWORD PTR _iElementType$228675[ebp]
  003e7	89 88 40 00 00
	00		 mov	 DWORD PTR ?s_MonsterAIElementArray@TMonsterAIElement@@2PAV1@A[eax+64], ecx

; 143  : 					TMonsterAIElement::s_MonsterAIElementArray[iElementNumber].m_iSuccessRate = iSuccessRate;

  003ed	8b 45 ac	 mov	 eax, DWORD PTR _iElementNumber$228673[ebp]
  003f0	6b c0 58	 imul	 eax, 88			; 00000058H
  003f3	8b 4d a0	 mov	 ecx, DWORD PTR _iSuccessRate$228676[ebp]
  003f6	89 88 44 00 00
	00		 mov	 DWORD PTR ?s_MonsterAIElementArray@TMonsterAIElement@@2PAV1@A[eax+68], ecx

; 144  : 					TMonsterAIElement::s_MonsterAIElementArray[iElementNumber].m_iDelayTime = iDelayTime;

  003fc	8b 45 ac	 mov	 eax, DWORD PTR _iElementNumber$228673[ebp]
  003ff	6b c0 58	 imul	 eax, 88			; 00000058H
  00402	8b 4d 9c	 mov	 ecx, DWORD PTR _iDelayTime$228677[ebp]
  00405	89 88 48 00 00
	00		 mov	 DWORD PTR ?s_MonsterAIElementArray@TMonsterAIElement@@2PAV1@A[eax+72], ecx

; 145  : 					TMonsterAIElement::s_MonsterAIElementArray[iElementNumber].m_iTargetType = iTargetType;

  0040b	8b 45 ac	 mov	 eax, DWORD PTR _iElementNumber$228673[ebp]
  0040e	6b c0 58	 imul	 eax, 88			; 00000058H
  00411	8b 4d 98	 mov	 ecx, DWORD PTR _iTargetType$228678[ebp]
  00414	89 88 4c 00 00
	00		 mov	 DWORD PTR ?s_MonsterAIElementArray@TMonsterAIElement@@2PAV1@A[eax+76], ecx

; 146  : 					TMonsterAIElement::s_MonsterAIElementArray[iElementNumber].m_iX = iX;

  0041a	8b 45 ac	 mov	 eax, DWORD PTR _iElementNumber$228673[ebp]
  0041d	6b c0 58	 imul	 eax, 88			; 00000058H
  00420	8b 4d 94	 mov	 ecx, DWORD PTR _iX$228679[ebp]
  00423	89 88 50 00 00
	00		 mov	 DWORD PTR ?s_MonsterAIElementArray@TMonsterAIElement@@2PAV1@A[eax+80], ecx

; 147  : 					TMonsterAIElement::s_MonsterAIElementArray[iElementNumber].m_iY = iY;

  00429	8b 45 ac	 mov	 eax, DWORD PTR _iElementNumber$228673[ebp]
  0042c	6b c0 58	 imul	 eax, 88			; 00000058H
  0042f	8b 4d 90	 mov	 ecx, DWORD PTR _iY$228680[ebp]
  00432	89 88 54 00 00
	00		 mov	 DWORD PTR ?s_MonsterAIElementArray@TMonsterAIElement@@2PAV1@A[eax+84], ecx

; 148  : 					memcpy(TMonsterAIElement::s_MonsterAIElementArray[iElementNumber].m_szElementName, szElementName, sizeof(szElementName));

  00438	6a 32		 push	 50			; 00000032H
  0043a	8d 45 b0	 lea	 eax, DWORD PTR _szElementName$228672[ebp]
  0043d	50		 push	 eax
  0043e	8b 4d ac	 mov	 ecx, DWORD PTR _iElementNumber$228673[ebp]
  00441	6b c9 58	 imul	 ecx, 88			; 00000058H
  00444	81 c1 04 00 00
	00		 add	 ecx, OFFSET ?s_MonsterAIElementArray@TMonsterAIElement@@2PAV1@A+4
  0044a	51		 push	 ecx
  0044b	e8 00 00 00 00	 call	 _memcpy
  00450	83 c4 0c	 add	 esp, 12			; 0000000cH
$LN6@LoadData:

; 149  : 				}
; 150  : 			}

  00453	e9 67 fd ff ff	 jmp	 $LN8@LoadData
$LN7@LoadData:

; 151  : 		}

  00458	e9 28 fd ff ff	 jmp	 $LN11@LoadData
$LN10@LoadData:

; 152  : 
; 153  : 		fclose(SMDFile);

  0045d	a1 00 00 00 00	 mov	 eax, DWORD PTR _SMDFile
  00462	50		 push	 eax
  00463	e8 00 00 00 00	 call	 _fclose
  00468	83 c4 04	 add	 esp, 4

; 154  : 		LogAddC(2,"[Monster AI Element] - %s file is Loaded", lpszFileName);

  0046b	8b 45 08	 mov	 eax, DWORD PTR _lpszFileName$[ebp]
  0046e	50		 push	 eax
  0046f	68 00 00 00 00	 push	 OFFSET ??_C@_0CJ@CODEEKKA@?$FLMonster?5AI?5Element?$FN?5?9?5?$CFs?5file?5i@
  00474	6a 02		 push	 2
  00476	ff 15 00 00 00
	00		 call	 DWORD PTR ?LogAddC@@3P6AXEPADZZA ; LogAddC
  0047c	83 c4 0c	 add	 esp, 12			; 0000000cH

; 155  : 		TMonsterAIElement::s_bDataLoad = TRUE;

  0047f	c7 05 00 00 00
	00 01 00 00 00	 mov	 DWORD PTR ?s_bDataLoad@TMonsterAIElement@@2HA, 1 ; TMonsterAIElement::s_bDataLoad

; 156  : 	}

  00489	eb 1e		 jmp	 SHORT $LN18@LoadData
__catch$?LoadData@TMonsterAIElement@@SAHPAD@Z$0:

; 157  : 	catch(...)
; 158  : 	{
; 159  : 		MsgBox("[Monster AI Element] - Loading Exception Error (%s) File. ", lpszFileName);

  0048b	8b 45 08	 mov	 eax, DWORD PTR _lpszFileName$[ebp]
  0048e	50		 push	 eax
  0048f	68 00 00 00 00	 push	 OFFSET ??_C@_0DL@GHCFCCJM@?$FLMonster?5AI?5Element?$FN?5?9?5Loading?5E@
  00494	e8 00 00 00 00	 call	 ?MsgBox@@YAXPADZZ	; MsgBox
  00499	83 c4 08	 add	 esp, 8

; 160  : 	}

  0049c	c7 45 fc ff ff
	ff ff		 mov	 DWORD PTR __$EHRec$[ebp+12], -1
  004a3	b8 00 00 00 00	 mov	 eax, $LN21@LoadData
  004a8	c3		 ret	 0
$LN18@LoadData:
  004a9	c7 45 fc ff ff
	ff ff		 mov	 DWORD PTR __$EHRec$[ebp+12], -1
$LN21@LoadData:

; 161  : 
; 162  : 	TMonsterAIElement::s_MonsterAIMovePath[MAP_INDEX_CRYWOLF_FIRSTZONE].LoadData(gDirPath.GetNewPath("Monsters\\MovePath_35.dat"));

  004b0	68 00 00 00 00	 push	 OFFSET ??_C@_0BJ@BOBOOIND@Monsters?2MovePath_35?4dat?$AA@
  004b5	b9 00 00 00 00	 mov	 ecx, OFFSET ?gDirPath@@3VCDirPath@@A ; gDirPath
  004ba	e8 00 00 00 00	 call	 ?GetNewPath@CDirPath@@QAEPADPAD@Z ; CDirPath::GetNewPath
  004bf	50		 push	 eax
  004c0	b9 18 7f 02 00	 mov	 ecx, OFFSET ?s_MonsterAIMovePath@TMonsterAIElement@@2PAVTMonsterAIMovePath@@A+163608
  004c5	e8 00 00 00 00	 call	 ?LoadData@TMonsterAIMovePath@@QAEHPAD@Z ; TMonsterAIMovePath::LoadData

; 163  : 
; 164  : 	return FALSE;

  004ca	33 c0		 xor	 eax, eax
$LN16@LoadData:

; 165  : }

  004cc	8b 4d f4	 mov	 ecx, DWORD PTR __$EHRec$[ebp+4]
  004cf	64 89 0d 00 00
	00 00		 mov	 DWORD PTR fs:0, ecx
  004d6	59		 pop	 ecx
  004d7	5f		 pop	 edi
  004d8	5e		 pop	 esi
  004d9	5b		 pop	 ebx
  004da	8b 4d ec	 mov	 ecx, DWORD PTR __$ArrayPad$[ebp]
  004dd	33 cd		 xor	 ecx, ebp
  004df	e8 00 00 00 00	 call	 @__security_check_cookie@4
  004e4	8b e5		 mov	 esp, ebp
  004e6	5d		 pop	 ebp
  004e7	c3		 ret	 0
_TEXT	ENDS
text$x	SEGMENT
__ehhandler$?LoadData@TMonsterAIElement@@SAHPAD@Z:
  00000	8b 54 24 08	 mov	 edx, DWORD PTR [esp+8]
  00004	8d 42 0c	 lea	 eax, DWORD PTR [edx+12]
  00007	8b 8a 48 ff ff
	ff		 mov	 ecx, DWORD PTR [edx-184]
  0000d	33 c8		 xor	 ecx, eax
  0000f	e8 00 00 00 00	 call	 @__security_check_cookie@4
  00014	8b 4a f8	 mov	 ecx, DWORD PTR [edx-8]
  00017	33 c8		 xor	 ecx, eax
  00019	e8 00 00 00 00	 call	 @__security_check_cookie@4
  0001e	b8 00 00 00 00	 mov	 eax, OFFSET __ehfuncinfo$?LoadData@TMonsterAIElement@@SAHPAD@Z
  00023	e9 00 00 00 00	 jmp	 ___CxxFrameHandler3
text$x	ENDS
?LoadData@TMonsterAIElement@@SAHPAD@Z ENDP		; TMonsterAIElement::LoadData
PUBLIC	__$ArrayPad$
EXTRN	_isalnum:PROC
EXTRN	_isalpha:PROC
EXTRN	_atof:PROC
EXTRN	_isdigit:PROC
EXTRN	_getc:PROC
EXTRN	_ungetc:PROC
EXTRN	_isspace:PROC
EXTRN	_fgetc:PROC
EXTRN	__fltused:DWORD
_BSS	SEGMENT
_CurrentToken DD 01H DUP (?)
; Function compile flags: /Odtp /ZI
; File d:\projects\exteam6.3\source\gameserver\include\readscript.h
_BSS	ENDS
_TEXT	SEGMENT
tv90 = -180						; size = 4
_TempString$ = -112					; size = 100
_p$ = -12						; size = 4
_ch$ = -5						; size = 1
__$ArrayPad$ = -4					; size = 4
?GetToken@@YA?AW4SMDToken@@XZ PROC			; GetToken

; 24   : {

  004f0	55		 push	 ebp
  004f1	8b ec		 mov	 ebp, esp
  004f3	81 ec b4 00 00
	00		 sub	 esp, 180		; 000000b4H
  004f9	a1 00 00 00 00	 mov	 eax, DWORD PTR ___security_cookie
  004fe	33 c5		 xor	 eax, ebp
  00500	89 45 fc	 mov	 DWORD PTR __$ArrayPad$[ebp], eax
  00503	53		 push	 ebx
  00504	56		 push	 esi
  00505	57		 push	 edi

; 25   : 	char ch;
; 26   : 	char* p;
; 27   : 	char TempString[100];
; 28   : 
; 29   : 	TokenString[0]=0;

  00506	c6 05 00 00 00
	00 00		 mov	 BYTE PTR _TokenString, 0
$LN31@GetToken:

; 30   : 
; 31   : 	do
; 32   : 	{
; 33   : 		if ((ch=fgetc(SMDFile)) == -1)

  0050d	a1 00 00 00 00	 mov	 eax, DWORD PTR _SMDFile
  00512	50		 push	 eax
  00513	e8 00 00 00 00	 call	 _fgetc
  00518	83 c4 04	 add	 esp, 4
  0051b	88 45 fb	 mov	 BYTE PTR _ch$[ebp], al
  0051e	0f be 4d fb	 movsx	 ecx, BYTE PTR _ch$[ebp]
  00522	83 f9 ff	 cmp	 ecx, -1
  00525	75 0c		 jne	 SHORT $LN28@GetToken

; 34   : 		{
; 35   : 			return END;	// End of FILE (EOF)

  00527	b8 02 00 00 00	 mov	 eax, 2
  0052c	e9 f7 02 00 00	 jmp	 $LN32@GetToken

; 36   : 		}
; 37   : 		else

  00531	eb 5b		 jmp	 SHORT $LN22@GetToken
$LN28@GetToken:

; 38   : 		{	
; 39   : 			if (ch=='/')		// this is /

  00533	0f be 45 fb	 movsx	 eax, BYTE PTR _ch$[ebp]
  00537	83 f8 2f	 cmp	 eax, 47			; 0000002fH
  0053a	75 52		 jne	 SHORT $LN22@GetToken

; 40   : 			{
; 41   : 				if((ch=fgetc(SMDFile)) == '/')

  0053c	a1 00 00 00 00	 mov	 eax, DWORD PTR _SMDFile
  00541	50		 push	 eax
  00542	e8 00 00 00 00	 call	 _fgetc
  00547	83 c4 04	 add	 esp, 4
  0054a	88 45 fb	 mov	 BYTE PTR _ch$[ebp], al
  0054d	0f be 4d fb	 movsx	 ecx, BYTE PTR _ch$[ebp]
  00551	83 f9 2f	 cmp	 ecx, 47			; 0000002fH
  00554	75 38		 jne	 SHORT $LN22@GetToken
$LN24@GetToken:

; 42   : 				{
; 43   : 					while ((ch != '\n') && (ch != -1))	// End of Line (EOL)

  00556	0f be 45 fb	 movsx	 eax, BYTE PTR _ch$[ebp]
  0055a	83 f8 0a	 cmp	 eax, 10			; 0000000aH
  0055d	74 1c		 je	 SHORT $LN23@GetToken
  0055f	0f be 45 fb	 movsx	 eax, BYTE PTR _ch$[ebp]
  00563	83 f8 ff	 cmp	 eax, -1
  00566	74 13		 je	 SHORT $LN23@GetToken

; 44   : 					{
; 45   : 						ch=fgetc(SMDFile);

  00568	a1 00 00 00 00	 mov	 eax, DWORD PTR _SMDFile
  0056d	50		 push	 eax
  0056e	e8 00 00 00 00	 call	 _fgetc
  00573	83 c4 04	 add	 esp, 4
  00576	88 45 fb	 mov	 BYTE PTR _ch$[ebp], al

; 46   : 					}

  00579	eb db		 jmp	 SHORT $LN24@GetToken
$LN23@GetToken:

; 47   : 	
; 48   : 					if (ch == -1)

  0057b	0f be 45 fb	 movsx	 eax, BYTE PTR _ch$[ebp]
  0057f	83 f8 ff	 cmp	 eax, -1
  00582	75 0a		 jne	 SHORT $LN22@GetToken

; 49   : 					{
; 50   : 						return END;	// End of FILE

  00584	b8 02 00 00 00	 mov	 eax, 2
  00589	e9 9a 02 00 00	 jmp	 $LN32@GetToken
$LN22@GetToken:

; 51   : 					}
; 52   : 				}
; 53   : 			}
; 54   : 		}
; 55   : 	}
; 56   : 	while (isspace(ch) != 0);

  0058e	0f be 45 fb	 movsx	 eax, BYTE PTR _ch$[ebp]
  00592	50		 push	 eax
  00593	e8 00 00 00 00	 call	 _isspace
  00598	83 c4 04	 add	 esp, 4
  0059b	85 c0		 test	 eax, eax
  0059d	0f 85 6a ff ff
	ff		 jne	 $LN31@GetToken

; 57   : 
; 58   : 	
; 59   : 	switch(ch)

  005a3	0f be 45 fb	 movsx	 eax, BYTE PTR _ch$[ebp]
  005a7	89 85 4c ff ff
	ff		 mov	 DWORD PTR tv90[ebp], eax
  005ad	8b 8d 4c ff ff
	ff		 mov	 ecx, DWORD PTR tv90[ebp]
  005b3	83 e9 22	 sub	 ecx, 34			; 00000022H
  005b6	89 8d 4c ff ff
	ff		 mov	 DWORD PTR tv90[ebp], ecx
  005bc	83 bd 4c ff ff
	ff 5b		 cmp	 DWORD PTR tv90[ebp], 91	; 0000005bH
  005c3	0f 87 a3 01 00
	00		 ja	 $LN6@GetToken
  005c9	8b 95 4c ff ff
	ff		 mov	 edx, DWORD PTR tv90[ebp]
  005cf	0f b6 82 00 00
	00 00		 movzx	 eax, BYTE PTR $LN34@GetToken[edx]
  005d6	ff 24 85 00 00
	00 00		 jmp	 DWORD PTR $LN35@GetToken[eax*4]
$LN19@GetToken:

; 60   : 	{
; 61   : 
; 62   : 	case 0x23:	// #
; 63   : 		return CurrentToken=COMMAND;

  005dd	c7 05 00 00 00
	00 23 00 00 00	 mov	 DWORD PTR _CurrentToken, 35 ; 00000023H
  005e7	a1 00 00 00 00	 mov	 eax, DWORD PTR _CurrentToken
  005ec	e9 37 02 00 00	 jmp	 $LN32@GetToken

; 64   : 		break;

  005f1	e9 30 02 00 00	 jmp	 $LN20@GetToken
$LN18@GetToken:

; 65   : 	
; 66   : 	case 0x3B:	// ;
; 67   : 		return CurrentToken=SEMICOLON;

  005f6	c7 05 00 00 00
	00 3b 00 00 00	 mov	 DWORD PTR _CurrentToken, 59 ; 0000003bH
  00600	a1 00 00 00 00	 mov	 eax, DWORD PTR _CurrentToken
  00605	e9 1e 02 00 00	 jmp	 $LN32@GetToken

; 68   : 		break;

  0060a	e9 17 02 00 00	 jmp	 $LN20@GetToken
$LN17@GetToken:

; 69   : 	
; 70   : 	case 0x2C:	// ,
; 71   : 
; 72   : 		return CurrentToken=COMMA;

  0060f	c7 05 00 00 00
	00 2c 00 00 00	 mov	 DWORD PTR _CurrentToken, 44 ; 0000002cH
  00619	a1 00 00 00 00	 mov	 eax, DWORD PTR _CurrentToken
  0061e	e9 05 02 00 00	 jmp	 $LN32@GetToken

; 73   : 		break;

  00623	e9 fe 01 00 00	 jmp	 $LN20@GetToken
$LN16@GetToken:

; 74   : 	
; 75   : 	case 0x7B:	// {
; 76   : 		return CurrentToken = LP;

  00628	c7 05 00 00 00
	00 7b 00 00 00	 mov	 DWORD PTR _CurrentToken, 123 ; 0000007bH
  00632	a1 00 00 00 00	 mov	 eax, DWORD PTR _CurrentToken
  00637	e9 ec 01 00 00	 jmp	 $LN32@GetToken

; 77   : 		break;

  0063c	e9 e5 01 00 00	 jmp	 $LN20@GetToken
$LN15@GetToken:

; 78   : 
; 79   : 	case 0x7D:	// }
; 80   : 		return CurrentToken = RP;

  00641	c7 05 00 00 00
	00 7d 00 00 00	 mov	 DWORD PTR _CurrentToken, 125 ; 0000007dH
  0064b	a1 00 00 00 00	 mov	 eax, DWORD PTR _CurrentToken
  00650	e9 d3 01 00 00	 jmp	 $LN32@GetToken

; 81   : 		break;

  00655	e9 cc 01 00 00	 jmp	 $LN20@GetToken
$LN14@GetToken:

; 82   : 	// Nice Index Table :)	by Deathway
; 83   : 	// Numbers Case
; 84   : 	case 0x2D:	//-
; 85   : 	case 0x2E:	//.
; 86   : 	case '0':	//0
; 87   : 	case '1':	//1
; 88   : 	case '2':	//2
; 89   : 	case '3':	//3
; 90   : 	case '4':	//4		
; 91   : 	case '5':	//5
; 92   : 	case '6':	//6
; 93   : 	case '7':	//7
; 94   : 	case '8':	//8
; 95   : 	case '9':	//9
; 96   : 		ungetc(ch, SMDFile);

  0065a	a1 00 00 00 00	 mov	 eax, DWORD PTR _SMDFile
  0065f	50		 push	 eax
  00660	0f be 4d fb	 movsx	 ecx, BYTE PTR _ch$[ebp]
  00664	51		 push	 ecx
  00665	e8 00 00 00 00	 call	 _ungetc
  0066a	83 c4 08	 add	 esp, 8

; 97   : 		p = TempString;

  0066d	8d 45 90	 lea	 eax, DWORD PTR _TempString$[ebp]
  00670	89 45 f4	 mov	 DWORD PTR _p$[ebp], eax
$LN13@GetToken:

; 98   : 		
; 99   : 		while (((ch=getc(SMDFile)) != -1) && ((ch == 0x2E) || (isdigit(ch) != 0) || (ch == 0x2D)))  // 2e '.'  2D '-'

  00673	a1 00 00 00 00	 mov	 eax, DWORD PTR _SMDFile
  00678	50		 push	 eax
  00679	e8 00 00 00 00	 call	 _getc
  0067e	83 c4 04	 add	 esp, 4
  00681	88 45 fb	 mov	 BYTE PTR _ch$[ebp], al
  00684	0f be 4d fb	 movsx	 ecx, BYTE PTR _ch$[ebp]
  00688	83 f9 ff	 cmp	 ecx, -1
  0068b	74 36		 je	 SHORT $LN12@GetToken
  0068d	0f be 45 fb	 movsx	 eax, BYTE PTR _ch$[ebp]
  00691	83 f8 2e	 cmp	 eax, 46			; 0000002eH
  00694	74 1a		 je	 SHORT $LN11@GetToken
  00696	0f be 45 fb	 movsx	 eax, BYTE PTR _ch$[ebp]
  0069a	50		 push	 eax
  0069b	e8 00 00 00 00	 call	 _isdigit
  006a0	83 c4 04	 add	 esp, 4
  006a3	85 c0		 test	 eax, eax
  006a5	75 09		 jne	 SHORT $LN11@GetToken
  006a7	0f be 45 fb	 movsx	 eax, BYTE PTR _ch$[ebp]
  006ab	83 f8 2d	 cmp	 eax, 45			; 0000002dH
  006ae	75 13		 jne	 SHORT $LN12@GetToken
$LN11@GetToken:

; 100  : 		{
; 101  : 			*p = ch;	// Construct a String

  006b0	8b 45 f4	 mov	 eax, DWORD PTR _p$[ebp]
  006b3	8a 4d fb	 mov	 cl, BYTE PTR _ch$[ebp]
  006b6	88 08		 mov	 BYTE PTR [eax], cl

; 102  : 			p++;

  006b8	8b 45 f4	 mov	 eax, DWORD PTR _p$[ebp]
  006bb	83 c0 01	 add	 eax, 1
  006be	89 45 f4	 mov	 DWORD PTR _p$[ebp], eax

; 103  : 		}		

  006c1	eb b0		 jmp	 SHORT $LN13@GetToken
$LN12@GetToken:

; 104  : 		*p = 0;

  006c3	8b 45 f4	 mov	 eax, DWORD PTR _p$[ebp]
  006c6	c6 00 00	 mov	 BYTE PTR [eax], 0

; 105  : 		TokenNumber = atof( TempString);	// Select the first Byte as Main ID

  006c9	8d 45 90	 lea	 eax, DWORD PTR _TempString$[ebp]
  006cc	50		 push	 eax
  006cd	e8 00 00 00 00	 call	 _atof
  006d2	83 c4 04	 add	 esp, 4
  006d5	d9 1d 00 00 00
	00		 fstp	 DWORD PTR _TokenNumber

; 106  : 		return CurrentToken  = NUMBER ;

  006db	c7 05 00 00 00
	00 01 00 00 00	 mov	 DWORD PTR _CurrentToken, 1
  006e5	a1 00 00 00 00	 mov	 eax, DWORD PTR _CurrentToken
  006ea	e9 39 01 00 00	 jmp	 $LN32@GetToken

; 107  : 		break;

  006ef	e9 32 01 00 00	 jmp	 $LN20@GetToken
$LN10@GetToken:

; 108  : 
; 109  : 	case '\"':	// "	String Case
; 110  : 		p=&TokenString[0];

  006f4	c7 45 f4 00 00
	00 00		 mov	 DWORD PTR _p$[ebp], OFFSET _TokenString
$LN9@GetToken:

; 111  : 		
; 112  : 		while (((ch=getc(SMDFile)) != -1 ) && (ch != 0x22))	// nice

  006fb	a1 00 00 00 00	 mov	 eax, DWORD PTR _SMDFile
  00700	50		 push	 eax
  00701	e8 00 00 00 00	 call	 _getc
  00706	83 c4 04	 add	 esp, 4
  00709	88 45 fb	 mov	 BYTE PTR _ch$[ebp], al
  0070c	0f be 4d fb	 movsx	 ecx, BYTE PTR _ch$[ebp]
  00710	83 f9 ff	 cmp	 ecx, -1
  00713	74 1c		 je	 SHORT $LN8@GetToken
  00715	0f be 45 fb	 movsx	 eax, BYTE PTR _ch$[ebp]
  00719	83 f8 22	 cmp	 eax, 34			; 00000022H
  0071c	74 13		 je	 SHORT $LN8@GetToken

; 113  : 		{
; 114  : 			*p = ch;

  0071e	8b 45 f4	 mov	 eax, DWORD PTR _p$[ebp]
  00721	8a 4d fb	 mov	 cl, BYTE PTR _ch$[ebp]
  00724	88 08		 mov	 BYTE PTR [eax], cl

; 115  : 			p++;

  00726	8b 45 f4	 mov	 eax, DWORD PTR _p$[ebp]
  00729	83 c0 01	 add	 eax, 1
  0072c	89 45 f4	 mov	 DWORD PTR _p$[ebp], eax

; 116  : 		}

  0072f	eb ca		 jmp	 SHORT $LN9@GetToken
$LN8@GetToken:

; 117  : 		if (ch != 0x22 )

  00731	0f be 45 fb	 movsx	 eax, BYTE PTR _ch$[ebp]
  00735	83 f8 22	 cmp	 eax, 34			; 00000022H
  00738	74 13		 je	 SHORT $LN7@GetToken

; 118  : 		{
; 119  : 			ungetc(ch, SMDFile);

  0073a	a1 00 00 00 00	 mov	 eax, DWORD PTR _SMDFile
  0073f	50		 push	 eax
  00740	0f be 4d fb	 movsx	 ecx, BYTE PTR _ch$[ebp]
  00744	51		 push	 ecx
  00745	e8 00 00 00 00	 call	 _ungetc
  0074a	83 c4 08	 add	 esp, 8
$LN7@GetToken:

; 120  : 		}
; 121  : 		*p = 0;

  0074d	8b 45 f4	 mov	 eax, DWORD PTR _p$[ebp]
  00750	c6 00 00	 mov	 BYTE PTR [eax], 0

; 122  : 		return CurrentToken = NAME;

  00753	c7 05 00 00 00
	00 00 00 00 00	 mov	 DWORD PTR _CurrentToken, 0
  0075d	a1 00 00 00 00	 mov	 eax, DWORD PTR _CurrentToken
  00762	e9 c1 00 00 00	 jmp	 $LN32@GetToken

; 123  : 		break;

  00767	e9 ba 00 00 00	 jmp	 $LN20@GetToken
$LN6@GetToken:

; 124  : 
; 125  : 	default:	// Others
; 126  : 		if (isalpha(ch))

  0076c	0f be 45 fb	 movsx	 eax, BYTE PTR _ch$[ebp]
  00770	50		 push	 eax
  00771	e8 00 00 00 00	 call	 _isalpha
  00776	83 c4 04	 add	 esp, 4
  00779	85 c0		 test	 eax, eax
  0077b	0f 84 94 00 00
	00		 je	 $LN5@GetToken

; 127  : 		{
; 128  : 			p=&TokenString[0];

  00781	c7 45 f4 00 00
	00 00		 mov	 DWORD PTR _p$[ebp], OFFSET _TokenString

; 129  : 			*p=ch;

  00788	8b 45 f4	 mov	 eax, DWORD PTR _p$[ebp]
  0078b	8a 4d fb	 mov	 cl, BYTE PTR _ch$[ebp]
  0078e	88 08		 mov	 BYTE PTR [eax], cl

; 130  : 			p++;

  00790	8b 45 f4	 mov	 eax, DWORD PTR _p$[ebp]
  00793	83 c0 01	 add	 eax, 1
  00796	89 45 f4	 mov	 DWORD PTR _p$[ebp], eax
$LN4@GetToken:

; 131  : 
; 132  : 			while ( ((ch=getc(SMDFile)) != -1) && ( (ch == 0x2E) || (ch == 0x5F) || (isalnum(ch) != 0) ) )

  00799	a1 00 00 00 00	 mov	 eax, DWORD PTR _SMDFile
  0079e	50		 push	 eax
  0079f	e8 00 00 00 00	 call	 _getc
  007a4	83 c4 04	 add	 esp, 4
  007a7	88 45 fb	 mov	 BYTE PTR _ch$[ebp], al
  007aa	0f be 4d fb	 movsx	 ecx, BYTE PTR _ch$[ebp]
  007ae	83 f9 ff	 cmp	 ecx, -1
  007b1	74 36		 je	 SHORT $LN3@GetToken
  007b3	0f be 45 fb	 movsx	 eax, BYTE PTR _ch$[ebp]
  007b7	83 f8 2e	 cmp	 eax, 46			; 0000002eH
  007ba	74 1a		 je	 SHORT $LN2@GetToken
  007bc	0f be 45 fb	 movsx	 eax, BYTE PTR _ch$[ebp]
  007c0	83 f8 5f	 cmp	 eax, 95			; 0000005fH
  007c3	74 11		 je	 SHORT $LN2@GetToken
  007c5	0f be 45 fb	 movsx	 eax, BYTE PTR _ch$[ebp]
  007c9	50		 push	 eax
  007ca	e8 00 00 00 00	 call	 _isalnum
  007cf	83 c4 04	 add	 esp, 4
  007d2	85 c0		 test	 eax, eax
  007d4	74 13		 je	 SHORT $LN3@GetToken
$LN2@GetToken:

; 133  : 			{
; 134  : 				*p=ch;

  007d6	8b 45 f4	 mov	 eax, DWORD PTR _p$[ebp]
  007d9	8a 4d fb	 mov	 cl, BYTE PTR _ch$[ebp]
  007dc	88 08		 mov	 BYTE PTR [eax], cl

; 135  : 				p++;

  007de	8b 45 f4	 mov	 eax, DWORD PTR _p$[ebp]
  007e1	83 c0 01	 add	 eax, 1
  007e4	89 45 f4	 mov	 DWORD PTR _p$[ebp], eax

; 136  : 				
; 137  : 			}

  007e7	eb b0		 jmp	 SHORT $LN4@GetToken
$LN3@GetToken:

; 138  : 
; 139  : 			ungetc(ch, SMDFile);

  007e9	a1 00 00 00 00	 mov	 eax, DWORD PTR _SMDFile
  007ee	50		 push	 eax
  007ef	0f be 4d fb	 movsx	 ecx, BYTE PTR _ch$[ebp]
  007f3	51		 push	 ecx
  007f4	e8 00 00 00 00	 call	 _ungetc
  007f9	83 c4 08	 add	 esp, 8

; 140  : 			*p=0;

  007fc	8b 45 f4	 mov	 eax, DWORD PTR _p$[ebp]
  007ff	c6 00 00	 mov	 BYTE PTR [eax], 0

; 141  : 			CurrentToken=NAME;

  00802	c7 05 00 00 00
	00 00 00 00 00	 mov	 DWORD PTR _CurrentToken, 0

; 142  : 			return CurrentToken;

  0080c	a1 00 00 00 00	 mov	 eax, DWORD PTR _CurrentToken
  00811	eb 15		 jmp	 SHORT $LN32@GetToken

; 143  : 		}
; 144  : 		else

  00813	eb 11		 jmp	 SHORT $LN1@GetToken
$LN5@GetToken:

; 145  : 		{
; 146  : 			return CurrentToken = SMD_ERROR; // '<'

  00815	c7 05 00 00 00
	00 3c 00 00 00	 mov	 DWORD PTR _CurrentToken, 60 ; 0000003cH
  0081f	a1 00 00 00 00	 mov	 eax, DWORD PTR _CurrentToken
  00824	eb 02		 jmp	 SHORT $LN32@GetToken
$LN1@GetToken:
$LN20@GetToken:

; 147  : 		}
; 148  : 		break;
; 149  : 
; 150  : 	}
; 151  : 
; 152  : 	return NAME;

  00826	33 c0		 xor	 eax, eax
$LN32@GetToken:

; 153  : }

  00828	5f		 pop	 edi
  00829	5e		 pop	 esi
  0082a	5b		 pop	 ebx
  0082b	8b 4d fc	 mov	 ecx, DWORD PTR __$ArrayPad$[ebp]
  0082e	33 cd		 xor	 ecx, ebp
  00830	e8 00 00 00 00	 call	 @__security_check_cookie@4
  00835	8b e5		 mov	 esp, ebp
  00837	5d		 pop	 ebp
  00838	c3		 ret	 0
  00839	8d 49 00	 npad	 3
$LN35@GetToken:
  0083c	00 00 00 00	 DD	 $LN10@GetToken
  00840	00 00 00 00	 DD	 $LN19@GetToken
  00844	00 00 00 00	 DD	 $LN17@GetToken
  00848	00 00 00 00	 DD	 $LN14@GetToken
  0084c	00 00 00 00	 DD	 $LN18@GetToken
  00850	00 00 00 00	 DD	 $LN16@GetToken
  00854	00 00 00 00	 DD	 $LN15@GetToken
  00858	00 00 00 00	 DD	 $LN6@GetToken
$LN34@GetToken:
  0085c	00		 DB	 0
  0085d	01		 DB	 1
  0085e	07		 DB	 7
  0085f	07		 DB	 7
  00860	07		 DB	 7
  00861	07		 DB	 7
  00862	07		 DB	 7
  00863	07		 DB	 7
  00864	07		 DB	 7
  00865	07		 DB	 7
  00866	02		 DB	 2
  00867	03		 DB	 3
  00868	03		 DB	 3
  00869	07		 DB	 7
  0086a	03		 DB	 3
  0086b	03		 DB	 3
  0086c	03		 DB	 3
  0086d	03		 DB	 3
  0086e	03		 DB	 3
  0086f	03		 DB	 3
  00870	03		 DB	 3
  00871	03		 DB	 3
  00872	03		 DB	 3
  00873	03		 DB	 3
  00874	07		 DB	 7
  00875	04		 DB	 4
  00876	07		 DB	 7
  00877	07		 DB	 7
  00878	07		 DB	 7
  00879	07		 DB	 7
  0087a	07		 DB	 7
  0087b	07		 DB	 7
  0087c	07		 DB	 7
  0087d	07		 DB	 7
  0087e	07		 DB	 7
  0087f	07		 DB	 7
  00880	07		 DB	 7
  00881	07		 DB	 7
  00882	07		 DB	 7
  00883	07		 DB	 7
  00884	07		 DB	 7
  00885	07		 DB	 7
  00886	07		 DB	 7
  00887	07		 DB	 7
  00888	07		 DB	 7
  00889	07		 DB	 7
  0088a	07		 DB	 7
  0088b	07		 DB	 7
  0088c	07		 DB	 7
  0088d	07		 DB	 7
  0088e	07		 DB	 7
  0088f	07		 DB	 7
  00890	07		 DB	 7
  00891	07		 DB	 7
  00892	07		 DB	 7
  00893	07		 DB	 7
  00894	07		 DB	 7
  00895	07		 DB	 7
  00896	07		 DB	 7
  00897	07		 DB	 7
  00898	07		 DB	 7
  00899	07		 DB	 7
  0089a	07		 DB	 7
  0089b	07		 DB	 7
  0089c	07		 DB	 7
  0089d	07		 DB	 7
  0089e	07		 DB	 7
  0089f	07		 DB	 7
  008a0	07		 DB	 7
  008a1	07		 DB	 7
  008a2	07		 DB	 7
  008a3	07		 DB	 7
  008a4	07		 DB	 7
  008a5	07		 DB	 7
  008a6	07		 DB	 7
  008a7	07		 DB	 7
  008a8	07		 DB	 7
  008a9	07		 DB	 7
  008aa	07		 DB	 7
  008ab	07		 DB	 7
  008ac	07		 DB	 7
  008ad	07		 DB	 7
  008ae	07		 DB	 7
  008af	07		 DB	 7
  008b0	07		 DB	 7
  008b1	07		 DB	 7
  008b2	07		 DB	 7
  008b3	07		 DB	 7
  008b4	07		 DB	 7
  008b5	05		 DB	 5
  008b6	07		 DB	 7
  008b7	06		 DB	 6
?GetToken@@YA?AW4SMDToken@@XZ ENDP			; GetToken
_TEXT	ENDS
EXTRN	?DelAllAIMonsterMovePath@TMonsterAIMovePath@@QAEHXZ:PROC ; TMonsterAIMovePath::DelAllAIMonsterMovePath
; Function compile flags: /Odtp /ZI
; File d:\projects\exteam6.3\source\gameserver\gameserver\tmonsteraielement.cpp
_TEXT	SEGMENT
_j$228715 = -8						; size = 4
_i$228711 = -4						; size = 4
?DelAllAIElement@TMonsterAIElement@@SAHXZ PROC		; TMonsterAIElement::DelAllAIElement

; 168  : {

  008c0	55		 push	 ebp
  008c1	8b ec		 mov	 ebp, esp
  008c3	83 ec 48	 sub	 esp, 72			; 00000048H
  008c6	53		 push	 ebx
  008c7	56		 push	 esi
  008c8	57		 push	 edi

; 169  : 	for ( int i=0;i<MAX_AI_ELEMENT;i++)

  008c9	c7 45 fc 00 00
	00 00		 mov	 DWORD PTR _i$228711[ebp], 0
  008d0	eb 09		 jmp	 SHORT $LN6@DelAllAIEl
$LN5@DelAllAIEl:
  008d2	8b 45 fc	 mov	 eax, DWORD PTR _i$228711[ebp]
  008d5	83 c0 01	 add	 eax, 1
  008d8	89 45 fc	 mov	 DWORD PTR _i$228711[ebp], eax
$LN6@DelAllAIEl:
  008db	83 7d fc 64	 cmp	 DWORD PTR _i$228711[ebp], 100 ; 00000064H
  008df	7d 13		 jge	 SHORT $LN4@DelAllAIEl

; 170  : 	{
; 171  : 		TMonsterAIElement::s_MonsterAIElementArray[i].Reset();

  008e1	8b 4d fc	 mov	 ecx, DWORD PTR _i$228711[ebp]
  008e4	6b c9 58	 imul	 ecx, 88			; 00000058H
  008e7	81 c1 00 00 00
	00		 add	 ecx, OFFSET ?s_MonsterAIElementArray@TMonsterAIElement@@2PAV1@A ; TMonsterAIElement::s_MonsterAIElementArray
  008ed	e8 00 00 00 00	 call	 ?Reset@TMonsterAIElement@@QAEXXZ ; TMonsterAIElement::Reset

; 172  : 	}

  008f2	eb de		 jmp	 SHORT $LN5@DelAllAIEl
$LN4@DelAllAIEl:

; 173  : 
; 174  : 	for ( int j=0;j<MAX_NUMBER_MAP;j++)

  008f4	c7 45 f8 00 00
	00 00		 mov	 DWORD PTR _j$228715[ebp], 0
  008fb	eb 09		 jmp	 SHORT $LN3@DelAllAIEl
$LN2@DelAllAIEl:
  008fd	8b 45 f8	 mov	 eax, DWORD PTR _j$228715[ebp]
  00900	83 c0 01	 add	 eax, 1
  00903	89 45 f8	 mov	 DWORD PTR _j$228715[ebp], eax
$LN3@DelAllAIEl:
  00906	83 7d f8 5a	 cmp	 DWORD PTR _j$228715[ebp], 90 ; 0000005aH
  0090a	7d 16		 jge	 SHORT $LN1@DelAllAIEl

; 175  : 	{
; 176  : 		TMonsterAIElement::s_MonsterAIMovePath[j].DelAllAIMonsterMovePath();

  0090c	8b 4d f8	 mov	 ecx, DWORD PTR _j$228715[ebp]
  0090f	69 c9 cc 12 00
	00		 imul	 ecx, 4812		; 000012ccH
  00915	81 c1 00 00 00
	00		 add	 ecx, OFFSET ?s_MonsterAIMovePath@TMonsterAIElement@@2PAVTMonsterAIMovePath@@A ; TMonsterAIElement::s_MonsterAIMovePath
  0091b	e8 00 00 00 00	 call	 ?DelAllAIMonsterMovePath@TMonsterAIMovePath@@QAEHXZ ; TMonsterAIMovePath::DelAllAIMonsterMovePath

; 177  : 	}

  00920	eb db		 jmp	 SHORT $LN2@DelAllAIEl
$LN1@DelAllAIEl:

; 178  : 
; 179  : 	return FALSE;

  00922	33 c0		 xor	 eax, eax

; 180  : }

  00924	5f		 pop	 edi
  00925	5e		 pop	 esi
  00926	5b		 pop	 ebx
  00927	8b e5		 mov	 esp, ebp
  00929	5d		 pop	 ebp
  0092a	c3		 ret	 0
?DelAllAIElement@TMonsterAIElement@@SAHXZ ENDP		; TMonsterAIElement::DelAllAIElement
_TEXT	ENDS
PUBLIC	??_C@_0EB@KAILBHGJ@?$FLMonster?5AI?5Element?$FN?5FindAIEleme@ ; `string'
PUBLIC	?FindAIElement@TMonsterAIElement@@SAPAV1@H@Z	; TMonsterAIElement::FindAIElement
EXTRN	?LogAddTD@@3P6AXPADZZA:DWORD			; LogAddTD
;	COMDAT ??_C@_0EB@KAILBHGJ@?$FLMonster?5AI?5Element?$FN?5FindAIEleme@
CONST	SEGMENT
??_C@_0EB@KAILBHGJ@?$FLMonster?5AI?5Element?$FN?5FindAIEleme@ DB '[Monste'
	DB	'r AI Element] FindAIElement() Error - (ElementNumber=%d) ', 00H ; `string'
; Function compile flags: /Odtp /ZI
CONST	ENDS
_TEXT	SEGMENT
_iElementNumber$ = 8					; size = 4
?FindAIElement@TMonsterAIElement@@SAPAV1@H@Z PROC	; TMonsterAIElement::FindAIElement

; 183  : {

  00930	55		 push	 ebp
  00931	8b ec		 mov	 ebp, esp
  00933	83 ec 40	 sub	 esp, 64			; 00000040H
  00936	53		 push	 ebx
  00937	56		 push	 esi
  00938	57		 push	 edi

; 184  : 	if ( iElementNumber < 0 || iElementNumber >= MAX_AI_ELEMENT )

  00939	83 7d 08 00	 cmp	 DWORD PTR _iElementNumber$[ebp], 0
  0093d	7c 06		 jl	 SHORT $LN2@FindAIElem
  0093f	83 7d 08 64	 cmp	 DWORD PTR _iElementNumber$[ebp], 100 ; 00000064H
  00943	7c 16		 jl	 SHORT $LN3@FindAIElem
$LN2@FindAIElem:

; 185  : 	{
; 186  : 		LogAddTD("[Monster AI Element] FindAIElement() Error - (ElementNumber=%d) ", iElementNumber);

  00945	8b 45 08	 mov	 eax, DWORD PTR _iElementNumber$[ebp]
  00948	50		 push	 eax
  00949	68 00 00 00 00	 push	 OFFSET ??_C@_0EB@KAILBHGJ@?$FLMonster?5AI?5Element?$FN?5FindAIEleme@
  0094e	ff 15 00 00 00
	00		 call	 DWORD PTR ?LogAddTD@@3P6AXPADZZA ; LogAddTD
  00954	83 c4 08	 add	 esp, 8

; 187  : 		return NULL;

  00957	33 c0		 xor	 eax, eax
  00959	eb 32		 jmp	 SHORT $LN4@FindAIElem
$LN3@FindAIElem:

; 188  : 	}
; 189  : 
; 190  : 	if ( TMonsterAIElement::s_MonsterAIElementArray[iElementNumber].m_iElementNumber == iElementNumber )

  0095b	8b 45 08	 mov	 eax, DWORD PTR _iElementNumber$[ebp]
  0095e	6b c0 58	 imul	 eax, 88			; 00000058H
  00961	8b 88 38 00 00
	00		 mov	 ecx, DWORD PTR ?s_MonsterAIElementArray@TMonsterAIElement@@2PAV1@A[eax+56]
  00967	3b 4d 08	 cmp	 ecx, DWORD PTR _iElementNumber$[ebp]
  0096a	75 0d		 jne	 SHORT $LN1@FindAIElem

; 191  : 	{
; 192  : 		return &TMonsterAIElement::s_MonsterAIElementArray[iElementNumber];

  0096c	8b 45 08	 mov	 eax, DWORD PTR _iElementNumber$[ebp]
  0096f	6b c0 58	 imul	 eax, 88			; 00000058H
  00972	05 00 00 00 00	 add	 eax, OFFSET ?s_MonsterAIElementArray@TMonsterAIElement@@2PAV1@A ; TMonsterAIElement::s_MonsterAIElementArray
  00977	eb 14		 jmp	 SHORT $LN4@FindAIElem
$LN1@FindAIElem:

; 193  : 	}
; 194  : 
; 195  : 	LogAddTD("[Monster AI Element] FindAIElement() Error - (ElementNumber=%d) ", iElementNumber);

  00979	8b 45 08	 mov	 eax, DWORD PTR _iElementNumber$[ebp]
  0097c	50		 push	 eax
  0097d	68 00 00 00 00	 push	 OFFSET ??_C@_0EB@KAILBHGJ@?$FLMonster?5AI?5Element?$FN?5FindAIEleme@
  00982	ff 15 00 00 00
	00		 call	 DWORD PTR ?LogAddTD@@3P6AXPADZZA ; LogAddTD
  00988	83 c4 08	 add	 esp, 8

; 196  : 	return NULL;

  0098b	33 c0		 xor	 eax, eax
$LN4@FindAIElem:

; 197  : }

  0098d	5f		 pop	 edi
  0098e	5e		 pop	 esi
  0098f	5b		 pop	 ebx
  00990	8b e5		 mov	 esp, ebp
  00992	5d		 pop	 ebp
  00993	c3		 ret	 0
?FindAIElement@TMonsterAIElement@@SAPAV1@H@Z ENDP	; TMonsterAIElement::FindAIElement
_TEXT	ENDS
PUBLIC	?ApplyElementSpecialImmune@TMonsterAIElement@@QAEHHHPAVTMonsterAIState@@@Z ; TMonsterAIElement::ApplyElementSpecialImmune
PUBLIC	?ApplyElementAIChange@TMonsterAIElement@@QAEHHHPAVTMonsterAIState@@@Z ; TMonsterAIElement::ApplyElementAIChange
PUBLIC	?ApplyElementSkillAttack@TMonsterAIElement@@QAEHHHPAVTMonsterAIState@@@Z ; TMonsterAIElement::ApplyElementSkillAttack
PUBLIC	?ApplyElementNightmareWarp@TMonsterAIElement@@QAEHHHPAVTMonsterAIState@@@Z ; TMonsterAIElement::ApplyElementNightmareWarp
PUBLIC	?ApplyElementNightmareSummon@TMonsterAIElement@@QAEHHHPAVTMonsterAIState@@@Z ; TMonsterAIElement::ApplyElementNightmareSummon
PUBLIC	?ApplyElementSpecialSommon@TMonsterAIElement@@QAEHHHPAVTMonsterAIState@@@Z ; TMonsterAIElement::ApplyElementSpecialSommon
PUBLIC	?ApplyElementAvoid@TMonsterAIElement@@QAEHHHPAVTMonsterAIState@@@Z ; TMonsterAIElement::ApplyElementAvoid
PUBLIC	?ApplyElementHealGroup@TMonsterAIElement@@QAEHHHPAVTMonsterAIState@@@Z ; TMonsterAIElement::ApplyElementHealGroup
PUBLIC	?ApplyElementHealSelf@TMonsterAIElement@@QAEHHHPAVTMonsterAIState@@@Z ; TMonsterAIElement::ApplyElementHealSelf
PUBLIC	?ApplyElementAttackPenetration@TMonsterAIElement@@QAEHHHPAVTMonsterAIState@@@Z ; TMonsterAIElement::ApplyElementAttackPenetration
PUBLIC	?ApplyElementAttackArea@TMonsterAIElement@@QAEHHHPAVTMonsterAIState@@@Z ; TMonsterAIElement::ApplyElementAttackArea
PUBLIC	?ApplyElementAttack@TMonsterAIElement@@QAEHHHPAVTMonsterAIState@@@Z ; TMonsterAIElement::ApplyElementAttack
PUBLIC	?ApplyElementGroupMove@TMonsterAIElement@@QAEHHHPAVTMonsterAIState@@@Z ; TMonsterAIElement::ApplyElementGroupMove
PUBLIC	?ApplyElementMoveTarget@TMonsterAIElement@@QAEHHHPAVTMonsterAIState@@@Z ; TMonsterAIElement::ApplyElementMoveTarget
PUBLIC	?ApplyElementMove@TMonsterAIElement@@QAEHHHPAVTMonsterAIState@@@Z ; TMonsterAIElement::ApplyElementMove
PUBLIC	?ApplyElementCommon@TMonsterAIElement@@QAEHHHPAVTMonsterAIState@@@Z ; TMonsterAIElement::ApplyElementCommon
PUBLIC	?ForceAIElement@TMonsterAIElement@@QAEHHHPAVTMonsterAIState@@@Z ; TMonsterAIElement::ForceAIElement
EXTRN	_rand:PROC
EXTRN	?gObj@@3PAUOBJECTSTRUCT@@A:DWORD		; gObj
; Function compile flags: /Odtp /ZI
_TEXT	SEGMENT
tv71 = -76						; size = 4
_lpObj$ = -8						; size = 4
_this$ = -4						; size = 4
_iIndex$ = 8						; size = 4
_iTargetIndex$ = 12					; size = 4
_pAIState$ = 16						; size = 4
?ForceAIElement@TMonsterAIElement@@QAEHHHPAVTMonsterAIState@@@Z PROC ; TMonsterAIElement::ForceAIElement
; _this$ = ecx

; 200  : {

  009a0	55		 push	 ebp
  009a1	8b ec		 mov	 ebp, esp
  009a3	83 ec 4c	 sub	 esp, 76			; 0000004cH
  009a6	53		 push	 ebx
  009a7	56		 push	 esi
  009a8	57		 push	 edi
  009a9	89 4d fc	 mov	 DWORD PTR _this$[ebp], ecx

; 201  : 	LPOBJ lpObj = &gObj[iIndex];

  009ac	8b 45 08	 mov	 eax, DWORD PTR _iIndex$[ebp]
  009af	69 c0 38 2b 00
	00		 imul	 eax, 11064		; 00002b38H
  009b5	03 05 00 00 00
	00		 add	 eax, DWORD PTR ?gObj@@3PAUOBJECTSTRUCT@@A ; gObj
  009bb	89 45 f8	 mov	 DWORD PTR _lpObj$[ebp], eax

; 202  : 
; 203  : 	if ( (rand()%100) > this->m_iSuccessRate )

  009be	e8 00 00 00 00	 call	 _rand
  009c3	99		 cdq
  009c4	b9 64 00 00 00	 mov	 ecx, 100		; 00000064H
  009c9	f7 f9		 idiv	 ecx
  009cb	8b 45 fc	 mov	 eax, DWORD PTR _this$[ebp]
  009ce	3b 50 44	 cmp	 edx, DWORD PTR [eax+68]
  009d1	7e 07		 jle	 SHORT $LN19@ForceAIEle

; 204  : 		return FALSE;

  009d3	33 c0		 xor	 eax, eax
  009d5	e9 ae 01 00 00	 jmp	 $LN20@ForceAIEle
$LN19@ForceAIEle:

; 205  : 
; 206  : 	switch ( this->m_iElementType )

  009da	8b 45 fc	 mov	 eax, DWORD PTR _this$[ebp]
  009dd	8b 48 40	 mov	 ecx, DWORD PTR [eax+64]
  009e0	89 4d b4	 mov	 DWORD PTR tv71[ebp], ecx
  009e3	8b 55 b4	 mov	 edx, DWORD PTR tv71[ebp]
  009e6	83 ea 01	 sub	 edx, 1
  009e9	89 55 b4	 mov	 DWORD PTR tv71[ebp], edx
  009ec	83 7d b4 43	 cmp	 DWORD PTR tv71[ebp], 67	; 00000043H
  009f0	0f 87 8d 01 00
	00		 ja	 $LN17@ForceAIEle
  009f6	8b 45 b4	 mov	 eax, DWORD PTR tv71[ebp]
  009f9	0f b6 88 00 00
	00 00		 movzx	 ecx, BYTE PTR $LN22@ForceAIEle[eax]
  00a00	ff 24 8d 00 00
	00 00		 jmp	 DWORD PTR $LN23@ForceAIEle[ecx*4]
$LN16@ForceAIEle:

; 207  : 	{
; 208  : 		case MAE_TYPE_COMMON_NORMAL:
; 209  : 			this->ApplyElementCommon(iIndex, iTargetIndex, pAIState);

  00a07	8b 45 10	 mov	 eax, DWORD PTR _pAIState$[ebp]
  00a0a	50		 push	 eax
  00a0b	8b 4d 0c	 mov	 ecx, DWORD PTR _iTargetIndex$[ebp]
  00a0e	51		 push	 ecx
  00a0f	8b 55 08	 mov	 edx, DWORD PTR _iIndex$[ebp]
  00a12	52		 push	 edx
  00a13	8b 4d fc	 mov	 ecx, DWORD PTR _this$[ebp]
  00a16	e8 00 00 00 00	 call	 ?ApplyElementCommon@TMonsterAIElement@@QAEHHHPAVTMonsterAIState@@@Z ; TMonsterAIElement::ApplyElementCommon

; 210  : 			break;

  00a1b	e9 63 01 00 00	 jmp	 $LN17@ForceAIEle
$LN15@ForceAIEle:

; 211  : 		case MAE_TYPE_MOVE_NORMAL:
; 212  : 			this->ApplyElementMove(iIndex, iTargetIndex, pAIState);

  00a20	8b 45 10	 mov	 eax, DWORD PTR _pAIState$[ebp]
  00a23	50		 push	 eax
  00a24	8b 4d 0c	 mov	 ecx, DWORD PTR _iTargetIndex$[ebp]
  00a27	51		 push	 ecx
  00a28	8b 55 08	 mov	 edx, DWORD PTR _iIndex$[ebp]
  00a2b	52		 push	 edx
  00a2c	8b 4d fc	 mov	 ecx, DWORD PTR _this$[ebp]
  00a2f	e8 00 00 00 00	 call	 ?ApplyElementMove@TMonsterAIElement@@QAEHHHPAVTMonsterAIState@@@Z ; TMonsterAIElement::ApplyElementMove

; 213  : 			break;

  00a34	e9 4a 01 00 00	 jmp	 $LN17@ForceAIEle
$LN14@ForceAIEle:

; 214  : 		case MAE_TYPE_MOVE_TARGET:
; 215  : 			this->ApplyElementMoveTarget(iIndex, iTargetIndex, pAIState);

  00a39	8b 45 10	 mov	 eax, DWORD PTR _pAIState$[ebp]
  00a3c	50		 push	 eax
  00a3d	8b 4d 0c	 mov	 ecx, DWORD PTR _iTargetIndex$[ebp]
  00a40	51		 push	 ecx
  00a41	8b 55 08	 mov	 edx, DWORD PTR _iIndex$[ebp]
  00a44	52		 push	 edx
  00a45	8b 4d fc	 mov	 ecx, DWORD PTR _this$[ebp]
  00a48	e8 00 00 00 00	 call	 ?ApplyElementMoveTarget@TMonsterAIElement@@QAEHHHPAVTMonsterAIState@@@Z ; TMonsterAIElement::ApplyElementMoveTarget

; 216  : 			break;

  00a4d	e9 31 01 00 00	 jmp	 $LN17@ForceAIEle
$LN13@ForceAIEle:

; 217  : 		case MAE_TYPE_GROUP_MOVE:
; 218  : 			this->ApplyElementGroupMove(iIndex, iTargetIndex, pAIState);

  00a52	8b 45 10	 mov	 eax, DWORD PTR _pAIState$[ebp]
  00a55	50		 push	 eax
  00a56	8b 4d 0c	 mov	 ecx, DWORD PTR _iTargetIndex$[ebp]
  00a59	51		 push	 ecx
  00a5a	8b 55 08	 mov	 edx, DWORD PTR _iIndex$[ebp]
  00a5d	52		 push	 edx
  00a5e	8b 4d fc	 mov	 ecx, DWORD PTR _this$[ebp]
  00a61	e8 00 00 00 00	 call	 ?ApplyElementGroupMove@TMonsterAIElement@@QAEHHHPAVTMonsterAIState@@@Z ; TMonsterAIElement::ApplyElementGroupMove

; 219  : 			break;

  00a66	e9 18 01 00 00	 jmp	 $LN17@ForceAIEle
$LN12@ForceAIEle:

; 220  : 		/*case MAE_TYPE_GROUP_MOVE_TARGET:
; 221  : 			this->(iIndex, iTargetIndex, pAIState);
; 222  : 			break;*/
; 223  : 		case MAE_TYPE_ATTACK_NORMAL:
; 224  : 			this->ApplyElementAttack(iIndex, iTargetIndex, pAIState);

  00a6b	8b 45 10	 mov	 eax, DWORD PTR _pAIState$[ebp]
  00a6e	50		 push	 eax
  00a6f	8b 4d 0c	 mov	 ecx, DWORD PTR _iTargetIndex$[ebp]
  00a72	51		 push	 ecx
  00a73	8b 55 08	 mov	 edx, DWORD PTR _iIndex$[ebp]
  00a76	52		 push	 edx
  00a77	8b 4d fc	 mov	 ecx, DWORD PTR _this$[ebp]
  00a7a	e8 00 00 00 00	 call	 ?ApplyElementAttack@TMonsterAIElement@@QAEHHHPAVTMonsterAIState@@@Z ; TMonsterAIElement::ApplyElementAttack

; 225  : 			break;

  00a7f	e9 ff 00 00 00	 jmp	 $LN17@ForceAIEle
$LN11@ForceAIEle:

; 226  : 		case MAE_TYPE_ATTACK_AREA:
; 227  : 			this->ApplyElementAttackArea(iIndex, iTargetIndex, pAIState);

  00a84	8b 45 10	 mov	 eax, DWORD PTR _pAIState$[ebp]
  00a87	50		 push	 eax
  00a88	8b 4d 0c	 mov	 ecx, DWORD PTR _iTargetIndex$[ebp]
  00a8b	51		 push	 ecx
  00a8c	8b 55 08	 mov	 edx, DWORD PTR _iIndex$[ebp]
  00a8f	52		 push	 edx
  00a90	8b 4d fc	 mov	 ecx, DWORD PTR _this$[ebp]
  00a93	e8 00 00 00 00	 call	 ?ApplyElementAttackArea@TMonsterAIElement@@QAEHHHPAVTMonsterAIState@@@Z ; TMonsterAIElement::ApplyElementAttackArea

; 228  : 			break;

  00a98	e9 e6 00 00 00	 jmp	 $LN17@ForceAIEle
$LN10@ForceAIEle:

; 229  : 		case MAE_TYPE_ATTACK_PENETRATION:
; 230  : 			this->ApplyElementAttackPenetration(iIndex, iTargetIndex, pAIState);

  00a9d	8b 45 10	 mov	 eax, DWORD PTR _pAIState$[ebp]
  00aa0	50		 push	 eax
  00aa1	8b 4d 0c	 mov	 ecx, DWORD PTR _iTargetIndex$[ebp]
  00aa4	51		 push	 ecx
  00aa5	8b 55 08	 mov	 edx, DWORD PTR _iIndex$[ebp]
  00aa8	52		 push	 edx
  00aa9	8b 4d fc	 mov	 ecx, DWORD PTR _this$[ebp]
  00aac	e8 00 00 00 00	 call	 ?ApplyElementAttackPenetration@TMonsterAIElement@@QAEHHHPAVTMonsterAIState@@@Z ; TMonsterAIElement::ApplyElementAttackPenetration

; 231  : 			break;

  00ab1	e9 cd 00 00 00	 jmp	 $LN17@ForceAIEle
$LN9@ForceAIEle:

; 232  : 		case MAE_TYPE_HEAL_SELF:
; 233  : 			this->ApplyElementHealSelf(iIndex, iTargetIndex, pAIState);

  00ab6	8b 45 10	 mov	 eax, DWORD PTR _pAIState$[ebp]
  00ab9	50		 push	 eax
  00aba	8b 4d 0c	 mov	 ecx, DWORD PTR _iTargetIndex$[ebp]
  00abd	51		 push	 ecx
  00abe	8b 55 08	 mov	 edx, DWORD PTR _iIndex$[ebp]
  00ac1	52		 push	 edx
  00ac2	8b 4d fc	 mov	 ecx, DWORD PTR _this$[ebp]
  00ac5	e8 00 00 00 00	 call	 ?ApplyElementHealSelf@TMonsterAIElement@@QAEHHHPAVTMonsterAIState@@@Z ; TMonsterAIElement::ApplyElementHealSelf

; 234  : 			break;

  00aca	e9 b4 00 00 00	 jmp	 $LN17@ForceAIEle
$LN8@ForceAIEle:

; 235  : 		case MAE_TYPE_HEAL_GROUP:
; 236  : 			this->ApplyElementHealGroup(iIndex, iTargetIndex, pAIState);

  00acf	8b 45 10	 mov	 eax, DWORD PTR _pAIState$[ebp]
  00ad2	50		 push	 eax
  00ad3	8b 4d 0c	 mov	 ecx, DWORD PTR _iTargetIndex$[ebp]
  00ad6	51		 push	 ecx
  00ad7	8b 55 08	 mov	 edx, DWORD PTR _iIndex$[ebp]
  00ada	52		 push	 edx
  00adb	8b 4d fc	 mov	 ecx, DWORD PTR _this$[ebp]
  00ade	e8 00 00 00 00	 call	 ?ApplyElementHealGroup@TMonsterAIElement@@QAEHHHPAVTMonsterAIState@@@Z ; TMonsterAIElement::ApplyElementHealGroup

; 237  : 			break;

  00ae3	e9 9b 00 00 00	 jmp	 $LN17@ForceAIEle
$LN7@ForceAIEle:

; 238  : 		case MAE_TYPE_AVOID_NORMAL:
; 239  : 			this->ApplyElementAvoid(iIndex, iTargetIndex, pAIState);

  00ae8	8b 45 10	 mov	 eax, DWORD PTR _pAIState$[ebp]
  00aeb	50		 push	 eax
  00aec	8b 4d 0c	 mov	 ecx, DWORD PTR _iTargetIndex$[ebp]
  00aef	51		 push	 ecx
  00af0	8b 55 08	 mov	 edx, DWORD PTR _iIndex$[ebp]
  00af3	52		 push	 edx
  00af4	8b 4d fc	 mov	 ecx, DWORD PTR _this$[ebp]
  00af7	e8 00 00 00 00	 call	 ?ApplyElementAvoid@TMonsterAIElement@@QAEHHHPAVTMonsterAIState@@@Z ; TMonsterAIElement::ApplyElementAvoid

; 240  : 			break;

  00afc	e9 82 00 00 00	 jmp	 $LN17@ForceAIEle
$LN6@ForceAIEle:

; 241  : 		/*case MAE_TYPE_HELP_HP:
; 242  : 			this->ApplyElement(iIndex, iTargetIndex, pAIState);
; 243  : 			break;*/
; 244  : 		/*case MAE_TYPE_HELP_BUFF:
; 245  : 			this->ApplyElement(iIndex, iTargetIndex, pAIState);
; 246  : 			break;*/
; 247  : 		/*case MAE_TYPE_HELP_TARGET:
; 248  : 			this->ApplyElement(iIndex, iTargetIndex, pAIState);
; 249  : 			break;*/
; 250  : 		/*case MAE_TYPE_SPECIAL:
; 251  : 			this->ApplyElement(iIndex, iTargetIndex, pAIState);
; 252  : 			break;*/
; 253  : 		case MAE_TYPE_SPECIAL_SOMMON:
; 254  : 			this->ApplyElementSpecialSommon(iIndex, iTargetIndex, pAIState);

  00b01	8b 45 10	 mov	 eax, DWORD PTR _pAIState$[ebp]
  00b04	50		 push	 eax
  00b05	8b 4d 0c	 mov	 ecx, DWORD PTR _iTargetIndex$[ebp]
  00b08	51		 push	 ecx
  00b09	8b 55 08	 mov	 edx, DWORD PTR _iIndex$[ebp]
  00b0c	52		 push	 edx
  00b0d	8b 4d fc	 mov	 ecx, DWORD PTR _this$[ebp]
  00b10	e8 00 00 00 00	 call	 ?ApplyElementSpecialSommon@TMonsterAIElement@@QAEHHHPAVTMonsterAIState@@@Z ; TMonsterAIElement::ApplyElementSpecialSommon

; 255  : 			break;

  00b15	eb 6c		 jmp	 SHORT $LN17@ForceAIEle
$LN5@ForceAIEle:

; 256  : 		case MAE_TYPE_SPECIAL_NIGHTMARE_SUMMON:
; 257  : 			this->ApplyElementNightmareSummon(iIndex, iTargetIndex, pAIState);

  00b17	8b 45 10	 mov	 eax, DWORD PTR _pAIState$[ebp]
  00b1a	50		 push	 eax
  00b1b	8b 4d 0c	 mov	 ecx, DWORD PTR _iTargetIndex$[ebp]
  00b1e	51		 push	 ecx
  00b1f	8b 55 08	 mov	 edx, DWORD PTR _iIndex$[ebp]
  00b22	52		 push	 edx
  00b23	8b 4d fc	 mov	 ecx, DWORD PTR _this$[ebp]
  00b26	e8 00 00 00 00	 call	 ?ApplyElementNightmareSummon@TMonsterAIElement@@QAEHHHPAVTMonsterAIState@@@Z ; TMonsterAIElement::ApplyElementNightmareSummon

; 258  : 			break;

  00b2b	eb 56		 jmp	 SHORT $LN17@ForceAIEle
$LN4@ForceAIEle:

; 259  : 		case MAE_TYPE_SPECIAL_WARP:
; 260  : 			this->ApplyElementNightmareWarp(iIndex, iTargetIndex, pAIState);

  00b2d	8b 45 10	 mov	 eax, DWORD PTR _pAIState$[ebp]
  00b30	50		 push	 eax
  00b31	8b 4d 0c	 mov	 ecx, DWORD PTR _iTargetIndex$[ebp]
  00b34	51		 push	 ecx
  00b35	8b 55 08	 mov	 edx, DWORD PTR _iIndex$[ebp]
  00b38	52		 push	 edx
  00b39	8b 4d fc	 mov	 ecx, DWORD PTR _this$[ebp]
  00b3c	e8 00 00 00 00	 call	 ?ApplyElementNightmareWarp@TMonsterAIElement@@QAEHHHPAVTMonsterAIState@@@Z ; TMonsterAIElement::ApplyElementNightmareWarp

; 261  : 			break;

  00b41	eb 40		 jmp	 SHORT $LN17@ForceAIEle
$LN3@ForceAIEle:

; 262  : 		case MAE_TYPE_SPECIAL_SKILLATTACK:
; 263  : 			this->ApplyElementSkillAttack(iIndex, iTargetIndex, pAIState);

  00b43	8b 45 10	 mov	 eax, DWORD PTR _pAIState$[ebp]
  00b46	50		 push	 eax
  00b47	8b 4d 0c	 mov	 ecx, DWORD PTR _iTargetIndex$[ebp]
  00b4a	51		 push	 ecx
  00b4b	8b 55 08	 mov	 edx, DWORD PTR _iIndex$[ebp]
  00b4e	52		 push	 edx
  00b4f	8b 4d fc	 mov	 ecx, DWORD PTR _this$[ebp]
  00b52	e8 00 00 00 00	 call	 ?ApplyElementSkillAttack@TMonsterAIElement@@QAEHHHPAVTMonsterAIState@@@Z ; TMonsterAIElement::ApplyElementSkillAttack

; 264  : 			break;

  00b57	eb 2a		 jmp	 SHORT $LN17@ForceAIEle
$LN2@ForceAIEle:

; 265  : 		case MAE_TYPE_SPECIAL_CHANGEAI:
; 266  : 			this->ApplyElementAIChange(iIndex, iTargetIndex, pAIState);

  00b59	8b 45 10	 mov	 eax, DWORD PTR _pAIState$[ebp]
  00b5c	50		 push	 eax
  00b5d	8b 4d 0c	 mov	 ecx, DWORD PTR _iTargetIndex$[ebp]
  00b60	51		 push	 ecx
  00b61	8b 55 08	 mov	 edx, DWORD PTR _iIndex$[ebp]
  00b64	52		 push	 edx
  00b65	8b 4d fc	 mov	 ecx, DWORD PTR _this$[ebp]
  00b68	e8 00 00 00 00	 call	 ?ApplyElementAIChange@TMonsterAIElement@@QAEHHHPAVTMonsterAIState@@@Z ; TMonsterAIElement::ApplyElementAIChange

; 267  : 			break;

  00b6d	eb 14		 jmp	 SHORT $LN17@ForceAIEle
$LN1@ForceAIEle:

; 268  : 		/*case MAE_TYPE_EVENT:
; 269  : 			this->ApplyElement(iIndex, iTargetIndex, pAIState);
; 270  : 			break;*/
; 271  : 		case MAE_TYPE_SPECIAL_IMMUNE:
; 272  : 			this->ApplyElementSpecialImmune(iIndex, iTargetIndex, pAIState);

  00b6f	8b 45 10	 mov	 eax, DWORD PTR _pAIState$[ebp]
  00b72	50		 push	 eax
  00b73	8b 4d 0c	 mov	 ecx, DWORD PTR _iTargetIndex$[ebp]
  00b76	51		 push	 ecx
  00b77	8b 55 08	 mov	 edx, DWORD PTR _iIndex$[ebp]
  00b7a	52		 push	 edx
  00b7b	8b 4d fc	 mov	 ecx, DWORD PTR _this$[ebp]
  00b7e	e8 00 00 00 00	 call	 ?ApplyElementSpecialImmune@TMonsterAIElement@@QAEHHHPAVTMonsterAIState@@@Z ; TMonsterAIElement::ApplyElementSpecialImmune
$LN17@ForceAIEle:

; 273  : 			break;
; 274  : 	}
; 275  : 	return TRUE;

  00b83	b8 01 00 00 00	 mov	 eax, 1
$LN20@ForceAIEle:

; 276  : }

  00b88	5f		 pop	 edi
  00b89	5e		 pop	 esi
  00b8a	5b		 pop	 ebx
  00b8b	8b e5		 mov	 esp, ebp
  00b8d	5d		 pop	 ebp
  00b8e	c2 0c 00	 ret	 12			; 0000000cH
  00b91	8d 49 00	 npad	 3
$LN23@ForceAIEle:
  00b94	00 00 00 00	 DD	 $LN16@ForceAIEle
  00b98	00 00 00 00	 DD	 $LN15@ForceAIEle
  00b9c	00 00 00 00	 DD	 $LN14@ForceAIEle
  00ba0	00 00 00 00	 DD	 $LN13@ForceAIEle
  00ba4	00 00 00 00	 DD	 $LN12@ForceAIEle
  00ba8	00 00 00 00	 DD	 $LN11@ForceAIEle
  00bac	00 00 00 00	 DD	 $LN10@ForceAIEle
  00bb0	00 00 00 00	 DD	 $LN9@ForceAIEle
  00bb4	00 00 00 00	 DD	 $LN8@ForceAIEle
  00bb8	00 00 00 00	 DD	 $LN7@ForceAIEle
  00bbc	00 00 00 00	 DD	 $LN6@ForceAIEle
  00bc0	00 00 00 00	 DD	 $LN1@ForceAIEle
  00bc4	00 00 00 00	 DD	 $LN5@ForceAIEle
  00bc8	00 00 00 00	 DD	 $LN4@ForceAIEle
  00bcc	00 00 00 00	 DD	 $LN3@ForceAIEle
  00bd0	00 00 00 00	 DD	 $LN2@ForceAIEle
  00bd4	00 00 00 00	 DD	 $LN17@ForceAIEle
$LN22@ForceAIEle:
  00bd8	00		 DB	 0
  00bd9	10		 DB	 16			; 00000010H
  00bda	10		 DB	 16			; 00000010H
  00bdb	10		 DB	 16			; 00000010H
  00bdc	10		 DB	 16			; 00000010H
  00bdd	10		 DB	 16			; 00000010H
  00bde	10		 DB	 16			; 00000010H
  00bdf	10		 DB	 16			; 00000010H
  00be0	10		 DB	 16			; 00000010H
  00be1	10		 DB	 16			; 00000010H
  00be2	01		 DB	 1
  00be3	02		 DB	 2
  00be4	03		 DB	 3
  00be5	10		 DB	 16			; 00000010H
  00be6	10		 DB	 16			; 00000010H
  00be7	10		 DB	 16			; 00000010H
  00be8	10		 DB	 16			; 00000010H
  00be9	10		 DB	 16			; 00000010H
  00bea	10		 DB	 16			; 00000010H
  00beb	10		 DB	 16			; 00000010H
  00bec	04		 DB	 4
  00bed	05		 DB	 5
  00bee	06		 DB	 6
  00bef	10		 DB	 16			; 00000010H
  00bf0	10		 DB	 16			; 00000010H
  00bf1	10		 DB	 16			; 00000010H
  00bf2	10		 DB	 16			; 00000010H
  00bf3	10		 DB	 16			; 00000010H
  00bf4	10		 DB	 16			; 00000010H
  00bf5	10		 DB	 16			; 00000010H
  00bf6	07		 DB	 7
  00bf7	08		 DB	 8
  00bf8	10		 DB	 16			; 00000010H
  00bf9	10		 DB	 16			; 00000010H
  00bfa	10		 DB	 16			; 00000010H
  00bfb	10		 DB	 16			; 00000010H
  00bfc	10		 DB	 16			; 00000010H
  00bfd	10		 DB	 16			; 00000010H
  00bfe	10		 DB	 16			; 00000010H
  00bff	10		 DB	 16			; 00000010H
  00c00	09		 DB	 9
  00c01	10		 DB	 16			; 00000010H
  00c02	10		 DB	 16			; 00000010H
  00c03	10		 DB	 16			; 00000010H
  00c04	10		 DB	 16			; 00000010H
  00c05	10		 DB	 16			; 00000010H
  00c06	10		 DB	 16			; 00000010H
  00c07	10		 DB	 16			; 00000010H
  00c08	10		 DB	 16			; 00000010H
  00c09	10		 DB	 16			; 00000010H
  00c0a	10		 DB	 16			; 00000010H
  00c0b	10		 DB	 16			; 00000010H
  00c0c	10		 DB	 16			; 00000010H
  00c0d	10		 DB	 16			; 00000010H
  00c0e	10		 DB	 16			; 00000010H
  00c0f	10		 DB	 16			; 00000010H
  00c10	10		 DB	 16			; 00000010H
  00c11	10		 DB	 16			; 00000010H
  00c12	10		 DB	 16			; 00000010H
  00c13	10		 DB	 16			; 00000010H
  00c14	10		 DB	 16			; 00000010H
  00c15	0a		 DB	 10			; 0000000aH
  00c16	10		 DB	 16			; 00000010H
  00c17	0b		 DB	 11			; 0000000bH
  00c18	0c		 DB	 12			; 0000000cH
  00c19	0d		 DB	 13			; 0000000dH
  00c1a	0e		 DB	 14			; 0000000eH
  00c1b	0f		 DB	 15			; 0000000fH
?ForceAIElement@TMonsterAIElement@@QAEHHHPAVTMonsterAIState@@@Z ENDP ; TMonsterAIElement::ForceAIElement
_TEXT	ENDS
PUBLIC	??_C@_0N@HHEEIAEO@?$LO?Q?$LN?N?5?A?$LP?D?m?$LD?$KK?$CB?$AA@ ; `string'
EXTRN	?SendKanturuChattingMsg@CKanturuUtil@@QAAXHPADZZ:PROC ; CKanturuUtil::SendKanturuChattingMsg
;	COMDAT ??_C@_0N@HHEEIAEO@?$LO?Q?$LN?N?5?A?$LP?D?m?$LD?$KK?$CB?$AA@
CONST	SEGMENT
??_C@_0N@HHEEIAEO@?$LO?Q?$LN?N?5?A?$LP?D?m?$LD?$KK?$CB?$AA@ DB 0beH, 0d1H
	DB	0bdH, 0ceH, ' ', 0c1H, 0bfH, 0c4H, 0edH, 0b3H, 0aaH, '!', 00H ; `string'
; Function compile flags: /Odtp /ZI
CONST	ENDS
_TEXT	SEGMENT
_lpObj$ = -8						; size = 4
_this$ = -4						; size = 4
_iIndex$ = 8						; size = 4
_iTargetIndex$ = 12					; size = 4
_pAIState$ = 16						; size = 4
?ApplyElementCommon@TMonsterAIElement@@QAEHHHPAVTMonsterAIState@@@Z PROC ; TMonsterAIElement::ApplyElementCommon
; _this$ = ecx

; 279  : {

  00c20	55		 push	 ebp
  00c21	8b ec		 mov	 ebp, esp
  00c23	83 ec 48	 sub	 esp, 72			; 00000048H
  00c26	53		 push	 ebx
  00c27	56		 push	 esi
  00c28	57		 push	 edi
  00c29	89 4d fc	 mov	 DWORD PTR _this$[ebp], ecx

; 280  : 	LPOBJ lpObj = &gObj[iIndex];

  00c2c	8b 45 08	 mov	 eax, DWORD PTR _iIndex$[ebp]
  00c2f	69 c0 38 2b 00
	00		 imul	 eax, 11064		; 00002b38H
  00c35	03 05 00 00 00
	00		 add	 eax, DWORD PTR ?gObj@@3PAUOBJECTSTRUCT@@A ; gObj
  00c3b	89 45 f8	 mov	 DWORD PTR _lpObj$[ebp], eax

; 281  : 
; 282  : //#if(GS_CASTLE==0)
; 283  : 	KANTURU_UTIL.SendKanturuChattingMsg(iIndex, " !");

  00c3e	68 00 00 00 00	 push	 OFFSET ??_C@_0N@HHEEIAEO@?$LO?Q?$LN?N?5?A?$LP?D?m?$LD?$KK?$CB?$AA@
  00c43	8b 45 08	 mov	 eax, DWORD PTR _iIndex$[ebp]
  00c46	50		 push	 eax
  00c47	68 00 00 00 00	 push	 OFFSET _KANTURU_UTIL
  00c4c	e8 00 00 00 00	 call	 ?SendKanturuChattingMsg@CKanturuUtil@@QAAXHPADZZ ; CKanturuUtil::SendKanturuChattingMsg
  00c51	83 c4 0c	 add	 esp, 12			; 0000000cH

; 284  : //#endif
; 285  : 
; 286  : 	return FALSE;

  00c54	33 c0		 xor	 eax, eax

; 287  : }

  00c56	5f		 pop	 edi
  00c57	5e		 pop	 esi
  00c58	5b		 pop	 ebx
  00c59	8b e5		 mov	 esp, ebp
  00c5b	5d		 pop	 ebp
  00c5c	c2 0c 00	 ret	 12			; 0000000cH
?ApplyElementCommon@TMonsterAIElement@@QAEHHHPAVTMonsterAIState@@@Z ENDP ; TMonsterAIElement::ApplyElementCommon
_TEXT	ENDS
PUBLIC	??_C@_0N@HNCNKMKN@Element?9?$MA?L?$LF?$LP?$AA@	; `string'
EXTRN	?FindPathToMoveMonster@TMonsterAIUtil@@QAEHPAUOBJECTSTRUCT@@HHHH@Z:PROC ; TMonsterAIUtil::FindPathToMoveMonster
EXTRN	?GetXYToPatrol@TMonsterAIUtil@@QAEHPAUOBJECTSTRUCT@@@Z:PROC ; TMonsterAIUtil::GetXYToPatrol
EXTRN	?GetXYToChase@TMonsterAIUtil@@QAEHPAUOBJECTSTRUCT@@@Z:PROC ; TMonsterAIUtil::GetXYToChase
EXTRN	?SendCrywolfChattingMsg@CCrywolfUtil@@QAAXHPADZZ:PROC ; CCrywolfUtil::SendCrywolfChattingMsg
;	COMDAT ??_C@_0N@HNCNKMKN@Element?9?$MA?L?$LF?$LP?$AA@
CONST	SEGMENT
??_C@_0N@HNCNKMKN@Element?9?$MA?L?$LF?$LP?$AA@ DB 'Element-', 0c0H, 0ccH, 0b5H
	DB	0bfH, 00H					; `string'
; Function compile flags: /Odtp /ZI
CONST	ENDS
_TEXT	SEGMENT
_bFindXY$ = -12						; size = 4
_lpObj$ = -8						; size = 4
_this$ = -4						; size = 4
_iIndex$ = 8						; size = 4
_iTargetIndex$ = 12					; size = 4
_pAIState$ = 16						; size = 4
?ApplyElementMove@TMonsterAIElement@@QAEHHHPAVTMonsterAIState@@@Z PROC ; TMonsterAIElement::ApplyElementMove
; _this$ = ecx

; 290  : {

  00c60	55		 push	 ebp
  00c61	8b ec		 mov	 ebp, esp
  00c63	83 ec 4c	 sub	 esp, 76			; 0000004cH
  00c66	53		 push	 ebx
  00c67	56		 push	 esi
  00c68	57		 push	 edi
  00c69	89 4d fc	 mov	 DWORD PTR _this$[ebp], ecx

; 291  : 	LPOBJ lpObj = &gObj[iIndex];

  00c6c	8b 45 08	 mov	 eax, DWORD PTR _iIndex$[ebp]
  00c6f	69 c0 38 2b 00
	00		 imul	 eax, 11064		; 00002b38H
  00c75	03 05 00 00 00
	00		 add	 eax, DWORD PTR ?gObj@@3PAUOBJECTSTRUCT@@A ; gObj
  00c7b	89 45 f8	 mov	 DWORD PTR _lpObj$[ebp], eax

; 292  : 	UTIL.SendCrywolfChattingMsg(iIndex, "Element-");

  00c7e	68 00 00 00 00	 push	 OFFSET ??_C@_0N@HNCNKMKN@Element?9?$MA?L?$LF?$LP?$AA@
  00c83	8b 45 08	 mov	 eax, DWORD PTR _iIndex$[ebp]
  00c86	50		 push	 eax
  00c87	68 00 00 00 00	 push	 OFFSET _UTIL
  00c8c	e8 00 00 00 00	 call	 ?SendCrywolfChattingMsg@CCrywolfUtil@@QAAXHPADZZ ; CCrywolfUtil::SendCrywolfChattingMsg
  00c91	83 c4 0c	 add	 esp, 12			; 0000000cH

; 293  : 
; 294  : //#if(GS_CASTLE==0)
; 295  : 	KANTURU_UTIL.SendKanturuChattingMsg(iIndex, "Element-");

  00c94	68 00 00 00 00	 push	 OFFSET ??_C@_0N@HNCNKMKN@Element?9?$MA?L?$LF?$LP?$AA@
  00c99	8b 45 08	 mov	 eax, DWORD PTR _iIndex$[ebp]
  00c9c	50		 push	 eax
  00c9d	68 00 00 00 00	 push	 OFFSET _KANTURU_UTIL
  00ca2	e8 00 00 00 00	 call	 ?SendKanturuChattingMsg@CKanturuUtil@@QAAXHPADZZ ; CKanturuUtil::SendKanturuChattingMsg
  00ca7	83 c4 0c	 add	 esp, 12			; 0000000cH

; 296  : //#endif
; 297  : 
; 298  : 	if ( lpObj->PathStartEnd )

  00caa	8b 45 f8	 mov	 eax, DWORD PTR _lpObj$[ebp]
  00cad	0f be 88 8c 01
	00 00		 movsx	 ecx, BYTE PTR [eax+396]
  00cb4	85 c9		 test	 ecx, ecx
  00cb6	74 04		 je	 SHORT $LN4@ApplyEleme

; 299  : 		return FALSE;

  00cb8	33 c0		 xor	 eax, eax
  00cba	eb 64		 jmp	 SHORT $LN5@ApplyEleme
$LN4@ApplyEleme:

; 300  : 
; 301  : 	BOOL bFindXY = FALSE;

  00cbc	c7 45 f4 00 00
	00 00		 mov	 DWORD PTR _bFindXY$[ebp], 0

; 302  : 
; 303  : 	if ( pAIState->m_iTransitionType == 2 )

  00cc3	8b 45 10	 mov	 eax, DWORD PTR _pAIState$[ebp]
  00cc6	83 78 0c 02	 cmp	 DWORD PTR [eax+12], 2
  00cca	75 13		 jne	 SHORT $LN3@ApplyEleme

; 304  : 		bFindXY = MONSTER_UTIL.GetXYToChase(lpObj);

  00ccc	8b 45 f8	 mov	 eax, DWORD PTR _lpObj$[ebp]
  00ccf	50		 push	 eax
  00cd0	b9 00 00 00 00	 mov	 ecx, OFFSET _MONSTER_UTIL
  00cd5	e8 00 00 00 00	 call	 ?GetXYToChase@TMonsterAIUtil@@QAEHPAUOBJECTSTRUCT@@@Z ; TMonsterAIUtil::GetXYToChase
  00cda	89 45 f4	 mov	 DWORD PTR _bFindXY$[ebp], eax

; 305  : 	else

  00cdd	eb 11		 jmp	 SHORT $LN2@ApplyEleme
$LN3@ApplyEleme:

; 306  : 		bFindXY = MONSTER_UTIL.GetXYToPatrol(lpObj);

  00cdf	8b 45 f8	 mov	 eax, DWORD PTR _lpObj$[ebp]
  00ce2	50		 push	 eax
  00ce3	b9 00 00 00 00	 mov	 ecx, OFFSET _MONSTER_UTIL
  00ce8	e8 00 00 00 00	 call	 ?GetXYToPatrol@TMonsterAIUtil@@QAEHPAUOBJECTSTRUCT@@@Z ; TMonsterAIUtil::GetXYToPatrol
  00ced	89 45 f4	 mov	 DWORD PTR _bFindXY$[ebp], eax
$LN2@ApplyEleme:

; 307  : 
; 308  : 	if ( bFindXY )

  00cf0	83 7d f4 00	 cmp	 DWORD PTR _bFindXY$[ebp], 0
  00cf4	74 28		 je	 SHORT $LN1@ApplyEleme

; 309  : 		MONSTER_UTIL.FindPathToMoveMonster(lpObj, lpObj->MTX, lpObj->MTY, 5, 1);

  00cf6	6a 01		 push	 1
  00cf8	6a 05		 push	 5
  00cfa	8b 45 f8	 mov	 eax, DWORD PTR _lpObj$[ebp]
  00cfd	0f bf 88 82 01
	00 00		 movsx	 ecx, WORD PTR [eax+386]
  00d04	51		 push	 ecx
  00d05	8b 55 f8	 mov	 edx, DWORD PTR _lpObj$[ebp]
  00d08	0f bf 82 80 01
	00 00		 movsx	 eax, WORD PTR [edx+384]
  00d0f	50		 push	 eax
  00d10	8b 4d f8	 mov	 ecx, DWORD PTR _lpObj$[ebp]
  00d13	51		 push	 ecx
  00d14	b9 00 00 00 00	 mov	 ecx, OFFSET _MONSTER_UTIL
  00d19	e8 00 00 00 00	 call	 ?FindPathToMoveMonster@TMonsterAIUtil@@QAEHPAUOBJECTSTRUCT@@HHHH@Z ; TMonsterAIUtil::FindPathToMoveMonster
$LN1@ApplyEleme:

; 310  : 
; 311  : 	return FALSE;

  00d1e	33 c0		 xor	 eax, eax
$LN5@ApplyEleme:

; 312  : }

  00d20	5f		 pop	 edi
  00d21	5e		 pop	 esi
  00d22	5b		 pop	 ebx
  00d23	8b e5		 mov	 esp, ebp
  00d25	5d		 pop	 ebp
  00d26	c2 0c 00	 ret	 12			; 0000000cH
?ApplyElementMove@TMonsterAIElement@@QAEHHHPAVTMonsterAIState@@@Z ENDP ; TMonsterAIElement::ApplyElementMove
_TEXT	ENDS
PUBLIC	?sqrt@@YAMM@Z					; sqrt
PUBLIC	??_C@_0BB@PKKDBMJO@Element?9?E?$LI?$LA?Y?$MA?L?$LF?$LP?$AA@ ; `string'
EXTRN	_sqrt:PROC
;	COMDAT ??_C@_0BB@PKKDBMJO@Element?9?E?$LI?$LA?Y?$MA?L?$LF?$LP?$AA@
CONST	SEGMENT
??_C@_0BB@PKKDBMJO@Element?9?E?$LI?$LA?Y?$MA?L?$LF?$LP?$AA@ DB 'Element-', 0c5H
	DB	0b8H, 0b0H, 0d9H, 0c0H, 0ccH, 0b5H, 0bfH, 00H ; `string'
; Function compile flags: /Odtp /ZI
CONST	ENDS
_TEXT	SEGMENT
tv238 = -136						; size = 4
tv274 = -132						; size = 4
tv271 = -132						; size = 4
tv268 = -132						; size = 4
tv257 = -132						; size = 4
tv254 = -132						; size = 4
tv251 = -132						; size = 4
tv235 = -132						; size = 4
_iMidDist$228811 = -64					; size = 4
_iPathSpotDist$228806 = -60				; size = 4
_fDistY$228804 = -56					; size = 4
_fDistX$228802 = -52					; size = 4
_PathInfo$228801 = -48					; size = 4
_i$228797 = -44						; size = 4
_iSpotNum$228796 = -40					; size = 4
_iMidY$228795 = -36					; size = 4
_iMidX$228794 = -32					; size = 4
_iMinCost$228793 = -28					; size = 4
_iTargetDistance$ = -24					; size = 4
_iTargetY$ = -20					; size = 4
_iTargetX$ = -16					; size = 4
_bFindXY$ = -12						; size = 4
_lpObj$ = -8						; size = 4
_this$ = -4						; size = 4
_iIndex$ = 8						; size = 4
_iTargetIndex$ = 12					; size = 4
_pAIState$ = 16						; size = 4
?ApplyElementMoveTarget@TMonsterAIElement@@QAEHHHPAVTMonsterAIState@@@Z PROC ; TMonsterAIElement::ApplyElementMoveTarget
; _this$ = ecx

; 315  : {

  00d30	55		 push	 ebp
  00d31	8b ec		 mov	 ebp, esp
  00d33	81 ec 88 00 00
	00		 sub	 esp, 136		; 00000088H
  00d39	53		 push	 ebx
  00d3a	56		 push	 esi
  00d3b	57		 push	 edi
  00d3c	89 4d fc	 mov	 DWORD PTR _this$[ebp], ecx

; 316  : 	LPOBJ lpObj = &gObj[iIndex];

  00d3f	8b 45 08	 mov	 eax, DWORD PTR _iIndex$[ebp]
  00d42	69 c0 38 2b 00
	00		 imul	 eax, 11064		; 00002b38H
  00d48	03 05 00 00 00
	00		 add	 eax, DWORD PTR ?gObj@@3PAUOBJECTSTRUCT@@A ; gObj
  00d4e	89 45 f8	 mov	 DWORD PTR _lpObj$[ebp], eax

; 317  : 	UTIL.SendCrywolfChattingMsg(iIndex, "Element-");

  00d51	68 00 00 00 00	 push	 OFFSET ??_C@_0BB@PKKDBMJO@Element?9?E?$LI?$LA?Y?$MA?L?$LF?$LP?$AA@
  00d56	8b 45 08	 mov	 eax, DWORD PTR _iIndex$[ebp]
  00d59	50		 push	 eax
  00d5a	68 00 00 00 00	 push	 OFFSET _UTIL
  00d5f	e8 00 00 00 00	 call	 ?SendCrywolfChattingMsg@CCrywolfUtil@@QAAXHPADZZ ; CCrywolfUtil::SendCrywolfChattingMsg
  00d64	83 c4 0c	 add	 esp, 12			; 0000000cH

; 318  : 
; 319  : //#if(GS_CASTLE==0)
; 320  : 	KANTURU_UTIL.SendKanturuChattingMsg(iIndex, "Element-");

  00d67	68 00 00 00 00	 push	 OFFSET ??_C@_0BB@PKKDBMJO@Element?9?E?$LI?$LA?Y?$MA?L?$LF?$LP?$AA@
  00d6c	8b 45 08	 mov	 eax, DWORD PTR _iIndex$[ebp]
  00d6f	50		 push	 eax
  00d70	68 00 00 00 00	 push	 OFFSET _KANTURU_UTIL
  00d75	e8 00 00 00 00	 call	 ?SendKanturuChattingMsg@CKanturuUtil@@QAAXHPADZZ ; CKanturuUtil::SendKanturuChattingMsg
  00d7a	83 c4 0c	 add	 esp, 12			; 0000000cH

; 321  : //#endif
; 322  : 
; 323  : 	if ( lpObj->PathStartEnd )

  00d7d	8b 45 f8	 mov	 eax, DWORD PTR _lpObj$[ebp]
  00d80	0f be 88 8c 01
	00 00		 movsx	 ecx, BYTE PTR [eax+396]
  00d87	85 c9		 test	 ecx, ecx
  00d89	74 07		 je	 SHORT $LN14@ApplyEleme@2

; 324  : 		return FALSE;

  00d8b	33 c0		 xor	 eax, eax
  00d8d	e9 88 02 00 00	 jmp	 $LN15@ApplyEleme@2
$LN14@ApplyEleme@2:

; 325  : 
; 326  : 	if ( lpObj->X == this->m_iX &&
; 327  : 		 lpObj->Y == this->m_iY )

  00d92	8b 45 f8	 mov	 eax, DWORD PTR _lpObj$[ebp]
  00d95	0f bf 88 44 01
	00 00		 movsx	 ecx, WORD PTR [eax+324]
  00d9c	8b 55 fc	 mov	 edx, DWORD PTR _this$[ebp]
  00d9f	3b 4a 50	 cmp	 ecx, DWORD PTR [edx+80]
  00da2	75 2d		 jne	 SHORT $LN13@ApplyEleme@2
  00da4	8b 45 f8	 mov	 eax, DWORD PTR _lpObj$[ebp]
  00da7	0f bf 88 46 01
	00 00		 movsx	 ecx, WORD PTR [eax+326]
  00dae	8b 55 fc	 mov	 edx, DWORD PTR _this$[ebp]
  00db1	3b 4a 54	 cmp	 ecx, DWORD PTR [edx+84]
  00db4	75 1b		 jne	 SHORT $LN13@ApplyEleme@2

; 328  : 	{
; 329  : 		this->ApplyElementMove(iIndex, iTargetIndex, pAIState);

  00db6	8b 45 10	 mov	 eax, DWORD PTR _pAIState$[ebp]
  00db9	50		 push	 eax
  00dba	8b 4d 0c	 mov	 ecx, DWORD PTR _iTargetIndex$[ebp]
  00dbd	51		 push	 ecx
  00dbe	8b 55 08	 mov	 edx, DWORD PTR _iIndex$[ebp]
  00dc1	52		 push	 edx
  00dc2	8b 4d fc	 mov	 ecx, DWORD PTR _this$[ebp]
  00dc5	e8 00 00 00 00	 call	 ?ApplyElementMove@TMonsterAIElement@@QAEHHHPAVTMonsterAIState@@@Z ; TMonsterAIElement::ApplyElementMove

; 330  : 		return FALSE;

  00dca	33 c0		 xor	 eax, eax
  00dcc	e9 49 02 00 00	 jmp	 $LN15@ApplyEleme@2
$LN13@ApplyEleme@2:

; 331  : 	}
; 332  : 
; 333  : 	BOOL bFindXY = TRUE;

  00dd1	c7 45 f4 01 00
	00 00		 mov	 DWORD PTR _bFindXY$[ebp], 1

; 334  : 	int iTargetX = this->m_iX;

  00dd8	8b 45 fc	 mov	 eax, DWORD PTR _this$[ebp]
  00ddb	8b 48 50	 mov	 ecx, DWORD PTR [eax+80]
  00dde	89 4d f0	 mov	 DWORD PTR _iTargetX$[ebp], ecx

; 335  : 	int iTargetY = this->m_iY;

  00de1	8b 45 fc	 mov	 eax, DWORD PTR _this$[ebp]
  00de4	8b 48 54	 mov	 ecx, DWORD PTR [eax+84]
  00de7	89 4d ec	 mov	 DWORD PTR _iTargetY$[ebp], ecx

; 336  : 	int iTargetDistance = (int)(sqrt((double) ((lpObj->X - iTargetX)*(lpObj->X - iTargetX))+ ((lpObj->Y - iTargetY)*(lpObj->Y - iTargetY))));

  00dea	8b 45 f8	 mov	 eax, DWORD PTR _lpObj$[ebp]
  00ded	0f bf 88 44 01
	00 00		 movsx	 ecx, WORD PTR [eax+324]
  00df4	2b 4d f0	 sub	 ecx, DWORD PTR _iTargetX$[ebp]
  00df7	8b 55 f8	 mov	 edx, DWORD PTR _lpObj$[ebp]
  00dfa	0f bf 82 44 01
	00 00		 movsx	 eax, WORD PTR [edx+324]
  00e01	2b 45 f0	 sub	 eax, DWORD PTR _iTargetX$[ebp]
  00e04	0f af c8	 imul	 ecx, eax
  00e07	89 8d 7c ff ff
	ff		 mov	 DWORD PTR tv235[ebp], ecx
  00e0d	db 85 7c ff ff
	ff		 fild	 DWORD PTR tv235[ebp]
  00e13	8b 4d f8	 mov	 ecx, DWORD PTR _lpObj$[ebp]
  00e16	0f bf 91 46 01
	00 00		 movsx	 edx, WORD PTR [ecx+326]
  00e1d	2b 55 ec	 sub	 edx, DWORD PTR _iTargetY$[ebp]
  00e20	8b 45 f8	 mov	 eax, DWORD PTR _lpObj$[ebp]
  00e23	0f bf 88 46 01
	00 00		 movsx	 ecx, WORD PTR [eax+326]
  00e2a	2b 4d ec	 sub	 ecx, DWORD PTR _iTargetY$[ebp]
  00e2d	0f af d1	 imul	 edx, ecx
  00e30	89 95 78 ff ff
	ff		 mov	 DWORD PTR tv238[ebp], edx
  00e36	db 85 78 ff ff
	ff		 fild	 DWORD PTR tv238[ebp]
  00e3c	de c1		 faddp	 ST(1), ST(0)
  00e3e	83 ec 08	 sub	 esp, 8
  00e41	dd 1c 24	 fstp	 QWORD PTR [esp]
  00e44	e8 00 00 00 00	 call	 _sqrt
  00e49	83 c4 08	 add	 esp, 8
  00e4c	e8 00 00 00 00	 call	 __ftol2_sse
  00e51	89 45 e8	 mov	 DWORD PTR _iTargetDistance$[ebp], eax

; 337  : 	
; 338  : 	if ( TMonsterAIElement::s_MonsterAIMovePath[lpObj->MapNumber].m_bDataLoad )

  00e54	8b 45 f8	 mov	 eax, DWORD PTR _lpObj$[ebp]
  00e57	0f b6 88 49 01
	00 00		 movzx	 ecx, BYTE PTR [eax+329]
  00e5e	69 c9 cc 12 00
	00		 imul	 ecx, 4812		; 000012ccH
  00e64	83 b9 04 00 00
	00 00		 cmp	 DWORD PTR ?s_MonsterAIMovePath@TMonsterAIElement@@2PAVTMonsterAIMovePath@@A[ecx+4], 0
  00e6b	0f 84 6d 01 00
	00		 je	 $LN4@ApplyEleme@2

; 339  : 	{
; 340  : 		if ( iTargetDistance > 10 )

  00e71	83 7d e8 0a	 cmp	 DWORD PTR _iTargetDistance$[ebp], 10 ; 0000000aH
  00e75	0f 8e 63 01 00
	00		 jle	 $LN4@ApplyEleme@2

; 341  : 		{
; 342  : 			int iMinCost = 1000000;

  00e7b	c7 45 e4 40 42
	0f 00		 mov	 DWORD PTR _iMinCost$228793[ebp], 1000000 ; 000f4240H

; 343  : 			int iMidX = -1;

  00e82	c7 45 e0 ff ff
	ff ff		 mov	 DWORD PTR _iMidX$228794[ebp], -1

; 344  : 			int iMidY = -1;

  00e89	c7 45 dc ff ff
	ff ff		 mov	 DWORD PTR _iMidY$228795[ebp], -1

; 345  : 			int iSpotNum = -1;

  00e90	c7 45 d8 ff ff
	ff ff		 mov	 DWORD PTR _iSpotNum$228796[ebp], -1

; 346  : 
; 347  : 			for ( int i=0;i<MAX_MONSTER_AI_MOVE_PATH;i++)

  00e97	c7 45 d4 00 00
	00 00		 mov	 DWORD PTR _i$228797[ebp], 0
  00e9e	eb 09		 jmp	 SHORT $LN10@ApplyEleme@2
$LN9@ApplyEleme@2:
  00ea0	8b 45 d4	 mov	 eax, DWORD PTR _i$228797[ebp]
  00ea3	83 c0 01	 add	 eax, 1
  00ea6	89 45 d4	 mov	 DWORD PTR _i$228797[ebp], eax
$LN10@ApplyEleme@2:
  00ea9	81 7d d4 2c 01
	00 00		 cmp	 DWORD PTR _i$228797[ebp], 300 ; 0000012cH
  00eb0	0f 8d 13 01 00
	00		 jge	 $LN8@ApplyEleme@2

; 348  : 			{
; 349  : 				TMonsterAIMovePathInfo & PathInfo = TMonsterAIElement::s_MonsterAIMovePath[MAP_INDEX_CRYWOLF_FIRSTZONE].m_MovePathInfo[i];

  00eb6	8b 45 d4	 mov	 eax, DWORD PTR _i$228797[ebp]
  00eb9	c1 e0 04	 shl	 eax, 4
  00ebc	05 20 7f 02 00	 add	 eax, OFFSET ?s_MonsterAIMovePath@TMonsterAIElement@@2PAVTMonsterAIMovePath@@A+163616
  00ec1	89 45 d0	 mov	 DWORD PTR _PathInfo$228801[ebp], eax

; 350  : 				float fDistX = (float)(lpObj->X - PathInfo.m_iPathX);

  00ec4	8b 45 f8	 mov	 eax, DWORD PTR _lpObj$[ebp]
  00ec7	0f bf 88 44 01
	00 00		 movsx	 ecx, WORD PTR [eax+324]
  00ece	8b 55 d0	 mov	 edx, DWORD PTR _PathInfo$228801[ebp]
  00ed1	2b 4a 08	 sub	 ecx, DWORD PTR [edx+8]
  00ed4	89 8d 7c ff ff
	ff		 mov	 DWORD PTR tv251[ebp], ecx
  00eda	db 85 7c ff ff
	ff		 fild	 DWORD PTR tv251[ebp]
  00ee0	d9 5d cc	 fstp	 DWORD PTR _fDistX$228802[ebp]

; 351  : 				float fDistY = (float)(lpObj->Y - PathInfo.m_iPathY);

  00ee3	8b 45 f8	 mov	 eax, DWORD PTR _lpObj$[ebp]
  00ee6	0f bf 88 46 01
	00 00		 movsx	 ecx, WORD PTR [eax+326]
  00eed	8b 55 d0	 mov	 edx, DWORD PTR _PathInfo$228801[ebp]
  00ef0	2b 4a 0c	 sub	 ecx, DWORD PTR [edx+12]
  00ef3	89 8d 7c ff ff
	ff		 mov	 DWORD PTR tv254[ebp], ecx
  00ef9	db 85 7c ff ff
	ff		 fild	 DWORD PTR tv254[ebp]
  00eff	d9 5d c8	 fstp	 DWORD PTR _fDistY$228804[ebp]

; 352  : 				int iPathSpotDist =  (int)(sqrt( (fDistX*fDistX) + (fDistY*fDistY) ));

  00f02	d9 45 cc	 fld	 DWORD PTR _fDistX$228802[ebp]
  00f05	d8 4d cc	 fmul	 DWORD PTR _fDistX$228802[ebp]
  00f08	d9 45 c8	 fld	 DWORD PTR _fDistY$228804[ebp]
  00f0b	d8 4d c8	 fmul	 DWORD PTR _fDistY$228804[ebp]
  00f0e	de c1		 faddp	 ST(1), ST(0)
  00f10	d9 9d 7c ff ff
	ff		 fstp	 DWORD PTR tv257[ebp]
  00f16	d9 85 7c ff ff
	ff		 fld	 DWORD PTR tv257[ebp]
  00f1c	51		 push	 ecx
  00f1d	d9 1c 24	 fstp	 DWORD PTR [esp]
  00f20	e8 00 00 00 00	 call	 ?sqrt@@YAMM@Z		; sqrt
  00f25	83 c4 04	 add	 esp, 4
  00f28	e8 00 00 00 00	 call	 __ftol2_sse
  00f2d	89 45 c4	 mov	 DWORD PTR _iPathSpotDist$228806[ebp], eax

; 353  : 
; 354  : 				if ( iPathSpotDist < 20 )

  00f30	83 7d c4 14	 cmp	 DWORD PTR _iPathSpotDist$228806[ebp], 20 ; 00000014H
  00f34	0f 8d 8a 00 00
	00		 jge	 $LN5@ApplyEleme@2

; 355  : 				{
; 356  : 					fDistX = (float)(iTargetX - PathInfo.m_iPathX);

  00f3a	8b 45 d0	 mov	 eax, DWORD PTR _PathInfo$228801[ebp]
  00f3d	8b 4d f0	 mov	 ecx, DWORD PTR _iTargetX$[ebp]
  00f40	2b 48 08	 sub	 ecx, DWORD PTR [eax+8]
  00f43	89 8d 7c ff ff
	ff		 mov	 DWORD PTR tv268[ebp], ecx
  00f49	db 85 7c ff ff
	ff		 fild	 DWORD PTR tv268[ebp]
  00f4f	d9 5d cc	 fstp	 DWORD PTR _fDistX$228802[ebp]

; 357  : 					fDistY = (float)(iTargetY - PathInfo.m_iPathY);

  00f52	8b 45 d0	 mov	 eax, DWORD PTR _PathInfo$228801[ebp]
  00f55	8b 4d ec	 mov	 ecx, DWORD PTR _iTargetY$[ebp]
  00f58	2b 48 0c	 sub	 ecx, DWORD PTR [eax+12]
  00f5b	89 8d 7c ff ff
	ff		 mov	 DWORD PTR tv271[ebp], ecx
  00f61	db 85 7c ff ff
	ff		 fild	 DWORD PTR tv271[ebp]
  00f67	d9 5d c8	 fstp	 DWORD PTR _fDistY$228804[ebp]

; 358  : 					int iMidDist = (int)(sqrt( (fDistX*fDistX) + (fDistY*fDistY) ));

  00f6a	d9 45 cc	 fld	 DWORD PTR _fDistX$228802[ebp]
  00f6d	d8 4d cc	 fmul	 DWORD PTR _fDistX$228802[ebp]
  00f70	d9 45 c8	 fld	 DWORD PTR _fDistY$228804[ebp]
  00f73	d8 4d c8	 fmul	 DWORD PTR _fDistY$228804[ebp]
  00f76	de c1		 faddp	 ST(1), ST(0)
  00f78	d9 9d 7c ff ff
	ff		 fstp	 DWORD PTR tv274[ebp]
  00f7e	d9 85 7c ff ff
	ff		 fld	 DWORD PTR tv274[ebp]
  00f84	51		 push	 ecx
  00f85	d9 1c 24	 fstp	 DWORD PTR [esp]
  00f88	e8 00 00 00 00	 call	 ?sqrt@@YAMM@Z		; sqrt
  00f8d	83 c4 04	 add	 esp, 4
  00f90	e8 00 00 00 00	 call	 __ftol2_sse
  00f95	89 45 c0	 mov	 DWORD PTR _iMidDist$228811[ebp], eax

; 359  : 
; 360  : 					if ( iMinCost > iMidDist )

  00f98	8b 45 e4	 mov	 eax, DWORD PTR _iMinCost$228793[ebp]
  00f9b	3b 45 c0	 cmp	 eax, DWORD PTR _iMidDist$228811[ebp]
  00f9e	7e 24		 jle	 SHORT $LN5@ApplyEleme@2

; 361  : 					{
; 362  : 						if ( iMidDist )

  00fa0	83 7d c0 00	 cmp	 DWORD PTR _iMidDist$228811[ebp], 0
  00fa4	74 1e		 je	 SHORT $LN5@ApplyEleme@2

; 363  : 						{
; 364  : 							iMinCost = iMidDist;

  00fa6	8b 45 c0	 mov	 eax, DWORD PTR _iMidDist$228811[ebp]
  00fa9	89 45 e4	 mov	 DWORD PTR _iMinCost$228793[ebp], eax

; 365  : 							iMidX = PathInfo.m_iPathX;

  00fac	8b 45 d0	 mov	 eax, DWORD PTR _PathInfo$228801[ebp]
  00faf	8b 48 08	 mov	 ecx, DWORD PTR [eax+8]
  00fb2	89 4d e0	 mov	 DWORD PTR _iMidX$228794[ebp], ecx

; 366  : 							iMidY = PathInfo.m_iPathY;

  00fb5	8b 45 d0	 mov	 eax, DWORD PTR _PathInfo$228801[ebp]
  00fb8	8b 48 0c	 mov	 ecx, DWORD PTR [eax+12]
  00fbb	89 4d dc	 mov	 DWORD PTR _iMidY$228795[ebp], ecx

; 367  : 							iSpotNum = i;

  00fbe	8b 45 d4	 mov	 eax, DWORD PTR _i$228797[ebp]
  00fc1	89 45 d8	 mov	 DWORD PTR _iSpotNum$228796[ebp], eax
$LN5@ApplyEleme@2:

; 368  : 						}
; 369  : 					}
; 370  : 				}
; 371  : 			}

  00fc4	e9 d7 fe ff ff	 jmp	 $LN9@ApplyEleme@2
$LN8@ApplyEleme@2:

; 372  : 
; 373  : 			if ( iMinCost != 1000000 )

  00fc9	81 7d e4 40 42
	0f 00		 cmp	 DWORD PTR _iMinCost$228793[ebp], 1000000 ; 000f4240H
  00fd0	74 0c		 je	 SHORT $LN4@ApplyEleme@2

; 374  : 			{
; 375  : 				iTargetX = iMidX;

  00fd2	8b 45 e0	 mov	 eax, DWORD PTR _iMidX$228794[ebp]
  00fd5	89 45 f0	 mov	 DWORD PTR _iTargetX$[ebp], eax

; 376  : 				iTargetY = iMidY;

  00fd8	8b 45 dc	 mov	 eax, DWORD PTR _iMidY$228795[ebp]
  00fdb	89 45 ec	 mov	 DWORD PTR _iTargetY$[ebp], eax
$LN4@ApplyEleme@2:

; 377  : 			}
; 378  : 		}
; 379  : 	}
; 380  : 
; 381  : 	if ( bFindXY )

  00fde	83 7d f4 00	 cmp	 DWORD PTR _bFindXY$[ebp], 0
  00fe2	74 34		 je	 SHORT $LN1@ApplyEleme@2

; 382  : 	{
; 383  : 		if ( MONSTER_UTIL.FindPathToMoveMonster(lpObj, iTargetX, iTargetY, 7, FALSE) )

  00fe4	6a 00		 push	 0
  00fe6	6a 07		 push	 7
  00fe8	8b 45 ec	 mov	 eax, DWORD PTR _iTargetY$[ebp]
  00feb	50		 push	 eax
  00fec	8b 4d f0	 mov	 ecx, DWORD PTR _iTargetX$[ebp]
  00fef	51		 push	 ecx
  00ff0	8b 55 f8	 mov	 edx, DWORD PTR _lpObj$[ebp]
  00ff3	52		 push	 edx
  00ff4	b9 00 00 00 00	 mov	 ecx, OFFSET _MONSTER_UTIL
  00ff9	e8 00 00 00 00	 call	 ?FindPathToMoveMonster@TMonsterAIUtil@@QAEHPAUOBJECTSTRUCT@@HHHH@Z ; TMonsterAIUtil::FindPathToMoveMonster
  00ffe	85 c0		 test	 eax, eax
  01000	74 0c		 je	 SHORT $LN2@ApplyEleme@2

; 384  : 			lpObj->PathStartEnd = 1;

  01002	8b 45 f8	 mov	 eax, DWORD PTR _lpObj$[ebp]
  01005	c6 80 8c 01 00
	00 01		 mov	 BYTE PTR [eax+396], 1

; 385  : 		else

  0100c	eb 0a		 jmp	 SHORT $LN1@ApplyEleme@2
$LN2@ApplyEleme@2:

; 386  : 			lpObj->PathStartEnd = 0;

  0100e	8b 45 f8	 mov	 eax, DWORD PTR _lpObj$[ebp]
  01011	c6 80 8c 01 00
	00 00		 mov	 BYTE PTR [eax+396], 0
$LN1@ApplyEleme@2:

; 387  : 	}
; 388  : 
; 389  : 	return FALSE;

  01018	33 c0		 xor	 eax, eax
$LN15@ApplyEleme@2:

; 390  : }

  0101a	5f		 pop	 edi
  0101b	5e		 pop	 esi
  0101c	5b		 pop	 ebx
  0101d	8b e5		 mov	 esp, ebp
  0101f	5d		 pop	 ebp
  01020	c2 0c 00	 ret	 12			; 0000000cH
?ApplyElementMoveTarget@TMonsterAIElement@@QAEHHHPAVTMonsterAIState@@@Z ENDP ; TMonsterAIElement::ApplyElementMoveTarget
_TEXT	ENDS
PUBLIC	??_C@_0BB@MPDHJEMA@Element?9?$LB?W?$LH?l?$MA?L?$LF?$LP?$AA@ ; `string'
EXTRN	?gObjCalDistance@@YAHPAUOBJECTSTRUCT@@0@Z:PROC	; gObjCalDistance
EXTRN	?FindGroupLeader@TMonsterAIGroup@@SAHH@Z:PROC	; TMonsterAIGroup::FindGroupLeader
;	COMDAT ??_C@_0BB@MPDHJEMA@Element?9?$LB?W?$LH?l?$MA?L?$LF?$LP?$AA@
CONST	SEGMENT
??_C@_0BB@MPDHJEMA@Element?9?$LB?W?$LH?l?$MA?L?$LF?$LP?$AA@ DB 'Element-', 0b1H
	DB	0d7H, 0b7H, 0ecH, 0c0H, 0ccH, 0b5H, 0bfH, 00H ; `string'
; Function compile flags: /Odtp /ZI
CONST	ENDS
_TEXT	SEGMENT
_iLeaderIndex$ = -20					; size = 4
_bFoundLeader$ = -16					; size = 4
_bFindXY$ = -12						; size = 4
_lpObj$ = -8						; size = 4
_this$ = -4						; size = 4
_iIndex$ = 8						; size = 4
_iTargetIndex$ = 12					; size = 4
_pAIState$ = 16						; size = 4
?ApplyElementGroupMove@TMonsterAIElement@@QAEHHHPAVTMonsterAIState@@@Z PROC ; TMonsterAIElement::ApplyElementGroupMove
; _this$ = ecx

; 393  : {

  01030	55		 push	 ebp
  01031	8b ec		 mov	 ebp, esp
  01033	83 ec 54	 sub	 esp, 84			; 00000054H
  01036	53		 push	 ebx
  01037	56		 push	 esi
  01038	57		 push	 edi
  01039	89 4d fc	 mov	 DWORD PTR _this$[ebp], ecx

; 394  : 	LPOBJ lpObj = &gObj[iIndex];

  0103c	8b 45 08	 mov	 eax, DWORD PTR _iIndex$[ebp]
  0103f	69 c0 38 2b 00
	00		 imul	 eax, 11064		; 00002b38H
  01045	03 05 00 00 00
	00		 add	 eax, DWORD PTR ?gObj@@3PAUOBJECTSTRUCT@@A ; gObj
  0104b	89 45 f8	 mov	 DWORD PTR _lpObj$[ebp], eax

; 395  : 	UTIL.SendCrywolfChattingMsg(iIndex, "Element-");

  0104e	68 00 00 00 00	 push	 OFFSET ??_C@_0BB@MPDHJEMA@Element?9?$LB?W?$LH?l?$MA?L?$LF?$LP?$AA@
  01053	8b 45 08	 mov	 eax, DWORD PTR _iIndex$[ebp]
  01056	50		 push	 eax
  01057	68 00 00 00 00	 push	 OFFSET _UTIL
  0105c	e8 00 00 00 00	 call	 ?SendCrywolfChattingMsg@CCrywolfUtil@@QAAXHPADZZ ; CCrywolfUtil::SendCrywolfChattingMsg
  01061	83 c4 0c	 add	 esp, 12			; 0000000cH

; 396  : 
; 397  : 	if ( lpObj->PathStartEnd )

  01064	8b 45 f8	 mov	 eax, DWORD PTR _lpObj$[ebp]
  01067	0f be 88 8c 01
	00 00		 movsx	 ecx, BYTE PTR [eax+396]
  0106e	85 c9		 test	 ecx, ecx
  01070	74 07		 je	 SHORT $LN10@ApplyEleme@3

; 398  : 		return FALSE;

  01072	33 c0		 xor	 eax, eax
  01074	e9 30 01 00 00	 jmp	 $LN11@ApplyEleme@3
$LN10@ApplyEleme@3:

; 399  : 
; 400  : 	BOOL bFindXY = FALSE;

  01079	c7 45 f4 00 00
	00 00		 mov	 DWORD PTR _bFindXY$[ebp], 0

; 401  : 	BOOL bFoundLeader = TRUE;

  01080	c7 45 f0 01 00
	00 00		 mov	 DWORD PTR _bFoundLeader$[ebp], 1

; 402  : 	int iLeaderIndex = -1;

  01087	c7 45 ec ff ff
	ff ff		 mov	 DWORD PTR _iLeaderIndex$[ebp], -1

; 403  : 	iLeaderIndex = TMonsterAIGroup::FindGroupLeader(lpObj->m_iGroupNumber);

  0108e	8b 45 f8	 mov	 eax, DWORD PTR _lpObj$[ebp]
  01091	8b 88 84 1c 00
	00		 mov	 ecx, DWORD PTR [eax+7300]
  01097	51		 push	 ecx
  01098	e8 00 00 00 00	 call	 ?FindGroupLeader@TMonsterAIGroup@@SAHH@Z ; TMonsterAIGroup::FindGroupLeader
  0109d	83 c4 04	 add	 esp, 4
  010a0	89 45 ec	 mov	 DWORD PTR _iLeaderIndex$[ebp], eax

; 404  : 
; 405  : 	if ( iLeaderIndex == -1 || gObj[iLeaderIndex].Live == FALSE )

  010a3	83 7d ec ff	 cmp	 DWORD PTR _iLeaderIndex$[ebp], -1
  010a7	74 18		 je	 SHORT $LN8@ApplyEleme@3
  010a9	8b 45 ec	 mov	 eax, DWORD PTR _iLeaderIndex$[ebp]
  010ac	69 c0 38 2b 00
	00		 imul	 eax, 11064		; 00002b38H
  010b2	8b 0d 00 00 00
	00		 mov	 ecx, DWORD PTR ?gObj@@3PAUOBJECTSTRUCT@@A ; gObj
  010b8	0f b6 54 01 6a	 movzx	 edx, BYTE PTR [ecx+eax+106]
  010bd	85 d2		 test	 edx, edx
  010bf	75 07		 jne	 SHORT $LN9@ApplyEleme@3
$LN8@ApplyEleme@3:

; 406  : 		bFoundLeader = FALSE;

  010c1	c7 45 f0 00 00
	00 00		 mov	 DWORD PTR _bFoundLeader$[ebp], 0
$LN9@ApplyEleme@3:

; 407  : 
; 408  : 	if ( bFoundLeader && gObjCalDistance(lpObj, &gObj[iLeaderIndex]) > 6 )

  010c8	83 7d f0 00	 cmp	 DWORD PTR _bFoundLeader$[ebp], 0
  010cc	74 42		 je	 SHORT $LN7@ApplyEleme@3
  010ce	8b 45 ec	 mov	 eax, DWORD PTR _iLeaderIndex$[ebp]
  010d1	69 c0 38 2b 00
	00		 imul	 eax, 11064		; 00002b38H
  010d7	03 05 00 00 00
	00		 add	 eax, DWORD PTR ?gObj@@3PAUOBJECTSTRUCT@@A ; gObj
  010dd	50		 push	 eax
  010de	8b 4d f8	 mov	 ecx, DWORD PTR _lpObj$[ebp]
  010e1	51		 push	 ecx
  010e2	e8 00 00 00 00	 call	 ?gObjCalDistance@@YAHPAUOBJECTSTRUCT@@0@Z ; gObjCalDistance
  010e7	83 c4 08	 add	 esp, 8
  010ea	83 f8 06	 cmp	 eax, 6
  010ed	7e 21		 jle	 SHORT $LN7@ApplyEleme@3

; 409  : 	{
; 410  : 		lpObj->TargetNumber = iLeaderIndex;

  010ef	8b 45 f8	 mov	 eax, DWORD PTR _lpObj$[ebp]
  010f2	66 8b 4d ec	 mov	 cx, WORD PTR _iLeaderIndex$[ebp]
  010f6	66 89 88 58 04
	00 00		 mov	 WORD PTR [eax+1112], cx

; 411  : 		bFindXY = MONSTER_UTIL.GetXYToChase(lpObj);

  010fd	8b 45 f8	 mov	 eax, DWORD PTR _lpObj$[ebp]
  01100	50		 push	 eax
  01101	b9 00 00 00 00	 mov	 ecx, OFFSET _MONSTER_UTIL
  01106	e8 00 00 00 00	 call	 ?GetXYToChase@TMonsterAIUtil@@QAEHPAUOBJECTSTRUCT@@@Z ; TMonsterAIUtil::GetXYToChase
  0110b	89 45 f4	 mov	 DWORD PTR _bFindXY$[ebp], eax
  0110e	eb 2d		 jmp	 SHORT $LN6@ApplyEleme@3
$LN7@ApplyEleme@3:

; 412  : 	}
; 413  : 	else if ( pAIState->m_iTransitionType == 2 )

  01110	8b 45 10	 mov	 eax, DWORD PTR _pAIState$[ebp]
  01113	83 78 0c 02	 cmp	 DWORD PTR [eax+12], 2
  01117	75 13		 jne	 SHORT $LN5@ApplyEleme@3

; 414  : 	{
; 415  : 		bFindXY = MONSTER_UTIL.GetXYToChase(lpObj);

  01119	8b 45 f8	 mov	 eax, DWORD PTR _lpObj$[ebp]
  0111c	50		 push	 eax
  0111d	b9 00 00 00 00	 mov	 ecx, OFFSET _MONSTER_UTIL
  01122	e8 00 00 00 00	 call	 ?GetXYToChase@TMonsterAIUtil@@QAEHPAUOBJECTSTRUCT@@@Z ; TMonsterAIUtil::GetXYToChase
  01127	89 45 f4	 mov	 DWORD PTR _bFindXY$[ebp], eax

; 416  : 	}
; 417  : 	else

  0112a	eb 11		 jmp	 SHORT $LN6@ApplyEleme@3
$LN5@ApplyEleme@3:

; 418  : 	{
; 419  : 		bFindXY = MONSTER_UTIL.GetXYToPatrol(lpObj);

  0112c	8b 45 f8	 mov	 eax, DWORD PTR _lpObj$[ebp]
  0112f	50		 push	 eax
  01130	b9 00 00 00 00	 mov	 ecx, OFFSET _MONSTER_UTIL
  01135	e8 00 00 00 00	 call	 ?GetXYToPatrol@TMonsterAIUtil@@QAEHPAUOBJECTSTRUCT@@@Z ; TMonsterAIUtil::GetXYToPatrol
  0113a	89 45 f4	 mov	 DWORD PTR _bFindXY$[ebp], eax
$LN6@ApplyEleme@3:

; 420  : 	}
; 421  : 
; 422  : 	if ( bFindXY )

  0113d	83 7d f4 00	 cmp	 DWORD PTR _bFindXY$[ebp], 0
  01141	74 64		 je	 SHORT $LN3@ApplyEleme@3

; 423  : 	{
; 424  : 		if ( MONSTER_UTIL.FindPathToMoveMonster(lpObj, lpObj->MTX, lpObj->MTY, 5, TRUE) )

  01143	6a 01		 push	 1
  01145	6a 05		 push	 5
  01147	8b 45 f8	 mov	 eax, DWORD PTR _lpObj$[ebp]
  0114a	0f bf 88 82 01
	00 00		 movsx	 ecx, WORD PTR [eax+386]
  01151	51		 push	 ecx
  01152	8b 55 f8	 mov	 edx, DWORD PTR _lpObj$[ebp]
  01155	0f bf 82 80 01
	00 00		 movsx	 eax, WORD PTR [edx+384]
  0115c	50		 push	 eax
  0115d	8b 4d f8	 mov	 ecx, DWORD PTR _lpObj$[ebp]
  01160	51		 push	 ecx
  01161	b9 00 00 00 00	 mov	 ecx, OFFSET _MONSTER_UTIL
  01166	e8 00 00 00 00	 call	 ?FindPathToMoveMonster@TMonsterAIUtil@@QAEHPAUOBJECTSTRUCT@@HHHH@Z ; TMonsterAIUtil::FindPathToMoveMonster
  0116b	85 c0		 test	 eax, eax
  0116d	74 02		 je	 SHORT $LN2@ApplyEleme@3

; 425  : 		{
; 426  : 
; 427  : 		}
; 428  : 		else

  0116f	eb 36		 jmp	 SHORT $LN3@ApplyEleme@3
$LN2@ApplyEleme@3:

; 429  : 		{
; 430  : 			MONSTER_UTIL.GetXYToPatrol(lpObj);

  01171	8b 45 f8	 mov	 eax, DWORD PTR _lpObj$[ebp]
  01174	50		 push	 eax
  01175	b9 00 00 00 00	 mov	 ecx, OFFSET _MONSTER_UTIL
  0117a	e8 00 00 00 00	 call	 ?GetXYToPatrol@TMonsterAIUtil@@QAEHPAUOBJECTSTRUCT@@@Z ; TMonsterAIUtil::GetXYToPatrol

; 431  : 			MONSTER_UTIL.FindPathToMoveMonster(lpObj, lpObj->MTX, lpObj->MTY, 5, TRUE);

  0117f	6a 01		 push	 1
  01181	6a 05		 push	 5
  01183	8b 45 f8	 mov	 eax, DWORD PTR _lpObj$[ebp]
  01186	0f bf 88 82 01
	00 00		 movsx	 ecx, WORD PTR [eax+386]
  0118d	51		 push	 ecx
  0118e	8b 55 f8	 mov	 edx, DWORD PTR _lpObj$[ebp]
  01191	0f bf 82 80 01
	00 00		 movsx	 eax, WORD PTR [edx+384]
  01198	50		 push	 eax
  01199	8b 4d f8	 mov	 ecx, DWORD PTR _lpObj$[ebp]
  0119c	51		 push	 ecx
  0119d	b9 00 00 00 00	 mov	 ecx, OFFSET _MONSTER_UTIL
  011a2	e8 00 00 00 00	 call	 ?FindPathToMoveMonster@TMonsterAIUtil@@QAEHPAUOBJECTSTRUCT@@HHHH@Z ; TMonsterAIUtil::FindPathToMoveMonster
$LN3@ApplyEleme@3:

; 432  : 		}
; 433  : 	}
; 434  : 
; 435  : 	return FALSE;

  011a7	33 c0		 xor	 eax, eax
$LN11@ApplyEleme@3:

; 436  : }

  011a9	5f		 pop	 edi
  011aa	5e		 pop	 esi
  011ab	5b		 pop	 ebx
  011ac	8b e5		 mov	 esp, ebp
  011ae	5d		 pop	 ebp
  011af	c2 0c 00	 ret	 12			; 0000000cH
?ApplyElementGroupMove@TMonsterAIElement@@QAEHHHPAVTMonsterAIState@@@Z ENDP ; TMonsterAIElement::ApplyElementGroupMove
_TEXT	ENDS
PUBLIC	??_C@_0N@KKLGOIFK@Element?9?$LA?x?$LA?$NN?$AA@	; `string'
EXTRN	?CGAttack@@YAXPAUPMSG_ATTACK@@H@Z:PROC		; CGAttack
EXTRN	?UseMonsterSkill@TMonsterSkillManager@@SAXHHHHPAVCMagicInf@@@Z:PROC ; TMonsterSkillManager::UseMonsterSkill
EXTRN	?gObjAttack@@YAHPAUOBJECTSTRUCT@@0PAVCMagicInf@@HEHHEE@Z:PROC ; gObjAttack
EXTRN	?GCActionSend@@YAXPAUOBJECTSTRUCT@@EHH@Z:PROC	; GCActionSend
EXTRN	?GetPathPacketDirPos@@YAEHH@Z:PROC		; GetPathPacketDirPos
EXTRN	?CheckMonsterSkill@TMonsterSkillManager@@SAHH@Z:PROC ; TMonsterSkillManager::CheckMonsterSkill
;	COMDAT ??_C@_0N@KKLGOIFK@Element?9?$LA?x?$LA?$NN?$AA@
CONST	SEGMENT
??_C@_0N@KKLGOIFK@Element?9?$LA?x?$LA?$NN?$AA@ DB 'Element-', 0b0H, 0f8H, 0b0H
	DB	0ddH, 00H					; `string'
; Function compile flags: /Odtp /ZI
CONST	ENDS
_TEXT	SEGMENT
_pAttackMsg$228868 = -36				; size = 7
_lpTargetObj$228867 = -28				; size = 4
_pAttackMsg$228858 = -24				; size = 7
_lpTargetObj$228856 = -16				; size = 4
_bEnableAttack$228849 = -12				; size = 4
_lpObj$ = -8						; size = 4
_this$ = -4						; size = 4
_iIndex$ = 8						; size = 4
_iTargetIndex$ = 12					; size = 4
_pAIState$ = 16						; size = 4
?ApplyElementAttack@TMonsterAIElement@@QAEHHHPAVTMonsterAIState@@@Z PROC ; TMonsterAIElement::ApplyElementAttack
; _this$ = ecx

; 439  : {

  011c0	55		 push	 ebp
  011c1	8b ec		 mov	 ebp, esp
  011c3	83 ec 64	 sub	 esp, 100		; 00000064H
  011c6	53		 push	 ebx
  011c7	56		 push	 esi
  011c8	57		 push	 edi
  011c9	89 4d fc	 mov	 DWORD PTR _this$[ebp], ecx

; 440  : 	LPOBJ lpObj = &gObj[iIndex];

  011cc	8b 45 08	 mov	 eax, DWORD PTR _iIndex$[ebp]
  011cf	69 c0 38 2b 00
	00		 imul	 eax, 11064		; 00002b38H
  011d5	03 05 00 00 00
	00		 add	 eax, DWORD PTR ?gObj@@3PAUOBJECTSTRUCT@@A ; gObj
  011db	89 45 f8	 mov	 DWORD PTR _lpObj$[ebp], eax

; 441  : 	UTIL.SendCrywolfChattingMsg(iIndex, "Element-");

  011de	68 00 00 00 00	 push	 OFFSET ??_C@_0N@KKLGOIFK@Element?9?$LA?x?$LA?$NN?$AA@
  011e3	8b 45 08	 mov	 eax, DWORD PTR _iIndex$[ebp]
  011e6	50		 push	 eax
  011e7	68 00 00 00 00	 push	 OFFSET _UTIL
  011ec	e8 00 00 00 00	 call	 ?SendCrywolfChattingMsg@CCrywolfUtil@@QAAXHPADZZ ; CCrywolfUtil::SendCrywolfChattingMsg
  011f1	83 c4 0c	 add	 esp, 12			; 0000000cH

; 442  : 
; 443  : 	if ( TMonsterSkillManager::CheckMonsterSkill(lpObj->Class) )

  011f4	8b 45 f8	 mov	 eax, DWORD PTR _lpObj$[ebp]
  011f7	0f b7 88 b8 00
	00 00		 movzx	 ecx, WORD PTR [eax+184]
  011fe	51		 push	 ecx
  011ff	e8 00 00 00 00	 call	 ?CheckMonsterSkill@TMonsterSkillManager@@SAHH@Z ; TMonsterSkillManager::CheckMonsterSkill
  01204	83 c4 04	 add	 esp, 4
  01207	85 c0		 test	 eax, eax
  01209	0f 84 96 02 00
	00		 je	 $LN11@ApplyEleme@4

; 444  : 	{
; 445  : 		BOOL bEnableAttack = TRUE;

  0120f	c7 45 f4 01 00
	00 00		 mov	 DWORD PTR _bEnableAttack$228849[ebp], 1

; 446  : 
; 447  : 		if ( lpObj->TargetNumber < 0 )//Season 4.5 fix

  01216	8b 45 f8	 mov	 eax, DWORD PTR _lpObj$[ebp]
  01219	0f bf 88 58 04
	00 00		 movsx	 ecx, WORD PTR [eax+1112]
  01220	85 c9		 test	 ecx, ecx
  01222	7d 63		 jge	 SHORT $LN10@ApplyEleme@4

; 448  : 		{
; 449  : 			lpObj->TargetNumber = -1;

  01224	83 c8 ff	 or	 eax, -1
  01227	8b 4d f8	 mov	 ecx, DWORD PTR _lpObj$[ebp]
  0122a	66 89 81 58 04
	00 00		 mov	 WORD PTR [ecx+1112], ax

; 450  : 			lpObj->m_ActState.Emotion = 0;

  01231	8b 45 f8	 mov	 eax, DWORD PTR _lpObj$[ebp]
  01234	8b 88 18 02 00
	00		 mov	 ecx, DWORD PTR [eax+536]
  0123a	81 e1 0f ff ff
	ff		 and	 ecx, -241		; ffffff0fH
  01240	8b 55 f8	 mov	 edx, DWORD PTR _lpObj$[ebp]
  01243	89 8a 18 02 00
	00		 mov	 DWORD PTR [edx+536], ecx

; 451  : 			lpObj->m_ActState.Attack = 0;

  01249	8b 45 f8	 mov	 eax, DWORD PTR _lpObj$[ebp]
  0124c	8b 88 18 02 00
	00		 mov	 ecx, DWORD PTR [eax+536]
  01252	83 e1 fd	 and	 ecx, -3			; fffffffdH
  01255	8b 55 f8	 mov	 edx, DWORD PTR _lpObj$[ebp]
  01258	89 8a 18 02 00
	00		 mov	 DWORD PTR [edx+536], ecx

; 452  : 			lpObj->m_ActState.Move = 0;

  0125e	8b 45 f8	 mov	 eax, DWORD PTR _lpObj$[ebp]
  01261	8b 88 18 02 00
	00		 mov	 ecx, DWORD PTR [eax+536]
  01267	83 e1 fb	 and	 ecx, -5			; fffffffbH
  0126a	8b 55 f8	 mov	 edx, DWORD PTR _lpObj$[ebp]
  0126d	89 8a 18 02 00
	00		 mov	 DWORD PTR [edx+536], ecx

; 453  : 			lpObj->NextActionTime = 1000;

  01273	8b 45 f8	 mov	 eax, DWORD PTR _lpObj$[ebp]
  01276	c7 80 bc 03 00
	00 e8 03 00 00	 mov	 DWORD PTR [eax+956], 1000 ; 000003e8H

; 454  : 
; 455  : 			return FALSE;

  01280	33 c0		 xor	 eax, eax
  01282	e9 1d 03 00 00	 jmp	 $LN12@ApplyEleme@4
$LN10@ApplyEleme@4:

; 456  : 		}
; 457  : 		
; 458  : 
; 459  : 		if ( !gObj[lpObj->TargetNumber].Live || gObj[lpObj->TargetNumber].Teleport )

  01287	8b 45 f8	 mov	 eax, DWORD PTR _lpObj$[ebp]
  0128a	0f bf 88 58 04
	00 00		 movsx	 ecx, WORD PTR [eax+1112]
  01291	69 c9 38 2b 00
	00		 imul	 ecx, 11064		; 00002b38H
  01297	8b 15 00 00 00
	00		 mov	 edx, DWORD PTR ?gObj@@3PAUOBJECTSTRUCT@@A ; gObj
  0129d	0f b6 44 0a 6a	 movzx	 eax, BYTE PTR [edx+ecx+106]
  012a2	85 c0		 test	 eax, eax
  012a4	74 22		 je	 SHORT $LN8@ApplyEleme@4
  012a6	8b 45 f8	 mov	 eax, DWORD PTR _lpObj$[ebp]
  012a9	0f bf 88 58 04
	00 00		 movsx	 ecx, WORD PTR [eax+1112]
  012b0	69 c9 38 2b 00
	00		 imul	 ecx, 11064		; 00002b38H
  012b6	8b 15 00 00 00
	00		 mov	 edx, DWORD PTR ?gObj@@3PAUOBJECTSTRUCT@@A ; gObj
  012bc	0f be 84 0a a0
	03 00 00	 movsx	 eax, BYTE PTR [edx+ecx+928]
  012c4	85 c0		 test	 eax, eax
  012c6	74 07		 je	 SHORT $LN9@ApplyEleme@4
$LN8@ApplyEleme@4:

; 460  : 			bEnableAttack = FALSE;

  012c8	c7 45 f4 00 00
	00 00		 mov	 DWORD PTR _bEnableAttack$228849[ebp], 0
$LN9@ApplyEleme@4:

; 461  : 
; 462  : 		if ( gObj[lpObj->TargetNumber].Connected <= PLAYER_LOGGED ||
; 463  : 			 gObj[lpObj->TargetNumber].CloseCount != -1 )

  012cf	8b 45 f8	 mov	 eax, DWORD PTR _lpObj$[ebp]
  012d2	0f bf 88 58 04
	00 00		 movsx	 ecx, WORD PTR [eax+1112]
  012d9	69 c9 38 2b 00
	00		 imul	 ecx, 11064		; 00002b38H
  012df	8b 15 00 00 00
	00		 mov	 edx, DWORD PTR ?gObj@@3PAUOBJECTSTRUCT@@A ; gObj
  012e5	83 7c 0a 04 02	 cmp	 DWORD PTR [edx+ecx+4], 2
  012ea	7e 20		 jle	 SHORT $LN6@ApplyEleme@4
  012ec	8b 45 f8	 mov	 eax, DWORD PTR _lpObj$[ebp]
  012ef	0f bf 88 58 04
	00 00		 movsx	 ecx, WORD PTR [eax+1112]
  012f6	69 c9 38 2b 00
	00		 imul	 ecx, 11064		; 00002b38H
  012fc	8b 15 00 00 00
	00		 mov	 edx, DWORD PTR ?gObj@@3PAUOBJECTSTRUCT@@A ; gObj
  01302	0f be 44 0a 0a	 movsx	 eax, BYTE PTR [edx+ecx+10]
  01307	83 f8 ff	 cmp	 eax, -1
  0130a	74 07		 je	 SHORT $LN7@ApplyEleme@4
$LN6@ApplyEleme@4:

; 464  : 		{
; 465  : 			bEnableAttack = FALSE;

  0130c	c7 45 f4 00 00
	00 00		 mov	 DWORD PTR _bEnableAttack$228849[ebp], 0
$LN7@ApplyEleme@4:

; 466  : 		}
; 467  : 
; 468  : 		if ( !bEnableAttack )

  01313	83 7d f4 00	 cmp	 DWORD PTR _bEnableAttack$228849[ebp], 0
  01317	75 63		 jne	 SHORT $LN5@ApplyEleme@4

; 469  : 		{
; 470  : 			lpObj->TargetNumber = -1;

  01319	83 c8 ff	 or	 eax, -1
  0131c	8b 4d f8	 mov	 ecx, DWORD PTR _lpObj$[ebp]
  0131f	66 89 81 58 04
	00 00		 mov	 WORD PTR [ecx+1112], ax

; 471  : 			lpObj->m_ActState.Emotion = 0;

  01326	8b 45 f8	 mov	 eax, DWORD PTR _lpObj$[ebp]
  01329	8b 88 18 02 00
	00		 mov	 ecx, DWORD PTR [eax+536]
  0132f	81 e1 0f ff ff
	ff		 and	 ecx, -241		; ffffff0fH
  01335	8b 55 f8	 mov	 edx, DWORD PTR _lpObj$[ebp]
  01338	89 8a 18 02 00
	00		 mov	 DWORD PTR [edx+536], ecx

; 472  : 			lpObj->m_ActState.Attack = 0;

  0133e	8b 45 f8	 mov	 eax, DWORD PTR _lpObj$[ebp]
  01341	8b 88 18 02 00
	00		 mov	 ecx, DWORD PTR [eax+536]
  01347	83 e1 fd	 and	 ecx, -3			; fffffffdH
  0134a	8b 55 f8	 mov	 edx, DWORD PTR _lpObj$[ebp]
  0134d	89 8a 18 02 00
	00		 mov	 DWORD PTR [edx+536], ecx

; 473  : 			lpObj->m_ActState.Move = 0;

  01353	8b 45 f8	 mov	 eax, DWORD PTR _lpObj$[ebp]
  01356	8b 88 18 02 00
	00		 mov	 ecx, DWORD PTR [eax+536]
  0135c	83 e1 fb	 and	 ecx, -5			; fffffffbH
  0135f	8b 55 f8	 mov	 edx, DWORD PTR _lpObj$[ebp]
  01362	89 8a 18 02 00
	00		 mov	 DWORD PTR [edx+536], ecx

; 474  : 			lpObj->NextActionTime = 1000;

  01368	8b 45 f8	 mov	 eax, DWORD PTR _lpObj$[ebp]
  0136b	c7 80 bc 03 00
	00 e8 03 00 00	 mov	 DWORD PTR [eax+956], 1000 ; 000003e8H

; 475  : 
; 476  : 			return FALSE;

  01375	33 c0		 xor	 eax, eax
  01377	e9 28 02 00 00	 jmp	 $LN12@ApplyEleme@4
$LN5@ApplyEleme@4:

; 477  : 		}
; 478  : 
; 479  : 		LPOBJ lpTargetObj = &gObj[lpObj->TargetNumber];

  0137c	8b 45 f8	 mov	 eax, DWORD PTR _lpObj$[ebp]
  0137f	0f bf 88 58 04
	00 00		 movsx	 ecx, WORD PTR [eax+1112]
  01386	69 c9 38 2b 00
	00		 imul	 ecx, 11064		; 00002b38H
  0138c	03 0d 00 00 00
	00		 add	 ecx, DWORD PTR ?gObj@@3PAUOBJECTSTRUCT@@A ; gObj
  01392	89 4d f0	 mov	 DWORD PTR _lpTargetObj$228856[ebp], ecx

; 480  : 		lpObj->Dir = GetPathPacketDirPos(lpTargetObj->X - lpObj->X, lpTargetObj->Y - lpObj->Y);

  01395	8b 45 f0	 mov	 eax, DWORD PTR _lpTargetObj$228856[ebp]
  01398	0f bf 88 46 01
	00 00		 movsx	 ecx, WORD PTR [eax+326]
  0139f	8b 55 f8	 mov	 edx, DWORD PTR _lpObj$[ebp]
  013a2	0f bf 82 46 01
	00 00		 movsx	 eax, WORD PTR [edx+326]
  013a9	2b c8		 sub	 ecx, eax
  013ab	51		 push	 ecx
  013ac	8b 4d f0	 mov	 ecx, DWORD PTR _lpTargetObj$228856[ebp]
  013af	0f bf 91 44 01
	00 00		 movsx	 edx, WORD PTR [ecx+324]
  013b6	8b 45 f8	 mov	 eax, DWORD PTR _lpObj$[ebp]
  013b9	0f bf 88 44 01
	00 00		 movsx	 ecx, WORD PTR [eax+324]
  013c0	2b d1		 sub	 edx, ecx
  013c2	52		 push	 edx
  013c3	e8 00 00 00 00	 call	 ?GetPathPacketDirPos@@YAEHH@Z ; GetPathPacketDirPos
  013c8	83 c4 08	 add	 esp, 8
  013cb	8b 55 f8	 mov	 edx, DWORD PTR _lpObj$[ebp]
  013ce	88 82 48 01 00
	00		 mov	 BYTE PTR [edx+328], al

; 481  : 
; 482  : 		if ( (rand()%4) == 0 )

  013d4	e8 00 00 00 00	 call	 _rand
  013d9	25 03 00 00 80	 and	 eax, -2147483645	; 80000003H
  013de	79 05		 jns	 SHORT $LN14@ApplyEleme@4
  013e0	48		 dec	 eax
  013e1	83 c8 fc	 or	 eax, -4			; fffffffcH
  013e4	40		 inc	 eax
$LN14@ApplyEleme@4:
  013e5	85 c0		 test	 eax, eax
  013e7	75 7c		 jne	 SHORT $LN4@ApplyEleme@4

; 483  : 		{
; 484  : 			PMSG_ATTACK pAttackMsg;
; 485  : 
; 486  : 			pAttackMsg.AttackAction = 0x78;

  013e9	c6 45 ed 78	 mov	 BYTE PTR _pAttackMsg$228858[ebp+5], 120 ; 00000078H

; 487  : 			pAttackMsg.DirDis = lpObj->Dir;

  013ed	8b 45 f8	 mov	 eax, DWORD PTR _lpObj$[ebp]
  013f0	8a 88 48 01 00
	00		 mov	 cl, BYTE PTR [eax+328]
  013f6	88 4d ee	 mov	 BYTE PTR _pAttackMsg$228858[ebp+6], cl

; 488  : 			pAttackMsg.NumberH = SET_NUMBERH(lpObj->TargetNumber);

  013f9	8b 45 f8	 mov	 eax, DWORD PTR _lpObj$[ebp]
  013fc	0f bf 88 58 04
	00 00		 movsx	 ecx, WORD PTR [eax+1112]
  01403	c1 e9 08	 shr	 ecx, 8
  01406	88 4d eb	 mov	 BYTE PTR _pAttackMsg$228858[ebp+3], cl

; 489  : 			pAttackMsg.NumberL = SET_NUMBERL(lpObj->TargetNumber);

  01409	8b 45 f8	 mov	 eax, DWORD PTR _lpObj$[ebp]
  0140c	0f bf 88 58 04
	00 00		 movsx	 ecx, WORD PTR [eax+1112]
  01413	81 e1 ff 00 00
	00		 and	 ecx, 255		; 000000ffH
  01419	88 4d ec	 mov	 BYTE PTR _pAttackMsg$228858[ebp+4], cl

; 490  : 
; 491  : 			GCActionSend(lpObj, 0x78, lpObj->m_Index, 0);

  0141c	6a 00		 push	 0
  0141e	8b 45 f8	 mov	 eax, DWORD PTR _lpObj$[ebp]
  01421	8b 08		 mov	 ecx, DWORD PTR [eax]
  01423	51		 push	 ecx
  01424	6a 78		 push	 120			; 00000078H
  01426	8b 55 f8	 mov	 edx, DWORD PTR _lpObj$[ebp]
  01429	52		 push	 edx
  0142a	e8 00 00 00 00	 call	 ?GCActionSend@@YAXPAUOBJECTSTRUCT@@EHH@Z ; GCActionSend
  0142f	83 c4 10	 add	 esp, 16			; 00000010H

; 492  : 			gObjAttack(lpObj, &gObj[lpObj->TargetNumber], 0, 0, 0, 0, 0,0,0);

  01432	6a 00		 push	 0
  01434	6a 00		 push	 0
  01436	6a 00		 push	 0
  01438	6a 00		 push	 0
  0143a	6a 00		 push	 0
  0143c	6a 00		 push	 0
  0143e	6a 00		 push	 0
  01440	8b 45 f8	 mov	 eax, DWORD PTR _lpObj$[ebp]
  01443	0f bf 88 58 04
	00 00		 movsx	 ecx, WORD PTR [eax+1112]
  0144a	69 c9 38 2b 00
	00		 imul	 ecx, 11064		; 00002b38H
  01450	03 0d 00 00 00
	00		 add	 ecx, DWORD PTR ?gObj@@3PAUOBJECTSTRUCT@@A ; gObj
  01456	51		 push	 ecx
  01457	8b 55 f8	 mov	 edx, DWORD PTR _lpObj$[ebp]
  0145a	52		 push	 edx
  0145b	e8 00 00 00 00	 call	 ?gObjAttack@@YAHPAUOBJECTSTRUCT@@0PAVCMagicInf@@HEHHEE@Z ; gObjAttack
  01460	83 c4 24	 add	 esp, 36			; 00000024H

; 493  : 		}
; 494  : 		else

  01463	eb 1f		 jmp	 SHORT $LN3@ApplyEleme@4
$LN4@ApplyEleme@4:

; 495  : 		{
; 496  : 			TMonsterSkillManager::UseMonsterSkill(lpObj->m_Index, lpObj->TargetNumber, 0, -1, NULL);

  01465	6a 00		 push	 0
  01467	6a ff		 push	 -1
  01469	6a 00		 push	 0
  0146b	8b 45 f8	 mov	 eax, DWORD PTR _lpObj$[ebp]
  0146e	0f bf 88 58 04
	00 00		 movsx	 ecx, WORD PTR [eax+1112]
  01475	51		 push	 ecx
  01476	8b 55 f8	 mov	 edx, DWORD PTR _lpObj$[ebp]
  01479	8b 02		 mov	 eax, DWORD PTR [edx]
  0147b	50		 push	 eax
  0147c	e8 00 00 00 00	 call	 ?UseMonsterSkill@TMonsterSkillManager@@SAXHHHHPAVCMagicInf@@@Z ; TMonsterSkillManager::UseMonsterSkill
  01481	83 c4 14	 add	 esp, 20			; 00000014H
$LN3@ApplyEleme@4:

; 497  : 		}
; 498  : 
; 499  : 		lpObj->m_ActState.Attack = 0;

  01484	8b 45 f8	 mov	 eax, DWORD PTR _lpObj$[ebp]
  01487	8b 88 18 02 00
	00		 mov	 ecx, DWORD PTR [eax+536]
  0148d	83 e1 fd	 and	 ecx, -3			; fffffffdH
  01490	8b 55 f8	 mov	 edx, DWORD PTR _lpObj$[ebp]
  01493	89 8a 18 02 00
	00		 mov	 DWORD PTR [edx+536], ecx

; 500  : 		return FALSE;

  01499	33 c0		 xor	 eax, eax
  0149b	e9 04 01 00 00	 jmp	 $LN12@ApplyEleme@4

; 501  : 	}
; 502  : 	else

  014a0	e9 ff 00 00 00	 jmp	 $LN12@ApplyEleme@4
$LN11@ApplyEleme@4:

; 503  : 	{
; 504  : 		if(lpObj->TargetNumber < 0)//Season 4.5 addon

  014a5	8b 45 f8	 mov	 eax, DWORD PTR _lpObj$[ebp]
  014a8	0f bf 88 58 04
	00 00		 movsx	 ecx, WORD PTR [eax+1112]
  014af	85 c9		 test	 ecx, ecx
  014b1	7d 07		 jge	 SHORT $LN1@ApplyEleme@4

; 505  : 		{
; 506  : 			return FALSE;

  014b3	33 c0		 xor	 eax, eax
  014b5	e9 ea 00 00 00	 jmp	 $LN12@ApplyEleme@4
$LN1@ApplyEleme@4:

; 507  : 		}
; 508  : 
; 509  : 		LPOBJ lpTargetObj = &gObj[lpObj->TargetNumber];

  014ba	8b 45 f8	 mov	 eax, DWORD PTR _lpObj$[ebp]
  014bd	0f bf 88 58 04
	00 00		 movsx	 ecx, WORD PTR [eax+1112]
  014c4	69 c9 38 2b 00
	00		 imul	 ecx, 11064		; 00002b38H
  014ca	03 0d 00 00 00
	00		 add	 ecx, DWORD PTR ?gObj@@3PAUOBJECTSTRUCT@@A ; gObj
  014d0	89 4d e4	 mov	 DWORD PTR _lpTargetObj$228867[ebp], ecx

; 510  : 		lpObj->Dir = GetPathPacketDirPos(lpTargetObj->X - lpObj->X, lpTargetObj->Y - lpObj->Y);

  014d3	8b 45 e4	 mov	 eax, DWORD PTR _lpTargetObj$228867[ebp]
  014d6	0f bf 88 46 01
	00 00		 movsx	 ecx, WORD PTR [eax+326]
  014dd	8b 55 f8	 mov	 edx, DWORD PTR _lpObj$[ebp]
  014e0	0f bf 82 46 01
	00 00		 movsx	 eax, WORD PTR [edx+326]
  014e7	2b c8		 sub	 ecx, eax
  014e9	51		 push	 ecx
  014ea	8b 4d e4	 mov	 ecx, DWORD PTR _lpTargetObj$228867[ebp]
  014ed	0f bf 91 44 01
	00 00		 movsx	 edx, WORD PTR [ecx+324]
  014f4	8b 45 f8	 mov	 eax, DWORD PTR _lpObj$[ebp]
  014f7	0f bf 88 44 01
	00 00		 movsx	 ecx, WORD PTR [eax+324]
  014fe	2b d1		 sub	 edx, ecx
  01500	52		 push	 edx
  01501	e8 00 00 00 00	 call	 ?GetPathPacketDirPos@@YAEHH@Z ; GetPathPacketDirPos
  01506	83 c4 08	 add	 esp, 8
  01509	8b 55 f8	 mov	 edx, DWORD PTR _lpObj$[ebp]
  0150c	88 82 48 01 00
	00		 mov	 BYTE PTR [edx+328], al

; 511  : 
; 512  : 		PMSG_ATTACK pAttackMsg;
; 513  : 
; 514  : 		pAttackMsg.AttackAction = 0x78;

  01512	c6 45 e1 78	 mov	 BYTE PTR _pAttackMsg$228868[ebp+5], 120 ; 00000078H

; 515  : 		pAttackMsg.DirDis = lpObj->Dir;

  01516	8b 45 f8	 mov	 eax, DWORD PTR _lpObj$[ebp]
  01519	8a 88 48 01 00
	00		 mov	 cl, BYTE PTR [eax+328]
  0151f	88 4d e2	 mov	 BYTE PTR _pAttackMsg$228868[ebp+6], cl

; 516  : 		pAttackMsg.NumberH = SET_NUMBERH(lpObj->TargetNumber);

  01522	8b 45 f8	 mov	 eax, DWORD PTR _lpObj$[ebp]
  01525	0f bf 88 58 04
	00 00		 movsx	 ecx, WORD PTR [eax+1112]
  0152c	c1 e9 08	 shr	 ecx, 8
  0152f	88 4d df	 mov	 BYTE PTR _pAttackMsg$228868[ebp+3], cl

; 517  : 		pAttackMsg.NumberL = SET_NUMBERL(lpObj->TargetNumber);

  01532	8b 45 f8	 mov	 eax, DWORD PTR _lpObj$[ebp]
  01535	0f bf 88 58 04
	00 00		 movsx	 ecx, WORD PTR [eax+1112]
  0153c	81 e1 ff 00 00
	00		 and	 ecx, 255		; 000000ffH
  01542	88 4d e0	 mov	 BYTE PTR _pAttackMsg$228868[ebp+4], cl

; 518  : 
; 519  : 		CGAttack((PMSG_ATTACK *)&pAttackMsg, lpObj->m_Index);

  01545	8b 45 f8	 mov	 eax, DWORD PTR _lpObj$[ebp]
  01548	8b 08		 mov	 ecx, DWORD PTR [eax]
  0154a	51		 push	 ecx
  0154b	8d 55 dc	 lea	 edx, DWORD PTR _pAttackMsg$228868[ebp]
  0154e	52		 push	 edx
  0154f	e8 00 00 00 00	 call	 ?CGAttack@@YAXPAUPMSG_ATTACK@@H@Z ; CGAttack
  01554	83 c4 08	 add	 esp, 8

; 520  : 		GCActionSend(lpObj, 0x78, lpObj->m_Index, lpTargetObj->m_Index);

  01557	8b 45 e4	 mov	 eax, DWORD PTR _lpTargetObj$228867[ebp]
  0155a	8b 08		 mov	 ecx, DWORD PTR [eax]
  0155c	51		 push	 ecx
  0155d	8b 55 f8	 mov	 edx, DWORD PTR _lpObj$[ebp]
  01560	8b 02		 mov	 eax, DWORD PTR [edx]
  01562	50		 push	 eax
  01563	6a 78		 push	 120			; 00000078H
  01565	8b 4d f8	 mov	 ecx, DWORD PTR _lpObj$[ebp]
  01568	51		 push	 ecx
  01569	e8 00 00 00 00	 call	 ?GCActionSend@@YAXPAUOBJECTSTRUCT@@EHH@Z ; GCActionSend
  0156e	83 c4 10	 add	 esp, 16			; 00000010H

; 521  : 		gObjAttack(lpObj, &gObj[lpObj->TargetNumber], 0, 0, 0, 0, 0,0,0);

  01571	6a 00		 push	 0
  01573	6a 00		 push	 0
  01575	6a 00		 push	 0
  01577	6a 00		 push	 0
  01579	6a 00		 push	 0
  0157b	6a 00		 push	 0
  0157d	6a 00		 push	 0
  0157f	8b 45 f8	 mov	 eax, DWORD PTR _lpObj$[ebp]
  01582	0f bf 88 58 04
	00 00		 movsx	 ecx, WORD PTR [eax+1112]
  01589	69 c9 38 2b 00
	00		 imul	 ecx, 11064		; 00002b38H
  0158f	03 0d 00 00 00
	00		 add	 ecx, DWORD PTR ?gObj@@3PAUOBJECTSTRUCT@@A ; gObj
  01595	51		 push	 ecx
  01596	8b 55 f8	 mov	 edx, DWORD PTR _lpObj$[ebp]
  01599	52		 push	 edx
  0159a	e8 00 00 00 00	 call	 ?gObjAttack@@YAHPAUOBJECTSTRUCT@@0PAVCMagicInf@@HEHHEE@Z ; gObjAttack
  0159f	83 c4 24	 add	 esp, 36			; 00000024H

; 522  : 
; 523  : 		return FALSE;

  015a2	33 c0		 xor	 eax, eax
$LN12@ApplyEleme@4:

; 524  : 	}
; 525  : }

  015a4	5f		 pop	 edi
  015a5	5e		 pop	 esi
  015a6	5b		 pop	 ebx
  015a7	8b e5		 mov	 esp, ebp
  015a9	5d		 pop	 ebp
  015aa	c2 0c 00	 ret	 12			; 0000000cH
?ApplyElementAttack@TMonsterAIElement@@QAEHHHPAVTMonsterAIState@@@Z ENDP ; TMonsterAIElement::ApplyElementAttack
_TEXT	ENDS
PUBLIC	??_C@_0BB@KIEOALHF@Element?9?$LP?$LF?$LP?$KK?$LA?x?$LA?$NN?$AA@ ; `string'
PUBLIC	__$ArrayPad$
EXTRN	?DataSend@@YAHHPAEK@Z:PROC			; DataSend
EXTRN	?PHeadSubSetB@@YAXPAEEEH@Z:PROC			; PHeadSubSetB
EXTRN	?gObjIsConnected@@YAHH@Z:PROC			; gObjIsConnected
;	COMDAT ??_C@_0BB@KIEOALHF@Element?9?$LP?$LF?$LP?$KK?$LA?x?$LA?$NN?$AA@
CONST	SEGMENT
??_C@_0BB@KIEOALHF@Element?9?$LP?$LF?$LP?$KK?$LA?x?$LA?$NN?$AA@ DB 'Eleme'
	DB	'nt-', 0bfH, 0b5H, 0bfH, 0aaH, 0b0H, 0f8H, 0b0H, 0ddH, 00H ; `string'
; Function compile flags: /Odtp /ZI
CONST	ENDS
_TEXT	SEGMENT
tv223 = -116						; size = 4
tv220 = -112						; size = 4
_pMsg$228911 = -44					; size = 10
_iTargetDistance$228907 = -32				; size = 4
_lpTargetObj$228904 = -28				; size = 4
_i$228899 = -24						; size = 4
_iTargetY$ = -20					; size = 4
_iTargetX$ = -16					; size = 4
_lpObj$ = -12						; size = 4
_this$ = -8						; size = 4
__$ArrayPad$ = -4					; size = 4
_iIndex$ = 8						; size = 4
_iTargetIndex$ = 12					; size = 4
_pAIState$ = 16						; size = 4
?ApplyElementAttackArea@TMonsterAIElement@@QAEHHHPAVTMonsterAIState@@@Z PROC ; TMonsterAIElement::ApplyElementAttackArea
; _this$ = ecx

; 539  : {

  015b0	55		 push	 ebp
  015b1	8b ec		 mov	 ebp, esp
  015b3	83 ec 74	 sub	 esp, 116		; 00000074H
  015b6	a1 00 00 00 00	 mov	 eax, DWORD PTR ___security_cookie
  015bb	33 c5		 xor	 eax, ebp
  015bd	89 45 fc	 mov	 DWORD PTR __$ArrayPad$[ebp], eax
  015c0	53		 push	 ebx
  015c1	56		 push	 esi
  015c2	57		 push	 edi
  015c3	89 4d f8	 mov	 DWORD PTR _this$[ebp], ecx

; 540  : 	LPOBJ lpObj = &gObj[iIndex];

  015c6	8b 45 08	 mov	 eax, DWORD PTR _iIndex$[ebp]
  015c9	69 c0 38 2b 00
	00		 imul	 eax, 11064		; 00002b38H
  015cf	03 05 00 00 00
	00		 add	 eax, DWORD PTR ?gObj@@3PAUOBJECTSTRUCT@@A ; gObj
  015d5	89 45 f4	 mov	 DWORD PTR _lpObj$[ebp], eax

; 541  : 	UTIL.SendCrywolfChattingMsg(iIndex, "Element-");

  015d8	68 00 00 00 00	 push	 OFFSET ??_C@_0BB@KIEOALHF@Element?9?$LP?$LF?$LP?$KK?$LA?x?$LA?$NN?$AA@
  015dd	8b 45 08	 mov	 eax, DWORD PTR _iIndex$[ebp]
  015e0	50		 push	 eax
  015e1	68 00 00 00 00	 push	 OFFSET _UTIL
  015e6	e8 00 00 00 00	 call	 ?SendCrywolfChattingMsg@CCrywolfUtil@@QAAXHPADZZ ; CCrywolfUtil::SendCrywolfChattingMsg
  015eb	83 c4 0c	 add	 esp, 12			; 0000000cH

; 542  : 
; 543  : 	int iTargetX = this->m_iX + (rand()%5) * ((rand()%2==0)?1:-1 ) ;

  015ee	e8 00 00 00 00	 call	 _rand
  015f3	99		 cdq
  015f4	b9 05 00 00 00	 mov	 ecx, 5
  015f9	f7 f9		 idiv	 ecx
  015fb	8b f2		 mov	 esi, edx
  015fd	e8 00 00 00 00	 call	 _rand
  01602	25 01 00 00 80	 and	 eax, -2147483647	; 80000001H
  01607	79 05		 jns	 SHORT $LN11@ApplyEleme@5
  01609	48		 dec	 eax
  0160a	83 c8 fe	 or	 eax, -2			; fffffffeH
  0160d	40		 inc	 eax
$LN11@ApplyEleme@5:
  0160e	f7 d8		 neg	 eax
  01610	1b c0		 sbb	 eax, eax
  01612	83 e0 fe	 and	 eax, -2			; fffffffeH
  01615	83 c0 01	 add	 eax, 1
  01618	0f af f0	 imul	 esi, eax
  0161b	8b 55 f8	 mov	 edx, DWORD PTR _this$[ebp]
  0161e	03 72 50	 add	 esi, DWORD PTR [edx+80]
  01621	89 75 f0	 mov	 DWORD PTR _iTargetX$[ebp], esi

; 544  : 	int iTargetY = this->m_iY + (rand()%5) * ((rand()%2==0)?1:-1 ) ;

  01624	e8 00 00 00 00	 call	 _rand
  01629	99		 cdq
  0162a	b9 05 00 00 00	 mov	 ecx, 5
  0162f	f7 f9		 idiv	 ecx
  01631	8b f2		 mov	 esi, edx
  01633	e8 00 00 00 00	 call	 _rand
  01638	25 01 00 00 80	 and	 eax, -2147483647	; 80000001H
  0163d	79 05		 jns	 SHORT $LN12@ApplyEleme@5
  0163f	48		 dec	 eax
  01640	83 c8 fe	 or	 eax, -2			; fffffffeH
  01643	40		 inc	 eax
$LN12@ApplyEleme@5:
  01644	f7 d8		 neg	 eax
  01646	1b c0		 sbb	 eax, eax
  01648	83 e0 fe	 and	 eax, -2			; fffffffeH
  0164b	83 c0 01	 add	 eax, 1
  0164e	0f af f0	 imul	 esi, eax
  01651	8b 55 f8	 mov	 edx, DWORD PTR _this$[ebp]
  01654	03 72 54	 add	 esi, DWORD PTR [edx+84]
  01657	89 75 ec	 mov	 DWORD PTR _iTargetY$[ebp], esi

; 545  : 
; 546  : 	for (int i= OBJ_STARTUSERINDEX;i<OBJMAX;i++)

  0165a	c7 45 e8 b0 36
	00 00		 mov	 DWORD PTR _i$228899[ebp], 14000 ; 000036b0H
  01661	eb 09		 jmp	 SHORT $LN8@ApplyEleme@5
$LN7@ApplyEleme@5:
  01663	8b 45 e8	 mov	 eax, DWORD PTR _i$228899[ebp]
  01666	83 c0 01	 add	 eax, 1
  01669	89 45 e8	 mov	 DWORD PTR _i$228899[ebp], eax
$LN8@ApplyEleme@5:
  0166c	81 7d e8 98 3a
	00 00		 cmp	 DWORD PTR _i$228899[ebp], 15000 ; 00003a98H
  01673	0f 8d 48 01 00
	00		 jge	 $LN6@ApplyEleme@5

; 547  : 	{
; 548  : 		if ( !gObjIsConnected(i))

  01679	8b 45 e8	 mov	 eax, DWORD PTR _i$228899[ebp]
  0167c	50		 push	 eax
  0167d	e8 00 00 00 00	 call	 ?gObjIsConnected@@YAHH@Z ; gObjIsConnected
  01682	83 c4 04	 add	 esp, 4
  01685	85 c0		 test	 eax, eax
  01687	75 02		 jne	 SHORT $LN5@ApplyEleme@5

; 549  : 			continue;

  01689	eb d8		 jmp	 SHORT $LN7@ApplyEleme@5
$LN5@ApplyEleme@5:

; 550  : 
; 551  : 		LPOBJ lpTargetObj = &gObj[i];

  0168b	8b 45 e8	 mov	 eax, DWORD PTR _i$228899[ebp]
  0168e	69 c0 38 2b 00
	00		 imul	 eax, 11064		; 00002b38H
  01694	03 05 00 00 00
	00		 add	 eax, DWORD PTR ?gObj@@3PAUOBJECTSTRUCT@@A ; gObj
  0169a	89 45 e4	 mov	 DWORD PTR _lpTargetObj$228904[ebp], eax

; 552  : 
; 553  : 		if ( !lpObj->Live )

  0169d	8b 45 f4	 mov	 eax, DWORD PTR _lpObj$[ebp]
  016a0	0f b6 48 6a	 movzx	 ecx, BYTE PTR [eax+106]
  016a4	85 c9		 test	 ecx, ecx
  016a6	75 02		 jne	 SHORT $LN4@ApplyEleme@5

; 554  : 			continue;

  016a8	eb b9		 jmp	 SHORT $LN7@ApplyEleme@5
$LN4@ApplyEleme@5:

; 555  : 
; 556  : 		if ( lpObj->MapNumber != lpTargetObj->MapNumber )

  016aa	8b 45 f4	 mov	 eax, DWORD PTR _lpObj$[ebp]
  016ad	0f b6 88 49 01
	00 00		 movzx	 ecx, BYTE PTR [eax+329]
  016b4	8b 55 e4	 mov	 edx, DWORD PTR _lpTargetObj$228904[ebp]
  016b7	0f b6 82 49 01
	00 00		 movzx	 eax, BYTE PTR [edx+329]
  016be	3b c8		 cmp	 ecx, eax
  016c0	74 02		 je	 SHORT $LN3@ApplyEleme@5

; 557  : 			continue;

  016c2	eb 9f		 jmp	 SHORT $LN7@ApplyEleme@5
$LN3@ApplyEleme@5:

; 558  : 
; 559  : 		int iTargetDistance = (int)(sqrt((double) ((lpTargetObj->X - iTargetX)*(lpTargetObj->X - iTargetX)) + ((lpTargetObj->Y - iTargetY)*(lpTargetObj->Y - iTargetY)) ));

  016c4	8b 45 e4	 mov	 eax, DWORD PTR _lpTargetObj$228904[ebp]
  016c7	0f bf 88 44 01
	00 00		 movsx	 ecx, WORD PTR [eax+324]
  016ce	2b 4d f0	 sub	 ecx, DWORD PTR _iTargetX$[ebp]
  016d1	8b 55 e4	 mov	 edx, DWORD PTR _lpTargetObj$228904[ebp]
  016d4	0f bf 82 44 01
	00 00		 movsx	 eax, WORD PTR [edx+324]
  016db	2b 45 f0	 sub	 eax, DWORD PTR _iTargetX$[ebp]
  016de	0f af c8	 imul	 ecx, eax
  016e1	89 4d 90	 mov	 DWORD PTR tv220[ebp], ecx
  016e4	db 45 90	 fild	 DWORD PTR tv220[ebp]
  016e7	8b 4d e4	 mov	 ecx, DWORD PTR _lpTargetObj$228904[ebp]
  016ea	0f bf 91 46 01
	00 00		 movsx	 edx, WORD PTR [ecx+326]
  016f1	2b 55 ec	 sub	 edx, DWORD PTR _iTargetY$[ebp]
  016f4	8b 45 e4	 mov	 eax, DWORD PTR _lpTargetObj$228904[ebp]
  016f7	0f bf 88 46 01
	00 00		 movsx	 ecx, WORD PTR [eax+326]
  016fe	2b 4d ec	 sub	 ecx, DWORD PTR _iTargetY$[ebp]
  01701	0f af d1	 imul	 edx, ecx
  01704	89 55 8c	 mov	 DWORD PTR tv223[ebp], edx
  01707	db 45 8c	 fild	 DWORD PTR tv223[ebp]
  0170a	de c1		 faddp	 ST(1), ST(0)
  0170c	83 ec 08	 sub	 esp, 8
  0170f	dd 1c 24	 fstp	 QWORD PTR [esp]
  01712	e8 00 00 00 00	 call	 _sqrt
  01717	83 c4 08	 add	 esp, 8
  0171a	e8 00 00 00 00	 call	 __ftol2_sse
  0171f	89 45 e0	 mov	 DWORD PTR _iTargetDistance$228907[ebp], eax

; 560  : 
; 561  : 		if ( iTargetDistance < 10 )

  01722	83 7d e0 0a	 cmp	 DWORD PTR _iTargetDistance$228907[ebp], 10 ; 0000000aH
  01726	7d 70		 jge	 SHORT $LN2@ApplyEleme@5

; 562  : 		{
; 563  : 			PMSG_NOTIFY_REGION_MONSTER_ATTACK pMsg;
; 564  : 
; 565  : 			PHeadSubSetB((LPBYTE)&pMsg, 0xBD, 0x0C, sizeof(pMsg));

  01728	6a 0a		 push	 10			; 0000000aH
  0172a	6a 0c		 push	 12			; 0000000cH
  0172c	68 bd 00 00 00	 push	 189			; 000000bdH
  01731	8d 45 d4	 lea	 eax, DWORD PTR _pMsg$228911[ebp]
  01734	50		 push	 eax
  01735	e8 00 00 00 00	 call	 ?PHeadSubSetB@@YAXPAEEEH@Z ; PHeadSubSetB
  0173a	83 c4 10	 add	 esp, 16			; 00000010H

; 566  : 			pMsg.btObjClassH = SET_NUMBERH(lpObj->Class);

  0173d	8b 45 f4	 mov	 eax, DWORD PTR _lpObj$[ebp]
  01740	0f b7 88 b8 00
	00 00		 movzx	 ecx, WORD PTR [eax+184]
  01747	c1 e9 08	 shr	 ecx, 8
  0174a	88 4d d8	 mov	 BYTE PTR _pMsg$228911[ebp+4], cl

; 567  : 			pMsg.btObjClassL = SET_NUMBERL(lpObj->Class);

  0174d	8b 45 f4	 mov	 eax, DWORD PTR _lpObj$[ebp]
  01750	0f b7 88 b8 00
	00 00		 movzx	 ecx, WORD PTR [eax+184]
  01757	81 e1 ff 00 00
	00		 and	 ecx, 255		; 000000ffH
  0175d	88 4d d9	 mov	 BYTE PTR _pMsg$228911[ebp+5], cl

; 568  : 			pMsg.btSourceX = lpObj->X;

  01760	8b 45 f4	 mov	 eax, DWORD PTR _lpObj$[ebp]
  01763	8a 88 44 01 00
	00		 mov	 cl, BYTE PTR [eax+324]
  01769	88 4d da	 mov	 BYTE PTR _pMsg$228911[ebp+6], cl

; 569  : 			pMsg.btSourceY = lpObj->Y;

  0176c	8b 45 f4	 mov	 eax, DWORD PTR _lpObj$[ebp]
  0176f	8a 88 46 01 00
	00		 mov	 cl, BYTE PTR [eax+326]
  01775	88 4d db	 mov	 BYTE PTR _pMsg$228911[ebp+7], cl

; 570  : 			pMsg.btPointX = iTargetX;

  01778	8a 45 f0	 mov	 al, BYTE PTR _iTargetX$[ebp]
  0177b	88 45 dc	 mov	 BYTE PTR _pMsg$228911[ebp+8], al

; 571  : 			pMsg.btPointY = iTargetY;

  0177e	8a 45 ec	 mov	 al, BYTE PTR _iTargetY$[ebp]
  01781	88 45 dd	 mov	 BYTE PTR _pMsg$228911[ebp+9], al

; 572  : 
; 573  : 			DataSend(lpTargetObj->m_Index, (LPBYTE)&pMsg, sizeof(pMsg));

  01784	6a 0a		 push	 10			; 0000000aH
  01786	8d 45 d4	 lea	 eax, DWORD PTR _pMsg$228911[ebp]
  01789	50		 push	 eax
  0178a	8b 4d e4	 mov	 ecx, DWORD PTR _lpTargetObj$228904[ebp]
  0178d	8b 11		 mov	 edx, DWORD PTR [ecx]
  0178f	52		 push	 edx
  01790	e8 00 00 00 00	 call	 ?DataSend@@YAHHPAEK@Z	; DataSend
  01795	83 c4 0c	 add	 esp, 12			; 0000000cH
$LN2@ApplyEleme@5:

; 574  : 		}
; 575  : 
; 576  : 		if ( iTargetDistance < 6 )

  01798	83 7d e0 06	 cmp	 DWORD PTR _iTargetDistance$228907[ebp], 6
  0179c	7d 1e		 jge	 SHORT $LN1@ApplyEleme@5

; 577  : 		{
; 578  : 			gObjAttack(lpObj, lpTargetObj, 0, 0, 0, 0, 0,0,0);

  0179e	6a 00		 push	 0
  017a0	6a 00		 push	 0
  017a2	6a 00		 push	 0
  017a4	6a 00		 push	 0
  017a6	6a 00		 push	 0
  017a8	6a 00		 push	 0
  017aa	6a 00		 push	 0
  017ac	8b 45 e4	 mov	 eax, DWORD PTR _lpTargetObj$228904[ebp]
  017af	50		 push	 eax
  017b0	8b 4d f4	 mov	 ecx, DWORD PTR _lpObj$[ebp]
  017b3	51		 push	 ecx
  017b4	e8 00 00 00 00	 call	 ?gObjAttack@@YAHPAUOBJECTSTRUCT@@0PAVCMagicInf@@HEHHEE@Z ; gObjAttack
  017b9	83 c4 24	 add	 esp, 36			; 00000024H
$LN1@ApplyEleme@5:

; 579  : 		}
; 580  : 	}

  017bc	e9 a2 fe ff ff	 jmp	 $LN7@ApplyEleme@5
$LN6@ApplyEleme@5:

; 581  : 
; 582  : 	return FALSE;

  017c1	33 c0		 xor	 eax, eax

; 583  : }

  017c3	5f		 pop	 edi
  017c4	5e		 pop	 esi
  017c5	5b		 pop	 ebx
  017c6	8b 4d fc	 mov	 ecx, DWORD PTR __$ArrayPad$[ebp]
  017c9	33 cd		 xor	 ecx, ebp
  017cb	e8 00 00 00 00	 call	 @__security_check_cookie@4
  017d0	8b e5		 mov	 esp, ebp
  017d2	5d		 pop	 ebp
  017d3	c2 0c 00	 ret	 12			; 0000000cH
?ApplyElementAttackArea@TMonsterAIElement@@QAEHHHPAVTMonsterAIState@@@Z ENDP ; TMonsterAIElement::ApplyElementAttackArea
; Function compile flags: /Odtp /ZI
_lpObj$ = -8						; size = 4
_this$ = -4						; size = 4
_iIndex$ = 8						; size = 4
_iTargetIndex$ = 12					; size = 4
_pAIState$ = 16						; size = 4
?ApplyElementAttackPenetration@TMonsterAIElement@@QAEHHHPAVTMonsterAIState@@@Z PROC ; TMonsterAIElement::ApplyElementAttackPenetration
; _this$ = ecx

; 586  : {

  017e0	55		 push	 ebp
  017e1	8b ec		 mov	 ebp, esp
  017e3	83 ec 48	 sub	 esp, 72			; 00000048H
  017e6	53		 push	 ebx
  017e7	56		 push	 esi
  017e8	57		 push	 edi
  017e9	89 4d fc	 mov	 DWORD PTR _this$[ebp], ecx

; 587  : 	LPOBJ lpObj = &gObj[iIndex];

  017ec	8b 45 08	 mov	 eax, DWORD PTR _iIndex$[ebp]
  017ef	69 c0 38 2b 00
	00		 imul	 eax, 11064		; 00002b38H
  017f5	03 05 00 00 00
	00		 add	 eax, DWORD PTR ?gObj@@3PAUOBJECTSTRUCT@@A ; gObj
  017fb	89 45 f8	 mov	 DWORD PTR _lpObj$[ebp], eax

; 588  : 	iTargetIndex = lpObj->TargetNumber;

  017fe	8b 45 f8	 mov	 eax, DWORD PTR _lpObj$[ebp]
  01801	0f bf 88 58 04
	00 00		 movsx	 ecx, WORD PTR [eax+1112]
  01808	89 4d 0c	 mov	 DWORD PTR _iTargetIndex$[ebp], ecx

; 589  : 
; 590  : 	if ( lpObj->TargetNumber == -1 )

  0180b	8b 45 f8	 mov	 eax, DWORD PTR _lpObj$[ebp]
  0180e	0f bf 88 58 04
	00 00		 movsx	 ecx, WORD PTR [eax+1112]
  01815	83 f9 ff	 cmp	 ecx, -1
  01818	75 04		 jne	 SHORT $LN2@ApplyEleme@6

; 591  : 		return FALSE;

  0181a	33 c0		 xor	 eax, eax
  0181c	eb 34		 jmp	 SHORT $LN3@ApplyEleme@6
$LN2@ApplyEleme@6:

; 592  : 
; 593  : 	if ( gObj[iTargetIndex].Live == 0 )

  0181e	8b 45 0c	 mov	 eax, DWORD PTR _iTargetIndex$[ebp]
  01821	69 c0 38 2b 00
	00		 imul	 eax, 11064		; 00002b38H
  01827	8b 0d 00 00 00
	00		 mov	 ecx, DWORD PTR ?gObj@@3PAUOBJECTSTRUCT@@A ; gObj
  0182d	0f b6 54 01 6a	 movzx	 edx, BYTE PTR [ecx+eax+106]
  01832	85 d2		 test	 edx, edx
  01834	75 04		 jne	 SHORT $LN1@ApplyEleme@6

; 594  : 		return FALSE;

  01836	33 c0		 xor	 eax, eax
  01838	eb 18		 jmp	 SHORT $LN3@ApplyEleme@6
$LN1@ApplyEleme@6:

; 595  : 
; 596  : 	TMonsterSkillManager::UseMonsterSkill(iIndex, iTargetIndex, 2, -1, NULL);

  0183a	6a 00		 push	 0
  0183c	6a ff		 push	 -1
  0183e	6a 02		 push	 2
  01840	8b 45 0c	 mov	 eax, DWORD PTR _iTargetIndex$[ebp]
  01843	50		 push	 eax
  01844	8b 4d 08	 mov	 ecx, DWORD PTR _iIndex$[ebp]
  01847	51		 push	 ecx
  01848	e8 00 00 00 00	 call	 ?UseMonsterSkill@TMonsterSkillManager@@SAXHHHHPAVCMagicInf@@@Z ; TMonsterSkillManager::UseMonsterSkill
  0184d	83 c4 14	 add	 esp, 20			; 00000014H

; 597  : 	return FALSE;

  01850	33 c0		 xor	 eax, eax
$LN3@ApplyEleme@6:

; 598  : }

  01852	5f		 pop	 edi
  01853	5e		 pop	 esi
  01854	5b		 pop	 ebx
  01855	8b e5		 mov	 esp, ebp
  01857	5d		 pop	 ebp
  01858	c2 0c 00	 ret	 12			; 0000000cH
?ApplyElementAttackPenetration@TMonsterAIElement@@QAEHHHPAVTMonsterAIState@@@Z ENDP ; TMonsterAIElement::ApplyElementAttackPenetration
_TEXT	ENDS
PUBLIC	??_C@_0N@BJJDJPGH@Element?9?H?$LI?G?G?$AA@	; `string'
EXTRN	?GetXYToEascape@TMonsterAIUtil@@QAEHPAUOBJECTSTRUCT@@@Z:PROC ; TMonsterAIUtil::GetXYToEascape
;	COMDAT ??_C@_0N@BJJDJPGH@Element?9?H?$LI?G?G?$AA@
CONST	SEGMENT
??_C@_0N@BJJDJPGH@Element?9?H?$LI?G?G?$AA@ DB 'Element-', 0c8H, 0b8H, 0c7H
	DB	0c7H, 00H					; `string'
; Function compile flags: /Odtp /ZI
CONST	ENDS
_TEXT	SEGMENT
_bFindXY$ = -12						; size = 4
_lpObj$ = -8						; size = 4
_this$ = -4						; size = 4
_iIndex$ = 8						; size = 4
_iTargetIndex$ = 12					; size = 4
_pAIState$ = 16						; size = 4
?ApplyElementAvoid@TMonsterAIElement@@QAEHHHPAVTMonsterAIState@@@Z PROC ; TMonsterAIElement::ApplyElementAvoid
; _this$ = ecx

; 601  : {

  01860	55		 push	 ebp
  01861	8b ec		 mov	 ebp, esp
  01863	83 ec 4c	 sub	 esp, 76			; 0000004cH
  01866	53		 push	 ebx
  01867	56		 push	 esi
  01868	57		 push	 edi
  01869	89 4d fc	 mov	 DWORD PTR _this$[ebp], ecx

; 602  : 	LPOBJ lpObj = &gObj[iIndex];

  0186c	8b 45 08	 mov	 eax, DWORD PTR _iIndex$[ebp]
  0186f	69 c0 38 2b 00
	00		 imul	 eax, 11064		; 00002b38H
  01875	03 05 00 00 00
	00		 add	 eax, DWORD PTR ?gObj@@3PAUOBJECTSTRUCT@@A ; gObj
  0187b	89 45 f8	 mov	 DWORD PTR _lpObj$[ebp], eax

; 603  : 	UTIL.SendCrywolfChattingMsg(iIndex, "Element-");

  0187e	68 00 00 00 00	 push	 OFFSET ??_C@_0N@BJJDJPGH@Element?9?H?$LI?G?G?$AA@
  01883	8b 45 08	 mov	 eax, DWORD PTR _iIndex$[ebp]
  01886	50		 push	 eax
  01887	68 00 00 00 00	 push	 OFFSET _UTIL
  0188c	e8 00 00 00 00	 call	 ?SendCrywolfChattingMsg@CCrywolfUtil@@QAAXHPADZZ ; CCrywolfUtil::SendCrywolfChattingMsg
  01891	83 c4 0c	 add	 esp, 12			; 0000000cH

; 604  : 
; 605  : //#if(GS_CASTLE==0)
; 606  : 	KANTURU_UTIL.SendKanturuChattingMsg(iIndex, "Element-");

  01894	68 00 00 00 00	 push	 OFFSET ??_C@_0N@BJJDJPGH@Element?9?H?$LI?G?G?$AA@
  01899	8b 45 08	 mov	 eax, DWORD PTR _iIndex$[ebp]
  0189c	50		 push	 eax
  0189d	68 00 00 00 00	 push	 OFFSET _KANTURU_UTIL
  018a2	e8 00 00 00 00	 call	 ?SendKanturuChattingMsg@CKanturuUtil@@QAAXHPADZZ ; CKanturuUtil::SendKanturuChattingMsg
  018a7	83 c4 0c	 add	 esp, 12			; 0000000cH

; 607  : //#endif
; 608  : 
; 609  : 	BOOL bFindXY = MONSTER_UTIL.GetXYToEascape(lpObj);

  018aa	8b 45 f8	 mov	 eax, DWORD PTR _lpObj$[ebp]
  018ad	50		 push	 eax
  018ae	b9 00 00 00 00	 mov	 ecx, OFFSET _MONSTER_UTIL
  018b3	e8 00 00 00 00	 call	 ?GetXYToEascape@TMonsterAIUtil@@QAEHPAUOBJECTSTRUCT@@@Z ; TMonsterAIUtil::GetXYToEascape
  018b8	89 45 f4	 mov	 DWORD PTR _bFindXY$[ebp], eax

; 610  : 
; 611  : 	if ( bFindXY )

  018bb	83 7d f4 00	 cmp	 DWORD PTR _bFindXY$[ebp], 0
  018bf	74 28		 je	 SHORT $LN1@ApplyEleme@7

; 612  : 	{
; 613  : 		MONSTER_UTIL.FindPathToMoveMonster(lpObj, lpObj->MTX, lpObj->MTY, 5, 1);

  018c1	6a 01		 push	 1
  018c3	6a 05		 push	 5
  018c5	8b 45 f8	 mov	 eax, DWORD PTR _lpObj$[ebp]
  018c8	0f bf 88 82 01
	00 00		 movsx	 ecx, WORD PTR [eax+386]
  018cf	51		 push	 ecx
  018d0	8b 55 f8	 mov	 edx, DWORD PTR _lpObj$[ebp]
  018d3	0f bf 82 80 01
	00 00		 movsx	 eax, WORD PTR [edx+384]
  018da	50		 push	 eax
  018db	8b 4d f8	 mov	 ecx, DWORD PTR _lpObj$[ebp]
  018de	51		 push	 ecx
  018df	b9 00 00 00 00	 mov	 ecx, OFFSET _MONSTER_UTIL
  018e4	e8 00 00 00 00	 call	 ?FindPathToMoveMonster@TMonsterAIUtil@@QAEHPAUOBJECTSTRUCT@@HHHH@Z ; TMonsterAIUtil::FindPathToMoveMonster
$LN1@ApplyEleme@7:

; 614  : 	}
; 615  : 
; 616  : 	return FALSE;

  018e9	33 c0		 xor	 eax, eax

; 617  : }

  018eb	5f		 pop	 edi
  018ec	5e		 pop	 esi
  018ed	5b		 pop	 ebx
  018ee	8b e5		 mov	 esp, ebp
  018f0	5d		 pop	 ebp
  018f1	c2 0c 00	 ret	 12			; 0000000cH
?ApplyElementAvoid@TMonsterAIElement@@QAEHHHPAVTMonsterAIState@@@Z ENDP ; TMonsterAIElement::ApplyElementAvoid
_TEXT	ENDS
PUBLIC	??_C@_07DAGIDAPO@HP?5?3?5?$CFd?$AA@		; `string'
PUBLIC	__real@4059000000000000
PUBLIC	__real@4034000000000000
PUBLIC	??_C@_0BB@HBFMCDPA@Element?9?$LM?$LP?G?A?D?$KB?$LH?a?$AA@ ; `string'
EXTRN	?gObjApplyBuffEffectDuration@@YAEPAUOBJECTSTRUCT@@HEHEHH@Z:PROC ; gObjApplyBuffEffectDuration
;	COMDAT ??_C@_07DAGIDAPO@HP?5?3?5?$CFd?$AA@
CONST	SEGMENT
??_C@_07DAGIDAPO@HP?5?3?5?$CFd?$AA@ DB 'HP : %d', 00H	; `string'
CONST	ENDS
;	COMDAT __real@4059000000000000
CONST	SEGMENT
__real@4059000000000000 DQ 04059000000000000r	; 100
CONST	ENDS
;	COMDAT __real@4034000000000000
CONST	SEGMENT
__real@4034000000000000 DQ 04034000000000000r	; 20
CONST	ENDS
;	COMDAT ??_C@_0BB@HBFMCDPA@Element?9?$LM?$LP?G?A?D?$KB?$LH?a?$AA@
CONST	SEGMENT
??_C@_0BB@HBFMCDPA@Element?9?$LM?$LP?G?A?D?$KB?$LH?a?$AA@ DB 'Element-', 0bcH
	DB	0bfH, 0c7H, 0c1H, 0c4H, 0a1H, 0b7H, 0e1H, 00H ; `string'
; Function compile flags: /Odtp /ZI
CONST	ENDS
_TEXT	SEGMENT
_lpObj$ = -8						; size = 4
_this$ = -4						; size = 4
_iIndex$ = 8						; size = 4
_iTargetIndex$ = 12					; size = 4
_pAIState$ = 16						; size = 4
?ApplyElementHealSelf@TMonsterAIElement@@QAEHHHPAVTMonsterAIState@@@Z PROC ; TMonsterAIElement::ApplyElementHealSelf
; _this$ = ecx

; 620  : {

  01900	55		 push	 ebp
  01901	8b ec		 mov	 ebp, esp
  01903	83 ec 48	 sub	 esp, 72			; 00000048H
  01906	53		 push	 ebx
  01907	56		 push	 esi
  01908	57		 push	 edi
  01909	89 4d fc	 mov	 DWORD PTR _this$[ebp], ecx

; 621  : 	LPOBJ lpObj = &gObj[iIndex];

  0190c	8b 45 08	 mov	 eax, DWORD PTR _iIndex$[ebp]
  0190f	69 c0 38 2b 00
	00		 imul	 eax, 11064		; 00002b38H
  01915	03 05 00 00 00
	00		 add	 eax, DWORD PTR ?gObj@@3PAUOBJECTSTRUCT@@A ; gObj
  0191b	89 45 f8	 mov	 DWORD PTR _lpObj$[ebp], eax

; 622  : 	UTIL.SendCrywolfChattingMsg(iIndex, "Element-");

  0191e	68 00 00 00 00	 push	 OFFSET ??_C@_0BB@HBFMCDPA@Element?9?$LM?$LP?G?A?D?$KB?$LH?a?$AA@
  01923	8b 45 08	 mov	 eax, DWORD PTR _iIndex$[ebp]
  01926	50		 push	 eax
  01927	68 00 00 00 00	 push	 OFFSET _UTIL
  0192c	e8 00 00 00 00	 call	 ?SendCrywolfChattingMsg@CCrywolfUtil@@QAAXHPADZZ ; CCrywolfUtil::SendCrywolfChattingMsg
  01931	83 c4 0c	 add	 esp, 12			; 0000000cH

; 623  : 
; 624  : 	lpObj->Life += lpObj->Life * 20.0f / 100.0f;

  01934	8b 45 f8	 mov	 eax, DWORD PTR _lpObj$[ebp]
  01937	d9 80 fc 00 00
	00		 fld	 DWORD PTR [eax+252]
  0193d	dc 0d 00 00 00
	00		 fmul	 QWORD PTR __real@4034000000000000
  01943	dc 35 00 00 00
	00		 fdiv	 QWORD PTR __real@4059000000000000
  01949	8b 4d f8	 mov	 ecx, DWORD PTR _lpObj$[ebp]
  0194c	d8 81 fc 00 00
	00		 fadd	 DWORD PTR [ecx+252]
  01952	8b 55 f8	 mov	 edx, DWORD PTR _lpObj$[ebp]
  01955	d9 9a fc 00 00
	00		 fstp	 DWORD PTR [edx+252]

; 625  : 	UTIL.SendCrywolfChattingMsg(iIndex, "HP : %d", (int)lpObj->Life);

  0195b	8b 45 f8	 mov	 eax, DWORD PTR _lpObj$[ebp]
  0195e	d9 80 fc 00 00
	00		 fld	 DWORD PTR [eax+252]
  01964	e8 00 00 00 00	 call	 __ftol2_sse
  01969	50		 push	 eax
  0196a	68 00 00 00 00	 push	 OFFSET ??_C@_07DAGIDAPO@HP?5?3?5?$CFd?$AA@
  0196f	8b 4d 08	 mov	 ecx, DWORD PTR _iIndex$[ebp]
  01972	51		 push	 ecx
  01973	68 00 00 00 00	 push	 OFFSET _UTIL
  01978	e8 00 00 00 00	 call	 ?SendCrywolfChattingMsg@CCrywolfUtil@@QAAXHPADZZ ; CCrywolfUtil::SendCrywolfChattingMsg
  0197d	83 c4 10	 add	 esp, 16			; 00000010H

; 626  : 
; 627  : 	gObjApplyBuffEffectDuration(lpObj, AT_INCREASE_DEFENSE, 0, 0, 0, 0, -10); //season3 add-on

  01980	6a f6		 push	 -10			; fffffff6H
  01982	6a 00		 push	 0
  01984	6a 00		 push	 0
  01986	6a 00		 push	 0
  01988	6a 00		 push	 0
  0198a	6a 02		 push	 2
  0198c	8b 45 f8	 mov	 eax, DWORD PTR _lpObj$[ebp]
  0198f	50		 push	 eax
  01990	e8 00 00 00 00	 call	 ?gObjApplyBuffEffectDuration@@YAEPAUOBJECTSTRUCT@@HEHEHH@Z ; gObjApplyBuffEffectDuration
  01995	83 c4 1c	 add	 esp, 28			; 0000001cH

; 628  : 
; 629  : 	return FALSE;

  01998	33 c0		 xor	 eax, eax

; 630  : }

  0199a	5f		 pop	 edi
  0199b	5e		 pop	 esi
  0199c	5b		 pop	 ebx
  0199d	8b e5		 mov	 esp, ebp
  0199f	5d		 pop	 ebp
  019a0	c2 0c 00	 ret	 12			; 0000000cH
?ApplyElementHealSelf@TMonsterAIElement@@QAEHHHPAVTMonsterAIState@@@Z ENDP ; TMonsterAIElement::ApplyElementHealSelf
_TEXT	ENDS
PUBLIC	??_C@_0BB@NPDGGOME@?$LB?W?$LH?l?D?$KB?$LH?a?5HP?5?3?5?$CFd?$AA@ ; `string'
PUBLIC	??_C@_0BB@NEEHLJGK@Element?9?$LB?W?$LH?l?D?$KB?$LH?a?$AA@ ; `string'
EXTRN	?RunSkill@TMonsterSkillUnit@@QAEXHH@Z:PROC	; TMonsterSkillUnit::RunSkill
EXTRN	?FindMonsterSkillUnit@TMonsterSkillManager@@SAPAVTMonsterSkillUnit@@HH@Z:PROC ; TMonsterSkillManager::FindMonsterSkillUnit
EXTRN	?FindGroupMemberToHeal@TMonsterAIGroup@@SAPAVTMonsterAIGroupMember@@HHHH@Z:PROC ; TMonsterAIGroup::FindGroupMemberToHeal
;	COMDAT ??_C@_0BB@NPDGGOME@?$LB?W?$LH?l?D?$KB?$LH?a?5HP?5?3?5?$CFd?$AA@
CONST	SEGMENT
??_C@_0BB@NPDGGOME@?$LB?W?$LH?l?D?$KB?$LH?a?5HP?5?3?5?$CFd?$AA@ DB 0b1H, 0d7H
	DB	0b7H, 0ecH, 0c4H, 0a1H, 0b7H, 0e1H, ' HP : %d', 00H ; `string'
CONST	ENDS
;	COMDAT ??_C@_0BB@NEEHLJGK@Element?9?$LB?W?$LH?l?D?$KB?$LH?a?$AA@
CONST	SEGMENT
??_C@_0BB@NEEHLJGK@Element?9?$LB?W?$LH?l?D?$KB?$LH?a?$AA@ DB 'Element-', 0b1H
	DB	0d7H, 0b7H, 0ecH, 0c4H, 0a1H, 0b7H, 0e1H, 00H ; `string'
; Function compile flags: /Odtp /ZI
CONST	ENDS
_TEXT	SEGMENT
_lpSkillUnit$228961 = -20				; size = 4
_lpTargetObj$228959 = -16				; size = 4
_pMemb$ = -12						; size = 4
_lpObj$ = -8						; size = 4
_this$ = -4						; size = 4
_iIndex$ = 8						; size = 4
_iTargetIndex$ = 12					; size = 4
_pAIState$ = 16						; size = 4
?ApplyElementHealGroup@TMonsterAIElement@@QAEHHHPAVTMonsterAIState@@@Z PROC ; TMonsterAIElement::ApplyElementHealGroup
; _this$ = ecx

; 633  : {

  019b0	55		 push	 ebp
  019b1	8b ec		 mov	 ebp, esp
  019b3	83 ec 54	 sub	 esp, 84			; 00000054H
  019b6	53		 push	 ebx
  019b7	56		 push	 esi
  019b8	57		 push	 edi
  019b9	89 4d fc	 mov	 DWORD PTR _this$[ebp], ecx

; 634  : 	LPOBJ lpObj = &gObj[iIndex];

  019bc	8b 45 08	 mov	 eax, DWORD PTR _iIndex$[ebp]
  019bf	69 c0 38 2b 00
	00		 imul	 eax, 11064		; 00002b38H
  019c5	03 05 00 00 00
	00		 add	 eax, DWORD PTR ?gObj@@3PAUOBJECTSTRUCT@@A ; gObj
  019cb	89 45 f8	 mov	 DWORD PTR _lpObj$[ebp], eax

; 635  : 	UTIL.SendCrywolfChattingMsg(iIndex, "Element-");

  019ce	68 00 00 00 00	 push	 OFFSET ??_C@_0BB@NEEHLJGK@Element?9?$LB?W?$LH?l?D?$KB?$LH?a?$AA@
  019d3	8b 45 08	 mov	 eax, DWORD PTR _iIndex$[ebp]
  019d6	50		 push	 eax
  019d7	68 00 00 00 00	 push	 OFFSET _UTIL
  019dc	e8 00 00 00 00	 call	 ?SendCrywolfChattingMsg@CCrywolfUtil@@QAAXHPADZZ ; CCrywolfUtil::SendCrywolfChattingMsg
  019e1	83 c4 0c	 add	 esp, 12			; 0000000cH

; 636  : 	TMonsterAIGroupMember * pMemb = TMonsterAIGroup::FindGroupMemberToHeal(lpObj->m_Index, lpObj->m_iGroupNumber, lpObj->m_iGroupMemberGuid, 6);

  019e4	6a 06		 push	 6
  019e6	8b 45 f8	 mov	 eax, DWORD PTR _lpObj$[ebp]
  019e9	8b 88 8c 1c 00
	00		 mov	 ecx, DWORD PTR [eax+7308]
  019ef	51		 push	 ecx
  019f0	8b 55 f8	 mov	 edx, DWORD PTR _lpObj$[ebp]
  019f3	8b 82 84 1c 00
	00		 mov	 eax, DWORD PTR [edx+7300]
  019f9	50		 push	 eax
  019fa	8b 4d f8	 mov	 ecx, DWORD PTR _lpObj$[ebp]
  019fd	8b 11		 mov	 edx, DWORD PTR [ecx]
  019ff	52		 push	 edx
  01a00	e8 00 00 00 00	 call	 ?FindGroupMemberToHeal@TMonsterAIGroup@@SAPAVTMonsterAIGroupMember@@HHHH@Z ; TMonsterAIGroup::FindGroupMemberToHeal
  01a05	83 c4 10	 add	 esp, 16			; 00000010H
  01a08	89 45 f4	 mov	 DWORD PTR _pMemb$[ebp], eax

; 637  : 
; 638  : 	if ( pMemb )

  01a0b	83 7d f4 00	 cmp	 DWORD PTR _pMemb$[ebp], 0
  01a0f	0f 84 9b 00 00
	00		 je	 $LN3@ApplyEleme@8

; 639  : 	{
; 640  : 		LPOBJ lpTargetObj = &gObj[pMemb->m_iObjIndex];

  01a15	8b 45 f4	 mov	 eax, DWORD PTR _pMemb$[ebp]
  01a18	8b 48 3c	 mov	 ecx, DWORD PTR [eax+60]
  01a1b	69 c9 38 2b 00
	00		 imul	 ecx, 11064		; 00002b38H
  01a21	03 0d 00 00 00
	00		 add	 ecx, DWORD PTR ?gObj@@3PAUOBJECTSTRUCT@@A ; gObj
  01a27	89 4d f0	 mov	 DWORD PTR _lpTargetObj$228959[ebp], ecx

; 641  : 
; 642  : 		if ( lpTargetObj->Live == 0 )

  01a2a	8b 45 f0	 mov	 eax, DWORD PTR _lpTargetObj$228959[ebp]
  01a2d	0f b6 48 6a	 movzx	 ecx, BYTE PTR [eax+106]
  01a31	85 c9		 test	 ecx, ecx
  01a33	75 04		 jne	 SHORT $LN2@ApplyEleme@8

; 643  : 			return FALSE;

  01a35	33 c0		 xor	 eax, eax
  01a37	eb 79		 jmp	 SHORT $LN4@ApplyEleme@8
$LN2@ApplyEleme@8:

; 644  : 
; 645  : 		TMonsterSkillUnit * lpSkillUnit = TMonsterSkillManager::FindMonsterSkillUnit(lpObj->m_Index, 21);

  01a39	6a 15		 push	 21			; 00000015H
  01a3b	8b 45 f8	 mov	 eax, DWORD PTR _lpObj$[ebp]
  01a3e	8b 08		 mov	 ecx, DWORD PTR [eax]
  01a40	51		 push	 ecx
  01a41	e8 00 00 00 00	 call	 ?FindMonsterSkillUnit@TMonsterSkillManager@@SAPAVTMonsterSkillUnit@@HH@Z ; TMonsterSkillManager::FindMonsterSkillUnit
  01a46	83 c4 08	 add	 esp, 8
  01a49	89 45 ec	 mov	 DWORD PTR _lpSkillUnit$228961[ebp], eax

; 646  : 
; 647  : 		if ( lpSkillUnit )

  01a4c	83 7d ec 00	 cmp	 DWORD PTR _lpSkillUnit$228961[ebp], 0
  01a50	74 12		 je	 SHORT $LN1@ApplyEleme@8

; 648  : 		{
; 649  : 			lpSkillUnit->RunSkill(iIndex, lpTargetObj->m_Index);

  01a52	8b 45 f0	 mov	 eax, DWORD PTR _lpTargetObj$228959[ebp]
  01a55	8b 08		 mov	 ecx, DWORD PTR [eax]
  01a57	51		 push	 ecx
  01a58	8b 55 08	 mov	 edx, DWORD PTR _iIndex$[ebp]
  01a5b	52		 push	 edx
  01a5c	8b 4d ec	 mov	 ecx, DWORD PTR _lpSkillUnit$228961[ebp]
  01a5f	e8 00 00 00 00	 call	 ?RunSkill@TMonsterSkillUnit@@QAEXHH@Z ; TMonsterSkillUnit::RunSkill
$LN1@ApplyEleme@8:

; 650  : 		}
; 651  : 
; 652  : 		UTIL.SendCrywolfChattingMsg(iIndex, " HP : %d", (int)lpTargetObj->Life);

  01a64	8b 45 f0	 mov	 eax, DWORD PTR _lpTargetObj$228959[ebp]
  01a67	d9 80 fc 00 00
	00		 fld	 DWORD PTR [eax+252]
  01a6d	e8 00 00 00 00	 call	 __ftol2_sse
  01a72	50		 push	 eax
  01a73	68 00 00 00 00	 push	 OFFSET ??_C@_0BB@NPDGGOME@?$LB?W?$LH?l?D?$KB?$LH?a?5HP?5?3?5?$CFd?$AA@
  01a78	8b 4d 08	 mov	 ecx, DWORD PTR _iIndex$[ebp]
  01a7b	51		 push	 ecx
  01a7c	68 00 00 00 00	 push	 OFFSET _UTIL
  01a81	e8 00 00 00 00	 call	 ?SendCrywolfChattingMsg@CCrywolfUtil@@QAAXHPADZZ ; CCrywolfUtil::SendCrywolfChattingMsg
  01a86	83 c4 10	 add	 esp, 16			; 00000010H

; 653  : 		UTIL.SendCrywolfChattingMsg(lpTargetObj->m_Index, "HP : %d", (int)lpTargetObj->Life);

  01a89	8b 45 f0	 mov	 eax, DWORD PTR _lpTargetObj$228959[ebp]
  01a8c	d9 80 fc 00 00
	00		 fld	 DWORD PTR [eax+252]
  01a92	e8 00 00 00 00	 call	 __ftol2_sse
  01a97	50		 push	 eax
  01a98	68 00 00 00 00	 push	 OFFSET ??_C@_07DAGIDAPO@HP?5?3?5?$CFd?$AA@
  01a9d	8b 4d f0	 mov	 ecx, DWORD PTR _lpTargetObj$228959[ebp]
  01aa0	8b 11		 mov	 edx, DWORD PTR [ecx]
  01aa2	52		 push	 edx
  01aa3	68 00 00 00 00	 push	 OFFSET _UTIL
  01aa8	e8 00 00 00 00	 call	 ?SendCrywolfChattingMsg@CCrywolfUtil@@QAAXHPADZZ ; CCrywolfUtil::SendCrywolfChattingMsg
  01aad	83 c4 10	 add	 esp, 16			; 00000010H
$LN3@ApplyEleme@8:

; 654  : 	}
; 655  : 
; 656  : 	return FALSE;

  01ab0	33 c0		 xor	 eax, eax
$LN4@ApplyEleme@8:

; 657  : }

  01ab2	5f		 pop	 edi
  01ab3	5e		 pop	 esi
  01ab4	5b		 pop	 ebx
  01ab5	8b e5		 mov	 esp, ebp
  01ab7	5d		 pop	 ebp
  01ab8	c2 0c 00	 ret	 12			; 0000000cH
?ApplyElementHealGroup@TMonsterAIElement@@QAEHHHPAVTMonsterAIState@@@Z ENDP ; TMonsterAIElement::ApplyElementHealGroup
_TEXT	ENDS
PUBLIC	??_C@_0BB@BOAFABMO@Element?9?F?$KP?$LM?v?$LM?R?H?$KP?$AA@ ; `string'
EXTRN	?FindGroupMemberToSommon@TMonsterAIGroup@@SAPAVTMonsterAIGroupMember@@HHH@Z:PROC ; TMonsterAIGroup::FindGroupMemberToSommon
;	COMDAT ??_C@_0BB@BOAFABMO@Element?9?F?$KP?$LM?v?$LM?R?H?$KP?$AA@
CONST	SEGMENT
??_C@_0BB@BOAFABMO@Element?9?F?$KP?$LM?v?$LM?R?H?$KP?$AA@ DB 'Element-', 0c6H
	DB	0afH, 0bcH, 0f6H, 0bcH, 0d2H, 0c8H, 0afH, 00H ; `string'
; Function compile flags: /Odtp /ZI
CONST	ENDS
_TEXT	SEGMENT
_lpSkillUnit$228978 = -20				; size = 4
_lpTargetObj$228976 = -16				; size = 4
_pMemb$ = -12						; size = 4
_lpObj$ = -8						; size = 4
_this$ = -4						; size = 4
_iIndex$ = 8						; size = 4
_iTargetIndex$ = 12					; size = 4
_pAIState$ = 16						; size = 4
?ApplyElementSpecialSommon@TMonsterAIElement@@QAEHHHPAVTMonsterAIState@@@Z PROC ; TMonsterAIElement::ApplyElementSpecialSommon
; _this$ = ecx

; 660  : {

  01ac0	55		 push	 ebp
  01ac1	8b ec		 mov	 ebp, esp
  01ac3	83 ec 54	 sub	 esp, 84			; 00000054H
  01ac6	53		 push	 ebx
  01ac7	56		 push	 esi
  01ac8	57		 push	 edi
  01ac9	89 4d fc	 mov	 DWORD PTR _this$[ebp], ecx

; 661  : 	LPOBJ lpObj = &gObj[iIndex];

  01acc	8b 45 08	 mov	 eax, DWORD PTR _iIndex$[ebp]
  01acf	69 c0 38 2b 00
	00		 imul	 eax, 11064		; 00002b38H
  01ad5	03 05 00 00 00
	00		 add	 eax, DWORD PTR ?gObj@@3PAUOBJECTSTRUCT@@A ; gObj
  01adb	89 45 f8	 mov	 DWORD PTR _lpObj$[ebp], eax

; 662  : 	UTIL.SendCrywolfChattingMsg(iIndex, "Element-");

  01ade	68 00 00 00 00	 push	 OFFSET ??_C@_0BB@BOAFABMO@Element?9?F?$KP?$LM?v?$LM?R?H?$KP?$AA@
  01ae3	8b 45 08	 mov	 eax, DWORD PTR _iIndex$[ebp]
  01ae6	50		 push	 eax
  01ae7	68 00 00 00 00	 push	 OFFSET _UTIL
  01aec	e8 00 00 00 00	 call	 ?SendCrywolfChattingMsg@CCrywolfUtil@@QAAXHPADZZ ; CCrywolfUtil::SendCrywolfChattingMsg
  01af1	83 c4 0c	 add	 esp, 12			; 0000000cH

; 663  : 	TMonsterAIGroupMember * pMemb = TMonsterAIGroup::FindGroupMemberToSommon(lpObj->m_Index, lpObj->m_iGroupNumber, lpObj->m_iGroupMemberGuid);

  01af4	8b 45 f8	 mov	 eax, DWORD PTR _lpObj$[ebp]
  01af7	8b 88 8c 1c 00
	00		 mov	 ecx, DWORD PTR [eax+7308]
  01afd	51		 push	 ecx
  01afe	8b 55 f8	 mov	 edx, DWORD PTR _lpObj$[ebp]
  01b01	8b 82 84 1c 00
	00		 mov	 eax, DWORD PTR [edx+7300]
  01b07	50		 push	 eax
  01b08	8b 4d f8	 mov	 ecx, DWORD PTR _lpObj$[ebp]
  01b0b	8b 11		 mov	 edx, DWORD PTR [ecx]
  01b0d	52		 push	 edx
  01b0e	e8 00 00 00 00	 call	 ?FindGroupMemberToSommon@TMonsterAIGroup@@SAPAVTMonsterAIGroupMember@@HHH@Z ; TMonsterAIGroup::FindGroupMemberToSommon
  01b13	83 c4 0c	 add	 esp, 12			; 0000000cH
  01b16	89 45 f4	 mov	 DWORD PTR _pMemb$[ebp], eax

; 664  : 
; 665  : 	if ( pMemb )

  01b19	83 7d f4 00	 cmp	 DWORD PTR _pMemb$[ebp], 0
  01b1d	74 4f		 je	 SHORT $LN3@ApplyEleme@9

; 666  : 	{
; 667  : 		LPOBJ lpTargetObj = &gObj[pMemb->m_iObjIndex];

  01b1f	8b 45 f4	 mov	 eax, DWORD PTR _pMemb$[ebp]
  01b22	8b 48 3c	 mov	 ecx, DWORD PTR [eax+60]
  01b25	69 c9 38 2b 00
	00		 imul	 ecx, 11064		; 00002b38H
  01b2b	03 0d 00 00 00
	00		 add	 ecx, DWORD PTR ?gObj@@3PAUOBJECTSTRUCT@@A ; gObj
  01b31	89 4d f0	 mov	 DWORD PTR _lpTargetObj$228976[ebp], ecx

; 668  : 
; 669  : 		if ( lpTargetObj->Live != 0 )

  01b34	8b 45 f0	 mov	 eax, DWORD PTR _lpTargetObj$228976[ebp]
  01b37	0f b6 48 6a	 movzx	 ecx, BYTE PTR [eax+106]
  01b3b	85 c9		 test	 ecx, ecx
  01b3d	74 04		 je	 SHORT $LN2@ApplyEleme@9

; 670  : 			return FALSE;

  01b3f	33 c0		 xor	 eax, eax
  01b41	eb 2d		 jmp	 SHORT $LN4@ApplyEleme@9
$LN2@ApplyEleme@9:

; 671  : 
; 672  : 		TMonsterSkillUnit * lpSkillUnit = TMonsterSkillManager::FindMonsterSkillUnit(lpObj->m_Index, 30);

  01b43	6a 1e		 push	 30			; 0000001eH
  01b45	8b 45 f8	 mov	 eax, DWORD PTR _lpObj$[ebp]
  01b48	8b 08		 mov	 ecx, DWORD PTR [eax]
  01b4a	51		 push	 ecx
  01b4b	e8 00 00 00 00	 call	 ?FindMonsterSkillUnit@TMonsterSkillManager@@SAPAVTMonsterSkillUnit@@HH@Z ; TMonsterSkillManager::FindMonsterSkillUnit
  01b50	83 c4 08	 add	 esp, 8
  01b53	89 45 ec	 mov	 DWORD PTR _lpSkillUnit$228978[ebp], eax

; 673  : 
; 674  : 		if ( lpSkillUnit )

  01b56	83 7d ec 00	 cmp	 DWORD PTR _lpSkillUnit$228978[ebp], 0
  01b5a	74 12		 je	 SHORT $LN3@ApplyEleme@9

; 675  : 		{
; 676  : 			lpSkillUnit->RunSkill(iIndex, lpTargetObj->m_Index);

  01b5c	8b 45 f0	 mov	 eax, DWORD PTR _lpTargetObj$228976[ebp]
  01b5f	8b 08		 mov	 ecx, DWORD PTR [eax]
  01b61	51		 push	 ecx
  01b62	8b 55 08	 mov	 edx, DWORD PTR _iIndex$[ebp]
  01b65	52		 push	 edx
  01b66	8b 4d ec	 mov	 ecx, DWORD PTR _lpSkillUnit$228978[ebp]
  01b69	e8 00 00 00 00	 call	 ?RunSkill@TMonsterSkillUnit@@QAEXHH@Z ; TMonsterSkillUnit::RunSkill
$LN3@ApplyEleme@9:

; 677  : 		}
; 678  : 	}
; 679  : 
; 680  : 	return FALSE;

  01b6e	33 c0		 xor	 eax, eax
$LN4@ApplyEleme@9:

; 681  : }

  01b70	5f		 pop	 edi
  01b71	5e		 pop	 esi
  01b72	5b		 pop	 ebx
  01b73	8b e5		 mov	 esp, ebp
  01b75	5d		 pop	 ebp
  01b76	c2 0c 00	 ret	 12			; 0000000cH
?ApplyElementSpecialSommon@TMonsterAIElement@@QAEHHHPAVTMonsterAIState@@@Z ENDP ; TMonsterAIElement::ApplyElementSpecialSommon
; Function compile flags: /Odtp /ZI
_lpObj$ = -8						; size = 4
_this$ = -4						; size = 4
_iIndex$ = 8						; size = 4
_iTargetIndex$ = 12					; size = 4
_pAIState$ = 16						; size = 4
?ApplyElementSpecialImmune@TMonsterAIElement@@QAEHHHPAVTMonsterAIState@@@Z PROC ; TMonsterAIElement::ApplyElementSpecialImmune
; _this$ = ecx

; 684  : {

  01b80	55		 push	 ebp
  01b81	8b ec		 mov	 ebp, esp
  01b83	83 ec 48	 sub	 esp, 72			; 00000048H
  01b86	53		 push	 ebx
  01b87	56		 push	 esi
  01b88	57		 push	 edi
  01b89	89 4d fc	 mov	 DWORD PTR _this$[ebp], ecx

; 685  : 	LPOBJ lpObj = &gObj[iIndex];

  01b8c	8b 45 08	 mov	 eax, DWORD PTR _iIndex$[ebp]
  01b8f	69 c0 38 2b 00
	00		 imul	 eax, 11064		; 00002b38H
  01b95	03 05 00 00 00
	00		 add	 eax, DWORD PTR ?gObj@@3PAUOBJECTSTRUCT@@A ; gObj
  01b9b	89 45 f8	 mov	 DWORD PTR _lpObj$[ebp], eax

; 686  : 	
; 687  : 	if ( this->m_iX < 1 )

  01b9e	8b 45 fc	 mov	 eax, DWORD PTR _this$[ebp]
  01ba1	83 78 50 01	 cmp	 DWORD PTR [eax+80], 1
  01ba5	7d 0a		 jge	 SHORT $LN2@ApplyEleme@10

; 688  : 		this->m_iX = 10;

  01ba7	8b 45 fc	 mov	 eax, DWORD PTR _this$[ebp]
  01baa	c7 40 50 0a 00
	00 00		 mov	 DWORD PTR [eax+80], 10	; 0000000aH
$LN2@ApplyEleme@10:

; 689  : 
; 690  : 	if ( this->m_iY < 1 )

  01bb1	8b 45 fc	 mov	 eax, DWORD PTR _this$[ebp]
  01bb4	83 78 54 01	 cmp	 DWORD PTR [eax+84], 1
  01bb8	7d 0a		 jge	 SHORT $LN1@ApplyEleme@10

; 691  : 		this->m_iY = 10;

  01bba	8b 45 fc	 mov	 eax, DWORD PTR _this$[ebp]
  01bbd	c7 40 54 0a 00
	00 00		 mov	 DWORD PTR [eax+84], 10	; 0000000aH
$LN1@ApplyEleme@10:

; 692  : 
; 693  : 	gObjApplyBuffEffectDuration(lpObj, AT_IMMUNE_MAGIC, 0, 0, 0, 0, this->m_iX); //season3 add-on

  01bc4	8b 45 fc	 mov	 eax, DWORD PTR _this$[ebp]
  01bc7	8b 48 50	 mov	 ecx, DWORD PTR [eax+80]
  01bca	51		 push	 ecx
  01bcb	6a 00		 push	 0
  01bcd	6a 00		 push	 0
  01bcf	6a 00		 push	 0
  01bd1	6a 00		 push	 0
  01bd3	6a 3f		 push	 63			; 0000003fH
  01bd5	8b 55 f8	 mov	 edx, DWORD PTR _lpObj$[ebp]
  01bd8	52		 push	 edx
  01bd9	e8 00 00 00 00	 call	 ?gObjApplyBuffEffectDuration@@YAEPAUOBJECTSTRUCT@@HEHEHH@Z ; gObjApplyBuffEffectDuration
  01bde	83 c4 1c	 add	 esp, 28			; 0000001cH

; 694  : 	gObjApplyBuffEffectDuration(lpObj, AT_IMMUNE_HARM, 0, 0, 0, 0, this->m_iY); //season3 add-on

  01be1	8b 45 fc	 mov	 eax, DWORD PTR _this$[ebp]
  01be4	8b 48 54	 mov	 ecx, DWORD PTR [eax+84]
  01be7	51		 push	 ecx
  01be8	6a 00		 push	 0
  01bea	6a 00		 push	 0
  01bec	6a 00		 push	 0
  01bee	6a 00		 push	 0
  01bf0	6a 40		 push	 64			; 00000040H
  01bf2	8b 55 f8	 mov	 edx, DWORD PTR _lpObj$[ebp]
  01bf5	52		 push	 edx
  01bf6	e8 00 00 00 00	 call	 ?gObjApplyBuffEffectDuration@@YAEPAUOBJECTSTRUCT@@HEHEHH@Z ; gObjApplyBuffEffectDuration
  01bfb	83 c4 1c	 add	 esp, 28			; 0000001cH

; 695  : 
; 696  : 	return FALSE;

  01bfe	33 c0		 xor	 eax, eax

; 697  : }

  01c00	5f		 pop	 edi
  01c01	5e		 pop	 esi
  01c02	5b		 pop	 ebx
  01c03	8b e5		 mov	 esp, ebp
  01c05	5d		 pop	 ebp
  01c06	c2 0c 00	 ret	 12			; 0000000cH
?ApplyElementSpecialImmune@TMonsterAIElement@@QAEHHHPAVTMonsterAIState@@@Z ENDP ; TMonsterAIElement::ApplyElementSpecialImmune
_TEXT	ENDS
EXTRN	?SetKanturuMonster@CKanturuMonsterMng@@QAEHH@Z:PROC ; CKanturuMonsterMng::SetKanturuMonster
EXTRN	?g_KanturuMonsterMng@@3VCKanturuMonsterMng@@A:BYTE ; g_KanturuMonsterMng
EXTRN	?GCUseMonsterSkillSend@@YAXPAUOBJECTSTRUCT@@0H@Z:PROC ; GCUseMonsterSkillSend
; Function compile flags: /Odtp /ZI
_TEXT	SEGMENT
_iRegenMonster$228999 = -16				; size = 4
_lpSkillUnit$ = -12					; size = 4
_lpObj$ = -8						; size = 4
_this$ = -4						; size = 4
_iIndex$ = 8						; size = 4
_iTargetIndex$ = 12					; size = 4
_pAIState$ = 16						; size = 4
?ApplyElementNightmareSummon@TMonsterAIElement@@QAEHHHPAVTMonsterAIState@@@Z PROC ; TMonsterAIElement::ApplyElementNightmareSummon
; _this$ = ecx

; 700  : {

  01c10	55		 push	 ebp
  01c11	8b ec		 mov	 ebp, esp
  01c13	83 ec 50	 sub	 esp, 80			; 00000050H
  01c16	53		 push	 ebx
  01c17	56		 push	 esi
  01c18	57		 push	 edi
  01c19	89 4d fc	 mov	 DWORD PTR _this$[ebp], ecx

; 701  : 	LPOBJ lpObj = &gObj[iIndex];

  01c1c	8b 45 08	 mov	 eax, DWORD PTR _iIndex$[ebp]
  01c1f	69 c0 38 2b 00
	00		 imul	 eax, 11064		; 00002b38H
  01c25	03 05 00 00 00
	00		 add	 eax, DWORD PTR ?gObj@@3PAUOBJECTSTRUCT@@A ; gObj
  01c2b	89 45 f8	 mov	 DWORD PTR _lpObj$[ebp], eax

; 702  : 
; 703  : 	if ( lpObj->TargetNumber == -1 )

  01c2e	8b 45 f8	 mov	 eax, DWORD PTR _lpObj$[ebp]
  01c31	0f bf 88 58 04
	00 00		 movsx	 ecx, WORD PTR [eax+1112]
  01c38	83 f9 ff	 cmp	 ecx, -1
  01c3b	75 08		 jne	 SHORT $LN2@ApplyEleme@11

; 704  : 		iTargetIndex = lpObj->m_Index;

  01c3d	8b 45 f8	 mov	 eax, DWORD PTR _lpObj$[ebp]
  01c40	8b 08		 mov	 ecx, DWORD PTR [eax]
  01c42	89 4d 0c	 mov	 DWORD PTR _iTargetIndex$[ebp], ecx
$LN2@ApplyEleme@11:

; 705  : 
; 706  : 	iTargetIndex = lpObj->TargetNumber;

  01c45	8b 45 f8	 mov	 eax, DWORD PTR _lpObj$[ebp]
  01c48	0f bf 88 58 04
	00 00		 movsx	 ecx, WORD PTR [eax+1112]
  01c4f	89 4d 0c	 mov	 DWORD PTR _iTargetIndex$[ebp], ecx

; 707  : 	TMonsterSkillUnit * lpSkillUnit = TMonsterSkillManager::FindMonsterSkillUnit(lpObj->m_Index, 30); 

  01c52	6a 1e		 push	 30			; 0000001eH
  01c54	8b 45 f8	 mov	 eax, DWORD PTR _lpObj$[ebp]
  01c57	8b 08		 mov	 ecx, DWORD PTR [eax]
  01c59	51		 push	 ecx
  01c5a	e8 00 00 00 00	 call	 ?FindMonsterSkillUnit@TMonsterSkillManager@@SAPAVTMonsterSkillUnit@@HH@Z ; TMonsterSkillManager::FindMonsterSkillUnit
  01c5f	83 c4 08	 add	 esp, 8
  01c62	89 45 f4	 mov	 DWORD PTR _lpSkillUnit$[ebp], eax

; 708  : 
; 709  : 	if ( lpSkillUnit )

  01c65	83 7d f4 00	 cmp	 DWORD PTR _lpSkillUnit$[ebp], 0
  01c69	74 3e		 je	 SHORT $LN1@ApplyEleme@11

; 710  : 	{
; 711  : 		GCUseMonsterSkillSend(&gObj[iIndex], &gObj[iTargetIndex], lpSkillUnit->m_iUnitNumber);

  01c6b	8b 45 f4	 mov	 eax, DWORD PTR _lpSkillUnit$[ebp]
  01c6e	8b 48 18	 mov	 ecx, DWORD PTR [eax+24]
  01c71	51		 push	 ecx
  01c72	8b 55 0c	 mov	 edx, DWORD PTR _iTargetIndex$[ebp]
  01c75	69 d2 38 2b 00
	00		 imul	 edx, 11064		; 00002b38H
  01c7b	03 15 00 00 00
	00		 add	 edx, DWORD PTR ?gObj@@3PAUOBJECTSTRUCT@@A ; gObj
  01c81	52		 push	 edx
  01c82	8b 45 08	 mov	 eax, DWORD PTR _iIndex$[ebp]
  01c85	69 c0 38 2b 00
	00		 imul	 eax, 11064		; 00002b38H
  01c8b	03 05 00 00 00
	00		 add	 eax, DWORD PTR ?gObj@@3PAUOBJECTSTRUCT@@A ; gObj
  01c91	50		 push	 eax
  01c92	e8 00 00 00 00	 call	 ?GCUseMonsterSkillSend@@YAXPAUOBJECTSTRUCT@@0H@Z ; GCUseMonsterSkillSend
  01c97	83 c4 0c	 add	 esp, 12			; 0000000cH

; 712  : 
; 713  : //#if(GS_CASTLE==0)
; 714  : 		int iRegenMonster = g_KanturuMonsterMng.SetKanturuMonster(6);

  01c9a	6a 06		 push	 6
  01c9c	b9 00 00 00 00	 mov	 ecx, OFFSET ?g_KanturuMonsterMng@@3VCKanturuMonsterMng@@A ; g_KanturuMonsterMng
  01ca1	e8 00 00 00 00	 call	 ?SetKanturuMonster@CKanturuMonsterMng@@QAEHH@Z ; CKanturuMonsterMng::SetKanturuMonster
  01ca6	89 45 f0	 mov	 DWORD PTR _iRegenMonster$228999[ebp], eax
$LN1@ApplyEleme@11:

; 715  : 
; 716  : 		//Missing something
; 717  : //#endif
; 718  : 		
; 719  : 	}
; 720  : 
; 721  : 	return FALSE;

  01ca9	33 c0		 xor	 eax, eax

; 722  : }

  01cab	5f		 pop	 edi
  01cac	5e		 pop	 esi
  01cad	5b		 pop	 ebx
  01cae	8b e5		 mov	 esp, ebp
  01cb0	5d		 pop	 ebp
  01cb1	c2 0c 00	 ret	 12			; 0000000cH
?ApplyElementNightmareSummon@TMonsterAIElement@@QAEHHHPAVTMonsterAIState@@@Z ENDP ; TMonsterAIElement::ApplyElementNightmareSummon
_TEXT	ENDS
PUBLIC	??_C@_0BN@GBOPBGFB@?$FL?$CFs?$FN?5Warp?5?$FL?$CFd?0?$CFd?$FN?5?9?$DO?5?$FL?$CFd?0?$CFd?$FN?$AA@ ; `string'
PUBLIC	__$ArrayPad$
EXTRN	?gObjTeleportMagicUse@@YAXHEE@Z:PROC		; gObjTeleportMagicUse
EXTRN	?MsgSendV2@@YAXPAUOBJECTSTRUCT@@PAEH@Z:PROC	; MsgSendV2
EXTRN	?PHeadSetBE@@YAXPAEEH@Z:PROC			; PHeadSetBE
;	COMDAT ??_C@_0BN@GBOPBGFB@?$FL?$CFs?$FN?5Warp?5?$FL?$CFd?0?$CFd?$FN?5?9?$DO?5?$FL?$CFd?0?$CFd?$FN?$AA@
CONST	SEGMENT
??_C@_0BN@GBOPBGFB@?$FL?$CFs?$FN?5Warp?5?$FL?$CFd?0?$CFd?$FN?5?9?$DO?5?$FL?$CFd?0?$CFd?$FN?$AA@ DB '['
	DB	'%s] Warp [%d,%d] -> [%d,%d]', 00H		; `string'
; Function compile flags: /Odtp /ZI
CONST	ENDS
_TEXT	SEGMENT
_pAttack$ = -28						; size = 9
_y$ = -14						; size = 1
_x$ = -13						; size = 1
_lpObj$ = -12						; size = 4
_this$ = -8						; size = 4
__$ArrayPad$ = -4					; size = 4
_iIndex$ = 8						; size = 4
_iTargetIndex$ = 12					; size = 4
_pAIState$ = 16						; size = 4
?ApplyElementNightmareWarp@TMonsterAIElement@@QAEHHHPAVTMonsterAIState@@@Z PROC ; TMonsterAIElement::ApplyElementNightmareWarp
; _this$ = ecx

; 725  : {

  01cc0	55		 push	 ebp
  01cc1	8b ec		 mov	 ebp, esp
  01cc3	83 ec 5c	 sub	 esp, 92			; 0000005cH
  01cc6	a1 00 00 00 00	 mov	 eax, DWORD PTR ___security_cookie
  01ccb	33 c5		 xor	 eax, ebp
  01ccd	89 45 fc	 mov	 DWORD PTR __$ArrayPad$[ebp], eax
  01cd0	53		 push	 ebx
  01cd1	56		 push	 esi
  01cd2	57		 push	 edi
  01cd3	89 4d f8	 mov	 DWORD PTR _this$[ebp], ecx

; 726  : 	LPOBJ lpObj = &gObj[iIndex];

  01cd6	8b 45 08	 mov	 eax, DWORD PTR _iIndex$[ebp]
  01cd9	69 c0 38 2b 00
	00		 imul	 eax, 11064		; 00002b38H
  01cdf	03 05 00 00 00
	00		 add	 eax, DWORD PTR ?gObj@@3PAUOBJECTSTRUCT@@A ; gObj
  01ce5	89 45 f4	 mov	 DWORD PTR _lpObj$[ebp], eax

; 727  : 
; 728  : 	BYTE x = this->m_iX;

  01ce8	8b 45 f8	 mov	 eax, DWORD PTR _this$[ebp]
  01ceb	8a 48 50	 mov	 cl, BYTE PTR [eax+80]
  01cee	88 4d f3	 mov	 BYTE PTR _x$[ebp], cl

; 729  : 	BYTE y = this->m_iY;

  01cf1	8b 45 f8	 mov	 eax, DWORD PTR _this$[ebp]
  01cf4	8a 48 54	 mov	 cl, BYTE PTR [eax+84]
  01cf7	88 4d f2	 mov	 BYTE PTR _y$[ebp], cl

; 730  : 	PMSG_MAGICATTACK_RESULT pAttack;
; 731  : 
; 732  : 	PHeadSetBE((LPBYTE)&pAttack,0x19,sizeof(pAttack));

  01cfa	6a 09		 push	 9
  01cfc	6a 19		 push	 25			; 00000019H
  01cfe	8d 45 e4	 lea	 eax, DWORD PTR _pAttack$[ebp]
  01d01	50		 push	 eax
  01d02	e8 00 00 00 00	 call	 ?PHeadSetBE@@YAXPAEEH@Z	; PHeadSetBE
  01d07	83 c4 0c	 add	 esp, 12			; 0000000cH

; 733  : 
; 734  : 	pAttack.MagicNumberH = SET_NUMBERH(6);

  01d0a	c6 45 e7 00	 mov	 BYTE PTR _pAttack$[ebp+3], 0

; 735  : 	pAttack.MagicNumberL = SET_NUMBERL(6);

  01d0e	c6 45 e8 06	 mov	 BYTE PTR _pAttack$[ebp+4], 6

; 736  : 
; 737  : 	pAttack.SourceNumberH = SET_NUMBERH(iIndex);

  01d12	8b 45 08	 mov	 eax, DWORD PTR _iIndex$[ebp]
  01d15	c1 e8 08	 shr	 eax, 8
  01d18	88 45 e9	 mov	 BYTE PTR _pAttack$[ebp+5], al

; 738  : 	pAttack.SourceNumberL = SET_NUMBERL(iIndex);

  01d1b	8b 45 08	 mov	 eax, DWORD PTR _iIndex$[ebp]
  01d1e	25 ff 00 00 00	 and	 eax, 255		; 000000ffH
  01d23	88 45 ea	 mov	 BYTE PTR _pAttack$[ebp+6], al

; 739  : 	pAttack.TargetNumberH = SET_NUMBERH(iIndex);

  01d26	8b 45 08	 mov	 eax, DWORD PTR _iIndex$[ebp]
  01d29	c1 e8 08	 shr	 eax, 8
  01d2c	88 45 eb	 mov	 BYTE PTR _pAttack$[ebp+7], al

; 740  : 	pAttack.TargetNumberL = SET_NUMBERL(iIndex);

  01d2f	8b 45 08	 mov	 eax, DWORD PTR _iIndex$[ebp]
  01d32	25 ff 00 00 00	 and	 eax, 255		; 000000ffH
  01d37	88 45 ec	 mov	 BYTE PTR _pAttack$[ebp+8], al

; 741  : 
; 742  : 	if ( lpObj->Type == OBJ_USER )

  01d3a	8b 45 f4	 mov	 eax, DWORD PTR _lpObj$[ebp]
  01d3d	0f b7 48 68	 movzx	 ecx, WORD PTR [eax+104]
  01d41	83 f9 01	 cmp	 ecx, 1
  01d44	75 15		 jne	 SHORT $LN1@ApplyEleme@12

; 743  : 		DataSend(iIndex,(LPBYTE)&pAttack,pAttack.h.size);

  01d46	0f b6 45 e5	 movzx	 eax, BYTE PTR _pAttack$[ebp+1]
  01d4a	50		 push	 eax
  01d4b	8d 4d e4	 lea	 ecx, DWORD PTR _pAttack$[ebp]
  01d4e	51		 push	 ecx
  01d4f	8b 55 08	 mov	 edx, DWORD PTR _iIndex$[ebp]
  01d52	52		 push	 edx
  01d53	e8 00 00 00 00	 call	 ?DataSend@@YAHHPAEK@Z	; DataSend
  01d58	83 c4 0c	 add	 esp, 12			; 0000000cH
$LN1@ApplyEleme@12:

; 744  : 
; 745  : 	MsgSendV2(lpObj,(LPBYTE)&pAttack,pAttack.h.size);

  01d5b	0f b6 45 e5	 movzx	 eax, BYTE PTR _pAttack$[ebp+1]
  01d5f	50		 push	 eax
  01d60	8d 4d e4	 lea	 ecx, DWORD PTR _pAttack$[ebp]
  01d63	51		 push	 ecx
  01d64	8b 55 f4	 mov	 edx, DWORD PTR _lpObj$[ebp]
  01d67	52		 push	 edx
  01d68	e8 00 00 00 00	 call	 ?MsgSendV2@@YAXPAUOBJECTSTRUCT@@PAEH@Z ; MsgSendV2
  01d6d	83 c4 0c	 add	 esp, 12			; 0000000cH

; 746  : 
; 747  : 	LogAddC(2, "[%s] Warp [%d,%d] -> [%d,%d]", lpObj->Name, lpObj->X, lpObj->Y, x, y);

  01d70	0f b6 45 f2	 movzx	 eax, BYTE PTR _y$[ebp]
  01d74	50		 push	 eax
  01d75	0f b6 4d f3	 movzx	 ecx, BYTE PTR _x$[ebp]
  01d79	51		 push	 ecx
  01d7a	8b 55 f4	 mov	 edx, DWORD PTR _lpObj$[ebp]
  01d7d	0f bf 82 46 01
	00 00		 movsx	 eax, WORD PTR [edx+326]
  01d84	50		 push	 eax
  01d85	8b 4d f4	 mov	 ecx, DWORD PTR _lpObj$[ebp]
  01d88	0f bf 91 44 01
	00 00		 movsx	 edx, WORD PTR [ecx+324]
  01d8f	52		 push	 edx
  01d90	8b 45 f4	 mov	 eax, DWORD PTR _lpObj$[ebp]
  01d93	83 c0 77	 add	 eax, 119		; 00000077H
  01d96	50		 push	 eax
  01d97	68 00 00 00 00	 push	 OFFSET ??_C@_0BN@GBOPBGFB@?$FL?$CFs?$FN?5Warp?5?$FL?$CFd?0?$CFd?$FN?5?9?$DO?5?$FL?$CFd?0?$CFd?$FN?$AA@
  01d9c	6a 02		 push	 2
  01d9e	ff 15 00 00 00
	00		 call	 DWORD PTR ?LogAddC@@3P6AXEPADZZA ; LogAddC
  01da4	83 c4 1c	 add	 esp, 28			; 0000001cH

; 748  : 
; 749  : 	gObjTeleportMagicUse(iIndex,x,y);

  01da7	0f b6 45 f2	 movzx	 eax, BYTE PTR _y$[ebp]
  01dab	50		 push	 eax
  01dac	0f b6 4d f3	 movzx	 ecx, BYTE PTR _x$[ebp]
  01db0	51		 push	 ecx
  01db1	8b 55 08	 mov	 edx, DWORD PTR _iIndex$[ebp]
  01db4	52		 push	 edx
  01db5	e8 00 00 00 00	 call	 ?gObjTeleportMagicUse@@YAXHEE@Z ; gObjTeleportMagicUse
  01dba	83 c4 0c	 add	 esp, 12			; 0000000cH

; 750  : 	lpObj->TargetNumber = -1;

  01dbd	83 c8 ff	 or	 eax, -1
  01dc0	8b 4d f4	 mov	 ecx, DWORD PTR _lpObj$[ebp]
  01dc3	66 89 81 58 04
	00 00		 mov	 WORD PTR [ecx+1112], ax

; 751  : 
; 752  : 	return FALSE;

  01dca	33 c0		 xor	 eax, eax

; 753  : }

  01dcc	5f		 pop	 edi
  01dcd	5e		 pop	 esi
  01dce	5b		 pop	 ebx
  01dcf	8b 4d fc	 mov	 ecx, DWORD PTR __$ArrayPad$[ebp]
  01dd2	33 cd		 xor	 ecx, ebp
  01dd4	e8 00 00 00 00	 call	 @__security_check_cookie@4
  01dd9	8b e5		 mov	 esp, ebp
  01ddb	5d		 pop	 ebp
  01ddc	c2 0c 00	 ret	 12			; 0000000cH
?ApplyElementNightmareWarp@TMonsterAIElement@@QAEHHHPAVTMonsterAIState@@@Z ENDP ; TMonsterAIElement::ApplyElementNightmareWarp
; Function compile flags: /Odtp /ZI
_iRandom$229049 = -32					; size = 4
_iRate3$229048 = -28					; size = 4
_iRate2$229047 = -24					; size = 4
_iRate1$229046 = -20					; size = 4
_lpTargetObj$229045 = -16				; size = 4
_bEnableAttack$229038 = -12				; size = 4
_lpObj$ = -8						; size = 4
_this$ = -4						; size = 4
_iIndex$ = 8						; size = 4
_iTargetIndex$ = 12					; size = 4
_pAIState$ = 16						; size = 4
?ApplyElementSkillAttack@TMonsterAIElement@@QAEHHHPAVTMonsterAIState@@@Z PROC ; TMonsterAIElement::ApplyElementSkillAttack
; _this$ = ecx

; 756  : {

  01de0	55		 push	 ebp
  01de1	8b ec		 mov	 ebp, esp
  01de3	83 ec 60	 sub	 esp, 96			; 00000060H
  01de6	53		 push	 ebx
  01de7	56		 push	 esi
  01de8	57		 push	 edi
  01de9	89 4d fc	 mov	 DWORD PTR _this$[ebp], ecx

; 757  : 	LPOBJ lpObj = &gObj[iIndex];

  01dec	8b 45 08	 mov	 eax, DWORD PTR _iIndex$[ebp]
  01def	69 c0 38 2b 00
	00		 imul	 eax, 11064		; 00002b38H
  01df5	03 05 00 00 00
	00		 add	 eax, DWORD PTR ?gObj@@3PAUOBJECTSTRUCT@@A ; gObj
  01dfb	89 45 f8	 mov	 DWORD PTR _lpObj$[ebp], eax

; 758  : 
; 759  : 	if ( TMonsterSkillManager::CheckMonsterSkill(lpObj->Class) )

  01dfe	8b 45 f8	 mov	 eax, DWORD PTR _lpObj$[ebp]
  01e01	0f b7 88 b8 00
	00 00		 movzx	 ecx, WORD PTR [eax+184]
  01e08	51		 push	 ecx
  01e09	e8 00 00 00 00	 call	 ?CheckMonsterSkill@TMonsterSkillManager@@SAHH@Z ; TMonsterSkillManager::CheckMonsterSkill
  01e0e	83 c4 04	 add	 esp, 4
  01e11	85 c0		 test	 eax, eax
  01e13	0f 84 8b 02 00
	00		 je	 $LN12@ApplyEleme@13

; 760  : 	{
; 761  : 		BOOL bEnableAttack = TRUE;

  01e19	c7 45 f4 01 00
	00 00		 mov	 DWORD PTR _bEnableAttack$229038[ebp], 1

; 762  : 
; 763  : 		if ( lpObj->TargetNumber < 0 ) // Season 4.5 fix

  01e20	8b 45 f8	 mov	 eax, DWORD PTR _lpObj$[ebp]
  01e23	0f bf 88 58 04
	00 00		 movsx	 ecx, WORD PTR [eax+1112]
  01e2a	85 c9		 test	 ecx, ecx
  01e2c	7d 63		 jge	 SHORT $LN11@ApplyEleme@13

; 764  : 		{
; 765  : 			lpObj->TargetNumber = -1;

  01e2e	83 c8 ff	 or	 eax, -1
  01e31	8b 4d f8	 mov	 ecx, DWORD PTR _lpObj$[ebp]
  01e34	66 89 81 58 04
	00 00		 mov	 WORD PTR [ecx+1112], ax

; 766  : 			lpObj->m_ActState.Emotion = 0;

  01e3b	8b 45 f8	 mov	 eax, DWORD PTR _lpObj$[ebp]
  01e3e	8b 88 18 02 00
	00		 mov	 ecx, DWORD PTR [eax+536]
  01e44	81 e1 0f ff ff
	ff		 and	 ecx, -241		; ffffff0fH
  01e4a	8b 55 f8	 mov	 edx, DWORD PTR _lpObj$[ebp]
  01e4d	89 8a 18 02 00
	00		 mov	 DWORD PTR [edx+536], ecx

; 767  : 			lpObj->m_ActState.Attack = 0;

  01e53	8b 45 f8	 mov	 eax, DWORD PTR _lpObj$[ebp]
  01e56	8b 88 18 02 00
	00		 mov	 ecx, DWORD PTR [eax+536]
  01e5c	83 e1 fd	 and	 ecx, -3			; fffffffdH
  01e5f	8b 55 f8	 mov	 edx, DWORD PTR _lpObj$[ebp]
  01e62	89 8a 18 02 00
	00		 mov	 DWORD PTR [edx+536], ecx

; 768  : 			lpObj->m_ActState.Move = 0;

  01e68	8b 45 f8	 mov	 eax, DWORD PTR _lpObj$[ebp]
  01e6b	8b 88 18 02 00
	00		 mov	 ecx, DWORD PTR [eax+536]
  01e71	83 e1 fb	 and	 ecx, -5			; fffffffbH
  01e74	8b 55 f8	 mov	 edx, DWORD PTR _lpObj$[ebp]
  01e77	89 8a 18 02 00
	00		 mov	 DWORD PTR [edx+536], ecx

; 769  : 			lpObj->NextActionTime = 1000;

  01e7d	8b 45 f8	 mov	 eax, DWORD PTR _lpObj$[ebp]
  01e80	c7 80 bc 03 00
	00 e8 03 00 00	 mov	 DWORD PTR [eax+956], 1000 ; 000003e8H

; 770  : 
; 771  : 			return FALSE;

  01e8a	33 c0		 xor	 eax, eax
  01e8c	e9 15 02 00 00	 jmp	 $LN13@ApplyEleme@13
$LN11@ApplyEleme@13:

; 772  : 		}
; 773  : 
; 774  : 		if ( !gObj[lpObj->TargetNumber].Live || gObj[lpObj->TargetNumber].Teleport )

  01e91	8b 45 f8	 mov	 eax, DWORD PTR _lpObj$[ebp]
  01e94	0f bf 88 58 04
	00 00		 movsx	 ecx, WORD PTR [eax+1112]
  01e9b	69 c9 38 2b 00
	00		 imul	 ecx, 11064		; 00002b38H
  01ea1	8b 15 00 00 00
	00		 mov	 edx, DWORD PTR ?gObj@@3PAUOBJECTSTRUCT@@A ; gObj
  01ea7	0f b6 44 0a 6a	 movzx	 eax, BYTE PTR [edx+ecx+106]
  01eac	85 c0		 test	 eax, eax
  01eae	74 22		 je	 SHORT $LN9@ApplyEleme@13
  01eb0	8b 45 f8	 mov	 eax, DWORD PTR _lpObj$[ebp]
  01eb3	0f bf 88 58 04
	00 00		 movsx	 ecx, WORD PTR [eax+1112]
  01eba	69 c9 38 2b 00
	00		 imul	 ecx, 11064		; 00002b38H
  01ec0	8b 15 00 00 00
	00		 mov	 edx, DWORD PTR ?gObj@@3PAUOBJECTSTRUCT@@A ; gObj
  01ec6	0f be 84 0a a0
	03 00 00	 movsx	 eax, BYTE PTR [edx+ecx+928]
  01ece	85 c0		 test	 eax, eax
  01ed0	74 07		 je	 SHORT $LN10@ApplyEleme@13
$LN9@ApplyEleme@13:

; 775  : 			bEnableAttack = FALSE;

  01ed2	c7 45 f4 00 00
	00 00		 mov	 DWORD PTR _bEnableAttack$229038[ebp], 0
$LN10@ApplyEleme@13:

; 776  : 
; 777  : 		if ( gObj[lpObj->TargetNumber].Connected <= PLAYER_LOGGED || gObj[lpObj->TargetNumber].CloseCount != -1 )

  01ed9	8b 45 f8	 mov	 eax, DWORD PTR _lpObj$[ebp]
  01edc	0f bf 88 58 04
	00 00		 movsx	 ecx, WORD PTR [eax+1112]
  01ee3	69 c9 38 2b 00
	00		 imul	 ecx, 11064		; 00002b38H
  01ee9	8b 15 00 00 00
	00		 mov	 edx, DWORD PTR ?gObj@@3PAUOBJECTSTRUCT@@A ; gObj
  01eef	83 7c 0a 04 02	 cmp	 DWORD PTR [edx+ecx+4], 2
  01ef4	7e 20		 jle	 SHORT $LN7@ApplyEleme@13
  01ef6	8b 45 f8	 mov	 eax, DWORD PTR _lpObj$[ebp]
  01ef9	0f bf 88 58 04
	00 00		 movsx	 ecx, WORD PTR [eax+1112]
  01f00	69 c9 38 2b 00
	00		 imul	 ecx, 11064		; 00002b38H
  01f06	8b 15 00 00 00
	00		 mov	 edx, DWORD PTR ?gObj@@3PAUOBJECTSTRUCT@@A ; gObj
  01f0c	0f be 44 0a 0a	 movsx	 eax, BYTE PTR [edx+ecx+10]
  01f11	83 f8 ff	 cmp	 eax, -1
  01f14	74 07		 je	 SHORT $LN8@ApplyEleme@13
$LN7@ApplyEleme@13:

; 778  : 		{
; 779  : 			bEnableAttack = FALSE;

  01f16	c7 45 f4 00 00
	00 00		 mov	 DWORD PTR _bEnableAttack$229038[ebp], 0
$LN8@ApplyEleme@13:

; 780  : 		}
; 781  : 
; 782  : 		if ( !bEnableAttack )

  01f1d	83 7d f4 00	 cmp	 DWORD PTR _bEnableAttack$229038[ebp], 0
  01f21	75 63		 jne	 SHORT $LN6@ApplyEleme@13

; 783  : 		{
; 784  : 			lpObj->TargetNumber = -1;

  01f23	83 c8 ff	 or	 eax, -1
  01f26	8b 4d f8	 mov	 ecx, DWORD PTR _lpObj$[ebp]
  01f29	66 89 81 58 04
	00 00		 mov	 WORD PTR [ecx+1112], ax

; 785  : 			lpObj->m_ActState.Emotion = 0;

  01f30	8b 45 f8	 mov	 eax, DWORD PTR _lpObj$[ebp]
  01f33	8b 88 18 02 00
	00		 mov	 ecx, DWORD PTR [eax+536]
  01f39	81 e1 0f ff ff
	ff		 and	 ecx, -241		; ffffff0fH
  01f3f	8b 55 f8	 mov	 edx, DWORD PTR _lpObj$[ebp]
  01f42	89 8a 18 02 00
	00		 mov	 DWORD PTR [edx+536], ecx

; 786  : 			lpObj->m_ActState.Attack = 0;

  01f48	8b 45 f8	 mov	 eax, DWORD PTR _lpObj$[ebp]
  01f4b	8b 88 18 02 00
	00		 mov	 ecx, DWORD PTR [eax+536]
  01f51	83 e1 fd	 and	 ecx, -3			; fffffffdH
  01f54	8b 55 f8	 mov	 edx, DWORD PTR _lpObj$[ebp]
  01f57	89 8a 18 02 00
	00		 mov	 DWORD PTR [edx+536], ecx

; 787  : 			lpObj->m_ActState.Move = 0;

  01f5d	8b 45 f8	 mov	 eax, DWORD PTR _lpObj$[ebp]
  01f60	8b 88 18 02 00
	00		 mov	 ecx, DWORD PTR [eax+536]
  01f66	83 e1 fb	 and	 ecx, -5			; fffffffbH
  01f69	8b 55 f8	 mov	 edx, DWORD PTR _lpObj$[ebp]
  01f6c	89 8a 18 02 00
	00		 mov	 DWORD PTR [edx+536], ecx

; 788  : 			lpObj->NextActionTime = 1000;

  01f72	8b 45 f8	 mov	 eax, DWORD PTR _lpObj$[ebp]
  01f75	c7 80 bc 03 00
	00 e8 03 00 00	 mov	 DWORD PTR [eax+956], 1000 ; 000003e8H

; 789  : 
; 790  : 			return FALSE;

  01f7f	33 c0		 xor	 eax, eax
  01f81	e9 20 01 00 00	 jmp	 $LN13@ApplyEleme@13
$LN6@ApplyEleme@13:

; 791  : 		}
; 792  : 
; 793  : 		LPOBJ lpTargetObj = &gObj[lpObj->TargetNumber];

  01f86	8b 45 f8	 mov	 eax, DWORD PTR _lpObj$[ebp]
  01f89	0f bf 88 58 04
	00 00		 movsx	 ecx, WORD PTR [eax+1112]
  01f90	69 c9 38 2b 00
	00		 imul	 ecx, 11064		; 00002b38H
  01f96	03 0d 00 00 00
	00		 add	 ecx, DWORD PTR ?gObj@@3PAUOBJECTSTRUCT@@A ; gObj
  01f9c	89 4d f0	 mov	 DWORD PTR _lpTargetObj$229045[ebp], ecx

; 794  : 		lpObj->Dir = GetPathPacketDirPos(lpTargetObj->X - lpObj->X, lpTargetObj->Y - lpObj->Y);

  01f9f	8b 45 f0	 mov	 eax, DWORD PTR _lpTargetObj$229045[ebp]
  01fa2	0f bf 88 46 01
	00 00		 movsx	 ecx, WORD PTR [eax+326]
  01fa9	8b 55 f8	 mov	 edx, DWORD PTR _lpObj$[ebp]
  01fac	0f bf 82 46 01
	00 00		 movsx	 eax, WORD PTR [edx+326]
  01fb3	2b c8		 sub	 ecx, eax
  01fb5	51		 push	 ecx
  01fb6	8b 4d f0	 mov	 ecx, DWORD PTR _lpTargetObj$229045[ebp]
  01fb9	0f bf 91 44 01
	00 00		 movsx	 edx, WORD PTR [ecx+324]
  01fc0	8b 45 f8	 mov	 eax, DWORD PTR _lpObj$[ebp]
  01fc3	0f bf 88 44 01
	00 00		 movsx	 ecx, WORD PTR [eax+324]
  01fca	2b d1		 sub	 edx, ecx
  01fcc	52		 push	 edx
  01fcd	e8 00 00 00 00	 call	 ?GetPathPacketDirPos@@YAEHH@Z ; GetPathPacketDirPos
  01fd2	83 c4 08	 add	 esp, 8
  01fd5	8b 55 f8	 mov	 edx, DWORD PTR _lpObj$[ebp]
  01fd8	88 82 48 01 00
	00		 mov	 BYTE PTR [edx+328], al

; 795  : 		int iRate1 = this->m_iTargetType;

  01fde	8b 45 fc	 mov	 eax, DWORD PTR _this$[ebp]
  01fe1	8b 48 4c	 mov	 ecx, DWORD PTR [eax+76]
  01fe4	89 4d ec	 mov	 DWORD PTR _iRate1$229046[ebp], ecx

; 796  : 		int iRate2 = this->m_iX;

  01fe7	8b 45 fc	 mov	 eax, DWORD PTR _this$[ebp]
  01fea	8b 48 50	 mov	 ecx, DWORD PTR [eax+80]
  01fed	89 4d e8	 mov	 DWORD PTR _iRate2$229047[ebp], ecx

; 797  : 		int iRate3 = this->m_iY;

  01ff0	8b 45 fc	 mov	 eax, DWORD PTR _this$[ebp]
  01ff3	8b 48 54	 mov	 ecx, DWORD PTR [eax+84]
  01ff6	89 4d e4	 mov	 DWORD PTR _iRate3$229048[ebp], ecx

; 798  : 		int iRandom = rand() % 100;

  01ff9	e8 00 00 00 00	 call	 _rand
  01ffe	99		 cdq
  01fff	b9 64 00 00 00	 mov	 ecx, 100		; 00000064H
  02004	f7 f9		 idiv	 ecx
  02006	89 55 e0	 mov	 DWORD PTR _iRandom$229049[ebp], edx

; 799  : 
; 800  : 		if ( iRandom < iRate1 )

  02009	8b 45 e0	 mov	 eax, DWORD PTR _iRandom$229049[ebp]
  0200c	3b 45 ec	 cmp	 eax, DWORD PTR _iRate1$229046[ebp]
  0200f	7d 21		 jge	 SHORT $LN5@ApplyEleme@13

; 801  : 			TMonsterSkillManager::UseMonsterSkill(lpObj->m_Index, lpObj->TargetNumber, 0, -1, NULL);

  02011	6a 00		 push	 0
  02013	6a ff		 push	 -1
  02015	6a 00		 push	 0
  02017	8b 45 f8	 mov	 eax, DWORD PTR _lpObj$[ebp]
  0201a	0f bf 88 58 04
	00 00		 movsx	 ecx, WORD PTR [eax+1112]
  02021	51		 push	 ecx
  02022	8b 55 f8	 mov	 edx, DWORD PTR _lpObj$[ebp]
  02025	8b 02		 mov	 eax, DWORD PTR [edx]
  02027	50		 push	 eax
  02028	e8 00 00 00 00	 call	 ?UseMonsterSkill@TMonsterSkillManager@@SAXHHHHPAVCMagicInf@@@Z ; TMonsterSkillManager::UseMonsterSkill
  0202d	83 c4 14	 add	 esp, 20			; 00000014H
  02030	eb 59		 jmp	 SHORT $LN4@ApplyEleme@13
$LN5@ApplyEleme@13:

; 802  : 		else if ( iRandom < (iRate1+iRate2) )

  02032	8b 45 ec	 mov	 eax, DWORD PTR _iRate1$229046[ebp]
  02035	03 45 e8	 add	 eax, DWORD PTR _iRate2$229047[ebp]
  02038	39 45 e0	 cmp	 DWORD PTR _iRandom$229049[ebp], eax
  0203b	7d 21		 jge	 SHORT $LN3@ApplyEleme@13

; 803  : 			TMonsterSkillManager::UseMonsterSkill(lpObj->m_Index, lpObj->TargetNumber, 1, -1, NULL);

  0203d	6a 00		 push	 0
  0203f	6a ff		 push	 -1
  02041	6a 01		 push	 1
  02043	8b 45 f8	 mov	 eax, DWORD PTR _lpObj$[ebp]
  02046	0f bf 88 58 04
	00 00		 movsx	 ecx, WORD PTR [eax+1112]
  0204d	51		 push	 ecx
  0204e	8b 55 f8	 mov	 edx, DWORD PTR _lpObj$[ebp]
  02051	8b 02		 mov	 eax, DWORD PTR [edx]
  02053	50		 push	 eax
  02054	e8 00 00 00 00	 call	 ?UseMonsterSkill@TMonsterSkillManager@@SAXHHHHPAVCMagicInf@@@Z ; TMonsterSkillManager::UseMonsterSkill
  02059	83 c4 14	 add	 esp, 20			; 00000014H
  0205c	eb 2d		 jmp	 SHORT $LN4@ApplyEleme@13
$LN3@ApplyEleme@13:

; 804  : 		else if ( iRandom < (iRate1+iRate2+iRate3) )

  0205e	8b 45 ec	 mov	 eax, DWORD PTR _iRate1$229046[ebp]
  02061	03 45 e8	 add	 eax, DWORD PTR _iRate2$229047[ebp]
  02064	03 45 e4	 add	 eax, DWORD PTR _iRate3$229048[ebp]
  02067	39 45 e0	 cmp	 DWORD PTR _iRandom$229049[ebp], eax
  0206a	7d 1f		 jge	 SHORT $LN4@ApplyEleme@13

; 805  : 			TMonsterSkillManager::UseMonsterSkill(lpObj->m_Index, lpObj->TargetNumber, 2, -1, NULL);

  0206c	6a 00		 push	 0
  0206e	6a ff		 push	 -1
  02070	6a 02		 push	 2
  02072	8b 45 f8	 mov	 eax, DWORD PTR _lpObj$[ebp]
  02075	0f bf 88 58 04
	00 00		 movsx	 ecx, WORD PTR [eax+1112]
  0207c	51		 push	 ecx
  0207d	8b 55 f8	 mov	 edx, DWORD PTR _lpObj$[ebp]
  02080	8b 02		 mov	 eax, DWORD PTR [edx]
  02082	50		 push	 eax
  02083	e8 00 00 00 00	 call	 ?UseMonsterSkill@TMonsterSkillManager@@SAXHHHHPAVCMagicInf@@@Z ; TMonsterSkillManager::UseMonsterSkill
  02088	83 c4 14	 add	 esp, 20			; 00000014H
$LN4@ApplyEleme@13:

; 806  : 
; 807  : 		lpObj->m_ActState.Attack = 0;

  0208b	8b 45 f8	 mov	 eax, DWORD PTR _lpObj$[ebp]
  0208e	8b 88 18 02 00
	00		 mov	 ecx, DWORD PTR [eax+536]
  02094	83 e1 fd	 and	 ecx, -3			; fffffffdH
  02097	8b 55 f8	 mov	 edx, DWORD PTR _lpObj$[ebp]
  0209a	89 8a 18 02 00
	00		 mov	 DWORD PTR [edx+536], ecx

; 808  : 		return FALSE;

  020a0	33 c0		 xor	 eax, eax
  020a2	eb 02		 jmp	 SHORT $LN13@ApplyEleme@13
$LN12@ApplyEleme@13:

; 809  : 	}
; 810  : 
; 811  : 	return FALSE;

  020a4	33 c0		 xor	 eax, eax
$LN13@ApplyEleme@13:

; 812  : }

  020a6	5f		 pop	 edi
  020a7	5e		 pop	 esi
  020a8	5b		 pop	 ebx
  020a9	8b e5		 mov	 esp, ebp
  020ab	5d		 pop	 ebp
  020ac	c2 0c 00	 ret	 12			; 0000000cH
?ApplyElementSkillAttack@TMonsterAIElement@@QAEHHHPAVTMonsterAIState@@@Z ENDP ; TMonsterAIElement::ApplyElementSkillAttack
_TEXT	ENDS
PUBLIC	??_C@_0CB@HBIKMLEF@?$FLAI?5Change?$FN?5Group?5?$CFd?5AI?5Order?5?$CFd@ ; `string'
EXTRN	?ChangeAIOrder@TMonsterAIGroup@@SAXHH@Z:PROC	; TMonsterAIGroup::ChangeAIOrder
;	COMDAT ??_C@_0CB@HBIKMLEF@?$FLAI?5Change?$FN?5Group?5?$CFd?5AI?5Order?5?$CFd@
CONST	SEGMENT
??_C@_0CB@HBIKMLEF@?$FLAI?5Change?$FN?5Group?5?$CFd?5AI?5Order?5?$CFd@ DB '['
	DB	'AI Change] Group %d AI Order %d', 00H	; `string'
; Function compile flags: /Odtp /ZI
CONST	ENDS
_TEXT	SEGMENT
_this$ = -4						; size = 4
_iIndex$ = 8						; size = 4
_iTargetIndex$ = 12					; size = 4
_pAIState$ = 16						; size = 4
?ApplyElementAIChange@TMonsterAIElement@@QAEHHHPAVTMonsterAIState@@@Z PROC ; TMonsterAIElement::ApplyElementAIChange
; _this$ = ecx

; 815  : {

  020b0	55		 push	 ebp
  020b1	8b ec		 mov	 ebp, esp
  020b3	83 ec 44	 sub	 esp, 68			; 00000044H
  020b6	53		 push	 ebx
  020b7	56		 push	 esi
  020b8	57		 push	 edi
  020b9	89 4d fc	 mov	 DWORD PTR _this$[ebp], ecx

; 816  : 	TMonsterAIGroup::ChangeAIOrder(this->m_iTargetType, this->m_iX);

  020bc	8b 45 fc	 mov	 eax, DWORD PTR _this$[ebp]
  020bf	8b 48 50	 mov	 ecx, DWORD PTR [eax+80]
  020c2	51		 push	 ecx
  020c3	8b 55 fc	 mov	 edx, DWORD PTR _this$[ebp]
  020c6	8b 42 4c	 mov	 eax, DWORD PTR [edx+76]
  020c9	50		 push	 eax
  020ca	e8 00 00 00 00	 call	 ?ChangeAIOrder@TMonsterAIGroup@@SAXHH@Z ; TMonsterAIGroup::ChangeAIOrder
  020cf	83 c4 08	 add	 esp, 8

; 817  : 
; 818  : 	LogAddC(2, "[AI Change] Group %d AI Order %d", this->m_iTargetType, this->m_iX);

  020d2	8b 45 fc	 mov	 eax, DWORD PTR _this$[ebp]
  020d5	8b 48 50	 mov	 ecx, DWORD PTR [eax+80]
  020d8	51		 push	 ecx
  020d9	8b 55 fc	 mov	 edx, DWORD PTR _this$[ebp]
  020dc	8b 42 4c	 mov	 eax, DWORD PTR [edx+76]
  020df	50		 push	 eax
  020e0	68 00 00 00 00	 push	 OFFSET ??_C@_0CB@HBIKMLEF@?$FLAI?5Change?$FN?5Group?5?$CFd?5AI?5Order?5?$CFd@
  020e5	6a 02		 push	 2
  020e7	ff 15 00 00 00
	00		 call	 DWORD PTR ?LogAddC@@3P6AXEPADZZA ; LogAddC
  020ed	83 c4 10	 add	 esp, 16			; 00000010H

; 819  : 
; 820  : 	return FALSE;

  020f0	33 c0		 xor	 eax, eax

; 821  : }

  020f2	5f		 pop	 edi
  020f3	5e		 pop	 esi
  020f4	5b		 pop	 ebx
  020f5	8b e5		 mov	 esp, ebp
  020f7	5d		 pop	 ebp
  020f8	c2 0c 00	 ret	 12			; 0000000cH
?ApplyElementAIChange@TMonsterAIElement@@QAEHHHPAVTMonsterAIState@@@Z ENDP ; TMonsterAIElement::ApplyElementAIChange
_TEXT	ENDS
PUBLIC	_sqrtf
; Function compile flags: /Odtp /ZI
; File d:\microsoft visual studio 10.0\vc\include\math.h
;	COMDAT ?sqrt@@YAMM@Z
_TEXT	SEGMENT
__X$ = 8						; size = 4
?sqrt@@YAMM@Z PROC					; sqrt, COMDAT

; 542  :         {return (sqrtf(_X)); }

  00000	55		 push	 ebp
  00001	8b ec		 mov	 ebp, esp
  00003	83 ec 40	 sub	 esp, 64			; 00000040H
  00006	53		 push	 ebx
  00007	56		 push	 esi
  00008	57		 push	 edi
  00009	51		 push	 ecx
  0000a	d9 45 08	 fld	 DWORD PTR __X$[ebp]
  0000d	d9 1c 24	 fstp	 DWORD PTR [esp]
  00010	e8 00 00 00 00	 call	 _sqrtf
  00015	83 c4 04	 add	 esp, 4
  00018	5f		 pop	 edi
  00019	5e		 pop	 esi
  0001a	5b		 pop	 ebx
  0001b	8b e5		 mov	 esp, ebp
  0001d	5d		 pop	 ebp
  0001e	c3		 ret	 0
?sqrt@@YAMM@Z ENDP					; sqrt
; Function compile flags: /Odtp /ZI
_TEXT	ENDS
;	COMDAT _sqrtf
_TEXT	SEGMENT
tv73 = -68						; size = 4
__X$ = 8						; size = 4
_sqrtf	PROC						; COMDAT

; 434  :         {return ((float)sqrt((double)_X)); }

  00000	55		 push	 ebp
  00001	8b ec		 mov	 ebp, esp
  00003	83 ec 44	 sub	 esp, 68			; 00000044H
  00006	53		 push	 ebx
  00007	56		 push	 esi
  00008	57		 push	 edi
  00009	d9 45 08	 fld	 DWORD PTR __X$[ebp]
  0000c	83 ec 08	 sub	 esp, 8
  0000f	dd 1c 24	 fstp	 QWORD PTR [esp]
  00012	e8 00 00 00 00	 call	 _sqrt
  00017	83 c4 08	 add	 esp, 8
  0001a	d9 5d bc	 fstp	 DWORD PTR tv73[ebp]
  0001d	d9 45 bc	 fld	 DWORD PTR tv73[ebp]
  00020	5f		 pop	 edi
  00021	5e		 pop	 esi
  00022	5b		 pop	 ebx
  00023	8b e5		 mov	 esp, ebp
  00025	5d		 pop	 ebp
  00026	c3		 ret	 0
_sqrtf	ENDP
_TEXT	ENDS
EXTRN	_atexit:PROC
EXTRN	??0CKanturuUtil@@QAE@XZ:PROC			; CKanturuUtil::CKanturuUtil
; Function compile flags: /Odtp /ZI
; File d:\projects\exteam6.3\source\gameserver\gameserver\tmonsteraielement.cpp
;	COMDAT ??__EKANTURU_UTIL@@YAXXZ
text$yc	SEGMENT
??__EKANTURU_UTIL@@YAXXZ PROC				; `dynamic initializer for 'KANTURU_UTIL'', COMDAT

; 18   : static CKanturuUtil KANTURU_UTIL;

  00000	55		 push	 ebp
  00001	8b ec		 mov	 ebp, esp
  00003	83 ec 40	 sub	 esp, 64			; 00000040H
  00006	53		 push	 ebx
  00007	56		 push	 esi
  00008	57		 push	 edi
  00009	b9 00 00 00 00	 mov	 ecx, OFFSET _KANTURU_UTIL
  0000e	e8 00 00 00 00	 call	 ??0CKanturuUtil@@QAE@XZ	; CKanturuUtil::CKanturuUtil
  00013	68 00 00 00 00	 push	 OFFSET ??__FKANTURU_UTIL@@YAXXZ ; `dynamic atexit destructor for 'KANTURU_UTIL''
  00018	e8 00 00 00 00	 call	 _atexit
  0001d	83 c4 04	 add	 esp, 4
  00020	5f		 pop	 edi
  00021	5e		 pop	 esi
  00022	5b		 pop	 ebx
  00023	8b e5		 mov	 esp, ebp
  00025	5d		 pop	 ebp
  00026	c3		 ret	 0
??__EKANTURU_UTIL@@YAXXZ ENDP				; `dynamic initializer for 'KANTURU_UTIL''
text$yc	ENDS
EXTRN	??_L@YGXPAXIHP6EX0@Z1@Z:PROC			; `eh vector constructor iterator'
; Function compile flags: /Odtp /ZI
;	COMDAT ??__E?s_MonsterAIElementArray@TMonsterAIElement@@2PAV1@A@@YAXXZ
text$yc	SEGMENT
??__E?s_MonsterAIElementArray@TMonsterAIElement@@2PAV1@A@@YAXXZ PROC ; `dynamic initializer for 'TMonsterAIElement::s_MonsterAIElementArray'', COMDAT

; 21   : TMonsterAIElement TMonsterAIElement::s_MonsterAIElementArray[MAX_AI_ELEMENT];

  00000	55		 push	 ebp
  00001	8b ec		 mov	 ebp, esp
  00003	83 ec 40	 sub	 esp, 64			; 00000040H
  00006	53		 push	 ebx
  00007	56		 push	 esi
  00008	57		 push	 edi
  00009	68 00 00 00 00	 push	 OFFSET ??1TMonsterAIElement@@UAE@XZ ; TMonsterAIElement::~TMonsterAIElement
  0000e	68 00 00 00 00	 push	 OFFSET ??0TMonsterAIElement@@QAE@XZ ; TMonsterAIElement::TMonsterAIElement
  00013	6a 64		 push	 100			; 00000064H
  00015	6a 58		 push	 88			; 00000058H
  00017	68 00 00 00 00	 push	 OFFSET ?s_MonsterAIElementArray@TMonsterAIElement@@2PAV1@A ; TMonsterAIElement::s_MonsterAIElementArray
  0001c	e8 00 00 00 00	 call	 ??_L@YGXPAXIHP6EX0@Z1@Z
  00021	68 00 00 00 00	 push	 OFFSET ??__F?s_MonsterAIElementArray@TMonsterAIElement@@2PAV1@A@@YAXXZ ; `dynamic atexit destructor for 'TMonsterAIElement::s_MonsterAIElementArray''
  00026	e8 00 00 00 00	 call	 _atexit
  0002b	83 c4 04	 add	 esp, 4
  0002e	5f		 pop	 edi
  0002f	5e		 pop	 esi
  00030	5b		 pop	 ebx
  00031	8b e5		 mov	 esp, ebp
  00033	5d		 pop	 ebp
  00034	c3		 ret	 0
??__E?s_MonsterAIElementArray@TMonsterAIElement@@2PAV1@A@@YAXXZ ENDP ; `dynamic initializer for 'TMonsterAIElement::s_MonsterAIElementArray''
text$yc	ENDS
EXTRN	??0TMonsterAIMovePath@@QAE@XZ:PROC		; TMonsterAIMovePath::TMonsterAIMovePath
EXTRN	??1TMonsterAIMovePath@@UAE@XZ:PROC		; TMonsterAIMovePath::~TMonsterAIMovePath
; Function compile flags: /Odtp /ZI
;	COMDAT ??__E?s_MonsterAIMovePath@TMonsterAIElement@@2PAVTMonsterAIMovePath@@A@@YAXXZ
text$yc	SEGMENT
??__E?s_MonsterAIMovePath@TMonsterAIElement@@2PAVTMonsterAIMovePath@@A@@YAXXZ PROC ; `dynamic initializer for 'TMonsterAIElement::s_MonsterAIMovePath'', COMDAT

; 22   : TMonsterAIMovePath TMonsterAIElement::s_MonsterAIMovePath[MAX_NUMBER_MAP];

  00000	55		 push	 ebp
  00001	8b ec		 mov	 ebp, esp
  00003	83 ec 40	 sub	 esp, 64			; 00000040H
  00006	53		 push	 ebx
  00007	56		 push	 esi
  00008	57		 push	 edi
  00009	68 00 00 00 00	 push	 OFFSET ??1TMonsterAIMovePath@@UAE@XZ ; TMonsterAIMovePath::~TMonsterAIMovePath
  0000e	68 00 00 00 00	 push	 OFFSET ??0TMonsterAIMovePath@@QAE@XZ ; TMonsterAIMovePath::TMonsterAIMovePath
  00013	6a 5a		 push	 90			; 0000005aH
  00015	68 cc 12 00 00	 push	 4812			; 000012ccH
  0001a	68 00 00 00 00	 push	 OFFSET ?s_MonsterAIMovePath@TMonsterAIElement@@2PAVTMonsterAIMovePath@@A ; TMonsterAIElement::s_MonsterAIMovePath
  0001f	e8 00 00 00 00	 call	 ??_L@YGXPAXIHP6EX0@Z1@Z
  00024	68 00 00 00 00	 push	 OFFSET ??__F?s_MonsterAIMovePath@TMonsterAIElement@@2PAVTMonsterAIMovePath@@A@@YAXXZ ; `dynamic atexit destructor for 'TMonsterAIElement::s_MonsterAIMovePath''
  00029	e8 00 00 00 00	 call	 _atexit
  0002e	83 c4 04	 add	 esp, 4
  00031	5f		 pop	 edi
  00032	5e		 pop	 esi
  00033	5b		 pop	 ebx
  00034	8b e5		 mov	 esp, ebp
  00036	5d		 pop	 ebp
  00037	c3		 ret	 0
??__E?s_MonsterAIMovePath@TMonsterAIElement@@2PAVTMonsterAIMovePath@@A@@YAXXZ ENDP ; `dynamic initializer for 'TMonsterAIElement::s_MonsterAIMovePath''
text$yc	ENDS
EXTRN	??0CCrywolfUtil@@QAE@XZ:PROC			; CCrywolfUtil::CCrywolfUtil
; Function compile flags: /Odtp /ZI
;	COMDAT ??__EUTIL@@YAXXZ
text$yc	SEGMENT
??__EUTIL@@YAXXZ PROC					; `dynamic initializer for 'UTIL'', COMDAT

; 24   : static CCrywolfUtil UTIL;

  00000	55		 push	 ebp
  00001	8b ec		 mov	 ebp, esp
  00003	83 ec 40	 sub	 esp, 64			; 00000040H
  00006	53		 push	 ebx
  00007	56		 push	 esi
  00008	57		 push	 edi
  00009	b9 00 00 00 00	 mov	 ecx, OFFSET _UTIL
  0000e	e8 00 00 00 00	 call	 ??0CCrywolfUtil@@QAE@XZ	; CCrywolfUtil::CCrywolfUtil
  00013	68 00 00 00 00	 push	 OFFSET ??__FUTIL@@YAXXZ	; `dynamic atexit destructor for 'UTIL''
  00018	e8 00 00 00 00	 call	 _atexit
  0001d	83 c4 04	 add	 esp, 4
  00020	5f		 pop	 edi
  00021	5e		 pop	 esi
  00022	5b		 pop	 ebx
  00023	8b e5		 mov	 esp, ebp
  00025	5d		 pop	 ebp
  00026	c3		 ret	 0
??__EUTIL@@YAXXZ ENDP					; `dynamic initializer for 'UTIL''
text$yc	ENDS
EXTRN	??0TMonsterAIUtil@@QAE@XZ:PROC			; TMonsterAIUtil::TMonsterAIUtil
; Function compile flags: /Odtp /ZI
;	COMDAT ??__EMONSTER_UTIL@@YAXXZ
text$yc	SEGMENT
??__EMONSTER_UTIL@@YAXXZ PROC				; `dynamic initializer for 'MONSTER_UTIL'', COMDAT

; 25   : static TMonsterAIUtil MONSTER_UTIL;

  00000	55		 push	 ebp
  00001	8b ec		 mov	 ebp, esp
  00003	83 ec 40	 sub	 esp, 64			; 00000040H
  00006	53		 push	 ebx
  00007	56		 push	 esi
  00008	57		 push	 edi
  00009	b9 00 00 00 00	 mov	 ecx, OFFSET _MONSTER_UTIL
  0000e	e8 00 00 00 00	 call	 ??0TMonsterAIUtil@@QAE@XZ ; TMonsterAIUtil::TMonsterAIUtil
  00013	68 00 00 00 00	 push	 OFFSET ??__FMONSTER_UTIL@@YAXXZ ; `dynamic atexit destructor for 'MONSTER_UTIL''
  00018	e8 00 00 00 00	 call	 _atexit
  0001d	83 c4 04	 add	 esp, 4
  00020	5f		 pop	 edi
  00021	5e		 pop	 esi
  00022	5b		 pop	 ebx
  00023	8b e5		 mov	 esp, ebp
  00025	5d		 pop	 ebp
  00026	c3		 ret	 0
??__EMONSTER_UTIL@@YAXXZ ENDP				; `dynamic initializer for 'MONSTER_UTIL''
text$yc	ENDS
EXTRN	??1CKanturuUtil@@UAE@XZ:PROC			; CKanturuUtil::~CKanturuUtil
; Function compile flags: /Odtp /ZI
;	COMDAT ??__FKANTURU_UTIL@@YAXXZ
text$yd	SEGMENT
??__FKANTURU_UTIL@@YAXXZ PROC				; `dynamic atexit destructor for 'KANTURU_UTIL'', COMDAT
  00000	55		 push	 ebp
  00001	8b ec		 mov	 ebp, esp
  00003	83 ec 40	 sub	 esp, 64			; 00000040H
  00006	53		 push	 ebx
  00007	56		 push	 esi
  00008	57		 push	 edi
  00009	b9 00 00 00 00	 mov	 ecx, OFFSET _KANTURU_UTIL
  0000e	e8 00 00 00 00	 call	 ??1CKanturuUtil@@UAE@XZ	; CKanturuUtil::~CKanturuUtil
  00013	5f		 pop	 edi
  00014	5e		 pop	 esi
  00015	5b		 pop	 ebx
  00016	8b e5		 mov	 esp, ebp
  00018	5d		 pop	 ebp
  00019	c3		 ret	 0
??__FKANTURU_UTIL@@YAXXZ ENDP				; `dynamic atexit destructor for 'KANTURU_UTIL''
text$yd	ENDS
EXTRN	??_M@YGXPAXIHP6EX0@Z@Z:PROC			; `eh vector destructor iterator'
; Function compile flags: /Odtp /ZI
;	COMDAT ??__F?s_MonsterAIElementArray@TMonsterAIElement@@2PAV1@A@@YAXXZ
text$yd	SEGMENT
??__F?s_MonsterAIElementArray@TMonsterAIElement@@2PAV1@A@@YAXXZ PROC ; `dynamic atexit destructor for 'TMonsterAIElement::s_MonsterAIElementArray'', COMDAT
  00000	55		 push	 ebp
  00001	8b ec		 mov	 ebp, esp
  00003	83 ec 40	 sub	 esp, 64			; 00000040H
  00006	53		 push	 ebx
  00007	56		 push	 esi
  00008	57		 push	 edi
  00009	68 00 00 00 00	 push	 OFFSET ??1TMonsterAIElement@@UAE@XZ ; TMonsterAIElement::~TMonsterAIElement
  0000e	6a 64		 push	 100			; 00000064H
  00010	6a 58		 push	 88			; 00000058H
  00012	68 00 00 00 00	 push	 OFFSET ?s_MonsterAIElementArray@TMonsterAIElement@@2PAV1@A ; TMonsterAIElement::s_MonsterAIElementArray
  00017	e8 00 00 00 00	 call	 ??_M@YGXPAXIHP6EX0@Z@Z
  0001c	5f		 pop	 edi
  0001d	5e		 pop	 esi
  0001e	5b		 pop	 ebx
  0001f	8b e5		 mov	 esp, ebp
  00021	5d		 pop	 ebp
  00022	c3		 ret	 0
??__F?s_MonsterAIElementArray@TMonsterAIElement@@2PAV1@A@@YAXXZ ENDP ; `dynamic atexit destructor for 'TMonsterAIElement::s_MonsterAIElementArray''
; Function compile flags: /Odtp /ZI
text$yd	ENDS
;	COMDAT ??__F?s_MonsterAIMovePath@TMonsterAIElement@@2PAVTMonsterAIMovePath@@A@@YAXXZ
text$yd	SEGMENT
??__F?s_MonsterAIMovePath@TMonsterAIElement@@2PAVTMonsterAIMovePath@@A@@YAXXZ PROC ; `dynamic atexit destructor for 'TMonsterAIElement::s_MonsterAIMovePath'', COMDAT
  00000	55		 push	 ebp
  00001	8b ec		 mov	 ebp, esp
  00003	83 ec 40	 sub	 esp, 64			; 00000040H
  00006	53		 push	 ebx
  00007	56		 push	 esi
  00008	57		 push	 edi
  00009	68 00 00 00 00	 push	 OFFSET ??1TMonsterAIMovePath@@UAE@XZ ; TMonsterAIMovePath::~TMonsterAIMovePath
  0000e	6a 5a		 push	 90			; 0000005aH
  00010	68 cc 12 00 00	 push	 4812			; 000012ccH
  00015	68 00 00 00 00	 push	 OFFSET ?s_MonsterAIMovePath@TMonsterAIElement@@2PAVTMonsterAIMovePath@@A ; TMonsterAIElement::s_MonsterAIMovePath
  0001a	e8 00 00 00 00	 call	 ??_M@YGXPAXIHP6EX0@Z@Z
  0001f	5f		 pop	 edi
  00020	5e		 pop	 esi
  00021	5b		 pop	 ebx
  00022	8b e5		 mov	 esp, ebp
  00024	5d		 pop	 ebp
  00025	c3		 ret	 0
??__F?s_MonsterAIMovePath@TMonsterAIElement@@2PAVTMonsterAIMovePath@@A@@YAXXZ ENDP ; `dynamic atexit destructor for 'TMonsterAIElement::s_MonsterAIMovePath''
text$yd	ENDS
EXTRN	??1CCrywolfUtil@@UAE@XZ:PROC			; CCrywolfUtil::~CCrywolfUtil
; Function compile flags: /Odtp /ZI
;	COMDAT ??__FUTIL@@YAXXZ
text$yd	SEGMENT
??__FUTIL@@YAXXZ PROC					; `dynamic atexit destructor for 'UTIL'', COMDAT
  00000	55		 push	 ebp
  00001	8b ec		 mov	 ebp, esp
  00003	83 ec 40	 sub	 esp, 64			; 00000040H
  00006	53		 push	 ebx
  00007	56		 push	 esi
  00008	57		 push	 edi
  00009	b9 00 00 00 00	 mov	 ecx, OFFSET _UTIL
  0000e	e8 00 00 00 00	 call	 ??1CCrywolfUtil@@UAE@XZ	; CCrywolfUtil::~CCrywolfUtil
  00013	5f		 pop	 edi
  00014	5e		 pop	 esi
  00015	5b		 pop	 ebx
  00016	8b e5		 mov	 esp, ebp
  00018	5d		 pop	 ebp
  00019	c3		 ret	 0
??__FUTIL@@YAXXZ ENDP					; `dynamic atexit destructor for 'UTIL''
text$yd	ENDS
EXTRN	??1TMonsterAIUtil@@UAE@XZ:PROC			; TMonsterAIUtil::~TMonsterAIUtil
; Function compile flags: /Odtp /ZI
;	COMDAT ??__FMONSTER_UTIL@@YAXXZ
text$yd	SEGMENT
??__FMONSTER_UTIL@@YAXXZ PROC				; `dynamic atexit destructor for 'MONSTER_UTIL'', COMDAT
  00000	55		 push	 ebp
  00001	8b ec		 mov	 ebp, esp
  00003	83 ec 40	 sub	 esp, 64			; 00000040H
  00006	53		 push	 ebx
  00007	56		 push	 esi
  00008	57		 push	 edi
  00009	b9 00 00 00 00	 mov	 ecx, OFFSET _MONSTER_UTIL
  0000e	e8 00 00 00 00	 call	 ??1TMonsterAIUtil@@UAE@XZ ; TMonsterAIUtil::~TMonsterAIUtil
  00013	5f		 pop	 edi
  00014	5e		 pop	 esi
  00015	5b		 pop	 ebx
  00016	8b e5		 mov	 esp, ebp
  00018	5d		 pop	 ebp
  00019	c3		 ret	 0
??__FMONSTER_UTIL@@YAXXZ ENDP				; `dynamic atexit destructor for 'MONSTER_UTIL''
text$yd	ENDS
PUBLIC	?s_MonsterAIMovePath@TMonsterAIElement@@2PAVTMonsterAIMovePath@@A ; TMonsterAIElement::s_MonsterAIMovePath
PUBLIC	?s_MonsterAIElementArray@TMonsterAIElement@@2PAV1@A ; TMonsterAIElement::s_MonsterAIElementArray
_BSS	SEGMENT
_MONSTER_UTIL DD 01H DUP (?)
_UTIL	DD	01H DUP (?)
?s_MonsterAIMovePath@TMonsterAIElement@@2PAVTMonsterAIMovePath@@A DB 069bb8H DUP (?) ; TMonsterAIElement::s_MonsterAIMovePath
?s_MonsterAIElementArray@TMonsterAIElement@@2PAV1@A DB 02260H DUP (?) ; TMonsterAIElement::s_MonsterAIElementArray
_KANTURU_UTIL DD 01H DUP (?)
_BSS	ENDS
CRT$XCU	SEGMENT
_KANTURU_UTIL$initializer$ DD FLAT:??__EKANTURU_UTIL@@YAXXZ
?s_MonsterAIElementArray$initializer$@TMonsterAIElement@@2P6AXXZA DD FLAT:??__E?s_MonsterAIElementArray@TMonsterAIElement@@2PAV1@A@@YAXXZ ; TMonsterAIElement::s_MonsterAIElementArray$initializer$
?s_MonsterAIMovePath$initializer$@TMonsterAIElement@@2P6AXXZA DD FLAT:??__E?s_MonsterAIMovePath@TMonsterAIElement@@2PAVTMonsterAIMovePath@@A@@YAXXZ ; TMonsterAIElement::s_MonsterAIMovePath$initializer$
_UTIL$initializer$ DD FLAT:??__EUTIL@@YAXXZ
_MONSTER_UTIL$initializer$ DD FLAT:??__EMONSTER_UTIL@@YAXXZ
CRT$XCU	ENDS
END
