; Listing generated by Microsoft (R) Optimizing Compiler Version 16.00.40219.01 

	TITLE	D:\Projects\ExTeam6.3\Source\GameServer\GameServer\TMonsterSkillManager.cpp
	.686P
	.XMM
	include listing.inc
	.model	flat

INCLUDELIB LIBCMT
INCLUDELIB OLDNAMES

PUBLIC	?s_bDataLoad@TMonsterSkillManager@@2HA		; TMonsterSkillManager::s_bDataLoad
_BSS	SEGMENT
?s_bDataLoad@TMonsterSkillManager@@2HA DD 01H DUP (?)	; TMonsterSkillManager::s_bDataLoad
_BSS	ENDS
PUBLIC	??_H@YGXPAXIHP6EPAX0@Z@Z			; `vector constructor iterator'
; Function compile flags: /Odtp /ZI
;	COMDAT ??_H@YGXPAXIHP6EPAX0@Z@Z
_TEXT	SEGMENT
___t$ = 8						; size = 4
___s$ = 12						; size = 4
___n$ = 16						; size = 4
___f$ = 20						; size = 4
??_H@YGXPAXIHP6EPAX0@Z@Z PROC				; `vector constructor iterator', COMDAT
  00000	55		 push	 ebp
  00001	8b ec		 mov	 ebp, esp
  00003	83 ec 40	 sub	 esp, 64			; 00000040H
  00006	53		 push	 ebx
  00007	56		 push	 esi
  00008	57		 push	 edi
$LN2@vector:
  00009	8b 45 10	 mov	 eax, DWORD PTR ___n$[ebp]
  0000c	83 e8 01	 sub	 eax, 1
  0000f	89 45 10	 mov	 DWORD PTR ___n$[ebp], eax
  00012	78 11		 js	 SHORT $LN3@vector
  00014	8b 4d 08	 mov	 ecx, DWORD PTR ___t$[ebp]
  00017	ff 55 14	 call	 DWORD PTR ___f$[ebp]
  0001a	8b 45 08	 mov	 eax, DWORD PTR ___t$[ebp]
  0001d	03 45 0c	 add	 eax, DWORD PTR ___s$[ebp]
  00020	89 45 08	 mov	 DWORD PTR ___t$[ebp], eax
  00023	eb e4		 jmp	 SHORT $LN2@vector
$LN3@vector:
  00025	5f		 pop	 edi
  00026	5e		 pop	 esi
  00027	5b		 pop	 ebx
  00028	8b e5		 mov	 esp, ebp
  0002a	5d		 pop	 ebp
  0002b	c2 10 00	 ret	 16			; 00000010H
??_H@YGXPAXIHP6EPAX0@Z@Z ENDP				; `vector constructor iterator'
_TEXT	ENDS
PUBLIC	??0TMonsterSkillManager@@QAE@XZ			; TMonsterSkillManager::TMonsterSkillManager
; Function compile flags: /Odtp /ZI
; File d:\projects\exteam6.3\source\gameserver\gameserver\tmonsterskillmanager.cpp
_TEXT	SEGMENT
_this$ = -4						; size = 4
??0TMonsterSkillManager@@QAE@XZ PROC			; TMonsterSkillManager::TMonsterSkillManager
; _this$ = ecx

; 17   : {

  00000	55		 push	 ebp
  00001	8b ec		 mov	 ebp, esp
  00003	83 ec 44	 sub	 esp, 68			; 00000044H
  00006	53		 push	 ebx
  00007	56		 push	 esi
  00008	57		 push	 edi
  00009	89 4d fc	 mov	 DWORD PTR _this$[ebp], ecx

; 18   : 	return;
; 19   : }

  0000c	8b 45 fc	 mov	 eax, DWORD PTR _this$[ebp]
  0000f	5f		 pop	 edi
  00010	5e		 pop	 esi
  00011	5b		 pop	 ebx
  00012	8b e5		 mov	 esp, ebp
  00014	5d		 pop	 ebp
  00015	c3		 ret	 0
??0TMonsterSkillManager@@QAE@XZ ENDP			; TMonsterSkillManager::TMonsterSkillManager
_TEXT	ENDS
PUBLIC	??1TMonsterSkillManager@@QAE@XZ			; TMonsterSkillManager::~TMonsterSkillManager
; Function compile flags: /Odtp /ZI
_TEXT	SEGMENT
_this$ = -4						; size = 4
??1TMonsterSkillManager@@QAE@XZ PROC			; TMonsterSkillManager::~TMonsterSkillManager
; _this$ = ecx

; 22   : {

  00020	55		 push	 ebp
  00021	8b ec		 mov	 ebp, esp
  00023	83 ec 44	 sub	 esp, 68			; 00000044H
  00026	53		 push	 ebx
  00027	56		 push	 esi
  00028	57		 push	 edi
  00029	89 4d fc	 mov	 DWORD PTR _this$[ebp], ecx

; 23   : 	return;
; 24   : }

  0002c	5f		 pop	 edi
  0002d	5e		 pop	 esi
  0002e	5b		 pop	 ebx
  0002f	8b e5		 mov	 esp, ebp
  00031	5d		 pop	 ebp
  00032	c3		 ret	 0
??1TMonsterSkillManager@@QAE@XZ ENDP			; TMonsterSkillManager::~TMonsterSkillManager
_TEXT	ENDS
PUBLIC	??_C@_0DO@MGDDNBGB@?$FLMonster?5Skill?5Manager?$FN?5?9?5Loadin@ ; `string'
PUBLIC	??_C@_0CM@BOBBJDPC@?$FLMonster?5Skill?5Manager?$FN?5?9?5?$CFs?5fil@ ; `string'
PUBLIC	??_C@_0HH@GONDBIOK@?$KB?$NLIndex?3?$CFd?0Name?3?$CFs?0Count?3?$CFd?0Type@ ; `string'
PUBLIC	??_C@_0DG@MDEFFMNA@?$FLMonster?5Manager?$FN?5?9?5Invalid?5Skil@ ; `string'
PUBLIC	??_C@_0DH@IDDBKHCE@?$FLMonster?5Manager?$FN?5?9?5MonsterIndex@ ; `string'
PUBLIC	??_C@_03JBJLGPFL@end?$AA@			; `string'
PUBLIC	??0TMonsterSkillInfo@@QAE@XZ			; TMonsterSkillInfo::TMonsterSkillInfo
PUBLIC	?DelAllSkillManagerInfo@TMonsterSkillManager@@SAXXZ ; TMonsterSkillManager::DelAllSkillManagerInfo
PUBLIC	??_C@_0CJ@MLGACFDE@?$FLMonster?5Skill?5Manager?$FN?5?9?5Can?8t?5@ ; `string'
PUBLIC	??_C@_01KDCPPGHE@r?$AA@				; `string'
PUBLIC	??_C@_0DM@FNGEHCBH@?$FLMonster?5Skill?5Manager?$FN?5?9?5File?5l@ ; `string'
PUBLIC	??_C@_00CNPNBAHC@?$AA@				; `string'
PUBLIC	__$ArrayPad$
PUBLIC	?LoadData@TMonsterSkillManager@@SAHPAD@Z	; TMonsterSkillManager::LoadData
EXTRN	_fclose:PROC
EXTRN	__imp__OutputDebugStringA@4:PROC
EXTRN	__imp__wsprintfA:PROC
EXTRN	?LogAddC@@3P6AXEPADZZA:DWORD			; LogAddC
EXTRN	?FindSkillUnit@TMonsterSkillUnit@@SAPAV1@H@Z:PROC ; TMonsterSkillUnit::FindSkillUnit
EXTRN	_memcpy:PROC
EXTRN	_fopen:PROC
EXTRN	?MsgBox@@YAXPADZZ:PROC				; MsgBox
EXTRN	_strcmp:PROC
EXTRN	___security_cookie:DWORD
EXTRN	___CxxFrameHandler3:PROC
EXTRN	@__security_check_cookie@4:PROC
EXTRN	_memset:PROC
EXTRN	__ftol2_sse:PROC
_BSS	SEGMENT
_TokenString DB	064H DUP (?)
_TokenNumber DD	01H DUP (?)
_SMDFile DD	01H DUP (?)
_BSS	ENDS
;	COMDAT ??_C@_0DO@MGDDNBGB@?$FLMonster?5Skill?5Manager?$FN?5?9?5Loadin@
CONST	SEGMENT
??_C@_0DO@MGDDNBGB@?$FLMonster?5Skill?5Manager?$FN?5?9?5Loadin@ DB '[Mons'
	DB	'ter Skill Manager] - Loading Exception Error (%s) File. ', 00H ; `string'
CONST	ENDS
;	COMDAT ??_C@_0CM@BOBBJDPC@?$FLMonster?5Skill?5Manager?$FN?5?9?5?$CFs?5fil@
CONST	SEGMENT
??_C@_0CM@BOBBJDPC@?$FLMonster?5Skill?5Manager?$FN?5?9?5?$CFs?5fil@ DB '['
	DB	'Monster Skill Manager] - %s file is Loaded', 00H ; `string'
CONST	ENDS
;	COMDAT ??_C@_0HH@GONDBIOK@?$KB?$NLIndex?3?$CFd?0Name?3?$CFs?0Count?3?$CFd?0Type@
CONST	SEGMENT
??_C@_0HH@GONDBIOK@?$KB?$NLIndex?3?$CFd?0Name?3?$CFs?0Count?3?$CFd?0Type@ DB 0a1H
	DB	0dbH, 'Index:%d,Name:%s,Count:%d,Type0:%d,Unit0:%d,Type1:%d,Un'
	DB	'it1:%d,Type2:%d,Unit2:%d,Type3:%d,Unit3:%d,Type4:%d,Unit4:%d', 0aH
	DB	00H						; `string'
CONST	ENDS
;	COMDAT ??_C@_0DG@MDEFFMNA@?$FLMonster?5Manager?$FN?5?9?5Invalid?5Skil@
CONST	SEGMENT
??_C@_0DG@MDEFFMNA@?$FLMonster?5Manager?$FN?5?9?5Invalid?5Skil@ DB '[Mons'
	DB	'ter Manager] - Invalid SkillInfo : MIndex(%s/%d)', 00H ; `string'
CONST	ENDS
;	COMDAT ??_C@_0DH@IDDBKHCE@?$FLMonster?5Manager?$FN?5?9?5MonsterIndex@
CONST	SEGMENT
??_C@_0DH@IDDBKHCE@?$FLMonster?5Manager?$FN?5?9?5MonsterIndex@ DB '[Monst'
	DB	'er Manager] - MonsterIndex(%d) Error (%s) File. ', 00H ; `string'
CONST	ENDS
;	COMDAT ??_C@_03JBJLGPFL@end?$AA@
CONST	SEGMENT
??_C@_03JBJLGPFL@end?$AA@ DB 'end', 00H			; `string'
CONST	ENDS
;	COMDAT ??_C@_0CJ@MLGACFDE@?$FLMonster?5Skill?5Manager?$FN?5?9?5Can?8t?5@
CONST	SEGMENT
??_C@_0CJ@MLGACFDE@?$FLMonster?5Skill?5Manager?$FN?5?9?5Can?8t?5@ DB '[Mo'
	DB	'nster Skill Manager] - Can''t Open %s ', 00H ; `string'
CONST	ENDS
;	COMDAT ??_C@_01KDCPPGHE@r?$AA@
CONST	SEGMENT
??_C@_01KDCPPGHE@r?$AA@ DB 'r', 00H			; `string'
CONST	ENDS
;	COMDAT ??_C@_0DM@FNGEHCBH@?$FLMonster?5Skill?5Manager?$FN?5?9?5File?5l@
CONST	SEGMENT
??_C@_0DM@FNGEHCBH@?$FLMonster?5Skill?5Manager?$FN?5?9?5File?5l@ DB '[Mon'
	DB	'ster Skill Manager] - File load error : File Name Error', 00H ; `string'
CONST	ENDS
;	COMDAT ??_C@_00CNPNBAHC@?$AA@
CONST	SEGMENT
??_C@_00CNPNBAHC@?$AA@ DB 00H				; `string'
CONST	ENDS
xdata$x	SEGMENT
__catchsym$?LoadData@TMonsterSkillManager@@SAHPAD@Z$2 DD 040H
	DD	00H
	DD	00H
	DD	FLAT:__catch$?LoadData@TMonsterSkillManager@@SAHPAD@Z$0
__unwindtable$?LoadData@TMonsterSkillManager@@SAHPAD@Z DD 0ffffffffH
	DD	00H
	DD	0ffffffffH
	DD	00H
__tryblocktable$?LoadData@TMonsterSkillManager@@SAHPAD@Z DD 00H
	DD	00H
	DD	01H
	DD	01H
	DD	FLAT:__catchsym$?LoadData@TMonsterSkillManager@@SAHPAD@Z$2
__ehfuncinfo$?LoadData@TMonsterSkillManager@@SAHPAD@Z DD 019930522H
	DD	02H
	DD	FLAT:__unwindtable$?LoadData@TMonsterSkillManager@@SAHPAD@Z
	DD	01H
	DD	FLAT:__tryblocktable$?LoadData@TMonsterSkillManager@@SAHPAD@Z
	DD	2 DUP(00H)
	DD	00H
	DD	01H
; Function compile flags: /Odtp /ZI
xdata$x	ENDS
_TEXT	SEGMENT
tv213 = -424						; size = 4
tv212 = -424						; size = 4
tv211 = -424						; size = 4
tv210 = -424						; size = 4
tv209 = -424						; size = 4
tv208 = -424						; size = 4
_pMonSInfo$219842 = -356				; size = 4
_szMsg$219841 = -352					; size = 200
_lpSkillUnit$219834 = -152				; size = 4
_iSkillUnitNumber$219830 = -148				; size = 4
_i$219826 = -144					; size = 4
_MonsterSkillInfo$219822 = -140				; size = 88
_szMonsterName$219821 = -52				; size = 20
_bVerified$219820 = -32					; size = 4
_iType$219810 = -28					; size = 4
_Token$219806 = -24					; size = 4
__$ArrayPad$ = -20					; size = 4
__$EHRec$ = -16						; size = 16
_lpszFileName$ = 8					; size = 4
?LoadData@TMonsterSkillManager@@SAHPAD@Z PROC		; TMonsterSkillManager::LoadData

; 27   : {

  00040	55		 push	 ebp
  00041	8b ec		 mov	 ebp, esp
  00043	6a ff		 push	 -1
  00045	68 00 00 00 00	 push	 __ehhandler$?LoadData@TMonsterSkillManager@@SAHPAD@Z
  0004a	64 a1 00 00 00
	00		 mov	 eax, DWORD PTR fs:0
  00050	50		 push	 eax
  00051	51		 push	 ecx
  00052	81 ec 98 01 00
	00		 sub	 esp, 408		; 00000198H
  00058	a1 00 00 00 00	 mov	 eax, DWORD PTR ___security_cookie
  0005d	33 c5		 xor	 eax, ebp
  0005f	89 45 ec	 mov	 DWORD PTR __$ArrayPad$[ebp], eax
  00062	53		 push	 ebx
  00063	56		 push	 esi
  00064	57		 push	 edi
  00065	50		 push	 eax
  00066	8d 45 f4	 lea	 eax, DWORD PTR __$EHRec$[ebp+4]
  00069	64 a3 00 00 00
	00		 mov	 DWORD PTR fs:0, eax
  0006f	89 65 f0	 mov	 DWORD PTR __$EHRec$[ebp], esp

; 28   : 	TMonsterSkillManager::s_bDataLoad = FALSE;

  00072	c7 05 00 00 00
	00 00 00 00 00	 mov	 DWORD PTR ?s_bDataLoad@TMonsterSkillManager@@2HA, 0 ; TMonsterSkillManager::s_bDataLoad

; 29   : 
; 30   : 	if ( !lpszFileName || !strcmp(lpszFileName, ""))

  0007c	83 7d 08 00	 cmp	 DWORD PTR _lpszFileName$[ebp], 0
  00080	74 15		 je	 SHORT $LN18@LoadData
  00082	68 00 00 00 00	 push	 OFFSET ??_C@_00CNPNBAHC@?$AA@
  00087	8b 45 08	 mov	 eax, DWORD PTR _lpszFileName$[ebp]
  0008a	50		 push	 eax
  0008b	e8 00 00 00 00	 call	 _strcmp
  00090	83 c4 08	 add	 esp, 8
  00093	85 c0		 test	 eax, eax
  00095	75 14		 jne	 SHORT $LN19@LoadData
$LN18@LoadData:

; 31   : 	{
; 32   : 		MsgBox("[Monster Skill Manager] - File load error : File Name Error");

  00097	68 00 00 00 00	 push	 OFFSET ??_C@_0DM@FNGEHCBH@?$FLMonster?5Skill?5Manager?$FN?5?9?5File?5l@
  0009c	e8 00 00 00 00	 call	 ?MsgBox@@YAXPADZZ	; MsgBox
  000a1	83 c4 04	 add	 esp, 4

; 33   : 		return FALSE;

  000a4	33 c0		 xor	 eax, eax
  000a6	e9 b8 03 00 00	 jmp	 $LN20@LoadData
$LN19@LoadData:

; 34   : 	}
; 35   : 
; 36   : 	try
; 37   : 	{

  000ab	c7 45 fc 00 00
	00 00		 mov	 DWORD PTR __$EHRec$[ebp+12], 0

; 38   : 		SMDToken Token;
; 39   : 		SMDFile = fopen(lpszFileName, "r");

  000b2	68 00 00 00 00	 push	 OFFSET ??_C@_01KDCPPGHE@r?$AA@
  000b7	8b 45 08	 mov	 eax, DWORD PTR _lpszFileName$[ebp]
  000ba	50		 push	 eax
  000bb	e8 00 00 00 00	 call	 _fopen
  000c0	83 c4 08	 add	 esp, 8
  000c3	a3 00 00 00 00	 mov	 DWORD PTR _SMDFile, eax

; 40   : 
; 41   : 		if ( SMDFile == NULL )

  000c8	83 3d 00 00 00
	00 00		 cmp	 DWORD PTR _SMDFile, 0
  000cf	75 18		 jne	 SHORT $LN16@LoadData

; 42   : 		{
; 43   : 			MsgBox("[Monster Skill Manager] - Can't Open %s ", lpszFileName);

  000d1	8b 45 08	 mov	 eax, DWORD PTR _lpszFileName$[ebp]
  000d4	50		 push	 eax
  000d5	68 00 00 00 00	 push	 OFFSET ??_C@_0CJ@MLGACFDE@?$FLMonster?5Skill?5Manager?$FN?5?9?5Can?8t?5@
  000da	e8 00 00 00 00	 call	 ?MsgBox@@YAXPADZZ	; MsgBox
  000df	83 c4 08	 add	 esp, 8

; 44   : 			return FALSE;

  000e2	33 c0		 xor	 eax, eax
  000e4	e9 7a 03 00 00	 jmp	 $LN20@LoadData
$LN16@LoadData:

; 45   : 		}
; 46   : 
; 47   : 		TMonsterSkillManager::DelAllSkillManagerInfo();

  000e9	e8 00 00 00 00	 call	 ?DelAllSkillManagerInfo@TMonsterSkillManager@@SAXXZ ; TMonsterSkillManager::DelAllSkillManagerInfo

; 48   : 		int iType = -1;

  000ee	c7 45 e4 ff ff
	ff ff		 mov	 DWORD PTR _iType$219810[ebp], -1
$LN15@LoadData:

; 49   : 
; 50   : 		while ( true )

  000f5	b8 01 00 00 00	 mov	 eax, 1
  000fa	85 c0		 test	 eax, eax
  000fc	0f 84 0c 03 00
	00		 je	 $LN14@LoadData

; 51   : 		{
; 52   : 			Token = GetToken();

  00102	e8 00 00 00 00	 call	 ?GetToken@@YA?AW4SMDToken@@XZ ; GetToken
  00107	89 85 58 fe ff
	ff		 mov	 DWORD PTR tv208[ebp], eax
  0010d	8b 85 58 fe ff
	ff		 mov	 eax, DWORD PTR tv208[ebp]
  00113	89 45 e8	 mov	 DWORD PTR _Token$219806[ebp], eax

; 53   : 
; 54   : 			if ( Token == END )

  00116	83 7d e8 02	 cmp	 DWORD PTR _Token$219806[ebp], 2
  0011a	75 05		 jne	 SHORT $LN13@LoadData

; 55   : 				break;

  0011c	e9 ed 02 00 00	 jmp	 $LN14@LoadData
$LN13@LoadData:

; 56   : 
; 57   : 			iType = (int)TokenNumber;

  00121	d9 05 00 00 00
	00		 fld	 DWORD PTR _TokenNumber
  00127	e8 00 00 00 00	 call	 __ftol2_sse
  0012c	89 45 e4	 mov	 DWORD PTR _iType$219810[ebp], eax
$LN12@LoadData:

; 58   : 
; 59   : 			while ( true )

  0012f	b8 01 00 00 00	 mov	 eax, 1
  00134	85 c0		 test	 eax, eax
  00136	0f 84 cd 02 00
	00		 je	 $LN11@LoadData

; 60   : 			{
; 61   : 				if ( iType == 0 )

  0013c	83 7d e4 00	 cmp	 DWORD PTR _iType$219810[ebp], 0
  00140	0f 85 be 02 00
	00		 jne	 $LN10@LoadData

; 62   : 				{
; 63   : 					BOOL bVerified = TRUE;

  00146	c7 45 e0 01 00
	00 00		 mov	 DWORD PTR _bVerified$219820[ebp], 1

; 64   : 					char szMonsterName[20]={0};

  0014d	c6 45 cc 00	 mov	 BYTE PTR _szMonsterName$219821[ebp], 0
  00151	33 c0		 xor	 eax, eax
  00153	89 45 cd	 mov	 DWORD PTR _szMonsterName$219821[ebp+1], eax
  00156	89 45 d1	 mov	 DWORD PTR _szMonsterName$219821[ebp+5], eax
  00159	89 45 d5	 mov	 DWORD PTR _szMonsterName$219821[ebp+9], eax
  0015c	89 45 d9	 mov	 DWORD PTR _szMonsterName$219821[ebp+13], eax
  0015f	66 89 45 dd	 mov	 WORD PTR _szMonsterName$219821[ebp+17], ax
  00163	88 45 df	 mov	 BYTE PTR _szMonsterName$219821[ebp+19], al

; 65   : 					TMonsterSkillInfo MonsterSkillInfo;

  00166	8d 8d 74 ff ff
	ff		 lea	 ecx, DWORD PTR _MonsterSkillInfo$219822[ebp]
  0016c	e8 00 00 00 00	 call	 ??0TMonsterSkillInfo@@QAE@XZ ; TMonsterSkillInfo::TMonsterSkillInfo

; 66   : 
; 67   : 					Token = GetToken();

  00171	e8 00 00 00 00	 call	 ?GetToken@@YA?AW4SMDToken@@XZ ; GetToken
  00176	89 85 58 fe ff
	ff		 mov	 DWORD PTR tv209[ebp], eax
  0017c	8b 85 58 fe ff
	ff		 mov	 eax, DWORD PTR tv209[ebp]
  00182	89 45 e8	 mov	 DWORD PTR _Token$219806[ebp], eax

; 68   : 
; 69   : 					if ( !strcmp("end", TokenString))

  00185	68 00 00 00 00	 push	 OFFSET _TokenString
  0018a	68 00 00 00 00	 push	 OFFSET ??_C@_03JBJLGPFL@end?$AA@
  0018f	e8 00 00 00 00	 call	 _strcmp
  00194	83 c4 08	 add	 esp, 8
  00197	85 c0		 test	 eax, eax
  00199	75 05		 jne	 SHORT $LN9@LoadData

; 70   : 						break;

  0019b	e9 69 02 00 00	 jmp	 $LN11@LoadData
$LN9@LoadData:

; 71   : 
; 72   : 					MonsterSkillInfo.m_iMonsterIndex = (int)TokenNumber;

  001a0	d9 05 00 00 00
	00		 fld	 DWORD PTR _TokenNumber
  001a6	e8 00 00 00 00	 call	 __ftol2_sse
  001ab	89 85 74 ff ff
	ff		 mov	 DWORD PTR _MonsterSkillInfo$219822[ebp], eax

; 73   : 
; 74   : 					Token = GetToken();

  001b1	e8 00 00 00 00	 call	 ?GetToken@@YA?AW4SMDToken@@XZ ; GetToken
  001b6	89 85 58 fe ff
	ff		 mov	 DWORD PTR tv210[ebp], eax
  001bc	8b 85 58 fe ff
	ff		 mov	 eax, DWORD PTR tv210[ebp]
  001c2	89 45 e8	 mov	 DWORD PTR _Token$219806[ebp], eax

; 75   : 					memcpy(szMonsterName, TokenString, 20);

  001c5	6a 14		 push	 20			; 00000014H
  001c7	68 00 00 00 00	 push	 OFFSET _TokenString
  001cc	8d 45 cc	 lea	 eax, DWORD PTR _szMonsterName$219821[ebp]
  001cf	50		 push	 eax
  001d0	e8 00 00 00 00	 call	 _memcpy
  001d5	83 c4 0c	 add	 esp, 12			; 0000000cH

; 76   : 
; 77   : 					for ( int i = 0;i < 10;i++)//Season 4.5 changed from 5 to 10

  001d8	c7 85 70 ff ff
	ff 00 00 00 00	 mov	 DWORD PTR _i$219826[ebp], 0
  001e2	eb 0f		 jmp	 SHORT $LN8@LoadData
$LN7@LoadData:
  001e4	8b 85 70 ff ff
	ff		 mov	 eax, DWORD PTR _i$219826[ebp]
  001ea	83 c0 01	 add	 eax, 1
  001ed	89 85 70 ff ff
	ff		 mov	 DWORD PTR _i$219826[ebp], eax
$LN8@LoadData:
  001f3	83 bd 70 ff ff
	ff 0a		 cmp	 DWORD PTR _i$219826[ebp], 10 ; 0000000aH
  001fa	0f 8d c3 00 00
	00		 jge	 $LN6@LoadData

; 78   : 					{
; 79   : 						int iSkillUnitNumber = -1;

  00200	c7 85 6c ff ff
	ff ff ff ff ff	 mov	 DWORD PTR _iSkillUnitNumber$219830[ebp], -1

; 80   : 						Token = GetToken();

  0020a	e8 00 00 00 00	 call	 ?GetToken@@YA?AW4SMDToken@@XZ ; GetToken
  0020f	89 85 58 fe ff
	ff		 mov	 DWORD PTR tv211[ebp], eax
  00215	8b 85 58 fe ff
	ff		 mov	 eax, DWORD PTR tv211[ebp]
  0021b	89 45 e8	 mov	 DWORD PTR _Token$219806[ebp], eax

; 81   : 						MonsterSkillInfo.m_iSkillUnitTypeArray[i] = (int)TokenNumber;

  0021e	d9 05 00 00 00
	00		 fld	 DWORD PTR _TokenNumber
  00224	e8 00 00 00 00	 call	 __ftol2_sse
  00229	8b 8d 70 ff ff
	ff		 mov	 ecx, DWORD PTR _i$219826[ebp]
  0022f	89 84 8d 7c ff
	ff ff		 mov	 DWORD PTR _MonsterSkillInfo$219822[ebp+ecx*4+8], eax

; 82   : 
; 83   : 						Token = GetToken();

  00236	e8 00 00 00 00	 call	 ?GetToken@@YA?AW4SMDToken@@XZ ; GetToken
  0023b	89 85 58 fe ff
	ff		 mov	 DWORD PTR tv212[ebp], eax
  00241	8b 85 58 fe ff
	ff		 mov	 eax, DWORD PTR tv212[ebp]
  00247	89 45 e8	 mov	 DWORD PTR _Token$219806[ebp], eax

; 84   : 						iSkillUnitNumber = (int)TokenNumber;

  0024a	d9 05 00 00 00
	00		 fld	 DWORD PTR _TokenNumber
  00250	e8 00 00 00 00	 call	 __ftol2_sse
  00255	89 85 6c ff ff
	ff		 mov	 DWORD PTR _iSkillUnitNumber$219830[ebp], eax

; 85   : 
; 86   : 						if ( iSkillUnitNumber == -1 )

  0025b	83 bd 6c ff ff
	ff ff		 cmp	 DWORD PTR _iSkillUnitNumber$219830[ebp], -1
  00262	75 05		 jne	 SHORT $LN5@LoadData

; 87   : 							continue;

  00264	e9 7b ff ff ff	 jmp	 $LN7@LoadData
$LN5@LoadData:

; 88   : 
; 89   : 						TMonsterSkillUnit * lpSkillUnit = TMonsterSkillUnit::FindSkillUnit(iSkillUnitNumber);

  00269	8b 85 6c ff ff
	ff		 mov	 eax, DWORD PTR _iSkillUnitNumber$219830[ebp]
  0026f	50		 push	 eax
  00270	e8 00 00 00 00	 call	 ?FindSkillUnit@TMonsterSkillUnit@@SAPAV1@H@Z ; TMonsterSkillUnit::FindSkillUnit
  00275	83 c4 04	 add	 esp, 4
  00278	89 85 58 fe ff
	ff		 mov	 DWORD PTR tv213[ebp], eax
  0027e	8b 8d 58 fe ff
	ff		 mov	 ecx, DWORD PTR tv213[ebp]
  00284	89 8d 68 ff ff
	ff		 mov	 DWORD PTR _lpSkillUnit$219834[ebp], ecx

; 90   : 						
; 91   : 						if ( lpSkillUnit == NULL )

  0028a	83 bd 68 ff ff
	ff 00		 cmp	 DWORD PTR _lpSkillUnit$219834[ebp], 0
  00291	75 0c		 jne	 SHORT $LN4@LoadData

; 92   : 						{
; 93   : 							bVerified = FALSE;

  00293	c7 45 e0 00 00
	00 00		 mov	 DWORD PTR _bVerified$219820[ebp], 0

; 94   : 							continue;

  0029a	e9 45 ff ff ff	 jmp	 $LN7@LoadData
$LN4@LoadData:

; 95   : 						}
; 96   : 
; 97   : 						MonsterSkillInfo.m_lpSkillUnitArray[i] = lpSkillUnit;

  0029f	8b 85 70 ff ff
	ff		 mov	 eax, DWORD PTR _i$219826[ebp]
  002a5	8b 8d 68 ff ff
	ff		 mov	 ecx, DWORD PTR _lpSkillUnit$219834[ebp]
  002ab	89 4c 85 a4	 mov	 DWORD PTR _MonsterSkillInfo$219822[ebp+eax*4+48], ecx

; 98   : 						MonsterSkillInfo.m_iSkillUnitCount++;

  002af	8b 85 78 ff ff
	ff		 mov	 eax, DWORD PTR _MonsterSkillInfo$219822[ebp+4]
  002b5	83 c0 01	 add	 eax, 1
  002b8	89 85 78 ff ff
	ff		 mov	 DWORD PTR _MonsterSkillInfo$219822[ebp+4], eax

; 99   : 					}

  002be	e9 21 ff ff ff	 jmp	 $LN7@LoadData
$LN6@LoadData:

; 100  : 
; 101  : 
; 102  : 
; 103  : 					if ( false || MonsterSkillInfo.m_iMonsterIndex >= MAX_MONSTER_SKILL_INFO_ARRAY )

  002c3	33 c0		 xor	 eax, eax
  002c5	75 0c		 jne	 SHORT $LN2@LoadData
  002c7	81 bd 74 ff ff
	ff bc 02 00 00	 cmp	 DWORD PTR _MonsterSkillInfo$219822[ebp], 700 ; 000002bcH
  002d1	7c 1d		 jl	 SHORT $LN3@LoadData
$LN2@LoadData:

; 104  : 					{
; 105  : 						MsgBox("[Monster Manager] - MonsterIndex(%d) Error (%s) File. ", 
; 106  : 							MonsterSkillInfo.m_iMonsterIndex, lpszFileName);

  002d3	8b 45 08	 mov	 eax, DWORD PTR _lpszFileName$[ebp]
  002d6	50		 push	 eax
  002d7	8b 8d 74 ff ff
	ff		 mov	 ecx, DWORD PTR _MonsterSkillInfo$219822[ebp]
  002dd	51		 push	 ecx
  002de	68 00 00 00 00	 push	 OFFSET ??_C@_0DH@IDDBKHCE@?$FLMonster?5Manager?$FN?5?9?5MonsterIndex@
  002e3	e8 00 00 00 00	 call	 ?MsgBox@@YAXPADZZ	; MsgBox
  002e8	83 c4 0c	 add	 esp, 12			; 0000000cH

; 107  : 						continue;

  002eb	e9 3f fe ff ff	 jmp	 $LN12@LoadData
$LN3@LoadData:

; 108  : 					}
; 109  : 
; 110  : 					if ( bVerified ==FALSE )

  002f0	83 7d e0 00	 cmp	 DWORD PTR _bVerified$219820[ebp], 0
  002f4	75 1f		 jne	 SHORT $LN1@LoadData

; 111  : 					{
; 112  : 						LogAddC(2, "[Monster Manager] - Invalid SkillInfo : MIndex(%s/%d)",
; 113  : 							szMonsterName, MonsterSkillInfo.m_iMonsterIndex,lpszFileName);

  002f6	8b 45 08	 mov	 eax, DWORD PTR _lpszFileName$[ebp]
  002f9	50		 push	 eax
  002fa	8b 8d 74 ff ff
	ff		 mov	 ecx, DWORD PTR _MonsterSkillInfo$219822[ebp]
  00300	51		 push	 ecx
  00301	8d 55 cc	 lea	 edx, DWORD PTR _szMonsterName$219821[ebp]
  00304	52		 push	 edx
  00305	68 00 00 00 00	 push	 OFFSET ??_C@_0DG@MDEFFMNA@?$FLMonster?5Manager?$FN?5?9?5Invalid?5Skil@
  0030a	6a 02		 push	 2
  0030c	ff 15 00 00 00
	00		 call	 DWORD PTR ?LogAddC@@3P6AXEPADZZA ; LogAddC
  00312	83 c4 14	 add	 esp, 20			; 00000014H
$LN1@LoadData:

; 114  : 					}
; 115  : 
; 116  : 					memcpy(&TMonsterSkillManager::s_MonsterSkillInfoArray[MonsterSkillInfo.m_iMonsterIndex],
; 117  : 						&MonsterSkillInfo, sizeof(MonsterSkillInfo));

  00315	6a 58		 push	 88			; 00000058H
  00317	8d 85 74 ff ff
	ff		 lea	 eax, DWORD PTR _MonsterSkillInfo$219822[ebp]
  0031d	50		 push	 eax
  0031e	8b 8d 74 ff ff
	ff		 mov	 ecx, DWORD PTR _MonsterSkillInfo$219822[ebp]
  00324	6b c9 58	 imul	 ecx, 88			; 00000058H
  00327	81 c1 00 00 00
	00		 add	 ecx, OFFSET ?s_MonsterSkillInfoArray@TMonsterSkillManager@@2PAVTMonsterSkillInfo@@A ; TMonsterSkillManager::s_MonsterSkillInfoArray
  0032d	51		 push	 ecx
  0032e	e8 00 00 00 00	 call	 _memcpy
  00333	83 c4 0c	 add	 esp, 12			; 0000000cH

; 118  : 
; 119  : 					char szMsg[200] = {0};

  00336	c6 85 a0 fe ff
	ff 00		 mov	 BYTE PTR _szMsg$219841[ebp], 0
  0033d	68 c7 00 00 00	 push	 199			; 000000c7H
  00342	6a 00		 push	 0
  00344	8d 85 a1 fe ff
	ff		 lea	 eax, DWORD PTR _szMsg$219841[ebp+1]
  0034a	50		 push	 eax
  0034b	e8 00 00 00 00	 call	 _memset
  00350	83 c4 0c	 add	 esp, 12			; 0000000cH

; 120  : 					TMonsterSkillInfo * pMonSInfo = &TMonsterSkillManager::s_MonsterSkillInfoArray[MonsterSkillInfo.m_iMonsterIndex];

  00353	8b 85 74 ff ff
	ff		 mov	 eax, DWORD PTR _MonsterSkillInfo$219822[ebp]
  00359	6b c0 58	 imul	 eax, 88			; 00000058H
  0035c	05 00 00 00 00	 add	 eax, OFFSET ?s_MonsterSkillInfoArray@TMonsterSkillManager@@2PAVTMonsterSkillInfo@@A ; TMonsterSkillManager::s_MonsterSkillInfoArray
  00361	89 85 9c fe ff
	ff		 mov	 DWORD PTR _pMonSInfo$219842[ebp], eax

; 121  : 
; 122  : 					wsprintf(szMsg, "¡ÛIndex:%d,Name:%s,Count:%d,Type0:%d,Unit0:%d,Type1:%d,Unit1:%d,Type2:%d,Unit2:%d,Type3:%d,Unit3:%d,Type4:%d,Unit4:%d\n",
; 123  : 						pMonSInfo->m_iMonsterIndex, szMonsterName, pMonSInfo->m_iSkillUnitCount,
; 124  : 						pMonSInfo->m_iSkillUnitTypeArray[0], pMonSInfo->m_lpSkillUnitArray[0],
; 125  : 						pMonSInfo->m_iSkillUnitTypeArray[1], pMonSInfo->m_lpSkillUnitArray[1],
; 126  : 						pMonSInfo->m_iSkillUnitTypeArray[2], pMonSInfo->m_lpSkillUnitArray[2],
; 127  : 						pMonSInfo->m_iSkillUnitTypeArray[3], pMonSInfo->m_lpSkillUnitArray[3],
; 128  : 						pMonSInfo->m_iSkillUnitTypeArray[4], pMonSInfo->m_lpSkillUnitArray[4]);

  00367	8b 85 9c fe ff
	ff		 mov	 eax, DWORD PTR _pMonSInfo$219842[ebp]
  0036d	8b 48 40	 mov	 ecx, DWORD PTR [eax+64]
  00370	51		 push	 ecx
  00371	8b 95 9c fe ff
	ff		 mov	 edx, DWORD PTR _pMonSInfo$219842[ebp]
  00377	8b 42 18	 mov	 eax, DWORD PTR [edx+24]
  0037a	50		 push	 eax
  0037b	8b 8d 9c fe ff
	ff		 mov	 ecx, DWORD PTR _pMonSInfo$219842[ebp]
  00381	8b 51 3c	 mov	 edx, DWORD PTR [ecx+60]
  00384	52		 push	 edx
  00385	8b 85 9c fe ff
	ff		 mov	 eax, DWORD PTR _pMonSInfo$219842[ebp]
  0038b	8b 48 14	 mov	 ecx, DWORD PTR [eax+20]
  0038e	51		 push	 ecx
  0038f	8b 95 9c fe ff
	ff		 mov	 edx, DWORD PTR _pMonSInfo$219842[ebp]
  00395	8b 42 38	 mov	 eax, DWORD PTR [edx+56]
  00398	50		 push	 eax
  00399	8b 8d 9c fe ff
	ff		 mov	 ecx, DWORD PTR _pMonSInfo$219842[ebp]
  0039f	8b 51 10	 mov	 edx, DWORD PTR [ecx+16]
  003a2	52		 push	 edx
  003a3	8b 85 9c fe ff
	ff		 mov	 eax, DWORD PTR _pMonSInfo$219842[ebp]
  003a9	8b 48 34	 mov	 ecx, DWORD PTR [eax+52]
  003ac	51		 push	 ecx
  003ad	8b 95 9c fe ff
	ff		 mov	 edx, DWORD PTR _pMonSInfo$219842[ebp]
  003b3	8b 42 0c	 mov	 eax, DWORD PTR [edx+12]
  003b6	50		 push	 eax
  003b7	8b 8d 9c fe ff
	ff		 mov	 ecx, DWORD PTR _pMonSInfo$219842[ebp]
  003bd	8b 51 30	 mov	 edx, DWORD PTR [ecx+48]
  003c0	52		 push	 edx
  003c1	8b 85 9c fe ff
	ff		 mov	 eax, DWORD PTR _pMonSInfo$219842[ebp]
  003c7	8b 48 08	 mov	 ecx, DWORD PTR [eax+8]
  003ca	51		 push	 ecx
  003cb	8b 95 9c fe ff
	ff		 mov	 edx, DWORD PTR _pMonSInfo$219842[ebp]
  003d1	8b 42 04	 mov	 eax, DWORD PTR [edx+4]
  003d4	50		 push	 eax
  003d5	8d 4d cc	 lea	 ecx, DWORD PTR _szMonsterName$219821[ebp]
  003d8	51		 push	 ecx
  003d9	8b 95 9c fe ff
	ff		 mov	 edx, DWORD PTR _pMonSInfo$219842[ebp]
  003df	8b 02		 mov	 eax, DWORD PTR [edx]
  003e1	50		 push	 eax
  003e2	68 00 00 00 00	 push	 OFFSET ??_C@_0HH@GONDBIOK@?$KB?$NLIndex?3?$CFd?0Name?3?$CFs?0Count?3?$CFd?0Type@
  003e7	8d 8d a0 fe ff
	ff		 lea	 ecx, DWORD PTR _szMsg$219841[ebp]
  003ed	51		 push	 ecx
  003ee	ff 15 00 00 00
	00		 call	 DWORD PTR __imp__wsprintfA
  003f4	83 c4 3c	 add	 esp, 60			; 0000003cH

; 129  : 
; 130  : 					OutputDebugString(szMsg);

  003f7	8d 85 a0 fe ff
	ff		 lea	 eax, DWORD PTR _szMsg$219841[ebp]
  003fd	50		 push	 eax
  003fe	ff 15 00 00 00
	00		 call	 DWORD PTR __imp__OutputDebugStringA@4
$LN10@LoadData:

; 131  : 				}
; 132  : 			}

  00404	e9 26 fd ff ff	 jmp	 $LN12@LoadData
$LN11@LoadData:

; 133  : 		}

  00409	e9 e7 fc ff ff	 jmp	 $LN15@LoadData
$LN14@LoadData:

; 134  : 
; 135  : 		fclose(SMDFile);

  0040e	a1 00 00 00 00	 mov	 eax, DWORD PTR _SMDFile
  00413	50		 push	 eax
  00414	e8 00 00 00 00	 call	 _fclose
  00419	83 c4 04	 add	 esp, 4

; 136  : 
; 137  : 		LogAddC(2, "[Monster Skill Manager] - %s file is Loaded", lpszFileName);

  0041c	8b 45 08	 mov	 eax, DWORD PTR _lpszFileName$[ebp]
  0041f	50		 push	 eax
  00420	68 00 00 00 00	 push	 OFFSET ??_C@_0CM@BOBBJDPC@?$FLMonster?5Skill?5Manager?$FN?5?9?5?$CFs?5fil@
  00425	6a 02		 push	 2
  00427	ff 15 00 00 00
	00		 call	 DWORD PTR ?LogAddC@@3P6AXEPADZZA ; LogAddC
  0042d	83 c4 0c	 add	 esp, 12			; 0000000cH

; 138  : 
; 139  : 		TMonsterSkillManager::s_bDataLoad = TRUE;

  00430	c7 05 00 00 00
	00 01 00 00 00	 mov	 DWORD PTR ?s_bDataLoad@TMonsterSkillManager@@2HA, 1 ; TMonsterSkillManager::s_bDataLoad

; 140  : 	}

  0043a	eb 1e		 jmp	 SHORT $LN22@LoadData
__catch$?LoadData@TMonsterSkillManager@@SAHPAD@Z$0:

; 141  : 	catch(...)
; 142  : 	{
; 143  : 		MsgBox("[Monster Skill Manager] - Loading Exception Error (%s) File. ", lpszFileName);

  0043c	8b 45 08	 mov	 eax, DWORD PTR _lpszFileName$[ebp]
  0043f	50		 push	 eax
  00440	68 00 00 00 00	 push	 OFFSET ??_C@_0DO@MGDDNBGB@?$FLMonster?5Skill?5Manager?$FN?5?9?5Loadin@
  00445	e8 00 00 00 00	 call	 ?MsgBox@@YAXPADZZ	; MsgBox
  0044a	83 c4 08	 add	 esp, 8

; 144  : 	}

  0044d	c7 45 fc ff ff
	ff ff		 mov	 DWORD PTR __$EHRec$[ebp+12], -1
  00454	b8 00 00 00 00	 mov	 eax, $LN25@LoadData
  00459	c3		 ret	 0
$LN22@LoadData:
  0045a	c7 45 fc ff ff
	ff ff		 mov	 DWORD PTR __$EHRec$[ebp+12], -1
$LN25@LoadData:

; 145  : 
; 146  : 	return FALSE;

  00461	33 c0		 xor	 eax, eax
$LN20@LoadData:

; 147  : }

  00463	8b 4d f4	 mov	 ecx, DWORD PTR __$EHRec$[ebp+4]
  00466	64 89 0d 00 00
	00 00		 mov	 DWORD PTR fs:0, ecx
  0046d	59		 pop	 ecx
  0046e	5f		 pop	 edi
  0046f	5e		 pop	 esi
  00470	5b		 pop	 ebx
  00471	8b 4d ec	 mov	 ecx, DWORD PTR __$ArrayPad$[ebp]
  00474	33 cd		 xor	 ecx, ebp
  00476	e8 00 00 00 00	 call	 @__security_check_cookie@4
  0047b	8b e5		 mov	 esp, ebp
  0047d	5d		 pop	 ebp
  0047e	c3		 ret	 0
_TEXT	ENDS
text$x	SEGMENT
__ehhandler$?LoadData@TMonsterSkillManager@@SAHPAD@Z:
  00000	8b 54 24 08	 mov	 edx, DWORD PTR [esp+8]
  00004	8d 42 0c	 lea	 eax, DWORD PTR [edx+12]
  00007	8b 8a 54 fe ff
	ff		 mov	 ecx, DWORD PTR [edx-428]
  0000d	33 c8		 xor	 ecx, eax
  0000f	e8 00 00 00 00	 call	 @__security_check_cookie@4
  00014	8b 4a f8	 mov	 ecx, DWORD PTR [edx-8]
  00017	33 c8		 xor	 ecx, eax
  00019	e8 00 00 00 00	 call	 @__security_check_cookie@4
  0001e	b8 00 00 00 00	 mov	 eax, OFFSET __ehfuncinfo$?LoadData@TMonsterSkillManager@@SAHPAD@Z
  00023	e9 00 00 00 00	 jmp	 ___CxxFrameHandler3
text$x	ENDS
?LoadData@TMonsterSkillManager@@SAHPAD@Z ENDP		; TMonsterSkillManager::LoadData
PUBLIC	?Reset@TMonsterSkillInfo@@QAEXXZ		; TMonsterSkillInfo::Reset
; Function compile flags: /Odtp /ZI
; File d:\projects\exteam6.3\source\gameserver\gameserver\tmonsterskillinfo.h
;	COMDAT ??0TMonsterSkillInfo@@QAE@XZ
_TEXT	SEGMENT
_this$ = -4						; size = 4
??0TMonsterSkillInfo@@QAE@XZ PROC			; TMonsterSkillInfo::TMonsterSkillInfo, COMDAT
; _this$ = ecx

; 19   : 	TMonsterSkillInfo()

  00000	55		 push	 ebp
  00001	8b ec		 mov	 ebp, esp
  00003	83 ec 44	 sub	 esp, 68			; 00000044H
  00006	53		 push	 ebx
  00007	56		 push	 esi
  00008	57		 push	 edi
  00009	89 4d fc	 mov	 DWORD PTR _this$[ebp], ecx

; 20   : 	{
; 21   : 		this->Reset();

  0000c	8b 4d fc	 mov	 ecx, DWORD PTR _this$[ebp]
  0000f	e8 00 00 00 00	 call	 ?Reset@TMonsterSkillInfo@@QAEXXZ ; TMonsterSkillInfo::Reset

; 22   : 	}

  00014	8b 45 fc	 mov	 eax, DWORD PTR _this$[ebp]
  00017	5f		 pop	 edi
  00018	5e		 pop	 esi
  00019	5b		 pop	 ebx
  0001a	8b e5		 mov	 esp, ebp
  0001c	5d		 pop	 ebp
  0001d	c3		 ret	 0
??0TMonsterSkillInfo@@QAE@XZ ENDP			; TMonsterSkillInfo::TMonsterSkillInfo
; Function compile flags: /Odtp /ZI
_TEXT	ENDS
;	COMDAT ?Reset@TMonsterSkillInfo@@QAEXXZ
_TEXT	SEGMENT
_i$204634 = -8						; size = 4
_this$ = -4						; size = 4
?Reset@TMonsterSkillInfo@@QAEXXZ PROC			; TMonsterSkillInfo::Reset, COMDAT
; _this$ = ecx

; 25   : 	{

  00000	55		 push	 ebp
  00001	8b ec		 mov	 ebp, esp
  00003	83 ec 48	 sub	 esp, 72			; 00000048H
  00006	53		 push	 ebx
  00007	56		 push	 esi
  00008	57		 push	 edi
  00009	89 4d fc	 mov	 DWORD PTR _this$[ebp], ecx

; 26   : 		this->m_iMonsterIndex = -1;

  0000c	8b 45 fc	 mov	 eax, DWORD PTR _this$[ebp]
  0000f	c7 00 ff ff ff
	ff		 mov	 DWORD PTR [eax], -1

; 27   : 		this->m_iSkillUnitCount = 0;

  00015	8b 45 fc	 mov	 eax, DWORD PTR _this$[ebp]
  00018	c7 40 04 00 00
	00 00		 mov	 DWORD PTR [eax+4], 0

; 28   : 
; 29   : 		for ( int i=0;i<10;i++)

  0001f	c7 45 f8 00 00
	00 00		 mov	 DWORD PTR _i$204634[ebp], 0
  00026	eb 09		 jmp	 SHORT $LN3@Reset
$LN2@Reset:
  00028	8b 45 f8	 mov	 eax, DWORD PTR _i$204634[ebp]
  0002b	83 c0 01	 add	 eax, 1
  0002e	89 45 f8	 mov	 DWORD PTR _i$204634[ebp], eax
$LN3@Reset:
  00031	83 7d f8 0a	 cmp	 DWORD PTR _i$204634[ebp], 10 ; 0000000aH
  00035	7d 1e		 jge	 SHORT $LN4@Reset

; 30   : 		{
; 31   : 			this->m_iSkillUnitTypeArray[i] = -1;

  00037	8b 45 f8	 mov	 eax, DWORD PTR _i$204634[ebp]
  0003a	8b 4d fc	 mov	 ecx, DWORD PTR _this$[ebp]
  0003d	c7 44 81 08 ff
	ff ff ff	 mov	 DWORD PTR [ecx+eax*4+8], -1

; 32   : 			this->m_lpSkillUnitArray[i] = NULL;

  00045	8b 45 f8	 mov	 eax, DWORD PTR _i$204634[ebp]
  00048	8b 4d fc	 mov	 ecx, DWORD PTR _this$[ebp]
  0004b	c7 44 81 30 00
	00 00 00	 mov	 DWORD PTR [ecx+eax*4+48], 0

; 33   : 		}

  00053	eb d3		 jmp	 SHORT $LN2@Reset
$LN4@Reset:

; 34   : 	}

  00055	5f		 pop	 edi
  00056	5e		 pop	 esi
  00057	5b		 pop	 ebx
  00058	8b e5		 mov	 esp, ebp
  0005a	5d		 pop	 ebp
  0005b	c3		 ret	 0
?Reset@TMonsterSkillInfo@@QAEXXZ ENDP			; TMonsterSkillInfo::Reset
_TEXT	ENDS
PUBLIC	__$ArrayPad$
EXTRN	_isalnum:PROC
EXTRN	_isalpha:PROC
EXTRN	_atof:PROC
EXTRN	_isdigit:PROC
EXTRN	_getc:PROC
EXTRN	_ungetc:PROC
EXTRN	_isspace:PROC
EXTRN	_fgetc:PROC
EXTRN	__fltused:DWORD
_BSS	SEGMENT
_CurrentToken DD 01H DUP (?)
; Function compile flags: /Odtp /ZI
; File d:\projects\exteam6.3\source\gameserver\include\readscript.h
_BSS	ENDS
_TEXT	SEGMENT
tv90 = -180						; size = 4
_TempString$ = -112					; size = 100
_p$ = -12						; size = 4
_ch$ = -5						; size = 1
__$ArrayPad$ = -4					; size = 4
?GetToken@@YA?AW4SMDToken@@XZ PROC			; GetToken

; 24   : {

  00480	55		 push	 ebp
  00481	8b ec		 mov	 ebp, esp
  00483	81 ec b4 00 00
	00		 sub	 esp, 180		; 000000b4H
  00489	a1 00 00 00 00	 mov	 eax, DWORD PTR ___security_cookie
  0048e	33 c5		 xor	 eax, ebp
  00490	89 45 fc	 mov	 DWORD PTR __$ArrayPad$[ebp], eax
  00493	53		 push	 ebx
  00494	56		 push	 esi
  00495	57		 push	 edi

; 25   : 	char ch;
; 26   : 	char* p;
; 27   : 	char TempString[100];
; 28   : 
; 29   : 	TokenString[0]=0;

  00496	c6 05 00 00 00
	00 00		 mov	 BYTE PTR _TokenString, 0
$LN31@GetToken:

; 30   : 
; 31   : 	do
; 32   : 	{
; 33   : 		if ((ch=fgetc(SMDFile)) == -1)

  0049d	a1 00 00 00 00	 mov	 eax, DWORD PTR _SMDFile
  004a2	50		 push	 eax
  004a3	e8 00 00 00 00	 call	 _fgetc
  004a8	83 c4 04	 add	 esp, 4
  004ab	88 45 fb	 mov	 BYTE PTR _ch$[ebp], al
  004ae	0f be 4d fb	 movsx	 ecx, BYTE PTR _ch$[ebp]
  004b2	83 f9 ff	 cmp	 ecx, -1
  004b5	75 0c		 jne	 SHORT $LN28@GetToken

; 34   : 		{
; 35   : 			return END;	// End of FILE (EOF)

  004b7	b8 02 00 00 00	 mov	 eax, 2
  004bc	e9 f7 02 00 00	 jmp	 $LN32@GetToken

; 36   : 		}
; 37   : 		else

  004c1	eb 5b		 jmp	 SHORT $LN22@GetToken
$LN28@GetToken:

; 38   : 		{	
; 39   : 			if (ch=='/')		// this is /

  004c3	0f be 45 fb	 movsx	 eax, BYTE PTR _ch$[ebp]
  004c7	83 f8 2f	 cmp	 eax, 47			; 0000002fH
  004ca	75 52		 jne	 SHORT $LN22@GetToken

; 40   : 			{
; 41   : 				if((ch=fgetc(SMDFile)) == '/')

  004cc	a1 00 00 00 00	 mov	 eax, DWORD PTR _SMDFile
  004d1	50		 push	 eax
  004d2	e8 00 00 00 00	 call	 _fgetc
  004d7	83 c4 04	 add	 esp, 4
  004da	88 45 fb	 mov	 BYTE PTR _ch$[ebp], al
  004dd	0f be 4d fb	 movsx	 ecx, BYTE PTR _ch$[ebp]
  004e1	83 f9 2f	 cmp	 ecx, 47			; 0000002fH
  004e4	75 38		 jne	 SHORT $LN22@GetToken
$LN24@GetToken:

; 42   : 				{
; 43   : 					while ((ch != '\n') && (ch != -1))	// End of Line (EOL)

  004e6	0f be 45 fb	 movsx	 eax, BYTE PTR _ch$[ebp]
  004ea	83 f8 0a	 cmp	 eax, 10			; 0000000aH
  004ed	74 1c		 je	 SHORT $LN23@GetToken
  004ef	0f be 45 fb	 movsx	 eax, BYTE PTR _ch$[ebp]
  004f3	83 f8 ff	 cmp	 eax, -1
  004f6	74 13		 je	 SHORT $LN23@GetToken

; 44   : 					{
; 45   : 						ch=fgetc(SMDFile);

  004f8	a1 00 00 00 00	 mov	 eax, DWORD PTR _SMDFile
  004fd	50		 push	 eax
  004fe	e8 00 00 00 00	 call	 _fgetc
  00503	83 c4 04	 add	 esp, 4
  00506	88 45 fb	 mov	 BYTE PTR _ch$[ebp], al

; 46   : 					}

  00509	eb db		 jmp	 SHORT $LN24@GetToken
$LN23@GetToken:

; 47   : 	
; 48   : 					if (ch == -1)

  0050b	0f be 45 fb	 movsx	 eax, BYTE PTR _ch$[ebp]
  0050f	83 f8 ff	 cmp	 eax, -1
  00512	75 0a		 jne	 SHORT $LN22@GetToken

; 49   : 					{
; 50   : 						return END;	// End of FILE

  00514	b8 02 00 00 00	 mov	 eax, 2
  00519	e9 9a 02 00 00	 jmp	 $LN32@GetToken
$LN22@GetToken:

; 51   : 					}
; 52   : 				}
; 53   : 			}
; 54   : 		}
; 55   : 	}
; 56   : 	while (isspace(ch) != 0);

  0051e	0f be 45 fb	 movsx	 eax, BYTE PTR _ch$[ebp]
  00522	50		 push	 eax
  00523	e8 00 00 00 00	 call	 _isspace
  00528	83 c4 04	 add	 esp, 4
  0052b	85 c0		 test	 eax, eax
  0052d	0f 85 6a ff ff
	ff		 jne	 $LN31@GetToken

; 57   : 
; 58   : 	
; 59   : 	switch(ch)

  00533	0f be 45 fb	 movsx	 eax, BYTE PTR _ch$[ebp]
  00537	89 85 4c ff ff
	ff		 mov	 DWORD PTR tv90[ebp], eax
  0053d	8b 8d 4c ff ff
	ff		 mov	 ecx, DWORD PTR tv90[ebp]
  00543	83 e9 22	 sub	 ecx, 34			; 00000022H
  00546	89 8d 4c ff ff
	ff		 mov	 DWORD PTR tv90[ebp], ecx
  0054c	83 bd 4c ff ff
	ff 5b		 cmp	 DWORD PTR tv90[ebp], 91	; 0000005bH
  00553	0f 87 a3 01 00
	00		 ja	 $LN6@GetToken
  00559	8b 95 4c ff ff
	ff		 mov	 edx, DWORD PTR tv90[ebp]
  0055f	0f b6 82 00 00
	00 00		 movzx	 eax, BYTE PTR $LN34@GetToken[edx]
  00566	ff 24 85 00 00
	00 00		 jmp	 DWORD PTR $LN35@GetToken[eax*4]
$LN19@GetToken:

; 60   : 	{
; 61   : 
; 62   : 	case 0x23:	// #
; 63   : 		return CurrentToken=COMMAND;

  0056d	c7 05 00 00 00
	00 23 00 00 00	 mov	 DWORD PTR _CurrentToken, 35 ; 00000023H
  00577	a1 00 00 00 00	 mov	 eax, DWORD PTR _CurrentToken
  0057c	e9 37 02 00 00	 jmp	 $LN32@GetToken

; 64   : 		break;

  00581	e9 30 02 00 00	 jmp	 $LN20@GetToken
$LN18@GetToken:

; 65   : 	
; 66   : 	case 0x3B:	// ;
; 67   : 		return CurrentToken=SEMICOLON;

  00586	c7 05 00 00 00
	00 3b 00 00 00	 mov	 DWORD PTR _CurrentToken, 59 ; 0000003bH
  00590	a1 00 00 00 00	 mov	 eax, DWORD PTR _CurrentToken
  00595	e9 1e 02 00 00	 jmp	 $LN32@GetToken

; 68   : 		break;

  0059a	e9 17 02 00 00	 jmp	 $LN20@GetToken
$LN17@GetToken:

; 69   : 	
; 70   : 	case 0x2C:	// ,
; 71   : 
; 72   : 		return CurrentToken=COMMA;

  0059f	c7 05 00 00 00
	00 2c 00 00 00	 mov	 DWORD PTR _CurrentToken, 44 ; 0000002cH
  005a9	a1 00 00 00 00	 mov	 eax, DWORD PTR _CurrentToken
  005ae	e9 05 02 00 00	 jmp	 $LN32@GetToken

; 73   : 		break;

  005b3	e9 fe 01 00 00	 jmp	 $LN20@GetToken
$LN16@GetToken:

; 74   : 	
; 75   : 	case 0x7B:	// {
; 76   : 		return CurrentToken = LP;

  005b8	c7 05 00 00 00
	00 7b 00 00 00	 mov	 DWORD PTR _CurrentToken, 123 ; 0000007bH
  005c2	a1 00 00 00 00	 mov	 eax, DWORD PTR _CurrentToken
  005c7	e9 ec 01 00 00	 jmp	 $LN32@GetToken

; 77   : 		break;

  005cc	e9 e5 01 00 00	 jmp	 $LN20@GetToken
$LN15@GetToken:

; 78   : 
; 79   : 	case 0x7D:	// }
; 80   : 		return CurrentToken = RP;

  005d1	c7 05 00 00 00
	00 7d 00 00 00	 mov	 DWORD PTR _CurrentToken, 125 ; 0000007dH
  005db	a1 00 00 00 00	 mov	 eax, DWORD PTR _CurrentToken
  005e0	e9 d3 01 00 00	 jmp	 $LN32@GetToken

; 81   : 		break;

  005e5	e9 cc 01 00 00	 jmp	 $LN20@GetToken
$LN14@GetToken:

; 82   : 	// Nice Index Table :)	by Deathway
; 83   : 	// Numbers Case
; 84   : 	case 0x2D:	//-
; 85   : 	case 0x2E:	//.
; 86   : 	case '0':	//0
; 87   : 	case '1':	//1
; 88   : 	case '2':	//2
; 89   : 	case '3':	//3
; 90   : 	case '4':	//4		
; 91   : 	case '5':	//5
; 92   : 	case '6':	//6
; 93   : 	case '7':	//7
; 94   : 	case '8':	//8
; 95   : 	case '9':	//9
; 96   : 		ungetc(ch, SMDFile);

  005ea	a1 00 00 00 00	 mov	 eax, DWORD PTR _SMDFile
  005ef	50		 push	 eax
  005f0	0f be 4d fb	 movsx	 ecx, BYTE PTR _ch$[ebp]
  005f4	51		 push	 ecx
  005f5	e8 00 00 00 00	 call	 _ungetc
  005fa	83 c4 08	 add	 esp, 8

; 97   : 		p = TempString;

  005fd	8d 45 90	 lea	 eax, DWORD PTR _TempString$[ebp]
  00600	89 45 f4	 mov	 DWORD PTR _p$[ebp], eax
$LN13@GetToken:

; 98   : 		
; 99   : 		while (((ch=getc(SMDFile)) != -1) && ((ch == 0x2E) || (isdigit(ch) != 0) || (ch == 0x2D)))  // 2e '.'  2D '-'

  00603	a1 00 00 00 00	 mov	 eax, DWORD PTR _SMDFile
  00608	50		 push	 eax
  00609	e8 00 00 00 00	 call	 _getc
  0060e	83 c4 04	 add	 esp, 4
  00611	88 45 fb	 mov	 BYTE PTR _ch$[ebp], al
  00614	0f be 4d fb	 movsx	 ecx, BYTE PTR _ch$[ebp]
  00618	83 f9 ff	 cmp	 ecx, -1
  0061b	74 36		 je	 SHORT $LN12@GetToken
  0061d	0f be 45 fb	 movsx	 eax, BYTE PTR _ch$[ebp]
  00621	83 f8 2e	 cmp	 eax, 46			; 0000002eH
  00624	74 1a		 je	 SHORT $LN11@GetToken
  00626	0f be 45 fb	 movsx	 eax, BYTE PTR _ch$[ebp]
  0062a	50		 push	 eax
  0062b	e8 00 00 00 00	 call	 _isdigit
  00630	83 c4 04	 add	 esp, 4
  00633	85 c0		 test	 eax, eax
  00635	75 09		 jne	 SHORT $LN11@GetToken
  00637	0f be 45 fb	 movsx	 eax, BYTE PTR _ch$[ebp]
  0063b	83 f8 2d	 cmp	 eax, 45			; 0000002dH
  0063e	75 13		 jne	 SHORT $LN12@GetToken
$LN11@GetToken:

; 100  : 		{
; 101  : 			*p = ch;	// Construct a String

  00640	8b 45 f4	 mov	 eax, DWORD PTR _p$[ebp]
  00643	8a 4d fb	 mov	 cl, BYTE PTR _ch$[ebp]
  00646	88 08		 mov	 BYTE PTR [eax], cl

; 102  : 			p++;

  00648	8b 45 f4	 mov	 eax, DWORD PTR _p$[ebp]
  0064b	83 c0 01	 add	 eax, 1
  0064e	89 45 f4	 mov	 DWORD PTR _p$[ebp], eax

; 103  : 		}		

  00651	eb b0		 jmp	 SHORT $LN13@GetToken
$LN12@GetToken:

; 104  : 		*p = 0;

  00653	8b 45 f4	 mov	 eax, DWORD PTR _p$[ebp]
  00656	c6 00 00	 mov	 BYTE PTR [eax], 0

; 105  : 		TokenNumber = atof( TempString);	// Select the first Byte as Main ID

  00659	8d 45 90	 lea	 eax, DWORD PTR _TempString$[ebp]
  0065c	50		 push	 eax
  0065d	e8 00 00 00 00	 call	 _atof
  00662	83 c4 04	 add	 esp, 4
  00665	d9 1d 00 00 00
	00		 fstp	 DWORD PTR _TokenNumber

; 106  : 		return CurrentToken  = NUMBER ;

  0066b	c7 05 00 00 00
	00 01 00 00 00	 mov	 DWORD PTR _CurrentToken, 1
  00675	a1 00 00 00 00	 mov	 eax, DWORD PTR _CurrentToken
  0067a	e9 39 01 00 00	 jmp	 $LN32@GetToken

; 107  : 		break;

  0067f	e9 32 01 00 00	 jmp	 $LN20@GetToken
$LN10@GetToken:

; 108  : 
; 109  : 	case '\"':	// "	String Case
; 110  : 		p=&TokenString[0];

  00684	c7 45 f4 00 00
	00 00		 mov	 DWORD PTR _p$[ebp], OFFSET _TokenString
$LN9@GetToken:

; 111  : 		
; 112  : 		while (((ch=getc(SMDFile)) != -1 ) && (ch != 0x22))	// nice

  0068b	a1 00 00 00 00	 mov	 eax, DWORD PTR _SMDFile
  00690	50		 push	 eax
  00691	e8 00 00 00 00	 call	 _getc
  00696	83 c4 04	 add	 esp, 4
  00699	88 45 fb	 mov	 BYTE PTR _ch$[ebp], al
  0069c	0f be 4d fb	 movsx	 ecx, BYTE PTR _ch$[ebp]
  006a0	83 f9 ff	 cmp	 ecx, -1
  006a3	74 1c		 je	 SHORT $LN8@GetToken
  006a5	0f be 45 fb	 movsx	 eax, BYTE PTR _ch$[ebp]
  006a9	83 f8 22	 cmp	 eax, 34			; 00000022H
  006ac	74 13		 je	 SHORT $LN8@GetToken

; 113  : 		{
; 114  : 			*p = ch;

  006ae	8b 45 f4	 mov	 eax, DWORD PTR _p$[ebp]
  006b1	8a 4d fb	 mov	 cl, BYTE PTR _ch$[ebp]
  006b4	88 08		 mov	 BYTE PTR [eax], cl

; 115  : 			p++;

  006b6	8b 45 f4	 mov	 eax, DWORD PTR _p$[ebp]
  006b9	83 c0 01	 add	 eax, 1
  006bc	89 45 f4	 mov	 DWORD PTR _p$[ebp], eax

; 116  : 		}

  006bf	eb ca		 jmp	 SHORT $LN9@GetToken
$LN8@GetToken:

; 117  : 		if (ch != 0x22 )

  006c1	0f be 45 fb	 movsx	 eax, BYTE PTR _ch$[ebp]
  006c5	83 f8 22	 cmp	 eax, 34			; 00000022H
  006c8	74 13		 je	 SHORT $LN7@GetToken

; 118  : 		{
; 119  : 			ungetc(ch, SMDFile);

  006ca	a1 00 00 00 00	 mov	 eax, DWORD PTR _SMDFile
  006cf	50		 push	 eax
  006d0	0f be 4d fb	 movsx	 ecx, BYTE PTR _ch$[ebp]
  006d4	51		 push	 ecx
  006d5	e8 00 00 00 00	 call	 _ungetc
  006da	83 c4 08	 add	 esp, 8
$LN7@GetToken:

; 120  : 		}
; 121  : 		*p = 0;

  006dd	8b 45 f4	 mov	 eax, DWORD PTR _p$[ebp]
  006e0	c6 00 00	 mov	 BYTE PTR [eax], 0

; 122  : 		return CurrentToken = NAME;

  006e3	c7 05 00 00 00
	00 00 00 00 00	 mov	 DWORD PTR _CurrentToken, 0
  006ed	a1 00 00 00 00	 mov	 eax, DWORD PTR _CurrentToken
  006f2	e9 c1 00 00 00	 jmp	 $LN32@GetToken

; 123  : 		break;

  006f7	e9 ba 00 00 00	 jmp	 $LN20@GetToken
$LN6@GetToken:

; 124  : 
; 125  : 	default:	// Others
; 126  : 		if (isalpha(ch))

  006fc	0f be 45 fb	 movsx	 eax, BYTE PTR _ch$[ebp]
  00700	50		 push	 eax
  00701	e8 00 00 00 00	 call	 _isalpha
  00706	83 c4 04	 add	 esp, 4
  00709	85 c0		 test	 eax, eax
  0070b	0f 84 94 00 00
	00		 je	 $LN5@GetToken

; 127  : 		{
; 128  : 			p=&TokenString[0];

  00711	c7 45 f4 00 00
	00 00		 mov	 DWORD PTR _p$[ebp], OFFSET _TokenString

; 129  : 			*p=ch;

  00718	8b 45 f4	 mov	 eax, DWORD PTR _p$[ebp]
  0071b	8a 4d fb	 mov	 cl, BYTE PTR _ch$[ebp]
  0071e	88 08		 mov	 BYTE PTR [eax], cl

; 130  : 			p++;

  00720	8b 45 f4	 mov	 eax, DWORD PTR _p$[ebp]
  00723	83 c0 01	 add	 eax, 1
  00726	89 45 f4	 mov	 DWORD PTR _p$[ebp], eax
$LN4@GetToken:

; 131  : 
; 132  : 			while ( ((ch=getc(SMDFile)) != -1) && ( (ch == 0x2E) || (ch == 0x5F) || (isalnum(ch) != 0) ) )

  00729	a1 00 00 00 00	 mov	 eax, DWORD PTR _SMDFile
  0072e	50		 push	 eax
  0072f	e8 00 00 00 00	 call	 _getc
  00734	83 c4 04	 add	 esp, 4
  00737	88 45 fb	 mov	 BYTE PTR _ch$[ebp], al
  0073a	0f be 4d fb	 movsx	 ecx, BYTE PTR _ch$[ebp]
  0073e	83 f9 ff	 cmp	 ecx, -1
  00741	74 36		 je	 SHORT $LN3@GetToken
  00743	0f be 45 fb	 movsx	 eax, BYTE PTR _ch$[ebp]
  00747	83 f8 2e	 cmp	 eax, 46			; 0000002eH
  0074a	74 1a		 je	 SHORT $LN2@GetToken
  0074c	0f be 45 fb	 movsx	 eax, BYTE PTR _ch$[ebp]
  00750	83 f8 5f	 cmp	 eax, 95			; 0000005fH
  00753	74 11		 je	 SHORT $LN2@GetToken
  00755	0f be 45 fb	 movsx	 eax, BYTE PTR _ch$[ebp]
  00759	50		 push	 eax
  0075a	e8 00 00 00 00	 call	 _isalnum
  0075f	83 c4 04	 add	 esp, 4
  00762	85 c0		 test	 eax, eax
  00764	74 13		 je	 SHORT $LN3@GetToken
$LN2@GetToken:

; 133  : 			{
; 134  : 				*p=ch;

  00766	8b 45 f4	 mov	 eax, DWORD PTR _p$[ebp]
  00769	8a 4d fb	 mov	 cl, BYTE PTR _ch$[ebp]
  0076c	88 08		 mov	 BYTE PTR [eax], cl

; 135  : 				p++;

  0076e	8b 45 f4	 mov	 eax, DWORD PTR _p$[ebp]
  00771	83 c0 01	 add	 eax, 1
  00774	89 45 f4	 mov	 DWORD PTR _p$[ebp], eax

; 136  : 				
; 137  : 			}

  00777	eb b0		 jmp	 SHORT $LN4@GetToken
$LN3@GetToken:

; 138  : 
; 139  : 			ungetc(ch, SMDFile);

  00779	a1 00 00 00 00	 mov	 eax, DWORD PTR _SMDFile
  0077e	50		 push	 eax
  0077f	0f be 4d fb	 movsx	 ecx, BYTE PTR _ch$[ebp]
  00783	51		 push	 ecx
  00784	e8 00 00 00 00	 call	 _ungetc
  00789	83 c4 08	 add	 esp, 8

; 140  : 			*p=0;

  0078c	8b 45 f4	 mov	 eax, DWORD PTR _p$[ebp]
  0078f	c6 00 00	 mov	 BYTE PTR [eax], 0

; 141  : 			CurrentToken=NAME;

  00792	c7 05 00 00 00
	00 00 00 00 00	 mov	 DWORD PTR _CurrentToken, 0

; 142  : 			return CurrentToken;

  0079c	a1 00 00 00 00	 mov	 eax, DWORD PTR _CurrentToken
  007a1	eb 15		 jmp	 SHORT $LN32@GetToken

; 143  : 		}
; 144  : 		else

  007a3	eb 11		 jmp	 SHORT $LN1@GetToken
$LN5@GetToken:

; 145  : 		{
; 146  : 			return CurrentToken = SMD_ERROR; // '<'

  007a5	c7 05 00 00 00
	00 3c 00 00 00	 mov	 DWORD PTR _CurrentToken, 60 ; 0000003cH
  007af	a1 00 00 00 00	 mov	 eax, DWORD PTR _CurrentToken
  007b4	eb 02		 jmp	 SHORT $LN32@GetToken
$LN1@GetToken:
$LN20@GetToken:

; 147  : 		}
; 148  : 		break;
; 149  : 
; 150  : 	}
; 151  : 
; 152  : 	return NAME;

  007b6	33 c0		 xor	 eax, eax
$LN32@GetToken:

; 153  : }

  007b8	5f		 pop	 edi
  007b9	5e		 pop	 esi
  007ba	5b		 pop	 ebx
  007bb	8b 4d fc	 mov	 ecx, DWORD PTR __$ArrayPad$[ebp]
  007be	33 cd		 xor	 ecx, ebp
  007c0	e8 00 00 00 00	 call	 @__security_check_cookie@4
  007c5	8b e5		 mov	 esp, ebp
  007c7	5d		 pop	 ebp
  007c8	c3		 ret	 0
  007c9	8d 49 00	 npad	 3
$LN35@GetToken:
  007cc	00 00 00 00	 DD	 $LN10@GetToken
  007d0	00 00 00 00	 DD	 $LN19@GetToken
  007d4	00 00 00 00	 DD	 $LN17@GetToken
  007d8	00 00 00 00	 DD	 $LN14@GetToken
  007dc	00 00 00 00	 DD	 $LN18@GetToken
  007e0	00 00 00 00	 DD	 $LN16@GetToken
  007e4	00 00 00 00	 DD	 $LN15@GetToken
  007e8	00 00 00 00	 DD	 $LN6@GetToken
$LN34@GetToken:
  007ec	00		 DB	 0
  007ed	01		 DB	 1
  007ee	07		 DB	 7
  007ef	07		 DB	 7
  007f0	07		 DB	 7
  007f1	07		 DB	 7
  007f2	07		 DB	 7
  007f3	07		 DB	 7
  007f4	07		 DB	 7
  007f5	07		 DB	 7
  007f6	02		 DB	 2
  007f7	03		 DB	 3
  007f8	03		 DB	 3
  007f9	07		 DB	 7
  007fa	03		 DB	 3
  007fb	03		 DB	 3
  007fc	03		 DB	 3
  007fd	03		 DB	 3
  007fe	03		 DB	 3
  007ff	03		 DB	 3
  00800	03		 DB	 3
  00801	03		 DB	 3
  00802	03		 DB	 3
  00803	03		 DB	 3
  00804	07		 DB	 7
  00805	04		 DB	 4
  00806	07		 DB	 7
  00807	07		 DB	 7
  00808	07		 DB	 7
  00809	07		 DB	 7
  0080a	07		 DB	 7
  0080b	07		 DB	 7
  0080c	07		 DB	 7
  0080d	07		 DB	 7
  0080e	07		 DB	 7
  0080f	07		 DB	 7
  00810	07		 DB	 7
  00811	07		 DB	 7
  00812	07		 DB	 7
  00813	07		 DB	 7
  00814	07		 DB	 7
  00815	07		 DB	 7
  00816	07		 DB	 7
  00817	07		 DB	 7
  00818	07		 DB	 7
  00819	07		 DB	 7
  0081a	07		 DB	 7
  0081b	07		 DB	 7
  0081c	07		 DB	 7
  0081d	07		 DB	 7
  0081e	07		 DB	 7
  0081f	07		 DB	 7
  00820	07		 DB	 7
  00821	07		 DB	 7
  00822	07		 DB	 7
  00823	07		 DB	 7
  00824	07		 DB	 7
  00825	07		 DB	 7
  00826	07		 DB	 7
  00827	07		 DB	 7
  00828	07		 DB	 7
  00829	07		 DB	 7
  0082a	07		 DB	 7
  0082b	07		 DB	 7
  0082c	07		 DB	 7
  0082d	07		 DB	 7
  0082e	07		 DB	 7
  0082f	07		 DB	 7
  00830	07		 DB	 7
  00831	07		 DB	 7
  00832	07		 DB	 7
  00833	07		 DB	 7
  00834	07		 DB	 7
  00835	07		 DB	 7
  00836	07		 DB	 7
  00837	07		 DB	 7
  00838	07		 DB	 7
  00839	07		 DB	 7
  0083a	07		 DB	 7
  0083b	07		 DB	 7
  0083c	07		 DB	 7
  0083d	07		 DB	 7
  0083e	07		 DB	 7
  0083f	07		 DB	 7
  00840	07		 DB	 7
  00841	07		 DB	 7
  00842	07		 DB	 7
  00843	07		 DB	 7
  00844	07		 DB	 7
  00845	05		 DB	 5
  00846	07		 DB	 7
  00847	06		 DB	 6
?GetToken@@YA?AW4SMDToken@@XZ ENDP			; GetToken
_TEXT	ENDS
PUBLIC	?RESET@_ST_MONSTER_SKILL_DELAYTIME_INFO@@QAEXXZ	; _ST_MONSTER_SKILL_DELAYTIME_INFO::RESET
; Function compile flags: /Odtp /ZI
; File d:\projects\exteam6.3\source\gameserver\gameserver\tmonsterskillmanager.cpp
_TEXT	SEGMENT
_j$219852 = -8						; size = 4
_i$219848 = -4						; size = 4
?DelAllSkillManagerInfo@TMonsterSkillManager@@SAXXZ PROC ; TMonsterSkillManager::DelAllSkillManagerInfo

; 152  : {

  00850	55		 push	 ebp
  00851	8b ec		 mov	 ebp, esp
  00853	83 ec 48	 sub	 esp, 72			; 00000048H
  00856	53		 push	 ebx
  00857	56		 push	 esi
  00858	57		 push	 edi

; 153  : 	for ( int i=0;i<MAX_MONSTER_SKILL_INFO_ARRAY;i++)

  00859	c7 45 fc 00 00
	00 00		 mov	 DWORD PTR _i$219848[ebp], 0
  00860	eb 09		 jmp	 SHORT $LN6@DelAllSkil
$LN5@DelAllSkil:
  00862	8b 45 fc	 mov	 eax, DWORD PTR _i$219848[ebp]
  00865	83 c0 01	 add	 eax, 1
  00868	89 45 fc	 mov	 DWORD PTR _i$219848[ebp], eax
$LN6@DelAllSkil:
  0086b	81 7d fc bc 02
	00 00		 cmp	 DWORD PTR _i$219848[ebp], 700 ; 000002bcH
  00872	7d 13		 jge	 SHORT $LN4@DelAllSkil

; 154  : 	{
; 155  : 		TMonsterSkillManager::s_MonsterSkillInfoArray[i].Reset();

  00874	8b 4d fc	 mov	 ecx, DWORD PTR _i$219848[ebp]
  00877	6b c9 58	 imul	 ecx, 88			; 00000058H
  0087a	81 c1 00 00 00
	00		 add	 ecx, OFFSET ?s_MonsterSkillInfoArray@TMonsterSkillManager@@2PAVTMonsterSkillInfo@@A ; TMonsterSkillManager::s_MonsterSkillInfoArray
  00880	e8 00 00 00 00	 call	 ?Reset@TMonsterSkillInfo@@QAEXXZ ; TMonsterSkillInfo::Reset

; 156  : 	}

  00885	eb db		 jmp	 SHORT $LN5@DelAllSkil
$LN4@DelAllSkil:

; 157  : 
; 158  : 	for ( int j=0;j<MAX_MONSTER_SKILL_DELAY_INFO_ARRAY;j++)

  00887	c7 45 f8 00 00
	00 00		 mov	 DWORD PTR _j$219852[ebp], 0
  0088e	eb 09		 jmp	 SHORT $LN3@DelAllSkil
$LN2@DelAllSkil:
  00890	8b 45 f8	 mov	 eax, DWORD PTR _j$219852[ebp]
  00893	83 c0 01	 add	 eax, 1
  00896	89 45 f8	 mov	 DWORD PTR _j$219852[ebp], eax
$LN3@DelAllSkil:
  00899	81 7d f8 b8 0b
	00 00		 cmp	 DWORD PTR _j$219852[ebp], 3000 ; 00000bb8H
  008a0	7d 13		 jge	 SHORT $LN7@DelAllSkil

; 159  : 	{
; 160  : 		TMonsterSkillManager::s_MonsterSkillDelayInfoArray[j].RESET();

  008a2	8b 4d f8	 mov	 ecx, DWORD PTR _j$219852[ebp]
  008a5	6b c9 14	 imul	 ecx, 20			; 00000014H
  008a8	81 c1 00 00 00
	00		 add	 ecx, OFFSET ?s_MonsterSkillDelayInfoArray@TMonsterSkillManager@@2PAU_ST_MONSTER_SKILL_DELAYTIME_INFO@@A ; TMonsterSkillManager::s_MonsterSkillDelayInfoArray
  008ae	e8 00 00 00 00	 call	 ?RESET@_ST_MONSTER_SKILL_DELAYTIME_INFO@@QAEXXZ ; _ST_MONSTER_SKILL_DELAYTIME_INFO::RESET

; 161  : 	}

  008b3	eb db		 jmp	 SHORT $LN2@DelAllSkil
$LN7@DelAllSkil:

; 162  : }

  008b5	5f		 pop	 edi
  008b6	5e		 pop	 esi
  008b7	5b		 pop	 ebx
  008b8	8b e5		 mov	 esp, ebp
  008ba	5d		 pop	 ebp
  008bb	c3		 ret	 0
?DelAllSkillManagerInfo@TMonsterSkillManager@@SAXXZ ENDP ; TMonsterSkillManager::DelAllSkillManagerInfo
; Function compile flags: /Odtp /ZI
; File d:\projects\exteam6.3\source\gameserver\gameserver\tmonsterskillmanager.h
_TEXT	ENDS
;	COMDAT ?RESET@_ST_MONSTER_SKILL_DELAYTIME_INFO@@QAEXXZ
_TEXT	SEGMENT
_this$ = -4						; size = 4
?RESET@_ST_MONSTER_SKILL_DELAYTIME_INFO@@QAEXXZ PROC	; _ST_MONSTER_SKILL_DELAYTIME_INFO::RESET, COMDAT
; _this$ = ecx

; 14   : 	{

  00000	55		 push	 ebp
  00001	8b ec		 mov	 ebp, esp
  00003	83 ec 44	 sub	 esp, 68			; 00000044H
  00006	53		 push	 ebx
  00007	56		 push	 esi
  00008	57		 push	 edi
  00009	89 4d fc	 mov	 DWORD PTR _this$[ebp], ecx

; 15   : 		this->iIndex = -1;

  0000c	8b 45 fc	 mov	 eax, DWORD PTR _this$[ebp]
  0000f	c7 40 04 ff ff
	ff ff		 mov	 DWORD PTR [eax+4], -1

; 16   : 		this->iTargetIndex = -1;

  00016	8b 45 fc	 mov	 eax, DWORD PTR _this$[ebp]
  00019	c7 40 08 ff ff
	ff ff		 mov	 DWORD PTR [eax+8], -1

; 17   : 		this->dwDelayTime = 0;

  00020	8b 45 fc	 mov	 eax, DWORD PTR _this$[ebp]
  00023	c7 40 0c 00 00
	00 00		 mov	 DWORD PTR [eax+12], 0

; 18   : 		this->bIsUsed = FALSE;

  0002a	8b 45 fc	 mov	 eax, DWORD PTR _this$[ebp]
  0002d	c7 00 00 00 00
	00		 mov	 DWORD PTR [eax], 0

; 19   : 		this->lpMonsterSkillUnit = NULL;

  00033	8b 45 fc	 mov	 eax, DWORD PTR _this$[ebp]
  00036	c7 40 10 00 00
	00 00		 mov	 DWORD PTR [eax+16], 0

; 20   : 	}

  0003d	5f		 pop	 edi
  0003e	5e		 pop	 esi
  0003f	5b		 pop	 ebx
  00040	8b e5		 mov	 esp, ebp
  00042	5d		 pop	 ebp
  00043	c3		 ret	 0
?RESET@_ST_MONSTER_SKILL_DELAYTIME_INFO@@QAEXXZ ENDP	; _ST_MONSTER_SKILL_DELAYTIME_INFO::RESET
_TEXT	ENDS
PUBLIC	?IsValid@TMonsterSkillInfo@@QAEHXZ		; TMonsterSkillInfo::IsValid
PUBLIC	?CheckMonsterSkill@TMonsterSkillManager@@SAHH@Z	; TMonsterSkillManager::CheckMonsterSkill
; Function compile flags: /Odtp /ZI
; File d:\projects\exteam6.3\source\gameserver\gameserver\tmonsterskillmanager.cpp
_TEXT	SEGMENT
_lpMonsterSkillInfo$ = -4				; size = 4
_iMonsterClass$ = 8					; size = 4
?CheckMonsterSkill@TMonsterSkillManager@@SAHH@Z PROC	; TMonsterSkillManager::CheckMonsterSkill

; 165  : {

  008c0	55		 push	 ebp
  008c1	8b ec		 mov	 ebp, esp
  008c3	83 ec 44	 sub	 esp, 68			; 00000044H
  008c6	53		 push	 ebx
  008c7	56		 push	 esi
  008c8	57		 push	 edi

; 166  : 	if ( iMonsterClass < 0 || iMonsterClass > MAX_MONSTER_SKILL_INFO_ARRAY )	// #error Change to MAX_MONSTER_SKILL_INFO_ARRAY-1

  008c9	83 7d 08 00	 cmp	 DWORD PTR _iMonsterClass$[ebp], 0
  008cd	7c 09		 jl	 SHORT $LN2@CheckMonst
  008cf	81 7d 08 bc 02
	00 00		 cmp	 DWORD PTR _iMonsterClass$[ebp], 700 ; 000002bcH
  008d6	7e 04		 jle	 SHORT $LN3@CheckMonst
$LN2@CheckMonst:

; 167  : 		return FALSE;

  008d8	33 c0		 xor	 eax, eax
  008da	eb 23		 jmp	 SHORT $LN4@CheckMonst
$LN3@CheckMonst:

; 168  : 
; 169  : 	TMonsterSkillInfo * lpMonsterSkillInfo = &TMonsterSkillManager::s_MonsterSkillInfoArray[iMonsterClass];

  008dc	8b 45 08	 mov	 eax, DWORD PTR _iMonsterClass$[ebp]
  008df	6b c0 58	 imul	 eax, 88			; 00000058H
  008e2	05 00 00 00 00	 add	 eax, OFFSET ?s_MonsterSkillInfoArray@TMonsterSkillManager@@2PAVTMonsterSkillInfo@@A ; TMonsterSkillManager::s_MonsterSkillInfoArray
  008e7	89 45 fc	 mov	 DWORD PTR _lpMonsterSkillInfo$[ebp], eax

; 170  : 
; 171  : 	if ( lpMonsterSkillInfo->IsValid() == FALSE )

  008ea	8b 4d fc	 mov	 ecx, DWORD PTR _lpMonsterSkillInfo$[ebp]
  008ed	e8 00 00 00 00	 call	 ?IsValid@TMonsterSkillInfo@@QAEHXZ ; TMonsterSkillInfo::IsValid
  008f2	85 c0		 test	 eax, eax
  008f4	75 04		 jne	 SHORT $LN1@CheckMonst

; 172  : 		return FALSE;

  008f6	33 c0		 xor	 eax, eax
  008f8	eb 05		 jmp	 SHORT $LN4@CheckMonst
$LN1@CheckMonst:

; 173  : 
; 174  : 	return TRUE;

  008fa	b8 01 00 00 00	 mov	 eax, 1
$LN4@CheckMonst:

; 175  : }

  008ff	5f		 pop	 edi
  00900	5e		 pop	 esi
  00901	5b		 pop	 ebx
  00902	8b e5		 mov	 esp, ebp
  00904	5d		 pop	 ebp
  00905	c3		 ret	 0
?CheckMonsterSkill@TMonsterSkillManager@@SAHH@Z ENDP	; TMonsterSkillManager::CheckMonsterSkill
; Function compile flags: /Odtp /ZI
; File d:\projects\exteam6.3\source\gameserver\gameserver\tmonsterskillinfo.h
_TEXT	ENDS
;	COMDAT ?IsValid@TMonsterSkillInfo@@QAEHXZ
_TEXT	SEGMENT
_this$ = -4						; size = 4
?IsValid@TMonsterSkillInfo@@QAEHXZ PROC			; TMonsterSkillInfo::IsValid, COMDAT
; _this$ = ecx

; 37   : 	{

  00000	55		 push	 ebp
  00001	8b ec		 mov	 ebp, esp
  00003	83 ec 44	 sub	 esp, 68			; 00000044H
  00006	53		 push	 ebx
  00007	56		 push	 esi
  00008	57		 push	 edi
  00009	89 4d fc	 mov	 DWORD PTR _this$[ebp], ecx

; 38   : 		if ( this->m_iMonsterIndex == -1 || this->m_iSkillUnitCount == 0 )

  0000c	8b 45 fc	 mov	 eax, DWORD PTR _this$[ebp]
  0000f	83 38 ff	 cmp	 DWORD PTR [eax], -1
  00012	74 09		 je	 SHORT $LN1@IsValid
  00014	8b 45 fc	 mov	 eax, DWORD PTR _this$[ebp]
  00017	83 78 04 00	 cmp	 DWORD PTR [eax+4], 0
  0001b	75 04		 jne	 SHORT $LN2@IsValid
$LN1@IsValid:

; 39   : 			return FALSE;

  0001d	33 c0		 xor	 eax, eax
  0001f	eb 05		 jmp	 SHORT $LN3@IsValid
$LN2@IsValid:

; 40   : 
; 41   : 		return TRUE;

  00021	b8 01 00 00 00	 mov	 eax, 1
$LN3@IsValid:

; 42   : 	}

  00026	5f		 pop	 edi
  00027	5e		 pop	 esi
  00028	5b		 pop	 ebx
  00029	8b e5		 mov	 esp, ebp
  0002b	5d		 pop	 ebp
  0002c	c3		 ret	 0
?IsValid@TMonsterSkillInfo@@QAEHXZ ENDP			; TMonsterSkillInfo::IsValid
_TEXT	ENDS
PUBLIC	??_C@_0DP@OCKDOEEK@?$FLMonster?5Skill?5Manager?$FN?5?9?5?$CIMonst@ ; `string'
PUBLIC	?AddMonsterSkillDelayInfo@TMonsterSkillManager@@SAHHHHPAVTMonsterSkillUnit@@@Z ; TMonsterSkillManager::AddMonsterSkillDelayInfo
EXTRN	__imp__GetTickCount@0:PROC
;	COMDAT ??_C@_0DP@OCKDOEEK@?$FLMonster?5Skill?5Manager?$FN?5?9?5?$CIMonst@
; File d:\projects\exteam6.3\source\gameserver\gameserver\tmonsterskillmanager.cpp
CONST	SEGMENT
??_C@_0DP@OCKDOEEK@?$FLMonster?5Skill?5Manager?$FN?5?9?5?$CIMonst@ DB '[M'
	DB	'onster Skill Manager] - (MonsterSkillDelayInfo) Slot Full!! ', 00H ; `string'
; Function compile flags: /Odtp /ZI
CONST	ENDS
_TEXT	SEGMENT
_i$219869 = -4						; size = 4
_iIndex$ = 8						; size = 4
_iTargetIndex$ = 12					; size = 4
_iDelayTime$ = 16					; size = 4
_lpMonsterSkillUnit$ = 20				; size = 4
?AddMonsterSkillDelayInfo@TMonsterSkillManager@@SAHHHHPAVTMonsterSkillUnit@@@Z PROC ; TMonsterSkillManager::AddMonsterSkillDelayInfo

; 179  : {

  00910	55		 push	 ebp
  00911	8b ec		 mov	 ebp, esp
  00913	83 ec 44	 sub	 esp, 68			; 00000044H
  00916	53		 push	 ebx
  00917	56		 push	 esi
  00918	57		 push	 edi

; 180  : 	for ( int i=0;i<MAX_MONSTER_SKILL_DELAY_INFO_ARRAY;i++)

  00919	c7 45 fc 00 00
	00 00		 mov	 DWORD PTR _i$219869[ebp], 0
  00920	eb 09		 jmp	 SHORT $LN4@AddMonster
$LN3@AddMonster:
  00922	8b 45 fc	 mov	 eax, DWORD PTR _i$219869[ebp]
  00925	83 c0 01	 add	 eax, 1
  00928	89 45 fc	 mov	 DWORD PTR _i$219869[ebp], eax
$LN4@AddMonster:
  0092b	81 7d fc b8 0b
	00 00		 cmp	 DWORD PTR _i$219869[ebp], 3000 ; 00000bb8H
  00932	7d 6a		 jge	 SHORT $LN2@AddMonster

; 181  : 	{
; 182  : 		if ( TMonsterSkillManager::s_MonsterSkillDelayInfoArray[i].bIsUsed == FALSE )

  00934	8b 45 fc	 mov	 eax, DWORD PTR _i$219869[ebp]
  00937	6b c0 14	 imul	 eax, 20			; 00000014H
  0093a	83 b8 00 00 00
	00 00		 cmp	 DWORD PTR ?s_MonsterSkillDelayInfoArray@TMonsterSkillManager@@2PAU_ST_MONSTER_SKILL_DELAYTIME_INFO@@A[eax], 0
  00941	75 59		 jne	 SHORT $LN1@AddMonster

; 183  : 		{
; 184  : 			TMonsterSkillManager::s_MonsterSkillDelayInfoArray[i].iIndex = iIndex;

  00943	8b 45 fc	 mov	 eax, DWORD PTR _i$219869[ebp]
  00946	6b c0 14	 imul	 eax, 20			; 00000014H
  00949	8b 4d 08	 mov	 ecx, DWORD PTR _iIndex$[ebp]
  0094c	89 88 04 00 00
	00		 mov	 DWORD PTR ?s_MonsterSkillDelayInfoArray@TMonsterSkillManager@@2PAU_ST_MONSTER_SKILL_DELAYTIME_INFO@@A[eax+4], ecx

; 185  : 			TMonsterSkillManager::s_MonsterSkillDelayInfoArray[i].iTargetIndex = iTargetIndex;

  00952	8b 45 fc	 mov	 eax, DWORD PTR _i$219869[ebp]
  00955	6b c0 14	 imul	 eax, 20			; 00000014H
  00958	8b 4d 0c	 mov	 ecx, DWORD PTR _iTargetIndex$[ebp]
  0095b	89 88 08 00 00
	00		 mov	 DWORD PTR ?s_MonsterSkillDelayInfoArray@TMonsterSkillManager@@2PAU_ST_MONSTER_SKILL_DELAYTIME_INFO@@A[eax+8], ecx

; 186  : 			TMonsterSkillManager::s_MonsterSkillDelayInfoArray[i].dwDelayTime = GetTickCount() + iDelayTime;

  00961	ff 15 00 00 00
	00		 call	 DWORD PTR __imp__GetTickCount@0
  00967	03 45 10	 add	 eax, DWORD PTR _iDelayTime$[ebp]
  0096a	8b 4d fc	 mov	 ecx, DWORD PTR _i$219869[ebp]
  0096d	6b c9 14	 imul	 ecx, 20			; 00000014H
  00970	89 81 0c 00 00
	00		 mov	 DWORD PTR ?s_MonsterSkillDelayInfoArray@TMonsterSkillManager@@2PAU_ST_MONSTER_SKILL_DELAYTIME_INFO@@A[ecx+12], eax

; 187  : 			TMonsterSkillManager::s_MonsterSkillDelayInfoArray[i].lpMonsterSkillUnit = lpMonsterSkillUnit;

  00976	8b 45 fc	 mov	 eax, DWORD PTR _i$219869[ebp]
  00979	6b c0 14	 imul	 eax, 20			; 00000014H
  0097c	8b 4d 14	 mov	 ecx, DWORD PTR _lpMonsterSkillUnit$[ebp]
  0097f	89 88 10 00 00
	00		 mov	 DWORD PTR ?s_MonsterSkillDelayInfoArray@TMonsterSkillManager@@2PAU_ST_MONSTER_SKILL_DELAYTIME_INFO@@A[eax+16], ecx

; 188  : 			TMonsterSkillManager::s_MonsterSkillDelayInfoArray[i].bIsUsed = TRUE;

  00985	8b 45 fc	 mov	 eax, DWORD PTR _i$219869[ebp]
  00988	6b c0 14	 imul	 eax, 20			; 00000014H
  0098b	c7 80 00 00 00
	00 01 00 00 00	 mov	 DWORD PTR ?s_MonsterSkillDelayInfoArray@TMonsterSkillManager@@2PAU_ST_MONSTER_SKILL_DELAYTIME_INFO@@A[eax], 1

; 189  : 
; 190  : 			return TRUE;

  00995	b8 01 00 00 00	 mov	 eax, 1
  0099a	eb 14		 jmp	 SHORT $LN5@AddMonster
$LN1@AddMonster:

; 191  : 		}
; 192  : 	}

  0099c	eb 84		 jmp	 SHORT $LN3@AddMonster
$LN2@AddMonster:

; 193  : 
; 194  : 	LogAddC(2, "[Monster Skill Manager] - (MonsterSkillDelayInfo) Slot Full!! ");

  0099e	68 00 00 00 00	 push	 OFFSET ??_C@_0DP@OCKDOEEK@?$FLMonster?5Skill?5Manager?$FN?5?9?5?$CIMonst@
  009a3	6a 02		 push	 2
  009a5	ff 15 00 00 00
	00		 call	 DWORD PTR ?LogAddC@@3P6AXEPADZZA ; LogAddC
  009ab	83 c4 08	 add	 esp, 8

; 195  : 	return FALSE;

  009ae	33 c0		 xor	 eax, eax
$LN5@AddMonster:

; 196  : }

  009b0	5f		 pop	 edi
  009b1	5e		 pop	 esi
  009b2	5b		 pop	 ebx
  009b3	8b e5		 mov	 esp, ebp
  009b5	5d		 pop	 ebp
  009b6	c3		 ret	 0
?AddMonsterSkillDelayInfo@TMonsterSkillManager@@SAHHHHPAVTMonsterSkillUnit@@@Z ENDP ; TMonsterSkillManager::AddMonsterSkillDelayInfo
_TEXT	ENDS
PUBLIC	?IsValid@_ST_MONSTER_SKILL_DELAYTIME_INFO@@QAEHXZ ; _ST_MONSTER_SKILL_DELAYTIME_INFO::IsValid
PUBLIC	?MonsterSkillProc@TMonsterSkillManager@@SAXXZ	; TMonsterSkillManager::MonsterSkillProc
EXTRN	?RunSkill@TMonsterSkillUnit@@QAEXHH@Z:PROC	; TMonsterSkillUnit::RunSkill
EXTRN	?gObjAttack@@YAHPAUOBJECTSTRUCT@@0PAVCMagicInf@@HEHHEE@Z:PROC ; gObjAttack
EXTRN	?gObjIsConnected@@YAHPAUOBJECTSTRUCT@@@Z:PROC	; gObjIsConnected
EXTRN	?gObj@@3PAUOBJECTSTRUCT@@A:DWORD		; gObj
; Function compile flags: /Odtp /ZI
_TEXT	SEGMENT
_lpTargetObj$219887 = -20				; size = 4
_lpObj$219886 = -16					; size = 4
_stInfo$219884 = -12					; size = 4
_i$219878 = -8						; size = 4
_dwCurrentTick$ = -4					; size = 4
?MonsterSkillProc@TMonsterSkillManager@@SAXXZ PROC	; TMonsterSkillManager::MonsterSkillProc

; 201  : {

  009c0	55		 push	 ebp
  009c1	8b ec		 mov	 ebp, esp
  009c3	83 ec 54	 sub	 esp, 84			; 00000054H
  009c6	53		 push	 ebx
  009c7	56		 push	 esi
  009c8	57		 push	 edi

; 202  : 	DWORD dwCurrentTick = GetTickCount();

  009c9	ff 15 00 00 00
	00		 call	 DWORD PTR __imp__GetTickCount@0
  009cf	89 45 fc	 mov	 DWORD PTR _dwCurrentTick$[ebp], eax

; 203  : 
; 204  : 	for ( int i=0;i<MAX_MONSTER_SKILL_DELAY_INFO_ARRAY;i++)

  009d2	c7 45 f8 00 00
	00 00		 mov	 DWORD PTR _i$219878[ebp], 0
  009d9	eb 09		 jmp	 SHORT $LN9@MonsterSki
$LN8@MonsterSki:
  009db	8b 45 f8	 mov	 eax, DWORD PTR _i$219878[ebp]
  009de	83 c0 01	 add	 eax, 1
  009e1	89 45 f8	 mov	 DWORD PTR _i$219878[ebp], eax
$LN9@MonsterSki:
  009e4	81 7d f8 b8 0b
	00 00		 cmp	 DWORD PTR _i$219878[ebp], 3000 ; 00000bb8H
  009eb	0f 8d 1e 01 00
	00		 jge	 $LN10@MonsterSki

; 205  : 	{
; 206  : 		if ( TMonsterSkillManager::s_MonsterSkillDelayInfoArray[i].bIsUsed == TRUE )

  009f1	8b 45 f8	 mov	 eax, DWORD PTR _i$219878[ebp]
  009f4	6b c0 14	 imul	 eax, 20			; 00000014H
  009f7	83 b8 00 00 00
	00 01		 cmp	 DWORD PTR ?s_MonsterSkillDelayInfoArray@TMonsterSkillManager@@2PAU_ST_MONSTER_SKILL_DELAYTIME_INFO@@A[eax], 1
  009fe	0f 85 06 01 00
	00		 jne	 $LN6@MonsterSki

; 207  : 		{
; 208  : 			if ( dwCurrentTick < TMonsterSkillManager::s_MonsterSkillDelayInfoArray[i].dwDelayTime )

  00a04	8b 45 f8	 mov	 eax, DWORD PTR _i$219878[ebp]
  00a07	6b c0 14	 imul	 eax, 20			; 00000014H
  00a0a	8b 4d fc	 mov	 ecx, DWORD PTR _dwCurrentTick$[ebp]
  00a0d	3b 88 0c 00 00
	00		 cmp	 ecx, DWORD PTR ?s_MonsterSkillDelayInfoArray@TMonsterSkillManager@@2PAU_ST_MONSTER_SKILL_DELAYTIME_INFO@@A[eax+12]
  00a13	0f 83 f1 00 00
	00		 jae	 $LN6@MonsterSki

; 209  : 			{
; 210  : 				_ST_MONSTER_SKILL_DELAYTIME_INFO & stInfo = TMonsterSkillManager::s_MonsterSkillDelayInfoArray[i];

  00a19	8b 45 f8	 mov	 eax, DWORD PTR _i$219878[ebp]
  00a1c	6b c0 14	 imul	 eax, 20			; 00000014H
  00a1f	05 00 00 00 00	 add	 eax, OFFSET ?s_MonsterSkillDelayInfoArray@TMonsterSkillManager@@2PAU_ST_MONSTER_SKILL_DELAYTIME_INFO@@A ; TMonsterSkillManager::s_MonsterSkillDelayInfoArray
  00a24	89 45 f4	 mov	 DWORD PTR _stInfo$219884[ebp], eax

; 211  : 
; 212  : 				if ( !stInfo.IsValid() )

  00a27	8b 4d f4	 mov	 ecx, DWORD PTR _stInfo$219884[ebp]
  00a2a	e8 00 00 00 00	 call	 ?IsValid@_ST_MONSTER_SKILL_DELAYTIME_INFO@@QAEHXZ ; _ST_MONSTER_SKILL_DELAYTIME_INFO::IsValid
  00a2f	85 c0		 test	 eax, eax
  00a31	75 13		 jne	 SHORT $LN4@MonsterSki

; 213  : 				{
; 214  : 					TMonsterSkillManager::s_MonsterSkillDelayInfoArray[i].RESET();

  00a33	8b 4d f8	 mov	 ecx, DWORD PTR _i$219878[ebp]
  00a36	6b c9 14	 imul	 ecx, 20			; 00000014H
  00a39	81 c1 00 00 00
	00		 add	 ecx, OFFSET ?s_MonsterSkillDelayInfoArray@TMonsterSkillManager@@2PAU_ST_MONSTER_SKILL_DELAYTIME_INFO@@A ; TMonsterSkillManager::s_MonsterSkillDelayInfoArray
  00a3f	e8 00 00 00 00	 call	 ?RESET@_ST_MONSTER_SKILL_DELAYTIME_INFO@@QAEXXZ ; _ST_MONSTER_SKILL_DELAYTIME_INFO::RESET

; 215  : 					continue;

  00a44	eb 95		 jmp	 SHORT $LN8@MonsterSki
$LN4@MonsterSki:

; 216  : 				}
; 217  : 
; 218  : 				LPOBJ lpObj = &gObj[stInfo.iIndex];

  00a46	8b 45 f4	 mov	 eax, DWORD PTR _stInfo$219884[ebp]
  00a49	8b 48 04	 mov	 ecx, DWORD PTR [eax+4]
  00a4c	69 c9 38 2b 00
	00		 imul	 ecx, 11064		; 00002b38H
  00a52	03 0d 00 00 00
	00		 add	 ecx, DWORD PTR ?gObj@@3PAUOBJECTSTRUCT@@A ; gObj
  00a58	89 4d f0	 mov	 DWORD PTR _lpObj$219886[ebp], ecx

; 219  : 				LPOBJ lpTargetObj = &gObj[stInfo.iTargetIndex];

  00a5b	8b 45 f4	 mov	 eax, DWORD PTR _stInfo$219884[ebp]
  00a5e	8b 48 08	 mov	 ecx, DWORD PTR [eax+8]
  00a61	69 c9 38 2b 00
	00		 imul	 ecx, 11064		; 00002b38H
  00a67	03 0d 00 00 00
	00		 add	 ecx, DWORD PTR ?gObj@@3PAUOBJECTSTRUCT@@A ; gObj
  00a6d	89 4d ec	 mov	 DWORD PTR _lpTargetObj$219887[ebp], ecx

; 220  : 
; 221  : 				if ( !lpObj->Live || !lpTargetObj->Live )

  00a70	8b 45 f0	 mov	 eax, DWORD PTR _lpObj$219886[ebp]
  00a73	0f b6 48 6a	 movzx	 ecx, BYTE PTR [eax+106]
  00a77	85 c9		 test	 ecx, ecx
  00a79	74 0b		 je	 SHORT $LN2@MonsterSki
  00a7b	8b 45 ec	 mov	 eax, DWORD PTR _lpTargetObj$219887[ebp]
  00a7e	0f b6 48 6a	 movzx	 ecx, BYTE PTR [eax+106]
  00a82	85 c9		 test	 ecx, ecx
  00a84	75 16		 jne	 SHORT $LN3@MonsterSki
$LN2@MonsterSki:

; 222  : 				{
; 223  : 					TMonsterSkillManager::s_MonsterSkillDelayInfoArray[i].RESET();

  00a86	8b 4d f8	 mov	 ecx, DWORD PTR _i$219878[ebp]
  00a89	6b c9 14	 imul	 ecx, 20			; 00000014H
  00a8c	81 c1 00 00 00
	00		 add	 ecx, OFFSET ?s_MonsterSkillDelayInfoArray@TMonsterSkillManager@@2PAU_ST_MONSTER_SKILL_DELAYTIME_INFO@@A ; TMonsterSkillManager::s_MonsterSkillDelayInfoArray
  00a92	e8 00 00 00 00	 call	 ?RESET@_ST_MONSTER_SKILL_DELAYTIME_INFO@@QAEXXZ ; _ST_MONSTER_SKILL_DELAYTIME_INFO::RESET

; 224  : 					continue;

  00a97	e9 3f ff ff ff	 jmp	 $LN8@MonsterSki
$LN3@MonsterSki:

; 225  : 				}
; 226  : 
; 227  : 				if ( !gObjIsConnected(lpTargetObj))

  00a9c	8b 45 ec	 mov	 eax, DWORD PTR _lpTargetObj$219887[ebp]
  00a9f	50		 push	 eax
  00aa0	e8 00 00 00 00	 call	 ?gObjIsConnected@@YAHPAUOBJECTSTRUCT@@@Z ; gObjIsConnected
  00aa5	83 c4 04	 add	 esp, 4
  00aa8	85 c0		 test	 eax, eax
  00aaa	75 16		 jne	 SHORT $LN1@MonsterSki

; 228  : 				{
; 229  : 					TMonsterSkillManager::s_MonsterSkillDelayInfoArray[i].RESET();

  00aac	8b 4d f8	 mov	 ecx, DWORD PTR _i$219878[ebp]
  00aaf	6b c9 14	 imul	 ecx, 20			; 00000014H
  00ab2	81 c1 00 00 00
	00		 add	 ecx, OFFSET ?s_MonsterSkillDelayInfoArray@TMonsterSkillManager@@2PAU_ST_MONSTER_SKILL_DELAYTIME_INFO@@A ; TMonsterSkillManager::s_MonsterSkillDelayInfoArray
  00ab8	e8 00 00 00 00	 call	 ?RESET@_ST_MONSTER_SKILL_DELAYTIME_INFO@@QAEXXZ ; _ST_MONSTER_SKILL_DELAYTIME_INFO::RESET

; 230  : 					continue;

  00abd	e9 19 ff ff ff	 jmp	 $LN8@MonsterSki
$LN1@MonsterSki:

; 231  : 				}
; 232  : 
; 233  : 				gObjAttack(lpObj, lpTargetObj, 0, 0, 0, 0, 0,0,0);

  00ac2	6a 00		 push	 0
  00ac4	6a 00		 push	 0
  00ac6	6a 00		 push	 0
  00ac8	6a 00		 push	 0
  00aca	6a 00		 push	 0
  00acc	6a 00		 push	 0
  00ace	6a 00		 push	 0
  00ad0	8b 45 ec	 mov	 eax, DWORD PTR _lpTargetObj$219887[ebp]
  00ad3	50		 push	 eax
  00ad4	8b 4d f0	 mov	 ecx, DWORD PTR _lpObj$219886[ebp]
  00ad7	51		 push	 ecx
  00ad8	e8 00 00 00 00	 call	 ?gObjAttack@@YAHPAUOBJECTSTRUCT@@0PAVCMagicInf@@HEHHEE@Z ; gObjAttack
  00add	83 c4 24	 add	 esp, 36			; 00000024H

; 234  : 				stInfo.lpMonsterSkillUnit->RunSkill(stInfo.iIndex, stInfo.iTargetIndex);

  00ae0	8b 45 f4	 mov	 eax, DWORD PTR _stInfo$219884[ebp]
  00ae3	8b 48 08	 mov	 ecx, DWORD PTR [eax+8]
  00ae6	51		 push	 ecx
  00ae7	8b 55 f4	 mov	 edx, DWORD PTR _stInfo$219884[ebp]
  00aea	8b 42 04	 mov	 eax, DWORD PTR [edx+4]
  00aed	50		 push	 eax
  00aee	8b 4d f4	 mov	 ecx, DWORD PTR _stInfo$219884[ebp]
  00af1	8b 49 10	 mov	 ecx, DWORD PTR [ecx+16]
  00af4	e8 00 00 00 00	 call	 ?RunSkill@TMonsterSkillUnit@@QAEXHH@Z ; TMonsterSkillUnit::RunSkill

; 235  : 				TMonsterSkillManager::s_MonsterSkillDelayInfoArray[i].RESET();

  00af9	8b 4d f8	 mov	 ecx, DWORD PTR _i$219878[ebp]
  00afc	6b c9 14	 imul	 ecx, 20			; 00000014H
  00aff	81 c1 00 00 00
	00		 add	 ecx, OFFSET ?s_MonsterSkillDelayInfoArray@TMonsterSkillManager@@2PAU_ST_MONSTER_SKILL_DELAYTIME_INFO@@A ; TMonsterSkillManager::s_MonsterSkillDelayInfoArray
  00b05	e8 00 00 00 00	 call	 ?RESET@_ST_MONSTER_SKILL_DELAYTIME_INFO@@QAEXXZ ; _ST_MONSTER_SKILL_DELAYTIME_INFO::RESET
$LN6@MonsterSki:

; 236  : 			}
; 237  : 		}
; 238  : 	}

  00b0a	e9 cc fe ff ff	 jmp	 $LN8@MonsterSki
$LN10@MonsterSki:

; 239  : }

  00b0f	5f		 pop	 edi
  00b10	5e		 pop	 esi
  00b11	5b		 pop	 ebx
  00b12	8b e5		 mov	 esp, ebp
  00b14	5d		 pop	 ebp
  00b15	c3		 ret	 0
?MonsterSkillProc@TMonsterSkillManager@@SAXXZ ENDP	; TMonsterSkillManager::MonsterSkillProc
; Function compile flags: /Odtp /ZI
; File d:\projects\exteam6.3\source\gameserver\gameserver\tmonsterskillmanager.h
_TEXT	ENDS
;	COMDAT ?IsValid@_ST_MONSTER_SKILL_DELAYTIME_INFO@@QAEHXZ
_TEXT	SEGMENT
tv76 = -72						; size = 4
tv69 = -72						; size = 4
_this$ = -4						; size = 4
?IsValid@_ST_MONSTER_SKILL_DELAYTIME_INFO@@QAEHXZ PROC	; _ST_MONSTER_SKILL_DELAYTIME_INFO::IsValid, COMDAT
; _this$ = ecx

; 24   : 	{

  00000	55		 push	 ebp
  00001	8b ec		 mov	 ebp, esp
  00003	83 ec 48	 sub	 esp, 72			; 00000048H
  00006	53		 push	 ebx
  00007	56		 push	 esi
  00008	57		 push	 edi
  00009	89 4d fc	 mov	 DWORD PTR _this$[ebp], ecx

; 25   : 		if ( !OBJMAX_RANGE(this->iIndex) || !OBJMAX_RANGE(this->iTargetIndex) )

  0000c	8b 45 fc	 mov	 eax, DWORD PTR _this$[ebp]
  0000f	83 78 04 00	 cmp	 DWORD PTR [eax+4], 0
  00013	7d 09		 jge	 SHORT $LN6@IsValid@2
  00015	c7 45 b8 00 00
	00 00		 mov	 DWORD PTR tv69[ebp], 0
  0001c	eb 12		 jmp	 SHORT $LN7@IsValid@2
$LN6@IsValid@2:
  0001e	8b 4d fc	 mov	 ecx, DWORD PTR _this$[ebp]
  00021	33 d2		 xor	 edx, edx
  00023	81 79 04 97 3a
	00 00		 cmp	 DWORD PTR [ecx+4], 14999 ; 00003a97H
  0002a	0f 9e c2	 setle	 dl
  0002d	89 55 b8	 mov	 DWORD PTR tv69[ebp], edx
$LN7@IsValid@2:
  00030	83 7d b8 00	 cmp	 DWORD PTR tv69[ebp], 0
  00034	74 2a		 je	 SHORT $LN2@IsValid@2
  00036	8b 45 fc	 mov	 eax, DWORD PTR _this$[ebp]
  00039	83 78 08 00	 cmp	 DWORD PTR [eax+8], 0
  0003d	7d 09		 jge	 SHORT $LN8@IsValid@2
  0003f	c7 45 b8 00 00
	00 00		 mov	 DWORD PTR tv76[ebp], 0
  00046	eb 12		 jmp	 SHORT $LN9@IsValid@2
$LN8@IsValid@2:
  00048	8b 4d fc	 mov	 ecx, DWORD PTR _this$[ebp]
  0004b	33 d2		 xor	 edx, edx
  0004d	81 79 08 97 3a
	00 00		 cmp	 DWORD PTR [ecx+8], 14999 ; 00003a97H
  00054	0f 9e c2	 setle	 dl
  00057	89 55 b8	 mov	 DWORD PTR tv76[ebp], edx
$LN9@IsValid@2:
  0005a	83 7d b8 00	 cmp	 DWORD PTR tv76[ebp], 0
  0005e	75 04		 jne	 SHORT $LN3@IsValid@2
$LN2@IsValid@2:

; 26   : 			return FALSE;

  00060	33 c0		 xor	 eax, eax
  00062	eb 12		 jmp	 SHORT $LN4@IsValid@2
$LN3@IsValid@2:

; 27   : 
; 28   : 		if ( this->lpMonsterSkillUnit == NULL )

  00064	8b 45 fc	 mov	 eax, DWORD PTR _this$[ebp]
  00067	83 78 10 00	 cmp	 DWORD PTR [eax+16], 0
  0006b	75 04		 jne	 SHORT $LN1@IsValid@2

; 29   : 			return FALSE;

  0006d	33 c0		 xor	 eax, eax
  0006f	eb 05		 jmp	 SHORT $LN4@IsValid@2
$LN1@IsValid@2:

; 30   : 
; 31   : 		return TRUE;

  00071	b8 01 00 00 00	 mov	 eax, 1
$LN4@IsValid@2:

; 32   : 	}

  00076	5f		 pop	 edi
  00077	5e		 pop	 esi
  00078	5b		 pop	 ebx
  00079	8b e5		 mov	 esp, ebp
  0007b	5d		 pop	 ebp
  0007c	c3		 ret	 0
?IsValid@_ST_MONSTER_SKILL_DELAYTIME_INFO@@QAEHXZ ENDP	; _ST_MONSTER_SKILL_DELAYTIME_INFO::IsValid
_TEXT	ENDS
PUBLIC	__$ArrayPad$
PUBLIC	?FindMonsterSkillUnit@TMonsterSkillManager@@SAPAVTMonsterSkillUnit@@HH@Z ; TMonsterSkillManager::FindMonsterSkillUnit
EXTRN	_rand:PROC
; Function compile flags: /Odtp /ZI
; File d:\projects\exteam6.3\source\gameserver\gameserver\tmonsterskillmanager.cpp
_TEXT	SEGMENT
_lpMonsterSkillUnit$219908 = -68			; size = 4
_iSlot$219906 = -64					; size = 4
_i$219900 = -60						; size = 4
_iFoundSkillCount$ = -56				; size = 4
_iFoundSkillArray$ = -52				; size = 40
_lpMonsterSkillInfo$ = -12				; size = 4
_lpObj$ = -8						; size = 4
__$ArrayPad$ = -4					; size = 4
_iIndex$ = 8						; size = 4
_iMonsterSkillUnitType$ = 12				; size = 4
?FindMonsterSkillUnit@TMonsterSkillManager@@SAPAVTMonsterSkillUnit@@HH@Z PROC ; TMonsterSkillManager::FindMonsterSkillUnit

; 243  : {

  00b20	55		 push	 ebp
  00b21	8b ec		 mov	 ebp, esp
  00b23	81 ec 84 00 00
	00		 sub	 esp, 132		; 00000084H
  00b29	a1 00 00 00 00	 mov	 eax, DWORD PTR ___security_cookie
  00b2e	33 c5		 xor	 eax, ebp
  00b30	89 45 fc	 mov	 DWORD PTR __$ArrayPad$[ebp], eax
  00b33	53		 push	 ebx
  00b34	56		 push	 esi
  00b35	57		 push	 edi

; 244  : 	LPOBJ lpObj = &gObj[iIndex];

  00b36	8b 45 08	 mov	 eax, DWORD PTR _iIndex$[ebp]
  00b39	69 c0 38 2b 00
	00		 imul	 eax, 11064		; 00002b38H
  00b3f	03 05 00 00 00
	00		 add	 eax, DWORD PTR ?gObj@@3PAUOBJECTSTRUCT@@A ; gObj
  00b45	89 45 f8	 mov	 DWORD PTR _lpObj$[ebp], eax

; 245  : 	TMonsterSkillInfo * lpMonsterSkillInfo = &TMonsterSkillManager::s_MonsterSkillInfoArray[lpObj->Class];

  00b48	8b 45 f8	 mov	 eax, DWORD PTR _lpObj$[ebp]
  00b4b	0f b7 88 b8 00
	00 00		 movzx	 ecx, WORD PTR [eax+184]
  00b52	6b c9 58	 imul	 ecx, 88			; 00000058H
  00b55	81 c1 00 00 00
	00		 add	 ecx, OFFSET ?s_MonsterSkillInfoArray@TMonsterSkillManager@@2PAVTMonsterSkillInfo@@A ; TMonsterSkillManager::s_MonsterSkillInfoArray
  00b5b	89 4d f4	 mov	 DWORD PTR _lpMonsterSkillInfo$[ebp], ecx

; 246  : 
; 247  : 	if ( lpMonsterSkillInfo->IsValid() == FALSE )

  00b5e	8b 4d f4	 mov	 ecx, DWORD PTR _lpMonsterSkillInfo$[ebp]
  00b61	e8 00 00 00 00	 call	 ?IsValid@TMonsterSkillInfo@@QAEHXZ ; TMonsterSkillInfo::IsValid
  00b66	85 c0		 test	 eax, eax
  00b68	75 07		 jne	 SHORT $LN7@FindMonste

; 248  : 		return NULL;

  00b6a	33 c0		 xor	 eax, eax
  00b6c	e9 9b 00 00 00	 jmp	 $LN8@FindMonste
$LN7@FindMonste:

; 249  : 
; 250  : 	int iFoundSkillArray[10] = {-1};

  00b71	c7 45 cc ff ff
	ff ff		 mov	 DWORD PTR _iFoundSkillArray$[ebp], -1
  00b78	33 c0		 xor	 eax, eax
  00b7a	89 45 d0	 mov	 DWORD PTR _iFoundSkillArray$[ebp+4], eax
  00b7d	89 45 d4	 mov	 DWORD PTR _iFoundSkillArray$[ebp+8], eax
  00b80	89 45 d8	 mov	 DWORD PTR _iFoundSkillArray$[ebp+12], eax
  00b83	89 45 dc	 mov	 DWORD PTR _iFoundSkillArray$[ebp+16], eax
  00b86	89 45 e0	 mov	 DWORD PTR _iFoundSkillArray$[ebp+20], eax
  00b89	89 45 e4	 mov	 DWORD PTR _iFoundSkillArray$[ebp+24], eax
  00b8c	89 45 e8	 mov	 DWORD PTR _iFoundSkillArray$[ebp+28], eax
  00b8f	89 45 ec	 mov	 DWORD PTR _iFoundSkillArray$[ebp+32], eax
  00b92	89 45 f0	 mov	 DWORD PTR _iFoundSkillArray$[ebp+36], eax

; 251  : 	int iFoundSkillCount = 0;

  00b95	c7 45 c8 00 00
	00 00		 mov	 DWORD PTR _iFoundSkillCount$[ebp], 0

; 252  : 
; 253  : 	for(int i=0;i<10;i++)

  00b9c	c7 45 c4 00 00
	00 00		 mov	 DWORD PTR _i$219900[ebp], 0
  00ba3	eb 09		 jmp	 SHORT $LN6@FindMonste
$LN5@FindMonste:
  00ba5	8b 45 c4	 mov	 eax, DWORD PTR _i$219900[ebp]
  00ba8	83 c0 01	 add	 eax, 1
  00bab	89 45 c4	 mov	 DWORD PTR _i$219900[ebp], eax
$LN6@FindMonste:
  00bae	83 7d c4 0a	 cmp	 DWORD PTR _i$219900[ebp], 10 ; 0000000aH
  00bb2	7d 24		 jge	 SHORT $LN4@FindMonste

; 254  : 	{
; 255  : 		if ( iMonsterSkillUnitType == lpMonsterSkillInfo->m_iSkillUnitTypeArray[i] )

  00bb4	8b 45 c4	 mov	 eax, DWORD PTR _i$219900[ebp]
  00bb7	8b 4d f4	 mov	 ecx, DWORD PTR _lpMonsterSkillInfo$[ebp]
  00bba	8b 55 0c	 mov	 edx, DWORD PTR _iMonsterSkillUnitType$[ebp]
  00bbd	3b 54 81 08	 cmp	 edx, DWORD PTR [ecx+eax*4+8]
  00bc1	75 13		 jne	 SHORT $LN3@FindMonste

; 256  : 		{
; 257  : 			iFoundSkillArray[iFoundSkillCount] = i;

  00bc3	8b 45 c8	 mov	 eax, DWORD PTR _iFoundSkillCount$[ebp]
  00bc6	8b 4d c4	 mov	 ecx, DWORD PTR _i$219900[ebp]
  00bc9	89 4c 85 cc	 mov	 DWORD PTR _iFoundSkillArray$[ebp+eax*4], ecx

; 258  : 			iFoundSkillCount++;

  00bcd	8b 45 c8	 mov	 eax, DWORD PTR _iFoundSkillCount$[ebp]
  00bd0	83 c0 01	 add	 eax, 1
  00bd3	89 45 c8	 mov	 DWORD PTR _iFoundSkillCount$[ebp], eax
$LN3@FindMonste:

; 259  : 		}
; 260  : 	}

  00bd6	eb cd		 jmp	 SHORT $LN5@FindMonste
$LN4@FindMonste:

; 261  : 
; 262  : 	if ( iFoundSkillCount > 0 )

  00bd8	83 7d c8 00	 cmp	 DWORD PTR _iFoundSkillCount$[ebp], 0
  00bdc	7e 2c		 jle	 SHORT $LN2@FindMonste

; 263  : 	{
; 264  : 		int iSlot = iFoundSkillArray[rand() % iFoundSkillCount];

  00bde	e8 00 00 00 00	 call	 _rand
  00be3	99		 cdq
  00be4	f7 7d c8	 idiv	 DWORD PTR _iFoundSkillCount$[ebp]
  00be7	8b 44 95 cc	 mov	 eax, DWORD PTR _iFoundSkillArray$[ebp+edx*4]
  00beb	89 45 c0	 mov	 DWORD PTR _iSlot$219906[ebp], eax

; 265  : 
; 266  : 		if ( iSlot == -1 )

  00bee	83 7d c0 ff	 cmp	 DWORD PTR _iSlot$219906[ebp], -1
  00bf2	75 04		 jne	 SHORT $LN1@FindMonste

; 267  : 			return NULL;

  00bf4	33 c0		 xor	 eax, eax
  00bf6	eb 14		 jmp	 SHORT $LN8@FindMonste
$LN1@FindMonste:

; 268  : 
; 269  : 		TMonsterSkillUnit * lpMonsterSkillUnit = lpMonsterSkillInfo->m_lpSkillUnitArray[iSlot];

  00bf8	8b 45 c0	 mov	 eax, DWORD PTR _iSlot$219906[ebp]
  00bfb	8b 4d f4	 mov	 ecx, DWORD PTR _lpMonsterSkillInfo$[ebp]
  00bfe	8b 54 81 30	 mov	 edx, DWORD PTR [ecx+eax*4+48]
  00c02	89 55 bc	 mov	 DWORD PTR _lpMonsterSkillUnit$219908[ebp], edx

; 270  : 		
; 271  : 		return lpMonsterSkillUnit;

  00c05	8b 45 bc	 mov	 eax, DWORD PTR _lpMonsterSkillUnit$219908[ebp]
  00c08	eb 02		 jmp	 SHORT $LN8@FindMonste
$LN2@FindMonste:

; 272  : 	}
; 273  : 	
; 274  : 	return NULL;

  00c0a	33 c0		 xor	 eax, eax
$LN8@FindMonste:

; 275  : }

  00c0c	5f		 pop	 edi
  00c0d	5e		 pop	 esi
  00c0e	5b		 pop	 ebx
  00c0f	8b 4d fc	 mov	 ecx, DWORD PTR __$ArrayPad$[ebp]
  00c12	33 cd		 xor	 ecx, ebp
  00c14	e8 00 00 00 00	 call	 @__security_check_cookie@4
  00c19	8b e5		 mov	 esp, ebp
  00c1b	5d		 pop	 ebp
  00c1c	c3		 ret	 0
?FindMonsterSkillUnit@TMonsterSkillManager@@SAPAVTMonsterSkillUnit@@HH@Z ENDP ; TMonsterSkillManager::FindMonsterSkillUnit
_TEXT	ENDS
PUBLIC	??_C@_0EN@PFFOMJLG@?$FLMonster?5Skill?5Manager?$FN?5SkillUni@ ; `string'
PUBLIC	??_C@_0EB@PGJFMLKA@?$FLTMonsterSkillManager?$FN?$FLUserMonst@ ; `string'
PUBLIC	??_C@_0DL@ENELDMAN@?$FLTMonsterSkillManager?$FN?$FLUserMonst@ ; `string'
PUBLIC	?UseMonsterSkill@TMonsterSkillManager@@SAXHHHHPAVCMagicInf@@@Z ; TMonsterSkillManager::UseMonsterSkill
EXTRN	?HitCheck@CSkillHitBox@@QAEHHHHHH@Z:PROC	; CSkillHitBox::HitCheck
EXTRN	?SkillElectricSparkHitBox@@3VCSkillHitBox@@A:BYTE ; SkillElectricSparkHitBox
EXTRN	?gObjCalDistance@@YAHPAUOBJECTSTRUCT@@0@Z:PROC	; gObjCalDistance
EXTRN	?GetAngle@CObjUseSkill@@QAEHHHHH@Z:PROC		; CObjUseSkill::GetAngle
EXTRN	?gObjUseSkill@@3VCObjUseSkill@@A:DWORD		; gObjUseSkill
EXTRN	?GCUseMonsterSkillSend@@YAXPAUOBJECTSTRUCT@@0H@Z:PROC ; GCUseMonsterSkillSend
;	COMDAT ??_C@_0EN@PFFOMJLG@?$FLMonster?5Skill?5Manager?$FN?5SkillUni@
CONST	SEGMENT
??_C@_0EN@PFFOMJLG@?$FLMonster?5Skill?5Manager?$FN?5SkillUni@ DB '[Monste'
	DB	'r Skill Manager] SkillUnit is NULL : ObjIndex[%d], SkillUnitT'
	DB	'ype[%d] ', 00H				; `string'
CONST	ENDS
;	COMDAT ??_C@_0EB@PGJFMLKA@?$FLTMonsterSkillManager?$FN?$FLUserMonst@
CONST	SEGMENT
??_C@_0EB@PGJFMLKA@?$FLTMonsterSkillManager?$FN?$FLUserMonst@ DB '[TMonst'
	DB	'erSkillManager][UserMonsterSkill] error: iTargetIndex(%d)', 00H ; `string'
CONST	ENDS
;	COMDAT ??_C@_0DL@ENELDMAN@?$FLTMonsterSkillManager?$FN?$FLUserMonst@
CONST	SEGMENT
??_C@_0DL@ENELDMAN@?$FLTMonsterSkillManager?$FN?$FLUserMonst@ DB '[TMonst'
	DB	'erSkillManager][UserMonsterSkill] error: iIndex(%d)', 00H ; `string'
; Function compile flags: /Odtp /ZI
CONST	ENDS
_TEXT	SEGMENT
tv214 = -104						; size = 4
_bTargetOK$219950 = -36					; size = 4
_iAngle$219943 = -32					; size = 4
_iRangeTargetIndex$219942 = -28				; size = 4
_iCount$219941 = -24					; size = 4
_iMonsterSkill$219928 = -20				; size = 4
_lpMonsterSkillUnit$ = -16				; size = 4
_lpMonsterSkillInfo$ = -12				; size = 4
_lpTargetObj$ = -8					; size = 4
_lpObj$ = -4						; size = 4
_iIndex$ = 8						; size = 4
_iTargetIndex$ = 12					; size = 4
_iMonsterSkillUnitType$ = 16				; size = 4
_iMonsterSkillUnit$ = 20				; size = 4
_lpMagic$ = 24						; size = 4
?UseMonsterSkill@TMonsterSkillManager@@SAXHHHHPAVCMagicInf@@@Z PROC ; TMonsterSkillManager::UseMonsterSkill

; 280  : {

  00c20	55		 push	 ebp
  00c21	8b ec		 mov	 ebp, esp
  00c23	83 ec 68	 sub	 esp, 104		; 00000068H
  00c26	53		 push	 ebx
  00c27	56		 push	 esi
  00c28	57		 push	 edi

; 281  : 	if (iIndex >= OBJ_MAXMONSTER || iIndex < 0)

  00c29	81 7d 08 c8 32
	00 00		 cmp	 DWORD PTR _iIndex$[ebp], 13000 ; 000032c8H
  00c30	7d 06		 jge	 SHORT $LN39@UseMonster
  00c32	83 7d 08 00	 cmp	 DWORD PTR _iIndex$[ebp], 0
  00c36	7d 19		 jge	 SHORT $LN40@UseMonster
$LN39@UseMonster:

; 282  : 	{
; 283  : 		LogAddC(2,"[TMonsterSkillManager][UserMonsterSkill] error: iIndex(%d)",iIndex);

  00c38	8b 45 08	 mov	 eax, DWORD PTR _iIndex$[ebp]
  00c3b	50		 push	 eax
  00c3c	68 00 00 00 00	 push	 OFFSET ??_C@_0DL@ENELDMAN@?$FLTMonsterSkillManager?$FN?$FLUserMonst@
  00c41	6a 02		 push	 2
  00c43	ff 15 00 00 00
	00		 call	 DWORD PTR ?LogAddC@@3P6AXEPADZZA ; LogAddC
  00c49	83 c4 0c	 add	 esp, 12			; 0000000cH

; 284  : 		return;

  00c4c	e9 48 04 00 00	 jmp	 $LN41@UseMonster
$LN40@UseMonster:

; 285  : 	}
; 286  : 
; 287  : 	if (iTargetIndex >= OBJMAX || iTargetIndex < 0)

  00c51	81 7d 0c 98 3a
	00 00		 cmp	 DWORD PTR _iTargetIndex$[ebp], 15000 ; 00003a98H
  00c58	7d 06		 jge	 SHORT $LN37@UseMonster
  00c5a	83 7d 0c 00	 cmp	 DWORD PTR _iTargetIndex$[ebp], 0
  00c5e	7d 19		 jge	 SHORT $LN38@UseMonster
$LN37@UseMonster:

; 288  : 	{
; 289  : 		LogAddC(2,"[TMonsterSkillManager][UserMonsterSkill] error: iTargetIndex(%d)",iTargetIndex);

  00c60	8b 45 0c	 mov	 eax, DWORD PTR _iTargetIndex$[ebp]
  00c63	50		 push	 eax
  00c64	68 00 00 00 00	 push	 OFFSET ??_C@_0EB@PGJFMLKA@?$FLTMonsterSkillManager?$FN?$FLUserMonst@
  00c69	6a 02		 push	 2
  00c6b	ff 15 00 00 00
	00		 call	 DWORD PTR ?LogAddC@@3P6AXEPADZZA ; LogAddC
  00c71	83 c4 0c	 add	 esp, 12			; 0000000cH

; 290  : 		return;

  00c74	e9 20 04 00 00	 jmp	 $LN41@UseMonster
$LN38@UseMonster:

; 291  : 	}
; 292  : 
; 293  : 	LPOBJ lpObj = &gObj[iIndex]; //loc1

  00c79	8b 45 08	 mov	 eax, DWORD PTR _iIndex$[ebp]
  00c7c	69 c0 38 2b 00
	00		 imul	 eax, 11064		; 00002b38H
  00c82	03 05 00 00 00
	00		 add	 eax, DWORD PTR ?gObj@@3PAUOBJECTSTRUCT@@A ; gObj
  00c88	89 45 fc	 mov	 DWORD PTR _lpObj$[ebp], eax

; 294  : 	LPOBJ lpTargetObj = &gObj[iTargetIndex]; //loc2

  00c8b	8b 45 0c	 mov	 eax, DWORD PTR _iTargetIndex$[ebp]
  00c8e	69 c0 38 2b 00
	00		 imul	 eax, 11064		; 00002b38H
  00c94	03 05 00 00 00
	00		 add	 eax, DWORD PTR ?gObj@@3PAUOBJECTSTRUCT@@A ; gObj
  00c9a	89 45 f8	 mov	 DWORD PTR _lpTargetObj$[ebp], eax

; 295  : 	TMonsterSkillInfo * lpMonsterSkillInfo = &TMonsterSkillManager::s_MonsterSkillInfoArray[lpObj->Class]; //loc3

  00c9d	8b 45 fc	 mov	 eax, DWORD PTR _lpObj$[ebp]
  00ca0	0f b7 88 b8 00
	00 00		 movzx	 ecx, WORD PTR [eax+184]
  00ca7	6b c9 58	 imul	 ecx, 88			; 00000058H
  00caa	81 c1 00 00 00
	00		 add	 ecx, OFFSET ?s_MonsterSkillInfoArray@TMonsterSkillManager@@2PAVTMonsterSkillInfo@@A ; TMonsterSkillManager::s_MonsterSkillInfoArray
  00cb0	89 4d f4	 mov	 DWORD PTR _lpMonsterSkillInfo$[ebp], ecx

; 296  : 
; 297  : 	if ( lpMonsterSkillInfo->IsValid() == FALSE )

  00cb3	8b 4d f4	 mov	 ecx, DWORD PTR _lpMonsterSkillInfo$[ebp]
  00cb6	e8 00 00 00 00	 call	 ?IsValid@TMonsterSkillInfo@@QAEHXZ ; TMonsterSkillInfo::IsValid
  00cbb	85 c0		 test	 eax, eax
  00cbd	75 05		 jne	 SHORT $LN36@UseMonster

; 298  : 		return;

  00cbf	e9 d5 03 00 00	 jmp	 $LN41@UseMonster
$LN36@UseMonster:

; 299  : 	
; 300  : 	TMonsterSkillUnit * lpMonsterSkillUnit = NULL; //loc4

  00cc4	c7 45 f0 00 00
	00 00		 mov	 DWORD PTR _lpMonsterSkillUnit$[ebp], 0

; 301  : 
; 302  : 	if ( iMonsterSkillUnit > -1) //arg4

  00ccb	83 7d 14 ff	 cmp	 DWORD PTR _iMonsterSkillUnit$[ebp], -1
  00ccf	7e 15		 jle	 SHORT $LN35@UseMonster

; 303  : 	{
; 304  : 		int iMonsterSkill = iMonsterSkillUnit; //loc5

  00cd1	8b 45 14	 mov	 eax, DWORD PTR _iMonsterSkillUnit$[ebp]
  00cd4	89 45 ec	 mov	 DWORD PTR _iMonsterSkill$219928[ebp], eax

; 305  : 
; 306  : 		lpMonsterSkillUnit = lpMonsterSkillInfo->m_lpSkillUnitArray[iMonsterSkill];

  00cd7	8b 45 ec	 mov	 eax, DWORD PTR _iMonsterSkill$219928[ebp]
  00cda	8b 4d f4	 mov	 ecx, DWORD PTR _lpMonsterSkillInfo$[ebp]
  00cdd	8b 54 81 30	 mov	 edx, DWORD PTR [ecx+eax*4+48]
  00ce1	89 55 f0	 mov	 DWORD PTR _lpMonsterSkillUnit$[ebp], edx

; 307  : 	}
; 308  : 	else

  00ce4	eb 13		 jmp	 SHORT $LN34@UseMonster
$LN35@UseMonster:

; 309  : 	{
; 310  : 		lpMonsterSkillUnit = TMonsterSkillManager::FindMonsterSkillUnit(iIndex, iMonsterSkillUnitType);

  00ce6	8b 45 10	 mov	 eax, DWORD PTR _iMonsterSkillUnitType$[ebp]
  00ce9	50		 push	 eax
  00cea	8b 4d 08	 mov	 ecx, DWORD PTR _iIndex$[ebp]
  00ced	51		 push	 ecx
  00cee	e8 00 00 00 00	 call	 ?FindMonsterSkillUnit@TMonsterSkillManager@@SAPAVTMonsterSkillUnit@@HH@Z ; TMonsterSkillManager::FindMonsterSkillUnit
  00cf3	83 c4 08	 add	 esp, 8
  00cf6	89 45 f0	 mov	 DWORD PTR _lpMonsterSkillUnit$[ebp], eax
$LN34@UseMonster:

; 311  : 	}
; 312  : 
; 313  : 	if ( lpMonsterSkillUnit == NULL )

  00cf9	83 7d f0 00	 cmp	 DWORD PTR _lpMonsterSkillUnit$[ebp], 0
  00cfd	75 1d		 jne	 SHORT $LN33@UseMonster

; 314  : 	{
; 315  : 		LogAddC(2, "[Monster Skill Manager] SkillUnit is NULL : ObjIndex[%d], SkillUnitType[%d] ",iIndex,iMonsterSkillUnitType);

  00cff	8b 45 10	 mov	 eax, DWORD PTR _iMonsterSkillUnitType$[ebp]
  00d02	50		 push	 eax
  00d03	8b 4d 08	 mov	 ecx, DWORD PTR _iIndex$[ebp]
  00d06	51		 push	 ecx
  00d07	68 00 00 00 00	 push	 OFFSET ??_C@_0EN@PFFOMJLG@?$FLMonster?5Skill?5Manager?$FN?5SkillUni@
  00d0c	6a 02		 push	 2
  00d0e	ff 15 00 00 00
	00		 call	 DWORD PTR ?LogAddC@@3P6AXEPADZZA ; LogAddC
  00d14	83 c4 10	 add	 esp, 16			; 00000010H

; 316  : 		return;

  00d17	e9 7d 03 00 00	 jmp	 $LN41@UseMonster
$LN33@UseMonster:

; 317  : 	}
; 318  : 
; 319  : 	GCUseMonsterSkillSend(lpObj, lpTargetObj, lpMonsterSkillUnit->m_iUnitNumber);

  00d1c	8b 45 f0	 mov	 eax, DWORD PTR _lpMonsterSkillUnit$[ebp]
  00d1f	8b 48 18	 mov	 ecx, DWORD PTR [eax+24]
  00d22	51		 push	 ecx
  00d23	8b 55 f8	 mov	 edx, DWORD PTR _lpTargetObj$[ebp]
  00d26	52		 push	 edx
  00d27	8b 45 fc	 mov	 eax, DWORD PTR _lpObj$[ebp]
  00d2a	50		 push	 eax
  00d2b	e8 00 00 00 00	 call	 ?GCUseMonsterSkillSend@@YAXPAUOBJECTSTRUCT@@0H@Z ; GCUseMonsterSkillSend
  00d30	83 c4 0c	 add	 esp, 12			; 0000000cH

; 320  : 
; 321  : 	//TEST
; 322  : 	//char szTemp[256];
; 323  : 	//wsprintf(szTemp, "[USEMONSTERSKILL] %d", lpMonsterSkillUnit->m_iUnitNumber);
; 324  : 	//GCServerMsgStringSend(szTemp, lpTargetObj->m_Index, 1);
; 325  : 
; 326  : 	if ( lpMonsterSkillUnit->m_iUnitScopeType == -1 )

  00d33	8b 45 f0	 mov	 eax, DWORD PTR _lpMonsterSkillUnit$[ebp]
  00d36	83 78 20 ff	 cmp	 DWORD PTR [eax+32], -1
  00d3a	0f 85 d6 00 00
	00		 jne	 $LN32@UseMonster

; 327  : 	{
; 328  : 		if ( lpObj->MapNumber == MAP_INDEX_RAKLION )

  00d40	8b 45 fc	 mov	 eax, DWORD PTR _lpObj$[ebp]
  00d43	0f b6 88 49 01
	00 00		 movzx	 ecx, BYTE PTR [eax+329]
  00d4a	83 f9 39	 cmp	 ecx, 57			; 00000039H
  00d4d	75 1e		 jne	 SHORT $LN31@UseMonster

; 329  : 		{
; 330  : 			gObjAttack(lpObj, lpTargetObj, NULL, FALSE, 0, 0, FALSE,0,0);

  00d4f	6a 00		 push	 0
  00d51	6a 00		 push	 0
  00d53	6a 00		 push	 0
  00d55	6a 00		 push	 0
  00d57	6a 00		 push	 0
  00d59	6a 00		 push	 0
  00d5b	6a 00		 push	 0
  00d5d	8b 45 f8	 mov	 eax, DWORD PTR _lpTargetObj$[ebp]
  00d60	50		 push	 eax
  00d61	8b 4d fc	 mov	 ecx, DWORD PTR _lpObj$[ebp]
  00d64	51		 push	 ecx
  00d65	e8 00 00 00 00	 call	 ?gObjAttack@@YAHPAUOBJECTSTRUCT@@0PAVCMagicInf@@HEHHEE@Z ; gObjAttack
  00d6a	83 c4 24	 add	 esp, 36			; 00000024H
$LN31@UseMonster:

; 331  : 		}
; 332  :         if ( lpObj->MapNumber == MAP_INDEX_RAKLION_BOSS )

  00d6d	8b 45 fc	 mov	 eax, DWORD PTR _lpObj$[ebp]
  00d70	0f b6 88 49 01
	00 00		 movzx	 ecx, BYTE PTR [eax+329]
  00d77	83 f9 3a	 cmp	 ecx, 58			; 0000003aH
  00d7a	0f 85 81 00 00
	00		 jne	 $LN30@UseMonster

; 333  :         {
; 334  : 			if ( lpObj->Class == 459 )

  00d80	8b 45 fc	 mov	 eax, DWORD PTR _lpObj$[ebp]
  00d83	0f b7 88 b8 00
	00 00		 movzx	 ecx, WORD PTR [eax+184]
  00d8a	81 f9 cb 01 00
	00		 cmp	 ecx, 459		; 000001cbH
  00d90	75 51		 jne	 SHORT $LN29@UseMonster

; 335  : 			{
; 336  :                 if ( lpMonsterSkillUnit->m_iUnitNumber == 40 )

  00d92	8b 45 f0	 mov	 eax, DWORD PTR _lpMonsterSkillUnit$[ebp]
  00d95	83 78 18 28	 cmp	 DWORD PTR [eax+24], 40	; 00000028H
  00d99	75 20		 jne	 SHORT $LN28@UseMonster

; 337  :                 {
; 338  : 					gObjAttack(lpObj, lpTargetObj, NULL, FALSE, 0, 0, FALSE,0,0);

  00d9b	6a 00		 push	 0
  00d9d	6a 00		 push	 0
  00d9f	6a 00		 push	 0
  00da1	6a 00		 push	 0
  00da3	6a 00		 push	 0
  00da5	6a 00		 push	 0
  00da7	6a 00		 push	 0
  00da9	8b 45 f8	 mov	 eax, DWORD PTR _lpTargetObj$[ebp]
  00dac	50		 push	 eax
  00dad	8b 4d fc	 mov	 ecx, DWORD PTR _lpObj$[ebp]
  00db0	51		 push	 ecx
  00db1	e8 00 00 00 00	 call	 ?gObjAttack@@YAHPAUOBJECTSTRUCT@@0PAVCMagicInf@@HEHHEE@Z ; gObjAttack
  00db6	83 c4 24	 add	 esp, 36			; 00000024H

; 339  :                 }
; 340  : 				else

  00db9	eb 26		 jmp	 SHORT $LN27@UseMonster
$LN28@UseMonster:

; 341  :                 {
; 342  : 					if ( lpMagic )

  00dbb	83 7d 18 00	 cmp	 DWORD PTR _lpMagic$[ebp], 0
  00dbf	74 20		 je	 SHORT $LN27@UseMonster

; 343  : 					{
; 344  : 						gObjAttack(lpObj, lpTargetObj,lpMagic, 0, 0, 0, 0,0,0);

  00dc1	6a 00		 push	 0
  00dc3	6a 00		 push	 0
  00dc5	6a 00		 push	 0
  00dc7	6a 00		 push	 0
  00dc9	6a 00		 push	 0
  00dcb	6a 00		 push	 0
  00dcd	8b 45 18	 mov	 eax, DWORD PTR _lpMagic$[ebp]
  00dd0	50		 push	 eax
  00dd1	8b 4d f8	 mov	 ecx, DWORD PTR _lpTargetObj$[ebp]
  00dd4	51		 push	 ecx
  00dd5	8b 55 fc	 mov	 edx, DWORD PTR _lpObj$[ebp]
  00dd8	52		 push	 edx
  00dd9	e8 00 00 00 00	 call	 ?gObjAttack@@YAHPAUOBJECTSTRUCT@@0PAVCMagicInf@@HEHHEE@Z ; gObjAttack
  00dde	83 c4 24	 add	 esp, 36			; 00000024H
$LN27@UseMonster:

; 345  : 					}
; 346  :                 }
; 347  :             }
; 348  :             else

  00de1	eb 1e		 jmp	 SHORT $LN30@UseMonster
$LN29@UseMonster:

; 349  :             {
; 350  :                 gObjAttack(lpObj, lpTargetObj, 0, 0, 0, 0, 0,0,0);

  00de3	6a 00		 push	 0
  00de5	6a 00		 push	 0
  00de7	6a 00		 push	 0
  00de9	6a 00		 push	 0
  00deb	6a 00		 push	 0
  00ded	6a 00		 push	 0
  00def	6a 00		 push	 0
  00df1	8b 45 f8	 mov	 eax, DWORD PTR _lpTargetObj$[ebp]
  00df4	50		 push	 eax
  00df5	8b 4d fc	 mov	 ecx, DWORD PTR _lpObj$[ebp]
  00df8	51		 push	 ecx
  00df9	e8 00 00 00 00	 call	 ?gObjAttack@@YAHPAUOBJECTSTRUCT@@0PAVCMagicInf@@HEHHEE@Z ; gObjAttack
  00dfe	83 c4 24	 add	 esp, 36			; 00000024H
$LN30@UseMonster:

; 351  :             }
; 352  :         }
; 353  : 
; 354  : 		lpMonsterSkillUnit->RunSkill(iIndex, iTargetIndex);

  00e01	8b 45 0c	 mov	 eax, DWORD PTR _iTargetIndex$[ebp]
  00e04	50		 push	 eax
  00e05	8b 4d 08	 mov	 ecx, DWORD PTR _iIndex$[ebp]
  00e08	51		 push	 ecx
  00e09	8b 4d f0	 mov	 ecx, DWORD PTR _lpMonsterSkillUnit$[ebp]
  00e0c	e8 00 00 00 00	 call	 ?RunSkill@TMonsterSkillUnit@@QAEXHH@Z ; TMonsterSkillUnit::RunSkill

; 355  : 	}
; 356  : 	else

  00e11	e9 83 02 00 00	 jmp	 $LN41@UseMonster
$LN32@UseMonster:

; 357  : 	{
; 358  : 		int iCount = 0;

  00e16	c7 45 e8 00 00
	00 00		 mov	 DWORD PTR _iCount$219941[ebp], 0

; 359  : 		int iRangeTargetIndex = -1;

  00e1d	c7 45 e4 ff ff
	ff ff		 mov	 DWORD PTR _iRangeTargetIndex$219942[ebp], -1

; 360  : 		int iAngle = gObjUseSkill.GetAngle(lpObj->X, lpObj->Y, lpTargetObj->X, lpTargetObj->Y);

  00e24	8b 45 f8	 mov	 eax, DWORD PTR _lpTargetObj$[ebp]
  00e27	0f bf 88 46 01
	00 00		 movsx	 ecx, WORD PTR [eax+326]
  00e2e	51		 push	 ecx
  00e2f	8b 55 f8	 mov	 edx, DWORD PTR _lpTargetObj$[ebp]
  00e32	0f bf 82 44 01
	00 00		 movsx	 eax, WORD PTR [edx+324]
  00e39	50		 push	 eax
  00e3a	8b 4d fc	 mov	 ecx, DWORD PTR _lpObj$[ebp]
  00e3d	0f bf 91 46 01
	00 00		 movsx	 edx, WORD PTR [ecx+326]
  00e44	52		 push	 edx
  00e45	8b 45 fc	 mov	 eax, DWORD PTR _lpObj$[ebp]
  00e48	0f bf 88 44 01
	00 00		 movsx	 ecx, WORD PTR [eax+324]
  00e4f	51		 push	 ecx
  00e50	b9 00 00 00 00	 mov	 ecx, OFFSET ?gObjUseSkill@@3VCObjUseSkill@@A ; gObjUseSkill
  00e55	e8 00 00 00 00	 call	 ?GetAngle@CObjUseSkill@@QAEHHHHH@Z ; CObjUseSkill::GetAngle
  00e5a	89 45 e0	 mov	 DWORD PTR _iAngle$219943[ebp], eax
$LN23@UseMonster:

; 361  : 
; 362  : 		while ( true )

  00e5d	b8 01 00 00 00	 mov	 eax, 1
  00e62	85 c0		 test	 eax, eax
  00e64	0f 84 2f 02 00
	00		 je	 $LN41@UseMonster

; 363  : 		{
; 364  : 			if ( lpObj->VpPlayer2[iCount].state )

  00e6a	8b 45 e8	 mov	 eax, DWORD PTR _iCount$219941[ebp]
  00e6d	6b c0 0c	 imul	 eax, 12			; 0000000cH
  00e70	8b 4d fc	 mov	 ecx, DWORD PTR _lpObj$[ebp]
  00e73	0f be 94 01 ac
	08 00 00	 movsx	 edx, BYTE PTR [ecx+eax+2220]
  00e7b	85 d2		 test	 edx, edx
  00e7d	0f 84 00 02 00
	00		 je	 $LN21@UseMonster

; 365  : 			{
; 366  : 				iRangeTargetIndex = lpObj->VpPlayer2[iCount].number;

  00e83	8b 45 e8	 mov	 eax, DWORD PTR _iCount$219941[ebp]
  00e86	6b c0 0c	 imul	 eax, 12			; 0000000cH
  00e89	8b 4d fc	 mov	 ecx, DWORD PTR _lpObj$[ebp]
  00e8c	0f bf 94 01 ae
	08 00 00	 movsx	 edx, WORD PTR [ecx+eax+2222]
  00e94	89 55 e4	 mov	 DWORD PTR _iRangeTargetIndex$219942[ebp], edx

; 367  : 
; 368  : 				if ( OBJMAX_RANGE(iRangeTargetIndex))

  00e97	83 7d e4 00	 cmp	 DWORD PTR _iRangeTargetIndex$219942[ebp], 0
  00e9b	7d 09		 jge	 SHORT $LN43@UseMonster
  00e9d	c7 45 98 00 00
	00 00		 mov	 DWORD PTR tv214[ebp], 0
  00ea4	eb 0f		 jmp	 SHORT $LN44@UseMonster
$LN43@UseMonster:
  00ea6	33 c0		 xor	 eax, eax
  00ea8	81 7d e4 97 3a
	00 00		 cmp	 DWORD PTR _iRangeTargetIndex$219942[ebp], 14999 ; 00003a97H
  00eaf	0f 9e c0	 setle	 al
  00eb2	89 45 98	 mov	 DWORD PTR tv214[ebp], eax
$LN44@UseMonster:
  00eb5	83 7d 98 00	 cmp	 DWORD PTR tv214[ebp], 0
  00eb9	0f 84 c4 01 00
	00		 je	 $LN21@UseMonster

; 369  : 				{
; 370  : 					if ( gObj[iRangeTargetIndex].Type == OBJ_USER )

  00ebf	8b 45 e4	 mov	 eax, DWORD PTR _iRangeTargetIndex$219942[ebp]
  00ec2	69 c0 38 2b 00
	00		 imul	 eax, 11064		; 00002b38H
  00ec8	8b 0d 00 00 00
	00		 mov	 ecx, DWORD PTR ?gObj@@3PAUOBJECTSTRUCT@@A ; gObj
  00ece	0f b7 54 01 68	 movzx	 edx, WORD PTR [ecx+eax+104]
  00ed3	83 fa 01	 cmp	 edx, 1
  00ed6	0f 85 a7 01 00
	00		 jne	 $LN21@UseMonster

; 371  : 					{
; 372  : 						BOOL bTargetOK = FALSE;

  00edc	c7 45 dc 00 00
	00 00		 mov	 DWORD PTR _bTargetOK$219950[ebp], 0

; 373  : 
; 374  : 						if ( lpMonsterSkillUnit->m_iUnitScopeType == 0 )

  00ee3	8b 45 f0	 mov	 eax, DWORD PTR _lpMonsterSkillUnit$[ebp]
  00ee6	83 78 20 00	 cmp	 DWORD PTR [eax+32], 0
  00eea	75 30		 jne	 SHORT $LN18@UseMonster

; 375  : 						{
; 376  : 							if ( gObjCalDistance(lpObj, &gObj[iRangeTargetIndex]) < lpMonsterSkillUnit->m_iUnitScopeValue )

  00eec	8b 45 e4	 mov	 eax, DWORD PTR _iRangeTargetIndex$219942[ebp]
  00eef	69 c0 38 2b 00
	00		 imul	 eax, 11064		; 00002b38H
  00ef5	03 05 00 00 00
	00		 add	 eax, DWORD PTR ?gObj@@3PAUOBJECTSTRUCT@@A ; gObj
  00efb	50		 push	 eax
  00efc	8b 4d fc	 mov	 ecx, DWORD PTR _lpObj$[ebp]
  00eff	51		 push	 ecx
  00f00	e8 00 00 00 00	 call	 ?gObjCalDistance@@YAHPAUOBJECTSTRUCT@@0@Z ; gObjCalDistance
  00f05	83 c4 08	 add	 esp, 8
  00f08	8b 55 f0	 mov	 edx, DWORD PTR _lpMonsterSkillUnit$[ebp]
  00f0b	3b 42 24	 cmp	 eax, DWORD PTR [edx+36]
  00f0e	7d 07		 jge	 SHORT $LN17@UseMonster

; 377  : 							{
; 378  : 								bTargetOK = TRUE;

  00f10	c7 45 dc 01 00
	00 00		 mov	 DWORD PTR _bTargetOK$219950[ebp], 1
$LN17@UseMonster:

; 379  : 							}
; 380  : 						}

  00f17	e9 8c 00 00 00	 jmp	 $LN16@UseMonster
$LN18@UseMonster:

; 381  : 						else  if ( lpMonsterSkillUnit->m_iUnitScopeType == 1 )

  00f1c	8b 45 f0	 mov	 eax, DWORD PTR _lpMonsterSkillUnit$[ebp]
  00f1f	83 78 20 01	 cmp	 DWORD PTR [eax+32], 1
  00f23	75 61		 jne	 SHORT $LN15@UseMonster

; 382  : 						{
; 383  : 							if ( SkillElectricSparkHitBox.HitCheck(iAngle, lpObj->X, lpObj->Y,
; 384  : 								gObj[iRangeTargetIndex].X, gObj[iRangeTargetIndex].Y) )

  00f25	8b 45 e4	 mov	 eax, DWORD PTR _iRangeTargetIndex$219942[ebp]
  00f28	69 c0 38 2b 00
	00		 imul	 eax, 11064		; 00002b38H
  00f2e	8b 0d 00 00 00
	00		 mov	 ecx, DWORD PTR ?gObj@@3PAUOBJECTSTRUCT@@A ; gObj
  00f34	0f bf 94 01 46
	01 00 00	 movsx	 edx, WORD PTR [ecx+eax+326]
  00f3c	52		 push	 edx
  00f3d	8b 45 e4	 mov	 eax, DWORD PTR _iRangeTargetIndex$219942[ebp]
  00f40	69 c0 38 2b 00
	00		 imul	 eax, 11064		; 00002b38H
  00f46	8b 0d 00 00 00
	00		 mov	 ecx, DWORD PTR ?gObj@@3PAUOBJECTSTRUCT@@A ; gObj
  00f4c	0f bf 94 01 44
	01 00 00	 movsx	 edx, WORD PTR [ecx+eax+324]
  00f54	52		 push	 edx
  00f55	8b 45 fc	 mov	 eax, DWORD PTR _lpObj$[ebp]
  00f58	0f bf 88 46 01
	00 00		 movsx	 ecx, WORD PTR [eax+326]
  00f5f	51		 push	 ecx
  00f60	8b 55 fc	 mov	 edx, DWORD PTR _lpObj$[ebp]
  00f63	0f bf 82 44 01
	00 00		 movsx	 eax, WORD PTR [edx+324]
  00f6a	50		 push	 eax
  00f6b	8b 4d e0	 mov	 ecx, DWORD PTR _iAngle$219943[ebp]
  00f6e	51		 push	 ecx
  00f6f	b9 00 00 00 00	 mov	 ecx, OFFSET ?SkillElectricSparkHitBox@@3VCSkillHitBox@@A ; SkillElectricSparkHitBox
  00f74	e8 00 00 00 00	 call	 ?HitCheck@CSkillHitBox@@QAEHHHHHH@Z ; CSkillHitBox::HitCheck
  00f79	85 c0		 test	 eax, eax
  00f7b	74 07		 je	 SHORT $LN14@UseMonster

; 385  : 							{
; 386  : 								bTargetOK = TRUE;

  00f7d	c7 45 dc 01 00
	00 00		 mov	 DWORD PTR _bTargetOK$219950[ebp], 1
$LN14@UseMonster:

; 387  : 							}
; 388  : 						}

  00f84	eb 22		 jmp	 SHORT $LN16@UseMonster
$LN15@UseMonster:

; 389  : 						else if ( lpMonsterSkillUnit->m_iUnitScopeType == 2 )

  00f86	8b 45 f0	 mov	 eax, DWORD PTR _lpMonsterSkillUnit$[ebp]
  00f89	83 78 20 02	 cmp	 DWORD PTR [eax+32], 2
  00f8d	75 09		 jne	 SHORT $LN12@UseMonster

; 390  : 						{
; 391  : 							bTargetOK = TRUE;

  00f8f	c7 45 dc 01 00
	00 00		 mov	 DWORD PTR _bTargetOK$219950[ebp], 1
  00f96	eb 10		 jmp	 SHORT $LN16@UseMonster
$LN12@UseMonster:

; 392  : 						}
; 393  : 						else if ( lpMonsterSkillUnit->m_iUnitScopeType == 3 )

  00f98	8b 45 f0	 mov	 eax, DWORD PTR _lpMonsterSkillUnit$[ebp]
  00f9b	83 78 20 03	 cmp	 DWORD PTR [eax+32], 3
  00f9f	75 07		 jne	 SHORT $LN16@UseMonster

; 394  : 						{
; 395  : 							bTargetOK = TRUE;

  00fa1	c7 45 dc 01 00
	00 00		 mov	 DWORD PTR _bTargetOK$219950[ebp], 1
$LN16@UseMonster:

; 396  : 						}
; 397  : 
; 398  : 						if ( bTargetOK )

  00fa8	83 7d dc 00	 cmp	 DWORD PTR _bTargetOK$219950[ebp], 0
  00fac	0f 84 d1 00 00
	00		 je	 $LN21@UseMonster

; 399  : 						{
; 400  : 							if ( lpObj->MapNumber == MAP_INDEX_RAKLION )

  00fb2	8b 45 fc	 mov	 eax, DWORD PTR _lpObj$[ebp]
  00fb5	0f b6 88 49 01
	00 00		 movzx	 ecx, BYTE PTR [eax+329]
  00fbc	83 f9 39	 cmp	 ecx, 57			; 00000039H
  00fbf	75 1e		 jne	 SHORT $LN8@UseMonster

; 401  : 							{
; 402  : 								gObjAttack(lpObj, lpTargetObj, NULL, FALSE, 0, 0, FALSE,0,0);

  00fc1	6a 00		 push	 0
  00fc3	6a 00		 push	 0
  00fc5	6a 00		 push	 0
  00fc7	6a 00		 push	 0
  00fc9	6a 00		 push	 0
  00fcb	6a 00		 push	 0
  00fcd	6a 00		 push	 0
  00fcf	8b 45 f8	 mov	 eax, DWORD PTR _lpTargetObj$[ebp]
  00fd2	50		 push	 eax
  00fd3	8b 4d fc	 mov	 ecx, DWORD PTR _lpObj$[ebp]
  00fd6	51		 push	 ecx
  00fd7	e8 00 00 00 00	 call	 ?gObjAttack@@YAHPAUOBJECTSTRUCT@@0PAVCMagicInf@@HEHHEE@Z ; gObjAttack
  00fdc	83 c4 24	 add	 esp, 36			; 00000024H
$LN8@UseMonster:

; 403  : 							}
; 404  : 							if ( lpObj->MapNumber == MAP_INDEX_RAKLION_BOSS )

  00fdf	8b 45 fc	 mov	 eax, DWORD PTR _lpObj$[ebp]
  00fe2	0f b6 88 49 01
	00 00		 movzx	 ecx, BYTE PTR [eax+329]
  00fe9	83 f9 3a	 cmp	 ecx, 58			; 0000003aH
  00fec	0f 85 81 00 00
	00		 jne	 $LN7@UseMonster

; 405  : 							{
; 406  : 								if ( lpObj->Class == 459 )

  00ff2	8b 45 fc	 mov	 eax, DWORD PTR _lpObj$[ebp]
  00ff5	0f b7 88 b8 00
	00 00		 movzx	 ecx, WORD PTR [eax+184]
  00ffc	81 f9 cb 01 00
	00		 cmp	 ecx, 459		; 000001cbH
  01002	75 51		 jne	 SHORT $LN6@UseMonster

; 407  : 								{
; 408  : 									if ( lpMonsterSkillUnit->m_iUnitNumber == 40 )

  01004	8b 45 f0	 mov	 eax, DWORD PTR _lpMonsterSkillUnit$[ebp]
  01007	83 78 18 28	 cmp	 DWORD PTR [eax+24], 40	; 00000028H
  0100b	75 20		 jne	 SHORT $LN5@UseMonster

; 409  : 									{
; 410  : 										gObjAttack(lpObj, lpTargetObj, NULL, FALSE, 0, 0, FALSE,0,0);

  0100d	6a 00		 push	 0
  0100f	6a 00		 push	 0
  01011	6a 00		 push	 0
  01013	6a 00		 push	 0
  01015	6a 00		 push	 0
  01017	6a 00		 push	 0
  01019	6a 00		 push	 0
  0101b	8b 45 f8	 mov	 eax, DWORD PTR _lpTargetObj$[ebp]
  0101e	50		 push	 eax
  0101f	8b 4d fc	 mov	 ecx, DWORD PTR _lpObj$[ebp]
  01022	51		 push	 ecx
  01023	e8 00 00 00 00	 call	 ?gObjAttack@@YAHPAUOBJECTSTRUCT@@0PAVCMagicInf@@HEHHEE@Z ; gObjAttack
  01028	83 c4 24	 add	 esp, 36			; 00000024H

; 411  : 									}
; 412  : 									else

  0102b	eb 26		 jmp	 SHORT $LN4@UseMonster
$LN5@UseMonster:

; 413  : 									{
; 414  : 										if ( lpMagic )

  0102d	83 7d 18 00	 cmp	 DWORD PTR _lpMagic$[ebp], 0
  01031	74 20		 je	 SHORT $LN4@UseMonster

; 415  : 										{
; 416  : 											gObjAttack(lpObj, lpTargetObj,lpMagic, 0, 0, 0, 0,0,0);

  01033	6a 00		 push	 0
  01035	6a 00		 push	 0
  01037	6a 00		 push	 0
  01039	6a 00		 push	 0
  0103b	6a 00		 push	 0
  0103d	6a 00		 push	 0
  0103f	8b 45 18	 mov	 eax, DWORD PTR _lpMagic$[ebp]
  01042	50		 push	 eax
  01043	8b 4d f8	 mov	 ecx, DWORD PTR _lpTargetObj$[ebp]
  01046	51		 push	 ecx
  01047	8b 55 fc	 mov	 edx, DWORD PTR _lpObj$[ebp]
  0104a	52		 push	 edx
  0104b	e8 00 00 00 00	 call	 ?gObjAttack@@YAHPAUOBJECTSTRUCT@@0PAVCMagicInf@@HEHHEE@Z ; gObjAttack
  01050	83 c4 24	 add	 esp, 36			; 00000024H
$LN4@UseMonster:

; 417  : 										}
; 418  : 									}
; 419  : 								}
; 420  : 								else

  01053	eb 1e		 jmp	 SHORT $LN7@UseMonster
$LN6@UseMonster:

; 421  : 								{
; 422  : 									gObjAttack(lpObj, lpTargetObj, 0, 0, 0, 0, 0,0,0);

  01055	6a 00		 push	 0
  01057	6a 00		 push	 0
  01059	6a 00		 push	 0
  0105b	6a 00		 push	 0
  0105d	6a 00		 push	 0
  0105f	6a 00		 push	 0
  01061	6a 00		 push	 0
  01063	8b 45 f8	 mov	 eax, DWORD PTR _lpTargetObj$[ebp]
  01066	50		 push	 eax
  01067	8b 4d fc	 mov	 ecx, DWORD PTR _lpObj$[ebp]
  0106a	51		 push	 ecx
  0106b	e8 00 00 00 00	 call	 ?gObjAttack@@YAHPAUOBJECTSTRUCT@@0PAVCMagicInf@@HEHHEE@Z ; gObjAttack
  01070	83 c4 24	 add	 esp, 36			; 00000024H
$LN7@UseMonster:

; 423  : 								}
; 424  : 							}
; 425  : 
; 426  : #ifdef IMPERIAL_CONFLICT_NEW
; 427  : 							if ( lpObj->Class >= 504 && lpObj->Class <= 521)
; 428  : 							{
; 429  : 								if ( lpMagic )
; 430  : 									gObjAttack(lpObj, lpTargetObj, lpMagic, 0, 0, 0, 0, 0, 0);
; 431  : 								else
; 432  : 									gObjAttack(lpObj, lpTargetObj, 0, 0, 0, 0, 0, 0, 0);
; 433  : 							}
; 434  : #endif
; 435  : 							lpMonsterSkillUnit->RunSkill(iIndex, iRangeTargetIndex);

  01073	8b 45 e4	 mov	 eax, DWORD PTR _iRangeTargetIndex$219942[ebp]
  01076	50		 push	 eax
  01077	8b 4d 08	 mov	 ecx, DWORD PTR _iIndex$[ebp]
  0107a	51		 push	 ecx
  0107b	8b 4d f0	 mov	 ecx, DWORD PTR _lpMonsterSkillUnit$[ebp]
  0107e	e8 00 00 00 00	 call	 ?RunSkill@TMonsterSkillUnit@@QAEXHH@Z ; TMonsterSkillUnit::RunSkill
$LN21@UseMonster:

; 436  : 						}
; 437  : 					}
; 438  : 				}
; 439  : 			}
; 440  : 
; 441  : 			iCount++;

  01083	8b 45 e8	 mov	 eax, DWORD PTR _iCount$219941[ebp]
  01086	83 c0 01	 add	 eax, 1
  01089	89 45 e8	 mov	 DWORD PTR _iCount$219941[ebp], eax

; 442  : 
; 443  : 			if ( iCount > MAX_VIEWPORT_MONSTER-1)

  0108c	83 7d e8 4a	 cmp	 DWORD PTR _iCount$219941[ebp], 74 ; 0000004aH
  01090	7e 02		 jle	 SHORT $LN1@UseMonster

; 444  : 				break;

  01092	eb 05		 jmp	 SHORT $LN41@UseMonster
$LN1@UseMonster:

; 445  : 		}

  01094	e9 c4 fd ff ff	 jmp	 $LN23@UseMonster
$LN41@UseMonster:

; 446  : 	}
; 447  : }

  01099	5f		 pop	 edi
  0109a	5e		 pop	 esi
  0109b	5b		 pop	 ebx
  0109c	8b e5		 mov	 esp, ebp
  0109e	5d		 pop	 ebp
  0109f	c3		 ret	 0
?UseMonsterSkill@TMonsterSkillManager@@SAXHHHHPAVCMagicInf@@@Z ENDP ; TMonsterSkillManager::UseMonsterSkill
; Function compile flags: /Odtp /ZI
_TEXT	ENDS
;	COMDAT ??__E?s_MonsterSkillInfoArray@TMonsterSkillManager@@2PAVTMonsterSkillInfo@@A@@YAXXZ
text$yc	SEGMENT
??__E?s_MonsterSkillInfoArray@TMonsterSkillManager@@2PAVTMonsterSkillInfo@@A@@YAXXZ PROC ; `dynamic initializer for 'TMonsterSkillManager::s_MonsterSkillInfoArray'', COMDAT

; 11   : TMonsterSkillInfo TMonsterSkillManager::s_MonsterSkillInfoArray[MAX_MONSTER_SKILL_INFO_ARRAY];

  00000	55		 push	 ebp
  00001	8b ec		 mov	 ebp, esp
  00003	83 ec 40	 sub	 esp, 64			; 00000040H
  00006	53		 push	 ebx
  00007	56		 push	 esi
  00008	57		 push	 edi
  00009	68 00 00 00 00	 push	 OFFSET ??0TMonsterSkillInfo@@QAE@XZ ; TMonsterSkillInfo::TMonsterSkillInfo
  0000e	68 bc 02 00 00	 push	 700			; 000002bcH
  00013	6a 58		 push	 88			; 00000058H
  00015	68 00 00 00 00	 push	 OFFSET ?s_MonsterSkillInfoArray@TMonsterSkillManager@@2PAVTMonsterSkillInfo@@A ; TMonsterSkillManager::s_MonsterSkillInfoArray
  0001a	e8 00 00 00 00	 call	 ??_H@YGXPAXIHP6EPAX0@Z@Z
  0001f	5f		 pop	 edi
  00020	5e		 pop	 esi
  00021	5b		 pop	 ebx
  00022	8b e5		 mov	 esp, ebp
  00024	5d		 pop	 ebp
  00025	c3		 ret	 0
??__E?s_MonsterSkillInfoArray@TMonsterSkillManager@@2PAVTMonsterSkillInfo@@A@@YAXXZ ENDP ; `dynamic initializer for 'TMonsterSkillManager::s_MonsterSkillInfoArray''
text$yc	ENDS
PUBLIC	??0_ST_MONSTER_SKILL_DELAYTIME_INFO@@QAE@XZ	; _ST_MONSTER_SKILL_DELAYTIME_INFO::_ST_MONSTER_SKILL_DELAYTIME_INFO
; Function compile flags: /Odtp /ZI
;	COMDAT ??__E?s_MonsterSkillDelayInfoArray@TMonsterSkillManager@@2PAU_ST_MONSTER_SKILL_DELAYTIME_INFO@@A@@YAXXZ
text$yc	SEGMENT
??__E?s_MonsterSkillDelayInfoArray@TMonsterSkillManager@@2PAU_ST_MONSTER_SKILL_DELAYTIME_INFO@@A@@YAXXZ PROC ; `dynamic initializer for 'TMonsterSkillManager::s_MonsterSkillDelayInfoArray'', COMDAT

; 12   : _ST_MONSTER_SKILL_DELAYTIME_INFO TMonsterSkillManager::s_MonsterSkillDelayInfoArray[MAX_MONSTER_SKILL_DELAY_INFO_ARRAY];

  00000	55		 push	 ebp
  00001	8b ec		 mov	 ebp, esp
  00003	83 ec 40	 sub	 esp, 64			; 00000040H
  00006	53		 push	 ebx
  00007	56		 push	 esi
  00008	57		 push	 edi
  00009	68 00 00 00 00	 push	 OFFSET ??0_ST_MONSTER_SKILL_DELAYTIME_INFO@@QAE@XZ ; _ST_MONSTER_SKILL_DELAYTIME_INFO::_ST_MONSTER_SKILL_DELAYTIME_INFO
  0000e	68 b8 0b 00 00	 push	 3000			; 00000bb8H
  00013	6a 14		 push	 20			; 00000014H
  00015	68 00 00 00 00	 push	 OFFSET ?s_MonsterSkillDelayInfoArray@TMonsterSkillManager@@2PAU_ST_MONSTER_SKILL_DELAYTIME_INFO@@A ; TMonsterSkillManager::s_MonsterSkillDelayInfoArray
  0001a	e8 00 00 00 00	 call	 ??_H@YGXPAXIHP6EPAX0@Z@Z
  0001f	5f		 pop	 edi
  00020	5e		 pop	 esi
  00021	5b		 pop	 ebx
  00022	8b e5		 mov	 esp, ebp
  00024	5d		 pop	 ebp
  00025	c3		 ret	 0
??__E?s_MonsterSkillDelayInfoArray@TMonsterSkillManager@@2PAU_ST_MONSTER_SKILL_DELAYTIME_INFO@@A@@YAXXZ ENDP ; `dynamic initializer for 'TMonsterSkillManager::s_MonsterSkillDelayInfoArray''
; Function compile flags: /Odtp /ZI
; File d:\projects\exteam6.3\source\gameserver\gameserver\tmonsterskillmanager.h
text$yc	ENDS
;	COMDAT ??0_ST_MONSTER_SKILL_DELAYTIME_INFO@@QAE@XZ
_TEXT	SEGMENT
_this$ = -4						; size = 4
??0_ST_MONSTER_SKILL_DELAYTIME_INFO@@QAE@XZ PROC	; _ST_MONSTER_SKILL_DELAYTIME_INFO::_ST_MONSTER_SKILL_DELAYTIME_INFO, COMDAT
; _this$ = ecx

; 34   : 	_ST_MONSTER_SKILL_DELAYTIME_INFO()

  00000	55		 push	 ebp
  00001	8b ec		 mov	 ebp, esp
  00003	83 ec 44	 sub	 esp, 68			; 00000044H
  00006	53		 push	 ebx
  00007	56		 push	 esi
  00008	57		 push	 edi
  00009	89 4d fc	 mov	 DWORD PTR _this$[ebp], ecx

; 35   : 	{
; 36   : 		this->RESET();

  0000c	8b 4d fc	 mov	 ecx, DWORD PTR _this$[ebp]
  0000f	e8 00 00 00 00	 call	 ?RESET@_ST_MONSTER_SKILL_DELAYTIME_INFO@@QAEXXZ ; _ST_MONSTER_SKILL_DELAYTIME_INFO::RESET

; 37   : 	}

  00014	8b 45 fc	 mov	 eax, DWORD PTR _this$[ebp]
  00017	5f		 pop	 edi
  00018	5e		 pop	 esi
  00019	5b		 pop	 ebx
  0001a	8b e5		 mov	 esp, ebp
  0001c	5d		 pop	 ebp
  0001d	c3		 ret	 0
??0_ST_MONSTER_SKILL_DELAYTIME_INFO@@QAE@XZ ENDP	; _ST_MONSTER_SKILL_DELAYTIME_INFO::_ST_MONSTER_SKILL_DELAYTIME_INFO
_TEXT	ENDS
EXTRN	_atexit:PROC
EXTRN	??0TSync@@QAE@XZ:PROC				; TSync::TSync
; Function compile flags: /Odtp /ZI
; File d:\projects\exteam6.3\source\gameserver\gameserver\tmonsterskillmanager.cpp
;	COMDAT ??__E?s_Sync@TMonsterSkillManager@@2VTSync@@A@@YAXXZ
text$yc	SEGMENT
??__E?s_Sync@TMonsterSkillManager@@2VTSync@@A@@YAXXZ PROC ; `dynamic initializer for 'TMonsterSkillManager::s_Sync'', COMDAT

; 13   : TSync TMonsterSkillManager::s_Sync;

  00000	55		 push	 ebp
  00001	8b ec		 mov	 ebp, esp
  00003	83 ec 40	 sub	 esp, 64			; 00000040H
  00006	53		 push	 ebx
  00007	56		 push	 esi
  00008	57		 push	 edi
  00009	b9 00 00 00 00	 mov	 ecx, OFFSET ?s_Sync@TMonsterSkillManager@@2VTSync@@A ; TMonsterSkillManager::s_Sync
  0000e	e8 00 00 00 00	 call	 ??0TSync@@QAE@XZ	; TSync::TSync
  00013	68 00 00 00 00	 push	 OFFSET ??__F?s_Sync@TMonsterSkillManager@@2VTSync@@A@@YAXXZ ; `dynamic atexit destructor for 'TMonsterSkillManager::s_Sync''
  00018	e8 00 00 00 00	 call	 _atexit
  0001d	83 c4 04	 add	 esp, 4
  00020	5f		 pop	 edi
  00021	5e		 pop	 esi
  00022	5b		 pop	 ebx
  00023	8b e5		 mov	 esp, ebp
  00025	5d		 pop	 ebp
  00026	c3		 ret	 0
??__E?s_Sync@TMonsterSkillManager@@2VTSync@@A@@YAXXZ ENDP ; `dynamic initializer for 'TMonsterSkillManager::s_Sync''
text$yc	ENDS
EXTRN	??1TSync@@QAE@XZ:PROC				; TSync::~TSync
; Function compile flags: /Odtp /ZI
;	COMDAT ??__F?s_Sync@TMonsterSkillManager@@2VTSync@@A@@YAXXZ
text$yd	SEGMENT
??__F?s_Sync@TMonsterSkillManager@@2VTSync@@A@@YAXXZ PROC ; `dynamic atexit destructor for 'TMonsterSkillManager::s_Sync'', COMDAT
  00000	55		 push	 ebp
  00001	8b ec		 mov	 ebp, esp
  00003	83 ec 40	 sub	 esp, 64			; 00000040H
  00006	53		 push	 ebx
  00007	56		 push	 esi
  00008	57		 push	 edi
  00009	b9 00 00 00 00	 mov	 ecx, OFFSET ?s_Sync@TMonsterSkillManager@@2VTSync@@A ; TMonsterSkillManager::s_Sync
  0000e	e8 00 00 00 00	 call	 ??1TSync@@QAE@XZ	; TSync::~TSync
  00013	5f		 pop	 edi
  00014	5e		 pop	 esi
  00015	5b		 pop	 ebx
  00016	8b e5		 mov	 esp, ebp
  00018	5d		 pop	 ebp
  00019	c3		 ret	 0
??__F?s_Sync@TMonsterSkillManager@@2VTSync@@A@@YAXXZ ENDP ; `dynamic atexit destructor for 'TMonsterSkillManager::s_Sync''
text$yd	ENDS
PUBLIC	?s_Sync@TMonsterSkillManager@@2VTSync@@A	; TMonsterSkillManager::s_Sync
PUBLIC	?s_MonsterSkillDelayInfoArray@TMonsterSkillManager@@2PAU_ST_MONSTER_SKILL_DELAYTIME_INFO@@A ; TMonsterSkillManager::s_MonsterSkillDelayInfoArray
PUBLIC	?s_MonsterSkillInfoArray@TMonsterSkillManager@@2PAVTMonsterSkillInfo@@A ; TMonsterSkillManager::s_MonsterSkillInfoArray
_BSS	SEGMENT
?s_Sync@TMonsterSkillManager@@2VTSync@@A DB 01cH DUP (?) ; TMonsterSkillManager::s_Sync
?s_MonsterSkillDelayInfoArray@TMonsterSkillManager@@2PAU_ST_MONSTER_SKILL_DELAYTIME_INFO@@A DB 0ea60H DUP (?) ; TMonsterSkillManager::s_MonsterSkillDelayInfoArray
?s_MonsterSkillInfoArray@TMonsterSkillManager@@2PAVTMonsterSkillInfo@@A DB 0f0a0H DUP (?) ; TMonsterSkillManager::s_MonsterSkillInfoArray
_BSS	ENDS
CRT$XCU	SEGMENT
?s_MonsterSkillInfoArray$initializer$@TMonsterSkillManager@@2P6AXXZA DD FLAT:??__E?s_MonsterSkillInfoArray@TMonsterSkillManager@@2PAVTMonsterSkillInfo@@A@@YAXXZ ; TMonsterSkillManager::s_MonsterSkillInfoArray$initializer$
?s_MonsterSkillDelayInfoArray$initializer$@TMonsterSkillManager@@2P6AXXZA DD FLAT:??__E?s_MonsterSkillDelayInfoArray@TMonsterSkillManager@@2PAU_ST_MONSTER_SKILL_DELAYTIME_INFO@@A@@YAXXZ ; TMonsterSkillManager::s_MonsterSkillDelayInfoArray$initializer$
?s_Sync$initializer$@TMonsterSkillManager@@2P6AXXZA DD FLAT:??__E?s_Sync@TMonsterSkillManager@@2VTSync@@A@@YAXXZ ; TMonsterSkillManager::s_Sync$initializer$
CRT$XCU	ENDS
END
