; Listing generated by Microsoft (R) Optimizing Compiler Version 16.00.40219.01 

	TITLE	D:\Projects\ExTeam6.3\Source\GameServer\GameServer\TMonsterAIGroupMember.cpp
	.686P
	.XMM
	include listing.inc
	.model	flat

INCLUDELIB LIBCMT
INCLUDELIB OLDNAMES

PUBLIC	?Reset@TMonsterAIGroupMember@@QAEXXZ		; TMonsterAIGroupMember::Reset
PUBLIC	??_7TMonsterAIGroupMember@@6B@			; TMonsterAIGroupMember::`vftable'
PUBLIC	??0TMonsterAIGroupMember@@QAE@XZ		; TMonsterAIGroupMember::TMonsterAIGroupMember
PUBLIC	??_R4TMonsterAIGroupMember@@6B@			; TMonsterAIGroupMember::`RTTI Complete Object Locator'
PUBLIC	??_R0?AVTMonsterAIGroupMember@@@8		; TMonsterAIGroupMember `RTTI Type Descriptor'
PUBLIC	??_R3TMonsterAIGroupMember@@8			; TMonsterAIGroupMember::`RTTI Class Hierarchy Descriptor'
PUBLIC	??_R2TMonsterAIGroupMember@@8			; TMonsterAIGroupMember::`RTTI Base Class Array'
PUBLIC	??_R1A@?0A@EA@TMonsterAIGroupMember@@8		; TMonsterAIGroupMember::`RTTI Base Class Descriptor at (0,-1,0,64)'
EXTRN	??_7type_info@@6B@:QWORD			; type_info::`vftable'
EXTRN	??_ETMonsterAIGroupMember@@UAEPAXI@Z:PROC	; TMonsterAIGroupMember::`vector deleting destructor'
;	COMDAT ??_R1A@?0A@EA@TMonsterAIGroupMember@@8
; File d:\projects\exteam6.3\source\gameserver\gameserver\tmonsteraigroupmember.cpp
rdata$r	SEGMENT
??_R1A@?0A@EA@TMonsterAIGroupMember@@8 DD FLAT:??_R0?AVTMonsterAIGroupMember@@@8 ; TMonsterAIGroupMember::`RTTI Base Class Descriptor at (0,-1,0,64)'
	DD	00H
	DD	00H
	DD	0ffffffffH
	DD	00H
	DD	040H
	DD	FLAT:??_R3TMonsterAIGroupMember@@8
rdata$r	ENDS
;	COMDAT ??_R2TMonsterAIGroupMember@@8
rdata$r	SEGMENT
??_R2TMonsterAIGroupMember@@8 DD FLAT:??_R1A@?0A@EA@TMonsterAIGroupMember@@8 ; TMonsterAIGroupMember::`RTTI Base Class Array'
rdata$r	ENDS
;	COMDAT ??_R3TMonsterAIGroupMember@@8
rdata$r	SEGMENT
??_R3TMonsterAIGroupMember@@8 DD 00H			; TMonsterAIGroupMember::`RTTI Class Hierarchy Descriptor'
	DD	00H
	DD	01H
	DD	FLAT:??_R2TMonsterAIGroupMember@@8
rdata$r	ENDS
;	COMDAT ??_R0?AVTMonsterAIGroupMember@@@8
_DATA	SEGMENT
??_R0?AVTMonsterAIGroupMember@@@8 DD FLAT:??_7type_info@@6B@ ; TMonsterAIGroupMember `RTTI Type Descriptor'
	DD	00H
	DB	'.?AVTMonsterAIGroupMember@@', 00H
_DATA	ENDS
;	COMDAT ??_R4TMonsterAIGroupMember@@6B@
rdata$r	SEGMENT
??_R4TMonsterAIGroupMember@@6B@ DD 00H			; TMonsterAIGroupMember::`RTTI Complete Object Locator'
	DD	00H
	DD	00H
	DD	FLAT:??_R0?AVTMonsterAIGroupMember@@@8
	DD	FLAT:??_R3TMonsterAIGroupMember@@8
rdata$r	ENDS
;	COMDAT ??_7TMonsterAIGroupMember@@6B@
CONST	SEGMENT
??_7TMonsterAIGroupMember@@6B@ DD FLAT:??_R4TMonsterAIGroupMember@@6B@ ; TMonsterAIGroupMember::`vftable'
	DD	FLAT:??_ETMonsterAIGroupMember@@UAEPAXI@Z
; Function compile flags: /Odtp /ZI
CONST	ENDS
_TEXT	SEGMENT
_this$ = -4						; size = 4
??0TMonsterAIGroupMember@@QAE@XZ PROC			; TMonsterAIGroupMember::TMonsterAIGroupMember
; _this$ = ecx

; 14   : {

  00000	55		 push	 ebp
  00001	8b ec		 mov	 ebp, esp
  00003	83 ec 44	 sub	 esp, 68			; 00000044H
  00006	53		 push	 ebx
  00007	56		 push	 esi
  00008	57		 push	 edi
  00009	89 4d fc	 mov	 DWORD PTR _this$[ebp], ecx
  0000c	8b 45 fc	 mov	 eax, DWORD PTR _this$[ebp]
  0000f	c7 00 00 00 00
	00		 mov	 DWORD PTR [eax], OFFSET ??_7TMonsterAIGroupMember@@6B@

; 15   : 	this->Reset();

  00015	8b 4d fc	 mov	 ecx, DWORD PTR _this$[ebp]
  00018	e8 00 00 00 00	 call	 ?Reset@TMonsterAIGroupMember@@QAEXXZ ; TMonsterAIGroupMember::Reset

; 16   : }

  0001d	8b 45 fc	 mov	 eax, DWORD PTR _this$[ebp]
  00020	5f		 pop	 edi
  00021	5e		 pop	 esi
  00022	5b		 pop	 ebx
  00023	8b e5		 mov	 esp, ebp
  00025	5d		 pop	 ebp
  00026	c3		 ret	 0
??0TMonsterAIGroupMember@@QAE@XZ ENDP			; TMonsterAIGroupMember::TMonsterAIGroupMember
_TEXT	ENDS
PUBLIC	??1TMonsterAIGroupMember@@UAE@XZ		; TMonsterAIGroupMember::~TMonsterAIGroupMember
EXTRN	??3@YAXPAX@Z:PROC				; operator delete
; Function compile flags: /Odtp /ZI
;	COMDAT ??_GTMonsterAIGroupMember@@UAEPAXI@Z
_TEXT	SEGMENT
_this$ = -4						; size = 4
___flags$ = 8						; size = 4
??_GTMonsterAIGroupMember@@UAEPAXI@Z PROC		; TMonsterAIGroupMember::`scalar deleting destructor', COMDAT
; _this$ = ecx
  00000	55		 push	 ebp
  00001	8b ec		 mov	 ebp, esp
  00003	83 ec 44	 sub	 esp, 68			; 00000044H
  00006	53		 push	 ebx
  00007	56		 push	 esi
  00008	57		 push	 edi
  00009	89 4d fc	 mov	 DWORD PTR _this$[ebp], ecx
  0000c	8b 4d fc	 mov	 ecx, DWORD PTR _this$[ebp]
  0000f	e8 00 00 00 00	 call	 ??1TMonsterAIGroupMember@@UAE@XZ ; TMonsterAIGroupMember::~TMonsterAIGroupMember
  00014	8b 45 08	 mov	 eax, DWORD PTR ___flags$[ebp]
  00017	83 e0 01	 and	 eax, 1
  0001a	74 0c		 je	 SHORT $LN1@scalar
  0001c	8b 45 fc	 mov	 eax, DWORD PTR _this$[ebp]
  0001f	50		 push	 eax
  00020	e8 00 00 00 00	 call	 ??3@YAXPAX@Z		; operator delete
  00025	83 c4 04	 add	 esp, 4
$LN1@scalar:
  00028	8b 45 fc	 mov	 eax, DWORD PTR _this$[ebp]
  0002b	5f		 pop	 edi
  0002c	5e		 pop	 esi
  0002d	5b		 pop	 ebx
  0002e	8b e5		 mov	 esp, ebp
  00030	5d		 pop	 ebp
  00031	c2 04 00	 ret	 4
??_GTMonsterAIGroupMember@@UAEPAXI@Z ENDP		; TMonsterAIGroupMember::`scalar deleting destructor'
; Function compile flags: /Odtp /ZI
_TEXT	ENDS
_TEXT	SEGMENT
_this$ = -4						; size = 4
??1TMonsterAIGroupMember@@UAE@XZ PROC			; TMonsterAIGroupMember::~TMonsterAIGroupMember
; _this$ = ecx

; 19   : {

  00030	55		 push	 ebp
  00031	8b ec		 mov	 ebp, esp
  00033	83 ec 44	 sub	 esp, 68			; 00000044H
  00036	53		 push	 ebx
  00037	56		 push	 esi
  00038	57		 push	 edi
  00039	89 4d fc	 mov	 DWORD PTR _this$[ebp], ecx
  0003c	8b 45 fc	 mov	 eax, DWORD PTR _this$[ebp]
  0003f	c7 00 00 00 00
	00		 mov	 DWORD PTR [eax], OFFSET ??_7TMonsterAIGroupMember@@6B@

; 20   : 	return;
; 21   : }

  00045	5f		 pop	 edi
  00046	5e		 pop	 esi
  00047	5b		 pop	 ebx
  00048	8b e5		 mov	 esp, ebp
  0004a	5d		 pop	 ebp
  0004b	c3		 ret	 0
??1TMonsterAIGroupMember@@UAE@XZ ENDP			; TMonsterAIGroupMember::~TMonsterAIGroupMember
; Function compile flags: /Odtp /ZI
_this$ = -4						; size = 4
?Reset@TMonsterAIGroupMember@@QAEXXZ PROC		; TMonsterAIGroupMember::Reset
; _this$ = ecx

; 26   : {

  00050	55		 push	 ebp
  00051	8b ec		 mov	 ebp, esp
  00053	83 ec 44	 sub	 esp, 68			; 00000044H
  00056	53		 push	 ebx
  00057	56		 push	 esi
  00058	57		 push	 edi
  00059	89 4d fc	 mov	 DWORD PTR _this$[ebp], ecx

; 27   : 	this->m_iGroupNumber = -1;

  0005c	8b 45 fc	 mov	 eax, DWORD PTR _this$[ebp]
  0005f	c7 40 04 ff ff
	ff ff		 mov	 DWORD PTR [eax+4], -1

; 28   : 	this->m_iGuid = -1;

  00066	8b 45 fc	 mov	 eax, DWORD PTR _this$[ebp]
  00069	c7 40 08 ff ff
	ff ff		 mov	 DWORD PTR [eax+8], -1

; 29   : 	this->m_iClass = -1;

  00070	8b 45 fc	 mov	 eax, DWORD PTR _this$[ebp]
  00073	c7 40 0c ff ff
	ff ff		 mov	 DWORD PTR [eax+12], -1

; 30   : 	this->m_iRank = -1;

  0007a	8b 45 fc	 mov	 eax, DWORD PTR _this$[ebp]
  0007d	c7 40 10 ff ff
	ff ff		 mov	 DWORD PTR [eax+16], -1

; 31   : 	this->m_iStartAI = 0;

  00084	8b 45 fc	 mov	 eax, DWORD PTR _this$[ebp]
  00087	c7 40 14 00 00
	00 00		 mov	 DWORD PTR [eax+20], 0

; 32   : 	this->m_iAI01 = 0;

  0008e	8b 45 fc	 mov	 eax, DWORD PTR _this$[ebp]
  00091	c7 40 18 00 00
	00 00		 mov	 DWORD PTR [eax+24], 0

; 33   : 	this->m_iAI02 = 0;

  00098	8b 45 fc	 mov	 eax, DWORD PTR _this$[ebp]
  0009b	c7 40 1c 00 00
	00 00		 mov	 DWORD PTR [eax+28], 0

; 34   : 	this->m_iAI03 = 0;

  000a2	8b 45 fc	 mov	 eax, DWORD PTR _this$[ebp]
  000a5	c7 40 20 00 00
	00 00		 mov	 DWORD PTR [eax+32], 0

; 35   : 	this->m_iCreateType = -1;

  000ac	8b 45 fc	 mov	 eax, DWORD PTR _this$[ebp]
  000af	c7 40 24 ff ff
	ff ff		 mov	 DWORD PTR [eax+36], -1

; 36   : 	this->m_iMapNumber = -1;

  000b6	8b 45 fc	 mov	 eax, DWORD PTR _this$[ebp]
  000b9	c7 40 28 ff ff
	ff ff		 mov	 DWORD PTR [eax+40], -1

; 37   : 	this->m_iStartX = -1;

  000c0	8b 45 fc	 mov	 eax, DWORD PTR _this$[ebp]
  000c3	c7 40 2c ff ff
	ff ff		 mov	 DWORD PTR [eax+44], -1

; 38   : 	this->m_iStartY = -1;

  000ca	8b 45 fc	 mov	 eax, DWORD PTR _this$[ebp]
  000cd	c7 40 30 ff ff
	ff ff		 mov	 DWORD PTR [eax+48], -1

; 39   : 	this->m_iStartDir = -1;

  000d4	8b 45 fc	 mov	 eax, DWORD PTR _this$[ebp]
  000d7	c7 40 34 ff ff
	ff ff		 mov	 DWORD PTR [eax+52], -1

; 40   : 	this->m_iRegenType = -1;

  000de	8b 45 fc	 mov	 eax, DWORD PTR _this$[ebp]
  000e1	c7 40 38 ff ff
	ff ff		 mov	 DWORD PTR [eax+56], -1

; 41   : 	this->m_iObjIndex = -1;

  000e8	8b 45 fc	 mov	 eax, DWORD PTR _this$[ebp]
  000eb	c7 40 3c ff ff
	ff ff		 mov	 DWORD PTR [eax+60], -1

; 42   : }

  000f2	5f		 pop	 edi
  000f3	5e		 pop	 esi
  000f4	5b		 pop	 ebx
  000f5	8b e5		 mov	 esp, ebp
  000f7	5d		 pop	 ebp
  000f8	c3		 ret	 0
?Reset@TMonsterAIGroupMember@@QAEXXZ ENDP		; TMonsterAIGroupMember::Reset
_TEXT	ENDS
END
