; Listing generated by Microsoft (R) Optimizing Compiler Version 16.00.40219.01 

	TITLE	D:\Projects\ExTeam6.3\Source\GameServer\GameServer\TMonsterSkillElement.cpp
	.686P
	.XMM
	include listing.inc
	.model	flat

INCLUDELIB LIBCMT
INCLUDELIB OLDNAMES

PUBLIC	?s_bDataLoad@TMonsterSkillElement@@2HA		; TMonsterSkillElement::s_bDataLoad
_BSS	SEGMENT
?s_bDataLoad@TMonsterSkillElement@@2HA DD 01H DUP (?)	; TMonsterSkillElement::s_bDataLoad
_BSS	ENDS
_DATA	SEGMENT
_g_iNpcUpDfLevel_CGATE DD 01H
	DD	02H
	DD	02dc6c0H
	DD	02H
	DD	03H
	DD	02dc6c0H
	DD	03H
	DD	04H
	DD	02dc6c0H
_g_iNpcUpDfLevel_CSTATUE DD 01H
	DD	03H
	DD	02dc6c0H
	DD	02H
	DD	05H
	DD	02dc6c0H
	DD	03H
	DD	07H
	DD	02dc6c0H
_g_iNpcUpMaxHP_CGATE DD 02625a0H
	DD	02H
	DD	0f4240H
	DD	03567e0H
	DD	03H
	DD	0f4240H
	DD	04f5880H
	DD	04H
	DD	0f4240H
_g_iNpcUpMaxHP_CSTATUE DD 02191c0H
	DD	03H
	DD	0f4240H
	DD	033e140H
	DD	05H
	DD	0f4240H
	DD	04c4b40H
	DD	07H
	DD	0f4240H
_g_iNpcUpRgLevel_CSTATUE DD 01H
	DD	03H
	DD	04c4b40H
	DD	02H
	DD	05H
	DD	04c4b40H
	DD	03H
	DD	07H
	DD	04c4b40H
_g_iCsUserReSpawnArea DD 023H
	DD	011H
	DD	090H
	DD	030H
	DD	04aH
	DD	090H
	DD	073H
	DD	09aH
	DD	023H
	DD	011H
	DD	090H
	DD	030H
_g_iNpcDefense_CGATE DD 064H
	DD	0b4H
	DD	012cH
	DD	0208H
_g_iNpcDefense_CSTATUE DD 050H
	DD	0b4H
	DD	0154H
	DD	0226H
_g_iCastleWallStepAxisY DD 071H
	DD	0a0H
	DD	0cbH
_DATA	ENDS
PUBLIC	??_H@YGXPAXIHP6EPAX0@Z@Z			; `vector constructor iterator'
; Function compile flags: /Odtp /ZI
;	COMDAT ??_H@YGXPAXIHP6EPAX0@Z@Z
_TEXT	SEGMENT
___t$ = 8						; size = 4
___s$ = 12						; size = 4
___n$ = 16						; size = 4
___f$ = 20						; size = 4
??_H@YGXPAXIHP6EPAX0@Z@Z PROC				; `vector constructor iterator', COMDAT
  00000	55		 push	 ebp
  00001	8b ec		 mov	 ebp, esp
  00003	83 ec 40	 sub	 esp, 64			; 00000040H
  00006	53		 push	 ebx
  00007	56		 push	 esi
  00008	57		 push	 edi
$LN2@vector:
  00009	8b 45 10	 mov	 eax, DWORD PTR ___n$[ebp]
  0000c	83 e8 01	 sub	 eax, 1
  0000f	89 45 10	 mov	 DWORD PTR ___n$[ebp], eax
  00012	78 11		 js	 SHORT $LN3@vector
  00014	8b 4d 08	 mov	 ecx, DWORD PTR ___t$[ebp]
  00017	ff 55 14	 call	 DWORD PTR ___f$[ebp]
  0001a	8b 45 08	 mov	 eax, DWORD PTR ___t$[ebp]
  0001d	03 45 0c	 add	 eax, DWORD PTR ___s$[ebp]
  00020	89 45 08	 mov	 DWORD PTR ___t$[ebp], eax
  00023	eb e4		 jmp	 SHORT $LN2@vector
$LN3@vector:
  00025	5f		 pop	 edi
  00026	5e		 pop	 esi
  00027	5b		 pop	 ebx
  00028	8b e5		 mov	 esp, ebp
  0002a	5d		 pop	 ebp
  0002b	c2 10 00	 ret	 16			; 00000010H
??_H@YGXPAXIHP6EPAX0@Z@Z ENDP				; `vector constructor iterator'
_TEXT	ENDS
PUBLIC	?Reset@TMonsterSkillElement@@QAEXXZ		; TMonsterSkillElement::Reset
PUBLIC	??_7TMonsterSkillElement@@6B@			; TMonsterSkillElement::`vftable'
PUBLIC	??0TSkillElement@@QAE@XZ			; TSkillElement::TSkillElement
PUBLIC	??0TMonsterSkillElement@@QAE@XZ			; TMonsterSkillElement::TMonsterSkillElement
PUBLIC	??_R4TMonsterSkillElement@@6B@			; TMonsterSkillElement::`RTTI Complete Object Locator'
PUBLIC	??_R0?AVTMonsterSkillElement@@@8		; TMonsterSkillElement `RTTI Type Descriptor'
PUBLIC	??_R3TMonsterSkillElement@@8			; TMonsterSkillElement::`RTTI Class Hierarchy Descriptor'
PUBLIC	??_R2TMonsterSkillElement@@8			; TMonsterSkillElement::`RTTI Base Class Array'
PUBLIC	??_R1A@?0A@EA@TMonsterSkillElement@@8		; TMonsterSkillElement::`RTTI Base Class Descriptor at (0,-1,0,64)'
PUBLIC	??_R1A@?0A@EA@TSkillElement@@8			; TSkillElement::`RTTI Base Class Descriptor at (0,-1,0,64)'
PUBLIC	??_R0?AVTSkillElement@@@8			; TSkillElement `RTTI Type Descriptor'
PUBLIC	??_R3TSkillElement@@8				; TSkillElement::`RTTI Class Hierarchy Descriptor'
PUBLIC	??_R2TSkillElement@@8				; TSkillElement::`RTTI Base Class Array'
PUBLIC	?ForceSkillElement@TMonsterSkillElement@@UAEXHH@Z ; TMonsterSkillElement::ForceSkillElement
EXTRN	??_7type_info@@6B@:QWORD			; type_info::`vftable'
EXTRN	??_ETMonsterSkillElement@@UAEPAXI@Z:PROC	; TMonsterSkillElement::`vector deleting destructor'
;	COMDAT ??_R2TSkillElement@@8
; File d:\projects\exteam6.3\source\gameserver\gameserver\tmonsterskillelement.cpp
rdata$r	SEGMENT
??_R2TSkillElement@@8 DD FLAT:??_R1A@?0A@EA@TSkillElement@@8 ; TSkillElement::`RTTI Base Class Array'
rdata$r	ENDS
;	COMDAT ??_R3TSkillElement@@8
rdata$r	SEGMENT
??_R3TSkillElement@@8 DD 00H				; TSkillElement::`RTTI Class Hierarchy Descriptor'
	DD	00H
	DD	01H
	DD	FLAT:??_R2TSkillElement@@8
rdata$r	ENDS
;	COMDAT ??_R0?AVTSkillElement@@@8
_DATA	SEGMENT
??_R0?AVTSkillElement@@@8 DD FLAT:??_7type_info@@6B@	; TSkillElement `RTTI Type Descriptor'
	DD	00H
	DB	'.?AVTSkillElement@@', 00H
_DATA	ENDS
;	COMDAT ??_R1A@?0A@EA@TSkillElement@@8
rdata$r	SEGMENT
??_R1A@?0A@EA@TSkillElement@@8 DD FLAT:??_R0?AVTSkillElement@@@8 ; TSkillElement::`RTTI Base Class Descriptor at (0,-1,0,64)'
	DD	00H
	DD	00H
	DD	0ffffffffH
	DD	00H
	DD	040H
	DD	FLAT:??_R3TSkillElement@@8
rdata$r	ENDS
;	COMDAT ??_R1A@?0A@EA@TMonsterSkillElement@@8
rdata$r	SEGMENT
??_R1A@?0A@EA@TMonsterSkillElement@@8 DD FLAT:??_R0?AVTMonsterSkillElement@@@8 ; TMonsterSkillElement::`RTTI Base Class Descriptor at (0,-1,0,64)'
	DD	01H
	DD	00H
	DD	0ffffffffH
	DD	00H
	DD	040H
	DD	FLAT:??_R3TMonsterSkillElement@@8
rdata$r	ENDS
;	COMDAT ??_R2TMonsterSkillElement@@8
rdata$r	SEGMENT
??_R2TMonsterSkillElement@@8 DD FLAT:??_R1A@?0A@EA@TMonsterSkillElement@@8 ; TMonsterSkillElement::`RTTI Base Class Array'
	DD	FLAT:??_R1A@?0A@EA@TSkillElement@@8
rdata$r	ENDS
;	COMDAT ??_R3TMonsterSkillElement@@8
rdata$r	SEGMENT
??_R3TMonsterSkillElement@@8 DD 00H			; TMonsterSkillElement::`RTTI Class Hierarchy Descriptor'
	DD	00H
	DD	02H
	DD	FLAT:??_R2TMonsterSkillElement@@8
rdata$r	ENDS
;	COMDAT ??_R0?AVTMonsterSkillElement@@@8
_DATA	SEGMENT
??_R0?AVTMonsterSkillElement@@@8 DD FLAT:??_7type_info@@6B@ ; TMonsterSkillElement `RTTI Type Descriptor'
	DD	00H
	DB	'.?AVTMonsterSkillElement@@', 00H
_DATA	ENDS
;	COMDAT ??_R4TMonsterSkillElement@@6B@
rdata$r	SEGMENT
??_R4TMonsterSkillElement@@6B@ DD 00H			; TMonsterSkillElement::`RTTI Complete Object Locator'
	DD	00H
	DD	00H
	DD	FLAT:??_R0?AVTMonsterSkillElement@@@8
	DD	FLAT:??_R3TMonsterSkillElement@@8
rdata$r	ENDS
;	COMDAT ??_7TMonsterSkillElement@@6B@
CONST	SEGMENT
??_7TMonsterSkillElement@@6B@ DD FLAT:??_R4TMonsterSkillElement@@6B@ ; TMonsterSkillElement::`vftable'
	DD	FLAT:?ForceSkillElement@TMonsterSkillElement@@UAEXHH@Z
	DD	FLAT:??_ETMonsterSkillElement@@UAEPAXI@Z
; Function compile flags: /Odtp /ZI
CONST	ENDS
_TEXT	SEGMENT
_this$ = -4						; size = 4
??0TMonsterSkillElement@@QAE@XZ PROC			; TMonsterSkillElement::TMonsterSkillElement
; _this$ = ecx

; 30   : {

  00000	55		 push	 ebp
  00001	8b ec		 mov	 ebp, esp
  00003	83 ec 44	 sub	 esp, 68			; 00000044H
  00006	53		 push	 ebx
  00007	56		 push	 esi
  00008	57		 push	 edi
  00009	89 4d fc	 mov	 DWORD PTR _this$[ebp], ecx
  0000c	8b 4d fc	 mov	 ecx, DWORD PTR _this$[ebp]
  0000f	e8 00 00 00 00	 call	 ??0TSkillElement@@QAE@XZ
  00014	8b 45 fc	 mov	 eax, DWORD PTR _this$[ebp]
  00017	c7 00 00 00 00
	00		 mov	 DWORD PTR [eax], OFFSET ??_7TMonsterSkillElement@@6B@

; 31   : 	this->Reset();

  0001d	8b 4d fc	 mov	 ecx, DWORD PTR _this$[ebp]
  00020	e8 00 00 00 00	 call	 ?Reset@TMonsterSkillElement@@QAEXXZ ; TMonsterSkillElement::Reset

; 32   : }

  00025	8b 45 fc	 mov	 eax, DWORD PTR _this$[ebp]
  00028	5f		 pop	 edi
  00029	5e		 pop	 esi
  0002a	5b		 pop	 ebx
  0002b	8b e5		 mov	 esp, ebp
  0002d	5d		 pop	 ebp
  0002e	c3		 ret	 0
??0TMonsterSkillElement@@QAE@XZ ENDP			; TMonsterSkillElement::TMonsterSkillElement
_TEXT	ENDS
PUBLIC	??1TMonsterSkillElement@@UAE@XZ			; TMonsterSkillElement::~TMonsterSkillElement
EXTRN	??3@YAXPAX@Z:PROC				; operator delete
; Function compile flags: /Odtp /ZI
;	COMDAT ??_GTMonsterSkillElement@@UAEPAXI@Z
_TEXT	SEGMENT
_this$ = -4						; size = 4
___flags$ = 8						; size = 4
??_GTMonsterSkillElement@@UAEPAXI@Z PROC		; TMonsterSkillElement::`scalar deleting destructor', COMDAT
; _this$ = ecx
  00000	55		 push	 ebp
  00001	8b ec		 mov	 ebp, esp
  00003	83 ec 44	 sub	 esp, 68			; 00000044H
  00006	53		 push	 ebx
  00007	56		 push	 esi
  00008	57		 push	 edi
  00009	89 4d fc	 mov	 DWORD PTR _this$[ebp], ecx
  0000c	8b 4d fc	 mov	 ecx, DWORD PTR _this$[ebp]
  0000f	e8 00 00 00 00	 call	 ??1TMonsterSkillElement@@UAE@XZ ; TMonsterSkillElement::~TMonsterSkillElement
  00014	8b 45 08	 mov	 eax, DWORD PTR ___flags$[ebp]
  00017	83 e0 01	 and	 eax, 1
  0001a	74 0c		 je	 SHORT $LN1@scalar
  0001c	8b 45 fc	 mov	 eax, DWORD PTR _this$[ebp]
  0001f	50		 push	 eax
  00020	e8 00 00 00 00	 call	 ??3@YAXPAX@Z		; operator delete
  00025	83 c4 04	 add	 esp, 4
$LN1@scalar:
  00028	8b 45 fc	 mov	 eax, DWORD PTR _this$[ebp]
  0002b	5f		 pop	 edi
  0002c	5e		 pop	 esi
  0002d	5b		 pop	 ebx
  0002e	8b e5		 mov	 esp, ebp
  00030	5d		 pop	 ebp
  00031	c2 04 00	 ret	 4
??_GTMonsterSkillElement@@UAEPAXI@Z ENDP		; TMonsterSkillElement::`scalar deleting destructor'
_TEXT	ENDS
PUBLIC	??_7TSkillElement@@6B@				; TSkillElement::`vftable'
PUBLIC	??_R4TSkillElement@@6B@				; TSkillElement::`RTTI Complete Object Locator'
PUBLIC	?ForceSkillElement@TSkillElement@@UAEXHH@Z	; TSkillElement::ForceSkillElement
;	COMDAT ??_R4TSkillElement@@6B@
rdata$r	SEGMENT
??_R4TSkillElement@@6B@ DD 00H				; TSkillElement::`RTTI Complete Object Locator'
	DD	00H
	DD	00H
	DD	FLAT:??_R0?AVTSkillElement@@@8
	DD	FLAT:??_R3TSkillElement@@8
rdata$r	ENDS
;	COMDAT ??_7TSkillElement@@6B@
CONST	SEGMENT
??_7TSkillElement@@6B@ DD FLAT:??_R4TSkillElement@@6B@	; TSkillElement::`vftable'
	DD	FLAT:?ForceSkillElement@TSkillElement@@UAEXHH@Z
; Function compile flags: /Odtp /ZI
CONST	ENDS
;	COMDAT ??0TSkillElement@@QAE@XZ
_TEXT	SEGMENT
_this$ = -4						; size = 4
??0TSkillElement@@QAE@XZ PROC				; TSkillElement::TSkillElement, COMDAT
; _this$ = ecx
  00000	55		 push	 ebp
  00001	8b ec		 mov	 ebp, esp
  00003	83 ec 44	 sub	 esp, 68			; 00000044H
  00006	53		 push	 ebx
  00007	56		 push	 esi
  00008	57		 push	 edi
  00009	89 4d fc	 mov	 DWORD PTR _this$[ebp], ecx
  0000c	8b 45 fc	 mov	 eax, DWORD PTR _this$[ebp]
  0000f	c7 00 00 00 00
	00		 mov	 DWORD PTR [eax], OFFSET ??_7TSkillElement@@6B@
  00015	8b 45 fc	 mov	 eax, DWORD PTR _this$[ebp]
  00018	5f		 pop	 edi
  00019	5e		 pop	 esi
  0001a	5b		 pop	 ebx
  0001b	8b e5		 mov	 esp, ebp
  0001d	5d		 pop	 ebp
  0001e	c3		 ret	 0
??0TSkillElement@@QAE@XZ ENDP				; TSkillElement::TSkillElement
; Function compile flags: /Odtp /ZI
; File d:\projects\exteam6.3\source\gameserver\gameserver\tskillelement.h
_TEXT	ENDS
;	COMDAT ?ForceSkillElement@TSkillElement@@UAEXHH@Z
_TEXT	SEGMENT
_this$ = -4						; size = 4
_iIndex$ = 8						; size = 4
_iTargetIndex$ = 12					; size = 4
?ForceSkillElement@TSkillElement@@UAEXHH@Z PROC		; TSkillElement::ForceSkillElement, COMDAT
; _this$ = ecx

; 19   : 	virtual void ForceSkillElement(int iIndex, int iTargetIndex){return;}	// 0

  00000	55		 push	 ebp
  00001	8b ec		 mov	 ebp, esp
  00003	83 ec 44	 sub	 esp, 68			; 00000044H
  00006	53		 push	 ebx
  00007	56		 push	 esi
  00008	57		 push	 edi
  00009	89 4d fc	 mov	 DWORD PTR _this$[ebp], ecx
  0000c	5f		 pop	 edi
  0000d	5e		 pop	 esi
  0000e	5b		 pop	 ebx
  0000f	8b e5		 mov	 esp, ebp
  00011	5d		 pop	 ebp
  00012	c2 08 00	 ret	 8
?ForceSkillElement@TSkillElement@@UAEXHH@Z ENDP		; TSkillElement::ForceSkillElement
; Function compile flags: /Odtp /ZI
; File d:\projects\exteam6.3\source\gameserver\gameserver\tmonsterskillelement.cpp
_TEXT	ENDS
_TEXT	SEGMENT
_this$ = -4						; size = 4
??1TMonsterSkillElement@@UAE@XZ PROC			; TMonsterSkillElement::~TMonsterSkillElement
; _this$ = ecx

; 35   : {

  00030	55		 push	 ebp
  00031	8b ec		 mov	 ebp, esp
  00033	83 ec 44	 sub	 esp, 68			; 00000044H
  00036	53		 push	 ebx
  00037	56		 push	 esi
  00038	57		 push	 edi
  00039	89 4d fc	 mov	 DWORD PTR _this$[ebp], ecx
  0003c	8b 45 fc	 mov	 eax, DWORD PTR _this$[ebp]
  0003f	c7 00 00 00 00
	00		 mov	 DWORD PTR [eax], OFFSET ??_7TMonsterSkillElement@@6B@

; 36   : 	return;
; 37   : }

  00045	5f		 pop	 edi
  00046	5e		 pop	 esi
  00047	5b		 pop	 ebx
  00048	8b e5		 mov	 esp, ebp
  0004a	5d		 pop	 ebp
  0004b	c3		 ret	 0
??1TMonsterSkillElement@@UAE@XZ ENDP			; TMonsterSkillElement::~TMonsterSkillElement
_TEXT	ENDS
EXTRN	_memset:PROC
; Function compile flags: /Odtp /ZI
_TEXT	SEGMENT
_this$ = -4						; size = 4
?Reset@TMonsterSkillElement@@QAEXXZ PROC		; TMonsterSkillElement::Reset
; _this$ = ecx

; 40   : {

  00050	55		 push	 ebp
  00051	8b ec		 mov	 ebp, esp
  00053	83 ec 44	 sub	 esp, 68			; 00000044H
  00056	53		 push	 ebx
  00057	56		 push	 esi
  00058	57		 push	 edi
  00059	89 4d fc	 mov	 DWORD PTR _this$[ebp], ecx

; 41   : 	this->m_iSuccessRate = -1;

  0005c	8b 45 fc	 mov	 eax, DWORD PTR _this$[ebp]
  0005f	c7 40 20 ff ff
	ff ff		 mov	 DWORD PTR [eax+32], -1

; 42   : 	this->m_iContinuanceTime = -1;

  00066	8b 45 fc	 mov	 eax, DWORD PTR _this$[ebp]
  00069	c7 40 24 ff ff
	ff ff		 mov	 DWORD PTR [eax+36], -1

; 43   : 	this->m_iIncAndDecType = -1;

  00070	8b 45 fc	 mov	 eax, DWORD PTR _this$[ebp]
  00073	c7 40 28 ff ff
	ff ff		 mov	 DWORD PTR [eax+40], -1

; 44   : 	this->m_iIncAndDecValue = -1;

  0007a	8b 45 fc	 mov	 eax, DWORD PTR _this$[ebp]
  0007d	c7 40 2c ff ff
	ff ff		 mov	 DWORD PTR [eax+44], -1

; 45   : 	this->m_iNullifiedSkill = -1;

  00084	8b 45 fc	 mov	 eax, DWORD PTR _this$[ebp]
  00087	c7 40 30 ff ff
	ff ff		 mov	 DWORD PTR [eax+48], -1

; 46   : 	this->m_iCharacterClass = -1;

  0008e	8b 45 fc	 mov	 eax, DWORD PTR _this$[ebp]
  00091	c7 40 34 ff ff
	ff ff		 mov	 DWORD PTR [eax+52], -1

; 47   : 	this->m_iCharacterLevel = -1;

  00098	8b 45 fc	 mov	 eax, DWORD PTR _this$[ebp]
  0009b	c7 40 38 ff ff
	ff ff		 mov	 DWORD PTR [eax+56], -1

; 48   : 	this->m_iElementType = -1;

  000a2	8b 45 fc	 mov	 eax, DWORD PTR _this$[ebp]
  000a5	c7 40 1c ff ff
	ff ff		 mov	 DWORD PTR [eax+28], -1

; 49   : 	this->m_iElementNumber = -1;

  000ac	8b 45 fc	 mov	 eax, DWORD PTR _this$[ebp]
  000af	c7 40 18 ff ff
	ff ff		 mov	 DWORD PTR [eax+24], -1

; 50   : 	memset(this->m_szElementName, 0, sizeof(this->m_szElementName));

  000b6	6a 14		 push	 20			; 00000014H
  000b8	6a 00		 push	 0
  000ba	8b 45 fc	 mov	 eax, DWORD PTR _this$[ebp]
  000bd	83 c0 04	 add	 eax, 4
  000c0	50		 push	 eax
  000c1	e8 00 00 00 00	 call	 _memset
  000c6	83 c4 0c	 add	 esp, 12			; 0000000cH

; 51   : }

  000c9	5f		 pop	 edi
  000ca	5e		 pop	 esi
  000cb	5b		 pop	 ebx
  000cc	8b e5		 mov	 esp, ebp
  000ce	5d		 pop	 ebp
  000cf	c3		 ret	 0
?Reset@TMonsterSkillElement@@QAEXXZ ENDP		; TMonsterSkillElement::Reset
_TEXT	ENDS
PUBLIC	??_C@_0DI@MPJFELNA@?$FLMonster?5Element?$FN?5?9?5Loading?5Exce@ ; `string'
PUBLIC	??_C@_0CG@IGOGFOBE@?$FLMonster?5Element?$FN?5?9?5?$CFs?5file?5is?5L@ ; `string'
PUBLIC	??_C@_0FM@EEKDKBLP@?$KB?YNum?3?$CFd?0Name?3?$CFs?0Type?3?$CFd?0Rate?3?$CFd@ ; `string'
PUBLIC	??_C@_0DI@LDGJOAOE@?$FLMonster?5Element?$FN?5?9?5ElementNumbe@ ; `string'
PUBLIC	??_C@_03JBJLGPFL@end?$AA@			; `string'
PUBLIC	?DelAllSkillElement@TMonsterSkillElement@@SAHXZ	; TMonsterSkillElement::DelAllSkillElement
PUBLIC	??_C@_0CD@ELHGFGGC@?$FLMonster?5Element?$FN?5?9?5Can?8t?5Open?5?$CF@ ; `string'
PUBLIC	??_C@_01KDCPPGHE@r?$AA@				; `string'
PUBLIC	??_C@_0DG@FBIECEIN@?$FLMonster?5Element?$FN?5?9?5File?5load?5er@ ; `string'
PUBLIC	??_C@_00CNPNBAHC@?$AA@				; `string'
PUBLIC	__$ArrayPad$
PUBLIC	?LoadData@TMonsterSkillElement@@SAHPAD@Z	; TMonsterSkillElement::LoadData
EXTRN	?LogAddC@@3P6AXEPADZZA:DWORD			; LogAddC
EXTRN	_fclose:PROC
EXTRN	__imp__OutputDebugStringA@4:PROC
EXTRN	__imp__wsprintfA:PROC
EXTRN	_memcpy:PROC
EXTRN	_fopen:PROC
EXTRN	?MsgBox@@YAXPADZZ:PROC				; MsgBox
EXTRN	_strcmp:PROC
EXTRN	___security_cookie:DWORD
EXTRN	___CxxFrameHandler3:PROC
EXTRN	@__security_check_cookie@4:PROC
EXTRN	_memset:PROC
EXTRN	__ftol2_sse:PROC
_BSS	SEGMENT
_TokenString DB	064H DUP (?)
_TokenNumber DD	01H DUP (?)
_SMDFile DD	01H DUP (?)
_BSS	ENDS
;	COMDAT ??_C@_0DI@MPJFELNA@?$FLMonster?5Element?$FN?5?9?5Loading?5Exce@
CONST	SEGMENT
??_C@_0DI@MPJFELNA@?$FLMonster?5Element?$FN?5?9?5Loading?5Exce@ DB '[Mons'
	DB	'ter Element] - Loading Exception Error (%s) File. ', 00H ; `string'
CONST	ENDS
;	COMDAT ??_C@_0CG@IGOGFOBE@?$FLMonster?5Element?$FN?5?9?5?$CFs?5file?5is?5L@
CONST	SEGMENT
??_C@_0CG@IGOGFOBE@?$FLMonster?5Element?$FN?5?9?5?$CFs?5file?5is?5L@ DB '['
	DB	'Monster Element] - %s file is Loaded', 00H	; `string'
CONST	ENDS
;	COMDAT ??_C@_0FM@EEKDKBLP@?$KB?YNum?3?$CFd?0Name?3?$CFs?0Type?3?$CFd?0Rate?3?$CFd@
CONST	SEGMENT
??_C@_0FM@EEKDKBLP@?$KB?YNum?3?$CFd?0Name?3?$CFs?0Type?3?$CFd?0Rate?3?$CFd@ DB 0a1H
	DB	0d9H, 'Num:%d,Name:%s,Type:%d,Rate:%d,Time:%d,I&DType:%d,I&DVa'
	DB	'lue:%d,Null:%d,Class:%d, Level:%d', 0aH, 00H ; `string'
CONST	ENDS
;	COMDAT ??_C@_0DI@LDGJOAOE@?$FLMonster?5Element?$FN?5?9?5ElementNumbe@
CONST	SEGMENT
??_C@_0DI@LDGJOAOE@?$FLMonster?5Element?$FN?5?9?5ElementNumbe@ DB '[Monst'
	DB	'er Element] - ElementNumber(%d) Error (%s) File. ', 00H ; `string'
CONST	ENDS
;	COMDAT ??_C@_03JBJLGPFL@end?$AA@
CONST	SEGMENT
??_C@_03JBJLGPFL@end?$AA@ DB 'end', 00H			; `string'
CONST	ENDS
;	COMDAT ??_C@_0CD@ELHGFGGC@?$FLMonster?5Element?$FN?5?9?5Can?8t?5Open?5?$CF@
CONST	SEGMENT
??_C@_0CD@ELHGFGGC@?$FLMonster?5Element?$FN?5?9?5Can?8t?5Open?5?$CF@ DB '['
	DB	'Monster Element] - Can''t Open %s ', 00H	; `string'
CONST	ENDS
;	COMDAT ??_C@_01KDCPPGHE@r?$AA@
CONST	SEGMENT
??_C@_01KDCPPGHE@r?$AA@ DB 'r', 00H			; `string'
CONST	ENDS
;	COMDAT ??_C@_0DG@FBIECEIN@?$FLMonster?5Element?$FN?5?9?5File?5load?5er@
CONST	SEGMENT
??_C@_0DG@FBIECEIN@?$FLMonster?5Element?$FN?5?9?5File?5load?5er@ DB '[Mon'
	DB	'ster Element] - File load error : File Name Error', 00H ; `string'
CONST	ENDS
;	COMDAT ??_C@_00CNPNBAHC@?$AA@
CONST	SEGMENT
??_C@_00CNPNBAHC@?$AA@ DB 00H				; `string'
CONST	ENDS
xdata$x	SEGMENT
__catchsym$?LoadData@TMonsterSkillElement@@SAHPAD@Z$2 DD 040H
	DD	00H
	DD	00H
	DD	FLAT:__catch$?LoadData@TMonsterSkillElement@@SAHPAD@Z$0
__unwindtable$?LoadData@TMonsterSkillElement@@SAHPAD@Z DD 0ffffffffH
	DD	00H
	DD	0ffffffffH
	DD	00H
__tryblocktable$?LoadData@TMonsterSkillElement@@SAHPAD@Z DD 00H
	DD	00H
	DD	01H
	DD	01H
	DD	FLAT:__catchsym$?LoadData@TMonsterSkillElement@@SAHPAD@Z$2
__ehfuncinfo$?LoadData@TMonsterSkillElement@@SAHPAD@Z DD 019930522H
	DD	02H
	DD	FLAT:__unwindtable$?LoadData@TMonsterSkillElement@@SAHPAD@Z
	DD	01H
	DD	FLAT:__tryblocktable$?LoadData@TMonsterSkillElement@@SAHPAD@Z
	DD	2 DUP(00H)
	DD	00H
	DD	01H
; Function compile flags: /Odtp /ZI
xdata$x	ENDS
_TEXT	SEGMENT
tv214 = -352						; size = 4
tv213 = -352						; size = 4
tv212 = -352						; size = 4
tv211 = -352						; size = 4
tv210 = -352						; size = 4
tv209 = -352						; size = 4
tv208 = -352						; size = 4
tv207 = -352						; size = 4
tv206 = -352						; size = 4
tv205 = -352						; size = 4
tv204 = -352						; size = 4
_szMsg$229265 = -284					; size = 200
_iCharacterLevel$229250 = -84				; size = 4
_iCharacterClass$229249 = -80				; size = 4
_iNullifiedMagic$229248 = -76				; size = 4
_iIncAndDecValue$229247 = -72				; size = 4
_iIncAndDecType$229246 = -68				; size = 4
_iContinuanceTime$229245 = -64				; size = 4
_iSuccessRate$229244 = -60				; size = 4
_iElementType$229243 = -56				; size = 4
_iElementNumber$229242 = -52				; size = 4
_szElementName$229241 = -48				; size = 20
_iType$229215 = -28					; size = 4
_Token$229211 = -24					; size = 4
__$ArrayPad$ = -20					; size = 4
__$EHRec$ = -16						; size = 16
_lpszFileName$ = 8					; size = 4
?LoadData@TMonsterSkillElement@@SAHPAD@Z PROC		; TMonsterSkillElement::LoadData

; 54   : {	

  000d0	55		 push	 ebp
  000d1	8b ec		 mov	 ebp, esp
  000d3	6a ff		 push	 -1
  000d5	68 00 00 00 00	 push	 __ehhandler$?LoadData@TMonsterSkillElement@@SAHPAD@Z
  000da	64 a1 00 00 00
	00		 mov	 eax, DWORD PTR fs:0
  000e0	50		 push	 eax
  000e1	51		 push	 ecx
  000e2	81 ec 50 01 00
	00		 sub	 esp, 336		; 00000150H
  000e8	a1 00 00 00 00	 mov	 eax, DWORD PTR ___security_cookie
  000ed	33 c5		 xor	 eax, ebp
  000ef	89 45 ec	 mov	 DWORD PTR __$ArrayPad$[ebp], eax
  000f2	53		 push	 ebx
  000f3	56		 push	 esi
  000f4	57		 push	 edi
  000f5	50		 push	 eax
  000f6	8d 45 f4	 lea	 eax, DWORD PTR __$EHRec$[ebp+4]
  000f9	64 a3 00 00 00
	00		 mov	 DWORD PTR fs:0, eax
  000ff	89 65 f0	 mov	 DWORD PTR __$EHRec$[ebp], esp

; 55   : 	TMonsterSkillElement::s_bDataLoad = FALSE;

  00102	c7 05 00 00 00
	00 00 00 00 00	 mov	 DWORD PTR ?s_bDataLoad@TMonsterSkillElement@@2HA, 0 ; TMonsterSkillElement::s_bDataLoad

; 56   : 
; 57   : 	if ( !lpszFileName || !strcmp(lpszFileName, ""))

  0010c	83 7d 08 00	 cmp	 DWORD PTR _lpszFileName$[ebp], 0
  00110	74 15		 je	 SHORT $LN12@LoadData
  00112	68 00 00 00 00	 push	 OFFSET ??_C@_00CNPNBAHC@?$AA@
  00117	8b 45 08	 mov	 eax, DWORD PTR _lpszFileName$[ebp]
  0011a	50		 push	 eax
  0011b	e8 00 00 00 00	 call	 _strcmp
  00120	83 c4 08	 add	 esp, 8
  00123	85 c0		 test	 eax, eax
  00125	75 14		 jne	 SHORT $LN13@LoadData
$LN12@LoadData:

; 58   : 	{
; 59   : 		MsgBox("[Monster Element] - File load error : File Name Error");

  00127	68 00 00 00 00	 push	 OFFSET ??_C@_0DG@FBIECEIN@?$FLMonster?5Element?$FN?5?9?5File?5load?5er@
  0012c	e8 00 00 00 00	 call	 ?MsgBox@@YAXPADZZ	; MsgBox
  00131	83 c4 04	 add	 esp, 4

; 60   : 		return FALSE;

  00134	33 c0		 xor	 eax, eax
  00136	e9 f5 03 00 00	 jmp	 $LN14@LoadData
$LN13@LoadData:

; 61   : 	}
; 62   : 
; 63   : 	try
; 64   : 	{

  0013b	c7 45 fc 00 00
	00 00		 mov	 DWORD PTR __$EHRec$[ebp+12], 0

; 65   : 		SMDToken Token;
; 66   : 		SMDFile = fopen(lpszFileName, "r");

  00142	68 00 00 00 00	 push	 OFFSET ??_C@_01KDCPPGHE@r?$AA@
  00147	8b 45 08	 mov	 eax, DWORD PTR _lpszFileName$[ebp]
  0014a	50		 push	 eax
  0014b	e8 00 00 00 00	 call	 _fopen
  00150	83 c4 08	 add	 esp, 8
  00153	a3 00 00 00 00	 mov	 DWORD PTR _SMDFile, eax

; 67   : 
; 68   : 		if ( SMDFile == NULL )

  00158	83 3d 00 00 00
	00 00		 cmp	 DWORD PTR _SMDFile, 0
  0015f	75 18		 jne	 SHORT $LN10@LoadData

; 69   : 		{
; 70   : 			MsgBox("[Monster Element] - Can't Open %s ", lpszFileName);

  00161	8b 45 08	 mov	 eax, DWORD PTR _lpszFileName$[ebp]
  00164	50		 push	 eax
  00165	68 00 00 00 00	 push	 OFFSET ??_C@_0CD@ELHGFGGC@?$FLMonster?5Element?$FN?5?9?5Can?8t?5Open?5?$CF@
  0016a	e8 00 00 00 00	 call	 ?MsgBox@@YAXPADZZ	; MsgBox
  0016f	83 c4 08	 add	 esp, 8

; 71   : 			return FALSE;

  00172	33 c0		 xor	 eax, eax
  00174	e9 b7 03 00 00	 jmp	 $LN14@LoadData
$LN10@LoadData:

; 72   : 		}
; 73   : 
; 74   : 		TMonsterSkillElement::DelAllSkillElement();

  00179	e8 00 00 00 00	 call	 ?DelAllSkillElement@TMonsterSkillElement@@SAHXZ ; TMonsterSkillElement::DelAllSkillElement

; 75   : 		int iType = -1;

  0017e	c7 45 e4 ff ff
	ff ff		 mov	 DWORD PTR _iType$229215[ebp], -1
$LN9@LoadData:

; 76   : 
; 77   : 		while ( true )

  00185	b8 01 00 00 00	 mov	 eax, 1
  0018a	85 c0		 test	 eax, eax
  0018c	0f 84 49 03 00
	00		 je	 $LN8@LoadData

; 78   : 		{
; 79   : 			Token = GetToken();

  00192	e8 00 00 00 00	 call	 ?GetToken@@YA?AW4SMDToken@@XZ ; GetToken
  00197	89 85 a0 fe ff
	ff		 mov	 DWORD PTR tv204[ebp], eax
  0019d	8b 85 a0 fe ff
	ff		 mov	 eax, DWORD PTR tv204[ebp]
  001a3	89 45 e8	 mov	 DWORD PTR _Token$229211[ebp], eax

; 80   : 
; 81   : 			if ( Token == END )

  001a6	83 7d e8 02	 cmp	 DWORD PTR _Token$229211[ebp], 2
  001aa	75 05		 jne	 SHORT $LN7@LoadData

; 82   : 				break;

  001ac	e9 2a 03 00 00	 jmp	 $LN8@LoadData
$LN7@LoadData:

; 83   : 
; 84   : 			iType = (int)TokenNumber;

  001b1	d9 05 00 00 00
	00		 fld	 DWORD PTR _TokenNumber
  001b7	e8 00 00 00 00	 call	 __ftol2_sse
  001bc	89 45 e4	 mov	 DWORD PTR _iType$229215[ebp], eax
$LN6@LoadData:

; 85   : 
; 86   : 			while ( true )

  001bf	b8 01 00 00 00	 mov	 eax, 1
  001c4	85 c0		 test	 eax, eax
  001c6	0f 84 0a 03 00
	00		 je	 $LN5@LoadData

; 87   : 			{
; 88   : 				if ( iType == 0 )

  001cc	83 7d e4 00	 cmp	 DWORD PTR _iType$229215[ebp], 0
  001d0	0f 85 fb 02 00
	00		 jne	 $LN4@LoadData

; 89   : 				{
; 90   : 					char szElementName[20] = {0};

  001d6	c6 45 d0 00	 mov	 BYTE PTR _szElementName$229241[ebp], 0
  001da	33 c0		 xor	 eax, eax
  001dc	89 45 d1	 mov	 DWORD PTR _szElementName$229241[ebp+1], eax
  001df	89 45 d5	 mov	 DWORD PTR _szElementName$229241[ebp+5], eax
  001e2	89 45 d9	 mov	 DWORD PTR _szElementName$229241[ebp+9], eax
  001e5	89 45 dd	 mov	 DWORD PTR _szElementName$229241[ebp+13], eax
  001e8	66 89 45 e1	 mov	 WORD PTR _szElementName$229241[ebp+17], ax
  001ec	88 45 e3	 mov	 BYTE PTR _szElementName$229241[ebp+19], al

; 91   : 					int iElementNumber = -1;						

  001ef	c7 45 cc ff ff
	ff ff		 mov	 DWORD PTR _iElementNumber$229242[ebp], -1

; 92   : 					int iElementType = -1;

  001f6	c7 45 c8 ff ff
	ff ff		 mov	 DWORD PTR _iElementType$229243[ebp], -1

; 93   : 					int iSuccessRate = -1;

  001fd	c7 45 c4 ff ff
	ff ff		 mov	 DWORD PTR _iSuccessRate$229244[ebp], -1

; 94   : 					int iContinuanceTime = -1;

  00204	c7 45 c0 ff ff
	ff ff		 mov	 DWORD PTR _iContinuanceTime$229245[ebp], -1

; 95   : 					int iIncAndDecType = -1;

  0020b	c7 45 bc ff ff
	ff ff		 mov	 DWORD PTR _iIncAndDecType$229246[ebp], -1

; 96   : 					int iIncAndDecValue = -1;

  00212	c7 45 b8 ff ff
	ff ff		 mov	 DWORD PTR _iIncAndDecValue$229247[ebp], -1

; 97   : 					int iNullifiedMagic = -1;

  00219	c7 45 b4 ff ff
	ff ff		 mov	 DWORD PTR _iNullifiedMagic$229248[ebp], -1

; 98   : 					int iCharacterClass = -1;

  00220	c7 45 b0 ff ff
	ff ff		 mov	 DWORD PTR _iCharacterClass$229249[ebp], -1

; 99   : 					int iCharacterLevel = -1;

  00227	c7 45 ac ff ff
	ff ff		 mov	 DWORD PTR _iCharacterLevel$229250[ebp], -1

; 100  : 
; 101  : 					Token = GetToken();

  0022e	e8 00 00 00 00	 call	 ?GetToken@@YA?AW4SMDToken@@XZ ; GetToken
  00233	89 85 a0 fe ff
	ff		 mov	 DWORD PTR tv205[ebp], eax
  00239	8b 85 a0 fe ff
	ff		 mov	 eax, DWORD PTR tv205[ebp]
  0023f	89 45 e8	 mov	 DWORD PTR _Token$229211[ebp], eax

; 102  : 
; 103  : 					if ( !strcmp("end", TokenString))

  00242	68 00 00 00 00	 push	 OFFSET _TokenString
  00247	68 00 00 00 00	 push	 OFFSET ??_C@_03JBJLGPFL@end?$AA@
  0024c	e8 00 00 00 00	 call	 _strcmp
  00251	83 c4 08	 add	 esp, 8
  00254	85 c0		 test	 eax, eax
  00256	75 05		 jne	 SHORT $LN3@LoadData

; 104  : 						break;

  00258	e9 79 02 00 00	 jmp	 $LN5@LoadData
$LN3@LoadData:

; 105  : 
; 106  : 					iElementNumber = (int)TokenNumber;

  0025d	d9 05 00 00 00
	00		 fld	 DWORD PTR _TokenNumber
  00263	e8 00 00 00 00	 call	 __ftol2_sse
  00268	89 45 cc	 mov	 DWORD PTR _iElementNumber$229242[ebp], eax

; 107  : 
; 108  : 					Token = GetToken();

  0026b	e8 00 00 00 00	 call	 ?GetToken@@YA?AW4SMDToken@@XZ ; GetToken
  00270	89 85 a0 fe ff
	ff		 mov	 DWORD PTR tv206[ebp], eax
  00276	8b 85 a0 fe ff
	ff		 mov	 eax, DWORD PTR tv206[ebp]
  0027c	89 45 e8	 mov	 DWORD PTR _Token$229211[ebp], eax

; 109  : 					memcpy(szElementName, TokenString, sizeof(szElementName));

  0027f	6a 14		 push	 20			; 00000014H
  00281	68 00 00 00 00	 push	 OFFSET _TokenString
  00286	8d 45 d0	 lea	 eax, DWORD PTR _szElementName$229241[ebp]
  00289	50		 push	 eax
  0028a	e8 00 00 00 00	 call	 _memcpy
  0028f	83 c4 0c	 add	 esp, 12			; 0000000cH

; 110  : 
; 111  : 					Token = GetToken();

  00292	e8 00 00 00 00	 call	 ?GetToken@@YA?AW4SMDToken@@XZ ; GetToken
  00297	89 85 a0 fe ff
	ff		 mov	 DWORD PTR tv207[ebp], eax
  0029d	8b 85 a0 fe ff
	ff		 mov	 eax, DWORD PTR tv207[ebp]
  002a3	89 45 e8	 mov	 DWORD PTR _Token$229211[ebp], eax

; 112  : 					iElementType = (int)TokenNumber;

  002a6	d9 05 00 00 00
	00		 fld	 DWORD PTR _TokenNumber
  002ac	e8 00 00 00 00	 call	 __ftol2_sse
  002b1	89 45 c8	 mov	 DWORD PTR _iElementType$229243[ebp], eax

; 113  : 
; 114  : 					Token = GetToken();

  002b4	e8 00 00 00 00	 call	 ?GetToken@@YA?AW4SMDToken@@XZ ; GetToken
  002b9	89 85 a0 fe ff
	ff		 mov	 DWORD PTR tv208[ebp], eax
  002bf	8b 85 a0 fe ff
	ff		 mov	 eax, DWORD PTR tv208[ebp]
  002c5	89 45 e8	 mov	 DWORD PTR _Token$229211[ebp], eax

; 115  : 					iSuccessRate = (int)TokenNumber;

  002c8	d9 05 00 00 00
	00		 fld	 DWORD PTR _TokenNumber
  002ce	e8 00 00 00 00	 call	 __ftol2_sse
  002d3	89 45 c4	 mov	 DWORD PTR _iSuccessRate$229244[ebp], eax

; 116  : 
; 117  : 					Token = GetToken();

  002d6	e8 00 00 00 00	 call	 ?GetToken@@YA?AW4SMDToken@@XZ ; GetToken
  002db	89 85 a0 fe ff
	ff		 mov	 DWORD PTR tv209[ebp], eax
  002e1	8b 85 a0 fe ff
	ff		 mov	 eax, DWORD PTR tv209[ebp]
  002e7	89 45 e8	 mov	 DWORD PTR _Token$229211[ebp], eax

; 118  : 					iContinuanceTime = (int)TokenNumber;

  002ea	d9 05 00 00 00
	00		 fld	 DWORD PTR _TokenNumber
  002f0	e8 00 00 00 00	 call	 __ftol2_sse
  002f5	89 45 c0	 mov	 DWORD PTR _iContinuanceTime$229245[ebp], eax

; 119  : 
; 120  : 					Token = GetToken();

  002f8	e8 00 00 00 00	 call	 ?GetToken@@YA?AW4SMDToken@@XZ ; GetToken
  002fd	89 85 a0 fe ff
	ff		 mov	 DWORD PTR tv210[ebp], eax
  00303	8b 85 a0 fe ff
	ff		 mov	 eax, DWORD PTR tv210[ebp]
  00309	89 45 e8	 mov	 DWORD PTR _Token$229211[ebp], eax

; 121  : 					iIncAndDecType = (int)TokenNumber;

  0030c	d9 05 00 00 00
	00		 fld	 DWORD PTR _TokenNumber
  00312	e8 00 00 00 00	 call	 __ftol2_sse
  00317	89 45 bc	 mov	 DWORD PTR _iIncAndDecType$229246[ebp], eax

; 122  : 
; 123  : 					Token = GetToken();

  0031a	e8 00 00 00 00	 call	 ?GetToken@@YA?AW4SMDToken@@XZ ; GetToken
  0031f	89 85 a0 fe ff
	ff		 mov	 DWORD PTR tv211[ebp], eax
  00325	8b 85 a0 fe ff
	ff		 mov	 eax, DWORD PTR tv211[ebp]
  0032b	89 45 e8	 mov	 DWORD PTR _Token$229211[ebp], eax

; 124  : 					iIncAndDecValue = (int)TokenNumber;

  0032e	d9 05 00 00 00
	00		 fld	 DWORD PTR _TokenNumber
  00334	e8 00 00 00 00	 call	 __ftol2_sse
  00339	89 45 b8	 mov	 DWORD PTR _iIncAndDecValue$229247[ebp], eax

; 125  : 
; 126  : 					Token = GetToken();

  0033c	e8 00 00 00 00	 call	 ?GetToken@@YA?AW4SMDToken@@XZ ; GetToken
  00341	89 85 a0 fe ff
	ff		 mov	 DWORD PTR tv212[ebp], eax
  00347	8b 85 a0 fe ff
	ff		 mov	 eax, DWORD PTR tv212[ebp]
  0034d	89 45 e8	 mov	 DWORD PTR _Token$229211[ebp], eax

; 127  : 					iNullifiedMagic = (int)TokenNumber;

  00350	d9 05 00 00 00
	00		 fld	 DWORD PTR _TokenNumber
  00356	e8 00 00 00 00	 call	 __ftol2_sse
  0035b	89 45 b4	 mov	 DWORD PTR _iNullifiedMagic$229248[ebp], eax

; 128  : 
; 129  : 					Token = GetToken();

  0035e	e8 00 00 00 00	 call	 ?GetToken@@YA?AW4SMDToken@@XZ ; GetToken
  00363	89 85 a0 fe ff
	ff		 mov	 DWORD PTR tv213[ebp], eax
  00369	8b 85 a0 fe ff
	ff		 mov	 eax, DWORD PTR tv213[ebp]
  0036f	89 45 e8	 mov	 DWORD PTR _Token$229211[ebp], eax

; 130  : 					iCharacterClass = (int)TokenNumber;

  00372	d9 05 00 00 00
	00		 fld	 DWORD PTR _TokenNumber
  00378	e8 00 00 00 00	 call	 __ftol2_sse
  0037d	89 45 b0	 mov	 DWORD PTR _iCharacterClass$229249[ebp], eax

; 131  : 
; 132  : 					Token = GetToken();

  00380	e8 00 00 00 00	 call	 ?GetToken@@YA?AW4SMDToken@@XZ ; GetToken
  00385	89 85 a0 fe ff
	ff		 mov	 DWORD PTR tv214[ebp], eax
  0038b	8b 85 a0 fe ff
	ff		 mov	 eax, DWORD PTR tv214[ebp]
  00391	89 45 e8	 mov	 DWORD PTR _Token$229211[ebp], eax

; 133  : 					iCharacterLevel = (int)TokenNumber;

  00394	d9 05 00 00 00
	00		 fld	 DWORD PTR _TokenNumber
  0039a	e8 00 00 00 00	 call	 __ftol2_sse
  0039f	89 45 ac	 mov	 DWORD PTR _iCharacterLevel$229250[ebp], eax

; 134  : 
; 135  : 					if ( iElementNumber < 0 || iElementNumber >= MAX_MONSTER_SKILL_ELEMENT )

  003a2	83 7d cc 00	 cmp	 DWORD PTR _iElementNumber$229242[ebp], 0
  003a6	7c 06		 jl	 SHORT $LN1@LoadData
  003a8	83 7d cc 64	 cmp	 DWORD PTR _iElementNumber$229242[ebp], 100 ; 00000064H
  003ac	7c 1a		 jl	 SHORT $LN2@LoadData
$LN1@LoadData:

; 136  : 					{
; 137  : 						MsgBox("[Monster Element] - ElementNumber(%d) Error (%s) File. ",
; 138  : 							iElementNumber, lpszFileName);

  003ae	8b 45 08	 mov	 eax, DWORD PTR _lpszFileName$[ebp]
  003b1	50		 push	 eax
  003b2	8b 4d cc	 mov	 ecx, DWORD PTR _iElementNumber$229242[ebp]
  003b5	51		 push	 ecx
  003b6	68 00 00 00 00	 push	 OFFSET ??_C@_0DI@LDGJOAOE@?$FLMonster?5Element?$FN?5?9?5ElementNumbe@
  003bb	e8 00 00 00 00	 call	 ?MsgBox@@YAXPADZZ	; MsgBox
  003c0	83 c4 0c	 add	 esp, 12			; 0000000cH

; 139  : 						continue;

  003c3	e9 f7 fd ff ff	 jmp	 $LN6@LoadData
$LN2@LoadData:

; 140  : 					}
; 141  : 
; 142  : 					char szMsg[200] ={0};

  003c8	c6 85 e4 fe ff
	ff 00		 mov	 BYTE PTR _szMsg$229265[ebp], 0
  003cf	68 c7 00 00 00	 push	 199			; 000000c7H
  003d4	6a 00		 push	 0
  003d6	8d 85 e5 fe ff
	ff		 lea	 eax, DWORD PTR _szMsg$229265[ebp+1]
  003dc	50		 push	 eax
  003dd	e8 00 00 00 00	 call	 _memset
  003e2	83 c4 0c	 add	 esp, 12			; 0000000cH

; 143  : 
; 144  : 					wsprintf(szMsg, "¡ÙNum:%d,Name:%s,Type:%d,Rate:%d,Time:%d,I&DType:%d,I&DValue:%d,Null:%d,Class:%d, Level:%d\n",
; 145  : 						iElementNumber, szElementName, iElementType, iSuccessRate, iContinuanceTime,
; 146  : 						iIncAndDecType, iIncAndDecValue, iNullifiedMagic, iCharacterClass, iCharacterLevel);

  003e5	8b 45 ac	 mov	 eax, DWORD PTR _iCharacterLevel$229250[ebp]
  003e8	50		 push	 eax
  003e9	8b 4d b0	 mov	 ecx, DWORD PTR _iCharacterClass$229249[ebp]
  003ec	51		 push	 ecx
  003ed	8b 55 b4	 mov	 edx, DWORD PTR _iNullifiedMagic$229248[ebp]
  003f0	52		 push	 edx
  003f1	8b 45 b8	 mov	 eax, DWORD PTR _iIncAndDecValue$229247[ebp]
  003f4	50		 push	 eax
  003f5	8b 4d bc	 mov	 ecx, DWORD PTR _iIncAndDecType$229246[ebp]
  003f8	51		 push	 ecx
  003f9	8b 55 c0	 mov	 edx, DWORD PTR _iContinuanceTime$229245[ebp]
  003fc	52		 push	 edx
  003fd	8b 45 c4	 mov	 eax, DWORD PTR _iSuccessRate$229244[ebp]
  00400	50		 push	 eax
  00401	8b 4d c8	 mov	 ecx, DWORD PTR _iElementType$229243[ebp]
  00404	51		 push	 ecx
  00405	8d 55 d0	 lea	 edx, DWORD PTR _szElementName$229241[ebp]
  00408	52		 push	 edx
  00409	8b 45 cc	 mov	 eax, DWORD PTR _iElementNumber$229242[ebp]
  0040c	50		 push	 eax
  0040d	68 00 00 00 00	 push	 OFFSET ??_C@_0FM@EEKDKBLP@?$KB?YNum?3?$CFd?0Name?3?$CFs?0Type?3?$CFd?0Rate?3?$CFd@
  00412	8d 8d e4 fe ff
	ff		 lea	 ecx, DWORD PTR _szMsg$229265[ebp]
  00418	51		 push	 ecx
  00419	ff 15 00 00 00
	00		 call	 DWORD PTR __imp__wsprintfA
  0041f	83 c4 30	 add	 esp, 48			; 00000030H

; 147  : 
; 148  : 					OutputDebugString(szMsg);

  00422	8d 85 e4 fe ff
	ff		 lea	 eax, DWORD PTR _szMsg$229265[ebp]
  00428	50		 push	 eax
  00429	ff 15 00 00 00
	00		 call	 DWORD PTR __imp__OutputDebugStringA@4

; 149  : 
; 150  : 					TMonsterSkillElement::s_MonsterSkillElementArray[iElementNumber].m_iSuccessRate = iSuccessRate;

  0042f	8b 45 cc	 mov	 eax, DWORD PTR _iElementNumber$229242[ebp]
  00432	6b c0 3c	 imul	 eax, 60			; 0000003cH
  00435	8b 4d c4	 mov	 ecx, DWORD PTR _iSuccessRate$229244[ebp]
  00438	89 88 20 00 00
	00		 mov	 DWORD PTR ?s_MonsterSkillElementArray@TMonsterSkillElement@@2PAV1@A[eax+32], ecx

; 151  : 					TMonsterSkillElement::s_MonsterSkillElementArray[iElementNumber].m_iContinuanceTime = iContinuanceTime;

  0043e	8b 45 cc	 mov	 eax, DWORD PTR _iElementNumber$229242[ebp]
  00441	6b c0 3c	 imul	 eax, 60			; 0000003cH
  00444	8b 4d c0	 mov	 ecx, DWORD PTR _iContinuanceTime$229245[ebp]
  00447	89 88 24 00 00
	00		 mov	 DWORD PTR ?s_MonsterSkillElementArray@TMonsterSkillElement@@2PAV1@A[eax+36], ecx

; 152  : 					TMonsterSkillElement::s_MonsterSkillElementArray[iElementNumber].m_iIncAndDecType = iIncAndDecType;

  0044d	8b 45 cc	 mov	 eax, DWORD PTR _iElementNumber$229242[ebp]
  00450	6b c0 3c	 imul	 eax, 60			; 0000003cH
  00453	8b 4d bc	 mov	 ecx, DWORD PTR _iIncAndDecType$229246[ebp]
  00456	89 88 28 00 00
	00		 mov	 DWORD PTR ?s_MonsterSkillElementArray@TMonsterSkillElement@@2PAV1@A[eax+40], ecx

; 153  : 					TMonsterSkillElement::s_MonsterSkillElementArray[iElementNumber].m_iIncAndDecValue = iIncAndDecValue;

  0045c	8b 45 cc	 mov	 eax, DWORD PTR _iElementNumber$229242[ebp]
  0045f	6b c0 3c	 imul	 eax, 60			; 0000003cH
  00462	8b 4d b8	 mov	 ecx, DWORD PTR _iIncAndDecValue$229247[ebp]
  00465	89 88 2c 00 00
	00		 mov	 DWORD PTR ?s_MonsterSkillElementArray@TMonsterSkillElement@@2PAV1@A[eax+44], ecx

; 154  : 					TMonsterSkillElement::s_MonsterSkillElementArray[iElementNumber].m_iNullifiedSkill = iNullifiedMagic;

  0046b	8b 45 cc	 mov	 eax, DWORD PTR _iElementNumber$229242[ebp]
  0046e	6b c0 3c	 imul	 eax, 60			; 0000003cH
  00471	8b 4d b4	 mov	 ecx, DWORD PTR _iNullifiedMagic$229248[ebp]
  00474	89 88 30 00 00
	00		 mov	 DWORD PTR ?s_MonsterSkillElementArray@TMonsterSkillElement@@2PAV1@A[eax+48], ecx

; 155  : 					TMonsterSkillElement::s_MonsterSkillElementArray[iElementNumber].m_iCharacterClass = iCharacterClass;

  0047a	8b 45 cc	 mov	 eax, DWORD PTR _iElementNumber$229242[ebp]
  0047d	6b c0 3c	 imul	 eax, 60			; 0000003cH
  00480	8b 4d b0	 mov	 ecx, DWORD PTR _iCharacterClass$229249[ebp]
  00483	89 88 34 00 00
	00		 mov	 DWORD PTR ?s_MonsterSkillElementArray@TMonsterSkillElement@@2PAV1@A[eax+52], ecx

; 156  : 					TMonsterSkillElement::s_MonsterSkillElementArray[iElementNumber].m_iCharacterLevel = iCharacterLevel;

  00489	8b 45 cc	 mov	 eax, DWORD PTR _iElementNumber$229242[ebp]
  0048c	6b c0 3c	 imul	 eax, 60			; 0000003cH
  0048f	8b 4d ac	 mov	 ecx, DWORD PTR _iCharacterLevel$229250[ebp]
  00492	89 88 38 00 00
	00		 mov	 DWORD PTR ?s_MonsterSkillElementArray@TMonsterSkillElement@@2PAV1@A[eax+56], ecx

; 157  : 					TMonsterSkillElement::s_MonsterSkillElementArray[iElementNumber].m_iElementType = iElementType;

  00498	8b 45 cc	 mov	 eax, DWORD PTR _iElementNumber$229242[ebp]
  0049b	6b c0 3c	 imul	 eax, 60			; 0000003cH
  0049e	8b 4d c8	 mov	 ecx, DWORD PTR _iElementType$229243[ebp]
  004a1	89 88 1c 00 00
	00		 mov	 DWORD PTR ?s_MonsterSkillElementArray@TMonsterSkillElement@@2PAV1@A[eax+28], ecx

; 158  : 					TMonsterSkillElement::s_MonsterSkillElementArray[iElementNumber].m_iElementNumber = iElementNumber;

  004a7	8b 45 cc	 mov	 eax, DWORD PTR _iElementNumber$229242[ebp]
  004aa	6b c0 3c	 imul	 eax, 60			; 0000003cH
  004ad	8b 4d cc	 mov	 ecx, DWORD PTR _iElementNumber$229242[ebp]
  004b0	89 88 18 00 00
	00		 mov	 DWORD PTR ?s_MonsterSkillElementArray@TMonsterSkillElement@@2PAV1@A[eax+24], ecx

; 159  : 					memcpy(TMonsterSkillElement::s_MonsterSkillElementArray[iElementNumber].m_szElementName,
; 160  : 						szElementName, sizeof(TMonsterSkillElement::s_MonsterSkillElementArray[iElementNumber].m_szElementName));

  004b6	6a 14		 push	 20			; 00000014H
  004b8	8d 45 d0	 lea	 eax, DWORD PTR _szElementName$229241[ebp]
  004bb	50		 push	 eax
  004bc	8b 4d cc	 mov	 ecx, DWORD PTR _iElementNumber$229242[ebp]
  004bf	6b c9 3c	 imul	 ecx, 60			; 0000003cH
  004c2	81 c1 04 00 00
	00		 add	 ecx, OFFSET ?s_MonsterSkillElementArray@TMonsterSkillElement@@2PAV1@A+4
  004c8	51		 push	 ecx
  004c9	e8 00 00 00 00	 call	 _memcpy
  004ce	83 c4 0c	 add	 esp, 12			; 0000000cH
$LN4@LoadData:

; 161  : 					
; 162  : 				}
; 163  : 			}

  004d1	e9 e9 fc ff ff	 jmp	 $LN6@LoadData
$LN5@LoadData:

; 164  : 		}	// while ( true )

  004d6	e9 aa fc ff ff	 jmp	 $LN9@LoadData
$LN8@LoadData:

; 165  : 
; 166  : 		fclose(SMDFile);

  004db	a1 00 00 00 00	 mov	 eax, DWORD PTR _SMDFile
  004e0	50		 push	 eax
  004e1	e8 00 00 00 00	 call	 _fclose
  004e6	83 c4 04	 add	 esp, 4

; 167  : 
; 168  : 		LogAddC(2, "[Monster Element] - %s file is Loaded", lpszFileName);

  004e9	8b 45 08	 mov	 eax, DWORD PTR _lpszFileName$[ebp]
  004ec	50		 push	 eax
  004ed	68 00 00 00 00	 push	 OFFSET ??_C@_0CG@IGOGFOBE@?$FLMonster?5Element?$FN?5?9?5?$CFs?5file?5is?5L@
  004f2	6a 02		 push	 2
  004f4	ff 15 00 00 00
	00		 call	 DWORD PTR ?LogAddC@@3P6AXEPADZZA ; LogAddC
  004fa	83 c4 0c	 add	 esp, 12			; 0000000cH

; 169  : 
; 170  : 		TMonsterSkillElement::s_bDataLoad = TRUE;

  004fd	c7 05 00 00 00
	00 01 00 00 00	 mov	 DWORD PTR ?s_bDataLoad@TMonsterSkillElement@@2HA, 1 ; TMonsterSkillElement::s_bDataLoad

; 171  : 	}

  00507	eb 1e		 jmp	 SHORT $LN16@LoadData
__catch$?LoadData@TMonsterSkillElement@@SAHPAD@Z$0:

; 172  : 	catch(...)
; 173  : 	{
; 174  : 		MsgBox("[Monster Element] - Loading Exception Error (%s) File. ", lpszFileName);	

  00509	8b 45 08	 mov	 eax, DWORD PTR _lpszFileName$[ebp]
  0050c	50		 push	 eax
  0050d	68 00 00 00 00	 push	 OFFSET ??_C@_0DI@MPJFELNA@?$FLMonster?5Element?$FN?5?9?5Loading?5Exce@
  00512	e8 00 00 00 00	 call	 ?MsgBox@@YAXPADZZ	; MsgBox
  00517	83 c4 08	 add	 esp, 8

; 175  : 	}

  0051a	c7 45 fc ff ff
	ff ff		 mov	 DWORD PTR __$EHRec$[ebp+12], -1
  00521	b8 00 00 00 00	 mov	 eax, $LN19@LoadData
  00526	c3		 ret	 0
$LN16@LoadData:
  00527	c7 45 fc ff ff
	ff ff		 mov	 DWORD PTR __$EHRec$[ebp+12], -1
$LN19@LoadData:

; 176  : 
; 177  : 	return FALSE;

  0052e	33 c0		 xor	 eax, eax
$LN14@LoadData:

; 178  : }

  00530	8b 4d f4	 mov	 ecx, DWORD PTR __$EHRec$[ebp+4]
  00533	64 89 0d 00 00
	00 00		 mov	 DWORD PTR fs:0, ecx
  0053a	59		 pop	 ecx
  0053b	5f		 pop	 edi
  0053c	5e		 pop	 esi
  0053d	5b		 pop	 ebx
  0053e	8b 4d ec	 mov	 ecx, DWORD PTR __$ArrayPad$[ebp]
  00541	33 cd		 xor	 ecx, ebp
  00543	e8 00 00 00 00	 call	 @__security_check_cookie@4
  00548	8b e5		 mov	 esp, ebp
  0054a	5d		 pop	 ebp
  0054b	c3		 ret	 0
_TEXT	ENDS
text$x	SEGMENT
__ehhandler$?LoadData@TMonsterSkillElement@@SAHPAD@Z:
  00000	8b 54 24 08	 mov	 edx, DWORD PTR [esp+8]
  00004	8d 42 0c	 lea	 eax, DWORD PTR [edx+12]
  00007	8b 8a 9c fe ff
	ff		 mov	 ecx, DWORD PTR [edx-356]
  0000d	33 c8		 xor	 ecx, eax
  0000f	e8 00 00 00 00	 call	 @__security_check_cookie@4
  00014	8b 4a f8	 mov	 ecx, DWORD PTR [edx-8]
  00017	33 c8		 xor	 ecx, eax
  00019	e8 00 00 00 00	 call	 @__security_check_cookie@4
  0001e	b8 00 00 00 00	 mov	 eax, OFFSET __ehfuncinfo$?LoadData@TMonsterSkillElement@@SAHPAD@Z
  00023	e9 00 00 00 00	 jmp	 ___CxxFrameHandler3
text$x	ENDS
?LoadData@TMonsterSkillElement@@SAHPAD@Z ENDP		; TMonsterSkillElement::LoadData
PUBLIC	__$ArrayPad$
EXTRN	_isalnum:PROC
EXTRN	_isalpha:PROC
EXTRN	_atof:PROC
EXTRN	_isdigit:PROC
EXTRN	_getc:PROC
EXTRN	_ungetc:PROC
EXTRN	_isspace:PROC
EXTRN	_fgetc:PROC
EXTRN	__fltused:DWORD
_BSS	SEGMENT
_CurrentToken DD 01H DUP (?)
; Function compile flags: /Odtp /ZI
; File d:\projects\exteam6.3\source\gameserver\include\readscript.h
_BSS	ENDS
_TEXT	SEGMENT
tv90 = -180						; size = 4
_TempString$ = -112					; size = 100
_p$ = -12						; size = 4
_ch$ = -5						; size = 1
__$ArrayPad$ = -4					; size = 4
?GetToken@@YA?AW4SMDToken@@XZ PROC			; GetToken

; 24   : {

  00550	55		 push	 ebp
  00551	8b ec		 mov	 ebp, esp
  00553	81 ec b4 00 00
	00		 sub	 esp, 180		; 000000b4H
  00559	a1 00 00 00 00	 mov	 eax, DWORD PTR ___security_cookie
  0055e	33 c5		 xor	 eax, ebp
  00560	89 45 fc	 mov	 DWORD PTR __$ArrayPad$[ebp], eax
  00563	53		 push	 ebx
  00564	56		 push	 esi
  00565	57		 push	 edi

; 25   : 	char ch;
; 26   : 	char* p;
; 27   : 	char TempString[100];
; 28   : 
; 29   : 	TokenString[0]=0;

  00566	c6 05 00 00 00
	00 00		 mov	 BYTE PTR _TokenString, 0
$LN31@GetToken:

; 30   : 
; 31   : 	do
; 32   : 	{
; 33   : 		if ((ch=fgetc(SMDFile)) == -1)

  0056d	a1 00 00 00 00	 mov	 eax, DWORD PTR _SMDFile
  00572	50		 push	 eax
  00573	e8 00 00 00 00	 call	 _fgetc
  00578	83 c4 04	 add	 esp, 4
  0057b	88 45 fb	 mov	 BYTE PTR _ch$[ebp], al
  0057e	0f be 4d fb	 movsx	 ecx, BYTE PTR _ch$[ebp]
  00582	83 f9 ff	 cmp	 ecx, -1
  00585	75 0c		 jne	 SHORT $LN28@GetToken

; 34   : 		{
; 35   : 			return END;	// End of FILE (EOF)

  00587	b8 02 00 00 00	 mov	 eax, 2
  0058c	e9 f7 02 00 00	 jmp	 $LN32@GetToken

; 36   : 		}
; 37   : 		else

  00591	eb 5b		 jmp	 SHORT $LN22@GetToken
$LN28@GetToken:

; 38   : 		{	
; 39   : 			if (ch=='/')		// this is /

  00593	0f be 45 fb	 movsx	 eax, BYTE PTR _ch$[ebp]
  00597	83 f8 2f	 cmp	 eax, 47			; 0000002fH
  0059a	75 52		 jne	 SHORT $LN22@GetToken

; 40   : 			{
; 41   : 				if((ch=fgetc(SMDFile)) == '/')

  0059c	a1 00 00 00 00	 mov	 eax, DWORD PTR _SMDFile
  005a1	50		 push	 eax
  005a2	e8 00 00 00 00	 call	 _fgetc
  005a7	83 c4 04	 add	 esp, 4
  005aa	88 45 fb	 mov	 BYTE PTR _ch$[ebp], al
  005ad	0f be 4d fb	 movsx	 ecx, BYTE PTR _ch$[ebp]
  005b1	83 f9 2f	 cmp	 ecx, 47			; 0000002fH
  005b4	75 38		 jne	 SHORT $LN22@GetToken
$LN24@GetToken:

; 42   : 				{
; 43   : 					while ((ch != '\n') && (ch != -1))	// End of Line (EOL)

  005b6	0f be 45 fb	 movsx	 eax, BYTE PTR _ch$[ebp]
  005ba	83 f8 0a	 cmp	 eax, 10			; 0000000aH
  005bd	74 1c		 je	 SHORT $LN23@GetToken
  005bf	0f be 45 fb	 movsx	 eax, BYTE PTR _ch$[ebp]
  005c3	83 f8 ff	 cmp	 eax, -1
  005c6	74 13		 je	 SHORT $LN23@GetToken

; 44   : 					{
; 45   : 						ch=fgetc(SMDFile);

  005c8	a1 00 00 00 00	 mov	 eax, DWORD PTR _SMDFile
  005cd	50		 push	 eax
  005ce	e8 00 00 00 00	 call	 _fgetc
  005d3	83 c4 04	 add	 esp, 4
  005d6	88 45 fb	 mov	 BYTE PTR _ch$[ebp], al

; 46   : 					}

  005d9	eb db		 jmp	 SHORT $LN24@GetToken
$LN23@GetToken:

; 47   : 	
; 48   : 					if (ch == -1)

  005db	0f be 45 fb	 movsx	 eax, BYTE PTR _ch$[ebp]
  005df	83 f8 ff	 cmp	 eax, -1
  005e2	75 0a		 jne	 SHORT $LN22@GetToken

; 49   : 					{
; 50   : 						return END;	// End of FILE

  005e4	b8 02 00 00 00	 mov	 eax, 2
  005e9	e9 9a 02 00 00	 jmp	 $LN32@GetToken
$LN22@GetToken:

; 51   : 					}
; 52   : 				}
; 53   : 			}
; 54   : 		}
; 55   : 	}
; 56   : 	while (isspace(ch) != 0);

  005ee	0f be 45 fb	 movsx	 eax, BYTE PTR _ch$[ebp]
  005f2	50		 push	 eax
  005f3	e8 00 00 00 00	 call	 _isspace
  005f8	83 c4 04	 add	 esp, 4
  005fb	85 c0		 test	 eax, eax
  005fd	0f 85 6a ff ff
	ff		 jne	 $LN31@GetToken

; 57   : 
; 58   : 	
; 59   : 	switch(ch)

  00603	0f be 45 fb	 movsx	 eax, BYTE PTR _ch$[ebp]
  00607	89 85 4c ff ff
	ff		 mov	 DWORD PTR tv90[ebp], eax
  0060d	8b 8d 4c ff ff
	ff		 mov	 ecx, DWORD PTR tv90[ebp]
  00613	83 e9 22	 sub	 ecx, 34			; 00000022H
  00616	89 8d 4c ff ff
	ff		 mov	 DWORD PTR tv90[ebp], ecx
  0061c	83 bd 4c ff ff
	ff 5b		 cmp	 DWORD PTR tv90[ebp], 91	; 0000005bH
  00623	0f 87 a3 01 00
	00		 ja	 $LN6@GetToken
  00629	8b 95 4c ff ff
	ff		 mov	 edx, DWORD PTR tv90[ebp]
  0062f	0f b6 82 00 00
	00 00		 movzx	 eax, BYTE PTR $LN34@GetToken[edx]
  00636	ff 24 85 00 00
	00 00		 jmp	 DWORD PTR $LN35@GetToken[eax*4]
$LN19@GetToken:

; 60   : 	{
; 61   : 
; 62   : 	case 0x23:	// #
; 63   : 		return CurrentToken=COMMAND;

  0063d	c7 05 00 00 00
	00 23 00 00 00	 mov	 DWORD PTR _CurrentToken, 35 ; 00000023H
  00647	a1 00 00 00 00	 mov	 eax, DWORD PTR _CurrentToken
  0064c	e9 37 02 00 00	 jmp	 $LN32@GetToken

; 64   : 		break;

  00651	e9 30 02 00 00	 jmp	 $LN20@GetToken
$LN18@GetToken:

; 65   : 	
; 66   : 	case 0x3B:	// ;
; 67   : 		return CurrentToken=SEMICOLON;

  00656	c7 05 00 00 00
	00 3b 00 00 00	 mov	 DWORD PTR _CurrentToken, 59 ; 0000003bH
  00660	a1 00 00 00 00	 mov	 eax, DWORD PTR _CurrentToken
  00665	e9 1e 02 00 00	 jmp	 $LN32@GetToken

; 68   : 		break;

  0066a	e9 17 02 00 00	 jmp	 $LN20@GetToken
$LN17@GetToken:

; 69   : 	
; 70   : 	case 0x2C:	// ,
; 71   : 
; 72   : 		return CurrentToken=COMMA;

  0066f	c7 05 00 00 00
	00 2c 00 00 00	 mov	 DWORD PTR _CurrentToken, 44 ; 0000002cH
  00679	a1 00 00 00 00	 mov	 eax, DWORD PTR _CurrentToken
  0067e	e9 05 02 00 00	 jmp	 $LN32@GetToken

; 73   : 		break;

  00683	e9 fe 01 00 00	 jmp	 $LN20@GetToken
$LN16@GetToken:

; 74   : 	
; 75   : 	case 0x7B:	// {
; 76   : 		return CurrentToken = LP;

  00688	c7 05 00 00 00
	00 7b 00 00 00	 mov	 DWORD PTR _CurrentToken, 123 ; 0000007bH
  00692	a1 00 00 00 00	 mov	 eax, DWORD PTR _CurrentToken
  00697	e9 ec 01 00 00	 jmp	 $LN32@GetToken

; 77   : 		break;

  0069c	e9 e5 01 00 00	 jmp	 $LN20@GetToken
$LN15@GetToken:

; 78   : 
; 79   : 	case 0x7D:	// }
; 80   : 		return CurrentToken = RP;

  006a1	c7 05 00 00 00
	00 7d 00 00 00	 mov	 DWORD PTR _CurrentToken, 125 ; 0000007dH
  006ab	a1 00 00 00 00	 mov	 eax, DWORD PTR _CurrentToken
  006b0	e9 d3 01 00 00	 jmp	 $LN32@GetToken

; 81   : 		break;

  006b5	e9 cc 01 00 00	 jmp	 $LN20@GetToken
$LN14@GetToken:

; 82   : 	// Nice Index Table :)	by Deathway
; 83   : 	// Numbers Case
; 84   : 	case 0x2D:	//-
; 85   : 	case 0x2E:	//.
; 86   : 	case '0':	//0
; 87   : 	case '1':	//1
; 88   : 	case '2':	//2
; 89   : 	case '3':	//3
; 90   : 	case '4':	//4		
; 91   : 	case '5':	//5
; 92   : 	case '6':	//6
; 93   : 	case '7':	//7
; 94   : 	case '8':	//8
; 95   : 	case '9':	//9
; 96   : 		ungetc(ch, SMDFile);

  006ba	a1 00 00 00 00	 mov	 eax, DWORD PTR _SMDFile
  006bf	50		 push	 eax
  006c0	0f be 4d fb	 movsx	 ecx, BYTE PTR _ch$[ebp]
  006c4	51		 push	 ecx
  006c5	e8 00 00 00 00	 call	 _ungetc
  006ca	83 c4 08	 add	 esp, 8

; 97   : 		p = TempString;

  006cd	8d 45 90	 lea	 eax, DWORD PTR _TempString$[ebp]
  006d0	89 45 f4	 mov	 DWORD PTR _p$[ebp], eax
$LN13@GetToken:

; 98   : 		
; 99   : 		while (((ch=getc(SMDFile)) != -1) && ((ch == 0x2E) || (isdigit(ch) != 0) || (ch == 0x2D)))  // 2e '.'  2D '-'

  006d3	a1 00 00 00 00	 mov	 eax, DWORD PTR _SMDFile
  006d8	50		 push	 eax
  006d9	e8 00 00 00 00	 call	 _getc
  006de	83 c4 04	 add	 esp, 4
  006e1	88 45 fb	 mov	 BYTE PTR _ch$[ebp], al
  006e4	0f be 4d fb	 movsx	 ecx, BYTE PTR _ch$[ebp]
  006e8	83 f9 ff	 cmp	 ecx, -1
  006eb	74 36		 je	 SHORT $LN12@GetToken
  006ed	0f be 45 fb	 movsx	 eax, BYTE PTR _ch$[ebp]
  006f1	83 f8 2e	 cmp	 eax, 46			; 0000002eH
  006f4	74 1a		 je	 SHORT $LN11@GetToken
  006f6	0f be 45 fb	 movsx	 eax, BYTE PTR _ch$[ebp]
  006fa	50		 push	 eax
  006fb	e8 00 00 00 00	 call	 _isdigit
  00700	83 c4 04	 add	 esp, 4
  00703	85 c0		 test	 eax, eax
  00705	75 09		 jne	 SHORT $LN11@GetToken
  00707	0f be 45 fb	 movsx	 eax, BYTE PTR _ch$[ebp]
  0070b	83 f8 2d	 cmp	 eax, 45			; 0000002dH
  0070e	75 13		 jne	 SHORT $LN12@GetToken
$LN11@GetToken:

; 100  : 		{
; 101  : 			*p = ch;	// Construct a String

  00710	8b 45 f4	 mov	 eax, DWORD PTR _p$[ebp]
  00713	8a 4d fb	 mov	 cl, BYTE PTR _ch$[ebp]
  00716	88 08		 mov	 BYTE PTR [eax], cl

; 102  : 			p++;

  00718	8b 45 f4	 mov	 eax, DWORD PTR _p$[ebp]
  0071b	83 c0 01	 add	 eax, 1
  0071e	89 45 f4	 mov	 DWORD PTR _p$[ebp], eax

; 103  : 		}		

  00721	eb b0		 jmp	 SHORT $LN13@GetToken
$LN12@GetToken:

; 104  : 		*p = 0;

  00723	8b 45 f4	 mov	 eax, DWORD PTR _p$[ebp]
  00726	c6 00 00	 mov	 BYTE PTR [eax], 0

; 105  : 		TokenNumber = atof( TempString);	// Select the first Byte as Main ID

  00729	8d 45 90	 lea	 eax, DWORD PTR _TempString$[ebp]
  0072c	50		 push	 eax
  0072d	e8 00 00 00 00	 call	 _atof
  00732	83 c4 04	 add	 esp, 4
  00735	d9 1d 00 00 00
	00		 fstp	 DWORD PTR _TokenNumber

; 106  : 		return CurrentToken  = NUMBER ;

  0073b	c7 05 00 00 00
	00 01 00 00 00	 mov	 DWORD PTR _CurrentToken, 1
  00745	a1 00 00 00 00	 mov	 eax, DWORD PTR _CurrentToken
  0074a	e9 39 01 00 00	 jmp	 $LN32@GetToken

; 107  : 		break;

  0074f	e9 32 01 00 00	 jmp	 $LN20@GetToken
$LN10@GetToken:

; 108  : 
; 109  : 	case '\"':	// "	String Case
; 110  : 		p=&TokenString[0];

  00754	c7 45 f4 00 00
	00 00		 mov	 DWORD PTR _p$[ebp], OFFSET _TokenString
$LN9@GetToken:

; 111  : 		
; 112  : 		while (((ch=getc(SMDFile)) != -1 ) && (ch != 0x22))	// nice

  0075b	a1 00 00 00 00	 mov	 eax, DWORD PTR _SMDFile
  00760	50		 push	 eax
  00761	e8 00 00 00 00	 call	 _getc
  00766	83 c4 04	 add	 esp, 4
  00769	88 45 fb	 mov	 BYTE PTR _ch$[ebp], al
  0076c	0f be 4d fb	 movsx	 ecx, BYTE PTR _ch$[ebp]
  00770	83 f9 ff	 cmp	 ecx, -1
  00773	74 1c		 je	 SHORT $LN8@GetToken
  00775	0f be 45 fb	 movsx	 eax, BYTE PTR _ch$[ebp]
  00779	83 f8 22	 cmp	 eax, 34			; 00000022H
  0077c	74 13		 je	 SHORT $LN8@GetToken

; 113  : 		{
; 114  : 			*p = ch;

  0077e	8b 45 f4	 mov	 eax, DWORD PTR _p$[ebp]
  00781	8a 4d fb	 mov	 cl, BYTE PTR _ch$[ebp]
  00784	88 08		 mov	 BYTE PTR [eax], cl

; 115  : 			p++;

  00786	8b 45 f4	 mov	 eax, DWORD PTR _p$[ebp]
  00789	83 c0 01	 add	 eax, 1
  0078c	89 45 f4	 mov	 DWORD PTR _p$[ebp], eax

; 116  : 		}

  0078f	eb ca		 jmp	 SHORT $LN9@GetToken
$LN8@GetToken:

; 117  : 		if (ch != 0x22 )

  00791	0f be 45 fb	 movsx	 eax, BYTE PTR _ch$[ebp]
  00795	83 f8 22	 cmp	 eax, 34			; 00000022H
  00798	74 13		 je	 SHORT $LN7@GetToken

; 118  : 		{
; 119  : 			ungetc(ch, SMDFile);

  0079a	a1 00 00 00 00	 mov	 eax, DWORD PTR _SMDFile
  0079f	50		 push	 eax
  007a0	0f be 4d fb	 movsx	 ecx, BYTE PTR _ch$[ebp]
  007a4	51		 push	 ecx
  007a5	e8 00 00 00 00	 call	 _ungetc
  007aa	83 c4 08	 add	 esp, 8
$LN7@GetToken:

; 120  : 		}
; 121  : 		*p = 0;

  007ad	8b 45 f4	 mov	 eax, DWORD PTR _p$[ebp]
  007b0	c6 00 00	 mov	 BYTE PTR [eax], 0

; 122  : 		return CurrentToken = NAME;

  007b3	c7 05 00 00 00
	00 00 00 00 00	 mov	 DWORD PTR _CurrentToken, 0
  007bd	a1 00 00 00 00	 mov	 eax, DWORD PTR _CurrentToken
  007c2	e9 c1 00 00 00	 jmp	 $LN32@GetToken

; 123  : 		break;

  007c7	e9 ba 00 00 00	 jmp	 $LN20@GetToken
$LN6@GetToken:

; 124  : 
; 125  : 	default:	// Others
; 126  : 		if (isalpha(ch))

  007cc	0f be 45 fb	 movsx	 eax, BYTE PTR _ch$[ebp]
  007d0	50		 push	 eax
  007d1	e8 00 00 00 00	 call	 _isalpha
  007d6	83 c4 04	 add	 esp, 4
  007d9	85 c0		 test	 eax, eax
  007db	0f 84 94 00 00
	00		 je	 $LN5@GetToken

; 127  : 		{
; 128  : 			p=&TokenString[0];

  007e1	c7 45 f4 00 00
	00 00		 mov	 DWORD PTR _p$[ebp], OFFSET _TokenString

; 129  : 			*p=ch;

  007e8	8b 45 f4	 mov	 eax, DWORD PTR _p$[ebp]
  007eb	8a 4d fb	 mov	 cl, BYTE PTR _ch$[ebp]
  007ee	88 08		 mov	 BYTE PTR [eax], cl

; 130  : 			p++;

  007f0	8b 45 f4	 mov	 eax, DWORD PTR _p$[ebp]
  007f3	83 c0 01	 add	 eax, 1
  007f6	89 45 f4	 mov	 DWORD PTR _p$[ebp], eax
$LN4@GetToken:

; 131  : 
; 132  : 			while ( ((ch=getc(SMDFile)) != -1) && ( (ch == 0x2E) || (ch == 0x5F) || (isalnum(ch) != 0) ) )

  007f9	a1 00 00 00 00	 mov	 eax, DWORD PTR _SMDFile
  007fe	50		 push	 eax
  007ff	e8 00 00 00 00	 call	 _getc
  00804	83 c4 04	 add	 esp, 4
  00807	88 45 fb	 mov	 BYTE PTR _ch$[ebp], al
  0080a	0f be 4d fb	 movsx	 ecx, BYTE PTR _ch$[ebp]
  0080e	83 f9 ff	 cmp	 ecx, -1
  00811	74 36		 je	 SHORT $LN3@GetToken
  00813	0f be 45 fb	 movsx	 eax, BYTE PTR _ch$[ebp]
  00817	83 f8 2e	 cmp	 eax, 46			; 0000002eH
  0081a	74 1a		 je	 SHORT $LN2@GetToken
  0081c	0f be 45 fb	 movsx	 eax, BYTE PTR _ch$[ebp]
  00820	83 f8 5f	 cmp	 eax, 95			; 0000005fH
  00823	74 11		 je	 SHORT $LN2@GetToken
  00825	0f be 45 fb	 movsx	 eax, BYTE PTR _ch$[ebp]
  00829	50		 push	 eax
  0082a	e8 00 00 00 00	 call	 _isalnum
  0082f	83 c4 04	 add	 esp, 4
  00832	85 c0		 test	 eax, eax
  00834	74 13		 je	 SHORT $LN3@GetToken
$LN2@GetToken:

; 133  : 			{
; 134  : 				*p=ch;

  00836	8b 45 f4	 mov	 eax, DWORD PTR _p$[ebp]
  00839	8a 4d fb	 mov	 cl, BYTE PTR _ch$[ebp]
  0083c	88 08		 mov	 BYTE PTR [eax], cl

; 135  : 				p++;

  0083e	8b 45 f4	 mov	 eax, DWORD PTR _p$[ebp]
  00841	83 c0 01	 add	 eax, 1
  00844	89 45 f4	 mov	 DWORD PTR _p$[ebp], eax

; 136  : 				
; 137  : 			}

  00847	eb b0		 jmp	 SHORT $LN4@GetToken
$LN3@GetToken:

; 138  : 
; 139  : 			ungetc(ch, SMDFile);

  00849	a1 00 00 00 00	 mov	 eax, DWORD PTR _SMDFile
  0084e	50		 push	 eax
  0084f	0f be 4d fb	 movsx	 ecx, BYTE PTR _ch$[ebp]
  00853	51		 push	 ecx
  00854	e8 00 00 00 00	 call	 _ungetc
  00859	83 c4 08	 add	 esp, 8

; 140  : 			*p=0;

  0085c	8b 45 f4	 mov	 eax, DWORD PTR _p$[ebp]
  0085f	c6 00 00	 mov	 BYTE PTR [eax], 0

; 141  : 			CurrentToken=NAME;

  00862	c7 05 00 00 00
	00 00 00 00 00	 mov	 DWORD PTR _CurrentToken, 0

; 142  : 			return CurrentToken;

  0086c	a1 00 00 00 00	 mov	 eax, DWORD PTR _CurrentToken
  00871	eb 15		 jmp	 SHORT $LN32@GetToken

; 143  : 		}
; 144  : 		else

  00873	eb 11		 jmp	 SHORT $LN1@GetToken
$LN5@GetToken:

; 145  : 		{
; 146  : 			return CurrentToken = SMD_ERROR; // '<'

  00875	c7 05 00 00 00
	00 3c 00 00 00	 mov	 DWORD PTR _CurrentToken, 60 ; 0000003cH
  0087f	a1 00 00 00 00	 mov	 eax, DWORD PTR _CurrentToken
  00884	eb 02		 jmp	 SHORT $LN32@GetToken
$LN1@GetToken:
$LN20@GetToken:

; 147  : 		}
; 148  : 		break;
; 149  : 
; 150  : 	}
; 151  : 
; 152  : 	return NAME;

  00886	33 c0		 xor	 eax, eax
$LN32@GetToken:

; 153  : }

  00888	5f		 pop	 edi
  00889	5e		 pop	 esi
  0088a	5b		 pop	 ebx
  0088b	8b 4d fc	 mov	 ecx, DWORD PTR __$ArrayPad$[ebp]
  0088e	33 cd		 xor	 ecx, ebp
  00890	e8 00 00 00 00	 call	 @__security_check_cookie@4
  00895	8b e5		 mov	 esp, ebp
  00897	5d		 pop	 ebp
  00898	c3		 ret	 0
  00899	8d 49 00	 npad	 3
$LN35@GetToken:
  0089c	00 00 00 00	 DD	 $LN10@GetToken
  008a0	00 00 00 00	 DD	 $LN19@GetToken
  008a4	00 00 00 00	 DD	 $LN17@GetToken
  008a8	00 00 00 00	 DD	 $LN14@GetToken
  008ac	00 00 00 00	 DD	 $LN18@GetToken
  008b0	00 00 00 00	 DD	 $LN16@GetToken
  008b4	00 00 00 00	 DD	 $LN15@GetToken
  008b8	00 00 00 00	 DD	 $LN6@GetToken
$LN34@GetToken:
  008bc	00		 DB	 0
  008bd	01		 DB	 1
  008be	07		 DB	 7
  008bf	07		 DB	 7
  008c0	07		 DB	 7
  008c1	07		 DB	 7
  008c2	07		 DB	 7
  008c3	07		 DB	 7
  008c4	07		 DB	 7
  008c5	07		 DB	 7
  008c6	02		 DB	 2
  008c7	03		 DB	 3
  008c8	03		 DB	 3
  008c9	07		 DB	 7
  008ca	03		 DB	 3
  008cb	03		 DB	 3
  008cc	03		 DB	 3
  008cd	03		 DB	 3
  008ce	03		 DB	 3
  008cf	03		 DB	 3
  008d0	03		 DB	 3
  008d1	03		 DB	 3
  008d2	03		 DB	 3
  008d3	03		 DB	 3
  008d4	07		 DB	 7
  008d5	04		 DB	 4
  008d6	07		 DB	 7
  008d7	07		 DB	 7
  008d8	07		 DB	 7
  008d9	07		 DB	 7
  008da	07		 DB	 7
  008db	07		 DB	 7
  008dc	07		 DB	 7
  008dd	07		 DB	 7
  008de	07		 DB	 7
  008df	07		 DB	 7
  008e0	07		 DB	 7
  008e1	07		 DB	 7
  008e2	07		 DB	 7
  008e3	07		 DB	 7
  008e4	07		 DB	 7
  008e5	07		 DB	 7
  008e6	07		 DB	 7
  008e7	07		 DB	 7
  008e8	07		 DB	 7
  008e9	07		 DB	 7
  008ea	07		 DB	 7
  008eb	07		 DB	 7
  008ec	07		 DB	 7
  008ed	07		 DB	 7
  008ee	07		 DB	 7
  008ef	07		 DB	 7
  008f0	07		 DB	 7
  008f1	07		 DB	 7
  008f2	07		 DB	 7
  008f3	07		 DB	 7
  008f4	07		 DB	 7
  008f5	07		 DB	 7
  008f6	07		 DB	 7
  008f7	07		 DB	 7
  008f8	07		 DB	 7
  008f9	07		 DB	 7
  008fa	07		 DB	 7
  008fb	07		 DB	 7
  008fc	07		 DB	 7
  008fd	07		 DB	 7
  008fe	07		 DB	 7
  008ff	07		 DB	 7
  00900	07		 DB	 7
  00901	07		 DB	 7
  00902	07		 DB	 7
  00903	07		 DB	 7
  00904	07		 DB	 7
  00905	07		 DB	 7
  00906	07		 DB	 7
  00907	07		 DB	 7
  00908	07		 DB	 7
  00909	07		 DB	 7
  0090a	07		 DB	 7
  0090b	07		 DB	 7
  0090c	07		 DB	 7
  0090d	07		 DB	 7
  0090e	07		 DB	 7
  0090f	07		 DB	 7
  00910	07		 DB	 7
  00911	07		 DB	 7
  00912	07		 DB	 7
  00913	07		 DB	 7
  00914	07		 DB	 7
  00915	05		 DB	 5
  00916	07		 DB	 7
  00917	06		 DB	 6
?GetToken@@YA?AW4SMDToken@@XZ ENDP			; GetToken
; Function compile flags: /Odtp /ZI
; File d:\projects\exteam6.3\source\gameserver\gameserver\tmonsterskillelement.cpp
_i$229271 = -4						; size = 4
?DelAllSkillElement@TMonsterSkillElement@@SAHXZ PROC	; TMonsterSkillElement::DelAllSkillElement

; 181  : {

  00920	55		 push	 ebp
  00921	8b ec		 mov	 ebp, esp
  00923	83 ec 44	 sub	 esp, 68			; 00000044H
  00926	53		 push	 ebx
  00927	56		 push	 esi
  00928	57		 push	 edi

; 182  : 	for(int i=0;i<MAX_MONSTER_SKILL_ELEMENT;i++)

  00929	c7 45 fc 00 00
	00 00		 mov	 DWORD PTR _i$229271[ebp], 0
  00930	eb 09		 jmp	 SHORT $LN3@DelAllSkil
$LN2@DelAllSkil:
  00932	8b 45 fc	 mov	 eax, DWORD PTR _i$229271[ebp]
  00935	83 c0 01	 add	 eax, 1
  00938	89 45 fc	 mov	 DWORD PTR _i$229271[ebp], eax
$LN3@DelAllSkil:
  0093b	83 7d fc 64	 cmp	 DWORD PTR _i$229271[ebp], 100 ; 00000064H
  0093f	7d 13		 jge	 SHORT $LN1@DelAllSkil

; 183  : 	{
; 184  : 		TMonsterSkillElement::s_MonsterSkillElementArray[i].Reset();

  00941	8b 4d fc	 mov	 ecx, DWORD PTR _i$229271[ebp]
  00944	6b c9 3c	 imul	 ecx, 60			; 0000003cH
  00947	81 c1 00 00 00
	00		 add	 ecx, OFFSET ?s_MonsterSkillElementArray@TMonsterSkillElement@@2PAV1@A ; TMonsterSkillElement::s_MonsterSkillElementArray
  0094d	e8 00 00 00 00	 call	 ?Reset@TMonsterSkillElement@@QAEXXZ ; TMonsterSkillElement::Reset

; 185  : 	}

  00952	eb de		 jmp	 SHORT $LN2@DelAllSkil
$LN1@DelAllSkil:

; 186  : 
; 187  : 	return FALSE;

  00954	33 c0		 xor	 eax, eax

; 188  : }

  00956	5f		 pop	 edi
  00957	5e		 pop	 esi
  00958	5b		 pop	 ebx
  00959	8b e5		 mov	 esp, ebp
  0095b	5d		 pop	 ebp
  0095c	c3		 ret	 0
?DelAllSkillElement@TMonsterSkillElement@@SAHXZ ENDP	; TMonsterSkillElement::DelAllSkillElement
_TEXT	ENDS
PUBLIC	??_C@_0EB@EHFPHABL@?$FLMonster?5Element?$FN?5FindSkillEleme@ ; `string'
PUBLIC	?FindSkillElement@TMonsterSkillElement@@SAPAV1@H@Z ; TMonsterSkillElement::FindSkillElement
EXTRN	?LogAddTD@@3P6AXPADZZA:DWORD			; LogAddTD
;	COMDAT ??_C@_0EB@EHFPHABL@?$FLMonster?5Element?$FN?5FindSkillEleme@
CONST	SEGMENT
??_C@_0EB@EHFPHABL@?$FLMonster?5Element?$FN?5FindSkillEleme@ DB '[Monster'
	DB	' Element] FindSkillElement() Error - (ElementNumber=%d) ', 00H ; `string'
; Function compile flags: /Odtp /ZI
CONST	ENDS
_TEXT	SEGMENT
_iElementNumber$ = 8					; size = 4
?FindSkillElement@TMonsterSkillElement@@SAPAV1@H@Z PROC	; TMonsterSkillElement::FindSkillElement

; 191  : {

  00960	55		 push	 ebp
  00961	8b ec		 mov	 ebp, esp
  00963	83 ec 40	 sub	 esp, 64			; 00000040H
  00966	53		 push	 ebx
  00967	56		 push	 esi
  00968	57		 push	 edi

; 192  : 	if ( iElementNumber < 0 || iElementNumber >= MAX_MONSTER_SKILL_ELEMENT )

  00969	83 7d 08 00	 cmp	 DWORD PTR _iElementNumber$[ebp], 0
  0096d	7c 06		 jl	 SHORT $LN2@FindSkillE
  0096f	83 7d 08 64	 cmp	 DWORD PTR _iElementNumber$[ebp], 100 ; 00000064H
  00973	7c 16		 jl	 SHORT $LN3@FindSkillE
$LN2@FindSkillE:

; 193  : 	{
; 194  : 		LogAddTD("[Monster Element] FindSkillElement() Error - (ElementNumber=%d) ",
; 195  : 			iElementNumber);

  00975	8b 45 08	 mov	 eax, DWORD PTR _iElementNumber$[ebp]
  00978	50		 push	 eax
  00979	68 00 00 00 00	 push	 OFFSET ??_C@_0EB@EHFPHABL@?$FLMonster?5Element?$FN?5FindSkillEleme@
  0097e	ff 15 00 00 00
	00		 call	 DWORD PTR ?LogAddTD@@3P6AXPADZZA ; LogAddTD
  00984	83 c4 08	 add	 esp, 8

; 196  : 
; 197  : 		return NULL;

  00987	33 c0		 xor	 eax, eax
  00989	eb 32		 jmp	 SHORT $LN4@FindSkillE
$LN3@FindSkillE:

; 198  : 	}
; 199  : 
; 200  : 	if ( TMonsterSkillElement::s_MonsterSkillElementArray[iElementNumber].m_iElementNumber == iElementNumber )

  0098b	8b 45 08	 mov	 eax, DWORD PTR _iElementNumber$[ebp]
  0098e	6b c0 3c	 imul	 eax, 60			; 0000003cH
  00991	8b 88 18 00 00
	00		 mov	 ecx, DWORD PTR ?s_MonsterSkillElementArray@TMonsterSkillElement@@2PAV1@A[eax+24]
  00997	3b 4d 08	 cmp	 ecx, DWORD PTR _iElementNumber$[ebp]
  0099a	75 0d		 jne	 SHORT $LN1@FindSkillE

; 201  : 	{
; 202  : 		return &TMonsterSkillElement::s_MonsterSkillElementArray[iElementNumber];

  0099c	8b 45 08	 mov	 eax, DWORD PTR _iElementNumber$[ebp]
  0099f	6b c0 3c	 imul	 eax, 60			; 0000003cH
  009a2	05 00 00 00 00	 add	 eax, OFFSET ?s_MonsterSkillElementArray@TMonsterSkillElement@@2PAV1@A ; TMonsterSkillElement::s_MonsterSkillElementArray
  009a7	eb 14		 jmp	 SHORT $LN4@FindSkillE
$LN1@FindSkillE:

; 203  : 	}
; 204  : 
; 205  : 	LogAddTD("[Monster Element] FindSkillElement() Error - (ElementNumber=%d) ",
; 206  : 		iElementNumber);

  009a9	8b 45 08	 mov	 eax, DWORD PTR _iElementNumber$[ebp]
  009ac	50		 push	 eax
  009ad	68 00 00 00 00	 push	 OFFSET ??_C@_0EB@EHFPHABL@?$FLMonster?5Element?$FN?5FindSkillEleme@
  009b2	ff 15 00 00 00
	00		 call	 DWORD PTR ?LogAddTD@@3P6AXPADZZA ; LogAddTD
  009b8	83 c4 08	 add	 esp, 8

; 207  : 
; 208  : 	return  NULL;

  009bb	33 c0		 xor	 eax, eax
$LN4@FindSkillE:

; 209  : }

  009bd	5f		 pop	 edi
  009be	5e		 pop	 esi
  009bf	5b		 pop	 ebx
  009c0	8b e5		 mov	 esp, ebp
  009c2	5d		 pop	 ebp
  009c3	c3		 ret	 0
?FindSkillElement@TMonsterSkillElement@@SAPAV1@H@Z ENDP	; TMonsterSkillElement::FindSkillElement
_TEXT	ENDS
PUBLIC	?ApplyElementBerserk@TMonsterSkillElement@@QAEHHH@Z ; TMonsterSkillElement::ApplyElementBerserk
PUBLIC	?ApplyElementNormalAttack@TMonsterSkillElement@@QAEHHH@Z ; TMonsterSkillElement::ApplyElementNormalAttack
PUBLIC	?ApplyElementPoison@TMonsterSkillElement@@QAEHHH@Z ; TMonsterSkillElement::ApplyElementPoison
PUBLIC	?ApplyElementDoubleHP@TMonsterSkillElement@@QAEHHH@Z ; TMonsterSkillElement::ApplyElementDoubleHP
PUBLIC	?ApplyElementTeleportSkill@TMonsterSkillElement@@QAEHHH@Z ; TMonsterSkillElement::ApplyElementTeleportSkill
PUBLIC	?ApplyElementImmuneSkill@TMonsterSkillElement@@QAEHHH@Z ; TMonsterSkillElement::ApplyElementImmuneSkill
PUBLIC	?ApplyElementResistSkill@TMonsterSkillElement@@QAEHHH@Z ; TMonsterSkillElement::ApplyElementResistSkill
PUBLIC	?ApplyElementRemoveSkill@TMonsterSkillElement@@QAEHHH@Z ; TMonsterSkillElement::ApplyElementRemoveSkill
PUBLIC	?ApplyElementStatVitality@TMonsterSkillElement@@QAEHHH@Z ; TMonsterSkillElement::ApplyElementStatVitality
PUBLIC	?ApplyElementStatDexiterity@TMonsterSkillElement@@QAEHHH@Z ; TMonsterSkillElement::ApplyElementStatDexiterity
PUBLIC	?ApplyElementStatStrength@TMonsterSkillElement@@QAEHHH@Z ; TMonsterSkillElement::ApplyElementStatStrength
PUBLIC	?ApplyElementStatEnergy@TMonsterSkillElement@@QAEHHH@Z ; TMonsterSkillElement::ApplyElementStatEnergy
PUBLIC	?ApplyElementPush@TMonsterSkillElement@@QAEHHH@Z ; TMonsterSkillElement::ApplyElementPush
PUBLIC	?ApplyElementSummon@TMonsterSkillElement@@QAEHHH@Z ; TMonsterSkillElement::ApplyElementSummon
PUBLIC	?ApplyElementDurability@TMonsterSkillElement@@QAEHHH@Z ; TMonsterSkillElement::ApplyElementDurability
PUBLIC	?ApplyElementAttack@TMonsterSkillElement@@QAEHHH@Z ; TMonsterSkillElement::ApplyElementAttack
PUBLIC	?ApplyElementDefense@TMonsterSkillElement@@QAEHHH@Z ; TMonsterSkillElement::ApplyElementDefense
PUBLIC	?ApplyElementAG@TMonsterSkillElement@@QAEHHH@Z	; TMonsterSkillElement::ApplyElementAG
PUBLIC	?ApplyElementMP@TMonsterSkillElement@@QAEHHH@Z	; TMonsterSkillElement::ApplyElementMP
PUBLIC	?ApplyElementHP@TMonsterSkillElement@@QAEHHH@Z	; TMonsterSkillElement::ApplyElementHP
PUBLIC	?ApplyElementMove@TMonsterSkillElement@@QAEHHH@Z ; TMonsterSkillElement::ApplyElementMove
PUBLIC	?ApplyElementStun@TMonsterSkillElement@@QAEHHH@Z ; TMonsterSkillElement::ApplyElementStun
EXTRN	_rand:PROC
; Function compile flags: /Odtp /ZI
_TEXT	SEGMENT
tv69 = -72						; size = 4
_this$ = -4						; size = 4
_iIndex$ = 8						; size = 4
_iTargetIndex$ = 12					; size = 4
?ForceSkillElement@TMonsterSkillElement@@UAEXHH@Z PROC	; TMonsterSkillElement::ForceSkillElement
; _this$ = ecx

; 212  : {

  009d0	55		 push	 ebp
  009d1	8b ec		 mov	 ebp, esp
  009d3	83 ec 48	 sub	 esp, 72			; 00000048H
  009d6	53		 push	 ebx
  009d7	56		 push	 esi
  009d8	57		 push	 edi
  009d9	89 4d fc	 mov	 DWORD PTR _this$[ebp], ecx

; 213  : 	if ( (rand()%100) > this->m_iSuccessRate )

  009dc	e8 00 00 00 00	 call	 _rand
  009e1	99		 cdq
  009e2	b9 64 00 00 00	 mov	 ecx, 100		; 00000064H
  009e7	f7 f9		 idiv	 ecx
  009e9	8b 45 fc	 mov	 eax, DWORD PTR _this$[ebp]
  009ec	3b 50 20	 cmp	 edx, DWORD PTR [eax+32]
  009ef	7e 05		 jle	 SHORT $LN25@ForceSkill

; 214  : 		return;

  009f1	e9 d1 01 00 00	 jmp	 $LN26@ForceSkill
$LN25@ForceSkill:

; 215  : 
; 216  : 	switch ( this->m_iElementType )

  009f6	8b 45 fc	 mov	 eax, DWORD PTR _this$[ebp]
  009f9	8b 48 1c	 mov	 ecx, DWORD PTR [eax+28]
  009fc	89 4d b8	 mov	 DWORD PTR tv69[ebp], ecx
  009ff	83 7d b8 15	 cmp	 DWORD PTR tv69[ebp], 21	; 00000015H
  00a03	0f 87 be 01 00
	00		 ja	 $LN26@ForceSkill
  00a09	8b 55 b8	 mov	 edx, DWORD PTR tv69[ebp]
  00a0c	ff 24 95 00 00
	00 00		 jmp	 DWORD PTR $LN28@ForceSkill[edx*4]
$LN22@ForceSkill:

; 217  : 	{
; 218  : 		case MSE_TYPE_STUN:
; 219  : 			this->ApplyElementStun(iIndex, iTargetIndex);

  00a13	8b 45 0c	 mov	 eax, DWORD PTR _iTargetIndex$[ebp]
  00a16	50		 push	 eax
  00a17	8b 4d 08	 mov	 ecx, DWORD PTR _iIndex$[ebp]
  00a1a	51		 push	 ecx
  00a1b	8b 4d fc	 mov	 ecx, DWORD PTR _this$[ebp]
  00a1e	e8 00 00 00 00	 call	 ?ApplyElementStun@TMonsterSkillElement@@QAEHHH@Z ; TMonsterSkillElement::ApplyElementStun

; 220  : 			break;

  00a23	e9 9f 01 00 00	 jmp	 $LN26@ForceSkill
$LN21@ForceSkill:

; 221  : 		case MSE_TYPE_MOVE:
; 222  : 			this->ApplyElementMove(iIndex, iTargetIndex);

  00a28	8b 45 0c	 mov	 eax, DWORD PTR _iTargetIndex$[ebp]
  00a2b	50		 push	 eax
  00a2c	8b 4d 08	 mov	 ecx, DWORD PTR _iIndex$[ebp]
  00a2f	51		 push	 ecx
  00a30	8b 4d fc	 mov	 ecx, DWORD PTR _this$[ebp]
  00a33	e8 00 00 00 00	 call	 ?ApplyElementMove@TMonsterSkillElement@@QAEHHH@Z ; TMonsterSkillElement::ApplyElementMove

; 223  : 			break;

  00a38	e9 8a 01 00 00	 jmp	 $LN26@ForceSkill
$LN20@ForceSkill:

; 224  : 		case MSE_TYPE_HP:
; 225  : 			this->ApplyElementHP(iIndex, iTargetIndex);

  00a3d	8b 45 0c	 mov	 eax, DWORD PTR _iTargetIndex$[ebp]
  00a40	50		 push	 eax
  00a41	8b 4d 08	 mov	 ecx, DWORD PTR _iIndex$[ebp]
  00a44	51		 push	 ecx
  00a45	8b 4d fc	 mov	 ecx, DWORD PTR _this$[ebp]
  00a48	e8 00 00 00 00	 call	 ?ApplyElementHP@TMonsterSkillElement@@QAEHHH@Z ; TMonsterSkillElement::ApplyElementHP

; 226  : 			break;

  00a4d	e9 75 01 00 00	 jmp	 $LN26@ForceSkill
$LN19@ForceSkill:

; 227  : 		case MSE_TYPE_MP:
; 228  : 			this->ApplyElementMP(iIndex, iTargetIndex);

  00a52	8b 45 0c	 mov	 eax, DWORD PTR _iTargetIndex$[ebp]
  00a55	50		 push	 eax
  00a56	8b 4d 08	 mov	 ecx, DWORD PTR _iIndex$[ebp]
  00a59	51		 push	 ecx
  00a5a	8b 4d fc	 mov	 ecx, DWORD PTR _this$[ebp]
  00a5d	e8 00 00 00 00	 call	 ?ApplyElementMP@TMonsterSkillElement@@QAEHHH@Z ; TMonsterSkillElement::ApplyElementMP

; 229  : 			break;

  00a62	e9 60 01 00 00	 jmp	 $LN26@ForceSkill
$LN18@ForceSkill:

; 230  : 		case MSE_TYPE_AG:
; 231  : 			this->ApplyElementAG(iIndex, iTargetIndex);

  00a67	8b 45 0c	 mov	 eax, DWORD PTR _iTargetIndex$[ebp]
  00a6a	50		 push	 eax
  00a6b	8b 4d 08	 mov	 ecx, DWORD PTR _iIndex$[ebp]
  00a6e	51		 push	 ecx
  00a6f	8b 4d fc	 mov	 ecx, DWORD PTR _this$[ebp]
  00a72	e8 00 00 00 00	 call	 ?ApplyElementAG@TMonsterSkillElement@@QAEHHH@Z ; TMonsterSkillElement::ApplyElementAG

; 232  : 			break;

  00a77	e9 4b 01 00 00	 jmp	 $LN26@ForceSkill
$LN17@ForceSkill:

; 233  : 		case MSE_TYPE_DEFENSE:
; 234  : 			this->ApplyElementDefense(iIndex, iTargetIndex);

  00a7c	8b 45 0c	 mov	 eax, DWORD PTR _iTargetIndex$[ebp]
  00a7f	50		 push	 eax
  00a80	8b 4d 08	 mov	 ecx, DWORD PTR _iIndex$[ebp]
  00a83	51		 push	 ecx
  00a84	8b 4d fc	 mov	 ecx, DWORD PTR _this$[ebp]
  00a87	e8 00 00 00 00	 call	 ?ApplyElementDefense@TMonsterSkillElement@@QAEHHH@Z ; TMonsterSkillElement::ApplyElementDefense

; 235  : 			break;

  00a8c	e9 36 01 00 00	 jmp	 $LN26@ForceSkill
$LN16@ForceSkill:

; 236  : 		case MSE_TYPE_ATTACK:
; 237  : 			this->ApplyElementAttack(iIndex, iTargetIndex);

  00a91	8b 45 0c	 mov	 eax, DWORD PTR _iTargetIndex$[ebp]
  00a94	50		 push	 eax
  00a95	8b 4d 08	 mov	 ecx, DWORD PTR _iIndex$[ebp]
  00a98	51		 push	 ecx
  00a99	8b 4d fc	 mov	 ecx, DWORD PTR _this$[ebp]
  00a9c	e8 00 00 00 00	 call	 ?ApplyElementAttack@TMonsterSkillElement@@QAEHHH@Z ; TMonsterSkillElement::ApplyElementAttack

; 238  : 			break;

  00aa1	e9 21 01 00 00	 jmp	 $LN26@ForceSkill
$LN15@ForceSkill:

; 239  : 		case MSE_TYPE_DURABILITY:
; 240  : 			this->ApplyElementDurability(iIndex, iTargetIndex);

  00aa6	8b 45 0c	 mov	 eax, DWORD PTR _iTargetIndex$[ebp]
  00aa9	50		 push	 eax
  00aaa	8b 4d 08	 mov	 ecx, DWORD PTR _iIndex$[ebp]
  00aad	51		 push	 ecx
  00aae	8b 4d fc	 mov	 ecx, DWORD PTR _this$[ebp]
  00ab1	e8 00 00 00 00	 call	 ?ApplyElementDurability@TMonsterSkillElement@@QAEHHH@Z ; TMonsterSkillElement::ApplyElementDurability

; 241  : 			break;

  00ab6	e9 0c 01 00 00	 jmp	 $LN26@ForceSkill
$LN14@ForceSkill:

; 242  : 		case MSE_TYPE_SUMMON:
; 243  : 			this->ApplyElementSummon(iIndex, iTargetIndex);

  00abb	8b 45 0c	 mov	 eax, DWORD PTR _iTargetIndex$[ebp]
  00abe	50		 push	 eax
  00abf	8b 4d 08	 mov	 ecx, DWORD PTR _iIndex$[ebp]
  00ac2	51		 push	 ecx
  00ac3	8b 4d fc	 mov	 ecx, DWORD PTR _this$[ebp]
  00ac6	e8 00 00 00 00	 call	 ?ApplyElementSummon@TMonsterSkillElement@@QAEHHH@Z ; TMonsterSkillElement::ApplyElementSummon

; 244  : 			break;

  00acb	e9 f7 00 00 00	 jmp	 $LN26@ForceSkill
$LN13@ForceSkill:

; 245  : 		case MSE_TYPE_PUSH:
; 246  : 			this->ApplyElementPush(iIndex, iTargetIndex);

  00ad0	8b 45 0c	 mov	 eax, DWORD PTR _iTargetIndex$[ebp]
  00ad3	50		 push	 eax
  00ad4	8b 4d 08	 mov	 ecx, DWORD PTR _iIndex$[ebp]
  00ad7	51		 push	 ecx
  00ad8	8b 4d fc	 mov	 ecx, DWORD PTR _this$[ebp]
  00adb	e8 00 00 00 00	 call	 ?ApplyElementPush@TMonsterSkillElement@@QAEHHH@Z ; TMonsterSkillElement::ApplyElementPush

; 247  : 			break;

  00ae0	e9 e2 00 00 00	 jmp	 $LN26@ForceSkill
$LN12@ForceSkill:

; 248  : 		case MSE_TYPE_STAT_ENERGY:
; 249  : 			this->ApplyElementStatEnergy(iIndex, iTargetIndex);

  00ae5	8b 45 0c	 mov	 eax, DWORD PTR _iTargetIndex$[ebp]
  00ae8	50		 push	 eax
  00ae9	8b 4d 08	 mov	 ecx, DWORD PTR _iIndex$[ebp]
  00aec	51		 push	 ecx
  00aed	8b 4d fc	 mov	 ecx, DWORD PTR _this$[ebp]
  00af0	e8 00 00 00 00	 call	 ?ApplyElementStatEnergy@TMonsterSkillElement@@QAEHHH@Z ; TMonsterSkillElement::ApplyElementStatEnergy

; 250  : 			break;

  00af5	e9 cd 00 00 00	 jmp	 $LN26@ForceSkill
$LN11@ForceSkill:

; 251  : 		case MSE_TYPE_STAT_STRENGTH:
; 252  : 			this->ApplyElementStatStrength(iIndex, iTargetIndex);

  00afa	8b 45 0c	 mov	 eax, DWORD PTR _iTargetIndex$[ebp]
  00afd	50		 push	 eax
  00afe	8b 4d 08	 mov	 ecx, DWORD PTR _iIndex$[ebp]
  00b01	51		 push	 ecx
  00b02	8b 4d fc	 mov	 ecx, DWORD PTR _this$[ebp]
  00b05	e8 00 00 00 00	 call	 ?ApplyElementStatStrength@TMonsterSkillElement@@QAEHHH@Z ; TMonsterSkillElement::ApplyElementStatStrength

; 253  : 			break;

  00b0a	e9 b8 00 00 00	 jmp	 $LN26@ForceSkill
$LN10@ForceSkill:

; 254  : 		case MSE_TYPE_STAT_DEXITERITY:
; 255  : 			this->ApplyElementStatDexiterity(iIndex, iTargetIndex);

  00b0f	8b 45 0c	 mov	 eax, DWORD PTR _iTargetIndex$[ebp]
  00b12	50		 push	 eax
  00b13	8b 4d 08	 mov	 ecx, DWORD PTR _iIndex$[ebp]
  00b16	51		 push	 ecx
  00b17	8b 4d fc	 mov	 ecx, DWORD PTR _this$[ebp]
  00b1a	e8 00 00 00 00	 call	 ?ApplyElementStatDexiterity@TMonsterSkillElement@@QAEHHH@Z ; TMonsterSkillElement::ApplyElementStatDexiterity

; 256  : 			break;

  00b1f	e9 a3 00 00 00	 jmp	 $LN26@ForceSkill
$LN9@ForceSkill:

; 257  : 		case MSE_TYPE_STAT_VITALITY:
; 258  : 			this->ApplyElementStatVitality(iIndex, iTargetIndex);

  00b24	8b 45 0c	 mov	 eax, DWORD PTR _iTargetIndex$[ebp]
  00b27	50		 push	 eax
  00b28	8b 4d 08	 mov	 ecx, DWORD PTR _iIndex$[ebp]
  00b2b	51		 push	 ecx
  00b2c	8b 4d fc	 mov	 ecx, DWORD PTR _this$[ebp]
  00b2f	e8 00 00 00 00	 call	 ?ApplyElementStatVitality@TMonsterSkillElement@@QAEHHH@Z ; TMonsterSkillElement::ApplyElementStatVitality

; 259  : 			break;

  00b34	e9 8e 00 00 00	 jmp	 $LN26@ForceSkill
$LN8@ForceSkill:

; 260  : 		case MSE_TYPE_REMOVE_SKILL:
; 261  : 			this->ApplyElementRemoveSkill(iIndex, iTargetIndex);

  00b39	8b 45 0c	 mov	 eax, DWORD PTR _iTargetIndex$[ebp]
  00b3c	50		 push	 eax
  00b3d	8b 4d 08	 mov	 ecx, DWORD PTR _iIndex$[ebp]
  00b40	51		 push	 ecx
  00b41	8b 4d fc	 mov	 ecx, DWORD PTR _this$[ebp]
  00b44	e8 00 00 00 00	 call	 ?ApplyElementRemoveSkill@TMonsterSkillElement@@QAEHHH@Z ; TMonsterSkillElement::ApplyElementRemoveSkill

; 262  : 			break;

  00b49	eb 7c		 jmp	 SHORT $LN26@ForceSkill
$LN7@ForceSkill:

; 263  : 		case MSE_TYPE_RESIST_SKILL:
; 264  : 			this->ApplyElementResistSkill(iIndex, iTargetIndex);

  00b4b	8b 45 0c	 mov	 eax, DWORD PTR _iTargetIndex$[ebp]
  00b4e	50		 push	 eax
  00b4f	8b 4d 08	 mov	 ecx, DWORD PTR _iIndex$[ebp]
  00b52	51		 push	 ecx
  00b53	8b 4d fc	 mov	 ecx, DWORD PTR _this$[ebp]
  00b56	e8 00 00 00 00	 call	 ?ApplyElementResistSkill@TMonsterSkillElement@@QAEHHH@Z ; TMonsterSkillElement::ApplyElementResistSkill

; 265  : 			break;

  00b5b	eb 6a		 jmp	 SHORT $LN26@ForceSkill
$LN6@ForceSkill:

; 266  : 		case MSE_TYPE_IMMUNE_SKILL:
; 267  : 			this->ApplyElementImmuneSkill(iIndex, iTargetIndex);

  00b5d	8b 45 0c	 mov	 eax, DWORD PTR _iTargetIndex$[ebp]
  00b60	50		 push	 eax
  00b61	8b 4d 08	 mov	 ecx, DWORD PTR _iIndex$[ebp]
  00b64	51		 push	 ecx
  00b65	8b 4d fc	 mov	 ecx, DWORD PTR _this$[ebp]
  00b68	e8 00 00 00 00	 call	 ?ApplyElementImmuneSkill@TMonsterSkillElement@@QAEHHH@Z ; TMonsterSkillElement::ApplyElementImmuneSkill

; 268  : 			break;

  00b6d	eb 58		 jmp	 SHORT $LN26@ForceSkill
$LN5@ForceSkill:

; 269  : 		case MSE_TYPE_TELEPORT_SKILL:
; 270  : 			this->ApplyElementTeleportSkill(iIndex, iTargetIndex);

  00b6f	8b 45 0c	 mov	 eax, DWORD PTR _iTargetIndex$[ebp]
  00b72	50		 push	 eax
  00b73	8b 4d 08	 mov	 ecx, DWORD PTR _iIndex$[ebp]
  00b76	51		 push	 ecx
  00b77	8b 4d fc	 mov	 ecx, DWORD PTR _this$[ebp]
  00b7a	e8 00 00 00 00	 call	 ?ApplyElementTeleportSkill@TMonsterSkillElement@@QAEHHH@Z ; TMonsterSkillElement::ApplyElementTeleportSkill

; 271  : 			break;

  00b7f	eb 46		 jmp	 SHORT $LN26@ForceSkill
$LN4@ForceSkill:

; 272  : 		case MSE_TYPE_DOUBLE_HP:
; 273  : 			this->ApplyElementDoubleHP(iIndex, iTargetIndex);

  00b81	8b 45 0c	 mov	 eax, DWORD PTR _iTargetIndex$[ebp]
  00b84	50		 push	 eax
  00b85	8b 4d 08	 mov	 ecx, DWORD PTR _iIndex$[ebp]
  00b88	51		 push	 ecx
  00b89	8b 4d fc	 mov	 ecx, DWORD PTR _this$[ebp]
  00b8c	e8 00 00 00 00	 call	 ?ApplyElementDoubleHP@TMonsterSkillElement@@QAEHHH@Z ; TMonsterSkillElement::ApplyElementDoubleHP

; 274  : 			break;

  00b91	eb 34		 jmp	 SHORT $LN26@ForceSkill
$LN3@ForceSkill:

; 275  : 		case MSE_TYPE_POISON:
; 276  : 			this->ApplyElementPoison(iIndex, iTargetIndex);

  00b93	8b 45 0c	 mov	 eax, DWORD PTR _iTargetIndex$[ebp]
  00b96	50		 push	 eax
  00b97	8b 4d 08	 mov	 ecx, DWORD PTR _iIndex$[ebp]
  00b9a	51		 push	 ecx
  00b9b	8b 4d fc	 mov	 ecx, DWORD PTR _this$[ebp]
  00b9e	e8 00 00 00 00	 call	 ?ApplyElementPoison@TMonsterSkillElement@@QAEHHH@Z ; TMonsterSkillElement::ApplyElementPoison

; 277  : 			break;

  00ba3	eb 22		 jmp	 SHORT $LN26@ForceSkill
$LN2@ForceSkill:

; 278  : 		case MSE_TYPE_NORMALATTACK:
; 279  : 			this->ApplyElementNormalAttack(iIndex, iTargetIndex);

  00ba5	8b 45 0c	 mov	 eax, DWORD PTR _iTargetIndex$[ebp]
  00ba8	50		 push	 eax
  00ba9	8b 4d 08	 mov	 ecx, DWORD PTR _iIndex$[ebp]
  00bac	51		 push	 ecx
  00bad	8b 4d fc	 mov	 ecx, DWORD PTR _this$[ebp]
  00bb0	e8 00 00 00 00	 call	 ?ApplyElementNormalAttack@TMonsterSkillElement@@QAEHHH@Z ; TMonsterSkillElement::ApplyElementNormalAttack

; 280  : 			break;

  00bb5	eb 10		 jmp	 SHORT $LN26@ForceSkill
$LN1@ForceSkill:

; 281  : 		case MSE_TYPE_BERSERK://Season 4.5 addon
; 282  : 			this->ApplyElementBerserk(iIndex, iTargetIndex);//Season 4.5 addon

  00bb7	8b 45 0c	 mov	 eax, DWORD PTR _iTargetIndex$[ebp]
  00bba	50		 push	 eax
  00bbb	8b 4d 08	 mov	 ecx, DWORD PTR _iIndex$[ebp]
  00bbe	51		 push	 ecx
  00bbf	8b 4d fc	 mov	 ecx, DWORD PTR _this$[ebp]
  00bc2	e8 00 00 00 00	 call	 ?ApplyElementBerserk@TMonsterSkillElement@@QAEHHH@Z ; TMonsterSkillElement::ApplyElementBerserk
$LN26@ForceSkill:

; 283  : 			break;
; 284  : 	}
; 285  : }

  00bc7	5f		 pop	 edi
  00bc8	5e		 pop	 esi
  00bc9	5b		 pop	 ebx
  00bca	8b e5		 mov	 esp, ebp
  00bcc	5d		 pop	 ebp
  00bcd	c2 08 00	 ret	 8
$LN28@ForceSkill:
  00bd0	00 00 00 00	 DD	 $LN22@ForceSkill
  00bd4	00 00 00 00	 DD	 $LN21@ForceSkill
  00bd8	00 00 00 00	 DD	 $LN20@ForceSkill
  00bdc	00 00 00 00	 DD	 $LN19@ForceSkill
  00be0	00 00 00 00	 DD	 $LN18@ForceSkill
  00be4	00 00 00 00	 DD	 $LN17@ForceSkill
  00be8	00 00 00 00	 DD	 $LN16@ForceSkill
  00bec	00 00 00 00	 DD	 $LN15@ForceSkill
  00bf0	00 00 00 00	 DD	 $LN14@ForceSkill
  00bf4	00 00 00 00	 DD	 $LN13@ForceSkill
  00bf8	00 00 00 00	 DD	 $LN12@ForceSkill
  00bfc	00 00 00 00	 DD	 $LN11@ForceSkill
  00c00	00 00 00 00	 DD	 $LN10@ForceSkill
  00c04	00 00 00 00	 DD	 $LN9@ForceSkill
  00c08	00 00 00 00	 DD	 $LN8@ForceSkill
  00c0c	00 00 00 00	 DD	 $LN7@ForceSkill
  00c10	00 00 00 00	 DD	 $LN6@ForceSkill
  00c14	00 00 00 00	 DD	 $LN5@ForceSkill
  00c18	00 00 00 00	 DD	 $LN4@ForceSkill
  00c1c	00 00 00 00	 DD	 $LN3@ForceSkill
  00c20	00 00 00 00	 DD	 $LN2@ForceSkill
  00c24	00 00 00 00	 DD	 $LN1@ForceSkill
?ForceSkillElement@TMonsterSkillElement@@UAEXHH@Z ENDP	; TMonsterSkillElement::ForceSkillElement
_TEXT	ENDS
EXTRN	?gObjSetPosition@@YAXHHH@Z:PROC			; gObjSetPosition
EXTRN	?gObjApplyBuffEffectDuration@@YAEPAUOBJECTSTRUCT@@HEHEHH@Z:PROC ; gObjApplyBuffEffectDuration
EXTRN	?gObj@@3PAUOBJECTSTRUCT@@A:DWORD		; gObj
; Function compile flags: /Odtp /ZI
_TEXT	SEGMENT
_SkillStunTime$ = -16					; size = 4
_lpTargetObj$ = -12					; size = 4
_lpObj$ = -8						; size = 4
_this$ = -4						; size = 4
_iIndex$ = 8						; size = 4
_iTargetIndex$ = 12					; size = 4
?ApplyElementStun@TMonsterSkillElement@@QAEHHH@Z PROC	; TMonsterSkillElement::ApplyElementStun
; _this$ = ecx

; 288  : {

  00c30	55		 push	 ebp
  00c31	8b ec		 mov	 ebp, esp
  00c33	83 ec 50	 sub	 esp, 80			; 00000050H
  00c36	53		 push	 ebx
  00c37	56		 push	 esi
  00c38	57		 push	 edi
  00c39	89 4d fc	 mov	 DWORD PTR _this$[ebp], ecx

; 289  : 	LPOBJ lpObj = &gObj[iIndex];

  00c3c	8b 45 08	 mov	 eax, DWORD PTR _iIndex$[ebp]
  00c3f	69 c0 38 2b 00
	00		 imul	 eax, 11064		; 00002b38H
  00c45	03 05 00 00 00
	00		 add	 eax, DWORD PTR ?gObj@@3PAUOBJECTSTRUCT@@A ; gObj
  00c4b	89 45 f8	 mov	 DWORD PTR _lpObj$[ebp], eax

; 290  : 	LPOBJ lpTargetObj = &gObj[iTargetIndex];

  00c4e	8b 45 0c	 mov	 eax, DWORD PTR _iTargetIndex$[ebp]
  00c51	69 c0 38 2b 00
	00		 imul	 eax, 11064		; 00002b38H
  00c57	03 05 00 00 00
	00		 add	 eax, DWORD PTR ?gObj@@3PAUOBJECTSTRUCT@@A ; gObj
  00c5d	89 45 f4	 mov	 DWORD PTR _lpTargetObj$[ebp], eax

; 291  : 
; 292  : 	int SkillStunTime = 0;

  00c60	c7 45 f0 00 00
	00 00		 mov	 DWORD PTR _SkillStunTime$[ebp], 0

; 293  : 
; 294  : 	if(this->m_iContinuanceTime == -1)

  00c67	8b 45 fc	 mov	 eax, DWORD PTR _this$[ebp]
  00c6a	83 78 24 ff	 cmp	 DWORD PTR [eax+36], -1
  00c6e	75 09		 jne	 SHORT $LN2@ApplyEleme

; 295  : 	{
; 296  : 		SkillStunTime = -10;

  00c70	c7 45 f0 f6 ff
	ff ff		 mov	 DWORD PTR _SkillStunTime$[ebp], -10 ; fffffff6H

; 297  : 	}
; 298  : 	else

  00c77	eb 09		 jmp	 SHORT $LN1@ApplyEleme
$LN2@ApplyEleme:

; 299  : 	{
; 300  : 		SkillStunTime = this->m_iContinuanceTime;//  Season 4.5 fix

  00c79	8b 45 fc	 mov	 eax, DWORD PTR _this$[ebp]
  00c7c	8b 48 24	 mov	 ecx, DWORD PTR [eax+36]
  00c7f	89 4d f0	 mov	 DWORD PTR _SkillStunTime$[ebp], ecx
$LN1@ApplyEleme:

; 301  : 	}
; 302  : 
; 303  : 	gObjApplyBuffEffectDuration(lpTargetObj, AT_STUN, 0, 0, 0, 0, SkillStunTime);

  00c82	8b 45 f0	 mov	 eax, DWORD PTR _SkillStunTime$[ebp]
  00c85	50		 push	 eax
  00c86	6a 00		 push	 0
  00c88	6a 00		 push	 0
  00c8a	6a 00		 push	 0
  00c8c	6a 00		 push	 0
  00c8e	6a 3d		 push	 61			; 0000003dH
  00c90	8b 4d f4	 mov	 ecx, DWORD PTR _lpTargetObj$[ebp]
  00c93	51		 push	 ecx
  00c94	e8 00 00 00 00	 call	 ?gObjApplyBuffEffectDuration@@YAEPAUOBJECTSTRUCT@@HEHEHH@Z ; gObjApplyBuffEffectDuration
  00c99	83 c4 1c	 add	 esp, 28			; 0000001cH

; 304  : 
; 305  : 	gObjSetPosition(iTargetIndex, lpTargetObj->X, lpTargetObj->Y);

  00c9c	8b 45 f4	 mov	 eax, DWORD PTR _lpTargetObj$[ebp]
  00c9f	0f bf 88 46 01
	00 00		 movsx	 ecx, WORD PTR [eax+326]
  00ca6	51		 push	 ecx
  00ca7	8b 55 f4	 mov	 edx, DWORD PTR _lpTargetObj$[ebp]
  00caa	0f bf 82 44 01
	00 00		 movsx	 eax, WORD PTR [edx+324]
  00cb1	50		 push	 eax
  00cb2	8b 4d 0c	 mov	 ecx, DWORD PTR _iTargetIndex$[ebp]
  00cb5	51		 push	 ecx
  00cb6	e8 00 00 00 00	 call	 ?gObjSetPosition@@YAXHHH@Z ; gObjSetPosition
  00cbb	83 c4 0c	 add	 esp, 12			; 0000000cH

; 306  : 
; 307  : 	return FALSE;

  00cbe	33 c0		 xor	 eax, eax

; 308  : }

  00cc0	5f		 pop	 edi
  00cc1	5e		 pop	 esi
  00cc2	5b		 pop	 ebx
  00cc3	8b e5		 mov	 esp, ebp
  00cc5	5d		 pop	 ebp
  00cc6	c2 08 00	 ret	 8
?ApplyElementStun@TMonsterSkillElement@@QAEHHH@Z ENDP	; TMonsterSkillElement::ApplyElementStun
; Function compile flags: /Odtp /ZI
_lpTargetObj$ = -12					; size = 4
_lpObj$ = -8						; size = 4
_this$ = -4						; size = 4
_iIndex$ = 8						; size = 4
_iTargetIndex$ = 12					; size = 4
?ApplyElementMove@TMonsterSkillElement@@QAEHHH@Z PROC	; TMonsterSkillElement::ApplyElementMove
; _this$ = ecx

; 311  : {

  00cd0	55		 push	 ebp
  00cd1	8b ec		 mov	 ebp, esp
  00cd3	83 ec 4c	 sub	 esp, 76			; 0000004cH
  00cd6	53		 push	 ebx
  00cd7	56		 push	 esi
  00cd8	57		 push	 edi
  00cd9	89 4d fc	 mov	 DWORD PTR _this$[ebp], ecx

; 312  : 	LPOBJ lpObj = &gObj[iIndex];

  00cdc	8b 45 08	 mov	 eax, DWORD PTR _iIndex$[ebp]
  00cdf	69 c0 38 2b 00
	00		 imul	 eax, 11064		; 00002b38H
  00ce5	03 05 00 00 00
	00		 add	 eax, DWORD PTR ?gObj@@3PAUOBJECTSTRUCT@@A ; gObj
  00ceb	89 45 f8	 mov	 DWORD PTR _lpObj$[ebp], eax

; 313  : 	LPOBJ lpTargetObj = &gObj[iTargetIndex];

  00cee	8b 45 0c	 mov	 eax, DWORD PTR _iTargetIndex$[ebp]
  00cf1	69 c0 38 2b 00
	00		 imul	 eax, 11064		; 00002b38H
  00cf7	03 05 00 00 00
	00		 add	 eax, DWORD PTR ?gObj@@3PAUOBJECTSTRUCT@@A ; gObj
  00cfd	89 45 f4	 mov	 DWORD PTR _lpTargetObj$[ebp], eax

; 314  : 
; 315  : 	return FALSE;

  00d00	33 c0		 xor	 eax, eax

; 316  : }

  00d02	5f		 pop	 edi
  00d03	5e		 pop	 esi
  00d04	5b		 pop	 ebx
  00d05	8b e5		 mov	 esp, ebp
  00d07	5d		 pop	 ebp
  00d08	c2 08 00	 ret	 8
?ApplyElementMove@TMonsterSkillElement@@QAEHHH@Z ENDP	; TMonsterSkillElement::ApplyElementMove
_TEXT	ENDS
PUBLIC	__real@00000000
PUBLIC	__real@0000000000000000
PUBLIC	__real@4059000000000000
EXTRN	?GCReFillSend@@YAXHHEEH@Z:PROC			; GCReFillSend
;	COMDAT __real@00000000
CONST	SEGMENT
__real@00000000 DD 000000000r			; 0
CONST	ENDS
;	COMDAT __real@0000000000000000
CONST	SEGMENT
__real@0000000000000000 DQ 00000000000000000r	; 0
CONST	ENDS
;	COMDAT __real@4059000000000000
CONST	SEGMENT
__real@4059000000000000 DQ 04059000000000000r	; 100
; Function compile flags: /Odtp /ZI
CONST	ENDS
_TEXT	SEGMENT
_iIncDecValue$ = -16					; size = 4
_lpTargetObj$ = -12					; size = 4
_lpObj$ = -8						; size = 4
_this$ = -4						; size = 4
_iIndex$ = 8						; size = 4
_iTargetIndex$ = 12					; size = 4
?ApplyElementHP@TMonsterSkillElement@@QAEHHH@Z PROC	; TMonsterSkillElement::ApplyElementHP
; _this$ = ecx

; 319  : {

  00d10	55		 push	 ebp
  00d11	8b ec		 mov	 ebp, esp
  00d13	83 ec 50	 sub	 esp, 80			; 00000050H
  00d16	53		 push	 ebx
  00d17	56		 push	 esi
  00d18	57		 push	 edi
  00d19	89 4d fc	 mov	 DWORD PTR _this$[ebp], ecx

; 320  : 	LPOBJ lpObj = &gObj[iIndex];

  00d1c	8b 45 08	 mov	 eax, DWORD PTR _iIndex$[ebp]
  00d1f	69 c0 38 2b 00
	00		 imul	 eax, 11064		; 00002b38H
  00d25	03 05 00 00 00
	00		 add	 eax, DWORD PTR ?gObj@@3PAUOBJECTSTRUCT@@A ; gObj
  00d2b	89 45 f8	 mov	 DWORD PTR _lpObj$[ebp], eax

; 321  : 	LPOBJ lpTargetObj = &gObj[iTargetIndex];

  00d2e	8b 45 0c	 mov	 eax, DWORD PTR _iTargetIndex$[ebp]
  00d31	69 c0 38 2b 00
	00		 imul	 eax, 11064		; 00002b38H
  00d37	03 05 00 00 00
	00		 add	 eax, DWORD PTR ?gObj@@3PAUOBJECTSTRUCT@@A ; gObj
  00d3d	89 45 f4	 mov	 DWORD PTR _lpTargetObj$[ebp], eax

; 322  : 	int iIncDecValue = 0;

  00d40	c7 45 f0 00 00
	00 00		 mov	 DWORD PTR _iIncDecValue$[ebp], 0

; 323  : 
; 324  : 	if ( this->m_iIncAndDecType != MSE_INCDEC_TYPE_NONE )

  00d47	8b 45 fc	 mov	 eax, DWORD PTR _this$[ebp]
  00d4a	83 78 28 00	 cmp	 DWORD PTR [eax+40], 0
  00d4e	0f 84 ef 00 00
	00		 je	 $LN3@ApplyEleme@2

; 325  : 	{
; 326  : 		if ( this->m_iIncAndDecType == MSE_INCDEC_TYPE_PERCENTINC ||
; 327  : 			 this->m_iIncAndDecType == MSE_INCDEC_TYPE_PERCENTDEC ||
; 328  : 			 this->m_iIncAndDecType == MSE_INCDEC_TYPE_CYCLE_PERCENTINC ||
; 329  : 			 this->m_iIncAndDecType == MSE_INCDEC_TYPE_CYCLE_PERCENTDEC )

  00d54	8b 45 fc	 mov	 eax, DWORD PTR _this$[ebp]
  00d57	83 78 28 01	 cmp	 DWORD PTR [eax+40], 1
  00d5b	74 1b		 je	 SHORT $LN11@ApplyEleme@2
  00d5d	8b 45 fc	 mov	 eax, DWORD PTR _this$[ebp]
  00d60	83 78 28 02	 cmp	 DWORD PTR [eax+40], 2
  00d64	74 12		 je	 SHORT $LN11@ApplyEleme@2
  00d66	8b 45 fc	 mov	 eax, DWORD PTR _this$[ebp]
  00d69	83 78 28 65	 cmp	 DWORD PTR [eax+40], 101	; 00000065H
  00d6d	74 09		 je	 SHORT $LN11@ApplyEleme@2
  00d6f	8b 45 fc	 mov	 eax, DWORD PTR _this$[ebp]
  00d72	83 78 28 66	 cmp	 DWORD PTR [eax+40], 102	; 00000066H
  00d76	75 2e		 jne	 SHORT $LN10@ApplyEleme@2
$LN11@ApplyEleme@2:

; 330  : 		{
; 331  : 			iIncDecValue = (int)((((float)(lpTargetObj->Life) * (float)(this->m_iIncAndDecValue)))/100.0f);

  00d78	8b 45 f4	 mov	 eax, DWORD PTR _lpTargetObj$[ebp]
  00d7b	d9 80 fc 00 00
	00		 fld	 DWORD PTR [eax+252]
  00d81	8b 4d fc	 mov	 ecx, DWORD PTR _this$[ebp]
  00d84	da 49 2c	 fimul	 DWORD PTR [ecx+44]
  00d87	dc 35 00 00 00
	00		 fdiv	 QWORD PTR __real@4059000000000000
  00d8d	e8 00 00 00 00	 call	 __ftol2_sse
  00d92	89 45 f0	 mov	 DWORD PTR _iIncDecValue$[ebp], eax

; 332  : 
; 333  : 			if ( this->m_iIncAndDecType == MSE_INCDEC_TYPE_PERCENTDEC )

  00d95	8b 45 fc	 mov	 eax, DWORD PTR _this$[ebp]
  00d98	83 78 28 02	 cmp	 DWORD PTR [eax+40], 2
  00d9c	75 08		 jne	 SHORT $LN10@ApplyEleme@2

; 334  : 				iIncDecValue = -iIncDecValue;

  00d9e	8b 45 f0	 mov	 eax, DWORD PTR _iIncDecValue$[ebp]
  00da1	f7 d8		 neg	 eax
  00da3	89 45 f0	 mov	 DWORD PTR _iIncDecValue$[ebp], eax
$LN10@ApplyEleme@2:

; 335  : 		}
; 336  : 
; 337  : 		if ( this->m_iIncAndDecType == MSE_INCDEC_TYPE_CONSTANTINC ||
; 338  : 			 this->m_iIncAndDecType == MSE_INCDEC_TYPE_CONSTANTDEC ||
; 339  : 			 this->m_iIncAndDecType == MSE_INCDEC_TYPE_CYCLE_CONSTANTINC ||
; 340  : 			 this->m_iIncAndDecType == MSE_INCDEC_TYPE_CYCLE_CONSTANTDEC )

  00da6	8b 45 fc	 mov	 eax, DWORD PTR _this$[ebp]
  00da9	83 78 28 0b	 cmp	 DWORD PTR [eax+40], 11	; 0000000bH
  00dad	74 1b		 je	 SHORT $LN8@ApplyEleme@2
  00daf	8b 45 fc	 mov	 eax, DWORD PTR _this$[ebp]
  00db2	83 78 28 0c	 cmp	 DWORD PTR [eax+40], 12	; 0000000cH
  00db6	74 12		 je	 SHORT $LN8@ApplyEleme@2
  00db8	8b 45 fc	 mov	 eax, DWORD PTR _this$[ebp]
  00dbb	83 78 28 6f	 cmp	 DWORD PTR [eax+40], 111	; 0000006fH
  00dbf	74 09		 je	 SHORT $LN8@ApplyEleme@2
  00dc1	8b 45 fc	 mov	 eax, DWORD PTR _this$[ebp]
  00dc4	83 78 28 70	 cmp	 DWORD PTR [eax+40], 112	; 00000070H
  00dc8	75 23		 jne	 SHORT $LN7@ApplyEleme@2
$LN8@ApplyEleme@2:

; 341  : 		{
; 342  : 			iIncDecValue = this->m_iIncAndDecValue;

  00dca	8b 45 fc	 mov	 eax, DWORD PTR _this$[ebp]
  00dcd	8b 48 2c	 mov	 ecx, DWORD PTR [eax+44]
  00dd0	89 4d f0	 mov	 DWORD PTR _iIncDecValue$[ebp], ecx

; 343  : 
; 344  : 			if ( this->m_iIncAndDecType == MSE_INCDEC_TYPE_CONSTANTDEC ||
; 345  : 				 this->m_iIncAndDecType == MSE_INCDEC_TYPE_CYCLE_CONSTANTDEC )

  00dd3	8b 45 fc	 mov	 eax, DWORD PTR _this$[ebp]
  00dd6	83 78 28 0c	 cmp	 DWORD PTR [eax+40], 12	; 0000000cH
  00dda	74 09		 je	 SHORT $LN6@ApplyEleme@2
  00ddc	8b 45 fc	 mov	 eax, DWORD PTR _this$[ebp]
  00ddf	83 78 28 70	 cmp	 DWORD PTR [eax+40], 112	; 00000070H
  00de3	75 08		 jne	 SHORT $LN7@ApplyEleme@2
$LN6@ApplyEleme@2:

; 346  : 				iIncDecValue = -iIncDecValue;

  00de5	8b 45 f0	 mov	 eax, DWORD PTR _iIncDecValue$[ebp]
  00de8	f7 d8		 neg	 eax
  00dea	89 45 f0	 mov	 DWORD PTR _iIncDecValue$[ebp], eax
$LN7@ApplyEleme@2:

; 347  : 		}
; 348  : 
; 349  : 		if ( this->m_iIncAndDecType > MSE_INCDEC_TYPE_CYCLE_PERCENT )

  00ded	8b 45 fc	 mov	 eax, DWORD PTR _this$[ebp]
  00df0	83 78 28 64	 cmp	 DWORD PTR [eax+40], 100	; 00000064H
  00df4	7e 4d		 jle	 SHORT $LN3@ApplyEleme@2

; 350  : 		{
; 351  : 			lpTargetObj->m_MonsterSkillElementInfo.m_iSkillElementAutoHPTime = this->m_iContinuanceTime;

  00df6	8b 45 f4	 mov	 eax, DWORD PTR _lpTargetObj$[ebp]
  00df9	8b 4d fc	 mov	 ecx, DWORD PTR _this$[ebp]
  00dfc	8b 51 24	 mov	 edx, DWORD PTR [ecx+36]
  00dff	89 90 38 1c 00
	00		 mov	 DWORD PTR [eax+7224], edx

; 352  : 			lpTargetObj->m_MonsterSkillElementInfo.m_iSkillElementAutoHP = iIncDecValue;

  00e05	8b 45 f4	 mov	 eax, DWORD PTR _lpTargetObj$[ebp]
  00e08	8b 4d f0	 mov	 ecx, DWORD PTR _iIncDecValue$[ebp]
  00e0b	89 88 30 1c 00
	00		 mov	 DWORD PTR [eax+7216], ecx

; 353  : 			lpTargetObj->m_MonsterSkillElementInfo.m_iSkillElementAutoHPCycle = MSE_INCDEC_TYPE_CYCLE_PERCENT;

  00e11	8b 45 f4	 mov	 eax, DWORD PTR _lpTargetObj$[ebp]
  00e14	c7 80 34 1c 00
	00 64 00 00 00	 mov	 DWORD PTR [eax+7220], 100 ; 00000064H

; 354  : 
; 355  : 			if ( this->m_iIncAndDecType > MSE_INCDEC_TYPE_CYCLE_CONSTANT )

  00e1e	8b 45 fc	 mov	 eax, DWORD PTR _this$[ebp]
  00e21	83 78 28 6e	 cmp	 DWORD PTR [eax+40], 110	; 0000006eH
  00e25	7e 0f		 jle	 SHORT $LN4@ApplyEleme@2

; 356  : 				lpTargetObj->m_MonsterSkillElementInfo.m_iSkillElementAutoHPCycle = MSE_INCDEC_TYPE_CYCLE_CONSTANT;

  00e27	8b 45 f4	 mov	 eax, DWORD PTR _lpTargetObj$[ebp]
  00e2a	c7 80 34 1c 00
	00 6e 00 00 00	 mov	 DWORD PTR [eax+7220], 110 ; 0000006eH

; 357  : 			else

  00e34	eb 0d		 jmp	 SHORT $LN3@ApplyEleme@2
$LN4@ApplyEleme@2:

; 358  : 				lpTargetObj->m_MonsterSkillElementInfo.m_iSkillElementAutoHPCycle = MSE_INCDEC_TYPE_CYCLE_PERCENT;

  00e36	8b 45 f4	 mov	 eax, DWORD PTR _lpTargetObj$[ebp]
  00e39	c7 80 34 1c 00
	00 64 00 00 00	 mov	 DWORD PTR [eax+7220], 100 ; 00000064H
$LN3@ApplyEleme@2:

; 359  : 		}
; 360  : 	}
; 361  : 
; 362  : 	lpTargetObj->Life += iIncDecValue;

  00e43	db 45 f0	 fild	 DWORD PTR _iIncDecValue$[ebp]
  00e46	8b 45 f4	 mov	 eax, DWORD PTR _lpTargetObj$[ebp]
  00e49	d8 80 fc 00 00
	00		 fadd	 DWORD PTR [eax+252]
  00e4f	8b 4d f4	 mov	 ecx, DWORD PTR _lpTargetObj$[ebp]
  00e52	d9 99 fc 00 00
	00		 fstp	 DWORD PTR [ecx+252]

; 363  : 
; 364  : 	if ( lpTargetObj->Life < 0 )

  00e58	8b 45 f4	 mov	 eax, DWORD PTR _lpTargetObj$[ebp]
  00e5b	d9 80 fc 00 00
	00		 fld	 DWORD PTR [eax+252]
  00e61	dc 1d 00 00 00
	00		 fcomp	 QWORD PTR __real@0000000000000000
  00e67	df e0		 fnstsw	 ax
  00e69	f6 c4 05	 test	 ah, 5
  00e6c	7a 43		 jp	 SHORT $LN2@ApplyEleme@2

; 365  : 	{
; 366  : 		lpTargetObj->Life = 0;

  00e6e	8b 45 f4	 mov	 eax, DWORD PTR _lpTargetObj$[ebp]
  00e71	d9 ee		 fldz
  00e73	d9 98 fc 00 00
	00		 fstp	 DWORD PTR [eax+252]

; 367  : 		GCReFillSend(lpTargetObj->m_Index, lpTargetObj->Life, 0xFF, 0, lpTargetObj->iShield);

  00e79	8b 45 f4	 mov	 eax, DWORD PTR _lpTargetObj$[ebp]
  00e7c	8b 88 54 01 00
	00		 mov	 ecx, DWORD PTR [eax+340]
  00e82	51		 push	 ecx
  00e83	6a 00		 push	 0
  00e85	68 ff 00 00 00	 push	 255			; 000000ffH
  00e8a	8b 55 f4	 mov	 edx, DWORD PTR _lpTargetObj$[ebp]
  00e8d	d9 82 fc 00 00
	00		 fld	 DWORD PTR [edx+252]
  00e93	e8 00 00 00 00	 call	 __ftol2_sse
  00e98	50		 push	 eax
  00e99	8b 45 f4	 mov	 eax, DWORD PTR _lpTargetObj$[ebp]
  00e9c	8b 08		 mov	 ecx, DWORD PTR [eax]
  00e9e	51		 push	 ecx
  00e9f	e8 00 00 00 00	 call	 ?GCReFillSend@@YAXHHEEH@Z ; GCReFillSend
  00ea4	83 c4 14	 add	 esp, 20			; 00000014H

; 368  : 
; 369  : 		return TRUE;

  00ea7	b8 01 00 00 00	 mov	 eax, 1
  00eac	e9 a4 00 00 00	 jmp	 $LN14@ApplyEleme@2
$LN2@ApplyEleme@2:

; 370  : 	}
; 371  : 
; 372  : 	if ( (lpTargetObj->MaxLife + lpTargetObj->AddLife) < lpTargetObj->Life )

  00eb1	8b 45 f4	 mov	 eax, DWORD PTR _lpTargetObj$[ebp]
  00eb4	db 80 4c 01 00
	00		 fild	 DWORD PTR [eax+332]
  00eba	8b 4d f4	 mov	 ecx, DWORD PTR _lpTargetObj$[ebp]
  00ebd	d8 81 00 01 00
	00		 fadd	 DWORD PTR [ecx+256]
  00ec3	8b 55 f4	 mov	 edx, DWORD PTR _lpTargetObj$[ebp]
  00ec6	d9 82 fc 00 00
	00		 fld	 DWORD PTR [edx+252]
  00ecc	de d9		 fcompp
  00ece	df e0		 fnstsw	 ax
  00ed0	f6 c4 41	 test	 ah, 65			; 00000041H
  00ed3	75 50		 jne	 SHORT $LN1@ApplyEleme@2

; 373  : 	{
; 374  : 		lpTargetObj->Life = lpTargetObj->MaxLife + lpTargetObj->AddLife;

  00ed5	8b 45 f4	 mov	 eax, DWORD PTR _lpTargetObj$[ebp]
  00ed8	db 80 4c 01 00
	00		 fild	 DWORD PTR [eax+332]
  00ede	8b 4d f4	 mov	 ecx, DWORD PTR _lpTargetObj$[ebp]
  00ee1	d8 81 00 01 00
	00		 fadd	 DWORD PTR [ecx+256]
  00ee7	8b 55 f4	 mov	 edx, DWORD PTR _lpTargetObj$[ebp]
  00eea	d9 9a fc 00 00
	00		 fstp	 DWORD PTR [edx+252]

; 375  : 		GCReFillSend(lpTargetObj->m_Index, lpTargetObj->Life, 0xFF, 0, lpTargetObj->iShield);

  00ef0	8b 45 f4	 mov	 eax, DWORD PTR _lpTargetObj$[ebp]
  00ef3	8b 88 54 01 00
	00		 mov	 ecx, DWORD PTR [eax+340]
  00ef9	51		 push	 ecx
  00efa	6a 00		 push	 0
  00efc	68 ff 00 00 00	 push	 255			; 000000ffH
  00f01	8b 55 f4	 mov	 edx, DWORD PTR _lpTargetObj$[ebp]
  00f04	d9 82 fc 00 00
	00		 fld	 DWORD PTR [edx+252]
  00f0a	e8 00 00 00 00	 call	 __ftol2_sse
  00f0f	50		 push	 eax
  00f10	8b 45 f4	 mov	 eax, DWORD PTR _lpTargetObj$[ebp]
  00f13	8b 08		 mov	 ecx, DWORD PTR [eax]
  00f15	51		 push	 ecx
  00f16	e8 00 00 00 00	 call	 ?GCReFillSend@@YAXHHEEH@Z ; GCReFillSend
  00f1b	83 c4 14	 add	 esp, 20			; 00000014H

; 376  : 
; 377  : 		return TRUE;

  00f1e	b8 01 00 00 00	 mov	 eax, 1
  00f23	eb 30		 jmp	 SHORT $LN14@ApplyEleme@2
$LN1@ApplyEleme@2:

; 378  : 	}
; 379  : 
; 380  : 	GCReFillSend(lpTargetObj->m_Index, lpTargetObj->Life, 0xFF, 0, lpTargetObj->iShield);

  00f25	8b 45 f4	 mov	 eax, DWORD PTR _lpTargetObj$[ebp]
  00f28	8b 88 54 01 00
	00		 mov	 ecx, DWORD PTR [eax+340]
  00f2e	51		 push	 ecx
  00f2f	6a 00		 push	 0
  00f31	68 ff 00 00 00	 push	 255			; 000000ffH
  00f36	8b 55 f4	 mov	 edx, DWORD PTR _lpTargetObj$[ebp]
  00f39	d9 82 fc 00 00
	00		 fld	 DWORD PTR [edx+252]
  00f3f	e8 00 00 00 00	 call	 __ftol2_sse
  00f44	50		 push	 eax
  00f45	8b 45 f4	 mov	 eax, DWORD PTR _lpTargetObj$[ebp]
  00f48	8b 08		 mov	 ecx, DWORD PTR [eax]
  00f4a	51		 push	 ecx
  00f4b	e8 00 00 00 00	 call	 ?GCReFillSend@@YAXHHEEH@Z ; GCReFillSend
  00f50	83 c4 14	 add	 esp, 20			; 00000014H

; 381  : 
; 382  : 	return FALSE;

  00f53	33 c0		 xor	 eax, eax
$LN14@ApplyEleme@2:

; 383  : }

  00f55	5f		 pop	 edi
  00f56	5e		 pop	 esi
  00f57	5b		 pop	 ebx
  00f58	8b e5		 mov	 esp, ebp
  00f5a	5d		 pop	 ebp
  00f5b	c2 08 00	 ret	 8
?ApplyElementHP@TMonsterSkillElement@@QAEHHH@Z ENDP	; TMonsterSkillElement::ApplyElementHP
_TEXT	ENDS
EXTRN	?GCManaSend@@YAXHHEEH@Z:PROC			; GCManaSend
; Function compile flags: /Odtp /ZI
_TEXT	SEGMENT
_iIncDecValue$ = -16					; size = 4
_lpTargetObj$ = -12					; size = 4
_lpObj$ = -8						; size = 4
_this$ = -4						; size = 4
_iIndex$ = 8						; size = 4
_iTargetIndex$ = 12					; size = 4
?ApplyElementMP@TMonsterSkillElement@@QAEHHH@Z PROC	; TMonsterSkillElement::ApplyElementMP
; _this$ = ecx

; 386  : {

  00f60	55		 push	 ebp
  00f61	8b ec		 mov	 ebp, esp
  00f63	83 ec 50	 sub	 esp, 80			; 00000050H
  00f66	53		 push	 ebx
  00f67	56		 push	 esi
  00f68	57		 push	 edi
  00f69	89 4d fc	 mov	 DWORD PTR _this$[ebp], ecx

; 387  : 	LPOBJ lpObj = &gObj[iIndex];

  00f6c	8b 45 08	 mov	 eax, DWORD PTR _iIndex$[ebp]
  00f6f	69 c0 38 2b 00
	00		 imul	 eax, 11064		; 00002b38H
  00f75	03 05 00 00 00
	00		 add	 eax, DWORD PTR ?gObj@@3PAUOBJECTSTRUCT@@A ; gObj
  00f7b	89 45 f8	 mov	 DWORD PTR _lpObj$[ebp], eax

; 388  : 	LPOBJ lpTargetObj = &gObj[iTargetIndex];

  00f7e	8b 45 0c	 mov	 eax, DWORD PTR _iTargetIndex$[ebp]
  00f81	69 c0 38 2b 00
	00		 imul	 eax, 11064		; 00002b38H
  00f87	03 05 00 00 00
	00		 add	 eax, DWORD PTR ?gObj@@3PAUOBJECTSTRUCT@@A ; gObj
  00f8d	89 45 f4	 mov	 DWORD PTR _lpTargetObj$[ebp], eax

; 389  : 	int iIncDecValue = 0;

  00f90	c7 45 f0 00 00
	00 00		 mov	 DWORD PTR _iIncDecValue$[ebp], 0

; 390  : 
; 391  : 	if ( this->m_iIncAndDecType != MSE_INCDEC_TYPE_NONE )

  00f97	8b 45 fc	 mov	 eax, DWORD PTR _this$[ebp]
  00f9a	83 78 28 00	 cmp	 DWORD PTR [eax+40], 0
  00f9e	74 5a		 je	 SHORT $LN3@ApplyEleme@3

; 392  : 	{
; 393  : 		if ( this->m_iIncAndDecType < MSE_INCDEC_TYPE_CONSTANTINC )

  00fa0	8b 45 fc	 mov	 eax, DWORD PTR _this$[ebp]
  00fa3	83 78 28 0b	 cmp	 DWORD PTR [eax+40], 11	; 0000000bH
  00fa7	7d 2e		 jge	 SHORT $LN5@ApplyEleme@3

; 394  : 		{
; 395  : 			iIncDecValue = (int)((((float)(lpTargetObj->Mana) * (float)(this->m_iIncAndDecValue)))/100.0f);

  00fa9	8b 45 f4	 mov	 eax, DWORD PTR _lpTargetObj$[ebp]
  00fac	d9 80 10 01 00
	00		 fld	 DWORD PTR [eax+272]
  00fb2	8b 4d fc	 mov	 ecx, DWORD PTR _this$[ebp]
  00fb5	da 49 2c	 fimul	 DWORD PTR [ecx+44]
  00fb8	dc 35 00 00 00
	00		 fdiv	 QWORD PTR __real@4059000000000000
  00fbe	e8 00 00 00 00	 call	 __ftol2_sse
  00fc3	89 45 f0	 mov	 DWORD PTR _iIncDecValue$[ebp], eax

; 396  : 
; 397  : 			if ( this->m_iIncAndDecType == MSE_INCDEC_TYPE_PERCENTDEC )

  00fc6	8b 45 fc	 mov	 eax, DWORD PTR _this$[ebp]
  00fc9	83 78 28 02	 cmp	 DWORD PTR [eax+40], 2
  00fcd	75 08		 jne	 SHORT $LN5@ApplyEleme@3

; 398  : 				iIncDecValue = -iIncDecValue;

  00fcf	8b 45 f0	 mov	 eax, DWORD PTR _iIncDecValue$[ebp]
  00fd2	f7 d8		 neg	 eax
  00fd4	89 45 f0	 mov	 DWORD PTR _iIncDecValue$[ebp], eax
$LN5@ApplyEleme@3:

; 399  : 		}
; 400  : 
; 401  : 		if ( this->m_iIncAndDecType >= MSE_INCDEC_TYPE_CONSTANTINC )

  00fd7	8b 45 fc	 mov	 eax, DWORD PTR _this$[ebp]
  00fda	83 78 28 0b	 cmp	 DWORD PTR [eax+40], 11	; 0000000bH
  00fde	7c 1a		 jl	 SHORT $LN3@ApplyEleme@3

; 402  : 		{
; 403  : 			iIncDecValue = this->m_iIncAndDecValue;

  00fe0	8b 45 fc	 mov	 eax, DWORD PTR _this$[ebp]
  00fe3	8b 48 2c	 mov	 ecx, DWORD PTR [eax+44]
  00fe6	89 4d f0	 mov	 DWORD PTR _iIncDecValue$[ebp], ecx

; 404  : 
; 405  : 			if ( this->m_iIncAndDecType == MSE_INCDEC_TYPE_CONSTANTDEC )

  00fe9	8b 45 fc	 mov	 eax, DWORD PTR _this$[ebp]
  00fec	83 78 28 0c	 cmp	 DWORD PTR [eax+40], 12	; 0000000cH
  00ff0	75 08		 jne	 SHORT $LN3@ApplyEleme@3

; 406  : 				iIncDecValue = -iIncDecValue;

  00ff2	8b 45 f0	 mov	 eax, DWORD PTR _iIncDecValue$[ebp]
  00ff5	f7 d8		 neg	 eax
  00ff7	89 45 f0	 mov	 DWORD PTR _iIncDecValue$[ebp], eax
$LN3@ApplyEleme@3:

; 407  : 		}
; 408  : 	}
; 409  : 
; 410  : 	lpTargetObj->Mana += iIncDecValue;

  00ffa	db 45 f0	 fild	 DWORD PTR _iIncDecValue$[ebp]
  00ffd	8b 45 f4	 mov	 eax, DWORD PTR _lpTargetObj$[ebp]
  01000	d8 80 10 01 00
	00		 fadd	 DWORD PTR [eax+272]
  01006	8b 4d f4	 mov	 ecx, DWORD PTR _lpTargetObj$[ebp]
  01009	d9 99 10 01 00
	00		 fstp	 DWORD PTR [ecx+272]

; 411  : 
; 412  : 	if ( lpTargetObj->Mana < 0 )

  0100f	8b 45 f4	 mov	 eax, DWORD PTR _lpTargetObj$[ebp]
  01012	d9 80 10 01 00
	00		 fld	 DWORD PTR [eax+272]
  01018	dc 1d 00 00 00
	00		 fcomp	 QWORD PTR __real@0000000000000000
  0101e	df e0		 fnstsw	 ax
  01020	f6 c4 05	 test	 ah, 5
  01023	7a 43		 jp	 SHORT $LN2@ApplyEleme@3

; 413  : 	{
; 414  : 		lpTargetObj->Mana = 0;

  01025	8b 45 f4	 mov	 eax, DWORD PTR _lpTargetObj$[ebp]
  01028	d9 ee		 fldz
  0102a	d9 98 10 01 00
	00		 fstp	 DWORD PTR [eax+272]

; 415  : 		GCManaSend(lpTargetObj->m_Index, lpTargetObj->Mana, 0xFF, 0, lpObj->BP);

  01030	8b 45 f8	 mov	 eax, DWORD PTR _lpObj$[ebp]
  01033	8b 88 28 01 00
	00		 mov	 ecx, DWORD PTR [eax+296]
  01039	51		 push	 ecx
  0103a	6a 00		 push	 0
  0103c	68 ff 00 00 00	 push	 255			; 000000ffH
  01041	8b 55 f4	 mov	 edx, DWORD PTR _lpTargetObj$[ebp]
  01044	d9 82 10 01 00
	00		 fld	 DWORD PTR [edx+272]
  0104a	e8 00 00 00 00	 call	 __ftol2_sse
  0104f	50		 push	 eax
  01050	8b 45 f4	 mov	 eax, DWORD PTR _lpTargetObj$[ebp]
  01053	8b 08		 mov	 ecx, DWORD PTR [eax]
  01055	51		 push	 ecx
  01056	e8 00 00 00 00	 call	 ?GCManaSend@@YAXHHEEH@Z	; GCManaSend
  0105b	83 c4 14	 add	 esp, 20			; 00000014H

; 416  : 		return TRUE;

  0105e	b8 01 00 00 00	 mov	 eax, 1
  01063	e9 a4 00 00 00	 jmp	 $LN8@ApplyEleme@3
$LN2@ApplyEleme@3:

; 417  : 	}
; 418  : 
; 419  : 	if ( (lpTargetObj->MaxMana + lpTargetObj->AddMana) < lpTargetObj->Mana )

  01068	8b 45 f4	 mov	 eax, DWORD PTR _lpTargetObj$[ebp]
  0106b	db 80 50 01 00
	00		 fild	 DWORD PTR [eax+336]
  01071	8b 4d f4	 mov	 ecx, DWORD PTR _lpTargetObj$[ebp]
  01074	d8 81 14 01 00
	00		 fadd	 DWORD PTR [ecx+276]
  0107a	8b 55 f4	 mov	 edx, DWORD PTR _lpTargetObj$[ebp]
  0107d	d9 82 10 01 00
	00		 fld	 DWORD PTR [edx+272]
  01083	de d9		 fcompp
  01085	df e0		 fnstsw	 ax
  01087	f6 c4 41	 test	 ah, 65			; 00000041H
  0108a	75 50		 jne	 SHORT $LN1@ApplyEleme@3

; 420  : 	{
; 421  : 		lpTargetObj->Mana = lpTargetObj->MaxMana + lpTargetObj->AddMana;

  0108c	8b 45 f4	 mov	 eax, DWORD PTR _lpTargetObj$[ebp]
  0108f	db 80 50 01 00
	00		 fild	 DWORD PTR [eax+336]
  01095	8b 4d f4	 mov	 ecx, DWORD PTR _lpTargetObj$[ebp]
  01098	d8 81 14 01 00
	00		 fadd	 DWORD PTR [ecx+276]
  0109e	8b 55 f4	 mov	 edx, DWORD PTR _lpTargetObj$[ebp]
  010a1	d9 9a 10 01 00
	00		 fstp	 DWORD PTR [edx+272]

; 422  : 		GCManaSend(lpTargetObj->m_Index, lpTargetObj->Mana, 0xFF, 0, lpTargetObj->BP);

  010a7	8b 45 f4	 mov	 eax, DWORD PTR _lpTargetObj$[ebp]
  010aa	8b 88 28 01 00
	00		 mov	 ecx, DWORD PTR [eax+296]
  010b0	51		 push	 ecx
  010b1	6a 00		 push	 0
  010b3	68 ff 00 00 00	 push	 255			; 000000ffH
  010b8	8b 55 f4	 mov	 edx, DWORD PTR _lpTargetObj$[ebp]
  010bb	d9 82 10 01 00
	00		 fld	 DWORD PTR [edx+272]
  010c1	e8 00 00 00 00	 call	 __ftol2_sse
  010c6	50		 push	 eax
  010c7	8b 45 f4	 mov	 eax, DWORD PTR _lpTargetObj$[ebp]
  010ca	8b 08		 mov	 ecx, DWORD PTR [eax]
  010cc	51		 push	 ecx
  010cd	e8 00 00 00 00	 call	 ?GCManaSend@@YAXHHEEH@Z	; GCManaSend
  010d2	83 c4 14	 add	 esp, 20			; 00000014H

; 423  : 
; 424  : 		return TRUE;

  010d5	b8 01 00 00 00	 mov	 eax, 1
  010da	eb 30		 jmp	 SHORT $LN8@ApplyEleme@3
$LN1@ApplyEleme@3:

; 425  : 	}
; 426  : 
; 427  : 	GCManaSend(lpTargetObj->m_Index, lpTargetObj->Mana, 0xFF, 0, lpTargetObj->BP);

  010dc	8b 45 f4	 mov	 eax, DWORD PTR _lpTargetObj$[ebp]
  010df	8b 88 28 01 00
	00		 mov	 ecx, DWORD PTR [eax+296]
  010e5	51		 push	 ecx
  010e6	6a 00		 push	 0
  010e8	68 ff 00 00 00	 push	 255			; 000000ffH
  010ed	8b 55 f4	 mov	 edx, DWORD PTR _lpTargetObj$[ebp]
  010f0	d9 82 10 01 00
	00		 fld	 DWORD PTR [edx+272]
  010f6	e8 00 00 00 00	 call	 __ftol2_sse
  010fb	50		 push	 eax
  010fc	8b 45 f4	 mov	 eax, DWORD PTR _lpTargetObj$[ebp]
  010ff	8b 08		 mov	 ecx, DWORD PTR [eax]
  01101	51		 push	 ecx
  01102	e8 00 00 00 00	 call	 ?GCManaSend@@YAXHHEEH@Z	; GCManaSend
  01107	83 c4 14	 add	 esp, 20			; 00000014H

; 428  : 
; 429  : 	return FALSE;

  0110a	33 c0		 xor	 eax, eax
$LN8@ApplyEleme@3:

; 430  : }

  0110c	5f		 pop	 edi
  0110d	5e		 pop	 esi
  0110e	5b		 pop	 ebx
  0110f	8b e5		 mov	 esp, ebp
  01111	5d		 pop	 ebp
  01112	c2 08 00	 ret	 8
?ApplyElementMP@TMonsterSkillElement@@QAEHHH@Z ENDP	; TMonsterSkillElement::ApplyElementMP
; Function compile flags: /Odtp /ZI
tv209 = -84						; size = 4
tv201 = -84						; size = 4
_iIncDecValue$ = -16					; size = 4
_lpTargetObj$ = -12					; size = 4
_lpObj$ = -8						; size = 4
_this$ = -4						; size = 4
_iIndex$ = 8						; size = 4
_iTargetIndex$ = 12					; size = 4
?ApplyElementAG@TMonsterSkillElement@@QAEHHH@Z PROC	; TMonsterSkillElement::ApplyElementAG
; _this$ = ecx

; 433  : {

  01120	55		 push	 ebp
  01121	8b ec		 mov	 ebp, esp
  01123	83 ec 54	 sub	 esp, 84			; 00000054H
  01126	53		 push	 ebx
  01127	56		 push	 esi
  01128	57		 push	 edi
  01129	89 4d fc	 mov	 DWORD PTR _this$[ebp], ecx

; 434  : 	LPOBJ lpObj = &gObj[iIndex];

  0112c	8b 45 08	 mov	 eax, DWORD PTR _iIndex$[ebp]
  0112f	69 c0 38 2b 00
	00		 imul	 eax, 11064		; 00002b38H
  01135	03 05 00 00 00
	00		 add	 eax, DWORD PTR ?gObj@@3PAUOBJECTSTRUCT@@A ; gObj
  0113b	89 45 f8	 mov	 DWORD PTR _lpObj$[ebp], eax

; 435  : 	LPOBJ lpTargetObj = &gObj[iTargetIndex];

  0113e	8b 45 0c	 mov	 eax, DWORD PTR _iTargetIndex$[ebp]
  01141	69 c0 38 2b 00
	00		 imul	 eax, 11064		; 00002b38H
  01147	03 05 00 00 00
	00		 add	 eax, DWORD PTR ?gObj@@3PAUOBJECTSTRUCT@@A ; gObj
  0114d	89 45 f4	 mov	 DWORD PTR _lpTargetObj$[ebp], eax

; 436  : 	int iIncDecValue = 0;

  01150	c7 45 f0 00 00
	00 00		 mov	 DWORD PTR _iIncDecValue$[ebp], 0

; 437  : 
; 438  : 	if ( this->m_iIncAndDecType != MSE_INCDEC_TYPE_NONE )

  01157	8b 45 fc	 mov	 eax, DWORD PTR _this$[ebp]
  0115a	83 78 28 00	 cmp	 DWORD PTR [eax+40], 0
  0115e	74 58		 je	 SHORT $LN3@ApplyEleme@4

; 439  : 	{
; 440  : 		if ( this->m_iIncAndDecType < MSE_INCDEC_TYPE_CONSTANTINC )

  01160	8b 45 fc	 mov	 eax, DWORD PTR _this$[ebp]
  01163	83 78 28 0b	 cmp	 DWORD PTR [eax+40], 11	; 0000000bH
  01167	7d 2c		 jge	 SHORT $LN5@ApplyEleme@4

; 441  : 		{
; 442  : 			iIncDecValue = lpTargetObj->BP * this->m_iIncAndDecValue / 100;

  01169	8b 45 f4	 mov	 eax, DWORD PTR _lpTargetObj$[ebp]
  0116c	8b 4d fc	 mov	 ecx, DWORD PTR _this$[ebp]
  0116f	8b 80 28 01 00
	00		 mov	 eax, DWORD PTR [eax+296]
  01175	0f af 41 2c	 imul	 eax, DWORD PTR [ecx+44]
  01179	99		 cdq
  0117a	b9 64 00 00 00	 mov	 ecx, 100		; 00000064H
  0117f	f7 f9		 idiv	 ecx
  01181	89 45 f0	 mov	 DWORD PTR _iIncDecValue$[ebp], eax

; 443  : 
; 444  : 			if ( this->m_iIncAndDecType == MSE_INCDEC_TYPE_PERCENTDEC )

  01184	8b 45 fc	 mov	 eax, DWORD PTR _this$[ebp]
  01187	83 78 28 02	 cmp	 DWORD PTR [eax+40], 2
  0118b	75 08		 jne	 SHORT $LN5@ApplyEleme@4

; 445  : 				iIncDecValue = -iIncDecValue;

  0118d	8b 45 f0	 mov	 eax, DWORD PTR _iIncDecValue$[ebp]
  01190	f7 d8		 neg	 eax
  01192	89 45 f0	 mov	 DWORD PTR _iIncDecValue$[ebp], eax
$LN5@ApplyEleme@4:

; 446  : 		}
; 447  : 
; 448  : 		if ( this->m_iIncAndDecType >= MSE_INCDEC_TYPE_CONSTANTINC )

  01195	8b 45 fc	 mov	 eax, DWORD PTR _this$[ebp]
  01198	83 78 28 0b	 cmp	 DWORD PTR [eax+40], 11	; 0000000bH
  0119c	7c 1a		 jl	 SHORT $LN3@ApplyEleme@4

; 449  : 		{
; 450  : 			iIncDecValue = this->m_iIncAndDecValue;

  0119e	8b 45 fc	 mov	 eax, DWORD PTR _this$[ebp]
  011a1	8b 48 2c	 mov	 ecx, DWORD PTR [eax+44]
  011a4	89 4d f0	 mov	 DWORD PTR _iIncDecValue$[ebp], ecx

; 451  : 
; 452  : 			if ( this->m_iIncAndDecType == MSE_INCDEC_TYPE_CONSTANTDEC )

  011a7	8b 45 fc	 mov	 eax, DWORD PTR _this$[ebp]
  011aa	83 78 28 0c	 cmp	 DWORD PTR [eax+40], 12	; 0000000cH
  011ae	75 08		 jne	 SHORT $LN3@ApplyEleme@4

; 453  : 				iIncDecValue = -iIncDecValue;

  011b0	8b 45 f0	 mov	 eax, DWORD PTR _iIncDecValue$[ebp]
  011b3	f7 d8		 neg	 eax
  011b5	89 45 f0	 mov	 DWORD PTR _iIncDecValue$[ebp], eax
$LN3@ApplyEleme@4:

; 454  : 		}
; 455  : 	}
; 456  : 
; 457  : 	lpTargetObj->BP += iIncDecValue;

  011b8	8b 45 f4	 mov	 eax, DWORD PTR _lpTargetObj$[ebp]
  011bb	8b 88 28 01 00
	00		 mov	 ecx, DWORD PTR [eax+296]
  011c1	03 4d f0	 add	 ecx, DWORD PTR _iIncDecValue$[ebp]
  011c4	8b 55 f4	 mov	 edx, DWORD PTR _lpTargetObj$[ebp]
  011c7	89 8a 28 01 00
	00		 mov	 DWORD PTR [edx+296], ecx

; 458  : 
; 459  : 	if ( lpTargetObj->BP < 0 )

  011cd	8b 45 f4	 mov	 eax, DWORD PTR _lpTargetObj$[ebp]
  011d0	83 b8 28 01 00
	00 00		 cmp	 DWORD PTR [eax+296], 0
  011d7	7d 45		 jge	 SHORT $LN2@ApplyEleme@4

; 460  : 	{
; 461  : 		lpTargetObj->BP = 0;

  011d9	8b 45 f4	 mov	 eax, DWORD PTR _lpTargetObj$[ebp]
  011dc	c7 80 28 01 00
	00 00 00 00 00	 mov	 DWORD PTR [eax+296], 0

; 462  : 		GCManaSend(lpTargetObj->m_Index, lpTargetObj->Mana, 0xFF, 0, lpTargetObj->BP);

  011e6	8b 45 f4	 mov	 eax, DWORD PTR _lpTargetObj$[ebp]
  011e9	8b 88 28 01 00
	00		 mov	 ecx, DWORD PTR [eax+296]
  011ef	51		 push	 ecx
  011f0	6a 00		 push	 0
  011f2	68 ff 00 00 00	 push	 255			; 000000ffH
  011f7	8b 55 f4	 mov	 edx, DWORD PTR _lpTargetObj$[ebp]
  011fa	d9 82 10 01 00
	00		 fld	 DWORD PTR [edx+272]
  01200	e8 00 00 00 00	 call	 __ftol2_sse
  01205	50		 push	 eax
  01206	8b 45 f4	 mov	 eax, DWORD PTR _lpTargetObj$[ebp]
  01209	8b 08		 mov	 ecx, DWORD PTR [eax]
  0120b	51		 push	 ecx
  0120c	e8 00 00 00 00	 call	 ?GCManaSend@@YAXHHEEH@Z	; GCManaSend
  01211	83 c4 14	 add	 esp, 20			; 00000014H

; 463  : 
; 464  : 		return TRUE;

  01214	b8 01 00 00 00	 mov	 eax, 1
  01219	e9 b0 00 00 00	 jmp	 $LN8@ApplyEleme@4
$LN2@ApplyEleme@4:

; 465  : 	}
; 466  : 
; 467  : 	if ( (lpTargetObj->MaxBP + lpTargetObj->AddBP) < lpTargetObj->Mana )

  0121e	8b 45 f4	 mov	 eax, DWORD PTR _lpTargetObj$[ebp]
  01221	8b 88 2c 01 00
	00		 mov	 ecx, DWORD PTR [eax+300]
  01227	8b 55 f4	 mov	 edx, DWORD PTR _lpTargetObj$[ebp]
  0122a	03 8a 30 01 00
	00		 add	 ecx, DWORD PTR [edx+304]
  01230	89 4d ac	 mov	 DWORD PTR tv201[ebp], ecx
  01233	db 45 ac	 fild	 DWORD PTR tv201[ebp]
  01236	8b 45 f4	 mov	 eax, DWORD PTR _lpTargetObj$[ebp]
  01239	d9 80 10 01 00
	00		 fld	 DWORD PTR [eax+272]
  0123f	de d9		 fcompp
  01241	df e0		 fnstsw	 ax
  01243	f6 c4 41	 test	 ah, 65			; 00000041H
  01246	75 56		 jne	 SHORT $LN1@ApplyEleme@4

; 468  : 	{
; 469  : 		lpTargetObj->Mana = (float)(lpTargetObj->MaxBP + lpTargetObj->AddBP);

  01248	8b 45 f4	 mov	 eax, DWORD PTR _lpTargetObj$[ebp]
  0124b	8b 88 2c 01 00
	00		 mov	 ecx, DWORD PTR [eax+300]
  01251	8b 55 f4	 mov	 edx, DWORD PTR _lpTargetObj$[ebp]
  01254	03 8a 30 01 00
	00		 add	 ecx, DWORD PTR [edx+304]
  0125a	89 4d ac	 mov	 DWORD PTR tv209[ebp], ecx
  0125d	db 45 ac	 fild	 DWORD PTR tv209[ebp]
  01260	8b 45 f4	 mov	 eax, DWORD PTR _lpTargetObj$[ebp]
  01263	d9 98 10 01 00
	00		 fstp	 DWORD PTR [eax+272]

; 470  : 		GCManaSend(lpTargetObj->m_Index, lpTargetObj->Mana, 0xFF, 0, lpTargetObj->BP);

  01269	8b 45 f4	 mov	 eax, DWORD PTR _lpTargetObj$[ebp]
  0126c	8b 88 28 01 00
	00		 mov	 ecx, DWORD PTR [eax+296]
  01272	51		 push	 ecx
  01273	6a 00		 push	 0
  01275	68 ff 00 00 00	 push	 255			; 000000ffH
  0127a	8b 55 f4	 mov	 edx, DWORD PTR _lpTargetObj$[ebp]
  0127d	d9 82 10 01 00
	00		 fld	 DWORD PTR [edx+272]
  01283	e8 00 00 00 00	 call	 __ftol2_sse
  01288	50		 push	 eax
  01289	8b 45 f4	 mov	 eax, DWORD PTR _lpTargetObj$[ebp]
  0128c	8b 08		 mov	 ecx, DWORD PTR [eax]
  0128e	51		 push	 ecx
  0128f	e8 00 00 00 00	 call	 ?GCManaSend@@YAXHHEEH@Z	; GCManaSend
  01294	83 c4 14	 add	 esp, 20			; 00000014H

; 471  : 
; 472  : 		return TRUE;

  01297	b8 01 00 00 00	 mov	 eax, 1
  0129c	eb 30		 jmp	 SHORT $LN8@ApplyEleme@4
$LN1@ApplyEleme@4:

; 473  : 	}
; 474  : 
; 475  : 	GCManaSend(lpTargetObj->m_Index, lpTargetObj->Mana, 0xFF, 0, lpTargetObj->BP);

  0129e	8b 45 f4	 mov	 eax, DWORD PTR _lpTargetObj$[ebp]
  012a1	8b 88 28 01 00
	00		 mov	 ecx, DWORD PTR [eax+296]
  012a7	51		 push	 ecx
  012a8	6a 00		 push	 0
  012aa	68 ff 00 00 00	 push	 255			; 000000ffH
  012af	8b 55 f4	 mov	 edx, DWORD PTR _lpTargetObj$[ebp]
  012b2	d9 82 10 01 00
	00		 fld	 DWORD PTR [edx+272]
  012b8	e8 00 00 00 00	 call	 __ftol2_sse
  012bd	50		 push	 eax
  012be	8b 45 f4	 mov	 eax, DWORD PTR _lpTargetObj$[ebp]
  012c1	8b 08		 mov	 ecx, DWORD PTR [eax]
  012c3	51		 push	 ecx
  012c4	e8 00 00 00 00	 call	 ?GCManaSend@@YAXHHEEH@Z	; GCManaSend
  012c9	83 c4 14	 add	 esp, 20			; 00000014H

; 476  : 
; 477  : 	return FALSE;

  012cc	33 c0		 xor	 eax, eax
$LN8@ApplyEleme@4:

; 478  : }

  012ce	5f		 pop	 edi
  012cf	5e		 pop	 esi
  012d0	5b		 pop	 ebx
  012d1	8b e5		 mov	 esp, ebp
  012d3	5d		 pop	 ebp
  012d4	c2 08 00	 ret	 8
?ApplyElementAG@TMonsterSkillElement@@QAEHHH@Z ENDP	; TMonsterSkillElement::ApplyElementAG
; Function compile flags: /Odtp /ZI
_iIncDecValue$ = -16					; size = 4
_lpTargetObj$ = -12					; size = 4
_lpObj$ = -8						; size = 4
_this$ = -4						; size = 4
_iIndex$ = 8						; size = 4
_iTargetIndex$ = 12					; size = 4
?ApplyElementDefense@TMonsterSkillElement@@QAEHHH@Z PROC ; TMonsterSkillElement::ApplyElementDefense
; _this$ = ecx

; 481  : {

  012e0	55		 push	 ebp
  012e1	8b ec		 mov	 ebp, esp
  012e3	83 ec 50	 sub	 esp, 80			; 00000050H
  012e6	53		 push	 ebx
  012e7	56		 push	 esi
  012e8	57		 push	 edi
  012e9	89 4d fc	 mov	 DWORD PTR _this$[ebp], ecx

; 482  : 	LPOBJ lpObj = &gObj[iIndex];

  012ec	8b 45 08	 mov	 eax, DWORD PTR _iIndex$[ebp]
  012ef	69 c0 38 2b 00
	00		 imul	 eax, 11064		; 00002b38H
  012f5	03 05 00 00 00
	00		 add	 eax, DWORD PTR ?gObj@@3PAUOBJECTSTRUCT@@A ; gObj
  012fb	89 45 f8	 mov	 DWORD PTR _lpObj$[ebp], eax

; 483  : 	LPOBJ lpTargetObj = &gObj[iTargetIndex];

  012fe	8b 45 0c	 mov	 eax, DWORD PTR _iTargetIndex$[ebp]
  01301	69 c0 38 2b 00
	00		 imul	 eax, 11064		; 00002b38H
  01307	03 05 00 00 00
	00		 add	 eax, DWORD PTR ?gObj@@3PAUOBJECTSTRUCT@@A ; gObj
  0130d	89 45 f4	 mov	 DWORD PTR _lpTargetObj$[ebp], eax

; 484  : 	int iIncDecValue = 0;

  01310	c7 45 f0 00 00
	00 00		 mov	 DWORD PTR _iIncDecValue$[ebp], 0

; 485  : 
; 486  : 	if ( this->m_iIncAndDecType != MSE_INCDEC_TYPE_NONE )

  01317	8b 45 fc	 mov	 eax, DWORD PTR _this$[ebp]
  0131a	83 78 28 00	 cmp	 DWORD PTR [eax+40], 0
  0131e	74 58		 je	 SHORT $LN5@ApplyEleme@5

; 487  : 	{
; 488  : 		if ( this->m_iIncAndDecType < MSE_INCDEC_TYPE_CONSTANTINC )

  01320	8b 45 fc	 mov	 eax, DWORD PTR _this$[ebp]
  01323	83 78 28 0b	 cmp	 DWORD PTR [eax+40], 11	; 0000000bH
  01327	7d 2c		 jge	 SHORT $LN4@ApplyEleme@5

; 489  : 		{
; 490  : 			iIncDecValue = lpTargetObj->m_Defense * this->m_iIncAndDecValue / 100;

  01329	8b 45 f4	 mov	 eax, DWORD PTR _lpTargetObj$[ebp]
  0132c	8b 4d fc	 mov	 ecx, DWORD PTR _this$[ebp]
  0132f	8b 80 94 04 00
	00		 mov	 eax, DWORD PTR [eax+1172]
  01335	0f af 41 2c	 imul	 eax, DWORD PTR [ecx+44]
  01339	99		 cdq
  0133a	b9 64 00 00 00	 mov	 ecx, 100		; 00000064H
  0133f	f7 f9		 idiv	 ecx
  01341	89 45 f0	 mov	 DWORD PTR _iIncDecValue$[ebp], eax

; 491  : 
; 492  : 			if ( this->m_iIncAndDecType == MSE_INCDEC_TYPE_PERCENTDEC )

  01344	8b 45 fc	 mov	 eax, DWORD PTR _this$[ebp]
  01347	83 78 28 02	 cmp	 DWORD PTR [eax+40], 2
  0134b	75 08		 jne	 SHORT $LN4@ApplyEleme@5

; 493  : 				iIncDecValue = -iIncDecValue;

  0134d	8b 45 f0	 mov	 eax, DWORD PTR _iIncDecValue$[ebp]
  01350	f7 d8		 neg	 eax
  01352	89 45 f0	 mov	 DWORD PTR _iIncDecValue$[ebp], eax
$LN4@ApplyEleme@5:

; 494  : 		}	
; 495  : 
; 496  : 		if ( this->m_iIncAndDecType >= MSE_INCDEC_TYPE_CONSTANTINC )

  01355	8b 45 fc	 mov	 eax, DWORD PTR _this$[ebp]
  01358	83 78 28 0b	 cmp	 DWORD PTR [eax+40], 11	; 0000000bH
  0135c	7c 1a		 jl	 SHORT $LN5@ApplyEleme@5

; 497  : 		{
; 498  : 			iIncDecValue = this->m_iIncAndDecValue;

  0135e	8b 45 fc	 mov	 eax, DWORD PTR _this$[ebp]
  01361	8b 48 2c	 mov	 ecx, DWORD PTR [eax+44]
  01364	89 4d f0	 mov	 DWORD PTR _iIncDecValue$[ebp], ecx

; 499  : 
; 500  : 			if ( this->m_iIncAndDecType == MSE_INCDEC_TYPE_CONSTANTDEC )

  01367	8b 45 fc	 mov	 eax, DWORD PTR _this$[ebp]
  0136a	83 78 28 0c	 cmp	 DWORD PTR [eax+40], 12	; 0000000cH
  0136e	75 08		 jne	 SHORT $LN5@ApplyEleme@5

; 501  : 				iIncDecValue = -iIncDecValue;

  01370	8b 45 f0	 mov	 eax, DWORD PTR _iIncDecValue$[ebp]
  01373	f7 d8		 neg	 eax
  01375	89 45 f0	 mov	 DWORD PTR _iIncDecValue$[ebp], eax
$LN5@ApplyEleme@5:

; 502  : 		}
; 503  : 	}
; 504  : 
; 505  : 	lpTargetObj->m_MonsterSkillElementInfo.m_iSkillElementDefenseTime = this->m_iContinuanceTime;

  01378	8b 45 f4	 mov	 eax, DWORD PTR _lpTargetObj$[ebp]
  0137b	8b 4d fc	 mov	 ecx, DWORD PTR _this$[ebp]
  0137e	8b 51 24	 mov	 edx, DWORD PTR [ecx+36]
  01381	89 90 24 1c 00
	00		 mov	 DWORD PTR [eax+7204], edx

; 506  : 	lpTargetObj->m_MonsterSkillElementInfo.m_iSkillElementDefense = iIncDecValue;

  01387	8b 45 f4	 mov	 eax, DWORD PTR _lpTargetObj$[ebp]
  0138a	8b 4d f0	 mov	 ecx, DWORD PTR _iIncDecValue$[ebp]
  0138d	89 88 20 1c 00
	00		 mov	 DWORD PTR [eax+7200], ecx

; 507  : #ifdef IMPERIAL_CONFLICT_NEW
; 508  : 	if ( CImperialGuardian::IsEventMap(lpObj->MapNumber) )
; 509  : 	{
; 510  : 		if ( m_iIncAndDecType == MSE_INCDEC_TYPE_CONSTANTDEC || m_iIncAndDecType == MSE_INCDEC_TYPE_PERCENTDEC )
; 511  : 			gObjApplyBuffEffectDuration(lpTargetObj, 58, 23, 10, 0, 0, 10);
; 512  : 	}
; 513  : #endif
; 514  : 
; 515  : 	return FALSE;

  01393	33 c0		 xor	 eax, eax

; 516  : }

  01395	5f		 pop	 edi
  01396	5e		 pop	 esi
  01397	5b		 pop	 ebx
  01398	8b e5		 mov	 esp, ebp
  0139a	5d		 pop	 ebp
  0139b	c2 08 00	 ret	 8
?ApplyElementDefense@TMonsterSkillElement@@QAEHHH@Z ENDP ; TMonsterSkillElement::ApplyElementDefense
; Function compile flags: /Odtp /ZI
_iIncDecValue$ = -16					; size = 4
_lpTargetObj$ = -12					; size = 4
_lpObj$ = -8						; size = 4
_this$ = -4						; size = 4
_iIndex$ = 8						; size = 4
_iTargetIndex$ = 12					; size = 4
?ApplyElementAttack@TMonsterSkillElement@@QAEHHH@Z PROC	; TMonsterSkillElement::ApplyElementAttack
; _this$ = ecx

; 519  : {

  013a0	55		 push	 ebp
  013a1	8b ec		 mov	 ebp, esp
  013a3	83 ec 50	 sub	 esp, 80			; 00000050H
  013a6	53		 push	 ebx
  013a7	56		 push	 esi
  013a8	57		 push	 edi
  013a9	89 4d fc	 mov	 DWORD PTR _this$[ebp], ecx

; 520  : 	LPOBJ lpObj = &gObj[iIndex];

  013ac	8b 45 08	 mov	 eax, DWORD PTR _iIndex$[ebp]
  013af	69 c0 38 2b 00
	00		 imul	 eax, 11064		; 00002b38H
  013b5	03 05 00 00 00
	00		 add	 eax, DWORD PTR ?gObj@@3PAUOBJECTSTRUCT@@A ; gObj
  013bb	89 45 f8	 mov	 DWORD PTR _lpObj$[ebp], eax

; 521  : 	LPOBJ lpTargetObj = &gObj[iTargetIndex];

  013be	8b 45 0c	 mov	 eax, DWORD PTR _iTargetIndex$[ebp]
  013c1	69 c0 38 2b 00
	00		 imul	 eax, 11064		; 00002b38H
  013c7	03 05 00 00 00
	00		 add	 eax, DWORD PTR ?gObj@@3PAUOBJECTSTRUCT@@A ; gObj
  013cd	89 45 f4	 mov	 DWORD PTR _lpTargetObj$[ebp], eax

; 522  : 	int iIncDecValue = 0;

  013d0	c7 45 f0 00 00
	00 00		 mov	 DWORD PTR _iIncDecValue$[ebp], 0

; 523  : 
; 524  : 	if ( this->m_iIncAndDecType != MSE_INCDEC_TYPE_NONE )

  013d7	8b 45 fc	 mov	 eax, DWORD PTR _this$[ebp]
  013da	83 78 28 00	 cmp	 DWORD PTR [eax+40], 0
  013de	74 58		 je	 SHORT $LN5@ApplyEleme@6

; 525  : 	{
; 526  : 		if ( this->m_iIncAndDecType < MSE_INCDEC_TYPE_CONSTANTINC )

  013e0	8b 45 fc	 mov	 eax, DWORD PTR _this$[ebp]
  013e3	83 78 28 0b	 cmp	 DWORD PTR [eax+40], 11	; 0000000bH
  013e7	7d 2c		 jge	 SHORT $LN4@ApplyEleme@6

; 527  : 		{
; 528  : 			iIncDecValue = lpTargetObj->m_Defense * this->m_iIncAndDecValue / 100;

  013e9	8b 45 f4	 mov	 eax, DWORD PTR _lpTargetObj$[ebp]
  013ec	8b 4d fc	 mov	 ecx, DWORD PTR _this$[ebp]
  013ef	8b 80 94 04 00
	00		 mov	 eax, DWORD PTR [eax+1172]
  013f5	0f af 41 2c	 imul	 eax, DWORD PTR [ecx+44]
  013f9	99		 cdq
  013fa	b9 64 00 00 00	 mov	 ecx, 100		; 00000064H
  013ff	f7 f9		 idiv	 ecx
  01401	89 45 f0	 mov	 DWORD PTR _iIncDecValue$[ebp], eax

; 529  : 
; 530  : 			if ( this->m_iIncAndDecType == MSE_INCDEC_TYPE_PERCENTDEC )

  01404	8b 45 fc	 mov	 eax, DWORD PTR _this$[ebp]
  01407	83 78 28 02	 cmp	 DWORD PTR [eax+40], 2
  0140b	75 08		 jne	 SHORT $LN4@ApplyEleme@6

; 531  : 				iIncDecValue = -iIncDecValue;

  0140d	8b 45 f0	 mov	 eax, DWORD PTR _iIncDecValue$[ebp]
  01410	f7 d8		 neg	 eax
  01412	89 45 f0	 mov	 DWORD PTR _iIncDecValue$[ebp], eax
$LN4@ApplyEleme@6:

; 532  : 		}	
; 533  : 
; 534  : 		if ( this->m_iIncAndDecType >= MSE_INCDEC_TYPE_CONSTANTINC )

  01415	8b 45 fc	 mov	 eax, DWORD PTR _this$[ebp]
  01418	83 78 28 0b	 cmp	 DWORD PTR [eax+40], 11	; 0000000bH
  0141c	7c 1a		 jl	 SHORT $LN5@ApplyEleme@6

; 535  : 		{
; 536  : 			iIncDecValue = this->m_iIncAndDecValue;

  0141e	8b 45 fc	 mov	 eax, DWORD PTR _this$[ebp]
  01421	8b 48 2c	 mov	 ecx, DWORD PTR [eax+44]
  01424	89 4d f0	 mov	 DWORD PTR _iIncDecValue$[ebp], ecx

; 537  : 
; 538  : 			if ( this->m_iIncAndDecType == MSE_INCDEC_TYPE_CONSTANTDEC )

  01427	8b 45 fc	 mov	 eax, DWORD PTR _this$[ebp]
  0142a	83 78 28 0c	 cmp	 DWORD PTR [eax+40], 12	; 0000000cH
  0142e	75 08		 jne	 SHORT $LN5@ApplyEleme@6

; 539  : 				iIncDecValue = -iIncDecValue;

  01430	8b 45 f0	 mov	 eax, DWORD PTR _iIncDecValue$[ebp]
  01433	f7 d8		 neg	 eax
  01435	89 45 f0	 mov	 DWORD PTR _iIncDecValue$[ebp], eax
$LN5@ApplyEleme@6:

; 540  : 		}
; 541  : 	}
; 542  : 
; 543  : 	lpTargetObj->m_MonsterSkillElementInfo.m_iSkillElementAttackTime = this->m_iContinuanceTime;

  01438	8b 45 f4	 mov	 eax, DWORD PTR _lpTargetObj$[ebp]
  0143b	8b 4d fc	 mov	 ecx, DWORD PTR _this$[ebp]
  0143e	8b 51 24	 mov	 edx, DWORD PTR [ecx+36]
  01441	89 90 2c 1c 00
	00		 mov	 DWORD PTR [eax+7212], edx

; 544  : 	lpTargetObj->m_MonsterSkillElementInfo.m_iSkillElementAttack = iIncDecValue;

  01447	8b 45 f4	 mov	 eax, DWORD PTR _lpTargetObj$[ebp]
  0144a	8b 4d f0	 mov	 ecx, DWORD PTR _iIncDecValue$[ebp]
  0144d	89 88 28 1c 00
	00		 mov	 DWORD PTR [eax+7208], ecx

; 545  : 
; 546  : 	return FALSE;

  01453	33 c0		 xor	 eax, eax

; 547  : }

  01455	5f		 pop	 edi
  01456	5e		 pop	 esi
  01457	5b		 pop	 ebx
  01458	8b e5		 mov	 esp, ebp
  0145a	5d		 pop	 ebp
  0145b	c2 08 00	 ret	 8
?ApplyElementAttack@TMonsterSkillElement@@QAEHHH@Z ENDP	; TMonsterSkillElement::ApplyElementAttack
_TEXT	ENDS
EXTRN	?GCItemDurSend@@YAXHEEE@Z:PROC			; GCItemDurSend
EXTRN	?IsLuckyItemEquipment@LuckyItemManager@@QAEHH@Z:PROC ; LuckyItemManager::IsLuckyItemEquipment
EXTRN	?g_LuckyItemManager@@3ULuckyItemManager@@A:BYTE	; g_LuckyItemManager
EXTRN	?IsItem@CItem@@QAEHXZ:PROC			; CItem::IsItem
; Function compile flags: /Odtp /ZI
_TEXT	SEGMENT
tv206 = -104						; size = 4
tv204 = -100						; size = 4
tv201 = -94						; size = 2
_iIncDecValue$ = -28					; size = 4
_iDurEquipment$ = -24					; size = 4
_lpEquipment$ = -20					; size = 4
_iEquipmentPos$ = -16					; size = 4
_lpTargetObj$ = -12					; size = 4
_lpObj$ = -8						; size = 4
_this$ = -4						; size = 4
_iIndex$ = 8						; size = 4
_iTargetIndex$ = 12					; size = 4
?ApplyElementDurability@TMonsterSkillElement@@QAEHHH@Z PROC ; TMonsterSkillElement::ApplyElementDurability
; _this$ = ecx

; 550  : {

  01460	55		 push	 ebp
  01461	8b ec		 mov	 ebp, esp
  01463	83 ec 68	 sub	 esp, 104		; 00000068H
  01466	53		 push	 ebx
  01467	56		 push	 esi
  01468	57		 push	 edi
  01469	89 4d fc	 mov	 DWORD PTR _this$[ebp], ecx

; 551  : 	LPOBJ lpObj = &gObj[iIndex];

  0146c	8b 45 08	 mov	 eax, DWORD PTR _iIndex$[ebp]
  0146f	69 c0 38 2b 00
	00		 imul	 eax, 11064		; 00002b38H
  01475	03 05 00 00 00
	00		 add	 eax, DWORD PTR ?gObj@@3PAUOBJECTSTRUCT@@A ; gObj
  0147b	89 45 f8	 mov	 DWORD PTR _lpObj$[ebp], eax

; 552  : 	LPOBJ lpTargetObj = &gObj[iTargetIndex];

  0147e	8b 45 0c	 mov	 eax, DWORD PTR _iTargetIndex$[ebp]
  01481	69 c0 38 2b 00
	00		 imul	 eax, 11064		; 00002b38H
  01487	03 05 00 00 00
	00		 add	 eax, DWORD PTR ?gObj@@3PAUOBJECTSTRUCT@@A ; gObj
  0148d	89 45 f4	 mov	 DWORD PTR _lpTargetObj$[ebp], eax

; 553  : 
; 554  : 	if ( lpTargetObj->Type != OBJ_USER )

  01490	8b 45 f4	 mov	 eax, DWORD PTR _lpTargetObj$[ebp]
  01493	0f b7 48 68	 movzx	 ecx, WORD PTR [eax+104]
  01497	83 f9 01	 cmp	 ecx, 1
  0149a	74 07		 je	 SHORT $LN11@ApplyEleme@7

; 555  : 		return FALSE;

  0149c	33 c0		 xor	 eax, eax
  0149e	e9 39 01 00 00	 jmp	 $LN12@ApplyEleme@7
$LN11@ApplyEleme@7:

; 556  : 
; 557  : 	int iEquipmentPos = rand()%6+2;	// Armors

  014a3	e8 00 00 00 00	 call	 _rand
  014a8	99		 cdq
  014a9	b9 06 00 00 00	 mov	 ecx, 6
  014ae	f7 f9		 idiv	 ecx
  014b0	83 c2 02	 add	 edx, 2
  014b3	89 55 f0	 mov	 DWORD PTR _iEquipmentPos$[ebp], edx

; 558  : 	CItem * lpEquipment = &lpTargetObj->pInventory[iEquipmentPos];

  014b6	8b 45 f0	 mov	 eax, DWORD PTR _iEquipmentPos$[ebp]
  014b9	69 c0 d4 00 00
	00		 imul	 eax, 212		; 000000d4H
  014bf	8b 4d f4	 mov	 ecx, DWORD PTR _lpTargetObj$[ebp]
  014c2	03 81 24 0e 00
	00		 add	 eax, DWORD PTR [ecx+3620]
  014c8	89 45 ec	 mov	 DWORD PTR _lpEquipment$[ebp], eax

; 559  : 
; 560  : 	if ( lpEquipment == NULL || lpEquipment->IsItem() == FALSE )

  014cb	74 0c		 je	 SHORT $LN9@ApplyEleme@7
  014cd	8b 4d ec	 mov	 ecx, DWORD PTR _lpEquipment$[ebp]
  014d0	e8 00 00 00 00	 call	 ?IsItem@CItem@@QAEHXZ	; CItem::IsItem
  014d5	85 c0		 test	 eax, eax
  014d7	75 07		 jne	 SHORT $LN10@ApplyEleme@7
$LN9@ApplyEleme@7:

; 561  : 		return FALSE;

  014d9	33 c0		 xor	 eax, eax
  014db	e9 fc 00 00 00	 jmp	 $LN12@ApplyEleme@7
$LN10@ApplyEleme@7:

; 562  : 
; 563  : #ifdef LUCKYITEM
; 564  : 	if( g_LuckyItemManager.IsLuckyItemEquipment(lpEquipment->m_Type) )

  014e0	8b 45 ec	 mov	 eax, DWORD PTR _lpEquipment$[ebp]
  014e3	0f bf 48 06	 movsx	 ecx, WORD PTR [eax+6]
  014e7	51		 push	 ecx
  014e8	b9 00 00 00 00	 mov	 ecx, OFFSET ?g_LuckyItemManager@@3ULuckyItemManager@@A ; g_LuckyItemManager
  014ed	e8 00 00 00 00	 call	 ?IsLuckyItemEquipment@LuckyItemManager@@QAEHH@Z ; LuckyItemManager::IsLuckyItemEquipment
  014f2	85 c0		 test	 eax, eax
  014f4	74 07		 je	 SHORT $LN8@ApplyEleme@7

; 565  :     {
; 566  : 		return false;

  014f6	33 c0		 xor	 eax, eax
  014f8	e9 df 00 00 00	 jmp	 $LN12@ApplyEleme@7
$LN8@ApplyEleme@7:

; 567  :     }
; 568  : #endif
; 569  : 
; 570  : 	int iDurEquipment = (int)lpEquipment->m_Durability;

  014fd	8b 45 ec	 mov	 eax, DWORD PTR _lpEquipment$[ebp]
  01500	d9 40 24	 fld	 DWORD PTR [eax+36]
  01503	e8 00 00 00 00	 call	 __ftol2_sse
  01508	89 45 e8	 mov	 DWORD PTR _iDurEquipment$[ebp], eax

; 571  : 	int iIncDecValue = 0;

  0150b	c7 45 e4 00 00
	00 00		 mov	 DWORD PTR _iIncDecValue$[ebp], 0

; 572  : 
; 573  : 	if ( this->m_iIncAndDecType != MSE_INCDEC_TYPE_NONE )

  01512	8b 45 fc	 mov	 eax, DWORD PTR _this$[ebp]
  01515	83 78 28 00	 cmp	 DWORD PTR [eax+40], 0
  01519	74 54		 je	 SHORT $LN3@ApplyEleme@7

; 574  : 	{
; 575  : 		if ( this->m_iIncAndDecType < MSE_INCDEC_TYPE_CONSTANTINC )

  0151b	8b 45 fc	 mov	 eax, DWORD PTR _this$[ebp]
  0151e	83 78 28 0b	 cmp	 DWORD PTR [eax+40], 11	; 0000000bH
  01522	7d 28		 jge	 SHORT $LN5@ApplyEleme@7

; 576  : 		{
; 577  : 			iIncDecValue = iDurEquipment * this->m_iIncAndDecValue / 100;

  01524	8b 45 fc	 mov	 eax, DWORD PTR _this$[ebp]
  01527	8b 4d e8	 mov	 ecx, DWORD PTR _iDurEquipment$[ebp]
  0152a	0f af 48 2c	 imul	 ecx, DWORD PTR [eax+44]
  0152e	8b c1		 mov	 eax, ecx
  01530	99		 cdq
  01531	b9 64 00 00 00	 mov	 ecx, 100		; 00000064H
  01536	f7 f9		 idiv	 ecx
  01538	89 45 e4	 mov	 DWORD PTR _iIncDecValue$[ebp], eax

; 578  : 
; 579  : 			if ( this->m_iIncAndDecType == MSE_INCDEC_TYPE_PERCENTDEC )

  0153b	8b 45 fc	 mov	 eax, DWORD PTR _this$[ebp]
  0153e	83 78 28 02	 cmp	 DWORD PTR [eax+40], 2
  01542	75 08		 jne	 SHORT $LN5@ApplyEleme@7

; 580  : 				iIncDecValue = -iIncDecValue;

  01544	8b 45 e4	 mov	 eax, DWORD PTR _iIncDecValue$[ebp]
  01547	f7 d8		 neg	 eax
  01549	89 45 e4	 mov	 DWORD PTR _iIncDecValue$[ebp], eax
$LN5@ApplyEleme@7:

; 581  : 		}	
; 582  : 
; 583  : 		if ( this->m_iIncAndDecType >= MSE_INCDEC_TYPE_CONSTANTINC )

  0154c	8b 45 fc	 mov	 eax, DWORD PTR _this$[ebp]
  0154f	83 78 28 0b	 cmp	 DWORD PTR [eax+40], 11	; 0000000bH
  01553	7c 1a		 jl	 SHORT $LN3@ApplyEleme@7

; 584  : 		{
; 585  : 			iIncDecValue = this->m_iIncAndDecValue;

  01555	8b 45 fc	 mov	 eax, DWORD PTR _this$[ebp]
  01558	8b 48 2c	 mov	 ecx, DWORD PTR [eax+44]
  0155b	89 4d e4	 mov	 DWORD PTR _iIncDecValue$[ebp], ecx

; 586  : 
; 587  : 			if ( this->m_iIncAndDecType == MSE_INCDEC_TYPE_CONSTANTDEC )

  0155e	8b 45 fc	 mov	 eax, DWORD PTR _this$[ebp]
  01561	83 78 28 0c	 cmp	 DWORD PTR [eax+40], 12	; 0000000cH
  01565	75 08		 jne	 SHORT $LN3@ApplyEleme@7

; 588  : 				iIncDecValue = -iIncDecValue;

  01567	8b 45 e4	 mov	 eax, DWORD PTR _iIncDecValue$[ebp]
  0156a	f7 d8		 neg	 eax
  0156c	89 45 e4	 mov	 DWORD PTR _iIncDecValue$[ebp], eax
$LN3@ApplyEleme@7:

; 589  : 		}
; 590  : 	}
; 591  : 
; 592  : 	iDurEquipment += iIncDecValue;

  0156f	8b 45 e8	 mov	 eax, DWORD PTR _iDurEquipment$[ebp]
  01572	03 45 e4	 add	 eax, DWORD PTR _iIncDecValue$[ebp]
  01575	89 45 e8	 mov	 DWORD PTR _iDurEquipment$[ebp], eax

; 593  : 
; 594  : 	if ( lpEquipment )

  01578	83 7d ec 00	 cmp	 DWORD PTR _lpEquipment$[ebp], 0
  0157c	74 5c		 je	 SHORT $LN2@ApplyEleme@7

; 595  : 	{
; 596  : 		lpEquipment->m_Durability = (float)iDurEquipment;

  0157e	db 45 e8	 fild	 DWORD PTR _iDurEquipment$[ebp]
  01581	8b 45 ec	 mov	 eax, DWORD PTR _lpEquipment$[ebp]
  01584	d9 58 24	 fstp	 DWORD PTR [eax+36]

; 597  : 
; 598  : 		if ( lpEquipment->m_Durability < 0.0f )

  01587	8b 45 ec	 mov	 eax, DWORD PTR _lpEquipment$[ebp]
  0158a	d9 40 24	 fld	 DWORD PTR [eax+36]
  0158d	dc 1d 00 00 00
	00		 fcomp	 QWORD PTR __real@0000000000000000
  01593	df e0		 fnstsw	 ax
  01595	f6 c4 05	 test	 ah, 5
  01598	7a 08		 jp	 SHORT $LN1@ApplyEleme@7

; 599  : 			lpEquipment->m_Durability = 0;

  0159a	8b 45 ec	 mov	 eax, DWORD PTR _lpEquipment$[ebp]
  0159d	d9 ee		 fldz
  0159f	d9 58 24	 fstp	 DWORD PTR [eax+36]
$LN1@ApplyEleme@7:

; 600  : 
; 601  : 		GCItemDurSend(lpTargetObj->m_Index, (BYTE)iEquipmentPos, (BYTE)lpEquipment->m_Durability, 0);

  015a2	6a 00		 push	 0
  015a4	8b 45 ec	 mov	 eax, DWORD PTR _lpEquipment$[ebp]
  015a7	d9 40 24	 fld	 DWORD PTR [eax+36]
  015aa	d9 7d a2	 fnstcw	 WORD PTR tv201[ebp]
  015ad	0f b7 45 a2	 movzx	 eax, WORD PTR tv201[ebp]
  015b1	0d 00 0c 00 00	 or	 eax, 3072		; 00000c00H
  015b6	89 45 9c	 mov	 DWORD PTR tv204[ebp], eax
  015b9	d9 6d 9c	 fldcw	 WORD PTR tv204[ebp]
  015bc	db 5d 98	 fistp	 DWORD PTR tv206[ebp]
  015bf	d9 6d a2	 fldcw	 WORD PTR tv201[ebp]
  015c2	0f b6 4d 98	 movzx	 ecx, BYTE PTR tv206[ebp]
  015c6	51		 push	 ecx
  015c7	0f b6 55 f0	 movzx	 edx, BYTE PTR _iEquipmentPos$[ebp]
  015cb	52		 push	 edx
  015cc	8b 45 f4	 mov	 eax, DWORD PTR _lpTargetObj$[ebp]
  015cf	8b 08		 mov	 ecx, DWORD PTR [eax]
  015d1	51		 push	 ecx
  015d2	e8 00 00 00 00	 call	 ?GCItemDurSend@@YAXHEEE@Z ; GCItemDurSend
  015d7	83 c4 10	 add	 esp, 16			; 00000010H
$LN2@ApplyEleme@7:

; 602  : 	}
; 603  : 
; 604  : 	return FALSE;

  015da	33 c0		 xor	 eax, eax
$LN12@ApplyEleme@7:

; 605  : }

  015dc	5f		 pop	 edi
  015dd	5e		 pop	 esi
  015de	5b		 pop	 ebx
  015df	8b e5		 mov	 esp, ebp
  015e1	5d		 pop	 ebp
  015e2	c2 08 00	 ret	 8
?ApplyElementDurability@TMonsterSkillElement@@QAEHHH@Z ENDP ; TMonsterSkillElement::ApplyElementDurability
_TEXT	ENDS
PUBLIC	??_C@_0DP@PHICBOGE@?$FLTMonsterSkillElement?$FN?$FLApplyElem@ ; `string'
EXTRN	?gObjViewportListCreate@@YAXF@Z:PROC		; gObjViewportListCreate
EXTRN	?ResetAll@TMonsterAIAgro@@QAEXXZ:PROC		; TMonsterAIAgro::ResetAll
EXTRN	?CreateFrustrum@@YAXHHH@Z:PROC			; CreateFrustrum
EXTRN	?gObjMonsterHitDamageInit@@YAXPAUOBJECTSTRUCT@@@Z:PROC ; gObjMonsterHitDamageInit
EXTRN	__imp__GetTickCount@0:PROC
EXTRN	?GetAttr@MapClass@@QAEEHH@Z:PROC		; MapClass::GetAttr
EXTRN	?MapC@@3PAVMapClass@@A:BYTE			; MapC
EXTRN	?gObjViewportClose@@YAXPAUOBJECTSTRUCT@@@Z:PROC	; gObjViewportClose
EXTRN	?gObjViewportListProtocolDestroy@@YAXPAUOBJECTSTRUCT@@@Z:PROC ; gObjViewportListProtocolDestroy
EXTRN	?gObjTimeCheckSelfDefense@@YAXPAUOBJECTSTRUCT@@@Z:PROC ; gObjTimeCheckSelfDefense
EXTRN	?gObjClearStandardBuffEffect@@YAEPAUOBJECTSTRUCT@@H@Z:PROC ; gObjClearStandardBuffEffect
EXTRN	?gObjRemoveBuffEffect@@YAEPAUOBJECTSTRUCT@@H@Z:PROC ; gObjRemoveBuffEffect
;	COMDAT ??_C@_0DP@PHICBOGE@?$FLTMonsterSkillElement?$FN?$FLApplyElem@
CONST	SEGMENT
??_C@_0DP@PHICBOGE@?$FLTMonsterSkillElement?$FN?$FLApplyElem@ DB '[TMonst'
	DB	'erSkillElement][ApplyElementSummon] Selupan use summon.', 00H ; `string'
; Function compile flags: /Odtp /ZI
CONST	ENDS
_TEXT	SEGMENT
_btMapAttr$229480 = -29					; size = 1
_iCount$ = -28						; size = 4
_bGetPosition$ = -24					; size = 4
_cY$ = -18						; size = 1
_cX$ = -17						; size = 1
_i$229468 = -16						; size = 4
_lpTargetObj$ = -12					; size = 4
_lpObj$ = -8						; size = 4
_this$ = -4						; size = 4
_iIndex$ = 8						; size = 4
_iTargetIndex$ = 12					; size = 4
?ApplyElementSummon@TMonsterSkillElement@@QAEHHH@Z PROC	; TMonsterSkillElement::ApplyElementSummon
; _this$ = ecx

; 608  : {

  015f0	55		 push	 ebp
  015f1	8b ec		 mov	 ebp, esp
  015f3	83 ec 60	 sub	 esp, 96			; 00000060H
  015f6	53		 push	 ebx
  015f7	56		 push	 esi
  015f8	57		 push	 edi
  015f9	89 4d fc	 mov	 DWORD PTR _this$[ebp], ecx

; 609  : 	LPOBJ lpObj = &gObj[iIndex];

  015fc	8b 45 08	 mov	 eax, DWORD PTR _iIndex$[ebp]
  015ff	69 c0 38 2b 00
	00		 imul	 eax, 11064		; 00002b38H
  01605	03 05 00 00 00
	00		 add	 eax, DWORD PTR ?gObj@@3PAUOBJECTSTRUCT@@A ; gObj
  0160b	89 45 f8	 mov	 DWORD PTR _lpObj$[ebp], eax

; 610  : 	LPOBJ lpTargetObj = &gObj[iTargetIndex];

  0160e	8b 45 0c	 mov	 eax, DWORD PTR _iTargetIndex$[ebp]
  01611	69 c0 38 2b 00
	00		 imul	 eax, 11064		; 00002b38H
  01617	03 05 00 00 00
	00		 add	 eax, DWORD PTR ?gObj@@3PAUOBJECTSTRUCT@@A ; gObj
  0161d	89 45 f4	 mov	 DWORD PTR _lpTargetObj$[ebp], eax

; 611  : 
; 612  : 	if (lpObj->Class == 459	&& lpObj->Connected == PLAYER_PLAYING && lpObj->MapNumber == MAP_INDEX_RAKLION_BOSS && iIndex == iTargetIndex )//Season 4.5 addon

  01620	8b 45 f8	 mov	 eax, DWORD PTR _lpObj$[ebp]
  01623	0f b7 88 b8 00
	00 00		 movzx	 ecx, WORD PTR [eax+184]
  0162a	81 f9 cb 01 00
	00		 cmp	 ecx, 459		; 000001cbH
  01630	75 35		 jne	 SHORT $LN11@ApplyEleme@8
  01632	8b 45 f8	 mov	 eax, DWORD PTR _lpObj$[ebp]
  01635	83 78 04 03	 cmp	 DWORD PTR [eax+4], 3
  01639	75 2c		 jne	 SHORT $LN11@ApplyEleme@8
  0163b	8b 45 f8	 mov	 eax, DWORD PTR _lpObj$[ebp]
  0163e	0f b6 88 49 01
	00 00		 movzx	 ecx, BYTE PTR [eax+329]
  01645	83 f9 3a	 cmp	 ecx, 58			; 0000003aH
  01648	75 1d		 jne	 SHORT $LN11@ApplyEleme@8
  0164a	8b 45 08	 mov	 eax, DWORD PTR _iIndex$[ebp]
  0164d	3b 45 0c	 cmp	 eax, DWORD PTR _iTargetIndex$[ebp]
  01650	75 15		 jne	 SHORT $LN11@ApplyEleme@8

; 613  : 	{
; 614  : 		LogAddTD("[TMonsterSkillElement][ApplyElementSummon] Selupan use summon.");

  01652	68 00 00 00 00	 push	 OFFSET ??_C@_0DP@PHICBOGE@?$FLTMonsterSkillElement?$FN?$FLApplyElem@
  01657	ff 15 00 00 00
	00		 call	 DWORD PTR ?LogAddTD@@3P6AXPADZZA ; LogAddTD
  0165d	83 c4 04	 add	 esp, 4

; 615  : 		return FALSE;

  01660	33 c0		 xor	 eax, eax
  01662	e9 b7 03 00 00	 jmp	 $LN12@ApplyEleme@8
$LN11@ApplyEleme@8:

; 616  : 	}
; 617  : 
; 618  : 	if ( lpTargetObj->Connected < PLAYER_PLAYING || lpTargetObj->Type != OBJ_MONSTER )

  01667	8b 45 f4	 mov	 eax, DWORD PTR _lpTargetObj$[ebp]
  0166a	83 78 04 03	 cmp	 DWORD PTR [eax+4], 3
  0166e	7c 0c		 jl	 SHORT $LN9@ApplyEleme@8
  01670	8b 45 f4	 mov	 eax, DWORD PTR _lpTargetObj$[ebp]
  01673	0f b7 48 68	 movzx	 ecx, WORD PTR [eax+104]
  01677	83 f9 02	 cmp	 ecx, 2
  0167a	74 07		 je	 SHORT $LN10@ApplyEleme@8
$LN9@ApplyEleme@8:

; 619  : 		 return FALSE;

  0167c	33 c0		 xor	 eax, eax
  0167e	e9 9b 03 00 00	 jmp	 $LN12@ApplyEleme@8
$LN10@ApplyEleme@8:

; 620  : 
; 621  : 	lpTargetObj->Life = lpTargetObj->MaxLife + lpTargetObj->AddLife;

  01683	8b 45 f4	 mov	 eax, DWORD PTR _lpTargetObj$[ebp]
  01686	db 80 4c 01 00
	00		 fild	 DWORD PTR [eax+332]
  0168c	8b 4d f4	 mov	 ecx, DWORD PTR _lpTargetObj$[ebp]
  0168f	d8 81 00 01 00
	00		 fadd	 DWORD PTR [ecx+256]
  01695	8b 55 f4	 mov	 edx, DWORD PTR _lpTargetObj$[ebp]
  01698	d9 9a fc 00 00
	00		 fstp	 DWORD PTR [edx+252]

; 622  : 	lpTargetObj->Mana = lpTargetObj->MaxMana + lpTargetObj->AddMana;

  0169e	8b 45 f4	 mov	 eax, DWORD PTR _lpTargetObj$[ebp]
  016a1	db 80 50 01 00
	00		 fild	 DWORD PTR [eax+336]
  016a7	8b 4d f4	 mov	 ecx, DWORD PTR _lpTargetObj$[ebp]
  016aa	d8 81 14 01 00
	00		 fadd	 DWORD PTR [ecx+276]
  016b0	8b 55 f4	 mov	 edx, DWORD PTR _lpTargetObj$[ebp]
  016b3	d9 9a 10 01 00
	00		 fstp	 DWORD PTR [edx+272]

; 623  : 	lpTargetObj->Live = TRUE;

  016b9	8b 45 f4	 mov	 eax, DWORD PTR _lpTargetObj$[ebp]
  016bc	c6 40 6a 01	 mov	 BYTE PTR [eax+106], 1

; 624  : 
; 625  : 	gObjRemoveBuffEffect(lpTargetObj, AT_POISON);

  016c0	6a 37		 push	 55			; 00000037H
  016c2	8b 45 f4	 mov	 eax, DWORD PTR _lpTargetObj$[ebp]
  016c5	50		 push	 eax
  016c6	e8 00 00 00 00	 call	 ?gObjRemoveBuffEffect@@YAEPAUOBJECTSTRUCT@@H@Z ; gObjRemoveBuffEffect
  016cb	83 c4 08	 add	 esp, 8

; 626  : 	gObjRemoveBuffEffect(lpTargetObj, AT_ICE);

  016ce	6a 38		 push	 56			; 00000038H
  016d0	8b 45 f4	 mov	 eax, DWORD PTR _lpTargetObj$[ebp]
  016d3	50		 push	 eax
  016d4	e8 00 00 00 00	 call	 ?gObjRemoveBuffEffect@@YAEPAUOBJECTSTRUCT@@H@Z ; gObjRemoveBuffEffect
  016d9	83 c4 08	 add	 esp, 8

; 627  : 	gObjRemoveBuffEffect(lpTargetObj, AT_ICE_ARROW);

  016dc	6a 39		 push	 57			; 00000039H
  016de	8b 45 f4	 mov	 eax, DWORD PTR _lpTargetObj$[ebp]
  016e1	50		 push	 eax
  016e2	e8 00 00 00 00	 call	 ?gObjRemoveBuffEffect@@YAEPAUOBJECTSTRUCT@@H@Z ; gObjRemoveBuffEffect
  016e7	83 c4 08	 add	 esp, 8

; 628  : 
; 629  : 	lpTargetObj->m_ViewState = 0;

  016ea	8b 45 f4	 mov	 eax, DWORD PTR _lpTargetObj$[ebp]
  016ed	c6 80 26 02 00
	00 00		 mov	 BYTE PTR [eax+550], 0

; 630  : 	lpTargetObj->Teleport = 0;

  016f4	8b 45 f4	 mov	 eax, DWORD PTR _lpTargetObj$[ebp]
  016f7	c6 80 a0 03 00
	00 00		 mov	 BYTE PTR [eax+928], 0

; 631  : 
; 632  : 	gObjClearStandardBuffEffect(lpTargetObj, AT_GENERAL);

  016fe	6a 02		 push	 2
  01700	8b 45 f4	 mov	 eax, DWORD PTR _lpTargetObj$[ebp]
  01703	50		 push	 eax
  01704	e8 00 00 00 00	 call	 ?gObjClearStandardBuffEffect@@YAEPAUOBJECTSTRUCT@@H@Z ; gObjClearStandardBuffEffect
  01709	83 c4 08	 add	 esp, 8

; 633  : 
; 634  : 	for ( int i=0;i<MAX_SELF_DEFENSE;i++)

  0170c	c7 45 f0 00 00
	00 00		 mov	 DWORD PTR _i$229468[ebp], 0
  01713	eb 09		 jmp	 SHORT $LN8@ApplyEleme@8
$LN7@ApplyEleme@8:
  01715	8b 45 f0	 mov	 eax, DWORD PTR _i$229468[ebp]
  01718	83 c0 01	 add	 eax, 1
  0171b	89 45 f0	 mov	 DWORD PTR _i$229468[ebp], eax
$LN8@ApplyEleme@8:
  0171e	83 7d f0 07	 cmp	 DWORD PTR _i$229468[ebp], 7
  01722	7d 13		 jge	 SHORT $LN6@ApplyEleme@8

; 635  : 	{
; 636  : 		lpTargetObj->SelfDefenseTime[i] = 0;

  01724	8b 45 f0	 mov	 eax, DWORD PTR _i$229468[ebp]
  01727	8b 4d f4	 mov	 ecx, DWORD PTR _lpTargetObj$[ebp]
  0172a	c7 84 81 00 04
	00 00 00 00 00
	00		 mov	 DWORD PTR [ecx+eax*4+1024], 0

; 637  : 	}

  01735	eb de		 jmp	 SHORT $LN7@ApplyEleme@8
$LN6@ApplyEleme@8:

; 638  : 
; 639  : 	gObjTimeCheckSelfDefense(lpTargetObj);

  01737	8b 45 f4	 mov	 eax, DWORD PTR _lpTargetObj$[ebp]
  0173a	50		 push	 eax
  0173b	e8 00 00 00 00	 call	 ?gObjTimeCheckSelfDefense@@YAXPAUOBJECTSTRUCT@@@Z ; gObjTimeCheckSelfDefense
  01740	83 c4 04	 add	 esp, 4

; 640  : 	gObjViewportListProtocolDestroy(lpTargetObj);

  01743	8b 45 f4	 mov	 eax, DWORD PTR _lpTargetObj$[ebp]
  01746	50		 push	 eax
  01747	e8 00 00 00 00	 call	 ?gObjViewportListProtocolDestroy@@YAXPAUOBJECTSTRUCT@@@Z ; gObjViewportListProtocolDestroy
  0174c	83 c4 04	 add	 esp, 4

; 641  : 	gObjViewportClose(lpTargetObj);

  0174f	8b 45 f4	 mov	 eax, DWORD PTR _lpTargetObj$[ebp]
  01752	50		 push	 eax
  01753	e8 00 00 00 00	 call	 ?gObjViewportClose@@YAXPAUOBJECTSTRUCT@@@Z ; gObjViewportClose
  01758	83 c4 04	 add	 esp, 4

; 642  : 	lpTargetObj->m_ActState.Attack = 0;

  0175b	8b 45 f4	 mov	 eax, DWORD PTR _lpTargetObj$[ebp]
  0175e	8b 88 18 02 00
	00		 mov	 ecx, DWORD PTR [eax+536]
  01764	83 e1 fd	 and	 ecx, -3			; fffffffdH
  01767	8b 55 f4	 mov	 edx, DWORD PTR _lpTargetObj$[ebp]
  0176a	89 8a 18 02 00
	00		 mov	 DWORD PTR [edx+536], ecx

; 643  : 	lpTargetObj->m_ActState.EmotionCount = 0;

  01770	8b 45 f4	 mov	 eax, DWORD PTR _lpTargetObj$[ebp]
  01773	8b 88 18 02 00
	00		 mov	 ecx, DWORD PTR [eax+536]
  01779	81 e1 ff 00 ff
	ff		 and	 ecx, -65281		; ffff00ffH
  0177f	8b 55 f4	 mov	 edx, DWORD PTR _lpTargetObj$[ebp]
  01782	89 8a 18 02 00
	00		 mov	 DWORD PTR [edx+536], ecx

; 644  : 	lpTargetObj->m_ActState.Escape = 0;

  01788	8b 45 f4	 mov	 eax, DWORD PTR _lpTargetObj$[ebp]
  0178b	8b 88 18 02 00
	00		 mov	 ecx, DWORD PTR [eax+536]
  01791	83 e1 f7	 and	 ecx, -9			; fffffff7H
  01794	8b 55 f4	 mov	 edx, DWORD PTR _lpTargetObj$[ebp]
  01797	89 8a 18 02 00
	00		 mov	 DWORD PTR [edx+536], ecx

; 645  : 	lpTargetObj->m_ActState.Move = 0;

  0179d	8b 45 f4	 mov	 eax, DWORD PTR _lpTargetObj$[ebp]
  017a0	8b 88 18 02 00
	00		 mov	 ecx, DWORD PTR [eax+536]
  017a6	83 e1 fb	 and	 ecx, -5			; fffffffbH
  017a9	8b 55 f4	 mov	 edx, DWORD PTR _lpTargetObj$[ebp]
  017ac	89 8a 18 02 00
	00		 mov	 DWORD PTR [edx+536], ecx

; 646  : 	lpTargetObj->m_ActState.Rest = 0;

  017b2	8b 45 f4	 mov	 eax, DWORD PTR _lpTargetObj$[ebp]
  017b5	8b 88 18 02 00
	00		 mov	 ecx, DWORD PTR [eax+536]
  017bb	83 e1 fe	 and	 ecx, -2			; fffffffeH
  017be	8b 55 f4	 mov	 edx, DWORD PTR _lpTargetObj$[ebp]
  017c1	89 8a 18 02 00
	00		 mov	 DWORD PTR [edx+536], ecx

; 647  : 	lpTargetObj->m_ActState.Emotion = 0;

  017c7	8b 45 f4	 mov	 eax, DWORD PTR _lpTargetObj$[ebp]
  017ca	8b 88 18 02 00
	00		 mov	 ecx, DWORD PTR [eax+536]
  017d0	81 e1 0f ff ff
	ff		 and	 ecx, -241		; ffffff0fH
  017d6	8b 55 f4	 mov	 edx, DWORD PTR _lpTargetObj$[ebp]
  017d9	89 8a 18 02 00
	00		 mov	 DWORD PTR [edx+536], ecx

; 648  : 	lpTargetObj->TargetNumber = -1;

  017df	83 c8 ff	 or	 eax, -1
  017e2	8b 4d f4	 mov	 ecx, DWORD PTR _lpTargetObj$[ebp]
  017e5	66 89 81 58 04
	00 00		 mov	 WORD PTR [ecx+1112], ax

; 649  : 	lpTargetObj->NextActionTime = 5000;

  017ec	8b 45 f4	 mov	 eax, DWORD PTR _lpTargetObj$[ebp]
  017ef	c7 80 bc 03 00
	00 88 13 00 00	 mov	 DWORD PTR [eax+956], 5000 ; 00001388H

; 650  : 
; 651  : 	if ( this->m_iIncAndDecValue < 0 )

  017f9	8b 45 fc	 mov	 eax, DWORD PTR _this$[ebp]
  017fc	83 78 2c 00	 cmp	 DWORD PTR [eax+44], 0
  01800	7d 0a		 jge	 SHORT $LN5@ApplyEleme@8

; 652  : 	{
; 653  : 		this->m_iIncAndDecValue = 10;

  01802	8b 45 fc	 mov	 eax, DWORD PTR _this$[ebp]
  01805	c7 40 2c 0a 00
	00 00		 mov	 DWORD PTR [eax+44], 10	; 0000000aH
$LN5@ApplyEleme@8:

; 654  : 	}
; 655  : 
; 656  : 	BYTE cX;
; 657  : 	BYTE cY;
; 658  : 	BOOL bGetPosition = FALSE;

  0180c	c7 45 e8 00 00
	00 00		 mov	 DWORD PTR _bGetPosition$[ebp], 0

; 659  : 	int iCount = 100;

  01813	c7 45 e4 64 00
	00 00		 mov	 DWORD PTR _iCount$[ebp], 100 ; 00000064H
$LN4@ApplyEleme@8:

; 660  : 
; 661  : 
; 662  : 	while ( iCount-- != 0 )

  0181a	8b 45 e4	 mov	 eax, DWORD PTR _iCount$[ebp]
  0181d	8b 4d e4	 mov	 ecx, DWORD PTR _iCount$[ebp]
  01820	83 e9 01	 sub	 ecx, 1
  01823	89 4d e4	 mov	 DWORD PTR _iCount$[ebp], ecx
  01826	85 c0		 test	 eax, eax
  01828	0f 84 be 00 00
	00		 je	 $LN3@ApplyEleme@8

; 663  : 	{
; 664  : 		cX = ( rand() % (this->m_iIncAndDecValue+1) ) * (((rand()%2==0)?-1:1)) + lpObj->X;

  0182e	e8 00 00 00 00	 call	 _rand
  01833	8b 4d fc	 mov	 ecx, DWORD PTR _this$[ebp]
  01836	8b 49 2c	 mov	 ecx, DWORD PTR [ecx+44]
  01839	83 c1 01	 add	 ecx, 1
  0183c	99		 cdq
  0183d	f7 f9		 idiv	 ecx
  0183f	8b da		 mov	 ebx, edx
  01841	e8 00 00 00 00	 call	 _rand
  01846	25 01 00 00 80	 and	 eax, -2147483647	; 80000001H
  0184b	79 05		 jns	 SHORT $LN14@ApplyEleme@8
  0184d	48		 dec	 eax
  0184e	83 c8 fe	 or	 eax, -2			; fffffffeH
  01851	40		 inc	 eax
$LN14@ApplyEleme@8:
  01852	f7 d8		 neg	 eax
  01854	1b c0		 sbb	 eax, eax
  01856	83 e0 02	 and	 eax, 2
  01859	83 c0 ff	 add	 eax, -1
  0185c	0f af d8	 imul	 ebx, eax
  0185f	8b 55 f8	 mov	 edx, DWORD PTR _lpObj$[ebp]
  01862	0f bf 82 44 01
	00 00		 movsx	 eax, WORD PTR [edx+324]
  01869	03 d8		 add	 ebx, eax
  0186b	88 5d ef	 mov	 BYTE PTR _cX$[ebp], bl

; 665  : 		cY = ( rand() % (this->m_iIncAndDecValue+1) ) * (((rand()%2==0)?-1:1)) + lpObj->Y;

  0186e	e8 00 00 00 00	 call	 _rand
  01873	8b 4d fc	 mov	 ecx, DWORD PTR _this$[ebp]
  01876	8b 49 2c	 mov	 ecx, DWORD PTR [ecx+44]
  01879	83 c1 01	 add	 ecx, 1
  0187c	99		 cdq
  0187d	f7 f9		 idiv	 ecx
  0187f	8b da		 mov	 ebx, edx
  01881	e8 00 00 00 00	 call	 _rand
  01886	25 01 00 00 80	 and	 eax, -2147483647	; 80000001H
  0188b	79 05		 jns	 SHORT $LN15@ApplyEleme@8
  0188d	48		 dec	 eax
  0188e	83 c8 fe	 or	 eax, -2			; fffffffeH
  01891	40		 inc	 eax
$LN15@ApplyEleme@8:
  01892	f7 d8		 neg	 eax
  01894	1b c0		 sbb	 eax, eax
  01896	83 e0 02	 and	 eax, 2
  01899	83 c0 ff	 add	 eax, -1
  0189c	0f af d8	 imul	 ebx, eax
  0189f	8b 55 f8	 mov	 edx, DWORD PTR _lpObj$[ebp]
  018a2	0f bf 82 46 01
	00 00		 movsx	 eax, WORD PTR [edx+326]
  018a9	03 d8		 add	 ebx, eax
  018ab	88 5d ee	 mov	 BYTE PTR _cY$[ebp], bl

; 666  : 
; 667  : 		BYTE btMapAttr = MapC[lpObj->MapNumber].GetAttr(cX, cY);

  018ae	0f b6 45 ee	 movzx	 eax, BYTE PTR _cY$[ebp]
  018b2	50		 push	 eax
  018b3	0f b6 4d ef	 movzx	 ecx, BYTE PTR _cX$[ebp]
  018b7	51		 push	 ecx
  018b8	8b 55 f8	 mov	 edx, DWORD PTR _lpObj$[ebp]
  018bb	0f b6 8a 49 01
	00 00		 movzx	 ecx, BYTE PTR [edx+329]
  018c2	69 c9 b8 3d 05
	00		 imul	 ecx, 343480		; 00053db8H
  018c8	81 c1 00 00 00
	00		 add	 ecx, OFFSET ?MapC@@3PAVMapClass@@A ; MapC
  018ce	e8 00 00 00 00	 call	 ?GetAttr@MapClass@@QAEEHH@Z ; MapClass::GetAttr
  018d3	88 45 e3	 mov	 BYTE PTR _btMapAttr$229480[ebp], al

; 668  : 
; 669  : 		if ( btMapAttr == 0 )

  018d6	0f b6 45 e3	 movzx	 eax, BYTE PTR _btMapAttr$229480[ebp]
  018da	85 c0		 test	 eax, eax
  018dc	75 09		 jne	 SHORT $LN2@ApplyEleme@8

; 670  : 		{
; 671  : 			bGetPosition = TRUE;

  018de	c7 45 e8 01 00
	00 00		 mov	 DWORD PTR _bGetPosition$[ebp], 1

; 672  : 			break;

  018e5	eb 05		 jmp	 SHORT $LN3@ApplyEleme@8
$LN2@ApplyEleme@8:

; 673  : 		}
; 674  : 	}

  018e7	e9 2e ff ff ff	 jmp	 $LN4@ApplyEleme@8
$LN3@ApplyEleme@8:

; 675  : 
; 676  : 	if ( bGetPosition == FALSE )

  018ec	83 7d e8 00	 cmp	 DWORD PTR _bGetPosition$[ebp], 0
  018f0	75 34		 jne	 SHORT $LN1@ApplyEleme@8

; 677  : 	{
; 678  : 		lpObj->Live = FALSE;

  018f2	8b 45 f8	 mov	 eax, DWORD PTR _lpObj$[ebp]
  018f5	c6 40 6a 00	 mov	 BYTE PTR [eax+106], 0

; 679  : 		lpObj->m_State = 4;

  018f9	8b 45 f8	 mov	 eax, DWORD PTR _lpObj$[ebp]
  018fc	c7 80 20 02 00
	00 04 00 00 00	 mov	 DWORD PTR [eax+544], 4

; 680  : 		lpObj->RegenTime = GetTickCount();

  01906	ff 15 00 00 00
	00		 call	 DWORD PTR __imp__GetTickCount@0
  0190c	8b 4d f8	 mov	 ecx, DWORD PTR _lpObj$[ebp]
  0190f	89 81 a8 03 00
	00		 mov	 DWORD PTR [ecx+936], eax

; 681  : 		lpObj->DieRegen = 1;

  01915	8b 45 f8	 mov	 eax, DWORD PTR _lpObj$[ebp]
  01918	c6 80 a2 03 00
	00 01		 mov	 BYTE PTR [eax+930], 1

; 682  : 
; 683  : 		return FALSE;

  0191f	33 c0		 xor	 eax, eax
  01921	e9 f8 00 00 00	 jmp	 $LN12@ApplyEleme@8
$LN1@ApplyEleme@8:

; 684  : 	}
; 685  : 
; 686  : 	lpTargetObj->X = cX;

  01926	66 0f b6 45 ef	 movzx	 ax, BYTE PTR _cX$[ebp]
  0192b	8b 4d f4	 mov	 ecx, DWORD PTR _lpTargetObj$[ebp]
  0192e	66 89 81 44 01
	00 00		 mov	 WORD PTR [ecx+324], ax

; 687  : 	lpTargetObj->Y = cY;

  01935	66 0f b6 45 ee	 movzx	 ax, BYTE PTR _cY$[ebp]
  0193a	8b 4d f4	 mov	 ecx, DWORD PTR _lpTargetObj$[ebp]
  0193d	66 89 81 46 01
	00 00		 mov	 WORD PTR [ecx+326], ax

; 688  : 	lpTargetObj->MTX = lpTargetObj->X;

  01944	8b 45 f4	 mov	 eax, DWORD PTR _lpTargetObj$[ebp]
  01947	8b 4d f4	 mov	 ecx, DWORD PTR _lpTargetObj$[ebp]
  0194a	66 8b 91 44 01
	00 00		 mov	 dx, WORD PTR [ecx+324]
  01951	66 89 90 80 01
	00 00		 mov	 WORD PTR [eax+384], dx

; 689  : 	lpTargetObj->MTY = lpTargetObj->Y;

  01958	8b 45 f4	 mov	 eax, DWORD PTR _lpTargetObj$[ebp]
  0195b	8b 4d f4	 mov	 ecx, DWORD PTR _lpTargetObj$[ebp]
  0195e	66 8b 91 46 01
	00 00		 mov	 dx, WORD PTR [ecx+326]
  01965	66 89 90 82 01
	00 00		 mov	 WORD PTR [eax+386], dx

; 690  : 	lpTargetObj->TX = lpTargetObj->X;

  0196c	8b 45 f4	 mov	 eax, DWORD PTR _lpTargetObj$[ebp]
  0196f	8b 4d f4	 mov	 ecx, DWORD PTR _lpTargetObj$[ebp]
  01972	66 8b 91 44 01
	00 00		 mov	 dx, WORD PTR [ecx+324]
  01979	66 89 90 7c 01
	00 00		 mov	 WORD PTR [eax+380], dx

; 691  : 	lpTargetObj->TY = lpTargetObj->Y;

  01980	8b 45 f4	 mov	 eax, DWORD PTR _lpTargetObj$[ebp]
  01983	8b 4d f4	 mov	 ecx, DWORD PTR _lpTargetObj$[ebp]
  01986	66 8b 91 46 01
	00 00		 mov	 dx, WORD PTR [ecx+326]
  0198d	66 89 90 7e 01
	00 00		 mov	 WORD PTR [eax+382], dx

; 692  : 	lpTargetObj->StartX = lpTargetObj->X;

  01994	8b 45 f4	 mov	 eax, DWORD PTR _lpTargetObj$[ebp]
  01997	8b 4d f4	 mov	 ecx, DWORD PTR _lpTargetObj$[ebp]
  0199a	8a 91 44 01 00
	00		 mov	 dl, BYTE PTR [ecx+324]
  019a0	88 90 76 01 00
	00		 mov	 BYTE PTR [eax+374], dl

; 693  : 	lpTargetObj->StartY = lpTargetObj->Y;

  019a6	8b 45 f4	 mov	 eax, DWORD PTR _lpTargetObj$[ebp]
  019a9	8b 4d f4	 mov	 ecx, DWORD PTR _lpTargetObj$[ebp]
  019ac	8a 91 46 01 00
	00		 mov	 dl, BYTE PTR [ecx+326]
  019b2	88 90 77 01 00
	00		 mov	 BYTE PTR [eax+375], dl

; 694  : 
; 695  : 	gObjMonsterHitDamageInit(lpTargetObj);

  019b8	8b 45 f4	 mov	 eax, DWORD PTR _lpTargetObj$[ebp]
  019bb	50		 push	 eax
  019bc	e8 00 00 00 00	 call	 ?gObjMonsterHitDamageInit@@YAXPAUOBJECTSTRUCT@@@Z ; gObjMonsterHitDamageInit
  019c1	83 c4 04	 add	 esp, 4

; 696  : 	CreateFrustrum(lpTargetObj->X, lpTargetObj->Y, lpTargetObj->m_Index);

  019c4	8b 45 f4	 mov	 eax, DWORD PTR _lpTargetObj$[ebp]
  019c7	8b 08		 mov	 ecx, DWORD PTR [eax]
  019c9	51		 push	 ecx
  019ca	8b 55 f4	 mov	 edx, DWORD PTR _lpTargetObj$[ebp]
  019cd	0f bf 82 46 01
	00 00		 movsx	 eax, WORD PTR [edx+326]
  019d4	50		 push	 eax
  019d5	8b 4d f4	 mov	 ecx, DWORD PTR _lpTargetObj$[ebp]
  019d8	0f bf 91 44 01
	00 00		 movsx	 edx, WORD PTR [ecx+324]
  019df	52		 push	 edx
  019e0	e8 00 00 00 00	 call	 ?CreateFrustrum@@YAXHHH@Z ; CreateFrustrum
  019e5	83 c4 0c	 add	 esp, 12			; 0000000cH

; 697  : 	lpTargetObj->DieRegen = 0;

  019e8	8b 45 f4	 mov	 eax, DWORD PTR _lpTargetObj$[ebp]
  019eb	c6 80 a2 03 00
	00 00		 mov	 BYTE PTR [eax+930], 0

; 698  : 	lpTargetObj->m_State = 1;

  019f2	8b 45 f4	 mov	 eax, DWORD PTR _lpTargetObj$[ebp]
  019f5	c7 80 20 02 00
	00 01 00 00 00	 mov	 DWORD PTR [eax+544], 1

; 699  : 	lpTargetObj->m_Agro.ResetAll();

  019ff	8b 4d f4	 mov	 ecx, DWORD PTR _lpTargetObj$[ebp]
  01a02	81 c1 94 1c 00
	00		 add	 ecx, 7316		; 00001c94H
  01a08	e8 00 00 00 00	 call	 ?ResetAll@TMonsterAIAgro@@QAEXXZ ; TMonsterAIAgro::ResetAll

; 700  : 	gObjViewportListCreate(lpTargetObj->m_Index);

  01a0d	8b 45 f4	 mov	 eax, DWORD PTR _lpTargetObj$[ebp]
  01a10	0f b7 08	 movzx	 ecx, WORD PTR [eax]
  01a13	51		 push	 ecx
  01a14	e8 00 00 00 00	 call	 ?gObjViewportListCreate@@YAXF@Z ; gObjViewportListCreate
  01a19	83 c4 04	 add	 esp, 4

; 701  : 
; 702  : 	return FALSE;

  01a1c	33 c0		 xor	 eax, eax
$LN12@ApplyEleme@8:

; 703  : }

  01a1e	5f		 pop	 edi
  01a1f	5e		 pop	 esi
  01a20	5b		 pop	 ebx
  01a21	8b e5		 mov	 esp, ebp
  01a23	5d		 pop	 ebp
  01a24	c2 08 00	 ret	 8
?ApplyElementSummon@TMonsterSkillElement@@QAEHHH@Z ENDP	; TMonsterSkillElement::ApplyElementSummon
_TEXT	ENDS
EXTRN	?gObjAddMsgSendDelay@@YAXPAUOBJECTSTRUCT@@HHHH@Z:PROC ; gObjAddMsgSendDelay
EXTRN	?gObjBackSpring2@@YAHPAUOBJECTSTRUCT@@0H@Z:PROC	; gObjBackSpring2
; Function compile flags: /Odtp /ZI
_TEXT	SEGMENT
_lpTargetObj$ = -12					; size = 4
_lpObj$ = -8						; size = 4
_this$ = -4						; size = 4
_iIndex$ = 8						; size = 4
_iTargetIndex$ = 12					; size = 4
?ApplyElementPush@TMonsterSkillElement@@QAEHHH@Z PROC	; TMonsterSkillElement::ApplyElementPush
; _this$ = ecx

; 706  : {

  01a30	55		 push	 ebp
  01a31	8b ec		 mov	 ebp, esp
  01a33	83 ec 4c	 sub	 esp, 76			; 0000004cH
  01a36	53		 push	 ebx
  01a37	56		 push	 esi
  01a38	57		 push	 edi
  01a39	89 4d fc	 mov	 DWORD PTR _this$[ebp], ecx

; 707  : 	LPOBJ lpObj = &gObj[iIndex];

  01a3c	8b 45 08	 mov	 eax, DWORD PTR _iIndex$[ebp]
  01a3f	69 c0 38 2b 00
	00		 imul	 eax, 11064		; 00002b38H
  01a45	03 05 00 00 00
	00		 add	 eax, DWORD PTR ?gObj@@3PAUOBJECTSTRUCT@@A ; gObj
  01a4b	89 45 f8	 mov	 DWORD PTR _lpObj$[ebp], eax

; 708  : 	LPOBJ lpTargetObj = &gObj[iTargetIndex];

  01a4e	8b 45 0c	 mov	 eax, DWORD PTR _iTargetIndex$[ebp]
  01a51	69 c0 38 2b 00
	00		 imul	 eax, 11064		; 00002b38H
  01a57	03 05 00 00 00
	00		 add	 eax, DWORD PTR ?gObj@@3PAUOBJECTSTRUCT@@A ; gObj
  01a5d	89 45 f4	 mov	 DWORD PTR _lpTargetObj$[ebp], eax

; 709  : 	
; 710  : 	if ( lpObj->Class == 459 && lpObj->Connected == PLAYER_PLAYING && lpObj->MapNumber == MAP_INDEX_RAKLION_BOSS && iIndex == iTargetIndex )//Season 4.5 addon

  01a60	8b 45 f8	 mov	 eax, DWORD PTR _lpObj$[ebp]
  01a63	0f b7 88 b8 00
	00 00		 movzx	 ecx, WORD PTR [eax+184]
  01a6a	81 f9 cb 01 00
	00		 cmp	 ecx, 459		; 000001cbH
  01a70	75 24		 jne	 SHORT $LN5@ApplyEleme@9
  01a72	8b 45 f8	 mov	 eax, DWORD PTR _lpObj$[ebp]
  01a75	83 78 04 03	 cmp	 DWORD PTR [eax+4], 3
  01a79	75 1b		 jne	 SHORT $LN5@ApplyEleme@9
  01a7b	8b 45 f8	 mov	 eax, DWORD PTR _lpObj$[ebp]
  01a7e	0f b6 88 49 01
	00 00		 movzx	 ecx, BYTE PTR [eax+329]
  01a85	83 f9 3a	 cmp	 ecx, 58			; 0000003aH
  01a88	75 0c		 jne	 SHORT $LN5@ApplyEleme@9
  01a8a	8b 45 08	 mov	 eax, DWORD PTR _iIndex$[ebp]
  01a8d	3b 45 0c	 cmp	 eax, DWORD PTR _iTargetIndex$[ebp]
  01a90	75 04		 jne	 SHORT $LN5@ApplyEleme@9

; 711  : 	{
; 712  : 		return FALSE;

  01a92	33 c0		 xor	 eax, eax
  01a94	eb 6a		 jmp	 SHORT $LN6@ApplyEleme@9
$LN5@ApplyEleme@9:

; 713  : 	}
; 714  : 
; 715  : 	if ( this->m_iNullifiedSkill == -1 )

  01a96	8b 45 fc	 mov	 eax, DWORD PTR _this$[ebp]
  01a99	83 78 30 ff	 cmp	 DWORD PTR [eax+48], -1
  01a9d	75 0a		 jne	 SHORT $LN4@ApplyEleme@9

; 716  : 		this->m_iNullifiedSkill = 0;

  01a9f	8b 45 fc	 mov	 eax, DWORD PTR _this$[ebp]
  01aa2	c7 40 30 00 00
	00 00		 mov	 DWORD PTR [eax+48], 0
$LN4@ApplyEleme@9:

; 717  : 
; 718  : 	if ( this->m_iIncAndDecValue < 1 )

  01aa9	8b 45 fc	 mov	 eax, DWORD PTR _this$[ebp]
  01aac	83 78 2c 01	 cmp	 DWORD PTR [eax+44], 1
  01ab0	7d 0a		 jge	 SHORT $LN3@ApplyEleme@9

; 719  : 		this->m_iIncAndDecValue = 3;

  01ab2	8b 45 fc	 mov	 eax, DWORD PTR _this$[ebp]
  01ab5	c7 40 2c 03 00
	00 00		 mov	 DWORD PTR [eax+44], 3
$LN3@ApplyEleme@9:

; 720  : 
; 721  : 	if ( this->m_iNullifiedSkill == 0 )

  01abc	8b 45 fc	 mov	 eax, DWORD PTR _this$[ebp]
  01abf	83 78 30 00	 cmp	 DWORD PTR [eax+48], 0
  01ac3	75 19		 jne	 SHORT $LN2@ApplyEleme@9

; 722  : 	{
; 723  : 		gObjBackSpring2(lpTargetObj, lpObj,this->m_iIncAndDecValue);

  01ac5	8b 45 fc	 mov	 eax, DWORD PTR _this$[ebp]
  01ac8	8b 48 2c	 mov	 ecx, DWORD PTR [eax+44]
  01acb	51		 push	 ecx
  01acc	8b 55 f8	 mov	 edx, DWORD PTR _lpObj$[ebp]
  01acf	52		 push	 edx
  01ad0	8b 45 f4	 mov	 eax, DWORD PTR _lpTargetObj$[ebp]
  01ad3	50		 push	 eax
  01ad4	e8 00 00 00 00	 call	 ?gObjBackSpring2@@YAHPAUOBJECTSTRUCT@@0H@Z ; gObjBackSpring2
  01ad9	83 c4 0c	 add	 esp, 12			; 0000000cH

; 724  : 	}
; 725  : 	else

  01adc	eb 20		 jmp	 SHORT $LN1@ApplyEleme@9
$LN2@ApplyEleme@9:

; 726  : 	{
; 727  : 		gObjAddMsgSendDelay(lpObj, 57, iTargetIndex, this->m_iNullifiedSkill, this->m_iIncAndDecValue);

  01ade	8b 45 fc	 mov	 eax, DWORD PTR _this$[ebp]
  01ae1	8b 48 2c	 mov	 ecx, DWORD PTR [eax+44]
  01ae4	51		 push	 ecx
  01ae5	8b 55 fc	 mov	 edx, DWORD PTR _this$[ebp]
  01ae8	8b 42 30	 mov	 eax, DWORD PTR [edx+48]
  01aeb	50		 push	 eax
  01aec	8b 4d 0c	 mov	 ecx, DWORD PTR _iTargetIndex$[ebp]
  01aef	51		 push	 ecx
  01af0	6a 39		 push	 57			; 00000039H
  01af2	8b 55 f8	 mov	 edx, DWORD PTR _lpObj$[ebp]
  01af5	52		 push	 edx
  01af6	e8 00 00 00 00	 call	 ?gObjAddMsgSendDelay@@YAXPAUOBJECTSTRUCT@@HHHH@Z ; gObjAddMsgSendDelay
  01afb	83 c4 14	 add	 esp, 20			; 00000014H
$LN1@ApplyEleme@9:

; 728  : 	}
; 729  : 
; 730  : 	return FALSE;

  01afe	33 c0		 xor	 eax, eax
$LN6@ApplyEleme@9:

; 731  : }

  01b00	5f		 pop	 edi
  01b01	5e		 pop	 esi
  01b02	5b		 pop	 ebx
  01b03	8b e5		 mov	 esp, ebp
  01b05	5d		 pop	 ebp
  01b06	c2 08 00	 ret	 8
?ApplyElementPush@TMonsterSkillElement@@QAEHHH@Z ENDP	; TMonsterSkillElement::ApplyElementPush
; Function compile flags: /Odtp /ZI
_lpTargetObj$ = -12					; size = 4
_lpObj$ = -8						; size = 4
_this$ = -4						; size = 4
_iIndex$ = 8						; size = 4
_iTargetIndex$ = 12					; size = 4
?ApplyElementStatEnergy@TMonsterSkillElement@@QAEHHH@Z PROC ; TMonsterSkillElement::ApplyElementStatEnergy
; _this$ = ecx

; 734  : {

  01b10	55		 push	 ebp
  01b11	8b ec		 mov	 ebp, esp
  01b13	83 ec 4c	 sub	 esp, 76			; 0000004cH
  01b16	53		 push	 ebx
  01b17	56		 push	 esi
  01b18	57		 push	 edi
  01b19	89 4d fc	 mov	 DWORD PTR _this$[ebp], ecx

; 735  : 	LPOBJ lpObj = &gObj[iIndex];

  01b1c	8b 45 08	 mov	 eax, DWORD PTR _iIndex$[ebp]
  01b1f	69 c0 38 2b 00
	00		 imul	 eax, 11064		; 00002b38H
  01b25	03 05 00 00 00
	00		 add	 eax, DWORD PTR ?gObj@@3PAUOBJECTSTRUCT@@A ; gObj
  01b2b	89 45 f8	 mov	 DWORD PTR _lpObj$[ebp], eax

; 736  : 	LPOBJ lpTargetObj = &gObj[iTargetIndex];

  01b2e	8b 45 0c	 mov	 eax, DWORD PTR _iTargetIndex$[ebp]
  01b31	69 c0 38 2b 00
	00		 imul	 eax, 11064		; 00002b38H
  01b37	03 05 00 00 00
	00		 add	 eax, DWORD PTR ?gObj@@3PAUOBJECTSTRUCT@@A ; gObj
  01b3d	89 45 f4	 mov	 DWORD PTR _lpTargetObj$[ebp], eax

; 737  : 
; 738  : 	return FALSE;

  01b40	33 c0		 xor	 eax, eax

; 739  : }

  01b42	5f		 pop	 edi
  01b43	5e		 pop	 esi
  01b44	5b		 pop	 ebx
  01b45	8b e5		 mov	 esp, ebp
  01b47	5d		 pop	 ebp
  01b48	c2 08 00	 ret	 8
?ApplyElementStatEnergy@TMonsterSkillElement@@QAEHHH@Z ENDP ; TMonsterSkillElement::ApplyElementStatEnergy
; Function compile flags: /Odtp /ZI
_lpTargetObj$ = -12					; size = 4
_lpObj$ = -8						; size = 4
_this$ = -4						; size = 4
_iIndex$ = 8						; size = 4
_iTargetIndex$ = 12					; size = 4
?ApplyElementStatStrength@TMonsterSkillElement@@QAEHHH@Z PROC ; TMonsterSkillElement::ApplyElementStatStrength
; _this$ = ecx

; 742  : {

  01b50	55		 push	 ebp
  01b51	8b ec		 mov	 ebp, esp
  01b53	83 ec 4c	 sub	 esp, 76			; 0000004cH
  01b56	53		 push	 ebx
  01b57	56		 push	 esi
  01b58	57		 push	 edi
  01b59	89 4d fc	 mov	 DWORD PTR _this$[ebp], ecx

; 743  : 	LPOBJ lpObj = &gObj[iIndex];

  01b5c	8b 45 08	 mov	 eax, DWORD PTR _iIndex$[ebp]
  01b5f	69 c0 38 2b 00
	00		 imul	 eax, 11064		; 00002b38H
  01b65	03 05 00 00 00
	00		 add	 eax, DWORD PTR ?gObj@@3PAUOBJECTSTRUCT@@A ; gObj
  01b6b	89 45 f8	 mov	 DWORD PTR _lpObj$[ebp], eax

; 744  : 	LPOBJ lpTargetObj = &gObj[iTargetIndex];

  01b6e	8b 45 0c	 mov	 eax, DWORD PTR _iTargetIndex$[ebp]
  01b71	69 c0 38 2b 00
	00		 imul	 eax, 11064		; 00002b38H
  01b77	03 05 00 00 00
	00		 add	 eax, DWORD PTR ?gObj@@3PAUOBJECTSTRUCT@@A ; gObj
  01b7d	89 45 f4	 mov	 DWORD PTR _lpTargetObj$[ebp], eax

; 745  : 
; 746  : 	return FALSE;

  01b80	33 c0		 xor	 eax, eax

; 747  : }

  01b82	5f		 pop	 edi
  01b83	5e		 pop	 esi
  01b84	5b		 pop	 ebx
  01b85	8b e5		 mov	 esp, ebp
  01b87	5d		 pop	 ebp
  01b88	c2 08 00	 ret	 8
?ApplyElementStatStrength@TMonsterSkillElement@@QAEHHH@Z ENDP ; TMonsterSkillElement::ApplyElementStatStrength
; Function compile flags: /Odtp /ZI
_lpTargetObj$ = -12					; size = 4
_lpObj$ = -8						; size = 4
_this$ = -4						; size = 4
_iIndex$ = 8						; size = 4
_iTargetIndex$ = 12					; size = 4
?ApplyElementStatDexiterity@TMonsterSkillElement@@QAEHHH@Z PROC ; TMonsterSkillElement::ApplyElementStatDexiterity
; _this$ = ecx

; 750  : {

  01b90	55		 push	 ebp
  01b91	8b ec		 mov	 ebp, esp
  01b93	83 ec 4c	 sub	 esp, 76			; 0000004cH
  01b96	53		 push	 ebx
  01b97	56		 push	 esi
  01b98	57		 push	 edi
  01b99	89 4d fc	 mov	 DWORD PTR _this$[ebp], ecx

; 751  : 	LPOBJ lpObj = &gObj[iIndex];

  01b9c	8b 45 08	 mov	 eax, DWORD PTR _iIndex$[ebp]
  01b9f	69 c0 38 2b 00
	00		 imul	 eax, 11064		; 00002b38H
  01ba5	03 05 00 00 00
	00		 add	 eax, DWORD PTR ?gObj@@3PAUOBJECTSTRUCT@@A ; gObj
  01bab	89 45 f8	 mov	 DWORD PTR _lpObj$[ebp], eax

; 752  : 	LPOBJ lpTargetObj = &gObj[iTargetIndex];

  01bae	8b 45 0c	 mov	 eax, DWORD PTR _iTargetIndex$[ebp]
  01bb1	69 c0 38 2b 00
	00		 imul	 eax, 11064		; 00002b38H
  01bb7	03 05 00 00 00
	00		 add	 eax, DWORD PTR ?gObj@@3PAUOBJECTSTRUCT@@A ; gObj
  01bbd	89 45 f4	 mov	 DWORD PTR _lpTargetObj$[ebp], eax

; 753  : 
; 754  : 	return FALSE;

  01bc0	33 c0		 xor	 eax, eax

; 755  : }

  01bc2	5f		 pop	 edi
  01bc3	5e		 pop	 esi
  01bc4	5b		 pop	 ebx
  01bc5	8b e5		 mov	 esp, ebp
  01bc7	5d		 pop	 ebp
  01bc8	c2 08 00	 ret	 8
?ApplyElementStatDexiterity@TMonsterSkillElement@@QAEHHH@Z ENDP ; TMonsterSkillElement::ApplyElementStatDexiterity
; Function compile flags: /Odtp /ZI
_lpTargetObj$ = -12					; size = 4
_lpObj$ = -8						; size = 4
_this$ = -4						; size = 4
_iIndex$ = 8						; size = 4
_iTargetIndex$ = 12					; size = 4
?ApplyElementStatVitality@TMonsterSkillElement@@QAEHHH@Z PROC ; TMonsterSkillElement::ApplyElementStatVitality
; _this$ = ecx

; 758  : {

  01bd0	55		 push	 ebp
  01bd1	8b ec		 mov	 ebp, esp
  01bd3	83 ec 4c	 sub	 esp, 76			; 0000004cH
  01bd6	53		 push	 ebx
  01bd7	56		 push	 esi
  01bd8	57		 push	 edi
  01bd9	89 4d fc	 mov	 DWORD PTR _this$[ebp], ecx

; 759  : 	LPOBJ lpObj = &gObj[iIndex];

  01bdc	8b 45 08	 mov	 eax, DWORD PTR _iIndex$[ebp]
  01bdf	69 c0 38 2b 00
	00		 imul	 eax, 11064		; 00002b38H
  01be5	03 05 00 00 00
	00		 add	 eax, DWORD PTR ?gObj@@3PAUOBJECTSTRUCT@@A ; gObj
  01beb	89 45 f8	 mov	 DWORD PTR _lpObj$[ebp], eax

; 760  : 	LPOBJ lpTargetObj = &gObj[iTargetIndex];

  01bee	8b 45 0c	 mov	 eax, DWORD PTR _iTargetIndex$[ebp]
  01bf1	69 c0 38 2b 00
	00		 imul	 eax, 11064		; 00002b38H
  01bf7	03 05 00 00 00
	00		 add	 eax, DWORD PTR ?gObj@@3PAUOBJECTSTRUCT@@A ; gObj
  01bfd	89 45 f4	 mov	 DWORD PTR _lpTargetObj$[ebp], eax

; 761  : 
; 762  : 	return FALSE;

  01c00	33 c0		 xor	 eax, eax

; 763  : }

  01c02	5f		 pop	 edi
  01c03	5e		 pop	 esi
  01c04	5b		 pop	 ebx
  01c05	8b e5		 mov	 esp, ebp
  01c07	5d		 pop	 ebp
  01c08	c2 08 00	 ret	 8
?ApplyElementStatVitality@TMonsterSkillElement@@QAEHHH@Z ENDP ; TMonsterSkillElement::ApplyElementStatVitality
_TEXT	ENDS
EXTRN	?RemoveSpecificSkillState@CObjUseSkill@@QAEHPAUOBJECTSTRUCT@@H@Z:PROC ; CObjUseSkill::RemoveSpecificSkillState
EXTRN	?gObjUseSkill@@3VCObjUseSkill@@A:DWORD		; gObjUseSkill
; Function compile flags: /Odtp /ZI
_TEXT	SEGMENT
_lpTargetObj$ = -12					; size = 4
_lpObj$ = -8						; size = 4
_this$ = -4						; size = 4
_iIndex$ = 8						; size = 4
_iTargetIndex$ = 12					; size = 4
?ApplyElementRemoveSkill@TMonsterSkillElement@@QAEHHH@Z PROC ; TMonsterSkillElement::ApplyElementRemoveSkill
; _this$ = ecx

; 766  : {

  01c10	55		 push	 ebp
  01c11	8b ec		 mov	 ebp, esp
  01c13	83 ec 4c	 sub	 esp, 76			; 0000004cH
  01c16	53		 push	 ebx
  01c17	56		 push	 esi
  01c18	57		 push	 edi
  01c19	89 4d fc	 mov	 DWORD PTR _this$[ebp], ecx

; 767  : 	LPOBJ lpObj = &gObj[iIndex];

  01c1c	8b 45 08	 mov	 eax, DWORD PTR _iIndex$[ebp]
  01c1f	69 c0 38 2b 00
	00		 imul	 eax, 11064		; 00002b38H
  01c25	03 05 00 00 00
	00		 add	 eax, DWORD PTR ?gObj@@3PAUOBJECTSTRUCT@@A ; gObj
  01c2b	89 45 f8	 mov	 DWORD PTR _lpObj$[ebp], eax

; 768  : 	LPOBJ lpTargetObj = &gObj[iTargetIndex];

  01c2e	8b 45 0c	 mov	 eax, DWORD PTR _iTargetIndex$[ebp]
  01c31	69 c0 38 2b 00
	00		 imul	 eax, 11064		; 00002b38H
  01c37	03 05 00 00 00
	00		 add	 eax, DWORD PTR ?gObj@@3PAUOBJECTSTRUCT@@A ; gObj
  01c3d	89 45 f4	 mov	 DWORD PTR _lpTargetObj$[ebp], eax

; 769  : 
; 770  : 	gObjUseSkill.RemoveSpecificSkillState(lpTargetObj, this->m_iNullifiedSkill);

  01c40	8b 45 fc	 mov	 eax, DWORD PTR _this$[ebp]
  01c43	8b 48 30	 mov	 ecx, DWORD PTR [eax+48]
  01c46	51		 push	 ecx
  01c47	8b 55 f4	 mov	 edx, DWORD PTR _lpTargetObj$[ebp]
  01c4a	52		 push	 edx
  01c4b	b9 00 00 00 00	 mov	 ecx, OFFSET ?gObjUseSkill@@3VCObjUseSkill@@A ; gObjUseSkill
  01c50	e8 00 00 00 00	 call	 ?RemoveSpecificSkillState@CObjUseSkill@@QAEHPAUOBJECTSTRUCT@@H@Z ; CObjUseSkill::RemoveSpecificSkillState

; 771  : 
; 772  : 	return FALSE;

  01c55	33 c0		 xor	 eax, eax

; 773  : }

  01c57	5f		 pop	 edi
  01c58	5e		 pop	 esi
  01c59	5b		 pop	 ebx
  01c5a	8b e5		 mov	 esp, ebp
  01c5c	5d		 pop	 ebp
  01c5d	c2 08 00	 ret	 8
?ApplyElementRemoveSkill@TMonsterSkillElement@@QAEHHH@Z ENDP ; TMonsterSkillElement::ApplyElementRemoveSkill
; Function compile flags: /Odtp /ZI
_lpTargetObj$ = -12					; size = 4
_lpObj$ = -8						; size = 4
_this$ = -4						; size = 4
_iIndex$ = 8						; size = 4
_iTargetIndex$ = 12					; size = 4
?ApplyElementResistSkill@TMonsterSkillElement@@QAEHHH@Z PROC ; TMonsterSkillElement::ApplyElementResistSkill
; _this$ = ecx

; 776  : {

  01c60	55		 push	 ebp
  01c61	8b ec		 mov	 ebp, esp
  01c63	83 ec 4c	 sub	 esp, 76			; 0000004cH
  01c66	53		 push	 ebx
  01c67	56		 push	 esi
  01c68	57		 push	 edi
  01c69	89 4d fc	 mov	 DWORD PTR _this$[ebp], ecx

; 777  : 	LPOBJ lpObj = &gObj[iIndex];

  01c6c	8b 45 08	 mov	 eax, DWORD PTR _iIndex$[ebp]
  01c6f	69 c0 38 2b 00
	00		 imul	 eax, 11064		; 00002b38H
  01c75	03 05 00 00 00
	00		 add	 eax, DWORD PTR ?gObj@@3PAUOBJECTSTRUCT@@A ; gObj
  01c7b	89 45 f8	 mov	 DWORD PTR _lpObj$[ebp], eax

; 778  : 	LPOBJ lpTargetObj = &gObj[iTargetIndex];

  01c7e	8b 45 0c	 mov	 eax, DWORD PTR _iTargetIndex$[ebp]
  01c81	69 c0 38 2b 00
	00		 imul	 eax, 11064		; 00002b38H
  01c87	03 05 00 00 00
	00		 add	 eax, DWORD PTR ?gObj@@3PAUOBJECTSTRUCT@@A ; gObj
  01c8d	89 45 f4	 mov	 DWORD PTR _lpTargetObj$[ebp], eax

; 779  : 
; 780  : 	lpTargetObj->m_MonsterSkillElementInfo.m_iSkillElementResistNumber = this->m_iNullifiedSkill;

  01c90	8b 45 f4	 mov	 eax, DWORD PTR _lpTargetObj$[ebp]
  01c93	8b 4d fc	 mov	 ecx, DWORD PTR _this$[ebp]
  01c96	8b 51 30	 mov	 edx, DWORD PTR [ecx+48]
  01c99	89 90 5c 1c 00
	00		 mov	 DWORD PTR [eax+7260], edx

; 781  : 	lpTargetObj->m_MonsterSkillElementInfo.m_iSkillElementResistTime = this->m_iContinuanceTime;

  01c9f	8b 45 f4	 mov	 eax, DWORD PTR _lpTargetObj$[ebp]
  01ca2	8b 4d fc	 mov	 ecx, DWORD PTR _this$[ebp]
  01ca5	8b 51 24	 mov	 edx, DWORD PTR [ecx+36]
  01ca8	89 90 60 1c 00
	00		 mov	 DWORD PTR [eax+7264], edx

; 782  : 
; 783  : 	return FALSE;

  01cae	33 c0		 xor	 eax, eax

; 784  : }

  01cb0	5f		 pop	 edi
  01cb1	5e		 pop	 esi
  01cb2	5b		 pop	 ebx
  01cb3	8b e5		 mov	 esp, ebp
  01cb5	5d		 pop	 ebp
  01cb6	c2 08 00	 ret	 8
?ApplyElementResistSkill@TMonsterSkillElement@@QAEHHH@Z ENDP ; TMonsterSkillElement::ApplyElementResistSkill
; Function compile flags: /Odtp /ZI
_SkillImmune$ = -16					; size = 4
_lpTargetObj$ = -12					; size = 4
_lpObj$ = -8						; size = 4
_this$ = -4						; size = 4
_iIndex$ = 8						; size = 4
_iTargetIndex$ = 12					; size = 4
?ApplyElementImmuneSkill@TMonsterSkillElement@@QAEHHH@Z PROC ; TMonsterSkillElement::ApplyElementImmuneSkill
; _this$ = ecx

; 787  : {

  01cc0	55		 push	 ebp
  01cc1	8b ec		 mov	 ebp, esp
  01cc3	83 ec 50	 sub	 esp, 80			; 00000050H
  01cc6	53		 push	 ebx
  01cc7	56		 push	 esi
  01cc8	57		 push	 edi
  01cc9	89 4d fc	 mov	 DWORD PTR _this$[ebp], ecx

; 788  : 	LPOBJ lpObj = &gObj[iIndex];

  01ccc	8b 45 08	 mov	 eax, DWORD PTR _iIndex$[ebp]
  01ccf	69 c0 38 2b 00
	00		 imul	 eax, 11064		; 00002b38H
  01cd5	03 05 00 00 00
	00		 add	 eax, DWORD PTR ?gObj@@3PAUOBJECTSTRUCT@@A ; gObj
  01cdb	89 45 f8	 mov	 DWORD PTR _lpObj$[ebp], eax

; 789  : 	LPOBJ lpTargetObj = &gObj[iTargetIndex];

  01cde	8b 45 0c	 mov	 eax, DWORD PTR _iTargetIndex$[ebp]
  01ce1	69 c0 38 2b 00
	00		 imul	 eax, 11064		; 00002b38H
  01ce7	03 05 00 00 00
	00		 add	 eax, DWORD PTR ?gObj@@3PAUOBJECTSTRUCT@@A ; gObj
  01ced	89 45 f4	 mov	 DWORD PTR _lpTargetObj$[ebp], eax

; 790  : 
; 791  : 	lpTargetObj->m_MonsterSkillElementInfo.m_iSkillElementImmuneNumber = this->m_iNullifiedSkill;

  01cf0	8b 45 f4	 mov	 eax, DWORD PTR _lpTargetObj$[ebp]
  01cf3	8b 4d fc	 mov	 ecx, DWORD PTR _this$[ebp]
  01cf6	8b 51 30	 mov	 edx, DWORD PTR [ecx+48]
  01cf9	89 90 54 1c 00
	00		 mov	 DWORD PTR [eax+7252], edx

; 792  : 	lpTargetObj->m_MonsterSkillElementInfo.m_iSkillElementImmuneTime = this->m_iContinuanceTime;

  01cff	8b 45 f4	 mov	 eax, DWORD PTR _lpTargetObj$[ebp]
  01d02	8b 4d fc	 mov	 ecx, DWORD PTR _this$[ebp]
  01d05	8b 51 24	 mov	 edx, DWORD PTR [ecx+36]
  01d08	89 90 58 1c 00
	00		 mov	 DWORD PTR [eax+7256], edx

; 793  : 
; 794  : 	int SkillImmune = 0;

  01d0e	c7 45 f0 00 00
	00 00		 mov	 DWORD PTR _SkillImmune$[ebp], 0

; 795  : 
; 796  : 	if(this->m_iContinuanceTime == -1)

  01d15	8b 45 fc	 mov	 eax, DWORD PTR _this$[ebp]
  01d18	83 78 24 ff	 cmp	 DWORD PTR [eax+36], -1
  01d1c	75 09		 jne	 SHORT $LN2@ApplyEleme@10

; 797  : 	{
; 798  : 		SkillImmune = -10;

  01d1e	c7 45 f0 f6 ff
	ff ff		 mov	 DWORD PTR _SkillImmune$[ebp], -10 ; fffffff6H

; 799  : 	}
; 800  : 	else

  01d25	eb 11		 jmp	 SHORT $LN1@ApplyEleme@10
$LN2@ApplyEleme@10:

; 801  : 	{
; 802  : 		SkillImmune = this->m_iContinuanceTime / 1000;

  01d27	8b 45 fc	 mov	 eax, DWORD PTR _this$[ebp]
  01d2a	8b 40 24	 mov	 eax, DWORD PTR [eax+36]
  01d2d	99		 cdq
  01d2e	b9 e8 03 00 00	 mov	 ecx, 1000		; 000003e8H
  01d33	f7 f9		 idiv	 ecx
  01d35	89 45 f0	 mov	 DWORD PTR _SkillImmune$[ebp], eax
$LN1@ApplyEleme@10:

; 803  : 	}
; 804  : 
; 805  : 	gObjApplyBuffEffectDuration(lpTargetObj, AT_IMMUNE_MAGIC, 0, 0, 0, 0, SkillImmune);

  01d38	8b 45 f0	 mov	 eax, DWORD PTR _SkillImmune$[ebp]
  01d3b	50		 push	 eax
  01d3c	6a 00		 push	 0
  01d3e	6a 00		 push	 0
  01d40	6a 00		 push	 0
  01d42	6a 00		 push	 0
  01d44	6a 3f		 push	 63			; 0000003fH
  01d46	8b 4d f4	 mov	 ecx, DWORD PTR _lpTargetObj$[ebp]
  01d49	51		 push	 ecx
  01d4a	e8 00 00 00 00	 call	 ?gObjApplyBuffEffectDuration@@YAEPAUOBJECTSTRUCT@@HEHEHH@Z ; gObjApplyBuffEffectDuration
  01d4f	83 c4 1c	 add	 esp, 28			; 0000001cH

; 806  : 	return FALSE;

  01d52	33 c0		 xor	 eax, eax

; 807  : }

  01d54	5f		 pop	 edi
  01d55	5e		 pop	 esi
  01d56	5b		 pop	 ebx
  01d57	8b e5		 mov	 esp, ebp
  01d59	5d		 pop	 ebp
  01d5a	c2 08 00	 ret	 8
?ApplyElementImmuneSkill@TMonsterSkillElement@@QAEHHH@Z ENDP ; TMonsterSkillElement::ApplyElementImmuneSkill
_TEXT	ENDS
PUBLIC	??_C@_0BN@GBOPBGFB@?$FL?$CFs?$FN?5Warp?5?$FL?$CFd?0?$CFd?$FN?5?9?$DO?5?$FL?$CFd?0?$CFd?$FN?$AA@ ; `string'
PUBLIC	??_C@_0CM@PIOKLDC@?$FL?$CFs?$FN?$FL?$CFs?$FN?5Try?5Teleport?5Not?5Move?5A@ ; `string'
PUBLIC	__$ArrayPad$
EXTRN	?gObjTeleportMagicUse@@YAXHEE@Z:PROC		; gObjTeleportMagicUse
EXTRN	?MsgSendV2@@YAXPAUOBJECTSTRUCT@@PAEH@Z:PROC	; MsgSendV2
EXTRN	?DataSend@@YAHHPAEK@Z:PROC			; DataSend
EXTRN	?PHeadSetBE@@YAXPAEEH@Z:PROC			; PHeadSetBE
EXTRN	?gObjCheckTeleportArea@@YAHHEE@Z:PROC		; gObjCheckTeleportArea
EXTRN	?gObjSearchActiveEffect@@YAEPAUOBJECTSTRUCT@@H@Z:PROC ; gObjSearchActiveEffect
;	COMDAT ??_C@_0BN@GBOPBGFB@?$FL?$CFs?$FN?5Warp?5?$FL?$CFd?0?$CFd?$FN?5?9?$DO?5?$FL?$CFd?0?$CFd?$FN?$AA@
CONST	SEGMENT
??_C@_0BN@GBOPBGFB@?$FL?$CFs?$FN?5Warp?5?$FL?$CFd?0?$CFd?$FN?5?9?$DO?5?$FL?$CFd?0?$CFd?$FN?$AA@ DB '['
	DB	'%s] Warp [%d,%d] -> [%d,%d]', 00H		; `string'
CONST	ENDS
;	COMDAT ??_C@_0CM@PIOKLDC@?$FL?$CFs?$FN?$FL?$CFs?$FN?5Try?5Teleport?5Not?5Move?5A@
CONST	SEGMENT
??_C@_0CM@PIOKLDC@?$FL?$CFs?$FN?$FL?$CFs?$FN?5Try?5Teleport?5Not?5Move?5A@ DB '['
	DB	'%s][%s] Try Teleport Not Move Area [%d,%d]', 00H ; `string'
; Function compile flags: /Odtp /ZI
CONST	ENDS
_TEXT	SEGMENT
tv67 = -100						; size = 4
_pAttack$ = -32						; size = 9
_depth$ = -20						; size = 4
_y$ = -14						; size = 1
_x$ = -13						; size = 1
_lpObj$ = -12						; size = 4
_this$ = -8						; size = 4
__$ArrayPad$ = -4					; size = 4
_iIndex$ = 8						; size = 4
_iTargetIndex$ = 12					; size = 4
?ApplyElementTeleportSkill@TMonsterSkillElement@@QAEHHH@Z PROC ; TMonsterSkillElement::ApplyElementTeleportSkill
; _this$ = ecx

; 810  : {

  01d60	55		 push	 ebp
  01d61	8b ec		 mov	 ebp, esp
  01d63	83 ec 64	 sub	 esp, 100		; 00000064H
  01d66	a1 00 00 00 00	 mov	 eax, DWORD PTR ___security_cookie
  01d6b	33 c5		 xor	 eax, ebp
  01d6d	89 45 fc	 mov	 DWORD PTR __$ArrayPad$[ebp], eax
  01d70	53		 push	 ebx
  01d71	56		 push	 esi
  01d72	57		 push	 edi
  01d73	89 4d f8	 mov	 DWORD PTR _this$[ebp], ecx

; 811  : 	if ( !OBJMAX_RANGE(iIndex))

  01d76	83 7d 08 00	 cmp	 DWORD PTR _iIndex$[ebp], 0
  01d7a	7d 09		 jge	 SHORT $LN12@ApplyEleme@11
  01d7c	c7 45 9c 00 00
	00 00		 mov	 DWORD PTR tv67[ebp], 0
  01d83	eb 0f		 jmp	 SHORT $LN13@ApplyEleme@11
$LN12@ApplyEleme@11:
  01d85	33 c0		 xor	 eax, eax
  01d87	81 7d 08 97 3a
	00 00		 cmp	 DWORD PTR _iIndex$[ebp], 14999 ; 00003a97H
  01d8e	0f 9e c0	 setle	 al
  01d91	89 45 9c	 mov	 DWORD PTR tv67[ebp], eax
$LN13@ApplyEleme@11:
  01d94	83 7d 9c 00	 cmp	 DWORD PTR tv67[ebp], 0
  01d98	75 07		 jne	 SHORT $LN9@ApplyEleme@11

; 812  : 		return FALSE;

  01d9a	33 c0		 xor	 eax, eax
  01d9c	e9 04 02 00 00	 jmp	 $LN10@ApplyEleme@11
$LN9@ApplyEleme@11:

; 813  : 
; 814  : 	if(gObjSearchActiveEffect(&gObj[iIndex], AT_STUN) == 1)

  01da1	6a 3d		 push	 61			; 0000003dH
  01da3	8b 45 08	 mov	 eax, DWORD PTR _iIndex$[ebp]
  01da6	69 c0 38 2b 00
	00		 imul	 eax, 11064		; 00002b38H
  01dac	03 05 00 00 00
	00		 add	 eax, DWORD PTR ?gObj@@3PAUOBJECTSTRUCT@@A ; gObj
  01db2	50		 push	 eax
  01db3	e8 00 00 00 00	 call	 ?gObjSearchActiveEffect@@YAEPAUOBJECTSTRUCT@@H@Z ; gObjSearchActiveEffect
  01db8	83 c4 08	 add	 esp, 8
  01dbb	0f b6 c8	 movzx	 ecx, al
  01dbe	83 f9 01	 cmp	 ecx, 1
  01dc1	75 07		 jne	 SHORT $LN8@ApplyEleme@11

; 815  : 	{
; 816  : 		return FALSE;

  01dc3	33 c0		 xor	 eax, eax
  01dc5	e9 db 01 00 00	 jmp	 $LN10@ApplyEleme@11
$LN8@ApplyEleme@11:

; 817  : 	}
; 818  : 
; 819  : 	if(gObjSearchActiveEffect(&gObj[iIndex], AT_SLEEP) == 1)

  01dca	6a 48		 push	 72			; 00000048H
  01dcc	8b 45 08	 mov	 eax, DWORD PTR _iIndex$[ebp]
  01dcf	69 c0 38 2b 00
	00		 imul	 eax, 11064		; 00002b38H
  01dd5	03 05 00 00 00
	00		 add	 eax, DWORD PTR ?gObj@@3PAUOBJECTSTRUCT@@A ; gObj
  01ddb	50		 push	 eax
  01ddc	e8 00 00 00 00	 call	 ?gObjSearchActiveEffect@@YAEPAUOBJECTSTRUCT@@H@Z ; gObjSearchActiveEffect
  01de1	83 c4 08	 add	 esp, 8
  01de4	0f b6 c8	 movzx	 ecx, al
  01de7	83 f9 01	 cmp	 ecx, 1
  01dea	75 07		 jne	 SHORT $LN7@ApplyEleme@11

; 820  : 	{
; 821  : 		return FALSE;

  01dec	33 c0		 xor	 eax, eax
  01dee	e9 b2 01 00 00	 jmp	 $LN10@ApplyEleme@11
$LN7@ApplyEleme@11:

; 822  : 	}
; 823  : 
; 824  : 	LPOBJ lpObj = &gObj[iIndex];

  01df3	8b 45 08	 mov	 eax, DWORD PTR _iIndex$[ebp]
  01df6	69 c0 38 2b 00
	00		 imul	 eax, 11064		; 00002b38H
  01dfc	03 05 00 00 00
	00		 add	 eax, DWORD PTR ?gObj@@3PAUOBJECTSTRUCT@@A ; gObj
  01e02	89 45 f4	 mov	 DWORD PTR _lpObj$[ebp], eax

; 825  : 	BYTE x;
; 826  : 	BYTE y;
; 827  : 	int depth = rand()%4 + 3;

  01e05	e8 00 00 00 00	 call	 _rand
  01e0a	25 03 00 00 80	 and	 eax, -2147483645	; 80000003H
  01e0f	79 05		 jns	 SHORT $LN14@ApplyEleme@11
  01e11	48		 dec	 eax
  01e12	83 c8 fc	 or	 eax, -4			; fffffffcH
  01e15	40		 inc	 eax
$LN14@ApplyEleme@11:
  01e16	83 c0 03	 add	 eax, 3
  01e19	89 45 ec	 mov	 DWORD PTR _depth$[ebp], eax

; 828  : 	PMSG_MAGICATTACK_RESULT pAttack;
; 829  : 
; 830  : 	if ( (rand()%2) == 0 )

  01e1c	e8 00 00 00 00	 call	 _rand
  01e21	25 01 00 00 80	 and	 eax, -2147483647	; 80000001H
  01e26	79 05		 jns	 SHORT $LN15@ApplyEleme@11
  01e28	48		 dec	 eax
  01e29	83 c8 fe	 or	 eax, -2			; fffffffeH
  01e2c	40		 inc	 eax
$LN15@ApplyEleme@11:
  01e2d	85 c0		 test	 eax, eax
  01e2f	75 12		 jne	 SHORT $LN6@ApplyEleme@11

; 831  : 		x = lpObj->X + depth;

  01e31	8b 45 f4	 mov	 eax, DWORD PTR _lpObj$[ebp]
  01e34	0f bf 88 44 01
	00 00		 movsx	 ecx, WORD PTR [eax+324]
  01e3b	03 4d ec	 add	 ecx, DWORD PTR _depth$[ebp]
  01e3e	88 4d f3	 mov	 BYTE PTR _x$[ebp], cl

; 832  : 	else

  01e41	eb 10		 jmp	 SHORT $LN5@ApplyEleme@11
$LN6@ApplyEleme@11:

; 833  : 		x = lpObj->X - depth;

  01e43	8b 45 f4	 mov	 eax, DWORD PTR _lpObj$[ebp]
  01e46	0f bf 88 44 01
	00 00		 movsx	 ecx, WORD PTR [eax+324]
  01e4d	2b 4d ec	 sub	 ecx, DWORD PTR _depth$[ebp]
  01e50	88 4d f3	 mov	 BYTE PTR _x$[ebp], cl
$LN5@ApplyEleme@11:

; 834  : 
; 835  : 	if ( (rand()%2) == 0 )

  01e53	e8 00 00 00 00	 call	 _rand
  01e58	25 01 00 00 80	 and	 eax, -2147483647	; 80000001H
  01e5d	79 05		 jns	 SHORT $LN16@ApplyEleme@11
  01e5f	48		 dec	 eax
  01e60	83 c8 fe	 or	 eax, -2			; fffffffeH
  01e63	40		 inc	 eax
$LN16@ApplyEleme@11:
  01e64	85 c0		 test	 eax, eax
  01e66	75 12		 jne	 SHORT $LN4@ApplyEleme@11

; 836  : 		y = lpObj->Y + depth;

  01e68	8b 45 f4	 mov	 eax, DWORD PTR _lpObj$[ebp]
  01e6b	0f bf 88 46 01
	00 00		 movsx	 ecx, WORD PTR [eax+326]
  01e72	03 4d ec	 add	 ecx, DWORD PTR _depth$[ebp]
  01e75	88 4d f2	 mov	 BYTE PTR _y$[ebp], cl

; 837  : 	else

  01e78	eb 10		 jmp	 SHORT $LN3@ApplyEleme@11
$LN4@ApplyEleme@11:

; 838  : 		y = lpObj->Y - depth;

  01e7a	8b 45 f4	 mov	 eax, DWORD PTR _lpObj$[ebp]
  01e7d	0f bf 88 46 01
	00 00		 movsx	 ecx, WORD PTR [eax+326]
  01e84	2b 4d ec	 sub	 ecx, DWORD PTR _depth$[ebp]
  01e87	88 4d f2	 mov	 BYTE PTR _y$[ebp], cl
$LN3@ApplyEleme@11:

; 839  : 
; 840  : 	if ( gObjCheckTeleportArea(iIndex, x, y) == FALSE )

  01e8a	0f b6 45 f2	 movzx	 eax, BYTE PTR _y$[ebp]
  01e8e	50		 push	 eax
  01e8f	0f b6 4d f3	 movzx	 ecx, BYTE PTR _x$[ebp]
  01e93	51		 push	 ecx
  01e94	8b 55 08	 mov	 edx, DWORD PTR _iIndex$[ebp]
  01e97	52		 push	 edx
  01e98	e8 00 00 00 00	 call	 ?gObjCheckTeleportArea@@YAHHEE@Z ; gObjCheckTeleportArea
  01e9d	83 c4 0c	 add	 esp, 12			; 0000000cH
  01ea0	85 c0		 test	 eax, eax
  01ea2	75 2f		 jne	 SHORT $LN2@ApplyEleme@11

; 841  : 	{
; 842  : 		LogAddC(2, "[%s][%s] Try Teleport Not Move Area [%d,%d]",
; 843  : 			lpObj->AccountID, lpObj->Name,	x, y);

  01ea4	0f b6 45 f2	 movzx	 eax, BYTE PTR _y$[ebp]
  01ea8	50		 push	 eax
  01ea9	0f b6 4d f3	 movzx	 ecx, BYTE PTR _x$[ebp]
  01ead	51		 push	 ecx
  01eae	8b 55 f4	 mov	 edx, DWORD PTR _lpObj$[ebp]
  01eb1	83 c2 77	 add	 edx, 119		; 00000077H
  01eb4	52		 push	 edx
  01eb5	8b 45 f4	 mov	 eax, DWORD PTR _lpObj$[ebp]
  01eb8	83 c0 6c	 add	 eax, 108		; 0000006cH
  01ebb	50		 push	 eax
  01ebc	68 00 00 00 00	 push	 OFFSET ??_C@_0CM@PIOKLDC@?$FL?$CFs?$FN?$FL?$CFs?$FN?5Try?5Teleport?5Not?5Move?5A@
  01ec1	6a 02		 push	 2
  01ec3	ff 15 00 00 00
	00		 call	 DWORD PTR ?LogAddC@@3P6AXEPADZZA ; LogAddC
  01ec9	83 c4 18	 add	 esp, 24			; 00000018H

; 844  : 		
; 845  : 		return FALSE;

  01ecc	33 c0		 xor	 eax, eax
  01ece	e9 d2 00 00 00	 jmp	 $LN10@ApplyEleme@11
$LN2@ApplyEleme@11:

; 846  : 	}
; 847  : 
; 848  : 	PHeadSetBE((LPBYTE)&pAttack, 0x19, sizeof(pAttack));

  01ed3	6a 09		 push	 9
  01ed5	6a 19		 push	 25			; 00000019H
  01ed7	8d 45 e0	 lea	 eax, DWORD PTR _pAttack$[ebp]
  01eda	50		 push	 eax
  01edb	e8 00 00 00 00	 call	 ?PHeadSetBE@@YAXPAEEH@Z	; PHeadSetBE
  01ee0	83 c4 0c	 add	 esp, 12			; 0000000cH

; 849  : 	pAttack.MagicNumberH = SET_NUMBERH(6);

  01ee3	c6 45 e3 00	 mov	 BYTE PTR _pAttack$[ebp+3], 0

; 850  : 	pAttack.MagicNumberL = SET_NUMBERL(6);

  01ee7	c6 45 e4 06	 mov	 BYTE PTR _pAttack$[ebp+4], 6

; 851  : 	pAttack.SourceNumberH = SET_NUMBERH(iIndex);

  01eeb	8b 45 08	 mov	 eax, DWORD PTR _iIndex$[ebp]
  01eee	c1 e8 08	 shr	 eax, 8
  01ef1	88 45 e5	 mov	 BYTE PTR _pAttack$[ebp+5], al

; 852  : 	pAttack.SourceNumberL = SET_NUMBERL(iIndex);

  01ef4	8b 45 08	 mov	 eax, DWORD PTR _iIndex$[ebp]
  01ef7	25 ff 00 00 00	 and	 eax, 255		; 000000ffH
  01efc	88 45 e6	 mov	 BYTE PTR _pAttack$[ebp+6], al

; 853  : 	pAttack.TargetNumberH = SET_NUMBERH(iIndex);

  01eff	8b 45 08	 mov	 eax, DWORD PTR _iIndex$[ebp]
  01f02	c1 e8 08	 shr	 eax, 8
  01f05	88 45 e7	 mov	 BYTE PTR _pAttack$[ebp+7], al

; 854  : 	pAttack.TargetNumberL = SET_NUMBERL(iIndex);

  01f08	8b 45 08	 mov	 eax, DWORD PTR _iIndex$[ebp]
  01f0b	25 ff 00 00 00	 and	 eax, 255		; 000000ffH
  01f10	88 45 e8	 mov	 BYTE PTR _pAttack$[ebp+8], al

; 855  : 
; 856  : 	if ( lpObj->Type == OBJ_USER )

  01f13	8b 45 f4	 mov	 eax, DWORD PTR _lpObj$[ebp]
  01f16	0f b7 48 68	 movzx	 ecx, WORD PTR [eax+104]
  01f1a	83 f9 01	 cmp	 ecx, 1
  01f1d	75 15		 jne	 SHORT $LN1@ApplyEleme@11

; 857  : 		DataSend(iIndex, (LPBYTE)&pAttack, pAttack.h.size);	

  01f1f	0f b6 45 e1	 movzx	 eax, BYTE PTR _pAttack$[ebp+1]
  01f23	50		 push	 eax
  01f24	8d 4d e0	 lea	 ecx, DWORD PTR _pAttack$[ebp]
  01f27	51		 push	 ecx
  01f28	8b 55 08	 mov	 edx, DWORD PTR _iIndex$[ebp]
  01f2b	52		 push	 edx
  01f2c	e8 00 00 00 00	 call	 ?DataSend@@YAHHPAEK@Z	; DataSend
  01f31	83 c4 0c	 add	 esp, 12			; 0000000cH
$LN1@ApplyEleme@11:

; 858  : 
; 859  : 	MsgSendV2(lpObj, (LPBYTE)&pAttack, pAttack.h.size);	

  01f34	0f b6 45 e1	 movzx	 eax, BYTE PTR _pAttack$[ebp+1]
  01f38	50		 push	 eax
  01f39	8d 4d e0	 lea	 ecx, DWORD PTR _pAttack$[ebp]
  01f3c	51		 push	 ecx
  01f3d	8b 55 f4	 mov	 edx, DWORD PTR _lpObj$[ebp]
  01f40	52		 push	 edx
  01f41	e8 00 00 00 00	 call	 ?MsgSendV2@@YAXPAUOBJECTSTRUCT@@PAEH@Z ; MsgSendV2
  01f46	83 c4 0c	 add	 esp, 12			; 0000000cH

; 860  : 
; 861  : 	LogAddC(2, "[%s] Warp [%d,%d] -> [%d,%d]",
; 862  : 		lpObj->Name, lpObj->X, lpObj->Y, x, y);

  01f49	0f b6 45 f2	 movzx	 eax, BYTE PTR _y$[ebp]
  01f4d	50		 push	 eax
  01f4e	0f b6 4d f3	 movzx	 ecx, BYTE PTR _x$[ebp]
  01f52	51		 push	 ecx
  01f53	8b 55 f4	 mov	 edx, DWORD PTR _lpObj$[ebp]
  01f56	0f bf 82 46 01
	00 00		 movsx	 eax, WORD PTR [edx+326]
  01f5d	50		 push	 eax
  01f5e	8b 4d f4	 mov	 ecx, DWORD PTR _lpObj$[ebp]
  01f61	0f bf 91 44 01
	00 00		 movsx	 edx, WORD PTR [ecx+324]
  01f68	52		 push	 edx
  01f69	8b 45 f4	 mov	 eax, DWORD PTR _lpObj$[ebp]
  01f6c	83 c0 77	 add	 eax, 119		; 00000077H
  01f6f	50		 push	 eax
  01f70	68 00 00 00 00	 push	 OFFSET ??_C@_0BN@GBOPBGFB@?$FL?$CFs?$FN?5Warp?5?$FL?$CFd?0?$CFd?$FN?5?9?$DO?5?$FL?$CFd?0?$CFd?$FN?$AA@
  01f75	6a 02		 push	 2
  01f77	ff 15 00 00 00
	00		 call	 DWORD PTR ?LogAddC@@3P6AXEPADZZA ; LogAddC
  01f7d	83 c4 1c	 add	 esp, 28			; 0000001cH

; 863  : 
; 864  : 	gObjTeleportMagicUse(iIndex, x, y);

  01f80	0f b6 45 f2	 movzx	 eax, BYTE PTR _y$[ebp]
  01f84	50		 push	 eax
  01f85	0f b6 4d f3	 movzx	 ecx, BYTE PTR _x$[ebp]
  01f89	51		 push	 ecx
  01f8a	8b 55 08	 mov	 edx, DWORD PTR _iIndex$[ebp]
  01f8d	52		 push	 edx
  01f8e	e8 00 00 00 00	 call	 ?gObjTeleportMagicUse@@YAXHEE@Z ; gObjTeleportMagicUse
  01f93	83 c4 0c	 add	 esp, 12			; 0000000cH

; 865  : 	lpObj->TargetNumber = -1;

  01f96	83 c8 ff	 or	 eax, -1
  01f99	8b 4d f4	 mov	 ecx, DWORD PTR _lpObj$[ebp]
  01f9c	66 89 81 58 04
	00 00		 mov	 WORD PTR [ecx+1112], ax

; 866  : 
; 867  : 	return FALSE;

  01fa3	33 c0		 xor	 eax, eax
$LN10@ApplyEleme@11:

; 868  : }

  01fa5	5f		 pop	 edi
  01fa6	5e		 pop	 esi
  01fa7	5b		 pop	 ebx
  01fa8	8b 4d fc	 mov	 ecx, DWORD PTR __$ArrayPad$[ebp]
  01fab	33 cd		 xor	 ecx, ebp
  01fad	e8 00 00 00 00	 call	 @__security_check_cookie@4
  01fb2	8b e5		 mov	 esp, ebp
  01fb4	5d		 pop	 ebp
  01fb5	c2 08 00	 ret	 8
?ApplyElementTeleportSkill@TMonsterSkillElement@@QAEHHH@Z ENDP ; TMonsterSkillElement::ApplyElementTeleportSkill
; Function compile flags: /Odtp /ZI
_lpTargetObj$ = -12					; size = 4
_lpObj$ = -8						; size = 4
_this$ = -4						; size = 4
_iIndex$ = 8						; size = 4
_iTargetIndex$ = 12					; size = 4
?ApplyElementDoubleHP@TMonsterSkillElement@@QAEHHH@Z PROC ; TMonsterSkillElement::ApplyElementDoubleHP
; _this$ = ecx

; 871  : {

  01fc0	55		 push	 ebp
  01fc1	8b ec		 mov	 ebp, esp
  01fc3	83 ec 4c	 sub	 esp, 76			; 0000004cH
  01fc6	53		 push	 ebx
  01fc7	56		 push	 esi
  01fc8	57		 push	 edi
  01fc9	89 4d fc	 mov	 DWORD PTR _this$[ebp], ecx

; 872  : 	LPOBJ lpObj = &gObj[iIndex];

  01fcc	8b 45 08	 mov	 eax, DWORD PTR _iIndex$[ebp]
  01fcf	69 c0 38 2b 00
	00		 imul	 eax, 11064		; 00002b38H
  01fd5	03 05 00 00 00
	00		 add	 eax, DWORD PTR ?gObj@@3PAUOBJECTSTRUCT@@A ; gObj
  01fdb	89 45 f8	 mov	 DWORD PTR _lpObj$[ebp], eax

; 873  : 	LPOBJ lpTargetObj = &gObj[iTargetIndex];

  01fde	8b 45 0c	 mov	 eax, DWORD PTR _iTargetIndex$[ebp]
  01fe1	69 c0 38 2b 00
	00		 imul	 eax, 11064		; 00002b38H
  01fe7	03 05 00 00 00
	00		 add	 eax, DWORD PTR ?gObj@@3PAUOBJECTSTRUCT@@A ; gObj
  01fed	89 45 f4	 mov	 DWORD PTR _lpTargetObj$[ebp], eax

; 874  : 
; 875  : 	if ( lpTargetObj->Connected < PLAYER_PLAYING )

  01ff0	8b 45 f4	 mov	 eax, DWORD PTR _lpTargetObj$[ebp]
  01ff3	83 78 04 03	 cmp	 DWORD PTR [eax+4], 3
  01ff7	7d 04		 jge	 SHORT $LN1@ApplyEleme@12

; 876  : 		return FALSE;

  01ff9	33 c0		 xor	 eax, eax
  01ffb	eb 34		 jmp	 SHORT $LN2@ApplyEleme@12
$LN1@ApplyEleme@12:

; 877  : 
; 878  : 	gObjAddMsgSendDelay(lpObj, 55, iTargetIndex, 400, 0);

  01ffd	6a 00		 push	 0
  01fff	68 90 01 00 00	 push	 400			; 00000190H
  02004	8b 45 0c	 mov	 eax, DWORD PTR _iTargetIndex$[ebp]
  02007	50		 push	 eax
  02008	6a 37		 push	 55			; 00000037H
  0200a	8b 4d f8	 mov	 ecx, DWORD PTR _lpObj$[ebp]
  0200d	51		 push	 ecx
  0200e	e8 00 00 00 00	 call	 ?gObjAddMsgSendDelay@@YAXPAUOBJECTSTRUCT@@HHHH@Z ; gObjAddMsgSendDelay
  02013	83 c4 14	 add	 esp, 20			; 00000014H

; 879  : 	gObjAddMsgSendDelay(lpObj, 55, iTargetIndex, 1000, 0);

  02016	6a 00		 push	 0
  02018	68 e8 03 00 00	 push	 1000			; 000003e8H
  0201d	8b 45 0c	 mov	 eax, DWORD PTR _iTargetIndex$[ebp]
  02020	50		 push	 eax
  02021	6a 37		 push	 55			; 00000037H
  02023	8b 4d f8	 mov	 ecx, DWORD PTR _lpObj$[ebp]
  02026	51		 push	 ecx
  02027	e8 00 00 00 00	 call	 ?gObjAddMsgSendDelay@@YAXPAUOBJECTSTRUCT@@HHHH@Z ; gObjAddMsgSendDelay
  0202c	83 c4 14	 add	 esp, 20			; 00000014H

; 880  : 
; 881  : 	return FALSE;

  0202f	33 c0		 xor	 eax, eax
$LN2@ApplyEleme@12:

; 882  : }

  02031	5f		 pop	 edi
  02032	5e		 pop	 esi
  02033	5b		 pop	 ebx
  02034	8b e5		 mov	 esp, ebp
  02036	5d		 pop	 ebp
  02037	c2 08 00	 ret	 8
?ApplyElementDoubleHP@TMonsterSkillElement@@QAEHHH@Z ENDP ; TMonsterSkillElement::ApplyElementDoubleHP
_TEXT	ENDS
EXTRN	?retResistance@@YAHPAUOBJECTSTRUCT@@H@Z:PROC	; retResistance
; Function compile flags: /Odtp /ZI
_TEXT	SEGMENT
_lpTargetObj$ = -12					; size = 4
_lpObj$ = -8						; size = 4
_this$ = -4						; size = 4
_iIndex$ = 8						; size = 4
_iTargetIndex$ = 12					; size = 4
?ApplyElementPoison@TMonsterSkillElement@@QAEHHH@Z PROC	; TMonsterSkillElement::ApplyElementPoison
; _this$ = ecx

; 885  : {

  02040	55		 push	 ebp
  02041	8b ec		 mov	 ebp, esp
  02043	83 ec 4c	 sub	 esp, 76			; 0000004cH
  02046	53		 push	 ebx
  02047	56		 push	 esi
  02048	57		 push	 edi
  02049	89 4d fc	 mov	 DWORD PTR _this$[ebp], ecx

; 886  : 	LPOBJ lpObj = &gObj[iIndex];

  0204c	8b 45 08	 mov	 eax, DWORD PTR _iIndex$[ebp]
  0204f	69 c0 38 2b 00
	00		 imul	 eax, 11064		; 00002b38H
  02055	03 05 00 00 00
	00		 add	 eax, DWORD PTR ?gObj@@3PAUOBJECTSTRUCT@@A ; gObj
  0205b	89 45 f8	 mov	 DWORD PTR _lpObj$[ebp], eax

; 887  : 	LPOBJ lpTargetObj = &gObj[iTargetIndex];

  0205e	8b 45 0c	 mov	 eax, DWORD PTR _iTargetIndex$[ebp]
  02061	69 c0 38 2b 00
	00		 imul	 eax, 11064		; 00002b38H
  02067	03 05 00 00 00
	00		 add	 eax, DWORD PTR ?gObj@@3PAUOBJECTSTRUCT@@A ; gObj
  0206d	89 45 f4	 mov	 DWORD PTR _lpTargetObj$[ebp], eax

; 888  : 
; 889  : 	if ( lpTargetObj->Connected < PLAYER_PLAYING )

  02070	8b 45 f4	 mov	 eax, DWORD PTR _lpTargetObj$[ebp]
  02073	83 78 04 03	 cmp	 DWORD PTR [eax+4], 3
  02077	7d 04		 jge	 SHORT $LN5@ApplyEleme@13

; 890  : 		return FALSE;

  02079	33 c0		 xor	 eax, eax
  0207b	eb 7d		 jmp	 SHORT $LN6@ApplyEleme@13
$LN5@ApplyEleme@13:

; 891  : 
; 892  : 	if(gObjSearchActiveEffect(lpTargetObj, AT_POISON) == 0)

  0207d	6a 37		 push	 55			; 00000037H
  0207f	8b 45 f4	 mov	 eax, DWORD PTR _lpTargetObj$[ebp]
  02082	50		 push	 eax
  02083	e8 00 00 00 00	 call	 ?gObjSearchActiveEffect@@YAEPAUOBJECTSTRUCT@@H@Z ; gObjSearchActiveEffect
  02088	83 c4 08	 add	 esp, 8
  0208b	0f b6 c8	 movzx	 ecx, al
  0208e	85 c9		 test	 ecx, ecx
  02090	75 66		 jne	 SHORT $LN4@ApplyEleme@13

; 893  : 	{
; 894  : 		if ( this->m_iNullifiedSkill  < 1 )

  02092	8b 45 fc	 mov	 eax, DWORD PTR _this$[ebp]
  02095	83 78 30 01	 cmp	 DWORD PTR [eax+48], 1
  02099	7d 3d		 jge	 SHORT $LN3@ApplyEleme@13

; 895  : 		{
; 896  : 			if ( retResistance(lpTargetObj, 1) == 0 )

  0209b	6a 01		 push	 1
  0209d	8b 45 f4	 mov	 eax, DWORD PTR _lpTargetObj$[ebp]
  020a0	50		 push	 eax
  020a1	e8 00 00 00 00	 call	 ?retResistance@@YAHPAUOBJECTSTRUCT@@H@Z ; retResistance
  020a6	83 c4 08	 add	 esp, 8
  020a9	85 c0		 test	 eax, eax
  020ab	75 29		 jne	 SHORT $LN2@ApplyEleme@13

; 897  : 			{
; 898  : 				lpTargetObj->lpAttackObj = lpObj;

  020ad	8b 45 f4	 mov	 eax, DWORD PTR _lpTargetObj$[ebp]
  020b0	8b 4d f8	 mov	 ecx, DWORD PTR _lpObj$[ebp]
  020b3	89 88 d4 03 00
	00		 mov	 DWORD PTR [eax+980], ecx

; 899  : 				gObjApplyBuffEffectDuration(lpTargetObj, AT_POISON, 19, 3, 0, 0, this->m_iIncAndDecValue);

  020b9	8b 45 fc	 mov	 eax, DWORD PTR _this$[ebp]
  020bc	8b 48 2c	 mov	 ecx, DWORD PTR [eax+44]
  020bf	51		 push	 ecx
  020c0	6a 00		 push	 0
  020c2	6a 00		 push	 0
  020c4	6a 03		 push	 3
  020c6	6a 13		 push	 19			; 00000013H
  020c8	6a 37		 push	 55			; 00000037H
  020ca	8b 55 f4	 mov	 edx, DWORD PTR _lpTargetObj$[ebp]
  020cd	52		 push	 edx
  020ce	e8 00 00 00 00	 call	 ?gObjApplyBuffEffectDuration@@YAEPAUOBJECTSTRUCT@@HEHEHH@Z ; gObjApplyBuffEffectDuration
  020d3	83 c4 1c	 add	 esp, 28			; 0000001cH
$LN2@ApplyEleme@13:

; 900  : 			}
; 901  : 		}
; 902  : 		else

  020d6	eb 20		 jmp	 SHORT $LN4@ApplyEleme@13
$LN3@ApplyEleme@13:

; 903  : 		{
; 904  : 			gObjAddMsgSendDelay(lpObj, 56, iTargetIndex, this->m_iNullifiedSkill, this->m_iIncAndDecValue);

  020d8	8b 45 fc	 mov	 eax, DWORD PTR _this$[ebp]
  020db	8b 48 2c	 mov	 ecx, DWORD PTR [eax+44]
  020de	51		 push	 ecx
  020df	8b 55 fc	 mov	 edx, DWORD PTR _this$[ebp]
  020e2	8b 42 30	 mov	 eax, DWORD PTR [edx+48]
  020e5	50		 push	 eax
  020e6	8b 4d 0c	 mov	 ecx, DWORD PTR _iTargetIndex$[ebp]
  020e9	51		 push	 ecx
  020ea	6a 38		 push	 56			; 00000038H
  020ec	8b 55 f8	 mov	 edx, DWORD PTR _lpObj$[ebp]
  020ef	52		 push	 edx
  020f0	e8 00 00 00 00	 call	 ?gObjAddMsgSendDelay@@YAXPAUOBJECTSTRUCT@@HHHH@Z ; gObjAddMsgSendDelay
  020f5	83 c4 14	 add	 esp, 20			; 00000014H
$LN4@ApplyEleme@13:

; 905  : 		}
; 906  : 	}
; 907  : 
; 908  : 	return FALSE;

  020f8	33 c0		 xor	 eax, eax
$LN6@ApplyEleme@13:

; 909  : }

  020fa	5f		 pop	 edi
  020fb	5e		 pop	 esi
  020fc	5b		 pop	 ebx
  020fd	8b e5		 mov	 esp, ebp
  020ff	5d		 pop	 ebp
  02100	c2 08 00	 ret	 8
?ApplyElementPoison@TMonsterSkillElement@@QAEHHH@Z ENDP	; TMonsterSkillElement::ApplyElementPoison
_TEXT	ENDS
EXTRN	?gObjAttack@@YAHPAUOBJECTSTRUCT@@0PAVCMagicInf@@HEHHEE@Z:PROC ; gObjAttack
EXTRN	?gObjLifeCheck@@YAXPAUOBJECTSTRUCT@@0HHHHGH@Z:PROC ; gObjLifeCheck
; Function compile flags: /Odtp /ZI
_TEXT	SEGMENT
_lpTargetObj$ = -12					; size = 4
_lpObj$ = -8						; size = 4
_this$ = -4						; size = 4
_iIndex$ = 8						; size = 4
_iTargetIndex$ = 12					; size = 4
?ApplyElementNormalAttack@TMonsterSkillElement@@QAEHHH@Z PROC ; TMonsterSkillElement::ApplyElementNormalAttack
; _this$ = ecx

; 912  : {

  02110	55		 push	 ebp
  02111	8b ec		 mov	 ebp, esp
  02113	83 ec 4c	 sub	 esp, 76			; 0000004cH
  02116	53		 push	 ebx
  02117	56		 push	 esi
  02118	57		 push	 edi
  02119	89 4d fc	 mov	 DWORD PTR _this$[ebp], ecx

; 913  : 	LPOBJ lpObj = &gObj[iIndex];

  0211c	8b 45 08	 mov	 eax, DWORD PTR _iIndex$[ebp]
  0211f	69 c0 38 2b 00
	00		 imul	 eax, 11064		; 00002b38H
  02125	03 05 00 00 00
	00		 add	 eax, DWORD PTR ?gObj@@3PAUOBJECTSTRUCT@@A ; gObj
  0212b	89 45 f8	 mov	 DWORD PTR _lpObj$[ebp], eax

; 914  : 	LPOBJ lpTargetObj = &gObj[iTargetIndex];

  0212e	8b 45 0c	 mov	 eax, DWORD PTR _iTargetIndex$[ebp]
  02131	69 c0 38 2b 00
	00		 imul	 eax, 11064		; 00002b38H
  02137	03 05 00 00 00
	00		 add	 eax, DWORD PTR ?gObj@@3PAUOBJECTSTRUCT@@A ; gObj
  0213d	89 45 f4	 mov	 DWORD PTR _lpTargetObj$[ebp], eax

; 915  : 
; 916  : 	if ( lpTargetObj->Connected < PLAYER_PLAYING )

  02140	8b 45 f4	 mov	 eax, DWORD PTR _lpTargetObj$[ebp]
  02143	83 78 04 03	 cmp	 DWORD PTR [eax+4], 3
  02147	7d 07		 jge	 SHORT $LN10@ApplyEleme@14

; 917  : 		return FALSE;

  02149	33 c0		 xor	 eax, eax
  0214b	e9 5d 01 00 00	 jmp	 $LN11@ApplyEleme@14
$LN10@ApplyEleme@14:

; 918  : 
; 919  : 	if ( this->m_iNullifiedSkill == -1 )

  02150	8b 45 fc	 mov	 eax, DWORD PTR _this$[ebp]
  02153	83 78 30 ff	 cmp	 DWORD PTR [eax+48], -1
  02157	75 0a		 jne	 SHORT $LN9@ApplyEleme@14

; 920  : 		this->m_iNullifiedSkill = 0;

  02159	8b 45 fc	 mov	 eax, DWORD PTR _this$[ebp]
  0215c	c7 40 30 00 00
	00 00		 mov	 DWORD PTR [eax+48], 0
$LN9@ApplyEleme@14:

; 921  : 
; 922  : 	if ( this->m_iIncAndDecType != -1 && this->m_iIncAndDecValue != -1 )

  02163	8b 45 fc	 mov	 eax, DWORD PTR _this$[ebp]
  02166	83 78 28 ff	 cmp	 DWORD PTR [eax+40], -1
  0216a	0f 84 f7 00 00
	00		 je	 $LN3@ApplyEleme@14
  02170	8b 45 fc	 mov	 eax, DWORD PTR _this$[ebp]
  02173	83 78 2c ff	 cmp	 DWORD PTR [eax+44], -1
  02177	0f 84 ea 00 00
	00		 je	 $LN3@ApplyEleme@14

; 923  : 	{
; 924  : 		//Season 4.5 changed
; 925  : 		if(lpTargetObj->pInventory[9].m_Type == ITEMGET(this->m_iIncAndDecType, this->m_iIncAndDecValue) && lpTargetObj->pInventory[9].m_Durability > 0.0 
; 926  : 		|| lpTargetObj->pInventory[10].m_Type == ITEMGET(this->m_iIncAndDecType, this->m_iIncAndDecValue)	&& lpTargetObj->pInventory[10].m_Durability > 0.0 
; 927  : 		|| lpTargetObj->pInventory[11].m_Type == ITEMGET(this->m_iIncAndDecType, this->m_iIncAndDecValue)	&& lpTargetObj->pInventory[11].m_Durability > 0.0)  

  0217d	8b 45 f4	 mov	 eax, DWORD PTR _lpTargetObj$[ebp]
  02180	8b 88 24 0e 00
	00		 mov	 ecx, DWORD PTR [eax+3620]
  02186	0f bf 91 7a 07
	00 00		 movsx	 edx, WORD PTR [ecx+1914]
  0218d	8b 45 fc	 mov	 eax, DWORD PTR _this$[ebp]
  02190	8b 48 28	 mov	 ecx, DWORD PTR [eax+40]
  02193	c1 e1 09	 shl	 ecx, 9
  02196	8b 45 fc	 mov	 eax, DWORD PTR _this$[ebp]
  02199	03 48 2c	 add	 ecx, DWORD PTR [eax+44]
  0219c	3b d1		 cmp	 edx, ecx
  0219e	75 1c		 jne	 SHORT $LN5@ApplyEleme@14
  021a0	8b 45 f4	 mov	 eax, DWORD PTR _lpTargetObj$[ebp]
  021a3	8b 88 24 0e 00
	00		 mov	 ecx, DWORD PTR [eax+3620]
  021a9	d9 81 98 07 00
	00		 fld	 DWORD PTR [ecx+1944]
  021af	dc 1d 00 00 00
	00		 fcomp	 QWORD PTR __real@0000000000000000
  021b5	df e0		 fnstsw	 ax
  021b7	f6 c4 41	 test	 ah, 65			; 00000041H
  021ba	74 7e		 je	 SHORT $LN6@ApplyEleme@14
$LN5@ApplyEleme@14:
  021bc	8b 45 f4	 mov	 eax, DWORD PTR _lpTargetObj$[ebp]
  021bf	8b 88 24 0e 00
	00		 mov	 ecx, DWORD PTR [eax+3620]
  021c5	0f bf 91 4e 08
	00 00		 movsx	 edx, WORD PTR [ecx+2126]
  021cc	8b 45 fc	 mov	 eax, DWORD PTR _this$[ebp]
  021cf	8b 48 28	 mov	 ecx, DWORD PTR [eax+40]
  021d2	c1 e1 09	 shl	 ecx, 9
  021d5	8b 45 fc	 mov	 eax, DWORD PTR _this$[ebp]
  021d8	03 48 2c	 add	 ecx, DWORD PTR [eax+44]
  021db	3b d1		 cmp	 edx, ecx
  021dd	75 1c		 jne	 SHORT $LN4@ApplyEleme@14
  021df	8b 45 f4	 mov	 eax, DWORD PTR _lpTargetObj$[ebp]
  021e2	8b 88 24 0e 00
	00		 mov	 ecx, DWORD PTR [eax+3620]
  021e8	d9 81 6c 08 00
	00		 fld	 DWORD PTR [ecx+2156]
  021ee	dc 1d 00 00 00
	00		 fcomp	 QWORD PTR __real@0000000000000000
  021f4	df e0		 fnstsw	 ax
  021f6	f6 c4 41	 test	 ah, 65			; 00000041H
  021f9	74 3f		 je	 SHORT $LN6@ApplyEleme@14
$LN4@ApplyEleme@14:
  021fb	8b 45 f4	 mov	 eax, DWORD PTR _lpTargetObj$[ebp]
  021fe	8b 88 24 0e 00
	00		 mov	 ecx, DWORD PTR [eax+3620]
  02204	0f bf 91 22 09
	00 00		 movsx	 edx, WORD PTR [ecx+2338]
  0220b	8b 45 fc	 mov	 eax, DWORD PTR _this$[ebp]
  0220e	8b 48 28	 mov	 ecx, DWORD PTR [eax+40]
  02211	c1 e1 09	 shl	 ecx, 9
  02214	8b 45 fc	 mov	 eax, DWORD PTR _this$[ebp]
  02217	03 48 2c	 add	 ecx, DWORD PTR [eax+44]
  0221a	3b d1		 cmp	 edx, ecx
  0221c	75 1e		 jne	 SHORT $LN7@ApplyEleme@14
  0221e	8b 45 f4	 mov	 eax, DWORD PTR _lpTargetObj$[ebp]
  02221	8b 88 24 0e 00
	00		 mov	 ecx, DWORD PTR [eax+3620]
  02227	d9 81 40 09 00
	00		 fld	 DWORD PTR [ecx+2368]
  0222d	dc 1d 00 00 00
	00		 fcomp	 QWORD PTR __real@0000000000000000
  02233	df e0		 fnstsw	 ax
  02235	f6 c4 41	 test	 ah, 65			; 00000041H
  02238	75 02		 jne	 SHORT $LN7@ApplyEleme@14
$LN6@ApplyEleme@14:

; 928  : 		{
; 929  : 			
; 930  : 		}
; 931  : 		else

  0223a	eb 2b		 jmp	 SHORT $LN3@ApplyEleme@14
$LN7@ApplyEleme@14:

; 932  : 		{
; 933  : 			lpTargetObj->Life = 0;

  0223c	8b 45 f4	 mov	 eax, DWORD PTR _lpTargetObj$[ebp]
  0223f	d9 ee		 fldz
  02241	d9 98 fc 00 00
	00		 fstp	 DWORD PTR [eax+252]

; 934  : 			gObjLifeCheck(lpTargetObj, lpObj, 100, 0, 0, 0, 0 ,0);

  02247	6a 00		 push	 0
  02249	6a 00		 push	 0
  0224b	6a 00		 push	 0
  0224d	6a 00		 push	 0
  0224f	6a 00		 push	 0
  02251	6a 64		 push	 100			; 00000064H
  02253	8b 45 f8	 mov	 eax, DWORD PTR _lpObj$[ebp]
  02256	50		 push	 eax
  02257	8b 4d f4	 mov	 ecx, DWORD PTR _lpTargetObj$[ebp]
  0225a	51		 push	 ecx
  0225b	e8 00 00 00 00	 call	 ?gObjLifeCheck@@YAXPAUOBJECTSTRUCT@@0HHHHGH@Z ; gObjLifeCheck
  02260	83 c4 20	 add	 esp, 32			; 00000020H

; 935  : 
; 936  : 			return FALSE;

  02263	33 c0		 xor	 eax, eax
  02265	eb 46		 jmp	 SHORT $LN11@ApplyEleme@14
$LN3@ApplyEleme@14:

; 937  : 		}
; 938  : 	}
; 939  : 
; 940  : 	if ( this->m_iNullifiedSkill == 0 )

  02267	8b 45 fc	 mov	 eax, DWORD PTR _this$[ebp]
  0226a	83 78 30 00	 cmp	 DWORD PTR [eax+48], 0
  0226e	75 20		 jne	 SHORT $LN2@ApplyEleme@14

; 941  : 	{
; 942  : 		gObjAttack(lpObj, lpTargetObj, 0, 0, 0, 0 ,0,0,0);

  02270	6a 00		 push	 0
  02272	6a 00		 push	 0
  02274	6a 00		 push	 0
  02276	6a 00		 push	 0
  02278	6a 00		 push	 0
  0227a	6a 00		 push	 0
  0227c	6a 00		 push	 0
  0227e	8b 45 f4	 mov	 eax, DWORD PTR _lpTargetObj$[ebp]
  02281	50		 push	 eax
  02282	8b 4d f8	 mov	 ecx, DWORD PTR _lpObj$[ebp]
  02285	51		 push	 ecx
  02286	e8 00 00 00 00	 call	 ?gObjAttack@@YAHPAUOBJECTSTRUCT@@0PAVCMagicInf@@HEHHEE@Z ; gObjAttack
  0228b	83 c4 24	 add	 esp, 36			; 00000024H

; 943  : 	}
; 944  : 	else

  0228e	eb 1b		 jmp	 SHORT $LN1@ApplyEleme@14
$LN2@ApplyEleme@14:

; 945  : 	{
; 946  : 		gObjAddMsgSendDelay(lpObj, 55, iTargetIndex, this->m_iNullifiedSkill, 0);

  02290	6a 00		 push	 0
  02292	8b 45 fc	 mov	 eax, DWORD PTR _this$[ebp]
  02295	8b 48 30	 mov	 ecx, DWORD PTR [eax+48]
  02298	51		 push	 ecx
  02299	8b 55 0c	 mov	 edx, DWORD PTR _iTargetIndex$[ebp]
  0229c	52		 push	 edx
  0229d	6a 37		 push	 55			; 00000037H
  0229f	8b 45 f8	 mov	 eax, DWORD PTR _lpObj$[ebp]
  022a2	50		 push	 eax
  022a3	e8 00 00 00 00	 call	 ?gObjAddMsgSendDelay@@YAXPAUOBJECTSTRUCT@@HHHH@Z ; gObjAddMsgSendDelay
  022a8	83 c4 14	 add	 esp, 20			; 00000014H
$LN1@ApplyEleme@14:

; 947  : 	}
; 948  : 	
; 949  : 
; 950  : 	return FALSE;

  022ab	33 c0		 xor	 eax, eax
$LN11@ApplyEleme@14:

; 951  : }

  022ad	5f		 pop	 edi
  022ae	5e		 pop	 esi
  022af	5b		 pop	 ebx
  022b0	8b e5		 mov	 esp, ebp
  022b2	5d		 pop	 ebp
  022b3	c2 08 00	 ret	 8
?ApplyElementNormalAttack@TMonsterSkillElement@@QAEHHH@Z ENDP ; TMonsterSkillElement::ApplyElementNormalAttack
; Function compile flags: /Odtp /ZI
_DurationTime$ = -16					; size = 4
_lpTargetObj$ = -12					; size = 4
_lpObj$ = -8						; size = 4
_this$ = -4						; size = 4
_iIndex$ = 8						; size = 4
_iTargetIndex$ = 12					; size = 4
?ApplyElementBerserk@TMonsterSkillElement@@QAEHHH@Z PROC ; TMonsterSkillElement::ApplyElementBerserk
; _this$ = ecx

; 955  : {

  022c0	55		 push	 ebp
  022c1	8b ec		 mov	 ebp, esp
  022c3	83 ec 50	 sub	 esp, 80			; 00000050H
  022c6	53		 push	 ebx
  022c7	56		 push	 esi
  022c8	57		 push	 edi
  022c9	89 4d fc	 mov	 DWORD PTR _this$[ebp], ecx

; 956  : 	LPOBJ lpObj = &gObj[iIndex];

  022cc	8b 45 08	 mov	 eax, DWORD PTR _iIndex$[ebp]
  022cf	69 c0 38 2b 00
	00		 imul	 eax, 11064		; 00002b38H
  022d5	03 05 00 00 00
	00		 add	 eax, DWORD PTR ?gObj@@3PAUOBJECTSTRUCT@@A ; gObj
  022db	89 45 f8	 mov	 DWORD PTR _lpObj$[ebp], eax

; 957  : 	LPOBJ lpTargetObj = &gObj[iTargetIndex];

  022de	8b 45 0c	 mov	 eax, DWORD PTR _iTargetIndex$[ebp]
  022e1	69 c0 38 2b 00
	00		 imul	 eax, 11064		; 00002b38H
  022e7	03 05 00 00 00
	00		 add	 eax, DWORD PTR ?gObj@@3PAUOBJECTSTRUCT@@A ; gObj
  022ed	89 45 f4	 mov	 DWORD PTR _lpTargetObj$[ebp], eax

; 958  : 
; 959  : 	lpTargetObj->m_MonsterSkillElementInfo.m_iSkillElementBerserkTime = this->m_iContinuanceTime;

  022f0	8b 45 f4	 mov	 eax, DWORD PTR _lpTargetObj$[ebp]
  022f3	8b 4d fc	 mov	 ecx, DWORD PTR _this$[ebp]
  022f6	8b 51 24	 mov	 edx, DWORD PTR [ecx+36]
  022f9	89 90 70 1c 00
	00		 mov	 DWORD PTR [eax+7280], edx

; 960  : 
; 961  : 	int DurationTime = 0;

  022ff	c7 45 f0 00 00
	00 00		 mov	 DWORD PTR _DurationTime$[ebp], 0

; 962  : 	
; 963  : 	if(this->m_iContinuanceTime == -1)

  02306	8b 45 fc	 mov	 eax, DWORD PTR _this$[ebp]
  02309	83 78 24 ff	 cmp	 DWORD PTR [eax+36], -1
  0230d	75 09		 jne	 SHORT $LN2@ApplyEleme@15

; 964  : 	{
; 965  : 		DurationTime = -10;

  0230f	c7 45 f0 f6 ff
	ff ff		 mov	 DWORD PTR _DurationTime$[ebp], -10 ; fffffff6H

; 966  : 	}
; 967  : 	else

  02316	eb 11		 jmp	 SHORT $LN1@ApplyEleme@15
$LN2@ApplyEleme@15:

; 968  : 	{
; 969  : 		DurationTime = this->m_iContinuanceTime / 1000;

  02318	8b 45 fc	 mov	 eax, DWORD PTR _this$[ebp]
  0231b	8b 40 24	 mov	 eax, DWORD PTR [eax+36]
  0231e	99		 cdq
  0231f	b9 e8 03 00 00	 mov	 ecx, 1000		; 000003e8H
  02324	f7 f9		 idiv	 ecx
  02326	89 45 f0	 mov	 DWORD PTR _DurationTime$[ebp], eax
$LN1@ApplyEleme@15:

; 970  : 	}
; 971  : 		
; 972  : 	gObjApplyBuffEffectDuration(lpTargetObj, 63, 0, 0, 0, 0, DurationTime);

  02329	8b 45 f0	 mov	 eax, DWORD PTR _DurationTime$[ebp]
  0232c	50		 push	 eax
  0232d	6a 00		 push	 0
  0232f	6a 00		 push	 0
  02331	6a 00		 push	 0
  02333	6a 00		 push	 0
  02335	6a 3f		 push	 63			; 0000003fH
  02337	8b 4d f4	 mov	 ecx, DWORD PTR _lpTargetObj$[ebp]
  0233a	51		 push	 ecx
  0233b	e8 00 00 00 00	 call	 ?gObjApplyBuffEffectDuration@@YAEPAUOBJECTSTRUCT@@HEHEHH@Z ; gObjApplyBuffEffectDuration
  02340	83 c4 1c	 add	 esp, 28			; 0000001cH

; 973  : 	gObjApplyBuffEffectDuration(lpTargetObj, 64, 0, 0, 0, 0, DurationTime);

  02343	8b 45 f0	 mov	 eax, DWORD PTR _DurationTime$[ebp]
  02346	50		 push	 eax
  02347	6a 00		 push	 0
  02349	6a 00		 push	 0
  0234b	6a 00		 push	 0
  0234d	6a 00		 push	 0
  0234f	6a 40		 push	 64			; 00000040H
  02351	8b 4d f4	 mov	 ecx, DWORD PTR _lpTargetObj$[ebp]
  02354	51		 push	 ecx
  02355	e8 00 00 00 00	 call	 ?gObjApplyBuffEffectDuration@@YAEPAUOBJECTSTRUCT@@HEHEHH@Z ; gObjApplyBuffEffectDuration
  0235a	83 c4 1c	 add	 esp, 28			; 0000001cH

; 974  : 	
; 975  : 	return FALSE;

  0235d	33 c0		 xor	 eax, eax

; 976  : }

  0235f	5f		 pop	 edi
  02360	5e		 pop	 esi
  02361	5b		 pop	 ebx
  02362	8b e5		 mov	 esp, ebp
  02364	5d		 pop	 ebp
  02365	c2 08 00	 ret	 8
?ApplyElementBerserk@TMonsterSkillElement@@QAEHHH@Z ENDP ; TMonsterSkillElement::ApplyElementBerserk
_TEXT	ENDS
EXTRN	_atexit:PROC
EXTRN	??_L@YGXPAXIHP6EX0@Z1@Z:PROC			; `eh vector constructor iterator'
; Function compile flags: /Odtp /ZI
;	COMDAT ??__E?s_MonsterSkillElementArray@TMonsterSkillElement@@2PAV1@A@@YAXXZ
text$yc	SEGMENT
??__E?s_MonsterSkillElementArray@TMonsterSkillElement@@2PAV1@A@@YAXXZ PROC ; `dynamic initializer for 'TMonsterSkillElement::s_MonsterSkillElementArray'', COMDAT

; 23   : TMonsterSkillElement TMonsterSkillElement::s_MonsterSkillElementArray[MAX_MONSTER_SKILL_ELEMENT];

  00000	55		 push	 ebp
  00001	8b ec		 mov	 ebp, esp
  00003	83 ec 40	 sub	 esp, 64			; 00000040H
  00006	53		 push	 ebx
  00007	56		 push	 esi
  00008	57		 push	 edi
  00009	68 00 00 00 00	 push	 OFFSET ??1TMonsterSkillElement@@UAE@XZ ; TMonsterSkillElement::~TMonsterSkillElement
  0000e	68 00 00 00 00	 push	 OFFSET ??0TMonsterSkillElement@@QAE@XZ ; TMonsterSkillElement::TMonsterSkillElement
  00013	6a 64		 push	 100			; 00000064H
  00015	6a 3c		 push	 60			; 0000003cH
  00017	68 00 00 00 00	 push	 OFFSET ?s_MonsterSkillElementArray@TMonsterSkillElement@@2PAV1@A ; TMonsterSkillElement::s_MonsterSkillElementArray
  0001c	e8 00 00 00 00	 call	 ??_L@YGXPAXIHP6EX0@Z1@Z
  00021	68 00 00 00 00	 push	 OFFSET ??__F?s_MonsterSkillElementArray@TMonsterSkillElement@@2PAV1@A@@YAXXZ ; `dynamic atexit destructor for 'TMonsterSkillElement::s_MonsterSkillElementArray''
  00026	e8 00 00 00 00	 call	 _atexit
  0002b	83 c4 04	 add	 esp, 4
  0002e	5f		 pop	 edi
  0002f	5e		 pop	 esi
  00030	5b		 pop	 ebx
  00031	8b e5		 mov	 esp, ebp
  00033	5d		 pop	 ebp
  00034	c3		 ret	 0
??__E?s_MonsterSkillElementArray@TMonsterSkillElement@@2PAV1@A@@YAXXZ ENDP ; `dynamic initializer for 'TMonsterSkillElement::s_MonsterSkillElementArray''
text$yc	ENDS
EXTRN	??_M@YGXPAXIHP6EX0@Z@Z:PROC			; `eh vector destructor iterator'
; Function compile flags: /Odtp /ZI
;	COMDAT ??__F?s_MonsterSkillElementArray@TMonsterSkillElement@@2PAV1@A@@YAXXZ
text$yd	SEGMENT
??__F?s_MonsterSkillElementArray@TMonsterSkillElement@@2PAV1@A@@YAXXZ PROC ; `dynamic atexit destructor for 'TMonsterSkillElement::s_MonsterSkillElementArray'', COMDAT
  00000	55		 push	 ebp
  00001	8b ec		 mov	 ebp, esp
  00003	83 ec 40	 sub	 esp, 64			; 00000040H
  00006	53		 push	 ebx
  00007	56		 push	 esi
  00008	57		 push	 edi
  00009	68 00 00 00 00	 push	 OFFSET ??1TMonsterSkillElement@@UAE@XZ ; TMonsterSkillElement::~TMonsterSkillElement
  0000e	6a 64		 push	 100			; 00000064H
  00010	6a 3c		 push	 60			; 0000003cH
  00012	68 00 00 00 00	 push	 OFFSET ?s_MonsterSkillElementArray@TMonsterSkillElement@@2PAV1@A ; TMonsterSkillElement::s_MonsterSkillElementArray
  00017	e8 00 00 00 00	 call	 ??_M@YGXPAXIHP6EX0@Z@Z
  0001c	5f		 pop	 edi
  0001d	5e		 pop	 esi
  0001e	5b		 pop	 ebx
  0001f	8b e5		 mov	 esp, ebp
  00021	5d		 pop	 ebp
  00022	c3		 ret	 0
??__F?s_MonsterSkillElementArray@TMonsterSkillElement@@2PAV1@A@@YAXXZ ENDP ; `dynamic atexit destructor for 'TMonsterSkillElement::s_MonsterSkillElementArray''
text$yd	ENDS
PUBLIC	?s_MonsterSkillElementArray@TMonsterSkillElement@@2PAV1@A ; TMonsterSkillElement::s_MonsterSkillElementArray
_BSS	SEGMENT
?s_MonsterSkillElementArray@TMonsterSkillElement@@2PAV1@A DB 01770H DUP (?) ; TMonsterSkillElement::s_MonsterSkillElementArray
_BSS	ENDS
CRT$XCU	SEGMENT
?s_MonsterSkillElementArray$initializer$@TMonsterSkillElement@@2P6AXXZA DD FLAT:??__E?s_MonsterSkillElementArray@TMonsterSkillElement@@2PAV1@A@@YAXXZ ; TMonsterSkillElement::s_MonsterSkillElementArray$initializer$
CRT$XCU	ENDS
END
