; Listing generated by Microsoft (R) Optimizing Compiler Version 16.00.40219.01 

	TITLE	D:\Projects\ExTeam6.3\Source\GameServer\GameServer\TvTEvent.cpp
	.686P
	.XMM
	include listing.inc
	.model	flat

INCLUDELIB LIBCMT
INCLUDELIB OLDNAMES

PUBLIC	?TvT@@3VcTvTEvent@@A				; TvT
_BSS	SEGMENT
?TvT@@3VcTvTEvent@@A DB 02bfe4H DUP (?)			; TvT
_BSS	ENDS
PUBLIC	??_H@YGXPAXIHP6EPAX0@Z@Z			; `vector constructor iterator'
; Function compile flags: /Odtp /ZI
;	COMDAT ??_H@YGXPAXIHP6EPAX0@Z@Z
_TEXT	SEGMENT
___t$ = 8						; size = 4
___s$ = 12						; size = 4
___n$ = 16						; size = 4
___f$ = 20						; size = 4
??_H@YGXPAXIHP6EPAX0@Z@Z PROC				; `vector constructor iterator', COMDAT
  00000	55		 push	 ebp
  00001	8b ec		 mov	 ebp, esp
  00003	83 ec 40	 sub	 esp, 64			; 00000040H
  00006	53		 push	 ebx
  00007	56		 push	 esi
  00008	57		 push	 edi
$LN2@vector:
  00009	8b 45 10	 mov	 eax, DWORD PTR ___n$[ebp]
  0000c	83 e8 01	 sub	 eax, 1
  0000f	89 45 10	 mov	 DWORD PTR ___n$[ebp], eax
  00012	78 11		 js	 SHORT $LN3@vector
  00014	8b 4d 08	 mov	 ecx, DWORD PTR ___t$[ebp]
  00017	ff 55 14	 call	 DWORD PTR ___f$[ebp]
  0001a	8b 45 08	 mov	 eax, DWORD PTR ___t$[ebp]
  0001d	03 45 0c	 add	 eax, DWORD PTR ___s$[ebp]
  00020	89 45 08	 mov	 DWORD PTR ___t$[ebp], eax
  00023	eb e4		 jmp	 SHORT $LN2@vector
$LN3@vector:
  00025	5f		 pop	 edi
  00026	5e		 pop	 esi
  00027	5b		 pop	 ebx
  00028	8b e5		 mov	 esp, ebp
  0002a	5d		 pop	 ebp
  0002b	c2 10 00	 ret	 16			; 00000010H
??_H@YGXPAXIHP6EPAX0@Z@Z ENDP				; `vector constructor iterator'
_TEXT	ENDS
PUBLIC	??_C@_05OKMLJOMC@?$CFd?5?$CFd?$AA@		; `string'
PUBLIC	??_C@_01KDCPPGHE@r?$AA@				; `string'
PUBLIC	??_C@_0M@GKANHJGB@RewardWCoin?$AA@		; `string'
PUBLIC	??_C@_0O@CPGEBMDE@RewardExPoint?$AA@		; `string'
PUBLIC	??_C@_0BA@CDGAONCL@RewardItemCount?$AA@		; `string'
PUBLIC	??_C@_0BA@PCEKEDNL@ItemRewardLevel?$AA@		; `string'
PUBLIC	??_C@_0BA@BOJKLDI@ItemRewardIndex?$AA@		; `string'
PUBLIC	??_C@_0P@CCJFPAPG@ItemRewardType?$AA@		; `string'
PUBLIC	??_C@_0L@MMIEHGGH@RewardItem?$AA@		; `string'
PUBLIC	??_C@_09OHFGCBJB@EventTime?$AA@			; `string'
PUBLIC	??_C@_0M@PMKNLFB@WaitingTime?$AA@		; `string'
PUBLIC	??_C@_08MMIBNIFM@RedTeamY?$AA@			; `string'
PUBLIC	??_C@_08NFJKOJBN@RedTeamX?$AA@			; `string'
PUBLIC	??_C@_08LOKHBGHM@BluTeamY?$AA@			; `string'
PUBLIC	??_C@_08KHLMCHDN@BluTeamX?$AA@			; `string'
PUBLIC	??_C@_08PECDIPJO@WaitingY?$AA@			; `string'
PUBLIC	??_C@_08ONDILONP@WaitingX?$AA@			; `string'
PUBLIC	??_C@_0L@CLJENFCP@WaitingMap?$AA@		; `string'
PUBLIC	??_C@_0BA@MDFLFLBC@DisplayCommands?$AA@		; `string'
PUBLIC	??_C@_0P@KPEMLNLF@NeedGrandReset?$AA@		; `string'
PUBLIC	??_C@_09BFBEJNC@NeedReset?$AA@			; `string'
PUBLIC	??_C@_09INEIECFC@NeedLevel?$AA@			; `string'
PUBLIC	??_C@_03BCJIDNJL@NPC?$AA@			; `string'
PUBLIC	??_C@_06POMJKEPM@Common?$AA@			; `string'
PUBLIC	??_C@_06CKGENIKG@Enable?$AA@			; `string'
PUBLIC	??_C@_0CD@FHHHJOKB@?4?4?2Data?2ExData?2Events?2TvTEvent?4i@ ; `string'
PUBLIC	__$ArrayPad$
PUBLIC	?Load@cTvTEvent@@QAEXXZ				; cTvTEvent::Load
EXTRN	_fclose:PROC
EXTRN	_sscanf:PROC
EXTRN	?Ex_IsBadFileLine@@YA_NPADAAH@Z:PROC		; Ex_IsBadFileLine
EXTRN	_fgets:PROC
EXTRN	_feof:PROC
EXTRN	_fopen:PROC
EXTRN	?CheckUser@CExLicense@@QAE_NH@Z:PROC		; CExLicense::CheckUser
EXTRN	?g_ExLicense@@3VCExLicense@@A:BYTE		; g_ExLicense
EXTRN	__imp__GetPrivateProfileIntA@16:PROC
EXTRN	___security_cookie:DWORD
EXTRN	@__security_check_cookie@4:PROC
;	COMDAT ??_C@_05OKMLJOMC@?$CFd?5?$CFd?$AA@
; File d:\projects\exteam6.3\source\gameserver\gameserver\tvtevent.cpp
CONST	SEGMENT
??_C@_05OKMLJOMC@?$CFd?5?$CFd?$AA@ DB '%d %d', 00H	; `string'
CONST	ENDS
;	COMDAT ??_C@_01KDCPPGHE@r?$AA@
CONST	SEGMENT
??_C@_01KDCPPGHE@r?$AA@ DB 'r', 00H			; `string'
CONST	ENDS
;	COMDAT ??_C@_0M@GKANHJGB@RewardWCoin?$AA@
CONST	SEGMENT
??_C@_0M@GKANHJGB@RewardWCoin?$AA@ DB 'RewardWCoin', 00H ; `string'
CONST	ENDS
;	COMDAT ??_C@_0O@CPGEBMDE@RewardExPoint?$AA@
CONST	SEGMENT
??_C@_0O@CPGEBMDE@RewardExPoint?$AA@ DB 'RewardExPoint', 00H ; `string'
CONST	ENDS
;	COMDAT ??_C@_0BA@CDGAONCL@RewardItemCount?$AA@
CONST	SEGMENT
??_C@_0BA@CDGAONCL@RewardItemCount?$AA@ DB 'RewardItemCount', 00H ; `string'
CONST	ENDS
;	COMDAT ??_C@_0BA@PCEKEDNL@ItemRewardLevel?$AA@
CONST	SEGMENT
??_C@_0BA@PCEKEDNL@ItemRewardLevel?$AA@ DB 'ItemRewardLevel', 00H ; `string'
CONST	ENDS
;	COMDAT ??_C@_0BA@BOJKLDI@ItemRewardIndex?$AA@
CONST	SEGMENT
??_C@_0BA@BOJKLDI@ItemRewardIndex?$AA@ DB 'ItemRewardIndex', 00H ; `string'
CONST	ENDS
;	COMDAT ??_C@_0P@CCJFPAPG@ItemRewardType?$AA@
CONST	SEGMENT
??_C@_0P@CCJFPAPG@ItemRewardType?$AA@ DB 'ItemRewardType', 00H ; `string'
CONST	ENDS
;	COMDAT ??_C@_0L@MMIEHGGH@RewardItem?$AA@
CONST	SEGMENT
??_C@_0L@MMIEHGGH@RewardItem?$AA@ DB 'RewardItem', 00H	; `string'
CONST	ENDS
;	COMDAT ??_C@_09OHFGCBJB@EventTime?$AA@
CONST	SEGMENT
??_C@_09OHFGCBJB@EventTime?$AA@ DB 'EventTime', 00H	; `string'
CONST	ENDS
;	COMDAT ??_C@_0M@PMKNLFB@WaitingTime?$AA@
CONST	SEGMENT
??_C@_0M@PMKNLFB@WaitingTime?$AA@ DB 'WaitingTime', 00H	; `string'
CONST	ENDS
;	COMDAT ??_C@_08MMIBNIFM@RedTeamY?$AA@
CONST	SEGMENT
??_C@_08MMIBNIFM@RedTeamY?$AA@ DB 'RedTeamY', 00H	; `string'
CONST	ENDS
;	COMDAT ??_C@_08NFJKOJBN@RedTeamX?$AA@
CONST	SEGMENT
??_C@_08NFJKOJBN@RedTeamX?$AA@ DB 'RedTeamX', 00H	; `string'
CONST	ENDS
;	COMDAT ??_C@_08LOKHBGHM@BluTeamY?$AA@
CONST	SEGMENT
??_C@_08LOKHBGHM@BluTeamY?$AA@ DB 'BluTeamY', 00H	; `string'
CONST	ENDS
;	COMDAT ??_C@_08KHLMCHDN@BluTeamX?$AA@
CONST	SEGMENT
??_C@_08KHLMCHDN@BluTeamX?$AA@ DB 'BluTeamX', 00H	; `string'
CONST	ENDS
;	COMDAT ??_C@_08PECDIPJO@WaitingY?$AA@
CONST	SEGMENT
??_C@_08PECDIPJO@WaitingY?$AA@ DB 'WaitingY', 00H	; `string'
CONST	ENDS
;	COMDAT ??_C@_08ONDILONP@WaitingX?$AA@
CONST	SEGMENT
??_C@_08ONDILONP@WaitingX?$AA@ DB 'WaitingX', 00H	; `string'
CONST	ENDS
;	COMDAT ??_C@_0L@CLJENFCP@WaitingMap?$AA@
CONST	SEGMENT
??_C@_0L@CLJENFCP@WaitingMap?$AA@ DB 'WaitingMap', 00H	; `string'
CONST	ENDS
;	COMDAT ??_C@_0BA@MDFLFLBC@DisplayCommands?$AA@
CONST	SEGMENT
??_C@_0BA@MDFLFLBC@DisplayCommands?$AA@ DB 'DisplayCommands', 00H ; `string'
CONST	ENDS
;	COMDAT ??_C@_0P@KPEMLNLF@NeedGrandReset?$AA@
CONST	SEGMENT
??_C@_0P@KPEMLNLF@NeedGrandReset?$AA@ DB 'NeedGrandReset', 00H ; `string'
CONST	ENDS
;	COMDAT ??_C@_09BFBEJNC@NeedReset?$AA@
CONST	SEGMENT
??_C@_09BFBEJNC@NeedReset?$AA@ DB 'NeedReset', 00H	; `string'
CONST	ENDS
;	COMDAT ??_C@_09INEIECFC@NeedLevel?$AA@
CONST	SEGMENT
??_C@_09INEIECFC@NeedLevel?$AA@ DB 'NeedLevel', 00H	; `string'
CONST	ENDS
;	COMDAT ??_C@_03BCJIDNJL@NPC?$AA@
CONST	SEGMENT
??_C@_03BCJIDNJL@NPC?$AA@ DB 'NPC', 00H			; `string'
CONST	ENDS
;	COMDAT ??_C@_06POMJKEPM@Common?$AA@
CONST	SEGMENT
??_C@_06POMJKEPM@Common?$AA@ DB 'Common', 00H		; `string'
CONST	ENDS
;	COMDAT ??_C@_06CKGENIKG@Enable?$AA@
CONST	SEGMENT
??_C@_06CKGENIKG@Enable?$AA@ DB 'Enable', 00H		; `string'
CONST	ENDS
;	COMDAT ??_C@_0CD@FHHHJOKB@?4?4?2Data?2ExData?2Events?2TvTEvent?4i@
CONST	SEGMENT
??_C@_0CD@FHHHJOKB@?4?4?2Data?2ExData?2Events?2TvTEvent?4i@ DB '..\Data\E'
	DB	'xData\Events\TvTEvent.ini', 00H		; `string'
; Function compile flags: /Odtp /ZI
CONST	ENDS
_TEXT	SEGMENT
_n$220117 = -288					; size = 8
_Flag$ = -280						; size = 4
_Buff$ = -276						; size = 256
_i$220106 = -20						; size = 4
_file$ = -16						; size = 4
_i$220099 = -12						; size = 4
_this$ = -8						; size = 4
__$ArrayPad$ = -4					; size = 4
?Load@cTvTEvent@@QAEXXZ PROC				; cTvTEvent::Load
; _this$ = ecx

; 15   : {

  00000	55		 push	 ebp
  00001	8b ec		 mov	 ebp, esp
  00003	81 ec 60 01 00
	00		 sub	 esp, 352		; 00000160H
  00009	a1 00 00 00 00	 mov	 eax, DWORD PTR ___security_cookie
  0000e	33 c5		 xor	 eax, ebp
  00010	89 45 fc	 mov	 DWORD PTR __$ArrayPad$[ebp], eax
  00013	53		 push	 ebx
  00014	56		 push	 esi
  00015	57		 push	 edi
  00016	89 4d f8	 mov	 DWORD PTR _this$[ebp], ecx

; 16   : 
; 17   : 	//CheckFile(TVT_DIR);
; 18   : 
; 19   : 	this->Enable = GetPrivateProfileInt("Common","Enable",0,TVT_DIR);

  00019	68 00 00 00 00	 push	 OFFSET ??_C@_0CD@FHHHJOKB@?4?4?2Data?2ExData?2Events?2TvTEvent?4i@
  0001e	6a 00		 push	 0
  00020	68 00 00 00 00	 push	 OFFSET ??_C@_06CKGENIKG@Enable?$AA@
  00025	68 00 00 00 00	 push	 OFFSET ??_C@_06POMJKEPM@Common?$AA@
  0002a	ff 15 00 00 00
	00		 call	 DWORD PTR __imp__GetPrivateProfileIntA@16
  00030	8b 4d f8	 mov	 ecx, DWORD PTR _this$[ebp]
  00033	89 01		 mov	 DWORD PTR [ecx], eax

; 20   : 	if(!this->Enable) return;

  00035	8b 45 f8	 mov	 eax, DWORD PTR _this$[ebp]
  00038	83 38 00	 cmp	 DWORD PTR [eax], 0
  0003b	75 05		 jne	 SHORT $LN14@Load
  0003d	e9 47 04 00 00	 jmp	 $LN15@Load
$LN14@Load:

; 21   : 	this->NPC = GetPrivateProfileInt("Common","NPC",0,TVT_DIR);

  00042	68 00 00 00 00	 push	 OFFSET ??_C@_0CD@FHHHJOKB@?4?4?2Data?2ExData?2Events?2TvTEvent?4i@
  00047	6a 00		 push	 0
  00049	68 00 00 00 00	 push	 OFFSET ??_C@_03BCJIDNJL@NPC?$AA@
  0004e	68 00 00 00 00	 push	 OFFSET ??_C@_06POMJKEPM@Common?$AA@
  00053	ff 15 00 00 00
	00		 call	 DWORD PTR __imp__GetPrivateProfileIntA@16
  00059	8b 4d f8	 mov	 ecx, DWORD PTR _this$[ebp]
  0005c	89 41 04	 mov	 DWORD PTR [ecx+4], eax

; 22   : 
; 23   : 	this->NeedLevel = GetPrivateProfileInt("Common","NeedLevel",0,TVT_DIR);

  0005f	68 00 00 00 00	 push	 OFFSET ??_C@_0CD@FHHHJOKB@?4?4?2Data?2ExData?2Events?2TvTEvent?4i@
  00064	6a 00		 push	 0
  00066	68 00 00 00 00	 push	 OFFSET ??_C@_09INEIECFC@NeedLevel?$AA@
  0006b	68 00 00 00 00	 push	 OFFSET ??_C@_06POMJKEPM@Common?$AA@
  00070	ff 15 00 00 00
	00		 call	 DWORD PTR __imp__GetPrivateProfileIntA@16
  00076	8b 4d f8	 mov	 ecx, DWORD PTR _this$[ebp]
  00079	89 41 08	 mov	 DWORD PTR [ecx+8], eax

; 24   : 	this->NeedReset = GetPrivateProfileInt("Common","NeedReset",0,TVT_DIR);

  0007c	68 00 00 00 00	 push	 OFFSET ??_C@_0CD@FHHHJOKB@?4?4?2Data?2ExData?2Events?2TvTEvent?4i@
  00081	6a 00		 push	 0
  00083	68 00 00 00 00	 push	 OFFSET ??_C@_09BFBEJNC@NeedReset?$AA@
  00088	68 00 00 00 00	 push	 OFFSET ??_C@_06POMJKEPM@Common?$AA@
  0008d	ff 15 00 00 00
	00		 call	 DWORD PTR __imp__GetPrivateProfileIntA@16
  00093	8b 4d f8	 mov	 ecx, DWORD PTR _this$[ebp]
  00096	89 41 0c	 mov	 DWORD PTR [ecx+12], eax

; 25   : 	this->NeedGrandReset = GetPrivateProfileInt("Common","NeedGrandReset",0,TVT_DIR);

  00099	68 00 00 00 00	 push	 OFFSET ??_C@_0CD@FHHHJOKB@?4?4?2Data?2ExData?2Events?2TvTEvent?4i@
  0009e	6a 00		 push	 0
  000a0	68 00 00 00 00	 push	 OFFSET ??_C@_0P@KPEMLNLF@NeedGrandReset?$AA@
  000a5	68 00 00 00 00	 push	 OFFSET ??_C@_06POMJKEPM@Common?$AA@
  000aa	ff 15 00 00 00
	00		 call	 DWORD PTR __imp__GetPrivateProfileIntA@16
  000b0	8b 4d f8	 mov	 ecx, DWORD PTR _this$[ebp]
  000b3	89 41 10	 mov	 DWORD PTR [ecx+16], eax

; 26   : 
; 27   : 	this->DisplayCommands = GetPrivateProfileInt("Common","DisplayCommands",1,TVT_DIR);

  000b6	68 00 00 00 00	 push	 OFFSET ??_C@_0CD@FHHHJOKB@?4?4?2Data?2ExData?2Events?2TvTEvent?4i@
  000bb	6a 01		 push	 1
  000bd	68 00 00 00 00	 push	 OFFSET ??_C@_0BA@MDFLFLBC@DisplayCommands?$AA@
  000c2	68 00 00 00 00	 push	 OFFSET ??_C@_06POMJKEPM@Common?$AA@
  000c7	ff 15 00 00 00
	00		 call	 DWORD PTR __imp__GetPrivateProfileIntA@16
  000cd	8b 4d f8	 mov	 ecx, DWORD PTR _this$[ebp]
  000d0	89 41 14	 mov	 DWORD PTR [ecx+20], eax

; 28   : 
; 29   : 	this->WaitingMap = GetPrivateProfileInt("Common","WaitingMap",0,TVT_DIR);

  000d3	68 00 00 00 00	 push	 OFFSET ??_C@_0CD@FHHHJOKB@?4?4?2Data?2ExData?2Events?2TvTEvent?4i@
  000d8	6a 00		 push	 0
  000da	68 00 00 00 00	 push	 OFFSET ??_C@_0L@CLJENFCP@WaitingMap?$AA@
  000df	68 00 00 00 00	 push	 OFFSET ??_C@_06POMJKEPM@Common?$AA@
  000e4	ff 15 00 00 00
	00		 call	 DWORD PTR __imp__GetPrivateProfileIntA@16
  000ea	8b 4d f8	 mov	 ecx, DWORD PTR _this$[ebp]
  000ed	89 41 18	 mov	 DWORD PTR [ecx+24], eax

; 30   : 	this->WaitingX = GetPrivateProfileInt("Common","WaitingX",0,TVT_DIR);

  000f0	68 00 00 00 00	 push	 OFFSET ??_C@_0CD@FHHHJOKB@?4?4?2Data?2ExData?2Events?2TvTEvent?4i@
  000f5	6a 00		 push	 0
  000f7	68 00 00 00 00	 push	 OFFSET ??_C@_08ONDILONP@WaitingX?$AA@
  000fc	68 00 00 00 00	 push	 OFFSET ??_C@_06POMJKEPM@Common?$AA@
  00101	ff 15 00 00 00
	00		 call	 DWORD PTR __imp__GetPrivateProfileIntA@16
  00107	8b 4d f8	 mov	 ecx, DWORD PTR _this$[ebp]
  0010a	89 41 1c	 mov	 DWORD PTR [ecx+28], eax

; 31   : 	this->WaitingY = GetPrivateProfileInt("Common","WaitingY",0,TVT_DIR);

  0010d	68 00 00 00 00	 push	 OFFSET ??_C@_0CD@FHHHJOKB@?4?4?2Data?2ExData?2Events?2TvTEvent?4i@
  00112	6a 00		 push	 0
  00114	68 00 00 00 00	 push	 OFFSET ??_C@_08PECDIPJO@WaitingY?$AA@
  00119	68 00 00 00 00	 push	 OFFSET ??_C@_06POMJKEPM@Common?$AA@
  0011e	ff 15 00 00 00
	00		 call	 DWORD PTR __imp__GetPrivateProfileIntA@16
  00124	8b 4d f8	 mov	 ecx, DWORD PTR _this$[ebp]
  00127	89 41 20	 mov	 DWORD PTR [ecx+32], eax

; 32   : 
; 33   : 	this->BluTeamX = GetPrivateProfileInt("Common","BluTeamX",0,TVT_DIR);

  0012a	68 00 00 00 00	 push	 OFFSET ??_C@_0CD@FHHHJOKB@?4?4?2Data?2ExData?2Events?2TvTEvent?4i@
  0012f	6a 00		 push	 0
  00131	68 00 00 00 00	 push	 OFFSET ??_C@_08KHLMCHDN@BluTeamX?$AA@
  00136	68 00 00 00 00	 push	 OFFSET ??_C@_06POMJKEPM@Common?$AA@
  0013b	ff 15 00 00 00
	00		 call	 DWORD PTR __imp__GetPrivateProfileIntA@16
  00141	8b 4d f8	 mov	 ecx, DWORD PTR _this$[ebp]
  00144	89 41 24	 mov	 DWORD PTR [ecx+36], eax

; 34   : 	this->BluTeamY = GetPrivateProfileInt("Common","BluTeamY",0,TVT_DIR);

  00147	68 00 00 00 00	 push	 OFFSET ??_C@_0CD@FHHHJOKB@?4?4?2Data?2ExData?2Events?2TvTEvent?4i@
  0014c	6a 00		 push	 0
  0014e	68 00 00 00 00	 push	 OFFSET ??_C@_08LOKHBGHM@BluTeamY?$AA@
  00153	68 00 00 00 00	 push	 OFFSET ??_C@_06POMJKEPM@Common?$AA@
  00158	ff 15 00 00 00
	00		 call	 DWORD PTR __imp__GetPrivateProfileIntA@16
  0015e	8b 4d f8	 mov	 ecx, DWORD PTR _this$[ebp]
  00161	89 41 28	 mov	 DWORD PTR [ecx+40], eax

; 35   : 
; 36   : 	this->RedTeamX = GetPrivateProfileInt("Common","RedTeamX",0,TVT_DIR);

  00164	68 00 00 00 00	 push	 OFFSET ??_C@_0CD@FHHHJOKB@?4?4?2Data?2ExData?2Events?2TvTEvent?4i@
  00169	6a 00		 push	 0
  0016b	68 00 00 00 00	 push	 OFFSET ??_C@_08NFJKOJBN@RedTeamX?$AA@
  00170	68 00 00 00 00	 push	 OFFSET ??_C@_06POMJKEPM@Common?$AA@
  00175	ff 15 00 00 00
	00		 call	 DWORD PTR __imp__GetPrivateProfileIntA@16
  0017b	8b 4d f8	 mov	 ecx, DWORD PTR _this$[ebp]
  0017e	89 41 2c	 mov	 DWORD PTR [ecx+44], eax

; 37   : 	this->RedTeamY = GetPrivateProfileInt("Common","RedTeamY",0,TVT_DIR);

  00181	68 00 00 00 00	 push	 OFFSET ??_C@_0CD@FHHHJOKB@?4?4?2Data?2ExData?2Events?2TvTEvent?4i@
  00186	6a 00		 push	 0
  00188	68 00 00 00 00	 push	 OFFSET ??_C@_08MMIBNIFM@RedTeamY?$AA@
  0018d	68 00 00 00 00	 push	 OFFSET ??_C@_06POMJKEPM@Common?$AA@
  00192	ff 15 00 00 00
	00		 call	 DWORD PTR __imp__GetPrivateProfileIntA@16
  00198	8b 4d f8	 mov	 ecx, DWORD PTR _this$[ebp]
  0019b	89 41 30	 mov	 DWORD PTR [ecx+48], eax

; 38   : 
; 39   : 	this->WaitingTime = GetPrivateProfileInt("Common","WaitingTime",0,TVT_DIR) * 60;

  0019e	68 00 00 00 00	 push	 OFFSET ??_C@_0CD@FHHHJOKB@?4?4?2Data?2ExData?2Events?2TvTEvent?4i@
  001a3	6a 00		 push	 0
  001a5	68 00 00 00 00	 push	 OFFSET ??_C@_0M@PMKNLFB@WaitingTime?$AA@
  001aa	68 00 00 00 00	 push	 OFFSET ??_C@_06POMJKEPM@Common?$AA@
  001af	ff 15 00 00 00
	00		 call	 DWORD PTR __imp__GetPrivateProfileIntA@16
  001b5	6b c0 3c	 imul	 eax, 60			; 0000003cH
  001b8	8b 4d f8	 mov	 ecx, DWORD PTR _this$[ebp]
  001bb	89 41 34	 mov	 DWORD PTR [ecx+52], eax

; 40   : 
; 41   : 	this->EventTime = GetPrivateProfileInt("Common","EventTime",0,TVT_DIR) * 60;

  001be	68 00 00 00 00	 push	 OFFSET ??_C@_0CD@FHHHJOKB@?4?4?2Data?2ExData?2Events?2TvTEvent?4i@
  001c3	6a 00		 push	 0
  001c5	68 00 00 00 00	 push	 OFFSET ??_C@_09OHFGCBJB@EventTime?$AA@
  001ca	68 00 00 00 00	 push	 OFFSET ??_C@_06POMJKEPM@Common?$AA@
  001cf	ff 15 00 00 00
	00		 call	 DWORD PTR __imp__GetPrivateProfileIntA@16
  001d5	6b c0 3c	 imul	 eax, 60			; 0000003cH
  001d8	8b 4d f8	 mov	 ecx, DWORD PTR _this$[ebp]
  001db	89 41 38	 mov	 DWORD PTR [ecx+56], eax

; 42   : 
; 43   : 	
; 44   : 	this->RewardItem = GetPrivateProfileInt("Common","RewardItem",0,TVT_DIR);

  001de	68 00 00 00 00	 push	 OFFSET ??_C@_0CD@FHHHJOKB@?4?4?2Data?2ExData?2Events?2TvTEvent?4i@
  001e3	6a 00		 push	 0
  001e5	68 00 00 00 00	 push	 OFFSET ??_C@_0L@MMIEHGGH@RewardItem?$AA@
  001ea	68 00 00 00 00	 push	 OFFSET ??_C@_06POMJKEPM@Common?$AA@
  001ef	ff 15 00 00 00
	00		 call	 DWORD PTR __imp__GetPrivateProfileIntA@16
  001f5	8b 4d f8	 mov	 ecx, DWORD PTR _this$[ebp]
  001f8	89 41 3c	 mov	 DWORD PTR [ecx+60], eax

; 45   : 	this->ItemRewardType = GetPrivateProfileInt("Common","ItemRewardType",0,TVT_DIR);

  001fb	68 00 00 00 00	 push	 OFFSET ??_C@_0CD@FHHHJOKB@?4?4?2Data?2ExData?2Events?2TvTEvent?4i@
  00200	6a 00		 push	 0
  00202	68 00 00 00 00	 push	 OFFSET ??_C@_0P@CCJFPAPG@ItemRewardType?$AA@
  00207	68 00 00 00 00	 push	 OFFSET ??_C@_06POMJKEPM@Common?$AA@
  0020c	ff 15 00 00 00
	00		 call	 DWORD PTR __imp__GetPrivateProfileIntA@16
  00212	8b 4d f8	 mov	 ecx, DWORD PTR _this$[ebp]
  00215	89 41 40	 mov	 DWORD PTR [ecx+64], eax

; 46   : 	this->ItemRewardIndex = GetPrivateProfileInt("Common","ItemRewardIndex",0,TVT_DIR);

  00218	68 00 00 00 00	 push	 OFFSET ??_C@_0CD@FHHHJOKB@?4?4?2Data?2ExData?2Events?2TvTEvent?4i@
  0021d	6a 00		 push	 0
  0021f	68 00 00 00 00	 push	 OFFSET ??_C@_0BA@BOJKLDI@ItemRewardIndex?$AA@
  00224	68 00 00 00 00	 push	 OFFSET ??_C@_06POMJKEPM@Common?$AA@
  00229	ff 15 00 00 00
	00		 call	 DWORD PTR __imp__GetPrivateProfileIntA@16
  0022f	8b 4d f8	 mov	 ecx, DWORD PTR _this$[ebp]
  00232	89 41 44	 mov	 DWORD PTR [ecx+68], eax

; 47   : 	this->ItemRewardLevel = GetPrivateProfileInt("Common","ItemRewardLevel",0,TVT_DIR);

  00235	68 00 00 00 00	 push	 OFFSET ??_C@_0CD@FHHHJOKB@?4?4?2Data?2ExData?2Events?2TvTEvent?4i@
  0023a	6a 00		 push	 0
  0023c	68 00 00 00 00	 push	 OFFSET ??_C@_0BA@PCEKEDNL@ItemRewardLevel?$AA@
  00241	68 00 00 00 00	 push	 OFFSET ??_C@_06POMJKEPM@Common?$AA@
  00246	ff 15 00 00 00
	00		 call	 DWORD PTR __imp__GetPrivateProfileIntA@16
  0024c	8b 4d f8	 mov	 ecx, DWORD PTR _this$[ebp]
  0024f	89 41 48	 mov	 DWORD PTR [ecx+72], eax

; 48   : 	this->RewardItemCount = GetPrivateProfileInt("Common","RewardItemCount",1,TVT_DIR);

  00252	68 00 00 00 00	 push	 OFFSET ??_C@_0CD@FHHHJOKB@?4?4?2Data?2ExData?2Events?2TvTEvent?4i@
  00257	6a 01		 push	 1
  00259	68 00 00 00 00	 push	 OFFSET ??_C@_0BA@CDGAONCL@RewardItemCount?$AA@
  0025e	68 00 00 00 00	 push	 OFFSET ??_C@_06POMJKEPM@Common?$AA@
  00263	ff 15 00 00 00
	00		 call	 DWORD PTR __imp__GetPrivateProfileIntA@16
  00269	8b 4d f8	 mov	 ecx, DWORD PTR _this$[ebp]
  0026c	89 41 4c	 mov	 DWORD PTR [ecx+76], eax

; 49   : 
; 50   : 	this->RewardExPoint = GetPrivateProfileInt("Common","RewardExPoint",0,TVT_DIR);

  0026f	68 00 00 00 00	 push	 OFFSET ??_C@_0CD@FHHHJOKB@?4?4?2Data?2ExData?2Events?2TvTEvent?4i@
  00274	6a 00		 push	 0
  00276	68 00 00 00 00	 push	 OFFSET ??_C@_0O@CPGEBMDE@RewardExPoint?$AA@
  0027b	68 00 00 00 00	 push	 OFFSET ??_C@_06POMJKEPM@Common?$AA@
  00280	ff 15 00 00 00
	00		 call	 DWORD PTR __imp__GetPrivateProfileIntA@16
  00286	8b 4d f8	 mov	 ecx, DWORD PTR _this$[ebp]
  00289	89 41 50	 mov	 DWORD PTR [ecx+80], eax

; 51   : 	this->RewardWCoin = GetPrivateProfileInt("Common","RewardWCoin",0,TVT_DIR);

  0028c	68 00 00 00 00	 push	 OFFSET ??_C@_0CD@FHHHJOKB@?4?4?2Data?2ExData?2Events?2TvTEvent?4i@
  00291	6a 00		 push	 0
  00293	68 00 00 00 00	 push	 OFFSET ??_C@_0M@GKANHJGB@RewardWCoin?$AA@
  00298	68 00 00 00 00	 push	 OFFSET ??_C@_06POMJKEPM@Common?$AA@
  0029d	ff 15 00 00 00
	00		 call	 DWORD PTR __imp__GetPrivateProfileIntA@16
  002a3	8b 4d f8	 mov	 ecx, DWORD PTR _this$[ebp]
  002a6	89 41 54	 mov	 DWORD PTR [ecx+84], eax

; 52   : 
; 53   : #if(ADD_TVTHDDCHECK==1)
; 54   : 	if(g_ExLicense.CheckUser(eExUB::Gredy) || g_ExLicense.CheckUser(eExUB::GredyLocal) || g_ExLicense.CheckUser(eExUB::Gredy2))

  002a9	6a 20		 push	 32			; 00000020H
  002ab	b9 00 00 00 00	 mov	 ecx, OFFSET ?g_ExLicense@@3VCExLicense@@A ; g_ExLicense
  002b0	e8 00 00 00 00	 call	 ?CheckUser@CExLicense@@QAE_NH@Z ; CExLicense::CheckUser
  002b5	0f b6 c0	 movzx	 eax, al
  002b8	85 c0		 test	 eax, eax
  002ba	75 26		 jne	 SHORT $LN12@Load
  002bc	6a 21		 push	 33			; 00000021H
  002be	b9 00 00 00 00	 mov	 ecx, OFFSET ?g_ExLicense@@3VCExLicense@@A ; g_ExLicense
  002c3	e8 00 00 00 00	 call	 ?CheckUser@CExLicense@@QAE_NH@Z ; CExLicense::CheckUser
  002c8	0f b6 c0	 movzx	 eax, al
  002cb	85 c0		 test	 eax, eax
  002cd	75 13		 jne	 SHORT $LN12@Load
  002cf	6a 22		 push	 34			; 00000022H
  002d1	b9 00 00 00 00	 mov	 ecx, OFFSET ?g_ExLicense@@3VCExLicense@@A ; g_ExLicense
  002d6	e8 00 00 00 00	 call	 ?CheckUser@CExLicense@@QAE_NH@Z ; CExLicense::CheckUser
  002db	0f b6 c0	 movzx	 eax, al
  002de	85 c0		 test	 eax, eax
  002e0	74 2e		 je	 SHORT $LN13@Load
$LN12@Load:

; 55   : 	{
; 56   : 		for(int i = 0; i < OBJMAX; i++)

  002e2	c7 45 f4 00 00
	00 00		 mov	 DWORD PTR _i$220099[ebp], 0
  002e9	eb 09		 jmp	 SHORT $LN11@Load
$LN10@Load:
  002eb	8b 45 f4	 mov	 eax, DWORD PTR _i$220099[ebp]
  002ee	83 c0 01	 add	 eax, 1
  002f1	89 45 f4	 mov	 DWORD PTR _i$220099[ebp], eax
$LN11@Load:
  002f4	81 7d f4 98 3a
	00 00		 cmp	 DWORD PTR _i$220099[ebp], 15000 ; 00003a98H
  002fb	7d 13		 jge	 SHORT $LN13@Load

; 57   : 		{
; 58   : 			this->player_hdd[i] = 0;

  002fd	8b 45 f4	 mov	 eax, DWORD PTR _i$220099[ebp]
  00300	8b 4d f8	 mov	 ecx, DWORD PTR _this$[ebp]
  00303	c7 84 81 84 d5
	01 00 00 00 00
	00		 mov	 DWORD PTR [ecx+eax*4+120196], 0

; 59   : 		}

  0030e	eb db		 jmp	 SHORT $LN10@Load
$LN13@Load:

; 60   : 	}
; 61   : #endif
; 62   : 
; 63   : 	this->Waiting = false;

  00310	8b 45 f8	 mov	 eax, DWORD PTR _this$[ebp]
  00313	c6 80 ac 00 00
	00 00		 mov	 BYTE PTR [eax+172], 0

; 64   : 	this->Start = false;

  0031a	8b 45 f8	 mov	 eax, DWORD PTR _this$[ebp]
  0031d	c6 80 ad 00 00
	00 00		 mov	 BYTE PTR [eax+173], 0

; 65   : 	this->StartTick = 0;

  00324	8b 45 f8	 mov	 eax, DWORD PTR _this$[ebp]
  00327	c7 80 b4 00 00
	00 00 00 00 00	 mov	 DWORD PTR [eax+180], 0

; 66   : 	this->WaitingTick = 0;

  00331	8b 45 f8	 mov	 eax, DWORD PTR _this$[ebp]
  00334	c7 80 b0 00 00
	00 00 00 00 00	 mov	 DWORD PTR [eax+176], 0

; 67   : 	this->TotalPlayer = 0;

  0033e	8b 45 f8	 mov	 eax, DWORD PTR _this$[ebp]
  00341	c7 80 78 d5 01
	00 00 00 00 00	 mov	 DWORD PTR [eax+120184], 0

; 68   : 
; 69   : 	FILE * file = fopen(TVT_DIR,"r");

  0034b	68 00 00 00 00	 push	 OFFSET ??_C@_01KDCPPGHE@r?$AA@
  00350	68 00 00 00 00	 push	 OFFSET ??_C@_0CD@FHHHJOKB@?4?4?2Data?2ExData?2Events?2TvTEvent?4i@
  00355	e8 00 00 00 00	 call	 _fopen
  0035a	83 c4 08	 add	 esp, 8
  0035d	89 45 f0	 mov	 DWORD PTR _file$[ebp], eax

; 70   : 	if(file == NULL)

  00360	83 7d f0 00	 cmp	 DWORD PTR _file$[ebp], 0
  00364	75 0e		 jne	 SHORT $LN8@Load

; 71   : 	{
; 72   : 		this->Enable = 0;

  00366	8b 45 f8	 mov	 eax, DWORD PTR _this$[ebp]
  00369	c7 00 00 00 00
	00		 mov	 DWORD PTR [eax], 0

; 73   : 		return;

  0036f	e9 15 01 00 00	 jmp	 $LN15@Load
$LN8@Load:

; 74   : 	}
; 75   : 	for(int i=0;i<MAXTIME;i++)

  00374	c7 45 ec 00 00
	00 00		 mov	 DWORD PTR _i$220106[ebp], 0
  0037b	eb 09		 jmp	 SHORT $LN7@Load
$LN6@Load:
  0037d	8b 45 ec	 mov	 eax, DWORD PTR _i$220106[ebp]
  00380	83 c0 01	 add	 eax, 1
  00383	89 45 ec	 mov	 DWORD PTR _i$220106[ebp], eax
$LN7@Load:
  00386	83 7d ec 0a	 cmp	 DWORD PTR _i$220106[ebp], 10 ; 0000000aH
  0038a	7d 1e		 jge	 SHORT $LN5@Load

; 76   : 	{
; 77   : 		this->T[i].H = 0;

  0038c	8b 45 ec	 mov	 eax, DWORD PTR _i$220106[ebp]
  0038f	8b 4d f8	 mov	 ecx, DWORD PTR _this$[ebp]
  00392	c7 44 c1 58 00
	00 00 00	 mov	 DWORD PTR [ecx+eax*8+88], 0

; 78   : 		this->T[i].M = 0;

  0039a	8b 45 ec	 mov	 eax, DWORD PTR _i$220106[ebp]
  0039d	8b 4d f8	 mov	 ecx, DWORD PTR _this$[ebp]
  003a0	c7 44 c1 5c 00
	00 00 00	 mov	 DWORD PTR [ecx+eax*8+92], 0

; 79   : 	}

  003a8	eb d3		 jmp	 SHORT $LN6@Load
$LN5@Load:

; 80   : 	char Buff[256];
; 81   : 	int Flag = 0;

  003aa	c7 85 e8 fe ff
	ff 00 00 00 00	 mov	 DWORD PTR _Flag$[ebp], 0

; 82   : 	this->Count = 0;

  003b4	8b 45 f8	 mov	 eax, DWORD PTR _this$[ebp]
  003b7	c7 80 a8 00 00
	00 00 00 00 00	 mov	 DWORD PTR [eax+168], 0
$LN4@Load:

; 83   : 	while(!feof(file))

  003c1	8b 45 f0	 mov	 eax, DWORD PTR _file$[ebp]
  003c4	50		 push	 eax
  003c5	e8 00 00 00 00	 call	 _feof
  003ca	83 c4 04	 add	 esp, 4
  003cd	85 c0		 test	 eax, eax
  003cf	0f 85 a8 00 00
	00		 jne	 $LN3@Load

; 84   : 	{
; 85   : 		fgets(Buff,256,file);	

  003d5	8b 45 f0	 mov	 eax, DWORD PTR _file$[ebp]
  003d8	50		 push	 eax
  003d9	68 00 01 00 00	 push	 256			; 00000100H
  003de	8d 8d ec fe ff
	ff		 lea	 ecx, DWORD PTR _Buff$[ebp]
  003e4	51		 push	 ecx
  003e5	e8 00 00 00 00	 call	 _fgets
  003ea	83 c4 0c	 add	 esp, 12			; 0000000cH

; 86   : 		if(Ex_IsBadFileLine(Buff, Flag))continue;

  003ed	8d 85 e8 fe ff
	ff		 lea	 eax, DWORD PTR _Flag$[ebp]
  003f3	50		 push	 eax
  003f4	8d 8d ec fe ff
	ff		 lea	 ecx, DWORD PTR _Buff$[ebp]
  003fa	51		 push	 ecx
  003fb	e8 00 00 00 00	 call	 ?Ex_IsBadFileLine@@YA_NPADAAH@Z ; Ex_IsBadFileLine
  00400	83 c4 08	 add	 esp, 8
  00403	0f b6 d0	 movzx	 edx, al
  00406	85 d2		 test	 edx, edx
  00408	74 02		 je	 SHORT $LN2@Load
  0040a	eb b5		 jmp	 SHORT $LN4@Load
$LN2@Load:

; 87   : 		if(Flag == 1)

  0040c	83 bd e8 fe ff
	ff 01		 cmp	 DWORD PTR _Flag$[ebp], 1
  00413	75 63		 jne	 SHORT $LN1@Load

; 88   : 		{
; 89   : 			int n[2];
; 90   : 			sscanf(Buff,"%d %d",&n[0],&n[1]);

  00415	8d 85 e4 fe ff
	ff		 lea	 eax, DWORD PTR _n$220117[ebp+4]
  0041b	50		 push	 eax
  0041c	8d 8d e0 fe ff
	ff		 lea	 ecx, DWORD PTR _n$220117[ebp]
  00422	51		 push	 ecx
  00423	68 00 00 00 00	 push	 OFFSET ??_C@_05OKMLJOMC@?$CFd?5?$CFd?$AA@
  00428	8d 95 ec fe ff
	ff		 lea	 edx, DWORD PTR _Buff$[ebp]
  0042e	52		 push	 edx
  0042f	e8 00 00 00 00	 call	 _sscanf
  00434	83 c4 10	 add	 esp, 16			; 00000010H

; 91   : 			this->T[this->Count].H	= n[0];

  00437	8b 45 f8	 mov	 eax, DWORD PTR _this$[ebp]
  0043a	8b 88 a8 00 00
	00		 mov	 ecx, DWORD PTR [eax+168]
  00440	8b 55 f8	 mov	 edx, DWORD PTR _this$[ebp]
  00443	8b 85 e0 fe ff
	ff		 mov	 eax, DWORD PTR _n$220117[ebp]
  00449	89 44 ca 58	 mov	 DWORD PTR [edx+ecx*8+88], eax

; 92   : 			this->T[this->Count].M	= n[1];

  0044d	8b 45 f8	 mov	 eax, DWORD PTR _this$[ebp]
  00450	8b 88 a8 00 00
	00		 mov	 ecx, DWORD PTR [eax+168]
  00456	8b 55 f8	 mov	 edx, DWORD PTR _this$[ebp]
  00459	8b 85 e4 fe ff
	ff		 mov	 eax, DWORD PTR _n$220117[ebp+4]
  0045f	89 44 ca 5c	 mov	 DWORD PTR [edx+ecx*8+92], eax

; 93   : 			this->Count++;

  00463	8b 45 f8	 mov	 eax, DWORD PTR _this$[ebp]
  00466	8b 88 a8 00 00
	00		 mov	 ecx, DWORD PTR [eax+168]
  0046c	83 c1 01	 add	 ecx, 1
  0046f	8b 55 f8	 mov	 edx, DWORD PTR _this$[ebp]
  00472	89 8a a8 00 00
	00		 mov	 DWORD PTR [edx+168], ecx
$LN1@Load:

; 94   : 		}
; 95   : 	}

  00478	e9 44 ff ff ff	 jmp	 $LN4@Load
$LN3@Load:

; 96   : 	fclose(file);

  0047d	8b 45 f0	 mov	 eax, DWORD PTR _file$[ebp]
  00480	50		 push	 eax
  00481	e8 00 00 00 00	 call	 _fclose
  00486	83 c4 04	 add	 esp, 4
$LN15@Load:

; 97   : }

  00489	5f		 pop	 edi
  0048a	5e		 pop	 esi
  0048b	5b		 pop	 ebx
  0048c	8b 4d fc	 mov	 ecx, DWORD PTR __$ArrayPad$[ebp]
  0048f	33 cd		 xor	 ecx, ebp
  00491	e8 00 00 00 00	 call	 @__security_check_cookie@4
  00496	8b e5		 mov	 esp, ebp
  00498	5d		 pop	 ebp
  00499	c3		 ret	 0
?Load@cTvTEvent@@QAEXXZ ENDP				; cTvTEvent::Load
_TEXT	ENDS
PUBLIC	?RestoreUser@cTvTEvent@@QAEXH@Z			; cTvTEvent::RestoreUser
; Function compile flags: /Odtp /ZI
_TEXT	SEGMENT
_this$ = -4						; size = 4
_aIndex$ = 8						; size = 4
?RestoreUser@cTvTEvent@@QAEXH@Z PROC			; cTvTEvent::RestoreUser
; _this$ = ecx

; 100  : {

  004a0	55		 push	 ebp
  004a1	8b ec		 mov	 ebp, esp
  004a3	83 ec 44	 sub	 esp, 68			; 00000044H
  004a6	53		 push	 ebx
  004a7	56		 push	 esi
  004a8	57		 push	 edi
  004a9	89 4d fc	 mov	 DWORD PTR _this$[ebp], ecx

; 101  : 	this->Player[aIndex].Available = false;

  004ac	8b 45 08	 mov	 eax, DWORD PTR _aIndex$[ebp]
  004af	8b 4d fc	 mov	 ecx, DWORD PTR _this$[ebp]
  004b2	c6 84 c1 b9 00
	00 00 00	 mov	 BYTE PTR [ecx+eax*8+185], 0

; 102  : 	this->Player[aIndex].Team = 0;	

  004ba	8b 45 08	 mov	 eax, DWORD PTR _aIndex$[ebp]
  004bd	8b 4d fc	 mov	 ecx, DWORD PTR _this$[ebp]
  004c0	c7 84 c1 bc 00
	00 00 00 00 00
	00		 mov	 DWORD PTR [ecx+eax*8+188], 0

; 103  : }

  004cb	5f		 pop	 edi
  004cc	5e		 pop	 esi
  004cd	5b		 pop	 ebx
  004ce	8b e5		 mov	 esp, ebp
  004d0	5d		 pop	 ebp
  004d1	c2 04 00	 ret	 4
?RestoreUser@cTvTEvent@@QAEXH@Z ENDP			; cTvTEvent::RestoreUser
_TEXT	ENDS
PUBLIC	?RestoreTEvent@cTvTEvent@@QAEXH@Z		; cTvTEvent::RestoreTEvent
; Function compile flags: /Odtp /ZI
_TEXT	SEGMENT
_this$ = -4						; size = 4
_aIndex$ = 8						; size = 4
?RestoreTEvent@cTvTEvent@@QAEXH@Z PROC			; cTvTEvent::RestoreTEvent
; _this$ = ecx

; 106  : {

  004e0	55		 push	 ebp
  004e1	8b ec		 mov	 ebp, esp
  004e3	83 ec 44	 sub	 esp, 68			; 00000044H
  004e6	53		 push	 ebx
  004e7	56		 push	 esi
  004e8	57		 push	 edi
  004e9	89 4d fc	 mov	 DWORD PTR _this$[ebp], ecx

; 107  : 	this->Player[aIndex].tEvent = false;

  004ec	8b 45 08	 mov	 eax, DWORD PTR _aIndex$[ebp]
  004ef	8b 4d fc	 mov	 ecx, DWORD PTR _this$[ebp]
  004f2	c6 84 c1 b8 00
	00 00 00	 mov	 BYTE PTR [ecx+eax*8+184], 0

; 108  : }

  004fa	5f		 pop	 edi
  004fb	5e		 pop	 esi
  004fc	5b		 pop	 ebx
  004fd	8b e5		 mov	 esp, ebp
  004ff	5d		 pop	 ebp
  00500	c2 04 00	 ret	 4
?RestoreTEvent@cTvTEvent@@QAEXH@Z ENDP			; cTvTEvent::RestoreTEvent
_TEXT	ENDS
PUBLIC	??_C@_0BP@HCGCAHHL@?$FLTvT?5Event?$FN?5Only?5one?5window?5pc?$AA@ ; `string'
PUBLIC	??_C@_0BD@NGMANHND@?$FLTvT?5Event?$FN?5Closed?$AA@ ; `string'
PUBLIC	??_C@_0CE@DGDENJGC@?$FLTvT?5Event?$FN?5Need?5NeedGrandReset?3@ ; `string'
PUBLIC	??_C@_0BL@CKHMCLAO@?$FLTvT?5Event?$FN?5Need?5Reset?3?5?$CFd?$AA@ ; `string'
PUBLIC	??_C@_0BL@LEHOBEMH@?$FLTvT?5Event?$FN?5Need?5Level?3?5?$CFd?$AA@ ; `string'
PUBLIC	?NPCClick@cTvTEvent@@QAEXPAUOBJECTSTRUCT@@0@Z	; cTvTEvent::NPCClick
EXTRN	?gObjTeleport@@YAXHHHH@Z:PROC			; gObjTeleport
EXTRN	?MsgNormal@@YAXHPADZZ:PROC			; MsgNormal
;	COMDAT ??_C@_0BP@HCGCAHHL@?$FLTvT?5Event?$FN?5Only?5one?5window?5pc?$AA@
CONST	SEGMENT
??_C@_0BP@HCGCAHHL@?$FLTvT?5Event?$FN?5Only?5one?5window?5pc?$AA@ DB '[Tv'
	DB	'T Event] Only one window pc', 00H		; `string'
CONST	ENDS
;	COMDAT ??_C@_0BD@NGMANHND@?$FLTvT?5Event?$FN?5Closed?$AA@
CONST	SEGMENT
??_C@_0BD@NGMANHND@?$FLTvT?5Event?$FN?5Closed?$AA@ DB '[TvT Event] Closed'
	DB	00H						; `string'
CONST	ENDS
;	COMDAT ??_C@_0CE@DGDENJGC@?$FLTvT?5Event?$FN?5Need?5NeedGrandReset?3@
CONST	SEGMENT
??_C@_0CE@DGDENJGC@?$FLTvT?5Event?$FN?5Need?5NeedGrandReset?3@ DB '[TvT E'
	DB	'vent] Need NeedGrandReset: %d', 00H		; `string'
CONST	ENDS
;	COMDAT ??_C@_0BL@CKHMCLAO@?$FLTvT?5Event?$FN?5Need?5Reset?3?5?$CFd?$AA@
CONST	SEGMENT
??_C@_0BL@CKHMCLAO@?$FLTvT?5Event?$FN?5Need?5Reset?3?5?$CFd?$AA@ DB '[TvT'
	DB	' Event] Need Reset: %d', 00H		; `string'
CONST	ENDS
;	COMDAT ??_C@_0BL@LEHOBEMH@?$FLTvT?5Event?$FN?5Need?5Level?3?5?$CFd?$AA@
CONST	SEGMENT
??_C@_0BL@LEHOBEMH@?$FLTvT?5Event?$FN?5Need?5Level?3?5?$CFd?$AA@ DB '[TvT'
	DB	' Event] Need Level: %d', 00H		; `string'
; Function compile flags: /Odtp /ZI
CONST	ENDS
_TEXT	SEGMENT
_i$220144 = -8						; size = 4
_this$ = -4						; size = 4
_lpNpc$ = 8						; size = 4
_lpObj$ = 12						; size = 4
?NPCClick@cTvTEvent@@QAEXPAUOBJECTSTRUCT@@0@Z PROC	; cTvTEvent::NPCClick
; _this$ = ecx

; 111  : {

  00510	55		 push	 ebp
  00511	8b ec		 mov	 ebp, esp
  00513	83 ec 48	 sub	 esp, 72			; 00000048H
  00516	53		 push	 ebx
  00517	56		 push	 esi
  00518	57		 push	 edi
  00519	89 4d fc	 mov	 DWORD PTR _this$[ebp], ecx

; 112  : 	if(!this->Enable)return;

  0051c	8b 45 fc	 mov	 eax, DWORD PTR _this$[ebp]
  0051f	83 38 00	 cmp	 DWORD PTR [eax], 0
  00522	75 05		 jne	 SHORT $LN13@NPCClick
  00524	e9 d2 01 00 00	 jmp	 $LN14@NPCClick
$LN13@NPCClick:

; 113  : 	if(lpNpc->Class == this->NPC)

  00529	8b 45 08	 mov	 eax, DWORD PTR _lpNpc$[ebp]
  0052c	0f b7 88 b8 00
	00 00		 movzx	 ecx, WORD PTR [eax+184]
  00533	8b 55 fc	 mov	 edx, DWORD PTR _this$[ebp]
  00536	3b 4a 04	 cmp	 ecx, DWORD PTR [edx+4]
  00539	0f 85 bc 01 00
	00		 jne	 $LN14@NPCClick

; 114  : 	{
; 115  : 		if(this->NeedLevel > lpObj->Level)

  0053f	8b 45 0c	 mov	 eax, DWORD PTR _lpObj$[ebp]
  00542	0f bf 88 be 00
	00 00		 movsx	 ecx, WORD PTR [eax+190]
  00549	8b 55 fc	 mov	 edx, DWORD PTR _this$[ebp]
  0054c	39 4a 08	 cmp	 DWORD PTR [edx+8], ecx
  0054f	7e 1f		 jle	 SHORT $LN11@NPCClick

; 116  : 		{
; 117  : 			MsgNormal(lpObj->m_Index,"[TvT Event] Need Level: %d",this->NeedLevel);

  00551	8b 45 fc	 mov	 eax, DWORD PTR _this$[ebp]
  00554	8b 48 08	 mov	 ecx, DWORD PTR [eax+8]
  00557	51		 push	 ecx
  00558	68 00 00 00 00	 push	 OFFSET ??_C@_0BL@LEHOBEMH@?$FLTvT?5Event?$FN?5Need?5Level?3?5?$CFd?$AA@
  0055d	8b 55 0c	 mov	 edx, DWORD PTR _lpObj$[ebp]
  00560	8b 02		 mov	 eax, DWORD PTR [edx]
  00562	50		 push	 eax
  00563	e8 00 00 00 00	 call	 ?MsgNormal@@YAXHPADZZ	; MsgNormal
  00568	83 c4 0c	 add	 esp, 12			; 0000000cH

; 118  : 			return;

  0056b	e9 8b 01 00 00	 jmp	 $LN14@NPCClick
$LN11@NPCClick:

; 119  : 		}
; 120  : 
; 121  : 		if(this->NeedReset > lpObj->Reset)

  00570	8b 45 fc	 mov	 eax, DWORD PTR _this$[ebp]
  00573	8b 4d 0c	 mov	 ecx, DWORD PTR _lpObj$[ebp]
  00576	8b 50 0c	 mov	 edx, DWORD PTR [eax+12]
  00579	3b 91 90 22 00
	00		 cmp	 edx, DWORD PTR [ecx+8848]
  0057f	7e 1f		 jle	 SHORT $LN10@NPCClick

; 122  : 		{
; 123  : 			MsgNormal(lpObj->m_Index,"[TvT Event] Need Reset: %d",this->NeedReset);

  00581	8b 45 fc	 mov	 eax, DWORD PTR _this$[ebp]
  00584	8b 48 0c	 mov	 ecx, DWORD PTR [eax+12]
  00587	51		 push	 ecx
  00588	68 00 00 00 00	 push	 OFFSET ??_C@_0BL@CKHMCLAO@?$FLTvT?5Event?$FN?5Need?5Reset?3?5?$CFd?$AA@
  0058d	8b 55 0c	 mov	 edx, DWORD PTR _lpObj$[ebp]
  00590	8b 02		 mov	 eax, DWORD PTR [edx]
  00592	50		 push	 eax
  00593	e8 00 00 00 00	 call	 ?MsgNormal@@YAXHPADZZ	; MsgNormal
  00598	83 c4 0c	 add	 esp, 12			; 0000000cH

; 124  : 			return;

  0059b	e9 5b 01 00 00	 jmp	 $LN14@NPCClick
$LN10@NPCClick:

; 125  : 		}
; 126  : 
; 127  : 		if(this->NeedGrandReset > lpObj->GReset)

  005a0	8b 45 fc	 mov	 eax, DWORD PTR _this$[ebp]
  005a3	8b 4d 0c	 mov	 ecx, DWORD PTR _lpObj$[ebp]
  005a6	8b 50 10	 mov	 edx, DWORD PTR [eax+16]
  005a9	3b 91 94 22 00
	00		 cmp	 edx, DWORD PTR [ecx+8852]
  005af	7e 1f		 jle	 SHORT $LN9@NPCClick

; 128  : 		{
; 129  : 			MsgNormal(lpObj->m_Index,"[TvT Event] Need NeedGrandReset: %d",this->NeedGrandReset);

  005b1	8b 45 fc	 mov	 eax, DWORD PTR _this$[ebp]
  005b4	8b 48 10	 mov	 ecx, DWORD PTR [eax+16]
  005b7	51		 push	 ecx
  005b8	68 00 00 00 00	 push	 OFFSET ??_C@_0CE@DGDENJGC@?$FLTvT?5Event?$FN?5Need?5NeedGrandReset?3@
  005bd	8b 55 0c	 mov	 edx, DWORD PTR _lpObj$[ebp]
  005c0	8b 02		 mov	 eax, DWORD PTR [edx]
  005c2	50		 push	 eax
  005c3	e8 00 00 00 00	 call	 ?MsgNormal@@YAXHPADZZ	; MsgNormal
  005c8	83 c4 0c	 add	 esp, 12			; 0000000cH

; 130  : 			return;

  005cb	e9 2b 01 00 00	 jmp	 $LN14@NPCClick
$LN9@NPCClick:

; 131  : 		}
; 132  : 
; 133  : 		if(!this->Waiting)

  005d0	8b 45 fc	 mov	 eax, DWORD PTR _this$[ebp]
  005d3	0f b6 88 ac 00
	00 00		 movzx	 ecx, BYTE PTR [eax+172]
  005da	85 c9		 test	 ecx, ecx
  005dc	75 18		 jne	 SHORT $LN8@NPCClick

; 134  : 		{
; 135  : 			MsgNormal(lpObj->m_Index,"[TvT Event] Closed");

  005de	68 00 00 00 00	 push	 OFFSET ??_C@_0BD@NGMANHND@?$FLTvT?5Event?$FN?5Closed?$AA@
  005e3	8b 45 0c	 mov	 eax, DWORD PTR _lpObj$[ebp]
  005e6	8b 08		 mov	 ecx, DWORD PTR [eax]
  005e8	51		 push	 ecx
  005e9	e8 00 00 00 00	 call	 ?MsgNormal@@YAXHPADZZ	; MsgNormal
  005ee	83 c4 08	 add	 esp, 8

; 136  : 			return;

  005f1	e9 05 01 00 00	 jmp	 $LN14@NPCClick
$LN8@NPCClick:

; 137  : 		}
; 138  : 
; 139  : #if(ADD_TVTHDDCHECK==1)
; 140  : 		if(g_ExLicense.CheckUser(eExUB::Gredy) || g_ExLicense.CheckUser(eExUB::GredyLocal) || g_ExLicense.CheckUser(eExUB::Gredy2))

  005f6	6a 20		 push	 32			; 00000020H
  005f8	b9 00 00 00 00	 mov	 ecx, OFFSET ?g_ExLicense@@3VCExLicense@@A ; g_ExLicense
  005fd	e8 00 00 00 00	 call	 ?CheckUser@CExLicense@@QAE_NH@Z ; CExLicense::CheckUser
  00602	0f b6 c0	 movzx	 eax, al
  00605	85 c0		 test	 eax, eax
  00607	75 26		 jne	 SHORT $LN6@NPCClick
  00609	6a 21		 push	 33			; 00000021H
  0060b	b9 00 00 00 00	 mov	 ecx, OFFSET ?g_ExLicense@@3VCExLicense@@A ; g_ExLicense
  00610	e8 00 00 00 00	 call	 ?CheckUser@CExLicense@@QAE_NH@Z ; CExLicense::CheckUser
  00615	0f b6 c0	 movzx	 eax, al
  00618	85 c0		 test	 eax, eax
  0061a	75 13		 jne	 SHORT $LN6@NPCClick
  0061c	6a 22		 push	 34			; 00000022H
  0061e	b9 00 00 00 00	 mov	 ecx, OFFSET ?g_ExLicense@@3VCExLicense@@A ; g_ExLicense
  00623	e8 00 00 00 00	 call	 ?CheckUser@CExLicense@@QAE_NH@Z ; CExLicense::CheckUser
  00628	0f b6 c0	 movzx	 eax, al
  0062b	85 c0		 test	 eax, eax
  0062d	74 74		 je	 SHORT $LN7@NPCClick
$LN6@NPCClick:

; 141  : 		{
; 142  : 			for(int i = 0; i < OBJMAX; i++)

  0062f	c7 45 f8 00 00
	00 00		 mov	 DWORD PTR _i$220144[ebp], 0
  00636	eb 09		 jmp	 SHORT $LN5@NPCClick
$LN4@NPCClick:
  00638	8b 45 f8	 mov	 eax, DWORD PTR _i$220144[ebp]
  0063b	83 c0 01	 add	 eax, 1
  0063e	89 45 f8	 mov	 DWORD PTR _i$220144[ebp], eax
$LN5@NPCClick:
  00641	81 7d f8 98 3a
	00 00		 cmp	 DWORD PTR _i$220144[ebp], 15000 ; 00003a98H
  00648	7d 41		 jge	 SHORT $LN3@NPCClick

; 143  : 			{
; 144  : 				if(!this->player_hdd[i])

  0064a	8b 45 f8	 mov	 eax, DWORD PTR _i$220144[ebp]
  0064d	8b 4d fc	 mov	 ecx, DWORD PTR _this$[ebp]
  00650	83 bc 81 84 d5
	01 00 00	 cmp	 DWORD PTR [ecx+eax*4+120196], 0
  00658	75 02		 jne	 SHORT $LN2@NPCClick

; 145  : 				{
; 146  : 					continue;

  0065a	eb dc		 jmp	 SHORT $LN4@NPCClick
$LN2@NPCClick:

; 147  : 				}
; 148  : 
; 149  : 				if(this->player_hdd[i] == lpObj->hdd_id)

  0065c	8b 45 f8	 mov	 eax, DWORD PTR _i$220144[ebp]
  0065f	8b 4d fc	 mov	 ecx, DWORD PTR _this$[ebp]
  00662	8b 55 0c	 mov	 edx, DWORD PTR _lpObj$[ebp]
  00665	8b 84 81 84 d5
	01 00		 mov	 eax, DWORD PTR [ecx+eax*4+120196]
  0066c	3b 82 8c 28 00
	00		 cmp	 eax, DWORD PTR [edx+10380]
  00672	75 15		 jne	 SHORT $LN1@NPCClick

; 150  : 				{
; 151  : 					MsgNormal(lpObj->m_Index,"[TvT Event] Only one window pc");

  00674	68 00 00 00 00	 push	 OFFSET ??_C@_0BP@HCGCAHHL@?$FLTvT?5Event?$FN?5Only?5one?5window?5pc?$AA@
  00679	8b 45 0c	 mov	 eax, DWORD PTR _lpObj$[ebp]
  0067c	8b 08		 mov	 ecx, DWORD PTR [eax]
  0067e	51		 push	 ecx
  0067f	e8 00 00 00 00	 call	 ?MsgNormal@@YAXHPADZZ	; MsgNormal
  00684	83 c4 08	 add	 esp, 8

; 152  : 					return;

  00687	eb 72		 jmp	 SHORT $LN14@NPCClick
$LN1@NPCClick:

; 153  : 				}
; 154  : 			}

  00689	eb ad		 jmp	 SHORT $LN4@NPCClick
$LN3@NPCClick:

; 155  : 
; 156  : 			this->player_hdd[lpObj->m_Index] = lpObj->hdd_id;

  0068b	8b 45 0c	 mov	 eax, DWORD PTR _lpObj$[ebp]
  0068e	8b 08		 mov	 ecx, DWORD PTR [eax]
  00690	8b 55 fc	 mov	 edx, DWORD PTR _this$[ebp]
  00693	8b 45 0c	 mov	 eax, DWORD PTR _lpObj$[ebp]
  00696	8b 80 8c 28 00
	00		 mov	 eax, DWORD PTR [eax+10380]
  0069c	89 84 8a 84 d5
	01 00		 mov	 DWORD PTR [edx+ecx*4+120196], eax
$LN7@NPCClick:

; 157  : 		}
; 158  : #endif
; 159  : 
; 160  : 		this->Player[lpObj->m_Index].tEvent = true;

  006a3	8b 45 0c	 mov	 eax, DWORD PTR _lpObj$[ebp]
  006a6	8b 08		 mov	 ecx, DWORD PTR [eax]
  006a8	8b 55 fc	 mov	 edx, DWORD PTR _this$[ebp]
  006ab	c6 84 ca b8 00
	00 00 01	 mov	 BYTE PTR [edx+ecx*8+184], 1

; 161  : 		this->Player[lpObj->m_Index].Available = true;

  006b3	8b 45 0c	 mov	 eax, DWORD PTR _lpObj$[ebp]
  006b6	8b 08		 mov	 ecx, DWORD PTR [eax]
  006b8	8b 55 fc	 mov	 edx, DWORD PTR _this$[ebp]
  006bb	c6 84 ca b9 00
	00 00 01	 mov	 BYTE PTR [edx+ecx*8+185], 1

; 162  : 		this->TotalPlayer++;

  006c3	8b 45 fc	 mov	 eax, DWORD PTR _this$[ebp]
  006c6	8b 88 78 d5 01
	00		 mov	 ecx, DWORD PTR [eax+120184]
  006cc	83 c1 01	 add	 ecx, 1
  006cf	8b 55 fc	 mov	 edx, DWORD PTR _this$[ebp]
  006d2	89 8a 78 d5 01
	00		 mov	 DWORD PTR [edx+120184], ecx

; 163  : 		gObjTeleport(lpObj->m_Index,this->WaitingMap,this->WaitingX,this->WaitingY);

  006d8	8b 45 fc	 mov	 eax, DWORD PTR _this$[ebp]
  006db	8b 48 20	 mov	 ecx, DWORD PTR [eax+32]
  006de	51		 push	 ecx
  006df	8b 55 fc	 mov	 edx, DWORD PTR _this$[ebp]
  006e2	8b 42 1c	 mov	 eax, DWORD PTR [edx+28]
  006e5	50		 push	 eax
  006e6	8b 4d fc	 mov	 ecx, DWORD PTR _this$[ebp]
  006e9	8b 51 18	 mov	 edx, DWORD PTR [ecx+24]
  006ec	52		 push	 edx
  006ed	8b 45 0c	 mov	 eax, DWORD PTR _lpObj$[ebp]
  006f0	8b 08		 mov	 ecx, DWORD PTR [eax]
  006f2	51		 push	 ecx
  006f3	e8 00 00 00 00	 call	 ?gObjTeleport@@YAXHHHH@Z ; gObjTeleport
  006f8	83 c4 10	 add	 esp, 16			; 00000010H
$LN14@NPCClick:

; 164  : 	}
; 165  : }

  006fb	5f		 pop	 edi
  006fc	5e		 pop	 esi
  006fd	5b		 pop	 ebx
  006fe	8b e5		 mov	 esp, ebp
  00700	5d		 pop	 ebp
  00701	c2 08 00	 ret	 8
?NPCClick@cTvTEvent@@QAEXPAUOBJECTSTRUCT@@0@Z ENDP	; cTvTEvent::NPCClick
_TEXT	ENDS
PUBLIC	??_C@_0CA@JKFBENBB@?$FLTvT?5Event?$FN?5Starts?5in?5?$CFd?5minute?$AA@ ; `string'
PUBLIC	??_C@_0BG@LHIFGLIN@?$FLTvT?5Event?$FN?5Dead?5heat?$AA@ ; `string'
PUBLIC	??_C@_0CA@EKGDDMJN@?$FLTvT?5Event?$FN?5Red?3?5?$CFd?5Vs?5Blue?3?5?$CFd?$AA@ ; `string'
PUBLIC	??_C@_0BJ@IJAECJBJ@?$FLTvT?5Event?$FN?5Win?5Red?5Team?$AA@ ; `string'
PUBLIC	??_C@_0CA@JJNMGFIP@?$FLTvT?5Event?$FN?5Blue?3?5?$CFd?5Vs?5Red?3?5?$CFd?$AA@ ; `string'
PUBLIC	??_C@_0BK@BDBEFFAJ@?$FLTvT?5Event?$FN?5Win?5Blue?5Team?$AA@ ; `string'
PUBLIC	?Reward@cTvTEvent@@QAEXH@Z			; cTvTEvent::Reward
PUBLIC	??_C@_0BA@EPLFLOEN@?$FLTvT?5Event?$FN?5End?$AA@	; `string'
PUBLIC	??_C@_0BN@GBPGLDJO@?$FLTvT?5Event?$FN?5Total?5Player?3?5?$CFd?$AA@ ; `string'
PUBLIC	??_C@_0BC@LNCJHOCN@?$FLTvT?5Event?$FN?5Start?$AA@ ; `string'
PUBLIC	?DivisionTeam@cTvTEvent@@QAEXXZ			; cTvTEvent::DivisionTeam
PUBLIC	__$ArrayPad$
PUBLIC	?TickTime@cTvTEvent@@QAEXXZ			; cTvTEvent::TickTime
EXTRN	?GetSecond@CTimerEx@@QAEHXZ:PROC		; CTimerEx::GetSecond
EXTRN	?g_TimerEx@@3VCTimerEx@@A:DWORD			; g_TimerEx
EXTRN	?gObjViewportListProtocolCreate@@YAXPAUOBJECTSTRUCT@@@Z:PROC ; gObjViewportListProtocolCreate
EXTRN	?gObjMoveGate@@YAHHH@Z:PROC			; gObjMoveGate
EXTRN	?gObj@@3PAUOBJECTSTRUCT@@A:DWORD		; gObj
EXTRN	?MessaageAllGlobal@@YAXPADZZ:PROC		; MessaageAllGlobal
EXTRN	__imp__GetLocalTime@4:PROC
;	COMDAT ??_C@_0CA@JKFBENBB@?$FLTvT?5Event?$FN?5Starts?5in?5?$CFd?5minute?$AA@
CONST	SEGMENT
??_C@_0CA@JKFBENBB@?$FLTvT?5Event?$FN?5Starts?5in?5?$CFd?5minute?$AA@ DB '['
	DB	'TvT Event] Starts in %d minute', 00H	; `string'
CONST	ENDS
;	COMDAT ??_C@_0BG@LHIFGLIN@?$FLTvT?5Event?$FN?5Dead?5heat?$AA@
CONST	SEGMENT
??_C@_0BG@LHIFGLIN@?$FLTvT?5Event?$FN?5Dead?5heat?$AA@ DB '[TvT Event] De'
	DB	'ad heat', 00H				; `string'
CONST	ENDS
;	COMDAT ??_C@_0CA@EKGDDMJN@?$FLTvT?5Event?$FN?5Red?3?5?$CFd?5Vs?5Blue?3?5?$CFd?$AA@
CONST	SEGMENT
??_C@_0CA@EKGDDMJN@?$FLTvT?5Event?$FN?5Red?3?5?$CFd?5Vs?5Blue?3?5?$CFd?$AA@ DB '['
	DB	'TvT Event] Red: %d Vs Blue: %d', 00H	; `string'
CONST	ENDS
;	COMDAT ??_C@_0BJ@IJAECJBJ@?$FLTvT?5Event?$FN?5Win?5Red?5Team?$AA@
CONST	SEGMENT
??_C@_0BJ@IJAECJBJ@?$FLTvT?5Event?$FN?5Win?5Red?5Team?$AA@ DB '[TvT Event'
	DB	'] Win Red Team', 00H			; `string'
CONST	ENDS
;	COMDAT ??_C@_0CA@JJNMGFIP@?$FLTvT?5Event?$FN?5Blue?3?5?$CFd?5Vs?5Red?3?5?$CFd?$AA@
CONST	SEGMENT
??_C@_0CA@JJNMGFIP@?$FLTvT?5Event?$FN?5Blue?3?5?$CFd?5Vs?5Red?3?5?$CFd?$AA@ DB '['
	DB	'TvT Event] Blue: %d Vs Red: %d', 00H	; `string'
CONST	ENDS
;	COMDAT ??_C@_0BK@BDBEFFAJ@?$FLTvT?5Event?$FN?5Win?5Blue?5Team?$AA@
CONST	SEGMENT
??_C@_0BK@BDBEFFAJ@?$FLTvT?5Event?$FN?5Win?5Blue?5Team?$AA@ DB '[TvT Even'
	DB	't] Win Blue Team', 00H			; `string'
CONST	ENDS
;	COMDAT ??_C@_0BA@EPLFLOEN@?$FLTvT?5Event?$FN?5End?$AA@
CONST	SEGMENT
??_C@_0BA@EPLFLOEN@?$FLTvT?5Event?$FN?5End?$AA@ DB '[TvT Event] End', 00H ; `string'
CONST	ENDS
;	COMDAT ??_C@_0BN@GBPGLDJO@?$FLTvT?5Event?$FN?5Total?5Player?3?5?$CFd?$AA@
CONST	SEGMENT
??_C@_0BN@GBPGLDJO@?$FLTvT?5Event?$FN?5Total?5Player?3?5?$CFd?$AA@ DB '[T'
	DB	'vT Event] Total Player: %d', 00H		; `string'
CONST	ENDS
;	COMDAT ??_C@_0BC@LNCJHOCN@?$FLTvT?5Event?$FN?5Start?$AA@
CONST	SEGMENT
??_C@_0BC@LNCJHOCN@?$FLTvT?5Event?$FN?5Start?$AA@ DB '[TvT Event] Start', 00H ; `string'
; Function compile flags: /Odtp /ZI
CONST	ENDS
_TEXT	SEGMENT
_i$220204 = -52						; size = 4
_i$220197 = -48						; size = 4
_i$220192 = -44						; size = 4
_sObj$220186 = -40					; size = 4
_n$220182 = -36						; size = 4
_sObj$220167 = -32					; size = 4
_n$220163 = -28						; size = 4
_t$ = -24						; size = 16
_this$ = -8						; size = 4
__$ArrayPad$ = -4					; size = 4
?TickTime@cTvTEvent@@QAEXXZ PROC			; cTvTEvent::TickTime
; _this$ = ecx

; 168  : {

  00710	55		 push	 ebp
  00711	8b ec		 mov	 ebp, esp
  00713	83 ec 74	 sub	 esp, 116		; 00000074H
  00716	a1 00 00 00 00	 mov	 eax, DWORD PTR ___security_cookie
  0071b	33 c5		 xor	 eax, ebp
  0071d	89 45 fc	 mov	 DWORD PTR __$ArrayPad$[ebp], eax
  00720	53		 push	 ebx
  00721	56		 push	 esi
  00722	57		 push	 edi
  00723	89 4d f8	 mov	 DWORD PTR _this$[ebp], ecx

; 169  : 	if(!this->Enable)return;

  00726	8b 45 f8	 mov	 eax, DWORD PTR _this$[ebp]
  00729	83 38 00	 cmp	 DWORD PTR [eax], 0
  0072c	75 05		 jne	 SHORT $LN38@TickTime
  0072e	e9 e9 04 00 00	 jmp	 $LN39@TickTime
$LN38@TickTime:

; 170  : 	SYSTEMTIME t;
; 171  : 	GetLocalTime(&t);

  00733	8d 45 e8	 lea	 eax, DWORD PTR _t$[ebp]
  00736	50		 push	 eax
  00737	ff 15 00 00 00
	00		 call	 DWORD PTR __imp__GetLocalTime@4

; 172  : 
; 173  : 	if(this->Waiting == true)

  0073d	8b 45 f8	 mov	 eax, DWORD PTR _this$[ebp]
  00740	0f b6 88 ac 00
	00 00		 movzx	 ecx, BYTE PTR [eax+172]
  00747	83 f9 01	 cmp	 ecx, 1
  0074a	0f 85 8e 01 00
	00		 jne	 $LN37@TickTime

; 174  : 	{
; 175  : 		this->WaitingTick++;

  00750	8b 45 f8	 mov	 eax, DWORD PTR _this$[ebp]
  00753	8b 88 b0 00 00
	00		 mov	 ecx, DWORD PTR [eax+176]
  00759	83 c1 01	 add	 ecx, 1
  0075c	8b 55 f8	 mov	 edx, DWORD PTR _this$[ebp]
  0075f	89 8a b0 00 00
	00		 mov	 DWORD PTR [edx+176], ecx

; 176  : 		if(this->WaitingTick == this->WaitingTime)

  00765	8b 45 f8	 mov	 eax, DWORD PTR _this$[ebp]
  00768	8b 4d f8	 mov	 ecx, DWORD PTR _this$[ebp]
  0076b	8b 90 b0 00 00
	00		 mov	 edx, DWORD PTR [eax+176]
  00771	3b 51 34	 cmp	 edx, DWORD PTR [ecx+52]
  00774	0f 85 5f 01 00
	00		 jne	 $LN36@TickTime

; 177  : 		{
; 178  : 			if(this->TotalPlayer >= 2)

  0077a	8b 45 f8	 mov	 eax, DWORD PTR _this$[ebp]
  0077d	83 b8 78 d5 01
	00 02		 cmp	 DWORD PTR [eax+120184], 2
  00784	7c 3b		 jl	 SHORT $LN35@TickTime

; 179  : 			{
; 180  : 				this->DivisionTeam();

  00786	8b 4d f8	 mov	 ecx, DWORD PTR _this$[ebp]
  00789	e8 00 00 00 00	 call	 ?DivisionTeam@cTvTEvent@@QAEXXZ ; cTvTEvent::DivisionTeam

; 181  : 				MessaageAllGlobal("[TvT Event] Start");

  0078e	68 00 00 00 00	 push	 OFFSET ??_C@_0BC@LNCJHOCN@?$FLTvT?5Event?$FN?5Start?$AA@
  00793	e8 00 00 00 00	 call	 ?MessaageAllGlobal@@YAXPADZZ ; MessaageAllGlobal
  00798	83 c4 04	 add	 esp, 4

; 182  : 				MessaageAllGlobal("[TvT Event] Total Player: %d",this->TotalPlayer);

  0079b	8b 45 f8	 mov	 eax, DWORD PTR _this$[ebp]
  0079e	8b 88 78 d5 01
	00		 mov	 ecx, DWORD PTR [eax+120184]
  007a4	51		 push	 ecx
  007a5	68 00 00 00 00	 push	 OFFSET ??_C@_0BN@GBPGLDJO@?$FLTvT?5Event?$FN?5Total?5Player?3?5?$CFd?$AA@
  007aa	e8 00 00 00 00	 call	 ?MessaageAllGlobal@@YAXPADZZ ; MessaageAllGlobal
  007af	83 c4 08	 add	 esp, 8

; 183  : 				this->Start = true;

  007b2	8b 45 f8	 mov	 eax, DWORD PTR _this$[ebp]
  007b5	c6 80 ad 00 00
	00 01		 mov	 BYTE PTR [eax+173], 1

; 184  : 			}
; 185  : 			else

  007bc	e9 01 01 00 00	 jmp	 $LN34@TickTime
$LN35@TickTime:

; 186  : 			{
; 187  : 				MessaageAllGlobal("[TvT Event] End");

  007c1	68 00 00 00 00	 push	 OFFSET ??_C@_0BA@EPLFLOEN@?$FLTvT?5Event?$FN?5End?$AA@
  007c6	e8 00 00 00 00	 call	 ?MessaageAllGlobal@@YAXPADZZ ; MessaageAllGlobal
  007cb	83 c4 04	 add	 esp, 4

; 188  : 				for(int n=OBJ_STARTUSERINDEX;n<OBJMAX;n++)

  007ce	c7 45 e4 b0 36
	00 00		 mov	 DWORD PTR _n$220163[ebp], 14000 ; 000036b0H
  007d5	eb 09		 jmp	 SHORT $LN33@TickTime
$LN32@TickTime:
  007d7	8b 45 e4	 mov	 eax, DWORD PTR _n$220163[ebp]
  007da	83 c0 01	 add	 eax, 1
  007dd	89 45 e4	 mov	 DWORD PTR _n$220163[ebp], eax
$LN33@TickTime:
  007e0	81 7d e4 98 3a
	00 00		 cmp	 DWORD PTR _n$220163[ebp], 15000 ; 00003a98H
  007e7	0f 8d a4 00 00
	00		 jge	 $LN31@TickTime

; 189  : 				{
; 190  : 					LPOBJ sObj = &gObj[n];

  007ed	8b 45 e4	 mov	 eax, DWORD PTR _n$220163[ebp]
  007f0	69 c0 38 2b 00
	00		 imul	 eax, 11064		; 00002b38H
  007f6	03 05 00 00 00
	00		 add	 eax, DWORD PTR ?gObj@@3PAUOBJECTSTRUCT@@A ; gObj
  007fc	89 45 e0	 mov	 DWORD PTR _sObj$220167[ebp], eax

; 191  : 					if(sObj->Connected != PLAYER_PLAYING) continue;

  007ff	8b 45 e0	 mov	 eax, DWORD PTR _sObj$220167[ebp]
  00802	83 78 04 03	 cmp	 DWORD PTR [eax+4], 3
  00806	74 02		 je	 SHORT $LN30@TickTime
  00808	eb cd		 jmp	 SHORT $LN32@TickTime
$LN30@TickTime:

; 192  : 					if(this->Player[n].tEvent == true)

  0080a	8b 45 e4	 mov	 eax, DWORD PTR _n$220163[ebp]
  0080d	8b 4d f8	 mov	 ecx, DWORD PTR _this$[ebp]
  00810	0f b6 94 c1 b8
	00 00 00	 movzx	 edx, BYTE PTR [ecx+eax*8+184]
  00818	83 fa 01	 cmp	 edx, 1
  0081b	75 6f		 jne	 SHORT $LN29@TickTime

; 193  : 					{
; 194  : 						this->Player[n].tEvent = false;

  0081d	8b 45 e4	 mov	 eax, DWORD PTR _n$220163[ebp]
  00820	8b 4d f8	 mov	 ecx, DWORD PTR _this$[ebp]
  00823	c6 84 c1 b8 00
	00 00 00	 mov	 BYTE PTR [ecx+eax*8+184], 0

; 195  : 						gObjMoveGate(n,17);	//Lorencia

  0082b	6a 11		 push	 17			; 00000011H
  0082d	8b 45 e4	 mov	 eax, DWORD PTR _n$220163[ebp]
  00830	50		 push	 eax
  00831	e8 00 00 00 00	 call	 ?gObjMoveGate@@YAHHH@Z	; gObjMoveGate
  00836	83 c4 08	 add	 esp, 8

; 196  : 						if(this->DisplayCommands == 1)

  00839	8b 45 f8	 mov	 eax, DWORD PTR _this$[ebp]
  0083c	83 78 14 01	 cmp	 DWORD PTR [eax+20], 1
  00840	75 32		 jne	 SHORT $LN28@TickTime

; 197  : 						{
; 198  : 							gObj[n].m_Change = -1;

  00842	8b 45 e4	 mov	 eax, DWORD PTR _n$220163[ebp]
  00845	69 c0 38 2b 00
	00		 imul	 eax, 11064		; 00002b38H
  0084b	8b 0d 00 00 00
	00		 mov	 ecx, DWORD PTR ?gObj@@3PAUOBJECTSTRUCT@@A ; gObj
  00851	c7 84 01 54 04
	00 00 ff ff ff
	ff		 mov	 DWORD PTR [ecx+eax+1108], -1

; 199  : 							gObjViewportListProtocolCreate(&gObj[n]);

  0085c	8b 45 e4	 mov	 eax, DWORD PTR _n$220163[ebp]
  0085f	69 c0 38 2b 00
	00		 imul	 eax, 11064		; 00002b38H
  00865	03 05 00 00 00
	00		 add	 eax, DWORD PTR ?gObj@@3PAUOBJECTSTRUCT@@A ; gObj
  0086b	50		 push	 eax
  0086c	e8 00 00 00 00	 call	 ?gObjViewportListProtocolCreate@@YAXPAUOBJECTSTRUCT@@@Z ; gObjViewportListProtocolCreate
  00871	83 c4 04	 add	 esp, 4
$LN28@TickTime:

; 200  : 						}
; 201  : 						this->Reward(n);

  00874	8b 45 e4	 mov	 eax, DWORD PTR _n$220163[ebp]
  00877	50		 push	 eax
  00878	8b 4d f8	 mov	 ecx, DWORD PTR _this$[ebp]
  0087b	e8 00 00 00 00	 call	 ?Reward@cTvTEvent@@QAEXH@Z ; cTvTEvent::Reward

; 202  : 						this->RestoreUser(n);

  00880	8b 45 e4	 mov	 eax, DWORD PTR _n$220163[ebp]
  00883	50		 push	 eax
  00884	8b 4d f8	 mov	 ecx, DWORD PTR _this$[ebp]
  00887	e8 00 00 00 00	 call	 ?RestoreUser@cTvTEvent@@QAEXH@Z ; cTvTEvent::RestoreUser
$LN29@TickTime:

; 203  : 					}
; 204  : 				}

  0088c	e9 46 ff ff ff	 jmp	 $LN32@TickTime
$LN31@TickTime:

; 205  : 				this->Start = false;

  00891	8b 45 f8	 mov	 eax, DWORD PTR _this$[ebp]
  00894	c6 80 ad 00 00
	00 00		 mov	 BYTE PTR [eax+173], 0

; 206  : 				this->TotalPlayer = 0;

  0089b	8b 45 f8	 mov	 eax, DWORD PTR _this$[ebp]
  0089e	c7 80 78 d5 01
	00 00 00 00 00	 mov	 DWORD PTR [eax+120184], 0

; 207  : 				this->ScoreBlue = 0;

  008a8	8b 45 f8	 mov	 eax, DWORD PTR _this$[ebp]
  008ab	c7 80 7c d5 01
	00 00 00 00 00	 mov	 DWORD PTR [eax+120188], 0

; 208  : 				this->ScoreRed = 0;

  008b5	8b 45 f8	 mov	 eax, DWORD PTR _this$[ebp]
  008b8	c7 80 80 d5 01
	00 00 00 00 00	 mov	 DWORD PTR [eax+120192], 0
$LN34@TickTime:

; 209  : 			}
; 210  : 			this->Waiting = false;

  008c2	8b 45 f8	 mov	 eax, DWORD PTR _this$[ebp]
  008c5	c6 80 ac 00 00
	00 00		 mov	 BYTE PTR [eax+172], 0

; 211  : 			this->WaitingTick = 0;

  008cc	8b 45 f8	 mov	 eax, DWORD PTR _this$[ebp]
  008cf	c7 80 b0 00 00
	00 00 00 00 00	 mov	 DWORD PTR [eax+176], 0
$LN36@TickTime:

; 212  : 		}
; 213  : 		return;

  008d9	e9 3e 03 00 00	 jmp	 $LN39@TickTime
$LN37@TickTime:

; 214  : 	}
; 215  : 
; 216  : 	if(this->Start == true)

  008de	8b 45 f8	 mov	 eax, DWORD PTR _this$[ebp]
  008e1	0f b6 88 ad 00
	00 00		 movzx	 ecx, BYTE PTR [eax+173]
  008e8	83 f9 01	 cmp	 ecx, 1
  008eb	0f 85 39 02 00
	00		 jne	 $LN27@TickTime

; 217  : 	{
; 218  : 		this->StartTick++;

  008f1	8b 45 f8	 mov	 eax, DWORD PTR _this$[ebp]
  008f4	8b 88 b4 00 00
	00		 mov	 ecx, DWORD PTR [eax+180]
  008fa	83 c1 01	 add	 ecx, 1
  008fd	8b 55 f8	 mov	 edx, DWORD PTR _this$[ebp]
  00900	89 8a b4 00 00
	00		 mov	 DWORD PTR [edx+180], ecx

; 219  : 		if(this->StartTick == this->EventTime)

  00906	8b 45 f8	 mov	 eax, DWORD PTR _this$[ebp]
  00909	8b 4d f8	 mov	 ecx, DWORD PTR _this$[ebp]
  0090c	8b 90 b4 00 00
	00		 mov	 edx, DWORD PTR [eax+180]
  00912	3b 51 38	 cmp	 edx, DWORD PTR [ecx+56]
  00915	0f 85 0a 02 00
	00		 jne	 $LN26@TickTime

; 220  : 		{
; 221  : 			MessaageAllGlobal("[TvT Event] End");

  0091b	68 00 00 00 00	 push	 OFFSET ??_C@_0BA@EPLFLOEN@?$FLTvT?5Event?$FN?5End?$AA@
  00920	e8 00 00 00 00	 call	 ?MessaageAllGlobal@@YAXPADZZ ; MessaageAllGlobal
  00925	83 c4 04	 add	 esp, 4

; 222  : 
; 223  : 			if(this->ScoreBlue > this->ScoreRed) 

  00928	8b 45 f8	 mov	 eax, DWORD PTR _this$[ebp]
  0092b	8b 4d f8	 mov	 ecx, DWORD PTR _this$[ebp]
  0092e	8b 90 7c d5 01
	00		 mov	 edx, DWORD PTR [eax+120188]
  00934	3b 91 80 d5 01
	00		 cmp	 edx, DWORD PTR [ecx+120192]
  0093a	7e 30		 jle	 SHORT $LN25@TickTime

; 224  : 			{
; 225  : 				MessaageAllGlobal("[TvT Event] Win Blue Team");

  0093c	68 00 00 00 00	 push	 OFFSET ??_C@_0BK@BDBEFFAJ@?$FLTvT?5Event?$FN?5Win?5Blue?5Team?$AA@
  00941	e8 00 00 00 00	 call	 ?MessaageAllGlobal@@YAXPADZZ ; MessaageAllGlobal
  00946	83 c4 04	 add	 esp, 4

; 226  : 				MessaageAllGlobal("[TvT Event] Blue: %d Vs Red: %d",this->ScoreBlue,this->ScoreRed);

  00949	8b 45 f8	 mov	 eax, DWORD PTR _this$[ebp]
  0094c	8b 88 80 d5 01
	00		 mov	 ecx, DWORD PTR [eax+120192]
  00952	51		 push	 ecx
  00953	8b 55 f8	 mov	 edx, DWORD PTR _this$[ebp]
  00956	8b 82 7c d5 01
	00		 mov	 eax, DWORD PTR [edx+120188]
  0095c	50		 push	 eax
  0095d	68 00 00 00 00	 push	 OFFSET ??_C@_0CA@JJNMGFIP@?$FLTvT?5Event?$FN?5Blue?3?5?$CFd?5Vs?5Red?3?5?$CFd?$AA@
  00962	e8 00 00 00 00	 call	 ?MessaageAllGlobal@@YAXPADZZ ; MessaageAllGlobal
  00967	83 c4 0c	 add	 esp, 12			; 0000000cH
  0096a	eb 51		 jmp	 SHORT $LN24@TickTime
$LN25@TickTime:

; 227  : 			}
; 228  : 			else if(this->ScoreRed > ScoreBlue) 

  0096c	8b 45 f8	 mov	 eax, DWORD PTR _this$[ebp]
  0096f	8b 4d f8	 mov	 ecx, DWORD PTR _this$[ebp]
  00972	8b 90 80 d5 01
	00		 mov	 edx, DWORD PTR [eax+120192]
  00978	3b 91 7c d5 01
	00		 cmp	 edx, DWORD PTR [ecx+120188]
  0097e	7e 30		 jle	 SHORT $LN23@TickTime

; 229  : 			{
; 230  : 				MessaageAllGlobal("[TvT Event] Win Red Team");

  00980	68 00 00 00 00	 push	 OFFSET ??_C@_0BJ@IJAECJBJ@?$FLTvT?5Event?$FN?5Win?5Red?5Team?$AA@
  00985	e8 00 00 00 00	 call	 ?MessaageAllGlobal@@YAXPADZZ ; MessaageAllGlobal
  0098a	83 c4 04	 add	 esp, 4

; 231  : 				MessaageAllGlobal("[TvT Event] Red: %d Vs Blue: %d",this->ScoreRed,this->ScoreBlue);

  0098d	8b 45 f8	 mov	 eax, DWORD PTR _this$[ebp]
  00990	8b 88 7c d5 01
	00		 mov	 ecx, DWORD PTR [eax+120188]
  00996	51		 push	 ecx
  00997	8b 55 f8	 mov	 edx, DWORD PTR _this$[ebp]
  0099a	8b 82 80 d5 01
	00		 mov	 eax, DWORD PTR [edx+120192]
  009a0	50		 push	 eax
  009a1	68 00 00 00 00	 push	 OFFSET ??_C@_0CA@EKGDDMJN@?$FLTvT?5Event?$FN?5Red?3?5?$CFd?5Vs?5Blue?3?5?$CFd?$AA@
  009a6	e8 00 00 00 00	 call	 ?MessaageAllGlobal@@YAXPADZZ ; MessaageAllGlobal
  009ab	83 c4 0c	 add	 esp, 12			; 0000000cH

; 232  : 			}
; 233  : 			else 

  009ae	eb 0d		 jmp	 SHORT $LN24@TickTime
$LN23@TickTime:

; 234  : 			{
; 235  : 				MessaageAllGlobal("[TvT Event] Dead heat");

  009b0	68 00 00 00 00	 push	 OFFSET ??_C@_0BG@LHIFGLIN@?$FLTvT?5Event?$FN?5Dead?5heat?$AA@
  009b5	e8 00 00 00 00	 call	 ?MessaageAllGlobal@@YAXPADZZ ; MessaageAllGlobal
  009ba	83 c4 04	 add	 esp, 4
$LN24@TickTime:

; 236  : 			}
; 237  : 
; 238  : 			for(int n=OBJ_STARTUSERINDEX;n<OBJMAX;n++)

  009bd	c7 45 dc b0 36
	00 00		 mov	 DWORD PTR _n$220182[ebp], 14000 ; 000036b0H
  009c4	eb 09		 jmp	 SHORT $LN21@TickTime
$LN20@TickTime:
  009c6	8b 45 dc	 mov	 eax, DWORD PTR _n$220182[ebp]
  009c9	83 c0 01	 add	 eax, 1
  009cc	89 45 dc	 mov	 DWORD PTR _n$220182[ebp], eax
$LN21@TickTime:
  009cf	81 7d dc 98 3a
	00 00		 cmp	 DWORD PTR _n$220182[ebp], 15000 ; 00003a98H
  009d6	0f 8d a4 00 00
	00		 jge	 $LN19@TickTime

; 239  : 			{
; 240  : 				LPOBJ sObj = &gObj[n];

  009dc	8b 45 dc	 mov	 eax, DWORD PTR _n$220182[ebp]
  009df	69 c0 38 2b 00
	00		 imul	 eax, 11064		; 00002b38H
  009e5	03 05 00 00 00
	00		 add	 eax, DWORD PTR ?gObj@@3PAUOBJECTSTRUCT@@A ; gObj
  009eb	89 45 d8	 mov	 DWORD PTR _sObj$220186[ebp], eax

; 241  : 				if(sObj->Connected != PLAYER_PLAYING) continue;

  009ee	8b 45 d8	 mov	 eax, DWORD PTR _sObj$220186[ebp]
  009f1	83 78 04 03	 cmp	 DWORD PTR [eax+4], 3
  009f5	74 02		 je	 SHORT $LN18@TickTime
  009f7	eb cd		 jmp	 SHORT $LN20@TickTime
$LN18@TickTime:

; 242  : 				if(this->Player[n].tEvent == true)

  009f9	8b 45 dc	 mov	 eax, DWORD PTR _n$220182[ebp]
  009fc	8b 4d f8	 mov	 ecx, DWORD PTR _this$[ebp]
  009ff	0f b6 94 c1 b8
	00 00 00	 movzx	 edx, BYTE PTR [ecx+eax*8+184]
  00a07	83 fa 01	 cmp	 edx, 1
  00a0a	75 6f		 jne	 SHORT $LN17@TickTime

; 243  : 				{
; 244  : 					this->Player[n].tEvent = false;

  00a0c	8b 45 dc	 mov	 eax, DWORD PTR _n$220182[ebp]
  00a0f	8b 4d f8	 mov	 ecx, DWORD PTR _this$[ebp]
  00a12	c6 84 c1 b8 00
	00 00 00	 mov	 BYTE PTR [ecx+eax*8+184], 0

; 245  : 					gObjMoveGate(n,17);	//Lorencia

  00a1a	6a 11		 push	 17			; 00000011H
  00a1c	8b 45 dc	 mov	 eax, DWORD PTR _n$220182[ebp]
  00a1f	50		 push	 eax
  00a20	e8 00 00 00 00	 call	 ?gObjMoveGate@@YAHHH@Z	; gObjMoveGate
  00a25	83 c4 08	 add	 esp, 8

; 246  : 					if(this->DisplayCommands == 1)

  00a28	8b 45 f8	 mov	 eax, DWORD PTR _this$[ebp]
  00a2b	83 78 14 01	 cmp	 DWORD PTR [eax+20], 1
  00a2f	75 32		 jne	 SHORT $LN16@TickTime

; 247  : 					{
; 248  : 						gObj[n].m_Change = -1;

  00a31	8b 45 dc	 mov	 eax, DWORD PTR _n$220182[ebp]
  00a34	69 c0 38 2b 00
	00		 imul	 eax, 11064		; 00002b38H
  00a3a	8b 0d 00 00 00
	00		 mov	 ecx, DWORD PTR ?gObj@@3PAUOBJECTSTRUCT@@A ; gObj
  00a40	c7 84 01 54 04
	00 00 ff ff ff
	ff		 mov	 DWORD PTR [ecx+eax+1108], -1

; 249  : 						gObjViewportListProtocolCreate(&gObj[n]);

  00a4b	8b 45 dc	 mov	 eax, DWORD PTR _n$220182[ebp]
  00a4e	69 c0 38 2b 00
	00		 imul	 eax, 11064		; 00002b38H
  00a54	03 05 00 00 00
	00		 add	 eax, DWORD PTR ?gObj@@3PAUOBJECTSTRUCT@@A ; gObj
  00a5a	50		 push	 eax
  00a5b	e8 00 00 00 00	 call	 ?gObjViewportListProtocolCreate@@YAXPAUOBJECTSTRUCT@@@Z ; gObjViewportListProtocolCreate
  00a60	83 c4 04	 add	 esp, 4
$LN16@TickTime:

; 250  : 					}
; 251  : 					this->Reward(n);

  00a63	8b 45 dc	 mov	 eax, DWORD PTR _n$220182[ebp]
  00a66	50		 push	 eax
  00a67	8b 4d f8	 mov	 ecx, DWORD PTR _this$[ebp]
  00a6a	e8 00 00 00 00	 call	 ?Reward@cTvTEvent@@QAEXH@Z ; cTvTEvent::Reward

; 252  : 					this->RestoreUser(n);

  00a6f	8b 45 dc	 mov	 eax, DWORD PTR _n$220182[ebp]
  00a72	50		 push	 eax
  00a73	8b 4d f8	 mov	 ecx, DWORD PTR _this$[ebp]
  00a76	e8 00 00 00 00	 call	 ?RestoreUser@cTvTEvent@@QAEXH@Z ; cTvTEvent::RestoreUser
$LN17@TickTime:

; 253  : 				}
; 254  : 			}

  00a7b	e9 46 ff ff ff	 jmp	 $LN20@TickTime
$LN19@TickTime:

; 255  : 			this->Start = false;

  00a80	8b 45 f8	 mov	 eax, DWORD PTR _this$[ebp]
  00a83	c6 80 ad 00 00
	00 00		 mov	 BYTE PTR [eax+173], 0

; 256  : 			this->TotalPlayer = 0;

  00a8a	8b 45 f8	 mov	 eax, DWORD PTR _this$[ebp]
  00a8d	c7 80 78 d5 01
	00 00 00 00 00	 mov	 DWORD PTR [eax+120184], 0

; 257  : 			this->ScoreBlue = 0;

  00a97	8b 45 f8	 mov	 eax, DWORD PTR _this$[ebp]
  00a9a	c7 80 7c d5 01
	00 00 00 00 00	 mov	 DWORD PTR [eax+120188], 0

; 258  : 			this->ScoreRed = 0;

  00aa4	8b 45 f8	 mov	 eax, DWORD PTR _this$[ebp]
  00aa7	c7 80 80 d5 01
	00 00 00 00 00	 mov	 DWORD PTR [eax+120192], 0

; 259  : 			this->StartTick = 0;

  00ab1	8b 45 f8	 mov	 eax, DWORD PTR _this$[ebp]
  00ab4	c7 80 b4 00 00
	00 00 00 00 00	 mov	 DWORD PTR [eax+180], 0

; 260  : #if(ADD_TVTHDDCHECK==1)
; 261  : 			if(g_ExLicense.CheckUser(eExUB::Gredy) || g_ExLicense.CheckUser(eExUB::GredyLocal) || g_ExLicense.CheckUser(eExUB::Gredy2))

  00abe	6a 20		 push	 32			; 00000020H
  00ac0	b9 00 00 00 00	 mov	 ecx, OFFSET ?g_ExLicense@@3VCExLicense@@A ; g_ExLicense
  00ac5	e8 00 00 00 00	 call	 ?CheckUser@CExLicense@@QAE_NH@Z ; CExLicense::CheckUser
  00aca	0f b6 c0	 movzx	 eax, al
  00acd	85 c0		 test	 eax, eax
  00acf	75 26		 jne	 SHORT $LN14@TickTime
  00ad1	6a 21		 push	 33			; 00000021H
  00ad3	b9 00 00 00 00	 mov	 ecx, OFFSET ?g_ExLicense@@3VCExLicense@@A ; g_ExLicense
  00ad8	e8 00 00 00 00	 call	 ?CheckUser@CExLicense@@QAE_NH@Z ; CExLicense::CheckUser
  00add	0f b6 c0	 movzx	 eax, al
  00ae0	85 c0		 test	 eax, eax
  00ae2	75 13		 jne	 SHORT $LN14@TickTime
  00ae4	6a 22		 push	 34			; 00000022H
  00ae6	b9 00 00 00 00	 mov	 ecx, OFFSET ?g_ExLicense@@3VCExLicense@@A ; g_ExLicense
  00aeb	e8 00 00 00 00	 call	 ?CheckUser@CExLicense@@QAE_NH@Z ; CExLicense::CheckUser
  00af0	0f b6 c0	 movzx	 eax, al
  00af3	85 c0		 test	 eax, eax
  00af5	74 2e		 je	 SHORT $LN26@TickTime
$LN14@TickTime:

; 262  : 			{
; 263  : 				for(int i = 0; i < OBJMAX; i++)

  00af7	c7 45 d4 00 00
	00 00		 mov	 DWORD PTR _i$220192[ebp], 0
  00afe	eb 09		 jmp	 SHORT $LN13@TickTime
$LN12@TickTime:
  00b00	8b 45 d4	 mov	 eax, DWORD PTR _i$220192[ebp]
  00b03	83 c0 01	 add	 eax, 1
  00b06	89 45 d4	 mov	 DWORD PTR _i$220192[ebp], eax
$LN13@TickTime:
  00b09	81 7d d4 98 3a
	00 00		 cmp	 DWORD PTR _i$220192[ebp], 15000 ; 00003a98H
  00b10	7d 13		 jge	 SHORT $LN26@TickTime

; 264  : 				{
; 265  : 					this->player_hdd[i] = 0;

  00b12	8b 45 d4	 mov	 eax, DWORD PTR _i$220192[ebp]
  00b15	8b 4d f8	 mov	 ecx, DWORD PTR _this$[ebp]
  00b18	c7 84 81 84 d5
	01 00 00 00 00
	00		 mov	 DWORD PTR [ecx+eax*4+120196], 0

; 266  : 				}

  00b23	eb db		 jmp	 SHORT $LN12@TickTime
$LN26@TickTime:

; 267  : 			}
; 268  : #endif
; 269  : 		}
; 270  : 		return;

  00b25	e9 f2 00 00 00	 jmp	 $LN39@TickTime
$LN27@TickTime:

; 271  : 	}
; 272  : 
; 273  : #if(NEWTIMEREX)
; 274  : 	if(g_TimerEx.GetSecond() == 00)

  00b2a	b9 00 00 00 00	 mov	 ecx, OFFSET ?g_TimerEx@@3VCTimerEx@@A ; g_TimerEx
  00b2f	e8 00 00 00 00	 call	 ?GetSecond@CTimerEx@@QAEHXZ ; CTimerEx::GetSecond
  00b34	85 c0		 test	 eax, eax
  00b36	0f 85 e0 00 00
	00		 jne	 $LN39@TickTime

; 275  : #else
; 276  : 	if(t.wSecond == 00)
; 277  : #endif
; 278  : 	{
; 279  : 		for(int i=0;i<this->Count;i++)

  00b3c	c7 45 d0 00 00
	00 00		 mov	 DWORD PTR _i$220197[ebp], 0
  00b43	eb 09		 jmp	 SHORT $LN9@TickTime
$LN8@TickTime:
  00b45	8b 45 d0	 mov	 eax, DWORD PTR _i$220197[ebp]
  00b48	83 c0 01	 add	 eax, 1
  00b4b	89 45 d0	 mov	 DWORD PTR _i$220197[ebp], eax
$LN9@TickTime:
  00b4e	8b 45 f8	 mov	 eax, DWORD PTR _this$[ebp]
  00b51	8b 4d d0	 mov	 ecx, DWORD PTR _i$220197[ebp]
  00b54	3b 88 a8 00 00
	00		 cmp	 ecx, DWORD PTR [eax+168]
  00b5a	0f 8d bc 00 00
	00		 jge	 $LN39@TickTime

; 280  : 		{
; 281  : 			if(t.wHour == this->T[i].H && t.wMinute == this->T[i].M)

  00b60	0f b7 45 f0	 movzx	 eax, WORD PTR _t$[ebp+8]
  00b64	8b 4d d0	 mov	 ecx, DWORD PTR _i$220197[ebp]
  00b67	8b 55 f8	 mov	 edx, DWORD PTR _this$[ebp]
  00b6a	3b 44 ca 58	 cmp	 eax, DWORD PTR [edx+ecx*8+88]
  00b6e	0f 85 a3 00 00
	00		 jne	 $LN6@TickTime
  00b74	0f b7 45 f2	 movzx	 eax, WORD PTR _t$[ebp+10]
  00b78	8b 4d d0	 mov	 ecx, DWORD PTR _i$220197[ebp]
  00b7b	8b 55 f8	 mov	 edx, DWORD PTR _this$[ebp]
  00b7e	3b 44 ca 5c	 cmp	 eax, DWORD PTR [edx+ecx*8+92]
  00b82	0f 85 8f 00 00
	00		 jne	 $LN6@TickTime

; 282  : 			{
; 283  : #if(ADD_TVTHDDCHECK==1)
; 284  : 				if(g_ExLicense.CheckUser(eExUB::Gredy) || g_ExLicense.CheckUser(eExUB::GredyLocal) || g_ExLicense.CheckUser(eExUB::Gredy2))

  00b88	6a 20		 push	 32			; 00000020H
  00b8a	b9 00 00 00 00	 mov	 ecx, OFFSET ?g_ExLicense@@3VCExLicense@@A ; g_ExLicense
  00b8f	e8 00 00 00 00	 call	 ?CheckUser@CExLicense@@QAE_NH@Z ; CExLicense::CheckUser
  00b94	0f b6 c0	 movzx	 eax, al
  00b97	85 c0		 test	 eax, eax
  00b99	75 26		 jne	 SHORT $LN4@TickTime
  00b9b	6a 21		 push	 33			; 00000021H
  00b9d	b9 00 00 00 00	 mov	 ecx, OFFSET ?g_ExLicense@@3VCExLicense@@A ; g_ExLicense
  00ba2	e8 00 00 00 00	 call	 ?CheckUser@CExLicense@@QAE_NH@Z ; CExLicense::CheckUser
  00ba7	0f b6 c0	 movzx	 eax, al
  00baa	85 c0		 test	 eax, eax
  00bac	75 13		 jne	 SHORT $LN4@TickTime
  00bae	6a 22		 push	 34			; 00000022H
  00bb0	b9 00 00 00 00	 mov	 ecx, OFFSET ?g_ExLicense@@3VCExLicense@@A ; g_ExLicense
  00bb5	e8 00 00 00 00	 call	 ?CheckUser@CExLicense@@QAE_NH@Z ; CExLicense::CheckUser
  00bba	0f b6 c0	 movzx	 eax, al
  00bbd	85 c0		 test	 eax, eax
  00bbf	74 2e		 je	 SHORT $LN5@TickTime
$LN4@TickTime:

; 285  : 				{
; 286  : 					for(int i = 0; i < OBJMAX; i++)

  00bc1	c7 45 cc 00 00
	00 00		 mov	 DWORD PTR _i$220204[ebp], 0
  00bc8	eb 09		 jmp	 SHORT $LN3@TickTime
$LN2@TickTime:
  00bca	8b 45 cc	 mov	 eax, DWORD PTR _i$220204[ebp]
  00bcd	83 c0 01	 add	 eax, 1
  00bd0	89 45 cc	 mov	 DWORD PTR _i$220204[ebp], eax
$LN3@TickTime:
  00bd3	81 7d cc 98 3a
	00 00		 cmp	 DWORD PTR _i$220204[ebp], 15000 ; 00003a98H
  00bda	7d 13		 jge	 SHORT $LN5@TickTime

; 287  : 					{
; 288  : 						this->player_hdd[i] = 0;

  00bdc	8b 45 cc	 mov	 eax, DWORD PTR _i$220204[ebp]
  00bdf	8b 4d f8	 mov	 ecx, DWORD PTR _this$[ebp]
  00be2	c7 84 81 84 d5
	01 00 00 00 00
	00		 mov	 DWORD PTR [ecx+eax*4+120196], 0

; 289  : 					}

  00bed	eb db		 jmp	 SHORT $LN2@TickTime
$LN5@TickTime:

; 290  : 				}
; 291  : #endif
; 292  : 				MessaageAllGlobal("[TvT Event] Starts in %d minute",(this->WaitingTime/60));

  00bef	8b 45 f8	 mov	 eax, DWORD PTR _this$[ebp]
  00bf2	8b 40 34	 mov	 eax, DWORD PTR [eax+52]
  00bf5	99		 cdq
  00bf6	b9 3c 00 00 00	 mov	 ecx, 60			; 0000003cH
  00bfb	f7 f9		 idiv	 ecx
  00bfd	50		 push	 eax
  00bfe	68 00 00 00 00	 push	 OFFSET ??_C@_0CA@JKFBENBB@?$FLTvT?5Event?$FN?5Starts?5in?5?$CFd?5minute?$AA@
  00c03	e8 00 00 00 00	 call	 ?MessaageAllGlobal@@YAXPADZZ ; MessaageAllGlobal
  00c08	83 c4 08	 add	 esp, 8

; 293  : 				this->Waiting = true;

  00c0b	8b 45 f8	 mov	 eax, DWORD PTR _this$[ebp]
  00c0e	c6 80 ac 00 00
	00 01		 mov	 BYTE PTR [eax+172], 1

; 294  : 				return;

  00c15	eb 05		 jmp	 SHORT $LN39@TickTime
$LN6@TickTime:

; 295  : 			}
; 296  : 		}

  00c17	e9 29 ff ff ff	 jmp	 $LN8@TickTime
$LN39@TickTime:

; 297  : 	}
; 298  : }

  00c1c	5f		 pop	 edi
  00c1d	5e		 pop	 esi
  00c1e	5b		 pop	 ebx
  00c1f	8b 4d fc	 mov	 ecx, DWORD PTR __$ArrayPad$[ebp]
  00c22	33 cd		 xor	 ecx, ebp
  00c24	e8 00 00 00 00	 call	 @__security_check_cookie@4
  00c29	8b e5		 mov	 esp, ebp
  00c2b	5d		 pop	 ebp
  00c2c	c3		 ret	 0
?TickTime@cTvTEvent@@QAEXXZ ENDP			; cTvTEvent::TickTime
_TEXT	ENDS
PUBLIC	?ReturnMaxReset@cTvTEvent@@QAEHXZ		; cTvTEvent::ReturnMaxReset
; Function compile flags: /Odtp /ZI
_TEXT	SEGMENT
_sObj$220218 = -20					; size = 4
_i$220214 = -16						; size = 4
_Index$ = -12						; size = 4
_MaxRes$ = -8						; size = 4
_this$ = -4						; size = 4
?ReturnMaxReset@cTvTEvent@@QAEHXZ PROC			; cTvTEvent::ReturnMaxReset
; _this$ = ecx

; 301  : {

  00c30	55		 push	 ebp
  00c31	8b ec		 mov	 ebp, esp
  00c33	83 ec 54	 sub	 esp, 84			; 00000054H
  00c36	53		 push	 ebx
  00c37	56		 push	 esi
  00c38	57		 push	 edi
  00c39	89 4d fc	 mov	 DWORD PTR _this$[ebp], ecx

; 302  : 	int MaxRes = 0;

  00c3c	c7 45 f8 00 00
	00 00		 mov	 DWORD PTR _MaxRes$[ebp], 0

; 303  : 	int Index = 0;

  00c43	c7 45 f4 00 00
	00 00		 mov	 DWORD PTR _Index$[ebp], 0

; 304  : 	for(int i=OBJ_STARTUSERINDEX;i<OBJMAX;i++)

  00c4a	c7 45 f0 b0 36
	00 00		 mov	 DWORD PTR _i$220214[ebp], 14000 ; 000036b0H
  00c51	eb 09		 jmp	 SHORT $LN6@ReturnMaxR
$LN5@ReturnMaxR:
  00c53	8b 45 f0	 mov	 eax, DWORD PTR _i$220214[ebp]
  00c56	83 c0 01	 add	 eax, 1
  00c59	89 45 f0	 mov	 DWORD PTR _i$220214[ebp], eax
$LN6@ReturnMaxR:
  00c5c	81 7d f0 98 3a
	00 00		 cmp	 DWORD PTR _i$220214[ebp], 15000 ; 00003a98H
  00c63	7d 53		 jge	 SHORT $LN4@ReturnMaxR

; 305  : 	{
; 306  : 		LPOBJ sObj = &gObj[i];

  00c65	8b 45 f0	 mov	 eax, DWORD PTR _i$220214[ebp]
  00c68	69 c0 38 2b 00
	00		 imul	 eax, 11064		; 00002b38H
  00c6e	03 05 00 00 00
	00		 add	 eax, DWORD PTR ?gObj@@3PAUOBJECTSTRUCT@@A ; gObj
  00c74	89 45 ec	 mov	 DWORD PTR _sObj$220218[ebp], eax

; 307  : 		if(sObj->Connected != PLAYER_PLAYING) continue;

  00c77	8b 45 ec	 mov	 eax, DWORD PTR _sObj$220218[ebp]
  00c7a	83 78 04 03	 cmp	 DWORD PTR [eax+4], 3
  00c7e	74 02		 je	 SHORT $LN3@ReturnMaxR
  00c80	eb d1		 jmp	 SHORT $LN5@ReturnMaxR
$LN3@ReturnMaxR:

; 308  : 		if(!this->Player[i].Available)continue;

  00c82	8b 45 f0	 mov	 eax, DWORD PTR _i$220214[ebp]
  00c85	8b 4d fc	 mov	 ecx, DWORD PTR _this$[ebp]
  00c88	0f b6 94 c1 b9
	00 00 00	 movzx	 edx, BYTE PTR [ecx+eax*8+185]
  00c90	85 d2		 test	 edx, edx
  00c92	75 02		 jne	 SHORT $LN2@ReturnMaxR
  00c94	eb bd		 jmp	 SHORT $LN5@ReturnMaxR
$LN2@ReturnMaxR:

; 309  : 		if(sObj->Reset >= MaxRes)

  00c96	8b 45 ec	 mov	 eax, DWORD PTR _sObj$220218[ebp]
  00c99	8b 88 90 22 00
	00		 mov	 ecx, DWORD PTR [eax+8848]
  00c9f	3b 4d f8	 cmp	 ecx, DWORD PTR _MaxRes$[ebp]
  00ca2	7c 12		 jl	 SHORT $LN1@ReturnMaxR

; 310  : 		{
; 311  : 			MaxRes = sObj->Reset;

  00ca4	8b 45 ec	 mov	 eax, DWORD PTR _sObj$220218[ebp]
  00ca7	8b 88 90 22 00
	00		 mov	 ecx, DWORD PTR [eax+8848]
  00cad	89 4d f8	 mov	 DWORD PTR _MaxRes$[ebp], ecx

; 312  : 			Index = i;

  00cb0	8b 45 f0	 mov	 eax, DWORD PTR _i$220214[ebp]
  00cb3	89 45 f4	 mov	 DWORD PTR _Index$[ebp], eax
$LN1@ReturnMaxR:

; 313  : 		}
; 314  : 	}

  00cb6	eb 9b		 jmp	 SHORT $LN5@ReturnMaxR
$LN4@ReturnMaxR:

; 315  : 	this->Player[Index].Available = false;

  00cb8	8b 45 f4	 mov	 eax, DWORD PTR _Index$[ebp]
  00cbb	8b 4d fc	 mov	 ecx, DWORD PTR _this$[ebp]
  00cbe	c6 84 c1 b9 00
	00 00 00	 mov	 BYTE PTR [ecx+eax*8+185], 0

; 316  : 	return Index;

  00cc6	8b 45 f4	 mov	 eax, DWORD PTR _Index$[ebp]

; 317  : }

  00cc9	5f		 pop	 edi
  00cca	5e		 pop	 esi
  00ccb	5b		 pop	 ebx
  00ccc	8b e5		 mov	 esp, ebp
  00cce	5d		 pop	 ebp
  00ccf	c3		 ret	 0
?ReturnMaxReset@cTvTEvent@@QAEHXZ ENDP			; cTvTEvent::ReturnMaxReset
_TEXT	ENDS
PUBLIC	??_C@_0CA@KAJPHADH@?$FLRedTeam?$FN?3?5?$CFd?5Vs?5?$FLBlueTeam?$FN?3?5?$CFd?$AA@ ; `string'
PUBLIC	??_C@_0CA@JJIAMAIB@?$FLBlueTeam?$FN?3?5?$CFd?5Vs?5?$FLRedTeam?$FN?3?5?$CFd?$AA@ ; `string'
;	COMDAT ??_C@_0CA@KAJPHADH@?$FLRedTeam?$FN?3?5?$CFd?5Vs?5?$FLBlueTeam?$FN?3?5?$CFd?$AA@
CONST	SEGMENT
??_C@_0CA@KAJPHADH@?$FLRedTeam?$FN?3?5?$CFd?5Vs?5?$FLBlueTeam?$FN?3?5?$CFd?$AA@ DB '['
	DB	'RedTeam]: %d Vs [BlueTeam]: %d', 00H	; `string'
CONST	ENDS
;	COMDAT ??_C@_0CA@JJIAMAIB@?$FLBlueTeam?$FN?3?5?$CFd?5Vs?5?$FLRedTeam?$FN?3?5?$CFd?$AA@
CONST	SEGMENT
??_C@_0CA@JJIAMAIB@?$FLBlueTeam?$FN?3?5?$CFd?5Vs?5?$FLRedTeam?$FN?3?5?$CFd?$AA@ DB '['
	DB	'BlueTeam]: %d Vs [RedTeam]: %d', 00H	; `string'
; Function compile flags: /Odtp /ZI
CONST	ENDS
_TEXT	SEGMENT
_sObj$220237 = -24					; size = 4
_n$220233 = -20						; size = 4
_i$220227 = -16						; size = 4
_Index$ = -12						; size = 4
_iTeam$ = -8						; size = 4
_this$ = -4						; size = 4
?DivisionTeam@cTvTEvent@@QAEXXZ PROC			; cTvTEvent::DivisionTeam
; _this$ = ecx

; 320  : {

  00cd0	55		 push	 ebp
  00cd1	8b ec		 mov	 ebp, esp
  00cd3	83 ec 58	 sub	 esp, 88			; 00000058H
  00cd6	53		 push	 ebx
  00cd7	56		 push	 esi
  00cd8	57		 push	 edi
  00cd9	89 4d fc	 mov	 DWORD PTR _this$[ebp], ecx

; 321  : 	int iTeam = 1;

  00cdc	c7 45 f8 01 00
	00 00		 mov	 DWORD PTR _iTeam$[ebp], 1

; 322  : 	int Index = 0;

  00ce3	c7 45 f4 00 00
	00 00		 mov	 DWORD PTR _Index$[ebp], 0

; 323  : 	for(int i=0;i<this->TotalPlayer;i++)

  00cea	c7 45 f0 00 00
	00 00		 mov	 DWORD PTR _i$220227[ebp], 0
  00cf1	eb 09		 jmp	 SHORT $LN15@DivisionTe
$LN14@DivisionTe:
  00cf3	8b 45 f0	 mov	 eax, DWORD PTR _i$220227[ebp]
  00cf6	83 c0 01	 add	 eax, 1
  00cf9	89 45 f0	 mov	 DWORD PTR _i$220227[ebp], eax
$LN15@DivisionTe:
  00cfc	8b 45 fc	 mov	 eax, DWORD PTR _this$[ebp]
  00cff	8b 4d f0	 mov	 ecx, DWORD PTR _i$220227[ebp]
  00d02	3b 88 78 d5 01
	00		 cmp	 ecx, DWORD PTR [eax+120184]
  00d08	7d 33		 jge	 SHORT $LN13@DivisionTe

; 324  : 	{
; 325  : 		Index = this->ReturnMaxReset();

  00d0a	8b 4d fc	 mov	 ecx, DWORD PTR _this$[ebp]
  00d0d	e8 00 00 00 00	 call	 ?ReturnMaxReset@cTvTEvent@@QAEHXZ ; cTvTEvent::ReturnMaxReset
  00d12	89 45 f4	 mov	 DWORD PTR _Index$[ebp], eax

; 326  : 		this->Player[Index].Team = iTeam;

  00d15	8b 45 f4	 mov	 eax, DWORD PTR _Index$[ebp]
  00d18	8b 4d fc	 mov	 ecx, DWORD PTR _this$[ebp]
  00d1b	8b 55 f8	 mov	 edx, DWORD PTR _iTeam$[ebp]
  00d1e	89 94 c1 bc 00
	00 00		 mov	 DWORD PTR [ecx+eax*8+188], edx

; 327  : 		if(iTeam == 1) iTeam = 2;

  00d25	83 7d f8 01	 cmp	 DWORD PTR _iTeam$[ebp], 1
  00d29	75 09		 jne	 SHORT $LN12@DivisionTe
  00d2b	c7 45 f8 02 00
	00 00		 mov	 DWORD PTR _iTeam$[ebp], 2
  00d32	eb 07		 jmp	 SHORT $LN11@DivisionTe
$LN12@DivisionTe:

; 328  : 		else iTeam = 1;

  00d34	c7 45 f8 01 00
	00 00		 mov	 DWORD PTR _iTeam$[ebp], 1
$LN11@DivisionTe:

; 329  : 	}

  00d3b	eb b6		 jmp	 SHORT $LN14@DivisionTe
$LN13@DivisionTe:

; 330  : 	for(int n=OBJ_STARTUSERINDEX;n<OBJMAX;n++)

  00d3d	c7 45 ec b0 36
	00 00		 mov	 DWORD PTR _n$220233[ebp], 14000 ; 000036b0H
  00d44	eb 09		 jmp	 SHORT $LN10@DivisionTe
$LN9@DivisionTe:
  00d46	8b 45 ec	 mov	 eax, DWORD PTR _n$220233[ebp]
  00d49	83 c0 01	 add	 eax, 1
  00d4c	89 45 ec	 mov	 DWORD PTR _n$220233[ebp], eax
$LN10@DivisionTe:
  00d4f	81 7d ec 98 3a
	00 00		 cmp	 DWORD PTR _n$220233[ebp], 15000 ; 00003a98H
  00d56	0f 8d 65 01 00
	00		 jge	 $LN16@DivisionTe

; 331  : 	{
; 332  : 		LPOBJ sObj = &gObj[n];

  00d5c	8b 45 ec	 mov	 eax, DWORD PTR _n$220233[ebp]
  00d5f	69 c0 38 2b 00
	00		 imul	 eax, 11064		; 00002b38H
  00d65	03 05 00 00 00
	00		 add	 eax, DWORD PTR ?gObj@@3PAUOBJECTSTRUCT@@A ; gObj
  00d6b	89 45 e8	 mov	 DWORD PTR _sObj$220237[ebp], eax

; 333  : 		if(sObj->Connected != PLAYER_PLAYING) continue;

  00d6e	8b 45 e8	 mov	 eax, DWORD PTR _sObj$220237[ebp]
  00d71	83 78 04 03	 cmp	 DWORD PTR [eax+4], 3
  00d75	74 02		 je	 SHORT $LN7@DivisionTe
  00d77	eb cd		 jmp	 SHORT $LN9@DivisionTe
$LN7@DivisionTe:

; 334  : 		if(this->Player[n].tEvent == false) continue;

  00d79	8b 45 ec	 mov	 eax, DWORD PTR _n$220233[ebp]
  00d7c	8b 4d fc	 mov	 ecx, DWORD PTR _this$[ebp]
  00d7f	0f b6 94 c1 b8
	00 00 00	 movzx	 edx, BYTE PTR [ecx+eax*8+184]
  00d87	85 d2		 test	 edx, edx
  00d89	75 02		 jne	 SHORT $LN6@DivisionTe
  00d8b	eb b9		 jmp	 SHORT $LN9@DivisionTe
$LN6@DivisionTe:

; 335  : 		if(this->Player[n].Team == 1)

  00d8d	8b 45 ec	 mov	 eax, DWORD PTR _n$220233[ebp]
  00d90	8b 4d fc	 mov	 ecx, DWORD PTR _this$[ebp]
  00d93	83 bc c1 bc 00
	00 00 01	 cmp	 DWORD PTR [ecx+eax*8+188], 1
  00d9b	0f 85 86 00 00
	00		 jne	 $LN5@DivisionTe

; 336  : 		{
; 337  : 			gObjTeleport(n,this->WaitingMap,this->BluTeamX,this->BluTeamY);

  00da1	8b 45 fc	 mov	 eax, DWORD PTR _this$[ebp]
  00da4	8b 48 28	 mov	 ecx, DWORD PTR [eax+40]
  00da7	51		 push	 ecx
  00da8	8b 55 fc	 mov	 edx, DWORD PTR _this$[ebp]
  00dab	8b 42 24	 mov	 eax, DWORD PTR [edx+36]
  00dae	50		 push	 eax
  00daf	8b 4d fc	 mov	 ecx, DWORD PTR _this$[ebp]
  00db2	8b 51 18	 mov	 edx, DWORD PTR [ecx+24]
  00db5	52		 push	 edx
  00db6	8b 45 ec	 mov	 eax, DWORD PTR _n$220233[ebp]
  00db9	50		 push	 eax
  00dba	e8 00 00 00 00	 call	 ?gObjTeleport@@YAXHHHH@Z ; gObjTeleport
  00dbf	83 c4 10	 add	 esp, 16			; 00000010H

; 338  : 			if(this->DisplayCommands == 1)

  00dc2	8b 45 fc	 mov	 eax, DWORD PTR _this$[ebp]
  00dc5	83 78 14 01	 cmp	 DWORD PTR [eax+20], 1
  00dc9	75 32		 jne	 SHORT $LN4@DivisionTe

; 339  : 			{
; 340  : 				gObj[n].m_Change = 405; //"MU Allies"	Blue

  00dcb	8b 45 ec	 mov	 eax, DWORD PTR _n$220233[ebp]
  00dce	69 c0 38 2b 00
	00		 imul	 eax, 11064		; 00002b38H
  00dd4	8b 0d 00 00 00
	00		 mov	 ecx, DWORD PTR ?gObj@@3PAUOBJECTSTRUCT@@A ; gObj
  00dda	c7 84 01 54 04
	00 00 95 01 00
	00		 mov	 DWORD PTR [ecx+eax+1108], 405 ; 00000195H

; 341  : 				gObjViewportListProtocolCreate(&gObj[n]);

  00de5	8b 45 ec	 mov	 eax, DWORD PTR _n$220233[ebp]
  00de8	69 c0 38 2b 00
	00		 imul	 eax, 11064		; 00002b38H
  00dee	03 05 00 00 00
	00		 add	 eax, DWORD PTR ?gObj@@3PAUOBJECTSTRUCT@@A ; gObj
  00df4	50		 push	 eax
  00df5	e8 00 00 00 00	 call	 ?gObjViewportListProtocolCreate@@YAXPAUOBJECTSTRUCT@@@Z ; gObjViewportListProtocolCreate
  00dfa	83 c4 04	 add	 esp, 4
$LN4@DivisionTe:

; 342  : 			}
; 343  : 			MsgNormal(n,"[BlueTeam]: %d Vs [RedTeam]: %d",this->ScoreBlue,this->ScoreRed);

  00dfd	8b 45 fc	 mov	 eax, DWORD PTR _this$[ebp]
  00e00	8b 88 80 d5 01
	00		 mov	 ecx, DWORD PTR [eax+120192]
  00e06	51		 push	 ecx
  00e07	8b 55 fc	 mov	 edx, DWORD PTR _this$[ebp]
  00e0a	8b 82 7c d5 01
	00		 mov	 eax, DWORD PTR [edx+120188]
  00e10	50		 push	 eax
  00e11	68 00 00 00 00	 push	 OFFSET ??_C@_0CA@JJIAMAIB@?$FLBlueTeam?$FN?3?5?$CFd?5Vs?5?$FLRedTeam?$FN?3?5?$CFd?$AA@
  00e16	8b 4d ec	 mov	 ecx, DWORD PTR _n$220233[ebp]
  00e19	51		 push	 ecx
  00e1a	e8 00 00 00 00	 call	 ?MsgNormal@@YAXHPADZZ	; MsgNormal
  00e1f	83 c4 10	 add	 esp, 16			; 00000010H
  00e22	e9 95 00 00 00	 jmp	 $LN3@DivisionTe
$LN5@DivisionTe:

; 344  : 		}
; 345  : 		else if(this->Player[n].Team == 2)

  00e27	8b 45 ec	 mov	 eax, DWORD PTR _n$220233[ebp]
  00e2a	8b 4d fc	 mov	 ecx, DWORD PTR _this$[ebp]
  00e2d	83 bc c1 bc 00
	00 00 02	 cmp	 DWORD PTR [ecx+eax*8+188], 2
  00e35	0f 85 81 00 00
	00		 jne	 $LN3@DivisionTe

; 346  : 		{
; 347  : 			gObjTeleport(n,this->WaitingMap,this->RedTeamX,this->RedTeamY);

  00e3b	8b 45 fc	 mov	 eax, DWORD PTR _this$[ebp]
  00e3e	8b 48 30	 mov	 ecx, DWORD PTR [eax+48]
  00e41	51		 push	 ecx
  00e42	8b 55 fc	 mov	 edx, DWORD PTR _this$[ebp]
  00e45	8b 42 2c	 mov	 eax, DWORD PTR [edx+44]
  00e48	50		 push	 eax
  00e49	8b 4d fc	 mov	 ecx, DWORD PTR _this$[ebp]
  00e4c	8b 51 18	 mov	 edx, DWORD PTR [ecx+24]
  00e4f	52		 push	 edx
  00e50	8b 45 ec	 mov	 eax, DWORD PTR _n$220233[ebp]
  00e53	50		 push	 eax
  00e54	e8 00 00 00 00	 call	 ?gObjTeleport@@YAXHHHH@Z ; gObjTeleport
  00e59	83 c4 10	 add	 esp, 16			; 00000010H

; 348  : 			if(this->DisplayCommands == 1)

  00e5c	8b 45 fc	 mov	 eax, DWORD PTR _this$[ebp]
  00e5f	83 78 14 01	 cmp	 DWORD PTR [eax+20], 1
  00e63	75 32		 jne	 SHORT $LN1@DivisionTe

; 349  : 			{
; 350  : 				gObj[n].m_Change = 404; //"MU Allies"	Red

  00e65	8b 45 ec	 mov	 eax, DWORD PTR _n$220233[ebp]
  00e68	69 c0 38 2b 00
	00		 imul	 eax, 11064		; 00002b38H
  00e6e	8b 0d 00 00 00
	00		 mov	 ecx, DWORD PTR ?gObj@@3PAUOBJECTSTRUCT@@A ; gObj
  00e74	c7 84 01 54 04
	00 00 94 01 00
	00		 mov	 DWORD PTR [ecx+eax+1108], 404 ; 00000194H

; 351  : 				gObjViewportListProtocolCreate(&gObj[n]);

  00e7f	8b 45 ec	 mov	 eax, DWORD PTR _n$220233[ebp]
  00e82	69 c0 38 2b 00
	00		 imul	 eax, 11064		; 00002b38H
  00e88	03 05 00 00 00
	00		 add	 eax, DWORD PTR ?gObj@@3PAUOBJECTSTRUCT@@A ; gObj
  00e8e	50		 push	 eax
  00e8f	e8 00 00 00 00	 call	 ?gObjViewportListProtocolCreate@@YAXPAUOBJECTSTRUCT@@@Z ; gObjViewportListProtocolCreate
  00e94	83 c4 04	 add	 esp, 4
$LN1@DivisionTe:

; 352  : 			}
; 353  : 			MsgNormal(n,"[RedTeam]: %d Vs [BlueTeam]: %d",this->ScoreRed,this->ScoreBlue);

  00e97	8b 45 fc	 mov	 eax, DWORD PTR _this$[ebp]
  00e9a	8b 88 7c d5 01
	00		 mov	 ecx, DWORD PTR [eax+120188]
  00ea0	51		 push	 ecx
  00ea1	8b 55 fc	 mov	 edx, DWORD PTR _this$[ebp]
  00ea4	8b 82 80 d5 01
	00		 mov	 eax, DWORD PTR [edx+120192]
  00eaa	50		 push	 eax
  00eab	68 00 00 00 00	 push	 OFFSET ??_C@_0CA@KAJPHADH@?$FLRedTeam?$FN?3?5?$CFd?5Vs?5?$FLBlueTeam?$FN?3?5?$CFd?$AA@
  00eb0	8b 4d ec	 mov	 ecx, DWORD PTR _n$220233[ebp]
  00eb3	51		 push	 ecx
  00eb4	e8 00 00 00 00	 call	 ?MsgNormal@@YAXHPADZZ	; MsgNormal
  00eb9	83 c4 10	 add	 esp, 16			; 00000010H
$LN3@DivisionTe:

; 354  : 		}
; 355  : 	}

  00ebc	e9 85 fe ff ff	 jmp	 $LN9@DivisionTe
$LN16@DivisionTe:

; 356  : }

  00ec1	5f		 pop	 edi
  00ec2	5e		 pop	 esi
  00ec3	5b		 pop	 ebx
  00ec4	8b e5		 mov	 esp, ebp
  00ec6	5d		 pop	 ebp
  00ec7	c3		 ret	 0
?DivisionTeam@cTvTEvent@@QAEXXZ ENDP			; cTvTEvent::DivisionTeam
_TEXT	ENDS
PUBLIC	?CheckStartEvent@cTvTEvent@@QAE_NXZ		; cTvTEvent::CheckStartEvent
; Function compile flags: /Odtp /ZI
_TEXT	SEGMENT
_this$ = -4						; size = 4
?CheckStartEvent@cTvTEvent@@QAE_NXZ PROC		; cTvTEvent::CheckStartEvent
; _this$ = ecx

; 359  : {

  00ed0	55		 push	 ebp
  00ed1	8b ec		 mov	 ebp, esp
  00ed3	83 ec 44	 sub	 esp, 68			; 00000044H
  00ed6	53		 push	 ebx
  00ed7	56		 push	 esi
  00ed8	57		 push	 edi
  00ed9	89 4d fc	 mov	 DWORD PTR _this$[ebp], ecx

; 360  : 	if(!this->Enable || !this->Start)return false;

  00edc	8b 45 fc	 mov	 eax, DWORD PTR _this$[ebp]
  00edf	83 38 00	 cmp	 DWORD PTR [eax], 0
  00ee2	74 0e		 je	 SHORT $LN1@CheckStart
  00ee4	8b 45 fc	 mov	 eax, DWORD PTR _this$[ebp]
  00ee7	0f b6 88 ad 00
	00 00		 movzx	 ecx, BYTE PTR [eax+173]
  00eee	85 c9		 test	 ecx, ecx
  00ef0	75 04		 jne	 SHORT $LN2@CheckStart
$LN1@CheckStart:
  00ef2	32 c0		 xor	 al, al
  00ef4	eb 02		 jmp	 SHORT $LN3@CheckStart
$LN2@CheckStart:

; 361  : 	return true;

  00ef6	b0 01		 mov	 al, 1
$LN3@CheckStart:

; 362  : }

  00ef8	5f		 pop	 edi
  00ef9	5e		 pop	 esi
  00efa	5b		 pop	 ebx
  00efb	8b e5		 mov	 esp, ebp
  00efd	5d		 pop	 ebp
  00efe	c3		 ret	 0
?CheckStartEvent@cTvTEvent@@QAE_NXZ ENDP		; cTvTEvent::CheckStartEvent
_TEXT	ENDS
PUBLIC	?ReturnStatus@cTvTEvent@@QAEHHH@Z		; cTvTEvent::ReturnStatus
; Function compile flags: /Odtp /ZI
_TEXT	SEGMENT
tv72 = -76						; size = 4
tv67 = -76						; size = 4
_lpObj$ = -8						; size = 4
_this$ = -4						; size = 4
_aIndex$ = 8						; size = 4
_TargetIndex$ = 12					; size = 4
?ReturnStatus@cTvTEvent@@QAEHHH@Z PROC			; cTvTEvent::ReturnStatus
; _this$ = ecx

; 365  : {

  00f00	55		 push	 ebp
  00f01	8b ec		 mov	 ebp, esp
  00f03	83 ec 4c	 sub	 esp, 76			; 0000004cH
  00f06	53		 push	 ebx
  00f07	56		 push	 esi
  00f08	57		 push	 edi
  00f09	89 4d fc	 mov	 DWORD PTR _this$[ebp], ecx

; 366  : 	if ( OBJMAX_RANGE(aIndex) == FALSE )

  00f0c	83 7d 08 00	 cmp	 DWORD PTR _aIndex$[ebp], 0
  00f10	7d 09		 jge	 SHORT $LN9@ReturnStat
  00f12	c7 45 b4 00 00
	00 00		 mov	 DWORD PTR tv67[ebp], 0
  00f19	eb 0f		 jmp	 SHORT $LN10@ReturnStat
$LN9@ReturnStat:
  00f1b	33 c0		 xor	 eax, eax
  00f1d	81 7d 08 97 3a
	00 00		 cmp	 DWORD PTR _aIndex$[ebp], 14999 ; 00003a97H
  00f24	0f 9e c0	 setle	 al
  00f27	89 45 b4	 mov	 DWORD PTR tv67[ebp], eax
$LN10@ReturnStat:
  00f2a	83 7d b4 00	 cmp	 DWORD PTR tv67[ebp], 0
  00f2e	75 0a		 jne	 SHORT $LN6@ReturnStat

; 367  : 	{
; 368  : 		return 3;

  00f30	b8 03 00 00 00	 mov	 eax, 3
  00f35	e9 95 00 00 00	 jmp	 $LN7@ReturnStat
$LN6@ReturnStat:

; 369  : 	}
; 370  : 
; 371  : 	if ( OBJMAX_RANGE(TargetIndex) == FALSE )

  00f3a	83 7d 0c 00	 cmp	 DWORD PTR _TargetIndex$[ebp], 0
  00f3e	7d 09		 jge	 SHORT $LN11@ReturnStat
  00f40	c7 45 b4 00 00
	00 00		 mov	 DWORD PTR tv72[ebp], 0
  00f47	eb 0f		 jmp	 SHORT $LN12@ReturnStat
$LN11@ReturnStat:
  00f49	33 c0		 xor	 eax, eax
  00f4b	81 7d 0c 97 3a
	00 00		 cmp	 DWORD PTR _TargetIndex$[ebp], 14999 ; 00003a97H
  00f52	0f 9e c0	 setle	 al
  00f55	89 45 b4	 mov	 DWORD PTR tv72[ebp], eax
$LN12@ReturnStat:
  00f58	83 7d b4 00	 cmp	 DWORD PTR tv72[ebp], 0
  00f5c	75 07		 jne	 SHORT $LN5@ReturnStat

; 372  : 	{
; 373  : 		return 3;

  00f5e	b8 03 00 00 00	 mov	 eax, 3
  00f63	eb 6a		 jmp	 SHORT $LN7@ReturnStat
$LN5@ReturnStat:

; 374  : 	}
; 375  : 
; 376  : 	LPOBJ lpObj = &gObj[aIndex];

  00f65	8b 45 08	 mov	 eax, DWORD PTR _aIndex$[ebp]
  00f68	69 c0 38 2b 00
	00		 imul	 eax, 11064		; 00002b38H
  00f6e	03 05 00 00 00
	00		 add	 eax, DWORD PTR ?gObj@@3PAUOBJECTSTRUCT@@A ; gObj
  00f74	89 45 f8	 mov	 DWORD PTR _lpObj$[ebp], eax

; 377  : 	if(this->Player[aIndex].tEvent == false || this->Player[aIndex].Team == 0) return (int)lpObj->m_PK_Level;

  00f77	8b 45 08	 mov	 eax, DWORD PTR _aIndex$[ebp]
  00f7a	8b 4d fc	 mov	 ecx, DWORD PTR _this$[ebp]
  00f7d	0f b6 94 c1 b8
	00 00 00	 movzx	 edx, BYTE PTR [ecx+eax*8+184]
  00f85	85 d2		 test	 edx, edx
  00f87	74 10		 je	 SHORT $LN3@ReturnStat
  00f89	8b 45 08	 mov	 eax, DWORD PTR _aIndex$[ebp]
  00f8c	8b 4d fc	 mov	 ecx, DWORD PTR _this$[ebp]
  00f8f	83 bc c1 bc 00
	00 00 00	 cmp	 DWORD PTR [ecx+eax*8+188], 0
  00f97	75 0c		 jne	 SHORT $LN4@ReturnStat
$LN3@ReturnStat:
  00f99	8b 45 f8	 mov	 eax, DWORD PTR _lpObj$[ebp]
  00f9c	0f be 80 3d 01
	00 00		 movsx	 eax, BYTE PTR [eax+317]
  00fa3	eb 2a		 jmp	 SHORT $LN7@ReturnStat
$LN4@ReturnStat:

; 378  : 	if(this->Player[aIndex].Team == this->Player[TargetIndex].Team) return 3;

  00fa5	8b 45 08	 mov	 eax, DWORD PTR _aIndex$[ebp]
  00fa8	8b 4d fc	 mov	 ecx, DWORD PTR _this$[ebp]
  00fab	8b 55 0c	 mov	 edx, DWORD PTR _TargetIndex$[ebp]
  00fae	8b 75 fc	 mov	 esi, DWORD PTR _this$[ebp]
  00fb1	8b 84 c1 bc 00
	00 00		 mov	 eax, DWORD PTR [ecx+eax*8+188]
  00fb8	3b 84 d6 bc 00
	00 00		 cmp	 eax, DWORD PTR [esi+edx*8+188]
  00fbf	75 09		 jne	 SHORT $LN2@ReturnStat
  00fc1	b8 03 00 00 00	 mov	 eax, 3
  00fc6	eb 07		 jmp	 SHORT $LN7@ReturnStat
  00fc8	eb 05		 jmp	 SHORT $LN7@ReturnStat
$LN2@ReturnStat:

; 379  : 	else return 6;

  00fca	b8 06 00 00 00	 mov	 eax, 6
$LN7@ReturnStat:

; 380  : }

  00fcf	5f		 pop	 edi
  00fd0	5e		 pop	 esi
  00fd1	5b		 pop	 ebx
  00fd2	8b e5		 mov	 esp, ebp
  00fd4	5d		 pop	 ebp
  00fd5	c2 08 00	 ret	 8
?ReturnStatus@cTvTEvent@@QAEHHH@Z ENDP			; cTvTEvent::ReturnStatus
_TEXT	ENDS
PUBLIC	?PkCheck@cTvTEvent@@QAE_NPAUOBJECTSTRUCT@@0@Z	; cTvTEvent::PkCheck
; Function compile flags: /Odtp /ZI
_TEXT	SEGMENT
_this$ = -4						; size = 4
_lpObj$ = 8						; size = 4
_lpTarget$ = 12						; size = 4
?PkCheck@cTvTEvent@@QAE_NPAUOBJECTSTRUCT@@0@Z PROC	; cTvTEvent::PkCheck
; _this$ = ecx

; 383  : {

  00fe0	55		 push	 ebp
  00fe1	8b ec		 mov	 ebp, esp
  00fe3	83 ec 44	 sub	 esp, 68			; 00000044H
  00fe6	53		 push	 ebx
  00fe7	56		 push	 esi
  00fe8	57		 push	 edi
  00fe9	89 4d fc	 mov	 DWORD PTR _this$[ebp], ecx

; 384  : 	if(!this->Enable)return true;

  00fec	8b 45 fc	 mov	 eax, DWORD PTR _this$[ebp]
  00fef	83 38 00	 cmp	 DWORD PTR [eax], 0
  00ff2	75 04		 jne	 SHORT $LN3@PkCheck
  00ff4	b0 01		 mov	 al, 1
  00ff6	eb 42		 jmp	 SHORT $LN4@PkCheck
$LN3@PkCheck:

; 385  : 	if(!this->Start)return true;

  00ff8	8b 45 fc	 mov	 eax, DWORD PTR _this$[ebp]
  00ffb	0f b6 88 ad 00
	00 00		 movzx	 ecx, BYTE PTR [eax+173]
  01002	85 c9		 test	 ecx, ecx
  01004	75 04		 jne	 SHORT $LN2@PkCheck
  01006	b0 01		 mov	 al, 1
  01008	eb 30		 jmp	 SHORT $LN4@PkCheck
$LN2@PkCheck:

; 386  : 	if(this->Player[lpObj->m_Index].tEvent == true && this->Player[lpTarget->m_Index].tEvent == true) return false;

  0100a	8b 45 08	 mov	 eax, DWORD PTR _lpObj$[ebp]
  0100d	8b 08		 mov	 ecx, DWORD PTR [eax]
  0100f	8b 55 fc	 mov	 edx, DWORD PTR _this$[ebp]
  01012	0f b6 84 ca b8
	00 00 00	 movzx	 eax, BYTE PTR [edx+ecx*8+184]
  0101a	83 f8 01	 cmp	 eax, 1
  0101d	75 19		 jne	 SHORT $LN1@PkCheck
  0101f	8b 45 0c	 mov	 eax, DWORD PTR _lpTarget$[ebp]
  01022	8b 08		 mov	 ecx, DWORD PTR [eax]
  01024	8b 55 fc	 mov	 edx, DWORD PTR _this$[ebp]
  01027	0f b6 84 ca b8
	00 00 00	 movzx	 eax, BYTE PTR [edx+ecx*8+184]
  0102f	83 f8 01	 cmp	 eax, 1
  01032	75 04		 jne	 SHORT $LN1@PkCheck
  01034	32 c0		 xor	 al, al
  01036	eb 02		 jmp	 SHORT $LN4@PkCheck
$LN1@PkCheck:

; 387  : 	return true;

  01038	b0 01		 mov	 al, 1
$LN4@PkCheck:

; 388  : }

  0103a	5f		 pop	 edi
  0103b	5e		 pop	 esi
  0103c	5b		 pop	 ebx
  0103d	8b e5		 mov	 esp, ebp
  0103f	5d		 pop	 ebp
  01040	c2 08 00	 ret	 8
?PkCheck@cTvTEvent@@QAE_NPAUOBJECTSTRUCT@@0@Z ENDP	; cTvTEvent::PkCheck
_TEXT	ENDS
PUBLIC	?ProcessKill@cTvTEvent@@QAEXPAUOBJECTSTRUCT@@0@Z ; cTvTEvent::ProcessKill
; Function compile flags: /Odtp /ZI
_TEXT	SEGMENT
_sObj$220287 = -12					; size = 4
_n$220283 = -8						; size = 4
_this$ = -4						; size = 4
_lpObj$ = 8						; size = 4
_lpTarget$ = 12						; size = 4
?ProcessKill@cTvTEvent@@QAEXPAUOBJECTSTRUCT@@0@Z PROC	; cTvTEvent::ProcessKill
; _this$ = ecx

; 391  : {

  01050	55		 push	 ebp
  01051	8b ec		 mov	 ebp, esp
  01053	83 ec 4c	 sub	 esp, 76			; 0000004cH
  01056	53		 push	 ebx
  01057	56		 push	 esi
  01058	57		 push	 edi
  01059	89 4d fc	 mov	 DWORD PTR _this$[ebp], ecx

; 392  : 	if(!this->Enable)return;

  0105c	8b 45 fc	 mov	 eax, DWORD PTR _this$[ebp]
  0105f	83 38 00	 cmp	 DWORD PTR [eax], 0
  01062	75 05		 jne	 SHORT $LN13@ProcessKil
  01064	e9 48 01 00 00	 jmp	 $LN14@ProcessKil
$LN13@ProcessKil:

; 393  : 	if(!this->Start)return;

  01069	8b 45 fc	 mov	 eax, DWORD PTR _this$[ebp]
  0106c	0f b6 88 ad 00
	00 00		 movzx	 ecx, BYTE PTR [eax+173]
  01073	85 c9		 test	 ecx, ecx
  01075	75 05		 jne	 SHORT $LN12@ProcessKil
  01077	e9 35 01 00 00	 jmp	 $LN14@ProcessKil
$LN12@ProcessKil:

; 394  : 	if(this->Player[lpObj->m_Index].Team == BLUETEAM && this->Player[lpTarget->m_Index].Team == REDTEAM)

  0107c	8b 45 08	 mov	 eax, DWORD PTR _lpObj$[ebp]
  0107f	8b 08		 mov	 ecx, DWORD PTR [eax]
  01081	8b 55 fc	 mov	 edx, DWORD PTR _this$[ebp]
  01084	83 bc ca bc 00
	00 00 01	 cmp	 DWORD PTR [edx+ecx*8+188], 1
  0108c	75 29		 jne	 SHORT $LN11@ProcessKil
  0108e	8b 45 0c	 mov	 eax, DWORD PTR _lpTarget$[ebp]
  01091	8b 08		 mov	 ecx, DWORD PTR [eax]
  01093	8b 55 fc	 mov	 edx, DWORD PTR _this$[ebp]
  01096	83 bc ca bc 00
	00 00 02	 cmp	 DWORD PTR [edx+ecx*8+188], 2
  0109e	75 17		 jne	 SHORT $LN11@ProcessKil

; 395  : 	{
; 396  : 		this->ScoreBlue++;

  010a0	8b 45 fc	 mov	 eax, DWORD PTR _this$[ebp]
  010a3	8b 88 7c d5 01
	00		 mov	 ecx, DWORD PTR [eax+120188]
  010a9	83 c1 01	 add	 ecx, 1
  010ac	8b 55 fc	 mov	 edx, DWORD PTR _this$[ebp]
  010af	89 8a 7c d5 01
	00		 mov	 DWORD PTR [edx+120188], ecx
  010b5	eb 39		 jmp	 SHORT $LN10@ProcessKil
$LN11@ProcessKil:

; 397  : 	}
; 398  : 	else if(this->Player[lpObj->m_Index].Team == REDTEAM && this->Player[lpTarget->m_Index].Team == BLUETEAM) 

  010b7	8b 45 08	 mov	 eax, DWORD PTR _lpObj$[ebp]
  010ba	8b 08		 mov	 ecx, DWORD PTR [eax]
  010bc	8b 55 fc	 mov	 edx, DWORD PTR _this$[ebp]
  010bf	83 bc ca bc 00
	00 00 02	 cmp	 DWORD PTR [edx+ecx*8+188], 2
  010c7	75 27		 jne	 SHORT $LN10@ProcessKil
  010c9	8b 45 0c	 mov	 eax, DWORD PTR _lpTarget$[ebp]
  010cc	8b 08		 mov	 ecx, DWORD PTR [eax]
  010ce	8b 55 fc	 mov	 edx, DWORD PTR _this$[ebp]
  010d1	83 bc ca bc 00
	00 00 01	 cmp	 DWORD PTR [edx+ecx*8+188], 1
  010d9	75 15		 jne	 SHORT $LN10@ProcessKil

; 399  : 	{
; 400  : 		this->ScoreRed++;

  010db	8b 45 fc	 mov	 eax, DWORD PTR _this$[ebp]
  010de	8b 88 80 d5 01
	00		 mov	 ecx, DWORD PTR [eax+120192]
  010e4	83 c1 01	 add	 ecx, 1
  010e7	8b 55 fc	 mov	 edx, DWORD PTR _this$[ebp]
  010ea	89 8a 80 d5 01
	00		 mov	 DWORD PTR [edx+120192], ecx
$LN10@ProcessKil:

; 401  : 	}
; 402  : 	for(int n=OBJ_STARTUSERINDEX;n<OBJMAX;n++)

  010f0	c7 45 f8 b0 36
	00 00		 mov	 DWORD PTR _n$220283[ebp], 14000 ; 000036b0H
  010f7	eb 09		 jmp	 SHORT $LN8@ProcessKil
$LN7@ProcessKil:
  010f9	8b 45 f8	 mov	 eax, DWORD PTR _n$220283[ebp]
  010fc	83 c0 01	 add	 eax, 1
  010ff	89 45 f8	 mov	 DWORD PTR _n$220283[ebp], eax
$LN8@ProcessKil:
  01102	81 7d f8 98 3a
	00 00		 cmp	 DWORD PTR _n$220283[ebp], 15000 ; 00003a98H
  01109	0f 8d a2 00 00
	00		 jge	 $LN14@ProcessKil

; 403  : 	{
; 404  : 		LPOBJ sObj = &gObj[n];

  0110f	8b 45 f8	 mov	 eax, DWORD PTR _n$220283[ebp]
  01112	69 c0 38 2b 00
	00		 imul	 eax, 11064		; 00002b38H
  01118	03 05 00 00 00
	00		 add	 eax, DWORD PTR ?gObj@@3PAUOBJECTSTRUCT@@A ; gObj
  0111e	89 45 f4	 mov	 DWORD PTR _sObj$220287[ebp], eax

; 405  : 		if(sObj->Connected != PLAYER_PLAYING) continue;

  01121	8b 45 f4	 mov	 eax, DWORD PTR _sObj$220287[ebp]
  01124	83 78 04 03	 cmp	 DWORD PTR [eax+4], 3
  01128	74 02		 je	 SHORT $LN5@ProcessKil
  0112a	eb cd		 jmp	 SHORT $LN7@ProcessKil
$LN5@ProcessKil:

; 406  : 		if(this->Player[n].tEvent == false) continue;

  0112c	8b 45 f8	 mov	 eax, DWORD PTR _n$220283[ebp]
  0112f	8b 4d fc	 mov	 ecx, DWORD PTR _this$[ebp]
  01132	0f b6 94 c1 b8
	00 00 00	 movzx	 edx, BYTE PTR [ecx+eax*8+184]
  0113a	85 d2		 test	 edx, edx
  0113c	75 02		 jne	 SHORT $LN4@ProcessKil
  0113e	eb b9		 jmp	 SHORT $LN7@ProcessKil
$LN4@ProcessKil:

; 407  : 		if(this->Player[n].Team == BLUETEAM)

  01140	8b 45 f8	 mov	 eax, DWORD PTR _n$220283[ebp]
  01143	8b 4d fc	 mov	 ecx, DWORD PTR _this$[ebp]
  01146	83 bc c1 bc 00
	00 00 01	 cmp	 DWORD PTR [ecx+eax*8+188], 1
  0114e	75 27		 jne	 SHORT $LN3@ProcessKil

; 408  : 		{
; 409  : 			MsgNormal(n,"[BlueTeam]: %d Vs [RedTeam]: %d",this->ScoreBlue,this->ScoreRed);

  01150	8b 45 fc	 mov	 eax, DWORD PTR _this$[ebp]
  01153	8b 88 80 d5 01
	00		 mov	 ecx, DWORD PTR [eax+120192]
  01159	51		 push	 ecx
  0115a	8b 55 fc	 mov	 edx, DWORD PTR _this$[ebp]
  0115d	8b 82 7c d5 01
	00		 mov	 eax, DWORD PTR [edx+120188]
  01163	50		 push	 eax
  01164	68 00 00 00 00	 push	 OFFSET ??_C@_0CA@JJIAMAIB@?$FLBlueTeam?$FN?3?5?$CFd?5Vs?5?$FLRedTeam?$FN?3?5?$CFd?$AA@
  01169	8b 4d f8	 mov	 ecx, DWORD PTR _n$220283[ebp]
  0116c	51		 push	 ecx
  0116d	e8 00 00 00 00	 call	 ?MsgNormal@@YAXHPADZZ	; MsgNormal
  01172	83 c4 10	 add	 esp, 16			; 00000010H
  01175	eb 35		 jmp	 SHORT $LN2@ProcessKil
$LN3@ProcessKil:

; 410  : 		}
; 411  : 		else if(this->Player[n].Team == REDTEAM)

  01177	8b 45 f8	 mov	 eax, DWORD PTR _n$220283[ebp]
  0117a	8b 4d fc	 mov	 ecx, DWORD PTR _this$[ebp]
  0117d	83 bc c1 bc 00
	00 00 02	 cmp	 DWORD PTR [ecx+eax*8+188], 2
  01185	75 25		 jne	 SHORT $LN2@ProcessKil

; 412  : 		{
; 413  : 			MsgNormal(n,"[RedTeam]: %d Vs [BlueTeam]: %d",this->ScoreRed,this->ScoreBlue);

  01187	8b 45 fc	 mov	 eax, DWORD PTR _this$[ebp]
  0118a	8b 88 7c d5 01
	00		 mov	 ecx, DWORD PTR [eax+120188]
  01190	51		 push	 ecx
  01191	8b 55 fc	 mov	 edx, DWORD PTR _this$[ebp]
  01194	8b 82 80 d5 01
	00		 mov	 eax, DWORD PTR [edx+120192]
  0119a	50		 push	 eax
  0119b	68 00 00 00 00	 push	 OFFSET ??_C@_0CA@KAJPHADH@?$FLRedTeam?$FN?3?5?$CFd?5Vs?5?$FLBlueTeam?$FN?3?5?$CFd?$AA@
  011a0	8b 4d f8	 mov	 ecx, DWORD PTR _n$220283[ebp]
  011a3	51		 push	 ecx
  011a4	e8 00 00 00 00	 call	 ?MsgNormal@@YAXHPADZZ	; MsgNormal
  011a9	83 c4 10	 add	 esp, 16			; 00000010H
$LN2@ProcessKil:

; 414  : 		}
; 415  : 	}

  011ac	e9 48 ff ff ff	 jmp	 $LN7@ProcessKil
$LN14@ProcessKil:

; 416  : }

  011b1	5f		 pop	 edi
  011b2	5e		 pop	 esi
  011b3	5b		 pop	 ebx
  011b4	8b e5		 mov	 esp, ebp
  011b6	5d		 pop	 ebp
  011b7	c2 08 00	 ret	 8
?ProcessKill@cTvTEvent@@QAEXPAUOBJECTSTRUCT@@0@Z ENDP	; cTvTEvent::ProcessKill
_TEXT	ENDS
PUBLIC	?AllyKillCheck@cTvTEvent@@QAE_NPAUOBJECTSTRUCT@@0@Z ; cTvTEvent::AllyKillCheck
; Function compile flags: /Odtp /ZI
_TEXT	SEGMENT
_this$ = -4						; size = 4
_lpObj$ = 8						; size = 4
_lpTarget$ = 12						; size = 4
?AllyKillCheck@cTvTEvent@@QAE_NPAUOBJECTSTRUCT@@0@Z PROC ; cTvTEvent::AllyKillCheck
; _this$ = ecx

; 419  : {

  011c0	55		 push	 ebp
  011c1	8b ec		 mov	 ebp, esp
  011c3	83 ec 44	 sub	 esp, 68			; 00000044H
  011c6	53		 push	 ebx
  011c7	56		 push	 esi
  011c8	57		 push	 edi
  011c9	89 4d fc	 mov	 DWORD PTR _this$[ebp], ecx

; 420  : 	if(!this->Enable)return true;

  011cc	8b 45 fc	 mov	 eax, DWORD PTR _this$[ebp]
  011cf	83 38 00	 cmp	 DWORD PTR [eax], 0
  011d2	75 04		 jne	 SHORT $LN5@AllyKillCh
  011d4	b0 01		 mov	 al, 1
  011d6	eb 7c		 jmp	 SHORT $LN6@AllyKillCh
$LN5@AllyKillCh:

; 421  : 	if(!this->Start)return true;

  011d8	8b 45 fc	 mov	 eax, DWORD PTR _this$[ebp]
  011db	0f b6 88 ad 00
	00 00		 movzx	 ecx, BYTE PTR [eax+173]
  011e2	85 c9		 test	 ecx, ecx
  011e4	75 04		 jne	 SHORT $LN4@AllyKillCh
  011e6	b0 01		 mov	 al, 1
  011e8	eb 6a		 jmp	 SHORT $LN6@AllyKillCh
$LN4@AllyKillCh:

; 422  : 	if(this->Player[lpObj->m_Index].tEvent == false) return true;

  011ea	8b 45 08	 mov	 eax, DWORD PTR _lpObj$[ebp]
  011ed	8b 08		 mov	 ecx, DWORD PTR [eax]
  011ef	8b 55 fc	 mov	 edx, DWORD PTR _this$[ebp]
  011f2	0f b6 84 ca b8
	00 00 00	 movzx	 eax, BYTE PTR [edx+ecx*8+184]
  011fa	85 c0		 test	 eax, eax
  011fc	75 04		 jne	 SHORT $LN3@AllyKillCh
  011fe	b0 01		 mov	 al, 1
  01200	eb 52		 jmp	 SHORT $LN6@AllyKillCh
$LN3@AllyKillCh:

; 423  : 	if(this->Player[lpObj->m_Index].Team == BLUETEAM && this->Player[lpTarget->m_Index].Team == BLUETEAM) return false;

  01202	8b 45 08	 mov	 eax, DWORD PTR _lpObj$[ebp]
  01205	8b 08		 mov	 ecx, DWORD PTR [eax]
  01207	8b 55 fc	 mov	 edx, DWORD PTR _this$[ebp]
  0120a	83 bc ca bc 00
	00 00 01	 cmp	 DWORD PTR [edx+ecx*8+188], 1
  01212	75 16		 jne	 SHORT $LN2@AllyKillCh
  01214	8b 45 0c	 mov	 eax, DWORD PTR _lpTarget$[ebp]
  01217	8b 08		 mov	 ecx, DWORD PTR [eax]
  01219	8b 55 fc	 mov	 edx, DWORD PTR _this$[ebp]
  0121c	83 bc ca bc 00
	00 00 01	 cmp	 DWORD PTR [edx+ecx*8+188], 1
  01224	75 04		 jne	 SHORT $LN2@AllyKillCh
  01226	32 c0		 xor	 al, al
  01228	eb 2a		 jmp	 SHORT $LN6@AllyKillCh
$LN2@AllyKillCh:

; 424  : 	if(this->Player[lpObj->m_Index].Team == REDTEAM && this->Player[lpTarget->m_Index].Team == REDTEAM) return false;

  0122a	8b 45 08	 mov	 eax, DWORD PTR _lpObj$[ebp]
  0122d	8b 08		 mov	 ecx, DWORD PTR [eax]
  0122f	8b 55 fc	 mov	 edx, DWORD PTR _this$[ebp]
  01232	83 bc ca bc 00
	00 00 02	 cmp	 DWORD PTR [edx+ecx*8+188], 2
  0123a	75 16		 jne	 SHORT $LN1@AllyKillCh
  0123c	8b 45 0c	 mov	 eax, DWORD PTR _lpTarget$[ebp]
  0123f	8b 08		 mov	 ecx, DWORD PTR [eax]
  01241	8b 55 fc	 mov	 edx, DWORD PTR _this$[ebp]
  01244	83 bc ca bc 00
	00 00 02	 cmp	 DWORD PTR [edx+ecx*8+188], 2
  0124c	75 04		 jne	 SHORT $LN1@AllyKillCh
  0124e	32 c0		 xor	 al, al
  01250	eb 02		 jmp	 SHORT $LN6@AllyKillCh
$LN1@AllyKillCh:

; 425  : 	return true;

  01252	b0 01		 mov	 al, 1
$LN6@AllyKillCh:

; 426  : }

  01254	5f		 pop	 edi
  01255	5e		 pop	 esi
  01256	5b		 pop	 ebx
  01257	8b e5		 mov	 esp, ebp
  01259	5d		 pop	 ebp
  0125a	c2 08 00	 ret	 8
?AllyKillCheck@cTvTEvent@@QAE_NPAUOBJECTSTRUCT@@0@Z ENDP ; cTvTEvent::AllyKillCheck
_TEXT	ENDS
EXTRN	?ItemSerialCreateSend@@YAXHEEEHEEEEEHEE@Z:PROC	; ItemSerialCreateSend
EXTRN	?GDSaveUserInfo@GameShop@@QAEXH@Z:PROC		; GameShop::GDSaveUserInfo
EXTRN	?gGameShop@@3VGameShop@@A:BYTE			; gGameShop
EXTRN	__fltused:DWORD
; Function compile flags: /Odtp /ZI
_TEXT	SEGMENT
_a$220318 = -16						; size = 4
_lpObj$ = -12						; size = 4
_TeamReward$ = -8					; size = 4
_this$ = -4						; size = 4
_aIndex$ = 8						; size = 4
?Reward@cTvTEvent@@QAEXH@Z PROC				; cTvTEvent::Reward
; _this$ = ecx

; 429  : {

  01260	55		 push	 ebp
  01261	8b ec		 mov	 ebp, esp
  01263	83 ec 50	 sub	 esp, 80			; 00000050H
  01266	53		 push	 ebx
  01267	56		 push	 esi
  01268	57		 push	 edi
  01269	89 4d fc	 mov	 DWORD PTR _this$[ebp], ecx

; 430  : 	if(!this->Enable)return;

  0126c	8b 45 fc	 mov	 eax, DWORD PTR _this$[ebp]
  0126f	83 38 00	 cmp	 DWORD PTR [eax], 0
  01272	75 05		 jne	 SHORT $LN12@Reward
  01274	e9 3e 01 00 00	 jmp	 $LN13@Reward
$LN12@Reward:

; 431  : 
; 432  : 	int TeamReward = 0;

  01279	c7 45 f8 00 00
	00 00		 mov	 DWORD PTR _TeamReward$[ebp], 0

; 433  : 	if(this->ScoreBlue > this->ScoreRed)

  01280	8b 45 fc	 mov	 eax, DWORD PTR _this$[ebp]
  01283	8b 4d fc	 mov	 ecx, DWORD PTR _this$[ebp]
  01286	8b 90 7c d5 01
	00		 mov	 edx, DWORD PTR [eax+120188]
  0128c	3b 91 80 d5 01
	00		 cmp	 edx, DWORD PTR [ecx+120192]
  01292	7e 09		 jle	 SHORT $LN11@Reward

; 434  : 		TeamReward = BLUETEAM;

  01294	c7 45 f8 01 00
	00 00		 mov	 DWORD PTR _TeamReward$[ebp], 1
  0129b	eb 1b		 jmp	 SHORT $LN9@Reward
$LN11@Reward:

; 435  : 	else if(this->ScoreRed > ScoreBlue)

  0129d	8b 45 fc	 mov	 eax, DWORD PTR _this$[ebp]
  012a0	8b 4d fc	 mov	 ecx, DWORD PTR _this$[ebp]
  012a3	8b 90 80 d5 01
	00		 mov	 edx, DWORD PTR [eax+120192]
  012a9	3b 91 7c d5 01
	00		 cmp	 edx, DWORD PTR [ecx+120188]
  012af	7e 07		 jle	 SHORT $LN9@Reward

; 436  : 		TeamReward = REDTEAM;

  012b1	c7 45 f8 02 00
	00 00		 mov	 DWORD PTR _TeamReward$[ebp], 2
$LN9@Reward:

; 437  : 	
; 438  : 	if(TeamReward == 0) return;

  012b8	83 7d f8 00	 cmp	 DWORD PTR _TeamReward$[ebp], 0
  012bc	75 05		 jne	 SHORT $LN8@Reward
  012be	e9 f4 00 00 00	 jmp	 $LN13@Reward
$LN8@Reward:

; 439  : 
; 440  : 	if(this->Player[aIndex].Team != TeamReward) return;

  012c3	8b 45 08	 mov	 eax, DWORD PTR _aIndex$[ebp]
  012c6	8b 4d fc	 mov	 ecx, DWORD PTR _this$[ebp]
  012c9	8b 94 c1 bc 00
	00 00		 mov	 edx, DWORD PTR [ecx+eax*8+188]
  012d0	3b 55 f8	 cmp	 edx, DWORD PTR _TeamReward$[ebp]
  012d3	74 05		 je	 SHORT $LN7@Reward
  012d5	e9 dd 00 00 00	 jmp	 $LN13@Reward
$LN7@Reward:

; 441  : 
; 442  : 	LPOBJ lpObj = &gObj[aIndex];

  012da	8b 45 08	 mov	 eax, DWORD PTR _aIndex$[ebp]
  012dd	69 c0 38 2b 00
	00		 imul	 eax, 11064		; 00002b38H
  012e3	03 05 00 00 00
	00		 add	 eax, DWORD PTR ?gObj@@3PAUOBJECTSTRUCT@@A ; gObj
  012e9	89 45 f4	 mov	 DWORD PTR _lpObj$[ebp], eax

; 443  : 
; 444  : 	if(this->RewardExPoint > 0)

  012ec	8b 45 fc	 mov	 eax, DWORD PTR _this$[ebp]
  012ef	83 78 50 00	 cmp	 DWORD PTR [eax+80], 0
  012f3	7e 18		 jle	 SHORT $LN6@Reward

; 445  : 	{
; 446  : 		lpObj->PCPoint += this->RewardExPoint;

  012f5	8b 45 f4	 mov	 eax, DWORD PTR _lpObj$[ebp]
  012f8	8b 88 88 22 00
	00		 mov	 ecx, DWORD PTR [eax+8840]
  012fe	8b 55 fc	 mov	 edx, DWORD PTR _this$[ebp]
  01301	03 4a 50	 add	 ecx, DWORD PTR [edx+80]
  01304	8b 45 f4	 mov	 eax, DWORD PTR _lpObj$[ebp]
  01307	89 88 88 22 00
	00		 mov	 DWORD PTR [eax+8840], ecx
$LN6@Reward:

; 447  : 		//ExPCPointSystem.InitPCPointForPlayer(lpObj, ExUser[aIndex].PCPoint ,lpObj->ExCred);
; 448  : 	}
; 449  : 	if(this->RewardWCoin > 0)

  0130d	8b 45 fc	 mov	 eax, DWORD PTR _this$[ebp]
  01310	83 78 54 00	 cmp	 DWORD PTR [eax+84], 0
  01314	7e 28		 jle	 SHORT $LN5@Reward

; 450  : 	{
; 451  : 		lpObj->GameShop.WCoinC += this->RewardWCoin;

  01316	8b 45 fc	 mov	 eax, DWORD PTR _this$[ebp]
  01319	db 40 54	 fild	 DWORD PTR [eax+84]
  0131c	8b 4d f4	 mov	 ecx, DWORD PTR _lpObj$[ebp]
  0131f	dc 81 00 23 00
	00		 fadd	 QWORD PTR [ecx+8960]
  01325	8b 55 f4	 mov	 edx, DWORD PTR _lpObj$[ebp]
  01328	dd 9a 00 23 00
	00		 fstp	 QWORD PTR [edx+8960]

; 452  : 		gGameShop.GDSaveUserInfo(lpObj->m_Index);

  0132e	8b 45 f4	 mov	 eax, DWORD PTR _lpObj$[ebp]
  01331	8b 08		 mov	 ecx, DWORD PTR [eax]
  01333	51		 push	 ecx
  01334	b9 00 00 00 00	 mov	 ecx, OFFSET ?gGameShop@@3VGameShop@@A ; gGameShop
  01339	e8 00 00 00 00	 call	 ?GDSaveUserInfo@GameShop@@QAEXH@Z ; GameShop::GDSaveUserInfo
$LN5@Reward:

; 453  : 	}
; 454  : 	
; 455  : 	if(this->RewardItem == 0) return;

  0133e	8b 45 fc	 mov	 eax, DWORD PTR _this$[ebp]
  01341	83 78 3c 00	 cmp	 DWORD PTR [eax+60], 0
  01345	75 02		 jne	 SHORT $LN4@Reward
  01347	eb 6e		 jmp	 SHORT $LN13@Reward
$LN4@Reward:

; 456  : 
; 457  : 	for (int a=0;a<this->RewardItemCount;a++)

  01349	c7 45 f0 00 00
	00 00		 mov	 DWORD PTR _a$220318[ebp], 0
  01350	eb 09		 jmp	 SHORT $LN3@Reward
$LN2@Reward:
  01352	8b 45 f0	 mov	 eax, DWORD PTR _a$220318[ebp]
  01355	83 c0 01	 add	 eax, 1
  01358	89 45 f0	 mov	 DWORD PTR _a$220318[ebp], eax
$LN3@Reward:
  0135b	8b 45 fc	 mov	 eax, DWORD PTR _this$[ebp]
  0135e	8b 4d f0	 mov	 ecx, DWORD PTR _a$220318[ebp]
  01361	3b 48 4c	 cmp	 ecx, DWORD PTR [eax+76]
  01364	7d 51		 jge	 SHORT $LN1@Reward

; 458  : 	{
; 459  : 		ItemSerialCreateSend(aIndex,235,lpObj->X,lpObj->Y,ITEMGET(this->ItemRewardType,this->ItemRewardIndex),(BYTE)this->ItemRewardLevel,0,0,0,0,aIndex,0,0);

  01366	6a 00		 push	 0
  01368	6a 00		 push	 0
  0136a	8b 45 08	 mov	 eax, DWORD PTR _aIndex$[ebp]
  0136d	50		 push	 eax
  0136e	6a 00		 push	 0
  01370	6a 00		 push	 0
  01372	6a 00		 push	 0
  01374	6a 00		 push	 0
  01376	8b 4d fc	 mov	 ecx, DWORD PTR _this$[ebp]
  01379	0f b6 51 48	 movzx	 edx, BYTE PTR [ecx+72]
  0137d	52		 push	 edx
  0137e	8b 45 fc	 mov	 eax, DWORD PTR _this$[ebp]
  01381	8b 48 40	 mov	 ecx, DWORD PTR [eax+64]
  01384	c1 e1 09	 shl	 ecx, 9
  01387	8b 55 fc	 mov	 edx, DWORD PTR _this$[ebp]
  0138a	03 4a 44	 add	 ecx, DWORD PTR [edx+68]
  0138d	51		 push	 ecx
  0138e	8b 45 f4	 mov	 eax, DWORD PTR _lpObj$[ebp]
  01391	0f b6 88 46 01
	00 00		 movzx	 ecx, BYTE PTR [eax+326]
  01398	51		 push	 ecx
  01399	8b 55 f4	 mov	 edx, DWORD PTR _lpObj$[ebp]
  0139c	0f b6 82 44 01
	00 00		 movzx	 eax, BYTE PTR [edx+324]
  013a3	50		 push	 eax
  013a4	68 eb 00 00 00	 push	 235			; 000000ebH
  013a9	8b 4d 08	 mov	 ecx, DWORD PTR _aIndex$[ebp]
  013ac	51		 push	 ecx
  013ad	e8 00 00 00 00	 call	 ?ItemSerialCreateSend@@YAXHEEEHEEEEEHEE@Z ; ItemSerialCreateSend
  013b2	83 c4 34	 add	 esp, 52			; 00000034H

; 460  : 	}

  013b5	eb 9b		 jmp	 SHORT $LN2@Reward
$LN1@Reward:
$LN13@Reward:

; 461  : }

  013b7	5f		 pop	 edi
  013b8	5e		 pop	 esi
  013b9	5b		 pop	 ebx
  013ba	8b e5		 mov	 esp, ebp
  013bc	5d		 pop	 ebp
  013bd	c2 04 00	 ret	 4
?Reward@cTvTEvent@@QAEXH@Z ENDP				; cTvTEvent::Reward
_TEXT	ENDS
PUBLIC	?CheckGateEvent@cTvTEvent@@QAE_NH@Z		; cTvTEvent::CheckGateEvent
; Function compile flags: /Odtp /ZI
_TEXT	SEGMENT
_this$ = -4						; size = 4
_aIndex$ = 8						; size = 4
?CheckGateEvent@cTvTEvent@@QAE_NH@Z PROC		; cTvTEvent::CheckGateEvent
; _this$ = ecx

; 464  : {

  013c0	55		 push	 ebp
  013c1	8b ec		 mov	 ebp, esp
  013c3	83 ec 44	 sub	 esp, 68			; 00000044H
  013c6	53		 push	 ebx
  013c7	56		 push	 esi
  013c8	57		 push	 edi
  013c9	89 4d fc	 mov	 DWORD PTR _this$[ebp], ecx

; 465  : 	if(!this->Enable)return true;

  013cc	8b 45 fc	 mov	 eax, DWORD PTR _this$[ebp]
  013cf	83 38 00	 cmp	 DWORD PTR [eax], 0
  013d2	75 04		 jne	 SHORT $LN2@CheckGateE
  013d4	b0 01		 mov	 al, 1
  013d6	eb 19		 jmp	 SHORT $LN3@CheckGateE
$LN2@CheckGateE:

; 466  : 	if(this->Player[aIndex].tEvent == true) return false;

  013d8	8b 45 08	 mov	 eax, DWORD PTR _aIndex$[ebp]
  013db	8b 4d fc	 mov	 ecx, DWORD PTR _this$[ebp]
  013de	0f b6 94 c1 b8
	00 00 00	 movzx	 edx, BYTE PTR [ecx+eax*8+184]
  013e6	83 fa 01	 cmp	 edx, 1
  013e9	75 04		 jne	 SHORT $LN1@CheckGateE
  013eb	32 c0		 xor	 al, al
  013ed	eb 02		 jmp	 SHORT $LN3@CheckGateE
$LN1@CheckGateE:

; 467  : 	return true;

  013ef	b0 01		 mov	 al, 1
$LN3@CheckGateE:

; 468  : }

  013f1	5f		 pop	 edi
  013f2	5e		 pop	 esi
  013f3	5b		 pop	 ebx
  013f4	8b e5		 mov	 esp, ebp
  013f6	5d		 pop	 ebp
  013f7	c2 04 00	 ret	 4
?CheckGateEvent@cTvTEvent@@QAE_NH@Z ENDP		; cTvTEvent::CheckGateEvent
_TEXT	ENDS
PUBLIC	?CheckMapXY@cTvTEvent@@QAEXPAUOBJECTSTRUCT@@@Z	; cTvTEvent::CheckMapXY
; Function compile flags: /Odtp /ZI
_TEXT	SEGMENT
_this$ = -4						; size = 4
_lpObj$ = 8						; size = 4
?CheckMapXY@cTvTEvent@@QAEXPAUOBJECTSTRUCT@@@Z PROC	; cTvTEvent::CheckMapXY
; _this$ = ecx

; 471  : {

  01400	55		 push	 ebp
  01401	8b ec		 mov	 ebp, esp
  01403	83 ec 44	 sub	 esp, 68			; 00000044H
  01406	53		 push	 ebx
  01407	56		 push	 esi
  01408	57		 push	 edi
  01409	89 4d fc	 mov	 DWORD PTR _this$[ebp], ecx

; 472  : 	if(lpObj->MapNumber == 6 && lpObj->X >= 100 && lpObj->X <= 120 && lpObj->Y >= 150 && lpObj->Y <= 186)

  0140c	8b 45 08	 mov	 eax, DWORD PTR _lpObj$[ebp]
  0140f	0f b6 88 49 01
	00 00		 movzx	 ecx, BYTE PTR [eax+329]
  01416	83 f9 06	 cmp	 ecx, 6
  01419	75 6a		 jne	 SHORT $LN2@CheckMapXY
  0141b	8b 45 08	 mov	 eax, DWORD PTR _lpObj$[ebp]
  0141e	0f bf 88 44 01
	00 00		 movsx	 ecx, WORD PTR [eax+324]
  01425	83 f9 64	 cmp	 ecx, 100		; 00000064H
  01428	7c 5b		 jl	 SHORT $LN2@CheckMapXY
  0142a	8b 45 08	 mov	 eax, DWORD PTR _lpObj$[ebp]
  0142d	0f bf 88 44 01
	00 00		 movsx	 ecx, WORD PTR [eax+324]
  01434	83 f9 78	 cmp	 ecx, 120		; 00000078H
  01437	7f 4c		 jg	 SHORT $LN2@CheckMapXY
  01439	8b 45 08	 mov	 eax, DWORD PTR _lpObj$[ebp]
  0143c	0f bf 88 46 01
	00 00		 movsx	 ecx, WORD PTR [eax+326]
  01443	81 f9 96 00 00
	00		 cmp	 ecx, 150		; 00000096H
  01449	7c 3a		 jl	 SHORT $LN2@CheckMapXY
  0144b	8b 45 08	 mov	 eax, DWORD PTR _lpObj$[ebp]
  0144e	0f bf 88 46 01
	00 00		 movsx	 ecx, WORD PTR [eax+326]
  01455	81 f9 ba 00 00
	00		 cmp	 ecx, 186		; 000000baH
  0145b	7f 28		 jg	 SHORT $LN2@CheckMapXY

; 473  : 	{
; 474  : 		lpObj->MapNumber = 0;

  0145d	8b 45 08	 mov	 eax, DWORD PTR _lpObj$[ebp]
  01460	c6 80 49 01 00
	00 00		 mov	 BYTE PTR [eax+329], 0

; 475  : 		lpObj->X = 123;

  01467	b8 7b 00 00 00	 mov	 eax, 123		; 0000007bH
  0146c	8b 4d 08	 mov	 ecx, DWORD PTR _lpObj$[ebp]
  0146f	66 89 81 44 01
	00 00		 mov	 WORD PTR [ecx+324], ax

; 476  : 		lpObj->Y = 123;

  01476	b8 7b 00 00 00	 mov	 eax, 123		; 0000007bH
  0147b	8b 4d 08	 mov	 ecx, DWORD PTR _lpObj$[ebp]
  0147e	66 89 81 46 01
	00 00		 mov	 WORD PTR [ecx+326], ax
$LN2@CheckMapXY:

; 477  : 	}
; 478  : }

  01485	5f		 pop	 edi
  01486	5e		 pop	 esi
  01487	5b		 pop	 ebx
  01488	8b e5		 mov	 esp, ebp
  0148a	5d		 pop	 ebp
  0148b	c2 04 00	 ret	 4
?CheckMapXY@cTvTEvent@@QAEXPAUOBJECTSTRUCT@@@Z ENDP	; cTvTEvent::CheckMapXY
_TEXT	ENDS
PUBLIC	??_C@_0L@MPIGLPBN@?1reloadtvt?$AA@		; `string'
PUBLIC	__$ArrayPad$
PUBLIC	?ChatData@cTvTEvent@@QAEXHPAE@Z			; cTvTEvent::ChatData
EXTRN	_memcmp:PROC
EXTRN	_strlen:PROC
;	COMDAT ??_C@_0L@MPIGLPBN@?1reloadtvt?$AA@
CONST	SEGMENT
??_C@_0L@MPIGLPBN@?1reloadtvt?$AA@ DB '/reloadtvt', 00H	; `string'
; Function compile flags: /Odtp /ZI
CONST	ENDS
_TEXT	SEGMENT
_CommandReloadConfig$220342 = -24			; size = 11
_lpObj$ = -12						; size = 4
_this$ = -8						; size = 4
__$ArrayPad$ = -4					; size = 4
_aIndex$ = 8						; size = 4
_Protocol$ = 12						; size = 4
?ChatData@cTvTEvent@@QAEXHPAE@Z PROC			; cTvTEvent::ChatData
; _this$ = ecx

; 481  : {

  01490	55		 push	 ebp
  01491	8b ec		 mov	 ebp, esp
  01493	83 ec 58	 sub	 esp, 88			; 00000058H
  01496	a1 00 00 00 00	 mov	 eax, DWORD PTR ___security_cookie
  0149b	33 c5		 xor	 eax, ebp
  0149d	89 45 fc	 mov	 DWORD PTR __$ArrayPad$[ebp], eax
  014a0	53		 push	 ebx
  014a1	56		 push	 esi
  014a2	57		 push	 edi
  014a3	89 4d f8	 mov	 DWORD PTR _this$[ebp], ecx

; 482  : 	LPOBJ lpObj = &gObj[aIndex];

  014a6	8b 45 08	 mov	 eax, DWORD PTR _aIndex$[ebp]
  014a9	69 c0 38 2b 00
	00		 imul	 eax, 11064		; 00002b38H
  014af	03 05 00 00 00
	00		 add	 eax, DWORD PTR ?gObj@@3PAUOBJECTSTRUCT@@A ; gObj
  014b5	89 45 f4	 mov	 DWORD PTR _lpObj$[ebp], eax

; 483  : 	if(lpObj->Authority == 8 || lpObj->Authority == 32)

  014b8	8b 45 f4	 mov	 eax, DWORD PTR _lpObj$[ebp]
  014bb	83 b8 0c 02 00
	00 08		 cmp	 DWORD PTR [eax+524], 8
  014c2	74 0c		 je	 SHORT $LN2@ChatData
  014c4	8b 45 f4	 mov	 eax, DWORD PTR _lpObj$[ebp]
  014c7	83 b8 0c 02 00
	00 20		 cmp	 DWORD PTR [eax+524], 32	; 00000020H
  014ce	75 50		 jne	 SHORT $LN4@ChatData
$LN2@ChatData:

; 484  : 	{
; 485  : 		char CommandReloadConfig[]	= "/reloadtvt";

  014d0	a1 00 00 00 00	 mov	 eax, DWORD PTR ??_C@_0L@MPIGLPBN@?1reloadtvt?$AA@
  014d5	89 45 e8	 mov	 DWORD PTR _CommandReloadConfig$220342[ebp], eax
  014d8	8b 0d 04 00 00
	00		 mov	 ecx, DWORD PTR ??_C@_0L@MPIGLPBN@?1reloadtvt?$AA@+4
  014de	89 4d ec	 mov	 DWORD PTR _CommandReloadConfig$220342[ebp+4], ecx
  014e1	66 8b 15 08 00
	00 00		 mov	 dx, WORD PTR ??_C@_0L@MPIGLPBN@?1reloadtvt?$AA@+8
  014e8	66 89 55 f0	 mov	 WORD PTR _CommandReloadConfig$220342[ebp+8], dx
  014ec	a0 0a 00 00 00	 mov	 al, BYTE PTR ??_C@_0L@MPIGLPBN@?1reloadtvt?$AA@+10
  014f1	88 45 f2	 mov	 BYTE PTR _CommandReloadConfig$220342[ebp+10], al

; 486  : 		if(!memcmp(&Protocol[13],CommandReloadConfig,strlen(CommandReloadConfig)))

  014f4	8d 45 e8	 lea	 eax, DWORD PTR _CommandReloadConfig$220342[ebp]
  014f7	50		 push	 eax
  014f8	e8 00 00 00 00	 call	 _strlen
  014fd	83 c4 04	 add	 esp, 4
  01500	50		 push	 eax
  01501	8d 4d e8	 lea	 ecx, DWORD PTR _CommandReloadConfig$220342[ebp]
  01504	51		 push	 ecx
  01505	8b 55 0c	 mov	 edx, DWORD PTR _Protocol$[ebp]
  01508	83 c2 0d	 add	 edx, 13			; 0000000dH
  0150b	52		 push	 edx
  0150c	e8 00 00 00 00	 call	 _memcmp
  01511	83 c4 0c	 add	 esp, 12			; 0000000cH
  01514	85 c0		 test	 eax, eax
  01516	75 08		 jne	 SHORT $LN4@ChatData

; 487  : 		{
; 488  : 			this->Load();

  01518	8b 4d f8	 mov	 ecx, DWORD PTR _this$[ebp]
  0151b	e8 00 00 00 00	 call	 ?Load@cTvTEvent@@QAEXXZ	; cTvTEvent::Load
$LN4@ChatData:

; 489  : 		}
; 490  : 	}
; 491  : }

  01520	5f		 pop	 edi
  01521	5e		 pop	 esi
  01522	5b		 pop	 ebx
  01523	8b 4d fc	 mov	 ecx, DWORD PTR __$ArrayPad$[ebp]
  01526	33 cd		 xor	 ecx, ebp
  01528	e8 00 00 00 00	 call	 @__security_check_cookie@4
  0152d	8b e5		 mov	 esp, ebp
  0152f	5d		 pop	 ebp
  01530	c2 08 00	 ret	 8
?ChatData@cTvTEvent@@QAEXHPAE@Z ENDP			; cTvTEvent::ChatData
_TEXT	ENDS
END
