; Listing generated by Microsoft (R) Optimizing Compiler Version 16.00.40219.01 

	TITLE	D:\Projects\ExTeam6.3\Source\GameServer\GameServer\UserConfig.cpp
	.686P
	.XMM
	include listing.inc
	.model	flat

INCLUDELIB LIBCMT
INCLUDELIB OLDNAMES

_DATA	SEGMENT
_g_iNpcUpDfLevel_CGATE DD 01H
	DD	02H
	DD	02dc6c0H
	DD	02H
	DD	03H
	DD	02dc6c0H
	DD	03H
	DD	04H
	DD	02dc6c0H
_g_iNpcUpDfLevel_CSTATUE DD 01H
	DD	03H
	DD	02dc6c0H
	DD	02H
	DD	05H
	DD	02dc6c0H
	DD	03H
	DD	07H
	DD	02dc6c0H
_g_iNpcUpMaxHP_CGATE DD 02625a0H
	DD	02H
	DD	0f4240H
	DD	03567e0H
	DD	03H
	DD	0f4240H
	DD	04f5880H
	DD	04H
	DD	0f4240H
_g_iNpcUpMaxHP_CSTATUE DD 02191c0H
	DD	03H
	DD	0f4240H
	DD	033e140H
	DD	05H
	DD	0f4240H
	DD	04c4b40H
	DD	07H
	DD	0f4240H
_g_iNpcUpRgLevel_CSTATUE DD 01H
	DD	03H
	DD	04c4b40H
	DD	02H
	DD	05H
	DD	04c4b40H
	DD	03H
	DD	07H
	DD	04c4b40H
_g_iCsUserReSpawnArea DD 023H
	DD	011H
	DD	090H
	DD	030H
	DD	04aH
	DD	090H
	DD	073H
	DD	09aH
	DD	023H
	DD	011H
	DD	090H
	DD	030H
_g_iNpcDefense_CGATE DD 064H
	DD	0b4H
	DD	012cH
	DD	0208H
_g_iNpcDefense_CSTATUE DD 050H
	DD	0b4H
	DD	0154H
	DD	0226H
_g_iCastleWallStepAxisY DD 071H
	DD	0a0H
	DD	0cbH
_DATA	ENDS
PUBLIC	??_H@YGXPAXIHP6EPAX0@Z@Z			; `vector constructor iterator'
; Function compile flags: /Odtp /ZI
;	COMDAT ??_H@YGXPAXIHP6EPAX0@Z@Z
_TEXT	SEGMENT
___t$ = 8						; size = 4
___s$ = 12						; size = 4
___n$ = 16						; size = 4
___f$ = 20						; size = 4
??_H@YGXPAXIHP6EPAX0@Z@Z PROC				; `vector constructor iterator', COMDAT
  00000	55		 push	 ebp
  00001	8b ec		 mov	 ebp, esp
  00003	83 ec 40	 sub	 esp, 64			; 00000040H
  00006	53		 push	 ebx
  00007	56		 push	 esi
  00008	57		 push	 edi
$LN2@vector:
  00009	8b 45 10	 mov	 eax, DWORD PTR ___n$[ebp]
  0000c	83 e8 01	 sub	 eax, 1
  0000f	89 45 10	 mov	 DWORD PTR ___n$[ebp], eax
  00012	78 11		 js	 SHORT $LN3@vector
  00014	8b 4d 08	 mov	 ecx, DWORD PTR ___t$[ebp]
  00017	ff 55 14	 call	 DWORD PTR ___f$[ebp]
  0001a	8b 45 08	 mov	 eax, DWORD PTR ___t$[ebp]
  0001d	03 45 0c	 add	 eax, DWORD PTR ___s$[ebp]
  00020	89 45 08	 mov	 DWORD PTR ___t$[ebp], eax
  00023	eb e4		 jmp	 SHORT $LN2@vector
$LN3@vector:
  00025	5f		 pop	 edi
  00026	5e		 pop	 esi
  00027	5b		 pop	 ebx
  00028	8b e5		 mov	 esp, ebp
  0002a	5d		 pop	 ebp
  0002b	c2 10 00	 ret	 16			; 00000010H
??_H@YGXPAXIHP6EPAX0@Z@Z ENDP				; `vector constructor iterator'
_TEXT	ENDS
PUBLIC	??0CUserConfig@@QAE@XZ				; CUserConfig::CUserConfig
; Function compile flags: /Odtp /ZI
; File d:\projects\exteam6.3\source\gameserver\gameserver\userconfig.cpp
_TEXT	SEGMENT
_this$ = -4						; size = 4
??0CUserConfig@@QAE@XZ PROC				; CUserConfig::CUserConfig
; _this$ = ecx

; 10   : {

  00000	55		 push	 ebp
  00001	8b ec		 mov	 ebp, esp
  00003	83 ec 44	 sub	 esp, 68			; 00000044H
  00006	53		 push	 ebx
  00007	56		 push	 esi
  00008	57		 push	 edi
  00009	89 4d fc	 mov	 DWORD PTR _this$[ebp], ecx

; 11   : }

  0000c	8b 45 fc	 mov	 eax, DWORD PTR _this$[ebp]
  0000f	5f		 pop	 edi
  00010	5e		 pop	 esi
  00011	5b		 pop	 ebx
  00012	8b e5		 mov	 esp, ebp
  00014	5d		 pop	 ebp
  00015	c3		 ret	 0
??0CUserConfig@@QAE@XZ ENDP				; CUserConfig::CUserConfig
_TEXT	ENDS
PUBLIC	??1CUserConfig@@QAE@XZ				; CUserConfig::~CUserConfig
; Function compile flags: /Odtp /ZI
_TEXT	SEGMENT
_this$ = -4						; size = 4
??1CUserConfig@@QAE@XZ PROC				; CUserConfig::~CUserConfig
; _this$ = ecx

; 14   : {

  00020	55		 push	 ebp
  00021	8b ec		 mov	 ebp, esp
  00023	83 ec 44	 sub	 esp, 68			; 00000044H
  00026	53		 push	 ebx
  00027	56		 push	 esi
  00028	57		 push	 edi
  00029	89 4d fc	 mov	 DWORD PTR _this$[ebp], ecx

; 15   : }

  0002c	5f		 pop	 edi
  0002d	5e		 pop	 esi
  0002e	5b		 pop	 ebx
  0002f	8b e5		 mov	 esp, ebp
  00031	5d		 pop	 ebp
  00032	c3		 ret	 0
??1CUserConfig@@QAE@XZ ENDP				; CUserConfig::~CUserConfig
_TEXT	ENDS
PUBLIC	?ReadEvoMU@CUserConfig@@QAEXPAD@Z		; CUserConfig::ReadEvoMU
PUBLIC	??_C@_0BG@ICGDNPLE@ExData?2User?2EvoMU?4ini?$AA@ ; `string'
PUBLIC	?ReadUsilevich@CUserConfig@@QAEXPAD@Z		; CUserConfig::ReadUsilevich
PUBLIC	??_C@_0BK@EPEKMHDL@ExData?2User?2Usilevich?4ini?$AA@ ; `string'
PUBLIC	?Load@CUserConfig@@QAEXXZ			; CUserConfig::Load
EXTRN	?GetNewPath@CDirPath@@QAEPADPAD@Z:PROC		; CDirPath::GetNewPath
EXTRN	?gDirPath@@3VCDirPath@@A:BYTE			; gDirPath
EXTRN	?CheckUser@CExLicense@@QAE_NH@Z:PROC		; CExLicense::CheckUser
EXTRN	?g_ExLicense@@3VCExLicense@@A:BYTE		; g_ExLicense
;	COMDAT ??_C@_0BG@ICGDNPLE@ExData?2User?2EvoMU?4ini?$AA@
CONST	SEGMENT
??_C@_0BG@ICGDNPLE@ExData?2User?2EvoMU?4ini?$AA@ DB 'ExData\User\EvoMU.in'
	DB	'i', 00H					; `string'
CONST	ENDS
;	COMDAT ??_C@_0BK@EPEKMHDL@ExData?2User?2Usilevich?4ini?$AA@
CONST	SEGMENT
??_C@_0BK@EPEKMHDL@ExData?2User?2Usilevich?4ini?$AA@ DB 'ExData\User\Usil'
	DB	'evich.ini', 00H				; `string'
; Function compile flags: /Odtp /ZI
CONST	ENDS
_TEXT	SEGMENT
_this$ = -4						; size = 4
?Load@CUserConfig@@QAEXXZ PROC				; CUserConfig::Load
; _this$ = ecx

; 18   : {

  00040	55		 push	 ebp
  00041	8b ec		 mov	 ebp, esp
  00043	83 ec 44	 sub	 esp, 68			; 00000044H
  00046	53		 push	 ebx
  00047	56		 push	 esi
  00048	57		 push	 edi
  00049	89 4d fc	 mov	 DWORD PTR _this$[ebp], ecx

; 19   : 	if(g_ExLicense.CheckUser(eExUB::ulasevich) || g_ExLicense.CheckUser(eExUB::ulasevich2))

  0004c	6a 17		 push	 23			; 00000017H
  0004e	b9 00 00 00 00	 mov	 ecx, OFFSET ?g_ExLicense@@3VCExLicense@@A ; g_ExLicense
  00053	e8 00 00 00 00	 call	 ?CheckUser@CExLicense@@QAE_NH@Z ; CExLicense::CheckUser
  00058	0f b6 c0	 movzx	 eax, al
  0005b	85 c0		 test	 eax, eax
  0005d	75 13		 jne	 SHORT $LN3@Load
  0005f	6a 24		 push	 36			; 00000024H
  00061	b9 00 00 00 00	 mov	 ecx, OFFSET ?g_ExLicense@@3VCExLicense@@A ; g_ExLicense
  00066	e8 00 00 00 00	 call	 ?CheckUser@CExLicense@@QAE_NH@Z ; CExLicense::CheckUser
  0006b	0f b6 c0	 movzx	 eax, al
  0006e	85 c0		 test	 eax, eax
  00070	74 18		 je	 SHORT $LN4@Load
$LN3@Load:

; 20   : 	{
; 21   : 		this->ReadUsilevich(gDirPath.GetNewPath("ExData\\User\\Usilevich.ini"));

  00072	68 00 00 00 00	 push	 OFFSET ??_C@_0BK@EPEKMHDL@ExData?2User?2Usilevich?4ini?$AA@
  00077	b9 00 00 00 00	 mov	 ecx, OFFSET ?gDirPath@@3VCDirPath@@A ; gDirPath
  0007c	e8 00 00 00 00	 call	 ?GetNewPath@CDirPath@@QAEPADPAD@Z ; CDirPath::GetNewPath
  00081	50		 push	 eax
  00082	8b 4d fc	 mov	 ecx, DWORD PTR _this$[ebp]
  00085	e8 00 00 00 00	 call	 ?ReadUsilevich@CUserConfig@@QAEXPAD@Z ; CUserConfig::ReadUsilevich
$LN4@Load:

; 22   : 	}
; 23   : 
; 24   : 	if(g_ExLicense.CheckUser(eExUB::Gredy) || g_ExLicense.CheckUser(eExUB::Gredy2) || g_ExLicense.CheckUser(eExUB::GredyLocal))

  0008a	6a 20		 push	 32			; 00000020H
  0008c	b9 00 00 00 00	 mov	 ecx, OFFSET ?g_ExLicense@@3VCExLicense@@A ; g_ExLicense
  00091	e8 00 00 00 00	 call	 ?CheckUser@CExLicense@@QAE_NH@Z ; CExLicense::CheckUser
  00096	0f b6 c0	 movzx	 eax, al
  00099	85 c0		 test	 eax, eax
  0009b	75 26		 jne	 SHORT $LN1@Load
  0009d	6a 22		 push	 34			; 00000022H
  0009f	b9 00 00 00 00	 mov	 ecx, OFFSET ?g_ExLicense@@3VCExLicense@@A ; g_ExLicense
  000a4	e8 00 00 00 00	 call	 ?CheckUser@CExLicense@@QAE_NH@Z ; CExLicense::CheckUser
  000a9	0f b6 c0	 movzx	 eax, al
  000ac	85 c0		 test	 eax, eax
  000ae	75 13		 jne	 SHORT $LN1@Load
  000b0	6a 21		 push	 33			; 00000021H
  000b2	b9 00 00 00 00	 mov	 ecx, OFFSET ?g_ExLicense@@3VCExLicense@@A ; g_ExLicense
  000b7	e8 00 00 00 00	 call	 ?CheckUser@CExLicense@@QAE_NH@Z ; CExLicense::CheckUser
  000bc	0f b6 c0	 movzx	 eax, al
  000bf	85 c0		 test	 eax, eax
  000c1	74 18		 je	 SHORT $LN5@Load
$LN1@Load:

; 25   : 	{
; 26   : 		this->ReadEvoMU(gDirPath.GetNewPath("ExData\\User\\EvoMU.ini"));

  000c3	68 00 00 00 00	 push	 OFFSET ??_C@_0BG@ICGDNPLE@ExData?2User?2EvoMU?4ini?$AA@
  000c8	b9 00 00 00 00	 mov	 ecx, OFFSET ?gDirPath@@3VCDirPath@@A ; gDirPath
  000cd	e8 00 00 00 00	 call	 ?GetNewPath@CDirPath@@QAEPADPAD@Z ; CDirPath::GetNewPath
  000d2	50		 push	 eax
  000d3	8b 4d fc	 mov	 ecx, DWORD PTR _this$[ebp]
  000d6	e8 00 00 00 00	 call	 ?ReadEvoMU@CUserConfig@@QAEXPAD@Z ; CUserConfig::ReadEvoMU
$LN5@Load:

; 27   : 	}
; 28   : }

  000db	5f		 pop	 edi
  000dc	5e		 pop	 esi
  000dd	5b		 pop	 ebx
  000de	8b e5		 mov	 esp, ebp
  000e0	5d		 pop	 ebp
  000e1	c3		 ret	 0
?Load@CUserConfig@@QAEXXZ ENDP				; CUserConfig::Load
_TEXT	ENDS
PUBLIC	?CheckNullNumber@CUserConfig@@QAEXAAH@Z		; CUserConfig::CheckNullNumber
; Function compile flags: /Odtp /ZI
_TEXT	SEGMENT
_this$ = -4						; size = 4
_number$ = 8						; size = 4
?CheckNullNumber@CUserConfig@@QAEXAAH@Z PROC		; CUserConfig::CheckNullNumber
; _this$ = ecx

; 31   : {

  000f0	55		 push	 ebp
  000f1	8b ec		 mov	 ebp, esp
  000f3	83 ec 44	 sub	 esp, 68			; 00000044H
  000f6	53		 push	 ebx
  000f7	56		 push	 esi
  000f8	57		 push	 edi
  000f9	89 4d fc	 mov	 DWORD PTR _this$[ebp], ecx

; 32   : 	if(number <= 0)

  000fc	8b 45 08	 mov	 eax, DWORD PTR _number$[ebp]
  000ff	83 38 00	 cmp	 DWORD PTR [eax], 0
  00102	7f 09		 jg	 SHORT $LN2@CheckNullN

; 33   : 	{
; 34   : 		number = 1;

  00104	8b 45 08	 mov	 eax, DWORD PTR _number$[ebp]
  00107	c7 00 01 00 00
	00		 mov	 DWORD PTR [eax], 1
$LN2@CheckNullN:

; 35   : 	}
; 36   : }

  0010d	5f		 pop	 edi
  0010e	5e		 pop	 esi
  0010f	5b		 pop	 ebx
  00110	8b e5		 mov	 esp, ebp
  00112	5d		 pop	 ebp
  00113	c2 04 00	 ret	 4
?CheckNullNumber@CUserConfig@@QAEXAAH@Z ENDP		; CUserConfig::CheckNullNumber
_TEXT	ENDS
PUBLIC	??_C@_0BB@BILCFCEK@DragonRoarEnergy?$AA@	; `string'
PUBLIC	??_C@_0BD@DAJCEDKK@ChainDriveVitality?$AA@	; `string'
PUBLIC	??_C@_06MLPMCPDE@ExTeam?$AA@			; `string'
PUBLIC	??_C@_0BA@GNEFAMBF@DarkSideAgility?$AA@		; `string'
EXTRN	__imp__GetPrivateProfileIntA@16:PROC
;	COMDAT ??_C@_0BB@BILCFCEK@DragonRoarEnergy?$AA@
CONST	SEGMENT
??_C@_0BB@BILCFCEK@DragonRoarEnergy?$AA@ DB 'DragonRoarEnergy', 00H ; `string'
CONST	ENDS
;	COMDAT ??_C@_0BD@DAJCEDKK@ChainDriveVitality?$AA@
CONST	SEGMENT
??_C@_0BD@DAJCEDKK@ChainDriveVitality?$AA@ DB 'ChainDriveVitality', 00H ; `string'
CONST	ENDS
;	COMDAT ??_C@_06MLPMCPDE@ExTeam?$AA@
CONST	SEGMENT
??_C@_06MLPMCPDE@ExTeam?$AA@ DB 'ExTeam', 00H		; `string'
CONST	ENDS
;	COMDAT ??_C@_0BA@GNEFAMBF@DarkSideAgility?$AA@
CONST	SEGMENT
??_C@_0BA@GNEFAMBF@DarkSideAgility?$AA@ DB 'DarkSideAgility', 00H ; `string'
; Function compile flags: /Odtp /ZI
CONST	ENDS
_TEXT	SEGMENT
_this$ = -4						; size = 4
_filename$ = 8						; size = 4
?ReadUsilevich@CUserConfig@@QAEXPAD@Z PROC		; CUserConfig::ReadUsilevich
; _this$ = ecx

; 39   : {

  00120	55		 push	 ebp
  00121	8b ec		 mov	 ebp, esp
  00123	83 ec 44	 sub	 esp, 68			; 00000044H
  00126	53		 push	 ebx
  00127	56		 push	 esi
  00128	57		 push	 edi
  00129	89 4d fc	 mov	 DWORD PTR _this$[ebp], ecx

; 40   : 	this->m_Usilevich.DarkSideAgility = GetPrivateProfileInt("ExTeam", "DarkSideAgility", 10, filename);

  0012c	8b 45 08	 mov	 eax, DWORD PTR _filename$[ebp]
  0012f	50		 push	 eax
  00130	6a 0a		 push	 10			; 0000000aH
  00132	68 00 00 00 00	 push	 OFFSET ??_C@_0BA@GNEFAMBF@DarkSideAgility?$AA@
  00137	68 00 00 00 00	 push	 OFFSET ??_C@_06MLPMCPDE@ExTeam?$AA@
  0013c	ff 15 00 00 00
	00		 call	 DWORD PTR __imp__GetPrivateProfileIntA@16
  00142	8b 4d fc	 mov	 ecx, DWORD PTR _this$[ebp]
  00145	89 01		 mov	 DWORD PTR [ecx], eax

; 41   : 	this->m_Usilevich.ChainDriveVitality = GetPrivateProfileInt("ExTeam", "ChainDriveVitality", 8, filename);

  00147	8b 45 08	 mov	 eax, DWORD PTR _filename$[ebp]
  0014a	50		 push	 eax
  0014b	6a 08		 push	 8
  0014d	68 00 00 00 00	 push	 OFFSET ??_C@_0BD@DAJCEDKK@ChainDriveVitality?$AA@
  00152	68 00 00 00 00	 push	 OFFSET ??_C@_06MLPMCPDE@ExTeam?$AA@
  00157	ff 15 00 00 00
	00		 call	 DWORD PTR __imp__GetPrivateProfileIntA@16
  0015d	8b 4d fc	 mov	 ecx, DWORD PTR _this$[ebp]
  00160	89 41 04	 mov	 DWORD PTR [ecx+4], eax

; 42   : 	this->m_Usilevich.DragonRoarEnergy = GetPrivateProfileInt("ExTeam", "DragonRoarEnergy", 10, filename);

  00163	8b 45 08	 mov	 eax, DWORD PTR _filename$[ebp]
  00166	50		 push	 eax
  00167	6a 0a		 push	 10			; 0000000aH
  00169	68 00 00 00 00	 push	 OFFSET ??_C@_0BB@BILCFCEK@DragonRoarEnergy?$AA@
  0016e	68 00 00 00 00	 push	 OFFSET ??_C@_06MLPMCPDE@ExTeam?$AA@
  00173	ff 15 00 00 00
	00		 call	 DWORD PTR __imp__GetPrivateProfileIntA@16
  00179	8b 4d fc	 mov	 ecx, DWORD PTR _this$[ebp]
  0017c	89 41 08	 mov	 DWORD PTR [ecx+8], eax

; 43   : 
; 44   : 	this->CheckNullNumber(this->m_Usilevich.DarkSideAgility);

  0017f	8b 45 fc	 mov	 eax, DWORD PTR _this$[ebp]
  00182	50		 push	 eax
  00183	8b 4d fc	 mov	 ecx, DWORD PTR _this$[ebp]
  00186	e8 00 00 00 00	 call	 ?CheckNullNumber@CUserConfig@@QAEXAAH@Z ; CUserConfig::CheckNullNumber

; 45   : 	this->CheckNullNumber(this->m_Usilevich.ChainDriveVitality);

  0018b	8b 45 fc	 mov	 eax, DWORD PTR _this$[ebp]
  0018e	83 c0 04	 add	 eax, 4
  00191	50		 push	 eax
  00192	8b 4d fc	 mov	 ecx, DWORD PTR _this$[ebp]
  00195	e8 00 00 00 00	 call	 ?CheckNullNumber@CUserConfig@@QAEXAAH@Z ; CUserConfig::CheckNullNumber

; 46   : 	this->CheckNullNumber(this->m_Usilevich.DragonRoarEnergy);

  0019a	8b 45 fc	 mov	 eax, DWORD PTR _this$[ebp]
  0019d	83 c0 08	 add	 eax, 8
  001a0	50		 push	 eax
  001a1	8b 4d fc	 mov	 ecx, DWORD PTR _this$[ebp]
  001a4	e8 00 00 00 00	 call	 ?CheckNullNumber@CUserConfig@@QAEXAAH@Z ; CUserConfig::CheckNullNumber

; 47   : }

  001a9	5f		 pop	 edi
  001aa	5e		 pop	 esi
  001ab	5b		 pop	 ebx
  001ac	8b e5		 mov	 esp, ebp
  001ae	5d		 pop	 ebp
  001af	c2 04 00	 ret	 4
?ReadUsilevich@CUserConfig@@QAEXPAD@Z ENDP		; CUserConfig::ReadUsilevich
_TEXT	ENDS
PUBLIC	??_C@_0O@KILKOEBK@HPAutoClicker?$AA@		; `string'
PUBLIC	??_C@_0BA@BBLBIOFM@PvpMap400LvlTpY?$AA@		; `string'
PUBLIC	??_C@_0BA@IKKLPBN@PvpMap400LvlTpX?$AA@		; `string'
PUBLIC	??_C@_0BC@KFFPLFOH@PvpMap400LvlTpMap?$AA@	; `string'
PUBLIC	??_C@_0BF@LPPLIOCO@PvpMap400LvlTpActive?$AA@	; `string'
PUBLIC	??_C@_0P@HAGCNCBG@CSRegTimeMinus?$AA@		; `string'
PUBLIC	??_C@_0O@JDNALABK@CSRegTimeNeed?$AA@		; `string'
;	COMDAT ??_C@_0O@KILKOEBK@HPAutoClicker?$AA@
CONST	SEGMENT
??_C@_0O@KILKOEBK@HPAutoClicker?$AA@ DB 'HPAutoClicker', 00H ; `string'
CONST	ENDS
;	COMDAT ??_C@_0BA@BBLBIOFM@PvpMap400LvlTpY?$AA@
CONST	SEGMENT
??_C@_0BA@BBLBIOFM@PvpMap400LvlTpY?$AA@ DB 'PvpMap400LvlTpY', 00H ; `string'
CONST	ENDS
;	COMDAT ??_C@_0BA@IKKLPBN@PvpMap400LvlTpX?$AA@
CONST	SEGMENT
??_C@_0BA@IKKLPBN@PvpMap400LvlTpX?$AA@ DB 'PvpMap400LvlTpX', 00H ; `string'
CONST	ENDS
;	COMDAT ??_C@_0BC@KFFPLFOH@PvpMap400LvlTpMap?$AA@
CONST	SEGMENT
??_C@_0BC@KFFPLFOH@PvpMap400LvlTpMap?$AA@ DB 'PvpMap400LvlTpMap', 00H ; `string'
CONST	ENDS
;	COMDAT ??_C@_0BF@LPPLIOCO@PvpMap400LvlTpActive?$AA@
CONST	SEGMENT
??_C@_0BF@LPPLIOCO@PvpMap400LvlTpActive?$AA@ DB 'PvpMap400LvlTpActive', 00H ; `string'
CONST	ENDS
;	COMDAT ??_C@_0P@HAGCNCBG@CSRegTimeMinus?$AA@
CONST	SEGMENT
??_C@_0P@HAGCNCBG@CSRegTimeMinus?$AA@ DB 'CSRegTimeMinus', 00H ; `string'
CONST	ENDS
;	COMDAT ??_C@_0O@JDNALABK@CSRegTimeNeed?$AA@
CONST	SEGMENT
??_C@_0O@JDNALABK@CSRegTimeNeed?$AA@ DB 'CSRegTimeNeed', 00H ; `string'
; Function compile flags: /Odtp /ZI
CONST	ENDS
_TEXT	SEGMENT
_this$ = -4						; size = 4
_filename$ = 8						; size = 4
?ReadEvoMU@CUserConfig@@QAEXPAD@Z PROC			; CUserConfig::ReadEvoMU
; _this$ = ecx

; 50   : {

  001c0	55		 push	 ebp
  001c1	8b ec		 mov	 ebp, esp
  001c3	83 ec 44	 sub	 esp, 68			; 00000044H
  001c6	53		 push	 ebx
  001c7	56		 push	 esi
  001c8	57		 push	 edi
  001c9	89 4d fc	 mov	 DWORD PTR _this$[ebp], ecx

; 51   : 	this->m_EvoMU.CSRegTimeNeed = GetPrivateProfileInt("ExTeam", "CSRegTimeNeed", 40000, filename);

  001cc	8b 45 08	 mov	 eax, DWORD PTR _filename$[ebp]
  001cf	50		 push	 eax
  001d0	68 40 9c 00 00	 push	 40000			; 00009c40H
  001d5	68 00 00 00 00	 push	 OFFSET ??_C@_0O@JDNALABK@CSRegTimeNeed?$AA@
  001da	68 00 00 00 00	 push	 OFFSET ??_C@_06MLPMCPDE@ExTeam?$AA@
  001df	ff 15 00 00 00
	00		 call	 DWORD PTR __imp__GetPrivateProfileIntA@16
  001e5	8b 4d fc	 mov	 ecx, DWORD PTR _this$[ebp]
  001e8	89 41 0c	 mov	 DWORD PTR [ecx+12], eax

; 52   : 	this->m_EvoMU.CSRegTimeMinus = GetPrivateProfileInt("ExTeam", "CSRegTimeMinus", 4000, filename);

  001eb	8b 45 08	 mov	 eax, DWORD PTR _filename$[ebp]
  001ee	50		 push	 eax
  001ef	68 a0 0f 00 00	 push	 4000			; 00000fa0H
  001f4	68 00 00 00 00	 push	 OFFSET ??_C@_0P@HAGCNCBG@CSRegTimeMinus?$AA@
  001f9	68 00 00 00 00	 push	 OFFSET ??_C@_06MLPMCPDE@ExTeam?$AA@
  001fe	ff 15 00 00 00
	00		 call	 DWORD PTR __imp__GetPrivateProfileIntA@16
  00204	8b 4d fc	 mov	 ecx, DWORD PTR _this$[ebp]
  00207	89 41 10	 mov	 DWORD PTR [ecx+16], eax

; 53   : 	this->m_EvoMU.PvpMap400LvlTpActive = GetPrivateProfileInt("ExTeam", "PvpMap400LvlTpActive", 0, filename);

  0020a	8b 45 08	 mov	 eax, DWORD PTR _filename$[ebp]
  0020d	50		 push	 eax
  0020e	6a 00		 push	 0
  00210	68 00 00 00 00	 push	 OFFSET ??_C@_0BF@LPPLIOCO@PvpMap400LvlTpActive?$AA@
  00215	68 00 00 00 00	 push	 OFFSET ??_C@_06MLPMCPDE@ExTeam?$AA@
  0021a	ff 15 00 00 00
	00		 call	 DWORD PTR __imp__GetPrivateProfileIntA@16
  00220	8b 4d fc	 mov	 ecx, DWORD PTR _this$[ebp]
  00223	89 41 14	 mov	 DWORD PTR [ecx+20], eax

; 54   : 	this->m_EvoMU.PvpMap400LvlTpMap = GetPrivateProfileInt("ExTeam", "PvpMap400LvlTpMap", 0, filename);

  00226	8b 45 08	 mov	 eax, DWORD PTR _filename$[ebp]
  00229	50		 push	 eax
  0022a	6a 00		 push	 0
  0022c	68 00 00 00 00	 push	 OFFSET ??_C@_0BC@KFFPLFOH@PvpMap400LvlTpMap?$AA@
  00231	68 00 00 00 00	 push	 OFFSET ??_C@_06MLPMCPDE@ExTeam?$AA@
  00236	ff 15 00 00 00
	00		 call	 DWORD PTR __imp__GetPrivateProfileIntA@16
  0023c	8b 4d fc	 mov	 ecx, DWORD PTR _this$[ebp]
  0023f	89 41 18	 mov	 DWORD PTR [ecx+24], eax

; 55   : 	this->m_EvoMU.PvpMap400LvlTpX = GetPrivateProfileInt("ExTeam", "PvpMap400LvlTpX", 0, filename);

  00242	8b 45 08	 mov	 eax, DWORD PTR _filename$[ebp]
  00245	50		 push	 eax
  00246	6a 00		 push	 0
  00248	68 00 00 00 00	 push	 OFFSET ??_C@_0BA@IKKLPBN@PvpMap400LvlTpX?$AA@
  0024d	68 00 00 00 00	 push	 OFFSET ??_C@_06MLPMCPDE@ExTeam?$AA@
  00252	ff 15 00 00 00
	00		 call	 DWORD PTR __imp__GetPrivateProfileIntA@16
  00258	8b 4d fc	 mov	 ecx, DWORD PTR _this$[ebp]
  0025b	89 41 1c	 mov	 DWORD PTR [ecx+28], eax

; 56   : 	this->m_EvoMU.PvpMap400LvlTpY = GetPrivateProfileInt("ExTeam", "PvpMap400LvlTpY", 0, filename);

  0025e	8b 45 08	 mov	 eax, DWORD PTR _filename$[ebp]
  00261	50		 push	 eax
  00262	6a 00		 push	 0
  00264	68 00 00 00 00	 push	 OFFSET ??_C@_0BA@BBLBIOFM@PvpMap400LvlTpY?$AA@
  00269	68 00 00 00 00	 push	 OFFSET ??_C@_06MLPMCPDE@ExTeam?$AA@
  0026e	ff 15 00 00 00
	00		 call	 DWORD PTR __imp__GetPrivateProfileIntA@16
  00274	8b 4d fc	 mov	 ecx, DWORD PTR _this$[ebp]
  00277	89 41 20	 mov	 DWORD PTR [ecx+32], eax

; 57   : 	this->m_EvoMU.HPAutoClicker = GetPrivateProfileInt("ExTeam", "HPAutoClicker", 0, filename);

  0027a	8b 45 08	 mov	 eax, DWORD PTR _filename$[ebp]
  0027d	50		 push	 eax
  0027e	6a 00		 push	 0
  00280	68 00 00 00 00	 push	 OFFSET ??_C@_0O@KILKOEBK@HPAutoClicker?$AA@
  00285	68 00 00 00 00	 push	 OFFSET ??_C@_06MLPMCPDE@ExTeam?$AA@
  0028a	ff 15 00 00 00
	00		 call	 DWORD PTR __imp__GetPrivateProfileIntA@16
  00290	8b 4d fc	 mov	 ecx, DWORD PTR _this$[ebp]
  00293	89 41 24	 mov	 DWORD PTR [ecx+36], eax

; 58   : }

  00296	5f		 pop	 edi
  00297	5e		 pop	 esi
  00298	5b		 pop	 ebx
  00299	8b e5		 mov	 esp, ebp
  0029b	5d		 pop	 ebp
  0029c	c2 04 00	 ret	 4
?ReadEvoMU@CUserConfig@@QAEXPAD@Z ENDP			; CUserConfig::ReadEvoMU
_TEXT	ENDS
PUBLIC	?set@PBMSG_HEAD2@@QAEXPAEEEE@Z			; PBMSG_HEAD2::set
PUBLIC	__$ArrayPad$
PUBLIC	?GC_SettingsSend@CUserConfig@@QAEXH@Z		; CUserConfig::GC_SettingsSend
EXTRN	?DataSend@@YAHHPAEK@Z:PROC			; DataSend
EXTRN	_memcpy:PROC
EXTRN	___security_cookie:DWORD
EXTRN	@__security_check_cookie@4:PROC
; Function compile flags: /Odtp /ZI
_TEXT	SEGMENT
tv67 = -108						; size = 4
_pMsg$ = -40						; size = 32
_this$ = -8						; size = 4
__$ArrayPad$ = -4					; size = 4
_aIndex$ = 8						; size = 4
?GC_SettingsSend@CUserConfig@@QAEXH@Z PROC		; CUserConfig::GC_SettingsSend
; _this$ = ecx

; 61   : {

  002a0	55		 push	 ebp
  002a1	8b ec		 mov	 ebp, esp
  002a3	83 ec 6c	 sub	 esp, 108		; 0000006cH
  002a6	a1 00 00 00 00	 mov	 eax, DWORD PTR ___security_cookie
  002ab	33 c5		 xor	 eax, ebp
  002ad	89 45 fc	 mov	 DWORD PTR __$ArrayPad$[ebp], eax
  002b0	53		 push	 ebx
  002b1	56		 push	 esi
  002b2	57		 push	 edi
  002b3	89 4d f8	 mov	 DWORD PTR _this$[ebp], ecx

; 62   : 	if(!OBJMAX_RANGE(aIndex))

  002b6	83 7d 08 00	 cmp	 DWORD PTR _aIndex$[ebp], 0
  002ba	7d 09		 jge	 SHORT $LN4@GC_Setting
  002bc	c7 45 94 00 00
	00 00		 mov	 DWORD PTR tv67[ebp], 0
  002c3	eb 0f		 jmp	 SHORT $LN5@GC_Setting
$LN4@GC_Setting:
  002c5	33 c0		 xor	 eax, eax
  002c7	81 7d 08 97 3a
	00 00		 cmp	 DWORD PTR _aIndex$[ebp], 14999 ; 00003a97H
  002ce	0f 9e c0	 setle	 al
  002d1	89 45 94	 mov	 DWORD PTR tv67[ebp], eax
$LN5@GC_Setting:
  002d4	83 7d 94 00	 cmp	 DWORD PTR tv67[ebp], 0
  002d8	75 02		 jne	 SHORT $LN1@GC_Setting

; 63   : 	{
; 64   : 		return;

  002da	eb 42		 jmp	 SHORT $LN2@GC_Setting
$LN1@GC_Setting:

; 65   : 	}
; 66   : 
; 67   : 	PMSG_USERCONFIG pMsg;
; 68   : 	pMsg.h.set((LPBYTE)&pMsg, 0xFB, 0xC0, sizeof(pMsg));

  002dc	6a 20		 push	 32			; 00000020H
  002de	68 c0 00 00 00	 push	 192			; 000000c0H
  002e3	68 fb 00 00 00	 push	 251			; 000000fbH
  002e8	8d 45 d8	 lea	 eax, DWORD PTR _pMsg$[ebp]
  002eb	50		 push	 eax
  002ec	8d 4d d8	 lea	 ecx, DWORD PTR _pMsg$[ebp]
  002ef	e8 00 00 00 00	 call	 ?set@PBMSG_HEAD2@@QAEXPAEEEE@Z ; PBMSG_HEAD2::set

; 69   : 	memcpy(&pMsg.EvoConfig, &this->m_EvoMU, sizeof(pMsg.EvoConfig));

  002f4	6a 1c		 push	 28			; 0000001cH
  002f6	8b 45 f8	 mov	 eax, DWORD PTR _this$[ebp]
  002f9	83 c0 0c	 add	 eax, 12			; 0000000cH
  002fc	50		 push	 eax
  002fd	8d 4d dc	 lea	 ecx, DWORD PTR _pMsg$[ebp+4]
  00300	51		 push	 ecx
  00301	e8 00 00 00 00	 call	 _memcpy
  00306	83 c4 0c	 add	 esp, 12			; 0000000cH

; 70   : 	DataSend(aIndex, (LPBYTE)&pMsg, pMsg.h.size);

  00309	0f b6 45 d9	 movzx	 eax, BYTE PTR _pMsg$[ebp+1]
  0030d	50		 push	 eax
  0030e	8d 4d d8	 lea	 ecx, DWORD PTR _pMsg$[ebp]
  00311	51		 push	 ecx
  00312	8b 55 08	 mov	 edx, DWORD PTR _aIndex$[ebp]
  00315	52		 push	 edx
  00316	e8 00 00 00 00	 call	 ?DataSend@@YAHHPAEK@Z	; DataSend
  0031b	83 c4 0c	 add	 esp, 12			; 0000000cH
$LN2@GC_Setting:

; 71   : }

  0031e	5f		 pop	 edi
  0031f	5e		 pop	 esi
  00320	5b		 pop	 ebx
  00321	8b 4d fc	 mov	 ecx, DWORD PTR __$ArrayPad$[ebp]
  00324	33 cd		 xor	 ecx, ebp
  00326	e8 00 00 00 00	 call	 @__security_check_cookie@4
  0032b	8b e5		 mov	 esp, ebp
  0032d	5d		 pop	 ebp
  0032e	c2 04 00	 ret	 4
?GC_SettingsSend@CUserConfig@@QAEXH@Z ENDP		; CUserConfig::GC_SettingsSend
; Function compile flags: /Odtp /ZI
; File d:\projects\exteam6.3\source\gameserver\include\prodef.h
_TEXT	ENDS
;	COMDAT ?set@PBMSG_HEAD2@@QAEXPAEEEE@Z
_TEXT	SEGMENT
_this$ = -4						; size = 4
_lpBuf$ = 8						; size = 4
_head$ = 12						; size = 1
_sub$ = 16						; size = 1
_size$ = 20						; size = 1
?set@PBMSG_HEAD2@@QAEXPAEEEE@Z PROC			; PBMSG_HEAD2::set, COMDAT
; _this$ = ecx

; 104  : 	{

  00000	55		 push	 ebp
  00001	8b ec		 mov	 ebp, esp
  00003	83 ec 44	 sub	 esp, 68			; 00000044H
  00006	53		 push	 ebx
  00007	56		 push	 esi
  00008	57		 push	 edi
  00009	89 4d fc	 mov	 DWORD PTR _this$[ebp], ecx

; 105  : 		lpBuf[0] = 0xC1;

  0000c	8b 45 08	 mov	 eax, DWORD PTR _lpBuf$[ebp]
  0000f	c6 00 c1	 mov	 BYTE PTR [eax], 193	; 000000c1H

; 106  : 		lpBuf[1] = size;

  00012	8b 45 08	 mov	 eax, DWORD PTR _lpBuf$[ebp]
  00015	8a 4d 14	 mov	 cl, BYTE PTR _size$[ebp]
  00018	88 48 01	 mov	 BYTE PTR [eax+1], cl

; 107  : 		lpBuf[2] = head;

  0001b	8b 45 08	 mov	 eax, DWORD PTR _lpBuf$[ebp]
  0001e	8a 4d 0c	 mov	 cl, BYTE PTR _head$[ebp]
  00021	88 48 02	 mov	 BYTE PTR [eax+2], cl

; 108  : 		lpBuf[3] = sub;

  00024	8b 45 08	 mov	 eax, DWORD PTR _lpBuf$[ebp]
  00027	8a 4d 10	 mov	 cl, BYTE PTR _sub$[ebp]
  0002a	88 48 03	 mov	 BYTE PTR [eax+3], cl

; 109  : 	};

  0002d	5f		 pop	 edi
  0002e	5e		 pop	 esi
  0002f	5b		 pop	 ebx
  00030	8b e5		 mov	 esp, ebp
  00032	5d		 pop	 ebp
  00033	c2 10 00	 ret	 16			; 00000010H
?set@PBMSG_HEAD2@@QAEXPAEEEE@Z ENDP			; PBMSG_HEAD2::set
_TEXT	ENDS
EXTRN	_atexit:PROC
; Function compile flags: /Odtp /ZI
; File d:\projects\exteam6.3\source\gameserver\gameserver\userconfig.cpp
;	COMDAT ??__Eg_UserConfig@@YAXXZ
text$yc	SEGMENT
??__Eg_UserConfig@@YAXXZ PROC				; `dynamic initializer for 'g_UserConfig'', COMDAT

; 7    : CUserConfig g_UserConfig;

  00000	55		 push	 ebp
  00001	8b ec		 mov	 ebp, esp
  00003	83 ec 40	 sub	 esp, 64			; 00000040H
  00006	53		 push	 ebx
  00007	56		 push	 esi
  00008	57		 push	 edi
  00009	b9 00 00 00 00	 mov	 ecx, OFFSET ?g_UserConfig@@3VCUserConfig@@A ; g_UserConfig
  0000e	e8 00 00 00 00	 call	 ??0CUserConfig@@QAE@XZ	; CUserConfig::CUserConfig
  00013	68 00 00 00 00	 push	 OFFSET ??__Fg_UserConfig@@YAXXZ ; `dynamic atexit destructor for 'g_UserConfig''
  00018	e8 00 00 00 00	 call	 _atexit
  0001d	83 c4 04	 add	 esp, 4
  00020	5f		 pop	 edi
  00021	5e		 pop	 esi
  00022	5b		 pop	 ebx
  00023	8b e5		 mov	 esp, ebp
  00025	5d		 pop	 ebp
  00026	c3		 ret	 0
??__Eg_UserConfig@@YAXXZ ENDP				; `dynamic initializer for 'g_UserConfig''
; Function compile flags: /Odtp /ZI
text$yc	ENDS
;	COMDAT ??__Fg_UserConfig@@YAXXZ
text$yd	SEGMENT
??__Fg_UserConfig@@YAXXZ PROC				; `dynamic atexit destructor for 'g_UserConfig'', COMDAT
  00000	55		 push	 ebp
  00001	8b ec		 mov	 ebp, esp
  00003	83 ec 40	 sub	 esp, 64			; 00000040H
  00006	53		 push	 ebx
  00007	56		 push	 esi
  00008	57		 push	 edi
  00009	b9 00 00 00 00	 mov	 ecx, OFFSET ?g_UserConfig@@3VCUserConfig@@A ; g_UserConfig
  0000e	e8 00 00 00 00	 call	 ??1CUserConfig@@QAE@XZ	; CUserConfig::~CUserConfig
  00013	5f		 pop	 edi
  00014	5e		 pop	 esi
  00015	5b		 pop	 ebx
  00016	8b e5		 mov	 esp, ebp
  00018	5d		 pop	 ebp
  00019	c3		 ret	 0
??__Fg_UserConfig@@YAXXZ ENDP				; `dynamic atexit destructor for 'g_UserConfig''
text$yd	ENDS
PUBLIC	?g_UserConfig@@3VCUserConfig@@A			; g_UserConfig
_BSS	SEGMENT
?g_UserConfig@@3VCUserConfig@@A DB 028H DUP (?)		; g_UserConfig
_BSS	ENDS
CRT$XCU	SEGMENT
_g_UserConfig$initializer$ DD FLAT:??__Eg_UserConfig@@YAXXZ
CRT$XCU	ENDS
END
