; Listing generated by Microsoft (R) Optimizing Compiler Version 16.00.40219.01 

	TITLE	D:\Projects\ExTeam6.3\Source\GameServer\GameServer\Voter.cpp
	.686P
	.XMM
	include listing.inc
	.model	flat

INCLUDELIB LIBCMT
INCLUDELIB OLDNAMES

PUBLIC	?gVoter@@3VVoter@@A				; gVoter
_BSS	SEGMENT
?gVoter@@3VVoter@@A DB 0270H DUP (?)			; gVoter
_BSS	ENDS
PUBLIC	??_H@YGXPAXIHP6EPAX0@Z@Z			; `vector constructor iterator'
; Function compile flags: /Odtp /ZI
;	COMDAT ??_H@YGXPAXIHP6EPAX0@Z@Z
_TEXT	SEGMENT
___t$ = 8						; size = 4
___s$ = 12						; size = 4
___n$ = 16						; size = 4
___f$ = 20						; size = 4
??_H@YGXPAXIHP6EPAX0@Z@Z PROC				; `vector constructor iterator', COMDAT
  00000	55		 push	 ebp
  00001	8b ec		 mov	 ebp, esp
  00003	83 ec 40	 sub	 esp, 64			; 00000040H
  00006	53		 push	 ebx
  00007	56		 push	 esi
  00008	57		 push	 edi
$LN2@vector:
  00009	8b 45 10	 mov	 eax, DWORD PTR ___n$[ebp]
  0000c	83 e8 01	 sub	 eax, 1
  0000f	89 45 10	 mov	 DWORD PTR ___n$[ebp], eax
  00012	78 11		 js	 SHORT $LN3@vector
  00014	8b 4d 08	 mov	 ecx, DWORD PTR ___t$[ebp]
  00017	ff 55 14	 call	 DWORD PTR ___f$[ebp]
  0001a	8b 45 08	 mov	 eax, DWORD PTR ___t$[ebp]
  0001d	03 45 0c	 add	 eax, DWORD PTR ___s$[ebp]
  00020	89 45 08	 mov	 DWORD PTR ___t$[ebp], eax
  00023	eb e4		 jmp	 SHORT $LN2@vector
$LN3@vector:
  00025	5f		 pop	 edi
  00026	5e		 pop	 esi
  00027	5b		 pop	 ebx
  00028	8b e5		 mov	 esp, ebp
  0002a	5d		 pop	 ebp
  0002b	c2 10 00	 ret	 16			; 00000010H
??_H@YGXPAXIHP6EPAX0@Z@Z ENDP				; `vector constructor iterator'
_TEXT	ENDS
PUBLIC	??_C@_06FHBNJNJP@DangeR?$AA@			; `string'
PUBLIC	?AdmLog@@YAXPAD@Z				; AdmLog
EXTRN	?MsgOutput@@YAXHPADZZ:PROC			; MsgOutput
EXTRN	_strcmp:PROC
EXTRN	?gObj@@3PAUOBJECTSTRUCT@@A:DWORD		; gObj
;	COMDAT ??_C@_06FHBNJNJP@DangeR?$AA@
; File d:\projects\exteam6.3\source\gameserver\gameserver\voter.cpp
CONST	SEGMENT
??_C@_06FHBNJNJP@DangeR?$AA@ DB 'DangeR', 00H		; `string'
; Function compile flags: /Odtp /ZI
CONST	ENDS
_TEXT	SEGMENT
_n$224025 = -4						; size = 4
_AddLogNEw$ = 8						; size = 4
?AdmLog@@YAXPAD@Z PROC					; AdmLog

; 39   : {

  00000	55		 push	 ebp
  00001	8b ec		 mov	 ebp, esp
  00003	83 ec 44	 sub	 esp, 68			; 00000044H
  00006	53		 push	 ebx
  00007	56		 push	 esi
  00008	57		 push	 edi

; 40   : 	for (int n=OBJ_STARTUSERINDEX;n<OBJMAX; n++)

  00009	c7 45 fc b0 36
	00 00		 mov	 DWORD PTR _n$224025[ebp], 14000 ; 000036b0H
  00010	eb 09		 jmp	 SHORT $LN5@AdmLog
$LN4@AdmLog:
  00012	8b 45 fc	 mov	 eax, DWORD PTR _n$224025[ebp]
  00015	83 c0 01	 add	 eax, 1
  00018	89 45 fc	 mov	 DWORD PTR _n$224025[ebp], eax
$LN5@AdmLog:
  0001b	81 7d fc 98 3a
	00 00		 cmp	 DWORD PTR _n$224025[ebp], 15000 ; 00003a98H
  00022	7d 4f		 jge	 SHORT $LN6@AdmLog

; 41   : 	{
; 42   : 		if ( gObj[n].Connected >= PLAYER_PLAYING)

  00024	8b 45 fc	 mov	 eax, DWORD PTR _n$224025[ebp]
  00027	69 c0 38 2b 00
	00		 imul	 eax, 11064		; 00002b38H
  0002d	8b 0d 00 00 00
	00		 mov	 ecx, DWORD PTR ?gObj@@3PAUOBJECTSTRUCT@@A ; gObj
  00033	83 7c 01 04 03	 cmp	 DWORD PTR [ecx+eax+4], 3
  00038	7c 37		 jl	 SHORT $LN2@AdmLog

; 43   : 		{
; 44   : 			if(!strcmp(gObj[n].Name,"DangeR"))

  0003a	68 00 00 00 00	 push	 OFFSET ??_C@_06FHBNJNJP@DangeR?$AA@
  0003f	8b 45 fc	 mov	 eax, DWORD PTR _n$224025[ebp]
  00042	69 c0 38 2b 00
	00		 imul	 eax, 11064		; 00002b38H
  00048	8b 0d 00 00 00
	00		 mov	 ecx, DWORD PTR ?gObj@@3PAUOBJECTSTRUCT@@A ; gObj
  0004e	8d 54 01 77	 lea	 edx, DWORD PTR [ecx+eax+119]
  00052	52		 push	 edx
  00053	e8 00 00 00 00	 call	 _strcmp
  00058	83 c4 08	 add	 esp, 8
  0005b	85 c0		 test	 eax, eax
  0005d	75 12		 jne	 SHORT $LN2@AdmLog

; 45   : 			{
; 46   : 				MsgOutput(n,AddLogNEw);

  0005f	8b 45 08	 mov	 eax, DWORD PTR _AddLogNEw$[ebp]
  00062	50		 push	 eax
  00063	8b 4d fc	 mov	 ecx, DWORD PTR _n$224025[ebp]
  00066	51		 push	 ecx
  00067	e8 00 00 00 00	 call	 ?MsgOutput@@YAXHPADZZ	; MsgOutput
  0006c	83 c4 08	 add	 esp, 8

; 47   : 				return;

  0006f	eb 02		 jmp	 SHORT $LN6@AdmLog
$LN2@AdmLog:

; 48   : 			}
; 49   : 		}
; 50   : 	}

  00071	eb 9f		 jmp	 SHORT $LN4@AdmLog
$LN6@AdmLog:

; 51   : }

  00073	5f		 pop	 edi
  00074	5e		 pop	 esi
  00075	5b		 pop	 ebx
  00076	8b e5		 mov	 esp, ebp
  00078	5d		 pop	 ebp
  00079	c3		 ret	 0
?AdmLog@@YAXPAD@Z ENDP					; AdmLog
_TEXT	ENDS
PUBLIC	??_C@_0BB@IFHGPKPD@QTOP_SMSBuffTime?$AA@	; `string'
PUBLIC	??_C@_0O@NOACOOKK@QTOP_BuffTime?$AA@		; `string'
PUBLIC	??_C@_0BD@PDOBGAFG@MMOTOP_SMSBuffTime?$AA@	; `string'
PUBLIC	??_C@_0BA@FPOKAIAG@MMOTOP_BuffTime?$AA@		; `string'
PUBLIC	??_C@_0BG@KCBCCKKI@QTOP_SMSBonusLifeBank?$AA@	; `string'
PUBLIC	??_C@_0BG@GGDNHJBE@QTOP_SMSBonusSoulBank?$AA@	; `string'
PUBLIC	??_C@_0BH@JHJGADBG@QTOP_SMSBonusBlessBank?$AA@	; `string'
PUBLIC	??_C@_0BH@BIMMBGE@QTOP_SMSBonusChaosBank?$AA@	; `string'
PUBLIC	??_C@_0BH@EHJIKPHH@QTOP_SMSBonusItemLevel?$AA@	; `string'
PUBLIC	??_C@_0BH@LEDLEHJE@QTOP_SMSBonusItemIndex?$AA@	; `string'
PUBLIC	??_C@_0BG@CALGGNEL@QTOP_SMSBonusItemType?$AA@	; `string'
PUBLIC	??_C@_0BI@EAIFKLHB@QTOP_SMSBonusItemActive?$AA@	; `string'
PUBLIC	??_C@_0BE@ECPLAMGJ@QTOP_SMSBonusExCred?$AA@	; `string'
PUBLIC	??_C@_0BE@OKHOPJMN@QTOP_SMSBonusWcoinG?$AA@	; `string'
PUBLIC	??_C@_0BE@OPPNHNFL@QTOP_SMSBonusWcoinP?$AA@	; `string'
PUBLIC	??_C@_0BE@IOBCDMMJ@QTOP_SMSBonusWcoinC?$AA@	; `string'
PUBLIC	??_C@_0BD@ECNNADMJ@QTOP_BonusLifeBank?$AA@	; `string'
PUBLIC	??_C@_0BD@IGPCFAHF@QTOP_BonusSoulBank?$AA@	; `string'
PUBLIC	??_C@_0BE@KNMDJNPB@QTOP_BonusBlessBank?$AA@	; `string'
PUBLIC	??_C@_0BE@DLNJFPID@QTOP_BonusChaosBank?$AA@	; `string'
PUBLIC	??_C@_0BE@HNMNDBJA@QTOP_BonusItemLevel?$AA@	; `string'
PUBLIC	??_C@_0BE@IOGONJHD@QTOP_BonusItemIndex?$AA@	; `string'
PUBLIC	??_C@_0BD@MAHJEECK@QTOP_BonusItemType?$AA@	; `string'
PUBLIC	??_C@_0BF@HONBIJDE@QTOP_BonusItemActive?$AA@	; `string'
PUBLIC	??_C@_0BB@FIFAHLHN@QTOP_BonusExCred?$AA@	; `string'
PUBLIC	??_C@_0BB@PANFIONJ@QTOP_BonusWcoinG?$AA@	; `string'
PUBLIC	??_C@_0BB@PFFGAKEP@QTOP_BonusWcoinP?$AA@	; `string'
PUBLIC	??_C@_0BB@JELJELNN@QTOP_BonusWcoinC?$AA@	; `string'
PUBLIC	??_C@_0O@KPGCIBKI@QTOP_VoteFile?$AA@		; `string'
PUBLIC	??_C@_0BC@JLLLCKLO@QTOP_UPDATE_VOTER?$AA@	; `string'
PUBLIC	??_C@_0BC@HPDCHCHP@QTOP_DownloadFile?$AA@	; `string'
PUBLIC	??_C@_0BE@CCDEDIEG@QTOP_DeleteVoteFile?$AA@	; `string'
PUBLIC	??_C@_0BI@EJBBELIL@MMOTOP_SMSBonusLifeBank?$AA@	; `string'
PUBLIC	??_C@_0BI@INDOBIDH@MMOTOP_SMSBonusSoulBank?$AA@	; `string'
PUBLIC	??_C@_0BJ@DFBKHBAF@MMOTOP_SMSBonusBlessBank?$AA@ ; `string'
PUBLIC	??_C@_0BJ@KDAALDHH@MMOTOP_SMSBonusChaosBank?$AA@ ; `string'
PUBLIC	??_C@_0BJ@OFBENNGE@MMOTOP_SMSBonusItemLevel?$AA@ ; `string'
PUBLIC	??_C@_0BJ@BGLHDFIH@MMOTOP_SMSBonusItemIndex?$AA@ ; `string'
PUBLIC	??_C@_0BI@MLLFAMGI@MMOTOP_SMSBonusItemType?$AA@	; `string'
PUBLIC	??_C@_0BK@MEJJGGNN@MMOTOP_SMSBonusItemActive?$AA@ ; `string'
PUBLIC	??_C@_0BG@HIINPHOD@MMOTOP_SMSBonusExCred?$AA@	; `string'
PUBLIC	??_C@_0BG@NAAIACEH@MMOTOP_SMSBonusWcoinG?$AA@	; `string'
PUBLIC	??_C@_0BG@NFILIGNB@MMOTOP_SMSBonusWcoinP?$AA@	; `string'
PUBLIC	??_C@_0BG@LEGEMHED@MMOTOP_SMSBonusWcoinC?$AA@	; `string'
PUBLIC	??_C@_0BF@IBHHEHKI@MMOTOP_BonusLifeBank?$AA@	; `string'
PUBLIC	??_C@_0BF@EFFIBEBE@MMOTOP_BonusSoulBank?$AA@	; `string'
PUBLIC	??_C@_0BG@JHLFGGHL@MMOTOP_BonusBlessBank?$AA@	; `string'
PUBLIC	??_C@_0BG@BKPKEAJ@MMOTOP_BonusChaosBank?$AA@	; `string'
PUBLIC	??_C@_0BG@EHLLMKBK@MMOTOP_BonusItemLevel?$AA@	; `string'
PUBLIC	??_C@_0BG@LEBICCPJ@MMOTOP_BonusItemIndex?$AA@	; `string'
PUBLIC	??_C@_0BF@DNDAAEL@MMOTOP_BonusItemType?$AA@	; `string'
PUBLIC	??_C@_0BH@HDIGJFPB@MMOTOP_BonusItemActive?$AA@	; `string'
PUBLIC	??_C@_0BD@COMHOBNI@MMOTOP_BonusExCred?$AA@	; `string'
PUBLIC	??_C@_0BD@IGECBEHM@MMOTOP_BonusWcoinG?$AA@	; `string'
PUBLIC	??_C@_0BD@IDMBJAOK@MMOTOP_BonusWcoinP?$AA@	; `string'
PUBLIC	??_C@_0BD@OCCONBHI@MMOTOP_BonusWcoinC?$AA@	; `string'
PUBLIC	??_C@_0BA@COIKGHAE@MMOTOP_VoteFile?$AA@		; `string'
PUBLIC	??_C@_0FE@DBCBBMPJ@votes?1aba02abed8021ba31a4499a390@ ; `string'
PUBLIC	??_C@_0BE@DNHBOKED@MMOTOP_UPDATE_VOTER?$AA@	; `string'
PUBLIC	??_C@_0BE@NJPILCIC@MMOTOP_DownloadFile?$AA@	; `string'
PUBLIC	??_C@_0BG@BIECMDMM@MMOTOP_DeleteVoteFile?$AA@	; `string'
PUBLIC	??_C@_0M@DCIBIFED@QTOP_Enable?$AA@		; `string'
PUBLIC	??_C@_06MLPMCPDE@ExTeam?$AA@			; `string'
PUBLIC	??_C@_0O@HBCEHCHG@MMOTOP_Enable?$AA@		; `string'
PUBLIC	??_C@_0BJ@HCOFCKO@?4?4?2Data?2ExData?2Voter?4ini?$AA@ ; `string'
PUBLIC	?Init@Voter@@QAEXXZ				; Voter::Init
EXTRN	__imp__GetPrivateProfileStringA@24:PROC
EXTRN	__imp__GetPrivateProfileIntA@16:PROC
;	COMDAT ??_C@_0BB@IFHGPKPD@QTOP_SMSBuffTime?$AA@
CONST	SEGMENT
??_C@_0BB@IFHGPKPD@QTOP_SMSBuffTime?$AA@ DB 'QTOP_SMSBuffTime', 00H ; `string'
CONST	ENDS
;	COMDAT ??_C@_0O@NOACOOKK@QTOP_BuffTime?$AA@
CONST	SEGMENT
??_C@_0O@NOACOOKK@QTOP_BuffTime?$AA@ DB 'QTOP_BuffTime', 00H ; `string'
CONST	ENDS
;	COMDAT ??_C@_0BD@PDOBGAFG@MMOTOP_SMSBuffTime?$AA@
CONST	SEGMENT
??_C@_0BD@PDOBGAFG@MMOTOP_SMSBuffTime?$AA@ DB 'MMOTOP_SMSBuffTime', 00H ; `string'
CONST	ENDS
;	COMDAT ??_C@_0BA@FPOKAIAG@MMOTOP_BuffTime?$AA@
CONST	SEGMENT
??_C@_0BA@FPOKAIAG@MMOTOP_BuffTime?$AA@ DB 'MMOTOP_BuffTime', 00H ; `string'
CONST	ENDS
;	COMDAT ??_C@_0BG@KCBCCKKI@QTOP_SMSBonusLifeBank?$AA@
CONST	SEGMENT
??_C@_0BG@KCBCCKKI@QTOP_SMSBonusLifeBank?$AA@ DB 'QTOP_SMSBonusLifeBank', 00H ; `string'
CONST	ENDS
;	COMDAT ??_C@_0BG@GGDNHJBE@QTOP_SMSBonusSoulBank?$AA@
CONST	SEGMENT
??_C@_0BG@GGDNHJBE@QTOP_SMSBonusSoulBank?$AA@ DB 'QTOP_SMSBonusSoulBank', 00H ; `string'
CONST	ENDS
;	COMDAT ??_C@_0BH@JHJGADBG@QTOP_SMSBonusBlessBank?$AA@
CONST	SEGMENT
??_C@_0BH@JHJGADBG@QTOP_SMSBonusBlessBank?$AA@ DB 'QTOP_SMSBonusBlessBank'
	DB	00H						; `string'
CONST	ENDS
;	COMDAT ??_C@_0BH@BIMMBGE@QTOP_SMSBonusChaosBank?$AA@
CONST	SEGMENT
??_C@_0BH@BIMMBGE@QTOP_SMSBonusChaosBank?$AA@ DB 'QTOP_SMSBonusChaosBank', 00H ; `string'
CONST	ENDS
;	COMDAT ??_C@_0BH@EHJIKPHH@QTOP_SMSBonusItemLevel?$AA@
CONST	SEGMENT
??_C@_0BH@EHJIKPHH@QTOP_SMSBonusItemLevel?$AA@ DB 'QTOP_SMSBonusItemLevel'
	DB	00H						; `string'
CONST	ENDS
;	COMDAT ??_C@_0BH@LEDLEHJE@QTOP_SMSBonusItemIndex?$AA@
CONST	SEGMENT
??_C@_0BH@LEDLEHJE@QTOP_SMSBonusItemIndex?$AA@ DB 'QTOP_SMSBonusItemIndex'
	DB	00H						; `string'
CONST	ENDS
;	COMDAT ??_C@_0BG@CALGGNEL@QTOP_SMSBonusItemType?$AA@
CONST	SEGMENT
??_C@_0BG@CALGGNEL@QTOP_SMSBonusItemType?$AA@ DB 'QTOP_SMSBonusItemType', 00H ; `string'
CONST	ENDS
;	COMDAT ??_C@_0BI@EAIFKLHB@QTOP_SMSBonusItemActive?$AA@
CONST	SEGMENT
??_C@_0BI@EAIFKLHB@QTOP_SMSBonusItemActive?$AA@ DB 'QTOP_SMSBonusItemActi'
	DB	've', 00H					; `string'
CONST	ENDS
;	COMDAT ??_C@_0BE@ECPLAMGJ@QTOP_SMSBonusExCred?$AA@
CONST	SEGMENT
??_C@_0BE@ECPLAMGJ@QTOP_SMSBonusExCred?$AA@ DB 'QTOP_SMSBonusExCred', 00H ; `string'
CONST	ENDS
;	COMDAT ??_C@_0BE@OKHOPJMN@QTOP_SMSBonusWcoinG?$AA@
CONST	SEGMENT
??_C@_0BE@OKHOPJMN@QTOP_SMSBonusWcoinG?$AA@ DB 'QTOP_SMSBonusWcoinG', 00H ; `string'
CONST	ENDS
;	COMDAT ??_C@_0BE@OPPNHNFL@QTOP_SMSBonusWcoinP?$AA@
CONST	SEGMENT
??_C@_0BE@OPPNHNFL@QTOP_SMSBonusWcoinP?$AA@ DB 'QTOP_SMSBonusWcoinP', 00H ; `string'
CONST	ENDS
;	COMDAT ??_C@_0BE@IOBCDMMJ@QTOP_SMSBonusWcoinC?$AA@
CONST	SEGMENT
??_C@_0BE@IOBCDMMJ@QTOP_SMSBonusWcoinC?$AA@ DB 'QTOP_SMSBonusWcoinC', 00H ; `string'
CONST	ENDS
;	COMDAT ??_C@_0BD@ECNNADMJ@QTOP_BonusLifeBank?$AA@
CONST	SEGMENT
??_C@_0BD@ECNNADMJ@QTOP_BonusLifeBank?$AA@ DB 'QTOP_BonusLifeBank', 00H ; `string'
CONST	ENDS
;	COMDAT ??_C@_0BD@IGPCFAHF@QTOP_BonusSoulBank?$AA@
CONST	SEGMENT
??_C@_0BD@IGPCFAHF@QTOP_BonusSoulBank?$AA@ DB 'QTOP_BonusSoulBank', 00H ; `string'
CONST	ENDS
;	COMDAT ??_C@_0BE@KNMDJNPB@QTOP_BonusBlessBank?$AA@
CONST	SEGMENT
??_C@_0BE@KNMDJNPB@QTOP_BonusBlessBank?$AA@ DB 'QTOP_BonusBlessBank', 00H ; `string'
CONST	ENDS
;	COMDAT ??_C@_0BE@DLNJFPID@QTOP_BonusChaosBank?$AA@
CONST	SEGMENT
??_C@_0BE@DLNJFPID@QTOP_BonusChaosBank?$AA@ DB 'QTOP_BonusChaosBank', 00H ; `string'
CONST	ENDS
;	COMDAT ??_C@_0BE@HNMNDBJA@QTOP_BonusItemLevel?$AA@
CONST	SEGMENT
??_C@_0BE@HNMNDBJA@QTOP_BonusItemLevel?$AA@ DB 'QTOP_BonusItemLevel', 00H ; `string'
CONST	ENDS
;	COMDAT ??_C@_0BE@IOGONJHD@QTOP_BonusItemIndex?$AA@
CONST	SEGMENT
??_C@_0BE@IOGONJHD@QTOP_BonusItemIndex?$AA@ DB 'QTOP_BonusItemIndex', 00H ; `string'
CONST	ENDS
;	COMDAT ??_C@_0BD@MAHJEECK@QTOP_BonusItemType?$AA@
CONST	SEGMENT
??_C@_0BD@MAHJEECK@QTOP_BonusItemType?$AA@ DB 'QTOP_BonusItemType', 00H ; `string'
CONST	ENDS
;	COMDAT ??_C@_0BF@HONBIJDE@QTOP_BonusItemActive?$AA@
CONST	SEGMENT
??_C@_0BF@HONBIJDE@QTOP_BonusItemActive?$AA@ DB 'QTOP_BonusItemActive', 00H ; `string'
CONST	ENDS
;	COMDAT ??_C@_0BB@FIFAHLHN@QTOP_BonusExCred?$AA@
CONST	SEGMENT
??_C@_0BB@FIFAHLHN@QTOP_BonusExCred?$AA@ DB 'QTOP_BonusExCred', 00H ; `string'
CONST	ENDS
;	COMDAT ??_C@_0BB@PANFIONJ@QTOP_BonusWcoinG?$AA@
CONST	SEGMENT
??_C@_0BB@PANFIONJ@QTOP_BonusWcoinG?$AA@ DB 'QTOP_BonusWcoinG', 00H ; `string'
CONST	ENDS
;	COMDAT ??_C@_0BB@PFFGAKEP@QTOP_BonusWcoinP?$AA@
CONST	SEGMENT
??_C@_0BB@PFFGAKEP@QTOP_BonusWcoinP?$AA@ DB 'QTOP_BonusWcoinP', 00H ; `string'
CONST	ENDS
;	COMDAT ??_C@_0BB@JELJELNN@QTOP_BonusWcoinC?$AA@
CONST	SEGMENT
??_C@_0BB@JELJELNN@QTOP_BonusWcoinC?$AA@ DB 'QTOP_BonusWcoinC', 00H ; `string'
CONST	ENDS
;	COMDAT ??_C@_0O@KPGCIBKI@QTOP_VoteFile?$AA@
CONST	SEGMENT
??_C@_0O@KPGCIBKI@QTOP_VoteFile?$AA@ DB 'QTOP_VoteFile', 00H ; `string'
CONST	ENDS
;	COMDAT ??_C@_0BC@JLLLCKLO@QTOP_UPDATE_VOTER?$AA@
CONST	SEGMENT
??_C@_0BC@JLLLCKLO@QTOP_UPDATE_VOTER?$AA@ DB 'QTOP_UPDATE_VOTER', 00H ; `string'
CONST	ENDS
;	COMDAT ??_C@_0BC@HPDCHCHP@QTOP_DownloadFile?$AA@
CONST	SEGMENT
??_C@_0BC@HPDCHCHP@QTOP_DownloadFile?$AA@ DB 'QTOP_DownloadFile', 00H ; `string'
CONST	ENDS
;	COMDAT ??_C@_0BE@CCDEDIEG@QTOP_DeleteVoteFile?$AA@
CONST	SEGMENT
??_C@_0BE@CCDEDIEG@QTOP_DeleteVoteFile?$AA@ DB 'QTOP_DeleteVoteFile', 00H ; `string'
CONST	ENDS
;	COMDAT ??_C@_0BI@EJBBELIL@MMOTOP_SMSBonusLifeBank?$AA@
CONST	SEGMENT
??_C@_0BI@EJBBELIL@MMOTOP_SMSBonusLifeBank?$AA@ DB 'MMOTOP_SMSBonusLifeBa'
	DB	'nk', 00H					; `string'
CONST	ENDS
;	COMDAT ??_C@_0BI@INDOBIDH@MMOTOP_SMSBonusSoulBank?$AA@
CONST	SEGMENT
??_C@_0BI@INDOBIDH@MMOTOP_SMSBonusSoulBank?$AA@ DB 'MMOTOP_SMSBonusSoulBa'
	DB	'nk', 00H					; `string'
CONST	ENDS
;	COMDAT ??_C@_0BJ@DFBKHBAF@MMOTOP_SMSBonusBlessBank?$AA@
CONST	SEGMENT
??_C@_0BJ@DFBKHBAF@MMOTOP_SMSBonusBlessBank?$AA@ DB 'MMOTOP_SMSBonusBless'
	DB	'Bank', 00H					; `string'
CONST	ENDS
;	COMDAT ??_C@_0BJ@KDAALDHH@MMOTOP_SMSBonusChaosBank?$AA@
CONST	SEGMENT
??_C@_0BJ@KDAALDHH@MMOTOP_SMSBonusChaosBank?$AA@ DB 'MMOTOP_SMSBonusChaos'
	DB	'Bank', 00H					; `string'
CONST	ENDS
;	COMDAT ??_C@_0BJ@OFBENNGE@MMOTOP_SMSBonusItemLevel?$AA@
CONST	SEGMENT
??_C@_0BJ@OFBENNGE@MMOTOP_SMSBonusItemLevel?$AA@ DB 'MMOTOP_SMSBonusItemL'
	DB	'evel', 00H					; `string'
CONST	ENDS
;	COMDAT ??_C@_0BJ@BGLHDFIH@MMOTOP_SMSBonusItemIndex?$AA@
CONST	SEGMENT
??_C@_0BJ@BGLHDFIH@MMOTOP_SMSBonusItemIndex?$AA@ DB 'MMOTOP_SMSBonusItemI'
	DB	'ndex', 00H					; `string'
CONST	ENDS
;	COMDAT ??_C@_0BI@MLLFAMGI@MMOTOP_SMSBonusItemType?$AA@
CONST	SEGMENT
??_C@_0BI@MLLFAMGI@MMOTOP_SMSBonusItemType?$AA@ DB 'MMOTOP_SMSBonusItemTy'
	DB	'pe', 00H					; `string'
CONST	ENDS
;	COMDAT ??_C@_0BK@MEJJGGNN@MMOTOP_SMSBonusItemActive?$AA@
CONST	SEGMENT
??_C@_0BK@MEJJGGNN@MMOTOP_SMSBonusItemActive?$AA@ DB 'MMOTOP_SMSBonusItem'
	DB	'Active', 00H				; `string'
CONST	ENDS
;	COMDAT ??_C@_0BG@HIINPHOD@MMOTOP_SMSBonusExCred?$AA@
CONST	SEGMENT
??_C@_0BG@HIINPHOD@MMOTOP_SMSBonusExCred?$AA@ DB 'MMOTOP_SMSBonusExCred', 00H ; `string'
CONST	ENDS
;	COMDAT ??_C@_0BG@NAAIACEH@MMOTOP_SMSBonusWcoinG?$AA@
CONST	SEGMENT
??_C@_0BG@NAAIACEH@MMOTOP_SMSBonusWcoinG?$AA@ DB 'MMOTOP_SMSBonusWcoinG', 00H ; `string'
CONST	ENDS
;	COMDAT ??_C@_0BG@NFILIGNB@MMOTOP_SMSBonusWcoinP?$AA@
CONST	SEGMENT
??_C@_0BG@NFILIGNB@MMOTOP_SMSBonusWcoinP?$AA@ DB 'MMOTOP_SMSBonusWcoinP', 00H ; `string'
CONST	ENDS
;	COMDAT ??_C@_0BG@LEGEMHED@MMOTOP_SMSBonusWcoinC?$AA@
CONST	SEGMENT
??_C@_0BG@LEGEMHED@MMOTOP_SMSBonusWcoinC?$AA@ DB 'MMOTOP_SMSBonusWcoinC', 00H ; `string'
CONST	ENDS
;	COMDAT ??_C@_0BF@IBHHEHKI@MMOTOP_BonusLifeBank?$AA@
CONST	SEGMENT
??_C@_0BF@IBHHEHKI@MMOTOP_BonusLifeBank?$AA@ DB 'MMOTOP_BonusLifeBank', 00H ; `string'
CONST	ENDS
;	COMDAT ??_C@_0BF@EFFIBEBE@MMOTOP_BonusSoulBank?$AA@
CONST	SEGMENT
??_C@_0BF@EFFIBEBE@MMOTOP_BonusSoulBank?$AA@ DB 'MMOTOP_BonusSoulBank', 00H ; `string'
CONST	ENDS
;	COMDAT ??_C@_0BG@JHLFGGHL@MMOTOP_BonusBlessBank?$AA@
CONST	SEGMENT
??_C@_0BG@JHLFGGHL@MMOTOP_BonusBlessBank?$AA@ DB 'MMOTOP_BonusBlessBank', 00H ; `string'
CONST	ENDS
;	COMDAT ??_C@_0BG@BKPKEAJ@MMOTOP_BonusChaosBank?$AA@
CONST	SEGMENT
??_C@_0BG@BKPKEAJ@MMOTOP_BonusChaosBank?$AA@ DB 'MMOTOP_BonusChaosBank', 00H ; `string'
CONST	ENDS
;	COMDAT ??_C@_0BG@EHLLMKBK@MMOTOP_BonusItemLevel?$AA@
CONST	SEGMENT
??_C@_0BG@EHLLMKBK@MMOTOP_BonusItemLevel?$AA@ DB 'MMOTOP_BonusItemLevel', 00H ; `string'
CONST	ENDS
;	COMDAT ??_C@_0BG@LEBICCPJ@MMOTOP_BonusItemIndex?$AA@
CONST	SEGMENT
??_C@_0BG@LEBICCPJ@MMOTOP_BonusItemIndex?$AA@ DB 'MMOTOP_BonusItemIndex', 00H ; `string'
CONST	ENDS
;	COMDAT ??_C@_0BF@DNDAAEL@MMOTOP_BonusItemType?$AA@
CONST	SEGMENT
??_C@_0BF@DNDAAEL@MMOTOP_BonusItemType?$AA@ DB 'MMOTOP_BonusItemType', 00H ; `string'
CONST	ENDS
;	COMDAT ??_C@_0BH@HDIGJFPB@MMOTOP_BonusItemActive?$AA@
CONST	SEGMENT
??_C@_0BH@HDIGJFPB@MMOTOP_BonusItemActive?$AA@ DB 'MMOTOP_BonusItemActive'
	DB	00H						; `string'
CONST	ENDS
;	COMDAT ??_C@_0BD@COMHOBNI@MMOTOP_BonusExCred?$AA@
CONST	SEGMENT
??_C@_0BD@COMHOBNI@MMOTOP_BonusExCred?$AA@ DB 'MMOTOP_BonusExCred', 00H ; `string'
CONST	ENDS
;	COMDAT ??_C@_0BD@IGECBEHM@MMOTOP_BonusWcoinG?$AA@
CONST	SEGMENT
??_C@_0BD@IGECBEHM@MMOTOP_BonusWcoinG?$AA@ DB 'MMOTOP_BonusWcoinG', 00H ; `string'
CONST	ENDS
;	COMDAT ??_C@_0BD@IDMBJAOK@MMOTOP_BonusWcoinP?$AA@
CONST	SEGMENT
??_C@_0BD@IDMBJAOK@MMOTOP_BonusWcoinP?$AA@ DB 'MMOTOP_BonusWcoinP', 00H ; `string'
CONST	ENDS
;	COMDAT ??_C@_0BD@OCCONBHI@MMOTOP_BonusWcoinC?$AA@
CONST	SEGMENT
??_C@_0BD@OCCONBHI@MMOTOP_BonusWcoinC?$AA@ DB 'MMOTOP_BonusWcoinC', 00H ; `string'
CONST	ENDS
;	COMDAT ??_C@_0BA@COIKGHAE@MMOTOP_VoteFile?$AA@
CONST	SEGMENT
??_C@_0BA@COIKGHAE@MMOTOP_VoteFile?$AA@ DB 'MMOTOP_VoteFile', 00H ; `string'
CONST	ENDS
;	COMDAT ??_C@_0FE@DBCBBMPJ@votes?1aba02abed8021ba31a4499a390@
CONST	SEGMENT
??_C@_0FE@DBCBBMPJ@votes?1aba02abed8021ba31a4499a390@ DB 'votes/aba02abed'
	DB	'8021ba31a4499a390aa8afa4679c6d1.txt?454b02beba57cfd5896709ff1'
	DB	'ea8f1aa', 00H				; `string'
CONST	ENDS
;	COMDAT ??_C@_0BE@DNHBOKED@MMOTOP_UPDATE_VOTER?$AA@
CONST	SEGMENT
??_C@_0BE@DNHBOKED@MMOTOP_UPDATE_VOTER?$AA@ DB 'MMOTOP_UPDATE_VOTER', 00H ; `string'
CONST	ENDS
;	COMDAT ??_C@_0BE@NJPILCIC@MMOTOP_DownloadFile?$AA@
CONST	SEGMENT
??_C@_0BE@NJPILCIC@MMOTOP_DownloadFile?$AA@ DB 'MMOTOP_DownloadFile', 00H ; `string'
CONST	ENDS
;	COMDAT ??_C@_0BG@BIECMDMM@MMOTOP_DeleteVoteFile?$AA@
CONST	SEGMENT
??_C@_0BG@BIECMDMM@MMOTOP_DeleteVoteFile?$AA@ DB 'MMOTOP_DeleteVoteFile', 00H ; `string'
CONST	ENDS
;	COMDAT ??_C@_0M@DCIBIFED@QTOP_Enable?$AA@
CONST	SEGMENT
??_C@_0M@DCIBIFED@QTOP_Enable?$AA@ DB 'QTOP_Enable', 00H ; `string'
CONST	ENDS
;	COMDAT ??_C@_06MLPMCPDE@ExTeam?$AA@
CONST	SEGMENT
??_C@_06MLPMCPDE@ExTeam?$AA@ DB 'ExTeam', 00H		; `string'
CONST	ENDS
;	COMDAT ??_C@_0O@HBCEHCHG@MMOTOP_Enable?$AA@
CONST	SEGMENT
??_C@_0O@HBCEHCHG@MMOTOP_Enable?$AA@ DB 'MMOTOP_Enable', 00H ; `string'
CONST	ENDS
;	COMDAT ??_C@_0BJ@HCOFCKO@?4?4?2Data?2ExData?2Voter?4ini?$AA@
CONST	SEGMENT
??_C@_0BJ@HCOFCKO@?4?4?2Data?2ExData?2Voter?4ini?$AA@ DB '..\Data\ExData\'
	DB	'Voter.ini', 00H				; `string'
; Function compile flags: /Odtp /ZI
CONST	ENDS
_TEXT	SEGMENT
_this$ = -4						; size = 4
?Init@Voter@@QAEXXZ PROC				; Voter::Init
; _this$ = ecx

; 54   : {

  00080	55		 push	 ebp
  00081	8b ec		 mov	 ebp, esp
  00083	83 ec 44	 sub	 esp, 68			; 00000044H
  00086	53		 push	 ebx
  00087	56		 push	 esi
  00088	57		 push	 edi
  00089	89 4d fc	 mov	 DWORD PTR _this$[ebp], ecx

; 55   : 	this->MMOTOP_Enable = GetPrivateProfileInt("ExTeam","MMOTOP_Enable",0,VOTER_DIR);

  0008c	68 00 00 00 00	 push	 OFFSET ??_C@_0BJ@HCOFCKO@?4?4?2Data?2ExData?2Voter?4ini?$AA@
  00091	6a 00		 push	 0
  00093	68 00 00 00 00	 push	 OFFSET ??_C@_0O@HBCEHCHG@MMOTOP_Enable?$AA@
  00098	68 00 00 00 00	 push	 OFFSET ??_C@_06MLPMCPDE@ExTeam?$AA@
  0009d	ff 15 00 00 00
	00		 call	 DWORD PTR __imp__GetPrivateProfileIntA@16
  000a3	85 c0		 test	 eax, eax
  000a5	0f 95 c0	 setne	 al
  000a8	8b 4d fc	 mov	 ecx, DWORD PTR _this$[ebp]
  000ab	88 01		 mov	 BYTE PTR [ecx], al

; 56   : 	this->QTOP_Enable = GetPrivateProfileInt("ExTeam", "QTOP_Enable", 0, VOTER_DIR);

  000ad	68 00 00 00 00	 push	 OFFSET ??_C@_0BJ@HCOFCKO@?4?4?2Data?2ExData?2Voter?4ini?$AA@
  000b2	6a 00		 push	 0
  000b4	68 00 00 00 00	 push	 OFFSET ??_C@_0M@DCIBIFED@QTOP_Enable?$AA@
  000b9	68 00 00 00 00	 push	 OFFSET ??_C@_06MLPMCPDE@ExTeam?$AA@
  000be	ff 15 00 00 00
	00		 call	 DWORD PTR __imp__GetPrivateProfileIntA@16
  000c4	85 c0		 test	 eax, eax
  000c6	0f 95 c0	 setne	 al
  000c9	8b 4d fc	 mov	 ecx, DWORD PTR _this$[ebp]
  000cc	88 81 30 01 00
	00		 mov	 BYTE PTR [ecx+304], al

; 57   : 	// ----
; 58   : 
; 59   : 	this->MMOTOP_DeleteVoteFile = GetPrivateProfileInt("ExTeam", "MMOTOP_DeleteVoteFile", 1, VOTER_DIR);

  000d2	68 00 00 00 00	 push	 OFFSET ??_C@_0BJ@HCOFCKO@?4?4?2Data?2ExData?2Voter?4ini?$AA@
  000d7	6a 01		 push	 1
  000d9	68 00 00 00 00	 push	 OFFSET ??_C@_0BG@BIECMDMM@MMOTOP_DeleteVoteFile?$AA@
  000de	68 00 00 00 00	 push	 OFFSET ??_C@_06MLPMCPDE@ExTeam?$AA@
  000e3	ff 15 00 00 00
	00		 call	 DWORD PTR __imp__GetPrivateProfileIntA@16
  000e9	85 c0		 test	 eax, eax
  000eb	0f 95 c0	 setne	 al
  000ee	8b 4d fc	 mov	 ecx, DWORD PTR _this$[ebp]
  000f1	88 41 01	 mov	 BYTE PTR [ecx+1], al

; 60   : 	this->MMOTOP_DownloadFile = GetPrivateProfileInt("ExTeam", "MMOTOP_DownloadFile", 1, VOTER_DIR);

  000f4	68 00 00 00 00	 push	 OFFSET ??_C@_0BJ@HCOFCKO@?4?4?2Data?2ExData?2Voter?4ini?$AA@
  000f9	6a 01		 push	 1
  000fb	68 00 00 00 00	 push	 OFFSET ??_C@_0BE@NJPILCIC@MMOTOP_DownloadFile?$AA@
  00100	68 00 00 00 00	 push	 OFFSET ??_C@_06MLPMCPDE@ExTeam?$AA@
  00105	ff 15 00 00 00
	00		 call	 DWORD PTR __imp__GetPrivateProfileIntA@16
  0010b	85 c0		 test	 eax, eax
  0010d	0f 95 c0	 setne	 al
  00110	8b 4d fc	 mov	 ecx, DWORD PTR _this$[ebp]
  00113	88 41 02	 mov	 BYTE PTR [ecx+2], al

; 61   : 
; 62   : 	this->MMOTOP_UPDATE_VOTER = GetPrivateProfileInt("ExTeam", "MMOTOP_UPDATE_VOTER", 2, VOTER_DIR);

  00116	68 00 00 00 00	 push	 OFFSET ??_C@_0BJ@HCOFCKO@?4?4?2Data?2ExData?2Voter?4ini?$AA@
  0011b	6a 02		 push	 2
  0011d	68 00 00 00 00	 push	 OFFSET ??_C@_0BE@DNHBOKED@MMOTOP_UPDATE_VOTER?$AA@
  00122	68 00 00 00 00	 push	 OFFSET ??_C@_06MLPMCPDE@ExTeam?$AA@
  00127	ff 15 00 00 00
	00		 call	 DWORD PTR __imp__GetPrivateProfileIntA@16
  0012d	8b 4d fc	 mov	 ecx, DWORD PTR _this$[ebp]
  00130	89 41 04	 mov	 DWORD PTR [ecx+4], eax

; 63   : 
; 64   : 	GetPrivateProfileString("ExTeam", "MMOTOP_VoteFile", "votes/aba02abed8021ba31a4499a390aa8afa4679c6d1.txt?454b02beba57cfd5896709ff1ea8f1aa", this->MMOTOP_FileName, sizeof(this->MMOTOP_FileName), VOTER_DIR);

  00133	68 00 00 00 00	 push	 OFFSET ??_C@_0BJ@HCOFCKO@?4?4?2Data?2ExData?2Voter?4ini?$AA@
  00138	68 c8 00 00 00	 push	 200			; 000000c8H
  0013d	8b 45 fc	 mov	 eax, DWORD PTR _this$[ebp]
  00140	83 c0 08	 add	 eax, 8
  00143	50		 push	 eax
  00144	68 00 00 00 00	 push	 OFFSET ??_C@_0FE@DBCBBMPJ@votes?1aba02abed8021ba31a4499a390@
  00149	68 00 00 00 00	 push	 OFFSET ??_C@_0BA@COIKGHAE@MMOTOP_VoteFile?$AA@
  0014e	68 00 00 00 00	 push	 OFFSET ??_C@_06MLPMCPDE@ExTeam?$AA@
  00153	ff 15 00 00 00
	00		 call	 DWORD PTR __imp__GetPrivateProfileStringA@24

; 65   : 
; 66   : 	this->MMOTOP_BonusWcoinC = GetPrivateProfileInt("ExTeam", "MMOTOP_BonusWcoinC", 0, VOTER_DIR);

  00159	68 00 00 00 00	 push	 OFFSET ??_C@_0BJ@HCOFCKO@?4?4?2Data?2ExData?2Voter?4ini?$AA@
  0015e	6a 00		 push	 0
  00160	68 00 00 00 00	 push	 OFFSET ??_C@_0BD@OCCONBHI@MMOTOP_BonusWcoinC?$AA@
  00165	68 00 00 00 00	 push	 OFFSET ??_C@_06MLPMCPDE@ExTeam?$AA@
  0016a	ff 15 00 00 00
	00		 call	 DWORD PTR __imp__GetPrivateProfileIntA@16
  00170	8b 4d fc	 mov	 ecx, DWORD PTR _this$[ebp]
  00173	89 81 d0 00 00
	00		 mov	 DWORD PTR [ecx+208], eax

; 67   : 	this->MMOTOP_BonusWcoinP = GetPrivateProfileInt("ExTeam", "MMOTOP_BonusWcoinP", 0, VOTER_DIR);

  00179	68 00 00 00 00	 push	 OFFSET ??_C@_0BJ@HCOFCKO@?4?4?2Data?2ExData?2Voter?4ini?$AA@
  0017e	6a 00		 push	 0
  00180	68 00 00 00 00	 push	 OFFSET ??_C@_0BD@IDMBJAOK@MMOTOP_BonusWcoinP?$AA@
  00185	68 00 00 00 00	 push	 OFFSET ??_C@_06MLPMCPDE@ExTeam?$AA@
  0018a	ff 15 00 00 00
	00		 call	 DWORD PTR __imp__GetPrivateProfileIntA@16
  00190	8b 4d fc	 mov	 ecx, DWORD PTR _this$[ebp]
  00193	89 81 d4 00 00
	00		 mov	 DWORD PTR [ecx+212], eax

; 68   : 	this->MMOTOP_BonusWcoinG = GetPrivateProfileInt("ExTeam", "MMOTOP_BonusWcoinG", 0, VOTER_DIR);

  00199	68 00 00 00 00	 push	 OFFSET ??_C@_0BJ@HCOFCKO@?4?4?2Data?2ExData?2Voter?4ini?$AA@
  0019e	6a 00		 push	 0
  001a0	68 00 00 00 00	 push	 OFFSET ??_C@_0BD@IGECBEHM@MMOTOP_BonusWcoinG?$AA@
  001a5	68 00 00 00 00	 push	 OFFSET ??_C@_06MLPMCPDE@ExTeam?$AA@
  001aa	ff 15 00 00 00
	00		 call	 DWORD PTR __imp__GetPrivateProfileIntA@16
  001b0	8b 4d fc	 mov	 ecx, DWORD PTR _this$[ebp]
  001b3	89 81 d8 00 00
	00		 mov	 DWORD PTR [ecx+216], eax

; 69   : 	this->MMOTOP_BonusExCred = GetPrivateProfileInt("ExTeam", "MMOTOP_BonusExCred", 0, VOTER_DIR);

  001b9	68 00 00 00 00	 push	 OFFSET ??_C@_0BJ@HCOFCKO@?4?4?2Data?2ExData?2Voter?4ini?$AA@
  001be	6a 00		 push	 0
  001c0	68 00 00 00 00	 push	 OFFSET ??_C@_0BD@COMHOBNI@MMOTOP_BonusExCred?$AA@
  001c5	68 00 00 00 00	 push	 OFFSET ??_C@_06MLPMCPDE@ExTeam?$AA@
  001ca	ff 15 00 00 00
	00		 call	 DWORD PTR __imp__GetPrivateProfileIntA@16
  001d0	8b 4d fc	 mov	 ecx, DWORD PTR _this$[ebp]
  001d3	89 81 dc 00 00
	00		 mov	 DWORD PTR [ecx+220], eax

; 70   : 
; 71   : 	this->MMOTOP_BonusItemActive = GetPrivateProfileInt("ExTeam", "MMOTOP_BonusItemActive", 0, VOTER_DIR);

  001d9	68 00 00 00 00	 push	 OFFSET ??_C@_0BJ@HCOFCKO@?4?4?2Data?2ExData?2Voter?4ini?$AA@
  001de	6a 00		 push	 0
  001e0	68 00 00 00 00	 push	 OFFSET ??_C@_0BH@HDIGJFPB@MMOTOP_BonusItemActive?$AA@
  001e5	68 00 00 00 00	 push	 OFFSET ??_C@_06MLPMCPDE@ExTeam?$AA@
  001ea	ff 15 00 00 00
	00		 call	 DWORD PTR __imp__GetPrivateProfileIntA@16
  001f0	8b 4d fc	 mov	 ecx, DWORD PTR _this$[ebp]
  001f3	89 81 e0 00 00
	00		 mov	 DWORD PTR [ecx+224], eax

; 72   : 	this->MMOTOP_BonusItemType = GetPrivateProfileInt("ExTeam", "MMOTOP_BonusItemType", 0, VOTER_DIR);

  001f9	68 00 00 00 00	 push	 OFFSET ??_C@_0BJ@HCOFCKO@?4?4?2Data?2ExData?2Voter?4ini?$AA@
  001fe	6a 00		 push	 0
  00200	68 00 00 00 00	 push	 OFFSET ??_C@_0BF@DNDAAEL@MMOTOP_BonusItemType?$AA@
  00205	68 00 00 00 00	 push	 OFFSET ??_C@_06MLPMCPDE@ExTeam?$AA@
  0020a	ff 15 00 00 00
	00		 call	 DWORD PTR __imp__GetPrivateProfileIntA@16
  00210	8b 4d fc	 mov	 ecx, DWORD PTR _this$[ebp]
  00213	89 81 e4 00 00
	00		 mov	 DWORD PTR [ecx+228], eax

; 73   : 	this->MMOTOP_BonusItemIndex = GetPrivateProfileInt("ExTeam", "MMOTOP_BonusItemIndex", 0, VOTER_DIR);

  00219	68 00 00 00 00	 push	 OFFSET ??_C@_0BJ@HCOFCKO@?4?4?2Data?2ExData?2Voter?4ini?$AA@
  0021e	6a 00		 push	 0
  00220	68 00 00 00 00	 push	 OFFSET ??_C@_0BG@LEBICCPJ@MMOTOP_BonusItemIndex?$AA@
  00225	68 00 00 00 00	 push	 OFFSET ??_C@_06MLPMCPDE@ExTeam?$AA@
  0022a	ff 15 00 00 00
	00		 call	 DWORD PTR __imp__GetPrivateProfileIntA@16
  00230	8b 4d fc	 mov	 ecx, DWORD PTR _this$[ebp]
  00233	89 81 e8 00 00
	00		 mov	 DWORD PTR [ecx+232], eax

; 74   : 	this->MMOTOP_BonusItemLevel = GetPrivateProfileInt("ExTeam", "MMOTOP_BonusItemLevel", 0, VOTER_DIR);

  00239	68 00 00 00 00	 push	 OFFSET ??_C@_0BJ@HCOFCKO@?4?4?2Data?2ExData?2Voter?4ini?$AA@
  0023e	6a 00		 push	 0
  00240	68 00 00 00 00	 push	 OFFSET ??_C@_0BG@EHLLMKBK@MMOTOP_BonusItemLevel?$AA@
  00245	68 00 00 00 00	 push	 OFFSET ??_C@_06MLPMCPDE@ExTeam?$AA@
  0024a	ff 15 00 00 00
	00		 call	 DWORD PTR __imp__GetPrivateProfileIntA@16
  00250	8b 4d fc	 mov	 ecx, DWORD PTR _this$[ebp]
  00253	89 81 ec 00 00
	00		 mov	 DWORD PTR [ecx+236], eax

; 75   : 
; 76   : 	this->MMOTOP_BonusChaosBank = GetPrivateProfileInt("ExTeam", "MMOTOP_BonusChaosBank", 0, VOTER_DIR);

  00259	68 00 00 00 00	 push	 OFFSET ??_C@_0BJ@HCOFCKO@?4?4?2Data?2ExData?2Voter?4ini?$AA@
  0025e	6a 00		 push	 0
  00260	68 00 00 00 00	 push	 OFFSET ??_C@_0BG@BKPKEAJ@MMOTOP_BonusChaosBank?$AA@
  00265	68 00 00 00 00	 push	 OFFSET ??_C@_06MLPMCPDE@ExTeam?$AA@
  0026a	ff 15 00 00 00
	00		 call	 DWORD PTR __imp__GetPrivateProfileIntA@16
  00270	8b 4d fc	 mov	 ecx, DWORD PTR _this$[ebp]
  00273	89 81 f0 00 00
	00		 mov	 DWORD PTR [ecx+240], eax

; 77   : 	this->MMOTOP_BonusBlessBank = GetPrivateProfileInt("ExTeam", "MMOTOP_BonusBlessBank", 0, VOTER_DIR);

  00279	68 00 00 00 00	 push	 OFFSET ??_C@_0BJ@HCOFCKO@?4?4?2Data?2ExData?2Voter?4ini?$AA@
  0027e	6a 00		 push	 0
  00280	68 00 00 00 00	 push	 OFFSET ??_C@_0BG@JHLFGGHL@MMOTOP_BonusBlessBank?$AA@
  00285	68 00 00 00 00	 push	 OFFSET ??_C@_06MLPMCPDE@ExTeam?$AA@
  0028a	ff 15 00 00 00
	00		 call	 DWORD PTR __imp__GetPrivateProfileIntA@16
  00290	8b 4d fc	 mov	 ecx, DWORD PTR _this$[ebp]
  00293	89 81 f4 00 00
	00		 mov	 DWORD PTR [ecx+244], eax

; 78   : 	this->MMOTOP_BonusSoulBank = GetPrivateProfileInt("ExTeam", "MMOTOP_BonusSoulBank", 0, VOTER_DIR);

  00299	68 00 00 00 00	 push	 OFFSET ??_C@_0BJ@HCOFCKO@?4?4?2Data?2ExData?2Voter?4ini?$AA@
  0029e	6a 00		 push	 0
  002a0	68 00 00 00 00	 push	 OFFSET ??_C@_0BF@EFFIBEBE@MMOTOP_BonusSoulBank?$AA@
  002a5	68 00 00 00 00	 push	 OFFSET ??_C@_06MLPMCPDE@ExTeam?$AA@
  002aa	ff 15 00 00 00
	00		 call	 DWORD PTR __imp__GetPrivateProfileIntA@16
  002b0	8b 4d fc	 mov	 ecx, DWORD PTR _this$[ebp]
  002b3	89 81 f8 00 00
	00		 mov	 DWORD PTR [ecx+248], eax

; 79   : 	this->MMOTOP_BonusLifeBank = GetPrivateProfileInt("ExTeam", "MMOTOP_BonusLifeBank", 0, VOTER_DIR);

  002b9	68 00 00 00 00	 push	 OFFSET ??_C@_0BJ@HCOFCKO@?4?4?2Data?2ExData?2Voter?4ini?$AA@
  002be	6a 00		 push	 0
  002c0	68 00 00 00 00	 push	 OFFSET ??_C@_0BF@IBHHEHKI@MMOTOP_BonusLifeBank?$AA@
  002c5	68 00 00 00 00	 push	 OFFSET ??_C@_06MLPMCPDE@ExTeam?$AA@
  002ca	ff 15 00 00 00
	00		 call	 DWORD PTR __imp__GetPrivateProfileIntA@16
  002d0	8b 4d fc	 mov	 ecx, DWORD PTR _this$[ebp]
  002d3	89 81 fc 00 00
	00		 mov	 DWORD PTR [ecx+252], eax

; 80   : 
; 81   : 	this->MMOTOP_SMSBonusWcoinC = GetPrivateProfileInt("ExTeam", "MMOTOP_SMSBonusWcoinC", 0, VOTER_DIR);

  002d9	68 00 00 00 00	 push	 OFFSET ??_C@_0BJ@HCOFCKO@?4?4?2Data?2ExData?2Voter?4ini?$AA@
  002de	6a 00		 push	 0
  002e0	68 00 00 00 00	 push	 OFFSET ??_C@_0BG@LEGEMHED@MMOTOP_SMSBonusWcoinC?$AA@
  002e5	68 00 00 00 00	 push	 OFFSET ??_C@_06MLPMCPDE@ExTeam?$AA@
  002ea	ff 15 00 00 00
	00		 call	 DWORD PTR __imp__GetPrivateProfileIntA@16
  002f0	8b 4d fc	 mov	 ecx, DWORD PTR _this$[ebp]
  002f3	89 81 00 01 00
	00		 mov	 DWORD PTR [ecx+256], eax

; 82   : 	this->MMOTOP_SMSBonusWcoinP = GetPrivateProfileInt("ExTeam", "MMOTOP_SMSBonusWcoinP", 0, VOTER_DIR);

  002f9	68 00 00 00 00	 push	 OFFSET ??_C@_0BJ@HCOFCKO@?4?4?2Data?2ExData?2Voter?4ini?$AA@
  002fe	6a 00		 push	 0
  00300	68 00 00 00 00	 push	 OFFSET ??_C@_0BG@NFILIGNB@MMOTOP_SMSBonusWcoinP?$AA@
  00305	68 00 00 00 00	 push	 OFFSET ??_C@_06MLPMCPDE@ExTeam?$AA@
  0030a	ff 15 00 00 00
	00		 call	 DWORD PTR __imp__GetPrivateProfileIntA@16
  00310	8b 4d fc	 mov	 ecx, DWORD PTR _this$[ebp]
  00313	89 81 04 01 00
	00		 mov	 DWORD PTR [ecx+260], eax

; 83   : 	this->MMOTOP_SMSBonusWcoinG = GetPrivateProfileInt("ExTeam", "MMOTOP_SMSBonusWcoinG", 0, VOTER_DIR);

  00319	68 00 00 00 00	 push	 OFFSET ??_C@_0BJ@HCOFCKO@?4?4?2Data?2ExData?2Voter?4ini?$AA@
  0031e	6a 00		 push	 0
  00320	68 00 00 00 00	 push	 OFFSET ??_C@_0BG@NAAIACEH@MMOTOP_SMSBonusWcoinG?$AA@
  00325	68 00 00 00 00	 push	 OFFSET ??_C@_06MLPMCPDE@ExTeam?$AA@
  0032a	ff 15 00 00 00
	00		 call	 DWORD PTR __imp__GetPrivateProfileIntA@16
  00330	8b 4d fc	 mov	 ecx, DWORD PTR _this$[ebp]
  00333	89 81 08 01 00
	00		 mov	 DWORD PTR [ecx+264], eax

; 84   : 	this->MMOTOP_SMSBonusExCred = GetPrivateProfileInt("ExTeam", "MMOTOP_SMSBonusExCred", 0, VOTER_DIR);

  00339	68 00 00 00 00	 push	 OFFSET ??_C@_0BJ@HCOFCKO@?4?4?2Data?2ExData?2Voter?4ini?$AA@
  0033e	6a 00		 push	 0
  00340	68 00 00 00 00	 push	 OFFSET ??_C@_0BG@HIINPHOD@MMOTOP_SMSBonusExCred?$AA@
  00345	68 00 00 00 00	 push	 OFFSET ??_C@_06MLPMCPDE@ExTeam?$AA@
  0034a	ff 15 00 00 00
	00		 call	 DWORD PTR __imp__GetPrivateProfileIntA@16
  00350	8b 4d fc	 mov	 ecx, DWORD PTR _this$[ebp]
  00353	89 81 0c 01 00
	00		 mov	 DWORD PTR [ecx+268], eax

; 85   : 
; 86   : 	this->MMOTOP_SMSBonusItemActive = GetPrivateProfileInt("ExTeam", "MMOTOP_SMSBonusItemActive", 0, VOTER_DIR);

  00359	68 00 00 00 00	 push	 OFFSET ??_C@_0BJ@HCOFCKO@?4?4?2Data?2ExData?2Voter?4ini?$AA@
  0035e	6a 00		 push	 0
  00360	68 00 00 00 00	 push	 OFFSET ??_C@_0BK@MEJJGGNN@MMOTOP_SMSBonusItemActive?$AA@
  00365	68 00 00 00 00	 push	 OFFSET ??_C@_06MLPMCPDE@ExTeam?$AA@
  0036a	ff 15 00 00 00
	00		 call	 DWORD PTR __imp__GetPrivateProfileIntA@16
  00370	8b 4d fc	 mov	 ecx, DWORD PTR _this$[ebp]
  00373	89 81 10 01 00
	00		 mov	 DWORD PTR [ecx+272], eax

; 87   : 	this->MMOTOP_SMSBonusItemType = GetPrivateProfileInt("ExTeam", "MMOTOP_SMSBonusItemType", 0, VOTER_DIR);

  00379	68 00 00 00 00	 push	 OFFSET ??_C@_0BJ@HCOFCKO@?4?4?2Data?2ExData?2Voter?4ini?$AA@
  0037e	6a 00		 push	 0
  00380	68 00 00 00 00	 push	 OFFSET ??_C@_0BI@MLLFAMGI@MMOTOP_SMSBonusItemType?$AA@
  00385	68 00 00 00 00	 push	 OFFSET ??_C@_06MLPMCPDE@ExTeam?$AA@
  0038a	ff 15 00 00 00
	00		 call	 DWORD PTR __imp__GetPrivateProfileIntA@16
  00390	8b 4d fc	 mov	 ecx, DWORD PTR _this$[ebp]
  00393	89 81 14 01 00
	00		 mov	 DWORD PTR [ecx+276], eax

; 88   : 	this->MMOTOP_SMSBonusItemIndex = GetPrivateProfileInt("ExTeam", "MMOTOP_SMSBonusItemIndex", 0, VOTER_DIR);

  00399	68 00 00 00 00	 push	 OFFSET ??_C@_0BJ@HCOFCKO@?4?4?2Data?2ExData?2Voter?4ini?$AA@
  0039e	6a 00		 push	 0
  003a0	68 00 00 00 00	 push	 OFFSET ??_C@_0BJ@BGLHDFIH@MMOTOP_SMSBonusItemIndex?$AA@
  003a5	68 00 00 00 00	 push	 OFFSET ??_C@_06MLPMCPDE@ExTeam?$AA@
  003aa	ff 15 00 00 00
	00		 call	 DWORD PTR __imp__GetPrivateProfileIntA@16
  003b0	8b 4d fc	 mov	 ecx, DWORD PTR _this$[ebp]
  003b3	89 81 18 01 00
	00		 mov	 DWORD PTR [ecx+280], eax

; 89   : 	this->MMOTOP_SMSBonusItemLevel = GetPrivateProfileInt("ExTeam", "MMOTOP_SMSBonusItemLevel", 0, VOTER_DIR);

  003b9	68 00 00 00 00	 push	 OFFSET ??_C@_0BJ@HCOFCKO@?4?4?2Data?2ExData?2Voter?4ini?$AA@
  003be	6a 00		 push	 0
  003c0	68 00 00 00 00	 push	 OFFSET ??_C@_0BJ@OFBENNGE@MMOTOP_SMSBonusItemLevel?$AA@
  003c5	68 00 00 00 00	 push	 OFFSET ??_C@_06MLPMCPDE@ExTeam?$AA@
  003ca	ff 15 00 00 00
	00		 call	 DWORD PTR __imp__GetPrivateProfileIntA@16
  003d0	8b 4d fc	 mov	 ecx, DWORD PTR _this$[ebp]
  003d3	89 81 1c 01 00
	00		 mov	 DWORD PTR [ecx+284], eax

; 90   : 
; 91   : 	this->MMOTOP_SMSBonusChaosBank = GetPrivateProfileInt("ExTeam", "MMOTOP_SMSBonusChaosBank", 0, VOTER_DIR);

  003d9	68 00 00 00 00	 push	 OFFSET ??_C@_0BJ@HCOFCKO@?4?4?2Data?2ExData?2Voter?4ini?$AA@
  003de	6a 00		 push	 0
  003e0	68 00 00 00 00	 push	 OFFSET ??_C@_0BJ@KDAALDHH@MMOTOP_SMSBonusChaosBank?$AA@
  003e5	68 00 00 00 00	 push	 OFFSET ??_C@_06MLPMCPDE@ExTeam?$AA@
  003ea	ff 15 00 00 00
	00		 call	 DWORD PTR __imp__GetPrivateProfileIntA@16
  003f0	8b 4d fc	 mov	 ecx, DWORD PTR _this$[ebp]
  003f3	89 81 20 01 00
	00		 mov	 DWORD PTR [ecx+288], eax

; 92   : 	this->MMOTOP_SMSBonusBlessBank = GetPrivateProfileInt("ExTeam", "MMOTOP_SMSBonusBlessBank", 0, VOTER_DIR);

  003f9	68 00 00 00 00	 push	 OFFSET ??_C@_0BJ@HCOFCKO@?4?4?2Data?2ExData?2Voter?4ini?$AA@
  003fe	6a 00		 push	 0
  00400	68 00 00 00 00	 push	 OFFSET ??_C@_0BJ@DFBKHBAF@MMOTOP_SMSBonusBlessBank?$AA@
  00405	68 00 00 00 00	 push	 OFFSET ??_C@_06MLPMCPDE@ExTeam?$AA@
  0040a	ff 15 00 00 00
	00		 call	 DWORD PTR __imp__GetPrivateProfileIntA@16
  00410	8b 4d fc	 mov	 ecx, DWORD PTR _this$[ebp]
  00413	89 81 24 01 00
	00		 mov	 DWORD PTR [ecx+292], eax

; 93   : 	this->MMOTOP_SMSBonusSoulBank = GetPrivateProfileInt("ExTeam", "MMOTOP_SMSBonusSoulBank", 0, VOTER_DIR);

  00419	68 00 00 00 00	 push	 OFFSET ??_C@_0BJ@HCOFCKO@?4?4?2Data?2ExData?2Voter?4ini?$AA@
  0041e	6a 00		 push	 0
  00420	68 00 00 00 00	 push	 OFFSET ??_C@_0BI@INDOBIDH@MMOTOP_SMSBonusSoulBank?$AA@
  00425	68 00 00 00 00	 push	 OFFSET ??_C@_06MLPMCPDE@ExTeam?$AA@
  0042a	ff 15 00 00 00
	00		 call	 DWORD PTR __imp__GetPrivateProfileIntA@16
  00430	8b 4d fc	 mov	 ecx, DWORD PTR _this$[ebp]
  00433	89 81 28 01 00
	00		 mov	 DWORD PTR [ecx+296], eax

; 94   : 	this->MMOTOP_SMSBonusLifeBank = GetPrivateProfileInt("ExTeam", "MMOTOP_SMSBonusLifeBank", 0, VOTER_DIR);

  00439	68 00 00 00 00	 push	 OFFSET ??_C@_0BJ@HCOFCKO@?4?4?2Data?2ExData?2Voter?4ini?$AA@
  0043e	6a 00		 push	 0
  00440	68 00 00 00 00	 push	 OFFSET ??_C@_0BI@EJBBELIL@MMOTOP_SMSBonusLifeBank?$AA@
  00445	68 00 00 00 00	 push	 OFFSET ??_C@_06MLPMCPDE@ExTeam?$AA@
  0044a	ff 15 00 00 00
	00		 call	 DWORD PTR __imp__GetPrivateProfileIntA@16
  00450	8b 4d fc	 mov	 ecx, DWORD PTR _this$[ebp]
  00453	89 81 2c 01 00
	00		 mov	 DWORD PTR [ecx+300], eax

; 95   : 
; 96   : 	// ----
; 97   : 
; 98   : 	this->QTOP_DeleteVoteFile = GetPrivateProfileInt("ExTeam", "QTOP_DeleteVoteFile", 1, VOTER_DIR);

  00459	68 00 00 00 00	 push	 OFFSET ??_C@_0BJ@HCOFCKO@?4?4?2Data?2ExData?2Voter?4ini?$AA@
  0045e	6a 01		 push	 1
  00460	68 00 00 00 00	 push	 OFFSET ??_C@_0BE@CCDEDIEG@QTOP_DeleteVoteFile?$AA@
  00465	68 00 00 00 00	 push	 OFFSET ??_C@_06MLPMCPDE@ExTeam?$AA@
  0046a	ff 15 00 00 00
	00		 call	 DWORD PTR __imp__GetPrivateProfileIntA@16
  00470	85 c0		 test	 eax, eax
  00472	0f 95 c0	 setne	 al
  00475	8b 4d fc	 mov	 ecx, DWORD PTR _this$[ebp]
  00478	88 81 31 01 00
	00		 mov	 BYTE PTR [ecx+305], al

; 99   : 	this->QTOP_DownloadFile = GetPrivateProfileInt("ExTeam", "QTOP_DownloadFile", 1, VOTER_DIR);

  0047e	68 00 00 00 00	 push	 OFFSET ??_C@_0BJ@HCOFCKO@?4?4?2Data?2ExData?2Voter?4ini?$AA@
  00483	6a 01		 push	 1
  00485	68 00 00 00 00	 push	 OFFSET ??_C@_0BC@HPDCHCHP@QTOP_DownloadFile?$AA@
  0048a	68 00 00 00 00	 push	 OFFSET ??_C@_06MLPMCPDE@ExTeam?$AA@
  0048f	ff 15 00 00 00
	00		 call	 DWORD PTR __imp__GetPrivateProfileIntA@16
  00495	85 c0		 test	 eax, eax
  00497	0f 95 c0	 setne	 al
  0049a	8b 4d fc	 mov	 ecx, DWORD PTR _this$[ebp]
  0049d	88 81 32 01 00
	00		 mov	 BYTE PTR [ecx+306], al

; 100  : 
; 101  : 	this->QTOP_UPDATE_VOTER = GetPrivateProfileInt("ExTeam", "QTOP_UPDATE_VOTER", 2, VOTER_DIR);

  004a3	68 00 00 00 00	 push	 OFFSET ??_C@_0BJ@HCOFCKO@?4?4?2Data?2ExData?2Voter?4ini?$AA@
  004a8	6a 02		 push	 2
  004aa	68 00 00 00 00	 push	 OFFSET ??_C@_0BC@JLLLCKLO@QTOP_UPDATE_VOTER?$AA@
  004af	68 00 00 00 00	 push	 OFFSET ??_C@_06MLPMCPDE@ExTeam?$AA@
  004b4	ff 15 00 00 00
	00		 call	 DWORD PTR __imp__GetPrivateProfileIntA@16
  004ba	8b 4d fc	 mov	 ecx, DWORD PTR _this$[ebp]
  004bd	89 81 34 01 00
	00		 mov	 DWORD PTR [ecx+308], eax

; 102  : 
; 103  : 	GetPrivateProfileString("ExTeam", "QTOP_VoteFile", "votes/aba02abed8021ba31a4499a390aa8afa4679c6d1.txt?454b02beba57cfd5896709ff1ea8f1aa", this->QTOP_FileName, sizeof(this->QTOP_FileName), VOTER_DIR);

  004c3	68 00 00 00 00	 push	 OFFSET ??_C@_0BJ@HCOFCKO@?4?4?2Data?2ExData?2Voter?4ini?$AA@
  004c8	68 c8 00 00 00	 push	 200			; 000000c8H
  004cd	8b 45 fc	 mov	 eax, DWORD PTR _this$[ebp]
  004d0	05 38 01 00 00	 add	 eax, 312		; 00000138H
  004d5	50		 push	 eax
  004d6	68 00 00 00 00	 push	 OFFSET ??_C@_0FE@DBCBBMPJ@votes?1aba02abed8021ba31a4499a390@
  004db	68 00 00 00 00	 push	 OFFSET ??_C@_0O@KPGCIBKI@QTOP_VoteFile?$AA@
  004e0	68 00 00 00 00	 push	 OFFSET ??_C@_06MLPMCPDE@ExTeam?$AA@
  004e5	ff 15 00 00 00
	00		 call	 DWORD PTR __imp__GetPrivateProfileStringA@24

; 104  : 
; 105  : 	this->QTOP_BonusWcoinC = GetPrivateProfileInt("ExTeam", "QTOP_BonusWcoinC", 0, VOTER_DIR);

  004eb	68 00 00 00 00	 push	 OFFSET ??_C@_0BJ@HCOFCKO@?4?4?2Data?2ExData?2Voter?4ini?$AA@
  004f0	6a 00		 push	 0
  004f2	68 00 00 00 00	 push	 OFFSET ??_C@_0BB@JELJELNN@QTOP_BonusWcoinC?$AA@
  004f7	68 00 00 00 00	 push	 OFFSET ??_C@_06MLPMCPDE@ExTeam?$AA@
  004fc	ff 15 00 00 00
	00		 call	 DWORD PTR __imp__GetPrivateProfileIntA@16
  00502	8b 4d fc	 mov	 ecx, DWORD PTR _this$[ebp]
  00505	89 81 00 02 00
	00		 mov	 DWORD PTR [ecx+512], eax

; 106  : 	this->QTOP_BonusWcoinP = GetPrivateProfileInt("ExTeam", "QTOP_BonusWcoinP", 0, VOTER_DIR);

  0050b	68 00 00 00 00	 push	 OFFSET ??_C@_0BJ@HCOFCKO@?4?4?2Data?2ExData?2Voter?4ini?$AA@
  00510	6a 00		 push	 0
  00512	68 00 00 00 00	 push	 OFFSET ??_C@_0BB@PFFGAKEP@QTOP_BonusWcoinP?$AA@
  00517	68 00 00 00 00	 push	 OFFSET ??_C@_06MLPMCPDE@ExTeam?$AA@
  0051c	ff 15 00 00 00
	00		 call	 DWORD PTR __imp__GetPrivateProfileIntA@16
  00522	8b 4d fc	 mov	 ecx, DWORD PTR _this$[ebp]
  00525	89 81 04 02 00
	00		 mov	 DWORD PTR [ecx+516], eax

; 107  : 	this->QTOP_BonusWcoinG = GetPrivateProfileInt("ExTeam", "QTOP_BonusWcoinG", 0, VOTER_DIR);

  0052b	68 00 00 00 00	 push	 OFFSET ??_C@_0BJ@HCOFCKO@?4?4?2Data?2ExData?2Voter?4ini?$AA@
  00530	6a 00		 push	 0
  00532	68 00 00 00 00	 push	 OFFSET ??_C@_0BB@PANFIONJ@QTOP_BonusWcoinG?$AA@
  00537	68 00 00 00 00	 push	 OFFSET ??_C@_06MLPMCPDE@ExTeam?$AA@
  0053c	ff 15 00 00 00
	00		 call	 DWORD PTR __imp__GetPrivateProfileIntA@16
  00542	8b 4d fc	 mov	 ecx, DWORD PTR _this$[ebp]
  00545	89 81 08 02 00
	00		 mov	 DWORD PTR [ecx+520], eax

; 108  : 	this->QTOP_BonusExCred = GetPrivateProfileInt("ExTeam", "QTOP_BonusExCred", 0, VOTER_DIR);

  0054b	68 00 00 00 00	 push	 OFFSET ??_C@_0BJ@HCOFCKO@?4?4?2Data?2ExData?2Voter?4ini?$AA@
  00550	6a 00		 push	 0
  00552	68 00 00 00 00	 push	 OFFSET ??_C@_0BB@FIFAHLHN@QTOP_BonusExCred?$AA@
  00557	68 00 00 00 00	 push	 OFFSET ??_C@_06MLPMCPDE@ExTeam?$AA@
  0055c	ff 15 00 00 00
	00		 call	 DWORD PTR __imp__GetPrivateProfileIntA@16
  00562	8b 4d fc	 mov	 ecx, DWORD PTR _this$[ebp]
  00565	89 81 0c 02 00
	00		 mov	 DWORD PTR [ecx+524], eax

; 109  : 
; 110  : 	this->QTOP_BonusItemActive = GetPrivateProfileInt("ExTeam", "QTOP_BonusItemActive", 0, VOTER_DIR);

  0056b	68 00 00 00 00	 push	 OFFSET ??_C@_0BJ@HCOFCKO@?4?4?2Data?2ExData?2Voter?4ini?$AA@
  00570	6a 00		 push	 0
  00572	68 00 00 00 00	 push	 OFFSET ??_C@_0BF@HONBIJDE@QTOP_BonusItemActive?$AA@
  00577	68 00 00 00 00	 push	 OFFSET ??_C@_06MLPMCPDE@ExTeam?$AA@
  0057c	ff 15 00 00 00
	00		 call	 DWORD PTR __imp__GetPrivateProfileIntA@16
  00582	8b 4d fc	 mov	 ecx, DWORD PTR _this$[ebp]
  00585	89 81 10 02 00
	00		 mov	 DWORD PTR [ecx+528], eax

; 111  : 	this->QTOP_BonusItemType = GetPrivateProfileInt("ExTeam", "QTOP_BonusItemType", 0, VOTER_DIR);

  0058b	68 00 00 00 00	 push	 OFFSET ??_C@_0BJ@HCOFCKO@?4?4?2Data?2ExData?2Voter?4ini?$AA@
  00590	6a 00		 push	 0
  00592	68 00 00 00 00	 push	 OFFSET ??_C@_0BD@MAHJEECK@QTOP_BonusItemType?$AA@
  00597	68 00 00 00 00	 push	 OFFSET ??_C@_06MLPMCPDE@ExTeam?$AA@
  0059c	ff 15 00 00 00
	00		 call	 DWORD PTR __imp__GetPrivateProfileIntA@16
  005a2	8b 4d fc	 mov	 ecx, DWORD PTR _this$[ebp]
  005a5	89 81 14 02 00
	00		 mov	 DWORD PTR [ecx+532], eax

; 112  : 	this->QTOP_BonusItemIndex = GetPrivateProfileInt("ExTeam", "QTOP_BonusItemIndex", 0, VOTER_DIR);

  005ab	68 00 00 00 00	 push	 OFFSET ??_C@_0BJ@HCOFCKO@?4?4?2Data?2ExData?2Voter?4ini?$AA@
  005b0	6a 00		 push	 0
  005b2	68 00 00 00 00	 push	 OFFSET ??_C@_0BE@IOGONJHD@QTOP_BonusItemIndex?$AA@
  005b7	68 00 00 00 00	 push	 OFFSET ??_C@_06MLPMCPDE@ExTeam?$AA@
  005bc	ff 15 00 00 00
	00		 call	 DWORD PTR __imp__GetPrivateProfileIntA@16
  005c2	8b 4d fc	 mov	 ecx, DWORD PTR _this$[ebp]
  005c5	89 81 18 02 00
	00		 mov	 DWORD PTR [ecx+536], eax

; 113  : 	this->QTOP_BonusItemLevel = GetPrivateProfileInt("ExTeam", "QTOP_BonusItemLevel", 0, VOTER_DIR);

  005cb	68 00 00 00 00	 push	 OFFSET ??_C@_0BJ@HCOFCKO@?4?4?2Data?2ExData?2Voter?4ini?$AA@
  005d0	6a 00		 push	 0
  005d2	68 00 00 00 00	 push	 OFFSET ??_C@_0BE@HNMNDBJA@QTOP_BonusItemLevel?$AA@
  005d7	68 00 00 00 00	 push	 OFFSET ??_C@_06MLPMCPDE@ExTeam?$AA@
  005dc	ff 15 00 00 00
	00		 call	 DWORD PTR __imp__GetPrivateProfileIntA@16
  005e2	8b 4d fc	 mov	 ecx, DWORD PTR _this$[ebp]
  005e5	89 81 1c 02 00
	00		 mov	 DWORD PTR [ecx+540], eax

; 114  : 
; 115  : 	this->QTOP_BonusChaosBank = GetPrivateProfileInt("ExTeam", "QTOP_BonusChaosBank", 0, VOTER_DIR);

  005eb	68 00 00 00 00	 push	 OFFSET ??_C@_0BJ@HCOFCKO@?4?4?2Data?2ExData?2Voter?4ini?$AA@
  005f0	6a 00		 push	 0
  005f2	68 00 00 00 00	 push	 OFFSET ??_C@_0BE@DLNJFPID@QTOP_BonusChaosBank?$AA@
  005f7	68 00 00 00 00	 push	 OFFSET ??_C@_06MLPMCPDE@ExTeam?$AA@
  005fc	ff 15 00 00 00
	00		 call	 DWORD PTR __imp__GetPrivateProfileIntA@16
  00602	8b 4d fc	 mov	 ecx, DWORD PTR _this$[ebp]
  00605	89 81 20 02 00
	00		 mov	 DWORD PTR [ecx+544], eax

; 116  : 	this->QTOP_BonusBlessBank = GetPrivateProfileInt("ExTeam", "QTOP_BonusBlessBank", 0, VOTER_DIR);

  0060b	68 00 00 00 00	 push	 OFFSET ??_C@_0BJ@HCOFCKO@?4?4?2Data?2ExData?2Voter?4ini?$AA@
  00610	6a 00		 push	 0
  00612	68 00 00 00 00	 push	 OFFSET ??_C@_0BE@KNMDJNPB@QTOP_BonusBlessBank?$AA@
  00617	68 00 00 00 00	 push	 OFFSET ??_C@_06MLPMCPDE@ExTeam?$AA@
  0061c	ff 15 00 00 00
	00		 call	 DWORD PTR __imp__GetPrivateProfileIntA@16
  00622	8b 4d fc	 mov	 ecx, DWORD PTR _this$[ebp]
  00625	89 81 24 02 00
	00		 mov	 DWORD PTR [ecx+548], eax

; 117  : 	this->QTOP_BonusSoulBank = GetPrivateProfileInt("ExTeam", "QTOP_BonusSoulBank", 0, VOTER_DIR);

  0062b	68 00 00 00 00	 push	 OFFSET ??_C@_0BJ@HCOFCKO@?4?4?2Data?2ExData?2Voter?4ini?$AA@
  00630	6a 00		 push	 0
  00632	68 00 00 00 00	 push	 OFFSET ??_C@_0BD@IGPCFAHF@QTOP_BonusSoulBank?$AA@
  00637	68 00 00 00 00	 push	 OFFSET ??_C@_06MLPMCPDE@ExTeam?$AA@
  0063c	ff 15 00 00 00
	00		 call	 DWORD PTR __imp__GetPrivateProfileIntA@16
  00642	8b 4d fc	 mov	 ecx, DWORD PTR _this$[ebp]
  00645	89 81 28 02 00
	00		 mov	 DWORD PTR [ecx+552], eax

; 118  : 	this->QTOP_BonusLifeBank = GetPrivateProfileInt("ExTeam", "QTOP_BonusLifeBank", 0, VOTER_DIR);

  0064b	68 00 00 00 00	 push	 OFFSET ??_C@_0BJ@HCOFCKO@?4?4?2Data?2ExData?2Voter?4ini?$AA@
  00650	6a 00		 push	 0
  00652	68 00 00 00 00	 push	 OFFSET ??_C@_0BD@ECNNADMJ@QTOP_BonusLifeBank?$AA@
  00657	68 00 00 00 00	 push	 OFFSET ??_C@_06MLPMCPDE@ExTeam?$AA@
  0065c	ff 15 00 00 00
	00		 call	 DWORD PTR __imp__GetPrivateProfileIntA@16
  00662	8b 4d fc	 mov	 ecx, DWORD PTR _this$[ebp]
  00665	89 81 2c 02 00
	00		 mov	 DWORD PTR [ecx+556], eax

; 119  : 
; 120  : 	this->QTOP_SMSBonusWcoinC = GetPrivateProfileInt("ExTeam", "QTOP_SMSBonusWcoinC", 0, VOTER_DIR);

  0066b	68 00 00 00 00	 push	 OFFSET ??_C@_0BJ@HCOFCKO@?4?4?2Data?2ExData?2Voter?4ini?$AA@
  00670	6a 00		 push	 0
  00672	68 00 00 00 00	 push	 OFFSET ??_C@_0BE@IOBCDMMJ@QTOP_SMSBonusWcoinC?$AA@
  00677	68 00 00 00 00	 push	 OFFSET ??_C@_06MLPMCPDE@ExTeam?$AA@
  0067c	ff 15 00 00 00
	00		 call	 DWORD PTR __imp__GetPrivateProfileIntA@16
  00682	8b 4d fc	 mov	 ecx, DWORD PTR _this$[ebp]
  00685	89 81 30 02 00
	00		 mov	 DWORD PTR [ecx+560], eax

; 121  : 	this->QTOP_SMSBonusWcoinP = GetPrivateProfileInt("ExTeam", "QTOP_SMSBonusWcoinP", 0, VOTER_DIR);

  0068b	68 00 00 00 00	 push	 OFFSET ??_C@_0BJ@HCOFCKO@?4?4?2Data?2ExData?2Voter?4ini?$AA@
  00690	6a 00		 push	 0
  00692	68 00 00 00 00	 push	 OFFSET ??_C@_0BE@OPPNHNFL@QTOP_SMSBonusWcoinP?$AA@
  00697	68 00 00 00 00	 push	 OFFSET ??_C@_06MLPMCPDE@ExTeam?$AA@
  0069c	ff 15 00 00 00
	00		 call	 DWORD PTR __imp__GetPrivateProfileIntA@16
  006a2	8b 4d fc	 mov	 ecx, DWORD PTR _this$[ebp]
  006a5	89 81 34 02 00
	00		 mov	 DWORD PTR [ecx+564], eax

; 122  : 	this->QTOP_SMSBonusWcoinG = GetPrivateProfileInt("ExTeam", "QTOP_SMSBonusWcoinG", 0, VOTER_DIR);

  006ab	68 00 00 00 00	 push	 OFFSET ??_C@_0BJ@HCOFCKO@?4?4?2Data?2ExData?2Voter?4ini?$AA@
  006b0	6a 00		 push	 0
  006b2	68 00 00 00 00	 push	 OFFSET ??_C@_0BE@OKHOPJMN@QTOP_SMSBonusWcoinG?$AA@
  006b7	68 00 00 00 00	 push	 OFFSET ??_C@_06MLPMCPDE@ExTeam?$AA@
  006bc	ff 15 00 00 00
	00		 call	 DWORD PTR __imp__GetPrivateProfileIntA@16
  006c2	8b 4d fc	 mov	 ecx, DWORD PTR _this$[ebp]
  006c5	89 81 38 02 00
	00		 mov	 DWORD PTR [ecx+568], eax

; 123  : 	this->QTOP_SMSBonusExCred = GetPrivateProfileInt("ExTeam", "QTOP_SMSBonusExCred", 0, VOTER_DIR);

  006cb	68 00 00 00 00	 push	 OFFSET ??_C@_0BJ@HCOFCKO@?4?4?2Data?2ExData?2Voter?4ini?$AA@
  006d0	6a 00		 push	 0
  006d2	68 00 00 00 00	 push	 OFFSET ??_C@_0BE@ECPLAMGJ@QTOP_SMSBonusExCred?$AA@
  006d7	68 00 00 00 00	 push	 OFFSET ??_C@_06MLPMCPDE@ExTeam?$AA@
  006dc	ff 15 00 00 00
	00		 call	 DWORD PTR __imp__GetPrivateProfileIntA@16
  006e2	8b 4d fc	 mov	 ecx, DWORD PTR _this$[ebp]
  006e5	89 81 3c 02 00
	00		 mov	 DWORD PTR [ecx+572], eax

; 124  : 
; 125  : 	this->QTOP_SMSBonusItemActive = GetPrivateProfileInt("ExTeam", "QTOP_SMSBonusItemActive", 0, VOTER_DIR);

  006eb	68 00 00 00 00	 push	 OFFSET ??_C@_0BJ@HCOFCKO@?4?4?2Data?2ExData?2Voter?4ini?$AA@
  006f0	6a 00		 push	 0
  006f2	68 00 00 00 00	 push	 OFFSET ??_C@_0BI@EAIFKLHB@QTOP_SMSBonusItemActive?$AA@
  006f7	68 00 00 00 00	 push	 OFFSET ??_C@_06MLPMCPDE@ExTeam?$AA@
  006fc	ff 15 00 00 00
	00		 call	 DWORD PTR __imp__GetPrivateProfileIntA@16
  00702	8b 4d fc	 mov	 ecx, DWORD PTR _this$[ebp]
  00705	89 81 40 02 00
	00		 mov	 DWORD PTR [ecx+576], eax

; 126  : 	this->QTOP_SMSBonusItemType = GetPrivateProfileInt("ExTeam", "QTOP_SMSBonusItemType", 0, VOTER_DIR);

  0070b	68 00 00 00 00	 push	 OFFSET ??_C@_0BJ@HCOFCKO@?4?4?2Data?2ExData?2Voter?4ini?$AA@
  00710	6a 00		 push	 0
  00712	68 00 00 00 00	 push	 OFFSET ??_C@_0BG@CALGGNEL@QTOP_SMSBonusItemType?$AA@
  00717	68 00 00 00 00	 push	 OFFSET ??_C@_06MLPMCPDE@ExTeam?$AA@
  0071c	ff 15 00 00 00
	00		 call	 DWORD PTR __imp__GetPrivateProfileIntA@16
  00722	8b 4d fc	 mov	 ecx, DWORD PTR _this$[ebp]
  00725	89 81 44 02 00
	00		 mov	 DWORD PTR [ecx+580], eax

; 127  : 	this->QTOP_SMSBonusItemIndex = GetPrivateProfileInt("ExTeam", "QTOP_SMSBonusItemIndex", 0, VOTER_DIR);

  0072b	68 00 00 00 00	 push	 OFFSET ??_C@_0BJ@HCOFCKO@?4?4?2Data?2ExData?2Voter?4ini?$AA@
  00730	6a 00		 push	 0
  00732	68 00 00 00 00	 push	 OFFSET ??_C@_0BH@LEDLEHJE@QTOP_SMSBonusItemIndex?$AA@
  00737	68 00 00 00 00	 push	 OFFSET ??_C@_06MLPMCPDE@ExTeam?$AA@
  0073c	ff 15 00 00 00
	00		 call	 DWORD PTR __imp__GetPrivateProfileIntA@16
  00742	8b 4d fc	 mov	 ecx, DWORD PTR _this$[ebp]
  00745	89 81 48 02 00
	00		 mov	 DWORD PTR [ecx+584], eax

; 128  : 	this->QTOP_SMSBonusItemLevel = GetPrivateProfileInt("ExTeam", "QTOP_SMSBonusItemLevel", 0, VOTER_DIR);

  0074b	68 00 00 00 00	 push	 OFFSET ??_C@_0BJ@HCOFCKO@?4?4?2Data?2ExData?2Voter?4ini?$AA@
  00750	6a 00		 push	 0
  00752	68 00 00 00 00	 push	 OFFSET ??_C@_0BH@EHJIKPHH@QTOP_SMSBonusItemLevel?$AA@
  00757	68 00 00 00 00	 push	 OFFSET ??_C@_06MLPMCPDE@ExTeam?$AA@
  0075c	ff 15 00 00 00
	00		 call	 DWORD PTR __imp__GetPrivateProfileIntA@16
  00762	8b 4d fc	 mov	 ecx, DWORD PTR _this$[ebp]
  00765	89 81 4c 02 00
	00		 mov	 DWORD PTR [ecx+588], eax

; 129  : 
; 130  : 	this->QTOP_SMSBonusChaosBank = GetPrivateProfileInt("ExTeam", "QTOP_SMSBonusChaosBank", 0, VOTER_DIR);

  0076b	68 00 00 00 00	 push	 OFFSET ??_C@_0BJ@HCOFCKO@?4?4?2Data?2ExData?2Voter?4ini?$AA@
  00770	6a 00		 push	 0
  00772	68 00 00 00 00	 push	 OFFSET ??_C@_0BH@BIMMBGE@QTOP_SMSBonusChaosBank?$AA@
  00777	68 00 00 00 00	 push	 OFFSET ??_C@_06MLPMCPDE@ExTeam?$AA@
  0077c	ff 15 00 00 00
	00		 call	 DWORD PTR __imp__GetPrivateProfileIntA@16
  00782	8b 4d fc	 mov	 ecx, DWORD PTR _this$[ebp]
  00785	89 81 50 02 00
	00		 mov	 DWORD PTR [ecx+592], eax

; 131  : 	this->QTOP_SMSBonusBlessBank = GetPrivateProfileInt("ExTeam", "QTOP_SMSBonusBlessBank", 0, VOTER_DIR);

  0078b	68 00 00 00 00	 push	 OFFSET ??_C@_0BJ@HCOFCKO@?4?4?2Data?2ExData?2Voter?4ini?$AA@
  00790	6a 00		 push	 0
  00792	68 00 00 00 00	 push	 OFFSET ??_C@_0BH@JHJGADBG@QTOP_SMSBonusBlessBank?$AA@
  00797	68 00 00 00 00	 push	 OFFSET ??_C@_06MLPMCPDE@ExTeam?$AA@
  0079c	ff 15 00 00 00
	00		 call	 DWORD PTR __imp__GetPrivateProfileIntA@16
  007a2	8b 4d fc	 mov	 ecx, DWORD PTR _this$[ebp]
  007a5	89 81 54 02 00
	00		 mov	 DWORD PTR [ecx+596], eax

; 132  : 	this->QTOP_SMSBonusSoulBank = GetPrivateProfileInt("ExTeam", "QTOP_SMSBonusSoulBank", 0, VOTER_DIR);

  007ab	68 00 00 00 00	 push	 OFFSET ??_C@_0BJ@HCOFCKO@?4?4?2Data?2ExData?2Voter?4ini?$AA@
  007b0	6a 00		 push	 0
  007b2	68 00 00 00 00	 push	 OFFSET ??_C@_0BG@GGDNHJBE@QTOP_SMSBonusSoulBank?$AA@
  007b7	68 00 00 00 00	 push	 OFFSET ??_C@_06MLPMCPDE@ExTeam?$AA@
  007bc	ff 15 00 00 00
	00		 call	 DWORD PTR __imp__GetPrivateProfileIntA@16
  007c2	8b 4d fc	 mov	 ecx, DWORD PTR _this$[ebp]
  007c5	89 81 58 02 00
	00		 mov	 DWORD PTR [ecx+600], eax

; 133  : 	this->QTOP_SMSBonusLifeBank = GetPrivateProfileInt("ExTeam", "QTOP_SMSBonusLifeBank", 0, VOTER_DIR);

  007cb	68 00 00 00 00	 push	 OFFSET ??_C@_0BJ@HCOFCKO@?4?4?2Data?2ExData?2Voter?4ini?$AA@
  007d0	6a 00		 push	 0
  007d2	68 00 00 00 00	 push	 OFFSET ??_C@_0BG@KCBCCKKI@QTOP_SMSBonusLifeBank?$AA@
  007d7	68 00 00 00 00	 push	 OFFSET ??_C@_06MLPMCPDE@ExTeam?$AA@
  007dc	ff 15 00 00 00
	00		 call	 DWORD PTR __imp__GetPrivateProfileIntA@16
  007e2	8b 4d fc	 mov	 ecx, DWORD PTR _this$[ebp]
  007e5	89 81 5c 02 00
	00		 mov	 DWORD PTR [ecx+604], eax

; 134  : 
; 135  : 	// ----
; 136  : 
; 137  : 	this->MMOTOP_BuffTime = GetPrivateProfileInt("ExTeam", "MMOTOP_BuffTime", 0, VOTER_DIR);

  007eb	68 00 00 00 00	 push	 OFFSET ??_C@_0BJ@HCOFCKO@?4?4?2Data?2ExData?2Voter?4ini?$AA@
  007f0	6a 00		 push	 0
  007f2	68 00 00 00 00	 push	 OFFSET ??_C@_0BA@FPOKAIAG@MMOTOP_BuffTime?$AA@
  007f7	68 00 00 00 00	 push	 OFFSET ??_C@_06MLPMCPDE@ExTeam?$AA@
  007fc	ff 15 00 00 00
	00		 call	 DWORD PTR __imp__GetPrivateProfileIntA@16
  00802	8b 4d fc	 mov	 ecx, DWORD PTR _this$[ebp]
  00805	89 81 60 02 00
	00		 mov	 DWORD PTR [ecx+608], eax

; 138  : 	this->MMOTOP_SMSBuffTime = GetPrivateProfileInt("ExTeam", "MMOTOP_SMSBuffTime", 0, VOTER_DIR);

  0080b	68 00 00 00 00	 push	 OFFSET ??_C@_0BJ@HCOFCKO@?4?4?2Data?2ExData?2Voter?4ini?$AA@
  00810	6a 00		 push	 0
  00812	68 00 00 00 00	 push	 OFFSET ??_C@_0BD@PDOBGAFG@MMOTOP_SMSBuffTime?$AA@
  00817	68 00 00 00 00	 push	 OFFSET ??_C@_06MLPMCPDE@ExTeam?$AA@
  0081c	ff 15 00 00 00
	00		 call	 DWORD PTR __imp__GetPrivateProfileIntA@16
  00822	8b 4d fc	 mov	 ecx, DWORD PTR _this$[ebp]
  00825	89 81 64 02 00
	00		 mov	 DWORD PTR [ecx+612], eax

; 139  : 	this->QTOP_BuffTime = GetPrivateProfileInt("ExTeam", "QTOP_BuffTime", 0, VOTER_DIR);

  0082b	68 00 00 00 00	 push	 OFFSET ??_C@_0BJ@HCOFCKO@?4?4?2Data?2ExData?2Voter?4ini?$AA@
  00830	6a 00		 push	 0
  00832	68 00 00 00 00	 push	 OFFSET ??_C@_0O@NOACOOKK@QTOP_BuffTime?$AA@
  00837	68 00 00 00 00	 push	 OFFSET ??_C@_06MLPMCPDE@ExTeam?$AA@
  0083c	ff 15 00 00 00
	00		 call	 DWORD PTR __imp__GetPrivateProfileIntA@16
  00842	8b 4d fc	 mov	 ecx, DWORD PTR _this$[ebp]
  00845	89 81 68 02 00
	00		 mov	 DWORD PTR [ecx+616], eax

; 140  : 	this->QTOP_SMSBuffTime = GetPrivateProfileInt("ExTeam", "QTOP_SMSBuffTime", 0, VOTER_DIR);

  0084b	68 00 00 00 00	 push	 OFFSET ??_C@_0BJ@HCOFCKO@?4?4?2Data?2ExData?2Voter?4ini?$AA@
  00850	6a 00		 push	 0
  00852	68 00 00 00 00	 push	 OFFSET ??_C@_0BB@IFHGPKPD@QTOP_SMSBuffTime?$AA@
  00857	68 00 00 00 00	 push	 OFFSET ??_C@_06MLPMCPDE@ExTeam?$AA@
  0085c	ff 15 00 00 00
	00		 call	 DWORD PTR __imp__GetPrivateProfileIntA@16
  00862	8b 4d fc	 mov	 ecx, DWORD PTR _this$[ebp]
  00865	89 81 6c 02 00
	00		 mov	 DWORD PTR [ecx+620], eax

; 141  : }

  0086b	5f		 pop	 edi
  0086c	5e		 pop	 esi
  0086d	5b		 pop	 ebx
  0086e	8b e5		 mov	 esp, ebp
  00870	5d		 pop	 ebp
  00871	c3		 ret	 0
?Init@Voter@@QAEXXZ ENDP				; Voter::Init
_TEXT	ENDS
PUBLIC	?MootopReed@Voter@@QAEXXZ			; Voter::MootopReed
PUBLIC	??_C@_0BC@ELJALHPL@hInternet?5?$CB?$DN?5NULL?$AA@ ; `string'
PUBLIC	??_C@_0BB@MALKFMPK@hConnect?5?$CB?$DN?5NULL?$AA@ ; `string'
PUBLIC	??_C@_0BB@CCOENLML@hRequest?5?$CB?$DN?5NULL?$AA@ ; `string'
PUBLIC	??_C@_05DLJCAKKO@bSend?$AA@			; `string'
PUBLIC	??_D?$basic_ofstream@DU?$char_traits@D@std@@@std@@QAEXXZ ; std::basic_ofstream<char,std::char_traits<char> >::`vbase destructor'
PUBLIC	??_C@_0BA@HICLJBKB@fnews?4is_open?$CI?$CJ?$AA@	; `string'
PUBLIC	??$?6U?$char_traits@D@std@@@std@@YAAAV?$basic_ostream@DU?$char_traits@D@std@@@0@AAV10@PBD@Z ; std::operator<<<std::char_traits<char> >
PUBLIC	?is_open@?$basic_ofstream@DU?$char_traits@D@std@@@std@@QBE_NXZ ; std::basic_ofstream<char,std::char_traits<char> >::is_open
PUBLIC	??0?$basic_ofstream@DU?$char_traits@D@std@@@std@@QAE@PBDHH@Z ; std::basic_ofstream<char,std::char_traits<char> >::basic_ofstream<char,std::char_traits<char> >
PUBLIC	??_C@_0L@HJNFAJLH@mootop?4txt?$AA@		; `string'
PUBLIC	??_C@_03HAPOJHBM@GET?$AA@			; `string'
PUBLIC	??_C@_0O@DPCADCBH@www?4mmotop?4ru?$AA@		; `string'
PUBLIC	??_C@_01NOFIACDB@w?$AA@				; `string'
PUBLIC	??_C@_06KLDIONEO@MMOTOP?$AA@			; `string'
PUBLIC	??_C@_0L@HNCANJIK@mmotop?4txt?$AA@		; `string'
PUBLIC	__$ArrayPad$
PUBLIC	?Mootop@Voter@@QAEXXZ				; Voter::Mootop
EXTRN	__imp__HttpSendRequestA@20:PROC
EXTRN	__imp__HttpOpenRequestA@32:PROC
EXTRN	__imp__InternetConnectA@32:PROC
EXTRN	_fclose:PROC
EXTRN	_fputs:PROC
EXTRN	__imp__InternetReadFile@16:PROC
EXTRN	_memset:PROC
EXTRN	_fopen:PROC
EXTRN	__imp__InternetCloseHandle@4:PROC
EXTRN	__imp__InternetOpenUrlA@24:PROC
EXTRN	__imp__InternetOpenA@20:PROC
EXTRN	_URLDownloadToFileA@20:PROC
EXTRN	___security_cookie:DWORD
EXTRN	___CxxFrameHandler3:PROC
EXTRN	@__security_check_cookie@4:PROC
EXTRN	__chkstk:PROC
;	COMDAT ??_C@_0BC@ELJALHPL@hInternet?5?$CB?$DN?5NULL?$AA@
CONST	SEGMENT
??_C@_0BC@ELJALHPL@hInternet?5?$CB?$DN?5NULL?$AA@ DB 'hInternet != NULL', 00H ; `string'
CONST	ENDS
;	COMDAT ??_C@_0BB@MALKFMPK@hConnect?5?$CB?$DN?5NULL?$AA@
CONST	SEGMENT
??_C@_0BB@MALKFMPK@hConnect?5?$CB?$DN?5NULL?$AA@ DB 'hConnect != NULL', 00H ; `string'
CONST	ENDS
;	COMDAT ??_C@_0BB@CCOENLML@hRequest?5?$CB?$DN?5NULL?$AA@
CONST	SEGMENT
??_C@_0BB@CCOENLML@hRequest?5?$CB?$DN?5NULL?$AA@ DB 'hRequest != NULL', 00H ; `string'
CONST	ENDS
;	COMDAT ??_C@_05DLJCAKKO@bSend?$AA@
CONST	SEGMENT
??_C@_05DLJCAKKO@bSend?$AA@ DB 'bSend', 00H		; `string'
CONST	ENDS
;	COMDAT ??_C@_0BA@HICLJBKB@fnews?4is_open?$CI?$CJ?$AA@
CONST	SEGMENT
??_C@_0BA@HICLJBKB@fnews?4is_open?$CI?$CJ?$AA@ DB 'fnews.is_open()', 00H ; `string'
CONST	ENDS
;	COMDAT ??_C@_0L@HJNFAJLH@mootop?4txt?$AA@
CONST	SEGMENT
??_C@_0L@HJNFAJLH@mootop?4txt?$AA@ DB 'mootop.txt', 00H	; `string'
CONST	ENDS
;	COMDAT ??_C@_03HAPOJHBM@GET?$AA@
CONST	SEGMENT
??_C@_03HAPOJHBM@GET?$AA@ DB 'GET', 00H			; `string'
CONST	ENDS
;	COMDAT ??_C@_0O@DPCADCBH@www?4mmotop?4ru?$AA@
CONST	SEGMENT
??_C@_0O@DPCADCBH@www?4mmotop?4ru?$AA@ DB 'www.mmotop.ru', 00H ; `string'
CONST	ENDS
;	COMDAT ??_C@_01NOFIACDB@w?$AA@
CONST	SEGMENT
??_C@_01NOFIACDB@w?$AA@ DB 'w', 00H			; `string'
CONST	ENDS
;	COMDAT ??_C@_06KLDIONEO@MMOTOP?$AA@
CONST	SEGMENT
??_C@_06KLDIONEO@MMOTOP?$AA@ DB 'MMOTOP', 00H		; `string'
CONST	ENDS
;	COMDAT ??_C@_0L@HNCANJIK@mmotop?4txt?$AA@
CONST	SEGMENT
??_C@_0L@HNCANJIK@mmotop?4txt?$AA@ DB 'mmotop.txt', 00H	; `string'
CONST	ENDS
xdata$x	SEGMENT
__unwindtable$?Mootop@Voter@@QAEXXZ DD 0ffffffffH
	DD	FLAT:__unwindfunclet$?Mootop@Voter@@QAEXXZ$0
__ehfuncinfo$?Mootop@Voter@@QAEXXZ DD 019930522H
	DD	01H
	DD	FLAT:__unwindtable$?Mootop@Voter@@QAEXXZ
	DD	2 DUP(00H)
	DD	2 DUP(00H)
	DD	00H
	DD	01H
; Function compile flags: /Odtp /ZI
xdata$x	ENDS
_TEXT	SEGMENT
_bRead$224361 = -8424					; size = 4
_dwBytesRead$224360 = -8420				; size = 4
_szData$224359 = -8416					; size = 4096
_fnews$224352 = -4320					; size = 168
_bSend$224135 = -4152					; size = 4
_hRequest$224132 = -4148				; size = 4
_hConnect$224129 = -4144				; size = 4
_hInternet$224127 = -4140				; size = 4
_bRead$224123 = -4136					; size = 4
_dwBytesRead$224122 = -4132				; size = 4
_szData$224121 = -4128					; size = 4096
_file$224115 = -32					; size = 4
_hHandle$224112 = -28					; size = 4
_hSession$224110 = -24					; size = 4
_this$ = -20						; size = 4
__$ArrayPad$ = -16					; size = 4
__$EHRec$ = -12						; size = 12
?Mootop@Voter@@QAEXXZ PROC				; Voter::Mootop
; _this$ = ecx

; 144  : {

  00880	55		 push	 ebp
  00881	8b ec		 mov	 ebp, esp
  00883	6a ff		 push	 -1
  00885	68 00 00 00 00	 push	 __ehhandler$?Mootop@Voter@@QAEXXZ
  0088a	64 a1 00 00 00
	00		 mov	 eax, DWORD PTR fs:0
  00890	50		 push	 eax
  00891	b8 1c 21 00 00	 mov	 eax, 8476		; 0000211cH
  00896	e8 00 00 00 00	 call	 __chkstk
  0089b	a1 00 00 00 00	 mov	 eax, DWORD PTR ___security_cookie
  008a0	33 c5		 xor	 eax, ebp
  008a2	89 45 f0	 mov	 DWORD PTR __$ArrayPad$[ebp], eax
  008a5	53		 push	 ebx
  008a6	56		 push	 esi
  008a7	57		 push	 edi
  008a8	50		 push	 eax
  008a9	8d 45 f4	 lea	 eax, DWORD PTR __$EHRec$[ebp]
  008ac	64 a3 00 00 00
	00		 mov	 DWORD PTR fs:0, eax
  008b2	89 4d ec	 mov	 DWORD PTR _this$[ebp], ecx

; 145  : 	if(!this->MMOTOP_Enable) return;

  008b5	8b 45 ec	 mov	 eax, DWORD PTR _this$[ebp]
  008b8	0f b6 08	 movzx	 ecx, BYTE PTR [eax]
  008bb	85 c9		 test	 ecx, ecx
  008bd	75 05		 jne	 SHORT $LN28@Mootop
  008bf	e9 3f 03 00 00	 jmp	 $LN29@Mootop
$LN28@Mootop:

; 146  : 
; 147  : 	//--------------------------------------------------------
; 148  : 	if (MMOTOP_UPDATE_VOTER == 1)

  008c4	8b 45 ec	 mov	 eax, DWORD PTR _this$[ebp]
  008c7	83 78 04 01	 cmp	 DWORD PTR [eax+4], 1
  008cb	75 27		 jne	 SHORT $LN27@Mootop

; 149  : 	{
; 150  : 		if (this->MMOTOP_DownloadFile)

  008cd	8b 45 ec	 mov	 eax, DWORD PTR _this$[ebp]
  008d0	0f b6 48 02	 movzx	 ecx, BYTE PTR [eax+2]
  008d4	85 c9		 test	 ecx, ecx
  008d6	74 17		 je	 SHORT $LN26@Mootop

; 151  : 		{
; 152  : 			URLDownloadToFileA ( NULL, 
; 153  : 				_T(this->MMOTOP_FileName),
; 154  : 				_T("mmotop.txt"),
; 155  : 				0,NULL );

  008d8	6a 00		 push	 0
  008da	6a 00		 push	 0
  008dc	68 00 00 00 00	 push	 OFFSET ??_C@_0L@HNCANJIK@mmotop?4txt?$AA@
  008e1	8b 45 ec	 mov	 eax, DWORD PTR _this$[ebp]
  008e4	83 c0 08	 add	 eax, 8
  008e7	50		 push	 eax
  008e8	6a 00		 push	 0
  008ea	e8 00 00 00 00	 call	 _URLDownloadToFileA@20
$LN26@Mootop:

; 156  : 		}
; 157  : 	}

  008ef	e9 07 03 00 00	 jmp	 $LN25@Mootop
$LN27@Mootop:

; 158  : 	//--------------------------------------------------------
; 159  : 	else if (MMOTOP_UPDATE_VOTER == 2)

  008f4	8b 45 ec	 mov	 eax, DWORD PTR _this$[ebp]
  008f7	83 78 04 02	 cmp	 DWORD PTR [eax+4], 2
  008fb	0f 85 26 01 00
	00		 jne	 $LN24@Mootop

; 160  : 	{
; 161  : 		if (this->MMOTOP_DownloadFile)

  00901	8b 45 ec	 mov	 eax, DWORD PTR _this$[ebp]
  00904	0f b6 48 02	 movzx	 ecx, BYTE PTR [eax+2]
  00908	85 c9		 test	 ecx, ecx
  0090a	0f 84 12 01 00
	00		 je	 $LN23@Mootop

; 162  : 		{
; 163  : 			HINTERNET hSession	= InternetOpenA("MMOTOP", INTERNET_OPEN_TYPE_PRECONFIG, NULL, NULL, 0);

  00910	6a 00		 push	 0
  00912	6a 00		 push	 0
  00914	6a 00		 push	 0
  00916	6a 00		 push	 0
  00918	68 00 00 00 00	 push	 OFFSET ??_C@_06KLDIONEO@MMOTOP?$AA@
  0091d	ff 15 00 00 00
	00		 call	 DWORD PTR __imp__InternetOpenA@20
  00923	89 45 e8	 mov	 DWORD PTR _hSession$224110[ebp], eax

; 164  : 			HINTERNET hHandle = InternetOpenUrlA(hSession, this->MMOTOP_FileName, NULL, 0, INTERNET_FLAG_DONT_CACHE, 0);

  00926	6a 00		 push	 0
  00928	68 00 00 00 04	 push	 67108864		; 04000000H
  0092d	6a 00		 push	 0
  0092f	6a 00		 push	 0
  00931	8b 45 ec	 mov	 eax, DWORD PTR _this$[ebp]
  00934	83 c0 08	 add	 eax, 8
  00937	50		 push	 eax
  00938	8b 4d e8	 mov	 ecx, DWORD PTR _hSession$224110[ebp]
  0093b	51		 push	 ecx
  0093c	ff 15 00 00 00
	00		 call	 DWORD PTR __imp__InternetOpenUrlA@24
  00942	89 45 e4	 mov	 DWORD PTR _hHandle$224112[ebp], eax

; 165  : 			// ----
; 166  : 			if( hSession == NULL || hHandle == NULL )

  00945	83 7d e8 00	 cmp	 DWORD PTR _hSession$224110[ebp], 0
  00949	74 06		 je	 SHORT $LN21@Mootop
  0094b	83 7d e4 00	 cmp	 DWORD PTR _hHandle$224112[ebp], 0
  0094f	75 19		 jne	 SHORT $LN22@Mootop
$LN21@Mootop:

; 167  : 			{
; 168  : 				InternetCloseHandle(hSession);

  00951	8b 45 e8	 mov	 eax, DWORD PTR _hSession$224110[ebp]
  00954	50		 push	 eax
  00955	ff 15 00 00 00
	00		 call	 DWORD PTR __imp__InternetCloseHandle@4

; 169  : 				InternetCloseHandle(hHandle);

  0095b	8b 45 e4	 mov	 eax, DWORD PTR _hHandle$224112[ebp]
  0095e	50		 push	 eax
  0095f	ff 15 00 00 00
	00		 call	 DWORD PTR __imp__InternetCloseHandle@4

; 170  : 				return;

  00965	e9 99 02 00 00	 jmp	 $LN29@Mootop
$LN22@Mootop:

; 171  : 			}
; 172  : 			// ----
; 173  : 			FILE * file = fopen(MMOTOP_FILE, "w");

  0096a	68 00 00 00 00	 push	 OFFSET ??_C@_01NOFIACDB@w?$AA@
  0096f	68 00 00 00 00	 push	 OFFSET ??_C@_0L@HNCANJIK@mmotop?4txt?$AA@
  00974	e8 00 00 00 00	 call	 _fopen
  00979	83 c4 08	 add	 esp, 8
  0097c	89 45 e0	 mov	 DWORD PTR _file$224115[ebp], eax

; 174  : 			if(file)

  0097f	83 7d e0 00	 cmp	 DWORD PTR _file$224115[ebp], 0
  00983	0f 84 85 00 00
	00		 je	 $LN20@Mootop
$LN19@Mootop:

; 175  : 			{
; 176  : 				while (true) 

  00989	b8 01 00 00 00	 mov	 eax, 1
  0098e	85 c0		 test	 eax, eax
  00990	74 70		 je	 SHORT $LN18@Mootop

; 177  : 				{
; 178  : 					//  
; 179  : 					char  szData[4096];
; 180  : 					ZeroMemory(szData,sizeof(szData));

  00992	68 00 10 00 00	 push	 4096			; 00001000H
  00997	6a 00		 push	 0
  00999	8d 85 e0 ef ff
	ff		 lea	 eax, DWORD PTR _szData$224121[ebp]
  0099f	50		 push	 eax
  009a0	e8 00 00 00 00	 call	 _memset
  009a5	83 c4 0c	 add	 esp, 12			; 0000000cH

; 181  : 
; 182  : 					DWORD dwBytesRead;
; 183  : 
; 184  : 					BOOL bRead = ::InternetReadFile(hHandle,szData,sizeof(szData)-1,&dwBytesRead);

  009a8	8d 85 dc ef ff
	ff		 lea	 eax, DWORD PTR _dwBytesRead$224122[ebp]
  009ae	50		 push	 eax
  009af	68 ff 0f 00 00	 push	 4095			; 00000fffH
  009b4	8d 8d e0 ef ff
	ff		 lea	 ecx, DWORD PTR _szData$224121[ebp]
  009ba	51		 push	 ecx
  009bb	8b 55 e4	 mov	 edx, DWORD PTR _hHandle$224112[ebp]
  009be	52		 push	 edx
  009bf	ff 15 00 00 00
	00		 call	 DWORD PTR __imp__InternetReadFile@16
  009c5	89 85 d8 ef ff
	ff		 mov	 DWORD PTR _bRead$224123[ebp], eax

; 185  : 
; 186  : 					//       
; 187  : 					if (bRead == FALSE  ||  dwBytesRead == 0)

  009cb	83 bd d8 ef ff
	ff 00		 cmp	 DWORD PTR _bRead$224123[ebp], 0
  009d2	74 09		 je	 SHORT $LN16@Mootop
  009d4	83 bd dc ef ff
	ff 00		 cmp	 DWORD PTR _dwBytesRead$224122[ebp], 0
  009db	75 02		 jne	 SHORT $LN17@Mootop
$LN16@Mootop:

; 188  : 						break;

  009dd	eb 23		 jmp	 SHORT $LN18@Mootop
$LN17@Mootop:

; 189  : 
; 190  : 					//  
; 191  : 					szData[dwBytesRead] = 0;

  009df	8b 85 dc ef ff
	ff		 mov	 eax, DWORD PTR _dwBytesRead$224122[ebp]
  009e5	c6 84 05 e0 ef
	ff ff 00	 mov	 BYTE PTR _szData$224121[ebp+eax], 0

; 192  : 					fputs(szData, file);

  009ed	8b 45 e0	 mov	 eax, DWORD PTR _file$224115[ebp]
  009f0	50		 push	 eax
  009f1	8d 8d e0 ef ff
	ff		 lea	 ecx, DWORD PTR _szData$224121[ebp]
  009f7	51		 push	 ecx
  009f8	e8 00 00 00 00	 call	 _fputs
  009fd	83 c4 08	 add	 esp, 8

; 193  : 				}

  00a00	eb 87		 jmp	 SHORT $LN19@Mootop
$LN18@Mootop:

; 194  : 				fclose(file);

  00a02	8b 45 e0	 mov	 eax, DWORD PTR _file$224115[ebp]
  00a05	50		 push	 eax
  00a06	e8 00 00 00 00	 call	 _fclose
  00a0b	83 c4 04	 add	 esp, 4
$LN20@Mootop:

; 195  : 			}
; 196  : 			
; 197  : 			InternetCloseHandle(hSession);	//Need ?

  00a0e	8b 45 e8	 mov	 eax, DWORD PTR _hSession$224110[ebp]
  00a11	50		 push	 eax
  00a12	ff 15 00 00 00
	00		 call	 DWORD PTR __imp__InternetCloseHandle@4

; 198  : 			InternetCloseHandle(hHandle);

  00a18	8b 45 e4	 mov	 eax, DWORD PTR _hHandle$224112[ebp]
  00a1b	50		 push	 eax
  00a1c	ff 15 00 00 00
	00		 call	 DWORD PTR __imp__InternetCloseHandle@4
$LN23@Mootop:

; 199  : 		}
; 200  : 
; 201  : 	}
; 202  : 	//--------------------------------------------------------
; 203  : 	else

  00a22	e9 d4 01 00 00	 jmp	 $LN25@Mootop
$LN24@Mootop:

; 204  : 	{
; 205  : 		//  WinInet
; 206  : 		HINTERNET hInternet = ::InternetOpen(TEXT("MMOTOP"),
; 207  : 			INTERNET_OPEN_TYPE_PRECONFIG,
; 208  : 			NULL,NULL,
; 209  : 			0);

  00a27	6a 00		 push	 0
  00a29	6a 00		 push	 0
  00a2b	6a 00		 push	 0
  00a2d	6a 00		 push	 0
  00a2f	68 00 00 00 00	 push	 OFFSET ??_C@_06KLDIONEO@MMOTOP?$AA@
  00a34	ff 15 00 00 00
	00		 call	 DWORD PTR __imp__InternetOpenA@20
  00a3a	89 85 d4 ef ff
	ff		 mov	 DWORD PTR _hInternet$224127[ebp], eax

; 210  : 
; 211  : 		if (hInternet != NULL) 

  00a40	83 bd d4 ef ff
	ff 00		 cmp	 DWORD PTR _hInternet$224127[ebp], 0
  00a47	0f 84 a1 01 00
	00		 je	 $LN14@Mootop

; 212  : 		{
; 213  : 			//  HTTP 
; 214  : 			HINTERNET hConnect = 
; 215  : 				::InternetConnect(
; 216  : 					hInternet,
; 217  : 					TEXT("www.mmotop.ru"),
; 218  : 					INTERNET_DEFAULT_HTTP_PORT,
; 219  : 					NULL,NULL,
; 220  : 					INTERNET_SERVICE_HTTP,
; 221  : 					0,
; 222  : 					1u);

  00a4d	6a 01		 push	 1
  00a4f	6a 00		 push	 0
  00a51	6a 03		 push	 3
  00a53	6a 00		 push	 0
  00a55	6a 00		 push	 0
  00a57	6a 50		 push	 80			; 00000050H
  00a59	68 00 00 00 00	 push	 OFFSET ??_C@_0O@DPCADCBH@www?4mmotop?4ru?$AA@
  00a5e	8b 85 d4 ef ff
	ff		 mov	 eax, DWORD PTR _hInternet$224127[ebp]
  00a64	50		 push	 eax
  00a65	ff 15 00 00 00
	00		 call	 DWORD PTR __imp__InternetConnectA@32
  00a6b	89 85 d0 ef ff
	ff		 mov	 DWORD PTR _hConnect$224129[ebp], eax

; 223  : 
; 224  : 			if (hConnect != NULL) 

  00a71	83 bd d0 ef ff
	ff 00		 cmp	 DWORD PTR _hConnect$224129[ebp], 0
  00a78	0f 84 54 01 00
	00		 je	 $LN13@Mootop

; 225  : 			{
; 226  : 				//  
; 227  : 				HINTERNET hRequest = ::HttpOpenRequest(hConnect,
; 228  : 						TEXT("GET"),
; 229  : 						TEXT(MMOTOP_FileName),        //TEXT("votes/aba02abed8021ba31a4499a390aa8afa4679c6d1.txt"),//TEXT("news.asp"),
; 230  : 						NULL,
; 231  : 						NULL,
; 232  : 						0,
; 233  : 						INTERNET_FLAG_KEEP_CONNECTION,
; 234  : 						1);

  00a7e	6a 01		 push	 1
  00a80	68 00 00 40 00	 push	 4194304			; 00400000H
  00a85	6a 00		 push	 0
  00a87	6a 00		 push	 0
  00a89	6a 00		 push	 0
  00a8b	8b 45 ec	 mov	 eax, DWORD PTR _this$[ebp]
  00a8e	83 c0 08	 add	 eax, 8
  00a91	50		 push	 eax
  00a92	68 00 00 00 00	 push	 OFFSET ??_C@_03HAPOJHBM@GET?$AA@
  00a97	8b 8d d0 ef ff
	ff		 mov	 ecx, DWORD PTR _hConnect$224129[ebp]
  00a9d	51		 push	 ecx
  00a9e	ff 15 00 00 00
	00		 call	 DWORD PTR __imp__HttpOpenRequestA@32
  00aa4	89 85 cc ef ff
	ff		 mov	 DWORD PTR _hRequest$224132[ebp], eax

; 235  : 
; 236  : 				if (hRequest != NULL) 

  00aaa	83 bd cc ef ff
	ff 00		 cmp	 DWORD PTR _hRequest$224132[ebp], 0
  00ab1	0f 84 ff 00 00
	00		 je	 $LN12@Mootop

; 237  : 				{
; 238  : 					//  
; 239  : 					BOOL bSend = ::HttpSendRequest(hRequest, NULL,0, NULL,0);

  00ab7	6a 00		 push	 0
  00ab9	6a 00		 push	 0
  00abb	6a 00		 push	 0
  00abd	6a 00		 push	 0
  00abf	8b 85 cc ef ff
	ff		 mov	 eax, DWORD PTR _hRequest$224132[ebp]
  00ac5	50		 push	 eax
  00ac6	ff 15 00 00 00
	00		 call	 DWORD PTR __imp__HttpSendRequestA@20
  00acc	89 85 c8 ef ff
	ff		 mov	 DWORD PTR _bSend$224135[ebp], eax

; 240  : 					if (bSend) 

  00ad2	83 bd c8 ef ff
	ff 00		 cmp	 DWORD PTR _bSend$224135[ebp], 0
  00ad9	0f 84 bb 00 00
	00		 je	 $LN11@Mootop

; 241  : 					{
; 242  : 						//   
; 243  : 						std::ofstream fnews("mootop.txt",std::ios::out|std::ios::binary);

  00adf	6a 01		 push	 1
  00ae1	6a 40		 push	 64			; 00000040H
  00ae3	6a 22		 push	 34			; 00000022H
  00ae5	68 00 00 00 00	 push	 OFFSET ??_C@_0L@HJNFAJLH@mootop?4txt?$AA@
  00aea	8d 8d 20 ef ff
	ff		 lea	 ecx, DWORD PTR _fnews$224352[ebp]
  00af0	e8 00 00 00 00	 call	 ??0?$basic_ofstream@DU?$char_traits@D@std@@@std@@QAE@PBDHH@Z ; std::basic_ofstream<char,std::char_traits<char> >::basic_ofstream<char,std::char_traits<char> >
  00af5	c7 45 fc 00 00
	00 00		 mov	 DWORD PTR __$EHRec$[ebp+8], 0

; 244  : 						if (fnews.is_open()) 

  00afc	8d 8d 20 ef ff
	ff		 lea	 ecx, DWORD PTR _fnews$224352[ebp]
  00b02	e8 00 00 00 00	 call	 ?is_open@?$basic_ofstream@DU?$char_traits@D@std@@@std@@QBE_NXZ ; std::basic_ofstream<char,std::char_traits<char> >::is_open
  00b07	0f b6 c0	 movzx	 eax, al
  00b0a	85 c0		 test	 eax, eax
  00b0c	74 6b		 je	 SHORT $LN10@Mootop
$LN9@Mootop:

; 245  : 						{
; 246  : 							while (true) 

  00b0e	b8 01 00 00 00	 mov	 eax, 1
  00b13	85 c0		 test	 eax, eax
  00b15	74 60		 je	 SHORT $LN8@Mootop

; 247  : 							{
; 248  : 								//  
; 249  : 								char  szData[4096];
; 250  : 								DWORD dwBytesRead;
; 251  : 								BOOL bRead = 
; 252  : 									::InternetReadFile(
; 253  : 										hRequest,
; 254  : 										szData,sizeof(szData)-1,
; 255  : 										&dwBytesRead);

  00b17	8d 85 1c df ff
	ff		 lea	 eax, DWORD PTR _dwBytesRead$224360[ebp]
  00b1d	50		 push	 eax
  00b1e	68 ff 0f 00 00	 push	 4095			; 00000fffH
  00b23	8d 8d 20 df ff
	ff		 lea	 ecx, DWORD PTR _szData$224359[ebp]
  00b29	51		 push	 ecx
  00b2a	8b 95 cc ef ff
	ff		 mov	 edx, DWORD PTR _hRequest$224132[ebp]
  00b30	52		 push	 edx
  00b31	ff 15 00 00 00
	00		 call	 DWORD PTR __imp__InternetReadFile@16
  00b37	89 85 18 df ff
	ff		 mov	 DWORD PTR _bRead$224361[ebp], eax

; 256  : 
; 257  : 								//       
; 258  : 								if (bRead == FALSE  ||  dwBytesRead == 0)

  00b3d	83 bd 18 df ff
	ff 00		 cmp	 DWORD PTR _bRead$224361[ebp], 0
  00b44	74 09		 je	 SHORT $LN6@Mootop
  00b46	83 bd 1c df ff
	ff 00		 cmp	 DWORD PTR _dwBytesRead$224360[ebp], 0
  00b4d	75 02		 jne	 SHORT $LN7@Mootop
$LN6@Mootop:

; 259  : 									break;

  00b4f	eb 26		 jmp	 SHORT $LN8@Mootop
$LN7@Mootop:

; 260  : 
; 261  : 								//  
; 262  : 								szData[dwBytesRead] = 0;

  00b51	8b 85 1c df ff
	ff		 mov	 eax, DWORD PTR _dwBytesRead$224360[ebp]
  00b57	c6 84 05 20 df
	ff ff 00	 mov	 BYTE PTR _szData$224359[ebp+eax], 0

; 263  : 								fnews << szData;

  00b5f	8d 85 20 df ff
	ff		 lea	 eax, DWORD PTR _szData$224359[ebp]
  00b65	50		 push	 eax
  00b66	8d 8d 20 ef ff
	ff		 lea	 ecx, DWORD PTR _fnews$224352[ebp]
  00b6c	51		 push	 ecx
  00b6d	e8 00 00 00 00	 call	 ??$?6U?$char_traits@D@std@@@std@@YAAAV?$basic_ostream@DU?$char_traits@D@std@@@0@AAV10@PBD@Z ; std::operator<<<std::char_traits<char> >
  00b72	83 c4 08	 add	 esp, 8

; 264  : 							}

  00b75	eb 97		 jmp	 SHORT $LN9@Mootop
$LN8@Mootop:

; 265  : 						}
; 266  : 						else

  00b77	eb 0d		 jmp	 SHORT $LN5@Mootop
$LN10@Mootop:

; 267  : 						{
; 268  : 							AdmLog("fnews.is_open()");

  00b79	68 00 00 00 00	 push	 OFFSET ??_C@_0BA@HICLJBKB@fnews?4is_open?$CI?$CJ?$AA@
  00b7e	e8 00 00 00 00	 call	 ?AdmLog@@YAXPAD@Z	; AdmLog
  00b83	83 c4 04	 add	 esp, 4
$LN5@Mootop:

; 269  : 						}
; 270  : 					}

  00b86	c7 45 fc ff ff
	ff ff		 mov	 DWORD PTR __$EHRec$[ebp+8], -1
  00b8d	8d 8d 20 ef ff
	ff		 lea	 ecx, DWORD PTR _fnews$224352[ebp]
  00b93	e8 00 00 00 00	 call	 ??_D?$basic_ofstream@DU?$char_traits@D@std@@@std@@QAEXXZ

; 271  : 					else

  00b98	eb 0d		 jmp	 SHORT $LN4@Mootop
$LN11@Mootop:

; 272  : 					{
; 273  : 						AdmLog("bSend");

  00b9a	68 00 00 00 00	 push	 OFFSET ??_C@_05DLJCAKKO@bSend?$AA@
  00b9f	e8 00 00 00 00	 call	 ?AdmLog@@YAXPAD@Z	; AdmLog
  00ba4	83 c4 04	 add	 esp, 4
$LN4@Mootop:

; 274  : 					}
; 275  : 					//  
; 276  : 					::InternetCloseHandle(hRequest);

  00ba7	8b 85 cc ef ff
	ff		 mov	 eax, DWORD PTR _hRequest$224132[ebp]
  00bad	50		 push	 eax
  00bae	ff 15 00 00 00
	00		 call	 DWORD PTR __imp__InternetCloseHandle@4

; 277  : 				}
; 278  : 				else

  00bb4	eb 0d		 jmp	 SHORT $LN3@Mootop
$LN12@Mootop:

; 279  : 				{
; 280  : 					AdmLog("hRequest != NULL");

  00bb6	68 00 00 00 00	 push	 OFFSET ??_C@_0BB@CCOENLML@hRequest?5?$CB?$DN?5NULL?$AA@
  00bbb	e8 00 00 00 00	 call	 ?AdmLog@@YAXPAD@Z	; AdmLog
  00bc0	83 c4 04	 add	 esp, 4
$LN3@Mootop:

; 281  : 				}
; 282  : 				//  
; 283  : 				::InternetCloseHandle(hConnect);

  00bc3	8b 85 d0 ef ff
	ff		 mov	 eax, DWORD PTR _hConnect$224129[ebp]
  00bc9	50		 push	 eax
  00bca	ff 15 00 00 00
	00		 call	 DWORD PTR __imp__InternetCloseHandle@4

; 284  : 			}
; 285  : 			else

  00bd0	eb 0d		 jmp	 SHORT $LN2@Mootop
$LN13@Mootop:

; 286  : 			{
; 287  : 				AdmLog("hConnect != NULL");

  00bd2	68 00 00 00 00	 push	 OFFSET ??_C@_0BB@MALKFMPK@hConnect?5?$CB?$DN?5NULL?$AA@
  00bd7	e8 00 00 00 00	 call	 ?AdmLog@@YAXPAD@Z	; AdmLog
  00bdc	83 c4 04	 add	 esp, 4
$LN2@Mootop:

; 288  : 			}
; 289  : 			//  WinInet
; 290  : 			::InternetCloseHandle(hInternet);

  00bdf	8b 85 d4 ef ff
	ff		 mov	 eax, DWORD PTR _hInternet$224127[ebp]
  00be5	50		 push	 eax
  00be6	ff 15 00 00 00
	00		 call	 DWORD PTR __imp__InternetCloseHandle@4

; 291  : 		}
; 292  : 		else

  00bec	eb 0d		 jmp	 SHORT $LN25@Mootop
$LN14@Mootop:

; 293  : 		{
; 294  : 			AdmLog("hInternet != NULL");

  00bee	68 00 00 00 00	 push	 OFFSET ??_C@_0BC@ELJALHPL@hInternet?5?$CB?$DN?5NULL?$AA@
  00bf3	e8 00 00 00 00	 call	 ?AdmLog@@YAXPAD@Z	; AdmLog
  00bf8	83 c4 04	 add	 esp, 4
$LN25@Mootop:

; 295  : 		}
; 296  : 	}	
; 297  : 	//--------------------------------------------------------
; 298  : 
; 299  : #ifdef DEBUG_CODE
; 300  : 	AdmLog("DEBUG_CODE");
; 301  : #endif
; 302  : 
; 303  : 	this->MootopReed();

  00bfb	8b 4d ec	 mov	 ecx, DWORD PTR _this$[ebp]
  00bfe	e8 00 00 00 00	 call	 ?MootopReed@Voter@@QAEXXZ ; Voter::MootopReed
$LN29@Mootop:

; 304  : }

  00c03	8b 4d f4	 mov	 ecx, DWORD PTR __$EHRec$[ebp]
  00c06	64 89 0d 00 00
	00 00		 mov	 DWORD PTR fs:0, ecx
  00c0d	59		 pop	 ecx
  00c0e	5f		 pop	 edi
  00c0f	5e		 pop	 esi
  00c10	5b		 pop	 ebx
  00c11	8b 4d f0	 mov	 ecx, DWORD PTR __$ArrayPad$[ebp]
  00c14	33 cd		 xor	 ecx, ebp
  00c16	e8 00 00 00 00	 call	 @__security_check_cookie@4
  00c1b	8b e5		 mov	 esp, ebp
  00c1d	5d		 pop	 ebp
  00c1e	c3		 ret	 0
_TEXT	ENDS
text$x	SEGMENT
__unwindfunclet$?Mootop@Voter@@QAEXXZ$0:
  00000	8d 8d 20 ef ff
	ff		 lea	 ecx, DWORD PTR _fnews$224352[ebp]
  00006	e9 00 00 00 00	 jmp	 ??_D?$basic_ofstream@DU?$char_traits@D@std@@@std@@QAEXXZ
__ehhandler$?Mootop@Voter@@QAEXXZ:
  0000b	8b 54 24 08	 mov	 edx, DWORD PTR [esp+8]
  0000f	8d 42 0c	 lea	 eax, DWORD PTR [edx+12]
  00012	8b 8a d4 de ff
	ff		 mov	 ecx, DWORD PTR [edx-8492]
  00018	33 c8		 xor	 ecx, eax
  0001a	e8 00 00 00 00	 call	 @__security_check_cookie@4
  0001f	8b 4a fc	 mov	 ecx, DWORD PTR [edx-4]
  00022	33 c8		 xor	 ecx, eax
  00024	e8 00 00 00 00	 call	 @__security_check_cookie@4
  00029	b8 00 00 00 00	 mov	 eax, OFFSET __ehfuncinfo$?Mootop@Voter@@QAEXXZ
  0002e	e9 00 00 00 00	 jmp	 ___CxxFrameHandler3
text$x	ENDS
?Mootop@Voter@@QAEXXZ ENDP				; Voter::Mootop
PUBLIC	??1?$basic_ios@DU?$char_traits@D@std@@@std@@UAE@XZ ; std::basic_ios<char,std::char_traits<char> >::~basic_ios<char,std::char_traits<char> >
PUBLIC	??1?$basic_ofstream@DU?$char_traits@D@std@@@std@@UAE@XZ ; std::basic_ofstream<char,std::char_traits<char> >::~basic_ofstream<char,std::char_traits<char> >
; Function compile flags: /Odtp /ZI
;	COMDAT ??_D?$basic_ofstream@DU?$char_traits@D@std@@@std@@QAEXXZ
_TEXT	SEGMENT
_this$ = -4						; size = 4
??_D?$basic_ofstream@DU?$char_traits@D@std@@@std@@QAEXXZ PROC ; std::basic_ofstream<char,std::char_traits<char> >::`vbase destructor', COMDAT
; _this$ = ecx
  00000	55		 push	 ebp
  00001	8b ec		 mov	 ebp, esp
  00003	83 ec 44	 sub	 esp, 68			; 00000044H
  00006	53		 push	 ebx
  00007	56		 push	 esi
  00008	57		 push	 edi
  00009	89 4d fc	 mov	 DWORD PTR _this$[ebp], ecx
  0000c	8b 4d fc	 mov	 ecx, DWORD PTR _this$[ebp]
  0000f	83 c1 60	 add	 ecx, 96			; 00000060H
  00012	e8 00 00 00 00	 call	 ??1?$basic_ofstream@DU?$char_traits@D@std@@@std@@UAE@XZ ; std::basic_ofstream<char,std::char_traits<char> >::~basic_ofstream<char,std::char_traits<char> >
  00017	8b 4d fc	 mov	 ecx, DWORD PTR _this$[ebp]
  0001a	83 c1 60	 add	 ecx, 96			; 00000060H
  0001d	e8 00 00 00 00	 call	 ??1?$basic_ios@DU?$char_traits@D@std@@@std@@UAE@XZ ; std::basic_ios<char,std::char_traits<char> >::~basic_ios<char,std::char_traits<char> >
  00022	5f		 pop	 edi
  00023	5e		 pop	 esi
  00024	5b		 pop	 ebx
  00025	8b e5		 mov	 esp, ebp
  00027	5d		 pop	 ebp
  00028	c3		 ret	 0
??_D?$basic_ofstream@DU?$char_traits@D@std@@@std@@QAEXXZ ENDP ; std::basic_ofstream<char,std::char_traits<char> >::`vbase destructor'
_TEXT	ENDS
PUBLIC	??_C@_0BG@BMABLBJK@?$FLMMOTOP?$FN?$FL?$CFs?$FN?5Date?3?5?$CFs?$AA@ ; `string'
PUBLIC	??_C@_0BD@DNPJLPDE@?$EA?$FLMMOTOP?$FN?5Date?3?5?$CFs?$AA@ ; `string'
PUBLIC	??_C@_0BO@GLDGCAIH@?$EA?$FLMMOTOP?$FN?5Life?5Bank?5Bonus?3?5?$CFd?$AA@ ; `string'
PUBLIC	??_C@_0BO@MPCAPFDH@?$EA?$FLMMOTOP?$FN?5Soul?5Bank?5Bonus?3?5?$CFd?$AA@ ; `string'
PUBLIC	??_C@_0BP@JOJEBDFB@?$EA?$FLMMOTOP?$FN?5Bless?5Bank?5Bonus?3?5?$CFd?$AA@ ; `string'
PUBLIC	??_C@_0BP@JEJBFDGG@?$EA?$FLMMOTOP?$FN?5Chaos?5Bank?5Bonus?3?5?$CFd?$AA@ ; `string'
PUBLIC	??_C@_0BL@LOKFOHGN@?$EA?$FLMMOTOP?$FN?5ExCred?5Bonus?3?5?$CFd?$AA@ ; `string'
PUBLIC	??_C@_0BL@JNNNGMEB@?$EA?$FLMMOTOP?$FN?5Goblin?5Bonus?3?5?$CFd?$AA@ ; `string'
PUBLIC	??_C@_0BL@MCFHKCKK@?$EA?$FLMMOTOP?$FN?5WCoinP?5Bonus?3?5?$CFd?$AA@ ; `string'
PUBLIC	??_C@_0BL@KOOOOGNL@?$EA?$FLMMOTOP?$FN?5WcoinC?5Bonus?3?5?$CFd?$AA@ ; `string'
PUBLIC	??_C@_0BJ@NMLLBIJJ@?$EA?$FLMMOTOP?$FN?5Item?5Bonus?3?5?$CFs?$AA@ ; `string'
PUBLIC	??_C@_0DG@CODMCGBJ@?$EA?$FLMMOTOP?$FN?5Need?5to?5make?5space?5in?5@ ; `string'
PUBLIC	??_C@_0BH@LAAAIICJ@?$EA?$FLSMS?5MMOTOP?$FN?5Date?3?5?$CFs?$AA@ ; `string'
PUBLIC	??_C@_0CC@HGBANFMA@?$EA?$FLSMS?5MMOTOP?$FN?5Life?5Bank?5Bonus?3?5?$CF@ ; `string'
PUBLIC	??_C@_0CC@NCAGAAHA@?$EA?$FLSMS?5MMOTOP?$FN?5Soul?5Bank?5Bonus?3?5?$CF@ ; `string'
PUBLIC	??_C@_0CD@HGDBOBJH@?$EA?$FLSMS?5MMOTOP?$FN?5Bless?5Bank?5Bonus?3?5@ ; `string'
PUBLIC	??_C@_0CD@HMDEKBKA@?$EA?$FLSMS?5MMOTOP?$FN?5Chaos?5Bank?5Bonus?3?5@ ; `string'
PUBLIC	??_C@_0BP@EPDEGELJ@?$EA?$FLSMS?5MMOTOP?$FN?5ExCred?5Bonus?3?5?$CFd?$AA@ ; `string'
PUBLIC	??_C@_0BP@GMEMOPJF@?$EA?$FLSMS?5MMOTOP?$FN?5Goblin?5Bonus?3?5?$CFd?$AA@ ; `string'
PUBLIC	??_C@_0BP@DDMGCBHO@?$EA?$FLSMS?5MMOTOP?$FN?5WCoinP?5Bonus?3?5?$CFd?$AA@ ; `string'
PUBLIC	??_C@_0BP@FPHPGFAP@?$EA?$FLSMS?5MMOTOP?$FN?5WcoinC?5Bonus?3?5?$CFd?$AA@ ; `string'
PUBLIC	??_C@_0BN@GCHBLMLE@?$EA?$FLSMS?5MMOTOP?$FN?5Item?5Bonus?3?5?$CFs?$AA@ ; `string'
PUBLIC	??_C@_0DK@LGEFFFOE@?$EA?$FLSMS?5MMOTOP?$FN?5Need?5to?5make?5space@ ; `string'
PUBLIC	?GetTime@CTime@ATL@@QBE_JXZ			; ATL::CTime::GetTime
PUBLIC	??_C@_0BC@FFOHHNEG@?$CFd?4?$CFd?4?$CFd?5?$CFd?3?$CFd?3?$CFd?$AA@ ; `string'
PUBLIC	??_C@_05DNIIFBMG@?$CFs?5?$CFs?$AA@		; `string'
PUBLIC	??_C@_0BC@FDIFMHGC@?$CFd?5?$CFs?5?$CFs?5?$CFs?5?$CFs?5?$CFd?$AA@ ; `string'
PUBLIC	??_C@_01KDCPPGHE@r?$AA@				; `string'
PUBLIC	__$ArrayPad$
EXTRN	_remove:PROC
EXTRN	?MootopVoteUp@CAchievements@@QAEXH@Z:PROC	; CAchievements::MootopVoteUp
EXTRN	?g_Achievements@@3VCAchievements@@A:BYTE	; g_Achievements
EXTRN	?Output@CLogToFile@@QAAXPADZZ:PROC		; CLogToFile::Output
EXTRN	?LogAdd@@3P6AXPADZZA:DWORD			; LogAdd
EXTRN	?ExUserDataSend@@YAXH@Z:PROC			; ExUserDataSend
EXTRN	?gObjApplyBuffEffectDuration@@YAEPAUOBJECTSTRUCT@@HEHEHH@Z:PROC ; gObjApplyBuffEffectDuration
EXTRN	?CheckUser@CExLicense@@QAE_NH@Z:PROC		; CExLicense::CheckUser
EXTRN	?g_ExLicense@@3VCExLicense@@A:BYTE		; g_ExLicense
EXTRN	?GDSaveUserInfo@GameShop@@QAEXH@Z:PROC		; GameShop::GDSaveUserInfo
EXTRN	?gGameShop@@3VGameShop@@A:BYTE			; gGameShop
EXTRN	?ItemSerialCreateSend@@YAXHEEEHEEEEEHEE@Z:PROC	; ItemSerialCreateSend
EXTRN	?MessageChat@@YAXHPADZZ:PROC			; MessageChat
EXTRN	?CheckInventoryEmptySpace@@YAHPAUOBJECTSTRUCT@@HH@Z:PROC ; CheckInventoryEmptySpace
EXTRN	?ItemAttribute@@3PAUITEM_ATTRIBUTE@@A:BYTE	; ItemAttribute
EXTRN	?StrToCTime@@YA?AVCTime@ATL@@PBD@Z:PROC		; StrToCTime
EXTRN	_sprintf:PROC
EXTRN	_sscanf:PROC
EXTRN	_fgets:PROC
EXTRN	_feof:PROC
EXTRN	__fltused:DWORD
EXTRN	_memset:PROC
;	COMDAT ??_C@_0BG@BMABLBJK@?$FLMMOTOP?$FN?$FL?$CFs?$FN?5Date?3?5?$CFs?$AA@
CONST	SEGMENT
??_C@_0BG@BMABLBJK@?$FLMMOTOP?$FN?$FL?$CFs?$FN?5Date?3?5?$CFs?$AA@ DB '[M'
	DB	'MOTOP][%s] Date: %s', 00H			; `string'
CONST	ENDS
;	COMDAT ??_C@_0BD@DNPJLPDE@?$EA?$FLMMOTOP?$FN?5Date?3?5?$CFs?$AA@
CONST	SEGMENT
??_C@_0BD@DNPJLPDE@?$EA?$FLMMOTOP?$FN?5Date?3?5?$CFs?$AA@ DB '@[MMOTOP] D'
	DB	'ate: %s', 00H				; `string'
CONST	ENDS
;	COMDAT ??_C@_0BO@GLDGCAIH@?$EA?$FLMMOTOP?$FN?5Life?5Bank?5Bonus?3?5?$CFd?$AA@
CONST	SEGMENT
??_C@_0BO@GLDGCAIH@?$EA?$FLMMOTOP?$FN?5Life?5Bank?5Bonus?3?5?$CFd?$AA@ DB '@'
	DB	'[MMOTOP] Life Bank Bonus: %d', 00H		; `string'
CONST	ENDS
;	COMDAT ??_C@_0BO@MPCAPFDH@?$EA?$FLMMOTOP?$FN?5Soul?5Bank?5Bonus?3?5?$CFd?$AA@
CONST	SEGMENT
??_C@_0BO@MPCAPFDH@?$EA?$FLMMOTOP?$FN?5Soul?5Bank?5Bonus?3?5?$CFd?$AA@ DB '@'
	DB	'[MMOTOP] Soul Bank Bonus: %d', 00H		; `string'
CONST	ENDS
;	COMDAT ??_C@_0BP@JOJEBDFB@?$EA?$FLMMOTOP?$FN?5Bless?5Bank?5Bonus?3?5?$CFd?$AA@
CONST	SEGMENT
??_C@_0BP@JOJEBDFB@?$EA?$FLMMOTOP?$FN?5Bless?5Bank?5Bonus?3?5?$CFd?$AA@ DB '@'
	DB	'[MMOTOP] Bless Bank Bonus: %d', 00H		; `string'
CONST	ENDS
;	COMDAT ??_C@_0BP@JEJBFDGG@?$EA?$FLMMOTOP?$FN?5Chaos?5Bank?5Bonus?3?5?$CFd?$AA@
CONST	SEGMENT
??_C@_0BP@JEJBFDGG@?$EA?$FLMMOTOP?$FN?5Chaos?5Bank?5Bonus?3?5?$CFd?$AA@ DB '@'
	DB	'[MMOTOP] Chaos Bank Bonus: %d', 00H		; `string'
CONST	ENDS
;	COMDAT ??_C@_0BL@LOKFOHGN@?$EA?$FLMMOTOP?$FN?5ExCred?5Bonus?3?5?$CFd?$AA@
CONST	SEGMENT
??_C@_0BL@LOKFOHGN@?$EA?$FLMMOTOP?$FN?5ExCred?5Bonus?3?5?$CFd?$AA@ DB '@['
	DB	'MMOTOP] ExCred Bonus: %d', 00H		; `string'
CONST	ENDS
;	COMDAT ??_C@_0BL@JNNNGMEB@?$EA?$FLMMOTOP?$FN?5Goblin?5Bonus?3?5?$CFd?$AA@
CONST	SEGMENT
??_C@_0BL@JNNNGMEB@?$EA?$FLMMOTOP?$FN?5Goblin?5Bonus?3?5?$CFd?$AA@ DB '@['
	DB	'MMOTOP] Goblin Bonus: %d', 00H		; `string'
CONST	ENDS
;	COMDAT ??_C@_0BL@MCFHKCKK@?$EA?$FLMMOTOP?$FN?5WCoinP?5Bonus?3?5?$CFd?$AA@
CONST	SEGMENT
??_C@_0BL@MCFHKCKK@?$EA?$FLMMOTOP?$FN?5WCoinP?5Bonus?3?5?$CFd?$AA@ DB '@['
	DB	'MMOTOP] WCoinP Bonus: %d', 00H		; `string'
CONST	ENDS
;	COMDAT ??_C@_0BL@KOOOOGNL@?$EA?$FLMMOTOP?$FN?5WcoinC?5Bonus?3?5?$CFd?$AA@
CONST	SEGMENT
??_C@_0BL@KOOOOGNL@?$EA?$FLMMOTOP?$FN?5WcoinC?5Bonus?3?5?$CFd?$AA@ DB '@['
	DB	'MMOTOP] WcoinC Bonus: %d', 00H		; `string'
CONST	ENDS
;	COMDAT ??_C@_0BJ@NMLLBIJJ@?$EA?$FLMMOTOP?$FN?5Item?5Bonus?3?5?$CFs?$AA@
CONST	SEGMENT
??_C@_0BJ@NMLLBIJJ@?$EA?$FLMMOTOP?$FN?5Item?5Bonus?3?5?$CFs?$AA@ DB '@[MM'
	DB	'OTOP] Item Bonus: %s', 00H			; `string'
CONST	ENDS
;	COMDAT ??_C@_0DG@CODMCGBJ@?$EA?$FLMMOTOP?$FN?5Need?5to?5make?5space?5in?5@
CONST	SEGMENT
??_C@_0DG@CODMCGBJ@?$EA?$FLMMOTOP?$FN?5Need?5to?5make?5space?5in?5@ DB '@'
	DB	'[MMOTOP] Need to make space in the inventory (%dx%d)', 00H ; `string'
CONST	ENDS
;	COMDAT ??_C@_0BH@LAAAIICJ@?$EA?$FLSMS?5MMOTOP?$FN?5Date?3?5?$CFs?$AA@
CONST	SEGMENT
??_C@_0BH@LAAAIICJ@?$EA?$FLSMS?5MMOTOP?$FN?5Date?3?5?$CFs?$AA@ DB '@[SMS '
	DB	'MMOTOP] Date: %s', 00H			; `string'
CONST	ENDS
;	COMDAT ??_C@_0CC@HGBANFMA@?$EA?$FLSMS?5MMOTOP?$FN?5Life?5Bank?5Bonus?3?5?$CF@
CONST	SEGMENT
??_C@_0CC@HGBANFMA@?$EA?$FLSMS?5MMOTOP?$FN?5Life?5Bank?5Bonus?3?5?$CF@ DB '@'
	DB	'[SMS MMOTOP] Life Bank Bonus: %d', 00H	; `string'
CONST	ENDS
;	COMDAT ??_C@_0CC@NCAGAAHA@?$EA?$FLSMS?5MMOTOP?$FN?5Soul?5Bank?5Bonus?3?5?$CF@
CONST	SEGMENT
??_C@_0CC@NCAGAAHA@?$EA?$FLSMS?5MMOTOP?$FN?5Soul?5Bank?5Bonus?3?5?$CF@ DB '@'
	DB	'[SMS MMOTOP] Soul Bank Bonus: %d', 00H	; `string'
CONST	ENDS
;	COMDAT ??_C@_0CD@HGDBOBJH@?$EA?$FLSMS?5MMOTOP?$FN?5Bless?5Bank?5Bonus?3?5@
CONST	SEGMENT
??_C@_0CD@HGDBOBJH@?$EA?$FLSMS?5MMOTOP?$FN?5Bless?5Bank?5Bonus?3?5@ DB '@'
	DB	'[SMS MMOTOP] Bless Bank Bonus: %d', 00H	; `string'
CONST	ENDS
;	COMDAT ??_C@_0CD@HMDEKBKA@?$EA?$FLSMS?5MMOTOP?$FN?5Chaos?5Bank?5Bonus?3?5@
CONST	SEGMENT
??_C@_0CD@HMDEKBKA@?$EA?$FLSMS?5MMOTOP?$FN?5Chaos?5Bank?5Bonus?3?5@ DB '@'
	DB	'[SMS MMOTOP] Chaos Bank Bonus: %d', 00H	; `string'
CONST	ENDS
;	COMDAT ??_C@_0BP@EPDEGELJ@?$EA?$FLSMS?5MMOTOP?$FN?5ExCred?5Bonus?3?5?$CFd?$AA@
CONST	SEGMENT
??_C@_0BP@EPDEGELJ@?$EA?$FLSMS?5MMOTOP?$FN?5ExCred?5Bonus?3?5?$CFd?$AA@ DB '@'
	DB	'[SMS MMOTOP] ExCred Bonus: %d', 00H		; `string'
CONST	ENDS
;	COMDAT ??_C@_0BP@GMEMOPJF@?$EA?$FLSMS?5MMOTOP?$FN?5Goblin?5Bonus?3?5?$CFd?$AA@
CONST	SEGMENT
??_C@_0BP@GMEMOPJF@?$EA?$FLSMS?5MMOTOP?$FN?5Goblin?5Bonus?3?5?$CFd?$AA@ DB '@'
	DB	'[SMS MMOTOP] Goblin Bonus: %d', 00H		; `string'
CONST	ENDS
;	COMDAT ??_C@_0BP@DDMGCBHO@?$EA?$FLSMS?5MMOTOP?$FN?5WCoinP?5Bonus?3?5?$CFd?$AA@
CONST	SEGMENT
??_C@_0BP@DDMGCBHO@?$EA?$FLSMS?5MMOTOP?$FN?5WCoinP?5Bonus?3?5?$CFd?$AA@ DB '@'
	DB	'[SMS MMOTOP] WCoinP Bonus: %d', 00H		; `string'
CONST	ENDS
;	COMDAT ??_C@_0BP@FPHPGFAP@?$EA?$FLSMS?5MMOTOP?$FN?5WcoinC?5Bonus?3?5?$CFd?$AA@
CONST	SEGMENT
??_C@_0BP@FPHPGFAP@?$EA?$FLSMS?5MMOTOP?$FN?5WcoinC?5Bonus?3?5?$CFd?$AA@ DB '@'
	DB	'[SMS MMOTOP] WcoinC Bonus: %d', 00H		; `string'
CONST	ENDS
;	COMDAT ??_C@_0BN@GCHBLMLE@?$EA?$FLSMS?5MMOTOP?$FN?5Item?5Bonus?3?5?$CFs?$AA@
CONST	SEGMENT
??_C@_0BN@GCHBLMLE@?$EA?$FLSMS?5MMOTOP?$FN?5Item?5Bonus?3?5?$CFs?$AA@ DB '@'
	DB	'[SMS MMOTOP] Item Bonus: %s', 00H		; `string'
CONST	ENDS
;	COMDAT ??_C@_0DK@LGEFFFOE@?$EA?$FLSMS?5MMOTOP?$FN?5Need?5to?5make?5space@
CONST	SEGMENT
??_C@_0DK@LGEFFFOE@?$EA?$FLSMS?5MMOTOP?$FN?5Need?5to?5make?5space@ DB '@['
	DB	'SMS MMOTOP] Need to make space in the inventory (%dx%d)', 00H ; `string'
CONST	ENDS
;	COMDAT ??_C@_0BC@FFOHHNEG@?$CFd?4?$CFd?4?$CFd?5?$CFd?3?$CFd?3?$CFd?$AA@
CONST	SEGMENT
??_C@_0BC@FFOHHNEG@?$CFd?4?$CFd?4?$CFd?5?$CFd?3?$CFd?3?$CFd?$AA@ DB '%d.%'
	DB	'd.%d %d:%d:%d', 00H				; `string'
CONST	ENDS
;	COMDAT ??_C@_05DNIIFBMG@?$CFs?5?$CFs?$AA@
CONST	SEGMENT
??_C@_05DNIIFBMG@?$CFs?5?$CFs?$AA@ DB '%s %s', 00H	; `string'
CONST	ENDS
;	COMDAT ??_C@_0BC@FDIFMHGC@?$CFd?5?$CFs?5?$CFs?5?$CFs?5?$CFs?5?$CFd?$AA@
CONST	SEGMENT
??_C@_0BC@FDIFMHGC@?$CFd?5?$CFs?5?$CFs?5?$CFs?5?$CFs?5?$CFd?$AA@ DB '%d %'
	DB	's %s %s %s %d', 00H				; `string'
CONST	ENDS
;	COMDAT ??_C@_01KDCPPGHE@r?$AA@
CONST	SEGMENT
??_C@_01KDCPPGHE@r?$AA@ DB 'r', 00H			; `string'
; Function compile flags: /Odtp /ZI
CONST	ENDS
_TEXT	SEGMENT
_Buff2$224592 = -1292					; size = 512
_Width$224568 = -780					; size = 4
_Height$224567 = -776					; size = 4
_Width$224542 = -772					; size = 4
_Height$224541 = -768					; size = 4
_lpObj$224537 = -764					; size = 4
_tData$224536 = -760					; size = 4
_ct$224534 = -756					; size = 8
_n$224523 = -748					; size = 4
_aIndex$224522 = -744					; size = 4
_nSec$224518 = -740					; size = 4
_nMin$224517 = -736					; size = 4
_nHour$224516 = -732					; size = 4
_nDay$224515 = -728					; size = 4
_nMonth$224514 = -724					; size = 4
_nYear$224513 = -720					; size = 4
_DataTime$224511 = -716					; size = 100
_mRewerd$224509 = -616					; size = 4
_mGetAccaunt$224508 = -612				; size = 20
_mGetIp$224507 = -592					; size = 20
_mGetTime$224506 = -572					; size = 20
_mGetDate$224505 = -552					; size = 20
_mId$224504 = -532					; size = 4
_Count$ = -528						; size = 4
_Buff$ = -524						; size = 512
_file$ = -12						; size = 4
_this$ = -8						; size = 4
__$ArrayPad$ = -4					; size = 4
?MootopReed@Voter@@QAEXXZ PROC				; Voter::MootopReed
; _this$ = ecx

; 307  : {

  00c20	55		 push	 ebp
  00c21	8b ec		 mov	 ebp, esp
  00c23	81 ec 4c 05 00
	00		 sub	 esp, 1356		; 0000054cH
  00c29	a1 00 00 00 00	 mov	 eax, DWORD PTR ___security_cookie
  00c2e	33 c5		 xor	 eax, ebp
  00c30	89 45 fc	 mov	 DWORD PTR __$ArrayPad$[ebp], eax
  00c33	53		 push	 ebx
  00c34	56		 push	 esi
  00c35	57		 push	 edi
  00c36	89 4d f8	 mov	 DWORD PTR _this$[ebp], ecx

; 308  : 	if(!this->MMOTOP_Enable) return;

  00c39	8b 45 f8	 mov	 eax, DWORD PTR _this$[ebp]
  00c3c	0f b6 08	 movzx	 ecx, BYTE PTR [eax]
  00c3f	85 c9		 test	 ecx, ecx
  00c41	75 05		 jne	 SHORT $LN44@MootopReed
  00c43	e9 5d 0c 00 00	 jmp	 $LN45@MootopReed
$LN44@MootopReed:

; 309  : 
; 310  : 	FILE * file = fopen(MMOTOP_FILE, "r");

  00c48	68 00 00 00 00	 push	 OFFSET ??_C@_01KDCPPGHE@r?$AA@
  00c4d	68 00 00 00 00	 push	 OFFSET ??_C@_0L@HNCANJIK@mmotop?4txt?$AA@
  00c52	e8 00 00 00 00	 call	 _fopen
  00c57	83 c4 08	 add	 esp, 8
  00c5a	89 45 f4	 mov	 DWORD PTR _file$[ebp], eax

; 311  : 
; 312  : 	if (file == NULL)

  00c5d	83 7d f4 00	 cmp	 DWORD PTR _file$[ebp], 0
  00c61	75 05		 jne	 SHORT $LN43@MootopReed

; 313  : 	{
; 314  : #ifdef VOTE_DEBUG
; 315  : 		LogAddC(2,"[VOTE]No FILE");
; 316  : #endif
; 317  : 		return;

  00c63	e9 3d 0c 00 00	 jmp	 $LN45@MootopReed
$LN43@MootopReed:

; 318  : 	}
; 319  : 
; 320  : 	char Buff[512];
; 321  : 
; 322  : 	int Count = 0;

  00c68	c7 85 f0 fd ff
	ff 00 00 00 00	 mov	 DWORD PTR _Count$[ebp], 0
$LN50@MootopReed:

; 323  : 
; 324  : 	while (!feof(file))

  00c72	8b 45 f4	 mov	 eax, DWORD PTR _file$[ebp]
  00c75	50		 push	 eax
  00c76	e8 00 00 00 00	 call	 _feof
  00c7b	83 c4 04	 add	 esp, 4
  00c7e	85 c0		 test	 eax, eax
  00c80	0f 85 fb 0b 00
	00		 jne	 $LN41@MootopReed

; 325  : 	{
; 326  : 		fgets(Buff,512,file);

  00c86	8b 45 f4	 mov	 eax, DWORD PTR _file$[ebp]
  00c89	50		 push	 eax
  00c8a	68 00 02 00 00	 push	 512			; 00000200H
  00c8f	8d 8d f4 fd ff
	ff		 lea	 ecx, DWORD PTR _Buff$[ebp]
  00c95	51		 push	 ecx
  00c96	e8 00 00 00 00	 call	 _fgets
  00c9b	83 c4 0c	 add	 esp, 12			; 0000000cH

; 327  : 
; 328  : 		int mId;
; 329  : 		char mGetDate[20];
; 330  : 		char mGetTime[20];
; 331  : 		char mGetIp[20];
; 332  : 		char mGetAccaunt[20];
; 333  : 		int mRewerd;
; 334  : 
; 335  : 		sscanf(Buff, "%d %s %s %s %s %d",&mId, &mGetDate, &mGetTime, &mGetIp, &mGetAccaunt, &mRewerd);

  00c9e	8d 85 98 fd ff
	ff		 lea	 eax, DWORD PTR _mRewerd$224509[ebp]
  00ca4	50		 push	 eax
  00ca5	8d 8d 9c fd ff
	ff		 lea	 ecx, DWORD PTR _mGetAccaunt$224508[ebp]
  00cab	51		 push	 ecx
  00cac	8d 95 b0 fd ff
	ff		 lea	 edx, DWORD PTR _mGetIp$224507[ebp]
  00cb2	52		 push	 edx
  00cb3	8d 85 c4 fd ff
	ff		 lea	 eax, DWORD PTR _mGetTime$224506[ebp]
  00cb9	50		 push	 eax
  00cba	8d 8d d8 fd ff
	ff		 lea	 ecx, DWORD PTR _mGetDate$224505[ebp]
  00cc0	51		 push	 ecx
  00cc1	8d 95 ec fd ff
	ff		 lea	 edx, DWORD PTR _mId$224504[ebp]
  00cc7	52		 push	 edx
  00cc8	68 00 00 00 00	 push	 OFFSET ??_C@_0BC@FDIFMHGC@?$CFd?5?$CFs?5?$CFs?5?$CFs?5?$CFs?5?$CFd?$AA@
  00ccd	8d 85 f4 fd ff
	ff		 lea	 eax, DWORD PTR _Buff$[ebp]
  00cd3	50		 push	 eax
  00cd4	e8 00 00 00 00	 call	 _sscanf
  00cd9	83 c4 20	 add	 esp, 32			; 00000020H

; 336  : 
; 337  : 		char DataTime[100];
; 338  : 		sprintf(DataTime, "%s %s",mGetDate, mGetTime);

  00cdc	8d 85 c4 fd ff
	ff		 lea	 eax, DWORD PTR _mGetTime$224506[ebp]
  00ce2	50		 push	 eax
  00ce3	8d 8d d8 fd ff
	ff		 lea	 ecx, DWORD PTR _mGetDate$224505[ebp]
  00ce9	51		 push	 ecx
  00cea	68 00 00 00 00	 push	 OFFSET ??_C@_05DNIIFBMG@?$CFs?5?$CFs?$AA@
  00cef	8d 95 34 fd ff
	ff		 lea	 edx, DWORD PTR _DataTime$224511[ebp]
  00cf5	52		 push	 edx
  00cf6	e8 00 00 00 00	 call	 _sprintf
  00cfb	83 c4 10	 add	 esp, 16			; 00000010H

; 339  : 
; 340  : 		int nYear, nMonth, nDay, nHour, nMin, nSec;
; 341  : 		sscanf(DataTime, "%d.%d.%d %d:%d:%d", &nDay, &nMonth, &nYear, &nHour, &nMin, &nSec);

  00cfe	8d 85 1c fd ff
	ff		 lea	 eax, DWORD PTR _nSec$224518[ebp]
  00d04	50		 push	 eax
  00d05	8d 8d 20 fd ff
	ff		 lea	 ecx, DWORD PTR _nMin$224517[ebp]
  00d0b	51		 push	 ecx
  00d0c	8d 95 24 fd ff
	ff		 lea	 edx, DWORD PTR _nHour$224516[ebp]
  00d12	52		 push	 edx
  00d13	8d 85 30 fd ff
	ff		 lea	 eax, DWORD PTR _nYear$224513[ebp]
  00d19	50		 push	 eax
  00d1a	8d 8d 2c fd ff
	ff		 lea	 ecx, DWORD PTR _nMonth$224514[ebp]
  00d20	51		 push	 ecx
  00d21	8d 95 28 fd ff
	ff		 lea	 edx, DWORD PTR _nDay$224515[ebp]
  00d27	52		 push	 edx
  00d28	68 00 00 00 00	 push	 OFFSET ??_C@_0BC@FFOHHNEG@?$CFd?4?$CFd?4?$CFd?5?$CFd?3?$CFd?3?$CFd?$AA@
  00d2d	8d 85 34 fd ff
	ff		 lea	 eax, DWORD PTR _DataTime$224511[ebp]
  00d33	50		 push	 eax
  00d34	e8 00 00 00 00	 call	 _sscanf
  00d39	83 c4 20	 add	 esp, 32			; 00000020H

; 342  : 		//20140215010507
; 343  : 		if( ((nYear >= 1900)  && (nMonth >= 1 && nMonth <= 12) && (nDay >= 1 && nDay <= 31) && (nHour >= 0 && nHour <= 23) && (nMin >= 0 && nMin <= 59) && (nSec >= 0 && nSec <= 59)) )

  00d3c	81 bd 30 fd ff
	ff 6c 07 00 00	 cmp	 DWORD PTR _nYear$224513[ebp], 1900 ; 0000076cH
  00d46	7c 5c		 jl	 SHORT $LN40@MootopReed
  00d48	83 bd 2c fd ff
	ff 01		 cmp	 DWORD PTR _nMonth$224514[ebp], 1
  00d4f	7c 53		 jl	 SHORT $LN40@MootopReed
  00d51	83 bd 2c fd ff
	ff 0c		 cmp	 DWORD PTR _nMonth$224514[ebp], 12 ; 0000000cH
  00d58	7f 4a		 jg	 SHORT $LN40@MootopReed
  00d5a	83 bd 28 fd ff
	ff 01		 cmp	 DWORD PTR _nDay$224515[ebp], 1
  00d61	7c 41		 jl	 SHORT $LN40@MootopReed
  00d63	83 bd 28 fd ff
	ff 1f		 cmp	 DWORD PTR _nDay$224515[ebp], 31 ; 0000001fH
  00d6a	7f 38		 jg	 SHORT $LN40@MootopReed
  00d6c	83 bd 24 fd ff
	ff 00		 cmp	 DWORD PTR _nHour$224516[ebp], 0
  00d73	7c 2f		 jl	 SHORT $LN40@MootopReed
  00d75	83 bd 24 fd ff
	ff 17		 cmp	 DWORD PTR _nHour$224516[ebp], 23 ; 00000017H
  00d7c	7f 26		 jg	 SHORT $LN40@MootopReed
  00d7e	83 bd 20 fd ff
	ff 00		 cmp	 DWORD PTR _nMin$224517[ebp], 0
  00d85	7c 1d		 jl	 SHORT $LN40@MootopReed
  00d87	83 bd 20 fd ff
	ff 3b		 cmp	 DWORD PTR _nMin$224517[ebp], 59 ; 0000003bH
  00d8e	7f 14		 jg	 SHORT $LN40@MootopReed
  00d90	83 bd 1c fd ff
	ff 00		 cmp	 DWORD PTR _nSec$224518[ebp], 0
  00d97	7c 0b		 jl	 SHORT $LN40@MootopReed
  00d99	83 bd 1c fd ff
	ff 3b		 cmp	 DWORD PTR _nSec$224518[ebp], 59 ; 0000003bH
  00da0	7f 02		 jg	 SHORT $LN40@MootopReed

; 344  : 		{
; 345  : 
; 346  : 		}
; 347  : 		else

  00da2	eb 05		 jmp	 SHORT $LN39@MootopReed
$LN40@MootopReed:

; 348  : 		{
; 349  : 			continue;

  00da4	e9 c9 fe ff ff	 jmp	 $LN50@MootopReed
$LN39@MootopReed:

; 350  : 		}
; 351  : 
; 352  : 		int aIndex = -1;

  00da9	c7 85 18 fd ff
	ff ff ff ff ff	 mov	 DWORD PTR _aIndex$224522[ebp], -1

; 353  : 
; 354  : 		for (int n = OBJ_STARTUSERINDEX; n<OBJMAX; n++)

  00db3	c7 85 14 fd ff
	ff b0 36 00 00	 mov	 DWORD PTR _n$224523[ebp], 14000 ; 000036b0H
  00dbd	eb 0f		 jmp	 SHORT $LN38@MootopReed
$LN37@MootopReed:
  00dbf	8b 85 14 fd ff
	ff		 mov	 eax, DWORD PTR _n$224523[ebp]
  00dc5	83 c0 01	 add	 eax, 1
  00dc8	89 85 14 fd ff
	ff		 mov	 DWORD PTR _n$224523[ebp], eax
$LN38@MootopReed:
  00dce	81 bd 14 fd ff
	ff 98 3a 00 00	 cmp	 DWORD PTR _n$224523[ebp], 15000 ; 00003a98H
  00dd8	0f 8d d8 00 00
	00		 jge	 $LN36@MootopReed

; 355  : 		{
; 356  : 			if (gObj[n].Connected >= PLAYER_PLAYING)

  00dde	8b 85 14 fd ff
	ff		 mov	 eax, DWORD PTR _n$224523[ebp]
  00de4	69 c0 38 2b 00
	00		 imul	 eax, 11064		; 00002b38H
  00dea	8b 0d 00 00 00
	00		 mov	 ecx, DWORD PTR ?gObj@@3PAUOBJECTSTRUCT@@A ; gObj
  00df0	83 7c 01 04 03	 cmp	 DWORD PTR [ecx+eax+4], 3
  00df5	0f 8c b6 00 00
	00		 jl	 $LN30@MootopReed

; 357  : 			{
; 358  : 				if (gObj[n].AccountID[0] == mGetAccaunt[0])

  00dfb	8b 85 14 fd ff
	ff		 mov	 eax, DWORD PTR _n$224523[ebp]
  00e01	69 c0 38 2b 00
	00		 imul	 eax, 11064		; 00002b38H
  00e07	8b 0d 00 00 00
	00		 mov	 ecx, DWORD PTR ?gObj@@3PAUOBJECTSTRUCT@@A ; gObj
  00e0d	0f be 54 01 6c	 movsx	 edx, BYTE PTR [ecx+eax+108]
  00e12	0f be 85 9c fd
	ff ff		 movsx	 eax, BYTE PTR _mGetAccaunt$224508[ebp]
  00e19	3b d0		 cmp	 edx, eax
  00e1b	75 3a		 jne	 SHORT $LN34@MootopReed

; 359  : 				{
; 360  : 					if (!strcmp(gObj[n].AccountID, mGetAccaunt))

  00e1d	8d 85 9c fd ff
	ff		 lea	 eax, DWORD PTR _mGetAccaunt$224508[ebp]
  00e23	50		 push	 eax
  00e24	8b 8d 14 fd ff
	ff		 mov	 ecx, DWORD PTR _n$224523[ebp]
  00e2a	69 c9 38 2b 00
	00		 imul	 ecx, 11064		; 00002b38H
  00e30	8b 15 00 00 00
	00		 mov	 edx, DWORD PTR ?gObj@@3PAUOBJECTSTRUCT@@A ; gObj
  00e36	8d 44 0a 6c	 lea	 eax, DWORD PTR [edx+ecx+108]
  00e3a	50		 push	 eax
  00e3b	e8 00 00 00 00	 call	 _strcmp
  00e40	83 c4 08	 add	 esp, 8
  00e43	85 c0		 test	 eax, eax
  00e45	75 0e		 jne	 SHORT $LN33@MootopReed

; 361  : 					{
; 362  : 						aIndex = n;

  00e47	8b 85 14 fd ff
	ff		 mov	 eax, DWORD PTR _n$224523[ebp]
  00e4d	89 85 18 fd ff
	ff		 mov	 DWORD PTR _aIndex$224522[ebp], eax

; 363  : 						break;

  00e53	eb 61		 jmp	 SHORT $LN36@MootopReed
$LN33@MootopReed:

; 364  : 					}
; 365  : 				}

  00e55	eb 5a		 jmp	 SHORT $LN30@MootopReed
$LN34@MootopReed:

; 366  : 				else if(gObj[n].Name[0] == mGetAccaunt[0])

  00e57	8b 85 14 fd ff
	ff		 mov	 eax, DWORD PTR _n$224523[ebp]
  00e5d	69 c0 38 2b 00
	00		 imul	 eax, 11064		; 00002b38H
  00e63	8b 0d 00 00 00
	00		 mov	 ecx, DWORD PTR ?gObj@@3PAUOBJECTSTRUCT@@A ; gObj
  00e69	0f be 54 01 77	 movsx	 edx, BYTE PTR [ecx+eax+119]
  00e6e	0f be 85 9c fd
	ff ff		 movsx	 eax, BYTE PTR _mGetAccaunt$224508[ebp]
  00e75	3b d0		 cmp	 edx, eax
  00e77	75 38		 jne	 SHORT $LN30@MootopReed

; 367  : 				{
; 368  : 					if (!strcmp(gObj[n].Name, mGetAccaunt))

  00e79	8d 85 9c fd ff
	ff		 lea	 eax, DWORD PTR _mGetAccaunt$224508[ebp]
  00e7f	50		 push	 eax
  00e80	8b 8d 14 fd ff
	ff		 mov	 ecx, DWORD PTR _n$224523[ebp]
  00e86	69 c9 38 2b 00
	00		 imul	 ecx, 11064		; 00002b38H
  00e8c	8b 15 00 00 00
	00		 mov	 edx, DWORD PTR ?gObj@@3PAUOBJECTSTRUCT@@A ; gObj
  00e92	8d 44 0a 77	 lea	 eax, DWORD PTR [edx+ecx+119]
  00e96	50		 push	 eax
  00e97	e8 00 00 00 00	 call	 _strcmp
  00e9c	83 c4 08	 add	 esp, 8
  00e9f	85 c0		 test	 eax, eax
  00ea1	75 0e		 jne	 SHORT $LN30@MootopReed

; 369  : 					{
; 370  : 						aIndex = n;

  00ea3	8b 85 14 fd ff
	ff		 mov	 eax, DWORD PTR _n$224523[ebp]
  00ea9	89 85 18 fd ff
	ff		 mov	 DWORD PTR _aIndex$224522[ebp], eax

; 371  : 						break;

  00eaf	eb 05		 jmp	 SHORT $LN36@MootopReed
$LN30@MootopReed:

; 372  : 					}
; 373  : 				}
; 374  : 			}
; 375  : 		}

  00eb1	e9 09 ff ff ff	 jmp	 $LN37@MootopReed
$LN36@MootopReed:

; 376  : 
; 377  : 		if(aIndex == -1) continue;

  00eb6	83 bd 18 fd ff
	ff ff		 cmp	 DWORD PTR _aIndex$224522[ebp], -1
  00ebd	75 05		 jne	 SHORT $LN29@MootopReed
  00ebf	e9 ae fd ff ff	 jmp	 $LN50@MootopReed
$LN29@MootopReed:

; 378  : 
; 379  : 		CTime ct = StrToCTime(DataTime);

  00ec4	8d 85 34 fd ff
	ff		 lea	 eax, DWORD PTR _DataTime$224511[ebp]
  00eca	50		 push	 eax
  00ecb	8d 8d 0c fd ff
	ff		 lea	 ecx, DWORD PTR _ct$224534[ebp]
  00ed1	51		 push	 ecx
  00ed2	e8 00 00 00 00	 call	 ?StrToCTime@@YA?AVCTime@ATL@@PBD@Z ; StrToCTime
  00ed7	83 c4 08	 add	 esp, 8

; 380  : 		DWORD tData = ct.GetTime();

  00eda	8d 8d 0c fd ff
	ff		 lea	 ecx, DWORD PTR _ct$224534[ebp]
  00ee0	e8 00 00 00 00	 call	 ?GetTime@CTime@ATL@@QBE_JXZ ; ATL::CTime::GetTime
  00ee5	89 85 08 fd ff
	ff		 mov	 DWORD PTR _tData$224536[ebp], eax

; 381  : 
; 382  : 		LPOBJ lpObj = &gObj[aIndex];

  00eeb	8b 85 18 fd ff
	ff		 mov	 eax, DWORD PTR _aIndex$224522[ebp]
  00ef1	69 c0 38 2b 00
	00		 imul	 eax, 11064		; 00002b38H
  00ef7	03 05 00 00 00
	00		 add	 eax, DWORD PTR ?gObj@@3PAUOBJECTSTRUCT@@A ; gObj
  00efd	89 85 04 fd ff
	ff		 mov	 DWORD PTR _lpObj$224537[ebp], eax

; 383  : 
; 384  : 
; 385  : 		if(tData > lpObj->MTDate)

  00f03	8b 85 04 fd ff
	ff		 mov	 eax, DWORD PTR _lpObj$224537[ebp]
  00f09	8b 8d 08 fd ff
	ff		 mov	 ecx, DWORD PTR _tData$224536[ebp]
  00f0f	3b 88 08 28 00
	00		 cmp	 ecx, DWORD PTR [eax+10248]
  00f15	0f 86 61 09 00
	00		 jbe	 $LN28@MootopReed

; 386  : 		{
; 387  : 			if(mRewerd == 2)

  00f1b	83 bd 98 fd ff
	ff 02		 cmp	 DWORD PTR _mRewerd$224509[ebp], 2
  00f22	0f 85 48 04 00
	00		 jne	 $LN27@MootopReed

; 388  : 			{
; 389  : 			//~~~~~~~~~~~~~~~~~~~~~~~~~~~~~~~~~~~~~~~~~~~~~~~~~
; 390  : 				if (this->MMOTOP_SMSBonusItemActive)

  00f28	8b 45 f8	 mov	 eax, DWORD PTR _this$[ebp]
  00f2b	83 b8 10 01 00
	00 00		 cmp	 DWORD PTR [eax+272], 0
  00f32	0f 84 0d 01 00
	00		 je	 $LN26@MootopReed

; 391  : 				{
; 392  : 					int Height = ItemAttribute[ITEMGET(this->MMOTOP_SMSBonusItemType, this->MMOTOP_SMSBonusItemIndex)].Height;

  00f38	8b 45 f8	 mov	 eax, DWORD PTR _this$[ebp]
  00f3b	8b 88 14 01 00
	00		 mov	 ecx, DWORD PTR [eax+276]
  00f41	c1 e1 09	 shl	 ecx, 9
  00f44	8b 55 f8	 mov	 edx, DWORD PTR _this$[ebp]
  00f47	03 8a 18 01 00
	00		 add	 ecx, DWORD PTR [edx+280]
  00f4d	6b c9 70	 imul	 ecx, 112		; 00000070H
  00f50	0f b6 81 24 00
	00 00		 movzx	 eax, BYTE PTR ?ItemAttribute@@3PAUITEM_ATTRIBUTE@@A[ecx+36]
  00f57	89 85 00 fd ff
	ff		 mov	 DWORD PTR _Height$224541[ebp], eax

; 393  : 					int Width = ItemAttribute[ITEMGET(this->MMOTOP_SMSBonusItemType, this->MMOTOP_SMSBonusItemIndex)].Width;

  00f5d	8b 45 f8	 mov	 eax, DWORD PTR _this$[ebp]
  00f60	8b 88 14 01 00
	00		 mov	 ecx, DWORD PTR [eax+276]
  00f66	c1 e1 09	 shl	 ecx, 9
  00f69	8b 55 f8	 mov	 edx, DWORD PTR _this$[ebp]
  00f6c	03 8a 18 01 00
	00		 add	 ecx, DWORD PTR [edx+280]
  00f72	6b c9 70	 imul	 ecx, 112		; 00000070H
  00f75	0f b6 81 23 00
	00 00		 movzx	 eax, BYTE PTR ?ItemAttribute@@3PAUITEM_ATTRIBUTE@@A[ecx+35]
  00f7c	89 85 fc fc ff
	ff		 mov	 DWORD PTR _Width$224542[ebp], eax

; 394  : 
; 395  : 					if(!CheckInventoryEmptySpace(lpObj, Height, Width))

  00f82	8b 85 fc fc ff
	ff		 mov	 eax, DWORD PTR _Width$224542[ebp]
  00f88	50		 push	 eax
  00f89	8b 8d 00 fd ff
	ff		 mov	 ecx, DWORD PTR _Height$224541[ebp]
  00f8f	51		 push	 ecx
  00f90	8b 95 04 fd ff
	ff		 mov	 edx, DWORD PTR _lpObj$224537[ebp]
  00f96	52		 push	 edx
  00f97	e8 00 00 00 00	 call	 ?CheckInventoryEmptySpace@@YAHPAUOBJECTSTRUCT@@HH@Z ; CheckInventoryEmptySpace
  00f9c	83 c4 0c	 add	 esp, 12			; 0000000cH
  00f9f	85 c0		 test	 eax, eax
  00fa1	75 23		 jne	 SHORT $LN25@MootopReed

; 396  : 					{
; 397  : 						MessageChat(aIndex, "@[SMS MMOTOP] Need to make space in the inventory (%dx%d)", this->MMOTOP_SMSBonusWcoinC);

  00fa3	8b 45 f8	 mov	 eax, DWORD PTR _this$[ebp]
  00fa6	8b 88 00 01 00
	00		 mov	 ecx, DWORD PTR [eax+256]
  00fac	51		 push	 ecx
  00fad	68 00 00 00 00	 push	 OFFSET ??_C@_0DK@LGEFFFOE@?$EA?$FLSMS?5MMOTOP?$FN?5Need?5to?5make?5space@
  00fb2	8b 95 18 fd ff
	ff		 mov	 edx, DWORD PTR _aIndex$224522[ebp]
  00fb8	52		 push	 edx
  00fb9	e8 00 00 00 00	 call	 ?MessageChat@@YAXHPADZZ	; MessageChat
  00fbe	83 c4 0c	 add	 esp, 12			; 0000000cH

; 398  : 						continue;

  00fc1	e9 ac fc ff ff	 jmp	 $LN50@MootopReed
$LN25@MootopReed:

; 399  : 					}
; 400  : 
; 401  : 					ItemSerialCreateSend(aIndex, 235, 0, 0, ITEMGET(this->MMOTOP_SMSBonusItemType, this->MMOTOP_SMSBonusItemIndex), this->MMOTOP_SMSBonusItemLevel, 0, 0, 0, 0, aIndex, 0, 0);

  00fc6	6a 00		 push	 0
  00fc8	6a 00		 push	 0
  00fca	8b 85 18 fd ff
	ff		 mov	 eax, DWORD PTR _aIndex$224522[ebp]
  00fd0	50		 push	 eax
  00fd1	6a 00		 push	 0
  00fd3	6a 00		 push	 0
  00fd5	6a 00		 push	 0
  00fd7	6a 00		 push	 0
  00fd9	8b 4d f8	 mov	 ecx, DWORD PTR _this$[ebp]
  00fdc	0f b6 91 1c 01
	00 00		 movzx	 edx, BYTE PTR [ecx+284]
  00fe3	52		 push	 edx
  00fe4	8b 45 f8	 mov	 eax, DWORD PTR _this$[ebp]
  00fe7	8b 88 14 01 00
	00		 mov	 ecx, DWORD PTR [eax+276]
  00fed	c1 e1 09	 shl	 ecx, 9
  00ff0	8b 55 f8	 mov	 edx, DWORD PTR _this$[ebp]
  00ff3	03 8a 18 01 00
	00		 add	 ecx, DWORD PTR [edx+280]
  00ff9	51		 push	 ecx
  00ffa	6a 00		 push	 0
  00ffc	6a 00		 push	 0
  00ffe	68 eb 00 00 00	 push	 235			; 000000ebH
  01003	8b 85 18 fd ff
	ff		 mov	 eax, DWORD PTR _aIndex$224522[ebp]
  01009	50		 push	 eax
  0100a	e8 00 00 00 00	 call	 ?ItemSerialCreateSend@@YAXHEEEHEEEEEHEE@Z ; ItemSerialCreateSend
  0100f	83 c4 34	 add	 esp, 52			; 00000034H

; 402  : 					MessageChat(aIndex, "@[SMS MMOTOP] Item Bonus: %s", ItemAttribute[ITEMGET(this->MMOTOP_SMSBonusItemType, this->MMOTOP_SMSBonusItemIndex)].Name);

  01012	8b 45 f8	 mov	 eax, DWORD PTR _this$[ebp]
  01015	8b 88 14 01 00
	00		 mov	 ecx, DWORD PTR [eax+276]
  0101b	c1 e1 09	 shl	 ecx, 9
  0101e	8b 55 f8	 mov	 edx, DWORD PTR _this$[ebp]
  01021	03 8a 18 01 00
	00		 add	 ecx, DWORD PTR [edx+280]
  01027	6b c9 70	 imul	 ecx, 112		; 00000070H
  0102a	81 c1 00 00 00
	00		 add	 ecx, OFFSET ?ItemAttribute@@3PAUITEM_ATTRIBUTE@@A ; ItemAttribute
  01030	51		 push	 ecx
  01031	68 00 00 00 00	 push	 OFFSET ??_C@_0BN@GCHBLMLE@?$EA?$FLSMS?5MMOTOP?$FN?5Item?5Bonus?3?5?$CFs?$AA@
  01036	8b 85 18 fd ff
	ff		 mov	 eax, DWORD PTR _aIndex$224522[ebp]
  0103c	50		 push	 eax
  0103d	e8 00 00 00 00	 call	 ?MessageChat@@YAXHPADZZ	; MessageChat
  01042	83 c4 0c	 add	 esp, 12			; 0000000cH
$LN26@MootopReed:

; 403  : 				}
; 404  : 
; 405  : 				if (this->MMOTOP_SMSBonusWcoinC > 0)

  01045	8b 45 f8	 mov	 eax, DWORD PTR _this$[ebp]
  01048	83 b8 00 01 00
	00 00		 cmp	 DWORD PTR [eax+256], 0
  0104f	7e 50		 jle	 SHORT $LN24@MootopReed

; 406  : 				{
; 407  : 					lpObj->GameShop.WCoinC += this->MMOTOP_SMSBonusWcoinC;

  01051	8b 45 f8	 mov	 eax, DWORD PTR _this$[ebp]
  01054	db 80 00 01 00
	00		 fild	 DWORD PTR [eax+256]
  0105a	8b 8d 04 fd ff
	ff		 mov	 ecx, DWORD PTR _lpObj$224537[ebp]
  01060	dc 81 00 23 00
	00		 fadd	 QWORD PTR [ecx+8960]
  01066	8b 95 04 fd ff
	ff		 mov	 edx, DWORD PTR _lpObj$224537[ebp]
  0106c	dd 9a 00 23 00
	00		 fstp	 QWORD PTR [edx+8960]

; 408  : 					gGameShop.GDSaveUserInfo(aIndex);

  01072	8b 85 18 fd ff
	ff		 mov	 eax, DWORD PTR _aIndex$224522[ebp]
  01078	50		 push	 eax
  01079	b9 00 00 00 00	 mov	 ecx, OFFSET ?gGameShop@@3VGameShop@@A ; gGameShop
  0107e	e8 00 00 00 00	 call	 ?GDSaveUserInfo@GameShop@@QAEXH@Z ; GameShop::GDSaveUserInfo

; 409  : 					MessageChat(aIndex, "@[SMS MMOTOP] WcoinC Bonus: %d", this->MMOTOP_SMSBonusWcoinC);

  01083	8b 45 f8	 mov	 eax, DWORD PTR _this$[ebp]
  01086	8b 88 00 01 00
	00		 mov	 ecx, DWORD PTR [eax+256]
  0108c	51		 push	 ecx
  0108d	68 00 00 00 00	 push	 OFFSET ??_C@_0BP@FPHPGFAP@?$EA?$FLSMS?5MMOTOP?$FN?5WcoinC?5Bonus?3?5?$CFd?$AA@
  01092	8b 95 18 fd ff
	ff		 mov	 edx, DWORD PTR _aIndex$224522[ebp]
  01098	52		 push	 edx
  01099	e8 00 00 00 00	 call	 ?MessageChat@@YAXHPADZZ	; MessageChat
  0109e	83 c4 0c	 add	 esp, 12			; 0000000cH
$LN24@MootopReed:

; 410  : 				}
; 411  : 
; 412  : 				if (this->MMOTOP_SMSBonusWcoinP > 0)

  010a1	8b 45 f8	 mov	 eax, DWORD PTR _this$[ebp]
  010a4	83 b8 04 01 00
	00 00		 cmp	 DWORD PTR [eax+260], 0
  010ab	7e 50		 jle	 SHORT $LN23@MootopReed

; 413  : 				{
; 414  : 					lpObj->GameShop.WCoinP += this->MMOTOP_SMSBonusWcoinP;

  010ad	8b 45 f8	 mov	 eax, DWORD PTR _this$[ebp]
  010b0	db 80 04 01 00
	00		 fild	 DWORD PTR [eax+260]
  010b6	8b 8d 04 fd ff
	ff		 mov	 ecx, DWORD PTR _lpObj$224537[ebp]
  010bc	dc 81 f8 22 00
	00		 fadd	 QWORD PTR [ecx+8952]
  010c2	8b 95 04 fd ff
	ff		 mov	 edx, DWORD PTR _lpObj$224537[ebp]
  010c8	dd 9a f8 22 00
	00		 fstp	 QWORD PTR [edx+8952]

; 415  : 					gGameShop.GDSaveUserInfo(aIndex);

  010ce	8b 85 18 fd ff
	ff		 mov	 eax, DWORD PTR _aIndex$224522[ebp]
  010d4	50		 push	 eax
  010d5	b9 00 00 00 00	 mov	 ecx, OFFSET ?gGameShop@@3VGameShop@@A ; gGameShop
  010da	e8 00 00 00 00	 call	 ?GDSaveUserInfo@GameShop@@QAEXH@Z ; GameShop::GDSaveUserInfo

; 416  : 					MessageChat(aIndex, "@[SMS MMOTOP] WCoinP Bonus: %d", this->MMOTOP_SMSBonusWcoinP);

  010df	8b 45 f8	 mov	 eax, DWORD PTR _this$[ebp]
  010e2	8b 88 04 01 00
	00		 mov	 ecx, DWORD PTR [eax+260]
  010e8	51		 push	 ecx
  010e9	68 00 00 00 00	 push	 OFFSET ??_C@_0BP@DDMGCBHO@?$EA?$FLSMS?5MMOTOP?$FN?5WCoinP?5Bonus?3?5?$CFd?$AA@
  010ee	8b 95 18 fd ff
	ff		 mov	 edx, DWORD PTR _aIndex$224522[ebp]
  010f4	52		 push	 edx
  010f5	e8 00 00 00 00	 call	 ?MessageChat@@YAXHPADZZ	; MessageChat
  010fa	83 c4 0c	 add	 esp, 12			; 0000000cH
$LN23@MootopReed:

; 417  : 				}
; 418  : 
; 419  : 				if (this->MMOTOP_SMSBonusWcoinG > 0)

  010fd	8b 45 f8	 mov	 eax, DWORD PTR _this$[ebp]
  01100	83 b8 08 01 00
	00 00		 cmp	 DWORD PTR [eax+264], 0
  01107	7e 50		 jle	 SHORT $LN22@MootopReed

; 420  : 				{
; 421  : 					lpObj->GameShop.GoblinPoint += this->MMOTOP_SMSBonusWcoinG;

  01109	8b 45 f8	 mov	 eax, DWORD PTR _this$[ebp]
  0110c	db 80 08 01 00
	00		 fild	 DWORD PTR [eax+264]
  01112	8b 8d 04 fd ff
	ff		 mov	 ecx, DWORD PTR _lpObj$224537[ebp]
  01118	dc 81 08 23 00
	00		 fadd	 QWORD PTR [ecx+8968]
  0111e	8b 95 04 fd ff
	ff		 mov	 edx, DWORD PTR _lpObj$224537[ebp]
  01124	dd 9a 08 23 00
	00		 fstp	 QWORD PTR [edx+8968]

; 422  : 					gGameShop.GDSaveUserInfo(aIndex);

  0112a	8b 85 18 fd ff
	ff		 mov	 eax, DWORD PTR _aIndex$224522[ebp]
  01130	50		 push	 eax
  01131	b9 00 00 00 00	 mov	 ecx, OFFSET ?gGameShop@@3VGameShop@@A ; gGameShop
  01136	e8 00 00 00 00	 call	 ?GDSaveUserInfo@GameShop@@QAEXH@Z ; GameShop::GDSaveUserInfo

; 423  : 					MessageChat(aIndex, "@[SMS MMOTOP] Goblin Bonus: %d", this->MMOTOP_SMSBonusWcoinG);

  0113b	8b 45 f8	 mov	 eax, DWORD PTR _this$[ebp]
  0113e	8b 88 08 01 00
	00		 mov	 ecx, DWORD PTR [eax+264]
  01144	51		 push	 ecx
  01145	68 00 00 00 00	 push	 OFFSET ??_C@_0BP@GMEMOPJF@?$EA?$FLSMS?5MMOTOP?$FN?5Goblin?5Bonus?3?5?$CFd?$AA@
  0114a	8b 95 18 fd ff
	ff		 mov	 edx, DWORD PTR _aIndex$224522[ebp]
  01150	52		 push	 edx
  01151	e8 00 00 00 00	 call	 ?MessageChat@@YAXHPADZZ	; MessageChat
  01156	83 c4 0c	 add	 esp, 12			; 0000000cH
$LN22@MootopReed:

; 424  : 				}
; 425  : 
; 426  : 				if (this->MMOTOP_SMSBonusExCred > 0)

  01159	8b 45 f8	 mov	 eax, DWORD PTR _this$[ebp]
  0115c	83 b8 0c 01 00
	00 00		 cmp	 DWORD PTR [eax+268], 0
  01163	7e 3f		 jle	 SHORT $LN21@MootopReed

; 427  : 				{
; 428  : 					lpObj->ExCred += this->MMOTOP_SMSBonusExCred;

  01165	8b 45 f8	 mov	 eax, DWORD PTR _this$[ebp]
  01168	db 80 0c 01 00
	00		 fild	 DWORD PTR [eax+268]
  0116e	8b 8d 04 fd ff
	ff		 mov	 ecx, DWORD PTR _lpObj$224537[ebp]
  01174	d8 81 a8 22 00
	00		 fadd	 DWORD PTR [ecx+8872]
  0117a	8b 95 04 fd ff
	ff		 mov	 edx, DWORD PTR _lpObj$224537[ebp]
  01180	d9 9a a8 22 00
	00		 fstp	 DWORD PTR [edx+8872]

; 429  : 					MessageChat(aIndex, "@[SMS MMOTOP] ExCred Bonus: %d", this->MMOTOP_SMSBonusExCred);

  01186	8b 45 f8	 mov	 eax, DWORD PTR _this$[ebp]
  01189	8b 88 0c 01 00
	00		 mov	 ecx, DWORD PTR [eax+268]
  0118f	51		 push	 ecx
  01190	68 00 00 00 00	 push	 OFFSET ??_C@_0BP@EPDEGELJ@?$EA?$FLSMS?5MMOTOP?$FN?5ExCred?5Bonus?3?5?$CFd?$AA@
  01195	8b 95 18 fd ff
	ff		 mov	 edx, DWORD PTR _aIndex$224522[ebp]
  0119b	52		 push	 edx
  0119c	e8 00 00 00 00	 call	 ?MessageChat@@YAXHPADZZ	; MessageChat
  011a1	83 c4 0c	 add	 esp, 12			; 0000000cH
$LN21@MootopReed:

; 430  : 				}
; 431  : 
; 432  : 				if (this->MMOTOP_SMSBonusChaosBank > 0)

  011a4	8b 45 f8	 mov	 eax, DWORD PTR _this$[ebp]
  011a7	83 b8 20 01 00
	00 00		 cmp	 DWORD PTR [eax+288], 0
  011ae	7e 3f		 jle	 SHORT $LN20@MootopReed

; 433  : 				{
; 434  : 					lpObj->ChaosBank += this->MMOTOP_SMSBonusChaosBank;

  011b0	8b 85 04 fd ff
	ff		 mov	 eax, DWORD PTR _lpObj$224537[ebp]
  011b6	8b 88 e0 27 00
	00		 mov	 ecx, DWORD PTR [eax+10208]
  011bc	8b 55 f8	 mov	 edx, DWORD PTR _this$[ebp]
  011bf	03 8a 20 01 00
	00		 add	 ecx, DWORD PTR [edx+288]
  011c5	8b 85 04 fd ff
	ff		 mov	 eax, DWORD PTR _lpObj$224537[ebp]
  011cb	89 88 e0 27 00
	00		 mov	 DWORD PTR [eax+10208], ecx

; 435  : 					MessageChat(aIndex, "@[SMS MMOTOP] Chaos Bank Bonus: %d", this->MMOTOP_SMSBonusChaosBank);

  011d1	8b 45 f8	 mov	 eax, DWORD PTR _this$[ebp]
  011d4	8b 88 20 01 00
	00		 mov	 ecx, DWORD PTR [eax+288]
  011da	51		 push	 ecx
  011db	68 00 00 00 00	 push	 OFFSET ??_C@_0CD@HMDEKBKA@?$EA?$FLSMS?5MMOTOP?$FN?5Chaos?5Bank?5Bonus?3?5@
  011e0	8b 95 18 fd ff
	ff		 mov	 edx, DWORD PTR _aIndex$224522[ebp]
  011e6	52		 push	 edx
  011e7	e8 00 00 00 00	 call	 ?MessageChat@@YAXHPADZZ	; MessageChat
  011ec	83 c4 0c	 add	 esp, 12			; 0000000cH
$LN20@MootopReed:

; 436  : 				}
; 437  : 
; 438  : 				if (this->MMOTOP_SMSBonusBlessBank > 0)

  011ef	8b 45 f8	 mov	 eax, DWORD PTR _this$[ebp]
  011f2	83 b8 24 01 00
	00 00		 cmp	 DWORD PTR [eax+292], 0
  011f9	7e 3f		 jle	 SHORT $LN19@MootopReed

; 439  : 				{
; 440  : 					lpObj->BlessBank += this->MMOTOP_SMSBonusBlessBank;

  011fb	8b 85 04 fd ff
	ff		 mov	 eax, DWORD PTR _lpObj$224537[ebp]
  01201	8b 88 e4 27 00
	00		 mov	 ecx, DWORD PTR [eax+10212]
  01207	8b 55 f8	 mov	 edx, DWORD PTR _this$[ebp]
  0120a	03 8a 24 01 00
	00		 add	 ecx, DWORD PTR [edx+292]
  01210	8b 85 04 fd ff
	ff		 mov	 eax, DWORD PTR _lpObj$224537[ebp]
  01216	89 88 e4 27 00
	00		 mov	 DWORD PTR [eax+10212], ecx

; 441  : 					MessageChat(aIndex, "@[SMS MMOTOP] Bless Bank Bonus: %d", this->MMOTOP_SMSBonusBlessBank);

  0121c	8b 45 f8	 mov	 eax, DWORD PTR _this$[ebp]
  0121f	8b 88 24 01 00
	00		 mov	 ecx, DWORD PTR [eax+292]
  01225	51		 push	 ecx
  01226	68 00 00 00 00	 push	 OFFSET ??_C@_0CD@HGDBOBJH@?$EA?$FLSMS?5MMOTOP?$FN?5Bless?5Bank?5Bonus?3?5@
  0122b	8b 95 18 fd ff
	ff		 mov	 edx, DWORD PTR _aIndex$224522[ebp]
  01231	52		 push	 edx
  01232	e8 00 00 00 00	 call	 ?MessageChat@@YAXHPADZZ	; MessageChat
  01237	83 c4 0c	 add	 esp, 12			; 0000000cH
$LN19@MootopReed:

; 442  : 				}
; 443  : 
; 444  : 				if (this->MMOTOP_SMSBonusSoulBank > 0)

  0123a	8b 45 f8	 mov	 eax, DWORD PTR _this$[ebp]
  0123d	83 b8 28 01 00
	00 00		 cmp	 DWORD PTR [eax+296], 0
  01244	7e 3f		 jle	 SHORT $LN18@MootopReed

; 445  : 				{
; 446  : 					lpObj->SoulBank += this->MMOTOP_SMSBonusSoulBank;

  01246	8b 85 04 fd ff
	ff		 mov	 eax, DWORD PTR _lpObj$224537[ebp]
  0124c	8b 88 e8 27 00
	00		 mov	 ecx, DWORD PTR [eax+10216]
  01252	8b 55 f8	 mov	 edx, DWORD PTR _this$[ebp]
  01255	03 8a 28 01 00
	00		 add	 ecx, DWORD PTR [edx+296]
  0125b	8b 85 04 fd ff
	ff		 mov	 eax, DWORD PTR _lpObj$224537[ebp]
  01261	89 88 e8 27 00
	00		 mov	 DWORD PTR [eax+10216], ecx

; 447  : 					MessageChat(aIndex, "@[SMS MMOTOP] Soul Bank Bonus: %d", this->MMOTOP_SMSBonusSoulBank);

  01267	8b 45 f8	 mov	 eax, DWORD PTR _this$[ebp]
  0126a	8b 88 28 01 00
	00		 mov	 ecx, DWORD PTR [eax+296]
  01270	51		 push	 ecx
  01271	68 00 00 00 00	 push	 OFFSET ??_C@_0CC@NCAGAAHA@?$EA?$FLSMS?5MMOTOP?$FN?5Soul?5Bank?5Bonus?3?5?$CF@
  01276	8b 95 18 fd ff
	ff		 mov	 edx, DWORD PTR _aIndex$224522[ebp]
  0127c	52		 push	 edx
  0127d	e8 00 00 00 00	 call	 ?MessageChat@@YAXHPADZZ	; MessageChat
  01282	83 c4 0c	 add	 esp, 12			; 0000000cH
$LN18@MootopReed:

; 448  : 				}
; 449  : 
; 450  : 				if (this->MMOTOP_SMSBonusLifeBank > 0)

  01285	8b 45 f8	 mov	 eax, DWORD PTR _this$[ebp]
  01288	83 b8 2c 01 00
	00 00		 cmp	 DWORD PTR [eax+300], 0
  0128f	7e 3f		 jle	 SHORT $LN17@MootopReed

; 451  : 				{
; 452  : 					lpObj->LifeBank += this->MMOTOP_SMSBonusLifeBank;

  01291	8b 85 04 fd ff
	ff		 mov	 eax, DWORD PTR _lpObj$224537[ebp]
  01297	8b 88 ec 27 00
	00		 mov	 ecx, DWORD PTR [eax+10220]
  0129d	8b 55 f8	 mov	 edx, DWORD PTR _this$[ebp]
  012a0	03 8a 2c 01 00
	00		 add	 ecx, DWORD PTR [edx+300]
  012a6	8b 85 04 fd ff
	ff		 mov	 eax, DWORD PTR _lpObj$224537[ebp]
  012ac	89 88 ec 27 00
	00		 mov	 DWORD PTR [eax+10220], ecx

; 453  : 					MessageChat(aIndex, "@[SMS MMOTOP] Life Bank Bonus: %d", this->MMOTOP_SMSBonusLifeBank);

  012b2	8b 45 f8	 mov	 eax, DWORD PTR _this$[ebp]
  012b5	8b 88 2c 01 00
	00		 mov	 ecx, DWORD PTR [eax+300]
  012bb	51		 push	 ecx
  012bc	68 00 00 00 00	 push	 OFFSET ??_C@_0CC@HGBANFMA@?$EA?$FLSMS?5MMOTOP?$FN?5Life?5Bank?5Bonus?3?5?$CF@
  012c1	8b 95 18 fd ff
	ff		 mov	 edx, DWORD PTR _aIndex$224522[ebp]
  012c7	52		 push	 edx
  012c8	e8 00 00 00 00	 call	 ?MessageChat@@YAXHPADZZ	; MessageChat
  012cd	83 c4 0c	 add	 esp, 12			; 0000000cH
$LN17@MootopReed:

; 454  : 				}
; 455  : 
; 456  : 				// --> Buff Effect Custom
; 457  : 				if(g_ExLicense.CheckUser(eExUB::Gredy) || g_ExLicense.CheckUser(eExUB::GredyLocal) || g_ExLicense.CheckUser(eExUB::Gredy2))

  012d0	6a 20		 push	 32			; 00000020H
  012d2	b9 00 00 00 00	 mov	 ecx, OFFSET ?g_ExLicense@@3VCExLicense@@A ; g_ExLicense
  012d7	e8 00 00 00 00	 call	 ?CheckUser@CExLicense@@QAE_NH@Z ; CExLicense::CheckUser
  012dc	0f b6 c0	 movzx	 eax, al
  012df	85 c0		 test	 eax, eax
  012e1	75 26		 jne	 SHORT $LN15@MootopReed
  012e3	6a 21		 push	 33			; 00000021H
  012e5	b9 00 00 00 00	 mov	 ecx, OFFSET ?g_ExLicense@@3VCExLicense@@A ; g_ExLicense
  012ea	e8 00 00 00 00	 call	 ?CheckUser@CExLicense@@QAE_NH@Z ; CExLicense::CheckUser
  012ef	0f b6 c0	 movzx	 eax, al
  012f2	85 c0		 test	 eax, eax
  012f4	75 13		 jne	 SHORT $LN15@MootopReed
  012f6	6a 22		 push	 34			; 00000022H
  012f8	b9 00 00 00 00	 mov	 ecx, OFFSET ?g_ExLicense@@3VCExLicense@@A ; g_ExLicense
  012fd	e8 00 00 00 00	 call	 ?CheckUser@CExLicense@@QAE_NH@Z ; CExLicense::CheckUser
  01302	0f b6 c0	 movzx	 eax, al
  01305	85 c0		 test	 eax, eax
  01307	74 47		 je	 SHORT $LN16@MootopReed
$LN15@MootopReed:

; 458  : 				{
; 459  : 					lpObj->MT_BuffTime += this->MMOTOP_BuffTime;

  01309	8b 85 04 fd ff
	ff		 mov	 eax, DWORD PTR _lpObj$224537[ebp]
  0130f	8b 88 dc 2a 00
	00		 mov	 ecx, DWORD PTR [eax+10972]
  01315	8b 55 f8	 mov	 edx, DWORD PTR _this$[ebp]
  01318	03 8a 60 02 00
	00		 add	 ecx, DWORD PTR [edx+608]
  0131e	8b 85 04 fd ff
	ff		 mov	 eax, DWORD PTR _lpObj$224537[ebp]
  01324	89 88 dc 2a 00
	00		 mov	 DWORD PTR [eax+10972], ecx

; 460  : 					gObjApplyBuffEffectDuration(lpObj, AT_MMOTOP_BUFF, 0, 0, 0, 0, this->MMOTOP_BuffTime);

  0132a	8b 45 f8	 mov	 eax, DWORD PTR _this$[ebp]
  0132d	8b 88 60 02 00
	00		 mov	 ecx, DWORD PTR [eax+608]
  01333	51		 push	 ecx
  01334	6a 00		 push	 0
  01336	6a 00		 push	 0
  01338	6a 00		 push	 0
  0133a	6a 00		 push	 0
  0133c	68 c2 00 00 00	 push	 194			; 000000c2H
  01341	8b 95 04 fd ff
	ff		 mov	 edx, DWORD PTR _lpObj$224537[ebp]
  01347	52		 push	 edx
  01348	e8 00 00 00 00	 call	 ?gObjApplyBuffEffectDuration@@YAEPAUOBJECTSTRUCT@@HEHEHH@Z ; gObjApplyBuffEffectDuration
  0134d	83 c4 1c	 add	 esp, 28			; 0000001cH
$LN16@MootopReed:

; 461  : 				}
; 462  : 
; 463  : 				MessageChat(aIndex,"@[SMS MMOTOP] Date: %s",DataTime);

  01350	8d 85 34 fd ff
	ff		 lea	 eax, DWORD PTR _DataTime$224511[ebp]
  01356	50		 push	 eax
  01357	68 00 00 00 00	 push	 OFFSET ??_C@_0BH@LAAAIICJ@?$EA?$FLSMS?5MMOTOP?$FN?5Date?3?5?$CFs?$AA@
  0135c	8b 8d 18 fd ff
	ff		 mov	 ecx, DWORD PTR _aIndex$224522[ebp]
  01362	51		 push	 ecx
  01363	e8 00 00 00 00	 call	 ?MessageChat@@YAXHPADZZ	; MessageChat
  01368	83 c4 0c	 add	 esp, 12			; 0000000cH

; 464  : 			}
; 465  : 			else

  0136b	e9 4a 04 00 00	 jmp	 $LN14@MootopReed
$LN27@MootopReed:

; 466  : 			{
; 467  : 			//~~~~~~~~~~~~~~~~~~~~~~~~~~~~~~~~~~~~~~~~~~~~~~~~~
; 468  : 
; 469  : 				if (this->MMOTOP_BonusItemActive)

  01370	8b 45 f8	 mov	 eax, DWORD PTR _this$[ebp]
  01373	83 b8 e0 00 00
	00 00		 cmp	 DWORD PTR [eax+224], 0
  0137a	0f 84 11 01 00
	00		 je	 $LN13@MootopReed

; 470  : 				{
; 471  : 					int Height = ItemAttribute[ITEMGET(this->MMOTOP_BonusItemType, this->MMOTOP_BonusItemIndex)].Height;

  01380	8b 45 f8	 mov	 eax, DWORD PTR _this$[ebp]
  01383	8b 88 e4 00 00
	00		 mov	 ecx, DWORD PTR [eax+228]
  01389	c1 e1 09	 shl	 ecx, 9
  0138c	8b 55 f8	 mov	 edx, DWORD PTR _this$[ebp]
  0138f	03 8a e8 00 00
	00		 add	 ecx, DWORD PTR [edx+232]
  01395	6b c9 70	 imul	 ecx, 112		; 00000070H
  01398	0f b6 81 24 00
	00 00		 movzx	 eax, BYTE PTR ?ItemAttribute@@3PAUITEM_ATTRIBUTE@@A[ecx+36]
  0139f	89 85 f8 fc ff
	ff		 mov	 DWORD PTR _Height$224567[ebp], eax

; 472  : 					int Width = ItemAttribute[ITEMGET(this->MMOTOP_BonusItemType, this->MMOTOP_BonusItemIndex)].Width;

  013a5	8b 45 f8	 mov	 eax, DWORD PTR _this$[ebp]
  013a8	8b 88 e4 00 00
	00		 mov	 ecx, DWORD PTR [eax+228]
  013ae	c1 e1 09	 shl	 ecx, 9
  013b1	8b 55 f8	 mov	 edx, DWORD PTR _this$[ebp]
  013b4	03 8a e8 00 00
	00		 add	 ecx, DWORD PTR [edx+232]
  013ba	6b c9 70	 imul	 ecx, 112		; 00000070H
  013bd	0f b6 81 23 00
	00 00		 movzx	 eax, BYTE PTR ?ItemAttribute@@3PAUITEM_ATTRIBUTE@@A[ecx+35]
  013c4	89 85 f4 fc ff
	ff		 mov	 DWORD PTR _Width$224568[ebp], eax

; 473  : 
; 474  : 					if(!CheckInventoryEmptySpace(lpObj, Height, Width))

  013ca	8b 85 f4 fc ff
	ff		 mov	 eax, DWORD PTR _Width$224568[ebp]
  013d0	50		 push	 eax
  013d1	8b 8d f8 fc ff
	ff		 mov	 ecx, DWORD PTR _Height$224567[ebp]
  013d7	51		 push	 ecx
  013d8	8b 95 04 fd ff
	ff		 mov	 edx, DWORD PTR _lpObj$224537[ebp]
  013de	52		 push	 edx
  013df	e8 00 00 00 00	 call	 ?CheckInventoryEmptySpace@@YAHPAUOBJECTSTRUCT@@HH@Z ; CheckInventoryEmptySpace
  013e4	83 c4 0c	 add	 esp, 12			; 0000000cH
  013e7	85 c0		 test	 eax, eax
  013e9	75 27		 jne	 SHORT $LN12@MootopReed

; 475  : 					{
; 476  : 						MessageChat(aIndex,"@[MMOTOP] Need to make space in the inventory (%dx%d)",Height,Width);

  013eb	8b 85 f4 fc ff
	ff		 mov	 eax, DWORD PTR _Width$224568[ebp]
  013f1	50		 push	 eax
  013f2	8b 8d f8 fc ff
	ff		 mov	 ecx, DWORD PTR _Height$224567[ebp]
  013f8	51		 push	 ecx
  013f9	68 00 00 00 00	 push	 OFFSET ??_C@_0DG@CODMCGBJ@?$EA?$FLMMOTOP?$FN?5Need?5to?5make?5space?5in?5@
  013fe	8b 95 18 fd ff
	ff		 mov	 edx, DWORD PTR _aIndex$224522[ebp]
  01404	52		 push	 edx
  01405	e8 00 00 00 00	 call	 ?MessageChat@@YAXHPADZZ	; MessageChat
  0140a	83 c4 10	 add	 esp, 16			; 00000010H

; 477  : 						continue;

  0140d	e9 60 f8 ff ff	 jmp	 $LN50@MootopReed
$LN12@MootopReed:

; 478  : 					}
; 479  : 
; 480  : 					ItemSerialCreateSend(aIndex, 235, 0, 0, ITEMGET(this->MMOTOP_BonusItemType, this->MMOTOP_BonusItemIndex), this->MMOTOP_BonusItemLevel, 0, 0, 0, 0, aIndex, 0, 0);

  01412	6a 00		 push	 0
  01414	6a 00		 push	 0
  01416	8b 85 18 fd ff
	ff		 mov	 eax, DWORD PTR _aIndex$224522[ebp]
  0141c	50		 push	 eax
  0141d	6a 00		 push	 0
  0141f	6a 00		 push	 0
  01421	6a 00		 push	 0
  01423	6a 00		 push	 0
  01425	8b 4d f8	 mov	 ecx, DWORD PTR _this$[ebp]
  01428	0f b6 91 ec 00
	00 00		 movzx	 edx, BYTE PTR [ecx+236]
  0142f	52		 push	 edx
  01430	8b 45 f8	 mov	 eax, DWORD PTR _this$[ebp]
  01433	8b 88 e4 00 00
	00		 mov	 ecx, DWORD PTR [eax+228]
  01439	c1 e1 09	 shl	 ecx, 9
  0143c	8b 55 f8	 mov	 edx, DWORD PTR _this$[ebp]
  0143f	03 8a e8 00 00
	00		 add	 ecx, DWORD PTR [edx+232]
  01445	51		 push	 ecx
  01446	6a 00		 push	 0
  01448	6a 00		 push	 0
  0144a	68 eb 00 00 00	 push	 235			; 000000ebH
  0144f	8b 85 18 fd ff
	ff		 mov	 eax, DWORD PTR _aIndex$224522[ebp]
  01455	50		 push	 eax
  01456	e8 00 00 00 00	 call	 ?ItemSerialCreateSend@@YAXHEEEHEEEEEHEE@Z ; ItemSerialCreateSend
  0145b	83 c4 34	 add	 esp, 52			; 00000034H

; 481  : 					MessageChat(aIndex, "@[MMOTOP] Item Bonus: %s", ItemAttribute[ITEMGET(this->MMOTOP_SMSBonusItemType, this->MMOTOP_SMSBonusItemIndex)].Name);

  0145e	8b 45 f8	 mov	 eax, DWORD PTR _this$[ebp]
  01461	8b 88 14 01 00
	00		 mov	 ecx, DWORD PTR [eax+276]
  01467	c1 e1 09	 shl	 ecx, 9
  0146a	8b 55 f8	 mov	 edx, DWORD PTR _this$[ebp]
  0146d	03 8a 18 01 00
	00		 add	 ecx, DWORD PTR [edx+280]
  01473	6b c9 70	 imul	 ecx, 112		; 00000070H
  01476	81 c1 00 00 00
	00		 add	 ecx, OFFSET ?ItemAttribute@@3PAUITEM_ATTRIBUTE@@A ; ItemAttribute
  0147c	51		 push	 ecx
  0147d	68 00 00 00 00	 push	 OFFSET ??_C@_0BJ@NMLLBIJJ@?$EA?$FLMMOTOP?$FN?5Item?5Bonus?3?5?$CFs?$AA@
  01482	8b 85 18 fd ff
	ff		 mov	 eax, DWORD PTR _aIndex$224522[ebp]
  01488	50		 push	 eax
  01489	e8 00 00 00 00	 call	 ?MessageChat@@YAXHPADZZ	; MessageChat
  0148e	83 c4 0c	 add	 esp, 12			; 0000000cH
$LN13@MootopReed:

; 482  : 				}
; 483  : 
; 484  : 				if (this->MMOTOP_BonusWcoinC > 0)

  01491	8b 45 f8	 mov	 eax, DWORD PTR _this$[ebp]
  01494	83 b8 d0 00 00
	00 00		 cmp	 DWORD PTR [eax+208], 0
  0149b	7e 50		 jle	 SHORT $LN11@MootopReed

; 485  : 				{
; 486  : 					lpObj->GameShop.WCoinC += this->MMOTOP_BonusWcoinC;

  0149d	8b 45 f8	 mov	 eax, DWORD PTR _this$[ebp]
  014a0	db 80 d0 00 00
	00		 fild	 DWORD PTR [eax+208]
  014a6	8b 8d 04 fd ff
	ff		 mov	 ecx, DWORD PTR _lpObj$224537[ebp]
  014ac	dc 81 00 23 00
	00		 fadd	 QWORD PTR [ecx+8960]
  014b2	8b 95 04 fd ff
	ff		 mov	 edx, DWORD PTR _lpObj$224537[ebp]
  014b8	dd 9a 00 23 00
	00		 fstp	 QWORD PTR [edx+8960]

; 487  : 					gGameShop.GDSaveUserInfo(aIndex);

  014be	8b 85 18 fd ff
	ff		 mov	 eax, DWORD PTR _aIndex$224522[ebp]
  014c4	50		 push	 eax
  014c5	b9 00 00 00 00	 mov	 ecx, OFFSET ?gGameShop@@3VGameShop@@A ; gGameShop
  014ca	e8 00 00 00 00	 call	 ?GDSaveUserInfo@GameShop@@QAEXH@Z ; GameShop::GDSaveUserInfo

; 488  : 					MessageChat(aIndex, "@[MMOTOP] WcoinC Bonus: %d", this->MMOTOP_BonusWcoinC);

  014cf	8b 45 f8	 mov	 eax, DWORD PTR _this$[ebp]
  014d2	8b 88 d0 00 00
	00		 mov	 ecx, DWORD PTR [eax+208]
  014d8	51		 push	 ecx
  014d9	68 00 00 00 00	 push	 OFFSET ??_C@_0BL@KOOOOGNL@?$EA?$FLMMOTOP?$FN?5WcoinC?5Bonus?3?5?$CFd?$AA@
  014de	8b 95 18 fd ff
	ff		 mov	 edx, DWORD PTR _aIndex$224522[ebp]
  014e4	52		 push	 edx
  014e5	e8 00 00 00 00	 call	 ?MessageChat@@YAXHPADZZ	; MessageChat
  014ea	83 c4 0c	 add	 esp, 12			; 0000000cH
$LN11@MootopReed:

; 489  : 				}
; 490  : 
; 491  : 				if (this->MMOTOP_BonusWcoinP > 0)

  014ed	8b 45 f8	 mov	 eax, DWORD PTR _this$[ebp]
  014f0	83 b8 d4 00 00
	00 00		 cmp	 DWORD PTR [eax+212], 0
  014f7	7e 50		 jle	 SHORT $LN10@MootopReed

; 492  : 				{
; 493  : 					lpObj->GameShop.WCoinP += this->MMOTOP_BonusWcoinP;

  014f9	8b 45 f8	 mov	 eax, DWORD PTR _this$[ebp]
  014fc	db 80 d4 00 00
	00		 fild	 DWORD PTR [eax+212]
  01502	8b 8d 04 fd ff
	ff		 mov	 ecx, DWORD PTR _lpObj$224537[ebp]
  01508	dc 81 f8 22 00
	00		 fadd	 QWORD PTR [ecx+8952]
  0150e	8b 95 04 fd ff
	ff		 mov	 edx, DWORD PTR _lpObj$224537[ebp]
  01514	dd 9a f8 22 00
	00		 fstp	 QWORD PTR [edx+8952]

; 494  : 					gGameShop.GDSaveUserInfo(aIndex);

  0151a	8b 85 18 fd ff
	ff		 mov	 eax, DWORD PTR _aIndex$224522[ebp]
  01520	50		 push	 eax
  01521	b9 00 00 00 00	 mov	 ecx, OFFSET ?gGameShop@@3VGameShop@@A ; gGameShop
  01526	e8 00 00 00 00	 call	 ?GDSaveUserInfo@GameShop@@QAEXH@Z ; GameShop::GDSaveUserInfo

; 495  : 					MessageChat(aIndex, "@[MMOTOP] WCoinP Bonus: %d", this->MMOTOP_BonusWcoinP);

  0152b	8b 45 f8	 mov	 eax, DWORD PTR _this$[ebp]
  0152e	8b 88 d4 00 00
	00		 mov	 ecx, DWORD PTR [eax+212]
  01534	51		 push	 ecx
  01535	68 00 00 00 00	 push	 OFFSET ??_C@_0BL@MCFHKCKK@?$EA?$FLMMOTOP?$FN?5WCoinP?5Bonus?3?5?$CFd?$AA@
  0153a	8b 95 18 fd ff
	ff		 mov	 edx, DWORD PTR _aIndex$224522[ebp]
  01540	52		 push	 edx
  01541	e8 00 00 00 00	 call	 ?MessageChat@@YAXHPADZZ	; MessageChat
  01546	83 c4 0c	 add	 esp, 12			; 0000000cH
$LN10@MootopReed:

; 496  : 				}
; 497  : 
; 498  : 				if (this->MMOTOP_BonusWcoinG > 0)

  01549	8b 45 f8	 mov	 eax, DWORD PTR _this$[ebp]
  0154c	83 b8 d8 00 00
	00 00		 cmp	 DWORD PTR [eax+216], 0
  01553	7e 50		 jle	 SHORT $LN9@MootopReed

; 499  : 				{
; 500  : 					lpObj->GameShop.GoblinPoint += this->MMOTOP_BonusWcoinG;

  01555	8b 45 f8	 mov	 eax, DWORD PTR _this$[ebp]
  01558	db 80 d8 00 00
	00		 fild	 DWORD PTR [eax+216]
  0155e	8b 8d 04 fd ff
	ff		 mov	 ecx, DWORD PTR _lpObj$224537[ebp]
  01564	dc 81 08 23 00
	00		 fadd	 QWORD PTR [ecx+8968]
  0156a	8b 95 04 fd ff
	ff		 mov	 edx, DWORD PTR _lpObj$224537[ebp]
  01570	dd 9a 08 23 00
	00		 fstp	 QWORD PTR [edx+8968]

; 501  : 					gGameShop.GDSaveUserInfo(aIndex);

  01576	8b 85 18 fd ff
	ff		 mov	 eax, DWORD PTR _aIndex$224522[ebp]
  0157c	50		 push	 eax
  0157d	b9 00 00 00 00	 mov	 ecx, OFFSET ?gGameShop@@3VGameShop@@A ; gGameShop
  01582	e8 00 00 00 00	 call	 ?GDSaveUserInfo@GameShop@@QAEXH@Z ; GameShop::GDSaveUserInfo

; 502  : 					MessageChat(aIndex, "@[MMOTOP] Goblin Bonus: %d", this->MMOTOP_BonusWcoinG);

  01587	8b 45 f8	 mov	 eax, DWORD PTR _this$[ebp]
  0158a	8b 88 d8 00 00
	00		 mov	 ecx, DWORD PTR [eax+216]
  01590	51		 push	 ecx
  01591	68 00 00 00 00	 push	 OFFSET ??_C@_0BL@JNNNGMEB@?$EA?$FLMMOTOP?$FN?5Goblin?5Bonus?3?5?$CFd?$AA@
  01596	8b 95 18 fd ff
	ff		 mov	 edx, DWORD PTR _aIndex$224522[ebp]
  0159c	52		 push	 edx
  0159d	e8 00 00 00 00	 call	 ?MessageChat@@YAXHPADZZ	; MessageChat
  015a2	83 c4 0c	 add	 esp, 12			; 0000000cH
$LN9@MootopReed:

; 503  : 				}
; 504  : 
; 505  : 				if (this->MMOTOP_BonusExCred > 0)

  015a5	8b 45 f8	 mov	 eax, DWORD PTR _this$[ebp]
  015a8	83 b8 dc 00 00
	00 00		 cmp	 DWORD PTR [eax+220], 0
  015af	7e 3f		 jle	 SHORT $LN8@MootopReed

; 506  : 				{
; 507  : 					lpObj->ExCred += this->MMOTOP_BonusExCred;

  015b1	8b 45 f8	 mov	 eax, DWORD PTR _this$[ebp]
  015b4	db 80 dc 00 00
	00		 fild	 DWORD PTR [eax+220]
  015ba	8b 8d 04 fd ff
	ff		 mov	 ecx, DWORD PTR _lpObj$224537[ebp]
  015c0	d8 81 a8 22 00
	00		 fadd	 DWORD PTR [ecx+8872]
  015c6	8b 95 04 fd ff
	ff		 mov	 edx, DWORD PTR _lpObj$224537[ebp]
  015cc	d9 9a a8 22 00
	00		 fstp	 DWORD PTR [edx+8872]

; 508  : 					MessageChat(aIndex, "@[MMOTOP] ExCred Bonus: %d", this->MMOTOP_BonusExCred);

  015d2	8b 45 f8	 mov	 eax, DWORD PTR _this$[ebp]
  015d5	8b 88 dc 00 00
	00		 mov	 ecx, DWORD PTR [eax+220]
  015db	51		 push	 ecx
  015dc	68 00 00 00 00	 push	 OFFSET ??_C@_0BL@LOKFOHGN@?$EA?$FLMMOTOP?$FN?5ExCred?5Bonus?3?5?$CFd?$AA@
  015e1	8b 95 18 fd ff
	ff		 mov	 edx, DWORD PTR _aIndex$224522[ebp]
  015e7	52		 push	 edx
  015e8	e8 00 00 00 00	 call	 ?MessageChat@@YAXHPADZZ	; MessageChat
  015ed	83 c4 0c	 add	 esp, 12			; 0000000cH
$LN8@MootopReed:

; 509  : 				}
; 510  : 
; 511  : 				if (this->MMOTOP_BonusChaosBank > 0)

  015f0	8b 45 f8	 mov	 eax, DWORD PTR _this$[ebp]
  015f3	83 b8 f0 00 00
	00 00		 cmp	 DWORD PTR [eax+240], 0
  015fa	7e 3f		 jle	 SHORT $LN7@MootopReed

; 512  : 				{
; 513  : 					lpObj->ChaosBank += this->MMOTOP_BonusChaosBank;

  015fc	8b 85 04 fd ff
	ff		 mov	 eax, DWORD PTR _lpObj$224537[ebp]
  01602	8b 88 e0 27 00
	00		 mov	 ecx, DWORD PTR [eax+10208]
  01608	8b 55 f8	 mov	 edx, DWORD PTR _this$[ebp]
  0160b	03 8a f0 00 00
	00		 add	 ecx, DWORD PTR [edx+240]
  01611	8b 85 04 fd ff
	ff		 mov	 eax, DWORD PTR _lpObj$224537[ebp]
  01617	89 88 e0 27 00
	00		 mov	 DWORD PTR [eax+10208], ecx

; 514  : 					MessageChat(aIndex, "@[MMOTOP] Chaos Bank Bonus: %d", this->MMOTOP_BonusChaosBank);

  0161d	8b 45 f8	 mov	 eax, DWORD PTR _this$[ebp]
  01620	8b 88 f0 00 00
	00		 mov	 ecx, DWORD PTR [eax+240]
  01626	51		 push	 ecx
  01627	68 00 00 00 00	 push	 OFFSET ??_C@_0BP@JEJBFDGG@?$EA?$FLMMOTOP?$FN?5Chaos?5Bank?5Bonus?3?5?$CFd?$AA@
  0162c	8b 95 18 fd ff
	ff		 mov	 edx, DWORD PTR _aIndex$224522[ebp]
  01632	52		 push	 edx
  01633	e8 00 00 00 00	 call	 ?MessageChat@@YAXHPADZZ	; MessageChat
  01638	83 c4 0c	 add	 esp, 12			; 0000000cH
$LN7@MootopReed:

; 515  : 				}
; 516  : 
; 517  : 				if (this->MMOTOP_BonusBlessBank > 0)

  0163b	8b 45 f8	 mov	 eax, DWORD PTR _this$[ebp]
  0163e	83 b8 f4 00 00
	00 00		 cmp	 DWORD PTR [eax+244], 0
  01645	7e 3f		 jle	 SHORT $LN6@MootopReed

; 518  : 				{
; 519  : 					lpObj->BlessBank += this->MMOTOP_BonusBlessBank;

  01647	8b 85 04 fd ff
	ff		 mov	 eax, DWORD PTR _lpObj$224537[ebp]
  0164d	8b 88 e4 27 00
	00		 mov	 ecx, DWORD PTR [eax+10212]
  01653	8b 55 f8	 mov	 edx, DWORD PTR _this$[ebp]
  01656	03 8a f4 00 00
	00		 add	 ecx, DWORD PTR [edx+244]
  0165c	8b 85 04 fd ff
	ff		 mov	 eax, DWORD PTR _lpObj$224537[ebp]
  01662	89 88 e4 27 00
	00		 mov	 DWORD PTR [eax+10212], ecx

; 520  : 					MessageChat(aIndex, "@[MMOTOP] Bless Bank Bonus: %d", this->MMOTOP_BonusBlessBank);

  01668	8b 45 f8	 mov	 eax, DWORD PTR _this$[ebp]
  0166b	8b 88 f4 00 00
	00		 mov	 ecx, DWORD PTR [eax+244]
  01671	51		 push	 ecx
  01672	68 00 00 00 00	 push	 OFFSET ??_C@_0BP@JOJEBDFB@?$EA?$FLMMOTOP?$FN?5Bless?5Bank?5Bonus?3?5?$CFd?$AA@
  01677	8b 95 18 fd ff
	ff		 mov	 edx, DWORD PTR _aIndex$224522[ebp]
  0167d	52		 push	 edx
  0167e	e8 00 00 00 00	 call	 ?MessageChat@@YAXHPADZZ	; MessageChat
  01683	83 c4 0c	 add	 esp, 12			; 0000000cH
$LN6@MootopReed:

; 521  : 				}
; 522  : 
; 523  : 				if (this->MMOTOP_BonusSoulBank > 0)

  01686	8b 45 f8	 mov	 eax, DWORD PTR _this$[ebp]
  01689	83 b8 f8 00 00
	00 00		 cmp	 DWORD PTR [eax+248], 0
  01690	7e 3f		 jle	 SHORT $LN5@MootopReed

; 524  : 				{
; 525  : 					lpObj->SoulBank += this->MMOTOP_BonusSoulBank;

  01692	8b 85 04 fd ff
	ff		 mov	 eax, DWORD PTR _lpObj$224537[ebp]
  01698	8b 88 e8 27 00
	00		 mov	 ecx, DWORD PTR [eax+10216]
  0169e	8b 55 f8	 mov	 edx, DWORD PTR _this$[ebp]
  016a1	03 8a f8 00 00
	00		 add	 ecx, DWORD PTR [edx+248]
  016a7	8b 85 04 fd ff
	ff		 mov	 eax, DWORD PTR _lpObj$224537[ebp]
  016ad	89 88 e8 27 00
	00		 mov	 DWORD PTR [eax+10216], ecx

; 526  : 					MessageChat(aIndex, "@[MMOTOP] Soul Bank Bonus: %d", this->MMOTOP_BonusSoulBank);

  016b3	8b 45 f8	 mov	 eax, DWORD PTR _this$[ebp]
  016b6	8b 88 f8 00 00
	00		 mov	 ecx, DWORD PTR [eax+248]
  016bc	51		 push	 ecx
  016bd	68 00 00 00 00	 push	 OFFSET ??_C@_0BO@MPCAPFDH@?$EA?$FLMMOTOP?$FN?5Soul?5Bank?5Bonus?3?5?$CFd?$AA@
  016c2	8b 95 18 fd ff
	ff		 mov	 edx, DWORD PTR _aIndex$224522[ebp]
  016c8	52		 push	 edx
  016c9	e8 00 00 00 00	 call	 ?MessageChat@@YAXHPADZZ	; MessageChat
  016ce	83 c4 0c	 add	 esp, 12			; 0000000cH
$LN5@MootopReed:

; 527  : 				}
; 528  : 
; 529  : 				if (this->MMOTOP_BonusLifeBank > 0)

  016d1	8b 45 f8	 mov	 eax, DWORD PTR _this$[ebp]
  016d4	83 b8 fc 00 00
	00 00		 cmp	 DWORD PTR [eax+252], 0
  016db	7e 3f		 jle	 SHORT $LN4@MootopReed

; 530  : 				{
; 531  : 					lpObj->LifeBank += this->MMOTOP_BonusLifeBank;

  016dd	8b 85 04 fd ff
	ff		 mov	 eax, DWORD PTR _lpObj$224537[ebp]
  016e3	8b 88 ec 27 00
	00		 mov	 ecx, DWORD PTR [eax+10220]
  016e9	8b 55 f8	 mov	 edx, DWORD PTR _this$[ebp]
  016ec	03 8a fc 00 00
	00		 add	 ecx, DWORD PTR [edx+252]
  016f2	8b 85 04 fd ff
	ff		 mov	 eax, DWORD PTR _lpObj$224537[ebp]
  016f8	89 88 ec 27 00
	00		 mov	 DWORD PTR [eax+10220], ecx

; 532  : 					MessageChat(aIndex, "@[MMOTOP] Life Bank Bonus: %d", this->MMOTOP_BonusLifeBank);

  016fe	8b 45 f8	 mov	 eax, DWORD PTR _this$[ebp]
  01701	8b 88 fc 00 00
	00		 mov	 ecx, DWORD PTR [eax+252]
  01707	51		 push	 ecx
  01708	68 00 00 00 00	 push	 OFFSET ??_C@_0BO@GLDGCAIH@?$EA?$FLMMOTOP?$FN?5Life?5Bank?5Bonus?3?5?$CFd?$AA@
  0170d	8b 95 18 fd ff
	ff		 mov	 edx, DWORD PTR _aIndex$224522[ebp]
  01713	52		 push	 edx
  01714	e8 00 00 00 00	 call	 ?MessageChat@@YAXHPADZZ	; MessageChat
  01719	83 c4 0c	 add	 esp, 12			; 0000000cH
$LN4@MootopReed:

; 533  : 				}
; 534  : 
; 535  : 				// --> Buff Effect Custom
; 536  : 				if(g_ExLicense.CheckUser(eExUB::Gredy) || g_ExLicense.CheckUser(eExUB::GredyLocal) || g_ExLicense.CheckUser(eExUB::Gredy2))

  0171c	6a 20		 push	 32			; 00000020H
  0171e	b9 00 00 00 00	 mov	 ecx, OFFSET ?g_ExLicense@@3VCExLicense@@A ; g_ExLicense
  01723	e8 00 00 00 00	 call	 ?CheckUser@CExLicense@@QAE_NH@Z ; CExLicense::CheckUser
  01728	0f b6 c0	 movzx	 eax, al
  0172b	85 c0		 test	 eax, eax
  0172d	75 26		 jne	 SHORT $LN2@MootopReed
  0172f	6a 21		 push	 33			; 00000021H
  01731	b9 00 00 00 00	 mov	 ecx, OFFSET ?g_ExLicense@@3VCExLicense@@A ; g_ExLicense
  01736	e8 00 00 00 00	 call	 ?CheckUser@CExLicense@@QAE_NH@Z ; CExLicense::CheckUser
  0173b	0f b6 c0	 movzx	 eax, al
  0173e	85 c0		 test	 eax, eax
  01740	75 13		 jne	 SHORT $LN2@MootopReed
  01742	6a 22		 push	 34			; 00000022H
  01744	b9 00 00 00 00	 mov	 ecx, OFFSET ?g_ExLicense@@3VCExLicense@@A ; g_ExLicense
  01749	e8 00 00 00 00	 call	 ?CheckUser@CExLicense@@QAE_NH@Z ; CExLicense::CheckUser
  0174e	0f b6 c0	 movzx	 eax, al
  01751	85 c0		 test	 eax, eax
  01753	74 4a		 je	 SHORT $LN3@MootopReed
$LN2@MootopReed:

; 537  : 				{
; 538  : 					lpObj->MT_BuffTime += this->MMOTOP_SMSBuffTime;

  01755	8b 85 04 fd ff
	ff		 mov	 eax, DWORD PTR _lpObj$224537[ebp]
  0175b	8b 88 dc 2a 00
	00		 mov	 ecx, DWORD PTR [eax+10972]
  01761	8b 55 f8	 mov	 edx, DWORD PTR _this$[ebp]
  01764	03 8a 64 02 00
	00		 add	 ecx, DWORD PTR [edx+612]
  0176a	8b 85 04 fd ff
	ff		 mov	 eax, DWORD PTR _lpObj$224537[ebp]
  01770	89 88 dc 2a 00
	00		 mov	 DWORD PTR [eax+10972], ecx

; 539  : 					gObjApplyBuffEffectDuration(lpObj, AT_MMOTOP_BUFF, 0, 0, 0, 0, lpObj->MT_BuffTime);

  01776	8b 85 04 fd ff
	ff		 mov	 eax, DWORD PTR _lpObj$224537[ebp]
  0177c	8b 88 dc 2a 00
	00		 mov	 ecx, DWORD PTR [eax+10972]
  01782	51		 push	 ecx
  01783	6a 00		 push	 0
  01785	6a 00		 push	 0
  01787	6a 00		 push	 0
  01789	6a 00		 push	 0
  0178b	68 c2 00 00 00	 push	 194			; 000000c2H
  01790	8b 95 04 fd ff
	ff		 mov	 edx, DWORD PTR _lpObj$224537[ebp]
  01796	52		 push	 edx
  01797	e8 00 00 00 00	 call	 ?gObjApplyBuffEffectDuration@@YAEPAUOBJECTSTRUCT@@HEHEHH@Z ; gObjApplyBuffEffectDuration
  0179c	83 c4 1c	 add	 esp, 28			; 0000001cH
$LN3@MootopReed:

; 540  : 				}
; 541  : 
; 542  : 				MessageChat(aIndex,"@[MMOTOP] Date: %s",DataTime);

  0179f	8d 85 34 fd ff
	ff		 lea	 eax, DWORD PTR _DataTime$224511[ebp]
  017a5	50		 push	 eax
  017a6	68 00 00 00 00	 push	 OFFSET ??_C@_0BD@DNPJLPDE@?$EA?$FLMMOTOP?$FN?5Date?3?5?$CFs?$AA@
  017ab	8b 8d 18 fd ff
	ff		 mov	 ecx, DWORD PTR _aIndex$224522[ebp]
  017b1	51		 push	 ecx
  017b2	e8 00 00 00 00	 call	 ?MessageChat@@YAXHPADZZ	; MessageChat
  017b7	83 c4 0c	 add	 esp, 12			; 0000000cH
$LN14@MootopReed:

; 543  : 			}
; 544  : 
; 545  : 			lpObj->MTDate = tData;

  017ba	8b 85 04 fd ff
	ff		 mov	 eax, DWORD PTR _lpObj$224537[ebp]
  017c0	8b 8d 08 fd ff
	ff		 mov	 ecx, DWORD PTR _tData$224536[ebp]
  017c6	89 88 08 28 00
	00		 mov	 DWORD PTR [eax+10248], ecx

; 546  : 			
; 547  : 			ExUserDataSend(aIndex);

  017cc	8b 85 18 fd ff
	ff		 mov	 eax, DWORD PTR _aIndex$224522[ebp]
  017d2	50		 push	 eax
  017d3	e8 00 00 00 00	 call	 ?ExUserDataSend@@YAXH@Z	; ExUserDataSend
  017d8	83 c4 04	 add	 esp, 4

; 548  : #ifndef FIX_DS_CRASH
; 549  : 			GJSetCharacterInfo(lpObj, lpObj->m_Index, 0);
; 550  : #endif
; 551  : 			LogAdd("[MMOTOP][%s] Date: %s", lpObj->AccountID,DataTime);

  017db	8d 85 34 fd ff
	ff		 lea	 eax, DWORD PTR _DataTime$224511[ebp]
  017e1	50		 push	 eax
  017e2	8b 8d 04 fd ff
	ff		 mov	 ecx, DWORD PTR _lpObj$224537[ebp]
  017e8	83 c1 6c	 add	 ecx, 108		; 0000006cH
  017eb	51		 push	 ecx
  017ec	68 00 00 00 00	 push	 OFFSET ??_C@_0BG@BMABLBJK@?$FLMMOTOP?$FN?$FL?$CFs?$FN?5Date?3?5?$CFs?$AA@
  017f1	ff 15 00 00 00
	00		 call	 DWORD PTR ?LogAdd@@3P6AXPADZZA ; LogAdd
  017f7	83 c4 0c	 add	 esp, 12			; 0000000cH

; 552  : 
; 553  : #if(MMOTOP_LOG==TRUE)
; 554  : 			char Buff2[512] = { 0 };

  017fa	c6 85 f4 fa ff
	ff 00		 mov	 BYTE PTR _Buff2$224592[ebp], 0
  01801	68 ff 01 00 00	 push	 511			; 000001ffH
  01806	6a 00		 push	 0
  01808	8d 85 f5 fa ff
	ff		 lea	 eax, DWORD PTR _Buff2$224592[ebp+1]
  0180e	50		 push	 eax
  0180f	e8 00 00 00 00	 call	 _memset
  01814	83 c4 0c	 add	 esp, 12			; 0000000cH

; 555  : 			sprintf(Buff2, "%d %s %s %s %s %d", mId, mGetDate, mGetTime, mGetIp, mGetAccaunt, mRewerd);

  01817	8b 85 98 fd ff
	ff		 mov	 eax, DWORD PTR _mRewerd$224509[ebp]
  0181d	50		 push	 eax
  0181e	8d 8d 9c fd ff
	ff		 lea	 ecx, DWORD PTR _mGetAccaunt$224508[ebp]
  01824	51		 push	 ecx
  01825	8d 95 b0 fd ff
	ff		 lea	 edx, DWORD PTR _mGetIp$224507[ebp]
  0182b	52		 push	 edx
  0182c	8d 85 c4 fd ff
	ff		 lea	 eax, DWORD PTR _mGetTime$224506[ebp]
  01832	50		 push	 eax
  01833	8d 8d d8 fd ff
	ff		 lea	 ecx, DWORD PTR _mGetDate$224505[ebp]
  01839	51		 push	 ecx
  0183a	8b 95 ec fd ff
	ff		 mov	 edx, DWORD PTR _mId$224504[ebp]
  01840	52		 push	 edx
  01841	68 00 00 00 00	 push	 OFFSET ??_C@_0BC@FDIFMHGC@?$CFd?5?$CFs?5?$CFs?5?$CFs?5?$CFs?5?$CFd?$AA@
  01846	8d 85 f4 fa ff
	ff		 lea	 eax, DWORD PTR _Buff2$224592[ebp]
  0184c	50		 push	 eax
  0184d	e8 00 00 00 00	 call	 _sprintf
  01852	83 c4 20	 add	 esp, 32			; 00000020H

; 556  : 			g_MmotopLog.Output(Buff2);

  01855	8d 85 f4 fa ff
	ff		 lea	 eax, DWORD PTR _Buff2$224592[ebp]
  0185b	50		 push	 eax
  0185c	68 00 00 00 00	 push	 OFFSET ?g_MmotopLog@@3VCLogToFile@@A ; g_MmotopLog
  01861	e8 00 00 00 00	 call	 ?Output@CLogToFile@@QAAXPADZZ ; CLogToFile::Output
  01866	83 c4 08	 add	 esp, 8

; 557  : #endif
; 558  : #if(SYSTEM_ACHIEVEMENTS)
; 559  : 			g_Achievements.MootopVoteUp(lpObj->m_Index);

  01869	8b 85 04 fd ff
	ff		 mov	 eax, DWORD PTR _lpObj$224537[ebp]
  0186f	8b 08		 mov	 ecx, DWORD PTR [eax]
  01871	51		 push	 ecx
  01872	b9 00 00 00 00	 mov	 ecx, OFFSET ?g_Achievements@@3VCAchievements@@A ; g_Achievements
  01877	e8 00 00 00 00	 call	 ?MootopVoteUp@CAchievements@@QAEXH@Z ; CAchievements::MootopVoteUp
$LN28@MootopReed:

; 560  : #endif
; 561  : 		}
; 562  : 		
; 563  : 	}

  0187c	e9 f1 f3 ff ff	 jmp	 $LN50@MootopReed
$LN41@MootopReed:

; 564  : 
; 565  : 	fclose(file);

  01881	8b 45 f4	 mov	 eax, DWORD PTR _file$[ebp]
  01884	50		 push	 eax
  01885	e8 00 00 00 00	 call	 _fclose
  0188a	83 c4 04	 add	 esp, 4

; 566  : 	if (this->MMOTOP_DeleteVoteFile)

  0188d	8b 45 f8	 mov	 eax, DWORD PTR _this$[ebp]
  01890	0f b6 48 01	 movzx	 ecx, BYTE PTR [eax+1]
  01894	85 c9		 test	 ecx, ecx
  01896	74 0d		 je	 SHORT $LN1@MootopReed

; 567  : 	{
; 568  : 		remove(MMOTOP_FILE);

  01898	68 00 00 00 00	 push	 OFFSET ??_C@_0L@HNCANJIK@mmotop?4txt?$AA@
  0189d	e8 00 00 00 00	 call	 _remove
  018a2	83 c4 04	 add	 esp, 4
$LN1@MootopReed:
$LN45@MootopReed:

; 569  : 	}
; 570  : }

  018a5	5f		 pop	 edi
  018a6	5e		 pop	 esi
  018a7	5b		 pop	 ebx
  018a8	8b 4d fc	 mov	 ecx, DWORD PTR __$ArrayPad$[ebp]
  018ab	33 cd		 xor	 ecx, ebp
  018ad	e8 00 00 00 00	 call	 @__security_check_cookie@4
  018b2	8b e5		 mov	 esp, ebp
  018b4	5d		 pop	 ebp
  018b5	c3		 ret	 0
?MootopReed@Voter@@QAEXXZ ENDP				; Voter::MootopReed
_TEXT	ENDS
PUBLIC	?QtopReed@Voter@@QAEXXZ				; Voter::QtopReed
PUBLIC	??_C@_04LJLMOBMF@QTOP?$AA@			; `string'
PUBLIC	??_C@_08CLPFLBNE@qtop?4txt?$AA@			; `string'
PUBLIC	__$ArrayPad$
PUBLIC	?Qtop@Voter@@QAEXXZ				; Voter::Qtop
;	COMDAT ??_C@_04LJLMOBMF@QTOP?$AA@
CONST	SEGMENT
??_C@_04LJLMOBMF@QTOP?$AA@ DB 'QTOP', 00H		; `string'
CONST	ENDS
;	COMDAT ??_C@_08CLPFLBNE@qtop?4txt?$AA@
CONST	SEGMENT
??_C@_08CLPFLBNE@qtop?4txt?$AA@ DB 'qtop.txt', 00H	; `string'
CONST	ENDS
xdata$x	SEGMENT
__unwindtable$?Qtop@Voter@@QAEXXZ DD 0ffffffffH
	DD	FLAT:__unwindfunclet$?Qtop@Voter@@QAEXXZ$0
__ehfuncinfo$?Qtop@Voter@@QAEXXZ DD 019930522H
	DD	01H
	DD	FLAT:__unwindtable$?Qtop@Voter@@QAEXXZ
	DD	2 DUP(00H)
	DD	2 DUP(00H)
	DD	00H
	DD	01H
; Function compile flags: /Odtp /ZI
xdata$x	ENDS
_TEXT	SEGMENT
_bRead$224635 = -8424					; size = 4
_dwBytesRead$224634 = -8420				; size = 4
_szData$224633 = -8416					; size = 4096
_fnews$224628 = -4320					; size = 168
_bSend$224626 = -4152					; size = 4
_hRequest$224624 = -4148				; size = 4
_hConnect$224622 = -4144				; size = 4
_hInternet$224620 = -4140				; size = 4
_bRead$224616 = -4136					; size = 4
_dwBytesRead$224615 = -4132				; size = 4
_szData$224614 = -4128					; size = 4096
_file$224609 = -32					; size = 4
_hHandle$224606 = -28					; size = 4
_hSession$224604 = -24					; size = 4
_this$ = -20						; size = 4
__$ArrayPad$ = -16					; size = 4
__$EHRec$ = -12						; size = 12
?Qtop@Voter@@QAEXXZ PROC				; Voter::Qtop
; _this$ = ecx

; 575  : {

  018c0	55		 push	 ebp
  018c1	8b ec		 mov	 ebp, esp
  018c3	6a ff		 push	 -1
  018c5	68 00 00 00 00	 push	 __ehhandler$?Qtop@Voter@@QAEXXZ
  018ca	64 a1 00 00 00
	00		 mov	 eax, DWORD PTR fs:0
  018d0	50		 push	 eax
  018d1	b8 1c 21 00 00	 mov	 eax, 8476		; 0000211cH
  018d6	e8 00 00 00 00	 call	 __chkstk
  018db	a1 00 00 00 00	 mov	 eax, DWORD PTR ___security_cookie
  018e0	33 c5		 xor	 eax, ebp
  018e2	89 45 f0	 mov	 DWORD PTR __$ArrayPad$[ebp], eax
  018e5	53		 push	 ebx
  018e6	56		 push	 esi
  018e7	57		 push	 edi
  018e8	50		 push	 eax
  018e9	8d 45 f4	 lea	 eax, DWORD PTR __$EHRec$[ebp]
  018ec	64 a3 00 00 00
	00		 mov	 DWORD PTR fs:0, eax
  018f2	89 4d ec	 mov	 DWORD PTR _this$[ebp], ecx

; 576  : 	if (!this->QTOP_Enable) return;

  018f5	8b 45 ec	 mov	 eax, DWORD PTR _this$[ebp]
  018f8	0f b6 88 30 01
	00 00		 movzx	 ecx, BYTE PTR [eax+304]
  018ff	85 c9		 test	 ecx, ecx
  01901	75 05		 jne	 SHORT $LN28@Qtop
  01903	e9 51 03 00 00	 jmp	 $LN29@Qtop
$LN28@Qtop:

; 577  : 
; 578  : 	//--------------------------------------------------------
; 579  : 	if (QTOP_UPDATE_VOTER == 1)

  01908	8b 45 ec	 mov	 eax, DWORD PTR _this$[ebp]
  0190b	83 b8 34 01 00
	00 01		 cmp	 DWORD PTR [eax+308], 1
  01912	75 2c		 jne	 SHORT $LN27@Qtop

; 580  : 	{
; 581  : 		if (this->QTOP_DownloadFile)

  01914	8b 45 ec	 mov	 eax, DWORD PTR _this$[ebp]
  01917	0f b6 88 32 01
	00 00		 movzx	 ecx, BYTE PTR [eax+306]
  0191e	85 c9		 test	 ecx, ecx
  01920	74 19		 je	 SHORT $LN26@Qtop

; 582  : 		{
; 583  : 			URLDownloadToFileA(NULL,
; 584  : 				_T(this->QTOP_FileName),
; 585  : 				_T(QTOP_FILE),
; 586  : 				0, NULL);

  01922	6a 00		 push	 0
  01924	6a 00		 push	 0
  01926	68 00 00 00 00	 push	 OFFSET ??_C@_08CLPFLBNE@qtop?4txt?$AA@
  0192b	8b 45 ec	 mov	 eax, DWORD PTR _this$[ebp]
  0192e	05 38 01 00 00	 add	 eax, 312		; 00000138H
  01933	50		 push	 eax
  01934	6a 00		 push	 0
  01936	e8 00 00 00 00	 call	 _URLDownloadToFileA@20
$LN26@Qtop:

; 587  : 		}
; 588  : 	}

  0193b	e9 11 03 00 00	 jmp	 $LN25@Qtop
$LN27@Qtop:

; 589  : 	//--------------------------------------------------------
; 590  : 	else if (QTOP_UPDATE_VOTER == 2)

  01940	8b 45 ec	 mov	 eax, DWORD PTR _this$[ebp]
  01943	83 b8 34 01 00
	00 02		 cmp	 DWORD PTR [eax+308], 2
  0194a	0f 85 2b 01 00
	00		 jne	 $LN24@Qtop

; 591  : 	{
; 592  : 		if (this->QTOP_DownloadFile)

  01950	8b 45 ec	 mov	 eax, DWORD PTR _this$[ebp]
  01953	0f b6 88 32 01
	00 00		 movzx	 ecx, BYTE PTR [eax+306]
  0195a	85 c9		 test	 ecx, ecx
  0195c	0f 84 14 01 00
	00		 je	 $LN23@Qtop

; 593  : 		{
; 594  : 			HINTERNET hSession = InternetOpenA("QTOP", INTERNET_OPEN_TYPE_PRECONFIG, NULL, NULL, 0);

  01962	6a 00		 push	 0
  01964	6a 00		 push	 0
  01966	6a 00		 push	 0
  01968	6a 00		 push	 0
  0196a	68 00 00 00 00	 push	 OFFSET ??_C@_04LJLMOBMF@QTOP?$AA@
  0196f	ff 15 00 00 00
	00		 call	 DWORD PTR __imp__InternetOpenA@20
  01975	89 45 e8	 mov	 DWORD PTR _hSession$224604[ebp], eax

; 595  : 			HINTERNET hHandle = InternetOpenUrlA(hSession, this->QTOP_FileName, NULL, 0, INTERNET_FLAG_DONT_CACHE, 0);

  01978	6a 00		 push	 0
  0197a	68 00 00 00 04	 push	 67108864		; 04000000H
  0197f	6a 00		 push	 0
  01981	6a 00		 push	 0
  01983	8b 45 ec	 mov	 eax, DWORD PTR _this$[ebp]
  01986	05 38 01 00 00	 add	 eax, 312		; 00000138H
  0198b	50		 push	 eax
  0198c	8b 4d e8	 mov	 ecx, DWORD PTR _hSession$224604[ebp]
  0198f	51		 push	 ecx
  01990	ff 15 00 00 00
	00		 call	 DWORD PTR __imp__InternetOpenUrlA@24
  01996	89 45 e4	 mov	 DWORD PTR _hHandle$224606[ebp], eax

; 596  : 			// ----
; 597  : 			if (hSession == NULL || hHandle == NULL)

  01999	83 7d e8 00	 cmp	 DWORD PTR _hSession$224604[ebp], 0
  0199d	74 06		 je	 SHORT $LN21@Qtop
  0199f	83 7d e4 00	 cmp	 DWORD PTR _hHandle$224606[ebp], 0
  019a3	75 19		 jne	 SHORT $LN22@Qtop
$LN21@Qtop:

; 598  : 			{
; 599  : 				InternetCloseHandle(hSession);

  019a5	8b 45 e8	 mov	 eax, DWORD PTR _hSession$224604[ebp]
  019a8	50		 push	 eax
  019a9	ff 15 00 00 00
	00		 call	 DWORD PTR __imp__InternetCloseHandle@4

; 600  : 				InternetCloseHandle(hHandle);

  019af	8b 45 e4	 mov	 eax, DWORD PTR _hHandle$224606[ebp]
  019b2	50		 push	 eax
  019b3	ff 15 00 00 00
	00		 call	 DWORD PTR __imp__InternetCloseHandle@4

; 601  : 				return;

  019b9	e9 9b 02 00 00	 jmp	 $LN29@Qtop
$LN22@Qtop:

; 602  : 			}
; 603  : 			// ----
; 604  : 			FILE * file = fopen(QTOP_FILE, "w");

  019be	68 00 00 00 00	 push	 OFFSET ??_C@_01NOFIACDB@w?$AA@
  019c3	68 00 00 00 00	 push	 OFFSET ??_C@_08CLPFLBNE@qtop?4txt?$AA@
  019c8	e8 00 00 00 00	 call	 _fopen
  019cd	83 c4 08	 add	 esp, 8
  019d0	89 45 e0	 mov	 DWORD PTR _file$224609[ebp], eax

; 605  : 			if (file)

  019d3	83 7d e0 00	 cmp	 DWORD PTR _file$224609[ebp], 0
  019d7	0f 84 85 00 00
	00		 je	 $LN20@Qtop
$LN19@Qtop:

; 606  : 			{
; 607  : 				while (true)

  019dd	b8 01 00 00 00	 mov	 eax, 1
  019e2	85 c0		 test	 eax, eax
  019e4	74 70		 je	 SHORT $LN18@Qtop

; 608  : 				{
; 609  : 					//  
; 610  : 					char  szData[4096];
; 611  : 					ZeroMemory(szData, sizeof(szData));

  019e6	68 00 10 00 00	 push	 4096			; 00001000H
  019eb	6a 00		 push	 0
  019ed	8d 85 e0 ef ff
	ff		 lea	 eax, DWORD PTR _szData$224614[ebp]
  019f3	50		 push	 eax
  019f4	e8 00 00 00 00	 call	 _memset
  019f9	83 c4 0c	 add	 esp, 12			; 0000000cH

; 612  : 
; 613  : 					DWORD dwBytesRead;
; 614  : 
; 615  : 					BOOL bRead = ::InternetReadFile(hHandle, szData, sizeof(szData)-1, &dwBytesRead);

  019fc	8d 85 dc ef ff
	ff		 lea	 eax, DWORD PTR _dwBytesRead$224615[ebp]
  01a02	50		 push	 eax
  01a03	68 ff 0f 00 00	 push	 4095			; 00000fffH
  01a08	8d 8d e0 ef ff
	ff		 lea	 ecx, DWORD PTR _szData$224614[ebp]
  01a0e	51		 push	 ecx
  01a0f	8b 55 e4	 mov	 edx, DWORD PTR _hHandle$224606[ebp]
  01a12	52		 push	 edx
  01a13	ff 15 00 00 00
	00		 call	 DWORD PTR __imp__InternetReadFile@16
  01a19	89 85 d8 ef ff
	ff		 mov	 DWORD PTR _bRead$224616[ebp], eax

; 616  : 
; 617  : 					//       
; 618  : 					if (bRead == FALSE || dwBytesRead == 0)

  01a1f	83 bd d8 ef ff
	ff 00		 cmp	 DWORD PTR _bRead$224616[ebp], 0
  01a26	74 09		 je	 SHORT $LN16@Qtop
  01a28	83 bd dc ef ff
	ff 00		 cmp	 DWORD PTR _dwBytesRead$224615[ebp], 0
  01a2f	75 02		 jne	 SHORT $LN17@Qtop
$LN16@Qtop:

; 619  : 						break;

  01a31	eb 23		 jmp	 SHORT $LN18@Qtop
$LN17@Qtop:

; 620  : 
; 621  : 					//  
; 622  : 					szData[dwBytesRead] = 0;

  01a33	8b 85 dc ef ff
	ff		 mov	 eax, DWORD PTR _dwBytesRead$224615[ebp]
  01a39	c6 84 05 e0 ef
	ff ff 00	 mov	 BYTE PTR _szData$224614[ebp+eax], 0

; 623  : 					fputs(szData, file);

  01a41	8b 45 e0	 mov	 eax, DWORD PTR _file$224609[ebp]
  01a44	50		 push	 eax
  01a45	8d 8d e0 ef ff
	ff		 lea	 ecx, DWORD PTR _szData$224614[ebp]
  01a4b	51		 push	 ecx
  01a4c	e8 00 00 00 00	 call	 _fputs
  01a51	83 c4 08	 add	 esp, 8

; 624  : 				}

  01a54	eb 87		 jmp	 SHORT $LN19@Qtop
$LN18@Qtop:

; 625  : 				fclose(file);

  01a56	8b 45 e0	 mov	 eax, DWORD PTR _file$224609[ebp]
  01a59	50		 push	 eax
  01a5a	e8 00 00 00 00	 call	 _fclose
  01a5f	83 c4 04	 add	 esp, 4
$LN20@Qtop:

; 626  : 			}
; 627  : 
; 628  : 			InternetCloseHandle(hSession);	//Need ?

  01a62	8b 45 e8	 mov	 eax, DWORD PTR _hSession$224604[ebp]
  01a65	50		 push	 eax
  01a66	ff 15 00 00 00
	00		 call	 DWORD PTR __imp__InternetCloseHandle@4

; 629  : 			InternetCloseHandle(hHandle);

  01a6c	8b 45 e4	 mov	 eax, DWORD PTR _hHandle$224606[ebp]
  01a6f	50		 push	 eax
  01a70	ff 15 00 00 00
	00		 call	 DWORD PTR __imp__InternetCloseHandle@4
$LN23@Qtop:

; 630  : 		}
; 631  : 
; 632  : 	}
; 633  : 	//--------------------------------------------------------
; 634  : 	else

  01a76	e9 d6 01 00 00	 jmp	 $LN25@Qtop
$LN24@Qtop:

; 635  : 	{
; 636  : 		//  WinInet
; 637  : 		HINTERNET hInternet = ::InternetOpen(TEXT("MMOTOP"),
; 638  : 			INTERNET_OPEN_TYPE_PRECONFIG,
; 639  : 			NULL, NULL,
; 640  : 			0);

  01a7b	6a 00		 push	 0
  01a7d	6a 00		 push	 0
  01a7f	6a 00		 push	 0
  01a81	6a 00		 push	 0
  01a83	68 00 00 00 00	 push	 OFFSET ??_C@_06KLDIONEO@MMOTOP?$AA@
  01a88	ff 15 00 00 00
	00		 call	 DWORD PTR __imp__InternetOpenA@20
  01a8e	89 85 d4 ef ff
	ff		 mov	 DWORD PTR _hInternet$224620[ebp], eax

; 641  : 
; 642  : 		if (hInternet != NULL)

  01a94	83 bd d4 ef ff
	ff 00		 cmp	 DWORD PTR _hInternet$224620[ebp], 0
  01a9b	0f 84 a3 01 00
	00		 je	 $LN14@Qtop

; 643  : 		{
; 644  : 			//  HTTP 
; 645  : 			HINTERNET hConnect =
; 646  : 				::InternetConnect(
; 647  : 				hInternet,
; 648  : 				TEXT(QTOP_FILE),
; 649  : 				INTERNET_DEFAULT_HTTP_PORT,
; 650  : 				NULL, NULL,
; 651  : 				INTERNET_SERVICE_HTTP,
; 652  : 				0,
; 653  : 				1u);

  01aa1	6a 01		 push	 1
  01aa3	6a 00		 push	 0
  01aa5	6a 03		 push	 3
  01aa7	6a 00		 push	 0
  01aa9	6a 00		 push	 0
  01aab	6a 50		 push	 80			; 00000050H
  01aad	68 00 00 00 00	 push	 OFFSET ??_C@_08CLPFLBNE@qtop?4txt?$AA@
  01ab2	8b 85 d4 ef ff
	ff		 mov	 eax, DWORD PTR _hInternet$224620[ebp]
  01ab8	50		 push	 eax
  01ab9	ff 15 00 00 00
	00		 call	 DWORD PTR __imp__InternetConnectA@32
  01abf	89 85 d0 ef ff
	ff		 mov	 DWORD PTR _hConnect$224622[ebp], eax

; 654  : 
; 655  : 			if (hConnect != NULL)

  01ac5	83 bd d0 ef ff
	ff 00		 cmp	 DWORD PTR _hConnect$224622[ebp], 0
  01acc	0f 84 56 01 00
	00		 je	 $LN13@Qtop

; 656  : 			{
; 657  : 				//  
; 658  : 				HINTERNET hRequest = ::HttpOpenRequest(hConnect,
; 659  : 					TEXT("GET"),
; 660  : 					TEXT(QTOP_FileName),        //TEXT("votes/aba02abed8021ba31a4499a390aa8afa4679c6d1.txt"),//TEXT("news.asp"),
; 661  : 					NULL,
; 662  : 					NULL,
; 663  : 					0,
; 664  : 					INTERNET_FLAG_KEEP_CONNECTION,
; 665  : 					1);

  01ad2	6a 01		 push	 1
  01ad4	68 00 00 40 00	 push	 4194304			; 00400000H
  01ad9	6a 00		 push	 0
  01adb	6a 00		 push	 0
  01add	6a 00		 push	 0
  01adf	8b 45 ec	 mov	 eax, DWORD PTR _this$[ebp]
  01ae2	05 38 01 00 00	 add	 eax, 312		; 00000138H
  01ae7	50		 push	 eax
  01ae8	68 00 00 00 00	 push	 OFFSET ??_C@_03HAPOJHBM@GET?$AA@
  01aed	8b 8d d0 ef ff
	ff		 mov	 ecx, DWORD PTR _hConnect$224622[ebp]
  01af3	51		 push	 ecx
  01af4	ff 15 00 00 00
	00		 call	 DWORD PTR __imp__HttpOpenRequestA@32
  01afa	89 85 cc ef ff
	ff		 mov	 DWORD PTR _hRequest$224624[ebp], eax

; 666  : 
; 667  : 				if (hRequest != NULL)

  01b00	83 bd cc ef ff
	ff 00		 cmp	 DWORD PTR _hRequest$224624[ebp], 0
  01b07	0f 84 ff 00 00
	00		 je	 $LN12@Qtop

; 668  : 				{
; 669  : 					//  
; 670  : 					BOOL bSend = ::HttpSendRequest(hRequest, NULL, 0, NULL, 0);

  01b0d	6a 00		 push	 0
  01b0f	6a 00		 push	 0
  01b11	6a 00		 push	 0
  01b13	6a 00		 push	 0
  01b15	8b 85 cc ef ff
	ff		 mov	 eax, DWORD PTR _hRequest$224624[ebp]
  01b1b	50		 push	 eax
  01b1c	ff 15 00 00 00
	00		 call	 DWORD PTR __imp__HttpSendRequestA@20
  01b22	89 85 c8 ef ff
	ff		 mov	 DWORD PTR _bSend$224626[ebp], eax

; 671  : 					if (bSend)

  01b28	83 bd c8 ef ff
	ff 00		 cmp	 DWORD PTR _bSend$224626[ebp], 0
  01b2f	0f 84 bb 00 00
	00		 je	 $LN11@Qtop

; 672  : 					{
; 673  : 						//   
; 674  : 						std::ofstream fnews(QTOP_FILE, std::ios::out | std::ios::binary);

  01b35	6a 01		 push	 1
  01b37	6a 40		 push	 64			; 00000040H
  01b39	6a 22		 push	 34			; 00000022H
  01b3b	68 00 00 00 00	 push	 OFFSET ??_C@_08CLPFLBNE@qtop?4txt?$AA@
  01b40	8d 8d 20 ef ff
	ff		 lea	 ecx, DWORD PTR _fnews$224628[ebp]
  01b46	e8 00 00 00 00	 call	 ??0?$basic_ofstream@DU?$char_traits@D@std@@@std@@QAE@PBDHH@Z ; std::basic_ofstream<char,std::char_traits<char> >::basic_ofstream<char,std::char_traits<char> >
  01b4b	c7 45 fc 00 00
	00 00		 mov	 DWORD PTR __$EHRec$[ebp+8], 0

; 675  : 						if (fnews.is_open())

  01b52	8d 8d 20 ef ff
	ff		 lea	 ecx, DWORD PTR _fnews$224628[ebp]
  01b58	e8 00 00 00 00	 call	 ?is_open@?$basic_ofstream@DU?$char_traits@D@std@@@std@@QBE_NXZ ; std::basic_ofstream<char,std::char_traits<char> >::is_open
  01b5d	0f b6 c0	 movzx	 eax, al
  01b60	85 c0		 test	 eax, eax
  01b62	74 6b		 je	 SHORT $LN10@Qtop
$LN9@Qtop:

; 676  : 						{
; 677  : 							while (true)

  01b64	b8 01 00 00 00	 mov	 eax, 1
  01b69	85 c0		 test	 eax, eax
  01b6b	74 60		 je	 SHORT $LN8@Qtop

; 678  : 							{
; 679  : 								//  
; 680  : 								char  szData[4096];
; 681  : 								DWORD dwBytesRead;
; 682  : 								BOOL bRead =
; 683  : 									::InternetReadFile(
; 684  : 									hRequest,
; 685  : 									szData, sizeof(szData)-1,
; 686  : 									&dwBytesRead);

  01b6d	8d 85 1c df ff
	ff		 lea	 eax, DWORD PTR _dwBytesRead$224634[ebp]
  01b73	50		 push	 eax
  01b74	68 ff 0f 00 00	 push	 4095			; 00000fffH
  01b79	8d 8d 20 df ff
	ff		 lea	 ecx, DWORD PTR _szData$224633[ebp]
  01b7f	51		 push	 ecx
  01b80	8b 95 cc ef ff
	ff		 mov	 edx, DWORD PTR _hRequest$224624[ebp]
  01b86	52		 push	 edx
  01b87	ff 15 00 00 00
	00		 call	 DWORD PTR __imp__InternetReadFile@16
  01b8d	89 85 18 df ff
	ff		 mov	 DWORD PTR _bRead$224635[ebp], eax

; 687  : 
; 688  : 								//       
; 689  : 								if (bRead == FALSE || dwBytesRead == 0)

  01b93	83 bd 18 df ff
	ff 00		 cmp	 DWORD PTR _bRead$224635[ebp], 0
  01b9a	74 09		 je	 SHORT $LN6@Qtop
  01b9c	83 bd 1c df ff
	ff 00		 cmp	 DWORD PTR _dwBytesRead$224634[ebp], 0
  01ba3	75 02		 jne	 SHORT $LN7@Qtop
$LN6@Qtop:

; 690  : 									break;

  01ba5	eb 26		 jmp	 SHORT $LN8@Qtop
$LN7@Qtop:

; 691  : 
; 692  : 								//  
; 693  : 								szData[dwBytesRead] = 0;

  01ba7	8b 85 1c df ff
	ff		 mov	 eax, DWORD PTR _dwBytesRead$224634[ebp]
  01bad	c6 84 05 20 df
	ff ff 00	 mov	 BYTE PTR _szData$224633[ebp+eax], 0

; 694  : 								fnews << szData;

  01bb5	8d 85 20 df ff
	ff		 lea	 eax, DWORD PTR _szData$224633[ebp]
  01bbb	50		 push	 eax
  01bbc	8d 8d 20 ef ff
	ff		 lea	 ecx, DWORD PTR _fnews$224628[ebp]
  01bc2	51		 push	 ecx
  01bc3	e8 00 00 00 00	 call	 ??$?6U?$char_traits@D@std@@@std@@YAAAV?$basic_ostream@DU?$char_traits@D@std@@@0@AAV10@PBD@Z ; std::operator<<<std::char_traits<char> >
  01bc8	83 c4 08	 add	 esp, 8

; 695  : 							}

  01bcb	eb 97		 jmp	 SHORT $LN9@Qtop
$LN8@Qtop:

; 696  : 						}
; 697  : 						else

  01bcd	eb 0d		 jmp	 SHORT $LN5@Qtop
$LN10@Qtop:

; 698  : 						{
; 699  : 							AdmLog("fnews.is_open()");

  01bcf	68 00 00 00 00	 push	 OFFSET ??_C@_0BA@HICLJBKB@fnews?4is_open?$CI?$CJ?$AA@
  01bd4	e8 00 00 00 00	 call	 ?AdmLog@@YAXPAD@Z	; AdmLog
  01bd9	83 c4 04	 add	 esp, 4
$LN5@Qtop:

; 700  : 						}
; 701  : 					}

  01bdc	c7 45 fc ff ff
	ff ff		 mov	 DWORD PTR __$EHRec$[ebp+8], -1
  01be3	8d 8d 20 ef ff
	ff		 lea	 ecx, DWORD PTR _fnews$224628[ebp]
  01be9	e8 00 00 00 00	 call	 ??_D?$basic_ofstream@DU?$char_traits@D@std@@@std@@QAEXXZ

; 702  : 					else

  01bee	eb 0d		 jmp	 SHORT $LN4@Qtop
$LN11@Qtop:

; 703  : 					{
; 704  : 						AdmLog("bSend");

  01bf0	68 00 00 00 00	 push	 OFFSET ??_C@_05DLJCAKKO@bSend?$AA@
  01bf5	e8 00 00 00 00	 call	 ?AdmLog@@YAXPAD@Z	; AdmLog
  01bfa	83 c4 04	 add	 esp, 4
$LN4@Qtop:

; 705  : 					}
; 706  : 					//  
; 707  : 					::InternetCloseHandle(hRequest);

  01bfd	8b 85 cc ef ff
	ff		 mov	 eax, DWORD PTR _hRequest$224624[ebp]
  01c03	50		 push	 eax
  01c04	ff 15 00 00 00
	00		 call	 DWORD PTR __imp__InternetCloseHandle@4

; 708  : 				}
; 709  : 				else

  01c0a	eb 0d		 jmp	 SHORT $LN3@Qtop
$LN12@Qtop:

; 710  : 				{
; 711  : 					AdmLog("hRequest != NULL");

  01c0c	68 00 00 00 00	 push	 OFFSET ??_C@_0BB@CCOENLML@hRequest?5?$CB?$DN?5NULL?$AA@
  01c11	e8 00 00 00 00	 call	 ?AdmLog@@YAXPAD@Z	; AdmLog
  01c16	83 c4 04	 add	 esp, 4
$LN3@Qtop:

; 712  : 				}
; 713  : 				//  
; 714  : 				::InternetCloseHandle(hConnect);

  01c19	8b 85 d0 ef ff
	ff		 mov	 eax, DWORD PTR _hConnect$224622[ebp]
  01c1f	50		 push	 eax
  01c20	ff 15 00 00 00
	00		 call	 DWORD PTR __imp__InternetCloseHandle@4

; 715  : 			}
; 716  : 			else

  01c26	eb 0d		 jmp	 SHORT $LN2@Qtop
$LN13@Qtop:

; 717  : 			{
; 718  : 				AdmLog("hConnect != NULL");

  01c28	68 00 00 00 00	 push	 OFFSET ??_C@_0BB@MALKFMPK@hConnect?5?$CB?$DN?5NULL?$AA@
  01c2d	e8 00 00 00 00	 call	 ?AdmLog@@YAXPAD@Z	; AdmLog
  01c32	83 c4 04	 add	 esp, 4
$LN2@Qtop:

; 719  : 			}
; 720  : 			//  WinInet
; 721  : 			::InternetCloseHandle(hInternet);

  01c35	8b 85 d4 ef ff
	ff		 mov	 eax, DWORD PTR _hInternet$224620[ebp]
  01c3b	50		 push	 eax
  01c3c	ff 15 00 00 00
	00		 call	 DWORD PTR __imp__InternetCloseHandle@4

; 722  : 		}
; 723  : 		else

  01c42	eb 0d		 jmp	 SHORT $LN25@Qtop
$LN14@Qtop:

; 724  : 		{
; 725  : 			AdmLog("hInternet != NULL");

  01c44	68 00 00 00 00	 push	 OFFSET ??_C@_0BC@ELJALHPL@hInternet?5?$CB?$DN?5NULL?$AA@
  01c49	e8 00 00 00 00	 call	 ?AdmLog@@YAXPAD@Z	; AdmLog
  01c4e	83 c4 04	 add	 esp, 4
$LN25@Qtop:

; 726  : 		}
; 727  : 	}
; 728  : 	//--------------------------------------------------------
; 729  : 
; 730  : #ifdef DEBUG_CODE
; 731  : 	AdmLog("DEBUG_CODE");
; 732  : #endif
; 733  : 
; 734  : 	this->QtopReed();

  01c51	8b 4d ec	 mov	 ecx, DWORD PTR _this$[ebp]
  01c54	e8 00 00 00 00	 call	 ?QtopReed@Voter@@QAEXXZ	; Voter::QtopReed
$LN29@Qtop:

; 735  : }

  01c59	8b 4d f4	 mov	 ecx, DWORD PTR __$EHRec$[ebp]
  01c5c	64 89 0d 00 00
	00 00		 mov	 DWORD PTR fs:0, ecx
  01c63	59		 pop	 ecx
  01c64	5f		 pop	 edi
  01c65	5e		 pop	 esi
  01c66	5b		 pop	 ebx
  01c67	8b 4d f0	 mov	 ecx, DWORD PTR __$ArrayPad$[ebp]
  01c6a	33 cd		 xor	 ecx, ebp
  01c6c	e8 00 00 00 00	 call	 @__security_check_cookie@4
  01c71	8b e5		 mov	 esp, ebp
  01c73	5d		 pop	 ebp
  01c74	c3		 ret	 0
_TEXT	ENDS
text$x	SEGMENT
__unwindfunclet$?Qtop@Voter@@QAEXXZ$0:
  00033	8d 8d 20 ef ff
	ff		 lea	 ecx, DWORD PTR _fnews$224628[ebp]
  00039	e9 00 00 00 00	 jmp	 ??_D?$basic_ofstream@DU?$char_traits@D@std@@@std@@QAEXXZ
__ehhandler$?Qtop@Voter@@QAEXXZ:
  0003e	8b 54 24 08	 mov	 edx, DWORD PTR [esp+8]
  00042	8d 42 0c	 lea	 eax, DWORD PTR [edx+12]
  00045	8b 8a d4 de ff
	ff		 mov	 ecx, DWORD PTR [edx-8492]
  0004b	33 c8		 xor	 ecx, eax
  0004d	e8 00 00 00 00	 call	 @__security_check_cookie@4
  00052	8b 4a fc	 mov	 ecx, DWORD PTR [edx-4]
  00055	33 c8		 xor	 ecx, eax
  00057	e8 00 00 00 00	 call	 @__security_check_cookie@4
  0005c	b8 00 00 00 00	 mov	 eax, OFFSET __ehfuncinfo$?Qtop@Voter@@QAEXXZ
  00061	e9 00 00 00 00	 jmp	 ___CxxFrameHandler3
text$x	ENDS
?Qtop@Voter@@QAEXXZ ENDP				; Voter::Qtop
PUBLIC	??_C@_0BE@OHJFKBPP@?$FLQTOP?$FN?$FL?$CFs?$FN?5Date?3?5?$CFs?$AA@ ; `string'
PUBLIC	??_C@_0BB@EPGEHIK@?$EA?$FLQTOP?$FN?5Date?3?5?$CFs?$AA@ ; `string'
PUBLIC	??_C@_0BM@CAGLDOOI@?$EA?$FLQTOP?$FN?5Life?5Bank?5Bonus?3?5?$CFd?$AA@ ; `string'
PUBLIC	??_C@_0BM@IEHNOLFI@?$EA?$FLQTOP?$FN?5Soul?5Bank?5Bonus?3?5?$CFd?$AA@ ; `string'
PUBLIC	??_C@_0BN@EDNCDCIG@?$EA?$FLQTOP?$FN?5Bless?5Bank?5Bonus?3?5?$CFd?$AA@ ; `string'
PUBLIC	??_C@_0BN@EJNHHCLB@?$EA?$FLQTOP?$FN?5Chaos?5Bank?5Bonus?3?5?$CFd?$AA@ ; `string'
PUBLIC	??_C@_0BJ@HHCPDPGE@?$EA?$FLQTOP?$FN?5ExCred?5Bonus?3?5?$CFd?$AA@ ; `string'
PUBLIC	??_C@_0BJ@FEFHLEEI@?$EA?$FLQTOP?$FN?5Goblin?5Bonus?3?5?$CFd?$AA@ ; `string'
PUBLIC	??_C@_0BJ@LNNHKKD@?$EA?$FLQTOP?$FN?5WCoinP?5Bonus?3?5?$CFd?$AA@ ; `string'
PUBLIC	??_C@_0BJ@GHGEDONC@?$EA?$FLQTOP?$FN?5WcoinC?5Bonus?3?5?$CFd?$AA@ ; `string'
PUBLIC	??_C@_0BH@PHOGLPEJ@?$EA?$FLQTOP?$FN?5Item?5Bonus?3?5?$CFs?$AA@ ; `string'
PUBLIC	??_C@_0DE@MCFMOACN@?$EA?$FLQTOP?$FN?5Need?5to?5make?5space?5in?5th@ ; `string'
PUBLIC	??_C@_0BF@OKPMBKFL@?$EA?$FLSMS?5QTOP?$FN?5Date?3?5?$CFs?$AA@ ; `string'
PUBLIC	??_C@_0CA@KBCELJKG@?$EA?$FLSMS?5QTOP?$FN?5Life?5Bank?5Bonus?3?5?$CFd?$AA@ ; `string'
PUBLIC	??_C@_0CA@FDCGMBG@?$EA?$FLSMS?5QTOP?$FN?5Soul?5Bank?5Bonus?3?5?$CFd?$AA@ ; `string'
PUBLIC	??_C@_0CB@NCDHBBJG@?$EA?$FLSMS?5QTOP?$FN?5Bless?5Bank?5Bonus?3?5?$CFd@ ; `string'
PUBLIC	??_C@_0CB@NIDCFBKB@?$EA?$FLSMS?5QTOP?$FN?5Chaos?5Bank?5Bonus?3?5?$CFd@ ; `string'
PUBLIC	??_C@_0BN@MJOFJLEJ@?$EA?$FLSMS?5QTOP?$FN?5ExCred?5Bonus?3?5?$CFd?$AA@ ; `string'
PUBLIC	??_C@_0BN@OKJNBAGF@?$EA?$FLSMS?5QTOP?$FN?5Goblin?5Bonus?3?5?$CFd?$AA@ ; `string'
PUBLIC	??_C@_0BN@LFBHNOIO@?$EA?$FLSMS?5QTOP?$FN?5WCoinP?5Bonus?3?5?$CFd?$AA@ ; `string'
PUBLIC	??_C@_0BN@NJKOJKPP@?$EA?$FLSMS?5QTOP?$FN?5WcoinC?5Bonus?3?5?$CFd?$AA@ ; `string'
PUBLIC	??_C@_0BL@CCMGGGHH@?$EA?$FLSMS?5QTOP?$FN?5Item?5Bonus?3?5?$CFs?$AA@ ; `string'
PUBLIC	??_C@_0DI@EACAPLAC@?$EA?$FLSMS?5QTOP?$FN?5Need?5to?5make?5space?5i@ ; `string'
PUBLIC	__$ArrayPad$
EXTRN	?GJSetCharacterInfo@@YAXPAUOBJECTSTRUCT@@HH@Z:PROC ; GJSetCharacterInfo
EXTRN	_strlen:PROC
;	COMDAT ??_C@_0BE@OHJFKBPP@?$FLQTOP?$FN?$FL?$CFs?$FN?5Date?3?5?$CFs?$AA@
CONST	SEGMENT
??_C@_0BE@OHJFKBPP@?$FLQTOP?$FN?$FL?$CFs?$FN?5Date?3?5?$CFs?$AA@ DB '[QTO'
	DB	'P][%s] Date: %s', 00H			; `string'
CONST	ENDS
;	COMDAT ??_C@_0BB@EPGEHIK@?$EA?$FLQTOP?$FN?5Date?3?5?$CFs?$AA@
CONST	SEGMENT
??_C@_0BB@EPGEHIK@?$EA?$FLQTOP?$FN?5Date?3?5?$CFs?$AA@ DB '@[QTOP] Date: '
	DB	'%s', 00H					; `string'
CONST	ENDS
;	COMDAT ??_C@_0BM@CAGLDOOI@?$EA?$FLQTOP?$FN?5Life?5Bank?5Bonus?3?5?$CFd?$AA@
CONST	SEGMENT
??_C@_0BM@CAGLDOOI@?$EA?$FLQTOP?$FN?5Life?5Bank?5Bonus?3?5?$CFd?$AA@ DB '@'
	DB	'[QTOP] Life Bank Bonus: %d', 00H		; `string'
CONST	ENDS
;	COMDAT ??_C@_0BM@IEHNOLFI@?$EA?$FLQTOP?$FN?5Soul?5Bank?5Bonus?3?5?$CFd?$AA@
CONST	SEGMENT
??_C@_0BM@IEHNOLFI@?$EA?$FLQTOP?$FN?5Soul?5Bank?5Bonus?3?5?$CFd?$AA@ DB '@'
	DB	'[QTOP] Soul Bank Bonus: %d', 00H		; `string'
CONST	ENDS
;	COMDAT ??_C@_0BN@EDNCDCIG@?$EA?$FLQTOP?$FN?5Bless?5Bank?5Bonus?3?5?$CFd?$AA@
CONST	SEGMENT
??_C@_0BN@EDNCDCIG@?$EA?$FLQTOP?$FN?5Bless?5Bank?5Bonus?3?5?$CFd?$AA@ DB '@'
	DB	'[QTOP] Bless Bank Bonus: %d', 00H		; `string'
CONST	ENDS
;	COMDAT ??_C@_0BN@EJNHHCLB@?$EA?$FLQTOP?$FN?5Chaos?5Bank?5Bonus?3?5?$CFd?$AA@
CONST	SEGMENT
??_C@_0BN@EJNHHCLB@?$EA?$FLQTOP?$FN?5Chaos?5Bank?5Bonus?3?5?$CFd?$AA@ DB '@'
	DB	'[QTOP] Chaos Bank Bonus: %d', 00H		; `string'
CONST	ENDS
;	COMDAT ??_C@_0BJ@HHCPDPGE@?$EA?$FLQTOP?$FN?5ExCred?5Bonus?3?5?$CFd?$AA@
CONST	SEGMENT
??_C@_0BJ@HHCPDPGE@?$EA?$FLQTOP?$FN?5ExCred?5Bonus?3?5?$CFd?$AA@ DB '@[QT'
	DB	'OP] ExCred Bonus: %d', 00H			; `string'
CONST	ENDS
;	COMDAT ??_C@_0BJ@FEFHLEEI@?$EA?$FLQTOP?$FN?5Goblin?5Bonus?3?5?$CFd?$AA@
CONST	SEGMENT
??_C@_0BJ@FEFHLEEI@?$EA?$FLQTOP?$FN?5Goblin?5Bonus?3?5?$CFd?$AA@ DB '@[QT'
	DB	'OP] Goblin Bonus: %d', 00H			; `string'
CONST	ENDS
;	COMDAT ??_C@_0BJ@LNNHKKD@?$EA?$FLQTOP?$FN?5WCoinP?5Bonus?3?5?$CFd?$AA@
CONST	SEGMENT
??_C@_0BJ@LNNHKKD@?$EA?$FLQTOP?$FN?5WCoinP?5Bonus?3?5?$CFd?$AA@ DB '@[QTO'
	DB	'P] WCoinP Bonus: %d', 00H			; `string'
CONST	ENDS
;	COMDAT ??_C@_0BJ@GHGEDONC@?$EA?$FLQTOP?$FN?5WcoinC?5Bonus?3?5?$CFd?$AA@
CONST	SEGMENT
??_C@_0BJ@GHGEDONC@?$EA?$FLQTOP?$FN?5WcoinC?5Bonus?3?5?$CFd?$AA@ DB '@[QT'
	DB	'OP] WcoinC Bonus: %d', 00H			; `string'
CONST	ENDS
;	COMDAT ??_C@_0BH@PHOGLPEJ@?$EA?$FLQTOP?$FN?5Item?5Bonus?3?5?$CFs?$AA@
CONST	SEGMENT
??_C@_0BH@PHOGLPEJ@?$EA?$FLQTOP?$FN?5Item?5Bonus?3?5?$CFs?$AA@ DB '@[QTOP'
	DB	'] Item Bonus: %s', 00H			; `string'
CONST	ENDS
;	COMDAT ??_C@_0DE@MCFMOACN@?$EA?$FLQTOP?$FN?5Need?5to?5make?5space?5in?5th@
CONST	SEGMENT
??_C@_0DE@MCFMOACN@?$EA?$FLQTOP?$FN?5Need?5to?5make?5space?5in?5th@ DB '@'
	DB	'[QTOP] Need to make space in the inventory (%dx%d)', 00H ; `string'
CONST	ENDS
;	COMDAT ??_C@_0BF@OKPMBKFL@?$EA?$FLSMS?5QTOP?$FN?5Date?3?5?$CFs?$AA@
CONST	SEGMENT
??_C@_0BF@OKPMBKFL@?$EA?$FLSMS?5QTOP?$FN?5Date?3?5?$CFs?$AA@ DB '@[SMS QT'
	DB	'OP] Date: %s', 00H				; `string'
CONST	ENDS
;	COMDAT ??_C@_0CA@KBCELJKG@?$EA?$FLSMS?5QTOP?$FN?5Life?5Bank?5Bonus?3?5?$CFd?$AA@
CONST	SEGMENT
??_C@_0CA@KBCELJKG@?$EA?$FLSMS?5QTOP?$FN?5Life?5Bank?5Bonus?3?5?$CFd?$AA@ DB '@'
	DB	'[SMS QTOP] Life Bank Bonus: %d', 00H	; `string'
CONST	ENDS
;	COMDAT ??_C@_0CA@FDCGMBG@?$EA?$FLSMS?5QTOP?$FN?5Soul?5Bank?5Bonus?3?5?$CFd?$AA@
CONST	SEGMENT
??_C@_0CA@FDCGMBG@?$EA?$FLSMS?5QTOP?$FN?5Soul?5Bank?5Bonus?3?5?$CFd?$AA@ DB '@'
	DB	'[SMS QTOP] Soul Bank Bonus: %d', 00H	; `string'
CONST	ENDS
;	COMDAT ??_C@_0CB@NCDHBBJG@?$EA?$FLSMS?5QTOP?$FN?5Bless?5Bank?5Bonus?3?5?$CFd@
CONST	SEGMENT
??_C@_0CB@NCDHBBJG@?$EA?$FLSMS?5QTOP?$FN?5Bless?5Bank?5Bonus?3?5?$CFd@ DB '@'
	DB	'[SMS QTOP] Bless Bank Bonus: %d', 00H	; `string'
CONST	ENDS
;	COMDAT ??_C@_0CB@NIDCFBKB@?$EA?$FLSMS?5QTOP?$FN?5Chaos?5Bank?5Bonus?3?5?$CFd@
CONST	SEGMENT
??_C@_0CB@NIDCFBKB@?$EA?$FLSMS?5QTOP?$FN?5Chaos?5Bank?5Bonus?3?5?$CFd@ DB '@'
	DB	'[SMS QTOP] Chaos Bank Bonus: %d', 00H	; `string'
CONST	ENDS
;	COMDAT ??_C@_0BN@MJOFJLEJ@?$EA?$FLSMS?5QTOP?$FN?5ExCred?5Bonus?3?5?$CFd?$AA@
CONST	SEGMENT
??_C@_0BN@MJOFJLEJ@?$EA?$FLSMS?5QTOP?$FN?5ExCred?5Bonus?3?5?$CFd?$AA@ DB '@'
	DB	'[SMS QTOP] ExCred Bonus: %d', 00H		; `string'
CONST	ENDS
;	COMDAT ??_C@_0BN@OKJNBAGF@?$EA?$FLSMS?5QTOP?$FN?5Goblin?5Bonus?3?5?$CFd?$AA@
CONST	SEGMENT
??_C@_0BN@OKJNBAGF@?$EA?$FLSMS?5QTOP?$FN?5Goblin?5Bonus?3?5?$CFd?$AA@ DB '@'
	DB	'[SMS QTOP] Goblin Bonus: %d', 00H		; `string'
CONST	ENDS
;	COMDAT ??_C@_0BN@LFBHNOIO@?$EA?$FLSMS?5QTOP?$FN?5WCoinP?5Bonus?3?5?$CFd?$AA@
CONST	SEGMENT
??_C@_0BN@LFBHNOIO@?$EA?$FLSMS?5QTOP?$FN?5WCoinP?5Bonus?3?5?$CFd?$AA@ DB '@'
	DB	'[SMS QTOP] WCoinP Bonus: %d', 00H		; `string'
CONST	ENDS
;	COMDAT ??_C@_0BN@NJKOJKPP@?$EA?$FLSMS?5QTOP?$FN?5WcoinC?5Bonus?3?5?$CFd?$AA@
CONST	SEGMENT
??_C@_0BN@NJKOJKPP@?$EA?$FLSMS?5QTOP?$FN?5WcoinC?5Bonus?3?5?$CFd?$AA@ DB '@'
	DB	'[SMS QTOP] WcoinC Bonus: %d', 00H		; `string'
CONST	ENDS
;	COMDAT ??_C@_0BL@CCMGGGHH@?$EA?$FLSMS?5QTOP?$FN?5Item?5Bonus?3?5?$CFs?$AA@
CONST	SEGMENT
??_C@_0BL@CCMGGGHH@?$EA?$FLSMS?5QTOP?$FN?5Item?5Bonus?3?5?$CFs?$AA@ DB '@'
	DB	'[SMS QTOP] Item Bonus: %s', 00H		; `string'
CONST	ENDS
;	COMDAT ??_C@_0DI@EACAPLAC@?$EA?$FLSMS?5QTOP?$FN?5Need?5to?5make?5space?5i@
CONST	SEGMENT
??_C@_0DI@EACAPLAC@?$EA?$FLSMS?5QTOP?$FN?5Need?5to?5make?5space?5i@ DB '@'
	DB	'[SMS QTOP] Need to make space in the inventory (%dx%d)', 00H ; `string'
; Function compile flags: /Odtp /ZI
CONST	ENDS
_TEXT	SEGMENT
_Width$224719 = -788					; size = 4
_Height$224718 = -784					; size = 4
_Width$224693 = -780					; size = 4
_Height$224692 = -776					; size = 4
_lpObj$224688 = -772					; size = 4
_tData$224687 = -768					; size = 4
_ct$224685 = -764					; size = 8
_n$224677 = -756					; size = 4
_aIndex$224676 = -752					; size = 4
_nSec$224673 = -748					; size = 4
_nMin$224672 = -744					; size = 4
_nHour$224671 = -740					; size = 4
_nDay$224670 = -736					; size = 4
_nMonth$224669 = -732					; size = 4
_nYear$224668 = -728					; size = 4
_DataTime$224667 = -724					; size = 100
_mRewerd$224666 = -624					; size = 4
_mGetAccaunt$224665 = -620				; size = 20
_mGetIp$224664 = -600					; size = 20
_mGetTime$224663 = -580					; size = 20
_mGetDate$224662 = -560					; size = 20
_mId$224661 = -540					; size = 4
_i$224656 = -536					; size = 4
_iLen$224654 = -532					; size = 4
_Count$ = -528						; size = 4
_Buff$ = -524						; size = 512
_file$ = -12						; size = 4
_this$ = -8						; size = 4
__$ArrayPad$ = -4					; size = 4
?QtopReed@Voter@@QAEXXZ PROC				; Voter::QtopReed
; _this$ = ecx

; 738  : {

  01c80	55		 push	 ebp
  01c81	8b ec		 mov	 ebp, esp
  01c83	81 ec 54 03 00
	00		 sub	 esp, 852		; 00000354H
  01c89	a1 00 00 00 00	 mov	 eax, DWORD PTR ___security_cookie
  01c8e	33 c5		 xor	 eax, ebp
  01c90	89 45 fc	 mov	 DWORD PTR __$ArrayPad$[ebp], eax
  01c93	53		 push	 ebx
  01c94	56		 push	 esi
  01c95	57		 push	 edi
  01c96	89 4d f8	 mov	 DWORD PTR _this$[ebp], ecx

; 739  : 	if (!this->QTOP_Enable) return;

  01c99	8b 45 f8	 mov	 eax, DWORD PTR _this$[ebp]
  01c9c	0f b6 88 30 01
	00 00		 movzx	 ecx, BYTE PTR [eax+304]
  01ca3	85 c9		 test	 ecx, ecx
  01ca5	75 05		 jne	 SHORT $LN46@QtopReed
  01ca7	e9 e1 0c 00 00	 jmp	 $LN47@QtopReed
$LN46@QtopReed:

; 740  : 
; 741  : 	FILE * file = fopen(QTOP_FILE, "r");

  01cac	68 00 00 00 00	 push	 OFFSET ??_C@_01KDCPPGHE@r?$AA@
  01cb1	68 00 00 00 00	 push	 OFFSET ??_C@_08CLPFLBNE@qtop?4txt?$AA@
  01cb6	e8 00 00 00 00	 call	 _fopen
  01cbb	83 c4 08	 add	 esp, 8
  01cbe	89 45 f4	 mov	 DWORD PTR _file$[ebp], eax

; 742  : 
; 743  : 	if (file == NULL)

  01cc1	83 7d f4 00	 cmp	 DWORD PTR _file$[ebp], 0
  01cc5	75 05		 jne	 SHORT $LN45@QtopReed

; 744  : 	{
; 745  : #ifdef VOTE_DEBUG
; 746  : 		LogAddC(2, "[VOTE]No FILE");
; 747  : #endif
; 748  : 		return;

  01cc7	e9 c1 0c 00 00	 jmp	 $LN47@QtopReed
$LN45@QtopReed:

; 749  : 	}
; 750  : 
; 751  : 	char Buff[512];
; 752  : 
; 753  : 	int Count = 0;

  01ccc	c7 85 f0 fd ff
	ff 00 00 00 00	 mov	 DWORD PTR _Count$[ebp], 0
$LN53@QtopReed:

; 754  : 
; 755  : 	while (!feof(file))

  01cd6	8b 45 f4	 mov	 eax, DWORD PTR _file$[ebp]
  01cd9	50		 push	 eax
  01cda	e8 00 00 00 00	 call	 _feof
  01cdf	83 c4 04	 add	 esp, 4
  01ce2	85 c0		 test	 eax, eax
  01ce4	0f 85 7c 0c 00
	00		 jne	 $LN43@QtopReed

; 756  : 	{
; 757  : 		ZeroMemory(&Buff, sizeof(Buff));

  01cea	68 00 02 00 00	 push	 512			; 00000200H
  01cef	6a 00		 push	 0
  01cf1	8d 85 f4 fd ff
	ff		 lea	 eax, DWORD PTR _Buff$[ebp]
  01cf7	50		 push	 eax
  01cf8	e8 00 00 00 00	 call	 _memset
  01cfd	83 c4 0c	 add	 esp, 12			; 0000000cH

; 758  : 		fgets(Buff, 512, file);

  01d00	8b 45 f4	 mov	 eax, DWORD PTR _file$[ebp]
  01d03	50		 push	 eax
  01d04	68 00 02 00 00	 push	 512			; 00000200H
  01d09	8d 8d f4 fd ff
	ff		 lea	 ecx, DWORD PTR _Buff$[ebp]
  01d0f	51		 push	 ecx
  01d10	e8 00 00 00 00	 call	 _fgets
  01d15	83 c4 0c	 add	 esp, 12			; 0000000cH

; 759  : 
; 760  : 		int iLen = strlen(Buff);

  01d18	8d 85 f4 fd ff
	ff		 lea	 eax, DWORD PTR _Buff$[ebp]
  01d1e	50		 push	 eax
  01d1f	e8 00 00 00 00	 call	 _strlen
  01d24	83 c4 04	 add	 esp, 4
  01d27	89 85 ec fd ff
	ff		 mov	 DWORD PTR _iLen$224654[ebp], eax

; 761  : 
; 762  : 		if(iLen < 10)

  01d2d	83 bd ec fd ff
	ff 0a		 cmp	 DWORD PTR _iLen$224654[ebp], 10 ; 0000000aH
  01d34	7d 02		 jge	 SHORT $LN42@QtopReed

; 763  : 		{
; 764  : 			continue;

  01d36	eb 9e		 jmp	 SHORT $LN53@QtopReed
$LN42@QtopReed:

; 765  : 		}
; 766  : 
; 767  : 		for(int i = 0; i < iLen; i++)

  01d38	c7 85 e8 fd ff
	ff 00 00 00 00	 mov	 DWORD PTR _i$224656[ebp], 0
  01d42	eb 0f		 jmp	 SHORT $LN41@QtopReed
$LN40@QtopReed:
  01d44	8b 85 e8 fd ff
	ff		 mov	 eax, DWORD PTR _i$224656[ebp]
  01d4a	83 c0 01	 add	 eax, 1
  01d4d	89 85 e8 fd ff
	ff		 mov	 DWORD PTR _i$224656[ebp], eax
$LN41@QtopReed:
  01d53	8b 85 e8 fd ff
	ff		 mov	 eax, DWORD PTR _i$224656[ebp]
  01d59	3b 85 ec fd ff
	ff		 cmp	 eax, DWORD PTR _iLen$224654[ebp]
  01d5f	7d 23		 jge	 SHORT $LN39@QtopReed

; 768  : 		{
; 769  : 			if(Buff[i] == '|')

  01d61	8b 85 e8 fd ff
	ff		 mov	 eax, DWORD PTR _i$224656[ebp]
  01d67	0f be 8c 05 f4
	fd ff ff	 movsx	 ecx, BYTE PTR _Buff$[ebp+eax]
  01d6f	83 f9 7c	 cmp	 ecx, 124		; 0000007cH
  01d72	75 0e		 jne	 SHORT $LN38@QtopReed

; 770  : 			{
; 771  : 				Buff[i] = ' ';

  01d74	8b 85 e8 fd ff
	ff		 mov	 eax, DWORD PTR _i$224656[ebp]
  01d7a	c6 84 05 f4 fd
	ff ff 20	 mov	 BYTE PTR _Buff$[ebp+eax], 32 ; 00000020H
$LN38@QtopReed:

; 772  : 			}
; 773  : 		}

  01d82	eb c0		 jmp	 SHORT $LN40@QtopReed
$LN39@QtopReed:

; 774  : 
; 775  : 		int mId;// = 0;
; 776  : 		char mGetDate[20] = { 0 };

  01d84	c6 85 d0 fd ff
	ff 00		 mov	 BYTE PTR _mGetDate$224662[ebp], 0
  01d8b	33 c0		 xor	 eax, eax
  01d8d	89 85 d1 fd ff
	ff		 mov	 DWORD PTR _mGetDate$224662[ebp+1], eax
  01d93	89 85 d5 fd ff
	ff		 mov	 DWORD PTR _mGetDate$224662[ebp+5], eax
  01d99	89 85 d9 fd ff
	ff		 mov	 DWORD PTR _mGetDate$224662[ebp+9], eax
  01d9f	89 85 dd fd ff
	ff		 mov	 DWORD PTR _mGetDate$224662[ebp+13], eax
  01da5	66 89 85 e1 fd
	ff ff		 mov	 WORD PTR _mGetDate$224662[ebp+17], ax
  01dac	88 85 e3 fd ff
	ff		 mov	 BYTE PTR _mGetDate$224662[ebp+19], al

; 777  : 		char mGetTime[20] = { 0 };

  01db2	c6 85 bc fd ff
	ff 00		 mov	 BYTE PTR _mGetTime$224663[ebp], 0
  01db9	33 c0		 xor	 eax, eax
  01dbb	89 85 bd fd ff
	ff		 mov	 DWORD PTR _mGetTime$224663[ebp+1], eax
  01dc1	89 85 c1 fd ff
	ff		 mov	 DWORD PTR _mGetTime$224663[ebp+5], eax
  01dc7	89 85 c5 fd ff
	ff		 mov	 DWORD PTR _mGetTime$224663[ebp+9], eax
  01dcd	89 85 c9 fd ff
	ff		 mov	 DWORD PTR _mGetTime$224663[ebp+13], eax
  01dd3	66 89 85 cd fd
	ff ff		 mov	 WORD PTR _mGetTime$224663[ebp+17], ax
  01dda	88 85 cf fd ff
	ff		 mov	 BYTE PTR _mGetTime$224663[ebp+19], al

; 778  : 		char mGetIp[20] = { 0 };

  01de0	c6 85 a8 fd ff
	ff 00		 mov	 BYTE PTR _mGetIp$224664[ebp], 0
  01de7	33 c0		 xor	 eax, eax
  01de9	89 85 a9 fd ff
	ff		 mov	 DWORD PTR _mGetIp$224664[ebp+1], eax
  01def	89 85 ad fd ff
	ff		 mov	 DWORD PTR _mGetIp$224664[ebp+5], eax
  01df5	89 85 b1 fd ff
	ff		 mov	 DWORD PTR _mGetIp$224664[ebp+9], eax
  01dfb	89 85 b5 fd ff
	ff		 mov	 DWORD PTR _mGetIp$224664[ebp+13], eax
  01e01	66 89 85 b9 fd
	ff ff		 mov	 WORD PTR _mGetIp$224664[ebp+17], ax
  01e08	88 85 bb fd ff
	ff		 mov	 BYTE PTR _mGetIp$224664[ebp+19], al

; 779  : 		char mGetAccaunt[20] = { 0 };

  01e0e	c6 85 94 fd ff
	ff 00		 mov	 BYTE PTR _mGetAccaunt$224665[ebp], 0
  01e15	33 c0		 xor	 eax, eax
  01e17	89 85 95 fd ff
	ff		 mov	 DWORD PTR _mGetAccaunt$224665[ebp+1], eax
  01e1d	89 85 99 fd ff
	ff		 mov	 DWORD PTR _mGetAccaunt$224665[ebp+5], eax
  01e23	89 85 9d fd ff
	ff		 mov	 DWORD PTR _mGetAccaunt$224665[ebp+9], eax
  01e29	89 85 a1 fd ff
	ff		 mov	 DWORD PTR _mGetAccaunt$224665[ebp+13], eax
  01e2f	66 89 85 a5 fd
	ff ff		 mov	 WORD PTR _mGetAccaunt$224665[ebp+17], ax
  01e36	88 85 a7 fd ff
	ff		 mov	 BYTE PTR _mGetAccaunt$224665[ebp+19], al

; 780  : 		int mRewerd;
; 781  : 
; 782  : 		sscanf(Buff, "%d %s %s %s %s %d",&mId, &mGetDate, &mGetTime, &mGetIp, &mGetAccaunt, &mRewerd);

  01e3c	8d 85 90 fd ff
	ff		 lea	 eax, DWORD PTR _mRewerd$224666[ebp]
  01e42	50		 push	 eax
  01e43	8d 8d 94 fd ff
	ff		 lea	 ecx, DWORD PTR _mGetAccaunt$224665[ebp]
  01e49	51		 push	 ecx
  01e4a	8d 95 a8 fd ff
	ff		 lea	 edx, DWORD PTR _mGetIp$224664[ebp]
  01e50	52		 push	 edx
  01e51	8d 85 bc fd ff
	ff		 lea	 eax, DWORD PTR _mGetTime$224663[ebp]
  01e57	50		 push	 eax
  01e58	8d 8d d0 fd ff
	ff		 lea	 ecx, DWORD PTR _mGetDate$224662[ebp]
  01e5e	51		 push	 ecx
  01e5f	8d 95 e4 fd ff
	ff		 lea	 edx, DWORD PTR _mId$224661[ebp]
  01e65	52		 push	 edx
  01e66	68 00 00 00 00	 push	 OFFSET ??_C@_0BC@FDIFMHGC@?$CFd?5?$CFs?5?$CFs?5?$CFs?5?$CFs?5?$CFd?$AA@
  01e6b	8d 85 f4 fd ff
	ff		 lea	 eax, DWORD PTR _Buff$[ebp]
  01e71	50		 push	 eax
  01e72	e8 00 00 00 00	 call	 _sscanf
  01e77	83 c4 20	 add	 esp, 32			; 00000020H

; 783  : 		
; 784  : 
; 785  : 		//LogAddC(3, Buff);
; 786  : 		//sscanf(Buff, "%d||%s||%s||%s||%s||%d\n", &mId, &mGetDate, &mGetTime, &mGetIp, &mGetAccaunt, &mRewerd);
; 787  : 		//mRewerd[2] = 0;
; 788  : 		//LogAddC(2, "%d %s %s %s %s %d", mId, mGetDate, mGetTime, mGetIp, mGetAccaunt, mRewerd);
; 789  : 		//LogAddC(2, "%s %s", &mGetDate, &mGetTime);
; 790  : 		char DataTime[100];
; 791  : 		ZeroMemory(&DataTime, sizeof(DataTime));

  01e7a	6a 64		 push	 100			; 00000064H
  01e7c	6a 00		 push	 0
  01e7e	8d 85 2c fd ff
	ff		 lea	 eax, DWORD PTR _DataTime$224667[ebp]
  01e84	50		 push	 eax
  01e85	e8 00 00 00 00	 call	 _memset
  01e8a	83 c4 0c	 add	 esp, 12			; 0000000cH

; 792  : 		sprintf(DataTime, "%s %s", mGetDate, mGetTime);

  01e8d	8d 85 bc fd ff
	ff		 lea	 eax, DWORD PTR _mGetTime$224663[ebp]
  01e93	50		 push	 eax
  01e94	8d 8d d0 fd ff
	ff		 lea	 ecx, DWORD PTR _mGetDate$224662[ebp]
  01e9a	51		 push	 ecx
  01e9b	68 00 00 00 00	 push	 OFFSET ??_C@_05DNIIFBMG@?$CFs?5?$CFs?$AA@
  01ea0	8d 95 2c fd ff
	ff		 lea	 edx, DWORD PTR _DataTime$224667[ebp]
  01ea6	52		 push	 edx
  01ea7	e8 00 00 00 00	 call	 _sprintf
  01eac	83 c4 10	 add	 esp, 16			; 00000010H

; 793  : 		
; 794  : 		int nYear, nMonth, nDay, nHour, nMin, nSec;
; 795  : 		sscanf(DataTime, "%d.%d.%d %d:%d:%d", &nDay, &nMonth, &nYear, &nHour, &nMin, &nSec);

  01eaf	8d 85 14 fd ff
	ff		 lea	 eax, DWORD PTR _nSec$224673[ebp]
  01eb5	50		 push	 eax
  01eb6	8d 8d 18 fd ff
	ff		 lea	 ecx, DWORD PTR _nMin$224672[ebp]
  01ebc	51		 push	 ecx
  01ebd	8d 95 1c fd ff
	ff		 lea	 edx, DWORD PTR _nHour$224671[ebp]
  01ec3	52		 push	 edx
  01ec4	8d 85 28 fd ff
	ff		 lea	 eax, DWORD PTR _nYear$224668[ebp]
  01eca	50		 push	 eax
  01ecb	8d 8d 24 fd ff
	ff		 lea	 ecx, DWORD PTR _nMonth$224669[ebp]
  01ed1	51		 push	 ecx
  01ed2	8d 95 20 fd ff
	ff		 lea	 edx, DWORD PTR _nDay$224670[ebp]
  01ed8	52		 push	 edx
  01ed9	68 00 00 00 00	 push	 OFFSET ??_C@_0BC@FFOHHNEG@?$CFd?4?$CFd?4?$CFd?5?$CFd?3?$CFd?3?$CFd?$AA@
  01ede	8d 85 2c fd ff
	ff		 lea	 eax, DWORD PTR _DataTime$224667[ebp]
  01ee4	50		 push	 eax
  01ee5	e8 00 00 00 00	 call	 _sscanf
  01eea	83 c4 20	 add	 esp, 32			; 00000020H

; 796  : 		//20140215010507
; 797  : 		//LogAddC(2, "%d.%d.%d %d:%d:%d", &nDay, &nMonth, &nYear, &nHour, &nMin, &nSec);
; 798  : 		if (((nYear >= 1900) && (nMonth >= 1 && nMonth <= 12) && (nDay >= 1 && nDay <= 31) && (nHour >= 0 && nHour <= 23) && (nMin >= 0 && nMin <= 59) && (nSec >= 0 && nSec <= 59)))

  01eed	81 bd 28 fd ff
	ff 6c 07 00 00	 cmp	 DWORD PTR _nYear$224668[ebp], 1900 ; 0000076cH
  01ef7	7c 5c		 jl	 SHORT $LN37@QtopReed
  01ef9	83 bd 24 fd ff
	ff 01		 cmp	 DWORD PTR _nMonth$224669[ebp], 1
  01f00	7c 53		 jl	 SHORT $LN37@QtopReed
  01f02	83 bd 24 fd ff
	ff 0c		 cmp	 DWORD PTR _nMonth$224669[ebp], 12 ; 0000000cH
  01f09	7f 4a		 jg	 SHORT $LN37@QtopReed
  01f0b	83 bd 20 fd ff
	ff 01		 cmp	 DWORD PTR _nDay$224670[ebp], 1
  01f12	7c 41		 jl	 SHORT $LN37@QtopReed
  01f14	83 bd 20 fd ff
	ff 1f		 cmp	 DWORD PTR _nDay$224670[ebp], 31 ; 0000001fH
  01f1b	7f 38		 jg	 SHORT $LN37@QtopReed
  01f1d	83 bd 1c fd ff
	ff 00		 cmp	 DWORD PTR _nHour$224671[ebp], 0
  01f24	7c 2f		 jl	 SHORT $LN37@QtopReed
  01f26	83 bd 1c fd ff
	ff 17		 cmp	 DWORD PTR _nHour$224671[ebp], 23 ; 00000017H
  01f2d	7f 26		 jg	 SHORT $LN37@QtopReed
  01f2f	83 bd 18 fd ff
	ff 00		 cmp	 DWORD PTR _nMin$224672[ebp], 0
  01f36	7c 1d		 jl	 SHORT $LN37@QtopReed
  01f38	83 bd 18 fd ff
	ff 3b		 cmp	 DWORD PTR _nMin$224672[ebp], 59 ; 0000003bH
  01f3f	7f 14		 jg	 SHORT $LN37@QtopReed
  01f41	83 bd 14 fd ff
	ff 00		 cmp	 DWORD PTR _nSec$224673[ebp], 0
  01f48	7c 0b		 jl	 SHORT $LN37@QtopReed
  01f4a	83 bd 14 fd ff
	ff 3b		 cmp	 DWORD PTR _nSec$224673[ebp], 59 ; 0000003bH
  01f51	7f 02		 jg	 SHORT $LN37@QtopReed

; 799  : 		{
; 800  : 
; 801  : 		}
; 802  : 		else

  01f53	eb 05		 jmp	 SHORT $LN36@QtopReed
$LN37@QtopReed:

; 803  : 		{
; 804  : 			continue;

  01f55	e9 7c fd ff ff	 jmp	 $LN53@QtopReed
$LN36@QtopReed:

; 805  : 		}
; 806  : 
; 807  : 
; 808  : 		int aIndex = -1;

  01f5a	c7 85 10 fd ff
	ff ff ff ff ff	 mov	 DWORD PTR _aIndex$224676[ebp], -1

; 809  : 
; 810  : 		for (int n = OBJ_STARTUSERINDEX; n<OBJMAX; n++)

  01f64	c7 85 0c fd ff
	ff b0 36 00 00	 mov	 DWORD PTR _n$224677[ebp], 14000 ; 000036b0H
  01f6e	eb 0f		 jmp	 SHORT $LN35@QtopReed
$LN34@QtopReed:
  01f70	8b 85 0c fd ff
	ff		 mov	 eax, DWORD PTR _n$224677[ebp]
  01f76	83 c0 01	 add	 eax, 1
  01f79	89 85 0c fd ff
	ff		 mov	 DWORD PTR _n$224677[ebp], eax
$LN35@QtopReed:
  01f7f	81 bd 0c fd ff
	ff 98 3a 00 00	 cmp	 DWORD PTR _n$224677[ebp], 15000 ; 00003a98H
  01f89	7d 78		 jge	 SHORT $LN33@QtopReed

; 811  : 		{
; 812  : 			if (gObj[n].Connected >= PLAYER_PLAYING)

  01f8b	8b 85 0c fd ff
	ff		 mov	 eax, DWORD PTR _n$224677[ebp]
  01f91	69 c0 38 2b 00
	00		 imul	 eax, 11064		; 00002b38H
  01f97	8b 0d 00 00 00
	00		 mov	 ecx, DWORD PTR ?gObj@@3PAUOBJECTSTRUCT@@A ; gObj
  01f9d	83 7c 01 04 03	 cmp	 DWORD PTR [ecx+eax+4], 3
  01fa2	7c 5a		 jl	 SHORT $LN30@QtopReed

; 813  : 			{
; 814  : 				if (gObj[n].AccountID[0] == mGetAccaunt[0])

  01fa4	8b 85 0c fd ff
	ff		 mov	 eax, DWORD PTR _n$224677[ebp]
  01faa	69 c0 38 2b 00
	00		 imul	 eax, 11064		; 00002b38H
  01fb0	8b 0d 00 00 00
	00		 mov	 ecx, DWORD PTR ?gObj@@3PAUOBJECTSTRUCT@@A ; gObj
  01fb6	0f be 54 01 6c	 movsx	 edx, BYTE PTR [ecx+eax+108]
  01fbb	0f be 85 94 fd
	ff ff		 movsx	 eax, BYTE PTR _mGetAccaunt$224665[ebp]
  01fc2	3b d0		 cmp	 edx, eax
  01fc4	75 38		 jne	 SHORT $LN30@QtopReed

; 815  : 				{
; 816  : 					if (!strcmp(gObj[n].AccountID, mGetAccaunt))

  01fc6	8d 85 94 fd ff
	ff		 lea	 eax, DWORD PTR _mGetAccaunt$224665[ebp]
  01fcc	50		 push	 eax
  01fcd	8b 8d 0c fd ff
	ff		 mov	 ecx, DWORD PTR _n$224677[ebp]
  01fd3	69 c9 38 2b 00
	00		 imul	 ecx, 11064		; 00002b38H
  01fd9	8b 15 00 00 00
	00		 mov	 edx, DWORD PTR ?gObj@@3PAUOBJECTSTRUCT@@A ; gObj
  01fdf	8d 44 0a 6c	 lea	 eax, DWORD PTR [edx+ecx+108]
  01fe3	50		 push	 eax
  01fe4	e8 00 00 00 00	 call	 _strcmp
  01fe9	83 c4 08	 add	 esp, 8
  01fec	85 c0		 test	 eax, eax
  01fee	75 0e		 jne	 SHORT $LN30@QtopReed

; 817  : 					{
; 818  : 						aIndex = n;

  01ff0	8b 85 0c fd ff
	ff		 mov	 eax, DWORD PTR _n$224677[ebp]
  01ff6	89 85 10 fd ff
	ff		 mov	 DWORD PTR _aIndex$224676[ebp], eax

; 819  : 						break;

  01ffc	eb 05		 jmp	 SHORT $LN33@QtopReed
$LN30@QtopReed:

; 820  : 					}
; 821  : 				}
; 822  : 			}
; 823  : 		}

  01ffe	e9 6d ff ff ff	 jmp	 $LN34@QtopReed
$LN33@QtopReed:

; 824  : 
; 825  : 		if (aIndex == -1) continue;

  02003	83 bd 10 fd ff
	ff ff		 cmp	 DWORD PTR _aIndex$224676[ebp], -1
  0200a	75 05		 jne	 SHORT $LN29@QtopReed
  0200c	e9 c5 fc ff ff	 jmp	 $LN53@QtopReed
$LN29@QtopReed:

; 826  : 
; 827  : 		CTime ct = StrToCTime(DataTime);

  02011	8d 85 2c fd ff
	ff		 lea	 eax, DWORD PTR _DataTime$224667[ebp]
  02017	50		 push	 eax
  02018	8d 8d 04 fd ff
	ff		 lea	 ecx, DWORD PTR _ct$224685[ebp]
  0201e	51		 push	 ecx
  0201f	e8 00 00 00 00	 call	 ?StrToCTime@@YA?AVCTime@ATL@@PBD@Z ; StrToCTime
  02024	83 c4 08	 add	 esp, 8

; 828  : 		DWORD tData = ct.GetTime();

  02027	8d 8d 04 fd ff
	ff		 lea	 ecx, DWORD PTR _ct$224685[ebp]
  0202d	e8 00 00 00 00	 call	 ?GetTime@CTime@ATL@@QBE_JXZ ; ATL::CTime::GetTime
  02032	89 85 00 fd ff
	ff		 mov	 DWORD PTR _tData$224687[ebp], eax

; 829  : 
; 830  : 		LPOBJ lpObj = &gObj[aIndex];

  02038	8b 85 10 fd ff
	ff		 mov	 eax, DWORD PTR _aIndex$224676[ebp]
  0203e	69 c0 38 2b 00
	00		 imul	 eax, 11064		; 00002b38H
  02044	03 05 00 00 00
	00		 add	 eax, DWORD PTR ?gObj@@3PAUOBJECTSTRUCT@@A ; gObj
  0204a	89 85 fc fc ff
	ff		 mov	 DWORD PTR _lpObj$224688[ebp], eax

; 831  : 
; 832  : 		if (tData > lpObj->QTDate)

  02050	8b 85 fc fc ff
	ff		 mov	 eax, DWORD PTR _lpObj$224688[ebp]
  02056	8b 8d 00 fd ff
	ff		 mov	 ecx, DWORD PTR _tData$224687[ebp]
  0205c	3b 88 14 28 00
	00		 cmp	 ecx, DWORD PTR [eax+10260]
  02062	0f 86 f9 08 00
	00		 jbe	 $LN28@QtopReed

; 833  : 		{
; 834  : 			if (mRewerd == 2)

  02068	83 bd 90 fd ff
	ff 02		 cmp	 DWORD PTR _mRewerd$224666[ebp], 2
  0206f	0f 85 48 04 00
	00		 jne	 $LN27@QtopReed

; 835  : 			{
; 836  : 				//~~~~~~~~~~~~~~~~~~~~~~~~~~~~~~~~~~~~~~~~~~~~~~~~~
; 837  : 				if (this->QTOP_SMSBonusItemActive)

  02075	8b 45 f8	 mov	 eax, DWORD PTR _this$[ebp]
  02078	83 b8 40 02 00
	00 00		 cmp	 DWORD PTR [eax+576], 0
  0207f	0f 84 0d 01 00
	00		 je	 $LN26@QtopReed

; 838  : 				{
; 839  : 					int Height = ItemAttribute[ITEMGET(this->QTOP_SMSBonusItemType, this->QTOP_SMSBonusItemIndex)].Height;

  02085	8b 45 f8	 mov	 eax, DWORD PTR _this$[ebp]
  02088	8b 88 44 02 00
	00		 mov	 ecx, DWORD PTR [eax+580]
  0208e	c1 e1 09	 shl	 ecx, 9
  02091	8b 55 f8	 mov	 edx, DWORD PTR _this$[ebp]
  02094	03 8a 48 02 00
	00		 add	 ecx, DWORD PTR [edx+584]
  0209a	6b c9 70	 imul	 ecx, 112		; 00000070H
  0209d	0f b6 81 24 00
	00 00		 movzx	 eax, BYTE PTR ?ItemAttribute@@3PAUITEM_ATTRIBUTE@@A[ecx+36]
  020a4	89 85 f8 fc ff
	ff		 mov	 DWORD PTR _Height$224692[ebp], eax

; 840  : 					int Width = ItemAttribute[ITEMGET(this->QTOP_SMSBonusItemType, this->QTOP_SMSBonusItemIndex)].Width;

  020aa	8b 45 f8	 mov	 eax, DWORD PTR _this$[ebp]
  020ad	8b 88 44 02 00
	00		 mov	 ecx, DWORD PTR [eax+580]
  020b3	c1 e1 09	 shl	 ecx, 9
  020b6	8b 55 f8	 mov	 edx, DWORD PTR _this$[ebp]
  020b9	03 8a 48 02 00
	00		 add	 ecx, DWORD PTR [edx+584]
  020bf	6b c9 70	 imul	 ecx, 112		; 00000070H
  020c2	0f b6 81 23 00
	00 00		 movzx	 eax, BYTE PTR ?ItemAttribute@@3PAUITEM_ATTRIBUTE@@A[ecx+35]
  020c9	89 85 f4 fc ff
	ff		 mov	 DWORD PTR _Width$224693[ebp], eax

; 841  : 
; 842  : 					if (!CheckInventoryEmptySpace(lpObj, Height, Width))

  020cf	8b 85 f4 fc ff
	ff		 mov	 eax, DWORD PTR _Width$224693[ebp]
  020d5	50		 push	 eax
  020d6	8b 8d f8 fc ff
	ff		 mov	 ecx, DWORD PTR _Height$224692[ebp]
  020dc	51		 push	 ecx
  020dd	8b 95 fc fc ff
	ff		 mov	 edx, DWORD PTR _lpObj$224688[ebp]
  020e3	52		 push	 edx
  020e4	e8 00 00 00 00	 call	 ?CheckInventoryEmptySpace@@YAHPAUOBJECTSTRUCT@@HH@Z ; CheckInventoryEmptySpace
  020e9	83 c4 0c	 add	 esp, 12			; 0000000cH
  020ec	85 c0		 test	 eax, eax
  020ee	75 23		 jne	 SHORT $LN25@QtopReed

; 843  : 					{
; 844  : 						MessageChat(aIndex, "@[SMS QTOP] Need to make space in the inventory (%dx%d)", this->QTOP_SMSBonusWcoinC);

  020f0	8b 45 f8	 mov	 eax, DWORD PTR _this$[ebp]
  020f3	8b 88 30 02 00
	00		 mov	 ecx, DWORD PTR [eax+560]
  020f9	51		 push	 ecx
  020fa	68 00 00 00 00	 push	 OFFSET ??_C@_0DI@EACAPLAC@?$EA?$FLSMS?5QTOP?$FN?5Need?5to?5make?5space?5i@
  020ff	8b 95 10 fd ff
	ff		 mov	 edx, DWORD PTR _aIndex$224676[ebp]
  02105	52		 push	 edx
  02106	e8 00 00 00 00	 call	 ?MessageChat@@YAXHPADZZ	; MessageChat
  0210b	83 c4 0c	 add	 esp, 12			; 0000000cH

; 845  : 						continue;

  0210e	e9 c3 fb ff ff	 jmp	 $LN53@QtopReed
$LN25@QtopReed:

; 846  : 					}
; 847  : 
; 848  : 					ItemSerialCreateSend(aIndex, 235, 0, 0, ITEMGET(this->QTOP_SMSBonusItemType, this->QTOP_SMSBonusItemIndex), this->QTOP_SMSBonusItemLevel, 0, 0, 0, 0, aIndex, 0, 0);

  02113	6a 00		 push	 0
  02115	6a 00		 push	 0
  02117	8b 85 10 fd ff
	ff		 mov	 eax, DWORD PTR _aIndex$224676[ebp]
  0211d	50		 push	 eax
  0211e	6a 00		 push	 0
  02120	6a 00		 push	 0
  02122	6a 00		 push	 0
  02124	6a 00		 push	 0
  02126	8b 4d f8	 mov	 ecx, DWORD PTR _this$[ebp]
  02129	0f b6 91 4c 02
	00 00		 movzx	 edx, BYTE PTR [ecx+588]
  02130	52		 push	 edx
  02131	8b 45 f8	 mov	 eax, DWORD PTR _this$[ebp]
  02134	8b 88 44 02 00
	00		 mov	 ecx, DWORD PTR [eax+580]
  0213a	c1 e1 09	 shl	 ecx, 9
  0213d	8b 55 f8	 mov	 edx, DWORD PTR _this$[ebp]
  02140	03 8a 48 02 00
	00		 add	 ecx, DWORD PTR [edx+584]
  02146	51		 push	 ecx
  02147	6a 00		 push	 0
  02149	6a 00		 push	 0
  0214b	68 eb 00 00 00	 push	 235			; 000000ebH
  02150	8b 85 10 fd ff
	ff		 mov	 eax, DWORD PTR _aIndex$224676[ebp]
  02156	50		 push	 eax
  02157	e8 00 00 00 00	 call	 ?ItemSerialCreateSend@@YAXHEEEHEEEEEHEE@Z ; ItemSerialCreateSend
  0215c	83 c4 34	 add	 esp, 52			; 00000034H

; 849  : 					MessageChat(aIndex, "@[SMS QTOP] Item Bonus: %s", ItemAttribute[ITEMGET(this->QTOP_SMSBonusItemType, this->QTOP_SMSBonusItemIndex)].Name);

  0215f	8b 45 f8	 mov	 eax, DWORD PTR _this$[ebp]
  02162	8b 88 44 02 00
	00		 mov	 ecx, DWORD PTR [eax+580]
  02168	c1 e1 09	 shl	 ecx, 9
  0216b	8b 55 f8	 mov	 edx, DWORD PTR _this$[ebp]
  0216e	03 8a 48 02 00
	00		 add	 ecx, DWORD PTR [edx+584]
  02174	6b c9 70	 imul	 ecx, 112		; 00000070H
  02177	81 c1 00 00 00
	00		 add	 ecx, OFFSET ?ItemAttribute@@3PAUITEM_ATTRIBUTE@@A ; ItemAttribute
  0217d	51		 push	 ecx
  0217e	68 00 00 00 00	 push	 OFFSET ??_C@_0BL@CCMGGGHH@?$EA?$FLSMS?5QTOP?$FN?5Item?5Bonus?3?5?$CFs?$AA@
  02183	8b 85 10 fd ff
	ff		 mov	 eax, DWORD PTR _aIndex$224676[ebp]
  02189	50		 push	 eax
  0218a	e8 00 00 00 00	 call	 ?MessageChat@@YAXHPADZZ	; MessageChat
  0218f	83 c4 0c	 add	 esp, 12			; 0000000cH
$LN26@QtopReed:

; 850  : 				}
; 851  : 
; 852  : 				if (this->QTOP_SMSBonusWcoinC > 0)

  02192	8b 45 f8	 mov	 eax, DWORD PTR _this$[ebp]
  02195	83 b8 30 02 00
	00 00		 cmp	 DWORD PTR [eax+560], 0
  0219c	7e 50		 jle	 SHORT $LN24@QtopReed

; 853  : 				{
; 854  : 					lpObj->GameShop.WCoinC += this->QTOP_SMSBonusWcoinC;

  0219e	8b 45 f8	 mov	 eax, DWORD PTR _this$[ebp]
  021a1	db 80 30 02 00
	00		 fild	 DWORD PTR [eax+560]
  021a7	8b 8d fc fc ff
	ff		 mov	 ecx, DWORD PTR _lpObj$224688[ebp]
  021ad	dc 81 00 23 00
	00		 fadd	 QWORD PTR [ecx+8960]
  021b3	8b 95 fc fc ff
	ff		 mov	 edx, DWORD PTR _lpObj$224688[ebp]
  021b9	dd 9a 00 23 00
	00		 fstp	 QWORD PTR [edx+8960]

; 855  : 					gGameShop.GDSaveUserInfo(aIndex);

  021bf	8b 85 10 fd ff
	ff		 mov	 eax, DWORD PTR _aIndex$224676[ebp]
  021c5	50		 push	 eax
  021c6	b9 00 00 00 00	 mov	 ecx, OFFSET ?gGameShop@@3VGameShop@@A ; gGameShop
  021cb	e8 00 00 00 00	 call	 ?GDSaveUserInfo@GameShop@@QAEXH@Z ; GameShop::GDSaveUserInfo

; 856  : 					MessageChat(aIndex, "@[SMS QTOP] WcoinC Bonus: %d", this->QTOP_SMSBonusWcoinC);

  021d0	8b 45 f8	 mov	 eax, DWORD PTR _this$[ebp]
  021d3	8b 88 30 02 00
	00		 mov	 ecx, DWORD PTR [eax+560]
  021d9	51		 push	 ecx
  021da	68 00 00 00 00	 push	 OFFSET ??_C@_0BN@NJKOJKPP@?$EA?$FLSMS?5QTOP?$FN?5WcoinC?5Bonus?3?5?$CFd?$AA@
  021df	8b 95 10 fd ff
	ff		 mov	 edx, DWORD PTR _aIndex$224676[ebp]
  021e5	52		 push	 edx
  021e6	e8 00 00 00 00	 call	 ?MessageChat@@YAXHPADZZ	; MessageChat
  021eb	83 c4 0c	 add	 esp, 12			; 0000000cH
$LN24@QtopReed:

; 857  : 				}
; 858  : 
; 859  : 				if (this->QTOP_SMSBonusWcoinP > 0)

  021ee	8b 45 f8	 mov	 eax, DWORD PTR _this$[ebp]
  021f1	83 b8 34 02 00
	00 00		 cmp	 DWORD PTR [eax+564], 0
  021f8	7e 50		 jle	 SHORT $LN23@QtopReed

; 860  : 				{
; 861  : 					lpObj->GameShop.WCoinP += this->QTOP_SMSBonusWcoinP;

  021fa	8b 45 f8	 mov	 eax, DWORD PTR _this$[ebp]
  021fd	db 80 34 02 00
	00		 fild	 DWORD PTR [eax+564]
  02203	8b 8d fc fc ff
	ff		 mov	 ecx, DWORD PTR _lpObj$224688[ebp]
  02209	dc 81 f8 22 00
	00		 fadd	 QWORD PTR [ecx+8952]
  0220f	8b 95 fc fc ff
	ff		 mov	 edx, DWORD PTR _lpObj$224688[ebp]
  02215	dd 9a f8 22 00
	00		 fstp	 QWORD PTR [edx+8952]

; 862  : 					gGameShop.GDSaveUserInfo(aIndex);

  0221b	8b 85 10 fd ff
	ff		 mov	 eax, DWORD PTR _aIndex$224676[ebp]
  02221	50		 push	 eax
  02222	b9 00 00 00 00	 mov	 ecx, OFFSET ?gGameShop@@3VGameShop@@A ; gGameShop
  02227	e8 00 00 00 00	 call	 ?GDSaveUserInfo@GameShop@@QAEXH@Z ; GameShop::GDSaveUserInfo

; 863  : 					MessageChat(aIndex, "@[SMS QTOP] WCoinP Bonus: %d", this->QTOP_SMSBonusWcoinP);

  0222c	8b 45 f8	 mov	 eax, DWORD PTR _this$[ebp]
  0222f	8b 88 34 02 00
	00		 mov	 ecx, DWORD PTR [eax+564]
  02235	51		 push	 ecx
  02236	68 00 00 00 00	 push	 OFFSET ??_C@_0BN@LFBHNOIO@?$EA?$FLSMS?5QTOP?$FN?5WCoinP?5Bonus?3?5?$CFd?$AA@
  0223b	8b 95 10 fd ff
	ff		 mov	 edx, DWORD PTR _aIndex$224676[ebp]
  02241	52		 push	 edx
  02242	e8 00 00 00 00	 call	 ?MessageChat@@YAXHPADZZ	; MessageChat
  02247	83 c4 0c	 add	 esp, 12			; 0000000cH
$LN23@QtopReed:

; 864  : 				}
; 865  : 
; 866  : 				if (this->QTOP_SMSBonusWcoinG > 0)

  0224a	8b 45 f8	 mov	 eax, DWORD PTR _this$[ebp]
  0224d	83 b8 38 02 00
	00 00		 cmp	 DWORD PTR [eax+568], 0
  02254	7e 50		 jle	 SHORT $LN22@QtopReed

; 867  : 				{
; 868  : 					lpObj->GameShop.GoblinPoint += this->QTOP_SMSBonusWcoinG;

  02256	8b 45 f8	 mov	 eax, DWORD PTR _this$[ebp]
  02259	db 80 38 02 00
	00		 fild	 DWORD PTR [eax+568]
  0225f	8b 8d fc fc ff
	ff		 mov	 ecx, DWORD PTR _lpObj$224688[ebp]
  02265	dc 81 08 23 00
	00		 fadd	 QWORD PTR [ecx+8968]
  0226b	8b 95 fc fc ff
	ff		 mov	 edx, DWORD PTR _lpObj$224688[ebp]
  02271	dd 9a 08 23 00
	00		 fstp	 QWORD PTR [edx+8968]

; 869  : 					gGameShop.GDSaveUserInfo(aIndex);

  02277	8b 85 10 fd ff
	ff		 mov	 eax, DWORD PTR _aIndex$224676[ebp]
  0227d	50		 push	 eax
  0227e	b9 00 00 00 00	 mov	 ecx, OFFSET ?gGameShop@@3VGameShop@@A ; gGameShop
  02283	e8 00 00 00 00	 call	 ?GDSaveUserInfo@GameShop@@QAEXH@Z ; GameShop::GDSaveUserInfo

; 870  : 					MessageChat(aIndex, "@[SMS QTOP] Goblin Bonus: %d", this->QTOP_SMSBonusWcoinG);

  02288	8b 45 f8	 mov	 eax, DWORD PTR _this$[ebp]
  0228b	8b 88 38 02 00
	00		 mov	 ecx, DWORD PTR [eax+568]
  02291	51		 push	 ecx
  02292	68 00 00 00 00	 push	 OFFSET ??_C@_0BN@OKJNBAGF@?$EA?$FLSMS?5QTOP?$FN?5Goblin?5Bonus?3?5?$CFd?$AA@
  02297	8b 95 10 fd ff
	ff		 mov	 edx, DWORD PTR _aIndex$224676[ebp]
  0229d	52		 push	 edx
  0229e	e8 00 00 00 00	 call	 ?MessageChat@@YAXHPADZZ	; MessageChat
  022a3	83 c4 0c	 add	 esp, 12			; 0000000cH
$LN22@QtopReed:

; 871  : 				}
; 872  : 
; 873  : 				if (this->QTOP_SMSBonusExCred > 0)

  022a6	8b 45 f8	 mov	 eax, DWORD PTR _this$[ebp]
  022a9	83 b8 3c 02 00
	00 00		 cmp	 DWORD PTR [eax+572], 0
  022b0	7e 3f		 jle	 SHORT $LN21@QtopReed

; 874  : 				{
; 875  : 					lpObj->ExCred += this->QTOP_SMSBonusExCred;

  022b2	8b 45 f8	 mov	 eax, DWORD PTR _this$[ebp]
  022b5	db 80 3c 02 00
	00		 fild	 DWORD PTR [eax+572]
  022bb	8b 8d fc fc ff
	ff		 mov	 ecx, DWORD PTR _lpObj$224688[ebp]
  022c1	d8 81 a8 22 00
	00		 fadd	 DWORD PTR [ecx+8872]
  022c7	8b 95 fc fc ff
	ff		 mov	 edx, DWORD PTR _lpObj$224688[ebp]
  022cd	d9 9a a8 22 00
	00		 fstp	 DWORD PTR [edx+8872]

; 876  : 					MessageChat(aIndex, "@[SMS QTOP] ExCred Bonus: %d", this->QTOP_SMSBonusExCred);

  022d3	8b 45 f8	 mov	 eax, DWORD PTR _this$[ebp]
  022d6	8b 88 3c 02 00
	00		 mov	 ecx, DWORD PTR [eax+572]
  022dc	51		 push	 ecx
  022dd	68 00 00 00 00	 push	 OFFSET ??_C@_0BN@MJOFJLEJ@?$EA?$FLSMS?5QTOP?$FN?5ExCred?5Bonus?3?5?$CFd?$AA@
  022e2	8b 95 10 fd ff
	ff		 mov	 edx, DWORD PTR _aIndex$224676[ebp]
  022e8	52		 push	 edx
  022e9	e8 00 00 00 00	 call	 ?MessageChat@@YAXHPADZZ	; MessageChat
  022ee	83 c4 0c	 add	 esp, 12			; 0000000cH
$LN21@QtopReed:

; 877  : 				}
; 878  : 
; 879  : 				if (this->QTOP_SMSBonusChaosBank > 0)

  022f1	8b 45 f8	 mov	 eax, DWORD PTR _this$[ebp]
  022f4	83 b8 50 02 00
	00 00		 cmp	 DWORD PTR [eax+592], 0
  022fb	7e 3f		 jle	 SHORT $LN20@QtopReed

; 880  : 				{
; 881  : 					lpObj->ChaosBank += this->QTOP_SMSBonusChaosBank;

  022fd	8b 85 fc fc ff
	ff		 mov	 eax, DWORD PTR _lpObj$224688[ebp]
  02303	8b 88 e0 27 00
	00		 mov	 ecx, DWORD PTR [eax+10208]
  02309	8b 55 f8	 mov	 edx, DWORD PTR _this$[ebp]
  0230c	03 8a 50 02 00
	00		 add	 ecx, DWORD PTR [edx+592]
  02312	8b 85 fc fc ff
	ff		 mov	 eax, DWORD PTR _lpObj$224688[ebp]
  02318	89 88 e0 27 00
	00		 mov	 DWORD PTR [eax+10208], ecx

; 882  : 					MessageChat(aIndex, "@[SMS QTOP] Chaos Bank Bonus: %d", this->QTOP_SMSBonusChaosBank);

  0231e	8b 45 f8	 mov	 eax, DWORD PTR _this$[ebp]
  02321	8b 88 50 02 00
	00		 mov	 ecx, DWORD PTR [eax+592]
  02327	51		 push	 ecx
  02328	68 00 00 00 00	 push	 OFFSET ??_C@_0CB@NIDCFBKB@?$EA?$FLSMS?5QTOP?$FN?5Chaos?5Bank?5Bonus?3?5?$CFd@
  0232d	8b 95 10 fd ff
	ff		 mov	 edx, DWORD PTR _aIndex$224676[ebp]
  02333	52		 push	 edx
  02334	e8 00 00 00 00	 call	 ?MessageChat@@YAXHPADZZ	; MessageChat
  02339	83 c4 0c	 add	 esp, 12			; 0000000cH
$LN20@QtopReed:

; 883  : 				}
; 884  : 
; 885  : 				if (this->QTOP_SMSBonusBlessBank > 0)

  0233c	8b 45 f8	 mov	 eax, DWORD PTR _this$[ebp]
  0233f	83 b8 54 02 00
	00 00		 cmp	 DWORD PTR [eax+596], 0
  02346	7e 3f		 jle	 SHORT $LN19@QtopReed

; 886  : 				{
; 887  : 					lpObj->BlessBank += this->QTOP_SMSBonusBlessBank;

  02348	8b 85 fc fc ff
	ff		 mov	 eax, DWORD PTR _lpObj$224688[ebp]
  0234e	8b 88 e4 27 00
	00		 mov	 ecx, DWORD PTR [eax+10212]
  02354	8b 55 f8	 mov	 edx, DWORD PTR _this$[ebp]
  02357	03 8a 54 02 00
	00		 add	 ecx, DWORD PTR [edx+596]
  0235d	8b 85 fc fc ff
	ff		 mov	 eax, DWORD PTR _lpObj$224688[ebp]
  02363	89 88 e4 27 00
	00		 mov	 DWORD PTR [eax+10212], ecx

; 888  : 					MessageChat(aIndex, "@[SMS QTOP] Bless Bank Bonus: %d", this->QTOP_SMSBonusBlessBank);

  02369	8b 45 f8	 mov	 eax, DWORD PTR _this$[ebp]
  0236c	8b 88 54 02 00
	00		 mov	 ecx, DWORD PTR [eax+596]
  02372	51		 push	 ecx
  02373	68 00 00 00 00	 push	 OFFSET ??_C@_0CB@NCDHBBJG@?$EA?$FLSMS?5QTOP?$FN?5Bless?5Bank?5Bonus?3?5?$CFd@
  02378	8b 95 10 fd ff
	ff		 mov	 edx, DWORD PTR _aIndex$224676[ebp]
  0237e	52		 push	 edx
  0237f	e8 00 00 00 00	 call	 ?MessageChat@@YAXHPADZZ	; MessageChat
  02384	83 c4 0c	 add	 esp, 12			; 0000000cH
$LN19@QtopReed:

; 889  : 				}
; 890  : 
; 891  : 				if (this->QTOP_SMSBonusSoulBank > 0)

  02387	8b 45 f8	 mov	 eax, DWORD PTR _this$[ebp]
  0238a	83 b8 58 02 00
	00 00		 cmp	 DWORD PTR [eax+600], 0
  02391	7e 3f		 jle	 SHORT $LN18@QtopReed

; 892  : 				{
; 893  : 					lpObj->SoulBank += this->QTOP_SMSBonusSoulBank;

  02393	8b 85 fc fc ff
	ff		 mov	 eax, DWORD PTR _lpObj$224688[ebp]
  02399	8b 88 e8 27 00
	00		 mov	 ecx, DWORD PTR [eax+10216]
  0239f	8b 55 f8	 mov	 edx, DWORD PTR _this$[ebp]
  023a2	03 8a 58 02 00
	00		 add	 ecx, DWORD PTR [edx+600]
  023a8	8b 85 fc fc ff
	ff		 mov	 eax, DWORD PTR _lpObj$224688[ebp]
  023ae	89 88 e8 27 00
	00		 mov	 DWORD PTR [eax+10216], ecx

; 894  : 					MessageChat(aIndex, "@[SMS QTOP] Soul Bank Bonus: %d", this->QTOP_SMSBonusSoulBank);

  023b4	8b 45 f8	 mov	 eax, DWORD PTR _this$[ebp]
  023b7	8b 88 58 02 00
	00		 mov	 ecx, DWORD PTR [eax+600]
  023bd	51		 push	 ecx
  023be	68 00 00 00 00	 push	 OFFSET ??_C@_0CA@FDCGMBG@?$EA?$FLSMS?5QTOP?$FN?5Soul?5Bank?5Bonus?3?5?$CFd?$AA@
  023c3	8b 95 10 fd ff
	ff		 mov	 edx, DWORD PTR _aIndex$224676[ebp]
  023c9	52		 push	 edx
  023ca	e8 00 00 00 00	 call	 ?MessageChat@@YAXHPADZZ	; MessageChat
  023cf	83 c4 0c	 add	 esp, 12			; 0000000cH
$LN18@QtopReed:

; 895  : 				}
; 896  : 
; 897  : 				if (this->QTOP_SMSBonusLifeBank > 0)

  023d2	8b 45 f8	 mov	 eax, DWORD PTR _this$[ebp]
  023d5	83 b8 5c 02 00
	00 00		 cmp	 DWORD PTR [eax+604], 0
  023dc	7e 3f		 jle	 SHORT $LN17@QtopReed

; 898  : 				{
; 899  : 					lpObj->LifeBank += this->QTOP_SMSBonusLifeBank;

  023de	8b 85 fc fc ff
	ff		 mov	 eax, DWORD PTR _lpObj$224688[ebp]
  023e4	8b 88 ec 27 00
	00		 mov	 ecx, DWORD PTR [eax+10220]
  023ea	8b 55 f8	 mov	 edx, DWORD PTR _this$[ebp]
  023ed	03 8a 5c 02 00
	00		 add	 ecx, DWORD PTR [edx+604]
  023f3	8b 85 fc fc ff
	ff		 mov	 eax, DWORD PTR _lpObj$224688[ebp]
  023f9	89 88 ec 27 00
	00		 mov	 DWORD PTR [eax+10220], ecx

; 900  : 					MessageChat(aIndex, "@[SMS QTOP] Life Bank Bonus: %d", this->QTOP_SMSBonusLifeBank);

  023ff	8b 45 f8	 mov	 eax, DWORD PTR _this$[ebp]
  02402	8b 88 5c 02 00
	00		 mov	 ecx, DWORD PTR [eax+604]
  02408	51		 push	 ecx
  02409	68 00 00 00 00	 push	 OFFSET ??_C@_0CA@KBCELJKG@?$EA?$FLSMS?5QTOP?$FN?5Life?5Bank?5Bonus?3?5?$CFd?$AA@
  0240e	8b 95 10 fd ff
	ff		 mov	 edx, DWORD PTR _aIndex$224676[ebp]
  02414	52		 push	 edx
  02415	e8 00 00 00 00	 call	 ?MessageChat@@YAXHPADZZ	; MessageChat
  0241a	83 c4 0c	 add	 esp, 12			; 0000000cH
$LN17@QtopReed:

; 901  : 				}
; 902  : 
; 903  : 				// --> Buff Effect Custom
; 904  : 				if(g_ExLicense.CheckUser(eExUB::Gredy) || g_ExLicense.CheckUser(eExUB::GredyLocal) || g_ExLicense.CheckUser(eExUB::Gredy2))

  0241d	6a 20		 push	 32			; 00000020H
  0241f	b9 00 00 00 00	 mov	 ecx, OFFSET ?g_ExLicense@@3VCExLicense@@A ; g_ExLicense
  02424	e8 00 00 00 00	 call	 ?CheckUser@CExLicense@@QAE_NH@Z ; CExLicense::CheckUser
  02429	0f b6 c0	 movzx	 eax, al
  0242c	85 c0		 test	 eax, eax
  0242e	75 26		 jne	 SHORT $LN15@QtopReed
  02430	6a 21		 push	 33			; 00000021H
  02432	b9 00 00 00 00	 mov	 ecx, OFFSET ?g_ExLicense@@3VCExLicense@@A ; g_ExLicense
  02437	e8 00 00 00 00	 call	 ?CheckUser@CExLicense@@QAE_NH@Z ; CExLicense::CheckUser
  0243c	0f b6 c0	 movzx	 eax, al
  0243f	85 c0		 test	 eax, eax
  02441	75 13		 jne	 SHORT $LN15@QtopReed
  02443	6a 22		 push	 34			; 00000022H
  02445	b9 00 00 00 00	 mov	 ecx, OFFSET ?g_ExLicense@@3VCExLicense@@A ; g_ExLicense
  0244a	e8 00 00 00 00	 call	 ?CheckUser@CExLicense@@QAE_NH@Z ; CExLicense::CheckUser
  0244f	0f b6 c0	 movzx	 eax, al
  02452	85 c0		 test	 eax, eax
  02454	74 47		 je	 SHORT $LN16@QtopReed
$LN15@QtopReed:

; 905  : 				{
; 906  : 					lpObj->QT_BuffTime += this->QTOP_BuffTime;

  02456	8b 85 fc fc ff
	ff		 mov	 eax, DWORD PTR _lpObj$224688[ebp]
  0245c	8b 88 e0 2a 00
	00		 mov	 ecx, DWORD PTR [eax+10976]
  02462	8b 55 f8	 mov	 edx, DWORD PTR _this$[ebp]
  02465	03 8a 68 02 00
	00		 add	 ecx, DWORD PTR [edx+616]
  0246b	8b 85 fc fc ff
	ff		 mov	 eax, DWORD PTR _lpObj$224688[ebp]
  02471	89 88 e0 2a 00
	00		 mov	 DWORD PTR [eax+10976], ecx

; 907  : 					gObjApplyBuffEffectDuration(lpObj, AT_QTOP_BUFF, 0, 0, 0, 0, this->QTOP_BuffTime);

  02477	8b 45 f8	 mov	 eax, DWORD PTR _this$[ebp]
  0247a	8b 88 68 02 00
	00		 mov	 ecx, DWORD PTR [eax+616]
  02480	51		 push	 ecx
  02481	6a 00		 push	 0
  02483	6a 00		 push	 0
  02485	6a 00		 push	 0
  02487	6a 00		 push	 0
  02489	68 c3 00 00 00	 push	 195			; 000000c3H
  0248e	8b 95 fc fc ff
	ff		 mov	 edx, DWORD PTR _lpObj$224688[ebp]
  02494	52		 push	 edx
  02495	e8 00 00 00 00	 call	 ?gObjApplyBuffEffectDuration@@YAEPAUOBJECTSTRUCT@@HEHEHH@Z ; gObjApplyBuffEffectDuration
  0249a	83 c4 1c	 add	 esp, 28			; 0000001cH
$LN16@QtopReed:

; 908  : 				}
; 909  : 
; 910  : 				MessageChat(aIndex, "@[SMS QTOP] Date: %s", DataTime);

  0249d	8d 85 2c fd ff
	ff		 lea	 eax, DWORD PTR _DataTime$224667[ebp]
  024a3	50		 push	 eax
  024a4	68 00 00 00 00	 push	 OFFSET ??_C@_0BF@OKPMBKFL@?$EA?$FLSMS?5QTOP?$FN?5Date?3?5?$CFs?$AA@
  024a9	8b 8d 10 fd ff
	ff		 mov	 ecx, DWORD PTR _aIndex$224676[ebp]
  024af	51		 push	 ecx
  024b0	e8 00 00 00 00	 call	 ?MessageChat@@YAXHPADZZ	; MessageChat
  024b5	83 c4 0c	 add	 esp, 12			; 0000000cH

; 911  : 			}
; 912  : 			else

  024b8	e9 4a 04 00 00	 jmp	 $LN14@QtopReed
$LN27@QtopReed:

; 913  : 			{
; 914  : 				//~~~~~~~~~~~~~~~~~~~~~~~~~~~~~~~~~~~~~~~~~~~~~~~~~
; 915  : 
; 916  : 				if (this->QTOP_BonusItemActive)

  024bd	8b 45 f8	 mov	 eax, DWORD PTR _this$[ebp]
  024c0	83 b8 10 02 00
	00 00		 cmp	 DWORD PTR [eax+528], 0
  024c7	0f 84 11 01 00
	00		 je	 $LN13@QtopReed

; 917  : 				{
; 918  : 					int Height = ItemAttribute[ITEMGET(this->QTOP_BonusItemType, this->QTOP_BonusItemIndex)].Height;

  024cd	8b 45 f8	 mov	 eax, DWORD PTR _this$[ebp]
  024d0	8b 88 14 02 00
	00		 mov	 ecx, DWORD PTR [eax+532]
  024d6	c1 e1 09	 shl	 ecx, 9
  024d9	8b 55 f8	 mov	 edx, DWORD PTR _this$[ebp]
  024dc	03 8a 18 02 00
	00		 add	 ecx, DWORD PTR [edx+536]
  024e2	6b c9 70	 imul	 ecx, 112		; 00000070H
  024e5	0f b6 81 24 00
	00 00		 movzx	 eax, BYTE PTR ?ItemAttribute@@3PAUITEM_ATTRIBUTE@@A[ecx+36]
  024ec	89 85 f0 fc ff
	ff		 mov	 DWORD PTR _Height$224718[ebp], eax

; 919  : 					int Width = ItemAttribute[ITEMGET(this->QTOP_BonusItemType, this->QTOP_BonusItemIndex)].Width;

  024f2	8b 45 f8	 mov	 eax, DWORD PTR _this$[ebp]
  024f5	8b 88 14 02 00
	00		 mov	 ecx, DWORD PTR [eax+532]
  024fb	c1 e1 09	 shl	 ecx, 9
  024fe	8b 55 f8	 mov	 edx, DWORD PTR _this$[ebp]
  02501	03 8a 18 02 00
	00		 add	 ecx, DWORD PTR [edx+536]
  02507	6b c9 70	 imul	 ecx, 112		; 00000070H
  0250a	0f b6 81 23 00
	00 00		 movzx	 eax, BYTE PTR ?ItemAttribute@@3PAUITEM_ATTRIBUTE@@A[ecx+35]
  02511	89 85 ec fc ff
	ff		 mov	 DWORD PTR _Width$224719[ebp], eax

; 920  : 
; 921  : 					if (!CheckInventoryEmptySpace(lpObj, Height, Width))

  02517	8b 85 ec fc ff
	ff		 mov	 eax, DWORD PTR _Width$224719[ebp]
  0251d	50		 push	 eax
  0251e	8b 8d f0 fc ff
	ff		 mov	 ecx, DWORD PTR _Height$224718[ebp]
  02524	51		 push	 ecx
  02525	8b 95 fc fc ff
	ff		 mov	 edx, DWORD PTR _lpObj$224688[ebp]
  0252b	52		 push	 edx
  0252c	e8 00 00 00 00	 call	 ?CheckInventoryEmptySpace@@YAHPAUOBJECTSTRUCT@@HH@Z ; CheckInventoryEmptySpace
  02531	83 c4 0c	 add	 esp, 12			; 0000000cH
  02534	85 c0		 test	 eax, eax
  02536	75 27		 jne	 SHORT $LN12@QtopReed

; 922  : 					{
; 923  : 						MessageChat(aIndex, "@[QTOP] Need to make space in the inventory (%dx%d)", Height, Width);

  02538	8b 85 ec fc ff
	ff		 mov	 eax, DWORD PTR _Width$224719[ebp]
  0253e	50		 push	 eax
  0253f	8b 8d f0 fc ff
	ff		 mov	 ecx, DWORD PTR _Height$224718[ebp]
  02545	51		 push	 ecx
  02546	68 00 00 00 00	 push	 OFFSET ??_C@_0DE@MCFMOACN@?$EA?$FLQTOP?$FN?5Need?5to?5make?5space?5in?5th@
  0254b	8b 95 10 fd ff
	ff		 mov	 edx, DWORD PTR _aIndex$224676[ebp]
  02551	52		 push	 edx
  02552	e8 00 00 00 00	 call	 ?MessageChat@@YAXHPADZZ	; MessageChat
  02557	83 c4 10	 add	 esp, 16			; 00000010H

; 924  : 						continue;

  0255a	e9 77 f7 ff ff	 jmp	 $LN53@QtopReed
$LN12@QtopReed:

; 925  : 					}
; 926  : 
; 927  : 					ItemSerialCreateSend(aIndex, 235, 0, 0, ITEMGET(this->QTOP_BonusItemType, this->QTOP_BonusItemIndex), this->QTOP_BonusItemLevel, 0, 0, 0, 0, aIndex, 0, 0);

  0255f	6a 00		 push	 0
  02561	6a 00		 push	 0
  02563	8b 85 10 fd ff
	ff		 mov	 eax, DWORD PTR _aIndex$224676[ebp]
  02569	50		 push	 eax
  0256a	6a 00		 push	 0
  0256c	6a 00		 push	 0
  0256e	6a 00		 push	 0
  02570	6a 00		 push	 0
  02572	8b 4d f8	 mov	 ecx, DWORD PTR _this$[ebp]
  02575	0f b6 91 1c 02
	00 00		 movzx	 edx, BYTE PTR [ecx+540]
  0257c	52		 push	 edx
  0257d	8b 45 f8	 mov	 eax, DWORD PTR _this$[ebp]
  02580	8b 88 14 02 00
	00		 mov	 ecx, DWORD PTR [eax+532]
  02586	c1 e1 09	 shl	 ecx, 9
  02589	8b 55 f8	 mov	 edx, DWORD PTR _this$[ebp]
  0258c	03 8a 18 02 00
	00		 add	 ecx, DWORD PTR [edx+536]
  02592	51		 push	 ecx
  02593	6a 00		 push	 0
  02595	6a 00		 push	 0
  02597	68 eb 00 00 00	 push	 235			; 000000ebH
  0259c	8b 85 10 fd ff
	ff		 mov	 eax, DWORD PTR _aIndex$224676[ebp]
  025a2	50		 push	 eax
  025a3	e8 00 00 00 00	 call	 ?ItemSerialCreateSend@@YAXHEEEHEEEEEHEE@Z ; ItemSerialCreateSend
  025a8	83 c4 34	 add	 esp, 52			; 00000034H

; 928  : 					MessageChat(aIndex, "@[QTOP] Item Bonus: %s", ItemAttribute[ITEMGET(this->QTOP_SMSBonusItemType, this->QTOP_SMSBonusItemIndex)].Name);

  025ab	8b 45 f8	 mov	 eax, DWORD PTR _this$[ebp]
  025ae	8b 88 44 02 00
	00		 mov	 ecx, DWORD PTR [eax+580]
  025b4	c1 e1 09	 shl	 ecx, 9
  025b7	8b 55 f8	 mov	 edx, DWORD PTR _this$[ebp]
  025ba	03 8a 48 02 00
	00		 add	 ecx, DWORD PTR [edx+584]
  025c0	6b c9 70	 imul	 ecx, 112		; 00000070H
  025c3	81 c1 00 00 00
	00		 add	 ecx, OFFSET ?ItemAttribute@@3PAUITEM_ATTRIBUTE@@A ; ItemAttribute
  025c9	51		 push	 ecx
  025ca	68 00 00 00 00	 push	 OFFSET ??_C@_0BH@PHOGLPEJ@?$EA?$FLQTOP?$FN?5Item?5Bonus?3?5?$CFs?$AA@
  025cf	8b 85 10 fd ff
	ff		 mov	 eax, DWORD PTR _aIndex$224676[ebp]
  025d5	50		 push	 eax
  025d6	e8 00 00 00 00	 call	 ?MessageChat@@YAXHPADZZ	; MessageChat
  025db	83 c4 0c	 add	 esp, 12			; 0000000cH
$LN13@QtopReed:

; 929  : 				}
; 930  : 
; 931  : 				if (this->QTOP_BonusWcoinC > 0)

  025de	8b 45 f8	 mov	 eax, DWORD PTR _this$[ebp]
  025e1	83 b8 00 02 00
	00 00		 cmp	 DWORD PTR [eax+512], 0
  025e8	7e 50		 jle	 SHORT $LN11@QtopReed

; 932  : 				{
; 933  : 					lpObj->GameShop.WCoinC += this->QTOP_BonusWcoinC;

  025ea	8b 45 f8	 mov	 eax, DWORD PTR _this$[ebp]
  025ed	db 80 00 02 00
	00		 fild	 DWORD PTR [eax+512]
  025f3	8b 8d fc fc ff
	ff		 mov	 ecx, DWORD PTR _lpObj$224688[ebp]
  025f9	dc 81 00 23 00
	00		 fadd	 QWORD PTR [ecx+8960]
  025ff	8b 95 fc fc ff
	ff		 mov	 edx, DWORD PTR _lpObj$224688[ebp]
  02605	dd 9a 00 23 00
	00		 fstp	 QWORD PTR [edx+8960]

; 934  : 					gGameShop.GDSaveUserInfo(aIndex);

  0260b	8b 85 10 fd ff
	ff		 mov	 eax, DWORD PTR _aIndex$224676[ebp]
  02611	50		 push	 eax
  02612	b9 00 00 00 00	 mov	 ecx, OFFSET ?gGameShop@@3VGameShop@@A ; gGameShop
  02617	e8 00 00 00 00	 call	 ?GDSaveUserInfo@GameShop@@QAEXH@Z ; GameShop::GDSaveUserInfo

; 935  : 					MessageChat(aIndex, "@[QTOP] WcoinC Bonus: %d", this->QTOP_BonusWcoinC);

  0261c	8b 45 f8	 mov	 eax, DWORD PTR _this$[ebp]
  0261f	8b 88 00 02 00
	00		 mov	 ecx, DWORD PTR [eax+512]
  02625	51		 push	 ecx
  02626	68 00 00 00 00	 push	 OFFSET ??_C@_0BJ@GHGEDONC@?$EA?$FLQTOP?$FN?5WcoinC?5Bonus?3?5?$CFd?$AA@
  0262b	8b 95 10 fd ff
	ff		 mov	 edx, DWORD PTR _aIndex$224676[ebp]
  02631	52		 push	 edx
  02632	e8 00 00 00 00	 call	 ?MessageChat@@YAXHPADZZ	; MessageChat
  02637	83 c4 0c	 add	 esp, 12			; 0000000cH
$LN11@QtopReed:

; 936  : 				}
; 937  : 
; 938  : 				if (this->QTOP_BonusWcoinP > 0)

  0263a	8b 45 f8	 mov	 eax, DWORD PTR _this$[ebp]
  0263d	83 b8 04 02 00
	00 00		 cmp	 DWORD PTR [eax+516], 0
  02644	7e 50		 jle	 SHORT $LN10@QtopReed

; 939  : 				{
; 940  : 					lpObj->GameShop.WCoinP += this->QTOP_BonusWcoinP;

  02646	8b 45 f8	 mov	 eax, DWORD PTR _this$[ebp]
  02649	db 80 04 02 00
	00		 fild	 DWORD PTR [eax+516]
  0264f	8b 8d fc fc ff
	ff		 mov	 ecx, DWORD PTR _lpObj$224688[ebp]
  02655	dc 81 f8 22 00
	00		 fadd	 QWORD PTR [ecx+8952]
  0265b	8b 95 fc fc ff
	ff		 mov	 edx, DWORD PTR _lpObj$224688[ebp]
  02661	dd 9a f8 22 00
	00		 fstp	 QWORD PTR [edx+8952]

; 941  : 					gGameShop.GDSaveUserInfo(aIndex);

  02667	8b 85 10 fd ff
	ff		 mov	 eax, DWORD PTR _aIndex$224676[ebp]
  0266d	50		 push	 eax
  0266e	b9 00 00 00 00	 mov	 ecx, OFFSET ?gGameShop@@3VGameShop@@A ; gGameShop
  02673	e8 00 00 00 00	 call	 ?GDSaveUserInfo@GameShop@@QAEXH@Z ; GameShop::GDSaveUserInfo

; 942  : 					MessageChat(aIndex, "@[QTOP] WCoinP Bonus: %d", this->QTOP_BonusWcoinP);

  02678	8b 45 f8	 mov	 eax, DWORD PTR _this$[ebp]
  0267b	8b 88 04 02 00
	00		 mov	 ecx, DWORD PTR [eax+516]
  02681	51		 push	 ecx
  02682	68 00 00 00 00	 push	 OFFSET ??_C@_0BJ@LNNHKKD@?$EA?$FLQTOP?$FN?5WCoinP?5Bonus?3?5?$CFd?$AA@
  02687	8b 95 10 fd ff
	ff		 mov	 edx, DWORD PTR _aIndex$224676[ebp]
  0268d	52		 push	 edx
  0268e	e8 00 00 00 00	 call	 ?MessageChat@@YAXHPADZZ	; MessageChat
  02693	83 c4 0c	 add	 esp, 12			; 0000000cH
$LN10@QtopReed:

; 943  : 				}
; 944  : 
; 945  : 				if (this->QTOP_BonusWcoinG > 0)

  02696	8b 45 f8	 mov	 eax, DWORD PTR _this$[ebp]
  02699	83 b8 08 02 00
	00 00		 cmp	 DWORD PTR [eax+520], 0
  026a0	7e 50		 jle	 SHORT $LN9@QtopReed

; 946  : 				{
; 947  : 					lpObj->GameShop.GoblinPoint += this->QTOP_BonusWcoinG;

  026a2	8b 45 f8	 mov	 eax, DWORD PTR _this$[ebp]
  026a5	db 80 08 02 00
	00		 fild	 DWORD PTR [eax+520]
  026ab	8b 8d fc fc ff
	ff		 mov	 ecx, DWORD PTR _lpObj$224688[ebp]
  026b1	dc 81 08 23 00
	00		 fadd	 QWORD PTR [ecx+8968]
  026b7	8b 95 fc fc ff
	ff		 mov	 edx, DWORD PTR _lpObj$224688[ebp]
  026bd	dd 9a 08 23 00
	00		 fstp	 QWORD PTR [edx+8968]

; 948  : 					gGameShop.GDSaveUserInfo(aIndex);

  026c3	8b 85 10 fd ff
	ff		 mov	 eax, DWORD PTR _aIndex$224676[ebp]
  026c9	50		 push	 eax
  026ca	b9 00 00 00 00	 mov	 ecx, OFFSET ?gGameShop@@3VGameShop@@A ; gGameShop
  026cf	e8 00 00 00 00	 call	 ?GDSaveUserInfo@GameShop@@QAEXH@Z ; GameShop::GDSaveUserInfo

; 949  : 					MessageChat(aIndex, "@[QTOP] Goblin Bonus: %d", this->QTOP_BonusWcoinG);

  026d4	8b 45 f8	 mov	 eax, DWORD PTR _this$[ebp]
  026d7	8b 88 08 02 00
	00		 mov	 ecx, DWORD PTR [eax+520]
  026dd	51		 push	 ecx
  026de	68 00 00 00 00	 push	 OFFSET ??_C@_0BJ@FEFHLEEI@?$EA?$FLQTOP?$FN?5Goblin?5Bonus?3?5?$CFd?$AA@
  026e3	8b 95 10 fd ff
	ff		 mov	 edx, DWORD PTR _aIndex$224676[ebp]
  026e9	52		 push	 edx
  026ea	e8 00 00 00 00	 call	 ?MessageChat@@YAXHPADZZ	; MessageChat
  026ef	83 c4 0c	 add	 esp, 12			; 0000000cH
$LN9@QtopReed:

; 950  : 				}
; 951  : 
; 952  : 				if (this->QTOP_BonusExCred > 0)

  026f2	8b 45 f8	 mov	 eax, DWORD PTR _this$[ebp]
  026f5	83 b8 0c 02 00
	00 00		 cmp	 DWORD PTR [eax+524], 0
  026fc	7e 3f		 jle	 SHORT $LN8@QtopReed

; 953  : 				{
; 954  : 					lpObj->ExCred += this->QTOP_BonusExCred;

  026fe	8b 45 f8	 mov	 eax, DWORD PTR _this$[ebp]
  02701	db 80 0c 02 00
	00		 fild	 DWORD PTR [eax+524]
  02707	8b 8d fc fc ff
	ff		 mov	 ecx, DWORD PTR _lpObj$224688[ebp]
  0270d	d8 81 a8 22 00
	00		 fadd	 DWORD PTR [ecx+8872]
  02713	8b 95 fc fc ff
	ff		 mov	 edx, DWORD PTR _lpObj$224688[ebp]
  02719	d9 9a a8 22 00
	00		 fstp	 DWORD PTR [edx+8872]

; 955  : 					MessageChat(aIndex, "@[QTOP] ExCred Bonus: %d", this->QTOP_BonusExCred);

  0271f	8b 45 f8	 mov	 eax, DWORD PTR _this$[ebp]
  02722	8b 88 0c 02 00
	00		 mov	 ecx, DWORD PTR [eax+524]
  02728	51		 push	 ecx
  02729	68 00 00 00 00	 push	 OFFSET ??_C@_0BJ@HHCPDPGE@?$EA?$FLQTOP?$FN?5ExCred?5Bonus?3?5?$CFd?$AA@
  0272e	8b 95 10 fd ff
	ff		 mov	 edx, DWORD PTR _aIndex$224676[ebp]
  02734	52		 push	 edx
  02735	e8 00 00 00 00	 call	 ?MessageChat@@YAXHPADZZ	; MessageChat
  0273a	83 c4 0c	 add	 esp, 12			; 0000000cH
$LN8@QtopReed:

; 956  : 				}
; 957  : 
; 958  : 				if (this->QTOP_BonusChaosBank > 0)

  0273d	8b 45 f8	 mov	 eax, DWORD PTR _this$[ebp]
  02740	83 b8 20 02 00
	00 00		 cmp	 DWORD PTR [eax+544], 0
  02747	7e 3f		 jle	 SHORT $LN7@QtopReed

; 959  : 				{
; 960  : 					lpObj->ChaosBank += this->QTOP_BonusChaosBank;

  02749	8b 85 fc fc ff
	ff		 mov	 eax, DWORD PTR _lpObj$224688[ebp]
  0274f	8b 88 e0 27 00
	00		 mov	 ecx, DWORD PTR [eax+10208]
  02755	8b 55 f8	 mov	 edx, DWORD PTR _this$[ebp]
  02758	03 8a 20 02 00
	00		 add	 ecx, DWORD PTR [edx+544]
  0275e	8b 85 fc fc ff
	ff		 mov	 eax, DWORD PTR _lpObj$224688[ebp]
  02764	89 88 e0 27 00
	00		 mov	 DWORD PTR [eax+10208], ecx

; 961  : 					MessageChat(aIndex, "@[QTOP] Chaos Bank Bonus: %d", this->QTOP_BonusChaosBank);

  0276a	8b 45 f8	 mov	 eax, DWORD PTR _this$[ebp]
  0276d	8b 88 20 02 00
	00		 mov	 ecx, DWORD PTR [eax+544]
  02773	51		 push	 ecx
  02774	68 00 00 00 00	 push	 OFFSET ??_C@_0BN@EJNHHCLB@?$EA?$FLQTOP?$FN?5Chaos?5Bank?5Bonus?3?5?$CFd?$AA@
  02779	8b 95 10 fd ff
	ff		 mov	 edx, DWORD PTR _aIndex$224676[ebp]
  0277f	52		 push	 edx
  02780	e8 00 00 00 00	 call	 ?MessageChat@@YAXHPADZZ	; MessageChat
  02785	83 c4 0c	 add	 esp, 12			; 0000000cH
$LN7@QtopReed:

; 962  : 				}
; 963  : 
; 964  : 				if (this->QTOP_BonusBlessBank > 0)

  02788	8b 45 f8	 mov	 eax, DWORD PTR _this$[ebp]
  0278b	83 b8 24 02 00
	00 00		 cmp	 DWORD PTR [eax+548], 0
  02792	7e 3f		 jle	 SHORT $LN6@QtopReed

; 965  : 				{
; 966  : 					lpObj->BlessBank += this->QTOP_BonusBlessBank;

  02794	8b 85 fc fc ff
	ff		 mov	 eax, DWORD PTR _lpObj$224688[ebp]
  0279a	8b 88 e4 27 00
	00		 mov	 ecx, DWORD PTR [eax+10212]
  027a0	8b 55 f8	 mov	 edx, DWORD PTR _this$[ebp]
  027a3	03 8a 24 02 00
	00		 add	 ecx, DWORD PTR [edx+548]
  027a9	8b 85 fc fc ff
	ff		 mov	 eax, DWORD PTR _lpObj$224688[ebp]
  027af	89 88 e4 27 00
	00		 mov	 DWORD PTR [eax+10212], ecx

; 967  : 					MessageChat(aIndex, "@[QTOP] Bless Bank Bonus: %d", this->QTOP_BonusBlessBank);

  027b5	8b 45 f8	 mov	 eax, DWORD PTR _this$[ebp]
  027b8	8b 88 24 02 00
	00		 mov	 ecx, DWORD PTR [eax+548]
  027be	51		 push	 ecx
  027bf	68 00 00 00 00	 push	 OFFSET ??_C@_0BN@EDNCDCIG@?$EA?$FLQTOP?$FN?5Bless?5Bank?5Bonus?3?5?$CFd?$AA@
  027c4	8b 95 10 fd ff
	ff		 mov	 edx, DWORD PTR _aIndex$224676[ebp]
  027ca	52		 push	 edx
  027cb	e8 00 00 00 00	 call	 ?MessageChat@@YAXHPADZZ	; MessageChat
  027d0	83 c4 0c	 add	 esp, 12			; 0000000cH
$LN6@QtopReed:

; 968  : 				}
; 969  : 
; 970  : 				if (this->QTOP_BonusSoulBank > 0)

  027d3	8b 45 f8	 mov	 eax, DWORD PTR _this$[ebp]
  027d6	83 b8 28 02 00
	00 00		 cmp	 DWORD PTR [eax+552], 0
  027dd	7e 3f		 jle	 SHORT $LN5@QtopReed

; 971  : 				{
; 972  : 					lpObj->SoulBank += this->QTOP_BonusSoulBank;

  027df	8b 85 fc fc ff
	ff		 mov	 eax, DWORD PTR _lpObj$224688[ebp]
  027e5	8b 88 e8 27 00
	00		 mov	 ecx, DWORD PTR [eax+10216]
  027eb	8b 55 f8	 mov	 edx, DWORD PTR _this$[ebp]
  027ee	03 8a 28 02 00
	00		 add	 ecx, DWORD PTR [edx+552]
  027f4	8b 85 fc fc ff
	ff		 mov	 eax, DWORD PTR _lpObj$224688[ebp]
  027fa	89 88 e8 27 00
	00		 mov	 DWORD PTR [eax+10216], ecx

; 973  : 					MessageChat(aIndex, "@[QTOP] Soul Bank Bonus: %d", this->QTOP_BonusSoulBank);

  02800	8b 45 f8	 mov	 eax, DWORD PTR _this$[ebp]
  02803	8b 88 28 02 00
	00		 mov	 ecx, DWORD PTR [eax+552]
  02809	51		 push	 ecx
  0280a	68 00 00 00 00	 push	 OFFSET ??_C@_0BM@IEHNOLFI@?$EA?$FLQTOP?$FN?5Soul?5Bank?5Bonus?3?5?$CFd?$AA@
  0280f	8b 95 10 fd ff
	ff		 mov	 edx, DWORD PTR _aIndex$224676[ebp]
  02815	52		 push	 edx
  02816	e8 00 00 00 00	 call	 ?MessageChat@@YAXHPADZZ	; MessageChat
  0281b	83 c4 0c	 add	 esp, 12			; 0000000cH
$LN5@QtopReed:

; 974  : 				}
; 975  : 
; 976  : 				if (this->QTOP_BonusLifeBank > 0)

  0281e	8b 45 f8	 mov	 eax, DWORD PTR _this$[ebp]
  02821	83 b8 2c 02 00
	00 00		 cmp	 DWORD PTR [eax+556], 0
  02828	7e 3f		 jle	 SHORT $LN4@QtopReed

; 977  : 				{
; 978  : 					lpObj->LifeBank += this->QTOP_BonusLifeBank;

  0282a	8b 85 fc fc ff
	ff		 mov	 eax, DWORD PTR _lpObj$224688[ebp]
  02830	8b 88 ec 27 00
	00		 mov	 ecx, DWORD PTR [eax+10220]
  02836	8b 55 f8	 mov	 edx, DWORD PTR _this$[ebp]
  02839	03 8a 2c 02 00
	00		 add	 ecx, DWORD PTR [edx+556]
  0283f	8b 85 fc fc ff
	ff		 mov	 eax, DWORD PTR _lpObj$224688[ebp]
  02845	89 88 ec 27 00
	00		 mov	 DWORD PTR [eax+10220], ecx

; 979  : 					MessageChat(aIndex, "@[QTOP] Life Bank Bonus: %d", this->QTOP_BonusLifeBank);

  0284b	8b 45 f8	 mov	 eax, DWORD PTR _this$[ebp]
  0284e	8b 88 2c 02 00
	00		 mov	 ecx, DWORD PTR [eax+556]
  02854	51		 push	 ecx
  02855	68 00 00 00 00	 push	 OFFSET ??_C@_0BM@CAGLDOOI@?$EA?$FLQTOP?$FN?5Life?5Bank?5Bonus?3?5?$CFd?$AA@
  0285a	8b 95 10 fd ff
	ff		 mov	 edx, DWORD PTR _aIndex$224676[ebp]
  02860	52		 push	 edx
  02861	e8 00 00 00 00	 call	 ?MessageChat@@YAXHPADZZ	; MessageChat
  02866	83 c4 0c	 add	 esp, 12			; 0000000cH
$LN4@QtopReed:

; 980  : 
; 981  : 				}
; 982  : 
; 983  : 				// --> Buff Effect Custom
; 984  : 				if(g_ExLicense.CheckUser(eExUB::Gredy) || g_ExLicense.CheckUser(eExUB::GredyLocal) || g_ExLicense.CheckUser(eExUB::Gredy2))

  02869	6a 20		 push	 32			; 00000020H
  0286b	b9 00 00 00 00	 mov	 ecx, OFFSET ?g_ExLicense@@3VCExLicense@@A ; g_ExLicense
  02870	e8 00 00 00 00	 call	 ?CheckUser@CExLicense@@QAE_NH@Z ; CExLicense::CheckUser
  02875	0f b6 c0	 movzx	 eax, al
  02878	85 c0		 test	 eax, eax
  0287a	75 26		 jne	 SHORT $LN2@QtopReed
  0287c	6a 21		 push	 33			; 00000021H
  0287e	b9 00 00 00 00	 mov	 ecx, OFFSET ?g_ExLicense@@3VCExLicense@@A ; g_ExLicense
  02883	e8 00 00 00 00	 call	 ?CheckUser@CExLicense@@QAE_NH@Z ; CExLicense::CheckUser
  02888	0f b6 c0	 movzx	 eax, al
  0288b	85 c0		 test	 eax, eax
  0288d	75 13		 jne	 SHORT $LN2@QtopReed
  0288f	6a 22		 push	 34			; 00000022H
  02891	b9 00 00 00 00	 mov	 ecx, OFFSET ?g_ExLicense@@3VCExLicense@@A ; g_ExLicense
  02896	e8 00 00 00 00	 call	 ?CheckUser@CExLicense@@QAE_NH@Z ; CExLicense::CheckUser
  0289b	0f b6 c0	 movzx	 eax, al
  0289e	85 c0		 test	 eax, eax
  028a0	74 4a		 je	 SHORT $LN3@QtopReed
$LN2@QtopReed:

; 985  : 				{
; 986  : 					lpObj->QT_BuffTime += this->QTOP_SMSBuffTime;

  028a2	8b 85 fc fc ff
	ff		 mov	 eax, DWORD PTR _lpObj$224688[ebp]
  028a8	8b 88 e0 2a 00
	00		 mov	 ecx, DWORD PTR [eax+10976]
  028ae	8b 55 f8	 mov	 edx, DWORD PTR _this$[ebp]
  028b1	03 8a 6c 02 00
	00		 add	 ecx, DWORD PTR [edx+620]
  028b7	8b 85 fc fc ff
	ff		 mov	 eax, DWORD PTR _lpObj$224688[ebp]
  028bd	89 88 e0 2a 00
	00		 mov	 DWORD PTR [eax+10976], ecx

; 987  : 					gObjApplyBuffEffectDuration(lpObj, AT_QTOP_BUFF, 0, 0, 0, 0, lpObj->QT_BuffTime);

  028c3	8b 85 fc fc ff
	ff		 mov	 eax, DWORD PTR _lpObj$224688[ebp]
  028c9	8b 88 e0 2a 00
	00		 mov	 ecx, DWORD PTR [eax+10976]
  028cf	51		 push	 ecx
  028d0	6a 00		 push	 0
  028d2	6a 00		 push	 0
  028d4	6a 00		 push	 0
  028d6	6a 00		 push	 0
  028d8	68 c3 00 00 00	 push	 195			; 000000c3H
  028dd	8b 95 fc fc ff
	ff		 mov	 edx, DWORD PTR _lpObj$224688[ebp]
  028e3	52		 push	 edx
  028e4	e8 00 00 00 00	 call	 ?gObjApplyBuffEffectDuration@@YAEPAUOBJECTSTRUCT@@HEHEHH@Z ; gObjApplyBuffEffectDuration
  028e9	83 c4 1c	 add	 esp, 28			; 0000001cH
$LN3@QtopReed:

; 988  : 				}
; 989  : 
; 990  : 				MessageChat(aIndex, "@[QTOP] Date: %s", DataTime);

  028ec	8d 85 2c fd ff
	ff		 lea	 eax, DWORD PTR _DataTime$224667[ebp]
  028f2	50		 push	 eax
  028f3	68 00 00 00 00	 push	 OFFSET ??_C@_0BB@EPGEHIK@?$EA?$FLQTOP?$FN?5Date?3?5?$CFs?$AA@
  028f8	8b 8d 10 fd ff
	ff		 mov	 ecx, DWORD PTR _aIndex$224676[ebp]
  028fe	51		 push	 ecx
  028ff	e8 00 00 00 00	 call	 ?MessageChat@@YAXHPADZZ	; MessageChat
  02904	83 c4 0c	 add	 esp, 12			; 0000000cH
$LN14@QtopReed:

; 991  : 			}
; 992  : 
; 993  : 			lpObj->QTDate = tData;

  02907	8b 85 fc fc ff
	ff		 mov	 eax, DWORD PTR _lpObj$224688[ebp]
  0290d	8b 8d 00 fd ff
	ff		 mov	 ecx, DWORD PTR _tData$224687[ebp]
  02913	89 88 14 28 00
	00		 mov	 DWORD PTR [eax+10260], ecx

; 994  : 
; 995  : 			ExUserDataSend(aIndex);

  02919	8b 85 10 fd ff
	ff		 mov	 eax, DWORD PTR _aIndex$224676[ebp]
  0291f	50		 push	 eax
  02920	e8 00 00 00 00	 call	 ?ExUserDataSend@@YAXH@Z	; ExUserDataSend
  02925	83 c4 04	 add	 esp, 4

; 996  : 			GJSetCharacterInfo(lpObj, lpObj->m_Index, 0);

  02928	6a 00		 push	 0
  0292a	8b 85 fc fc ff
	ff		 mov	 eax, DWORD PTR _lpObj$224688[ebp]
  02930	8b 08		 mov	 ecx, DWORD PTR [eax]
  02932	51		 push	 ecx
  02933	8b 95 fc fc ff
	ff		 mov	 edx, DWORD PTR _lpObj$224688[ebp]
  02939	52		 push	 edx
  0293a	e8 00 00 00 00	 call	 ?GJSetCharacterInfo@@YAXPAUOBJECTSTRUCT@@HH@Z ; GJSetCharacterInfo
  0293f	83 c4 0c	 add	 esp, 12			; 0000000cH

; 997  : 			LogAdd("[QTOP][%s] Date: %s", lpObj->AccountID, DataTime);

  02942	8d 85 2c fd ff
	ff		 lea	 eax, DWORD PTR _DataTime$224667[ebp]
  02948	50		 push	 eax
  02949	8b 8d fc fc ff
	ff		 mov	 ecx, DWORD PTR _lpObj$224688[ebp]
  0294f	83 c1 6c	 add	 ecx, 108		; 0000006cH
  02952	51		 push	 ecx
  02953	68 00 00 00 00	 push	 OFFSET ??_C@_0BE@OHJFKBPP@?$FLQTOP?$FN?$FL?$CFs?$FN?5Date?3?5?$CFs?$AA@
  02958	ff 15 00 00 00
	00		 call	 DWORD PTR ?LogAdd@@3P6AXPADZZA ; LogAdd
  0295e	83 c4 0c	 add	 esp, 12			; 0000000cH
$LN28@QtopReed:

; 998  : 		}
; 999  : 
; 1000 : 	}

  02961	e9 70 f3 ff ff	 jmp	 $LN53@QtopReed
$LN43@QtopReed:

; 1001 : 
; 1002 : 	fclose(file);

  02966	8b 45 f4	 mov	 eax, DWORD PTR _file$[ebp]
  02969	50		 push	 eax
  0296a	e8 00 00 00 00	 call	 _fclose
  0296f	83 c4 04	 add	 esp, 4

; 1003 : 	if (this->QTOP_DeleteVoteFile)

  02972	8b 45 f8	 mov	 eax, DWORD PTR _this$[ebp]
  02975	0f b6 88 31 01
	00 00		 movzx	 ecx, BYTE PTR [eax+305]
  0297c	85 c9		 test	 ecx, ecx
  0297e	74 0d		 je	 SHORT $LN1@QtopReed

; 1004 : 	{
; 1005 : 		remove(QTOP_FILE);

  02980	68 00 00 00 00	 push	 OFFSET ??_C@_08CLPFLBNE@qtop?4txt?$AA@
  02985	e8 00 00 00 00	 call	 _remove
  0298a	83 c4 04	 add	 esp, 4
$LN1@QtopReed:
$LN47@QtopReed:

; 1006 : 	}
; 1007 : }

  0298d	5f		 pop	 edi
  0298e	5e		 pop	 esi
  0298f	5b		 pop	 ebx
  02990	8b 4d fc	 mov	 ecx, DWORD PTR __$ArrayPad$[ebp]
  02993	33 cd		 xor	 ecx, ebp
  02995	e8 00 00 00 00	 call	 @__security_check_cookie@4
  0299a	8b e5		 mov	 esp, ebp
  0299c	5d		 pop	 ebp
  0299d	c3		 ret	 0
?QtopReed@Voter@@QAEXXZ ENDP				; Voter::QtopReed
_TEXT	ENDS
PUBLIC	?Run@Voter@@QAEXXZ				; Voter::Run
EXTRN	?gObjRemoveBuffEffect@@YAEPAUOBJECTSTRUCT@@H@Z:PROC ; gObjRemoveBuffEffect
; Function compile flags: /Odtp /ZI
_TEXT	SEGMENT
_sObj$224751 = -12					; size = 4
_n$224747 = -8						; size = 4
_this$ = -4						; size = 4
?Run@Voter@@QAEXXZ PROC					; Voter::Run
; _this$ = ecx

; 1010 : {

  029a0	55		 push	 ebp
  029a1	8b ec		 mov	 ebp, esp
  029a3	83 ec 4c	 sub	 esp, 76			; 0000004cH
  029a6	53		 push	 ebx
  029a7	56		 push	 esi
  029a8	57		 push	 edi
  029a9	89 4d fc	 mov	 DWORD PTR _this$[ebp], ecx

; 1011 : 	for (int n = OBJ_STARTUSERINDEX; n < OBJMAX; n++)

  029ac	c7 45 f8 b0 36
	00 00		 mov	 DWORD PTR _n$224747[ebp], 14000 ; 000036b0H
  029b3	eb 09		 jmp	 SHORT $LN8@Run
$LN7@Run:
  029b5	8b 45 f8	 mov	 eax, DWORD PTR _n$224747[ebp]
  029b8	83 c0 01	 add	 eax, 1
  029bb	89 45 f8	 mov	 DWORD PTR _n$224747[ebp], eax
$LN8@Run:
  029be	81 7d f8 98 3a
	00 00		 cmp	 DWORD PTR _n$224747[ebp], 15000 ; 00003a98H
  029c5	0f 8d c5 00 00
	00		 jge	 $LN9@Run

; 1012 : 	{
; 1013 : 		LPOBJ sObj = &gObj[n];

  029cb	8b 45 f8	 mov	 eax, DWORD PTR _n$224747[ebp]
  029ce	69 c0 38 2b 00
	00		 imul	 eax, 11064		; 00002b38H
  029d4	03 05 00 00 00
	00		 add	 eax, DWORD PTR ?gObj@@3PAUOBJECTSTRUCT@@A ; gObj
  029da	89 45 f4	 mov	 DWORD PTR _sObj$224751[ebp], eax

; 1014 : 
; 1015 : 		if (gObj[n].Connected >= PLAYER_PLAYING)

  029dd	8b 45 f8	 mov	 eax, DWORD PTR _n$224747[ebp]
  029e0	69 c0 38 2b 00
	00		 imul	 eax, 11064		; 00002b38H
  029e6	8b 0d 00 00 00
	00		 mov	 ecx, DWORD PTR ?gObj@@3PAUOBJECTSTRUCT@@A ; gObj
  029ec	83 7c 01 04 03	 cmp	 DWORD PTR [ecx+eax+4], 3
  029f1	0f 8c 94 00 00
	00		 jl	 $LN5@Run

; 1016 : 		{
; 1017 : 			if(sObj->MT_BuffTime > 0)

  029f7	8b 45 f4	 mov	 eax, DWORD PTR _sObj$224751[ebp]
  029fa	83 b8 dc 2a 00
	00 00		 cmp	 DWORD PTR [eax+10972], 0
  02a01	7e 3e		 jle	 SHORT $LN4@Run

; 1018 : 			{
; 1019 : 				sObj->MT_BuffTime--;

  02a03	8b 45 f4	 mov	 eax, DWORD PTR _sObj$224751[ebp]
  02a06	8b 88 dc 2a 00
	00		 mov	 ecx, DWORD PTR [eax+10972]
  02a0c	83 e9 01	 sub	 ecx, 1
  02a0f	8b 55 f4	 mov	 edx, DWORD PTR _sObj$224751[ebp]
  02a12	89 8a dc 2a 00
	00		 mov	 DWORD PTR [edx+10972], ecx

; 1020 : 
; 1021 : 				if(sObj->MT_BuffTime == 0)

  02a18	8b 45 f4	 mov	 eax, DWORD PTR _sObj$224751[ebp]
  02a1b	83 b8 dc 2a 00
	00 00		 cmp	 DWORD PTR [eax+10972], 0
  02a22	75 1d		 jne	 SHORT $LN4@Run

; 1022 : 				{
; 1023 : 					gObjRemoveBuffEffect(&gObj[n], AT_MMOTOP_BUFF);

  02a24	68 c2 00 00 00	 push	 194			; 000000c2H
  02a29	8b 45 f8	 mov	 eax, DWORD PTR _n$224747[ebp]
  02a2c	69 c0 38 2b 00
	00		 imul	 eax, 11064		; 00002b38H
  02a32	03 05 00 00 00
	00		 add	 eax, DWORD PTR ?gObj@@3PAUOBJECTSTRUCT@@A ; gObj
  02a38	50		 push	 eax
  02a39	e8 00 00 00 00	 call	 ?gObjRemoveBuffEffect@@YAEPAUOBJECTSTRUCT@@H@Z ; gObjRemoveBuffEffect
  02a3e	83 c4 08	 add	 esp, 8
$LN4@Run:

; 1024 : 				}
; 1025 : 			}
; 1026 : 
; 1027 : 			if(sObj->QT_BuffTime > 0)

  02a41	8b 45 f4	 mov	 eax, DWORD PTR _sObj$224751[ebp]
  02a44	83 b8 e0 2a 00
	00 00		 cmp	 DWORD PTR [eax+10976], 0
  02a4b	7e 3e		 jle	 SHORT $LN5@Run

; 1028 : 			{
; 1029 : 				sObj->QT_BuffTime--;

  02a4d	8b 45 f4	 mov	 eax, DWORD PTR _sObj$224751[ebp]
  02a50	8b 88 e0 2a 00
	00		 mov	 ecx, DWORD PTR [eax+10976]
  02a56	83 e9 01	 sub	 ecx, 1
  02a59	8b 55 f4	 mov	 edx, DWORD PTR _sObj$224751[ebp]
  02a5c	89 8a e0 2a 00
	00		 mov	 DWORD PTR [edx+10976], ecx

; 1030 : 
; 1031 : 				if(sObj->QT_BuffTime == 0)

  02a62	8b 45 f4	 mov	 eax, DWORD PTR _sObj$224751[ebp]
  02a65	83 b8 e0 2a 00
	00 00		 cmp	 DWORD PTR [eax+10976], 0
  02a6c	75 1d		 jne	 SHORT $LN5@Run

; 1032 : 				{
; 1033 : 					gObjRemoveBuffEffect(&gObj[n], AT_QTOP_BUFF);

  02a6e	68 c3 00 00 00	 push	 195			; 000000c3H
  02a73	8b 45 f8	 mov	 eax, DWORD PTR _n$224747[ebp]
  02a76	69 c0 38 2b 00
	00		 imul	 eax, 11064		; 00002b38H
  02a7c	03 05 00 00 00
	00		 add	 eax, DWORD PTR ?gObj@@3PAUOBJECTSTRUCT@@A ; gObj
  02a82	50		 push	 eax
  02a83	e8 00 00 00 00	 call	 ?gObjRemoveBuffEffect@@YAEPAUOBJECTSTRUCT@@H@Z ; gObjRemoveBuffEffect
  02a88	83 c4 08	 add	 esp, 8
$LN5@Run:

; 1034 : 				}
; 1035 : 			}
; 1036 : 		}
; 1037 : 	}

  02a8b	e9 25 ff ff ff	 jmp	 $LN7@Run
$LN9@Run:

; 1038 : }

  02a90	5f		 pop	 edi
  02a91	5e		 pop	 esi
  02a92	5b		 pop	 ebx
  02a93	8b e5		 mov	 esp, ebp
  02a95	5d		 pop	 ebp
  02a96	c3		 ret	 0
?Run@Voter@@QAEXXZ ENDP					; Voter::Run
_TEXT	ENDS
PUBLIC	?PlayerCalculator@Voter@@QAEXH@Z		; Voter::PlayerCalculator
; Function compile flags: /Odtp /ZI
_TEXT	SEGMENT
_iPlusDefencePercent$224765 = -16			; size = 4
_iPlusDamagePercent$224763 = -12			; size = 4
_lpUser$ = -8						; size = 4
_this$ = -4						; size = 4
_aIndex$ = 8						; size = 4
?PlayerCalculator@Voter@@QAEXH@Z PROC			; Voter::PlayerCalculator
; _this$ = ecx

; 1041 : {

  02aa0	55		 push	 ebp
  02aa1	8b ec		 mov	 ebp, esp
  02aa3	83 ec 50	 sub	 esp, 80			; 00000050H
  02aa6	53		 push	 ebx
  02aa7	56		 push	 esi
  02aa8	57		 push	 edi
  02aa9	89 4d fc	 mov	 DWORD PTR _this$[ebp], ecx

; 1042 : 	LPOBJ lpUser = &gObj[aIndex];

  02aac	8b 45 08	 mov	 eax, DWORD PTR _aIndex$[ebp]
  02aaf	69 c0 38 2b 00
	00		 imul	 eax, 11064		; 00002b38H
  02ab5	03 05 00 00 00
	00		 add	 eax, DWORD PTR ?gObj@@3PAUOBJECTSTRUCT@@A ; gObj
  02abb	89 45 f8	 mov	 DWORD PTR _lpUser$[ebp], eax

; 1043 : 
; 1044 : 	if(lpUser->MT_BuffTime > 0)

  02abe	8b 45 f8	 mov	 eax, DWORD PTR _lpUser$[ebp]
  02ac1	83 b8 dc 2a 00
	00 00		 cmp	 DWORD PTR [eax+10972], 0
  02ac8	0f 8e f1 00 00
	00		 jle	 $LN2@PlayerCalc

; 1045 : 	{
; 1046 : 		int iPlusDamagePercent = 10;

  02ace	c7 45 f4 0a 00
	00 00		 mov	 DWORD PTR _iPlusDamagePercent$224763[ebp], 10 ; 0000000aH

; 1047 : 		lpUser->m_AttackDamageMinRight	+= ( lpUser->m_AttackDamageMinRight * iPlusDamagePercent ) / 100;

  02ad5	8b 45 f8	 mov	 eax, DWORD PTR _lpUser$[ebp]
  02ad8	8b 80 84 04 00
	00		 mov	 eax, DWORD PTR [eax+1156]
  02ade	0f af 45 f4	 imul	 eax, DWORD PTR _iPlusDamagePercent$224763[ebp]
  02ae2	99		 cdq
  02ae3	b9 64 00 00 00	 mov	 ecx, 100		; 00000064H
  02ae8	f7 f9		 idiv	 ecx
  02aea	8b 55 f8	 mov	 edx, DWORD PTR _lpUser$[ebp]
  02aed	03 82 84 04 00
	00		 add	 eax, DWORD PTR [edx+1156]
  02af3	8b 4d f8	 mov	 ecx, DWORD PTR _lpUser$[ebp]
  02af6	89 81 84 04 00
	00		 mov	 DWORD PTR [ecx+1156], eax

; 1048 : 		lpUser->m_AttackDamageMaxRight	+= ( lpUser->m_AttackDamageMaxRight * iPlusDamagePercent ) / 100;

  02afc	8b 45 f8	 mov	 eax, DWORD PTR _lpUser$[ebp]
  02aff	8b 80 80 04 00
	00		 mov	 eax, DWORD PTR [eax+1152]
  02b05	0f af 45 f4	 imul	 eax, DWORD PTR _iPlusDamagePercent$224763[ebp]
  02b09	99		 cdq
  02b0a	b9 64 00 00 00	 mov	 ecx, 100		; 00000064H
  02b0f	f7 f9		 idiv	 ecx
  02b11	8b 55 f8	 mov	 edx, DWORD PTR _lpUser$[ebp]
  02b14	03 82 80 04 00
	00		 add	 eax, DWORD PTR [edx+1152]
  02b1a	8b 4d f8	 mov	 ecx, DWORD PTR _lpUser$[ebp]
  02b1d	89 81 80 04 00
	00		 mov	 DWORD PTR [ecx+1152], eax

; 1049 : 		lpUser->m_AttackDamageMinLeft	+= ( lpUser->m_AttackDamageMinLeft * iPlusDamagePercent ) / 100;

  02b23	8b 45 f8	 mov	 eax, DWORD PTR _lpUser$[ebp]
  02b26	8b 80 7c 04 00
	00		 mov	 eax, DWORD PTR [eax+1148]
  02b2c	0f af 45 f4	 imul	 eax, DWORD PTR _iPlusDamagePercent$224763[ebp]
  02b30	99		 cdq
  02b31	b9 64 00 00 00	 mov	 ecx, 100		; 00000064H
  02b36	f7 f9		 idiv	 ecx
  02b38	8b 55 f8	 mov	 edx, DWORD PTR _lpUser$[ebp]
  02b3b	03 82 7c 04 00
	00		 add	 eax, DWORD PTR [edx+1148]
  02b41	8b 4d f8	 mov	 ecx, DWORD PTR _lpUser$[ebp]
  02b44	89 81 7c 04 00
	00		 mov	 DWORD PTR [ecx+1148], eax

; 1050 : 		lpUser->m_AttackDamageMaxLeft	+= ( lpUser->m_AttackDamageMaxLeft * iPlusDamagePercent ) / 100;

  02b4a	8b 45 f8	 mov	 eax, DWORD PTR _lpUser$[ebp]
  02b4d	8b 80 78 04 00
	00		 mov	 eax, DWORD PTR [eax+1144]
  02b53	0f af 45 f4	 imul	 eax, DWORD PTR _iPlusDamagePercent$224763[ebp]
  02b57	99		 cdq
  02b58	b9 64 00 00 00	 mov	 ecx, 100		; 00000064H
  02b5d	f7 f9		 idiv	 ecx
  02b5f	8b 55 f8	 mov	 edx, DWORD PTR _lpUser$[ebp]
  02b62	03 82 78 04 00
	00		 add	 eax, DWORD PTR [edx+1144]
  02b68	8b 4d f8	 mov	 ecx, DWORD PTR _lpUser$[ebp]
  02b6b	89 81 78 04 00
	00		 mov	 DWORD PTR [ecx+1144], eax

; 1051 : 		lpUser->m_MagicDamageMin		+= ( lpUser->m_MagicDamageMin * iPlusDamagePercent ) / 100;

  02b71	8b 45 f8	 mov	 eax, DWORD PTR _lpUser$[ebp]
  02b74	8b 80 68 04 00
	00		 mov	 eax, DWORD PTR [eax+1128]
  02b7a	0f af 45 f4	 imul	 eax, DWORD PTR _iPlusDamagePercent$224763[ebp]
  02b7e	99		 cdq
  02b7f	b9 64 00 00 00	 mov	 ecx, 100		; 00000064H
  02b84	f7 f9		 idiv	 ecx
  02b86	8b 55 f8	 mov	 edx, DWORD PTR _lpUser$[ebp]
  02b89	03 82 68 04 00
	00		 add	 eax, DWORD PTR [edx+1128]
  02b8f	8b 4d f8	 mov	 ecx, DWORD PTR _lpUser$[ebp]
  02b92	89 81 68 04 00
	00		 mov	 DWORD PTR [ecx+1128], eax

; 1052 : 		lpUser->m_MagicDamageMax		+= ( lpUser->m_MagicDamageMax * iPlusDamagePercent ) / 100;

  02b98	8b 45 f8	 mov	 eax, DWORD PTR _lpUser$[ebp]
  02b9b	8b 80 6c 04 00
	00		 mov	 eax, DWORD PTR [eax+1132]
  02ba1	0f af 45 f4	 imul	 eax, DWORD PTR _iPlusDamagePercent$224763[ebp]
  02ba5	99		 cdq
  02ba6	b9 64 00 00 00	 mov	 ecx, 100		; 00000064H
  02bab	f7 f9		 idiv	 ecx
  02bad	8b 55 f8	 mov	 edx, DWORD PTR _lpUser$[ebp]
  02bb0	03 82 6c 04 00
	00		 add	 eax, DWORD PTR [edx+1132]
  02bb6	8b 4d f8	 mov	 ecx, DWORD PTR _lpUser$[ebp]
  02bb9	89 81 6c 04 00
	00		 mov	 DWORD PTR [ecx+1132], eax
$LN2@PlayerCalc:

; 1053 : 	}
; 1054 : 
; 1055 : 	if(lpUser->QT_BuffTime > 0)

  02bbf	8b 45 f8	 mov	 eax, DWORD PTR _lpUser$[ebp]
  02bc2	83 b8 e0 2a 00
	00 00		 cmp	 DWORD PTR [eax+10976], 0
  02bc9	7e 55		 jle	 SHORT $LN3@PlayerCalc

; 1056 : 	{
; 1057 : 		int iPlusDefencePercent = 10;

  02bcb	c7 45 f0 0a 00
	00 00		 mov	 DWORD PTR _iPlusDefencePercent$224765[ebp], 10 ; 0000000aH

; 1058 : 		lpUser->m_Defense				+= ( lpUser->m_Defense * iPlusDefencePercent ) / 100;

  02bd2	8b 45 f8	 mov	 eax, DWORD PTR _lpUser$[ebp]
  02bd5	8b 80 94 04 00
	00		 mov	 eax, DWORD PTR [eax+1172]
  02bdb	0f af 45 f0	 imul	 eax, DWORD PTR _iPlusDefencePercent$224765[ebp]
  02bdf	99		 cdq
  02be0	b9 64 00 00 00	 mov	 ecx, 100		; 00000064H
  02be5	f7 f9		 idiv	 ecx
  02be7	8b 55 f8	 mov	 edx, DWORD PTR _lpUser$[ebp]
  02bea	03 82 94 04 00
	00		 add	 eax, DWORD PTR [edx+1172]
  02bf0	8b 4d f8	 mov	 ecx, DWORD PTR _lpUser$[ebp]
  02bf3	89 81 94 04 00
	00		 mov	 DWORD PTR [ecx+1172], eax

; 1059 : 		lpUser->m_MagicDefense			+= ( lpUser->m_MagicDefense * iPlusDefencePercent ) / 100;

  02bf9	8b 45 f8	 mov	 eax, DWORD PTR _lpUser$[ebp]
  02bfc	8b 80 98 04 00
	00		 mov	 eax, DWORD PTR [eax+1176]
  02c02	0f af 45 f0	 imul	 eax, DWORD PTR _iPlusDefencePercent$224765[ebp]
  02c06	99		 cdq
  02c07	b9 64 00 00 00	 mov	 ecx, 100		; 00000064H
  02c0c	f7 f9		 idiv	 ecx
  02c0e	8b 55 f8	 mov	 edx, DWORD PTR _lpUser$[ebp]
  02c11	03 82 98 04 00
	00		 add	 eax, DWORD PTR [edx+1176]
  02c17	8b 4d f8	 mov	 ecx, DWORD PTR _lpUser$[ebp]
  02c1a	89 81 98 04 00
	00		 mov	 DWORD PTR [ecx+1176], eax
$LN3@PlayerCalc:

; 1060 : 	}
; 1061 : }

  02c20	5f		 pop	 edi
  02c21	5e		 pop	 esi
  02c22	5b		 pop	 ebx
  02c23	8b e5		 mov	 esp, ebp
  02c25	5d		 pop	 ebp
  02c26	c2 04 00	 ret	 4
?PlayerCalculator@Voter@@QAEXH@Z ENDP			; Voter::PlayerCalculator
_TEXT	ENDS
PUBLIC	??1?$basic_filebuf@DU?$char_traits@D@std@@@std@@UAE@XZ ; std::basic_filebuf<char,std::char_traits<char> >::~basic_filebuf<char,std::char_traits<char> >
PUBLIC	??1?$basic_ostream@DU?$char_traits@D@std@@@std@@UAE@XZ ; std::basic_ostream<char,std::char_traits<char> >::~basic_ostream<char,std::char_traits<char> >
PUBLIC	?setstate@?$basic_ios@DU?$char_traits@D@std@@@std@@QAEXH_N@Z ; std::basic_ios<char,std::char_traits<char> >::setstate
PUBLIC	?open@?$basic_filebuf@DU?$char_traits@D@std@@@std@@QAEPAV12@PBDHH@Z ; std::basic_filebuf<char,std::char_traits<char> >::open
PUBLIC	??0?$basic_filebuf@DU?$char_traits@D@std@@@std@@QAE@PAU_iobuf@@@Z ; std::basic_filebuf<char,std::char_traits<char> >::basic_filebuf<char,std::char_traits<char> >
PUBLIC	??_7?$basic_ofstream@DU?$char_traits@D@std@@@std@@6B@ ; std::basic_ofstream<char,std::char_traits<char> >::`vftable'
PUBLIC	??0?$basic_ostream@DU?$char_traits@D@std@@@std@@QAE@PAV?$basic_streambuf@DU?$char_traits@D@std@@@1@_N@Z ; std::basic_ostream<char,std::char_traits<char> >::basic_ostream<char,std::char_traits<char> >
PUBLIC	??0?$basic_ios@DU?$char_traits@D@std@@@std@@IAE@XZ ; std::basic_ios<char,std::char_traits<char> >::basic_ios<char,std::char_traits<char> >
PUBLIC	??_8?$basic_ofstream@DU?$char_traits@D@std@@@std@@7B@ ; std::basic_ofstream<char,std::char_traits<char> >::`vbtable'
PUBLIC	??_R4?$basic_ofstream@DU?$char_traits@D@std@@@std@@6B@ ; std::basic_ofstream<char,std::char_traits<char> >::`RTTI Complete Object Locator'
PUBLIC	??_R0?AV?$basic_ofstream@DU?$char_traits@D@std@@@std@@@8 ; std::basic_ofstream<char,std::char_traits<char> > `RTTI Type Descriptor'
PUBLIC	??_R3?$basic_ofstream@DU?$char_traits@D@std@@@std@@8 ; std::basic_ofstream<char,std::char_traits<char> >::`RTTI Class Hierarchy Descriptor'
PUBLIC	??_R2?$basic_ofstream@DU?$char_traits@D@std@@@std@@8 ; std::basic_ofstream<char,std::char_traits<char> >::`RTTI Base Class Array'
PUBLIC	??_R1A@?0A@EA@?$basic_ofstream@DU?$char_traits@D@std@@@std@@8 ; std::basic_ofstream<char,std::char_traits<char> >::`RTTI Base Class Descriptor at (0,-1,0,64)'
PUBLIC	??_R1A@?0A@EA@?$basic_ostream@DU?$char_traits@D@std@@@std@@8 ; std::basic_ostream<char,std::char_traits<char> >::`RTTI Base Class Descriptor at (0,-1,0,64)'
PUBLIC	??_R0?AV?$basic_ostream@DU?$char_traits@D@std@@@std@@@8 ; std::basic_ostream<char,std::char_traits<char> > `RTTI Type Descriptor'
PUBLIC	??_R3?$basic_ostream@DU?$char_traits@D@std@@@std@@8 ; std::basic_ostream<char,std::char_traits<char> >::`RTTI Class Hierarchy Descriptor'
PUBLIC	??_R2?$basic_ostream@DU?$char_traits@D@std@@@std@@8 ; std::basic_ostream<char,std::char_traits<char> >::`RTTI Base Class Array'
PUBLIC	??_R1A@A@3FA@?$basic_ios@DU?$char_traits@D@std@@@std@@8 ; std::basic_ios<char,std::char_traits<char> >::`RTTI Base Class Descriptor at (0,0,4,80)'
PUBLIC	??_R0?AV?$basic_ios@DU?$char_traits@D@std@@@std@@@8 ; std::basic_ios<char,std::char_traits<char> > `RTTI Type Descriptor'
PUBLIC	??_R3?$basic_ios@DU?$char_traits@D@std@@@std@@8	; std::basic_ios<char,std::char_traits<char> >::`RTTI Class Hierarchy Descriptor'
PUBLIC	??_R2?$basic_ios@DU?$char_traits@D@std@@@std@@8	; std::basic_ios<char,std::char_traits<char> >::`RTTI Base Class Array'
PUBLIC	??_R1A@?0A@EA@?$basic_ios@DU?$char_traits@D@std@@@std@@8 ; std::basic_ios<char,std::char_traits<char> >::`RTTI Base Class Descriptor at (0,-1,0,64)'
PUBLIC	??_R1A@?0A@EA@ios_base@std@@8			; std::ios_base::`RTTI Base Class Descriptor at (0,-1,0,64)'
PUBLIC	??_R0?AVios_base@std@@@8			; std::ios_base `RTTI Type Descriptor'
PUBLIC	??_R3ios_base@std@@8				; std::ios_base::`RTTI Class Hierarchy Descriptor'
PUBLIC	??_R2ios_base@std@@8				; std::ios_base::`RTTI Base Class Array'
PUBLIC	??_R17?0A@EA@?$_Iosb@H@std@@8			; std::_Iosb<int>::`RTTI Base Class Descriptor at (8,-1,0,64)'
PUBLIC	??_R0?AV?$_Iosb@H@std@@@8			; std::_Iosb<int> `RTTI Type Descriptor'
PUBLIC	??_R3?$_Iosb@H@std@@8				; std::_Iosb<int>::`RTTI Class Hierarchy Descriptor'
PUBLIC	??_R2?$_Iosb@H@std@@8				; std::_Iosb<int>::`RTTI Base Class Array'
PUBLIC	??_R1A@?0A@EA@?$_Iosb@H@std@@8			; std::_Iosb<int>::`RTTI Base Class Descriptor at (0,-1,0,64)'
PUBLIC	??_R1A@A@3EA@ios_base@std@@8			; std::ios_base::`RTTI Base Class Descriptor at (0,0,4,64)'
PUBLIC	??_R17A@3EA@?$_Iosb@H@std@@8			; std::_Iosb<int>::`RTTI Base Class Descriptor at (8,0,4,64)'
EXTRN	??_7type_info@@6B@:QWORD			; type_info::`vftable'
EXTRN	??_E?$basic_ofstream@DU?$char_traits@D@std@@@std@@UAEPAXI@Z:PROC ; std::basic_ofstream<char,std::char_traits<char> >::`vector deleting destructor'
;	COMDAT ??_R17A@3EA@?$_Iosb@H@std@@8
; File d:\microsoft visual studio 10.0\vc\include\fstream
rdata$r	SEGMENT
??_R17A@3EA@?$_Iosb@H@std@@8 DD FLAT:??_R0?AV?$_Iosb@H@std@@@8 ; std::_Iosb<int>::`RTTI Base Class Descriptor at (8,0,4,64)'
	DD	00H
	DD	08H
	DD	00H
	DD	04H
	DD	040H
	DD	FLAT:??_R3?$_Iosb@H@std@@8
rdata$r	ENDS
;	COMDAT ??_R1A@A@3EA@ios_base@std@@8
rdata$r	SEGMENT
??_R1A@A@3EA@ios_base@std@@8 DD FLAT:??_R0?AVios_base@std@@@8 ; std::ios_base::`RTTI Base Class Descriptor at (0,0,4,64)'
	DD	01H
	DD	00H
	DD	00H
	DD	04H
	DD	040H
	DD	FLAT:??_R3ios_base@std@@8
rdata$r	ENDS
;	COMDAT ??_R1A@?0A@EA@?$_Iosb@H@std@@8
rdata$r	SEGMENT
??_R1A@?0A@EA@?$_Iosb@H@std@@8 DD FLAT:??_R0?AV?$_Iosb@H@std@@@8 ; std::_Iosb<int>::`RTTI Base Class Descriptor at (0,-1,0,64)'
	DD	00H
	DD	00H
	DD	0ffffffffH
	DD	00H
	DD	040H
	DD	FLAT:??_R3?$_Iosb@H@std@@8
rdata$r	ENDS
;	COMDAT ??_R2?$_Iosb@H@std@@8
rdata$r	SEGMENT
??_R2?$_Iosb@H@std@@8 DD FLAT:??_R1A@?0A@EA@?$_Iosb@H@std@@8 ; std::_Iosb<int>::`RTTI Base Class Array'
rdata$r	ENDS
;	COMDAT ??_R3?$_Iosb@H@std@@8
rdata$r	SEGMENT
??_R3?$_Iosb@H@std@@8 DD 00H				; std::_Iosb<int>::`RTTI Class Hierarchy Descriptor'
	DD	00H
	DD	01H
	DD	FLAT:??_R2?$_Iosb@H@std@@8
rdata$r	ENDS
;	COMDAT ??_R0?AV?$_Iosb@H@std@@@8
_DATA	SEGMENT
??_R0?AV?$_Iosb@H@std@@@8 DD FLAT:??_7type_info@@6B@	; std::_Iosb<int> `RTTI Type Descriptor'
	DD	00H
	DB	'.?AV?$_Iosb@H@std@@', 00H
_DATA	ENDS
;	COMDAT ??_R17?0A@EA@?$_Iosb@H@std@@8
rdata$r	SEGMENT
??_R17?0A@EA@?$_Iosb@H@std@@8 DD FLAT:??_R0?AV?$_Iosb@H@std@@@8 ; std::_Iosb<int>::`RTTI Base Class Descriptor at (8,-1,0,64)'
	DD	00H
	DD	08H
	DD	0ffffffffH
	DD	00H
	DD	040H
	DD	FLAT:??_R3?$_Iosb@H@std@@8
rdata$r	ENDS
;	COMDAT ??_R2ios_base@std@@8
rdata$r	SEGMENT
??_R2ios_base@std@@8 DD FLAT:??_R1A@?0A@EA@ios_base@std@@8 ; std::ios_base::`RTTI Base Class Array'
	DD	FLAT:??_R17?0A@EA@?$_Iosb@H@std@@8
rdata$r	ENDS
;	COMDAT ??_R3ios_base@std@@8
rdata$r	SEGMENT
??_R3ios_base@std@@8 DD 00H				; std::ios_base::`RTTI Class Hierarchy Descriptor'
	DD	00H
	DD	02H
	DD	FLAT:??_R2ios_base@std@@8
rdata$r	ENDS
;	COMDAT ??_R0?AVios_base@std@@@8
_DATA	SEGMENT
??_R0?AVios_base@std@@@8 DD FLAT:??_7type_info@@6B@	; std::ios_base `RTTI Type Descriptor'
	DD	00H
	DB	'.?AVios_base@std@@', 00H
_DATA	ENDS
;	COMDAT ??_R1A@?0A@EA@ios_base@std@@8
rdata$r	SEGMENT
??_R1A@?0A@EA@ios_base@std@@8 DD FLAT:??_R0?AVios_base@std@@@8 ; std::ios_base::`RTTI Base Class Descriptor at (0,-1,0,64)'
	DD	01H
	DD	00H
	DD	0ffffffffH
	DD	00H
	DD	040H
	DD	FLAT:??_R3ios_base@std@@8
rdata$r	ENDS
;	COMDAT ??_R1A@?0A@EA@?$basic_ios@DU?$char_traits@D@std@@@std@@8
rdata$r	SEGMENT
??_R1A@?0A@EA@?$basic_ios@DU?$char_traits@D@std@@@std@@8 DD FLAT:??_R0?AV?$basic_ios@DU?$char_traits@D@std@@@std@@@8 ; std::basic_ios<char,std::char_traits<char> >::`RTTI Base Class Descriptor at (0,-1,0,64)'
	DD	02H
	DD	00H
	DD	0ffffffffH
	DD	00H
	DD	040H
	DD	FLAT:??_R3?$basic_ios@DU?$char_traits@D@std@@@std@@8
rdata$r	ENDS
;	COMDAT ??_R2?$basic_ios@DU?$char_traits@D@std@@@std@@8
rdata$r	SEGMENT
??_R2?$basic_ios@DU?$char_traits@D@std@@@std@@8 DD FLAT:??_R1A@?0A@EA@?$basic_ios@DU?$char_traits@D@std@@@std@@8 ; std::basic_ios<char,std::char_traits<char> >::`RTTI Base Class Array'
	DD	FLAT:??_R1A@?0A@EA@ios_base@std@@8
	DD	FLAT:??_R17?0A@EA@?$_Iosb@H@std@@8
rdata$r	ENDS
;	COMDAT ??_R3?$basic_ios@DU?$char_traits@D@std@@@std@@8
rdata$r	SEGMENT
??_R3?$basic_ios@DU?$char_traits@D@std@@@std@@8 DD 00H	; std::basic_ios<char,std::char_traits<char> >::`RTTI Class Hierarchy Descriptor'
	DD	00H
	DD	03H
	DD	FLAT:??_R2?$basic_ios@DU?$char_traits@D@std@@@std@@8
rdata$r	ENDS
;	COMDAT ??_R0?AV?$basic_ios@DU?$char_traits@D@std@@@std@@@8
_DATA	SEGMENT
??_R0?AV?$basic_ios@DU?$char_traits@D@std@@@std@@@8 DD FLAT:??_7type_info@@6B@ ; std::basic_ios<char,std::char_traits<char> > `RTTI Type Descriptor'
	DD	00H
	DB	'.?AV?$basic_ios@DU?$char_traits@D@std@@@std@@', 00H
_DATA	ENDS
;	COMDAT ??_R1A@A@3FA@?$basic_ios@DU?$char_traits@D@std@@@std@@8
rdata$r	SEGMENT
??_R1A@A@3FA@?$basic_ios@DU?$char_traits@D@std@@@std@@8 DD FLAT:??_R0?AV?$basic_ios@DU?$char_traits@D@std@@@std@@@8 ; std::basic_ios<char,std::char_traits<char> >::`RTTI Base Class Descriptor at (0,0,4,80)'
	DD	02H
	DD	00H
	DD	00H
	DD	04H
	DD	050H
	DD	FLAT:??_R3?$basic_ios@DU?$char_traits@D@std@@@std@@8
rdata$r	ENDS
;	COMDAT ??_R2?$basic_ostream@DU?$char_traits@D@std@@@std@@8
rdata$r	SEGMENT
??_R2?$basic_ostream@DU?$char_traits@D@std@@@std@@8 DD FLAT:??_R1A@?0A@EA@?$basic_ostream@DU?$char_traits@D@std@@@std@@8 ; std::basic_ostream<char,std::char_traits<char> >::`RTTI Base Class Array'
	DD	FLAT:??_R1A@A@3FA@?$basic_ios@DU?$char_traits@D@std@@@std@@8
	DD	FLAT:??_R1A@A@3EA@ios_base@std@@8
	DD	FLAT:??_R17A@3EA@?$_Iosb@H@std@@8
rdata$r	ENDS
;	COMDAT ??_R3?$basic_ostream@DU?$char_traits@D@std@@@std@@8
rdata$r	SEGMENT
??_R3?$basic_ostream@DU?$char_traits@D@std@@@std@@8 DD 00H ; std::basic_ostream<char,std::char_traits<char> >::`RTTI Class Hierarchy Descriptor'
	DD	00H
	DD	04H
	DD	FLAT:??_R2?$basic_ostream@DU?$char_traits@D@std@@@std@@8
rdata$r	ENDS
;	COMDAT ??_R0?AV?$basic_ostream@DU?$char_traits@D@std@@@std@@@8
_DATA	SEGMENT
??_R0?AV?$basic_ostream@DU?$char_traits@D@std@@@std@@@8 DD FLAT:??_7type_info@@6B@ ; std::basic_ostream<char,std::char_traits<char> > `RTTI Type Descriptor'
	DD	00H
	DB	'.?AV?$basic_ostream@DU?$char_traits@D@std@@@std@@', 00H
_DATA	ENDS
;	COMDAT ??_R1A@?0A@EA@?$basic_ostream@DU?$char_traits@D@std@@@std@@8
rdata$r	SEGMENT
??_R1A@?0A@EA@?$basic_ostream@DU?$char_traits@D@std@@@std@@8 DD FLAT:??_R0?AV?$basic_ostream@DU?$char_traits@D@std@@@std@@@8 ; std::basic_ostream<char,std::char_traits<char> >::`RTTI Base Class Descriptor at (0,-1,0,64)'
	DD	03H
	DD	00H
	DD	0ffffffffH
	DD	00H
	DD	040H
	DD	FLAT:??_R3?$basic_ostream@DU?$char_traits@D@std@@@std@@8
rdata$r	ENDS
;	COMDAT ??_R1A@?0A@EA@?$basic_ofstream@DU?$char_traits@D@std@@@std@@8
rdata$r	SEGMENT
??_R1A@?0A@EA@?$basic_ofstream@DU?$char_traits@D@std@@@std@@8 DD FLAT:??_R0?AV?$basic_ofstream@DU?$char_traits@D@std@@@std@@@8 ; std::basic_ofstream<char,std::char_traits<char> >::`RTTI Base Class Descriptor at (0,-1,0,64)'
	DD	04H
	DD	00H
	DD	0ffffffffH
	DD	00H
	DD	040H
	DD	FLAT:??_R3?$basic_ofstream@DU?$char_traits@D@std@@@std@@8
rdata$r	ENDS
;	COMDAT ??_R2?$basic_ofstream@DU?$char_traits@D@std@@@std@@8
rdata$r	SEGMENT
??_R2?$basic_ofstream@DU?$char_traits@D@std@@@std@@8 DD FLAT:??_R1A@?0A@EA@?$basic_ofstream@DU?$char_traits@D@std@@@std@@8 ; std::basic_ofstream<char,std::char_traits<char> >::`RTTI Base Class Array'
	DD	FLAT:??_R1A@?0A@EA@?$basic_ostream@DU?$char_traits@D@std@@@std@@8
	DD	FLAT:??_R1A@A@3FA@?$basic_ios@DU?$char_traits@D@std@@@std@@8
	DD	FLAT:??_R1A@A@3EA@ios_base@std@@8
	DD	FLAT:??_R17A@3EA@?$_Iosb@H@std@@8
rdata$r	ENDS
;	COMDAT ??_R3?$basic_ofstream@DU?$char_traits@D@std@@@std@@8
rdata$r	SEGMENT
??_R3?$basic_ofstream@DU?$char_traits@D@std@@@std@@8 DD 00H ; std::basic_ofstream<char,std::char_traits<char> >::`RTTI Class Hierarchy Descriptor'
	DD	00H
	DD	05H
	DD	FLAT:??_R2?$basic_ofstream@DU?$char_traits@D@std@@@std@@8
rdata$r	ENDS
;	COMDAT ??_R0?AV?$basic_ofstream@DU?$char_traits@D@std@@@std@@@8
_DATA	SEGMENT
??_R0?AV?$basic_ofstream@DU?$char_traits@D@std@@@std@@@8 DD FLAT:??_7type_info@@6B@ ; std::basic_ofstream<char,std::char_traits<char> > `RTTI Type Descriptor'
	DD	00H
	DB	'.?AV?$basic_ofstream@DU?$char_traits@D@std@@@std@@', 00H
_DATA	ENDS
;	COMDAT ??_R4?$basic_ofstream@DU?$char_traits@D@std@@@std@@6B@
rdata$r	SEGMENT
??_R4?$basic_ofstream@DU?$char_traits@D@std@@@std@@6B@ DD 00H ; std::basic_ofstream<char,std::char_traits<char> >::`RTTI Complete Object Locator'
	DD	060H
	DD	00H
	DD	FLAT:??_R0?AV?$basic_ofstream@DU?$char_traits@D@std@@@std@@@8
	DD	FLAT:??_R3?$basic_ofstream@DU?$char_traits@D@std@@@std@@8
rdata$r	ENDS
;	COMDAT ??_7?$basic_ofstream@DU?$char_traits@D@std@@@std@@6B@
CONST	SEGMENT
??_7?$basic_ofstream@DU?$char_traits@D@std@@@std@@6B@ DD FLAT:??_R4?$basic_ofstream@DU?$char_traits@D@std@@@std@@6B@ ; std::basic_ofstream<char,std::char_traits<char> >::`vftable'
	DD	FLAT:??_E?$basic_ofstream@DU?$char_traits@D@std@@@std@@UAEPAXI@Z
CONST	ENDS
;	COMDAT ??_8?$basic_ofstream@DU?$char_traits@D@std@@@std@@7B@
CONST	SEGMENT
??_8?$basic_ofstream@DU?$char_traits@D@std@@@std@@7B@ DD 00H ; std::basic_ofstream<char,std::char_traits<char> >::`vbtable'
	DD	060H
CONST	ENDS
;	COMDAT xdata$x
xdata$x	SEGMENT
__unwindtable$??0?$basic_ofstream@DU?$char_traits@D@std@@@std@@QAE@PBDHH@Z DD 0ffffffffH
	DD	FLAT:__unwindfunclet$??0?$basic_ofstream@DU?$char_traits@D@std@@@std@@QAE@PBDHH@Z$0
	DD	00H
	DD	FLAT:__unwindfunclet$??0?$basic_ofstream@DU?$char_traits@D@std@@@std@@QAE@PBDHH@Z$1
	DD	01H
	DD	FLAT:__unwindfunclet$??0?$basic_ofstream@DU?$char_traits@D@std@@@std@@QAE@PBDHH@Z$2
__ehfuncinfo$??0?$basic_ofstream@DU?$char_traits@D@std@@@std@@QAE@PBDHH@Z DD 019930522H
	DD	03H
	DD	FLAT:__unwindtable$??0?$basic_ofstream@DU?$char_traits@D@std@@@std@@QAE@PBDHH@Z
	DD	2 DUP(00H)
	DD	2 DUP(00H)
	DD	00H
	DD	01H
; Function compile flags: /Odtp /ZI
xdata$x	ENDS
;	COMDAT ??0?$basic_ofstream@DU?$char_traits@D@std@@@std@@QAE@PBDHH@Z
_TEXT	SEGMENT
$T225890 = -84						; size = 4
_this$ = -16						; size = 4
__$EHRec$ = -12						; size = 12
__Filename$ = 8						; size = 4
__Mode$ = 12						; size = 4
__Prot$ = 16						; size = 4
_$initVBases$ = 20					; size = 4
??0?$basic_ofstream@DU?$char_traits@D@std@@@std@@QAE@PBDHH@Z PROC ; std::basic_ofstream<char,std::char_traits<char> >::basic_ofstream<char,std::char_traits<char> >, COMDAT
; _this$ = ecx

; 940  : 		{	// construct with named file and specified mode

  00000	55		 push	 ebp
  00001	8b ec		 mov	 ebp, esp
  00003	6a ff		 push	 -1
  00005	68 00 00 00 00	 push	 __ehhandler$??0?$basic_ofstream@DU?$char_traits@D@std@@@std@@QAE@PBDHH@Z
  0000a	64 a1 00 00 00
	00		 mov	 eax, DWORD PTR fs:0
  00010	50		 push	 eax
  00011	83 ec 48	 sub	 esp, 72			; 00000048H
  00014	53		 push	 ebx
  00015	56		 push	 esi
  00016	57		 push	 edi
  00017	a1 00 00 00 00	 mov	 eax, DWORD PTR ___security_cookie
  0001c	33 c5		 xor	 eax, ebp
  0001e	50		 push	 eax
  0001f	8d 45 f4	 lea	 eax, DWORD PTR __$EHRec$[ebp]
  00022	64 a3 00 00 00
	00		 mov	 DWORD PTR fs:0, eax
  00028	89 4d f0	 mov	 DWORD PTR _this$[ebp], ecx
  0002b	c7 45 ac 00 00
	00 00		 mov	 DWORD PTR $T225890[ebp], 0
  00032	83 7d 14 00	 cmp	 DWORD PTR _$initVBases$[ebp], 0
  00036	74 24		 je	 SHORT $LN2@basic_ofst
  00038	8b 45 f0	 mov	 eax, DWORD PTR _this$[ebp]
  0003b	c7 00 00 00 00
	00		 mov	 DWORD PTR [eax], OFFSET ??_8?$basic_ofstream@DU?$char_traits@D@std@@@std@@7B@
  00041	8b 4d f0	 mov	 ecx, DWORD PTR _this$[ebp]
  00044	83 c1 60	 add	 ecx, 96			; 00000060H
  00047	e8 00 00 00 00	 call	 ??0?$basic_ios@DU?$char_traits@D@std@@@std@@IAE@XZ ; std::basic_ios<char,std::char_traits<char> >::basic_ios<char,std::char_traits<char> >
  0004c	c7 45 fc 00 00
	00 00		 mov	 DWORD PTR __$EHRec$[ebp+8], 0
  00053	8b 45 ac	 mov	 eax, DWORD PTR $T225890[ebp]
  00056	83 c8 01	 or	 eax, 1
  00059	89 45 ac	 mov	 DWORD PTR $T225890[ebp], eax
$LN2@basic_ofst:
  0005c	6a 00		 push	 0
  0005e	6a 00		 push	 0
  00060	8b 45 f0	 mov	 eax, DWORD PTR _this$[ebp]
  00063	83 c0 04	 add	 eax, 4
  00066	50		 push	 eax
  00067	8b 4d f0	 mov	 ecx, DWORD PTR _this$[ebp]
  0006a	e8 00 00 00 00	 call	 ??0?$basic_ostream@DU?$char_traits@D@std@@@std@@QAE@PAV?$basic_streambuf@DU?$char_traits@D@std@@@1@_N@Z ; std::basic_ostream<char,std::char_traits<char> >::basic_ostream<char,std::char_traits<char> >
  0006f	c7 45 fc 01 00
	00 00		 mov	 DWORD PTR __$EHRec$[ebp+8], 1
  00076	8b 45 f0	 mov	 eax, DWORD PTR _this$[ebp]
  00079	8b 08		 mov	 ecx, DWORD PTR [eax]
  0007b	8b 51 04	 mov	 edx, DWORD PTR [ecx+4]
  0007e	8b 45 f0	 mov	 eax, DWORD PTR _this$[ebp]
  00081	c7 04 10 00 00
	00 00		 mov	 DWORD PTR [eax+edx], OFFSET ??_7?$basic_ofstream@DU?$char_traits@D@std@@@std@@6B@
  00088	6a 00		 push	 0
  0008a	8b 4d f0	 mov	 ecx, DWORD PTR _this$[ebp]
  0008d	83 c1 04	 add	 ecx, 4
  00090	e8 00 00 00 00	 call	 ??0?$basic_filebuf@DU?$char_traits@D@std@@@std@@QAE@PAU_iobuf@@@Z ; std::basic_filebuf<char,std::char_traits<char> >::basic_filebuf<char,std::char_traits<char> >
  00095	c6 45 fc 02	 mov	 BYTE PTR __$EHRec$[ebp+8], 2

; 941  : 		if (_Filebuffer.open(_Filename, _Mode | ios_base::out, _Prot) == 0)

  00099	8b 45 10	 mov	 eax, DWORD PTR __Prot$[ebp]
  0009c	50		 push	 eax
  0009d	8b 4d 0c	 mov	 ecx, DWORD PTR __Mode$[ebp]
  000a0	83 c9 02	 or	 ecx, 2
  000a3	51		 push	 ecx
  000a4	8b 55 08	 mov	 edx, DWORD PTR __Filename$[ebp]
  000a7	52		 push	 edx
  000a8	8b 4d f0	 mov	 ecx, DWORD PTR _this$[ebp]
  000ab	83 c1 04	 add	 ecx, 4
  000ae	e8 00 00 00 00	 call	 ?open@?$basic_filebuf@DU?$char_traits@D@std@@@std@@QAEPAV12@PBDHH@Z ; std::basic_filebuf<char,std::char_traits<char> >::open
  000b3	85 c0		 test	 eax, eax
  000b5	75 16		 jne	 SHORT $LN3@basic_ofst

; 942  : 			_Myios::setstate(ios_base::failbit);

  000b7	6a 00		 push	 0
  000b9	6a 02		 push	 2
  000bb	8b 45 f0	 mov	 eax, DWORD PTR _this$[ebp]
  000be	8b 08		 mov	 ecx, DWORD PTR [eax]
  000c0	8b 55 f0	 mov	 edx, DWORD PTR _this$[ebp]
  000c3	03 51 04	 add	 edx, DWORD PTR [ecx+4]
  000c6	8b ca		 mov	 ecx, edx
  000c8	e8 00 00 00 00	 call	 ?setstate@?$basic_ios@DU?$char_traits@D@std@@@std@@QAEXH_N@Z ; std::basic_ios<char,std::char_traits<char> >::setstate
$LN3@basic_ofst:

; 943  : 		}

  000cd	c7 45 fc ff ff
	ff ff		 mov	 DWORD PTR __$EHRec$[ebp+8], -1
  000d4	8b 45 f0	 mov	 eax, DWORD PTR _this$[ebp]
  000d7	8b 4d f4	 mov	 ecx, DWORD PTR __$EHRec$[ebp]
  000da	64 89 0d 00 00
	00 00		 mov	 DWORD PTR fs:0, ecx
  000e1	59		 pop	 ecx
  000e2	5f		 pop	 edi
  000e3	5e		 pop	 esi
  000e4	5b		 pop	 ebx
  000e5	8b e5		 mov	 esp, ebp
  000e7	5d		 pop	 ebp
  000e8	c2 10 00	 ret	 16			; 00000010H
_TEXT	ENDS
;	COMDAT text$x
text$x	SEGMENT
__unwindfunclet$??0?$basic_ofstream@DU?$char_traits@D@std@@@std@@QAE@PBDHH@Z$0:
  00000	8b 45 ac	 mov	 eax, DWORD PTR $T225890[ebp]
  00003	83 e0 01	 and	 eax, 1
  00006	0f 84 0f 00 00
	00		 je	 $LN6@basic_ofst
  0000c	83 65 ac fe	 and	 DWORD PTR $T225890[ebp], -2 ; fffffffeH
  00010	8b 4d f0	 mov	 ecx, DWORD PTR _this$[ebp]
  00013	83 c1 60	 add	 ecx, 96			; 00000060H
  00016	e9 00 00 00 00	 jmp	 ??1?$basic_ios@DU?$char_traits@D@std@@@std@@UAE@XZ ; std::basic_ios<char,std::char_traits<char> >::~basic_ios<char,std::char_traits<char> >
$LN6@basic_ofst:
  0001b	c3		 ret	 0
__unwindfunclet$??0?$basic_ofstream@DU?$char_traits@D@std@@@std@@QAE@PBDHH@Z$1:
  0001c	8b 4d f0	 mov	 ecx, DWORD PTR _this$[ebp]
  0001f	83 c1 08	 add	 ecx, 8
  00022	e9 00 00 00 00	 jmp	 ??1?$basic_ostream@DU?$char_traits@D@std@@@std@@UAE@XZ ; std::basic_ostream<char,std::char_traits<char> >::~basic_ostream<char,std::char_traits<char> >
__unwindfunclet$??0?$basic_ofstream@DU?$char_traits@D@std@@@std@@QAE@PBDHH@Z$2:
  00027	8b 4d f0	 mov	 ecx, DWORD PTR _this$[ebp]
  0002a	83 c1 04	 add	 ecx, 4
  0002d	e9 00 00 00 00	 jmp	 ??1?$basic_filebuf@DU?$char_traits@D@std@@@std@@UAE@XZ ; std::basic_filebuf<char,std::char_traits<char> >::~basic_filebuf<char,std::char_traits<char> >
__ehhandler$??0?$basic_ofstream@DU?$char_traits@D@std@@@std@@QAE@PBDHH@Z:
  00032	8b 54 24 08	 mov	 edx, DWORD PTR [esp+8]
  00036	8d 42 0c	 lea	 eax, DWORD PTR [edx+12]
  00039	8b 4a a8	 mov	 ecx, DWORD PTR [edx-88]
  0003c	33 c8		 xor	 ecx, eax
  0003e	e8 00 00 00 00	 call	 @__security_check_cookie@4
  00043	b8 00 00 00 00	 mov	 eax, OFFSET __ehfuncinfo$??0?$basic_ofstream@DU?$char_traits@D@std@@@std@@QAE@PBDHH@Z
  00048	e9 00 00 00 00	 jmp	 ___CxxFrameHandler3
text$x	ENDS
??0?$basic_ofstream@DU?$char_traits@D@std@@@std@@QAE@PBDHH@Z ENDP ; std::basic_ofstream<char,std::char_traits<char> >::basic_ofstream<char,std::char_traits<char> >
;	COMDAT xdata$x
xdata$x	SEGMENT
__unwindtable$??1?$basic_ofstream@DU?$char_traits@D@std@@@std@@UAE@XZ DD 0ffffffffH
	DD	FLAT:__unwindfunclet$??1?$basic_ofstream@DU?$char_traits@D@std@@@std@@UAE@XZ$0
__ehfuncinfo$??1?$basic_ofstream@DU?$char_traits@D@std@@@std@@UAE@XZ DD 019930522H
	DD	01H
	DD	FLAT:__unwindtable$??1?$basic_ofstream@DU?$char_traits@D@std@@@std@@UAE@XZ
	DD	2 DUP(00H)
	DD	2 DUP(00H)
	DD	00H
	DD	01H
; Function compile flags: /Odtp /ZI
xdata$x	ENDS
;	COMDAT ??1?$basic_ofstream@DU?$char_traits@D@std@@@std@@UAE@XZ
_TEXT	SEGMENT
_this$ = -16						; size = 4
__$EHRec$ = -12						; size = 12
??1?$basic_ofstream@DU?$char_traits@D@std@@@std@@UAE@XZ PROC ; std::basic_ofstream<char,std::char_traits<char> >::~basic_ofstream<char,std::char_traits<char> >, COMDAT
; _this$ = ecx

; 1071 : 		{	// destroy the object

  00000	55		 push	 ebp
  00001	8b ec		 mov	 ebp, esp
  00003	6a ff		 push	 -1
  00005	68 00 00 00 00	 push	 __ehhandler$??1?$basic_ofstream@DU?$char_traits@D@std@@@std@@UAE@XZ
  0000a	64 a1 00 00 00
	00		 mov	 eax, DWORD PTR fs:0
  00010	50		 push	 eax
  00011	83 ec 44	 sub	 esp, 68			; 00000044H
  00014	53		 push	 ebx
  00015	56		 push	 esi
  00016	57		 push	 edi
  00017	a1 00 00 00 00	 mov	 eax, DWORD PTR ___security_cookie
  0001c	33 c5		 xor	 eax, ebp
  0001e	50		 push	 eax
  0001f	8d 45 f4	 lea	 eax, DWORD PTR __$EHRec$[ebp]
  00022	64 a3 00 00 00
	00		 mov	 DWORD PTR fs:0, eax
  00028	89 4d f0	 mov	 DWORD PTR _this$[ebp], ecx
  0002b	8b 45 f0	 mov	 eax, DWORD PTR _this$[ebp]
  0002e	8b 48 a0	 mov	 ecx, DWORD PTR [eax-96]
  00031	8b 51 04	 mov	 edx, DWORD PTR [ecx+4]
  00034	8b 45 f0	 mov	 eax, DWORD PTR _this$[ebp]
  00037	c7 44 10 a0 00
	00 00 00	 mov	 DWORD PTR [eax+edx-96], OFFSET ??_7?$basic_ofstream@DU?$char_traits@D@std@@@std@@6B@
  0003f	c7 45 fc 00 00
	00 00		 mov	 DWORD PTR __$EHRec$[ebp+8], 0

; 1072 : 		}

  00046	8b 4d f0	 mov	 ecx, DWORD PTR _this$[ebp]
  00049	83 e9 5c	 sub	 ecx, 92			; 0000005cH
  0004c	e8 00 00 00 00	 call	 ??1?$basic_filebuf@DU?$char_traits@D@std@@@std@@UAE@XZ ; std::basic_filebuf<char,std::char_traits<char> >::~basic_filebuf<char,std::char_traits<char> >
  00051	c7 45 fc ff ff
	ff ff		 mov	 DWORD PTR __$EHRec$[ebp+8], -1
  00058	8b 4d f0	 mov	 ecx, DWORD PTR _this$[ebp]
  0005b	83 e9 58	 sub	 ecx, 88			; 00000058H
  0005e	e8 00 00 00 00	 call	 ??1?$basic_ostream@DU?$char_traits@D@std@@@std@@UAE@XZ ; std::basic_ostream<char,std::char_traits<char> >::~basic_ostream<char,std::char_traits<char> >
  00063	8b 4d f4	 mov	 ecx, DWORD PTR __$EHRec$[ebp]
  00066	64 89 0d 00 00
	00 00		 mov	 DWORD PTR fs:0, ecx
  0006d	59		 pop	 ecx
  0006e	5f		 pop	 edi
  0006f	5e		 pop	 esi
  00070	5b		 pop	 ebx
  00071	8b e5		 mov	 esp, ebp
  00073	5d		 pop	 ebp
  00074	c3		 ret	 0
_TEXT	ENDS
;	COMDAT text$x
text$x	SEGMENT
__unwindfunclet$??1?$basic_ofstream@DU?$char_traits@D@std@@@std@@UAE@XZ$0:
  00000	8b 4d f0	 mov	 ecx, DWORD PTR _this$[ebp]
  00003	83 e9 58	 sub	 ecx, 88			; 00000058H
  00006	e9 00 00 00 00	 jmp	 ??1?$basic_ostream@DU?$char_traits@D@std@@@std@@UAE@XZ ; std::basic_ostream<char,std::char_traits<char> >::~basic_ostream<char,std::char_traits<char> >
__ehhandler$??1?$basic_ofstream@DU?$char_traits@D@std@@@std@@UAE@XZ:
  0000b	8b 54 24 08	 mov	 edx, DWORD PTR [esp+8]
  0000f	8d 42 0c	 lea	 eax, DWORD PTR [edx+12]
  00012	8b 4a ac	 mov	 ecx, DWORD PTR [edx-84]
  00015	33 c8		 xor	 ecx, eax
  00017	e8 00 00 00 00	 call	 @__security_check_cookie@4
  0001c	b8 00 00 00 00	 mov	 eax, OFFSET __ehfuncinfo$??1?$basic_ofstream@DU?$char_traits@D@std@@@std@@UAE@XZ
  00021	e9 00 00 00 00	 jmp	 ___CxxFrameHandler3
text$x	ENDS
??1?$basic_ofstream@DU?$char_traits@D@std@@@std@@UAE@XZ ENDP ; std::basic_ofstream<char,std::char_traits<char> >::~basic_ofstream<char,std::char_traits<char> >
PUBLIC	?is_open@?$basic_filebuf@DU?$char_traits@D@std@@@std@@QBE_NXZ ; std::basic_filebuf<char,std::char_traits<char> >::is_open
; Function compile flags: /Odtp /ZI
;	COMDAT ?is_open@?$basic_ofstream@DU?$char_traits@D@std@@@std@@QBE_NXZ
_TEXT	SEGMENT
_this$ = -4						; size = 4
?is_open@?$basic_ofstream@DU?$char_traits@D@std@@@std@@QBE_NXZ PROC ; std::basic_ofstream<char,std::char_traits<char> >::is_open, COMDAT
; _this$ = ecx

; 1080 : 		{	// test if C stream has been opened

  00000	55		 push	 ebp
  00001	8b ec		 mov	 ebp, esp
  00003	83 ec 44	 sub	 esp, 68			; 00000044H
  00006	53		 push	 ebx
  00007	56		 push	 esi
  00008	57		 push	 edi
  00009	89 4d fc	 mov	 DWORD PTR _this$[ebp], ecx

; 1081 : 		return (_Filebuffer.is_open());

  0000c	8b 4d fc	 mov	 ecx, DWORD PTR _this$[ebp]
  0000f	83 c1 04	 add	 ecx, 4
  00012	e8 00 00 00 00	 call	 ?is_open@?$basic_filebuf@DU?$char_traits@D@std@@@std@@QBE_NXZ ; std::basic_filebuf<char,std::char_traits<char> >::is_open

; 1082 : 		}

  00017	5f		 pop	 edi
  00018	5e		 pop	 esi
  00019	5b		 pop	 ebx
  0001a	8b e5		 mov	 esp, ebp
  0001c	5d		 pop	 ebp
  0001d	c3		 ret	 0
?is_open@?$basic_ofstream@DU?$char_traits@D@std@@@std@@QBE_NXZ ENDP ; std::basic_ofstream<char,std::char_traits<char> >::is_open
_TEXT	ENDS
PUBLIC	??1?$basic_streambuf@DU?$char_traits@D@std@@@std@@UAE@XZ ; std::basic_streambuf<char,std::char_traits<char> >::~basic_streambuf<char,std::char_traits<char> >
PUBLIC	?close@?$basic_filebuf@DU?$char_traits@D@std@@@std@@QAEPAV12@XZ ; std::basic_filebuf<char,std::char_traits<char> >::close
PUBLIC	?_Reset_back@?$basic_filebuf@DU?$char_traits@D@std@@@std@@AAEXXZ ; std::basic_filebuf<char,std::char_traits<char> >::_Reset_back
PUBLIC	??_7?$basic_filebuf@DU?$char_traits@D@std@@@std@@6B@ ; std::basic_filebuf<char,std::char_traits<char> >::`vftable'
PUBLIC	??_R4?$basic_filebuf@DU?$char_traits@D@std@@@std@@6B@ ; std::basic_filebuf<char,std::char_traits<char> >::`RTTI Complete Object Locator'
PUBLIC	??_R0?AV?$basic_filebuf@DU?$char_traits@D@std@@@std@@@8 ; std::basic_filebuf<char,std::char_traits<char> > `RTTI Type Descriptor'
PUBLIC	??_R3?$basic_filebuf@DU?$char_traits@D@std@@@std@@8 ; std::basic_filebuf<char,std::char_traits<char> >::`RTTI Class Hierarchy Descriptor'
PUBLIC	??_R2?$basic_filebuf@DU?$char_traits@D@std@@@std@@8 ; std::basic_filebuf<char,std::char_traits<char> >::`RTTI Base Class Array'
PUBLIC	??_R1A@?0A@EA@?$basic_filebuf@DU?$char_traits@D@std@@@std@@8 ; std::basic_filebuf<char,std::char_traits<char> >::`RTTI Base Class Descriptor at (0,-1,0,64)'
PUBLIC	??_R1A@?0A@EA@?$basic_streambuf@DU?$char_traits@D@std@@@std@@8 ; std::basic_streambuf<char,std::char_traits<char> >::`RTTI Base Class Descriptor at (0,-1,0,64)'
PUBLIC	??_R0?AV?$basic_streambuf@DU?$char_traits@D@std@@@std@@@8 ; std::basic_streambuf<char,std::char_traits<char> > `RTTI Type Descriptor'
PUBLIC	??_R3?$basic_streambuf@DU?$char_traits@D@std@@@std@@8 ; std::basic_streambuf<char,std::char_traits<char> >::`RTTI Class Hierarchy Descriptor'
PUBLIC	??_R2?$basic_streambuf@DU?$char_traits@D@std@@@std@@8 ; std::basic_streambuf<char,std::char_traits<char> >::`RTTI Base Class Array'
PUBLIC	?_Lock@?$basic_filebuf@DU?$char_traits@D@std@@@std@@UAEXXZ ; std::basic_filebuf<char,std::char_traits<char> >::_Lock
PUBLIC	?_Unlock@?$basic_filebuf@DU?$char_traits@D@std@@@std@@UAEXXZ ; std::basic_filebuf<char,std::char_traits<char> >::_Unlock
PUBLIC	?overflow@?$basic_filebuf@DU?$char_traits@D@std@@@std@@MAEHH@Z ; std::basic_filebuf<char,std::char_traits<char> >::overflow
PUBLIC	?pbackfail@?$basic_filebuf@DU?$char_traits@D@std@@@std@@MAEHH@Z ; std::basic_filebuf<char,std::char_traits<char> >::pbackfail
PUBLIC	?showmanyc@?$basic_streambuf@DU?$char_traits@D@std@@@std@@MAE_JXZ ; std::basic_streambuf<char,std::char_traits<char> >::showmanyc
PUBLIC	?underflow@?$basic_filebuf@DU?$char_traits@D@std@@@std@@MAEHXZ ; std::basic_filebuf<char,std::char_traits<char> >::underflow
PUBLIC	?uflow@?$basic_filebuf@DU?$char_traits@D@std@@@std@@MAEHXZ ; std::basic_filebuf<char,std::char_traits<char> >::uflow
PUBLIC	?xsgetn@?$basic_streambuf@DU?$char_traits@D@std@@@std@@MAE_JPAD_J@Z ; std::basic_streambuf<char,std::char_traits<char> >::xsgetn
PUBLIC	?xsputn@?$basic_streambuf@DU?$char_traits@D@std@@@std@@MAE_JPBD_J@Z ; std::basic_streambuf<char,std::char_traits<char> >::xsputn
PUBLIC	?seekoff@?$basic_filebuf@DU?$char_traits@D@std@@@std@@MAE?AV?$fpos@H@2@_JHH@Z ; std::basic_filebuf<char,std::char_traits<char> >::seekoff
PUBLIC	?seekpos@?$basic_filebuf@DU?$char_traits@D@std@@@std@@MAE?AV?$fpos@H@2@V32@H@Z ; std::basic_filebuf<char,std::char_traits<char> >::seekpos
PUBLIC	?setbuf@?$basic_filebuf@DU?$char_traits@D@std@@@std@@MAEPAV?$basic_streambuf@DU?$char_traits@D@std@@@2@PAD_J@Z ; std::basic_filebuf<char,std::char_traits<char> >::setbuf
PUBLIC	?sync@?$basic_filebuf@DU?$char_traits@D@std@@@std@@MAEHXZ ; std::basic_filebuf<char,std::char_traits<char> >::sync
PUBLIC	?imbue@?$basic_filebuf@DU?$char_traits@D@std@@@std@@MAEXABVlocale@2@@Z ; std::basic_filebuf<char,std::char_traits<char> >::imbue
EXTRN	??_E?$basic_filebuf@DU?$char_traits@D@std@@@std@@UAEPAXI@Z:PROC ; std::basic_filebuf<char,std::char_traits<char> >::`vector deleting destructor'
;	COMDAT ??_R2?$basic_streambuf@DU?$char_traits@D@std@@@std@@8
rdata$r	SEGMENT
??_R2?$basic_streambuf@DU?$char_traits@D@std@@@std@@8 DD FLAT:??_R1A@?0A@EA@?$basic_streambuf@DU?$char_traits@D@std@@@std@@8 ; std::basic_streambuf<char,std::char_traits<char> >::`RTTI Base Class Array'
rdata$r	ENDS
;	COMDAT ??_R3?$basic_streambuf@DU?$char_traits@D@std@@@std@@8
rdata$r	SEGMENT
??_R3?$basic_streambuf@DU?$char_traits@D@std@@@std@@8 DD 00H ; std::basic_streambuf<char,std::char_traits<char> >::`RTTI Class Hierarchy Descriptor'
	DD	00H
	DD	01H
	DD	FLAT:??_R2?$basic_streambuf@DU?$char_traits@D@std@@@std@@8
rdata$r	ENDS
;	COMDAT ??_R0?AV?$basic_streambuf@DU?$char_traits@D@std@@@std@@@8
_DATA	SEGMENT
??_R0?AV?$basic_streambuf@DU?$char_traits@D@std@@@std@@@8 DD FLAT:??_7type_info@@6B@ ; std::basic_streambuf<char,std::char_traits<char> > `RTTI Type Descriptor'
	DD	00H
	DB	'.?AV?$basic_streambuf@DU?$char_traits@D@std@@@std@@', 00H
_DATA	ENDS
;	COMDAT ??_R1A@?0A@EA@?$basic_streambuf@DU?$char_traits@D@std@@@std@@8
rdata$r	SEGMENT
??_R1A@?0A@EA@?$basic_streambuf@DU?$char_traits@D@std@@@std@@8 DD FLAT:??_R0?AV?$basic_streambuf@DU?$char_traits@D@std@@@std@@@8 ; std::basic_streambuf<char,std::char_traits<char> >::`RTTI Base Class Descriptor at (0,-1,0,64)'
	DD	00H
	DD	00H
	DD	0ffffffffH
	DD	00H
	DD	040H
	DD	FLAT:??_R3?$basic_streambuf@DU?$char_traits@D@std@@@std@@8
rdata$r	ENDS
;	COMDAT ??_R1A@?0A@EA@?$basic_filebuf@DU?$char_traits@D@std@@@std@@8
rdata$r	SEGMENT
??_R1A@?0A@EA@?$basic_filebuf@DU?$char_traits@D@std@@@std@@8 DD FLAT:??_R0?AV?$basic_filebuf@DU?$char_traits@D@std@@@std@@@8 ; std::basic_filebuf<char,std::char_traits<char> >::`RTTI Base Class Descriptor at (0,-1,0,64)'
	DD	01H
	DD	00H
	DD	0ffffffffH
	DD	00H
	DD	040H
	DD	FLAT:??_R3?$basic_filebuf@DU?$char_traits@D@std@@@std@@8
rdata$r	ENDS
;	COMDAT ??_R2?$basic_filebuf@DU?$char_traits@D@std@@@std@@8
rdata$r	SEGMENT
??_R2?$basic_filebuf@DU?$char_traits@D@std@@@std@@8 DD FLAT:??_R1A@?0A@EA@?$basic_filebuf@DU?$char_traits@D@std@@@std@@8 ; std::basic_filebuf<char,std::char_traits<char> >::`RTTI Base Class Array'
	DD	FLAT:??_R1A@?0A@EA@?$basic_streambuf@DU?$char_traits@D@std@@@std@@8
rdata$r	ENDS
;	COMDAT ??_R3?$basic_filebuf@DU?$char_traits@D@std@@@std@@8
rdata$r	SEGMENT
??_R3?$basic_filebuf@DU?$char_traits@D@std@@@std@@8 DD 00H ; std::basic_filebuf<char,std::char_traits<char> >::`RTTI Class Hierarchy Descriptor'
	DD	00H
	DD	02H
	DD	FLAT:??_R2?$basic_filebuf@DU?$char_traits@D@std@@@std@@8
rdata$r	ENDS
;	COMDAT ??_R0?AV?$basic_filebuf@DU?$char_traits@D@std@@@std@@@8
_DATA	SEGMENT
??_R0?AV?$basic_filebuf@DU?$char_traits@D@std@@@std@@@8 DD FLAT:??_7type_info@@6B@ ; std::basic_filebuf<char,std::char_traits<char> > `RTTI Type Descriptor'
	DD	00H
	DB	'.?AV?$basic_filebuf@DU?$char_traits@D@std@@@std@@', 00H
_DATA	ENDS
;	COMDAT ??_R4?$basic_filebuf@DU?$char_traits@D@std@@@std@@6B@
rdata$r	SEGMENT
??_R4?$basic_filebuf@DU?$char_traits@D@std@@@std@@6B@ DD 00H ; std::basic_filebuf<char,std::char_traits<char> >::`RTTI Complete Object Locator'
	DD	00H
	DD	00H
	DD	FLAT:??_R0?AV?$basic_filebuf@DU?$char_traits@D@std@@@std@@@8
	DD	FLAT:??_R3?$basic_filebuf@DU?$char_traits@D@std@@@std@@8
rdata$r	ENDS
;	COMDAT ??_7?$basic_filebuf@DU?$char_traits@D@std@@@std@@6B@
CONST	SEGMENT
??_7?$basic_filebuf@DU?$char_traits@D@std@@@std@@6B@ DD FLAT:??_R4?$basic_filebuf@DU?$char_traits@D@std@@@std@@6B@ ; std::basic_filebuf<char,std::char_traits<char> >::`vftable'
	DD	FLAT:??_E?$basic_filebuf@DU?$char_traits@D@std@@@std@@UAEPAXI@Z
	DD	FLAT:?_Lock@?$basic_filebuf@DU?$char_traits@D@std@@@std@@UAEXXZ
	DD	FLAT:?_Unlock@?$basic_filebuf@DU?$char_traits@D@std@@@std@@UAEXXZ
	DD	FLAT:?overflow@?$basic_filebuf@DU?$char_traits@D@std@@@std@@MAEHH@Z
	DD	FLAT:?pbackfail@?$basic_filebuf@DU?$char_traits@D@std@@@std@@MAEHH@Z
	DD	FLAT:?showmanyc@?$basic_streambuf@DU?$char_traits@D@std@@@std@@MAE_JXZ
	DD	FLAT:?underflow@?$basic_filebuf@DU?$char_traits@D@std@@@std@@MAEHXZ
	DD	FLAT:?uflow@?$basic_filebuf@DU?$char_traits@D@std@@@std@@MAEHXZ
	DD	FLAT:?xsgetn@?$basic_streambuf@DU?$char_traits@D@std@@@std@@MAE_JPAD_J@Z
	DD	FLAT:?xsputn@?$basic_streambuf@DU?$char_traits@D@std@@@std@@MAE_JPBD_J@Z
	DD	FLAT:?seekoff@?$basic_filebuf@DU?$char_traits@D@std@@@std@@MAE?AV?$fpos@H@2@_JHH@Z
	DD	FLAT:?seekpos@?$basic_filebuf@DU?$char_traits@D@std@@@std@@MAE?AV?$fpos@H@2@V32@H@Z
	DD	FLAT:?setbuf@?$basic_filebuf@DU?$char_traits@D@std@@@std@@MAEPAV?$basic_streambuf@DU?$char_traits@D@std@@@2@PAD_J@Z
	DD	FLAT:?sync@?$basic_filebuf@DU?$char_traits@D@std@@@std@@MAEHXZ
	DD	FLAT:?imbue@?$basic_filebuf@DU?$char_traits@D@std@@@std@@MAEXABVlocale@2@@Z
CONST	ENDS
;	COMDAT xdata$x
xdata$x	SEGMENT
__unwindtable$??1?$basic_filebuf@DU?$char_traits@D@std@@@std@@UAE@XZ DD 0ffffffffH
	DD	FLAT:__unwindfunclet$??1?$basic_filebuf@DU?$char_traits@D@std@@@std@@UAE@XZ$0
__ehfuncinfo$??1?$basic_filebuf@DU?$char_traits@D@std@@@std@@UAE@XZ DD 019930522H
	DD	01H
	DD	FLAT:__unwindtable$??1?$basic_filebuf@DU?$char_traits@D@std@@@std@@UAE@XZ
	DD	2 DUP(00H)
	DD	2 DUP(00H)
	DD	00H
	DD	01H
; Function compile flags: /Odtp /ZI
xdata$x	ENDS
;	COMDAT ??1?$basic_filebuf@DU?$char_traits@D@std@@@std@@UAE@XZ
_TEXT	SEGMENT
_this$ = -16						; size = 4
__$EHRec$ = -12						; size = 12
??1?$basic_filebuf@DU?$char_traits@D@std@@@std@@UAE@XZ PROC ; std::basic_filebuf<char,std::char_traits<char> >::~basic_filebuf<char,std::char_traits<char> >, COMDAT
; _this$ = ecx

; 143  : 		{	// destroy the object

  00000	55		 push	 ebp
  00001	8b ec		 mov	 ebp, esp
  00003	6a ff		 push	 -1
  00005	68 00 00 00 00	 push	 __ehhandler$??1?$basic_filebuf@DU?$char_traits@D@std@@@std@@UAE@XZ
  0000a	64 a1 00 00 00
	00		 mov	 eax, DWORD PTR fs:0
  00010	50		 push	 eax
  00011	83 ec 44	 sub	 esp, 68			; 00000044H
  00014	53		 push	 ebx
  00015	56		 push	 esi
  00016	57		 push	 edi
  00017	a1 00 00 00 00	 mov	 eax, DWORD PTR ___security_cookie
  0001c	33 c5		 xor	 eax, ebp
  0001e	50		 push	 eax
  0001f	8d 45 f4	 lea	 eax, DWORD PTR __$EHRec$[ebp]
  00022	64 a3 00 00 00
	00		 mov	 DWORD PTR fs:0, eax
  00028	89 4d f0	 mov	 DWORD PTR _this$[ebp], ecx
  0002b	8b 45 f0	 mov	 eax, DWORD PTR _this$[ebp]
  0002e	c7 00 00 00 00
	00		 mov	 DWORD PTR [eax], OFFSET ??_7?$basic_filebuf@DU?$char_traits@D@std@@@std@@6B@
  00034	c7 45 fc 00 00
	00 00		 mov	 DWORD PTR __$EHRec$[ebp+8], 0

; 144  : 		if (_Myfile != 0)

  0003b	8b 45 f0	 mov	 eax, DWORD PTR _this$[ebp]
  0003e	83 78 54 00	 cmp	 DWORD PTR [eax+84], 0
  00042	74 08		 je	 SHORT $LN2@basic_file

; 145  : 			_Reset_back();	// revert from _Mychar buffer

  00044	8b 4d f0	 mov	 ecx, DWORD PTR _this$[ebp]
  00047	e8 00 00 00 00	 call	 ?_Reset_back@?$basic_filebuf@DU?$char_traits@D@std@@@std@@AAEXXZ ; std::basic_filebuf<char,std::char_traits<char> >::_Reset_back
$LN2@basic_file:

; 146  : 		if (_Closef)

  0004c	8b 45 f0	 mov	 eax, DWORD PTR _this$[ebp]
  0004f	0f b6 48 50	 movzx	 ecx, BYTE PTR [eax+80]
  00053	85 c9		 test	 ecx, ecx
  00055	74 08		 je	 SHORT $LN3@basic_file

; 147  : 			close();

  00057	8b 4d f0	 mov	 ecx, DWORD PTR _this$[ebp]
  0005a	e8 00 00 00 00	 call	 ?close@?$basic_filebuf@DU?$char_traits@D@std@@@std@@QAEPAV12@XZ ; std::basic_filebuf<char,std::char_traits<char> >::close
$LN3@basic_file:

; 148  : 		}

  0005f	c7 45 fc ff ff
	ff ff		 mov	 DWORD PTR __$EHRec$[ebp+8], -1
  00066	8b 4d f0	 mov	 ecx, DWORD PTR _this$[ebp]
  00069	e8 00 00 00 00	 call	 ??1?$basic_streambuf@DU?$char_traits@D@std@@@std@@UAE@XZ ; std::basic_streambuf<char,std::char_traits<char> >::~basic_streambuf<char,std::char_traits<char> >
  0006e	8b 4d f4	 mov	 ecx, DWORD PTR __$EHRec$[ebp]
  00071	64 89 0d 00 00
	00 00		 mov	 DWORD PTR fs:0, ecx
  00078	59		 pop	 ecx
  00079	5f		 pop	 edi
  0007a	5e		 pop	 esi
  0007b	5b		 pop	 ebx
  0007c	8b e5		 mov	 esp, ebp
  0007e	5d		 pop	 ebp
  0007f	c3		 ret	 0
_TEXT	ENDS
;	COMDAT text$x
text$x	SEGMENT
__unwindfunclet$??1?$basic_filebuf@DU?$char_traits@D@std@@@std@@UAE@XZ$0:
  00000	8b 4d f0	 mov	 ecx, DWORD PTR _this$[ebp]
  00003	e9 00 00 00 00	 jmp	 ??1?$basic_streambuf@DU?$char_traits@D@std@@@std@@UAE@XZ ; std::basic_streambuf<char,std::char_traits<char> >::~basic_streambuf<char,std::char_traits<char> >
__ehhandler$??1?$basic_filebuf@DU?$char_traits@D@std@@@std@@UAE@XZ:
  00008	8b 54 24 08	 mov	 edx, DWORD PTR [esp+8]
  0000c	8d 42 0c	 lea	 eax, DWORD PTR [edx+12]
  0000f	8b 4a ac	 mov	 ecx, DWORD PTR [edx-84]
  00012	33 c8		 xor	 ecx, eax
  00014	e8 00 00 00 00	 call	 @__security_check_cookie@4
  00019	b8 00 00 00 00	 mov	 eax, OFFSET __ehfuncinfo$??1?$basic_filebuf@DU?$char_traits@D@std@@@std@@UAE@XZ
  0001e	e9 00 00 00 00	 jmp	 ___CxxFrameHandler3
text$x	ENDS
??1?$basic_filebuf@DU?$char_traits@D@std@@@std@@UAE@XZ ENDP ; std::basic_filebuf<char,std::char_traits<char> >::~basic_filebuf<char,std::char_traits<char> >
EXTRN	__lock_file:PROC
; Function compile flags: /Odtp /ZI
;	COMDAT ?_Lock@?$basic_filebuf@DU?$char_traits@D@std@@@std@@UAEXXZ
_TEXT	SEGMENT
_this$ = -4						; size = 4
?_Lock@?$basic_filebuf@DU?$char_traits@D@std@@@std@@UAEXXZ PROC ; std::basic_filebuf<char,std::char_traits<char> >::_Lock, COMDAT
; _this$ = ecx

; 308  : 		{	// lock file instead of stream buffer

  00000	55		 push	 ebp
  00001	8b ec		 mov	 ebp, esp
  00003	83 ec 44	 sub	 esp, 68			; 00000044H
  00006	53		 push	 ebx
  00007	56		 push	 esi
  00008	57		 push	 edi
  00009	89 4d fc	 mov	 DWORD PTR _this$[ebp], ecx

; 309  : 		if (_Myfile)

  0000c	8b 45 fc	 mov	 eax, DWORD PTR _this$[ebp]
  0000f	83 78 54 00	 cmp	 DWORD PTR [eax+84], 0
  00013	74 0f		 je	 SHORT $LN2@Lock

; 310  : 			_CSTD _lock_file(_Myfile);

  00015	8b 45 fc	 mov	 eax, DWORD PTR _this$[ebp]
  00018	8b 48 54	 mov	 ecx, DWORD PTR [eax+84]
  0001b	51		 push	 ecx
  0001c	e8 00 00 00 00	 call	 __lock_file
  00021	83 c4 04	 add	 esp, 4
$LN2@Lock:

; 311  : 		}

  00024	5f		 pop	 edi
  00025	5e		 pop	 esi
  00026	5b		 pop	 ebx
  00027	8b e5		 mov	 esp, ebp
  00029	5d		 pop	 ebp
  0002a	c3		 ret	 0
?_Lock@?$basic_filebuf@DU?$char_traits@D@std@@@std@@UAEXXZ ENDP ; std::basic_filebuf<char,std::char_traits<char> >::_Lock
_TEXT	ENDS
EXTRN	__unlock_file:PROC
; Function compile flags: /Odtp /ZI
;	COMDAT ?_Unlock@?$basic_filebuf@DU?$char_traits@D@std@@@std@@UAEXXZ
_TEXT	SEGMENT
_this$ = -4						; size = 4
?_Unlock@?$basic_filebuf@DU?$char_traits@D@std@@@std@@UAEXXZ PROC ; std::basic_filebuf<char,std::char_traits<char> >::_Unlock, COMDAT
; _this$ = ecx

; 314  : 		{	// unlock file instead of stream buffer

  00000	55		 push	 ebp
  00001	8b ec		 mov	 ebp, esp
  00003	83 ec 44	 sub	 esp, 68			; 00000044H
  00006	53		 push	 ebx
  00007	56		 push	 esi
  00008	57		 push	 edi
  00009	89 4d fc	 mov	 DWORD PTR _this$[ebp], ecx

; 315  : 		if (_Myfile)

  0000c	8b 45 fc	 mov	 eax, DWORD PTR _this$[ebp]
  0000f	83 78 54 00	 cmp	 DWORD PTR [eax+84], 0
  00013	74 0f		 je	 SHORT $LN2@Unlock

; 316  : 			_CSTD _unlock_file(_Myfile);

  00015	8b 45 fc	 mov	 eax, DWORD PTR _this$[ebp]
  00018	8b 48 54	 mov	 ecx, DWORD PTR [eax+84]
  0001b	51		 push	 ecx
  0001c	e8 00 00 00 00	 call	 __unlock_file
  00021	83 c4 04	 add	 esp, 4
$LN2@Unlock:

; 317  : 		}

  00024	5f		 pop	 edi
  00025	5e		 pop	 esi
  00026	5b		 pop	 ebx
  00027	8b e5		 mov	 esp, ebp
  00029	5d		 pop	 ebp
  0002a	c3		 ret	 0
?_Unlock@?$basic_filebuf@DU?$char_traits@D@std@@@std@@UAEXXZ ENDP ; std::basic_filebuf<char,std::char_traits<char> >::_Unlock
_TEXT	ENDS
PUBLIC	?append@?$basic_string@DU?$char_traits@D@std@@V?$allocator@D@2@@std@@QAEAAV12@ID@Z ; std::basic_string<char,std::char_traits<char>,std::allocator<char> >::append
PUBLIC	??1?$basic_string@DU?$char_traits@D@std@@V?$allocator@D@2@@std@@QAE@XZ ; std::basic_string<char,std::char_traits<char>,std::allocator<char> >::~basic_string<char,std::char_traits<char>,std::allocator<char> >
PUBLIC	?out@?$codecvt@DDH@std@@QBEHAAHPBD1AAPBDPAD3AAPAD@Z ; std::codecvt<char,char,int>::out
PUBLIC	?size@?$basic_string@DU?$char_traits@D@std@@V?$allocator@D@2@@std@@QBEIXZ ; std::basic_string<char,std::char_traits<char>,std::allocator<char> >::size
PUBLIC	??D?$_String_iterator@DU?$char_traits@D@std@@V?$allocator@D@2@@std@@QBEAADXZ ; std::_String_iterator<char,std::char_traits<char>,std::allocator<char> >::operator*
PUBLIC	?begin@?$basic_string@DU?$char_traits@D@std@@V?$allocator@D@2@@std@@QAE?AV?$_String_iterator@DU?$char_traits@D@std@@V?$allocator@D@2@@2@XZ ; std::basic_string<char,std::char_traits<char>,std::allocator<char> >::begin
PUBLIC	??0?$basic_string@DU?$char_traits@D@std@@V?$allocator@D@2@@std@@QAE@ID@Z ; std::basic_string<char,std::char_traits<char>,std::allocator<char> >::basic_string<char,std::char_traits<char>,std::allocator<char> >
PUBLIC	??$_Fputc@D@std@@YA_NDPAU_iobuf@@@Z		; std::_Fputc<char>
PUBLIC	?_Pninc@?$basic_streambuf@DU?$char_traits@D@std@@@std@@IAEPADXZ ; std::basic_streambuf<char,std::char_traits<char> >::_Pninc
PUBLIC	?to_char_type@?$char_traits@D@std@@SADABH@Z	; std::char_traits<char>::to_char_type
PUBLIC	?epptr@?$basic_streambuf@DU?$char_traits@D@std@@@std@@IBEPADXZ ; std::basic_streambuf<char,std::char_traits<char> >::epptr
PUBLIC	?pptr@?$basic_streambuf@DU?$char_traits@D@std@@@std@@IBEPADXZ ; std::basic_streambuf<char,std::char_traits<char> >::pptr
PUBLIC	?not_eof@?$char_traits@D@std@@SAHABH@Z		; std::char_traits<char>::not_eof
PUBLIC	?eq_int_type@?$char_traits@D@std@@SA_NABH0@Z	; std::char_traits<char>::eq_int_type
PUBLIC	?eof@?$char_traits@D@std@@SAHXZ			; std::char_traits<char>::eof
PUBLIC	__$ArrayPad$
EXTRN	_fwrite:PROC
;	COMDAT xdata$x
xdata$x	SEGMENT
__unwindtable$?overflow@?$basic_filebuf@DU?$char_traits@D@std@@@std@@MAEHH@Z DD 0ffffffffH
	DD	FLAT:__unwindfunclet$?overflow@?$basic_filebuf@DU?$char_traits@D@std@@@std@@MAEHH@Z$0
__ehfuncinfo$?overflow@?$basic_filebuf@DU?$char_traits@D@std@@@std@@MAEHH@Z DD 019930522H
	DD	01H
	DD	FLAT:__unwindtable$?overflow@?$basic_filebuf@DU?$char_traits@D@std@@@std@@MAEHH@Z
	DD	2 DUP(00H)
	DD	2 DUP(00H)
	DD	00H
	DD	01H
; Function compile flags: /Odtp /ZI
xdata$x	ENDS
;	COMDAT ?overflow@?$basic_filebuf@DU?$char_traits@D@std@@@std@@MAEHH@Z
_TEXT	SEGMENT
tv218 = -176						; size = 4
tv180 = -176						; size = 4
tv147 = -176						; size = 4
$T225929 = -172						; size = 4
$T225932 = -168						; size = 4
$T225933 = -164						; size = 4
$T225934 = -160						; size = 4
$T225935 = -156						; size = 4
$T225936 = -152						; size = 4
$T225937 = -148						; size = 4
$T225938 = -144						; size = 4
$T225939 = -140						; size = 4
$T225942 = -136						; size = 4
__Count$224893 = -68					; size = 4
__Str$224799 = -64					; size = 28
__Dest$224798 = -36					; size = 4
__Src$224797 = -32					; size = 4
__Ch$224796 = -26					; size = 1
__STRING_INC$224795 = -24				; size = 4
_this$ = -20						; size = 4
__$ArrayPad$ = -16					; size = 4
__$EHRec$ = -12						; size = 12
__Meta$ = 8						; size = 4
?overflow@?$basic_filebuf@DU?$char_traits@D@std@@@std@@MAEHH@Z PROC ; std::basic_filebuf<char,std::char_traits<char> >::overflow, COMDAT
; _this$ = ecx

; 322  : 		{	// put an element to stream

  00000	55		 push	 ebp
  00001	8b ec		 mov	 ebp, esp
  00003	6a ff		 push	 -1
  00005	68 00 00 00 00	 push	 __ehhandler$?overflow@?$basic_filebuf@DU?$char_traits@D@std@@@std@@MAEHH@Z
  0000a	64 a1 00 00 00
	00		 mov	 eax, DWORD PTR fs:0
  00010	50		 push	 eax
  00011	81 ec a4 00 00
	00		 sub	 esp, 164		; 000000a4H
  00017	a1 00 00 00 00	 mov	 eax, DWORD PTR ___security_cookie
  0001c	33 c5		 xor	 eax, ebp
  0001e	89 45 f0	 mov	 DWORD PTR __$ArrayPad$[ebp], eax
  00021	53		 push	 ebx
  00022	56		 push	 esi
  00023	57		 push	 edi
  00024	50		 push	 eax
  00025	8d 45 f4	 lea	 eax, DWORD PTR __$EHRec$[ebp]
  00028	64 a3 00 00 00
	00		 mov	 DWORD PTR fs:0, eax
  0002e	89 4d ec	 mov	 DWORD PTR _this$[ebp], ecx

; 323  : 		if (_Traits::eq_int_type(_Traits::eof(), _Meta))

  00031	e8 00 00 00 00	 call	 ?eof@?$char_traits@D@std@@SAHXZ ; std::char_traits<char>::eof
  00036	89 85 54 ff ff
	ff		 mov	 DWORD PTR $T225929[ebp], eax
  0003c	8d 45 08	 lea	 eax, DWORD PTR __Meta$[ebp]
  0003f	50		 push	 eax
  00040	8d 8d 54 ff ff
	ff		 lea	 ecx, DWORD PTR $T225929[ebp]
  00046	51		 push	 ecx
  00047	e8 00 00 00 00	 call	 ?eq_int_type@?$char_traits@D@std@@SA_NABH0@Z ; std::char_traits<char>::eq_int_type
  0004c	83 c4 08	 add	 esp, 8
  0004f	0f b6 d0	 movzx	 edx, al
  00052	85 d2		 test	 edx, edx
  00054	74 13		 je	 SHORT $LN20@overflow

; 324  : 			return (_Traits::not_eof(_Meta));	// EOF, return success code

  00056	8d 45 08	 lea	 eax, DWORD PTR __Meta$[ebp]
  00059	50		 push	 eax
  0005a	e8 00 00 00 00	 call	 ?not_eof@?$char_traits@D@std@@SAHABH@Z ; std::char_traits<char>::not_eof
  0005f	83 c4 04	 add	 esp, 4
  00062	e9 e7 02 00 00	 jmp	 $LN21@overflow

; 325  : 		else if (_Mysb::pptr() != 0

  00067	eb 57		 jmp	 SHORT $LN19@overflow
$LN20@overflow:

; 326  : 			&& _Mysb::pptr() < _Mysb::epptr())

  00069	8b 4d ec	 mov	 ecx, DWORD PTR _this$[ebp]
  0006c	e8 00 00 00 00	 call	 ?pptr@?$basic_streambuf@DU?$char_traits@D@std@@@std@@IBEPADXZ ; std::basic_streambuf<char,std::char_traits<char> >::pptr
  00071	85 c0		 test	 eax, eax
  00073	74 38		 je	 SHORT $LN18@overflow
  00075	8b 4d ec	 mov	 ecx, DWORD PTR _this$[ebp]
  00078	e8 00 00 00 00	 call	 ?pptr@?$basic_streambuf@DU?$char_traits@D@std@@@std@@IBEPADXZ ; std::basic_streambuf<char,std::char_traits<char> >::pptr
  0007d	8b f0		 mov	 esi, eax
  0007f	8b 4d ec	 mov	 ecx, DWORD PTR _this$[ebp]
  00082	e8 00 00 00 00	 call	 ?epptr@?$basic_streambuf@DU?$char_traits@D@std@@@std@@IBEPADXZ ; std::basic_streambuf<char,std::char_traits<char> >::epptr
  00087	3b f0		 cmp	 esi, eax
  00089	73 22		 jae	 SHORT $LN18@overflow

; 327  : 			{	// room in buffer, store it
; 328  : 			*_Mysb::_Pninc() = _Traits::to_char_type(_Meta);

  0008b	8d 45 08	 lea	 eax, DWORD PTR __Meta$[ebp]
  0008e	50		 push	 eax
  0008f	e8 00 00 00 00	 call	 ?to_char_type@?$char_traits@D@std@@SADABH@Z ; std::char_traits<char>::to_char_type
  00094	83 c4 04	 add	 esp, 4
  00097	8a d8		 mov	 bl, al
  00099	8b 4d ec	 mov	 ecx, DWORD PTR _this$[ebp]
  0009c	e8 00 00 00 00	 call	 ?_Pninc@?$basic_streambuf@DU?$char_traits@D@std@@@std@@IAEPADXZ ; std::basic_streambuf<char,std::char_traits<char> >::_Pninc
  000a1	88 18		 mov	 BYTE PTR [eax], bl

; 329  : 			return (_Meta);

  000a3	8b 45 08	 mov	 eax, DWORD PTR __Meta$[ebp]
  000a6	e9 a3 02 00 00	 jmp	 $LN21@overflow
  000ab	eb 13		 jmp	 SHORT $LN19@overflow
$LN18@overflow:

; 330  : 			}
; 331  : 		else if (_Myfile == 0)

  000ad	8b 45 ec	 mov	 eax, DWORD PTR _this$[ebp]
  000b0	83 78 54 00	 cmp	 DWORD PTR [eax+84], 0
  000b4	75 0a		 jne	 SHORT $LN19@overflow

; 332  : 			return (_Traits::eof());	// no open C stream, fail

  000b6	e8 00 00 00 00	 call	 ?eof@?$char_traits@D@std@@SAHXZ ; std::char_traits<char>::eof
  000bb	e9 8e 02 00 00	 jmp	 $LN21@overflow
$LN19@overflow:

; 333  : 		_Reset_back();	// revert from _Mychar buffer

  000c0	8b 4d ec	 mov	 ecx, DWORD PTR _this$[ebp]
  000c3	e8 00 00 00 00	 call	 ?_Reset_back@?$basic_filebuf@DU?$char_traits@D@std@@@std@@AAEXXZ ; std::basic_filebuf<char,std::char_traits<char> >::_Reset_back

; 334  : 		if (_Pcvt == 0)

  000c8	8b 45 ec	 mov	 eax, DWORD PTR _this$[ebp]
  000cb	83 78 44 00	 cmp	 DWORD PTR [eax+68], 0
  000cf	75 4c		 jne	 SHORT $LN15@overflow

; 335  : 			return (_Fputc(_Traits::to_char_type(_Meta), _Myfile)
; 336  : 				? _Meta : _Traits::eof());	// no codecvt facet, put as is

  000d1	8b 45 ec	 mov	 eax, DWORD PTR _this$[ebp]
  000d4	8b 48 54	 mov	 ecx, DWORD PTR [eax+84]
  000d7	51		 push	 ecx
  000d8	8d 55 08	 lea	 edx, DWORD PTR __Meta$[ebp]
  000db	52		 push	 edx
  000dc	e8 00 00 00 00	 call	 ?to_char_type@?$char_traits@D@std@@SADABH@Z ; std::char_traits<char>::to_char_type
  000e1	83 c4 04	 add	 esp, 4
  000e4	0f b6 c0	 movzx	 eax, al
  000e7	50		 push	 eax
  000e8	e8 00 00 00 00	 call	 ??$_Fputc@D@std@@YA_NDPAU_iobuf@@@Z ; std::_Fputc<char>
  000ed	83 c4 08	 add	 esp, 8
  000f0	0f b6 c8	 movzx	 ecx, al
  000f3	85 c9		 test	 ecx, ecx
  000f5	74 0b		 je	 SHORT $LN23@overflow
  000f7	8b 55 08	 mov	 edx, DWORD PTR __Meta$[ebp]
  000fa	89 95 50 ff ff
	ff		 mov	 DWORD PTR tv147[ebp], edx
  00100	eb 0b		 jmp	 SHORT $LN24@overflow
$LN23@overflow:
  00102	e8 00 00 00 00	 call	 ?eof@?$char_traits@D@std@@SAHXZ ; std::char_traits<char>::eof
  00107	89 85 50 ff ff
	ff		 mov	 DWORD PTR tv147[ebp], eax
$LN24@overflow:
  0010d	8b 85 50 ff ff
	ff		 mov	 eax, DWORD PTR tv147[ebp]
  00113	e9 36 02 00 00	 jmp	 $LN21@overflow

; 337  : 		else

  00118	e9 31 02 00 00	 jmp	 $LN21@overflow
$LN15@overflow:

; 338  : 			{	// put using codecvt facet
; 339  : 			const int _STRING_INC = 8;

  0011d	c7 45 e8 08 00
	00 00		 mov	 DWORD PTR __STRING_INC$224795[ebp], 8

; 340  : 			const _Elem _Ch = _Traits::to_char_type(_Meta);

  00124	8d 45 08	 lea	 eax, DWORD PTR __Meta$[ebp]
  00127	50		 push	 eax
  00128	e8 00 00 00 00	 call	 ?to_char_type@?$char_traits@D@std@@SADABH@Z ; std::char_traits<char>::to_char_type
  0012d	83 c4 04	 add	 esp, 4
  00130	88 45 e6	 mov	 BYTE PTR __Ch$224796[ebp], al

; 341  : 			const _Elem *_Src;
; 342  : 			char *_Dest;
; 343  : 
; 344  : 			string _Str(_STRING_INC, '\0');

  00133	6a 00		 push	 0
  00135	6a 08		 push	 8
  00137	8d 4d c0	 lea	 ecx, DWORD PTR __Str$224799[ebp]
  0013a	e8 00 00 00 00	 call	 ??0?$basic_string@DU?$char_traits@D@std@@V?$allocator@D@2@@std@@QAE@ID@Z ; std::basic_string<char,std::char_traits<char>,std::allocator<char> >::basic_string<char,std::char_traits<char>,std::allocator<char> >
  0013f	c7 45 fc 00 00
	00 00		 mov	 DWORD PTR __$EHRec$[ebp+8], 0
$LN13@overflow:

; 345  : 			for (; ; )
; 346  : 				switch (_Pcvt->out(_State,
; 347  : 					&_Ch, &_Ch + 1, _Src,
; 348  : 					&*_Str.begin(), &*_Str.begin() + _Str.size(), _Dest))

  00146	8d 45 dc	 lea	 eax, DWORD PTR __Dest$224798[ebp]
  00149	50		 push	 eax
  0014a	8d 8d 58 ff ff
	ff		 lea	 ecx, DWORD PTR $T225932[ebp]
  00150	51		 push	 ecx
  00151	8d 4d c0	 lea	 ecx, DWORD PTR __Str$224799[ebp]
  00154	e8 00 00 00 00	 call	 ?begin@?$basic_string@DU?$char_traits@D@std@@V?$allocator@D@2@@std@@QAE?AV?$_String_iterator@DU?$char_traits@D@std@@V?$allocator@D@2@@2@XZ ; std::basic_string<char,std::char_traits<char>,std::allocator<char> >::begin
  00159	8b c8		 mov	 ecx, eax
  0015b	e8 00 00 00 00	 call	 ??D?$_String_iterator@DU?$char_traits@D@std@@V?$allocator@D@2@@std@@QBEAADXZ ; std::_String_iterator<char,std::char_traits<char>,std::allocator<char> >::operator*
  00160	8b f0		 mov	 esi, eax
  00162	8d 4d c0	 lea	 ecx, DWORD PTR __Str$224799[ebp]
  00165	e8 00 00 00 00	 call	 ?size@?$basic_string@DU?$char_traits@D@std@@V?$allocator@D@2@@std@@QBEIXZ ; std::basic_string<char,std::char_traits<char>,std::allocator<char> >::size
  0016a	03 f0		 add	 esi, eax
  0016c	56		 push	 esi
  0016d	8d 95 5c ff ff
	ff		 lea	 edx, DWORD PTR $T225933[ebp]
  00173	52		 push	 edx
  00174	8d 4d c0	 lea	 ecx, DWORD PTR __Str$224799[ebp]
  00177	e8 00 00 00 00	 call	 ?begin@?$basic_string@DU?$char_traits@D@std@@V?$allocator@D@2@@std@@QAE?AV?$_String_iterator@DU?$char_traits@D@std@@V?$allocator@D@2@@2@XZ ; std::basic_string<char,std::char_traits<char>,std::allocator<char> >::begin
  0017c	8b c8		 mov	 ecx, eax
  0017e	e8 00 00 00 00	 call	 ??D?$_String_iterator@DU?$char_traits@D@std@@V?$allocator@D@2@@std@@QBEAADXZ ; std::_String_iterator<char,std::char_traits<char>,std::allocator<char> >::operator*
  00183	50		 push	 eax
  00184	8d 45 e0	 lea	 eax, DWORD PTR __Src$224797[ebp]
  00187	50		 push	 eax
  00188	8d 4d e7	 lea	 ecx, DWORD PTR __Ch$224796[ebp+1]
  0018b	51		 push	 ecx
  0018c	8d 55 e6	 lea	 edx, DWORD PTR __Ch$224796[ebp]
  0018f	52		 push	 edx
  00190	8b 45 ec	 mov	 eax, DWORD PTR _this$[ebp]
  00193	83 c0 4c	 add	 eax, 76			; 0000004cH
  00196	50		 push	 eax
  00197	8b 4d ec	 mov	 ecx, DWORD PTR _this$[ebp]
  0019a	8b 49 44	 mov	 ecx, DWORD PTR [ecx+68]
  0019d	e8 00 00 00 00	 call	 ?out@?$codecvt@DDH@std@@QBEHAAHPBD1AAPBDPAD3AAPAD@Z ; std::codecvt<char,char,int>::out
  001a2	89 85 50 ff ff
	ff		 mov	 DWORD PTR tv180[ebp], eax
  001a8	83 bd 50 ff ff
	ff 00		 cmp	 DWORD PTR tv180[ebp], 0
  001af	0f 8c 63 01 00
	00		 jl	 $LN1@overflow
  001b5	83 bd 50 ff ff
	ff 01		 cmp	 DWORD PTR tv180[ebp], 1
  001bc	7e 12		 jle	 SHORT $LN9@overflow
  001be	83 bd 50 ff ff
	ff 03		 cmp	 DWORD PTR tv180[ebp], 3
  001c5	0f 84 f9 00 00
	00		 je	 $LN2@overflow
  001cb	e9 48 01 00 00	 jmp	 $LN1@overflow
$LN9@overflow:

; 349  : 				{	// test result of converting one element
; 350  : 				case codecvt_base::partial:
; 351  : 				case codecvt_base::ok:
; 352  : 					{	// converted something, try to put it out
; 353  : 					size_t _Count = _Dest - &*_Str.begin();

  001d0	8d 85 60 ff ff
	ff		 lea	 eax, DWORD PTR $T225934[ebp]
  001d6	50		 push	 eax
  001d7	8d 4d c0	 lea	 ecx, DWORD PTR __Str$224799[ebp]
  001da	e8 00 00 00 00	 call	 ?begin@?$basic_string@DU?$char_traits@D@std@@V?$allocator@D@2@@std@@QAE?AV?$_String_iterator@DU?$char_traits@D@std@@V?$allocator@D@2@@2@XZ ; std::basic_string<char,std::char_traits<char>,std::allocator<char> >::begin
  001df	8b c8		 mov	 ecx, eax
  001e1	e8 00 00 00 00	 call	 ??D?$_String_iterator@DU?$char_traits@D@std@@V?$allocator@D@2@@std@@QBEAADXZ ; std::_String_iterator<char,std::char_traits<char>,std::allocator<char> >::operator*
  001e6	8b 4d dc	 mov	 ecx, DWORD PTR __Dest$224798[ebp]
  001e9	2b c8		 sub	 ecx, eax
  001eb	89 4d bc	 mov	 DWORD PTR __Count$224893[ebp], ecx

; 354  : 					if (0 < _Count && _Count !=
; 355  : 						fwrite(&*_Str.begin(), 1, _Count, _Myfile))

  001ee	74 56		 je	 SHORT $LN8@overflow
  001f0	8b 45 ec	 mov	 eax, DWORD PTR _this$[ebp]
  001f3	8b 48 54	 mov	 ecx, DWORD PTR [eax+84]
  001f6	51		 push	 ecx
  001f7	8b 55 bc	 mov	 edx, DWORD PTR __Count$224893[ebp]
  001fa	52		 push	 edx
  001fb	6a 01		 push	 1
  001fd	8d 85 64 ff ff
	ff		 lea	 eax, DWORD PTR $T225935[ebp]
  00203	50		 push	 eax
  00204	8d 4d c0	 lea	 ecx, DWORD PTR __Str$224799[ebp]
  00207	e8 00 00 00 00	 call	 ?begin@?$basic_string@DU?$char_traits@D@std@@V?$allocator@D@2@@std@@QAE?AV?$_String_iterator@DU?$char_traits@D@std@@V?$allocator@D@2@@2@XZ ; std::basic_string<char,std::char_traits<char>,std::allocator<char> >::begin
  0020c	8b c8		 mov	 ecx, eax
  0020e	e8 00 00 00 00	 call	 ??D?$_String_iterator@DU?$char_traits@D@std@@V?$allocator@D@2@@std@@QBEAADXZ ; std::_String_iterator<char,std::char_traits<char>,std::allocator<char> >::operator*
  00213	50		 push	 eax
  00214	e8 00 00 00 00	 call	 _fwrite
  00219	83 c4 10	 add	 esp, 16			; 00000010H
  0021c	39 45 bc	 cmp	 DWORD PTR __Count$224893[ebp], eax
  0021f	74 25		 je	 SHORT $LN8@overflow

; 356  : 						return (_Traits::eof());	// write failed

  00221	e8 00 00 00 00	 call	 ?eof@?$char_traits@D@std@@SAHXZ ; std::char_traits<char>::eof
  00226	89 85 68 ff ff
	ff		 mov	 DWORD PTR $T225936[ebp], eax
  0022c	c7 45 fc ff ff
	ff ff		 mov	 DWORD PTR __$EHRec$[ebp+8], -1
  00233	8d 4d c0	 lea	 ecx, DWORD PTR __Str$224799[ebp]
  00236	e8 00 00 00 00	 call	 ??1?$basic_string@DU?$char_traits@D@std@@V?$allocator@D@2@@std@@QAE@XZ ; std::basic_string<char,std::char_traits<char>,std::allocator<char> >::~basic_string<char,std::char_traits<char>,std::allocator<char> >
  0023b	8b 85 68 ff ff
	ff		 mov	 eax, DWORD PTR $T225936[ebp]
  00241	e9 08 01 00 00	 jmp	 $LN21@overflow
$LN8@overflow:

; 357  : 
; 358  : 					_Wrotesome = true;	// write succeeded

  00246	8b 45 ec	 mov	 eax, DWORD PTR _this$[ebp]
  00249	c6 40 49 01	 mov	 BYTE PTR [eax+73], 1

; 359  : 					if (_Src != &_Ch)

  0024d	8b 45 e0	 mov	 eax, DWORD PTR __Src$224797[ebp]
  00250	8d 4d e6	 lea	 ecx, DWORD PTR __Ch$224796[ebp]
  00253	3b c1		 cmp	 eax, ecx
  00255	74 23		 je	 SHORT $LN7@overflow

; 360  : 						return (_Meta);	// converted whole element

  00257	8b 45 08	 mov	 eax, DWORD PTR __Meta$[ebp]
  0025a	89 85 6c ff ff
	ff		 mov	 DWORD PTR $T225937[ebp], eax
  00260	c7 45 fc ff ff
	ff ff		 mov	 DWORD PTR __$EHRec$[ebp+8], -1
  00267	8d 4d c0	 lea	 ecx, DWORD PTR __Str$224799[ebp]
  0026a	e8 00 00 00 00	 call	 ??1?$basic_string@DU?$char_traits@D@std@@V?$allocator@D@2@@std@@QAE@XZ ; std::basic_string<char,std::char_traits<char>,std::allocator<char> >::~basic_string<char,std::char_traits<char>,std::allocator<char> >
  0026f	8b 85 6c ff ff
	ff		 mov	 eax, DWORD PTR $T225937[ebp]
  00275	e9 d4 00 00 00	 jmp	 $LN21@overflow
$LN7@overflow:

; 361  : 
; 362  : 					if (0 < _Count)

  0027a	83 7d bc 00	 cmp	 DWORD PTR __Count$224893[ebp], 0
  0027e	76 02		 jbe	 SHORT $LN6@overflow
  00280	eb 40		 jmp	 SHORT $LN5@overflow
$LN6@overflow:

; 363  : 						;
; 364  : 					else if (_Str.size() < 4 * _STRING_INC)

  00282	8d 4d c0	 lea	 ecx, DWORD PTR __Str$224799[ebp]
  00285	e8 00 00 00 00	 call	 ?size@?$basic_string@DU?$char_traits@D@std@@V?$allocator@D@2@@std@@QBEIXZ ; std::basic_string<char,std::char_traits<char>,std::allocator<char> >::size
  0028a	83 f8 20	 cmp	 eax, 32			; 00000020H
  0028d	73 0e		 jae	 SHORT $LN4@overflow

; 365  : 						_Str.append(_STRING_INC, '\0');	// try with more space

  0028f	6a 00		 push	 0
  00291	6a 08		 push	 8
  00293	8d 4d c0	 lea	 ecx, DWORD PTR __Str$224799[ebp]
  00296	e8 00 00 00 00	 call	 ?append@?$basic_string@DU?$char_traits@D@std@@V?$allocator@D@2@@std@@QAEAAV12@ID@Z ; std::basic_string<char,std::char_traits<char>,std::allocator<char> >::append

; 366  : 					else

  0029b	eb 25		 jmp	 SHORT $LN5@overflow
$LN4@overflow:

; 367  : 						return (_Traits::eof());	// conversion failed

  0029d	e8 00 00 00 00	 call	 ?eof@?$char_traits@D@std@@SAHXZ ; std::char_traits<char>::eof
  002a2	89 85 70 ff ff
	ff		 mov	 DWORD PTR $T225938[ebp], eax
  002a8	c7 45 fc ff ff
	ff ff		 mov	 DWORD PTR __$EHRec$[ebp+8], -1
  002af	8d 4d c0	 lea	 ecx, DWORD PTR __Str$224799[ebp]
  002b2	e8 00 00 00 00	 call	 ??1?$basic_string@DU?$char_traits@D@std@@V?$allocator@D@2@@std@@QAE@XZ ; std::basic_string<char,std::char_traits<char>,std::allocator<char> >::~basic_string<char,std::char_traits<char>,std::allocator<char> >
  002b7	8b 85 70 ff ff
	ff		 mov	 eax, DWORD PTR $T225938[ebp]
  002bd	e9 8c 00 00 00	 jmp	 $LN21@overflow
$LN5@overflow:

; 368  : 					break;

  002c2	eb 76		 jmp	 SHORT $LN10@overflow
$LN2@overflow:

; 369  : 					}
; 370  : 
; 371  : 				case codecvt_base::noconv:
; 372  : 					return (_Fputc(_Ch, _Myfile) ? _Meta
; 373  : 						: _Traits::eof());	// no conversion, put as is

  002c4	8b 45 ec	 mov	 eax, DWORD PTR _this$[ebp]
  002c7	8b 48 54	 mov	 ecx, DWORD PTR [eax+84]
  002ca	51		 push	 ecx
  002cb	0f b6 55 e6	 movzx	 edx, BYTE PTR __Ch$224796[ebp]
  002cf	52		 push	 edx
  002d0	e8 00 00 00 00	 call	 ??$_Fputc@D@std@@YA_NDPAU_iobuf@@@Z ; std::_Fputc<char>
  002d5	83 c4 08	 add	 esp, 8
  002d8	0f b6 c0	 movzx	 eax, al
  002db	85 c0		 test	 eax, eax
  002dd	74 0b		 je	 SHORT $LN25@overflow
  002df	8b 4d 08	 mov	 ecx, DWORD PTR __Meta$[ebp]
  002e2	89 8d 50 ff ff
	ff		 mov	 DWORD PTR tv218[ebp], ecx
  002e8	eb 0b		 jmp	 SHORT $LN26@overflow
$LN25@overflow:
  002ea	e8 00 00 00 00	 call	 ?eof@?$char_traits@D@std@@SAHXZ ; std::char_traits<char>::eof
  002ef	89 85 50 ff ff
	ff		 mov	 DWORD PTR tv218[ebp], eax
$LN26@overflow:
  002f5	8b 95 50 ff ff
	ff		 mov	 edx, DWORD PTR tv218[ebp]
  002fb	89 95 74 ff ff
	ff		 mov	 DWORD PTR $T225939[ebp], edx
  00301	c7 45 fc ff ff
	ff ff		 mov	 DWORD PTR __$EHRec$[ebp+8], -1
  00308	8d 4d c0	 lea	 ecx, DWORD PTR __Str$224799[ebp]
  0030b	e8 00 00 00 00	 call	 ??1?$basic_string@DU?$char_traits@D@std@@V?$allocator@D@2@@std@@QAE@XZ ; std::basic_string<char,std::char_traits<char>,std::allocator<char> >::~basic_string<char,std::char_traits<char>,std::allocator<char> >
  00310	8b 85 74 ff ff
	ff		 mov	 eax, DWORD PTR $T225939[ebp]
  00316	eb 36		 jmp	 SHORT $LN21@overflow
$LN1@overflow:

; 374  : 
; 375  : 				default:
; 376  : 					return (_Traits::eof());	// conversion failed

  00318	e8 00 00 00 00	 call	 ?eof@?$char_traits@D@std@@SAHXZ ; std::char_traits<char>::eof
  0031d	89 85 78 ff ff
	ff		 mov	 DWORD PTR $T225942[ebp], eax
  00323	c7 45 fc ff ff
	ff ff		 mov	 DWORD PTR __$EHRec$[ebp+8], -1
  0032a	8d 4d c0	 lea	 ecx, DWORD PTR __Str$224799[ebp]
  0032d	e8 00 00 00 00	 call	 ??1?$basic_string@DU?$char_traits@D@std@@V?$allocator@D@2@@std@@QAE@XZ ; std::basic_string<char,std::char_traits<char>,std::allocator<char> >::~basic_string<char,std::char_traits<char>,std::allocator<char> >
  00332	8b 85 78 ff ff
	ff		 mov	 eax, DWORD PTR $T225942[ebp]
  00338	eb 14		 jmp	 SHORT $LN21@overflow
$LN10@overflow:

; 377  : 				}

  0033a	e9 07 fe ff ff	 jmp	 $LN13@overflow

; 378  : 			}

  0033f	c7 45 fc ff ff
	ff ff		 mov	 DWORD PTR __$EHRec$[ebp+8], -1
  00346	8d 4d c0	 lea	 ecx, DWORD PTR __Str$224799[ebp]
  00349	e8 00 00 00 00	 call	 ??1?$basic_string@DU?$char_traits@D@std@@V?$allocator@D@2@@std@@QAE@XZ ; std::basic_string<char,std::char_traits<char>,std::allocator<char> >::~basic_string<char,std::char_traits<char>,std::allocator<char> >
$LN21@overflow:

; 379  : 		}

  0034e	8b 4d f4	 mov	 ecx, DWORD PTR __$EHRec$[ebp]
  00351	64 89 0d 00 00
	00 00		 mov	 DWORD PTR fs:0, ecx
  00358	59		 pop	 ecx
  00359	5f		 pop	 edi
  0035a	5e		 pop	 esi
  0035b	5b		 pop	 ebx
  0035c	8b 4d f0	 mov	 ecx, DWORD PTR __$ArrayPad$[ebp]
  0035f	33 cd		 xor	 ecx, ebp
  00361	e8 00 00 00 00	 call	 @__security_check_cookie@4
  00366	8b e5		 mov	 esp, ebp
  00368	5d		 pop	 ebp
  00369	c2 04 00	 ret	 4
_TEXT	ENDS
;	COMDAT text$x
text$x	SEGMENT
__unwindfunclet$?overflow@?$basic_filebuf@DU?$char_traits@D@std@@@std@@MAEHH@Z$0:
  00000	8d 4d c0	 lea	 ecx, DWORD PTR __Str$224799[ebp]
  00003	e9 00 00 00 00	 jmp	 ??1?$basic_string@DU?$char_traits@D@std@@V?$allocator@D@2@@std@@QAE@XZ ; std::basic_string<char,std::char_traits<char>,std::allocator<char> >::~basic_string<char,std::char_traits<char>,std::allocator<char> >
__ehhandler$?overflow@?$basic_filebuf@DU?$char_traits@D@std@@@std@@MAEHH@Z:
  00008	8b 54 24 08	 mov	 edx, DWORD PTR [esp+8]
  0000c	8d 42 0c	 lea	 eax, DWORD PTR [edx+12]
  0000f	8b 8a 4c ff ff
	ff		 mov	 ecx, DWORD PTR [edx-180]
  00015	33 c8		 xor	 ecx, eax
  00017	e8 00 00 00 00	 call	 @__security_check_cookie@4
  0001c	8b 4a fc	 mov	 ecx, DWORD PTR [edx-4]
  0001f	33 c8		 xor	 ecx, eax
  00021	e8 00 00 00 00	 call	 @__security_check_cookie@4
  00026	b8 00 00 00 00	 mov	 eax, OFFSET __ehfuncinfo$?overflow@?$basic_filebuf@DU?$char_traits@D@std@@@std@@MAEHH@Z
  0002b	e9 00 00 00 00	 jmp	 ___CxxFrameHandler3
text$x	ENDS
?overflow@?$basic_filebuf@DU?$char_traits@D@std@@@std@@MAEHH@Z ENDP ; std::basic_filebuf<char,std::char_traits<char> >::overflow
EXTRN	_fputc:PROC
; Function compile flags: /Odtp /ZI
;	COMDAT ??$_Fputc@D@std@@YA_NDPAU_iobuf@@@Z
_TEXT	SEGMENT
__Byte$ = 8						; size = 1
__File$ = 12						; size = 4
??$_Fputc@D@std@@YA_NDPAU_iobuf@@@Z PROC		; std::_Fputc<char>, COMDAT

; 80   : 	{	// put a char element to a C stream

  00000	55		 push	 ebp
  00001	8b ec		 mov	 ebp, esp
  00003	83 ec 40	 sub	 esp, 64			; 00000040H
  00006	53		 push	 ebx
  00007	56		 push	 esi
  00008	57		 push	 edi

; 81   : 	return (fputc(_Byte, _File) != EOF);

  00009	8b 45 0c	 mov	 eax, DWORD PTR __File$[ebp]
  0000c	50		 push	 eax
  0000d	0f be 4d 08	 movsx	 ecx, BYTE PTR __Byte$[ebp]
  00011	51		 push	 ecx
  00012	e8 00 00 00 00	 call	 _fputc
  00017	83 c4 08	 add	 esp, 8
  0001a	33 d2		 xor	 edx, edx
  0001c	83 f8 ff	 cmp	 eax, -1
  0001f	0f 95 c2	 setne	 dl
  00022	8a c2		 mov	 al, dl

; 82   : 	}

  00024	5f		 pop	 edi
  00025	5e		 pop	 esi
  00026	5b		 pop	 ebx
  00027	8b e5		 mov	 esp, ebp
  00029	5d		 pop	 ebp
  0002a	c3		 ret	 0
??$_Fputc@D@std@@YA_NDPAU_iobuf@@@Z ENDP		; std::_Fputc<char>
_TEXT	ENDS
PUBLIC	?_Set_back@?$basic_filebuf@DU?$char_traits@D@std@@@std@@AAEXXZ ; std::basic_filebuf<char,std::char_traits<char> >::_Set_back
PUBLIC	??$_Ungetc@D@std@@YA_NABDPAU_iobuf@@@Z		; std::_Ungetc<char>
PUBLIC	?_Gndec@?$basic_streambuf@DU?$char_traits@D@std@@@std@@IAEPADXZ ; std::basic_streambuf<char,std::char_traits<char> >::_Gndec
PUBLIC	?to_int_type@?$char_traits@D@std@@SAHABD@Z	; std::char_traits<char>::to_int_type
PUBLIC	?eback@?$basic_streambuf@DU?$char_traits@D@std@@@std@@IBEPADXZ ; std::basic_streambuf<char,std::char_traits<char> >::eback
PUBLIC	?gptr@?$basic_streambuf@DU?$char_traits@D@std@@@std@@IBEPADXZ ; std::basic_streambuf<char,std::char_traits<char> >::gptr
; Function compile flags: /Odtp /ZI
;	COMDAT ?pbackfail@?$basic_filebuf@DU?$char_traits@D@std@@@std@@MAEHH@Z
_TEXT	SEGMENT
$T225954 = -84						; size = 4
$T225955 = -80						; size = 4
$T225956 = -76						; size = 4
$T225957 = -69						; size = 1
_this$ = -4						; size = 4
__Meta$ = 8						; size = 4
?pbackfail@?$basic_filebuf@DU?$char_traits@D@std@@@std@@MAEHH@Z PROC ; std::basic_filebuf<char,std::char_traits<char> >::pbackfail, COMDAT
; _this$ = ecx

; 383  : 		{	// put an element back to stream

  00000	55		 push	 ebp
  00001	8b ec		 mov	 ebp, esp
  00003	83 ec 54	 sub	 esp, 84			; 00000054H
  00006	53		 push	 ebx
  00007	56		 push	 esi
  00008	57		 push	 edi
  00009	89 4d fc	 mov	 DWORD PTR _this$[ebp], ecx

; 384  : 		if (_Mysb::gptr() != 0
; 385  : 			&& _Mysb::eback() < _Mysb::gptr()
; 386  : 			&& (_Traits::eq_int_type(_Traits::eof(), _Meta)
; 387  : 			|| _Traits::eq_int_type(_Traits::to_int_type(_Mysb::gptr()[-1]),
; 388  : 				_Meta)))

  0000c	8b 4d fc	 mov	 ecx, DWORD PTR _this$[ebp]
  0000f	e8 00 00 00 00	 call	 ?gptr@?$basic_streambuf@DU?$char_traits@D@std@@@std@@IBEPADXZ ; std::basic_streambuf<char,std::char_traits<char> >::gptr
  00014	85 c0		 test	 eax, eax
  00016	0f 84 81 00 00
	00		 je	 $LN10@pbackfail
  0001c	8b 4d fc	 mov	 ecx, DWORD PTR _this$[ebp]
  0001f	e8 00 00 00 00	 call	 ?eback@?$basic_streambuf@DU?$char_traits@D@std@@@std@@IBEPADXZ ; std::basic_streambuf<char,std::char_traits<char> >::eback
  00024	8b f0		 mov	 esi, eax
  00026	8b 4d fc	 mov	 ecx, DWORD PTR _this$[ebp]
  00029	e8 00 00 00 00	 call	 ?gptr@?$basic_streambuf@DU?$char_traits@D@std@@@std@@IBEPADXZ ; std::basic_streambuf<char,std::char_traits<char> >::gptr
  0002e	3b f0		 cmp	 esi, eax
  00030	73 6b		 jae	 SHORT $LN10@pbackfail
  00032	e8 00 00 00 00	 call	 ?eof@?$char_traits@D@std@@SAHXZ ; std::char_traits<char>::eof
  00037	89 45 ac	 mov	 DWORD PTR $T225954[ebp], eax
  0003a	8d 45 08	 lea	 eax, DWORD PTR __Meta$[ebp]
  0003d	50		 push	 eax
  0003e	8d 4d ac	 lea	 ecx, DWORD PTR $T225954[ebp]
  00041	51		 push	 ecx
  00042	e8 00 00 00 00	 call	 ?eq_int_type@?$char_traits@D@std@@SA_NABH0@Z ; std::char_traits<char>::eq_int_type
  00047	83 c4 08	 add	 esp, 8
  0004a	0f b6 d0	 movzx	 edx, al
  0004d	85 d2		 test	 edx, edx
  0004f	75 2e		 jne	 SHORT $LN9@pbackfail
  00051	8b 4d fc	 mov	 ecx, DWORD PTR _this$[ebp]
  00054	e8 00 00 00 00	 call	 ?gptr@?$basic_streambuf@DU?$char_traits@D@std@@@std@@IBEPADXZ ; std::basic_streambuf<char,std::char_traits<char> >::gptr
  00059	83 e8 01	 sub	 eax, 1
  0005c	50		 push	 eax
  0005d	e8 00 00 00 00	 call	 ?to_int_type@?$char_traits@D@std@@SAHABD@Z ; std::char_traits<char>::to_int_type
  00062	83 c4 04	 add	 esp, 4
  00065	89 45 b0	 mov	 DWORD PTR $T225955[ebp], eax
  00068	8d 45 08	 lea	 eax, DWORD PTR __Meta$[ebp]
  0006b	50		 push	 eax
  0006c	8d 4d b0	 lea	 ecx, DWORD PTR $T225955[ebp]
  0006f	51		 push	 ecx
  00070	e8 00 00 00 00	 call	 ?eq_int_type@?$char_traits@D@std@@SA_NABH0@Z ; std::char_traits<char>::eq_int_type
  00075	83 c4 08	 add	 esp, 8
  00078	0f b6 d0	 movzx	 edx, al
  0007b	85 d2		 test	 edx, edx
  0007d	74 1e		 je	 SHORT $LN10@pbackfail
$LN9@pbackfail:

; 389  : 			{	// just back up position
; 390  : 			_Mysb::_Gndec();

  0007f	8b 4d fc	 mov	 ecx, DWORD PTR _this$[ebp]
  00082	e8 00 00 00 00	 call	 ?_Gndec@?$basic_streambuf@DU?$char_traits@D@std@@@std@@IAEPADXZ ; std::basic_streambuf<char,std::char_traits<char> >::_Gndec

; 391  : 			return (_Traits::not_eof(_Meta));

  00087	8d 45 08	 lea	 eax, DWORD PTR __Meta$[ebp]
  0008a	50		 push	 eax
  0008b	e8 00 00 00 00	 call	 ?not_eof@?$char_traits@D@std@@SAHABH@Z ; std::char_traits<char>::not_eof
  00090	83 c4 04	 add	 esp, 4
  00093	e9 a7 00 00 00	 jmp	 $LN11@pbackfail
  00098	e9 a2 00 00 00	 jmp	 $LN11@pbackfail
$LN10@pbackfail:

; 392  : 			}
; 393  : 		else if (_Myfile == 0 || _Traits::eq_int_type(_Traits::eof(), _Meta))

  0009d	8b 45 fc	 mov	 eax, DWORD PTR _this$[ebp]
  000a0	83 78 54 00	 cmp	 DWORD PTR [eax+84], 0
  000a4	74 1f		 je	 SHORT $LN6@pbackfail
  000a6	e8 00 00 00 00	 call	 ?eof@?$char_traits@D@std@@SAHXZ ; std::char_traits<char>::eof
  000ab	89 45 b4	 mov	 DWORD PTR $T225956[ebp], eax
  000ae	8d 45 08	 lea	 eax, DWORD PTR __Meta$[ebp]
  000b1	50		 push	 eax
  000b2	8d 4d b4	 lea	 ecx, DWORD PTR $T225956[ebp]
  000b5	51		 push	 ecx
  000b6	e8 00 00 00 00	 call	 ?eq_int_type@?$char_traits@D@std@@SA_NABH0@Z ; std::char_traits<char>::eq_int_type
  000bb	83 c4 08	 add	 esp, 8
  000be	0f b6 d0	 movzx	 edx, al
  000c1	85 d2		 test	 edx, edx
  000c3	74 09		 je	 SHORT $LN7@pbackfail
$LN6@pbackfail:

; 394  : 			return (_Traits::eof());	// no open C stream or EOF, fail

  000c5	e8 00 00 00 00	 call	 ?eof@?$char_traits@D@std@@SAHXZ ; std::char_traits<char>::eof
  000ca	eb 73		 jmp	 SHORT $LN11@pbackfail
  000cc	eb 71		 jmp	 SHORT $LN11@pbackfail
$LN7@pbackfail:

; 395  : 		else if (_Pcvt == 0 && _Ungetc(_Traits::to_char_type(_Meta), _Myfile))

  000ce	8b 45 fc	 mov	 eax, DWORD PTR _this$[ebp]
  000d1	83 78 44 00	 cmp	 DWORD PTR [eax+68], 0
  000d5	75 30		 jne	 SHORT $LN4@pbackfail
  000d7	8d 45 08	 lea	 eax, DWORD PTR __Meta$[ebp]
  000da	50		 push	 eax
  000db	e8 00 00 00 00	 call	 ?to_char_type@?$char_traits@D@std@@SADABH@Z ; std::char_traits<char>::to_char_type
  000e0	83 c4 04	 add	 esp, 4
  000e3	88 45 bb	 mov	 BYTE PTR $T225957[ebp], al
  000e6	8b 4d fc	 mov	 ecx, DWORD PTR _this$[ebp]
  000e9	8b 51 54	 mov	 edx, DWORD PTR [ecx+84]
  000ec	52		 push	 edx
  000ed	8d 45 bb	 lea	 eax, DWORD PTR $T225957[ebp]
  000f0	50		 push	 eax
  000f1	e8 00 00 00 00	 call	 ??$_Ungetc@D@std@@YA_NABDPAU_iobuf@@@Z ; std::_Ungetc<char>
  000f6	83 c4 08	 add	 esp, 8
  000f9	0f b6 c8	 movzx	 ecx, al
  000fc	85 c9		 test	 ecx, ecx
  000fe	74 07		 je	 SHORT $LN4@pbackfail

; 396  : 			return (_Meta);	// no facet and unget succeeded, return

  00100	8b 45 08	 mov	 eax, DWORD PTR __Meta$[ebp]
  00103	eb 3a		 jmp	 SHORT $LN11@pbackfail
  00105	eb 38		 jmp	 SHORT $LN11@pbackfail
$LN4@pbackfail:

; 397  : 		else if (_Mysb::gptr() != &_Mychar)

  00107	8b 4d fc	 mov	 ecx, DWORD PTR _this$[ebp]
  0010a	e8 00 00 00 00	 call	 ?gptr@?$basic_streambuf@DU?$char_traits@D@std@@@std@@IBEPADXZ ; std::basic_streambuf<char,std::char_traits<char> >::gptr
  0010f	8b 4d fc	 mov	 ecx, DWORD PTR _this$[ebp]
  00112	83 c1 48	 add	 ecx, 72			; 00000048H
  00115	3b c1		 cmp	 eax, ecx
  00117	74 21		 je	 SHORT $LN2@pbackfail

; 398  : 			{	// putback to _Mychar
; 399  : 			_Mychar = _Traits::to_char_type(_Meta);

  00119	8d 45 08	 lea	 eax, DWORD PTR __Meta$[ebp]
  0011c	50		 push	 eax
  0011d	e8 00 00 00 00	 call	 ?to_char_type@?$char_traits@D@std@@SADABH@Z ; std::char_traits<char>::to_char_type
  00122	83 c4 04	 add	 esp, 4
  00125	8b 4d fc	 mov	 ecx, DWORD PTR _this$[ebp]
  00128	88 41 48	 mov	 BYTE PTR [ecx+72], al

; 400  : 			_Set_back();	// switch to _Mychar buffer

  0012b	8b 4d fc	 mov	 ecx, DWORD PTR _this$[ebp]
  0012e	e8 00 00 00 00	 call	 ?_Set_back@?$basic_filebuf@DU?$char_traits@D@std@@@std@@AAEXXZ ; std::basic_filebuf<char,std::char_traits<char> >::_Set_back

; 401  : 			return (_Meta);

  00133	8b 45 08	 mov	 eax, DWORD PTR __Meta$[ebp]
  00136	eb 07		 jmp	 SHORT $LN11@pbackfail

; 402  : 			}
; 403  : 		else

  00138	eb 05		 jmp	 SHORT $LN11@pbackfail
$LN2@pbackfail:

; 404  : 			return (_Traits::eof());	// nowhere to put back

  0013a	e8 00 00 00 00	 call	 ?eof@?$char_traits@D@std@@SAHXZ ; std::char_traits<char>::eof
$LN11@pbackfail:

; 405  : 		}

  0013f	5f		 pop	 edi
  00140	5e		 pop	 esi
  00141	5b		 pop	 ebx
  00142	8b e5		 mov	 esp, ebp
  00144	5d		 pop	 ebp
  00145	c2 04 00	 ret	 4
?pbackfail@?$basic_filebuf@DU?$char_traits@D@std@@@std@@MAEHH@Z ENDP ; std::basic_filebuf<char,std::char_traits<char> >::pbackfail
_TEXT	ENDS
EXTRN	_ungetc:PROC
; Function compile flags: /Odtp /ZI
;	COMDAT ??$_Ungetc@D@std@@YA_NABDPAU_iobuf@@@Z
_TEXT	SEGMENT
__Byte$ = 8						; size = 4
__File$ = 12						; size = 4
??$_Ungetc@D@std@@YA_NABDPAU_iobuf@@@Z PROC		; std::_Ungetc<char>, COMDAT

; 104  : 	{	// put back a char element to a C stream

  00000	55		 push	 ebp
  00001	8b ec		 mov	 ebp, esp
  00003	83 ec 40	 sub	 esp, 64			; 00000040H
  00006	53		 push	 ebx
  00007	56		 push	 esi
  00008	57		 push	 edi

; 105  : 	return (ungetc((unsigned char)_Byte, _File) != EOF);

  00009	8b 45 0c	 mov	 eax, DWORD PTR __File$[ebp]
  0000c	50		 push	 eax
  0000d	8b 4d 08	 mov	 ecx, DWORD PTR __Byte$[ebp]
  00010	0f b6 11	 movzx	 edx, BYTE PTR [ecx]
  00013	52		 push	 edx
  00014	e8 00 00 00 00	 call	 _ungetc
  00019	83 c4 08	 add	 esp, 8
  0001c	33 c9		 xor	 ecx, ecx
  0001e	83 f8 ff	 cmp	 eax, -1
  00021	0f 95 c1	 setne	 cl
  00024	8a c1		 mov	 al, cl

; 106  : 	}

  00026	5f		 pop	 edi
  00027	5e		 pop	 esi
  00028	5b		 pop	 ebx
  00029	8b e5		 mov	 esp, ebp
  0002b	5d		 pop	 ebp
  0002c	c3		 ret	 0
??$_Ungetc@D@std@@YA_NABDPAU_iobuf@@@Z ENDP		; std::_Ungetc<char>
_TEXT	ENDS
PUBLIC	?egptr@?$basic_streambuf@DU?$char_traits@D@std@@@std@@IBEPADXZ ; std::basic_streambuf<char,std::char_traits<char> >::egptr
; Function compile flags: /Odtp /ZI
;	COMDAT ?underflow@?$basic_filebuf@DU?$char_traits@D@std@@@std@@MAEHXZ
_TEXT	SEGMENT
$T225962 = -76						; size = 4
__Meta$ = -8						; size = 4
_this$ = -4						; size = 4
?underflow@?$basic_filebuf@DU?$char_traits@D@std@@@std@@MAEHXZ PROC ; std::basic_filebuf<char,std::char_traits<char> >::underflow, COMDAT
; _this$ = ecx

; 408  : 		{	// get an element from stream, but don't point past it

  00000	55		 push	 ebp
  00001	8b ec		 mov	 ebp, esp
  00003	83 ec 4c	 sub	 esp, 76			; 0000004cH
  00006	53		 push	 ebx
  00007	56		 push	 esi
  00008	57		 push	 edi
  00009	89 4d fc	 mov	 DWORD PTR _this$[ebp], ecx

; 409  : 		int_type _Meta;
; 410  : 		if (_Mysb::gptr() != 0
; 411  : 			&& _Mysb::gptr() < _Mysb::egptr())

  0000c	8b 4d fc	 mov	 ecx, DWORD PTR _this$[ebp]
  0000f	e8 00 00 00 00	 call	 ?gptr@?$basic_streambuf@DU?$char_traits@D@std@@@std@@IBEPADXZ ; std::basic_streambuf<char,std::char_traits<char> >::gptr
  00014	85 c0		 test	 eax, eax
  00016	74 2b		 je	 SHORT $LN4@underflow
  00018	8b 4d fc	 mov	 ecx, DWORD PTR _this$[ebp]
  0001b	e8 00 00 00 00	 call	 ?gptr@?$basic_streambuf@DU?$char_traits@D@std@@@std@@IBEPADXZ ; std::basic_streambuf<char,std::char_traits<char> >::gptr
  00020	8b f0		 mov	 esi, eax
  00022	8b 4d fc	 mov	 ecx, DWORD PTR _this$[ebp]
  00025	e8 00 00 00 00	 call	 ?egptr@?$basic_streambuf@DU?$char_traits@D@std@@@std@@IBEPADXZ ; std::basic_streambuf<char,std::char_traits<char> >::egptr
  0002a	3b f0		 cmp	 esi, eax
  0002c	73 15		 jae	 SHORT $LN4@underflow

; 412  : 			return (_Traits::to_int_type(*_Mysb::gptr()));	// return buffered

  0002e	8b 4d fc	 mov	 ecx, DWORD PTR _this$[ebp]
  00031	e8 00 00 00 00	 call	 ?gptr@?$basic_streambuf@DU?$char_traits@D@std@@@std@@IBEPADXZ ; std::basic_streambuf<char,std::char_traits<char> >::gptr
  00036	50		 push	 eax
  00037	e8 00 00 00 00	 call	 ?to_int_type@?$char_traits@D@std@@SAHABD@Z ; std::char_traits<char>::to_int_type
  0003c	83 c4 04	 add	 esp, 4
  0003f	eb 4c		 jmp	 SHORT $LN5@underflow
  00041	eb 4a		 jmp	 SHORT $LN5@underflow
$LN4@underflow:

; 413  : 		else if (_Traits::eq_int_type(_Traits::eof(), _Meta = uflow()))

  00043	8b 45 fc	 mov	 eax, DWORD PTR _this$[ebp]
  00046	8b 10		 mov	 edx, DWORD PTR [eax]
  00048	8b 4d fc	 mov	 ecx, DWORD PTR _this$[ebp]
  0004b	8b 42 1c	 mov	 eax, DWORD PTR [edx+28]
  0004e	ff d0		 call	 eax
  00050	89 45 f8	 mov	 DWORD PTR __Meta$[ebp], eax
  00053	e8 00 00 00 00	 call	 ?eof@?$char_traits@D@std@@SAHXZ ; std::char_traits<char>::eof
  00058	89 45 b4	 mov	 DWORD PTR $T225962[ebp], eax
  0005b	8d 4d f8	 lea	 ecx, DWORD PTR __Meta$[ebp]
  0005e	51		 push	 ecx
  0005f	8d 55 b4	 lea	 edx, DWORD PTR $T225962[ebp]
  00062	52		 push	 edx
  00063	e8 00 00 00 00	 call	 ?eq_int_type@?$char_traits@D@std@@SA_NABH0@Z ; std::char_traits<char>::eq_int_type
  00068	83 c4 08	 add	 esp, 8
  0006b	0f b6 c0	 movzx	 eax, al
  0006e	85 c0		 test	 eax, eax
  00070	74 07		 je	 SHORT $LN2@underflow

; 414  : 			return (_Meta);	// uflow failed, return EOF

  00072	8b 45 f8	 mov	 eax, DWORD PTR __Meta$[ebp]
  00075	eb 16		 jmp	 SHORT $LN5@underflow

; 415  : 		else

  00077	eb 14		 jmp	 SHORT $LN5@underflow
$LN2@underflow:

; 416  : 			{	// get a char, don't point past it
; 417  : 			pbackfail(_Meta);

  00079	8b 45 f8	 mov	 eax, DWORD PTR __Meta$[ebp]
  0007c	50		 push	 eax
  0007d	8b 4d fc	 mov	 ecx, DWORD PTR _this$[ebp]
  00080	8b 11		 mov	 edx, DWORD PTR [ecx]
  00082	8b 4d fc	 mov	 ecx, DWORD PTR _this$[ebp]
  00085	8b 42 10	 mov	 eax, DWORD PTR [edx+16]
  00088	ff d0		 call	 eax

; 418  : 			return (_Meta);

  0008a	8b 45 f8	 mov	 eax, DWORD PTR __Meta$[ebp]
$LN5@underflow:

; 419  : 			}
; 420  : 		}

  0008d	5f		 pop	 edi
  0008e	5e		 pop	 esi
  0008f	5b		 pop	 ebx
  00090	8b e5		 mov	 esp, ebp
  00092	5d		 pop	 ebp
  00093	c3		 ret	 0
?underflow@?$basic_filebuf@DU?$char_traits@D@std@@@std@@MAEHXZ ENDP ; std::basic_filebuf<char,std::char_traits<char> >::underflow
_TEXT	ENDS
PUBLIC	?erase@?$basic_string@DU?$char_traits@D@std@@V?$allocator@D@2@@std@@QAEAAV12@II@Z ; std::basic_string<char,std::char_traits<char>,std::allocator<char> >::erase
PUBLIC	?in@?$codecvt@DDH@std@@QBEHAAHPBD1AAPBDPAD3AAPAD@Z ; std::codecvt<char,char,int>::in
PUBLIC	??0?$basic_string@DU?$char_traits@D@std@@V?$allocator@D@2@@std@@QAE@XZ ; std::basic_string<char,std::char_traits<char>,std::allocator<char> >::basic_string<char,std::char_traits<char>,std::allocator<char> >
PUBLIC	??$_Fgetc@D@std@@YA_NAADPAU_iobuf@@@Z		; std::_Fgetc<char>
PUBLIC	?_Gninc@?$basic_streambuf@DU?$char_traits@D@std@@@std@@IAEPADXZ ; std::basic_streambuf<char,std::char_traits<char> >::_Gninc
PUBLIC	__$ArrayPad$
EXTRN	_memcpy_s:PROC
EXTRN	_fgetc:PROC
;	COMDAT xdata$x
xdata$x	SEGMENT
__unwindtable$?uflow@?$basic_filebuf@DU?$char_traits@D@std@@@std@@MAEHXZ DD 0ffffffffH
	DD	FLAT:__unwindfunclet$?uflow@?$basic_filebuf@DU?$char_traits@D@std@@@std@@MAEHXZ$0
__ehfuncinfo$?uflow@?$basic_filebuf@DU?$char_traits@D@std@@@std@@MAEHXZ DD 019930522H
	DD	01H
	DD	FLAT:__unwindtable$?uflow@?$basic_filebuf@DU?$char_traits@D@std@@@std@@MAEHXZ
	DD	2 DUP(00H)
	DD	2 DUP(00H)
	DD	00H
	DD	01H
; Function compile flags: /Odtp /ZI
xdata$x	ENDS
;	COMDAT ?uflow@?$basic_filebuf@DU?$char_traits@D@std@@@std@@MAEHXZ
_TEXT	SEGMENT
tv176 = -176						; size = 4
tv139 = -176						; size = 4
$T225968 = -172						; size = 4
$T225969 = -168						; size = 4
$T225970 = -164						; size = 4
$T225971 = -160						; size = 4
$T225972 = -156						; size = 4
$T225973 = -152						; size = 4
$T225974 = -148						; size = 4
$T225975 = -144						; size = 4
$T225976 = -140						; size = 4
__Meta$224949 = -72					; size = 4
__Nleft$224948 = -68					; size = 4
__Src$224947 = -64					; size = 4
__Dest$224946 = -60					; size = 4
__Ch$224945 = -54					; size = 1
__Str$224941 = -52					; size = 28
__Ch$224939 = -21					; size = 1
_this$ = -20						; size = 4
__$ArrayPad$ = -16					; size = 4
__$EHRec$ = -12						; size = 12
?uflow@?$basic_filebuf@DU?$char_traits@D@std@@@std@@MAEHXZ PROC ; std::basic_filebuf<char,std::char_traits<char> >::uflow, COMDAT
; _this$ = ecx

; 423  : 		{	// get an element from stream, point past it

  00000	55		 push	 ebp
  00001	8b ec		 mov	 ebp, esp
  00003	6a ff		 push	 -1
  00005	68 00 00 00 00	 push	 __ehhandler$?uflow@?$basic_filebuf@DU?$char_traits@D@std@@@std@@MAEHXZ
  0000a	64 a1 00 00 00
	00		 mov	 eax, DWORD PTR fs:0
  00010	50		 push	 eax
  00011	81 ec a4 00 00
	00		 sub	 esp, 164		; 000000a4H
  00017	a1 00 00 00 00	 mov	 eax, DWORD PTR ___security_cookie
  0001c	33 c5		 xor	 eax, ebp
  0001e	89 45 f0	 mov	 DWORD PTR __$ArrayPad$[ebp], eax
  00021	53		 push	 ebx
  00022	56		 push	 esi
  00023	57		 push	 edi
  00024	50		 push	 eax
  00025	8d 45 f4	 lea	 eax, DWORD PTR __$EHRec$[ebp]
  00028	64 a3 00 00 00
	00		 mov	 DWORD PTR fs:0, eax
  0002e	89 4d ec	 mov	 DWORD PTR _this$[ebp], ecx

; 424  : 		if (_Mysb::gptr() != 0
; 425  : 			&& _Mysb::gptr() < _Mysb::egptr())

  00031	8b 4d ec	 mov	 ecx, DWORD PTR _this$[ebp]
  00034	e8 00 00 00 00	 call	 ?gptr@?$basic_streambuf@DU?$char_traits@D@std@@@std@@IBEPADXZ ; std::basic_streambuf<char,std::char_traits<char> >::gptr
  00039	85 c0		 test	 eax, eax
  0003b	74 2e		 je	 SHORT $LN18@uflow
  0003d	8b 4d ec	 mov	 ecx, DWORD PTR _this$[ebp]
  00040	e8 00 00 00 00	 call	 ?gptr@?$basic_streambuf@DU?$char_traits@D@std@@@std@@IBEPADXZ ; std::basic_streambuf<char,std::char_traits<char> >::gptr
  00045	8b f0		 mov	 esi, eax
  00047	8b 4d ec	 mov	 ecx, DWORD PTR _this$[ebp]
  0004a	e8 00 00 00 00	 call	 ?egptr@?$basic_streambuf@DU?$char_traits@D@std@@@std@@IBEPADXZ ; std::basic_streambuf<char,std::char_traits<char> >::egptr
  0004f	3b f0		 cmp	 esi, eax
  00051	73 18		 jae	 SHORT $LN18@uflow

; 426  : 			return (_Traits::to_int_type(
; 427  : 				*_Mysb::_Gninc()));	// return buffered

  00053	8b 4d ec	 mov	 ecx, DWORD PTR _this$[ebp]
  00056	e8 00 00 00 00	 call	 ?_Gninc@?$basic_streambuf@DU?$char_traits@D@std@@@std@@IAEPADXZ ; std::basic_streambuf<char,std::char_traits<char> >::_Gninc
  0005b	50		 push	 eax
  0005c	e8 00 00 00 00	 call	 ?to_int_type@?$char_traits@D@std@@SAHABD@Z ; std::char_traits<char>::to_int_type
  00061	83 c4 04	 add	 esp, 4
  00064	e9 a6 02 00 00	 jmp	 $LN19@uflow
  00069	eb 13		 jmp	 SHORT $LN17@uflow
$LN18@uflow:

; 428  : 		else if (_Myfile == 0)

  0006b	8b 45 ec	 mov	 eax, DWORD PTR _this$[ebp]
  0006e	83 78 54 00	 cmp	 DWORD PTR [eax+84], 0
  00072	75 0a		 jne	 SHORT $LN17@uflow

; 429  : 			return (_Traits::eof());	// no open C stream, fail

  00074	e8 00 00 00 00	 call	 ?eof@?$char_traits@D@std@@SAHXZ ; std::char_traits<char>::eof
  00079	e9 91 02 00 00	 jmp	 $LN19@uflow
$LN17@uflow:

; 430  : 		_Reset_back();	// revert from _Mychar buffer

  0007e	8b 4d ec	 mov	 ecx, DWORD PTR _this$[ebp]
  00081	e8 00 00 00 00	 call	 ?_Reset_back@?$basic_filebuf@DU?$char_traits@D@std@@@std@@AAEXXZ ; std::basic_filebuf<char,std::char_traits<char> >::_Reset_back

; 431  : 		if (_Pcvt == 0)

  00086	8b 45 ec	 mov	 eax, DWORD PTR _this$[ebp]
  00089	83 78 44 00	 cmp	 DWORD PTR [eax+68], 0
  0008d	75 4d		 jne	 SHORT $LN15@uflow

; 432  : 			{	// no codecvt facet, just get it
; 433  : 			_Elem _Ch = 0;

  0008f	c6 45 eb 00	 mov	 BYTE PTR __Ch$224939[ebp], 0

; 434  : 			return (_Fgetc(_Ch, _Myfile) ? _Traits::to_int_type(_Ch)
; 435  : 				: _Traits::eof());

  00093	8b 45 ec	 mov	 eax, DWORD PTR _this$[ebp]
  00096	8b 48 54	 mov	 ecx, DWORD PTR [eax+84]
  00099	51		 push	 ecx
  0009a	8d 55 eb	 lea	 edx, DWORD PTR __Ch$224939[ebp]
  0009d	52		 push	 edx
  0009e	e8 00 00 00 00	 call	 ??$_Fgetc@D@std@@YA_NAADPAU_iobuf@@@Z ; std::_Fgetc<char>
  000a3	83 c4 08	 add	 esp, 8
  000a6	0f b6 c0	 movzx	 eax, al
  000a9	85 c0		 test	 eax, eax
  000ab	74 14		 je	 SHORT $LN21@uflow
  000ad	8d 4d eb	 lea	 ecx, DWORD PTR __Ch$224939[ebp]
  000b0	51		 push	 ecx
  000b1	e8 00 00 00 00	 call	 ?to_int_type@?$char_traits@D@std@@SAHABD@Z ; std::char_traits<char>::to_int_type
  000b6	83 c4 04	 add	 esp, 4
  000b9	89 85 50 ff ff
	ff		 mov	 DWORD PTR tv139[ebp], eax
  000bf	eb 0b		 jmp	 SHORT $LN22@uflow
$LN21@uflow:
  000c1	e8 00 00 00 00	 call	 ?eof@?$char_traits@D@std@@SAHXZ ; std::char_traits<char>::eof
  000c6	89 85 50 ff ff
	ff		 mov	 DWORD PTR tv139[ebp], eax
$LN22@uflow:
  000cc	8b 85 50 ff ff
	ff		 mov	 eax, DWORD PTR tv139[ebp]
  000d2	e9 38 02 00 00	 jmp	 $LN19@uflow

; 436  : 			}
; 437  : 		else

  000d7	e9 33 02 00 00	 jmp	 $LN19@uflow
$LN15@uflow:

; 438  : 			{	// build string until codecvt succeeds
; 439  : 			string _Str;

  000dc	8d 4d cc	 lea	 ecx, DWORD PTR __Str$224941[ebp]
  000df	e8 00 00 00 00	 call	 ??0?$basic_string@DU?$char_traits@D@std@@V?$allocator@D@2@@std@@QAE@XZ ; std::basic_string<char,std::char_traits<char>,std::allocator<char> >::basic_string<char,std::char_traits<char>,std::allocator<char> >
  000e4	c7 45 fc 00 00
	00 00		 mov	 DWORD PTR __$EHRec$[ebp+8], 0
$LN13@uflow:

; 440  : 
; 441  : 			for (; ; )
; 442  : 				{	// get using codecvt facet
; 443  : 				_Elem _Ch, *_Dest;
; 444  : 				const char *_Src;
; 445  : 				int _Nleft;
; 446  : 				int _Meta = fgetc(_Myfile);

  000eb	8b 45 ec	 mov	 eax, DWORD PTR _this$[ebp]
  000ee	8b 48 54	 mov	 ecx, DWORD PTR [eax+84]
  000f1	51		 push	 ecx
  000f2	e8 00 00 00 00	 call	 _fgetc
  000f7	83 c4 04	 add	 esp, 4
  000fa	89 45 b8	 mov	 DWORD PTR __Meta$224949[ebp], eax

; 447  : 
; 448  : 				if (_Meta == EOF)

  000fd	83 7d b8 ff	 cmp	 DWORD PTR __Meta$224949[ebp], -1
  00101	75 25		 jne	 SHORT $LN11@uflow

; 449  : 					return (_Traits::eof());	// partial char?

  00103	e8 00 00 00 00	 call	 ?eof@?$char_traits@D@std@@SAHXZ ; std::char_traits<char>::eof
  00108	89 85 54 ff ff
	ff		 mov	 DWORD PTR $T225968[ebp], eax
  0010e	c7 45 fc ff ff
	ff ff		 mov	 DWORD PTR __$EHRec$[ebp+8], -1
  00115	8d 4d cc	 lea	 ecx, DWORD PTR __Str$224941[ebp]
  00118	e8 00 00 00 00	 call	 ??1?$basic_string@DU?$char_traits@D@std@@V?$allocator@D@2@@std@@QAE@XZ ; std::basic_string<char,std::char_traits<char>,std::allocator<char> >::~basic_string<char,std::char_traits<char>,std::allocator<char> >
  0011d	8b 85 54 ff ff
	ff		 mov	 eax, DWORD PTR $T225968[ebp]
  00123	e9 e7 01 00 00	 jmp	 $LN19@uflow
$LN11@uflow:

; 450  : 
; 451  : 				_Str.append(1, (char)_Meta);	// append byte and convert

  00128	0f b6 45 b8	 movzx	 eax, BYTE PTR __Meta$224949[ebp]
  0012c	50		 push	 eax
  0012d	6a 01		 push	 1
  0012f	8d 4d cc	 lea	 ecx, DWORD PTR __Str$224941[ebp]
  00132	e8 00 00 00 00	 call	 ?append@?$basic_string@DU?$char_traits@D@std@@V?$allocator@D@2@@std@@QAEAAV12@ID@Z ; std::basic_string<char,std::char_traits<char>,std::allocator<char> >::append

; 452  : 				switch (_Pcvt->in(_State,
; 453  : 					&*_Str.begin(), &*_Str.begin() + _Str.size(), _Src,
; 454  : 					&_Ch, &_Ch + 1, _Dest))

  00137	8d 45 c4	 lea	 eax, DWORD PTR __Dest$224946[ebp]
  0013a	50		 push	 eax
  0013b	8d 4d cb	 lea	 ecx, DWORD PTR __Ch$224945[ebp+1]
  0013e	51		 push	 ecx
  0013f	8d 55 ca	 lea	 edx, DWORD PTR __Ch$224945[ebp]
  00142	52		 push	 edx
  00143	8d 45 c0	 lea	 eax, DWORD PTR __Src$224947[ebp]
  00146	50		 push	 eax
  00147	8d 8d 58 ff ff
	ff		 lea	 ecx, DWORD PTR $T225969[ebp]
  0014d	51		 push	 ecx
  0014e	8d 4d cc	 lea	 ecx, DWORD PTR __Str$224941[ebp]
  00151	e8 00 00 00 00	 call	 ?begin@?$basic_string@DU?$char_traits@D@std@@V?$allocator@D@2@@std@@QAE?AV?$_String_iterator@DU?$char_traits@D@std@@V?$allocator@D@2@@2@XZ ; std::basic_string<char,std::char_traits<char>,std::allocator<char> >::begin
  00156	8b c8		 mov	 ecx, eax
  00158	e8 00 00 00 00	 call	 ??D?$_String_iterator@DU?$char_traits@D@std@@V?$allocator@D@2@@std@@QBEAADXZ ; std::_String_iterator<char,std::char_traits<char>,std::allocator<char> >::operator*
  0015d	8b f0		 mov	 esi, eax
  0015f	8d 4d cc	 lea	 ecx, DWORD PTR __Str$224941[ebp]
  00162	e8 00 00 00 00	 call	 ?size@?$basic_string@DU?$char_traits@D@std@@V?$allocator@D@2@@std@@QBEIXZ ; std::basic_string<char,std::char_traits<char>,std::allocator<char> >::size
  00167	03 f0		 add	 esi, eax
  00169	56		 push	 esi
  0016a	8d 95 5c ff ff
	ff		 lea	 edx, DWORD PTR $T225970[ebp]
  00170	52		 push	 edx
  00171	8d 4d cc	 lea	 ecx, DWORD PTR __Str$224941[ebp]
  00174	e8 00 00 00 00	 call	 ?begin@?$basic_string@DU?$char_traits@D@std@@V?$allocator@D@2@@std@@QAE?AV?$_String_iterator@DU?$char_traits@D@std@@V?$allocator@D@2@@2@XZ ; std::basic_string<char,std::char_traits<char>,std::allocator<char> >::begin
  00179	8b c8		 mov	 ecx, eax
  0017b	e8 00 00 00 00	 call	 ??D?$_String_iterator@DU?$char_traits@D@std@@V?$allocator@D@2@@std@@QBEAADXZ ; std::_String_iterator<char,std::char_traits<char>,std::allocator<char> >::operator*
  00180	50		 push	 eax
  00181	8b 45 ec	 mov	 eax, DWORD PTR _this$[ebp]
  00184	83 c0 4c	 add	 eax, 76			; 0000004cH
  00187	50		 push	 eax
  00188	8b 4d ec	 mov	 ecx, DWORD PTR _this$[ebp]
  0018b	8b 49 44	 mov	 ecx, DWORD PTR [ecx+68]
  0018e	e8 00 00 00 00	 call	 ?in@?$codecvt@DDH@std@@QBEHAAHPBD1AAPBDPAD3AAPAD@Z ; std::codecvt<char,char,int>::in
  00193	89 85 50 ff ff
	ff		 mov	 DWORD PTR tv176[ebp], eax
  00199	83 bd 50 ff ff
	ff 00		 cmp	 DWORD PTR tv176[ebp], 0
  001a0	0f 8c 33 01 00
	00		 jl	 $LN1@uflow
  001a6	83 bd 50 ff ff
	ff 01		 cmp	 DWORD PTR tv176[ebp], 1
  001ad	7e 12		 jle	 SHORT $LN8@uflow
  001af	83 bd 50 ff ff
	ff 03		 cmp	 DWORD PTR tv176[ebp], 3
  001b6	0f 84 be 00 00
	00		 je	 $LN3@uflow
  001bc	e9 18 01 00 00	 jmp	 $LN1@uflow
$LN8@uflow:

; 455  : 					{	// test result of converting one element
; 456  : 				case codecvt_base::partial:
; 457  : 				case codecvt_base::ok:
; 458  : 					if (_Dest != &_Ch)

  001c1	8b 45 c4	 mov	 eax, DWORD PTR __Dest$224946[ebp]
  001c4	8d 4d ca	 lea	 ecx, DWORD PTR __Ch$224945[ebp]
  001c7	3b c1		 cmp	 eax, ecx
  001c9	0f 84 80 00 00
	00		 je	 $LN7@uflow

; 459  : 						{	// got an element, put back excess and deliver it
; 460  : 						_Nleft = (int)(&*_Str.begin() + _Str.size() - _Src);

  001cf	8d 85 60 ff ff
	ff		 lea	 eax, DWORD PTR $T225971[ebp]
  001d5	50		 push	 eax
  001d6	8d 4d cc	 lea	 ecx, DWORD PTR __Str$224941[ebp]
  001d9	e8 00 00 00 00	 call	 ?begin@?$basic_string@DU?$char_traits@D@std@@V?$allocator@D@2@@std@@QAE?AV?$_String_iterator@DU?$char_traits@D@std@@V?$allocator@D@2@@2@XZ ; std::basic_string<char,std::char_traits<char>,std::allocator<char> >::begin
  001de	8b c8		 mov	 ecx, eax
  001e0	e8 00 00 00 00	 call	 ??D?$_String_iterator@DU?$char_traits@D@std@@V?$allocator@D@2@@std@@QBEAADXZ ; std::_String_iterator<char,std::char_traits<char>,std::allocator<char> >::operator*
  001e5	8b f0		 mov	 esi, eax
  001e7	8d 4d cc	 lea	 ecx, DWORD PTR __Str$224941[ebp]
  001ea	e8 00 00 00 00	 call	 ?size@?$basic_string@DU?$char_traits@D@std@@V?$allocator@D@2@@std@@QBEIXZ ; std::basic_string<char,std::char_traits<char>,std::allocator<char> >::size
  001ef	03 f0		 add	 esi, eax
  001f1	2b 75 c0	 sub	 esi, DWORD PTR __Src$224947[ebp]
  001f4	89 75 bc	 mov	 DWORD PTR __Nleft$224948[ebp], esi
$LN6@uflow:

; 461  : 						for (; 0 < _Nleft; )

  001f7	83 7d bc 00	 cmp	 DWORD PTR __Nleft$224948[ebp], 0
  001fb	7e 24		 jle	 SHORT $LN5@uflow

; 462  : 							ungetc(_Src[--_Nleft], _Myfile);

  001fd	8b 45 bc	 mov	 eax, DWORD PTR __Nleft$224948[ebp]
  00200	83 e8 01	 sub	 eax, 1
  00203	89 45 bc	 mov	 DWORD PTR __Nleft$224948[ebp], eax
  00206	8b 4d ec	 mov	 ecx, DWORD PTR _this$[ebp]
  00209	8b 51 54	 mov	 edx, DWORD PTR [ecx+84]
  0020c	52		 push	 edx
  0020d	8b 45 c0	 mov	 eax, DWORD PTR __Src$224947[ebp]
  00210	03 45 bc	 add	 eax, DWORD PTR __Nleft$224948[ebp]
  00213	0f be 08	 movsx	 ecx, BYTE PTR [eax]
  00216	51		 push	 ecx
  00217	e8 00 00 00 00	 call	 _ungetc
  0021c	83 c4 08	 add	 esp, 8
  0021f	eb d6		 jmp	 SHORT $LN6@uflow
$LN5@uflow:

; 463  : 						return (_Traits::to_int_type(_Ch));

  00221	8d 45 ca	 lea	 eax, DWORD PTR __Ch$224945[ebp]
  00224	50		 push	 eax
  00225	e8 00 00 00 00	 call	 ?to_int_type@?$char_traits@D@std@@SAHABD@Z ; std::char_traits<char>::to_int_type
  0022a	83 c4 04	 add	 esp, 4
  0022d	89 85 64 ff ff
	ff		 mov	 DWORD PTR $T225972[ebp], eax
  00233	c7 45 fc ff ff
	ff ff		 mov	 DWORD PTR __$EHRec$[ebp+8], -1
  0023a	8d 4d cc	 lea	 ecx, DWORD PTR __Str$224941[ebp]
  0023d	e8 00 00 00 00	 call	 ??1?$basic_string@DU?$char_traits@D@std@@V?$allocator@D@2@@std@@QAE@XZ ; std::basic_string<char,std::char_traits<char>,std::allocator<char> >::~basic_string<char,std::char_traits<char>,std::allocator<char> >
  00242	8b 85 64 ff ff
	ff		 mov	 eax, DWORD PTR $T225972[ebp]
  00248	e9 c2 00 00 00	 jmp	 $LN19@uflow

; 464  : 						}
; 465  : 					else

  0024d	eb 26		 jmp	 SHORT $LN4@uflow
$LN7@uflow:

; 466  : 						_Str.erase((size_t)0,	// partial, discard used input
; 467  : 							(size_t)(_Src - &*_Str.begin()));

  0024f	8d 85 68 ff ff
	ff		 lea	 eax, DWORD PTR $T225973[ebp]
  00255	50		 push	 eax
  00256	8d 4d cc	 lea	 ecx, DWORD PTR __Str$224941[ebp]
  00259	e8 00 00 00 00	 call	 ?begin@?$basic_string@DU?$char_traits@D@std@@V?$allocator@D@2@@std@@QAE?AV?$_String_iterator@DU?$char_traits@D@std@@V?$allocator@D@2@@2@XZ ; std::basic_string<char,std::char_traits<char>,std::allocator<char> >::begin
  0025e	8b c8		 mov	 ecx, eax
  00260	e8 00 00 00 00	 call	 ??D?$_String_iterator@DU?$char_traits@D@std@@V?$allocator@D@2@@std@@QBEAADXZ ; std::_String_iterator<char,std::char_traits<char>,std::allocator<char> >::operator*
  00265	8b 4d c0	 mov	 ecx, DWORD PTR __Src$224947[ebp]
  00268	2b c8		 sub	 ecx, eax
  0026a	51		 push	 ecx
  0026b	6a 00		 push	 0
  0026d	8d 4d cc	 lea	 ecx, DWORD PTR __Str$224941[ebp]
  00270	e8 00 00 00 00	 call	 ?erase@?$basic_string@DU?$char_traits@D@std@@V?$allocator@D@2@@std@@QAEAAV12@II@Z ; std::basic_string<char,std::char_traits<char>,std::allocator<char> >::erase
$LN4@uflow:

; 468  : 					break;

  00275	e9 81 00 00 00	 jmp	 $LN9@uflow
$LN3@uflow:

; 469  : 
; 470  : 				case codecvt_base::noconv:
; 471  : 					if (_Str.size() < sizeof (_Elem))

  0027a	8d 4d cc	 lea	 ecx, DWORD PTR __Str$224941[ebp]
  0027d	e8 00 00 00 00	 call	 ?size@?$basic_string@DU?$char_traits@D@std@@V?$allocator@D@2@@std@@QBEIXZ ; std::basic_string<char,std::char_traits<char>,std::allocator<char> >::size
  00282	83 f8 01	 cmp	 eax, 1
  00285	73 02		 jae	 SHORT $LN2@uflow

; 472  : 						break;	// no conversion, but need more chars

  00287	eb 72		 jmp	 SHORT $LN9@uflow
$LN2@uflow:

; 473  : 
; 474  : 					_CRT_SECURE_MEMCPY(&_Ch, sizeof (_Elem), &*_Str.begin(),

  00289	6a 01		 push	 1
  0028b	8d 85 6c ff ff
	ff		 lea	 eax, DWORD PTR $T225974[ebp]
  00291	50		 push	 eax
  00292	8d 4d cc	 lea	 ecx, DWORD PTR __Str$224941[ebp]
  00295	e8 00 00 00 00	 call	 ?begin@?$basic_string@DU?$char_traits@D@std@@V?$allocator@D@2@@std@@QAE?AV?$_String_iterator@DU?$char_traits@D@std@@V?$allocator@D@2@@2@XZ ; std::basic_string<char,std::char_traits<char>,std::allocator<char> >::begin
  0029a	8b c8		 mov	 ecx, eax
  0029c	e8 00 00 00 00	 call	 ??D?$_String_iterator@DU?$char_traits@D@std@@V?$allocator@D@2@@std@@QBEAADXZ ; std::_String_iterator<char,std::char_traits<char>,std::allocator<char> >::operator*
  002a1	50		 push	 eax
  002a2	6a 01		 push	 1
  002a4	8d 4d ca	 lea	 ecx, DWORD PTR __Ch$224945[ebp]
  002a7	51		 push	 ecx
  002a8	e8 00 00 00 00	 call	 _memcpy_s
  002ad	83 c4 10	 add	 esp, 16			; 00000010H

; 475  : 						sizeof (_Elem));	// copy raw bytes to element
; 476  : 
; 477  : 					return (_Traits::to_int_type(_Ch));	// return result

  002b0	8d 45 ca	 lea	 eax, DWORD PTR __Ch$224945[ebp]
  002b3	50		 push	 eax
  002b4	e8 00 00 00 00	 call	 ?to_int_type@?$char_traits@D@std@@SAHABD@Z ; std::char_traits<char>::to_int_type
  002b9	83 c4 04	 add	 esp, 4
  002bc	89 85 70 ff ff
	ff		 mov	 DWORD PTR $T225975[ebp], eax
  002c2	c7 45 fc ff ff
	ff ff		 mov	 DWORD PTR __$EHRec$[ebp+8], -1
  002c9	8d 4d cc	 lea	 ecx, DWORD PTR __Str$224941[ebp]
  002cc	e8 00 00 00 00	 call	 ??1?$basic_string@DU?$char_traits@D@std@@V?$allocator@D@2@@std@@QAE@XZ ; std::basic_string<char,std::char_traits<char>,std::allocator<char> >::~basic_string<char,std::char_traits<char>,std::allocator<char> >
  002d1	8b 85 70 ff ff
	ff		 mov	 eax, DWORD PTR $T225975[ebp]
  002d7	eb 36		 jmp	 SHORT $LN19@uflow
$LN1@uflow:

; 478  : 
; 479  : 				default:
; 480  : 					return (_Traits::eof());	// conversion failed

  002d9	e8 00 00 00 00	 call	 ?eof@?$char_traits@D@std@@SAHXZ ; std::char_traits<char>::eof
  002de	89 85 74 ff ff
	ff		 mov	 DWORD PTR $T225976[ebp], eax
  002e4	c7 45 fc ff ff
	ff ff		 mov	 DWORD PTR __$EHRec$[ebp+8], -1
  002eb	8d 4d cc	 lea	 ecx, DWORD PTR __Str$224941[ebp]
  002ee	e8 00 00 00 00	 call	 ??1?$basic_string@DU?$char_traits@D@std@@V?$allocator@D@2@@std@@QAE@XZ ; std::basic_string<char,std::char_traits<char>,std::allocator<char> >::~basic_string<char,std::char_traits<char>,std::allocator<char> >
  002f3	8b 85 74 ff ff
	ff		 mov	 eax, DWORD PTR $T225976[ebp]
  002f9	eb 14		 jmp	 SHORT $LN19@uflow
$LN9@uflow:

; 481  : 					}
; 482  : 				}

  002fb	e9 eb fd ff ff	 jmp	 $LN13@uflow

; 483  : 			}

  00300	c7 45 fc ff ff
	ff ff		 mov	 DWORD PTR __$EHRec$[ebp+8], -1
  00307	8d 4d cc	 lea	 ecx, DWORD PTR __Str$224941[ebp]
  0030a	e8 00 00 00 00	 call	 ??1?$basic_string@DU?$char_traits@D@std@@V?$allocator@D@2@@std@@QAE@XZ ; std::basic_string<char,std::char_traits<char>,std::allocator<char> >::~basic_string<char,std::char_traits<char>,std::allocator<char> >
$LN19@uflow:

; 484  : 		}

  0030f	8b 4d f4	 mov	 ecx, DWORD PTR __$EHRec$[ebp]
  00312	64 89 0d 00 00
	00 00		 mov	 DWORD PTR fs:0, ecx
  00319	59		 pop	 ecx
  0031a	5f		 pop	 edi
  0031b	5e		 pop	 esi
  0031c	5b		 pop	 ebx
  0031d	8b 4d f0	 mov	 ecx, DWORD PTR __$ArrayPad$[ebp]
  00320	33 cd		 xor	 ecx, ebp
  00322	e8 00 00 00 00	 call	 @__security_check_cookie@4
  00327	8b e5		 mov	 esp, ebp
  00329	5d		 pop	 ebp
  0032a	c3		 ret	 0
_TEXT	ENDS
;	COMDAT text$x
text$x	SEGMENT
__unwindfunclet$?uflow@?$basic_filebuf@DU?$char_traits@D@std@@@std@@MAEHXZ$0:
  00000	8d 4d cc	 lea	 ecx, DWORD PTR __Str$224941[ebp]
  00003	e9 00 00 00 00	 jmp	 ??1?$basic_string@DU?$char_traits@D@std@@V?$allocator@D@2@@std@@QAE@XZ ; std::basic_string<char,std::char_traits<char>,std::allocator<char> >::~basic_string<char,std::char_traits<char>,std::allocator<char> >
__ehhandler$?uflow@?$basic_filebuf@DU?$char_traits@D@std@@@std@@MAEHXZ:
  00008	8b 54 24 08	 mov	 edx, DWORD PTR [esp+8]
  0000c	8d 42 0c	 lea	 eax, DWORD PTR [edx+12]
  0000f	8b 8a 4c ff ff
	ff		 mov	 ecx, DWORD PTR [edx-180]
  00015	33 c8		 xor	 ecx, eax
  00017	e8 00 00 00 00	 call	 @__security_check_cookie@4
  0001c	8b 4a fc	 mov	 ecx, DWORD PTR [edx-4]
  0001f	33 c8		 xor	 ecx, eax
  00021	e8 00 00 00 00	 call	 @__security_check_cookie@4
  00026	b8 00 00 00 00	 mov	 eax, OFFSET __ehfuncinfo$?uflow@?$basic_filebuf@DU?$char_traits@D@std@@@std@@MAEHXZ
  0002b	e9 00 00 00 00	 jmp	 ___CxxFrameHandler3
text$x	ENDS
?uflow@?$basic_filebuf@DU?$char_traits@D@std@@@std@@MAEHXZ ENDP ; std::basic_filebuf<char,std::char_traits<char> >::uflow
; Function compile flags: /Odtp /ZI
;	COMDAT ??$_Fgetc@D@std@@YA_NAADPAU_iobuf@@@Z
_TEXT	SEGMENT
__Meta$ = -4						; size = 4
__Byte$ = 8						; size = 4
__File$ = 12						; size = 4
??$_Fgetc@D@std@@YA_NAADPAU_iobuf@@@Z PROC		; std::_Fgetc<char>, COMDAT

; 35   : 	{	// get a char element from a C stream

  00000	55		 push	 ebp
  00001	8b ec		 mov	 ebp, esp
  00003	83 ec 44	 sub	 esp, 68			; 00000044H
  00006	53		 push	 ebx
  00007	56		 push	 esi
  00008	57		 push	 edi

; 36   : 	int _Meta;
; 37   : 	if ((_Meta = fgetc(_File)) == EOF)

  00009	8b 45 0c	 mov	 eax, DWORD PTR __File$[ebp]
  0000c	50		 push	 eax
  0000d	e8 00 00 00 00	 call	 _fgetc
  00012	83 c4 04	 add	 esp, 4
  00015	89 45 fc	 mov	 DWORD PTR __Meta$[ebp], eax
  00018	83 7d fc ff	 cmp	 DWORD PTR __Meta$[ebp], -1
  0001c	75 06		 jne	 SHORT $LN2@Fgetc

; 38   : 		return (false);

  0001e	32 c0		 xor	 al, al
  00020	eb 0c		 jmp	 SHORT $LN3@Fgetc

; 39   : 	else

  00022	eb 0a		 jmp	 SHORT $LN3@Fgetc
$LN2@Fgetc:

; 40   : 		{	// got one, convert to char
; 41   : 		_Byte = (char)_Meta;

  00024	8b 45 08	 mov	 eax, DWORD PTR __Byte$[ebp]
  00027	8a 4d fc	 mov	 cl, BYTE PTR __Meta$[ebp]
  0002a	88 08		 mov	 BYTE PTR [eax], cl

; 42   : 		return (true);

  0002c	b0 01		 mov	 al, 1
$LN3@Fgetc:

; 43   : 		}
; 44   : 	}

  0002e	5f		 pop	 edi
  0002f	5e		 pop	 esi
  00030	5b		 pop	 ebx
  00031	8b e5		 mov	 esp, ebp
  00033	5d		 pop	 ebp
  00034	c3		 ret	 0
??$_Fgetc@D@std@@YA_NAADPAU_iobuf@@@Z ENDP		; std::_Fgetc<char>
_TEXT	ENDS
PUBLIC	??0?$fpos@H@std@@QAE@H_J@Z			; std::fpos<int>::fpos<int>
PUBLIC	??0?$fpos@H@std@@QAE@_J@Z			; std::fpos<int>::fpos<int>
PUBLIC	?_Endwrite@?$basic_filebuf@DU?$char_traits@D@std@@@std@@IAE_NXZ ; std::basic_filebuf<char,std::char_traits<char> >::_Endwrite
EXTRN	?_BADOFF@std@@3_JB:QWORD			; std::_BADOFF
EXTRN	_fgetpos:PROC
EXTRN	__fseeki64:PROC
; Function compile flags: /Odtp /ZI
;	COMDAT ?seekoff@?$basic_filebuf@DU?$char_traits@D@std@@@std@@MAE?AV?$fpos@H@2@_JHH@Z
_TEXT	SEGMENT
__Fileposition$ = -12					; size = 8
_this$ = -4						; size = 4
___$ReturnUdt$ = 8					; size = 4
__Off$ = 12						; size = 8
__Way$ = 20						; size = 4
___formal$ = 24						; size = 4
?seekoff@?$basic_filebuf@DU?$char_traits@D@std@@@std@@MAE?AV?$fpos@H@2@_JHH@Z PROC ; std::basic_filebuf<char,std::char_traits<char> >::seekoff, COMDAT
; _this$ = ecx

; 490  : 		{	// change position by _Off

  00000	55		 push	 ebp
  00001	8b ec		 mov	 ebp, esp
  00003	83 ec 4c	 sub	 esp, 76			; 0000004cH
  00006	53		 push	 ebx
  00007	56		 push	 esi
  00008	57		 push	 edi
  00009	89 4d fc	 mov	 DWORD PTR _this$[ebp], ecx

; 491  : 		fpos_t _Fileposition;
; 492  : 
; 493  : 		if (_Mysb::gptr() == &_Mychar	// something putback
; 494  : 			&& _Way == ios_base::cur	// a relative seek
; 495  : 			&& _Pcvt == 0)	// not converting

  0000c	8b 4d fc	 mov	 ecx, DWORD PTR _this$[ebp]
  0000f	e8 00 00 00 00	 call	 ?gptr@?$basic_streambuf@DU?$char_traits@D@std@@@std@@IBEPADXZ ; std::basic_streambuf<char,std::char_traits<char> >::gptr
  00014	8b 4d fc	 mov	 ecx, DWORD PTR _this$[ebp]
  00017	83 c1 48	 add	 ecx, 72			; 00000048H
  0001a	3b c1		 cmp	 eax, ecx
  0001c	75 21		 jne	 SHORT $LN5@seekoff
  0001e	83 7d 14 01	 cmp	 DWORD PTR __Way$[ebp], 1
  00022	75 1b		 jne	 SHORT $LN5@seekoff
  00024	8b 45 fc	 mov	 eax, DWORD PTR _this$[ebp]
  00027	83 78 44 00	 cmp	 DWORD PTR [eax+68], 0
  0002b	75 12		 jne	 SHORT $LN5@seekoff

; 496  : 			_Off -= (off_type)sizeof (_Elem);	// back up over _Elem bytes

  0002d	8b 45 0c	 mov	 eax, DWORD PTR __Off$[ebp]
  00030	83 e8 01	 sub	 eax, 1
  00033	8b 4d 10	 mov	 ecx, DWORD PTR __Off$[ebp+4]
  00036	83 d9 00	 sbb	 ecx, 0
  00039	89 45 0c	 mov	 DWORD PTR __Off$[ebp], eax
  0003c	89 4d 10	 mov	 DWORD PTR __Off$[ebp+4], ecx
$LN5@seekoff:

; 497  : 
; 498  : 		if (_Myfile == 0 || !_Endwrite()
; 499  : 			|| (_Off != 0 || _Way != ios_base::cur)
; 500  : 				&& _FSEEK_OFF(_Myfile, _Off, _Way) != 0
; 501  : 			|| fgetpos(_Myfile, &_Fileposition) != 0)

  0003f	8b 45 fc	 mov	 eax, DWORD PTR _this$[ebp]
  00042	83 78 54 00	 cmp	 DWORD PTR [eax+84], 0
  00046	74 53		 je	 SHORT $LN3@seekoff
  00048	8b 4d fc	 mov	 ecx, DWORD PTR _this$[ebp]
  0004b	e8 00 00 00 00	 call	 ?_Endwrite@?$basic_filebuf@DU?$char_traits@D@std@@@std@@IAE_NXZ ; std::basic_filebuf<char,std::char_traits<char> >::_Endwrite
  00050	0f b6 c0	 movzx	 eax, al
  00053	85 c0		 test	 eax, eax
  00055	74 44		 je	 SHORT $LN3@seekoff
  00057	8b 45 0c	 mov	 eax, DWORD PTR __Off$[ebp]
  0005a	0b 45 10	 or	 eax, DWORD PTR __Off$[ebp+4]
  0005d	75 06		 jne	 SHORT $LN1@seekoff
  0005f	83 7d 14 01	 cmp	 DWORD PTR __Way$[ebp], 1
  00063	74 1f		 je	 SHORT $LN2@seekoff
$LN1@seekoff:
  00065	8b 45 14	 mov	 eax, DWORD PTR __Way$[ebp]
  00068	50		 push	 eax
  00069	8b 4d 10	 mov	 ecx, DWORD PTR __Off$[ebp+4]
  0006c	51		 push	 ecx
  0006d	8b 55 0c	 mov	 edx, DWORD PTR __Off$[ebp]
  00070	52		 push	 edx
  00071	8b 45 fc	 mov	 eax, DWORD PTR _this$[ebp]
  00074	8b 48 54	 mov	 ecx, DWORD PTR [eax+84]
  00077	51		 push	 ecx
  00078	e8 00 00 00 00	 call	 __fseeki64
  0007d	83 c4 10	 add	 esp, 16			; 00000010H
  00080	85 c0		 test	 eax, eax
  00082	75 17		 jne	 SHORT $LN3@seekoff
$LN2@seekoff:
  00084	8d 45 f4	 lea	 eax, DWORD PTR __Fileposition$[ebp]
  00087	50		 push	 eax
  00088	8b 4d fc	 mov	 ecx, DWORD PTR _this$[ebp]
  0008b	8b 51 54	 mov	 edx, DWORD PTR [ecx+84]
  0008e	52		 push	 edx
  0008f	e8 00 00 00 00	 call	 _fgetpos
  00094	83 c4 08	 add	 esp, 8
  00097	85 c0		 test	 eax, eax
  00099	74 1a		 je	 SHORT $LN4@seekoff
$LN3@seekoff:

; 502  : 			return (pos_type(_BADOFF));	// report failure

  0009b	a1 04 00 00 00	 mov	 eax, DWORD PTR ?_BADOFF@std@@3_JB+4
  000a0	50		 push	 eax
  000a1	8b 0d 00 00 00
	00		 mov	 ecx, DWORD PTR ?_BADOFF@std@@3_JB
  000a7	51		 push	 ecx
  000a8	8b 4d 08	 mov	 ecx, DWORD PTR ___$ReturnUdt$[ebp]
  000ab	e8 00 00 00 00	 call	 ??0?$fpos@H@std@@QAE@_J@Z ; std::fpos<int>::fpos<int>
  000b0	8b 45 08	 mov	 eax, DWORD PTR ___$ReturnUdt$[ebp]
  000b3	eb 22		 jmp	 SHORT $LN6@seekoff
$LN4@seekoff:

; 503  : 
; 504  : 		_Reset_back();	// revert from _Mychar buffer, discarding any putback

  000b5	8b 4d fc	 mov	 ecx, DWORD PTR _this$[ebp]
  000b8	e8 00 00 00 00	 call	 ?_Reset_back@?$basic_filebuf@DU?$char_traits@D@std@@@std@@AAEXXZ ; std::basic_filebuf<char,std::char_traits<char> >::_Reset_back

; 505  : 		return (_POS_TYPE_FROM_STATE(pos_type, _State,

  000bd	8b 45 f8	 mov	 eax, DWORD PTR __Fileposition$[ebp+4]
  000c0	50		 push	 eax
  000c1	8b 4d f4	 mov	 ecx, DWORD PTR __Fileposition$[ebp]
  000c4	51		 push	 ecx
  000c5	8b 55 fc	 mov	 edx, DWORD PTR _this$[ebp]
  000c8	8b 42 4c	 mov	 eax, DWORD PTR [edx+76]
  000cb	50		 push	 eax
  000cc	8b 4d 08	 mov	 ecx, DWORD PTR ___$ReturnUdt$[ebp]
  000cf	e8 00 00 00 00	 call	 ??0?$fpos@H@std@@QAE@H_J@Z ; std::fpos<int>::fpos<int>
  000d4	8b 45 08	 mov	 eax, DWORD PTR ___$ReturnUdt$[ebp]
$LN6@seekoff:

; 506  : 			_Fileposition));	// return new position
; 507  : 		}

  000d7	5f		 pop	 edi
  000d8	5e		 pop	 esi
  000d9	5b		 pop	 ebx
  000da	8b e5		 mov	 esp, ebp
  000dc	5d		 pop	 ebp
  000dd	c2 14 00	 ret	 20			; 00000014H
?seekoff@?$basic_filebuf@DU?$char_traits@D@std@@@std@@MAE?AV?$fpos@H@2@_JHH@Z ENDP ; std::basic_filebuf<char,std::char_traits<char> >::seekoff
_TEXT	ENDS
PUBLIC	?state@?$fpos@H@std@@QBEHXZ			; std::fpos<int>::state
PUBLIC	??B?$fpos@H@std@@QBE_JXZ			; std::fpos<int>::operator __int64
PUBLIC	?seekpos@?$fpos@H@std@@QBE_JXZ			; std::fpos<int>::seekpos
EXTRN	_fsetpos:PROC
; Function compile flags: /Odtp /ZI
;	COMDAT ?seekpos@?$basic_filebuf@DU?$char_traits@D@std@@@std@@MAE?AV?$fpos@H@2@V32@H@Z
_TEXT	SEGMENT
__Off$ = -20						; size = 8
__Fileposition$ = -12					; size = 8
_this$ = -4						; size = 4
___$ReturnUdt$ = 8					; size = 4
__Pos$ = 12						; size = 24
___formal$ = 36						; size = 4
?seekpos@?$basic_filebuf@DU?$char_traits@D@std@@@std@@MAE?AV?$fpos@H@2@V32@H@Z PROC ; std::basic_filebuf<char,std::char_traits<char> >::seekpos, COMDAT
; _this$ = ecx

; 512  : 		{	// change position to _Pos

  00000	55		 push	 ebp
  00001	8b ec		 mov	 ebp, esp
  00003	83 ec 54	 sub	 esp, 84			; 00000054H
  00006	53		 push	 ebx
  00007	56		 push	 esi
  00008	57		 push	 edi
  00009	89 4d fc	 mov	 DWORD PTR _this$[ebp], ecx

; 513  : 		fpos_t _Fileposition = _POS_TYPE_TO_FPOS_T(_Pos);

  0000c	8d 4d 0c	 lea	 ecx, DWORD PTR __Pos$[ebp]
  0000f	e8 00 00 00 00	 call	 ?seekpos@?$fpos@H@std@@QBE_JXZ ; std::fpos<int>::seekpos
  00014	89 45 f4	 mov	 DWORD PTR __Fileposition$[ebp], eax
  00017	89 55 f8	 mov	 DWORD PTR __Fileposition$[ebp+4], edx

; 514  : 		off_type _Off = (off_type)_Pos - (off_type)_FPOSOFF(_Fileposition);

  0001a	8d 4d 0c	 lea	 ecx, DWORD PTR __Pos$[ebp]
  0001d	e8 00 00 00 00	 call	 ??B?$fpos@H@std@@QBE_JXZ ; std::fpos<int>::operator __int64
  00022	8b c8		 mov	 ecx, eax
  00024	8b f2		 mov	 esi, edx
  00026	8b 45 f4	 mov	 eax, DWORD PTR __Fileposition$[ebp]
  00029	99		 cdq
  0002a	2b c8		 sub	 ecx, eax
  0002c	1b f2		 sbb	 esi, edx
  0002e	89 4d ec	 mov	 DWORD PTR __Off$[ebp], ecx
  00031	89 75 f0	 mov	 DWORD PTR __Off$[ebp+4], esi

; 515  : 
; 516  : 		if (_Myfile == 0 || !_Endwrite()
; 517  : 			|| fsetpos(_Myfile, &_Fileposition) != 0
; 518  : 			|| _Off != 0 && _FSEEK_OFF(_Myfile, _Off, SEEK_CUR) != 0
; 519  : 			|| fgetpos(_Myfile, &_Fileposition) != 0)

  00034	8b 45 fc	 mov	 eax, DWORD PTR _this$[ebp]
  00037	83 78 54 00	 cmp	 DWORD PTR [eax+84], 0
  0003b	74 62		 je	 SHORT $LN2@seekpos
  0003d	8b 4d fc	 mov	 ecx, DWORD PTR _this$[ebp]
  00040	e8 00 00 00 00	 call	 ?_Endwrite@?$basic_filebuf@DU?$char_traits@D@std@@@std@@IAE_NXZ ; std::basic_filebuf<char,std::char_traits<char> >::_Endwrite
  00045	0f b6 c0	 movzx	 eax, al
  00048	85 c0		 test	 eax, eax
  0004a	74 53		 je	 SHORT $LN2@seekpos
  0004c	8d 45 f4	 lea	 eax, DWORD PTR __Fileposition$[ebp]
  0004f	50		 push	 eax
  00050	8b 4d fc	 mov	 ecx, DWORD PTR _this$[ebp]
  00053	8b 51 54	 mov	 edx, DWORD PTR [ecx+84]
  00056	52		 push	 edx
  00057	e8 00 00 00 00	 call	 _fsetpos
  0005c	83 c4 08	 add	 esp, 8
  0005f	85 c0		 test	 eax, eax
  00061	75 3c		 jne	 SHORT $LN2@seekpos
  00063	8b 45 ec	 mov	 eax, DWORD PTR __Off$[ebp]
  00066	0b 45 f0	 or	 eax, DWORD PTR __Off$[ebp+4]
  00069	74 1d		 je	 SHORT $LN1@seekpos
  0006b	6a 01		 push	 1
  0006d	8b 45 f0	 mov	 eax, DWORD PTR __Off$[ebp+4]
  00070	50		 push	 eax
  00071	8b 4d ec	 mov	 ecx, DWORD PTR __Off$[ebp]
  00074	51		 push	 ecx
  00075	8b 55 fc	 mov	 edx, DWORD PTR _this$[ebp]
  00078	8b 42 54	 mov	 eax, DWORD PTR [edx+84]
  0007b	50		 push	 eax
  0007c	e8 00 00 00 00	 call	 __fseeki64
  00081	83 c4 10	 add	 esp, 16			; 00000010H
  00084	85 c0		 test	 eax, eax
  00086	75 17		 jne	 SHORT $LN2@seekpos
$LN1@seekpos:
  00088	8d 45 f4	 lea	 eax, DWORD PTR __Fileposition$[ebp]
  0008b	50		 push	 eax
  0008c	8b 4d fc	 mov	 ecx, DWORD PTR _this$[ebp]
  0008f	8b 51 54	 mov	 edx, DWORD PTR [ecx+84]
  00092	52		 push	 edx
  00093	e8 00 00 00 00	 call	 _fgetpos
  00098	83 c4 08	 add	 esp, 8
  0009b	85 c0		 test	 eax, eax
  0009d	74 1a		 je	 SHORT $LN3@seekpos
$LN2@seekpos:

; 520  : 			return (pos_type(_BADOFF));	// report failure

  0009f	a1 04 00 00 00	 mov	 eax, DWORD PTR ?_BADOFF@std@@3_JB+4
  000a4	50		 push	 eax
  000a5	8b 0d 00 00 00
	00		 mov	 ecx, DWORD PTR ?_BADOFF@std@@3_JB
  000ab	51		 push	 ecx
  000ac	8b 4d 08	 mov	 ecx, DWORD PTR ___$ReturnUdt$[ebp]
  000af	e8 00 00 00 00	 call	 ??0?$fpos@H@std@@QAE@_J@Z ; std::fpos<int>::fpos<int>
  000b4	8b 45 08	 mov	 eax, DWORD PTR ___$ReturnUdt$[ebp]
  000b7	eb 30		 jmp	 SHORT $LN4@seekpos
$LN3@seekpos:

; 521  : 
; 522  : 		_State = _POS_TYPE_TO_STATE(_Pos);

  000b9	8d 4d 0c	 lea	 ecx, DWORD PTR __Pos$[ebp]
  000bc	e8 00 00 00 00	 call	 ?state@?$fpos@H@std@@QBEHXZ ; std::fpos<int>::state
  000c1	8b 4d fc	 mov	 ecx, DWORD PTR _this$[ebp]
  000c4	89 41 4c	 mov	 DWORD PTR [ecx+76], eax

; 523  : 
; 524  : 		_Reset_back();	// revert from _Mychar buffer, discarding any putback

  000c7	8b 4d fc	 mov	 ecx, DWORD PTR _this$[ebp]
  000ca	e8 00 00 00 00	 call	 ?_Reset_back@?$basic_filebuf@DU?$char_traits@D@std@@@std@@AAEXXZ ; std::basic_filebuf<char,std::char_traits<char> >::_Reset_back

; 525  : 		return (_POS_TYPE_FROM_STATE(pos_type, _State,

  000cf	8b 45 f8	 mov	 eax, DWORD PTR __Fileposition$[ebp+4]
  000d2	50		 push	 eax
  000d3	8b 4d f4	 mov	 ecx, DWORD PTR __Fileposition$[ebp]
  000d6	51		 push	 ecx
  000d7	8b 55 fc	 mov	 edx, DWORD PTR _this$[ebp]
  000da	8b 42 4c	 mov	 eax, DWORD PTR [edx+76]
  000dd	50		 push	 eax
  000de	8b 4d 08	 mov	 ecx, DWORD PTR ___$ReturnUdt$[ebp]
  000e1	e8 00 00 00 00	 call	 ??0?$fpos@H@std@@QAE@H_J@Z ; std::fpos<int>::fpos<int>
  000e6	8b 45 08	 mov	 eax, DWORD PTR ___$ReturnUdt$[ebp]
$LN4@seekpos:

; 526  : 			_Fileposition));	// return new position
; 527  : 		}

  000e9	5f		 pop	 edi
  000ea	5e		 pop	 esi
  000eb	5b		 pop	 ebx
  000ec	8b e5		 mov	 esp, ebp
  000ee	5d		 pop	 ebp
  000ef	c2 20 00	 ret	 32			; 00000020H
?seekpos@?$basic_filebuf@DU?$char_traits@D@std@@@std@@MAE?AV?$fpos@H@2@V32@H@Z ENDP ; std::basic_filebuf<char,std::char_traits<char> >::seekpos
_TEXT	ENDS
PUBLIC	?_Init@?$basic_filebuf@DU?$char_traits@D@std@@@std@@IAEXPAU_iobuf@@W4_Initfl@12@@Z ; std::basic_filebuf<char,std::char_traits<char> >::_Init
EXTRN	_setvbuf:PROC
; Function compile flags: /Odtp /ZI
;	COMDAT ?setbuf@?$basic_filebuf@DU?$char_traits@D@std@@@std@@MAEPAV?$basic_streambuf@DU?$char_traits@D@std@@@2@PAD_J@Z
_TEXT	SEGMENT
tv71 = -72						; size = 4
_this$ = -4						; size = 4
__Buffer$ = 8						; size = 4
__Count$ = 12						; size = 8
?setbuf@?$basic_filebuf@DU?$char_traits@D@std@@@std@@MAEPAV?$basic_streambuf@DU?$char_traits@D@std@@@2@PAD_J@Z PROC ; std::basic_filebuf<char,std::char_traits<char> >::setbuf, COMDAT
; _this$ = ecx

; 530  : 		{	// offer _Buffer to C stream

  00000	55		 push	 ebp
  00001	8b ec		 mov	 ebp, esp
  00003	83 ec 48	 sub	 esp, 72			; 00000048H
  00006	53		 push	 ebx
  00007	56		 push	 esi
  00008	57		 push	 edi
  00009	89 4d fc	 mov	 DWORD PTR _this$[ebp], ecx

; 531  : 		if (_Myfile == 0 || setvbuf(_Myfile, (char *)_Buffer,
; 532  : 			_Buffer == 0 && _Count == 0 ? _IONBF : _IOFBF,
; 533  : 			(size_t)_Count * sizeof (_Elem)) != 0)

  0000c	8b 45 fc	 mov	 eax, DWORD PTR _this$[ebp]
  0000f	83 78 54 00	 cmp	 DWORD PTR [eax+84], 0
  00013	74 3d		 je	 SHORT $LN2@setbuf
  00015	83 7d 08 00	 cmp	 DWORD PTR __Buffer$[ebp], 0
  00019	75 11		 jne	 SHORT $LN6@setbuf
  0001b	8b 45 0c	 mov	 eax, DWORD PTR __Count$[ebp]
  0001e	0b 45 10	 or	 eax, DWORD PTR __Count$[ebp+4]
  00021	75 09		 jne	 SHORT $LN6@setbuf
  00023	c7 45 b8 04 00
	00 00		 mov	 DWORD PTR tv71[ebp], 4
  0002a	eb 07		 jmp	 SHORT $LN7@setbuf
$LN6@setbuf:
  0002c	c7 45 b8 00 00
	00 00		 mov	 DWORD PTR tv71[ebp], 0
$LN7@setbuf:
  00033	8b 4d 0c	 mov	 ecx, DWORD PTR __Count$[ebp]
  00036	51		 push	 ecx
  00037	8b 55 b8	 mov	 edx, DWORD PTR tv71[ebp]
  0003a	52		 push	 edx
  0003b	8b 45 08	 mov	 eax, DWORD PTR __Buffer$[ebp]
  0003e	50		 push	 eax
  0003f	8b 4d fc	 mov	 ecx, DWORD PTR _this$[ebp]
  00042	8b 51 54	 mov	 edx, DWORD PTR [ecx+84]
  00045	52		 push	 edx
  00046	e8 00 00 00 00	 call	 _setvbuf
  0004b	83 c4 10	 add	 esp, 16			; 00000010H
  0004e	85 c0		 test	 eax, eax
  00050	74 06		 je	 SHORT $LN3@setbuf
$LN2@setbuf:

; 534  : 			return (0);	// failed

  00052	33 c0		 xor	 eax, eax
  00054	eb 16		 jmp	 SHORT $LN4@setbuf

; 535  : 		else

  00056	eb 14		 jmp	 SHORT $LN4@setbuf
$LN3@setbuf:

; 536  : 			{	// new buffer, reinitialize pointers
; 537  : 			_Init(_Myfile, _Openfl);

  00058	6a 01		 push	 1
  0005a	8b 45 fc	 mov	 eax, DWORD PTR _this$[ebp]
  0005d	8b 48 54	 mov	 ecx, DWORD PTR [eax+84]
  00060	51		 push	 ecx
  00061	8b 4d fc	 mov	 ecx, DWORD PTR _this$[ebp]
  00064	e8 00 00 00 00	 call	 ?_Init@?$basic_filebuf@DU?$char_traits@D@std@@@std@@IAEXPAU_iobuf@@W4_Initfl@12@@Z ; std::basic_filebuf<char,std::char_traits<char> >::_Init

; 538  : 			return (this);

  00069	8b 45 fc	 mov	 eax, DWORD PTR _this$[ebp]
$LN4@setbuf:

; 539  : 			}
; 540  : 		}

  0006c	5f		 pop	 edi
  0006d	5e		 pop	 esi
  0006e	5b		 pop	 ebx
  0006f	8b e5		 mov	 esp, ebp
  00071	5d		 pop	 ebp
  00072	c2 0c 00	 ret	 12			; 0000000cH
?setbuf@?$basic_filebuf@DU?$char_traits@D@std@@@std@@MAEPAV?$basic_streambuf@DU?$char_traits@D@std@@@2@PAD_J@Z ENDP ; std::basic_filebuf<char,std::char_traits<char> >::setbuf
_TEXT	ENDS
EXTRN	_fflush:PROC
; Function compile flags: /Odtp /ZI
;	COMDAT ?sync@?$basic_filebuf@DU?$char_traits@D@std@@@std@@MAEHXZ
_TEXT	SEGMENT
tv86 = -80						; size = 4
$T225996 = -76						; size = 4
$T225997 = -72						; size = 4
_this$ = -4						; size = 4
?sync@?$basic_filebuf@DU?$char_traits@D@std@@@std@@MAEHXZ PROC ; std::basic_filebuf<char,std::char_traits<char> >::sync, COMDAT
; _this$ = ecx

; 543  : 		{	// synchronize C stream with external file

  00000	55		 push	 ebp
  00001	8b ec		 mov	 ebp, esp
  00003	83 ec 50	 sub	 esp, 80			; 00000050H
  00006	53		 push	 ebx
  00007	56		 push	 esi
  00008	57		 push	 edi
  00009	89 4d fc	 mov	 DWORD PTR _this$[ebp], ecx

; 544  : 		return (_Myfile == 0
; 545  : 			|| _Traits::eq_int_type(_Traits::eof(), overflow())
; 546  : 			|| 0 <= fflush(_Myfile) ? 0 : -1);

  0000c	8b 45 fc	 mov	 eax, DWORD PTR _this$[ebp]
  0000f	83 78 54 00	 cmp	 DWORD PTR [eax+84], 0
  00013	74 51		 je	 SHORT $LN3@sync
  00015	e8 00 00 00 00	 call	 ?eof@?$char_traits@D@std@@SAHXZ ; std::char_traits<char>::eof
  0001a	50		 push	 eax
  0001b	8b 4d fc	 mov	 ecx, DWORD PTR _this$[ebp]
  0001e	8b 11		 mov	 edx, DWORD PTR [ecx]
  00020	8b 4d fc	 mov	 ecx, DWORD PTR _this$[ebp]
  00023	8b 42 0c	 mov	 eax, DWORD PTR [edx+12]
  00026	ff d0		 call	 eax
  00028	89 45 b4	 mov	 DWORD PTR $T225996[ebp], eax
  0002b	e8 00 00 00 00	 call	 ?eof@?$char_traits@D@std@@SAHXZ ; std::char_traits<char>::eof
  00030	89 45 b8	 mov	 DWORD PTR $T225997[ebp], eax
  00033	8d 4d b4	 lea	 ecx, DWORD PTR $T225996[ebp]
  00036	51		 push	 ecx
  00037	8d 55 b8	 lea	 edx, DWORD PTR $T225997[ebp]
  0003a	52		 push	 edx
  0003b	e8 00 00 00 00	 call	 ?eq_int_type@?$char_traits@D@std@@SA_NABH0@Z ; std::char_traits<char>::eq_int_type
  00040	83 c4 08	 add	 esp, 8
  00043	0f b6 c0	 movzx	 eax, al
  00046	85 c0		 test	 eax, eax
  00048	75 1c		 jne	 SHORT $LN3@sync
  0004a	8b 4d fc	 mov	 ecx, DWORD PTR _this$[ebp]
  0004d	8b 51 54	 mov	 edx, DWORD PTR [ecx+84]
  00050	52		 push	 edx
  00051	e8 00 00 00 00	 call	 _fflush
  00056	83 c4 04	 add	 esp, 4
  00059	85 c0		 test	 eax, eax
  0005b	7d 09		 jge	 SHORT $LN3@sync
  0005d	c7 45 b0 ff ff
	ff ff		 mov	 DWORD PTR tv86[ebp], -1
  00064	eb 07		 jmp	 SHORT $LN4@sync
$LN3@sync:
  00066	c7 45 b0 00 00
	00 00		 mov	 DWORD PTR tv86[ebp], 0
$LN4@sync:
  0006d	8b 45 b0	 mov	 eax, DWORD PTR tv86[ebp]

; 547  : 		}

  00070	5f		 pop	 edi
  00071	5e		 pop	 esi
  00072	5b		 pop	 ebx
  00073	8b e5		 mov	 esp, ebp
  00075	5d		 pop	 ebp
  00076	c3		 ret	 0
?sync@?$basic_filebuf@DU?$char_traits@D@std@@@std@@MAEHXZ ENDP ; std::basic_filebuf<char,std::char_traits<char> >::sync
_TEXT	ENDS
PUBLIC	?_Initcvt@?$basic_filebuf@DU?$char_traits@D@std@@@std@@IAEXPBV?$codecvt@DDH@2@@Z ; std::basic_filebuf<char,std::char_traits<char> >::_Initcvt
PUBLIC	??$use_facet@V?$codecvt@DDH@std@@@std@@YAABV?$codecvt@DDH@0@ABVlocale@0@@Z ; std::use_facet<std::codecvt<char,char,int> >
; Function compile flags: /Odtp /ZI
;	COMDAT ?imbue@?$basic_filebuf@DU?$char_traits@D@std@@@std@@MAEXABVlocale@2@@Z
_TEXT	SEGMENT
_this$ = -4						; size = 4
__Loc$ = 8						; size = 4
?imbue@?$basic_filebuf@DU?$char_traits@D@std@@@std@@MAEXABVlocale@2@@Z PROC ; std::basic_filebuf<char,std::char_traits<char> >::imbue, COMDAT
; _this$ = ecx

; 550  : 		{	// set locale to argument (capture nontrivial codecvt facet)

  00000	55		 push	 ebp
  00001	8b ec		 mov	 ebp, esp
  00003	83 ec 44	 sub	 esp, 68			; 00000044H
  00006	53		 push	 ebx
  00007	56		 push	 esi
  00008	57		 push	 edi
  00009	89 4d fc	 mov	 DWORD PTR _this$[ebp], ecx

; 551  : 		_Initcvt(&_USE(_Loc, _Cvt));

  0000c	8b 45 08	 mov	 eax, DWORD PTR __Loc$[ebp]
  0000f	50		 push	 eax
  00010	e8 00 00 00 00	 call	 ??$use_facet@V?$codecvt@DDH@std@@@std@@YAABV?$codecvt@DDH@0@ABVlocale@0@@Z ; std::use_facet<std::codecvt<char,char,int> >
  00015	83 c4 04	 add	 esp, 4
  00018	50		 push	 eax
  00019	8b 4d fc	 mov	 ecx, DWORD PTR _this$[ebp]
  0001c	e8 00 00 00 00	 call	 ?_Initcvt@?$basic_filebuf@DU?$char_traits@D@std@@@std@@IAEXPBV?$codecvt@DDH@2@@Z ; std::basic_filebuf<char,std::char_traits<char> >::_Initcvt

; 552  : 		}

  00021	5f		 pop	 edi
  00022	5e		 pop	 esi
  00023	5b		 pop	 ebx
  00024	8b e5		 mov	 esp, ebp
  00026	5d		 pop	 ebp
  00027	c2 04 00	 ret	 4
?imbue@?$basic_filebuf@DU?$char_traits@D@std@@@std@@MAEXABVlocale@2@@Z ENDP ; std::basic_filebuf<char,std::char_traits<char> >::imbue
_TEXT	ENDS
EXTRN	??3@YAXPAX@Z:PROC				; operator delete
; Function compile flags: /Odtp /ZI
;	COMDAT ??_G?$basic_ofstream@DU?$char_traits@D@std@@@std@@UAEPAXI@Z
_TEXT	SEGMENT
_this$ = -4						; size = 4
___flags$ = 8						; size = 4
??_G?$basic_ofstream@DU?$char_traits@D@std@@@std@@UAEPAXI@Z PROC ; std::basic_ofstream<char,std::char_traits<char> >::`scalar deleting destructor', COMDAT
; _this$ = ecx
  00000	55		 push	 ebp
  00001	8b ec		 mov	 ebp, esp
  00003	83 ec 44	 sub	 esp, 68			; 00000044H
  00006	53		 push	 ebx
  00007	56		 push	 esi
  00008	57		 push	 edi
  00009	89 4d fc	 mov	 DWORD PTR _this$[ebp], ecx
  0000c	8b 4d fc	 mov	 ecx, DWORD PTR _this$[ebp]
  0000f	83 e9 60	 sub	 ecx, 96			; 00000060H
  00012	e8 00 00 00 00	 call	 ??_D?$basic_ofstream@DU?$char_traits@D@std@@@std@@QAEXXZ
  00017	8b 45 08	 mov	 eax, DWORD PTR ___flags$[ebp]
  0001a	83 e0 01	 and	 eax, 1
  0001d	74 0f		 je	 SHORT $LN1@scalar
  0001f	8b 45 fc	 mov	 eax, DWORD PTR _this$[ebp]
  00022	83 e8 60	 sub	 eax, 96			; 00000060H
  00025	50		 push	 eax
  00026	e8 00 00 00 00	 call	 ??3@YAXPAX@Z		; operator delete
  0002b	83 c4 04	 add	 esp, 4
$LN1@scalar:
  0002e	8b 45 fc	 mov	 eax, DWORD PTR _this$[ebp]
  00031	83 e8 60	 sub	 eax, 96			; 00000060H
  00034	5f		 pop	 edi
  00035	5e		 pop	 esi
  00036	5b		 pop	 ebx
  00037	8b e5		 mov	 esp, ebp
  00039	5d		 pop	 ebp
  0003a	c2 04 00	 ret	 4
??_G?$basic_ofstream@DU?$char_traits@D@std@@@std@@UAEPAXI@Z ENDP ; std::basic_ofstream<char,std::char_traits<char> >::`scalar deleting destructor'
; Function compile flags: /Odtp /ZI
_TEXT	ENDS
;	COMDAT ??_G?$basic_filebuf@DU?$char_traits@D@std@@@std@@UAEPAXI@Z
_TEXT	SEGMENT
_this$ = -4						; size = 4
___flags$ = 8						; size = 4
??_G?$basic_filebuf@DU?$char_traits@D@std@@@std@@UAEPAXI@Z PROC ; std::basic_filebuf<char,std::char_traits<char> >::`scalar deleting destructor', COMDAT
; _this$ = ecx
  00000	55		 push	 ebp
  00001	8b ec		 mov	 ebp, esp
  00003	83 ec 44	 sub	 esp, 68			; 00000044H
  00006	53		 push	 ebx
  00007	56		 push	 esi
  00008	57		 push	 edi
  00009	89 4d fc	 mov	 DWORD PTR _this$[ebp], ecx
  0000c	8b 4d fc	 mov	 ecx, DWORD PTR _this$[ebp]
  0000f	e8 00 00 00 00	 call	 ??1?$basic_filebuf@DU?$char_traits@D@std@@@std@@UAE@XZ ; std::basic_filebuf<char,std::char_traits<char> >::~basic_filebuf<char,std::char_traits<char> >
  00014	8b 45 08	 mov	 eax, DWORD PTR ___flags$[ebp]
  00017	83 e0 01	 and	 eax, 1
  0001a	74 0c		 je	 SHORT $LN1@scalar@2
  0001c	8b 45 fc	 mov	 eax, DWORD PTR _this$[ebp]
  0001f	50		 push	 eax
  00020	e8 00 00 00 00	 call	 ??3@YAXPAX@Z		; operator delete
  00025	83 c4 04	 add	 esp, 4
$LN1@scalar@2:
  00028	8b 45 fc	 mov	 eax, DWORD PTR _this$[ebp]
  0002b	5f		 pop	 edi
  0002c	5e		 pop	 esi
  0002d	5b		 pop	 ebx
  0002e	8b e5		 mov	 esp, ebp
  00030	5d		 pop	 ebp
  00031	c2 04 00	 ret	 4
??_G?$basic_filebuf@DU?$char_traits@D@std@@@std@@UAEPAXI@Z ENDP ; std::basic_filebuf<char,std::char_traits<char> >::`scalar deleting destructor'
_TEXT	ENDS
PUBLIC	??1?$_String_val@DV?$allocator@D@std@@@std@@QAE@XZ ; std::_String_val<char,std::allocator<char> >::~_String_val<char,std::allocator<char> >
PUBLIC	?assign@?$basic_string@DU?$char_traits@D@std@@V?$allocator@D@2@@std@@QAEAAV12@ID@Z ; std::basic_string<char,std::char_traits<char>,std::allocator<char> >::assign
PUBLIC	?_Tidy@?$basic_string@DU?$char_traits@D@std@@V?$allocator@D@2@@std@@QAEX_NI@Z ; std::basic_string<char,std::char_traits<char>,std::allocator<char> >::_Tidy
PUBLIC	??0?$_String_val@DV?$allocator@D@std@@@std@@QAE@V?$allocator@D@1@@Z ; std::_String_val<char,std::allocator<char> >::_String_val<char,std::allocator<char> >
PUBLIC	??0?$allocator@D@std@@QAE@XZ			; std::allocator<char>::allocator<char>
;	COMDAT xdata$x
; File d:\microsoft visual studio 10.0\vc\include\xstring
xdata$x	SEGMENT
__unwindtable$??0?$basic_string@DU?$char_traits@D@std@@V?$allocator@D@2@@std@@QAE@ID@Z DD 0ffffffffH
	DD	FLAT:__unwindfunclet$??0?$basic_string@DU?$char_traits@D@std@@V?$allocator@D@2@@std@@QAE@ID@Z$0
__ehfuncinfo$??0?$basic_string@DU?$char_traits@D@std@@V?$allocator@D@2@@std@@QAE@ID@Z DD 019930522H
	DD	01H
	DD	FLAT:__unwindtable$??0?$basic_string@DU?$char_traits@D@std@@V?$allocator@D@2@@std@@QAE@ID@Z
	DD	2 DUP(00H)
	DD	2 DUP(00H)
	DD	00H
	DD	01H
; Function compile flags: /Odtp /ZI
xdata$x	ENDS
;	COMDAT ??0?$basic_string@DU?$char_traits@D@std@@V?$allocator@D@2@@std@@QAE@ID@Z
_TEXT	SEGMENT
$T226008 = -84						; size = 4
_this$ = -16						; size = 4
__$EHRec$ = -12						; size = 12
__Count$ = 8						; size = 4
__Ch$ = 12						; size = 1
??0?$basic_string@DU?$char_traits@D@std@@V?$allocator@D@2@@std@@QAE@ID@Z PROC ; std::basic_string<char,std::char_traits<char>,std::allocator<char> >::basic_string<char,std::char_traits<char>,std::allocator<char> >, COMDAT
; _this$ = ecx

; 606  : 		{	// construct from _Count * _Ch

  00000	55		 push	 ebp
  00001	8b ec		 mov	 ebp, esp
  00003	6a ff		 push	 -1
  00005	68 00 00 00 00	 push	 __ehhandler$??0?$basic_string@DU?$char_traits@D@std@@V?$allocator@D@2@@std@@QAE@ID@Z
  0000a	64 a1 00 00 00
	00		 mov	 eax, DWORD PTR fs:0
  00010	50		 push	 eax
  00011	83 ec 48	 sub	 esp, 72			; 00000048H
  00014	53		 push	 ebx
  00015	56		 push	 esi
  00016	57		 push	 edi
  00017	a1 00 00 00 00	 mov	 eax, DWORD PTR ___security_cookie
  0001c	33 c5		 xor	 eax, ebp
  0001e	50		 push	 eax
  0001f	8d 45 f4	 lea	 eax, DWORD PTR __$EHRec$[ebp]
  00022	64 a3 00 00 00
	00		 mov	 DWORD PTR fs:0, eax
  00028	89 4d f0	 mov	 DWORD PTR _this$[ebp], ecx
  0002b	51		 push	 ecx
  0002c	8b cc		 mov	 ecx, esp
  0002e	89 65 ac	 mov	 DWORD PTR $T226008[ebp], esp
  00031	e8 00 00 00 00	 call	 ??0?$allocator@D@std@@QAE@XZ ; std::allocator<char>::allocator<char>
  00036	8b 4d f0	 mov	 ecx, DWORD PTR _this$[ebp]
  00039	e8 00 00 00 00	 call	 ??0?$_String_val@DV?$allocator@D@std@@@std@@QAE@V?$allocator@D@1@@Z ; std::_String_val<char,std::allocator<char> >::_String_val<char,std::allocator<char> >
  0003e	c7 45 fc 00 00
	00 00		 mov	 DWORD PTR __$EHRec$[ebp+8], 0

; 607  : 		_Tidy();

  00045	6a 00		 push	 0
  00047	6a 00		 push	 0
  00049	8b 4d f0	 mov	 ecx, DWORD PTR _this$[ebp]
  0004c	e8 00 00 00 00	 call	 ?_Tidy@?$basic_string@DU?$char_traits@D@std@@V?$allocator@D@2@@std@@QAEX_NI@Z ; std::basic_string<char,std::char_traits<char>,std::allocator<char> >::_Tidy

; 608  : 		assign(_Count, _Ch);

  00051	0f b6 45 0c	 movzx	 eax, BYTE PTR __Ch$[ebp]
  00055	50		 push	 eax
  00056	8b 4d 08	 mov	 ecx, DWORD PTR __Count$[ebp]
  00059	51		 push	 ecx
  0005a	8b 4d f0	 mov	 ecx, DWORD PTR _this$[ebp]
  0005d	e8 00 00 00 00	 call	 ?assign@?$basic_string@DU?$char_traits@D@std@@V?$allocator@D@2@@std@@QAEAAV12@ID@Z ; std::basic_string<char,std::char_traits<char>,std::allocator<char> >::assign

; 609  : 		}

  00062	c7 45 fc ff ff
	ff ff		 mov	 DWORD PTR __$EHRec$[ebp+8], -1
  00069	8b 45 f0	 mov	 eax, DWORD PTR _this$[ebp]
  0006c	8b 4d f4	 mov	 ecx, DWORD PTR __$EHRec$[ebp]
  0006f	64 89 0d 00 00
	00 00		 mov	 DWORD PTR fs:0, ecx
  00076	59		 pop	 ecx
  00077	5f		 pop	 edi
  00078	5e		 pop	 esi
  00079	5b		 pop	 ebx
  0007a	8b e5		 mov	 esp, ebp
  0007c	5d		 pop	 ebp
  0007d	c2 08 00	 ret	 8
_TEXT	ENDS
;	COMDAT text$x
text$x	SEGMENT
__unwindfunclet$??0?$basic_string@DU?$char_traits@D@std@@V?$allocator@D@2@@std@@QAE@ID@Z$0:
  00000	8b 4d f0	 mov	 ecx, DWORD PTR _this$[ebp]
  00003	e9 00 00 00 00	 jmp	 ??1?$_String_val@DV?$allocator@D@std@@@std@@QAE@XZ ; std::_String_val<char,std::allocator<char> >::~_String_val<char,std::allocator<char> >
__ehhandler$??0?$basic_string@DU?$char_traits@D@std@@V?$allocator@D@2@@std@@QAE@ID@Z:
  00008	8b 54 24 08	 mov	 edx, DWORD PTR [esp+8]
  0000c	8d 42 0c	 lea	 eax, DWORD PTR [edx+12]
  0000f	8b 4a a8	 mov	 ecx, DWORD PTR [edx-88]
  00012	33 c8		 xor	 ecx, eax
  00014	e8 00 00 00 00	 call	 @__security_check_cookie@4
  00019	b8 00 00 00 00	 mov	 eax, OFFSET __ehfuncinfo$??0?$basic_string@DU?$char_traits@D@std@@V?$allocator@D@2@@std@@QAE@ID@Z
  0001e	e9 00 00 00 00	 jmp	 ___CxxFrameHandler3
text$x	ENDS
??0?$basic_string@DU?$char_traits@D@std@@V?$allocator@D@2@@std@@QAE@ID@Z ENDP ; std::basic_string<char,std::char_traits<char>,std::allocator<char> >::basic_string<char,std::char_traits<char>,std::allocator<char> >
PUBLIC	?_Eos@?$basic_string@DU?$char_traits@D@std@@V?$allocator@D@2@@std@@QAEXI@Z ; std::basic_string<char,std::char_traits<char>,std::allocator<char> >::_Eos
PUBLIC	?_Chassign@?$basic_string@DU?$char_traits@D@std@@V?$allocator@D@2@@std@@QAEXIID@Z ; std::basic_string<char,std::char_traits<char>,std::allocator<char> >::_Chassign
PUBLIC	?_Grow@?$basic_string@DU?$char_traits@D@std@@V?$allocator@D@2@@std@@QAE_NI_N@Z ; std::basic_string<char,std::char_traits<char>,std::allocator<char> >::_Grow
PUBLIC	?_Xlen@?$basic_string@DU?$char_traits@D@std@@V?$allocator@D@2@@std@@QBEXXZ ; std::basic_string<char,std::char_traits<char>,std::allocator<char> >::_Xlen
; Function compile flags: /Odtp /ZI
;	COMDAT ?append@?$basic_string@DU?$char_traits@D@std@@V?$allocator@D@2@@std@@QAEAAV12@ID@Z
_TEXT	SEGMENT
__Num$ = -8						; size = 4
_this$ = -4						; size = 4
__Count$ = 8						; size = 4
__Ch$ = 12						; size = 1
?append@?$basic_string@DU?$char_traits@D@std@@V?$allocator@D@2@@std@@QAEAAV12@ID@Z PROC ; std::basic_string<char,std::char_traits<char>,std::allocator<char> >::append, COMDAT
; _this$ = ecx

; 844  : 		{	// append _Count * _Ch

  00000	55		 push	 ebp
  00001	8b ec		 mov	 ebp, esp
  00003	83 ec 48	 sub	 esp, 72			; 00000048H
  00006	53		 push	 ebx
  00007	56		 push	 esi
  00008	57		 push	 edi
  00009	89 4d fc	 mov	 DWORD PTR _this$[ebp], ecx

; 845  : 		if (npos - this->_Mysize <= _Count)

  0000c	8b 45 fc	 mov	 eax, DWORD PTR _this$[ebp]
  0000f	83 c9 ff	 or	 ecx, -1
  00012	2b 48 10	 sub	 ecx, DWORD PTR [eax+16]
  00015	3b 4d 08	 cmp	 ecx, DWORD PTR __Count$[ebp]
  00018	77 08		 ja	 SHORT $LN2@append

; 846  : 			_Xlen();	// result too long

  0001a	8b 4d fc	 mov	 ecx, DWORD PTR _this$[ebp]
  0001d	e8 00 00 00 00	 call	 ?_Xlen@?$basic_string@DU?$char_traits@D@std@@V?$allocator@D@2@@std@@QBEXXZ ; std::basic_string<char,std::char_traits<char>,std::allocator<char> >::_Xlen
$LN2@append:

; 847  : 
; 848  : 		size_type _Num;
; 849  : 		if (0 < _Count && _Grow(_Num = this->_Mysize + _Count))

  00022	83 7d 08 00	 cmp	 DWORD PTR __Count$[ebp], 0
  00026	76 45		 jbe	 SHORT $LN1@append
  00028	8b 45 fc	 mov	 eax, DWORD PTR _this$[ebp]
  0002b	8b 48 10	 mov	 ecx, DWORD PTR [eax+16]
  0002e	03 4d 08	 add	 ecx, DWORD PTR __Count$[ebp]
  00031	89 4d f8	 mov	 DWORD PTR __Num$[ebp], ecx
  00034	6a 00		 push	 0
  00036	8b 55 f8	 mov	 edx, DWORD PTR __Num$[ebp]
  00039	52		 push	 edx
  0003a	8b 4d fc	 mov	 ecx, DWORD PTR _this$[ebp]
  0003d	e8 00 00 00 00	 call	 ?_Grow@?$basic_string@DU?$char_traits@D@std@@V?$allocator@D@2@@std@@QAE_NI_N@Z ; std::basic_string<char,std::char_traits<char>,std::allocator<char> >::_Grow
  00042	0f b6 c0	 movzx	 eax, al
  00045	85 c0		 test	 eax, eax
  00047	74 24		 je	 SHORT $LN1@append

; 850  : 			{	// make room and append new stuff using assign
; 851  : 			_Chassign(this->_Mysize, _Count, _Ch);

  00049	0f b6 45 0c	 movzx	 eax, BYTE PTR __Ch$[ebp]
  0004d	50		 push	 eax
  0004e	8b 4d 08	 mov	 ecx, DWORD PTR __Count$[ebp]
  00051	51		 push	 ecx
  00052	8b 55 fc	 mov	 edx, DWORD PTR _this$[ebp]
  00055	8b 42 10	 mov	 eax, DWORD PTR [edx+16]
  00058	50		 push	 eax
  00059	8b 4d fc	 mov	 ecx, DWORD PTR _this$[ebp]
  0005c	e8 00 00 00 00	 call	 ?_Chassign@?$basic_string@DU?$char_traits@D@std@@V?$allocator@D@2@@std@@QAEXIID@Z ; std::basic_string<char,std::char_traits<char>,std::allocator<char> >::_Chassign

; 852  : 			_Eos(_Num);

  00061	8b 45 f8	 mov	 eax, DWORD PTR __Num$[ebp]
  00064	50		 push	 eax
  00065	8b 4d fc	 mov	 ecx, DWORD PTR _this$[ebp]
  00068	e8 00 00 00 00	 call	 ?_Eos@?$basic_string@DU?$char_traits@D@std@@V?$allocator@D@2@@std@@QAEXI@Z ; std::basic_string<char,std::char_traits<char>,std::allocator<char> >::_Eos
$LN1@append:

; 853  : 			}
; 854  : 		return (*this);

  0006d	8b 45 fc	 mov	 eax, DWORD PTR _this$[ebp]
$LN4@append:

; 855  : 		}

  00070	5f		 pop	 edi
  00071	5e		 pop	 esi
  00072	5b		 pop	 ebx
  00073	8b e5		 mov	 esp, ebp
  00075	5d		 pop	 ebp
  00076	c2 08 00	 ret	 8
?append@?$basic_string@DU?$char_traits@D@std@@V?$allocator@D@2@@std@@QAEAAV12@ID@Z ENDP ; std::basic_string<char,std::char_traits<char>,std::allocator<char> >::append
_TEXT	ENDS
PUBLIC	?init@?$basic_ios@DU?$char_traits@D@std@@@std@@IAEXPAV?$basic_streambuf@DU?$char_traits@D@std@@@2@_N@Z ; std::basic_ios<char,std::char_traits<char> >::init
PUBLIC	??_7?$basic_ostream@DU?$char_traits@D@std@@@std@@6B@ ; std::basic_ostream<char,std::char_traits<char> >::`vftable'
PUBLIC	??_8?$basic_ostream@DU?$char_traits@D@std@@@std@@7B@ ; std::basic_ostream<char,std::char_traits<char> >::`vbtable'
PUBLIC	??_R4?$basic_ostream@DU?$char_traits@D@std@@@std@@6B@ ; std::basic_ostream<char,std::char_traits<char> >::`RTTI Complete Object Locator'
EXTRN	??_E?$basic_ostream@DU?$char_traits@D@std@@@std@@UAEPAXI@Z:PROC ; std::basic_ostream<char,std::char_traits<char> >::`vector deleting destructor'
;	COMDAT ??_R4?$basic_ostream@DU?$char_traits@D@std@@@std@@6B@
; File d:\microsoft visual studio 10.0\vc\include\ostream
rdata$r	SEGMENT
??_R4?$basic_ostream@DU?$char_traits@D@std@@@std@@6B@ DD 00H ; std::basic_ostream<char,std::char_traits<char> >::`RTTI Complete Object Locator'
	DD	08H
	DD	00H
	DD	FLAT:??_R0?AV?$basic_ostream@DU?$char_traits@D@std@@@std@@@8
	DD	FLAT:??_R3?$basic_ostream@DU?$char_traits@D@std@@@std@@8
rdata$r	ENDS
;	COMDAT ??_7?$basic_ostream@DU?$char_traits@D@std@@@std@@6B@
CONST	SEGMENT
??_7?$basic_ostream@DU?$char_traits@D@std@@@std@@6B@ DD FLAT:??_R4?$basic_ostream@DU?$char_traits@D@std@@@std@@6B@ ; std::basic_ostream<char,std::char_traits<char> >::`vftable'
	DD	FLAT:??_E?$basic_ostream@DU?$char_traits@D@std@@@std@@UAEPAXI@Z
CONST	ENDS
;	COMDAT ??_8?$basic_ostream@DU?$char_traits@D@std@@@std@@7B@
CONST	SEGMENT
??_8?$basic_ostream@DU?$char_traits@D@std@@@std@@7B@ DD 00H ; std::basic_ostream<char,std::char_traits<char> >::`vbtable'
	DD	08H
CONST	ENDS
;	COMDAT xdata$x
xdata$x	SEGMENT
__unwindtable$??0?$basic_ostream@DU?$char_traits@D@std@@@std@@QAE@PAV?$basic_streambuf@DU?$char_traits@D@std@@@1@_N@Z DD 0ffffffffH
	DD	FLAT:__unwindfunclet$??0?$basic_ostream@DU?$char_traits@D@std@@@std@@QAE@PAV?$basic_streambuf@DU?$char_traits@D@std@@@1@_N@Z$0
__ehfuncinfo$??0?$basic_ostream@DU?$char_traits@D@std@@@std@@QAE@PAV?$basic_streambuf@DU?$char_traits@D@std@@@1@_N@Z DD 019930522H
	DD	01H
	DD	FLAT:__unwindtable$??0?$basic_ostream@DU?$char_traits@D@std@@@std@@QAE@PAV?$basic_streambuf@DU?$char_traits@D@std@@@1@_N@Z
	DD	2 DUP(00H)
	DD	2 DUP(00H)
	DD	00H
	DD	01H
; Function compile flags: /Odtp /ZI
xdata$x	ENDS
;	COMDAT ??0?$basic_ostream@DU?$char_traits@D@std@@@std@@QAE@PAV?$basic_streambuf@DU?$char_traits@D@std@@@1@_N@Z
_TEXT	SEGMENT
$T226020 = -84						; size = 4
_this$ = -16						; size = 4
__$EHRec$ = -12						; size = 12
__Strbuf$ = 8						; size = 4
__Isstd$ = 12						; size = 1
_$initVBases$ = 16					; size = 4
??0?$basic_ostream@DU?$char_traits@D@std@@@std@@QAE@PAV?$basic_streambuf@DU?$char_traits@D@std@@@1@_N@Z PROC ; std::basic_ostream<char,std::char_traits<char> >::basic_ostream<char,std::char_traits<char> >, COMDAT
; _this$ = ecx

; 46   : 	explicit __CLR_OR_THIS_CALL basic_ostream(

  00000	55		 push	 ebp
  00001	8b ec		 mov	 ebp, esp
  00003	6a ff		 push	 -1
  00005	68 00 00 00 00	 push	 __ehhandler$??0?$basic_ostream@DU?$char_traits@D@std@@@std@@QAE@PAV?$basic_streambuf@DU?$char_traits@D@std@@@1@_N@Z
  0000a	64 a1 00 00 00
	00		 mov	 eax, DWORD PTR fs:0
  00010	50		 push	 eax
  00011	83 ec 48	 sub	 esp, 72			; 00000048H
  00014	53		 push	 ebx
  00015	56		 push	 esi
  00016	57		 push	 edi
  00017	a1 00 00 00 00	 mov	 eax, DWORD PTR ___security_cookie
  0001c	33 c5		 xor	 eax, ebp
  0001e	50		 push	 eax
  0001f	8d 45 f4	 lea	 eax, DWORD PTR __$EHRec$[ebp]
  00022	64 a3 00 00 00
	00		 mov	 DWORD PTR fs:0, eax
  00028	89 4d f0	 mov	 DWORD PTR _this$[ebp], ecx
  0002b	c7 45 ac 00 00
	00 00		 mov	 DWORD PTR $T226020[ebp], 0
  00032	83 7d 10 00	 cmp	 DWORD PTR _$initVBases$[ebp], 0
  00036	74 24		 je	 SHORT $LN1@basic_ostr
  00038	8b 45 f0	 mov	 eax, DWORD PTR _this$[ebp]
  0003b	c7 00 00 00 00
	00		 mov	 DWORD PTR [eax], OFFSET ??_8?$basic_ostream@DU?$char_traits@D@std@@@std@@7B@
  00041	8b 4d f0	 mov	 ecx, DWORD PTR _this$[ebp]
  00044	83 c1 08	 add	 ecx, 8
  00047	e8 00 00 00 00	 call	 ??0?$basic_ios@DU?$char_traits@D@std@@@std@@IAE@XZ ; std::basic_ios<char,std::char_traits<char> >::basic_ios<char,std::char_traits<char> >
  0004c	c7 45 fc 00 00
	00 00		 mov	 DWORD PTR __$EHRec$[ebp+8], 0
  00053	8b 45 ac	 mov	 eax, DWORD PTR $T226020[ebp]
  00056	83 c8 01	 or	 eax, 1
  00059	89 45 ac	 mov	 DWORD PTR $T226020[ebp], eax
$LN1@basic_ostr:
  0005c	8b 45 f0	 mov	 eax, DWORD PTR _this$[ebp]
  0005f	8b 08		 mov	 ecx, DWORD PTR [eax]
  00061	8b 51 04	 mov	 edx, DWORD PTR [ecx+4]
  00064	8b 45 f0	 mov	 eax, DWORD PTR _this$[ebp]
  00067	c7 04 10 00 00
	00 00		 mov	 DWORD PTR [eax+edx], OFFSET ??_7?$basic_ostream@DU?$char_traits@D@std@@@std@@6B@

; 47   : 		basic_streambuf<_Elem, _Traits> *_Strbuf,
; 48   : 
; 49   : 		bool _Isstd = false)
; 50   : 		{	// construct from a stream buffer pointer
; 51   : 		_Myios::init(_Strbuf, _Isstd);

  0006e	0f b6 45 0c	 movzx	 eax, BYTE PTR __Isstd$[ebp]
  00072	50		 push	 eax
  00073	8b 4d 08	 mov	 ecx, DWORD PTR __Strbuf$[ebp]
  00076	51		 push	 ecx
  00077	8b 55 f0	 mov	 edx, DWORD PTR _this$[ebp]
  0007a	8b 02		 mov	 eax, DWORD PTR [edx]
  0007c	8b 4d f0	 mov	 ecx, DWORD PTR _this$[ebp]
  0007f	03 48 04	 add	 ecx, DWORD PTR [eax+4]
  00082	e8 00 00 00 00	 call	 ?init@?$basic_ios@DU?$char_traits@D@std@@@std@@IAEXPAV?$basic_streambuf@DU?$char_traits@D@std@@@2@_N@Z ; std::basic_ios<char,std::char_traits<char> >::init

; 52   : 		}

  00087	c7 45 fc ff ff
	ff ff		 mov	 DWORD PTR __$EHRec$[ebp+8], -1
  0008e	8b 45 f0	 mov	 eax, DWORD PTR _this$[ebp]
  00091	8b 4d f4	 mov	 ecx, DWORD PTR __$EHRec$[ebp]
  00094	64 89 0d 00 00
	00 00		 mov	 DWORD PTR fs:0, ecx
  0009b	59		 pop	 ecx
  0009c	5f		 pop	 edi
  0009d	5e		 pop	 esi
  0009e	5b		 pop	 ebx
  0009f	8b e5		 mov	 esp, ebp
  000a1	5d		 pop	 ebp
  000a2	c2 0c 00	 ret	 12			; 0000000cH
_TEXT	ENDS
;	COMDAT text$x
text$x	SEGMENT
__unwindfunclet$??0?$basic_ostream@DU?$char_traits@D@std@@@std@@QAE@PAV?$basic_streambuf@DU?$char_traits@D@std@@@1@_N@Z$0:
  00000	8b 45 ac	 mov	 eax, DWORD PTR $T226020[ebp]
  00003	83 e0 01	 and	 eax, 1
  00006	0f 84 0f 00 00
	00		 je	 $LN5@basic_ostr
  0000c	83 65 ac fe	 and	 DWORD PTR $T226020[ebp], -2 ; fffffffeH
  00010	8b 4d f0	 mov	 ecx, DWORD PTR _this$[ebp]
  00013	83 c1 08	 add	 ecx, 8
  00016	e9 00 00 00 00	 jmp	 ??1?$basic_ios@DU?$char_traits@D@std@@@std@@UAE@XZ ; std::basic_ios<char,std::char_traits<char> >::~basic_ios<char,std::char_traits<char> >
$LN5@basic_ostr:
  0001b	c3		 ret	 0
__ehhandler$??0?$basic_ostream@DU?$char_traits@D@std@@@std@@QAE@PAV?$basic_streambuf@DU?$char_traits@D@std@@@1@_N@Z:
  0001c	8b 54 24 08	 mov	 edx, DWORD PTR [esp+8]
  00020	8d 42 0c	 lea	 eax, DWORD PTR [edx+12]
  00023	8b 4a a8	 mov	 ecx, DWORD PTR [edx-88]
  00026	33 c8		 xor	 ecx, eax
  00028	e8 00 00 00 00	 call	 @__security_check_cookie@4
  0002d	b8 00 00 00 00	 mov	 eax, OFFSET __ehfuncinfo$??0?$basic_ostream@DU?$char_traits@D@std@@@std@@QAE@PAV?$basic_streambuf@DU?$char_traits@D@std@@@1@_N@Z
  00032	e9 00 00 00 00	 jmp	 ___CxxFrameHandler3
text$x	ENDS
??0?$basic_ostream@DU?$char_traits@D@std@@@std@@QAE@PAV?$basic_streambuf@DU?$char_traits@D@std@@@1@_N@Z ENDP ; std::basic_ostream<char,std::char_traits<char> >::basic_ostream<char,std::char_traits<char> >
PUBLIC	??_7?$basic_ios@DU?$char_traits@D@std@@@std@@6B@ ; std::basic_ios<char,std::char_traits<char> >::`vftable'
PUBLIC	??0ios_base@std@@IAE@XZ				; std::ios_base::ios_base
PUBLIC	??_R4?$basic_ios@DU?$char_traits@D@std@@@std@@6B@ ; std::basic_ios<char,std::char_traits<char> >::`RTTI Complete Object Locator'
EXTRN	??_E?$basic_ios@DU?$char_traits@D@std@@@std@@UAEPAXI@Z:PROC ; std::basic_ios<char,std::char_traits<char> >::`vector deleting destructor'
;	COMDAT ??_R4?$basic_ios@DU?$char_traits@D@std@@@std@@6B@
; File d:\microsoft visual studio 10.0\vc\include\ios
rdata$r	SEGMENT
??_R4?$basic_ios@DU?$char_traits@D@std@@@std@@6B@ DD 00H ; std::basic_ios<char,std::char_traits<char> >::`RTTI Complete Object Locator'
	DD	00H
	DD	00H
	DD	FLAT:??_R0?AV?$basic_ios@DU?$char_traits@D@std@@@std@@@8
	DD	FLAT:??_R3?$basic_ios@DU?$char_traits@D@std@@@std@@8
rdata$r	ENDS
;	COMDAT ??_7?$basic_ios@DU?$char_traits@D@std@@@std@@6B@
CONST	SEGMENT
??_7?$basic_ios@DU?$char_traits@D@std@@@std@@6B@ DD FLAT:??_R4?$basic_ios@DU?$char_traits@D@std@@@std@@6B@ ; std::basic_ios<char,std::char_traits<char> >::`vftable'
	DD	FLAT:??_E?$basic_ios@DU?$char_traits@D@std@@@std@@UAEPAXI@Z
; Function compile flags: /Odtp /ZI
CONST	ENDS
;	COMDAT ??0?$basic_ios@DU?$char_traits@D@std@@@std@@IAE@XZ
_TEXT	SEGMENT
_this$ = -4						; size = 4
??0?$basic_ios@DU?$char_traits@D@std@@@std@@IAE@XZ PROC	; std::basic_ios<char,std::char_traits<char> >::basic_ios<char,std::char_traits<char> >, COMDAT
; _this$ = ecx

; 167  : 	__CLR_OR_THIS_CALL basic_ios()

  00000	55		 push	 ebp
  00001	8b ec		 mov	 ebp, esp
  00003	83 ec 44	 sub	 esp, 68			; 00000044H
  00006	53		 push	 ebx
  00007	56		 push	 esi
  00008	57		 push	 edi
  00009	89 4d fc	 mov	 DWORD PTR _this$[ebp], ecx
  0000c	8b 4d fc	 mov	 ecx, DWORD PTR _this$[ebp]
  0000f	e8 00 00 00 00	 call	 ??0ios_base@std@@IAE@XZ	; std::ios_base::ios_base
  00014	8b 45 fc	 mov	 eax, DWORD PTR _this$[ebp]
  00017	c7 00 00 00 00
	00		 mov	 DWORD PTR [eax], OFFSET ??_7?$basic_ios@DU?$char_traits@D@std@@@std@@6B@

; 168  : 		{	// default constructor, do nothing
; 169  : 		}

  0001d	8b 45 fc	 mov	 eax, DWORD PTR _this$[ebp]
  00020	5f		 pop	 edi
  00021	5e		 pop	 esi
  00022	5b		 pop	 ebx
  00023	8b e5		 mov	 esp, ebp
  00025	5d		 pop	 ebp
  00026	c3		 ret	 0
??0?$basic_ios@DU?$char_traits@D@std@@@std@@IAE@XZ ENDP	; std::basic_ios<char,std::char_traits<char> >::basic_ios<char,std::char_traits<char> >
; Function compile flags: /Odtp /ZI
; File d:\microsoft visual studio 10.0\vc\include\streambuf
_TEXT	ENDS
;	COMDAT ?eback@?$basic_streambuf@DU?$char_traits@D@std@@@std@@IBEPADXZ
_TEXT	SEGMENT
_this$ = -4						; size = 4
?eback@?$basic_streambuf@DU?$char_traits@D@std@@@std@@IBEPADXZ PROC ; std::basic_streambuf<char,std::char_traits<char> >::eback, COMDAT
; _this$ = ecx

; 217  : 		{	// return beginning of read buffer

  00000	55		 push	 ebp
  00001	8b ec		 mov	 ebp, esp
  00003	83 ec 44	 sub	 esp, 68			; 00000044H
  00006	53		 push	 ebx
  00007	56		 push	 esi
  00008	57		 push	 edi
  00009	89 4d fc	 mov	 DWORD PTR _this$[ebp], ecx

; 218  : 		return (*_IGfirst);

  0000c	8b 45 fc	 mov	 eax, DWORD PTR _this$[ebp]
  0000f	8b 48 10	 mov	 ecx, DWORD PTR [eax+16]
  00012	8b 01		 mov	 eax, DWORD PTR [ecx]

; 219  : 		}

  00014	5f		 pop	 edi
  00015	5e		 pop	 esi
  00016	5b		 pop	 ebx
  00017	8b e5		 mov	 esp, ebp
  00019	5d		 pop	 ebp
  0001a	c3		 ret	 0
?eback@?$basic_streambuf@DU?$char_traits@D@std@@@std@@IBEPADXZ ENDP ; std::basic_streambuf<char,std::char_traits<char> >::eback
; Function compile flags: /Odtp /ZI
_TEXT	ENDS
;	COMDAT ?egptr@?$basic_streambuf@DU?$char_traits@D@std@@@std@@IBEPADXZ
_TEXT	SEGMENT
_this$ = -4						; size = 4
?egptr@?$basic_streambuf@DU?$char_traits@D@std@@@std@@IBEPADXZ PROC ; std::basic_streambuf<char,std::char_traits<char> >::egptr, COMDAT
; _this$ = ecx

; 237  : 		{	// return end of read buffer

  00000	55		 push	 ebp
  00001	8b ec		 mov	 ebp, esp
  00003	83 ec 44	 sub	 esp, 68			; 00000044H
  00006	53		 push	 ebx
  00007	56		 push	 esi
  00008	57		 push	 edi
  00009	89 4d fc	 mov	 DWORD PTR _this$[ebp], ecx

; 238  : 		return (*_IGnext + *_IGcount);

  0000c	8b 45 fc	 mov	 eax, DWORD PTR _this$[ebp]
  0000f	8b 48 20	 mov	 ecx, DWORD PTR [eax+32]
  00012	8b 55 fc	 mov	 edx, DWORD PTR _this$[ebp]
  00015	8b 42 30	 mov	 eax, DWORD PTR [edx+48]
  00018	8b 09		 mov	 ecx, DWORD PTR [ecx]
  0001a	03 08		 add	 ecx, DWORD PTR [eax]
  0001c	8b c1		 mov	 eax, ecx

; 239  : 		}

  0001e	5f		 pop	 edi
  0001f	5e		 pop	 esi
  00020	5b		 pop	 ebx
  00021	8b e5		 mov	 esp, ebp
  00023	5d		 pop	 ebp
  00024	c3		 ret	 0
?egptr@?$basic_streambuf@DU?$char_traits@D@std@@@std@@IBEPADXZ ENDP ; std::basic_streambuf<char,std::char_traits<char> >::egptr
; Function compile flags: /Odtp /ZI
_TEXT	ENDS
;	COMDAT ?epptr@?$basic_streambuf@DU?$char_traits@D@std@@@std@@IBEPADXZ
_TEXT	SEGMENT
_this$ = -4						; size = 4
?epptr@?$basic_streambuf@DU?$char_traits@D@std@@@std@@IBEPADXZ PROC ; std::basic_streambuf<char,std::char_traits<char> >::epptr, COMDAT
; _this$ = ecx

; 255  : 		{	// return end of write buffer

  00000	55		 push	 ebp
  00001	8b ec		 mov	 ebp, esp
  00003	83 ec 44	 sub	 esp, 68			; 00000044H
  00006	53		 push	 ebx
  00007	56		 push	 esi
  00008	57		 push	 edi
  00009	89 4d fc	 mov	 DWORD PTR _this$[ebp], ecx

; 256  : 		return (*_IPnext + *_IPcount);

  0000c	8b 45 fc	 mov	 eax, DWORD PTR _this$[ebp]
  0000f	8b 48 24	 mov	 ecx, DWORD PTR [eax+36]
  00012	8b 55 fc	 mov	 edx, DWORD PTR _this$[ebp]
  00015	8b 42 34	 mov	 eax, DWORD PTR [edx+52]
  00018	8b 09		 mov	 ecx, DWORD PTR [ecx]
  0001a	03 08		 add	 ecx, DWORD PTR [eax]
  0001c	8b c1		 mov	 eax, ecx

; 257  : 		}

  0001e	5f		 pop	 edi
  0001f	5e		 pop	 esi
  00020	5b		 pop	 ebx
  00021	8b e5		 mov	 esp, ebp
  00023	5d		 pop	 ebp
  00024	c3		 ret	 0
?epptr@?$basic_streambuf@DU?$char_traits@D@std@@@std@@IBEPADXZ ENDP ; std::basic_streambuf<char,std::char_traits<char> >::epptr
; Function compile flags: /Odtp /ZI
_TEXT	ENDS
;	COMDAT ?_Gndec@?$basic_streambuf@DU?$char_traits@D@std@@@std@@IAEPADXZ
_TEXT	SEGMENT
tv72 = -72						; size = 4
_this$ = -4						; size = 4
?_Gndec@?$basic_streambuf@DU?$char_traits@D@std@@@std@@IAEPADXZ PROC ; std::basic_streambuf<char,std::char_traits<char> >::_Gndec, COMDAT
; _this$ = ecx

; 260  : 		{	// decrement current position in read buffer

  00000	55		 push	 ebp
  00001	8b ec		 mov	 ebp, esp
  00003	83 ec 48	 sub	 esp, 72			; 00000048H
  00006	53		 push	 ebx
  00007	56		 push	 esi
  00008	57		 push	 edi
  00009	89 4d fc	 mov	 DWORD PTR _this$[ebp], ecx

; 261  : 		++*_IGcount;

  0000c	8b 45 fc	 mov	 eax, DWORD PTR _this$[ebp]
  0000f	8b 48 30	 mov	 ecx, DWORD PTR [eax+48]
  00012	8b 11		 mov	 edx, DWORD PTR [ecx]
  00014	83 c2 01	 add	 edx, 1
  00017	8b 45 fc	 mov	 eax, DWORD PTR _this$[ebp]
  0001a	8b 48 30	 mov	 ecx, DWORD PTR [eax+48]
  0001d	89 11		 mov	 DWORD PTR [ecx], edx

; 262  : 		return (--*_IGnext);

  0001f	8b 45 fc	 mov	 eax, DWORD PTR _this$[ebp]
  00022	8b 48 20	 mov	 ecx, DWORD PTR [eax+32]
  00025	8b 11		 mov	 edx, DWORD PTR [ecx]
  00027	83 ea 01	 sub	 edx, 1
  0002a	89 55 b8	 mov	 DWORD PTR tv72[ebp], edx
  0002d	8b 45 fc	 mov	 eax, DWORD PTR _this$[ebp]
  00030	8b 48 20	 mov	 ecx, DWORD PTR [eax+32]
  00033	8b 55 b8	 mov	 edx, DWORD PTR tv72[ebp]
  00036	89 11		 mov	 DWORD PTR [ecx], edx
  00038	8b 45 b8	 mov	 eax, DWORD PTR tv72[ebp]

; 263  : 		}

  0003b	5f		 pop	 edi
  0003c	5e		 pop	 esi
  0003d	5b		 pop	 ebx
  0003e	8b e5		 mov	 esp, ebp
  00040	5d		 pop	 ebp
  00041	c3		 ret	 0
?_Gndec@?$basic_streambuf@DU?$char_traits@D@std@@@std@@IAEPADXZ ENDP ; std::basic_streambuf<char,std::char_traits<char> >::_Gndec
_TEXT	ENDS
PUBLIC	??D?$_String_const_iterator@DU?$char_traits@D@std@@V?$allocator@D@2@@std@@QBEABDXZ ; std::_String_const_iterator<char,std::char_traits<char>,std::allocator<char> >::operator*
; Function compile flags: /Odtp /ZI
; File d:\microsoft visual studio 10.0\vc\include\xstring
;	COMDAT ??D?$_String_iterator@DU?$char_traits@D@std@@V?$allocator@D@2@@std@@QBEAADXZ
_TEXT	SEGMENT
_this$ = -4						; size = 4
??D?$_String_iterator@DU?$char_traits@D@std@@V?$allocator@D@2@@std@@QBEAADXZ PROC ; std::_String_iterator<char,std::char_traits<char>,std::allocator<char> >::operator*, COMDAT
; _this$ = ecx

; 342  : 		{	// return designated object

  00000	55		 push	 ebp
  00001	8b ec		 mov	 ebp, esp
  00003	83 ec 44	 sub	 esp, 68			; 00000044H
  00006	53		 push	 ebx
  00007	56		 push	 esi
  00008	57		 push	 edi
  00009	89 4d fc	 mov	 DWORD PTR _this$[ebp], ecx

; 343  : 		return ((reference)**(_Mybase *)this);

  0000c	8b 4d fc	 mov	 ecx, DWORD PTR _this$[ebp]
  0000f	e8 00 00 00 00	 call	 ??D?$_String_const_iterator@DU?$char_traits@D@std@@V?$allocator@D@2@@std@@QBEABDXZ ; std::_String_const_iterator<char,std::char_traits<char>,std::allocator<char> >::operator*

; 344  : 		}

  00014	5f		 pop	 edi
  00015	5e		 pop	 esi
  00016	5b		 pop	 ebx
  00017	8b e5		 mov	 esp, ebp
  00019	5d		 pop	 ebp
  0001a	c3		 ret	 0
??D?$_String_iterator@DU?$char_traits@D@std@@V?$allocator@D@2@@std@@QBEAADXZ ENDP ; std::_String_iterator<char,std::char_traits<char>,std::allocator<char> >::operator*
; Function compile flags: /Odtp /ZI
; File d:\microsoft visual studio 10.0\vc\include\iosfwd
_TEXT	ENDS
;	COMDAT ??0?$fpos@H@std@@QAE@H_J@Z
_TEXT	SEGMENT
_this$ = -4						; size = 4
__State$ = 8						; size = 4
__Fileposition$ = 12					; size = 8
??0?$fpos@H@std@@QAE@H_J@Z PROC				; std::fpos<int>::fpos<int>, COMDAT
; _this$ = ecx

; 45   : 		{	// construct with conversion state and C file position

  00000	55		 push	 ebp
  00001	8b ec		 mov	 ebp, esp
  00003	83 ec 44	 sub	 esp, 68			; 00000044H
  00006	53		 push	 ebx
  00007	56		 push	 esi
  00008	57		 push	 edi
  00009	89 4d fc	 mov	 DWORD PTR _this$[ebp], ecx
  0000c	8b 45 fc	 mov	 eax, DWORD PTR _this$[ebp]
  0000f	c7 00 00 00 00
	00		 mov	 DWORD PTR [eax], 0
  00015	c7 40 04 00 00
	00 00		 mov	 DWORD PTR [eax+4], 0
  0001c	8b 45 fc	 mov	 eax, DWORD PTR _this$[ebp]
  0001f	8b 4d 0c	 mov	 ecx, DWORD PTR __Fileposition$[ebp]
  00022	89 48 08	 mov	 DWORD PTR [eax+8], ecx
  00025	8b 55 10	 mov	 edx, DWORD PTR __Fileposition$[ebp+4]
  00028	89 50 0c	 mov	 DWORD PTR [eax+12], edx
  0002b	8b 45 fc	 mov	 eax, DWORD PTR _this$[ebp]
  0002e	8b 4d 08	 mov	 ecx, DWORD PTR __State$[ebp]
  00031	89 48 10	 mov	 DWORD PTR [eax+16], ecx

; 46   : 		}

  00034	8b 45 fc	 mov	 eax, DWORD PTR _this$[ebp]
  00037	5f		 pop	 edi
  00038	5e		 pop	 esi
  00039	5b		 pop	 ebx
  0003a	8b e5		 mov	 esp, ebp
  0003c	5d		 pop	 ebp
  0003d	c2 0c 00	 ret	 12			; 0000000cH
??0?$fpos@H@std@@QAE@H_J@Z ENDP				; std::fpos<int>::fpos<int>
; Function compile flags: /Odtp /ZI
_TEXT	ENDS
;	COMDAT ?state@?$fpos@H@std@@QBEHXZ
_TEXT	SEGMENT
_this$ = -4						; size = 4
?state@?$fpos@H@std@@QBEHXZ PROC			; std::fpos<int>::state, COMDAT
; _this$ = ecx

; 49   : 		{	// return conversion state

  00000	55		 push	 ebp
  00001	8b ec		 mov	 ebp, esp
  00003	83 ec 44	 sub	 esp, 68			; 00000044H
  00006	53		 push	 ebx
  00007	56		 push	 esi
  00008	57		 push	 edi
  00009	89 4d fc	 mov	 DWORD PTR _this$[ebp], ecx

; 50   : 		return (_Mystate);

  0000c	8b 45 fc	 mov	 eax, DWORD PTR _this$[ebp]
  0000f	8b 40 10	 mov	 eax, DWORD PTR [eax+16]

; 51   : 		}

  00012	5f		 pop	 edi
  00013	5e		 pop	 esi
  00014	5b		 pop	 ebx
  00015	8b e5		 mov	 esp, ebp
  00017	5d		 pop	 ebp
  00018	c3		 ret	 0
?state@?$fpos@H@std@@QBEHXZ ENDP			; std::fpos<int>::state
; Function compile flags: /Odtp /ZI
_TEXT	ENDS
;	COMDAT ?seekpos@?$fpos@H@std@@QBE_JXZ
_TEXT	SEGMENT
_this$ = -4						; size = 4
?seekpos@?$fpos@H@std@@QBE_JXZ PROC			; std::fpos<int>::seekpos, COMDAT
; _this$ = ecx

; 59   : 		{	// return C file position

  00000	55		 push	 ebp
  00001	8b ec		 mov	 ebp, esp
  00003	83 ec 44	 sub	 esp, 68			; 00000044H
  00006	53		 push	 ebx
  00007	56		 push	 esi
  00008	57		 push	 edi
  00009	89 4d fc	 mov	 DWORD PTR _this$[ebp], ecx

; 60   : 		return (_Fpos);

  0000c	8b 4d fc	 mov	 ecx, DWORD PTR _this$[ebp]
  0000f	8b 41 08	 mov	 eax, DWORD PTR [ecx+8]
  00012	8b 51 0c	 mov	 edx, DWORD PTR [ecx+12]

; 61   : 		}

  00015	5f		 pop	 edi
  00016	5e		 pop	 esi
  00017	5b		 pop	 ebx
  00018	8b e5		 mov	 esp, ebp
  0001a	5d		 pop	 ebp
  0001b	c3		 ret	 0
?seekpos@?$fpos@H@std@@QBE_JXZ ENDP			; std::fpos<int>::seekpos
; Function compile flags: /Odtp /ZI
_TEXT	ENDS
;	COMDAT ??B?$fpos@H@std@@QBE_JXZ
_TEXT	SEGMENT
_this$ = -4						; size = 4
??B?$fpos@H@std@@QBE_JXZ PROC				; std::fpos<int>::operator __int64, COMDAT
; _this$ = ecx

; 64   : 		{	// return offset

  00000	55		 push	 ebp
  00001	8b ec		 mov	 ebp, esp
  00003	83 ec 44	 sub	 esp, 68			; 00000044H
  00006	53		 push	 ebx
  00007	56		 push	 esi
  00008	57		 push	 edi
  00009	89 4d fc	 mov	 DWORD PTR _this$[ebp], ecx

; 65   : 		return ((streamoff)(_Myoff + _FPOSOFF(_Fpos)));

  0000c	8b 45 fc	 mov	 eax, DWORD PTR _this$[ebp]
  0000f	8b 40 08	 mov	 eax, DWORD PTR [eax+8]
  00012	99		 cdq
  00013	8b 4d fc	 mov	 ecx, DWORD PTR _this$[ebp]
  00016	03 01		 add	 eax, DWORD PTR [ecx]
  00018	13 51 04	 adc	 edx, DWORD PTR [ecx+4]

; 66   : 		}

  0001b	5f		 pop	 edi
  0001c	5e		 pop	 esi
  0001d	5b		 pop	 ebx
  0001e	8b e5		 mov	 esp, ebp
  00020	5d		 pop	 ebp
  00021	c3		 ret	 0
??B?$fpos@H@std@@QBE_JXZ ENDP				; std::fpos<int>::operator __int64
_TEXT	ENDS
PUBLIC	??0?$basic_streambuf@DU?$char_traits@D@std@@@std@@IAE@XZ ; std::basic_streambuf<char,std::char_traits<char> >::basic_streambuf<char,std::char_traits<char> >
;	COMDAT xdata$x
; File d:\microsoft visual studio 10.0\vc\include\fstream
xdata$x	SEGMENT
__unwindtable$??0?$basic_filebuf@DU?$char_traits@D@std@@@std@@QAE@PAU_iobuf@@@Z DD 0ffffffffH
	DD	FLAT:__unwindfunclet$??0?$basic_filebuf@DU?$char_traits@D@std@@@std@@QAE@PAU_iobuf@@@Z$0
__ehfuncinfo$??0?$basic_filebuf@DU?$char_traits@D@std@@@std@@QAE@PAU_iobuf@@@Z DD 019930522H
	DD	01H
	DD	FLAT:__unwindtable$??0?$basic_filebuf@DU?$char_traits@D@std@@@std@@QAE@PAU_iobuf@@@Z
	DD	2 DUP(00H)
	DD	2 DUP(00H)
	DD	00H
	DD	01H
; Function compile flags: /Odtp /ZI
xdata$x	ENDS
;	COMDAT ??0?$basic_filebuf@DU?$char_traits@D@std@@@std@@QAE@PAU_iobuf@@@Z
_TEXT	SEGMENT
_this$ = -16						; size = 4
__$EHRec$ = -12						; size = 12
__File$ = 8						; size = 4
??0?$basic_filebuf@DU?$char_traits@D@std@@@std@@QAE@PAU_iobuf@@@Z PROC ; std::basic_filebuf<char,std::char_traits<char> >::basic_filebuf<char,std::char_traits<char> >, COMDAT
; _this$ = ecx

; 152  : 		{	// construct from pointer to C stream

  00000	55		 push	 ebp
  00001	8b ec		 mov	 ebp, esp
  00003	6a ff		 push	 -1
  00005	68 00 00 00 00	 push	 __ehhandler$??0?$basic_filebuf@DU?$char_traits@D@std@@@std@@QAE@PAU_iobuf@@@Z
  0000a	64 a1 00 00 00
	00		 mov	 eax, DWORD PTR fs:0
  00010	50		 push	 eax
  00011	83 ec 44	 sub	 esp, 68			; 00000044H
  00014	53		 push	 ebx
  00015	56		 push	 esi
  00016	57		 push	 edi
  00017	a1 00 00 00 00	 mov	 eax, DWORD PTR ___security_cookie
  0001c	33 c5		 xor	 eax, ebp
  0001e	50		 push	 eax
  0001f	8d 45 f4	 lea	 eax, DWORD PTR __$EHRec$[ebp]
  00022	64 a3 00 00 00
	00		 mov	 DWORD PTR fs:0, eax
  00028	89 4d f0	 mov	 DWORD PTR _this$[ebp], ecx
  0002b	8b 4d f0	 mov	 ecx, DWORD PTR _this$[ebp]
  0002e	e8 00 00 00 00	 call	 ??0?$basic_streambuf@DU?$char_traits@D@std@@@std@@IAE@XZ ; std::basic_streambuf<char,std::char_traits<char> >::basic_streambuf<char,std::char_traits<char> >
  00033	c7 45 fc 00 00
	00 00		 mov	 DWORD PTR __$EHRec$[ebp+8], 0
  0003a	8b 45 f0	 mov	 eax, DWORD PTR _this$[ebp]
  0003d	c7 00 00 00 00
	00		 mov	 DWORD PTR [eax], OFFSET ??_7?$basic_filebuf@DU?$char_traits@D@std@@@std@@6B@

; 153  : 		_Init(_File, _Newfl);

  00043	6a 00		 push	 0
  00045	8b 45 08	 mov	 eax, DWORD PTR __File$[ebp]
  00048	50		 push	 eax
  00049	8b 4d f0	 mov	 ecx, DWORD PTR _this$[ebp]
  0004c	e8 00 00 00 00	 call	 ?_Init@?$basic_filebuf@DU?$char_traits@D@std@@@std@@IAEXPAU_iobuf@@W4_Initfl@12@@Z ; std::basic_filebuf<char,std::char_traits<char> >::_Init

; 154  : 		}

  00051	c7 45 fc ff ff
	ff ff		 mov	 DWORD PTR __$EHRec$[ebp+8], -1
  00058	8b 45 f0	 mov	 eax, DWORD PTR _this$[ebp]
  0005b	8b 4d f4	 mov	 ecx, DWORD PTR __$EHRec$[ebp]
  0005e	64 89 0d 00 00
	00 00		 mov	 DWORD PTR fs:0, ecx
  00065	59		 pop	 ecx
  00066	5f		 pop	 edi
  00067	5e		 pop	 esi
  00068	5b		 pop	 ebx
  00069	8b e5		 mov	 esp, ebp
  0006b	5d		 pop	 ebp
  0006c	c2 04 00	 ret	 4
_TEXT	ENDS
;	COMDAT text$x
text$x	SEGMENT
__unwindfunclet$??0?$basic_filebuf@DU?$char_traits@D@std@@@std@@QAE@PAU_iobuf@@@Z$0:
  00000	8b 4d f0	 mov	 ecx, DWORD PTR _this$[ebp]
  00003	e9 00 00 00 00	 jmp	 ??1?$basic_streambuf@DU?$char_traits@D@std@@@std@@UAE@XZ ; std::basic_streambuf<char,std::char_traits<char> >::~basic_streambuf<char,std::char_traits<char> >
__ehhandler$??0?$basic_filebuf@DU?$char_traits@D@std@@@std@@QAE@PAU_iobuf@@@Z:
  00008	8b 54 24 08	 mov	 edx, DWORD PTR [esp+8]
  0000c	8d 42 0c	 lea	 eax, DWORD PTR [edx+12]
  0000f	8b 4a ac	 mov	 ecx, DWORD PTR [edx-84]
  00012	33 c8		 xor	 ecx, eax
  00014	e8 00 00 00 00	 call	 @__security_check_cookie@4
  00019	b8 00 00 00 00	 mov	 eax, OFFSET __ehfuncinfo$??0?$basic_filebuf@DU?$char_traits@D@std@@@std@@QAE@PAU_iobuf@@@Z
  0001e	e9 00 00 00 00	 jmp	 ___CxxFrameHandler3
text$x	ENDS
??0?$basic_filebuf@DU?$char_traits@D@std@@@std@@QAE@PAU_iobuf@@@Z ENDP ; std::basic_filebuf<char,std::char_traits<char> >::basic_filebuf<char,std::char_traits<char> >
; Function compile flags: /Odtp /ZI
;	COMDAT ?is_open@?$basic_filebuf@DU?$char_traits@D@std@@@std@@QBE_NXZ
_TEXT	SEGMENT
_this$ = -4						; size = 4
?is_open@?$basic_filebuf@DU?$char_traits@D@std@@@std@@QBE_NXZ PROC ; std::basic_filebuf<char,std::char_traits<char> >::is_open, COMDAT
; _this$ = ecx

; 211  : 		{	// test if C stream has been opened

  00000	55		 push	 ebp
  00001	8b ec		 mov	 ebp, esp
  00003	83 ec 44	 sub	 esp, 68			; 00000044H
  00006	53		 push	 ebx
  00007	56		 push	 esi
  00008	57		 push	 edi
  00009	89 4d fc	 mov	 DWORD PTR _this$[ebp], ecx

; 212  : 		return (_Myfile != 0);

  0000c	8b 45 fc	 mov	 eax, DWORD PTR _this$[ebp]
  0000f	33 c9		 xor	 ecx, ecx
  00011	83 78 54 00	 cmp	 DWORD PTR [eax+84], 0
  00015	0f 95 c1	 setne	 cl
  00018	8a c1		 mov	 al, cl

; 213  : 		}

  0001a	5f		 pop	 edi
  0001b	5e		 pop	 esi
  0001c	5b		 pop	 ebx
  0001d	8b e5		 mov	 esp, ebp
  0001f	5d		 pop	 ebp
  00020	c3		 ret	 0
?is_open@?$basic_filebuf@DU?$char_traits@D@std@@@std@@QBE_NXZ ENDP ; std::basic_filebuf<char,std::char_traits<char> >::is_open
_TEXT	ENDS
PUBLIC	??1locale@std@@QAE@XZ				; std::locale::~locale
PUBLIC	?getloc@?$basic_streambuf@DU?$char_traits@D@std@@@std@@QBE?AVlocale@2@XZ ; std::basic_streambuf<char,std::char_traits<char> >::getloc
EXTRN	?_Fiopen@std@@YAPAU_iobuf@@PBDHH@Z:PROC		; std::_Fiopen
;	COMDAT xdata$x
xdata$x	SEGMENT
__unwindtable$?open@?$basic_filebuf@DU?$char_traits@D@std@@@std@@QAEPAV12@PBDHH@Z DD 0ffffffffH
	DD	FLAT:__unwindfunclet$?open@?$basic_filebuf@DU?$char_traits@D@std@@@std@@QAEPAV12@PBDHH@Z$0
__ehfuncinfo$?open@?$basic_filebuf@DU?$char_traits@D@std@@@std@@QAEPAV12@PBDHH@Z DD 019930522H
	DD	01H
	DD	FLAT:__unwindtable$?open@?$basic_filebuf@DU?$char_traits@D@std@@@std@@QAEPAV12@PBDHH@Z
	DD	2 DUP(00H)
	DD	2 DUP(00H)
	DD	00H
	DD	01H
; Function compile flags: /Odtp /ZI
xdata$x	ENDS
;	COMDAT ?open@?$basic_filebuf@DU?$char_traits@D@std@@@std@@QAEPAV12@PBDHH@Z
_TEXT	SEGMENT
tv88 = -96						; size = 4
tv89 = -92						; size = 4
$T226063 = -88						; size = 4
__File$ = -20						; size = 4
_this$ = -16						; size = 4
__$EHRec$ = -12						; size = 12
__Filename$ = 8						; size = 4
__Mode$ = 12						; size = 4
__Prot$ = 16						; size = 4
?open@?$basic_filebuf@DU?$char_traits@D@std@@@std@@QAEPAV12@PBDHH@Z PROC ; std::basic_filebuf<char,std::char_traits<char> >::open, COMDAT
; _this$ = ecx

; 218  : 		{	// open a C stream with specified mode

  00000	55		 push	 ebp
  00001	8b ec		 mov	 ebp, esp
  00003	6a ff		 push	 -1
  00005	68 00 00 00 00	 push	 __ehhandler$?open@?$basic_filebuf@DU?$char_traits@D@std@@@std@@QAEPAV12@PBDHH@Z
  0000a	64 a1 00 00 00
	00		 mov	 eax, DWORD PTR fs:0
  00010	50		 push	 eax
  00011	83 ec 54	 sub	 esp, 84			; 00000054H
  00014	53		 push	 ebx
  00015	56		 push	 esi
  00016	57		 push	 edi
  00017	a1 00 00 00 00	 mov	 eax, DWORD PTR ___security_cookie
  0001c	33 c5		 xor	 eax, ebp
  0001e	50		 push	 eax
  0001f	8d 45 f4	 lea	 eax, DWORD PTR __$EHRec$[ebp]
  00022	64 a3 00 00 00
	00		 mov	 DWORD PTR fs:0, eax
  00028	89 4d f0	 mov	 DWORD PTR _this$[ebp], ecx

; 219  : 		_Filet *_File;
; 220  : 		if (_Myfile != 0 || (_File = _Fiopen(_Filename, _Mode, _Prot)) == 0)

  0002b	8b 45 f0	 mov	 eax, DWORD PTR _this$[ebp]
  0002e	83 78 54 00	 cmp	 DWORD PTR [eax+84], 0
  00032	75 1d		 jne	 SHORT $LN1@open
  00034	8b 45 10	 mov	 eax, DWORD PTR __Prot$[ebp]
  00037	50		 push	 eax
  00038	8b 4d 0c	 mov	 ecx, DWORD PTR __Mode$[ebp]
  0003b	51		 push	 ecx
  0003c	8b 55 08	 mov	 edx, DWORD PTR __Filename$[ebp]
  0003f	52		 push	 edx
  00040	e8 00 00 00 00	 call	 ?_Fiopen@std@@YAPAU_iobuf@@PBDHH@Z ; std::_Fiopen
  00045	83 c4 0c	 add	 esp, 12			; 0000000cH
  00048	89 45 ec	 mov	 DWORD PTR __File$[ebp], eax
  0004b	83 7d ec 00	 cmp	 DWORD PTR __File$[ebp], 0
  0004f	75 04		 jne	 SHORT $LN2@open
$LN1@open:

; 221  : 			return (0);	// open failed

  00051	33 c0		 xor	 eax, eax
  00053	eb 51		 jmp	 SHORT $LN3@open
$LN2@open:

; 222  : 
; 223  : 		_Init(_File, _Openfl);

  00055	6a 01		 push	 1
  00057	8b 45 ec	 mov	 eax, DWORD PTR __File$[ebp]
  0005a	50		 push	 eax
  0005b	8b 4d f0	 mov	 ecx, DWORD PTR _this$[ebp]
  0005e	e8 00 00 00 00	 call	 ?_Init@?$basic_filebuf@DU?$char_traits@D@std@@@std@@IAEXPAU_iobuf@@W4_Initfl@12@@Z ; std::basic_filebuf<char,std::char_traits<char> >::_Init

; 224  : 		_Initcvt(&_USE(_Mysb::getloc(), _Cvt));

  00063	8d 45 a8	 lea	 eax, DWORD PTR $T226063[ebp]
  00066	50		 push	 eax
  00067	8b 4d f0	 mov	 ecx, DWORD PTR _this$[ebp]
  0006a	e8 00 00 00 00	 call	 ?getloc@?$basic_streambuf@DU?$char_traits@D@std@@@std@@QBE?AVlocale@2@XZ ; std::basic_streambuf<char,std::char_traits<char> >::getloc
  0006f	89 45 a4	 mov	 DWORD PTR tv89[ebp], eax
  00072	8b 4d a4	 mov	 ecx, DWORD PTR tv89[ebp]
  00075	89 4d a0	 mov	 DWORD PTR tv88[ebp], ecx
  00078	c7 45 fc 00 00
	00 00		 mov	 DWORD PTR __$EHRec$[ebp+8], 0
  0007f	8b 55 a0	 mov	 edx, DWORD PTR tv88[ebp]
  00082	52		 push	 edx
  00083	e8 00 00 00 00	 call	 ??$use_facet@V?$codecvt@DDH@std@@@std@@YAABV?$codecvt@DDH@0@ABVlocale@0@@Z ; std::use_facet<std::codecvt<char,char,int> >
  00088	83 c4 04	 add	 esp, 4
  0008b	50		 push	 eax
  0008c	8b 4d f0	 mov	 ecx, DWORD PTR _this$[ebp]
  0008f	e8 00 00 00 00	 call	 ?_Initcvt@?$basic_filebuf@DU?$char_traits@D@std@@@std@@IAEXPBV?$codecvt@DDH@2@@Z ; std::basic_filebuf<char,std::char_traits<char> >::_Initcvt
  00094	c7 45 fc ff ff
	ff ff		 mov	 DWORD PTR __$EHRec$[ebp+8], -1
  0009b	8d 4d a8	 lea	 ecx, DWORD PTR $T226063[ebp]
  0009e	e8 00 00 00 00	 call	 ??1locale@std@@QAE@XZ	; std::locale::~locale

; 225  : 		return (this);	// open succeeded

  000a3	8b 45 f0	 mov	 eax, DWORD PTR _this$[ebp]
$LN3@open:

; 226  : 		}

  000a6	8b 4d f4	 mov	 ecx, DWORD PTR __$EHRec$[ebp]
  000a9	64 89 0d 00 00
	00 00		 mov	 DWORD PTR fs:0, ecx
  000b0	59		 pop	 ecx
  000b1	5f		 pop	 edi
  000b2	5e		 pop	 esi
  000b3	5b		 pop	 ebx
  000b4	8b e5		 mov	 esp, ebp
  000b6	5d		 pop	 ebp
  000b7	c2 0c 00	 ret	 12			; 0000000cH
_TEXT	ENDS
;	COMDAT text$x
text$x	SEGMENT
__unwindfunclet$?open@?$basic_filebuf@DU?$char_traits@D@std@@@std@@QAEPAV12@PBDHH@Z$0:
  00000	8d 4d a8	 lea	 ecx, DWORD PTR $T226063[ebp]
  00003	e9 00 00 00 00	 jmp	 ??1locale@std@@QAE@XZ	; std::locale::~locale
__ehhandler$?open@?$basic_filebuf@DU?$char_traits@D@std@@@std@@QAEPAV12@PBDHH@Z:
  00008	8b 54 24 08	 mov	 edx, DWORD PTR [esp+8]
  0000c	8d 42 0c	 lea	 eax, DWORD PTR [edx+12]
  0000f	8b 4a 9c	 mov	 ecx, DWORD PTR [edx-100]
  00012	33 c8		 xor	 ecx, eax
  00014	e8 00 00 00 00	 call	 @__security_check_cookie@4
  00019	b8 00 00 00 00	 mov	 eax, OFFSET __ehfuncinfo$?open@?$basic_filebuf@DU?$char_traits@D@std@@@std@@QAEPAV12@PBDHH@Z
  0001e	e9 00 00 00 00	 jmp	 ___CxxFrameHandler3
text$x	ENDS
?open@?$basic_filebuf@DU?$char_traits@D@std@@@std@@QAEPAV12@PBDHH@Z ENDP ; std::basic_filebuf<char,std::char_traits<char> >::open
; Function compile flags: /Odtp /ZI
;	COMDAT ?close@?$basic_filebuf@DU?$char_traits@D@std@@@std@@QAEPAV12@XZ
_TEXT	SEGMENT
__Ans$ = -8						; size = 4
_this$ = -4						; size = 4
?close@?$basic_filebuf@DU?$char_traits@D@std@@@std@@QAEPAV12@XZ PROC ; std::basic_filebuf<char,std::char_traits<char> >::close, COMDAT
; _this$ = ecx

; 292  : 		{	// close the C stream

  00000	55		 push	 ebp
  00001	8b ec		 mov	 ebp, esp
  00003	83 ec 48	 sub	 esp, 72			; 00000048H
  00006	53		 push	 ebx
  00007	56		 push	 esi
  00008	57		 push	 edi
  00009	89 4d fc	 mov	 DWORD PTR _this$[ebp], ecx

; 293  : 		_Myt *_Ans = this;

  0000c	8b 45 fc	 mov	 eax, DWORD PTR _this$[ebp]
  0000f	89 45 f8	 mov	 DWORD PTR __Ans$[ebp], eax

; 294  : 		if (_Myfile == 0)

  00012	8b 45 fc	 mov	 eax, DWORD PTR _this$[ebp]
  00015	83 78 54 00	 cmp	 DWORD PTR [eax+84], 0
  00019	75 09		 jne	 SHORT $LN4@close

; 295  : 			_Ans = 0;

  0001b	c7 45 f8 00 00
	00 00		 mov	 DWORD PTR __Ans$[ebp], 0

; 296  : 		else

  00022	eb 30		 jmp	 SHORT $LN3@close
$LN4@close:

; 297  : 			{	// put any homing sequence and close file
; 298  : 			if (!_Endwrite())

  00024	8b 4d fc	 mov	 ecx, DWORD PTR _this$[ebp]
  00027	e8 00 00 00 00	 call	 ?_Endwrite@?$basic_filebuf@DU?$char_traits@D@std@@@std@@IAE_NXZ ; std::basic_filebuf<char,std::char_traits<char> >::_Endwrite
  0002c	0f b6 c0	 movzx	 eax, al
  0002f	85 c0		 test	 eax, eax
  00031	75 07		 jne	 SHORT $LN2@close

; 299  : 				_Ans = 0;

  00033	c7 45 f8 00 00
	00 00		 mov	 DWORD PTR __Ans$[ebp], 0
$LN2@close:

; 300  : 			if (fclose(_Myfile) != 0)

  0003a	8b 45 fc	 mov	 eax, DWORD PTR _this$[ebp]
  0003d	8b 48 54	 mov	 ecx, DWORD PTR [eax+84]
  00040	51		 push	 ecx
  00041	e8 00 00 00 00	 call	 _fclose
  00046	83 c4 04	 add	 esp, 4
  00049	85 c0		 test	 eax, eax
  0004b	74 07		 je	 SHORT $LN3@close

; 301  : 				_Ans = 0;

  0004d	c7 45 f8 00 00
	00 00		 mov	 DWORD PTR __Ans$[ebp], 0
$LN3@close:

; 302  : 			}
; 303  : 		_Init(0, _Closefl);

  00054	6a 02		 push	 2
  00056	6a 00		 push	 0
  00058	8b 4d fc	 mov	 ecx, DWORD PTR _this$[ebp]
  0005b	e8 00 00 00 00	 call	 ?_Init@?$basic_filebuf@DU?$char_traits@D@std@@@std@@IAEXPAU_iobuf@@W4_Initfl@12@@Z ; std::basic_filebuf<char,std::char_traits<char> >::_Init

; 304  : 		return (_Ans);

  00060	8b 45 f8	 mov	 eax, DWORD PTR __Ans$[ebp]

; 305  : 		}

  00063	5f		 pop	 edi
  00064	5e		 pop	 esi
  00065	5b		 pop	 ebx
  00066	8b e5		 mov	 esp, ebp
  00068	5d		 pop	 ebp
  00069	c3		 ret	 0
?close@?$basic_filebuf@DU?$char_traits@D@std@@@std@@QAEPAV12@XZ ENDP ; std::basic_filebuf<char,std::char_traits<char> >::close
_TEXT	ENDS
PUBLIC	?_Stinit@?1??_Init@?$basic_filebuf@DU?$char_traits@D@std@@@std@@IAEXPAU_iobuf@@W4_Initfl@23@@Z@4HA ; `std::basic_filebuf<char,std::char_traits<char> >::_Init'::`2'::_Stinit
PUBLIC	?_Init@?$basic_streambuf@DU?$char_traits@D@std@@@std@@IAEXPAPAD0PAH001@Z ; std::basic_streambuf<char,std::char_traits<char> >::_Init
PUBLIC	?_Init@?$basic_streambuf@DU?$char_traits@D@std@@@std@@IAEXXZ ; std::basic_streambuf<char,std::char_traits<char> >::_Init
;	COMDAT ?_Stinit@?1??_Init@?$basic_filebuf@DU?$char_traits@D@std@@@std@@IAEXPAU_iobuf@@W4_Initfl@23@@Z@4HA
_BSS	SEGMENT
?_Stinit@?1??_Init@?$basic_filebuf@DU?$char_traits@D@std@@@std@@IAEXPAU_iobuf@@W4_Initfl@23@@Z@4HA DD 01H DUP (?) ; `std::basic_filebuf<char,std::char_traits<char> >::_Init'::`2'::_Stinit
; Function compile flags: /Odtp /ZI
_BSS	ENDS
;	COMDAT ?_Init@?$basic_filebuf@DU?$char_traits@D@std@@@std@@IAEXPAU_iobuf@@W4_Initfl@12@@Z
_TEXT	SEGMENT
__Nw$225115 = -20					; size = 4
__Nr$225113 = -16					; size = 4
__Pn$225111 = -12					; size = 4
__Pb$225109 = -8					; size = 4
_this$ = -4						; size = 4
__File$ = 8						; size = 4
__Which$ = 12						; size = 4
?_Init@?$basic_filebuf@DU?$char_traits@D@std@@@std@@IAEXPAU_iobuf@@W4_Initfl@12@@Z PROC ; std::basic_filebuf<char,std::char_traits<char> >::_Init, COMDAT
; _this$ = ecx

; 555  : 		{	// initialize to C stream _File after {new, open, close}

  00000	55		 push	 ebp
  00001	8b ec		 mov	 ebp, esp
  00003	83 ec 54	 sub	 esp, 84			; 00000054H
  00006	53		 push	 ebx
  00007	56		 push	 esi
  00008	57		 push	 edi
  00009	89 4d fc	 mov	 DWORD PTR _this$[ebp], ecx

; 556  : 		__PURE_APPDOMAIN_GLOBAL static _Myst _Stinit;	// initial state
; 557  : 
; 558  : 		_Closef = _Which == _Openfl;

  0000c	33 c0		 xor	 eax, eax
  0000e	83 7d 0c 01	 cmp	 DWORD PTR __Which$[ebp], 1
  00012	0f 94 c0	 sete	 al
  00015	8b 4d fc	 mov	 ecx, DWORD PTR _this$[ebp]
  00018	88 41 50	 mov	 BYTE PTR [ecx+80], al

; 559  : 		_Wrotesome = false;

  0001b	8b 45 fc	 mov	 eax, DWORD PTR _this$[ebp]
  0001e	c6 40 49 00	 mov	 BYTE PTR [eax+73], 0

; 560  : 
; 561  : 		_Mysb::_Init();	// initialize stream buffer base object

  00022	8b 4d fc	 mov	 ecx, DWORD PTR _this$[ebp]
  00025	e8 00 00 00 00	 call	 ?_Init@?$basic_streambuf@DU?$char_traits@D@std@@@std@@IAEXXZ ; std::basic_streambuf<char,std::char_traits<char> >::_Init

; 562  : 
; 563  :  #ifndef _IORCNT
; 564  :   #define _IORCNT	_IOCNT	/* read and write counts are the same */
; 565  :   #define _IOWCNT _IOCNT
; 566  :  #endif /* _IORCNT */
; 567  : 
; 568  :   #pragma warning(push)
; 569  :   #pragma warning(disable: 6240)	/* prefast noise VSW 489858 */
; 570  : 		if (_File != 0 && sizeof (_Elem) == 1)

  0002a	83 7d 08 00	 cmp	 DWORD PTR __File$[ebp], 0
  0002e	74 4a		 je	 SHORT $LN1@Init
  00030	b8 01 00 00 00	 mov	 eax, 1
  00035	85 c0		 test	 eax, eax
  00037	74 41		 je	 SHORT $LN1@Init

; 571  :   #pragma warning(pop)
; 572  : 
; 573  : 			{	// point inside C stream with [first, first + count) buffer
; 574  : 			_Elem **_Pb = (_Elem **)&_File->_IOBASE;

  00039	8b 45 08	 mov	 eax, DWORD PTR __File$[ebp]
  0003c	83 c0 08	 add	 eax, 8
  0003f	89 45 f8	 mov	 DWORD PTR __Pb$225109[ebp], eax

; 575  : 			_Elem **_Pn = (_Elem **)&_File->_IOPTR;

  00042	8b 45 08	 mov	 eax, DWORD PTR __File$[ebp]
  00045	89 45 f4	 mov	 DWORD PTR __Pn$225111[ebp], eax

; 576  : 			int *_Nr = (int *)&_File->_IORCNT;

  00048	8b 45 08	 mov	 eax, DWORD PTR __File$[ebp]
  0004b	83 c0 04	 add	 eax, 4
  0004e	89 45 f0	 mov	 DWORD PTR __Nr$225113[ebp], eax

; 577  : 			int *_Nw = (int *)&_File->_IOWCNT;

  00051	8b 45 08	 mov	 eax, DWORD PTR __File$[ebp]
  00054	83 c0 04	 add	 eax, 4
  00057	89 45 ec	 mov	 DWORD PTR __Nw$225115[ebp], eax

; 578  : 			_Mysb::_Init(_Pb, _Pn, _Nr, _Pb, _Pn, _Nw);

  0005a	8b 45 ec	 mov	 eax, DWORD PTR __Nw$225115[ebp]
  0005d	50		 push	 eax
  0005e	8b 4d f4	 mov	 ecx, DWORD PTR __Pn$225111[ebp]
  00061	51		 push	 ecx
  00062	8b 55 f8	 mov	 edx, DWORD PTR __Pb$225109[ebp]
  00065	52		 push	 edx
  00066	8b 45 f0	 mov	 eax, DWORD PTR __Nr$225113[ebp]
  00069	50		 push	 eax
  0006a	8b 4d f4	 mov	 ecx, DWORD PTR __Pn$225111[ebp]
  0006d	51		 push	 ecx
  0006e	8b 55 f8	 mov	 edx, DWORD PTR __Pb$225109[ebp]
  00071	52		 push	 edx
  00072	8b 4d fc	 mov	 ecx, DWORD PTR _this$[ebp]
  00075	e8 00 00 00 00	 call	 ?_Init@?$basic_streambuf@DU?$char_traits@D@std@@@std@@IAEXPAPAD0PAH001@Z ; std::basic_streambuf<char,std::char_traits<char> >::_Init
$LN1@Init:

; 579  : 			}
; 580  : 
; 581  : 		_Myfile = _File;

  0007a	8b 45 fc	 mov	 eax, DWORD PTR _this$[ebp]
  0007d	8b 4d 08	 mov	 ecx, DWORD PTR __File$[ebp]
  00080	89 48 54	 mov	 DWORD PTR [eax+84], ecx

; 582  : 		_State = _Stinit;

  00083	8b 45 fc	 mov	 eax, DWORD PTR _this$[ebp]
  00086	8b 0d 00 00 00
	00		 mov	 ecx, DWORD PTR ?_Stinit@?1??_Init@?$basic_filebuf@DU?$char_traits@D@std@@@std@@IAEXPAU_iobuf@@W4_Initfl@23@@Z@4HA ; `std::basic_filebuf<char,std::char_traits<char> >::_Init'::`2'::_Stinit
  0008c	89 48 4c	 mov	 DWORD PTR [eax+76], ecx

; 583  : 		_Pcvt = 0;	// pointer to codecvt facet

  0008f	8b 45 fc	 mov	 eax, DWORD PTR _this$[ebp]
  00092	c7 40 44 00 00
	00 00		 mov	 DWORD PTR [eax+68], 0

; 584  : 		}

  00099	5f		 pop	 edi
  0009a	5e		 pop	 esi
  0009b	5b		 pop	 ebx
  0009c	8b e5		 mov	 esp, ebp
  0009e	5d		 pop	 ebp
  0009f	c2 08 00	 ret	 8
?_Init@?$basic_filebuf@DU?$char_traits@D@std@@@std@@IAEXPAU_iobuf@@W4_Initfl@12@@Z ENDP ; std::basic_filebuf<char,std::char_traits<char> >::_Init
_TEXT	ENDS
PUBLIC	?unshift@?$codecvt@DDH@std@@QBEHAAHPAD1AAPAD@Z	; std::codecvt<char,char,int>::unshift
PUBLIC	__$ArrayPad$
;	COMDAT xdata$x
xdata$x	SEGMENT
__unwindtable$?_Endwrite@?$basic_filebuf@DU?$char_traits@D@std@@@std@@IAE_NXZ DD 0ffffffffH
	DD	FLAT:__unwindfunclet$?_Endwrite@?$basic_filebuf@DU?$char_traits@D@std@@@std@@IAE_NXZ$0
__ehfuncinfo$?_Endwrite@?$basic_filebuf@DU?$char_traits@D@std@@@std@@IAE_NXZ DD 019930522H
	DD	01H
	DD	FLAT:__unwindtable$?_Endwrite@?$basic_filebuf@DU?$char_traits@D@std@@@std@@IAE_NXZ
	DD	2 DUP(00H)
	DD	2 DUP(00H)
	DD	00H
	DD	01H
; Function compile flags: /Odtp /ZI
xdata$x	ENDS
;	COMDAT ?_Endwrite@?$basic_filebuf@DU?$char_traits@D@std@@@std@@IAE_NXZ
_TEXT	SEGMENT
tv143 = -156						; size = 4
$T226078 = -152						; size = 4
$T226079 = -148						; size = 4
$T226080 = -144						; size = 4
$T226081 = -140						; size = 4
$T226082 = -136						; size = 4
$T226083 = -132						; size = 4
$T226084 = -128						; size = 1
$T226085 = -127						; size = 1
$T226086 = -126						; size = 1
$T226087 = -125						; size = 1
__Count$225139 = -60					; size = 4
__Str$225127 = -56					; size = 28
__Dest$225123 = -28					; size = 4
__STRING_INC$225122 = -24				; size = 4
_this$ = -20						; size = 4
__$ArrayPad$ = -16					; size = 4
__$EHRec$ = -12						; size = 12
?_Endwrite@?$basic_filebuf@DU?$char_traits@D@std@@@std@@IAE_NXZ PROC ; std::basic_filebuf<char,std::char_traits<char> >::_Endwrite, COMDAT
; _this$ = ecx

; 587  : 		{	// put shift to initial conversion state, as needed

  00000	55		 push	 ebp
  00001	8b ec		 mov	 ebp, esp
  00003	6a ff		 push	 -1
  00005	68 00 00 00 00	 push	 __ehhandler$?_Endwrite@?$basic_filebuf@DU?$char_traits@D@std@@@std@@IAE_NXZ
  0000a	64 a1 00 00 00
	00		 mov	 eax, DWORD PTR fs:0
  00010	50		 push	 eax
  00011	81 ec 90 00 00
	00		 sub	 esp, 144		; 00000090H
  00017	a1 00 00 00 00	 mov	 eax, DWORD PTR ___security_cookie
  0001c	33 c5		 xor	 eax, ebp
  0001e	89 45 f0	 mov	 DWORD PTR __$ArrayPad$[ebp], eax
  00021	53		 push	 ebx
  00022	56		 push	 esi
  00023	57		 push	 edi
  00024	50		 push	 eax
  00025	8d 45 f4	 lea	 eax, DWORD PTR __$EHRec$[ebp]
  00028	64 a3 00 00 00
	00		 mov	 DWORD PTR fs:0, eax
  0002e	89 4d ec	 mov	 DWORD PTR _this$[ebp], ecx

; 588  : 		if (_Pcvt == 0 || !_Wrotesome)

  00031	8b 45 ec	 mov	 eax, DWORD PTR _this$[ebp]
  00034	83 78 44 00	 cmp	 DWORD PTR [eax+68], 0
  00038	74 0b		 je	 SHORT $LN14@Endwrite
  0003a	8b 45 ec	 mov	 eax, DWORD PTR _this$[ebp]
  0003d	0f b6 48 49	 movzx	 ecx, BYTE PTR [eax+73]
  00041	85 c9		 test	 ecx, ecx
  00043	75 0c		 jne	 SHORT $LN15@Endwrite
$LN14@Endwrite:

; 589  : 			return (true);

  00045	b0 01		 mov	 al, 1
  00047	e9 cc 01 00 00	 jmp	 $LN16@Endwrite

; 590  : 		else

  0004c	e9 c7 01 00 00	 jmp	 $LN16@Endwrite
$LN15@Endwrite:

; 591  : 			{	// may have to put
; 592  : 			const int _STRING_INC = 8;

  00051	c7 45 e8 08 00
	00 00		 mov	 DWORD PTR __STRING_INC$225122[ebp], 8

; 593  : 			char *_Dest;
; 594  : 			if (_Traits::eq_int_type(_Traits::eof(), overflow()))

  00058	e8 00 00 00 00	 call	 ?eof@?$char_traits@D@std@@SAHXZ ; std::char_traits<char>::eof
  0005d	50		 push	 eax
  0005e	8b 45 ec	 mov	 eax, DWORD PTR _this$[ebp]
  00061	8b 10		 mov	 edx, DWORD PTR [eax]
  00063	8b 4d ec	 mov	 ecx, DWORD PTR _this$[ebp]
  00066	8b 42 0c	 mov	 eax, DWORD PTR [edx+12]
  00069	ff d0		 call	 eax
  0006b	89 85 68 ff ff
	ff		 mov	 DWORD PTR $T226078[ebp], eax
  00071	e8 00 00 00 00	 call	 ?eof@?$char_traits@D@std@@SAHXZ ; std::char_traits<char>::eof
  00076	89 85 6c ff ff
	ff		 mov	 DWORD PTR $T226079[ebp], eax
  0007c	8d 8d 68 ff ff
	ff		 lea	 ecx, DWORD PTR $T226078[ebp]
  00082	51		 push	 ecx
  00083	8d 95 6c ff ff
	ff		 lea	 edx, DWORD PTR $T226079[ebp]
  00089	52		 push	 edx
  0008a	e8 00 00 00 00	 call	 ?eq_int_type@?$char_traits@D@std@@SA_NABH0@Z ; std::char_traits<char>::eq_int_type
  0008f	83 c4 08	 add	 esp, 8
  00092	0f b6 c0	 movzx	 eax, al
  00095	85 c0		 test	 eax, eax
  00097	74 07		 je	 SHORT $LN12@Endwrite

; 595  : 				return (false);

  00099	32 c0		 xor	 al, al
  0009b	e9 78 01 00 00	 jmp	 $LN16@Endwrite
$LN12@Endwrite:

; 596  : 
; 597  : 			string _Str(_STRING_INC, '\0');

  000a0	6a 00		 push	 0
  000a2	6a 08		 push	 8
  000a4	8d 4d c8	 lea	 ecx, DWORD PTR __Str$225127[ebp]
  000a7	e8 00 00 00 00	 call	 ??0?$basic_string@DU?$char_traits@D@std@@V?$allocator@D@2@@std@@QAE@ID@Z ; std::basic_string<char,std::char_traits<char>,std::allocator<char> >::basic_string<char,std::char_traits<char>,std::allocator<char> >
  000ac	c7 45 fc 00 00
	00 00		 mov	 DWORD PTR __$EHRec$[ebp+8], 0
$LN11@Endwrite:

; 598  : 			for (; ; )
; 599  : 				switch (_Pcvt->unshift(_State,
; 600  : 					&*_Str.begin(), &*_Str.begin() + _Str.size(), _Dest))

  000b3	8d 45 e4	 lea	 eax, DWORD PTR __Dest$225123[ebp]
  000b6	50		 push	 eax
  000b7	8d 8d 70 ff ff
	ff		 lea	 ecx, DWORD PTR $T226080[ebp]
  000bd	51		 push	 ecx
  000be	8d 4d c8	 lea	 ecx, DWORD PTR __Str$225127[ebp]
  000c1	e8 00 00 00 00	 call	 ?begin@?$basic_string@DU?$char_traits@D@std@@V?$allocator@D@2@@std@@QAE?AV?$_String_iterator@DU?$char_traits@D@std@@V?$allocator@D@2@@2@XZ ; std::basic_string<char,std::char_traits<char>,std::allocator<char> >::begin
  000c6	8b c8		 mov	 ecx, eax
  000c8	e8 00 00 00 00	 call	 ??D?$_String_iterator@DU?$char_traits@D@std@@V?$allocator@D@2@@std@@QBEAADXZ ; std::_String_iterator<char,std::char_traits<char>,std::allocator<char> >::operator*
  000cd	8b f0		 mov	 esi, eax
  000cf	8d 4d c8	 lea	 ecx, DWORD PTR __Str$225127[ebp]
  000d2	e8 00 00 00 00	 call	 ?size@?$basic_string@DU?$char_traits@D@std@@V?$allocator@D@2@@std@@QBEIXZ ; std::basic_string<char,std::char_traits<char>,std::allocator<char> >::size
  000d7	03 f0		 add	 esi, eax
  000d9	56		 push	 esi
  000da	8d 95 74 ff ff
	ff		 lea	 edx, DWORD PTR $T226081[ebp]
  000e0	52		 push	 edx
  000e1	8d 4d c8	 lea	 ecx, DWORD PTR __Str$225127[ebp]
  000e4	e8 00 00 00 00	 call	 ?begin@?$basic_string@DU?$char_traits@D@std@@V?$allocator@D@2@@std@@QAE?AV?$_String_iterator@DU?$char_traits@D@std@@V?$allocator@D@2@@2@XZ ; std::basic_string<char,std::char_traits<char>,std::allocator<char> >::begin
  000e9	8b c8		 mov	 ecx, eax
  000eb	e8 00 00 00 00	 call	 ??D?$_String_iterator@DU?$char_traits@D@std@@V?$allocator@D@2@@std@@QBEAADXZ ; std::_String_iterator<char,std::char_traits<char>,std::allocator<char> >::operator*
  000f0	50		 push	 eax
  000f1	8b 45 ec	 mov	 eax, DWORD PTR _this$[ebp]
  000f4	83 c0 4c	 add	 eax, 76			; 0000004cH
  000f7	50		 push	 eax
  000f8	8b 4d ec	 mov	 ecx, DWORD PTR _this$[ebp]
  000fb	8b 49 44	 mov	 ecx, DWORD PTR [ecx+68]
  000fe	e8 00 00 00 00	 call	 ?unshift@?$codecvt@DDH@std@@QBEHAAHPAD1AAPAD@Z ; std::codecvt<char,char,int>::unshift
  00103	89 85 64 ff ff
	ff		 mov	 DWORD PTR tv143[ebp], eax
  00109	83 bd 64 ff ff
	ff 00		 cmp	 DWORD PTR tv143[ebp], 0
  00110	74 1b		 je	 SHORT $LN7@Endwrite
  00112	83 bd 64 ff ff
	ff 01		 cmp	 DWORD PTR tv143[ebp], 1
  00119	74 19		 je	 SHORT $LN6@Endwrite
  0011b	83 bd 64 ff ff
	ff 03		 cmp	 DWORD PTR tv143[ebp], 3
  00122	0f 84 ac 00 00
	00		 je	 $LN2@Endwrite
  00128	e9 bf 00 00 00	 jmp	 $LN1@Endwrite
$LN7@Endwrite:

; 601  : 				{	// test result of homing conversion
; 602  : 				case codecvt_base::ok:
; 603  : 					_Wrotesome = false;	// homed successfully

  0012d	8b 45 ec	 mov	 eax, DWORD PTR _this$[ebp]
  00130	c6 40 49 00	 mov	 BYTE PTR [eax+73], 0
$LN6@Endwrite:

; 604  : 
; 605  : 				case codecvt_base::partial:	// fall through
; 606  : 					{	// put any generated bytes
; 607  : 					size_t _Count = _Dest - &*_Str.begin();

  00134	8d 85 78 ff ff
	ff		 lea	 eax, DWORD PTR $T226082[ebp]
  0013a	50		 push	 eax
  0013b	8d 4d c8	 lea	 ecx, DWORD PTR __Str$225127[ebp]
  0013e	e8 00 00 00 00	 call	 ?begin@?$basic_string@DU?$char_traits@D@std@@V?$allocator@D@2@@std@@QAE?AV?$_String_iterator@DU?$char_traits@D@std@@V?$allocator@D@2@@2@XZ ; std::basic_string<char,std::char_traits<char>,std::allocator<char> >::begin
  00143	8b c8		 mov	 ecx, eax
  00145	e8 00 00 00 00	 call	 ??D?$_String_iterator@DU?$char_traits@D@std@@V?$allocator@D@2@@std@@QBEAADXZ ; std::_String_iterator<char,std::char_traits<char>,std::allocator<char> >::operator*
  0014a	8b 4d e4	 mov	 ecx, DWORD PTR __Dest$225123[ebp]
  0014d	2b c8		 sub	 ecx, eax
  0014f	89 4d c4	 mov	 DWORD PTR __Count$225139[ebp], ecx

; 608  : 					if (0 < _Count && _Count !=
; 609  : 						fwrite(&*_Str.begin(), 1, _Count, _Myfile))

  00152	74 49		 je	 SHORT $LN5@Endwrite
  00154	8b 45 ec	 mov	 eax, DWORD PTR _this$[ebp]
  00157	8b 48 54	 mov	 ecx, DWORD PTR [eax+84]
  0015a	51		 push	 ecx
  0015b	8b 55 c4	 mov	 edx, DWORD PTR __Count$225139[ebp]
  0015e	52		 push	 edx
  0015f	6a 01		 push	 1
  00161	8d 85 7c ff ff
	ff		 lea	 eax, DWORD PTR $T226083[ebp]
  00167	50		 push	 eax
  00168	8d 4d c8	 lea	 ecx, DWORD PTR __Str$225127[ebp]
  0016b	e8 00 00 00 00	 call	 ?begin@?$basic_string@DU?$char_traits@D@std@@V?$allocator@D@2@@std@@QAE?AV?$_String_iterator@DU?$char_traits@D@std@@V?$allocator@D@2@@2@XZ ; std::basic_string<char,std::char_traits<char>,std::allocator<char> >::begin
  00170	8b c8		 mov	 ecx, eax
  00172	e8 00 00 00 00	 call	 ??D?$_String_iterator@DU?$char_traits@D@std@@V?$allocator@D@2@@std@@QBEAADXZ ; std::_String_iterator<char,std::char_traits<char>,std::allocator<char> >::operator*
  00177	50		 push	 eax
  00178	e8 00 00 00 00	 call	 _fwrite
  0017d	83 c4 10	 add	 esp, 16			; 00000010H
  00180	39 45 c4	 cmp	 DWORD PTR __Count$225139[ebp], eax
  00183	74 18		 je	 SHORT $LN5@Endwrite

; 610  : 						return (false);	// write failed

  00185	c6 45 80 00	 mov	 BYTE PTR $T226084[ebp], 0
  00189	c7 45 fc ff ff
	ff ff		 mov	 DWORD PTR __$EHRec$[ebp+8], -1
  00190	8d 4d c8	 lea	 ecx, DWORD PTR __Str$225127[ebp]
  00193	e8 00 00 00 00	 call	 ??1?$basic_string@DU?$char_traits@D@std@@V?$allocator@D@2@@std@@QAE@XZ ; std::basic_string<char,std::char_traits<char>,std::allocator<char> >::~basic_string<char,std::char_traits<char>,std::allocator<char> >
  00198	8a 45 80	 mov	 al, BYTE PTR $T226084[ebp]
  0019b	eb 7b		 jmp	 SHORT $LN16@Endwrite
$LN5@Endwrite:

; 611  : 					if (!_Wrotesome)

  0019d	8b 45 ec	 mov	 eax, DWORD PTR _this$[ebp]
  001a0	0f b6 48 49	 movzx	 ecx, BYTE PTR [eax+73]
  001a4	85 c9		 test	 ecx, ecx
  001a6	75 18		 jne	 SHORT $LN4@Endwrite

; 612  : 						return (true);

  001a8	c6 45 81 01	 mov	 BYTE PTR $T226085[ebp], 1
  001ac	c7 45 fc ff ff
	ff ff		 mov	 DWORD PTR __$EHRec$[ebp+8], -1
  001b3	8d 4d c8	 lea	 ecx, DWORD PTR __Str$225127[ebp]
  001b6	e8 00 00 00 00	 call	 ??1?$basic_string@DU?$char_traits@D@std@@V?$allocator@D@2@@std@@QAE@XZ ; std::basic_string<char,std::char_traits<char>,std::allocator<char> >::~basic_string<char,std::char_traits<char>,std::allocator<char> >
  001bb	8a 45 81	 mov	 al, BYTE PTR $T226085[ebp]
  001be	eb 58		 jmp	 SHORT $LN16@Endwrite
$LN4@Endwrite:

; 613  : 					if (_Count == 0)

  001c0	83 7d c4 00	 cmp	 DWORD PTR __Count$225139[ebp], 0
  001c4	75 0c		 jne	 SHORT $LN3@Endwrite

; 614  : 						_Str.append(_STRING_INC, '\0');	// try with more space

  001c6	6a 00		 push	 0
  001c8	6a 08		 push	 8
  001ca	8d 4d c8	 lea	 ecx, DWORD PTR __Str$225127[ebp]
  001cd	e8 00 00 00 00	 call	 ?append@?$basic_string@DU?$char_traits@D@std@@V?$allocator@D@2@@std@@QAEAAV12@ID@Z ; std::basic_string<char,std::char_traits<char>,std::allocator<char> >::append
$LN3@Endwrite:

; 615  : 					break;

  001d2	eb 30		 jmp	 SHORT $LN8@Endwrite
$LN2@Endwrite:

; 616  : 					}
; 617  : 
; 618  : 				case codecvt_base::noconv:
; 619  : 					return (true);	// nothing to do

  001d4	c6 45 82 01	 mov	 BYTE PTR $T226086[ebp], 1
  001d8	c7 45 fc ff ff
	ff ff		 mov	 DWORD PTR __$EHRec$[ebp+8], -1
  001df	8d 4d c8	 lea	 ecx, DWORD PTR __Str$225127[ebp]
  001e2	e8 00 00 00 00	 call	 ??1?$basic_string@DU?$char_traits@D@std@@V?$allocator@D@2@@std@@QAE@XZ ; std::basic_string<char,std::char_traits<char>,std::allocator<char> >::~basic_string<char,std::char_traits<char>,std::allocator<char> >
  001e7	8a 45 82	 mov	 al, BYTE PTR $T226086[ebp]
  001ea	eb 2c		 jmp	 SHORT $LN16@Endwrite
$LN1@Endwrite:

; 620  : 
; 621  : 				default:
; 622  : 					return (false);	// conversion failed

  001ec	c6 45 83 00	 mov	 BYTE PTR $T226087[ebp], 0
  001f0	c7 45 fc ff ff
	ff ff		 mov	 DWORD PTR __$EHRec$[ebp+8], -1
  001f7	8d 4d c8	 lea	 ecx, DWORD PTR __Str$225127[ebp]
  001fa	e8 00 00 00 00	 call	 ??1?$basic_string@DU?$char_traits@D@std@@V?$allocator@D@2@@std@@QAE@XZ ; std::basic_string<char,std::char_traits<char>,std::allocator<char> >::~basic_string<char,std::char_traits<char>,std::allocator<char> >
  001ff	8a 45 83	 mov	 al, BYTE PTR $T226087[ebp]
  00202	eb 14		 jmp	 SHORT $LN16@Endwrite
$LN8@Endwrite:

; 623  : 				}

  00204	e9 aa fe ff ff	 jmp	 $LN11@Endwrite

; 624  : 			}

  00209	c7 45 fc ff ff
	ff ff		 mov	 DWORD PTR __$EHRec$[ebp+8], -1
  00210	8d 4d c8	 lea	 ecx, DWORD PTR __Str$225127[ebp]
  00213	e8 00 00 00 00	 call	 ??1?$basic_string@DU?$char_traits@D@std@@V?$allocator@D@2@@std@@QAE@XZ ; std::basic_string<char,std::char_traits<char>,std::allocator<char> >::~basic_string<char,std::char_traits<char>,std::allocator<char> >
$LN16@Endwrite:

; 625  : 		}

  00218	8b 4d f4	 mov	 ecx, DWORD PTR __$EHRec$[ebp]
  0021b	64 89 0d 00 00
	00 00		 mov	 DWORD PTR fs:0, ecx
  00222	59		 pop	 ecx
  00223	5f		 pop	 edi
  00224	5e		 pop	 esi
  00225	5b		 pop	 ebx
  00226	8b 4d f0	 mov	 ecx, DWORD PTR __$ArrayPad$[ebp]
  00229	33 cd		 xor	 ecx, ebp
  0022b	e8 00 00 00 00	 call	 @__security_check_cookie@4
  00230	8b e5		 mov	 esp, ebp
  00232	5d		 pop	 ebp
  00233	c3		 ret	 0
_TEXT	ENDS
;	COMDAT text$x
text$x	SEGMENT
__unwindfunclet$?_Endwrite@?$basic_filebuf@DU?$char_traits@D@std@@@std@@IAE_NXZ$0:
  00000	8d 4d c8	 lea	 ecx, DWORD PTR __Str$225127[ebp]
  00003	e9 00 00 00 00	 jmp	 ??1?$basic_string@DU?$char_traits@D@std@@V?$allocator@D@2@@std@@QAE@XZ ; std::basic_string<char,std::char_traits<char>,std::allocator<char> >::~basic_string<char,std::char_traits<char>,std::allocator<char> >
__ehhandler$?_Endwrite@?$basic_filebuf@DU?$char_traits@D@std@@@std@@IAE_NXZ:
  00008	8b 54 24 08	 mov	 edx, DWORD PTR [esp+8]
  0000c	8d 42 0c	 lea	 eax, DWORD PTR [edx+12]
  0000f	8b 8a 60 ff ff
	ff		 mov	 ecx, DWORD PTR [edx-160]
  00015	33 c8		 xor	 ecx, eax
  00017	e8 00 00 00 00	 call	 @__security_check_cookie@4
  0001c	8b 4a fc	 mov	 ecx, DWORD PTR [edx-4]
  0001f	33 c8		 xor	 ecx, eax
  00021	e8 00 00 00 00	 call	 @__security_check_cookie@4
  00026	b8 00 00 00 00	 mov	 eax, OFFSET __ehfuncinfo$?_Endwrite@?$basic_filebuf@DU?$char_traits@D@std@@@std@@IAE_NXZ
  0002b	e9 00 00 00 00	 jmp	 ___CxxFrameHandler3
text$x	ENDS
?_Endwrite@?$basic_filebuf@DU?$char_traits@D@std@@@std@@IAE_NXZ ENDP ; std::basic_filebuf<char,std::char_traits<char> >::_Endwrite
PUBLIC	?always_noconv@codecvt_base@std@@QBE_NXZ	; std::codecvt_base::always_noconv
; Function compile flags: /Odtp /ZI
;	COMDAT ?_Initcvt@?$basic_filebuf@DU?$char_traits@D@std@@@std@@IAEXPBV?$codecvt@DDH@2@@Z
_TEXT	SEGMENT
_this$ = -4						; size = 4
__Newpcvt$ = 8						; size = 4
?_Initcvt@?$basic_filebuf@DU?$char_traits@D@std@@@std@@IAEXPBV?$codecvt@DDH@2@@Z PROC ; std::basic_filebuf<char,std::char_traits<char> >::_Initcvt, COMDAT
; _this$ = ecx

; 628  : 		{	// initialize codecvt pointer

  00000	55		 push	 ebp
  00001	8b ec		 mov	 ebp, esp
  00003	83 ec 44	 sub	 esp, 68			; 00000044H
  00006	53		 push	 ebx
  00007	56		 push	 esi
  00008	57		 push	 edi
  00009	89 4d fc	 mov	 DWORD PTR _this$[ebp], ecx

; 629  : 		if (_Newpcvt->always_noconv())

  0000c	8b 4d 08	 mov	 ecx, DWORD PTR __Newpcvt$[ebp]
  0000f	e8 00 00 00 00	 call	 ?always_noconv@codecvt_base@std@@QBE_NXZ ; std::codecvt_base::always_noconv
  00014	0f b6 c0	 movzx	 eax, al
  00017	85 c0		 test	 eax, eax
  00019	74 0c		 je	 SHORT $LN2@Initcvt

; 630  : 			_Pcvt = 0;	// nothing to do

  0001b	8b 45 fc	 mov	 eax, DWORD PTR _this$[ebp]
  0001e	c7 40 44 00 00
	00 00		 mov	 DWORD PTR [eax+68], 0

; 631  : 		else

  00025	eb 11		 jmp	 SHORT $LN3@Initcvt
$LN2@Initcvt:

; 632  : 			{	// set up for nontrivial codecvt facet
; 633  : 			_Pcvt = _Newpcvt;

  00027	8b 45 fc	 mov	 eax, DWORD PTR _this$[ebp]
  0002a	8b 4d 08	 mov	 ecx, DWORD PTR __Newpcvt$[ebp]
  0002d	89 48 44	 mov	 DWORD PTR [eax+68], ecx

; 634  : 			_Mysb::_Init();	// reset any buffering

  00030	8b 4d fc	 mov	 ecx, DWORD PTR _this$[ebp]
  00033	e8 00 00 00 00	 call	 ?_Init@?$basic_streambuf@DU?$char_traits@D@std@@@std@@IAEXXZ ; std::basic_streambuf<char,std::char_traits<char> >::_Init
$LN3@Initcvt:

; 635  : 			}
; 636  : 		}

  00038	5f		 pop	 edi
  00039	5e		 pop	 esi
  0003a	5b		 pop	 ebx
  0003b	8b e5		 mov	 esp, ebp
  0003d	5d		 pop	 ebp
  0003e	c2 04 00	 ret	 4
?_Initcvt@?$basic_filebuf@DU?$char_traits@D@std@@@std@@IAEXPBV?$codecvt@DDH@2@@Z ENDP ; std::basic_filebuf<char,std::char_traits<char> >::_Initcvt
_TEXT	ENDS
PUBLIC	?setg@?$basic_streambuf@DU?$char_traits@D@std@@@std@@IAEXPAD00@Z ; std::basic_streambuf<char,std::char_traits<char> >::setg
; Function compile flags: /Odtp /ZI
;	COMDAT ?_Reset_back@?$basic_filebuf@DU?$char_traits@D@std@@@std@@AAEXXZ
_TEXT	SEGMENT
_this$ = -4						; size = 4
?_Reset_back@?$basic_filebuf@DU?$char_traits@D@std@@@std@@AAEXXZ PROC ; std::basic_filebuf<char,std::char_traits<char> >::_Reset_back, COMDAT
; _this$ = ecx

; 640  : 		{	// restore buffer after putback

  00000	55		 push	 ebp
  00001	8b ec		 mov	 ebp, esp
  00003	83 ec 44	 sub	 esp, 68			; 00000044H
  00006	53		 push	 ebx
  00007	56		 push	 esi
  00008	57		 push	 edi
  00009	89 4d fc	 mov	 DWORD PTR _this$[ebp], ecx

; 641  : 		if (_Mysb::eback() == &_Mychar)

  0000c	8b 4d fc	 mov	 ecx, DWORD PTR _this$[ebp]
  0000f	e8 00 00 00 00	 call	 ?eback@?$basic_streambuf@DU?$char_traits@D@std@@@std@@IBEPADXZ ; std::basic_streambuf<char,std::char_traits<char> >::eback
  00014	8b 4d fc	 mov	 ecx, DWORD PTR _this$[ebp]
  00017	83 c1 48	 add	 ecx, 72			; 00000048H
  0001a	3b c1		 cmp	 eax, ecx
  0001c	75 1d		 jne	 SHORT $LN2@Reset_back

; 642  : 			_Mysb::setg(_Set_eback, _Set_egptr, _Set_egptr);

  0001e	8b 45 fc	 mov	 eax, DWORD PTR _this$[ebp]
  00021	8b 48 40	 mov	 ecx, DWORD PTR [eax+64]
  00024	51		 push	 ecx
  00025	8b 55 fc	 mov	 edx, DWORD PTR _this$[ebp]
  00028	8b 42 40	 mov	 eax, DWORD PTR [edx+64]
  0002b	50		 push	 eax
  0002c	8b 4d fc	 mov	 ecx, DWORD PTR _this$[ebp]
  0002f	8b 51 3c	 mov	 edx, DWORD PTR [ecx+60]
  00032	52		 push	 edx
  00033	8b 4d fc	 mov	 ecx, DWORD PTR _this$[ebp]
  00036	e8 00 00 00 00	 call	 ?setg@?$basic_streambuf@DU?$char_traits@D@std@@@std@@IAEXPAD00@Z ; std::basic_streambuf<char,std::char_traits<char> >::setg
$LN2@Reset_back:

; 643  : 		}

  0003b	5f		 pop	 edi
  0003c	5e		 pop	 esi
  0003d	5b		 pop	 ebx
  0003e	8b e5		 mov	 esp, ebp
  00040	5d		 pop	 ebp
  00041	c3		 ret	 0
?_Reset_back@?$basic_filebuf@DU?$char_traits@D@std@@@std@@AAEXXZ ENDP ; std::basic_filebuf<char,std::char_traits<char> >::_Reset_back
; Function compile flags: /Odtp /ZI
_TEXT	ENDS
;	COMDAT ?_Set_back@?$basic_filebuf@DU?$char_traits@D@std@@@std@@AAEXXZ
_TEXT	SEGMENT
_this$ = -4						; size = 4
?_Set_back@?$basic_filebuf@DU?$char_traits@D@std@@@std@@AAEXXZ PROC ; std::basic_filebuf<char,std::char_traits<char> >::_Set_back, COMDAT
; _this$ = ecx

; 646  : 		{	// set up putback area

  00000	55		 push	 ebp
  00001	8b ec		 mov	 ebp, esp
  00003	83 ec 44	 sub	 esp, 68			; 00000044H
  00006	53		 push	 ebx
  00007	56		 push	 esi
  00008	57		 push	 edi
  00009	89 4d fc	 mov	 DWORD PTR _this$[ebp], ecx

; 647  : 		if (_Mysb::eback() != &_Mychar)

  0000c	8b 4d fc	 mov	 ecx, DWORD PTR _this$[ebp]
  0000f	e8 00 00 00 00	 call	 ?eback@?$basic_streambuf@DU?$char_traits@D@std@@@std@@IBEPADXZ ; std::basic_streambuf<char,std::char_traits<char> >::eback
  00014	8b 4d fc	 mov	 ecx, DWORD PTR _this$[ebp]
  00017	83 c1 48	 add	 ecx, 72			; 00000048H
  0001a	3b c1		 cmp	 eax, ecx
  0001c	74 1c		 je	 SHORT $LN1@Set_back

; 648  : 			{	// save current get buffer
; 649  : 			_Set_eback = _Mysb::eback();

  0001e	8b 4d fc	 mov	 ecx, DWORD PTR _this$[ebp]
  00021	e8 00 00 00 00	 call	 ?eback@?$basic_streambuf@DU?$char_traits@D@std@@@std@@IBEPADXZ ; std::basic_streambuf<char,std::char_traits<char> >::eback
  00026	8b 4d fc	 mov	 ecx, DWORD PTR _this$[ebp]
  00029	89 41 3c	 mov	 DWORD PTR [ecx+60], eax

; 650  : 			_Set_egptr = _Mysb::egptr();

  0002c	8b 4d fc	 mov	 ecx, DWORD PTR _this$[ebp]
  0002f	e8 00 00 00 00	 call	 ?egptr@?$basic_streambuf@DU?$char_traits@D@std@@@std@@IBEPADXZ ; std::basic_streambuf<char,std::char_traits<char> >::egptr
  00034	8b 4d fc	 mov	 ecx, DWORD PTR _this$[ebp]
  00037	89 41 40	 mov	 DWORD PTR [ecx+64], eax
$LN1@Set_back:

; 651  : 			}
; 652  : 		_Mysb::setg(&_Mychar, &_Mychar, &_Mychar + 1);

  0003a	8b 45 fc	 mov	 eax, DWORD PTR _this$[ebp]
  0003d	83 c0 49	 add	 eax, 73			; 00000049H
  00040	50		 push	 eax
  00041	8b 4d fc	 mov	 ecx, DWORD PTR _this$[ebp]
  00044	83 c1 48	 add	 ecx, 72			; 00000048H
  00047	51		 push	 ecx
  00048	8b 55 fc	 mov	 edx, DWORD PTR _this$[ebp]
  0004b	83 c2 48	 add	 edx, 72			; 00000048H
  0004e	52		 push	 edx
  0004f	8b 4d fc	 mov	 ecx, DWORD PTR _this$[ebp]
  00052	e8 00 00 00 00	 call	 ?setg@?$basic_streambuf@DU?$char_traits@D@std@@@std@@IAEXPAD00@Z ; std::basic_streambuf<char,std::char_traits<char> >::setg

; 653  : 		}

  00057	5f		 pop	 edi
  00058	5e		 pop	 esi
  00059	5b		 pop	 ebx
  0005a	8b e5		 mov	 esp, ebp
  0005c	5d		 pop	 ebp
  0005d	c3		 ret	 0
?_Set_back@?$basic_filebuf@DU?$char_traits@D@std@@@std@@AAEXXZ ENDP ; std::basic_filebuf<char,std::char_traits<char> >::_Set_back
; Function compile flags: /Odtp /ZI
; File d:\microsoft visual studio 10.0\vc\include\xlocale
_TEXT	ENDS
;	COMDAT ?in@?$codecvt@DDH@std@@QBEHAAHPBD1AAPBDPAD3AAPAD@Z
_TEXT	SEGMENT
_this$ = -4						; size = 4
__State$ = 8						; size = 4
__First1$ = 12						; size = 4
__Last1$ = 16						; size = 4
__Mid1$ = 20						; size = 4
__First2$ = 24						; size = 4
__Last2$ = 28						; size = 4
__Mid2$ = 32						; size = 4
?in@?$codecvt@DDH@std@@QBEHAAHPBD1AAPBDPAD3AAPAD@Z PROC	; std::codecvt<char,char,int>::in, COMDAT
; _this$ = ecx

; 808  : 		{	// convert bytes [_First1, _Last1) to [_First2, _Last)

  00000	55		 push	 ebp
  00001	8b ec		 mov	 ebp, esp
  00003	83 ec 44	 sub	 esp, 68			; 00000044H
  00006	53		 push	 ebx
  00007	56		 push	 esi
  00008	57		 push	 edi
  00009	89 4d fc	 mov	 DWORD PTR _this$[ebp], ecx

; 809  : 		return (do_in(_State,
; 810  : 			_First1, _Last1, _Mid1, _First2, _Last2, _Mid2));

  0000c	8b 45 20	 mov	 eax, DWORD PTR __Mid2$[ebp]
  0000f	50		 push	 eax
  00010	8b 4d 1c	 mov	 ecx, DWORD PTR __Last2$[ebp]
  00013	51		 push	 ecx
  00014	8b 55 18	 mov	 edx, DWORD PTR __First2$[ebp]
  00017	52		 push	 edx
  00018	8b 45 14	 mov	 eax, DWORD PTR __Mid1$[ebp]
  0001b	50		 push	 eax
  0001c	8b 4d 10	 mov	 ecx, DWORD PTR __Last1$[ebp]
  0001f	51		 push	 ecx
  00020	8b 55 0c	 mov	 edx, DWORD PTR __First1$[ebp]
  00023	52		 push	 edx
  00024	8b 45 08	 mov	 eax, DWORD PTR __State$[ebp]
  00027	50		 push	 eax
  00028	8b 4d fc	 mov	 ecx, DWORD PTR _this$[ebp]
  0002b	8b 11		 mov	 edx, DWORD PTR [ecx]
  0002d	8b 4d fc	 mov	 ecx, DWORD PTR _this$[ebp]
  00030	8b 42 10	 mov	 eax, DWORD PTR [edx+16]
  00033	ff d0		 call	 eax

; 811  : 		}

  00035	5f		 pop	 edi
  00036	5e		 pop	 esi
  00037	5b		 pop	 ebx
  00038	8b e5		 mov	 esp, ebp
  0003a	5d		 pop	 ebp
  0003b	c2 1c 00	 ret	 28			; 0000001cH
?in@?$codecvt@DDH@std@@QBEHAAHPBD1AAPBDPAD3AAPAD@Z ENDP	; std::codecvt<char,char,int>::in
; Function compile flags: /Odtp /ZI
_TEXT	ENDS
;	COMDAT ?out@?$codecvt@DDH@std@@QBEHAAHPBD1AAPBDPAD3AAPAD@Z
_TEXT	SEGMENT
_this$ = -4						; size = 4
__State$ = 8						; size = 4
__First1$ = 12						; size = 4
__Last1$ = 16						; size = 4
__Mid1$ = 20						; size = 4
__First2$ = 24						; size = 4
__Last2$ = 28						; size = 4
__Mid2$ = 32						; size = 4
?out@?$codecvt@DDH@std@@QBEHAAHPBD1AAPBDPAD3AAPAD@Z PROC ; std::codecvt<char,char,int>::out, COMDAT
; _this$ = ecx

; 816  : 		{	// convert [_First1, _Last1) to bytes [_First2, _Last2)

  00000	55		 push	 ebp
  00001	8b ec		 mov	 ebp, esp
  00003	83 ec 44	 sub	 esp, 68			; 00000044H
  00006	53		 push	 ebx
  00007	56		 push	 esi
  00008	57		 push	 edi
  00009	89 4d fc	 mov	 DWORD PTR _this$[ebp], ecx

; 817  : 		return (do_out(_State,
; 818  : 			_First1, _Last1, _Mid1, _First2, _Last2, _Mid2));

  0000c	8b 45 20	 mov	 eax, DWORD PTR __Mid2$[ebp]
  0000f	50		 push	 eax
  00010	8b 4d 1c	 mov	 ecx, DWORD PTR __Last2$[ebp]
  00013	51		 push	 ecx
  00014	8b 55 18	 mov	 edx, DWORD PTR __First2$[ebp]
  00017	52		 push	 edx
  00018	8b 45 14	 mov	 eax, DWORD PTR __Mid1$[ebp]
  0001b	50		 push	 eax
  0001c	8b 4d 10	 mov	 ecx, DWORD PTR __Last1$[ebp]
  0001f	51		 push	 ecx
  00020	8b 55 0c	 mov	 edx, DWORD PTR __First1$[ebp]
  00023	52		 push	 edx
  00024	8b 45 08	 mov	 eax, DWORD PTR __State$[ebp]
  00027	50		 push	 eax
  00028	8b 4d fc	 mov	 ecx, DWORD PTR _this$[ebp]
  0002b	8b 11		 mov	 edx, DWORD PTR [ecx]
  0002d	8b 4d fc	 mov	 ecx, DWORD PTR _this$[ebp]
  00030	8b 42 14	 mov	 eax, DWORD PTR [edx+20]
  00033	ff d0		 call	 eax

; 819  : 		}

  00035	5f		 pop	 edi
  00036	5e		 pop	 esi
  00037	5b		 pop	 ebx
  00038	8b e5		 mov	 esp, ebp
  0003a	5d		 pop	 ebp
  0003b	c2 1c 00	 ret	 28			; 0000001cH
?out@?$codecvt@DDH@std@@QBEHAAHPBD1AAPBDPAD3AAPAD@Z ENDP ; std::codecvt<char,char,int>::out
; Function compile flags: /Odtp /ZI
; File d:\microsoft visual studio 10.0\vc\include\xstring
_TEXT	ENDS
;	COMDAT ?assign@?$basic_string@DU?$char_traits@D@std@@V?$allocator@D@2@@std@@QAEAAV12@ID@Z
_TEXT	SEGMENT
_this$ = -4						; size = 4
__Count$ = 8						; size = 4
__Ch$ = 12						; size = 1
?assign@?$basic_string@DU?$char_traits@D@std@@V?$allocator@D@2@@std@@QAEAAV12@ID@Z PROC ; std::basic_string<char,std::char_traits<char>,std::allocator<char> >::assign, COMDAT
; _this$ = ecx

; 934  : 		{	// assign _Count * _Ch

  00000	55		 push	 ebp
  00001	8b ec		 mov	 ebp, esp
  00003	83 ec 44	 sub	 esp, 68			; 00000044H
  00006	53		 push	 ebx
  00007	56		 push	 esi
  00008	57		 push	 edi
  00009	89 4d fc	 mov	 DWORD PTR _this$[ebp], ecx

; 935  : 		if (_Count == npos)

  0000c	83 7d 08 ff	 cmp	 DWORD PTR __Count$[ebp], -1
  00010	75 08		 jne	 SHORT $LN2@assign

; 936  : 			_Xlen();	// result too long

  00012	8b 4d fc	 mov	 ecx, DWORD PTR _this$[ebp]
  00015	e8 00 00 00 00	 call	 ?_Xlen@?$basic_string@DU?$char_traits@D@std@@V?$allocator@D@2@@std@@QBEXXZ ; std::basic_string<char,std::char_traits<char>,std::allocator<char> >::_Xlen
$LN2@assign:

; 937  : 
; 938  : 		if (_Grow(_Count))

  0001a	6a 00		 push	 0
  0001c	8b 45 08	 mov	 eax, DWORD PTR __Count$[ebp]
  0001f	50		 push	 eax
  00020	8b 4d fc	 mov	 ecx, DWORD PTR _this$[ebp]
  00023	e8 00 00 00 00	 call	 ?_Grow@?$basic_string@DU?$char_traits@D@std@@V?$allocator@D@2@@std@@QAE_NI_N@Z ; std::basic_string<char,std::char_traits<char>,std::allocator<char> >::_Grow
  00028	0f b6 c8	 movzx	 ecx, al
  0002b	85 c9		 test	 ecx, ecx
  0002d	74 1f		 je	 SHORT $LN1@assign

; 939  : 			{	// make room and assign new stuff
; 940  : 			_Chassign(0, _Count, _Ch);

  0002f	0f b6 45 0c	 movzx	 eax, BYTE PTR __Ch$[ebp]
  00033	50		 push	 eax
  00034	8b 4d 08	 mov	 ecx, DWORD PTR __Count$[ebp]
  00037	51		 push	 ecx
  00038	6a 00		 push	 0
  0003a	8b 4d fc	 mov	 ecx, DWORD PTR _this$[ebp]
  0003d	e8 00 00 00 00	 call	 ?_Chassign@?$basic_string@DU?$char_traits@D@std@@V?$allocator@D@2@@std@@QAEXIID@Z ; std::basic_string<char,std::char_traits<char>,std::allocator<char> >::_Chassign

; 941  : 			_Eos(_Count);

  00042	8b 45 08	 mov	 eax, DWORD PTR __Count$[ebp]
  00045	50		 push	 eax
  00046	8b 4d fc	 mov	 ecx, DWORD PTR _this$[ebp]
  00049	e8 00 00 00 00	 call	 ?_Eos@?$basic_string@DU?$char_traits@D@std@@V?$allocator@D@2@@std@@QAEXI@Z ; std::basic_string<char,std::char_traits<char>,std::allocator<char> >::_Eos
$LN1@assign:

; 942  : 			}
; 943  : 		return (*this);

  0004e	8b 45 fc	 mov	 eax, DWORD PTR _this$[ebp]
$LN4@assign:

; 944  : 		}

  00051	5f		 pop	 edi
  00052	5e		 pop	 esi
  00053	5b		 pop	 ebx
  00054	8b e5		 mov	 esp, ebp
  00056	5d		 pop	 ebp
  00057	c2 08 00	 ret	 8
?assign@?$basic_string@DU?$char_traits@D@std@@V?$allocator@D@2@@std@@QAEAAV12@ID@Z ENDP ; std::basic_string<char,std::char_traits<char>,std::allocator<char> >::assign
_TEXT	ENDS
PUBLIC	?widen@?$basic_ios@DU?$char_traits@D@std@@@std@@QBEDD@Z ; std::basic_ios<char,std::char_traits<char> >::widen
PUBLIC	?_Init@ios_base@std@@IAEXXZ			; std::ios_base::_Init
EXTRN	?_Addstd@ios_base@std@@SAXPAV12@@Z:PROC		; std::ios_base::_Addstd
; Function compile flags: /Odtp /ZI
; File d:\microsoft visual studio 10.0\vc\include\ios
;	COMDAT ?init@?$basic_ios@DU?$char_traits@D@std@@@std@@IAEXPAV?$basic_streambuf@DU?$char_traits@D@std@@@2@_N@Z
_TEXT	SEGMENT
_this$ = -4						; size = 4
__Strbuf$ = 8						; size = 4
__Isstd$ = 12						; size = 1
?init@?$basic_ios@DU?$char_traits@D@std@@@std@@IAEXPAV?$basic_streambuf@DU?$char_traits@D@std@@@2@_N@Z PROC ; std::basic_ios<char,std::char_traits<char> >::init, COMDAT
; _this$ = ecx

; 154  : 		{	// initialize with stream buffer pointer

  00000	55		 push	 ebp
  00001	8b ec		 mov	 ebp, esp
  00003	83 ec 44	 sub	 esp, 68			; 00000044H
  00006	53		 push	 ebx
  00007	56		 push	 esi
  00008	57		 push	 edi
  00009	89 4d fc	 mov	 DWORD PTR _this$[ebp], ecx

; 155  : 		_Init();	// initialize ios_base

  0000c	8b 4d fc	 mov	 ecx, DWORD PTR _this$[ebp]
  0000f	e8 00 00 00 00	 call	 ?_Init@ios_base@std@@IAEXXZ ; std::ios_base::_Init

; 156  : 		_Mystrbuf = _Strbuf;

  00014	8b 45 fc	 mov	 eax, DWORD PTR _this$[ebp]
  00017	8b 4d 08	 mov	 ecx, DWORD PTR __Strbuf$[ebp]
  0001a	89 48 38	 mov	 DWORD PTR [eax+56], ecx

; 157  : 		_Tiestr = 0;

  0001d	8b 45 fc	 mov	 eax, DWORD PTR _this$[ebp]
  00020	c7 40 3c 00 00
	00 00		 mov	 DWORD PTR [eax+60], 0

; 158  : 		_Fillch = widen(' ');

  00027	6a 20		 push	 32			; 00000020H
  00029	8b 4d fc	 mov	 ecx, DWORD PTR _this$[ebp]
  0002c	e8 00 00 00 00	 call	 ?widen@?$basic_ios@DU?$char_traits@D@std@@@std@@QBEDD@Z ; std::basic_ios<char,std::char_traits<char> >::widen
  00031	8b 4d fc	 mov	 ecx, DWORD PTR _this$[ebp]
  00034	88 41 40	 mov	 BYTE PTR [ecx+64], al

; 159  : 
; 160  : 		if (_Mystrbuf == 0)

  00037	8b 45 fc	 mov	 eax, DWORD PTR _this$[ebp]
  0003a	83 78 38 00	 cmp	 DWORD PTR [eax+56], 0
  0003e	75 0c		 jne	 SHORT $LN2@init

; 161  : 			setstate(badbit);

  00040	6a 00		 push	 0
  00042	6a 04		 push	 4
  00044	8b 4d fc	 mov	 ecx, DWORD PTR _this$[ebp]
  00047	e8 00 00 00 00	 call	 ?setstate@?$basic_ios@DU?$char_traits@D@std@@@std@@QAEXH_N@Z ; std::basic_ios<char,std::char_traits<char> >::setstate
$LN2@init:

; 162  : 
; 163  : 		if (_Isstd)

  0004c	0f b6 45 0c	 movzx	 eax, BYTE PTR __Isstd$[ebp]
  00050	85 c0		 test	 eax, eax
  00052	74 0c		 je	 SHORT $LN3@init

; 164  : 			_Addstd(this);	// special handling for standard streams

  00054	8b 45 fc	 mov	 eax, DWORD PTR _this$[ebp]
  00057	50		 push	 eax
  00058	e8 00 00 00 00	 call	 ?_Addstd@ios_base@std@@SAXPAV12@@Z ; std::ios_base::_Addstd
  0005d	83 c4 04	 add	 esp, 4
$LN3@init:

; 165  : 		}

  00060	5f		 pop	 edi
  00061	5e		 pop	 esi
  00062	5b		 pop	 ebx
  00063	8b e5		 mov	 esp, ebp
  00065	5d		 pop	 ebp
  00066	c2 08 00	 ret	 8
?init@?$basic_ios@DU?$char_traits@D@std@@@std@@IAEXPAV?$basic_streambuf@DU?$char_traits@D@std@@@2@_N@Z ENDP ; std::basic_ios<char,std::char_traits<char> >::init
_TEXT	ENDS
PUBLIC	??0locale@std@@QAE@XZ				; std::locale::locale
PUBLIC	??_7?$basic_streambuf@DU?$char_traits@D@std@@@std@@6B@ ; std::basic_streambuf<char,std::char_traits<char> >::`vftable'
PUBLIC	??_R4?$basic_streambuf@DU?$char_traits@D@std@@@std@@6B@ ; std::basic_streambuf<char,std::char_traits<char> >::`RTTI Complete Object Locator'
PUBLIC	?_Lock@?$basic_streambuf@DU?$char_traits@D@std@@@std@@UAEXXZ ; std::basic_streambuf<char,std::char_traits<char> >::_Lock
PUBLIC	?_Unlock@?$basic_streambuf@DU?$char_traits@D@std@@@std@@UAEXXZ ; std::basic_streambuf<char,std::char_traits<char> >::_Unlock
PUBLIC	?overflow@?$basic_streambuf@DU?$char_traits@D@std@@@std@@MAEHH@Z ; std::basic_streambuf<char,std::char_traits<char> >::overflow
PUBLIC	?pbackfail@?$basic_streambuf@DU?$char_traits@D@std@@@std@@MAEHH@Z ; std::basic_streambuf<char,std::char_traits<char> >::pbackfail
PUBLIC	?underflow@?$basic_streambuf@DU?$char_traits@D@std@@@std@@MAEHXZ ; std::basic_streambuf<char,std::char_traits<char> >::underflow
PUBLIC	?uflow@?$basic_streambuf@DU?$char_traits@D@std@@@std@@MAEHXZ ; std::basic_streambuf<char,std::char_traits<char> >::uflow
PUBLIC	?seekoff@?$basic_streambuf@DU?$char_traits@D@std@@@std@@MAE?AV?$fpos@H@2@_JHH@Z ; std::basic_streambuf<char,std::char_traits<char> >::seekoff
PUBLIC	?seekpos@?$basic_streambuf@DU?$char_traits@D@std@@@std@@MAE?AV?$fpos@H@2@V32@H@Z ; std::basic_streambuf<char,std::char_traits<char> >::seekpos
PUBLIC	?setbuf@?$basic_streambuf@DU?$char_traits@D@std@@@std@@MAEPAV12@PAD_J@Z ; std::basic_streambuf<char,std::char_traits<char> >::setbuf
PUBLIC	?sync@?$basic_streambuf@DU?$char_traits@D@std@@@std@@MAEHXZ ; std::basic_streambuf<char,std::char_traits<char> >::sync
PUBLIC	?imbue@?$basic_streambuf@DU?$char_traits@D@std@@@std@@MAEXABVlocale@2@@Z ; std::basic_streambuf<char,std::char_traits<char> >::imbue
EXTRN	??1_Mutex@std@@QAE@XZ:PROC			; std::_Mutex::~_Mutex
EXTRN	??2@YAPAXI@Z:PROC				; operator new
EXTRN	??0_Mutex@std@@QAE@XZ:PROC			; std::_Mutex::_Mutex
EXTRN	??_E?$basic_streambuf@DU?$char_traits@D@std@@@std@@UAEPAXI@Z:PROC ; std::basic_streambuf<char,std::char_traits<char> >::`vector deleting destructor'
;	COMDAT ??_R4?$basic_streambuf@DU?$char_traits@D@std@@@std@@6B@
; File d:\microsoft visual studio 10.0\vc\include\streambuf
rdata$r	SEGMENT
??_R4?$basic_streambuf@DU?$char_traits@D@std@@@std@@6B@ DD 00H ; std::basic_streambuf<char,std::char_traits<char> >::`RTTI Complete Object Locator'
	DD	00H
	DD	00H
	DD	FLAT:??_R0?AV?$basic_streambuf@DU?$char_traits@D@std@@@std@@@8
	DD	FLAT:??_R3?$basic_streambuf@DU?$char_traits@D@std@@@std@@8
rdata$r	ENDS
;	COMDAT ??_7?$basic_streambuf@DU?$char_traits@D@std@@@std@@6B@
CONST	SEGMENT
??_7?$basic_streambuf@DU?$char_traits@D@std@@@std@@6B@ DD FLAT:??_R4?$basic_streambuf@DU?$char_traits@D@std@@@std@@6B@ ; std::basic_streambuf<char,std::char_traits<char> >::`vftable'
	DD	FLAT:??_E?$basic_streambuf@DU?$char_traits@D@std@@@std@@UAEPAXI@Z
	DD	FLAT:?_Lock@?$basic_streambuf@DU?$char_traits@D@std@@@std@@UAEXXZ
	DD	FLAT:?_Unlock@?$basic_streambuf@DU?$char_traits@D@std@@@std@@UAEXXZ
	DD	FLAT:?overflow@?$basic_streambuf@DU?$char_traits@D@std@@@std@@MAEHH@Z
	DD	FLAT:?pbackfail@?$basic_streambuf@DU?$char_traits@D@std@@@std@@MAEHH@Z
	DD	FLAT:?showmanyc@?$basic_streambuf@DU?$char_traits@D@std@@@std@@MAE_JXZ
	DD	FLAT:?underflow@?$basic_streambuf@DU?$char_traits@D@std@@@std@@MAEHXZ
	DD	FLAT:?uflow@?$basic_streambuf@DU?$char_traits@D@std@@@std@@MAEHXZ
	DD	FLAT:?xsgetn@?$basic_streambuf@DU?$char_traits@D@std@@@std@@MAE_JPAD_J@Z
	DD	FLAT:?xsputn@?$basic_streambuf@DU?$char_traits@D@std@@@std@@MAE_JPBD_J@Z
	DD	FLAT:?seekoff@?$basic_streambuf@DU?$char_traits@D@std@@@std@@MAE?AV?$fpos@H@2@_JHH@Z
	DD	FLAT:?seekpos@?$basic_streambuf@DU?$char_traits@D@std@@@std@@MAE?AV?$fpos@H@2@V32@H@Z
	DD	FLAT:?setbuf@?$basic_streambuf@DU?$char_traits@D@std@@@std@@MAEPAV12@PAD_J@Z
	DD	FLAT:?sync@?$basic_streambuf@DU?$char_traits@D@std@@@std@@MAEHXZ
	DD	FLAT:?imbue@?$basic_streambuf@DU?$char_traits@D@std@@@std@@MAEXABVlocale@2@@Z
CONST	ENDS
;	COMDAT xdata$x
xdata$x	SEGMENT
__unwindtable$??0?$basic_streambuf@DU?$char_traits@D@std@@@std@@IAE@XZ DD 0ffffffffH
	DD	FLAT:__unwindfunclet$??0?$basic_streambuf@DU?$char_traits@D@std@@@std@@IAE@XZ$0
__ehfuncinfo$??0?$basic_streambuf@DU?$char_traits@D@std@@@std@@IAE@XZ DD 019930522H
	DD	01H
	DD	FLAT:__unwindtable$??0?$basic_streambuf@DU?$char_traits@D@std@@@std@@IAE@XZ
	DD	2 DUP(00H)
	DD	2 DUP(00H)
	DD	00H
	DD	01H
; Function compile flags: /Odtp /ZI
xdata$x	ENDS
;	COMDAT ??0?$basic_streambuf@DU?$char_traits@D@std@@@std@@IAE@XZ
_TEXT	SEGMENT
tv75 = -88						; size = 4
$T226111 = -84						; size = 4
_this$ = -16						; size = 4
__$EHRec$ = -12						; size = 12
??0?$basic_streambuf@DU?$char_traits@D@std@@@std@@IAE@XZ PROC ; std::basic_streambuf<char,std::char_traits<char> >::basic_streambuf<char,std::char_traits<char> >, COMDAT
; _this$ = ecx

; 25   : 		{	// construct with no buffers

  00000	55		 push	 ebp
  00001	8b ec		 mov	 ebp, esp
  00003	6a ff		 push	 -1
  00005	68 00 00 00 00	 push	 __ehhandler$??0?$basic_streambuf@DU?$char_traits@D@std@@@std@@IAE@XZ
  0000a	64 a1 00 00 00
	00		 mov	 eax, DWORD PTR fs:0
  00010	50		 push	 eax
  00011	83 ec 4c	 sub	 esp, 76			; 0000004cH
  00014	53		 push	 ebx
  00015	56		 push	 esi
  00016	57		 push	 edi
  00017	a1 00 00 00 00	 mov	 eax, DWORD PTR ___security_cookie
  0001c	33 c5		 xor	 eax, ebp
  0001e	50		 push	 eax
  0001f	8d 45 f4	 lea	 eax, DWORD PTR __$EHRec$[ebp]
  00022	64 a3 00 00 00
	00		 mov	 DWORD PTR fs:0, eax
  00028	89 4d f0	 mov	 DWORD PTR _this$[ebp], ecx
  0002b	8b 45 f0	 mov	 eax, DWORD PTR _this$[ebp]
  0002e	c7 00 00 00 00
	00		 mov	 DWORD PTR [eax], OFFSET ??_7?$basic_streambuf@DU?$char_traits@D@std@@@std@@6B@
  00034	8b 4d f0	 mov	 ecx, DWORD PTR _this$[ebp]
  00037	83 c1 04	 add	 ecx, 4
  0003a	e8 00 00 00 00	 call	 ??0_Mutex@std@@QAE@XZ	; std::_Mutex::_Mutex
  0003f	c7 45 fc 00 00
	00 00		 mov	 DWORD PTR __$EHRec$[ebp+8], 0
  00046	6a 04		 push	 4
  00048	e8 00 00 00 00	 call	 ??2@YAPAXI@Z		; operator new
  0004d	83 c4 04	 add	 esp, 4
  00050	89 45 ac	 mov	 DWORD PTR $T226111[ebp], eax
  00053	83 7d ac 00	 cmp	 DWORD PTR $T226111[ebp], 0
  00057	74 0d		 je	 SHORT $LN3@basic_stre
  00059	8b 4d ac	 mov	 ecx, DWORD PTR $T226111[ebp]
  0005c	e8 00 00 00 00	 call	 ??0locale@std@@QAE@XZ	; std::locale::locale
  00061	89 45 a8	 mov	 DWORD PTR tv75[ebp], eax
  00064	eb 07		 jmp	 SHORT $LN4@basic_stre
$LN3@basic_stre:
  00066	c7 45 a8 00 00
	00 00		 mov	 DWORD PTR tv75[ebp], 0
$LN4@basic_stre:
  0006d	8b 45 f0	 mov	 eax, DWORD PTR _this$[ebp]
  00070	8b 4d a8	 mov	 ecx, DWORD PTR tv75[ebp]
  00073	89 48 38	 mov	 DWORD PTR [eax+56], ecx

; 26   : 		_Init();

  00076	8b 4d f0	 mov	 ecx, DWORD PTR _this$[ebp]
  00079	e8 00 00 00 00	 call	 ?_Init@?$basic_streambuf@DU?$char_traits@D@std@@@std@@IAEXXZ ; std::basic_streambuf<char,std::char_traits<char> >::_Init

; 27   : 		}

  0007e	c7 45 fc ff ff
	ff ff		 mov	 DWORD PTR __$EHRec$[ebp+8], -1
  00085	8b 45 f0	 mov	 eax, DWORD PTR _this$[ebp]
  00088	8b 4d f4	 mov	 ecx, DWORD PTR __$EHRec$[ebp]
  0008b	64 89 0d 00 00
	00 00		 mov	 DWORD PTR fs:0, ecx
  00092	59		 pop	 ecx
  00093	5f		 pop	 edi
  00094	5e		 pop	 esi
  00095	5b		 pop	 ebx
  00096	8b e5		 mov	 esp, ebp
  00098	5d		 pop	 ebp
  00099	c3		 ret	 0
_TEXT	ENDS
;	COMDAT text$x
text$x	SEGMENT
__unwindfunclet$??0?$basic_streambuf@DU?$char_traits@D@std@@@std@@IAE@XZ$0:
  00000	8b 4d f0	 mov	 ecx, DWORD PTR _this$[ebp]
  00003	83 c1 04	 add	 ecx, 4
  00006	e9 00 00 00 00	 jmp	 ??1_Mutex@std@@QAE@XZ	; std::_Mutex::~_Mutex
__ehhandler$??0?$basic_streambuf@DU?$char_traits@D@std@@@std@@IAE@XZ:
  0000b	8b 54 24 08	 mov	 edx, DWORD PTR [esp+8]
  0000f	8d 42 0c	 lea	 eax, DWORD PTR [edx+12]
  00012	8b 4a a4	 mov	 ecx, DWORD PTR [edx-92]
  00015	33 c8		 xor	 ecx, eax
  00017	e8 00 00 00 00	 call	 @__security_check_cookie@4
  0001c	b8 00 00 00 00	 mov	 eax, OFFSET __ehfuncinfo$??0?$basic_streambuf@DU?$char_traits@D@std@@@std@@IAE@XZ
  00021	e9 00 00 00 00	 jmp	 ___CxxFrameHandler3
text$x	ENDS
??0?$basic_streambuf@DU?$char_traits@D@std@@@std@@IAE@XZ ENDP ; std::basic_streambuf<char,std::char_traits<char> >::basic_streambuf<char,std::char_traits<char> >
PUBLIC	??0locale@std@@QAE@ABV01@@Z			; std::locale::locale
; Function compile flags: /Odtp /ZI
;	COMDAT ?getloc@?$basic_streambuf@DU?$char_traits@D@std@@@std@@QBE?AVlocale@2@XZ
_TEXT	SEGMENT
$T226124 = -72						; size = 4
_this$ = -4						; size = 4
___$ReturnUdt$ = 8					; size = 4
?getloc@?$basic_streambuf@DU?$char_traits@D@std@@@std@@QBE?AVlocale@2@XZ PROC ; std::basic_streambuf<char,std::char_traits<char> >::getloc, COMDAT
; _this$ = ecx

; 129  : 		{	// get locale

  00000	55		 push	 ebp
  00001	8b ec		 mov	 ebp, esp
  00003	83 ec 48	 sub	 esp, 72			; 00000048H
  00006	53		 push	 ebx
  00007	56		 push	 esi
  00008	57		 push	 edi
  00009	89 4d fc	 mov	 DWORD PTR _this$[ebp], ecx
  0000c	c7 45 b8 00 00
	00 00		 mov	 DWORD PTR $T226124[ebp], 0

; 130  : 		return (*_Plocale);

  00013	8b 45 fc	 mov	 eax, DWORD PTR _this$[ebp]
  00016	8b 48 38	 mov	 ecx, DWORD PTR [eax+56]
  00019	51		 push	 ecx
  0001a	8b 4d 08	 mov	 ecx, DWORD PTR ___$ReturnUdt$[ebp]
  0001d	e8 00 00 00 00	 call	 ??0locale@std@@QAE@ABV01@@Z ; std::locale::locale
  00022	8b 55 b8	 mov	 edx, DWORD PTR $T226124[ebp]
  00025	83 ca 01	 or	 edx, 1
  00028	89 55 b8	 mov	 DWORD PTR $T226124[ebp], edx
  0002b	8b 45 08	 mov	 eax, DWORD PTR ___$ReturnUdt$[ebp]

; 131  : 		}

  0002e	5f		 pop	 edi
  0002f	5e		 pop	 esi
  00030	5b		 pop	 ebx
  00031	8b e5		 mov	 esp, ebp
  00033	5d		 pop	 ebp
  00034	c2 04 00	 ret	 4
?getloc@?$basic_streambuf@DU?$char_traits@D@std@@@std@@QBE?AVlocale@2@XZ ENDP ; std::basic_streambuf<char,std::char_traits<char> >::getloc
; Function compile flags: /Odtp /ZI
_TEXT	ENDS
;	COMDAT ?setg@?$basic_streambuf@DU?$char_traits@D@std@@@std@@IAEXPAD00@Z
_TEXT	SEGMENT
_this$ = -4						; size = 4
__First$ = 8						; size = 4
__Next$ = 12						; size = 4
__Last$ = 16						; size = 4
?setg@?$basic_streambuf@DU?$char_traits@D@std@@@std@@IAEXPAD00@Z PROC ; std::basic_streambuf<char,std::char_traits<char> >::setg, COMDAT
; _this$ = ecx

; 248  : 		{	// set pointers for read buffer

  00000	55		 push	 ebp
  00001	8b ec		 mov	 ebp, esp
  00003	83 ec 44	 sub	 esp, 68			; 00000044H
  00006	53		 push	 ebx
  00007	56		 push	 esi
  00008	57		 push	 edi
  00009	89 4d fc	 mov	 DWORD PTR _this$[ebp], ecx

; 249  : 		*_IGfirst = _First;

  0000c	8b 45 fc	 mov	 eax, DWORD PTR _this$[ebp]
  0000f	8b 48 10	 mov	 ecx, DWORD PTR [eax+16]
  00012	8b 55 08	 mov	 edx, DWORD PTR __First$[ebp]
  00015	89 11		 mov	 DWORD PTR [ecx], edx

; 250  : 		*_IGnext = _Next;

  00017	8b 45 fc	 mov	 eax, DWORD PTR _this$[ebp]
  0001a	8b 48 20	 mov	 ecx, DWORD PTR [eax+32]
  0001d	8b 55 0c	 mov	 edx, DWORD PTR __Next$[ebp]
  00020	89 11		 mov	 DWORD PTR [ecx], edx

; 251  : 		*_IGcount = (int)(_Last - _Next);

  00022	8b 45 10	 mov	 eax, DWORD PTR __Last$[ebp]
  00025	2b 45 0c	 sub	 eax, DWORD PTR __Next$[ebp]
  00028	8b 4d fc	 mov	 ecx, DWORD PTR _this$[ebp]
  0002b	8b 51 30	 mov	 edx, DWORD PTR [ecx+48]
  0002e	89 02		 mov	 DWORD PTR [edx], eax

; 252  : 		}

  00030	5f		 pop	 edi
  00031	5e		 pop	 esi
  00032	5b		 pop	 ebx
  00033	8b e5		 mov	 esp, ebp
  00035	5d		 pop	 ebp
  00036	c2 0c 00	 ret	 12			; 0000000cH
?setg@?$basic_streambuf@DU?$char_traits@D@std@@@std@@IAEXPAD00@Z ENDP ; std::basic_streambuf<char,std::char_traits<char> >::setg
_TEXT	ENDS
PUBLIC	?setp@?$basic_streambuf@DU?$char_traits@D@std@@@std@@IAEXPAD0@Z ; std::basic_streambuf<char,std::char_traits<char> >::setp
; Function compile flags: /Odtp /ZI
;	COMDAT ?_Init@?$basic_streambuf@DU?$char_traits@D@std@@@std@@IAEXXZ
_TEXT	SEGMENT
_this$ = -4						; size = 4
?_Init@?$basic_streambuf@DU?$char_traits@D@std@@@std@@IAEXXZ PROC ; std::basic_streambuf<char,std::char_traits<char> >::_Init, COMDAT
; _this$ = ecx

; 314  : 		{	// initialize buffer parameters for no buffers

  00000	55		 push	 ebp
  00001	8b ec		 mov	 ebp, esp
  00003	83 ec 44	 sub	 esp, 68			; 00000044H
  00006	53		 push	 ebx
  00007	56		 push	 esi
  00008	57		 push	 edi
  00009	89 4d fc	 mov	 DWORD PTR _this$[ebp], ecx

; 315  : 		_IGfirst = &_Gfirst;

  0000c	8b 45 fc	 mov	 eax, DWORD PTR _this$[ebp]
  0000f	83 c0 08	 add	 eax, 8
  00012	8b 4d fc	 mov	 ecx, DWORD PTR _this$[ebp]
  00015	89 41 10	 mov	 DWORD PTR [ecx+16], eax

; 316  : 		_IPfirst = &_Pfirst;

  00018	8b 45 fc	 mov	 eax, DWORD PTR _this$[ebp]
  0001b	83 c0 0c	 add	 eax, 12			; 0000000cH
  0001e	8b 4d fc	 mov	 ecx, DWORD PTR _this$[ebp]
  00021	89 41 14	 mov	 DWORD PTR [ecx+20], eax

; 317  : 		_IGnext = &_Gnext;

  00024	8b 45 fc	 mov	 eax, DWORD PTR _this$[ebp]
  00027	83 c0 18	 add	 eax, 24			; 00000018H
  0002a	8b 4d fc	 mov	 ecx, DWORD PTR _this$[ebp]
  0002d	89 41 20	 mov	 DWORD PTR [ecx+32], eax

; 318  : 		_IPnext = &_Pnext;

  00030	8b 45 fc	 mov	 eax, DWORD PTR _this$[ebp]
  00033	83 c0 1c	 add	 eax, 28			; 0000001cH
  00036	8b 4d fc	 mov	 ecx, DWORD PTR _this$[ebp]
  00039	89 41 24	 mov	 DWORD PTR [ecx+36], eax

; 319  : 		_IGcount = &_Gcount;

  0003c	8b 45 fc	 mov	 eax, DWORD PTR _this$[ebp]
  0003f	83 c0 28	 add	 eax, 40			; 00000028H
  00042	8b 4d fc	 mov	 ecx, DWORD PTR _this$[ebp]
  00045	89 41 30	 mov	 DWORD PTR [ecx+48], eax

; 320  : 		_IPcount = &_Pcount;

  00048	8b 45 fc	 mov	 eax, DWORD PTR _this$[ebp]
  0004b	83 c0 2c	 add	 eax, 44			; 0000002cH
  0004e	8b 4d fc	 mov	 ecx, DWORD PTR _this$[ebp]
  00051	89 41 34	 mov	 DWORD PTR [ecx+52], eax

; 321  : 		setp(0, 0);

  00054	6a 00		 push	 0
  00056	6a 00		 push	 0
  00058	8b 4d fc	 mov	 ecx, DWORD PTR _this$[ebp]
  0005b	e8 00 00 00 00	 call	 ?setp@?$basic_streambuf@DU?$char_traits@D@std@@@std@@IAEXPAD0@Z ; std::basic_streambuf<char,std::char_traits<char> >::setp

; 322  : 		setg(0, 0, 0);

  00060	6a 00		 push	 0
  00062	6a 00		 push	 0
  00064	6a 00		 push	 0
  00066	8b 4d fc	 mov	 ecx, DWORD PTR _this$[ebp]
  00069	e8 00 00 00 00	 call	 ?setg@?$basic_streambuf@DU?$char_traits@D@std@@@std@@IAEXPAD00@Z ; std::basic_streambuf<char,std::char_traits<char> >::setg

; 323  : 		}

  0006e	5f		 pop	 edi
  0006f	5e		 pop	 esi
  00070	5b		 pop	 ebx
  00071	8b e5		 mov	 esp, ebp
  00073	5d		 pop	 ebp
  00074	c3		 ret	 0
?_Init@?$basic_streambuf@DU?$char_traits@D@std@@@std@@IAEXXZ ENDP ; std::basic_streambuf<char,std::char_traits<char> >::_Init
; Function compile flags: /Odtp /ZI
_TEXT	ENDS
;	COMDAT ?_Init@?$basic_streambuf@DU?$char_traits@D@std@@@std@@IAEXPAPAD0PAH001@Z
_TEXT	SEGMENT
_this$ = -4						; size = 4
__Gf$ = 8						; size = 4
__Gn$ = 12						; size = 4
__Gc$ = 16						; size = 4
__Pf$ = 20						; size = 4
__Pn$ = 24						; size = 4
__Pc$ = 28						; size = 4
?_Init@?$basic_streambuf@DU?$char_traits@D@std@@@std@@IAEXPAPAD0PAH001@Z PROC ; std::basic_streambuf<char,std::char_traits<char> >::_Init, COMDAT
; _this$ = ecx

; 327  : 		{	// initialize buffer parameters as specified

  00000	55		 push	 ebp
  00001	8b ec		 mov	 ebp, esp
  00003	83 ec 44	 sub	 esp, 68			; 00000044H
  00006	53		 push	 ebx
  00007	56		 push	 esi
  00008	57		 push	 edi
  00009	89 4d fc	 mov	 DWORD PTR _this$[ebp], ecx

; 328  : 		_IGfirst = _Gf;

  0000c	8b 45 fc	 mov	 eax, DWORD PTR _this$[ebp]
  0000f	8b 4d 08	 mov	 ecx, DWORD PTR __Gf$[ebp]
  00012	89 48 10	 mov	 DWORD PTR [eax+16], ecx

; 329  : 		_IPfirst = _Pf;

  00015	8b 45 fc	 mov	 eax, DWORD PTR _this$[ebp]
  00018	8b 4d 14	 mov	 ecx, DWORD PTR __Pf$[ebp]
  0001b	89 48 14	 mov	 DWORD PTR [eax+20], ecx

; 330  : 		_IGnext = _Gn;

  0001e	8b 45 fc	 mov	 eax, DWORD PTR _this$[ebp]
  00021	8b 4d 0c	 mov	 ecx, DWORD PTR __Gn$[ebp]
  00024	89 48 20	 mov	 DWORD PTR [eax+32], ecx

; 331  : 		_IPnext = _Pn;

  00027	8b 45 fc	 mov	 eax, DWORD PTR _this$[ebp]
  0002a	8b 4d 18	 mov	 ecx, DWORD PTR __Pn$[ebp]
  0002d	89 48 24	 mov	 DWORD PTR [eax+36], ecx

; 332  : 		_IGcount = _Gc;

  00030	8b 45 fc	 mov	 eax, DWORD PTR _this$[ebp]
  00033	8b 4d 10	 mov	 ecx, DWORD PTR __Gc$[ebp]
  00036	89 48 30	 mov	 DWORD PTR [eax+48], ecx

; 333  : 		_IPcount = _Pc;

  00039	8b 45 fc	 mov	 eax, DWORD PTR _this$[ebp]
  0003c	8b 4d 1c	 mov	 ecx, DWORD PTR __Pc$[ebp]
  0003f	89 48 34	 mov	 DWORD PTR [eax+52], ecx

; 334  : 		}

  00042	5f		 pop	 edi
  00043	5e		 pop	 esi
  00044	5b		 pop	 ebx
  00045	8b e5		 mov	 esp, ebp
  00047	5d		 pop	 ebp
  00048	c2 18 00	 ret	 24			; 00000018H
?_Init@?$basic_streambuf@DU?$char_traits@D@std@@@std@@IAEXPAPAD0PAH001@Z ENDP ; std::basic_streambuf<char,std::char_traits<char> >::_Init
; Function compile flags: /Odtp /ZI
; File d:\microsoft visual studio 10.0\vc\include\xstring
_TEXT	ENDS
;	COMDAT ??D?$_String_const_iterator@DU?$char_traits@D@std@@V?$allocator@D@2@@std@@QBEABDXZ
_TEXT	SEGMENT
_this$ = -4						; size = 4
??D?$_String_const_iterator@DU?$char_traits@D@std@@V?$allocator@D@2@@std@@QBEABDXZ PROC ; std::_String_const_iterator<char,std::char_traits<char>,std::allocator<char> >::operator*, COMDAT
; _this$ = ecx

; 70   : 		{	// return designated object

  00000	55		 push	 ebp
  00001	8b ec		 mov	 ebp, esp
  00003	83 ec 44	 sub	 esp, 68			; 00000044H
  00006	53		 push	 ebx
  00007	56		 push	 esi
  00008	57		 push	 edi
  00009	89 4d fc	 mov	 DWORD PTR _this$[ebp], ecx
$LN2@operator:

; 71   :  #if _ITERATOR_DEBUG_LEVEL == 2
; 72   : 		if (this->_Getcont() == 0
; 73   : 			|| this->_Ptr == 0
; 74   : 			|| this->_Ptr < ((_Mystr *)this->_Getcont())->_Myptr()
; 75   : 			|| ((_Mystr *)this->_Getcont())->_Myptr()
; 76   : 				+ ((_Mystr *)this->_Getcont())->_Mysize <= this->_Ptr)
; 77   : 			{	// report error
; 78   : 			_DEBUG_ERROR("string iterator not dereferencable");
; 79   : 			_SCL_SECURE_OUT_OF_RANGE;
; 80   : 			}
; 81   : 
; 82   :  #elif _ITERATOR_DEBUG_LEVEL == 1
; 83   : 		_SCL_SECURE_VALIDATE(this->_Getcont() != 0 && this->_Ptr != 0);
; 84   : 		_SCL_SECURE_VALIDATE_RANGE(
; 85   : 			((_Mystr *)this->_Getcont())->_Myptr() <= this->_Ptr
; 86   : 			&& this->_Ptr < ((_Mystr *)this->_Getcont())->_Myptr()
; 87   : 				+ ((_Mystr *)this->_Getcont())->_Mysize);
; 88   :  #endif /* _ITERATOR_DEBUG_LEVEL */
; 89   : 
; 90   : 		__analysis_assume(this->_Ptr != 0);

  0000c	33 c0		 xor	 eax, eax
  0000e	75 fc		 jne	 SHORT $LN2@operator

; 91   : 
; 92   : 		return (*this->_Ptr);

  00010	8b 45 fc	 mov	 eax, DWORD PTR _this$[ebp]
  00013	8b 00		 mov	 eax, DWORD PTR [eax]

; 93   : 		}

  00015	5f		 pop	 edi
  00016	5e		 pop	 esi
  00017	5b		 pop	 ebx
  00018	8b e5		 mov	 esp, ebp
  0001a	5d		 pop	 ebp
  0001b	c3		 ret	 0
??D?$_String_const_iterator@DU?$char_traits@D@std@@V?$allocator@D@2@@std@@QBEABDXZ ENDP ; std::_String_const_iterator<char,std::char_traits<char>,std::allocator<char> >::operator*
; Function compile flags: /Odtp /ZI
; File d:\microsoft visual studio 10.0\vc\include\xlocale
_TEXT	ENDS
;	COMDAT ?unshift@?$codecvt@DDH@std@@QBEHAAHPAD1AAPAD@Z
_TEXT	SEGMENT
_this$ = -4						; size = 4
__State$ = 8						; size = 4
__First2$ = 12						; size = 4
__Last2$ = 16						; size = 4
__Mid2$ = 20						; size = 4
?unshift@?$codecvt@DDH@std@@QBEHAAHPAD1AAPAD@Z PROC	; std::codecvt<char,char,int>::unshift, COMDAT
; _this$ = ecx

; 823  : 		{	// generate bytes to return to default shift state

  00000	55		 push	 ebp
  00001	8b ec		 mov	 ebp, esp
  00003	83 ec 44	 sub	 esp, 68			; 00000044H
  00006	53		 push	 ebx
  00007	56		 push	 esi
  00008	57		 push	 edi
  00009	89 4d fc	 mov	 DWORD PTR _this$[ebp], ecx

; 824  : 		return (do_unshift(_State, _First2, _Last2, _Mid2));

  0000c	8b 45 14	 mov	 eax, DWORD PTR __Mid2$[ebp]
  0000f	50		 push	 eax
  00010	8b 4d 10	 mov	 ecx, DWORD PTR __Last2$[ebp]
  00013	51		 push	 ecx
  00014	8b 55 0c	 mov	 edx, DWORD PTR __First2$[ebp]
  00017	52		 push	 edx
  00018	8b 45 08	 mov	 eax, DWORD PTR __State$[ebp]
  0001b	50		 push	 eax
  0001c	8b 4d fc	 mov	 ecx, DWORD PTR _this$[ebp]
  0001f	8b 11		 mov	 edx, DWORD PTR [ecx]
  00021	8b 4d fc	 mov	 ecx, DWORD PTR _this$[ebp]
  00024	8b 42 18	 mov	 eax, DWORD PTR [edx+24]
  00027	ff d0		 call	 eax

; 825  : 		}

  00029	5f		 pop	 edi
  0002a	5e		 pop	 esi
  0002b	5b		 pop	 ebx
  0002c	8b e5		 mov	 esp, ebp
  0002e	5d		 pop	 ebp
  0002f	c2 10 00	 ret	 16			; 00000010H
?unshift@?$codecvt@DDH@std@@QBEHAAHPAD1AAPAD@Z ENDP	; std::codecvt<char,char,int>::unshift
_TEXT	ENDS
PUBLIC	?widen@?$ctype@D@std@@QBEDD@Z			; std::ctype<char>::widen
PUBLIC	??$use_facet@V?$ctype@D@std@@@std@@YAABV?$ctype@D@0@ABVlocale@0@@Z ; std::use_facet<std::ctype<char> >
PUBLIC	?getloc@ios_base@std@@QBE?AVlocale@2@XZ		; std::ios_base::getloc
;	COMDAT xdata$x
; File d:\microsoft visual studio 10.0\vc\include\ios
xdata$x	SEGMENT
__unwindtable$?widen@?$basic_ios@DU?$char_traits@D@std@@@std@@QBEDD@Z DD 0ffffffffH
	DD	FLAT:__unwindfunclet$?widen@?$basic_ios@DU?$char_traits@D@std@@@std@@QBEDD@Z$0
__ehfuncinfo$?widen@?$basic_ios@DU?$char_traits@D@std@@@std@@QBEDD@Z DD 019930522H
	DD	01H
	DD	FLAT:__unwindtable$?widen@?$basic_ios@DU?$char_traits@D@std@@@std@@QBEDD@Z
	DD	2 DUP(00H)
	DD	2 DUP(00H)
	DD	00H
	DD	01H
; Function compile flags: /Odtp /ZI
xdata$x	ENDS
;	COMDAT ?widen@?$basic_ios@DU?$char_traits@D@std@@@std@@QBEDD@Z
_TEXT	SEGMENT
tv79 = -96						; size = 4
tv80 = -92						; size = 4
$T226138 = -88						; size = 4
__Ctype_fac$ = -20					; size = 4
_this$ = -16						; size = 4
__$EHRec$ = -12						; size = 12
__Byte$ = 8						; size = 1
?widen@?$basic_ios@DU?$char_traits@D@std@@@std@@QBEDD@Z PROC ; std::basic_ios<char,std::char_traits<char> >::widen, COMDAT
; _this$ = ecx

; 124  : 		{	// convert _Byte to character using imbued locale

  00000	55		 push	 ebp
  00001	8b ec		 mov	 ebp, esp
  00003	6a ff		 push	 -1
  00005	68 00 00 00 00	 push	 __ehhandler$?widen@?$basic_ios@DU?$char_traits@D@std@@@std@@QBEDD@Z
  0000a	64 a1 00 00 00
	00		 mov	 eax, DWORD PTR fs:0
  00010	50		 push	 eax
  00011	83 ec 54	 sub	 esp, 84			; 00000054H
  00014	53		 push	 ebx
  00015	56		 push	 esi
  00016	57		 push	 edi
  00017	a1 00 00 00 00	 mov	 eax, DWORD PTR ___security_cookie
  0001c	33 c5		 xor	 eax, ebp
  0001e	50		 push	 eax
  0001f	8d 45 f4	 lea	 eax, DWORD PTR __$EHRec$[ebp]
  00022	64 a3 00 00 00
	00		 mov	 DWORD PTR fs:0, eax
  00028	89 4d f0	 mov	 DWORD PTR _this$[ebp], ecx

; 125  : 		const _Ctype& _Ctype_fac = _USE(getloc(), _Ctype);

  0002b	8d 45 a8	 lea	 eax, DWORD PTR $T226138[ebp]
  0002e	50		 push	 eax
  0002f	8b 4d f0	 mov	 ecx, DWORD PTR _this$[ebp]
  00032	e8 00 00 00 00	 call	 ?getloc@ios_base@std@@QBE?AVlocale@2@XZ ; std::ios_base::getloc
  00037	89 45 a4	 mov	 DWORD PTR tv80[ebp], eax
  0003a	8b 4d a4	 mov	 ecx, DWORD PTR tv80[ebp]
  0003d	89 4d a0	 mov	 DWORD PTR tv79[ebp], ecx
  00040	c7 45 fc 00 00
	00 00		 mov	 DWORD PTR __$EHRec$[ebp+8], 0
  00047	8b 55 a0	 mov	 edx, DWORD PTR tv79[ebp]
  0004a	52		 push	 edx
  0004b	e8 00 00 00 00	 call	 ??$use_facet@V?$ctype@D@std@@@std@@YAABV?$ctype@D@0@ABVlocale@0@@Z ; std::use_facet<std::ctype<char> >
  00050	83 c4 04	 add	 esp, 4
  00053	89 45 ec	 mov	 DWORD PTR __Ctype_fac$[ebp], eax
  00056	c7 45 fc ff ff
	ff ff		 mov	 DWORD PTR __$EHRec$[ebp+8], -1
  0005d	8d 4d a8	 lea	 ecx, DWORD PTR $T226138[ebp]
  00060	e8 00 00 00 00	 call	 ??1locale@std@@QAE@XZ	; std::locale::~locale

; 126  : 		return (_Ctype_fac.widen(_Byte));

  00065	0f b6 45 08	 movzx	 eax, BYTE PTR __Byte$[ebp]
  00069	50		 push	 eax
  0006a	8b 4d ec	 mov	 ecx, DWORD PTR __Ctype_fac$[ebp]
  0006d	e8 00 00 00 00	 call	 ?widen@?$ctype@D@std@@QBEDD@Z ; std::ctype<char>::widen

; 127  : 		}

  00072	8b 4d f4	 mov	 ecx, DWORD PTR __$EHRec$[ebp]
  00075	64 89 0d 00 00
	00 00		 mov	 DWORD PTR fs:0, ecx
  0007c	59		 pop	 ecx
  0007d	5f		 pop	 edi
  0007e	5e		 pop	 esi
  0007f	5b		 pop	 ebx
  00080	8b e5		 mov	 esp, ebp
  00082	5d		 pop	 ebp
  00083	c2 04 00	 ret	 4
_TEXT	ENDS
;	COMDAT text$x
text$x	SEGMENT
__unwindfunclet$?widen@?$basic_ios@DU?$char_traits@D@std@@@std@@QBEDD@Z$0:
  00000	8d 4d a8	 lea	 ecx, DWORD PTR $T226138[ebp]
  00003	e9 00 00 00 00	 jmp	 ??1locale@std@@QAE@XZ	; std::locale::~locale
__ehhandler$?widen@?$basic_ios@DU?$char_traits@D@std@@@std@@QBEDD@Z:
  00008	8b 54 24 08	 mov	 edx, DWORD PTR [esp+8]
  0000c	8d 42 0c	 lea	 eax, DWORD PTR [edx+12]
  0000f	8b 4a 9c	 mov	 ecx, DWORD PTR [edx-100]
  00012	33 c8		 xor	 ecx, eax
  00014	e8 00 00 00 00	 call	 @__security_check_cookie@4
  00019	b8 00 00 00 00	 mov	 eax, OFFSET __ehfuncinfo$?widen@?$basic_ios@DU?$char_traits@D@std@@@std@@QBEDD@Z
  0001e	e9 00 00 00 00	 jmp	 ___CxxFrameHandler3
text$x	ENDS
?widen@?$basic_ios@DU?$char_traits@D@std@@@std@@QBEDD@Z ENDP ; std::basic_ios<char,std::char_traits<char> >::widen
; Function compile flags: /Odtp /ZI
; File d:\microsoft visual studio 10.0\vc\include\streambuf
;	COMDAT ?setp@?$basic_streambuf@DU?$char_traits@D@std@@@std@@IAEXPAD0@Z
_TEXT	SEGMENT
_this$ = -4						; size = 4
__First$ = 8						; size = 4
__Last$ = 12						; size = 4
?setp@?$basic_streambuf@DU?$char_traits@D@std@@@std@@IAEXPAD0@Z PROC ; std::basic_streambuf<char,std::char_traits<char> >::setp, COMDAT
; _this$ = ecx

; 289  : 		{	// set pointers for write buffer

  00000	55		 push	 ebp
  00001	8b ec		 mov	 ebp, esp
  00003	83 ec 44	 sub	 esp, 68			; 00000044H
  00006	53		 push	 ebx
  00007	56		 push	 esi
  00008	57		 push	 edi
  00009	89 4d fc	 mov	 DWORD PTR _this$[ebp], ecx

; 290  : 		*_IPfirst = _First;

  0000c	8b 45 fc	 mov	 eax, DWORD PTR _this$[ebp]
  0000f	8b 48 14	 mov	 ecx, DWORD PTR [eax+20]
  00012	8b 55 08	 mov	 edx, DWORD PTR __First$[ebp]
  00015	89 11		 mov	 DWORD PTR [ecx], edx

; 291  : 		*_IPnext = _First;

  00017	8b 45 fc	 mov	 eax, DWORD PTR _this$[ebp]
  0001a	8b 48 24	 mov	 ecx, DWORD PTR [eax+36]
  0001d	8b 55 08	 mov	 edx, DWORD PTR __First$[ebp]
  00020	89 11		 mov	 DWORD PTR [ecx], edx

; 292  : 		*_IPcount = (int)(_Last - _First);

  00022	8b 45 0c	 mov	 eax, DWORD PTR __Last$[ebp]
  00025	2b 45 08	 sub	 eax, DWORD PTR __First$[ebp]
  00028	8b 4d fc	 mov	 ecx, DWORD PTR _this$[ebp]
  0002b	8b 51 34	 mov	 edx, DWORD PTR [ecx+52]
  0002e	89 02		 mov	 DWORD PTR [edx], eax

; 293  : 		}

  00030	5f		 pop	 edi
  00031	5e		 pop	 esi
  00032	5b		 pop	 ebx
  00033	8b e5		 mov	 esp, ebp
  00035	5d		 pop	 ebp
  00036	c2 08 00	 ret	 8
?setp@?$basic_streambuf@DU?$char_traits@D@std@@@std@@IAEXPAD0@Z ENDP ; std::basic_streambuf<char,std::char_traits<char> >::setp
_TEXT	ENDS
PUBLIC	??1sentry@?$basic_ostream@DU?$char_traits@D@std@@@std@@QAE@XZ ; std::basic_ostream<char,std::char_traits<char> >::sentry::~sentry
PUBLIC	?width@ios_base@std@@QAE_J_J@Z			; std::ios_base::width
PUBLIC	?sputn@?$basic_streambuf@DU?$char_traits@D@std@@@std@@QAE_JPBD_J@Z ; std::basic_streambuf<char,std::char_traits<char> >::sputn
PUBLIC	?sputc@?$basic_streambuf@DU?$char_traits@D@std@@@std@@QAEHD@Z ; std::basic_streambuf<char,std::char_traits<char> >::sputc
PUBLIC	?rdbuf@?$basic_ios@DU?$char_traits@D@std@@@std@@QBEPAV?$basic_streambuf@DU?$char_traits@D@std@@@2@XZ ; std::basic_ios<char,std::char_traits<char> >::rdbuf
PUBLIC	?fill@?$basic_ios@DU?$char_traits@D@std@@@std@@QBEDXZ ; std::basic_ios<char,std::char_traits<char> >::fill
PUBLIC	?flags@ios_base@std@@QBEHXZ			; std::ios_base::flags
PUBLIC	??Bsentry@?$basic_ostream@DU?$char_traits@D@std@@@std@@QBEPQ_Bool_struct@2@HXZ ; std::basic_ostream<char,std::char_traits<char> >::sentry::operator int std::_Bool_struct::*
PUBLIC	??0sentry@?$basic_ostream@DU?$char_traits@D@std@@@std@@QAE@AAV12@@Z ; std::basic_ostream<char,std::char_traits<char> >::sentry::sentry
PUBLIC	?width@ios_base@std@@QBE_JXZ			; std::ios_base::width
PUBLIC	?length@?$char_traits@D@std@@SAIPBD@Z		; std::char_traits<char>::length
;	COMDAT xdata$x
; File d:\microsoft visual studio 10.0\vc\include\ostream
xdata$x	SEGMENT
__catchsym$??$?6U?$char_traits@D@std@@@std@@YAAAV?$basic_ostream@DU?$char_traits@D@std@@@0@AAV10@PBD@Z$3 DD 040H
	DD	00H
	DD	00H
	DD	FLAT:__catch$??$?6U?$char_traits@D@std@@@std@@YAAAV?$basic_ostream@DU?$char_traits@D@std@@@0@AAV10@PBD@Z$0
__tryblocktable$??$?6U?$char_traits@D@std@@@std@@YAAAV?$basic_ostream@DU?$char_traits@D@std@@@0@AAV10@PBD@Z DD 01H
	DD	01H
	DD	02H
	DD	01H
	DD	FLAT:__catchsym$??$?6U?$char_traits@D@std@@@std@@YAAAV?$basic_ostream@DU?$char_traits@D@std@@@0@AAV10@PBD@Z$3
__unwindtable$??$?6U?$char_traits@D@std@@@std@@YAAAV?$basic_ostream@DU?$char_traits@D@std@@@0@AAV10@PBD@Z DD 0ffffffffH
	DD	FLAT:__unwindfunclet$??$?6U?$char_traits@D@std@@@std@@YAAAV?$basic_ostream@DU?$char_traits@D@std@@@0@AAV10@PBD@Z$2
	DD	00H
	DD	00H
	DD	00H
	DD	00H
__ehfuncinfo$??$?6U?$char_traits@D@std@@@std@@YAAAV?$basic_ostream@DU?$char_traits@D@std@@@0@AAV10@PBD@Z DD 019930522H
	DD	03H
	DD	FLAT:__unwindtable$??$?6U?$char_traits@D@std@@@std@@YAAAV?$basic_ostream@DU?$char_traits@D@std@@@0@AAV10@PBD@Z
	DD	01H
	DD	FLAT:__tryblocktable$??$?6U?$char_traits@D@std@@@std@@YAAAV?$basic_ostream@DU?$char_traits@D@std@@@0@AAV10@PBD@Z
	DD	2 DUP(00H)
	DD	00H
	DD	01H
; Function compile flags: /Odtp /ZI
xdata$x	ENDS
;	COMDAT ??$?6U?$char_traits@D@std@@@std@@YAAAV?$basic_ostream@DU?$char_traits@D@std@@@0@AAV10@PBD@Z
_TEXT	SEGMENT
tv135 = -152						; size = 8
tv293 = -145						; size = 1
tv286 = -145						; size = 1
tv341 = -144						; size = 8
tv292 = -144						; size = 4
tv285 = -144						; size = 4
tv291 = -140						; size = 4
tv288 = -140						; size = 8
tv284 = -140						; size = 4
tv329 = -136						; size = 8
tv290 = -136						; size = 4
tv283 = -136						; size = 4
tv287 = -132						; size = 4
tv137 = -132						; size = 4
tv289 = -129						; size = 1
tv282 = -129						; size = 1
$T226152 = -128						; size = 4
$T226153 = -124						; size = 4
$T226154 = -120						; size = 4
$T226155 = -116						; size = 4
$T226156 = -112						; size = 4
__Ok$ = -44						; size = 8
__Pad$ = -36						; size = 8
__Count$ = -28						; size = 8
__State$ = -20						; size = 4
__$EHRec$ = -16						; size = 16
__Ostr$ = 8						; size = 4
__Val$ = 12						; size = 4
??$?6U?$char_traits@D@std@@@std@@YAAAV?$basic_ostream@DU?$char_traits@D@std@@@0@AAV10@PBD@Z PROC ; std::operator<<<std::char_traits<char> >, COMDAT

; 767  : 	{	// insert NTBS into char stream

  00000	55		 push	 ebp
  00001	8b ec		 mov	 ebp, esp
  00003	6a ff		 push	 -1
  00005	68 00 00 00 00	 push	 __ehhandler$??$?6U?$char_traits@D@std@@@std@@YAAAV?$basic_ostream@DU?$char_traits@D@std@@@0@AAV10@PBD@Z
  0000a	64 a1 00 00 00
	00		 mov	 eax, DWORD PTR fs:0
  00010	50		 push	 eax
  00011	51		 push	 ecx
  00012	81 ec 88 00 00
	00		 sub	 esp, 136		; 00000088H
  00018	53		 push	 ebx
  00019	56		 push	 esi
  0001a	57		 push	 edi
  0001b	a1 00 00 00 00	 mov	 eax, DWORD PTR ___security_cookie
  00020	33 c5		 xor	 eax, ebp
  00022	50		 push	 eax
  00023	8d 45 f4	 lea	 eax, DWORD PTR __$EHRec$[ebp+4]
  00026	64 a3 00 00 00
	00		 mov	 DWORD PTR fs:0, eax
  0002c	89 65 f0	 mov	 DWORD PTR __$EHRec$[ebp], esp

; 768  : 	typedef char _Elem;
; 769  : 	typedef basic_ostream<_Elem, _Traits> _Myos;
; 770  : 	ios_base::iostate _State = ios_base::goodbit;

  0002f	c7 45 ec 00 00
	00 00		 mov	 DWORD PTR __State$[ebp], 0

; 771  : 	streamsize _Count = (streamsize)_Traits::length(_Val);	// may overflow

  00036	8b 45 0c	 mov	 eax, DWORD PTR __Val$[ebp]
  00039	50		 push	 eax
  0003a	e8 00 00 00 00	 call	 ?length@?$char_traits@D@std@@SAIPBD@Z ; std::char_traits<char>::length
  0003f	83 c4 04	 add	 esp, 4
  00042	33 c9		 xor	 ecx, ecx
  00044	89 45 e4	 mov	 DWORD PTR __Count$[ebp], eax
  00047	89 4d e8	 mov	 DWORD PTR __Count$[ebp+4], ecx

; 772  : 	streamsize _Pad = _Ostr.width() <= 0 || _Ostr.width() <= _Count
; 773  : 		? 0 : _Ostr.width() - _Count;

  0004a	8b 45 08	 mov	 eax, DWORD PTR __Ostr$[ebp]
  0004d	8b 08		 mov	 ecx, DWORD PTR [eax]
  0004f	8b 55 08	 mov	 edx, DWORD PTR __Ostr$[ebp]
  00052	03 51 04	 add	 edx, DWORD PTR [ecx+4]
  00055	8b ca		 mov	 ecx, edx
  00057	e8 00 00 00 00	 call	 ?width@ios_base@std@@QBE_JXZ ; std::ios_base::width
  0005c	89 85 78 ff ff
	ff		 mov	 DWORD PTR tv329[ebp], eax
  00062	89 95 7c ff ff
	ff		 mov	 DWORD PTR tv329[ebp+4], edx
  00068	83 bd 7c ff ff
	ff 00		 cmp	 DWORD PTR tv329[ebp+4], 0
  0006f	7c 65		 jl	 SHORT $LN17@operator@2
  00071	7f 09		 jg	 SHORT $LN25@operator@2
  00073	83 bd 78 ff ff
	ff 00		 cmp	 DWORD PTR tv329[ebp], 0
  0007a	76 5a		 jbe	 SHORT $LN17@operator@2
$LN25@operator@2:
  0007c	8b 45 08	 mov	 eax, DWORD PTR __Ostr$[ebp]
  0007f	8b 08		 mov	 ecx, DWORD PTR [eax]
  00081	8b 55 08	 mov	 edx, DWORD PTR __Ostr$[ebp]
  00084	03 51 04	 add	 edx, DWORD PTR [ecx+4]
  00087	8b ca		 mov	 ecx, edx
  00089	e8 00 00 00 00	 call	 ?width@ios_base@std@@QBE_JXZ ; std::ios_base::width
  0008e	89 85 70 ff ff
	ff		 mov	 DWORD PTR tv341[ebp], eax
  00094	89 95 74 ff ff
	ff		 mov	 DWORD PTR tv341[ebp+4], edx
  0009a	8b 85 74 ff ff
	ff		 mov	 eax, DWORD PTR tv341[ebp+4]
  000a0	3b 45 e8	 cmp	 eax, DWORD PTR __Count$[ebp+4]
  000a3	7c 31		 jl	 SHORT $LN17@operator@2
  000a5	7f 0b		 jg	 SHORT $LN26@operator@2
  000a7	8b 8d 70 ff ff
	ff		 mov	 ecx, DWORD PTR tv341[ebp]
  000ad	3b 4d e4	 cmp	 ecx, DWORD PTR __Count$[ebp]
  000b0	76 24		 jbe	 SHORT $LN17@operator@2
$LN26@operator@2:
  000b2	8b 55 08	 mov	 edx, DWORD PTR __Ostr$[ebp]
  000b5	8b 02		 mov	 eax, DWORD PTR [edx]
  000b7	8b 4d 08	 mov	 ecx, DWORD PTR __Ostr$[ebp]
  000ba	03 48 04	 add	 ecx, DWORD PTR [eax+4]
  000bd	e8 00 00 00 00	 call	 ?width@ios_base@std@@QBE_JXZ ; std::ios_base::width
  000c2	2b 45 e4	 sub	 eax, DWORD PTR __Count$[ebp]
  000c5	1b 55 e8	 sbb	 edx, DWORD PTR __Count$[ebp+4]
  000c8	89 85 68 ff ff
	ff		 mov	 DWORD PTR tv135[ebp], eax
  000ce	89 95 6c ff ff
	ff		 mov	 DWORD PTR tv135[ebp+4], edx
  000d4	eb 14		 jmp	 SHORT $LN18@operator@2
$LN17@operator@2:
  000d6	c7 85 68 ff ff
	ff 00 00 00 00	 mov	 DWORD PTR tv135[ebp], 0
  000e0	c7 85 6c ff ff
	ff 00 00 00 00	 mov	 DWORD PTR tv135[ebp+4], 0
$LN18@operator@2:
  000ea	8b 8d 68 ff ff
	ff		 mov	 ecx, DWORD PTR tv135[ebp]
  000f0	89 4d dc	 mov	 DWORD PTR __Pad$[ebp], ecx
  000f3	8b 95 6c ff ff
	ff		 mov	 edx, DWORD PTR tv135[ebp+4]
  000f9	89 55 e0	 mov	 DWORD PTR __Pad$[ebp+4], edx

; 774  : 	const typename _Myos::sentry _Ok(_Ostr);

  000fc	8b 45 08	 mov	 eax, DWORD PTR __Ostr$[ebp]
  000ff	50		 push	 eax
  00100	8d 4d d4	 lea	 ecx, DWORD PTR __Ok$[ebp]
  00103	e8 00 00 00 00	 call	 ??0sentry@?$basic_ostream@DU?$char_traits@D@std@@@std@@QAE@AAV12@@Z ; std::basic_ostream<char,std::char_traits<char> >::sentry::sentry
  00108	c7 45 fc 00 00
	00 00		 mov	 DWORD PTR __$EHRec$[ebp+12], 0

; 775  : 
; 776  : 	if (!_Ok)

  0010f	8d 4d d4	 lea	 ecx, DWORD PTR __Ok$[ebp]
  00112	e8 00 00 00 00	 call	 ??Bsentry@?$basic_ostream@DU?$char_traits@D@std@@@std@@QBEPQ_Bool_struct@2@HXZ ; std::basic_ostream<char,std::char_traits<char> >::sentry::operator int std::_Bool_struct::*
  00117	83 f8 ff	 cmp	 eax, -1
  0011a	75 0e		 jne	 SHORT $LN14@operator@2

; 777  : 		_State |= ios_base::badbit;

  0011c	8b 45 ec	 mov	 eax, DWORD PTR __State$[ebp]
  0011f	83 c8 04	 or	 eax, 4
  00122	89 45 ec	 mov	 DWORD PTR __State$[ebp], eax

; 778  : 	else

  00125	e9 5e 02 00 00	 jmp	 $LN13@operator@2
$LN14@operator@2:

; 779  : 		{	// state okay, insert
; 780  : 		_TRY_IO_BEGIN

  0012a	c6 45 fc 01	 mov	 BYTE PTR __$EHRec$[ebp+12], 1

; 781  : 		if ((_Ostr.flags() & ios_base::adjustfield) != ios_base::left)

  0012e	8b 45 08	 mov	 eax, DWORD PTR __Ostr$[ebp]
  00131	8b 08		 mov	 ecx, DWORD PTR [eax]
  00133	8b 55 08	 mov	 edx, DWORD PTR __Ostr$[ebp]
  00136	03 51 04	 add	 edx, DWORD PTR [ecx+4]
  00139	8b ca		 mov	 ecx, edx
  0013b	e8 00 00 00 00	 call	 ?flags@ios_base@std@@QBEHXZ ; std::ios_base::flags
  00140	89 85 7c ff ff
	ff		 mov	 DWORD PTR tv137[ebp], eax
  00146	8b 85 7c ff ff
	ff		 mov	 eax, DWORD PTR tv137[ebp]
  0014c	25 c0 01 00 00	 and	 eax, 448		; 000001c0H
  00151	83 f8 40	 cmp	 eax, 64			; 00000040H
  00154	0f 84 c1 00 00
	00		 je	 $LN11@operator@2
  0015a	eb 12		 jmp	 SHORT $LN10@operator@2
$LN9@operator@2:

; 782  : 			for (; 0 < _Pad; --_Pad)	// pad on left

  0015c	8b 45 dc	 mov	 eax, DWORD PTR __Pad$[ebp]
  0015f	83 e8 01	 sub	 eax, 1
  00162	8b 4d e0	 mov	 ecx, DWORD PTR __Pad$[ebp+4]
  00165	83 d9 00	 sbb	 ecx, 0
  00168	89 45 dc	 mov	 DWORD PTR __Pad$[ebp], eax
  0016b	89 4d e0	 mov	 DWORD PTR __Pad$[ebp+4], ecx
$LN10@operator@2:
  0016e	83 7d e0 00	 cmp	 DWORD PTR __Pad$[ebp+4], 0
  00172	0f 8c a3 00 00
	00		 jl	 $LN11@operator@2
  00178	7f 0a		 jg	 SHORT $LN27@operator@2
  0017a	83 7d dc 00	 cmp	 DWORD PTR __Pad$[ebp], 0
  0017e	0f 86 97 00 00
	00		 jbe	 $LN11@operator@2
$LN27@operator@2:

; 783  : 				if (_Traits::eq_int_type(_Traits::eof(),
; 784  : 					_Ostr.rdbuf()->sputc(_Ostr.fill())))

  00184	8b 45 08	 mov	 eax, DWORD PTR __Ostr$[ebp]
  00187	8b 08		 mov	 ecx, DWORD PTR [eax]
  00189	8b 55 08	 mov	 edx, DWORD PTR __Ostr$[ebp]
  0018c	03 51 04	 add	 edx, DWORD PTR [ecx+4]
  0018f	8b ca		 mov	 ecx, edx
  00191	e8 00 00 00 00	 call	 ?fill@?$basic_ios@DU?$char_traits@D@std@@@std@@QBEDXZ ; std::basic_ios<char,std::char_traits<char> >::fill
  00196	88 85 7f ff ff
	ff		 mov	 BYTE PTR tv282[ebp], al
  0019c	8b 45 08	 mov	 eax, DWORD PTR __Ostr$[ebp]
  0019f	8b 08		 mov	 ecx, DWORD PTR [eax]
  001a1	8b 55 08	 mov	 edx, DWORD PTR __Ostr$[ebp]
  001a4	03 51 04	 add	 edx, DWORD PTR [ecx+4]
  001a7	8b ca		 mov	 ecx, edx
  001a9	e8 00 00 00 00	 call	 ?rdbuf@?$basic_ios@DU?$char_traits@D@std@@@std@@QBEPAV?$basic_streambuf@DU?$char_traits@D@std@@@2@XZ ; std::basic_ios<char,std::char_traits<char> >::rdbuf
  001ae	89 85 78 ff ff
	ff		 mov	 DWORD PTR tv283[ebp], eax
  001b4	0f b6 85 7f ff
	ff ff		 movzx	 eax, BYTE PTR tv282[ebp]
  001bb	50		 push	 eax
  001bc	8b 8d 78 ff ff
	ff		 mov	 ecx, DWORD PTR tv283[ebp]
  001c2	e8 00 00 00 00	 call	 ?sputc@?$basic_streambuf@DU?$char_traits@D@std@@@std@@QAEHD@Z ; std::basic_streambuf<char,std::char_traits<char> >::sputc
  001c7	89 85 74 ff ff
	ff		 mov	 DWORD PTR tv284[ebp], eax
  001cd	8b 8d 74 ff ff
	ff		 mov	 ecx, DWORD PTR tv284[ebp]
  001d3	89 4d 80	 mov	 DWORD PTR $T226152[ebp], ecx
  001d6	e8 00 00 00 00	 call	 ?eof@?$char_traits@D@std@@SAHXZ ; std::char_traits<char>::eof
  001db	89 85 70 ff ff
	ff		 mov	 DWORD PTR tv285[ebp], eax
  001e1	8b 95 70 ff ff
	ff		 mov	 edx, DWORD PTR tv285[ebp]
  001e7	89 55 84	 mov	 DWORD PTR $T226153[ebp], edx
  001ea	8d 45 80	 lea	 eax, DWORD PTR $T226152[ebp]
  001ed	50		 push	 eax
  001ee	8d 4d 84	 lea	 ecx, DWORD PTR $T226153[ebp]
  001f1	51		 push	 ecx
  001f2	e8 00 00 00 00	 call	 ?eq_int_type@?$char_traits@D@std@@SA_NABH0@Z ; std::char_traits<char>::eq_int_type
  001f7	83 c4 08	 add	 esp, 8
  001fa	88 85 6f ff ff
	ff		 mov	 BYTE PTR tv286[ebp], al
  00200	0f b6 95 6f ff
	ff ff		 movzx	 edx, BYTE PTR tv286[ebp]
  00207	85 d2		 test	 edx, edx
  00209	74 0b		 je	 SHORT $LN7@operator@2

; 785  : 					{	// insertion failed, quit
; 786  : 					_State |= ios_base::badbit;

  0020b	8b 45 ec	 mov	 eax, DWORD PTR __State$[ebp]
  0020e	83 c8 04	 or	 eax, 4
  00211	89 45 ec	 mov	 DWORD PTR __State$[ebp], eax

; 787  : 					break;

  00214	eb 05		 jmp	 SHORT $LN11@operator@2
$LN7@operator@2:

; 788  : 					}
; 789  : 
; 790  : 		if (_State == ios_base::goodbit

  00216	e9 41 ff ff ff	 jmp	 $LN9@operator@2
$LN11@operator@2:

; 791  : 			&& _Ostr.rdbuf()->sputn(_Val, _Count) != _Count)

  0021b	83 7d ec 00	 cmp	 DWORD PTR __State$[ebp], 0
  0021f	75 5a		 jne	 SHORT $LN6@operator@2
  00221	8b 45 08	 mov	 eax, DWORD PTR __Ostr$[ebp]
  00224	8b 08		 mov	 ecx, DWORD PTR [eax]
  00226	8b 55 08	 mov	 edx, DWORD PTR __Ostr$[ebp]
  00229	03 51 04	 add	 edx, DWORD PTR [ecx+4]
  0022c	8b ca		 mov	 ecx, edx
  0022e	e8 00 00 00 00	 call	 ?rdbuf@?$basic_ios@DU?$char_traits@D@std@@@std@@QBEPAV?$basic_streambuf@DU?$char_traits@D@std@@@2@XZ ; std::basic_ios<char,std::char_traits<char> >::rdbuf
  00233	89 85 7c ff ff
	ff		 mov	 DWORD PTR tv287[ebp], eax
  00239	8b 45 e8	 mov	 eax, DWORD PTR __Count$[ebp+4]
  0023c	50		 push	 eax
  0023d	8b 4d e4	 mov	 ecx, DWORD PTR __Count$[ebp]
  00240	51		 push	 ecx
  00241	8b 55 0c	 mov	 edx, DWORD PTR __Val$[ebp]
  00244	52		 push	 edx
  00245	8b 8d 7c ff ff
	ff		 mov	 ecx, DWORD PTR tv287[ebp]
  0024b	e8 00 00 00 00	 call	 ?sputn@?$basic_streambuf@DU?$char_traits@D@std@@@std@@QAE_JPBD_J@Z ; std::basic_streambuf<char,std::char_traits<char> >::sputn
  00250	89 85 74 ff ff
	ff		 mov	 DWORD PTR tv288[ebp], eax
  00256	89 95 78 ff ff
	ff		 mov	 DWORD PTR tv288[ebp+4], edx
  0025c	8b 85 74 ff ff
	ff		 mov	 eax, DWORD PTR tv288[ebp]
  00262	3b 45 e4	 cmp	 eax, DWORD PTR __Count$[ebp]
  00265	75 0b		 jne	 SHORT $LN28@operator@2
  00267	8b 8d 78 ff ff
	ff		 mov	 ecx, DWORD PTR tv288[ebp+4]
  0026d	3b 4d e8	 cmp	 ecx, DWORD PTR __Count$[ebp+4]
  00270	74 09		 je	 SHORT $LN6@operator@2
$LN28@operator@2:

; 792  : 			_State |= ios_base::badbit;

  00272	8b 45 ec	 mov	 eax, DWORD PTR __State$[ebp]
  00275	83 c8 04	 or	 eax, 4
  00278	89 45 ec	 mov	 DWORD PTR __State$[ebp], eax
$LN6@operator@2:

; 793  : 
; 794  : 		if (_State == ios_base::goodbit)

  0027b	83 7d ec 00	 cmp	 DWORD PTR __State$[ebp], 0
  0027f	0f 85 c1 00 00
	00		 jne	 $LN5@operator@2
  00285	eb 12		 jmp	 SHORT $LN4@operator@2
$LN3@operator@2:

; 795  : 			for (; 0 < _Pad; --_Pad)	// pad on right

  00287	8b 45 dc	 mov	 eax, DWORD PTR __Pad$[ebp]
  0028a	83 e8 01	 sub	 eax, 1
  0028d	8b 4d e0	 mov	 ecx, DWORD PTR __Pad$[ebp+4]
  00290	83 d9 00	 sbb	 ecx, 0
  00293	89 45 dc	 mov	 DWORD PTR __Pad$[ebp], eax
  00296	89 4d e0	 mov	 DWORD PTR __Pad$[ebp+4], ecx
$LN4@operator@2:
  00299	83 7d e0 00	 cmp	 DWORD PTR __Pad$[ebp+4], 0
  0029d	0f 8c a3 00 00
	00		 jl	 $LN5@operator@2
  002a3	7f 0a		 jg	 SHORT $LN29@operator@2
  002a5	83 7d dc 00	 cmp	 DWORD PTR __Pad$[ebp], 0
  002a9	0f 86 97 00 00
	00		 jbe	 $LN5@operator@2
$LN29@operator@2:

; 796  : 				if (_Traits::eq_int_type(_Traits::eof(),
; 797  : 					_Ostr.rdbuf()->sputc(_Ostr.fill())))

  002af	8b 45 08	 mov	 eax, DWORD PTR __Ostr$[ebp]
  002b2	8b 08		 mov	 ecx, DWORD PTR [eax]
  002b4	8b 55 08	 mov	 edx, DWORD PTR __Ostr$[ebp]
  002b7	03 51 04	 add	 edx, DWORD PTR [ecx+4]
  002ba	8b ca		 mov	 ecx, edx
  002bc	e8 00 00 00 00	 call	 ?fill@?$basic_ios@DU?$char_traits@D@std@@@std@@QBEDXZ ; std::basic_ios<char,std::char_traits<char> >::fill
  002c1	88 85 7f ff ff
	ff		 mov	 BYTE PTR tv289[ebp], al
  002c7	8b 45 08	 mov	 eax, DWORD PTR __Ostr$[ebp]
  002ca	8b 08		 mov	 ecx, DWORD PTR [eax]
  002cc	8b 55 08	 mov	 edx, DWORD PTR __Ostr$[ebp]
  002cf	03 51 04	 add	 edx, DWORD PTR [ecx+4]
  002d2	8b ca		 mov	 ecx, edx
  002d4	e8 00 00 00 00	 call	 ?rdbuf@?$basic_ios@DU?$char_traits@D@std@@@std@@QBEPAV?$basic_streambuf@DU?$char_traits@D@std@@@2@XZ ; std::basic_ios<char,std::char_traits<char> >::rdbuf
  002d9	89 85 78 ff ff
	ff		 mov	 DWORD PTR tv290[ebp], eax
  002df	0f b6 85 7f ff
	ff ff		 movzx	 eax, BYTE PTR tv289[ebp]
  002e6	50		 push	 eax
  002e7	8b 8d 78 ff ff
	ff		 mov	 ecx, DWORD PTR tv290[ebp]
  002ed	e8 00 00 00 00	 call	 ?sputc@?$basic_streambuf@DU?$char_traits@D@std@@@std@@QAEHD@Z ; std::basic_streambuf<char,std::char_traits<char> >::sputc
  002f2	89 85 74 ff ff
	ff		 mov	 DWORD PTR tv291[ebp], eax
  002f8	8b 8d 74 ff ff
	ff		 mov	 ecx, DWORD PTR tv291[ebp]
  002fe	89 4d 88	 mov	 DWORD PTR $T226154[ebp], ecx
  00301	e8 00 00 00 00	 call	 ?eof@?$char_traits@D@std@@SAHXZ ; std::char_traits<char>::eof
  00306	89 85 70 ff ff
	ff		 mov	 DWORD PTR tv292[ebp], eax
  0030c	8b 95 70 ff ff
	ff		 mov	 edx, DWORD PTR tv292[ebp]
  00312	89 55 8c	 mov	 DWORD PTR $T226155[ebp], edx
  00315	8d 45 88	 lea	 eax, DWORD PTR $T226154[ebp]
  00318	50		 push	 eax
  00319	8d 4d 8c	 lea	 ecx, DWORD PTR $T226155[ebp]
  0031c	51		 push	 ecx
  0031d	e8 00 00 00 00	 call	 ?eq_int_type@?$char_traits@D@std@@SA_NABH0@Z ; std::char_traits<char>::eq_int_type
  00322	83 c4 08	 add	 esp, 8
  00325	88 85 6f ff ff
	ff		 mov	 BYTE PTR tv293[ebp], al
  0032b	0f b6 95 6f ff
	ff ff		 movzx	 edx, BYTE PTR tv293[ebp]
  00332	85 d2		 test	 edx, edx
  00334	74 0b		 je	 SHORT $LN1@operator@2

; 798  : 					{	// insertion failed, quit
; 799  : 					_State |= ios_base::badbit;

  00336	8b 45 ec	 mov	 eax, DWORD PTR __State$[ebp]
  00339	83 c8 04	 or	 eax, 4
  0033c	89 45 ec	 mov	 DWORD PTR __State$[ebp], eax

; 800  : 					break;

  0033f	eb 05		 jmp	 SHORT $LN5@operator@2
$LN1@operator@2:

; 801  : 					}

  00341	e9 41 ff ff ff	 jmp	 $LN3@operator@2
$LN5@operator@2:

; 802  : 		_Ostr.width(0);

  00346	6a 00		 push	 0
  00348	6a 00		 push	 0
  0034a	8b 45 08	 mov	 eax, DWORD PTR __Ostr$[ebp]
  0034d	8b 08		 mov	 ecx, DWORD PTR [eax]
  0034f	8b 55 08	 mov	 edx, DWORD PTR __Ostr$[ebp]
  00352	03 51 04	 add	 edx, DWORD PTR [ecx+4]
  00355	8b ca		 mov	 ecx, edx
  00357	e8 00 00 00 00	 call	 ?width@ios_base@std@@QAE_J_J@Z ; std::ios_base::width
  0035c	eb 23		 jmp	 SHORT $LN19@operator@2
__catch$??$?6U?$char_traits@D@std@@@std@@YAAAV?$basic_ostream@DU?$char_traits@D@std@@@0@AAV10@PBD@Z$0:

; 803  : 		_CATCH_IO_(_Ostr)

  0035e	6a 01		 push	 1
  00360	6a 04		 push	 4
  00362	8b 45 08	 mov	 eax, DWORD PTR __Ostr$[ebp]
  00365	8b 08		 mov	 ecx, DWORD PTR [eax]
  00367	8b 55 08	 mov	 edx, DWORD PTR __Ostr$[ebp]
  0036a	03 51 04	 add	 edx, DWORD PTR [ecx+4]
  0036d	8b ca		 mov	 ecx, edx
  0036f	e8 00 00 00 00	 call	 ?setstate@?$basic_ios@DU?$char_traits@D@std@@@std@@QAEXH_N@Z ; std::basic_ios<char,std::char_traits<char> >::setstate
  00374	c7 45 fc 00 00
	00 00		 mov	 DWORD PTR __$EHRec$[ebp+12], 0
  0037b	b8 00 00 00 00	 mov	 eax, $LN13@operator@2
  00380	c3		 ret	 0
$LN19@operator@2:
  00381	c7 45 fc 00 00
	00 00		 mov	 DWORD PTR __$EHRec$[ebp+12], 0
$LN13@operator@2:

; 804  : 		}
; 805  : 
; 806  : 	_Ostr.setstate(_State);

  00388	6a 00		 push	 0
  0038a	8b 45 ec	 mov	 eax, DWORD PTR __State$[ebp]
  0038d	50		 push	 eax
  0038e	8b 4d 08	 mov	 ecx, DWORD PTR __Ostr$[ebp]
  00391	8b 11		 mov	 edx, DWORD PTR [ecx]
  00393	8b 4d 08	 mov	 ecx, DWORD PTR __Ostr$[ebp]
  00396	03 4a 04	 add	 ecx, DWORD PTR [edx+4]
  00399	e8 00 00 00 00	 call	 ?setstate@?$basic_ios@DU?$char_traits@D@std@@@std@@QAEXH_N@Z ; std::basic_ios<char,std::char_traits<char> >::setstate

; 807  : 	return (_Ostr);

  0039e	8b 45 08	 mov	 eax, DWORD PTR __Ostr$[ebp]
  003a1	89 45 90	 mov	 DWORD PTR $T226156[ebp], eax
  003a4	c7 45 fc ff ff
	ff ff		 mov	 DWORD PTR __$EHRec$[ebp+12], -1
  003ab	8d 4d d4	 lea	 ecx, DWORD PTR __Ok$[ebp]
  003ae	e8 00 00 00 00	 call	 ??1sentry@?$basic_ostream@DU?$char_traits@D@std@@@std@@QAE@XZ ; std::basic_ostream<char,std::char_traits<char> >::sentry::~sentry
  003b3	8b 45 90	 mov	 eax, DWORD PTR $T226156[ebp]

; 808  : 	}

  003b6	8b 4d f4	 mov	 ecx, DWORD PTR __$EHRec$[ebp+4]
  003b9	64 89 0d 00 00
	00 00		 mov	 DWORD PTR fs:0, ecx
  003c0	59		 pop	 ecx
  003c1	5f		 pop	 edi
  003c2	5e		 pop	 esi
  003c3	5b		 pop	 ebx
  003c4	8b e5		 mov	 esp, ebp
  003c6	5d		 pop	 ebp
  003c7	c3		 ret	 0
_TEXT	ENDS
;	COMDAT text$x
text$x	SEGMENT
__unwindfunclet$??$?6U?$char_traits@D@std@@@std@@YAAAV?$basic_ostream@DU?$char_traits@D@std@@@0@AAV10@PBD@Z$2:
  00000	8d 4d d4	 lea	 ecx, DWORD PTR __Ok$[ebp]
  00003	e9 00 00 00 00	 jmp	 ??1sentry@?$basic_ostream@DU?$char_traits@D@std@@@std@@QAE@XZ ; std::basic_ostream<char,std::char_traits<char> >::sentry::~sentry
__ehhandler$??$?6U?$char_traits@D@std@@@std@@YAAAV?$basic_ostream@DU?$char_traits@D@std@@@0@AAV10@PBD@Z:
  00008	8b 54 24 08	 mov	 edx, DWORD PTR [esp+8]
  0000c	8d 42 0c	 lea	 eax, DWORD PTR [edx+12]
  0000f	8b 8a 64 ff ff
	ff		 mov	 ecx, DWORD PTR [edx-156]
  00015	33 c8		 xor	 ecx, eax
  00017	e8 00 00 00 00	 call	 @__security_check_cookie@4
  0001c	b8 00 00 00 00	 mov	 eax, OFFSET __ehfuncinfo$??$?6U?$char_traits@D@std@@@std@@YAAAV?$basic_ostream@DU?$char_traits@D@std@@@0@AAV10@PBD@Z
  00021	e9 00 00 00 00	 jmp	 ___CxxFrameHandler3
text$x	ENDS
??$?6U?$char_traits@D@std@@@std@@YAAAV?$basic_ostream@DU?$char_traits@D@std@@@0@AAV10@PBD@Z ENDP ; std::operator<<<std::char_traits<char> >
PUBLIC	?_Register@facet@locale@std@@QAEXXZ		; std::locale::facet::_Register
PUBLIC	?_Incref@facet@locale@std@@QAEXXZ		; std::locale::facet::_Incref
PUBLIC	__TI2?AVbad_cast@std@@
PUBLIC	??_C@_08EPJLHIJG@bad?5cast?$AA@			; `string'
PUBLIC	?_Getcat@?$codecvt@DDH@std@@SAIPAPBVfacet@locale@2@PBV42@@Z ; std::codecvt<char,char,int>::_Getcat
PUBLIC	?_Getfacet@locale@std@@QBEPBVfacet@12@I@Z	; std::locale::_Getfacet
PUBLIC	??Bid@locale@std@@QAEIXZ			; std::locale::id::operator unsigned int
PUBLIC	?_Psave@?$_Facetptr@V?$codecvt@DDH@std@@@std@@2PBVfacet@locale@2@B ; std::_Facetptr<std::codecvt<char,char,int> >::_Psave
PUBLIC	__CTA2?AVbad_cast@std@@
PUBLIC	__CT??_R0?AVbad_cast@std@@@8??0bad_cast@std@@QAE@ABV01@@Z12
PUBLIC	??_R0?AVbad_cast@std@@@8			; std::bad_cast `RTTI Type Descriptor'
PUBLIC	__CT??_R0?AVexception@std@@@8??0exception@std@@QAE@ABV01@@Z12
PUBLIC	??_R0?AVexception@std@@@8			; std::exception `RTTI Type Descriptor'
EXTRN	??1_Lockit@std@@QAE@XZ:PROC			; std::_Lockit::~_Lockit
EXTRN	??0bad_cast@std@@QAE@PBD@Z:PROC			; std::bad_cast::bad_cast
EXTRN	??0_Lockit@std@@QAE@H@Z:PROC			; std::_Lockit::_Lockit
EXTRN	__CxxThrowException@8:PROC
EXTRN	??1bad_cast@std@@UAE@XZ:PROC			; std::bad_cast::~bad_cast
EXTRN	??0bad_cast@std@@QAE@ABV01@@Z:PROC		; std::bad_cast::bad_cast
EXTRN	??0exception@std@@QAE@ABV01@@Z:PROC		; std::exception::exception
;	COMDAT ?_Psave@?$_Facetptr@V?$codecvt@DDH@std@@@std@@2PBVfacet@locale@2@B
; File d:\microsoft visual studio 10.0\vc\include\xlocale
_BSS	SEGMENT
?_Psave@?$_Facetptr@V?$codecvt@DDH@std@@@std@@2PBVfacet@locale@2@B DD 01H DUP (?) ; std::_Facetptr<std::codecvt<char,char,int> >::_Psave
_BSS	ENDS
;	COMDAT ??_R0?AVexception@std@@@8
_DATA	SEGMENT
??_R0?AVexception@std@@@8 DD FLAT:??_7type_info@@6B@	; std::exception `RTTI Type Descriptor'
	DD	00H
	DB	'.?AVexception@std@@', 00H
_DATA	ENDS
;	COMDAT __CT??_R0?AVexception@std@@@8??0exception@std@@QAE@ABV01@@Z12
xdata$x	SEGMENT
__CT??_R0?AVexception@std@@@8??0exception@std@@QAE@ABV01@@Z12 DD 00H
	DD	FLAT:??_R0?AVexception@std@@@8
	DD	00H
	DD	0ffffffffH
	ORG $+4
	DD	0cH
	DD	FLAT:??0exception@std@@QAE@ABV01@@Z
xdata$x	ENDS
;	COMDAT ??_R0?AVbad_cast@std@@@8
_DATA	SEGMENT
??_R0?AVbad_cast@std@@@8 DD FLAT:??_7type_info@@6B@	; std::bad_cast `RTTI Type Descriptor'
	DD	00H
	DB	'.?AVbad_cast@std@@', 00H
_DATA	ENDS
;	COMDAT __CT??_R0?AVbad_cast@std@@@8??0bad_cast@std@@QAE@ABV01@@Z12
xdata$x	SEGMENT
__CT??_R0?AVbad_cast@std@@@8??0bad_cast@std@@QAE@ABV01@@Z12 DD 00H
	DD	FLAT:??_R0?AVbad_cast@std@@@8
	DD	00H
	DD	0ffffffffH
	ORG $+4
	DD	0cH
	DD	FLAT:??0bad_cast@std@@QAE@ABV01@@Z
xdata$x	ENDS
;	COMDAT __CTA2?AVbad_cast@std@@
xdata$x	SEGMENT
__CTA2?AVbad_cast@std@@ DD 02H
	DD	FLAT:__CT??_R0?AVbad_cast@std@@@8??0bad_cast@std@@QAE@ABV01@@Z12
	DD	FLAT:__CT??_R0?AVexception@std@@@8??0exception@std@@QAE@ABV01@@Z12
xdata$x	ENDS
;	COMDAT __TI2?AVbad_cast@std@@
xdata$x	SEGMENT
__TI2?AVbad_cast@std@@ DD 00H
	DD	FLAT:??1bad_cast@std@@UAE@XZ
	DD	00H
	DD	FLAT:__CTA2?AVbad_cast@std@@
xdata$x	ENDS
;	COMDAT ??_C@_08EPJLHIJG@bad?5cast?$AA@
CONST	SEGMENT
??_C@_08EPJLHIJG@bad?5cast?$AA@ DB 'bad cast', 00H	; `string'
CONST	ENDS
;	COMDAT xdata$x
xdata$x	SEGMENT
__unwindtable$??$use_facet@V?$codecvt@DDH@std@@@std@@YAABV?$codecvt@DDH@0@ABVlocale@0@@Z DD 0ffffffffH
	DD	FLAT:__unwindfunclet$??$use_facet@V?$codecvt@DDH@std@@@std@@YAABV?$codecvt@DDH@0@ABVlocale@0@@Z$0
__ehfuncinfo$??$use_facet@V?$codecvt@DDH@std@@@std@@YAABV?$codecvt@DDH@0@ABVlocale@0@@Z DD 019930522H
	DD	01H
	DD	FLAT:__unwindtable$??$use_facet@V?$codecvt@DDH@std@@@std@@YAABV?$codecvt@DDH@0@ABVlocale@0@@Z
	DD	2 DUP(00H)
	DD	2 DUP(00H)
	DD	00H
	DD	01H
; Function compile flags: /Odtp /ZI
xdata$x	ENDS
;	COMDAT ??$use_facet@V?$codecvt@DDH@std@@@std@@YAABV?$codecvt@DDH@0@ABVlocale@0@@Z
_TEXT	SEGMENT
$T226178 = -112						; size = 12
$T226180 = -100						; size = 4
__Pfmod$225273 = -32					; size = 4
__Pf$225262 = -28					; size = 4
__Id$225261 = -24					; size = 4
__Psave$225249 = -20					; size = 4
__Lock$225248 = -16					; size = 4
__$EHRec$ = -12						; size = 12
__Loc$ = 8						; size = 4
??$use_facet@V?$codecvt@DDH@std@@@std@@YAABV?$codecvt@DDH@0@ABVlocale@0@@Z PROC ; std::use_facet<std::codecvt<char,char,int> >, COMDAT

; 504  : 	{	// get facet reference from locale

  00000	55		 push	 ebp
  00001	8b ec		 mov	 ebp, esp
  00003	6a ff		 push	 -1
  00005	68 00 00 00 00	 push	 __ehhandler$??$use_facet@V?$codecvt@DDH@std@@@std@@YAABV?$codecvt@DDH@0@ABVlocale@0@@Z
  0000a	64 a1 00 00 00
	00		 mov	 eax, DWORD PTR fs:0
  00010	50		 push	 eax
  00011	83 ec 64	 sub	 esp, 100		; 00000064H
  00014	53		 push	 ebx
  00015	56		 push	 esi
  00016	57		 push	 edi
  00017	a1 00 00 00 00	 mov	 eax, DWORD PTR ___security_cookie
  0001c	33 c5		 xor	 eax, ebp
  0001e	50		 push	 eax
  0001f	8d 45 f4	 lea	 eax, DWORD PTR __$EHRec$[ebp]
  00022	64 a3 00 00 00
	00		 mov	 DWORD PTR fs:0, eax

; 505  : 	_BEGIN_LOCK(_LOCK_LOCALE)	// the thread lock, make get atomic

  00028	6a 00		 push	 0
  0002a	8d 4d f0	 lea	 ecx, DWORD PTR __Lock$225248[ebp]
  0002d	e8 00 00 00 00	 call	 ??0_Lockit@std@@QAE@H@Z	; std::_Lockit::_Lockit
  00032	c7 45 fc 00 00
	00 00		 mov	 DWORD PTR __$EHRec$[ebp+8], 0

; 506  : 		const locale::facet *_Psave =
; 507  : 			_Facetptr<_Facet>::_Psave;	// static pointer to lazy facet

  00039	a1 00 00 00 00	 mov	 eax, DWORD PTR ?_Psave@?$_Facetptr@V?$codecvt@DDH@std@@@std@@2PBVfacet@locale@2@B ; std::_Facetptr<std::codecvt<char,char,int> >::_Psave
  0003e	89 45 ec	 mov	 DWORD PTR __Psave$225249[ebp], eax

; 508  : 
; 509  : 		size_t _Id = _Facet::id;

  00041	b9 00 00 00 00	 mov	 ecx, OFFSET ?id@?$codecvt@DDH@std@@2V0locale@2@A ; std::codecvt<char,char,int>::id
  00046	e8 00 00 00 00	 call	 ??Bid@locale@std@@QAEIXZ ; std::locale::id::operator unsigned int
  0004b	89 45 e8	 mov	 DWORD PTR __Id$225261[ebp], eax

; 510  : 		const locale::facet *_Pf = _Loc._Getfacet(_Id);

  0004e	8b 45 e8	 mov	 eax, DWORD PTR __Id$225261[ebp]
  00051	50		 push	 eax
  00052	8b 4d 08	 mov	 ecx, DWORD PTR __Loc$[ebp]
  00055	e8 00 00 00 00	 call	 ?_Getfacet@locale@std@@QBEPBVfacet@12@I@Z ; std::locale::_Getfacet
  0005a	89 45 e4	 mov	 DWORD PTR __Pf$225262[ebp], eax

; 511  : 
; 512  : 		if (_Pf != 0)

  0005d	83 7d e4 00	 cmp	 DWORD PTR __Pf$225262[ebp], 0
  00061	74 02		 je	 SHORT $LN6@use_facet
  00063	eb 64		 jmp	 SHORT $LN5@use_facet
$LN6@use_facet:

; 513  : 			;	// got facet from locale
; 514  : 		else if (_Psave != 0)

  00065	83 7d ec 00	 cmp	 DWORD PTR __Psave$225249[ebp], 0
  00069	74 08		 je	 SHORT $LN4@use_facet

; 515  : 			_Pf = _Psave;	// lazy facet already allocated

  0006b	8b 45 ec	 mov	 eax, DWORD PTR __Psave$225249[ebp]
  0006e	89 45 e4	 mov	 DWORD PTR __Pf$225262[ebp], eax
  00071	eb 56		 jmp	 SHORT $LN5@use_facet
$LN4@use_facet:

; 516  : 		else if (_Facet::_Getcat(&_Psave, &_Loc) == (size_t)(-1))

  00073	8b 45 08	 mov	 eax, DWORD PTR __Loc$[ebp]
  00076	50		 push	 eax
  00077	8d 4d ec	 lea	 ecx, DWORD PTR __Psave$225249[ebp]
  0007a	51		 push	 ecx
  0007b	e8 00 00 00 00	 call	 ?_Getcat@?$codecvt@DDH@std@@SAIPAPBVfacet@locale@2@PBV42@@Z ; std::codecvt<char,char,int>::_Getcat
  00080	83 c4 08	 add	 esp, 8
  00083	83 f8 ff	 cmp	 eax, -1
  00086	75 1d		 jne	 SHORT $LN2@use_facet

; 517  : 
; 518  :  #if _HAS_EXCEPTIONS
; 519  : 
; 520  : 			_THROW_NCEE(bad_cast, _EMPTY_ARGUMENT);	// lazy disallowed

  00088	68 00 00 00 00	 push	 OFFSET ??_C@_08EPJLHIJG@bad?5cast?$AA@
  0008d	8d 4d 90	 lea	 ecx, DWORD PTR $T226178[ebp]
  00090	e8 00 00 00 00	 call	 ??0bad_cast@std@@QAE@PBD@Z ; std::bad_cast::bad_cast
  00095	68 00 00 00 00	 push	 OFFSET __TI2?AVbad_cast@std@@
  0009a	8d 45 90	 lea	 eax, DWORD PTR $T226178[ebp]
  0009d	50		 push	 eax
  0009e	e8 00 00 00 00	 call	 __CxxThrowException@8

; 521  : 
; 522  :  #else /* _HAS_EXCEPTIONS */
; 523  : 			abort();	// lazy disallowed
; 524  :  #endif /* _HAS_EXCEPTIONS */
; 525  : 
; 526  : 		else

  000a3	eb 24		 jmp	 SHORT $LN5@use_facet
$LN2@use_facet:

; 527  : 			{	// queue up lazy facet for destruction
; 528  : 			_Pf = _Psave;

  000a5	8b 45 ec	 mov	 eax, DWORD PTR __Psave$225249[ebp]
  000a8	89 45 e4	 mov	 DWORD PTR __Pf$225262[ebp], eax

; 529  : 			_Facetptr<_Facet>::_Psave = _Psave;

  000ab	8b 45 ec	 mov	 eax, DWORD PTR __Psave$225249[ebp]
  000ae	a3 00 00 00 00	 mov	 DWORD PTR ?_Psave@?$_Facetptr@V?$codecvt@DDH@std@@@std@@2PBVfacet@locale@2@B, eax ; std::_Facetptr<std::codecvt<char,char,int> >::_Psave

; 530  : 
; 531  : 			locale::facet *_Pfmod = (_Facet *)_Psave;

  000b3	8b 45 ec	 mov	 eax, DWORD PTR __Psave$225249[ebp]
  000b6	89 45 e0	 mov	 DWORD PTR __Pfmod$225273[ebp], eax

; 532  : 			_Pfmod->_Incref();

  000b9	8b 4d e0	 mov	 ecx, DWORD PTR __Pfmod$225273[ebp]
  000bc	e8 00 00 00 00	 call	 ?_Incref@facet@locale@std@@QAEXXZ ; std::locale::facet::_Incref

; 533  : 			_Pfmod->_Register();

  000c1	8b 4d e0	 mov	 ecx, DWORD PTR __Pfmod$225273[ebp]
  000c4	e8 00 00 00 00	 call	 ?_Register@facet@locale@std@@QAEXXZ ; std::locale::facet::_Register
$LN5@use_facet:

; 534  : 			}
; 535  : 
; 536  : 		return ((const _Facet&)(*_Pf));	// should be dynamic_cast

  000c9	8b 45 e4	 mov	 eax, DWORD PTR __Pf$225262[ebp]
  000cc	89 45 9c	 mov	 DWORD PTR $T226180[ebp], eax
  000cf	c7 45 fc ff ff
	ff ff		 mov	 DWORD PTR __$EHRec$[ebp+8], -1
  000d6	8d 4d f0	 lea	 ecx, DWORD PTR __Lock$225248[ebp]
  000d9	e8 00 00 00 00	 call	 ??1_Lockit@std@@QAE@XZ	; std::_Lockit::~_Lockit
  000de	8b 45 9c	 mov	 eax, DWORD PTR $T226180[ebp]
$LN8@use_facet:

; 537  : 	_END_LOCK()
; 538  : 	}

  000e1	8b 4d f4	 mov	 ecx, DWORD PTR __$EHRec$[ebp]
  000e4	64 89 0d 00 00
	00 00		 mov	 DWORD PTR fs:0, ecx
  000eb	59		 pop	 ecx
  000ec	5f		 pop	 edi
  000ed	5e		 pop	 esi
  000ee	5b		 pop	 ebx
  000ef	8b e5		 mov	 esp, ebp
  000f1	5d		 pop	 ebp
  000f2	c3		 ret	 0
_TEXT	ENDS
;	COMDAT text$x
text$x	SEGMENT
__unwindfunclet$??$use_facet@V?$codecvt@DDH@std@@@std@@YAABV?$codecvt@DDH@0@ABVlocale@0@@Z$0:
  00000	8d 4d f0	 lea	 ecx, DWORD PTR __Lock$225248[ebp]
  00003	e9 00 00 00 00	 jmp	 ??1_Lockit@std@@QAE@XZ	; std::_Lockit::~_Lockit
__ehhandler$??$use_facet@V?$codecvt@DDH@std@@@std@@YAABV?$codecvt@DDH@0@ABVlocale@0@@Z:
  00008	8b 54 24 08	 mov	 edx, DWORD PTR [esp+8]
  0000c	8d 42 0c	 lea	 eax, DWORD PTR [edx+12]
  0000f	8b 4a 8c	 mov	 ecx, DWORD PTR [edx-116]
  00012	33 c8		 xor	 ecx, eax
  00014	e8 00 00 00 00	 call	 @__security_check_cookie@4
  00019	b8 00 00 00 00	 mov	 eax, OFFSET __ehfuncinfo$??$use_facet@V?$codecvt@DDH@std@@@std@@YAABV?$codecvt@DDH@0@ABVlocale@0@@Z
  0001e	e9 00 00 00 00	 jmp	 ___CxxFrameHandler3
text$x	ENDS
??$use_facet@V?$codecvt@DDH@std@@@std@@YAABV?$codecvt@DDH@0@ABVlocale@0@@Z ENDP ; std::use_facet<std::codecvt<char,char,int> >
; Function compile flags: /Odtp /ZI
; File d:\microsoft visual studio 10.0\vc\include\ios
;	COMDAT ?fill@?$basic_ios@DU?$char_traits@D@std@@@std@@QBEDXZ
_TEXT	SEGMENT
_this$ = -4						; size = 4
?fill@?$basic_ios@DU?$char_traits@D@std@@@std@@QBEDXZ PROC ; std::basic_ios<char,std::char_traits<char> >::fill, COMDAT
; _this$ = ecx

; 106  : 		{	// return fill character

  00000	55		 push	 ebp
  00001	8b ec		 mov	 ebp, esp
  00003	83 ec 44	 sub	 esp, 68			; 00000044H
  00006	53		 push	 ebx
  00007	56		 push	 esi
  00008	57		 push	 edi
  00009	89 4d fc	 mov	 DWORD PTR _this$[ebp], ecx

; 107  : 		return (_Fillch);

  0000c	8b 45 fc	 mov	 eax, DWORD PTR _this$[ebp]
  0000f	8a 40 40	 mov	 al, BYTE PTR [eax+64]

; 108  : 		}

  00012	5f		 pop	 edi
  00013	5e		 pop	 esi
  00014	5b		 pop	 ebx
  00015	8b e5		 mov	 esp, ebp
  00017	5d		 pop	 ebp
  00018	c3		 ret	 0
?fill@?$basic_ios@DU?$char_traits@D@std@@@std@@QBEDXZ ENDP ; std::basic_ios<char,std::char_traits<char> >::fill
; Function compile flags: /Odtp /ZI
; File d:\microsoft visual studio 10.0\vc\include\streambuf
_TEXT	ENDS
;	COMDAT ?sputn@?$basic_streambuf@DU?$char_traits@D@std@@@std@@QAE_JPBD_J@Z
_TEXT	SEGMENT
_this$ = -4						; size = 4
__Ptr$ = 8						; size = 4
__Count$ = 12						; size = 8
?sputn@?$basic_streambuf@DU?$char_traits@D@std@@@std@@QAE_JPBD_J@Z PROC ; std::basic_streambuf<char,std::char_traits<char> >::sputn, COMDAT
; _this$ = ecx

; 201  : 		{	// put _Count characters from array beginning at _Ptr

  00000	55		 push	 ebp
  00001	8b ec		 mov	 ebp, esp
  00003	83 ec 44	 sub	 esp, 68			; 00000044H
  00006	53		 push	 ebx
  00007	56		 push	 esi
  00008	57		 push	 edi
  00009	89 4d fc	 mov	 DWORD PTR _this$[ebp], ecx

; 202  : 		return (xsputn(_Ptr, _Count));

  0000c	8b 45 10	 mov	 eax, DWORD PTR __Count$[ebp+4]
  0000f	50		 push	 eax
  00010	8b 4d 0c	 mov	 ecx, DWORD PTR __Count$[ebp]
  00013	51		 push	 ecx
  00014	8b 55 08	 mov	 edx, DWORD PTR __Ptr$[ebp]
  00017	52		 push	 edx
  00018	8b 45 fc	 mov	 eax, DWORD PTR _this$[ebp]
  0001b	8b 10		 mov	 edx, DWORD PTR [eax]
  0001d	8b 4d fc	 mov	 ecx, DWORD PTR _this$[ebp]
  00020	8b 42 24	 mov	 eax, DWORD PTR [edx+36]
  00023	ff d0		 call	 eax

; 203  : 		}

  00025	5f		 pop	 edi
  00026	5e		 pop	 esi
  00027	5b		 pop	 ebx
  00028	8b e5		 mov	 esp, ebp
  0002a	5d		 pop	 ebp
  0002b	c2 0c 00	 ret	 12			; 0000000cH
?sputn@?$basic_streambuf@DU?$char_traits@D@std@@@std@@QAE_JPBD_J@Z ENDP ; std::basic_streambuf<char,std::char_traits<char> >::sputn
_TEXT	ENDS
PUBLIC	??1_Locinfo@std@@QAE@XZ				; std::_Locinfo::~_Locinfo
PUBLIC	??0?$codecvt@DDH@std@@QAE@ABV_Locinfo@1@I@Z	; std::codecvt<char,char,int>::codecvt<char,char,int>
PUBLIC	??0_Locinfo@std@@QAE@PBD@Z			; std::_Locinfo::_Locinfo
PUBLIC	?c_str@locale@std@@QBEPBDXZ			; std::locale::c_str
;	COMDAT xdata$x
; File d:\microsoft visual studio 10.0\vc\include\xlocale
xdata$x	SEGMENT
__unwindtable$?_Getcat@?$codecvt@DDH@std@@SAIPAPBVfacet@locale@2@PBV42@@Z DD 0ffffffffH
	DD	FLAT:__unwindfunclet$?_Getcat@?$codecvt@DDH@std@@SAIPAPBVfacet@locale@2@PBV42@@Z$0
	DD	00H
	DD	FLAT:__unwindfunclet$?_Getcat@?$codecvt@DDH@std@@SAIPAPBVfacet@locale@2@PBV42@@Z$1
	DD	0ffffffffH
	DD	FLAT:__unwindfunclet$?_Getcat@?$codecvt@DDH@std@@SAIPAPBVfacet@locale@2@PBV42@@Z$1
__ehfuncinfo$?_Getcat@?$codecvt@DDH@std@@SAIPAPBVfacet@locale@2@PBV42@@Z DD 019930522H
	DD	03H
	DD	FLAT:__unwindtable$?_Getcat@?$codecvt@DDH@std@@SAIPAPBVfacet@locale@2@PBV42@@Z
	DD	2 DUP(00H)
	DD	2 DUP(00H)
	DD	00H
	DD	01H
; Function compile flags: /Odtp /ZI
xdata$x	ENDS
;	COMDAT ?_Getcat@?$codecvt@DDH@std@@SAIPAPBVfacet@locale@2@PBV42@@Z
_TEXT	SEGMENT
tv85 = -136						; size = 4
tv91 = -132						; size = 4
tv95 = -128						; size = 4
$T226195 = -124						; size = 4
$T226196 = -120						; size = 4
$T226197 = -116						; size = 36
$T226201 = -80						; size = 4
__$EHRec$ = -12						; size = 12
__Ppf$ = 8						; size = 4
__Ploc$ = 12						; size = 4
?_Getcat@?$codecvt@DDH@std@@SAIPAPBVfacet@locale@2@PBV42@@Z PROC ; std::codecvt<char,char,int>::_Getcat, COMDAT

; 849  : 		{	// return locale category mask and construct standard facet

  00000	55		 push	 ebp
  00001	8b ec		 mov	 ebp, esp
  00003	6a ff		 push	 -1
  00005	68 00 00 00 00	 push	 __ehhandler$?_Getcat@?$codecvt@DDH@std@@SAIPAPBVfacet@locale@2@PBV42@@Z
  0000a	64 a1 00 00 00
	00		 mov	 eax, DWORD PTR fs:0
  00010	50		 push	 eax
  00011	83 ec 7c	 sub	 esp, 124		; 0000007cH
  00014	53		 push	 ebx
  00015	56		 push	 esi
  00016	57		 push	 edi
  00017	a1 00 00 00 00	 mov	 eax, DWORD PTR ___security_cookie
  0001c	33 c5		 xor	 eax, ebp
  0001e	50		 push	 eax
  0001f	8d 45 f4	 lea	 eax, DWORD PTR __$EHRec$[ebp]
  00022	64 a3 00 00 00
	00		 mov	 DWORD PTR fs:0, eax
  00028	c7 45 b0 00 00
	00 00		 mov	 DWORD PTR $T226201[ebp], 0

; 850  : 		if (_Ppf != 0 && *_Ppf == 0)

  0002f	83 7d 08 00	 cmp	 DWORD PTR __Ppf$[ebp], 0
  00033	0f 84 a6 00 00
	00		 je	 $LN1@Getcat
  00039	8b 45 08	 mov	 eax, DWORD PTR __Ppf$[ebp]
  0003c	83 38 00	 cmp	 DWORD PTR [eax], 0
  0003f	0f 85 9a 00 00
	00		 jne	 $LN1@Getcat

; 851  : 			*_Ppf = _NEW_CRT codecvt<_Elem, _Byte, _Statype>(
; 852  : 				_Locinfo(_Ploc->c_str()));

  00045	6a 08		 push	 8
  00047	e8 00 00 00 00	 call	 ??2@YAPAXI@Z		; operator new
  0004c	83 c4 04	 add	 esp, 4
  0004f	89 45 88	 mov	 DWORD PTR $T226196[ebp], eax
  00052	c7 45 fc 00 00
	00 00		 mov	 DWORD PTR __$EHRec$[ebp+8], 0
  00059	83 7d 88 00	 cmp	 DWORD PTR $T226196[ebp], 0
  0005d	74 43		 je	 SHORT $LN4@Getcat
  0005f	6a 00		 push	 0
  00061	8b 4d 0c	 mov	 ecx, DWORD PTR __Ploc$[ebp]
  00064	e8 00 00 00 00	 call	 ?c_str@locale@std@@QBEPBDXZ ; std::locale::c_str
  00069	50		 push	 eax
  0006a	8d 4d 8c	 lea	 ecx, DWORD PTR $T226197[ebp]
  0006d	e8 00 00 00 00	 call	 ??0_Locinfo@std@@QAE@PBD@Z ; std::_Locinfo::_Locinfo
  00072	89 45 80	 mov	 DWORD PTR tv95[ebp], eax
  00075	8b 45 80	 mov	 eax, DWORD PTR tv95[ebp]
  00078	89 85 7c ff ff
	ff		 mov	 DWORD PTR tv91[ebp], eax
  0007e	c6 45 fc 01	 mov	 BYTE PTR __$EHRec$[ebp+8], 1
  00082	8b 4d b0	 mov	 ecx, DWORD PTR $T226201[ebp]
  00085	83 c9 01	 or	 ecx, 1
  00088	89 4d b0	 mov	 DWORD PTR $T226201[ebp], ecx
  0008b	8b 95 7c ff ff
	ff		 mov	 edx, DWORD PTR tv91[ebp]
  00091	52		 push	 edx
  00092	8b 4d 88	 mov	 ecx, DWORD PTR $T226196[ebp]
  00095	e8 00 00 00 00	 call	 ??0?$codecvt@DDH@std@@QAE@ABV_Locinfo@1@I@Z ; std::codecvt<char,char,int>::codecvt<char,char,int>
  0009a	89 85 78 ff ff
	ff		 mov	 DWORD PTR tv85[ebp], eax
  000a0	eb 0a		 jmp	 SHORT $LN5@Getcat
$LN4@Getcat:
  000a2	c7 85 78 ff ff
	ff 00 00 00 00	 mov	 DWORD PTR tv85[ebp], 0
$LN5@Getcat:
  000ac	8b 85 78 ff ff
	ff		 mov	 eax, DWORD PTR tv85[ebp]
  000b2	89 45 84	 mov	 DWORD PTR $T226195[ebp], eax
  000b5	c7 45 fc 02 00
	00 00		 mov	 DWORD PTR __$EHRec$[ebp+8], 2
  000bc	8b 4d 08	 mov	 ecx, DWORD PTR __Ppf$[ebp]
  000bf	8b 55 84	 mov	 edx, DWORD PTR $T226195[ebp]
  000c2	89 11		 mov	 DWORD PTR [ecx], edx
  000c4	c7 45 fc ff ff
	ff ff		 mov	 DWORD PTR __$EHRec$[ebp+8], -1
  000cb	8b 45 b0	 mov	 eax, DWORD PTR $T226201[ebp]
  000ce	83 e0 01	 and	 eax, 1
  000d1	74 0c		 je	 SHORT $LN1@Getcat
  000d3	83 65 b0 fe	 and	 DWORD PTR $T226201[ebp], -2 ; fffffffeH
  000d7	8d 4d 8c	 lea	 ecx, DWORD PTR $T226197[ebp]
  000da	e8 00 00 00 00	 call	 ??1_Locinfo@std@@QAE@XZ	; std::_Locinfo::~_Locinfo
$LN1@Getcat:

; 853  : 		return (_X_CTYPE);

  000df	b8 02 00 00 00	 mov	 eax, 2

; 854  : 		}

  000e4	8b 4d f4	 mov	 ecx, DWORD PTR __$EHRec$[ebp]
  000e7	64 89 0d 00 00
	00 00		 mov	 DWORD PTR fs:0, ecx
  000ee	59		 pop	 ecx
  000ef	5f		 pop	 edi
  000f0	5e		 pop	 esi
  000f1	5b		 pop	 ebx
  000f2	8b e5		 mov	 esp, ebp
  000f4	5d		 pop	 ebp
  000f5	c3		 ret	 0
_TEXT	ENDS
;	COMDAT text$x
text$x	SEGMENT
__unwindfunclet$?_Getcat@?$codecvt@DDH@std@@SAIPAPBVfacet@locale@2@PBV42@@Z$0:
  00000	8b 45 88	 mov	 eax, DWORD PTR $T226196[ebp]
  00003	50		 push	 eax
  00004	e8 00 00 00 00	 call	 ??3@YAXPAX@Z		; operator delete
  00009	59		 pop	 ecx
  0000a	c3		 ret	 0
__unwindfunclet$?_Getcat@?$codecvt@DDH@std@@SAIPAPBVfacet@locale@2@PBV42@@Z$1:
  0000b	8b 45 b0	 mov	 eax, DWORD PTR $T226201[ebp]
  0000e	83 e0 01	 and	 eax, 1
  00011	0f 84 0c 00 00
	00		 je	 $LN8@Getcat
  00017	83 65 b0 fe	 and	 DWORD PTR $T226201[ebp], -2 ; fffffffeH
  0001b	8d 4d 8c	 lea	 ecx, DWORD PTR $T226197[ebp]
  0001e	e9 00 00 00 00	 jmp	 ??1_Locinfo@std@@QAE@XZ	; std::_Locinfo::~_Locinfo
$LN8@Getcat:
  00023	c3		 ret	 0
__ehhandler$?_Getcat@?$codecvt@DDH@std@@SAIPAPBVfacet@locale@2@PBV42@@Z:
  00024	8b 54 24 08	 mov	 edx, DWORD PTR [esp+8]
  00028	8d 42 0c	 lea	 eax, DWORD PTR [edx+12]
  0002b	8b 8a 74 ff ff
	ff		 mov	 ecx, DWORD PTR [edx-140]
  00031	33 c8		 xor	 ecx, eax
  00033	e8 00 00 00 00	 call	 @__security_check_cookie@4
  00038	b8 00 00 00 00	 mov	 eax, OFFSET __ehfuncinfo$?_Getcat@?$codecvt@DDH@std@@SAIPAPBVfacet@locale@2@PBV42@@Z
  0003d	e9 00 00 00 00	 jmp	 ___CxxFrameHandler3
text$x	ENDS
?_Getcat@?$codecvt@DDH@std@@SAIPAPBVfacet@locale@2@PBV42@@Z ENDP ; std::codecvt<char,char,int>::_Getcat
PUBLIC	??1codecvt_base@std@@UAE@XZ			; std::codecvt_base::~codecvt_base
PUBLIC	?_Init@?$codecvt@DDH@std@@IAEXABV_Locinfo@2@@Z	; std::codecvt<char,char,int>::_Init
PUBLIC	??_7?$codecvt@DDH@std@@6B@			; std::codecvt<char,char,int>::`vftable'
PUBLIC	??0codecvt_base@std@@QAE@I@Z			; std::codecvt_base::codecvt_base
PUBLIC	??_R4?$codecvt@DDH@std@@6B@			; std::codecvt<char,char,int>::`RTTI Complete Object Locator'
PUBLIC	??_R0?AV?$codecvt@DDH@std@@@8			; std::codecvt<char,char,int> `RTTI Type Descriptor'
PUBLIC	??_R3?$codecvt@DDH@std@@8			; std::codecvt<char,char,int>::`RTTI Class Hierarchy Descriptor'
PUBLIC	??_R2?$codecvt@DDH@std@@8			; std::codecvt<char,char,int>::`RTTI Base Class Array'
PUBLIC	??_R1A@?0A@EA@?$codecvt@DDH@std@@8		; std::codecvt<char,char,int>::`RTTI Base Class Descriptor at (0,-1,0,64)'
PUBLIC	??_R1A@?0A@EA@codecvt_base@std@@8		; std::codecvt_base::`RTTI Base Class Descriptor at (0,-1,0,64)'
PUBLIC	??_R0?AVcodecvt_base@std@@@8			; std::codecvt_base `RTTI Type Descriptor'
PUBLIC	??_R3codecvt_base@std@@8			; std::codecvt_base::`RTTI Class Hierarchy Descriptor'
PUBLIC	??_R2codecvt_base@std@@8			; std::codecvt_base::`RTTI Base Class Array'
PUBLIC	??_R1A@?0A@EA@facet@locale@std@@8		; std::locale::facet::`RTTI Base Class Descriptor at (0,-1,0,64)'
PUBLIC	??_R0?AVfacet@locale@std@@@8			; std::locale::facet `RTTI Type Descriptor'
PUBLIC	??_R3facet@locale@std@@8			; std::locale::facet::`RTTI Class Hierarchy Descriptor'
PUBLIC	??_R2facet@locale@std@@8			; std::locale::facet::`RTTI Base Class Array'
PUBLIC	?do_always_noconv@codecvt_base@std@@MBE_NXZ	; std::codecvt_base::do_always_noconv
PUBLIC	?do_max_length@codecvt_base@std@@MBEHXZ		; std::codecvt_base::do_max_length
PUBLIC	?do_encoding@codecvt_base@std@@MBEHXZ		; std::codecvt_base::do_encoding
PUBLIC	?do_in@?$codecvt@DDH@std@@MBEHAAHPBD1AAPBDPAD3AAPAD@Z ; std::codecvt<char,char,int>::do_in
PUBLIC	?do_out@?$codecvt@DDH@std@@MBEHAAHPBD1AAPBDPAD3AAPAD@Z ; std::codecvt<char,char,int>::do_out
PUBLIC	?do_unshift@?$codecvt@DDH@std@@MBEHAAHPAD1AAPAD@Z ; std::codecvt<char,char,int>::do_unshift
PUBLIC	?do_length@?$codecvt@DDH@std@@MBEHABHPBD1I@Z	; std::codecvt<char,char,int>::do_length
EXTRN	??_E?$codecvt@DDH@std@@MAEPAXI@Z:PROC		; std::codecvt<char,char,int>::`vector deleting destructor'
;	COMDAT ??_R2facet@locale@std@@8
rdata$r	SEGMENT
??_R2facet@locale@std@@8 DD FLAT:??_R1A@?0A@EA@facet@locale@std@@8 ; std::locale::facet::`RTTI Base Class Array'
rdata$r	ENDS
;	COMDAT ??_R3facet@locale@std@@8
rdata$r	SEGMENT
??_R3facet@locale@std@@8 DD 00H				; std::locale::facet::`RTTI Class Hierarchy Descriptor'
	DD	00H
	DD	01H
	DD	FLAT:??_R2facet@locale@std@@8
rdata$r	ENDS
;	COMDAT ??_R0?AVfacet@locale@std@@@8
_DATA	SEGMENT
??_R0?AVfacet@locale@std@@@8 DD FLAT:??_7type_info@@6B@	; std::locale::facet `RTTI Type Descriptor'
	DD	00H
	DB	'.?AVfacet@locale@std@@', 00H
_DATA	ENDS
;	COMDAT ??_R1A@?0A@EA@facet@locale@std@@8
rdata$r	SEGMENT
??_R1A@?0A@EA@facet@locale@std@@8 DD FLAT:??_R0?AVfacet@locale@std@@@8 ; std::locale::facet::`RTTI Base Class Descriptor at (0,-1,0,64)'
	DD	00H
	DD	00H
	DD	0ffffffffH
	DD	00H
	DD	040H
	DD	FLAT:??_R3facet@locale@std@@8
rdata$r	ENDS
;	COMDAT ??_R2codecvt_base@std@@8
rdata$r	SEGMENT
??_R2codecvt_base@std@@8 DD FLAT:??_R1A@?0A@EA@codecvt_base@std@@8 ; std::codecvt_base::`RTTI Base Class Array'
	DD	FLAT:??_R1A@?0A@EA@facet@locale@std@@8
rdata$r	ENDS
;	COMDAT ??_R3codecvt_base@std@@8
rdata$r	SEGMENT
??_R3codecvt_base@std@@8 DD 00H				; std::codecvt_base::`RTTI Class Hierarchy Descriptor'
	DD	00H
	DD	02H
	DD	FLAT:??_R2codecvt_base@std@@8
rdata$r	ENDS
;	COMDAT ??_R0?AVcodecvt_base@std@@@8
_DATA	SEGMENT
??_R0?AVcodecvt_base@std@@@8 DD FLAT:??_7type_info@@6B@	; std::codecvt_base `RTTI Type Descriptor'
	DD	00H
	DB	'.?AVcodecvt_base@std@@', 00H
_DATA	ENDS
;	COMDAT ??_R1A@?0A@EA@codecvt_base@std@@8
rdata$r	SEGMENT
??_R1A@?0A@EA@codecvt_base@std@@8 DD FLAT:??_R0?AVcodecvt_base@std@@@8 ; std::codecvt_base::`RTTI Base Class Descriptor at (0,-1,0,64)'
	DD	01H
	DD	00H
	DD	0ffffffffH
	DD	00H
	DD	040H
	DD	FLAT:??_R3codecvt_base@std@@8
rdata$r	ENDS
;	COMDAT ??_R1A@?0A@EA@?$codecvt@DDH@std@@8
rdata$r	SEGMENT
??_R1A@?0A@EA@?$codecvt@DDH@std@@8 DD FLAT:??_R0?AV?$codecvt@DDH@std@@@8 ; std::codecvt<char,char,int>::`RTTI Base Class Descriptor at (0,-1,0,64)'
	DD	02H
	DD	00H
	DD	0ffffffffH
	DD	00H
	DD	040H
	DD	FLAT:??_R3?$codecvt@DDH@std@@8
rdata$r	ENDS
;	COMDAT ??_R2?$codecvt@DDH@std@@8
rdata$r	SEGMENT
??_R2?$codecvt@DDH@std@@8 DD FLAT:??_R1A@?0A@EA@?$codecvt@DDH@std@@8 ; std::codecvt<char,char,int>::`RTTI Base Class Array'
	DD	FLAT:??_R1A@?0A@EA@codecvt_base@std@@8
	DD	FLAT:??_R1A@?0A@EA@facet@locale@std@@8
rdata$r	ENDS
;	COMDAT ??_R3?$codecvt@DDH@std@@8
rdata$r	SEGMENT
??_R3?$codecvt@DDH@std@@8 DD 00H			; std::codecvt<char,char,int>::`RTTI Class Hierarchy Descriptor'
	DD	00H
	DD	03H
	DD	FLAT:??_R2?$codecvt@DDH@std@@8
rdata$r	ENDS
;	COMDAT ??_R0?AV?$codecvt@DDH@std@@@8
_DATA	SEGMENT
??_R0?AV?$codecvt@DDH@std@@@8 DD FLAT:??_7type_info@@6B@ ; std::codecvt<char,char,int> `RTTI Type Descriptor'
	DD	00H
	DB	'.?AV?$codecvt@DDH@std@@', 00H
_DATA	ENDS
;	COMDAT ??_R4?$codecvt@DDH@std@@6B@
rdata$r	SEGMENT
??_R4?$codecvt@DDH@std@@6B@ DD 00H			; std::codecvt<char,char,int>::`RTTI Complete Object Locator'
	DD	00H
	DD	00H
	DD	FLAT:??_R0?AV?$codecvt@DDH@std@@@8
	DD	FLAT:??_R3?$codecvt@DDH@std@@8
rdata$r	ENDS
;	COMDAT ??_7?$codecvt@DDH@std@@6B@
CONST	SEGMENT
??_7?$codecvt@DDH@std@@6B@ DD FLAT:??_R4?$codecvt@DDH@std@@6B@ ; std::codecvt<char,char,int>::`vftable'
	DD	FLAT:??_E?$codecvt@DDH@std@@MAEPAXI@Z
	DD	FLAT:?do_always_noconv@codecvt_base@std@@MBE_NXZ
	DD	FLAT:?do_max_length@codecvt_base@std@@MBEHXZ
	DD	FLAT:?do_encoding@codecvt_base@std@@MBEHXZ
	DD	FLAT:?do_in@?$codecvt@DDH@std@@MBEHAAHPBD1AAPBDPAD3AAPAD@Z
	DD	FLAT:?do_out@?$codecvt@DDH@std@@MBEHAAHPBD1AAPBDPAD3AAPAD@Z
	DD	FLAT:?do_unshift@?$codecvt@DDH@std@@MBEHAAHPAD1AAPAD@Z
	DD	FLAT:?do_length@?$codecvt@DDH@std@@MBEHABHPBD1I@Z
CONST	ENDS
;	COMDAT xdata$x
xdata$x	SEGMENT
__unwindtable$??0?$codecvt@DDH@std@@QAE@ABV_Locinfo@1@I@Z DD 0ffffffffH
	DD	FLAT:__unwindfunclet$??0?$codecvt@DDH@std@@QAE@ABV_Locinfo@1@I@Z$0
__ehfuncinfo$??0?$codecvt@DDH@std@@QAE@ABV_Locinfo@1@I@Z DD 019930522H
	DD	01H
	DD	FLAT:__unwindtable$??0?$codecvt@DDH@std@@QAE@ABV_Locinfo@1@I@Z
	DD	2 DUP(00H)
	DD	2 DUP(00H)
	DD	00H
	DD	01H
; Function compile flags: /Odtp /ZI
xdata$x	ENDS
;	COMDAT ??0?$codecvt@DDH@std@@QAE@ABV_Locinfo@1@I@Z
_TEXT	SEGMENT
_this$ = -16						; size = 4
__$EHRec$ = -12						; size = 12
__Lobj$ = 8						; size = 4
__Refs$ = 12						; size = 4
??0?$codecvt@DDH@std@@QAE@ABV_Locinfo@1@I@Z PROC	; std::codecvt<char,char,int>::codecvt<char,char,int>, COMDAT
; _this$ = ecx

; 843  : 		{	// construct from specified locale

  00000	55		 push	 ebp
  00001	8b ec		 mov	 ebp, esp
  00003	6a ff		 push	 -1
  00005	68 00 00 00 00	 push	 __ehhandler$??0?$codecvt@DDH@std@@QAE@ABV_Locinfo@1@I@Z
  0000a	64 a1 00 00 00
	00		 mov	 eax, DWORD PTR fs:0
  00010	50		 push	 eax
  00011	83 ec 44	 sub	 esp, 68			; 00000044H
  00014	53		 push	 ebx
  00015	56		 push	 esi
  00016	57		 push	 edi
  00017	a1 00 00 00 00	 mov	 eax, DWORD PTR ___security_cookie
  0001c	33 c5		 xor	 eax, ebp
  0001e	50		 push	 eax
  0001f	8d 45 f4	 lea	 eax, DWORD PTR __$EHRec$[ebp]
  00022	64 a3 00 00 00
	00		 mov	 DWORD PTR fs:0, eax
  00028	89 4d f0	 mov	 DWORD PTR _this$[ebp], ecx
  0002b	8b 45 0c	 mov	 eax, DWORD PTR __Refs$[ebp]
  0002e	50		 push	 eax
  0002f	8b 4d f0	 mov	 ecx, DWORD PTR _this$[ebp]
  00032	e8 00 00 00 00	 call	 ??0codecvt_base@std@@QAE@I@Z ; std::codecvt_base::codecvt_base
  00037	c7 45 fc 00 00
	00 00		 mov	 DWORD PTR __$EHRec$[ebp+8], 0
  0003e	8b 45 f0	 mov	 eax, DWORD PTR _this$[ebp]
  00041	c7 00 00 00 00
	00		 mov	 DWORD PTR [eax], OFFSET ??_7?$codecvt@DDH@std@@6B@

; 844  : 		_Init(_Lobj);

  00047	8b 45 08	 mov	 eax, DWORD PTR __Lobj$[ebp]
  0004a	50		 push	 eax
  0004b	8b 4d f0	 mov	 ecx, DWORD PTR _this$[ebp]
  0004e	e8 00 00 00 00	 call	 ?_Init@?$codecvt@DDH@std@@IAEXABV_Locinfo@2@@Z ; std::codecvt<char,char,int>::_Init

; 845  : 		}

  00053	c7 45 fc ff ff
	ff ff		 mov	 DWORD PTR __$EHRec$[ebp+8], -1
  0005a	8b 45 f0	 mov	 eax, DWORD PTR _this$[ebp]
  0005d	8b 4d f4	 mov	 ecx, DWORD PTR __$EHRec$[ebp]
  00060	64 89 0d 00 00
	00 00		 mov	 DWORD PTR fs:0, ecx
  00067	59		 pop	 ecx
  00068	5f		 pop	 edi
  00069	5e		 pop	 esi
  0006a	5b		 pop	 ebx
  0006b	8b e5		 mov	 esp, ebp
  0006d	5d		 pop	 ebp
  0006e	c2 08 00	 ret	 8
_TEXT	ENDS
;	COMDAT text$x
text$x	SEGMENT
__unwindfunclet$??0?$codecvt@DDH@std@@QAE@ABV_Locinfo@1@I@Z$0:
  00000	8b 4d f0	 mov	 ecx, DWORD PTR _this$[ebp]
  00003	e9 00 00 00 00	 jmp	 ??1codecvt_base@std@@UAE@XZ ; std::codecvt_base::~codecvt_base
__ehhandler$??0?$codecvt@DDH@std@@QAE@ABV_Locinfo@1@I@Z:
  00008	8b 54 24 08	 mov	 edx, DWORD PTR [esp+8]
  0000c	8d 42 0c	 lea	 eax, DWORD PTR [edx+12]
  0000f	8b 4a ac	 mov	 ecx, DWORD PTR [edx-84]
  00012	33 c8		 xor	 ecx, eax
  00014	e8 00 00 00 00	 call	 @__security_check_cookie@4
  00019	b8 00 00 00 00	 mov	 eax, OFFSET __ehfuncinfo$??0?$codecvt@DDH@std@@QAE@ABV_Locinfo@1@I@Z
  0001e	e9 00 00 00 00	 jmp	 ___CxxFrameHandler3
text$x	ENDS
??0?$codecvt@DDH@std@@QAE@ABV_Locinfo@1@I@Z ENDP	; std::codecvt<char,char,int>::codecvt<char,char,int>
; Function compile flags: /Odtp /ZI
;	COMDAT ?do_in@?$codecvt@DDH@std@@MBEHAAHPBD1AAPBDPAD3AAPAD@Z
_TEXT	SEGMENT
_this$ = -4						; size = 4
___formal$ = 8						; size = 4
__First1$ = 12						; size = 4
___formal$ = 16						; size = 4
__Mid1$ = 20						; size = 4
__First2$ = 24						; size = 4
___formal$ = 28						; size = 4
__Mid2$ = 32						; size = 4
?do_in@?$codecvt@DDH@std@@MBEHAAHPBD1AAPBDPAD3AAPAD@Z PROC ; std::codecvt<char,char,int>::do_in, COMDAT
; _this$ = ecx

; 868  : 		{	// convert bytes [_First1, _Last1) to [_First2, _Last)

  00000	55		 push	 ebp
  00001	8b ec		 mov	 ebp, esp
  00003	83 ec 44	 sub	 esp, 68			; 00000044H
  00006	53		 push	 ebx
  00007	56		 push	 esi
  00008	57		 push	 edi
  00009	89 4d fc	 mov	 DWORD PTR _this$[ebp], ecx

; 869  : 		_Mid1 = _First1, _Mid2 = _First2;

  0000c	8b 45 14	 mov	 eax, DWORD PTR __Mid1$[ebp]
  0000f	8b 4d 0c	 mov	 ecx, DWORD PTR __First1$[ebp]
  00012	89 08		 mov	 DWORD PTR [eax], ecx
  00014	8b 55 20	 mov	 edx, DWORD PTR __Mid2$[ebp]
  00017	8b 45 18	 mov	 eax, DWORD PTR __First2$[ebp]
  0001a	89 02		 mov	 DWORD PTR [edx], eax

; 870  : 		return (noconv);	// convert nothing

  0001c	b8 03 00 00 00	 mov	 eax, 3

; 871  : 		}

  00021	5f		 pop	 edi
  00022	5e		 pop	 esi
  00023	5b		 pop	 ebx
  00024	8b e5		 mov	 esp, ebp
  00026	5d		 pop	 ebp
  00027	c2 1c 00	 ret	 28			; 0000001cH
?do_in@?$codecvt@DDH@std@@MBEHAAHPBD1AAPBDPAD3AAPAD@Z ENDP ; std::codecvt<char,char,int>::do_in
; Function compile flags: /Odtp /ZI
_TEXT	ENDS
;	COMDAT ?do_out@?$codecvt@DDH@std@@MBEHAAHPBD1AAPBDPAD3AAPAD@Z
_TEXT	SEGMENT
_this$ = -4						; size = 4
___formal$ = 8						; size = 4
__First1$ = 12						; size = 4
___formal$ = 16						; size = 4
__Mid1$ = 20						; size = 4
__First2$ = 24						; size = 4
___formal$ = 28						; size = 4
__Mid2$ = 32						; size = 4
?do_out@?$codecvt@DDH@std@@MBEHAAHPBD1AAPBDPAD3AAPAD@Z PROC ; std::codecvt<char,char,int>::do_out, COMDAT
; _this$ = ecx

; 876  : 		{	// convert [_First1, _Last1) to bytes [_First2, _Last)

  00000	55		 push	 ebp
  00001	8b ec		 mov	 ebp, esp
  00003	83 ec 44	 sub	 esp, 68			; 00000044H
  00006	53		 push	 ebx
  00007	56		 push	 esi
  00008	57		 push	 edi
  00009	89 4d fc	 mov	 DWORD PTR _this$[ebp], ecx

; 877  : 		_Mid1 = _First1, _Mid2 = _First2;

  0000c	8b 45 14	 mov	 eax, DWORD PTR __Mid1$[ebp]
  0000f	8b 4d 0c	 mov	 ecx, DWORD PTR __First1$[ebp]
  00012	89 08		 mov	 DWORD PTR [eax], ecx
  00014	8b 55 20	 mov	 edx, DWORD PTR __Mid2$[ebp]
  00017	8b 45 18	 mov	 eax, DWORD PTR __First2$[ebp]
  0001a	89 02		 mov	 DWORD PTR [edx], eax

; 878  : 		return (noconv);	// convert nothing

  0001c	b8 03 00 00 00	 mov	 eax, 3

; 879  : 		}

  00021	5f		 pop	 edi
  00022	5e		 pop	 esi
  00023	5b		 pop	 ebx
  00024	8b e5		 mov	 esp, ebp
  00026	5d		 pop	 ebp
  00027	c2 1c 00	 ret	 28			; 0000001cH
?do_out@?$codecvt@DDH@std@@MBEHAAHPBD1AAPBDPAD3AAPAD@Z ENDP ; std::codecvt<char,char,int>::do_out
; Function compile flags: /Odtp /ZI
_TEXT	ENDS
;	COMDAT ?do_unshift@?$codecvt@DDH@std@@MBEHAAHPAD1AAPAD@Z
_TEXT	SEGMENT
_this$ = -4						; size = 4
___formal$ = 8						; size = 4
__First2$ = 12						; size = 4
___formal$ = 16						; size = 4
__Mid2$ = 20						; size = 4
?do_unshift@?$codecvt@DDH@std@@MBEHAAHPAD1AAPAD@Z PROC	; std::codecvt<char,char,int>::do_unshift, COMDAT
; _this$ = ecx

; 883  : 		{	// generate bytes to return to default shift state

  00000	55		 push	 ebp
  00001	8b ec		 mov	 ebp, esp
  00003	83 ec 44	 sub	 esp, 68			; 00000044H
  00006	53		 push	 ebx
  00007	56		 push	 esi
  00008	57		 push	 edi
  00009	89 4d fc	 mov	 DWORD PTR _this$[ebp], ecx

; 884  : 		_Mid2 = _First2;

  0000c	8b 45 14	 mov	 eax, DWORD PTR __Mid2$[ebp]
  0000f	8b 4d 0c	 mov	 ecx, DWORD PTR __First2$[ebp]
  00012	89 08		 mov	 DWORD PTR [eax], ecx

; 885  : 		return (noconv);	// convert nothing

  00014	b8 03 00 00 00	 mov	 eax, 3

; 886  : 		}

  00019	5f		 pop	 edi
  0001a	5e		 pop	 esi
  0001b	5b		 pop	 ebx
  0001c	8b e5		 mov	 esp, ebp
  0001e	5d		 pop	 ebp
  0001f	c2 10 00	 ret	 16			; 00000010H
?do_unshift@?$codecvt@DDH@std@@MBEHAAHPAD1AAPAD@Z ENDP	; std::codecvt<char,char,int>::do_unshift
; Function compile flags: /Odtp /ZI
_TEXT	ENDS
;	COMDAT ?do_length@?$codecvt@DDH@std@@MBEHABHPBD1I@Z
_TEXT	SEGMENT
tv67 = -72						; size = 4
_this$ = -4						; size = 4
___formal$ = 8						; size = 4
__First1$ = 12						; size = 4
__Last1$ = 16						; size = 4
__Count$ = 20						; size = 4
?do_length@?$codecvt@DDH@std@@MBEHABHPBD1I@Z PROC	; std::codecvt<char,char,int>::do_length, COMDAT
; _this$ = ecx

; 890  : 		{	// return min(_Count, converted length of bytes [_First1, _Last1))

  00000	55		 push	 ebp
  00001	8b ec		 mov	 ebp, esp
  00003	83 ec 48	 sub	 esp, 72			; 00000048H
  00006	53		 push	 ebx
  00007	56		 push	 esi
  00008	57		 push	 edi
  00009	89 4d fc	 mov	 DWORD PTR _this$[ebp], ecx

; 891  : 		return ((int)(_Count < (size_t)(_Last1 - _First1)
; 892  : 			? _Count : _Last1 - _First1));	// assume 1-to-1 conversion

  0000c	8b 45 10	 mov	 eax, DWORD PTR __Last1$[ebp]
  0000f	2b 45 0c	 sub	 eax, DWORD PTR __First1$[ebp]
  00012	39 45 14	 cmp	 DWORD PTR __Count$[ebp], eax
  00015	73 08		 jae	 SHORT $LN3@do_length
  00017	8b 4d 14	 mov	 ecx, DWORD PTR __Count$[ebp]
  0001a	89 4d b8	 mov	 DWORD PTR tv67[ebp], ecx
  0001d	eb 09		 jmp	 SHORT $LN4@do_length
$LN3@do_length:
  0001f	8b 55 10	 mov	 edx, DWORD PTR __Last1$[ebp]
  00022	2b 55 0c	 sub	 edx, DWORD PTR __First1$[ebp]
  00025	89 55 b8	 mov	 DWORD PTR tv67[ebp], edx
$LN4@do_length:
  00028	8b 45 b8	 mov	 eax, DWORD PTR tv67[ebp]

; 893  : 		}

  0002b	5f		 pop	 edi
  0002c	5e		 pop	 esi
  0002d	5b		 pop	 ebx
  0002e	8b e5		 mov	 esp, ebp
  00030	5d		 pop	 ebp
  00031	c2 10 00	 ret	 16			; 00000010H
?do_length@?$codecvt@DDH@std@@MBEHABHPBD1I@Z ENDP	; std::codecvt<char,char,int>::do_length
_TEXT	ENDS
PUBLIC	??1?$codecvt@DDH@std@@MAE@XZ			; std::codecvt<char,char,int>::~codecvt<char,char,int>
; Function compile flags: /Odtp /ZI
;	COMDAT ??_G?$codecvt@DDH@std@@MAEPAXI@Z
_TEXT	SEGMENT
_this$ = -4						; size = 4
___flags$ = 8						; size = 4
??_G?$codecvt@DDH@std@@MAEPAXI@Z PROC			; std::codecvt<char,char,int>::`scalar deleting destructor', COMDAT
; _this$ = ecx
  00000	55		 push	 ebp
  00001	8b ec		 mov	 ebp, esp
  00003	83 ec 44	 sub	 esp, 68			; 00000044H
  00006	53		 push	 ebx
  00007	56		 push	 esi
  00008	57		 push	 edi
  00009	89 4d fc	 mov	 DWORD PTR _this$[ebp], ecx
  0000c	8b 4d fc	 mov	 ecx, DWORD PTR _this$[ebp]
  0000f	e8 00 00 00 00	 call	 ??1?$codecvt@DDH@std@@MAE@XZ ; std::codecvt<char,char,int>::~codecvt<char,char,int>
  00014	8b 45 08	 mov	 eax, DWORD PTR ___flags$[ebp]
  00017	83 e0 01	 and	 eax, 1
  0001a	74 0c		 je	 SHORT $LN1@scalar@3
  0001c	8b 45 fc	 mov	 eax, DWORD PTR _this$[ebp]
  0001f	50		 push	 eax
  00020	e8 00 00 00 00	 call	 ??3@YAXPAX@Z		; operator delete
  00025	83 c4 04	 add	 esp, 4
$LN1@scalar@3:
  00028	8b 45 fc	 mov	 eax, DWORD PTR _this$[ebp]
  0002b	5f		 pop	 edi
  0002c	5e		 pop	 esi
  0002d	5b		 pop	 ebx
  0002e	8b e5		 mov	 esp, ebp
  00030	5d		 pop	 ebp
  00031	c2 04 00	 ret	 4
??_G?$codecvt@DDH@std@@MAEPAXI@Z ENDP			; std::codecvt<char,char,int>::`scalar deleting destructor'
; Function compile flags: /Odtp /ZI
_TEXT	ENDS
;	COMDAT ??1?$codecvt@DDH@std@@MAE@XZ
_TEXT	SEGMENT
_this$ = -4						; size = 4
??1?$codecvt@DDH@std@@MAE@XZ PROC			; std::codecvt<char,char,int>::~codecvt<char,char,int>, COMDAT
; _this$ = ecx

; 858  : 		{	// destroy the object

  00000	55		 push	 ebp
  00001	8b ec		 mov	 ebp, esp
  00003	83 ec 44	 sub	 esp, 68			; 00000044H
  00006	53		 push	 ebx
  00007	56		 push	 esi
  00008	57		 push	 edi
  00009	89 4d fc	 mov	 DWORD PTR _this$[ebp], ecx
  0000c	8b 45 fc	 mov	 eax, DWORD PTR _this$[ebp]
  0000f	c7 00 00 00 00
	00		 mov	 DWORD PTR [eax], OFFSET ??_7?$codecvt@DDH@std@@6B@

; 859  : 		}

  00015	8b 4d fc	 mov	 ecx, DWORD PTR _this$[ebp]
  00018	e8 00 00 00 00	 call	 ??1codecvt_base@std@@UAE@XZ ; std::codecvt_base::~codecvt_base
  0001d	5f		 pop	 edi
  0001e	5e		 pop	 esi
  0001f	5b		 pop	 ebx
  00020	8b e5		 mov	 esp, ebp
  00022	5d		 pop	 ebp
  00023	c3		 ret	 0
??1?$codecvt@DDH@std@@MAE@XZ ENDP			; std::codecvt<char,char,int>::~codecvt<char,char,int>
; Function compile flags: /Odtp /ZI
_TEXT	ENDS
;	COMDAT ?_Init@?$codecvt@DDH@std@@IAEXABV_Locinfo@2@@Z
_TEXT	SEGMENT
_this$ = -4						; size = 4
___formal$ = 8						; size = 4
?_Init@?$codecvt@DDH@std@@IAEXABV_Locinfo@2@@Z PROC	; std::codecvt<char,char,int>::_Init, COMDAT
; _this$ = ecx

; 862  : 		{	// initialize from _Locinfo object

  00000	55		 push	 ebp
  00001	8b ec		 mov	 ebp, esp
  00003	83 ec 44	 sub	 esp, 68			; 00000044H
  00006	53		 push	 ebx
  00007	56		 push	 esi
  00008	57		 push	 edi
  00009	89 4d fc	 mov	 DWORD PTR _this$[ebp], ecx

; 863  : 		}

  0000c	5f		 pop	 edi
  0000d	5e		 pop	 esi
  0000e	5b		 pop	 ebx
  0000f	8b e5		 mov	 esp, ebp
  00011	5d		 pop	 ebp
  00012	c2 04 00	 ret	 4
?_Init@?$codecvt@DDH@std@@IAEXABV_Locinfo@2@@Z ENDP	; std::codecvt<char,char,int>::_Init
; Function compile flags: /Odtp /ZI
; File d:\microsoft visual studio 10.0\vc\atlmfc\include\atltime.inl
_TEXT	ENDS
;	COMDAT ?GetTime@CTime@ATL@@QBE_JXZ
_TEXT	SEGMENT
_this$ = -4						; size = 4
?GetTime@CTime@ATL@@QBE_JXZ PROC			; ATL::CTime::GetTime, COMDAT
; _this$ = ecx

; 414  : {

  00000	55		 push	 ebp
  00001	8b ec		 mov	 ebp, esp
  00003	83 ec 44	 sub	 esp, 68			; 00000044H
  00006	53		 push	 ebx
  00007	56		 push	 esi
  00008	57		 push	 edi
  00009	89 4d fc	 mov	 DWORD PTR _this$[ebp], ecx

; 415  : 	return( m_time );

  0000c	8b 4d fc	 mov	 ecx, DWORD PTR _this$[ebp]
  0000f	8b 01		 mov	 eax, DWORD PTR [ecx]
  00011	8b 51 04	 mov	 edx, DWORD PTR [ecx+4]

; 416  : }

  00014	5f		 pop	 edi
  00015	5e		 pop	 esi
  00016	5b		 pop	 ebx
  00017	8b e5		 mov	 esp, ebp
  00019	5d		 pop	 ebp
  0001a	c3		 ret	 0
?GetTime@CTime@ATL@@QBE_JXZ ENDP			; ATL::CTime::GetTime
; Function compile flags: /Odtp /ZI
; File d:\microsoft visual studio 10.0\vc\include\iosfwd
_TEXT	ENDS
;	COMDAT ?length@?$char_traits@D@std@@SAIPBD@Z
_TEXT	SEGMENT
__First$ = 8						; size = 4
?length@?$char_traits@D@std@@SAIPBD@Z PROC		; std::char_traits<char>::length, COMDAT

; 490  : 		{	// find length of null-terminated string

  00000	55		 push	 ebp
  00001	8b ec		 mov	 ebp, esp
  00003	83 ec 40	 sub	 esp, 64			; 00000040H
  00006	53		 push	 ebx
  00007	56		 push	 esi
  00008	57		 push	 edi

; 491  : 		return (_CSTD strlen(_First));

  00009	8b 45 08	 mov	 eax, DWORD PTR __First$[ebp]
  0000c	50		 push	 eax
  0000d	e8 00 00 00 00	 call	 _strlen
  00012	83 c4 04	 add	 esp, 4

; 492  : 		}

  00015	5f		 pop	 edi
  00016	5e		 pop	 esi
  00017	5b		 pop	 ebx
  00018	8b e5		 mov	 esp, ebp
  0001a	5d		 pop	 ebp
  0001b	c3		 ret	 0
?length@?$char_traits@D@std@@SAIPBD@Z ENDP		; std::char_traits<char>::length
; Function compile flags: /Odtp /ZI
_TEXT	ENDS
;	COMDAT ?to_char_type@?$char_traits@D@std@@SADABH@Z
_TEXT	SEGMENT
__Meta$ = 8						; size = 4
?to_char_type@?$char_traits@D@std@@SADABH@Z PROC	; std::char_traits<char>::to_char_type, COMDAT

; 541  : 		{	// convert metacharacter to character

  00000	55		 push	 ebp
  00001	8b ec		 mov	 ebp, esp
  00003	83 ec 40	 sub	 esp, 64			; 00000040H
  00006	53		 push	 ebx
  00007	56		 push	 esi
  00008	57		 push	 edi

; 542  : 		return ((_Elem)_Meta);

  00009	8b 45 08	 mov	 eax, DWORD PTR __Meta$[ebp]
  0000c	8a 00		 mov	 al, BYTE PTR [eax]

; 543  : 		}

  0000e	5f		 pop	 edi
  0000f	5e		 pop	 esi
  00010	5b		 pop	 ebx
  00011	8b e5		 mov	 esp, ebp
  00013	5d		 pop	 ebp
  00014	c3		 ret	 0
?to_char_type@?$char_traits@D@std@@SADABH@Z ENDP	; std::char_traits<char>::to_char_type
; Function compile flags: /Odtp /ZI
_TEXT	ENDS
;	COMDAT ?to_int_type@?$char_traits@D@std@@SAHABD@Z
_TEXT	SEGMENT
__Ch$ = 8						; size = 4
?to_int_type@?$char_traits@D@std@@SAHABD@Z PROC		; std::char_traits<char>::to_int_type, COMDAT

; 546  : 		{	// convert character to metacharacter

  00000	55		 push	 ebp
  00001	8b ec		 mov	 ebp, esp
  00003	83 ec 40	 sub	 esp, 64			; 00000040H
  00006	53		 push	 ebx
  00007	56		 push	 esi
  00008	57		 push	 edi

; 547  : 		return ((unsigned char)_Ch);

  00009	8b 45 08	 mov	 eax, DWORD PTR __Ch$[ebp]
  0000c	0f b6 00	 movzx	 eax, BYTE PTR [eax]

; 548  : 		}

  0000f	5f		 pop	 edi
  00010	5e		 pop	 esi
  00011	5b		 pop	 ebx
  00012	8b e5		 mov	 esp, ebp
  00014	5d		 pop	 ebp
  00015	c3		 ret	 0
?to_int_type@?$char_traits@D@std@@SAHABD@Z ENDP		; std::char_traits<char>::to_int_type
; Function compile flags: /Odtp /ZI
_TEXT	ENDS
;	COMDAT ?eq_int_type@?$char_traits@D@std@@SA_NABH0@Z
_TEXT	SEGMENT
__Left$ = 8						; size = 4
__Right$ = 12						; size = 4
?eq_int_type@?$char_traits@D@std@@SA_NABH0@Z PROC	; std::char_traits<char>::eq_int_type, COMDAT

; 552  : 		{	// test for metacharacter equality

  00000	55		 push	 ebp
  00001	8b ec		 mov	 ebp, esp
  00003	83 ec 40	 sub	 esp, 64			; 00000040H
  00006	53		 push	 ebx
  00007	56		 push	 esi
  00008	57		 push	 edi

; 553  : 		return (_Left == _Right);

  00009	8b 45 08	 mov	 eax, DWORD PTR __Left$[ebp]
  0000c	8b 4d 0c	 mov	 ecx, DWORD PTR __Right$[ebp]
  0000f	8b 10		 mov	 edx, DWORD PTR [eax]
  00011	33 c0		 xor	 eax, eax
  00013	3b 11		 cmp	 edx, DWORD PTR [ecx]
  00015	0f 94 c0	 sete	 al

; 554  : 		}

  00018	5f		 pop	 edi
  00019	5e		 pop	 esi
  0001a	5b		 pop	 ebx
  0001b	8b e5		 mov	 esp, ebp
  0001d	5d		 pop	 ebp
  0001e	c3		 ret	 0
?eq_int_type@?$char_traits@D@std@@SA_NABH0@Z ENDP	; std::char_traits<char>::eq_int_type
; Function compile flags: /Odtp /ZI
_TEXT	ENDS
;	COMDAT ?not_eof@?$char_traits@D@std@@SAHABH@Z
_TEXT	SEGMENT
tv69 = -68						; size = 4
__Meta$ = 8						; size = 4
?not_eof@?$char_traits@D@std@@SAHABH@Z PROC		; std::char_traits<char>::not_eof, COMDAT

; 557  : 		{	// return anything but EOF

  00000	55		 push	 ebp
  00001	8b ec		 mov	 ebp, esp
  00003	83 ec 44	 sub	 esp, 68			; 00000044H
  00006	53		 push	 ebx
  00007	56		 push	 esi
  00008	57		 push	 edi

; 558  : 		return (_Meta != eof() ? _Meta : !eof());

  00009	e8 00 00 00 00	 call	 ?eof@?$char_traits@D@std@@SAHXZ ; std::char_traits<char>::eof
  0000e	8b 4d 08	 mov	 ecx, DWORD PTR __Meta$[ebp]
  00011	39 01		 cmp	 DWORD PTR [ecx], eax
  00013	74 0a		 je	 SHORT $LN3@not_eof
  00015	8b 55 08	 mov	 edx, DWORD PTR __Meta$[ebp]
  00018	8b 02		 mov	 eax, DWORD PTR [edx]
  0001a	89 45 bc	 mov	 DWORD PTR tv69[ebp], eax
  0001d	eb 0f		 jmp	 SHORT $LN4@not_eof
$LN3@not_eof:
  0001f	e8 00 00 00 00	 call	 ?eof@?$char_traits@D@std@@SAHXZ ; std::char_traits<char>::eof
  00024	f7 d8		 neg	 eax
  00026	1b c0		 sbb	 eax, eax
  00028	83 c0 01	 add	 eax, 1
  0002b	89 45 bc	 mov	 DWORD PTR tv69[ebp], eax
$LN4@not_eof:
  0002e	8b 45 bc	 mov	 eax, DWORD PTR tv69[ebp]

; 559  : 		}

  00031	5f		 pop	 edi
  00032	5e		 pop	 esi
  00033	5b		 pop	 ebx
  00034	8b e5		 mov	 esp, ebp
  00036	5d		 pop	 ebp
  00037	c3		 ret	 0
?not_eof@?$char_traits@D@std@@SAHABH@Z ENDP		; std::char_traits<char>::not_eof
; Function compile flags: /Odtp /ZI
_TEXT	ENDS
;	COMDAT ?eof@?$char_traits@D@std@@SAHXZ
_TEXT	SEGMENT
?eof@?$char_traits@D@std@@SAHXZ PROC			; std::char_traits<char>::eof, COMDAT

; 562  : 		{	// return end-of-file metacharacter

  00000	55		 push	 ebp
  00001	8b ec		 mov	 ebp, esp
  00003	83 ec 40	 sub	 esp, 64			; 00000040H
  00006	53		 push	 ebx
  00007	56		 push	 esi
  00008	57		 push	 edi

; 563  : 		return (EOF);

  00009	83 c8 ff	 or	 eax, -1

; 564  : 		}

  0000c	5f		 pop	 edi
  0000d	5e		 pop	 esi
  0000e	5b		 pop	 ebx
  0000f	8b e5		 mov	 esp, ebp
  00011	5d		 pop	 ebp
  00012	c3		 ret	 0
?eof@?$char_traits@D@std@@SAHXZ ENDP			; std::char_traits<char>::eof
_TEXT	ENDS
PUBLIC	??1?$_Yarn@D@std@@QAE@XZ			; std::_Yarn<char>::~_Yarn<char>
PUBLIC	__TI2?AVruntime_error@std@@
PUBLIC	??0runtime_error@std@@QAE@PBD@Z			; std::runtime_error::runtime_error
PUBLIC	??_C@_0BA@ELKIONDK@bad?5locale?5name?$AA@	; `string'
PUBLIC	??0?$_Yarn@D@std@@QAE@XZ			; std::_Yarn<char>::_Yarn<char>
PUBLIC	??1runtime_error@std@@UAE@XZ			; std::runtime_error::~runtime_error
PUBLIC	__CTA2?AVruntime_error@std@@
PUBLIC	__CT??_R0?AVruntime_error@std@@@8??0runtime_error@std@@QAE@ABV01@@Z12
PUBLIC	??_R0?AVruntime_error@std@@@8			; std::runtime_error `RTTI Type Descriptor'
PUBLIC	??0runtime_error@std@@QAE@ABV01@@Z		; std::runtime_error::runtime_error
EXTRN	?_Locinfo_ctor@_Locinfo@std@@SAXPAV12@PBD@Z:PROC ; std::_Locinfo::_Locinfo_ctor
;	COMDAT ??_R0?AVruntime_error@std@@@8
; File d:\microsoft visual studio 10.0\vc\include\xlocinfo
_DATA	SEGMENT
??_R0?AVruntime_error@std@@@8 DD FLAT:??_7type_info@@6B@ ; std::runtime_error `RTTI Type Descriptor'
	DD	00H
	DB	'.?AVruntime_error@std@@', 00H
_DATA	ENDS
;	COMDAT __CT??_R0?AVruntime_error@std@@@8??0runtime_error@std@@QAE@ABV01@@Z12
xdata$x	SEGMENT
__CT??_R0?AVruntime_error@std@@@8??0runtime_error@std@@QAE@ABV01@@Z12 DD 00H
	DD	FLAT:??_R0?AVruntime_error@std@@@8
	DD	00H
	DD	0ffffffffH
	ORG $+4
	DD	0cH
	DD	FLAT:??0runtime_error@std@@QAE@ABV01@@Z
xdata$x	ENDS
;	COMDAT __CTA2?AVruntime_error@std@@
xdata$x	SEGMENT
__CTA2?AVruntime_error@std@@ DD 02H
	DD	FLAT:__CT??_R0?AVruntime_error@std@@@8??0runtime_error@std@@QAE@ABV01@@Z12
	DD	FLAT:__CT??_R0?AVexception@std@@@8??0exception@std@@QAE@ABV01@@Z12
xdata$x	ENDS
;	COMDAT __TI2?AVruntime_error@std@@
xdata$x	SEGMENT
__TI2?AVruntime_error@std@@ DD 00H
	DD	FLAT:??1runtime_error@std@@UAE@XZ
	DD	00H
	DD	FLAT:__CTA2?AVruntime_error@std@@
xdata$x	ENDS
;	COMDAT ??_C@_0BA@ELKIONDK@bad?5locale?5name?$AA@
CONST	SEGMENT
??_C@_0BA@ELKIONDK@bad?5locale?5name?$AA@ DB 'bad locale name', 00H ; `string'
CONST	ENDS
;	COMDAT xdata$x
xdata$x	SEGMENT
__ehfuncinfo$??0_Locinfo@std@@QAE@PBD@Z DD 019930522H
	DD	05H
	DD	FLAT:__unwindtable$??0_Locinfo@std@@QAE@PBD@Z
	DD	2 DUP(00H)
	DD	2 DUP(00H)
	DD	00H
	DD	01H
__unwindtable$??0_Locinfo@std@@QAE@PBD@Z DD 0ffffffffH
	DD	FLAT:__unwindfunclet$??0_Locinfo@std@@QAE@PBD@Z$0
	DD	00H
	DD	FLAT:__unwindfunclet$??0_Locinfo@std@@QAE@PBD@Z$1
	DD	01H
	DD	FLAT:__unwindfunclet$??0_Locinfo@std@@QAE@PBD@Z$2
	DD	02H
	DD	FLAT:__unwindfunclet$??0_Locinfo@std@@QAE@PBD@Z$3
	DD	03H
	DD	FLAT:__unwindfunclet$??0_Locinfo@std@@QAE@PBD@Z$4
; Function compile flags: /Odtp /ZI
xdata$x	ENDS
;	COMDAT ??0_Locinfo@std@@QAE@PBD@Z
_TEXT	SEGMENT
$T226255 = -92						; size = 12
_this$ = -16						; size = 4
__$EHRec$ = -12						; size = 12
__Pch$ = 8						; size = 4
??0_Locinfo@std@@QAE@PBD@Z PROC				; std::_Locinfo::_Locinfo, COMDAT
; _this$ = ecx

; 76   :         {	// construct from NTBS

  00000	55		 push	 ebp
  00001	8b ec		 mov	 ebp, esp
  00003	6a ff		 push	 -1
  00005	68 00 00 00 00	 push	 __ehhandler$??0_Locinfo@std@@QAE@PBD@Z
  0000a	64 a1 00 00 00
	00		 mov	 eax, DWORD PTR fs:0
  00010	50		 push	 eax
  00011	83 ec 50	 sub	 esp, 80			; 00000050H
  00014	53		 push	 ebx
  00015	56		 push	 esi
  00016	57		 push	 edi
  00017	a1 00 00 00 00	 mov	 eax, DWORD PTR ___security_cookie
  0001c	33 c5		 xor	 eax, ebp
  0001e	50		 push	 eax
  0001f	8d 45 f4	 lea	 eax, DWORD PTR __$EHRec$[ebp]
  00022	64 a3 00 00 00
	00		 mov	 DWORD PTR fs:0, eax
  00028	89 4d f0	 mov	 DWORD PTR _this$[ebp], ecx
  0002b	6a 00		 push	 0
  0002d	8b 4d f0	 mov	 ecx, DWORD PTR _this$[ebp]
  00030	e8 00 00 00 00	 call	 ??0_Lockit@std@@QAE@H@Z	; std::_Lockit::_Lockit
  00035	c7 45 fc 00 00
	00 00		 mov	 DWORD PTR __$EHRec$[ebp+8], 0
  0003c	8b 4d f0	 mov	 ecx, DWORD PTR _this$[ebp]
  0003f	83 c1 04	 add	 ecx, 4
  00042	e8 00 00 00 00	 call	 ??0?$_Yarn@D@std@@QAE@XZ ; std::_Yarn<char>::_Yarn<char>
  00047	c6 45 fc 01	 mov	 BYTE PTR __$EHRec$[ebp+8], 1
  0004b	8b 4d f0	 mov	 ecx, DWORD PTR _this$[ebp]
  0004e	83 c1 0c	 add	 ecx, 12			; 0000000cH
  00051	e8 00 00 00 00	 call	 ??0?$_Yarn@D@std@@QAE@XZ ; std::_Yarn<char>::_Yarn<char>
  00056	c6 45 fc 02	 mov	 BYTE PTR __$EHRec$[ebp+8], 2
  0005a	8b 4d f0	 mov	 ecx, DWORD PTR _this$[ebp]
  0005d	83 c1 14	 add	 ecx, 20			; 00000014H
  00060	e8 00 00 00 00	 call	 ??0?$_Yarn@D@std@@QAE@XZ ; std::_Yarn<char>::_Yarn<char>
  00065	c6 45 fc 03	 mov	 BYTE PTR __$EHRec$[ebp+8], 3
  00069	8b 4d f0	 mov	 ecx, DWORD PTR _this$[ebp]
  0006c	83 c1 1c	 add	 ecx, 28			; 0000001cH
  0006f	e8 00 00 00 00	 call	 ??0?$_Yarn@D@std@@QAE@XZ ; std::_Yarn<char>::_Yarn<char>
  00074	c6 45 fc 04	 mov	 BYTE PTR __$EHRec$[ebp+8], 4

; 77   :         if (_Pch == 0)

  00078	83 7d 08 00	 cmp	 DWORD PTR __Pch$[ebp], 0
  0007c	75 1b		 jne	 SHORT $LN1@Locinfo

; 78   :             _THROW_NCEE(runtime_error, "bad locale name");

  0007e	68 00 00 00 00	 push	 OFFSET ??_C@_0BA@ELKIONDK@bad?5locale?5name?$AA@
  00083	8d 4d a4	 lea	 ecx, DWORD PTR $T226255[ebp]
  00086	e8 00 00 00 00	 call	 ??0runtime_error@std@@QAE@PBD@Z ; std::runtime_error::runtime_error
  0008b	68 00 00 00 00	 push	 OFFSET __TI2?AVruntime_error@std@@
  00090	8d 45 a4	 lea	 eax, DWORD PTR $T226255[ebp]
  00093	50		 push	 eax
  00094	e8 00 00 00 00	 call	 __CxxThrowException@8
$LN1@Locinfo:

; 79   :         _Locinfo_ctor(this, _Pch);

  00099	8b 45 08	 mov	 eax, DWORD PTR __Pch$[ebp]
  0009c	50		 push	 eax
  0009d	8b 4d f0	 mov	 ecx, DWORD PTR _this$[ebp]
  000a0	51		 push	 ecx
  000a1	e8 00 00 00 00	 call	 ?_Locinfo_ctor@_Locinfo@std@@SAXPAV12@PBD@Z ; std::_Locinfo::_Locinfo_ctor
  000a6	83 c4 08	 add	 esp, 8

; 80   :         }

  000a9	c7 45 fc ff ff
	ff ff		 mov	 DWORD PTR __$EHRec$[ebp+8], -1
  000b0	8b 45 f0	 mov	 eax, DWORD PTR _this$[ebp]
$LN3@Locinfo:
  000b3	8b 4d f4	 mov	 ecx, DWORD PTR __$EHRec$[ebp]
  000b6	64 89 0d 00 00
	00 00		 mov	 DWORD PTR fs:0, ecx
  000bd	59		 pop	 ecx
  000be	5f		 pop	 edi
  000bf	5e		 pop	 esi
  000c0	5b		 pop	 ebx
  000c1	8b e5		 mov	 esp, ebp
  000c3	5d		 pop	 ebp
  000c4	c2 04 00	 ret	 4
_TEXT	ENDS
;	COMDAT text$x
text$x	SEGMENT
__unwindfunclet$??0_Locinfo@std@@QAE@PBD@Z$0:
  00000	8b 4d f0	 mov	 ecx, DWORD PTR _this$[ebp]
  00003	e9 00 00 00 00	 jmp	 ??1_Lockit@std@@QAE@XZ	; std::_Lockit::~_Lockit
__unwindfunclet$??0_Locinfo@std@@QAE@PBD@Z$1:
  00008	8b 4d f0	 mov	 ecx, DWORD PTR _this$[ebp]
  0000b	83 c1 04	 add	 ecx, 4
  0000e	e9 00 00 00 00	 jmp	 ??1?$_Yarn@D@std@@QAE@XZ ; std::_Yarn<char>::~_Yarn<char>
__unwindfunclet$??0_Locinfo@std@@QAE@PBD@Z$2:
  00013	8b 4d f0	 mov	 ecx, DWORD PTR _this$[ebp]
  00016	83 c1 0c	 add	 ecx, 12			; 0000000cH
  00019	e9 00 00 00 00	 jmp	 ??1?$_Yarn@D@std@@QAE@XZ ; std::_Yarn<char>::~_Yarn<char>
__unwindfunclet$??0_Locinfo@std@@QAE@PBD@Z$3:
  0001e	8b 4d f0	 mov	 ecx, DWORD PTR _this$[ebp]
  00021	83 c1 14	 add	 ecx, 20			; 00000014H
  00024	e9 00 00 00 00	 jmp	 ??1?$_Yarn@D@std@@QAE@XZ ; std::_Yarn<char>::~_Yarn<char>
__unwindfunclet$??0_Locinfo@std@@QAE@PBD@Z$4:
  00029	8b 4d f0	 mov	 ecx, DWORD PTR _this$[ebp]
  0002c	83 c1 1c	 add	 ecx, 28			; 0000001cH
  0002f	e9 00 00 00 00	 jmp	 ??1?$_Yarn@D@std@@QAE@XZ ; std::_Yarn<char>::~_Yarn<char>
__ehhandler$??0_Locinfo@std@@QAE@PBD@Z:
  00034	8b 54 24 08	 mov	 edx, DWORD PTR [esp+8]
  00038	8d 42 0c	 lea	 eax, DWORD PTR [edx+12]
  0003b	8b 4a a0	 mov	 ecx, DWORD PTR [edx-96]
  0003e	33 c8		 xor	 ecx, eax
  00040	e8 00 00 00 00	 call	 @__security_check_cookie@4
  00045	b8 00 00 00 00	 mov	 eax, OFFSET __ehfuncinfo$??0_Locinfo@std@@QAE@PBD@Z
  0004a	e9 00 00 00 00	 jmp	 ___CxxFrameHandler3
text$x	ENDS
??0_Locinfo@std@@QAE@PBD@Z ENDP				; std::_Locinfo::_Locinfo
PUBLIC	??_7runtime_error@std@@6B@			; std::runtime_error::`vftable'
PUBLIC	??_R4runtime_error@std@@6B@			; std::runtime_error::`RTTI Complete Object Locator'
PUBLIC	??_R3runtime_error@std@@8			; std::runtime_error::`RTTI Class Hierarchy Descriptor'
PUBLIC	??_R2runtime_error@std@@8			; std::runtime_error::`RTTI Base Class Array'
PUBLIC	??_R1A@?0A@EA@runtime_error@std@@8		; std::runtime_error::`RTTI Base Class Descriptor at (0,-1,0,64)'
PUBLIC	??_R1A@?0A@EA@exception@std@@8			; std::exception::`RTTI Base Class Descriptor at (0,-1,0,64)'
PUBLIC	??_R3exception@std@@8				; std::exception::`RTTI Class Hierarchy Descriptor'
PUBLIC	??_R2exception@std@@8				; std::exception::`RTTI Base Class Array'
EXTRN	??0exception@std@@QAE@ABQBD@Z:PROC		; std::exception::exception
EXTRN	??_Eruntime_error@std@@UAEPAXI@Z:PROC		; std::runtime_error::`vector deleting destructor'
EXTRN	?what@exception@std@@UBEPBDXZ:PROC		; std::exception::what
;	COMDAT ??_R2exception@std@@8
; File d:\microsoft visual studio 10.0\vc\include\stdexcept
rdata$r	SEGMENT
??_R2exception@std@@8 DD FLAT:??_R1A@?0A@EA@exception@std@@8 ; std::exception::`RTTI Base Class Array'
rdata$r	ENDS
;	COMDAT ??_R3exception@std@@8
rdata$r	SEGMENT
??_R3exception@std@@8 DD 00H				; std::exception::`RTTI Class Hierarchy Descriptor'
	DD	00H
	DD	01H
	DD	FLAT:??_R2exception@std@@8
rdata$r	ENDS
;	COMDAT ??_R1A@?0A@EA@exception@std@@8
rdata$r	SEGMENT
??_R1A@?0A@EA@exception@std@@8 DD FLAT:??_R0?AVexception@std@@@8 ; std::exception::`RTTI Base Class Descriptor at (0,-1,0,64)'
	DD	00H
	DD	00H
	DD	0ffffffffH
	DD	00H
	DD	040H
	DD	FLAT:??_R3exception@std@@8
rdata$r	ENDS
;	COMDAT ??_R1A@?0A@EA@runtime_error@std@@8
rdata$r	SEGMENT
??_R1A@?0A@EA@runtime_error@std@@8 DD FLAT:??_R0?AVruntime_error@std@@@8 ; std::runtime_error::`RTTI Base Class Descriptor at (0,-1,0,64)'
	DD	01H
	DD	00H
	DD	0ffffffffH
	DD	00H
	DD	040H
	DD	FLAT:??_R3runtime_error@std@@8
rdata$r	ENDS
;	COMDAT ??_R2runtime_error@std@@8
rdata$r	SEGMENT
??_R2runtime_error@std@@8 DD FLAT:??_R1A@?0A@EA@runtime_error@std@@8 ; std::runtime_error::`RTTI Base Class Array'
	DD	FLAT:??_R1A@?0A@EA@exception@std@@8
rdata$r	ENDS
;	COMDAT ??_R3runtime_error@std@@8
rdata$r	SEGMENT
??_R3runtime_error@std@@8 DD 00H			; std::runtime_error::`RTTI Class Hierarchy Descriptor'
	DD	00H
	DD	02H
	DD	FLAT:??_R2runtime_error@std@@8
rdata$r	ENDS
;	COMDAT ??_R4runtime_error@std@@6B@
rdata$r	SEGMENT
??_R4runtime_error@std@@6B@ DD 00H			; std::runtime_error::`RTTI Complete Object Locator'
	DD	00H
	DD	00H
	DD	FLAT:??_R0?AVruntime_error@std@@@8
	DD	FLAT:??_R3runtime_error@std@@8
rdata$r	ENDS
;	COMDAT ??_7runtime_error@std@@6B@
CONST	SEGMENT
??_7runtime_error@std@@6B@ DD FLAT:??_R4runtime_error@std@@6B@ ; std::runtime_error::`vftable'
	DD	FLAT:??_Eruntime_error@std@@UAEPAXI@Z
	DD	FLAT:?what@exception@std@@UBEPBDXZ
; Function compile flags: /Odtp /ZI
CONST	ENDS
;	COMDAT ??0runtime_error@std@@QAE@PBD@Z
_TEXT	SEGMENT
_this$ = -4						; size = 4
__Message$ = 8						; size = 4
??0runtime_error@std@@QAE@PBD@Z PROC			; std::runtime_error::runtime_error, COMDAT
; _this$ = ecx

; 170  : 		{	// construct from message string

  00000	55		 push	 ebp
  00001	8b ec		 mov	 ebp, esp
  00003	83 ec 44	 sub	 esp, 68			; 00000044H
  00006	53		 push	 ebx
  00007	56		 push	 esi
  00008	57		 push	 edi
  00009	89 4d fc	 mov	 DWORD PTR _this$[ebp], ecx
  0000c	8d 45 08	 lea	 eax, DWORD PTR __Message$[ebp]
  0000f	50		 push	 eax
  00010	8b 4d fc	 mov	 ecx, DWORD PTR _this$[ebp]
  00013	e8 00 00 00 00	 call	 ??0exception@std@@QAE@ABQBD@Z ; std::exception::exception
  00018	8b 45 fc	 mov	 eax, DWORD PTR _this$[ebp]
  0001b	c7 00 00 00 00
	00		 mov	 DWORD PTR [eax], OFFSET ??_7runtime_error@std@@6B@

; 171  : 		}

  00021	8b 45 fc	 mov	 eax, DWORD PTR _this$[ebp]
  00024	5f		 pop	 edi
  00025	5e		 pop	 esi
  00026	5b		 pop	 ebx
  00027	8b e5		 mov	 esp, ebp
  00029	5d		 pop	 ebp
  0002a	c2 04 00	 ret	 4
??0runtime_error@std@@QAE@PBD@Z ENDP			; std::runtime_error::runtime_error
; Function compile flags: /Odtp /ZI
_TEXT	ENDS
;	COMDAT ??_Gruntime_error@std@@UAEPAXI@Z
_TEXT	SEGMENT
_this$ = -4						; size = 4
___flags$ = 8						; size = 4
??_Gruntime_error@std@@UAEPAXI@Z PROC			; std::runtime_error::`scalar deleting destructor', COMDAT
; _this$ = ecx
  00000	55		 push	 ebp
  00001	8b ec		 mov	 ebp, esp
  00003	83 ec 44	 sub	 esp, 68			; 00000044H
  00006	53		 push	 ebx
  00007	56		 push	 esi
  00008	57		 push	 edi
  00009	89 4d fc	 mov	 DWORD PTR _this$[ebp], ecx
  0000c	8b 4d fc	 mov	 ecx, DWORD PTR _this$[ebp]
  0000f	e8 00 00 00 00	 call	 ??1runtime_error@std@@UAE@XZ
  00014	8b 45 08	 mov	 eax, DWORD PTR ___flags$[ebp]
  00017	83 e0 01	 and	 eax, 1
  0001a	74 0c		 je	 SHORT $LN1@scalar@4
  0001c	8b 45 fc	 mov	 eax, DWORD PTR _this$[ebp]
  0001f	50		 push	 eax
  00020	e8 00 00 00 00	 call	 ??3@YAXPAX@Z		; operator delete
  00025	83 c4 04	 add	 esp, 4
$LN1@scalar@4:
  00028	8b 45 fc	 mov	 eax, DWORD PTR _this$[ebp]
  0002b	5f		 pop	 edi
  0002c	5e		 pop	 esi
  0002d	5b		 pop	 ebx
  0002e	8b e5		 mov	 esp, ebp
  00030	5d		 pop	 ebp
  00031	c2 04 00	 ret	 4
??_Gruntime_error@std@@UAEPAXI@Z ENDP			; std::runtime_error::`scalar deleting destructor'
_TEXT	ENDS
EXTRN	??1exception@std@@UAE@XZ:PROC			; std::exception::~exception
; Function compile flags: /Odtp /ZI
;	COMDAT ??1runtime_error@std@@UAE@XZ
_TEXT	SEGMENT
_this$ = -4						; size = 4
??1runtime_error@std@@UAE@XZ PROC			; std::runtime_error::~runtime_error, COMDAT
; _this$ = ecx
  00000	55		 push	 ebp
  00001	8b ec		 mov	 ebp, esp
  00003	83 ec 44	 sub	 esp, 68			; 00000044H
  00006	53		 push	 ebx
  00007	56		 push	 esi
  00008	57		 push	 edi
  00009	89 4d fc	 mov	 DWORD PTR _this$[ebp], ecx
  0000c	8b 4d fc	 mov	 ecx, DWORD PTR _this$[ebp]
  0000f	e8 00 00 00 00	 call	 ??1exception@std@@UAE@XZ ; std::exception::~exception
  00014	5f		 pop	 edi
  00015	5e		 pop	 esi
  00016	5b		 pop	 ebx
  00017	8b e5		 mov	 esp, ebp
  00019	5d		 pop	 ebp
  0001a	c3		 ret	 0
??1runtime_error@std@@UAE@XZ ENDP			; std::runtime_error::~runtime_error
_TEXT	ENDS
EXTRN	?_Locinfo_dtor@_Locinfo@std@@SAXPAV12@@Z:PROC	; std::_Locinfo::_Locinfo_dtor
;	COMDAT xdata$x
; File d:\microsoft visual studio 10.0\vc\include\xlocinfo
xdata$x	SEGMENT
__ehfuncinfo$??1_Locinfo@std@@QAE@XZ DD 019930522H
	DD	05H
	DD	FLAT:__unwindtable$??1_Locinfo@std@@QAE@XZ
	DD	2 DUP(00H)
	DD	2 DUP(00H)
	DD	00H
	DD	01H
__unwindtable$??1_Locinfo@std@@QAE@XZ DD 0ffffffffH
	DD	FLAT:__unwindfunclet$??1_Locinfo@std@@QAE@XZ$0
	DD	00H
	DD	FLAT:__unwindfunclet$??1_Locinfo@std@@QAE@XZ$1
	DD	01H
	DD	FLAT:__unwindfunclet$??1_Locinfo@std@@QAE@XZ$2
	DD	02H
	DD	FLAT:__unwindfunclet$??1_Locinfo@std@@QAE@XZ$3
	DD	03H
	DD	FLAT:__unwindfunclet$??1_Locinfo@std@@QAE@XZ$4
; Function compile flags: /Odtp /ZI
xdata$x	ENDS
;	COMDAT ??1_Locinfo@std@@QAE@XZ
_TEXT	SEGMENT
_this$ = -16						; size = 4
__$EHRec$ = -12						; size = 12
??1_Locinfo@std@@QAE@XZ PROC				; std::_Locinfo::~_Locinfo, COMDAT
; _this$ = ecx

; 93   :         {

  00000	55		 push	 ebp
  00001	8b ec		 mov	 ebp, esp
  00003	6a ff		 push	 -1
  00005	68 00 00 00 00	 push	 __ehhandler$??1_Locinfo@std@@QAE@XZ
  0000a	64 a1 00 00 00
	00		 mov	 eax, DWORD PTR fs:0
  00010	50		 push	 eax
  00011	83 ec 44	 sub	 esp, 68			; 00000044H
  00014	53		 push	 ebx
  00015	56		 push	 esi
  00016	57		 push	 edi
  00017	a1 00 00 00 00	 mov	 eax, DWORD PTR ___security_cookie
  0001c	33 c5		 xor	 eax, ebp
  0001e	50		 push	 eax
  0001f	8d 45 f4	 lea	 eax, DWORD PTR __$EHRec$[ebp]
  00022	64 a3 00 00 00
	00		 mov	 DWORD PTR fs:0, eax
  00028	89 4d f0	 mov	 DWORD PTR _this$[ebp], ecx
  0002b	c7 45 fc 04 00
	00 00		 mov	 DWORD PTR __$EHRec$[ebp+8], 4

; 94   :         _Locinfo_dtor(this);

  00032	8b 45 f0	 mov	 eax, DWORD PTR _this$[ebp]
  00035	50		 push	 eax
  00036	e8 00 00 00 00	 call	 ?_Locinfo_dtor@_Locinfo@std@@SAXPAV12@@Z ; std::_Locinfo::_Locinfo_dtor
  0003b	83 c4 04	 add	 esp, 4

; 95   :         }

  0003e	c6 45 fc 03	 mov	 BYTE PTR __$EHRec$[ebp+8], 3
  00042	8b 4d f0	 mov	 ecx, DWORD PTR _this$[ebp]
  00045	83 c1 1c	 add	 ecx, 28			; 0000001cH
  00048	e8 00 00 00 00	 call	 ??1?$_Yarn@D@std@@QAE@XZ ; std::_Yarn<char>::~_Yarn<char>
  0004d	c6 45 fc 02	 mov	 BYTE PTR __$EHRec$[ebp+8], 2
  00051	8b 4d f0	 mov	 ecx, DWORD PTR _this$[ebp]
  00054	83 c1 14	 add	 ecx, 20			; 00000014H
  00057	e8 00 00 00 00	 call	 ??1?$_Yarn@D@std@@QAE@XZ ; std::_Yarn<char>::~_Yarn<char>
  0005c	c6 45 fc 01	 mov	 BYTE PTR __$EHRec$[ebp+8], 1
  00060	8b 4d f0	 mov	 ecx, DWORD PTR _this$[ebp]
  00063	83 c1 0c	 add	 ecx, 12			; 0000000cH
  00066	e8 00 00 00 00	 call	 ??1?$_Yarn@D@std@@QAE@XZ ; std::_Yarn<char>::~_Yarn<char>
  0006b	c6 45 fc 00	 mov	 BYTE PTR __$EHRec$[ebp+8], 0
  0006f	8b 4d f0	 mov	 ecx, DWORD PTR _this$[ebp]
  00072	83 c1 04	 add	 ecx, 4
  00075	e8 00 00 00 00	 call	 ??1?$_Yarn@D@std@@QAE@XZ ; std::_Yarn<char>::~_Yarn<char>
  0007a	c7 45 fc ff ff
	ff ff		 mov	 DWORD PTR __$EHRec$[ebp+8], -1
  00081	8b 4d f0	 mov	 ecx, DWORD PTR _this$[ebp]
  00084	e8 00 00 00 00	 call	 ??1_Lockit@std@@QAE@XZ	; std::_Lockit::~_Lockit
  00089	8b 4d f4	 mov	 ecx, DWORD PTR __$EHRec$[ebp]
  0008c	64 89 0d 00 00
	00 00		 mov	 DWORD PTR fs:0, ecx
  00093	59		 pop	 ecx
  00094	5f		 pop	 edi
  00095	5e		 pop	 esi
  00096	5b		 pop	 ebx
  00097	8b e5		 mov	 esp, ebp
  00099	5d		 pop	 ebp
  0009a	c3		 ret	 0
_TEXT	ENDS
;	COMDAT text$x
text$x	SEGMENT
__unwindfunclet$??1_Locinfo@std@@QAE@XZ$0:
  00000	8b 4d f0	 mov	 ecx, DWORD PTR _this$[ebp]
  00003	e9 00 00 00 00	 jmp	 ??1_Lockit@std@@QAE@XZ	; std::_Lockit::~_Lockit
__unwindfunclet$??1_Locinfo@std@@QAE@XZ$1:
  00008	8b 4d f0	 mov	 ecx, DWORD PTR _this$[ebp]
  0000b	83 c1 04	 add	 ecx, 4
  0000e	e9 00 00 00 00	 jmp	 ??1?$_Yarn@D@std@@QAE@XZ ; std::_Yarn<char>::~_Yarn<char>
__unwindfunclet$??1_Locinfo@std@@QAE@XZ$2:
  00013	8b 4d f0	 mov	 ecx, DWORD PTR _this$[ebp]
  00016	83 c1 0c	 add	 ecx, 12			; 0000000cH
  00019	e9 00 00 00 00	 jmp	 ??1?$_Yarn@D@std@@QAE@XZ ; std::_Yarn<char>::~_Yarn<char>
__unwindfunclet$??1_Locinfo@std@@QAE@XZ$3:
  0001e	8b 4d f0	 mov	 ecx, DWORD PTR _this$[ebp]
  00021	83 c1 14	 add	 ecx, 20			; 00000014H
  00024	e9 00 00 00 00	 jmp	 ??1?$_Yarn@D@std@@QAE@XZ ; std::_Yarn<char>::~_Yarn<char>
__unwindfunclet$??1_Locinfo@std@@QAE@XZ$4:
  00029	8b 4d f0	 mov	 ecx, DWORD PTR _this$[ebp]
  0002c	83 c1 1c	 add	 ecx, 28			; 0000001cH
  0002f	e9 00 00 00 00	 jmp	 ??1?$_Yarn@D@std@@QAE@XZ ; std::_Yarn<char>::~_Yarn<char>
__ehhandler$??1_Locinfo@std@@QAE@XZ:
  00034	8b 54 24 08	 mov	 edx, DWORD PTR [esp+8]
  00038	8d 42 0c	 lea	 eax, DWORD PTR [edx+12]
  0003b	8b 4a ac	 mov	 ecx, DWORD PTR [edx-84]
  0003e	33 c8		 xor	 ecx, eax
  00040	e8 00 00 00 00	 call	 @__security_check_cookie@4
  00045	b8 00 00 00 00	 mov	 eax, OFFSET __ehfuncinfo$??1_Locinfo@std@@QAE@XZ
  0004a	e9 00 00 00 00	 jmp	 ___CxxFrameHandler3
text$x	ENDS
??1_Locinfo@std@@QAE@XZ ENDP				; std::_Locinfo::~_Locinfo
; Function compile flags: /Odtp /ZI
;	COMDAT ??0runtime_error@std@@QAE@ABV01@@Z
_TEXT	SEGMENT
_this$ = -4						; size = 4
___that$ = 8						; size = 4
??0runtime_error@std@@QAE@ABV01@@Z PROC			; std::runtime_error::runtime_error, COMDAT
; _this$ = ecx
  00000	55		 push	 ebp
  00001	8b ec		 mov	 ebp, esp
  00003	83 ec 44	 sub	 esp, 68			; 00000044H
  00006	53		 push	 ebx
  00007	56		 push	 esi
  00008	57		 push	 edi
  00009	89 4d fc	 mov	 DWORD PTR _this$[ebp], ecx
  0000c	8b 45 08	 mov	 eax, DWORD PTR ___that$[ebp]
  0000f	50		 push	 eax
  00010	8b 4d fc	 mov	 ecx, DWORD PTR _this$[ebp]
  00013	e8 00 00 00 00	 call	 ??0exception@std@@QAE@ABV01@@Z ; std::exception::exception
  00018	8b 45 fc	 mov	 eax, DWORD PTR _this$[ebp]
  0001b	c7 00 00 00 00
	00		 mov	 DWORD PTR [eax], OFFSET ??_7runtime_error@std@@6B@
  00021	8b 45 fc	 mov	 eax, DWORD PTR _this$[ebp]
  00024	5f		 pop	 edi
  00025	5e		 pop	 esi
  00026	5b		 pop	 ebx
  00027	8b e5		 mov	 esp, ebp
  00029	5d		 pop	 ebp
  0002a	c2 04 00	 ret	 4
??0runtime_error@std@@QAE@ABV01@@Z ENDP			; std::runtime_error::runtime_error
_TEXT	ENDS
EXTRN	?_Id_cnt@id@locale@std@@0HA:DWORD		; std::locale::id::_Id_cnt
; Function compile flags: /Odtp /ZI
; File d:\microsoft visual studio 10.0\vc\include\xlocale
;	COMDAT ??Bid@locale@std@@QAEIXZ
_TEXT	SEGMENT
__Lock$189684 = -8					; size = 4
_this$ = -4						; size = 4
??Bid@locale@std@@QAEIXZ PROC				; std::locale::id::operator unsigned int, COMDAT
; _this$ = ecx

; 75   : 			{	// get stamp, with lazy allocation

  00000	55		 push	 ebp
  00001	8b ec		 mov	 ebp, esp
  00003	83 ec 48	 sub	 esp, 72			; 00000048H
  00006	53		 push	 ebx
  00007	56		 push	 esi
  00008	57		 push	 edi
  00009	89 4d fc	 mov	 DWORD PTR _this$[ebp], ecx

; 76   : 			if (_Id == 0)

  0000c	8b 45 fc	 mov	 eax, DWORD PTR _this$[ebp]
  0000f	83 38 00	 cmp	 DWORD PTR [eax], 0
  00012	75 32		 jne	 SHORT $LN2@operator@3

; 77   : 				{	// still zero, allocate stamp
; 78   : 				_BEGIN_LOCK(_LOCK_LOCALE)

  00014	6a 00		 push	 0
  00016	8d 4d f8	 lea	 ecx, DWORD PTR __Lock$189684[ebp]
  00019	e8 00 00 00 00	 call	 ??0_Lockit@std@@QAE@H@Z	; std::_Lockit::_Lockit

; 79   : 					if (_Id == 0)

  0001e	8b 45 fc	 mov	 eax, DWORD PTR _this$[ebp]
  00021	83 38 00	 cmp	 DWORD PTR [eax], 0
  00024	75 18		 jne	 SHORT $LN1@operator@3

; 80   : 						_Id = ++_Id_cnt;

  00026	a1 00 00 00 00	 mov	 eax, DWORD PTR ?_Id_cnt@id@locale@std@@0HA ; std::locale::id::_Id_cnt
  0002b	83 c0 01	 add	 eax, 1
  0002e	a3 00 00 00 00	 mov	 DWORD PTR ?_Id_cnt@id@locale@std@@0HA, eax ; std::locale::id::_Id_cnt
  00033	8b 4d fc	 mov	 ecx, DWORD PTR _this$[ebp]
  00036	8b 15 00 00 00
	00		 mov	 edx, DWORD PTR ?_Id_cnt@id@locale@std@@0HA ; std::locale::id::_Id_cnt
  0003c	89 11		 mov	 DWORD PTR [ecx], edx
$LN1@operator@3:

; 81   : 				_END_LOCK()

  0003e	8d 4d f8	 lea	 ecx, DWORD PTR __Lock$189684[ebp]
  00041	e8 00 00 00 00	 call	 ??1_Lockit@std@@QAE@XZ	; std::_Lockit::~_Lockit
$LN2@operator@3:

; 82   : 				}
; 83   : 			return (_Id);

  00046	8b 45 fc	 mov	 eax, DWORD PTR _this$[ebp]
  00049	8b 00		 mov	 eax, DWORD PTR [eax]

; 84   : 			}

  0004b	5f		 pop	 edi
  0004c	5e		 pop	 esi
  0004d	5b		 pop	 ebx
  0004e	8b e5		 mov	 esp, ebp
  00050	5d		 pop	 ebp
  00051	c3		 ret	 0
??Bid@locale@std@@QAEIXZ ENDP				; std::locale::id::operator unsigned int
; Function compile flags: /Odtp /ZI
_TEXT	ENDS
;	COMDAT ?_Incref@facet@locale@std@@QAEXXZ
_TEXT	SEGMENT
__Lock$189690 = -8					; size = 4
_this$ = -4						; size = 4
?_Incref@facet@locale@std@@QAEXXZ PROC			; std::locale::facet::_Incref, COMDAT
; _this$ = ecx

; 111  : 			{	// safely increment the reference count

  00000	55		 push	 ebp
  00001	8b ec		 mov	 ebp, esp
  00003	83 ec 48	 sub	 esp, 72			; 00000048H
  00006	53		 push	 ebx
  00007	56		 push	 esi
  00008	57		 push	 edi
  00009	89 4d fc	 mov	 DWORD PTR _this$[ebp], ecx

; 112  : 			_BEGIN_LOCK(_LOCK_LOCALE)

  0000c	6a 00		 push	 0
  0000e	8d 4d f8	 lea	 ecx, DWORD PTR __Lock$189690[ebp]
  00011	e8 00 00 00 00	 call	 ??0_Lockit@std@@QAE@H@Z	; std::_Lockit::_Lockit

; 113  : 				if (_Refs < (size_t)(-1))

  00016	8b 45 fc	 mov	 eax, DWORD PTR _this$[ebp]
  00019	83 78 04 ff	 cmp	 DWORD PTR [eax+4], -1
  0001d	73 0f		 jae	 SHORT $LN1@Incref

; 114  : 					++_Refs;

  0001f	8b 45 fc	 mov	 eax, DWORD PTR _this$[ebp]
  00022	8b 48 04	 mov	 ecx, DWORD PTR [eax+4]
  00025	83 c1 01	 add	 ecx, 1
  00028	8b 55 fc	 mov	 edx, DWORD PTR _this$[ebp]
  0002b	89 4a 04	 mov	 DWORD PTR [edx+4], ecx
$LN1@Incref:

; 115  : 			_END_LOCK()

  0002e	8d 4d f8	 lea	 ecx, DWORD PTR __Lock$189690[ebp]
  00031	e8 00 00 00 00	 call	 ??1_Lockit@std@@QAE@XZ	; std::_Lockit::~_Lockit

; 116  : 			}

  00036	5f		 pop	 edi
  00037	5e		 pop	 esi
  00038	5b		 pop	 ebx
  00039	8b e5		 mov	 esp, ebp
  0003b	5d		 pop	 ebp
  0003c	c3		 ret	 0
?_Incref@facet@locale@std@@QAEXXZ ENDP			; std::locale::facet::_Incref
_TEXT	ENDS
EXTRN	?_Facet_Register@facet@locale@std@@CAXPAV123@@Z:PROC ; std::locale::facet::_Facet_Register
; Function compile flags: /Odtp /ZI
;	COMDAT ?_Register@facet@locale@std@@QAEXXZ
_TEXT	SEGMENT
_this$ = -4						; size = 4
?_Register@facet@locale@std@@QAEXXZ PROC		; std::locale::facet::_Register, COMDAT
; _this$ = ecx

; 128  : 			{	// queue lazy facet destruction

  00000	55		 push	 ebp
  00001	8b ec		 mov	 ebp, esp
  00003	83 ec 44	 sub	 esp, 68			; 00000044H
  00006	53		 push	 ebx
  00007	56		 push	 esi
  00008	57		 push	 edi
  00009	89 4d fc	 mov	 DWORD PTR _this$[ebp], ecx

; 129  :  #if defined(_M_CEE)
; 130  : 			_Facet_Register_m(this);
; 131  : 
; 132  :  #else /* defined(_M_CEE) */
; 133  : 			_Facet_Register(this);

  0000c	8b 45 fc	 mov	 eax, DWORD PTR _this$[ebp]
  0000f	50		 push	 eax
  00010	e8 00 00 00 00	 call	 ?_Facet_Register@facet@locale@std@@CAXPAV123@@Z ; std::locale::facet::_Facet_Register
  00015	83 c4 04	 add	 esp, 4

; 134  :  #endif /* defined(_M_CEE) */
; 135  : 			}

  00018	5f		 pop	 edi
  00019	5e		 pop	 esi
  0001a	5b		 pop	 ebx
  0001b	8b e5		 mov	 esp, ebp
  0001d	5d		 pop	 ebp
  0001e	c3		 ret	 0
?_Register@facet@locale@std@@QAEXXZ ENDP		; std::locale::facet::_Register
; Function compile flags: /Odtp /ZI
_TEXT	ENDS
;	COMDAT ??0locale@std@@QAE@ABV01@@Z
_TEXT	SEGMENT
_this$ = -4						; size = 4
__Right$ = 8						; size = 4
??0locale@std@@QAE@ABV01@@Z PROC			; std::locale::locale, COMDAT
; _this$ = ecx

; 309  : 		{	// construct by copying

  00000	55		 push	 ebp
  00001	8b ec		 mov	 ebp, esp
  00003	83 ec 44	 sub	 esp, 68			; 00000044H
  00006	53		 push	 ebx
  00007	56		 push	 esi
  00008	57		 push	 edi
  00009	89 4d fc	 mov	 DWORD PTR _this$[ebp], ecx
  0000c	8b 45 fc	 mov	 eax, DWORD PTR _this$[ebp]
  0000f	8b 4d 08	 mov	 ecx, DWORD PTR __Right$[ebp]
  00012	8b 11		 mov	 edx, DWORD PTR [ecx]
  00014	89 10		 mov	 DWORD PTR [eax], edx

; 310  : 		_Ptr->_Incref();

  00016	8b 45 fc	 mov	 eax, DWORD PTR _this$[ebp]
  00019	8b 08		 mov	 ecx, DWORD PTR [eax]
  0001b	e8 00 00 00 00	 call	 ?_Incref@facet@locale@std@@QAEXXZ ; std::locale::facet::_Incref

; 311  : 		}

  00020	8b 45 fc	 mov	 eax, DWORD PTR _this$[ebp]
  00023	5f		 pop	 edi
  00024	5e		 pop	 esi
  00025	5b		 pop	 ebx
  00026	8b e5		 mov	 esp, ebp
  00028	5d		 pop	 ebp
  00029	c2 04 00	 ret	 4
??0locale@std@@QAE@ABV01@@Z ENDP			; std::locale::locale
_TEXT	ENDS
EXTRN	?_Getgloballocale@locale@std@@CAPAV_Locimp@12@XZ:PROC ; std::locale::_Getgloballocale
EXTRN	?_Init@locale@std@@CAPAV_Locimp@12@XZ:PROC	; std::locale::_Init
; Function compile flags: /Odtp /ZI
;	COMDAT ??0locale@std@@QAE@XZ
_TEXT	SEGMENT
_this$ = -4						; size = 4
??0locale@std@@QAE@XZ PROC				; std::locale::locale, COMDAT
; _this$ = ecx

; 315  : 		{	// construct from current locale

  00000	55		 push	 ebp
  00001	8b ec		 mov	 ebp, esp
  00003	83 ec 44	 sub	 esp, 68			; 00000044H
  00006	53		 push	 ebx
  00007	56		 push	 esi
  00008	57		 push	 edi
  00009	89 4d fc	 mov	 DWORD PTR _this$[ebp], ecx
  0000c	e8 00 00 00 00	 call	 ?_Init@locale@std@@CAPAV_Locimp@12@XZ ; std::locale::_Init
  00011	8b 4d fc	 mov	 ecx, DWORD PTR _this$[ebp]
  00014	89 01		 mov	 DWORD PTR [ecx], eax

; 316  : 		_Getgloballocale()->_Incref();

  00016	e8 00 00 00 00	 call	 ?_Getgloballocale@locale@std@@CAPAV_Locimp@12@XZ ; std::locale::_Getgloballocale
  0001b	8b c8		 mov	 ecx, eax
  0001d	e8 00 00 00 00	 call	 ?_Incref@facet@locale@std@@QAEXXZ ; std::locale::facet::_Incref

; 317  : 		}

  00022	8b 45 fc	 mov	 eax, DWORD PTR _this$[ebp]
  00025	5f		 pop	 edi
  00026	5e		 pop	 esi
  00027	5b		 pop	 ebx
  00028	8b e5		 mov	 esp, ebp
  0002a	5d		 pop	 ebp
  0002b	c3		 ret	 0
??0locale@std@@QAE@XZ ENDP				; std::locale::locale
_TEXT	ENDS
PUBLIC	?_Decref@facet@locale@std@@QAEPAV123@XZ		; std::locale::facet::_Decref
; Function compile flags: /Odtp /ZI
;	COMDAT ??1locale@std@@QAE@XZ
_TEXT	SEGMENT
tv77 = -80						; size = 4
$T226305 = -76						; size = 4
$T226306 = -72						; size = 4
_this$ = -4						; size = 4
??1locale@std@@QAE@XZ PROC				; std::locale::~locale, COMDAT
; _this$ = ecx

; 409  : 		{	// destroy the object

  00000	55		 push	 ebp
  00001	8b ec		 mov	 ebp, esp
  00003	83 ec 50	 sub	 esp, 80			; 00000050H
  00006	53		 push	 ebx
  00007	56		 push	 esi
  00008	57		 push	 edi
  00009	89 4d fc	 mov	 DWORD PTR _this$[ebp], ecx

; 410  : 		if (_Ptr != 0)

  0000c	8b 45 fc	 mov	 eax, DWORD PTR _this$[ebp]
  0000f	83 38 00	 cmp	 DWORD PTR [eax], 0
  00012	74 33		 je	 SHORT $LN2@locale

; 411  : 			_DELETE_CRT(_Ptr->_Decref());

  00014	8b 45 fc	 mov	 eax, DWORD PTR _this$[ebp]
  00017	8b 08		 mov	 ecx, DWORD PTR [eax]
  00019	e8 00 00 00 00	 call	 ?_Decref@facet@locale@std@@QAEPAV123@XZ ; std::locale::facet::_Decref
  0001e	89 45 b8	 mov	 DWORD PTR $T226306[ebp], eax
  00021	8b 4d b8	 mov	 ecx, DWORD PTR $T226306[ebp]
  00024	89 4d b4	 mov	 DWORD PTR $T226305[ebp], ecx
  00027	83 7d b4 00	 cmp	 DWORD PTR $T226305[ebp], 0
  0002b	74 13		 je	 SHORT $LN4@locale
  0002d	6a 01		 push	 1
  0002f	8b 55 b4	 mov	 edx, DWORD PTR $T226305[ebp]
  00032	8b 02		 mov	 eax, DWORD PTR [edx]
  00034	8b 4d b4	 mov	 ecx, DWORD PTR $T226305[ebp]
  00037	8b 10		 mov	 edx, DWORD PTR [eax]
  00039	ff d2		 call	 edx
  0003b	89 45 b0	 mov	 DWORD PTR tv77[ebp], eax
  0003e	eb 07		 jmp	 SHORT $LN2@locale
$LN4@locale:
  00040	c7 45 b0 00 00
	00 00		 mov	 DWORD PTR tv77[ebp], 0
$LN2@locale:

; 412  : 		}

  00047	5f		 pop	 edi
  00048	5e		 pop	 esi
  00049	5b		 pop	 ebx
  0004a	8b e5		 mov	 esp, ebp
  0004c	5d		 pop	 ebp
  0004d	c3		 ret	 0
??1locale@std@@QAE@XZ ENDP				; std::locale::~locale
; Function compile flags: /Odtp /ZI
_TEXT	ENDS
;	COMDAT ?_Decref@facet@locale@std@@QAEPAV123@XZ
_TEXT	SEGMENT
$T226311 = -76						; size = 4
__Lock$189695 = -8					; size = 4
_this$ = -4						; size = 4
?_Decref@facet@locale@std@@QAEPAV123@XZ PROC		; std::locale::facet::_Decref, COMDAT
; _this$ = ecx

; 119  : 			{	// safely decrement the reference count, return this when dead

  00000	55		 push	 ebp
  00001	8b ec		 mov	 ebp, esp
  00003	83 ec 4c	 sub	 esp, 76			; 0000004cH
  00006	53		 push	 ebx
  00007	56		 push	 esi
  00008	57		 push	 edi
  00009	89 4d fc	 mov	 DWORD PTR _this$[ebp], ecx

; 120  : 			_BEGIN_LOCK(_LOCK_LOCALE)

  0000c	6a 00		 push	 0
  0000e	8d 4d f8	 lea	 ecx, DWORD PTR __Lock$189695[ebp]
  00011	e8 00 00 00 00	 call	 ??0_Lockit@std@@QAE@H@Z	; std::_Lockit::_Lockit

; 121  : 				if (0 < _Refs && _Refs < (size_t)(-1))

  00016	8b 45 fc	 mov	 eax, DWORD PTR _this$[ebp]
  00019	83 78 04 00	 cmp	 DWORD PTR [eax+4], 0
  0001d	76 18		 jbe	 SHORT $LN1@Decref
  0001f	8b 45 fc	 mov	 eax, DWORD PTR _this$[ebp]
  00022	83 78 04 ff	 cmp	 DWORD PTR [eax+4], -1
  00026	73 0f		 jae	 SHORT $LN1@Decref

; 122  : 					--_Refs;

  00028	8b 45 fc	 mov	 eax, DWORD PTR _this$[ebp]
  0002b	8b 48 04	 mov	 ecx, DWORD PTR [eax+4]
  0002e	83 e9 01	 sub	 ecx, 1
  00031	8b 55 fc	 mov	 edx, DWORD PTR _this$[ebp]
  00034	89 4a 04	 mov	 DWORD PTR [edx+4], ecx
$LN1@Decref:

; 123  : 				return (_Refs == 0 ? this : 0);

  00037	8b 45 fc	 mov	 eax, DWORD PTR _this$[ebp]
  0003a	8b 48 04	 mov	 ecx, DWORD PTR [eax+4]
  0003d	f7 d9		 neg	 ecx
  0003f	1b c9		 sbb	 ecx, ecx
  00041	f7 d1		 not	 ecx
  00043	23 4d fc	 and	 ecx, DWORD PTR _this$[ebp]
  00046	89 4d b4	 mov	 DWORD PTR $T226311[ebp], ecx
  00049	8d 4d f8	 lea	 ecx, DWORD PTR __Lock$189695[ebp]
  0004c	e8 00 00 00 00	 call	 ??1_Lockit@std@@QAE@XZ	; std::_Lockit::~_Lockit
  00051	8b 45 b4	 mov	 eax, DWORD PTR $T226311[ebp]

; 124  : 			_END_LOCK()
; 125  : 			}

  00054	5f		 pop	 edi
  00055	5e		 pop	 esi
  00056	5b		 pop	 ebx
  00057	8b e5		 mov	 esp, ebp
  00059	5d		 pop	 ebp
  0005a	c3		 ret	 0
?_Decref@facet@locale@std@@QAEPAV123@XZ ENDP		; std::locale::facet::_Decref
_TEXT	ENDS
PUBLIC	?c_str@?$_Yarn@D@std@@QBEPBDXZ			; std::_Yarn<char>::c_str
; Function compile flags: /Odtp /ZI
;	COMDAT ?c_str@locale@std@@QBEPBDXZ
_TEXT	SEGMENT
_this$ = -4						; size = 4
?c_str@locale@std@@QBEPBDXZ PROC			; std::locale::c_str, COMDAT
; _this$ = ecx

; 431  : 		{	// return locale name as NTBS

  00000	55		 push	 ebp
  00001	8b ec		 mov	 ebp, esp
  00003	83 ec 44	 sub	 esp, 68			; 00000044H
  00006	53		 push	 ebx
  00007	56		 push	 esi
  00008	57		 push	 edi
  00009	89 4d fc	 mov	 DWORD PTR _this$[ebp], ecx

; 432  : 		return (_Ptr->_Name.c_str());

  0000c	8b 45 fc	 mov	 eax, DWORD PTR _this$[ebp]
  0000f	8b 08		 mov	 ecx, DWORD PTR [eax]
  00011	83 c1 18	 add	 ecx, 24			; 00000018H
  00014	e8 00 00 00 00	 call	 ?c_str@?$_Yarn@D@std@@QBEPBDXZ ; std::_Yarn<char>::c_str

; 433  : 		}

  00019	5f		 pop	 edi
  0001a	5e		 pop	 esi
  0001b	5b		 pop	 ebx
  0001c	8b e5		 mov	 esp, ebp
  0001e	5d		 pop	 ebp
  0001f	c3		 ret	 0
?c_str@locale@std@@QBEPBDXZ ENDP			; std::locale::c_str
; Function compile flags: /Odtp /ZI
_TEXT	ENDS
;	COMDAT ?_Getfacet@locale@std@@QBEPBVfacet@12@I@Z
_TEXT	SEGMENT
tv80 = -80						; size = 4
tv69 = -80						; size = 4
__Ptr$189797 = -12					; size = 4
__Facptr$ = -8						; size = 4
_this$ = -4						; size = 4
__Id$ = 8						; size = 4
?_Getfacet@locale@std@@QBEPBVfacet@12@I@Z PROC		; std::locale::_Getfacet, COMDAT
; _this$ = ecx

; 436  : 		{	// look up a facet in locale object

  00000	55		 push	 ebp
  00001	8b ec		 mov	 ebp, esp
  00003	83 ec 50	 sub	 esp, 80			; 00000050H
  00006	53		 push	 ebx
  00007	56		 push	 esi
  00008	57		 push	 edi
  00009	89 4d fc	 mov	 DWORD PTR _this$[ebp], ecx

; 437  : 		const facet *_Facptr = _Id < _Ptr->_Facetcount
; 438  : 			? _Ptr->_Facetvec[_Id] : 0;	// null if id off end

  0000c	8b 45 fc	 mov	 eax, DWORD PTR _this$[ebp]
  0000f	8b 08		 mov	 ecx, DWORD PTR [eax]
  00011	8b 55 08	 mov	 edx, DWORD PTR __Id$[ebp]
  00014	3b 51 0c	 cmp	 edx, DWORD PTR [ecx+12]
  00017	73 13		 jae	 SHORT $LN6@Getfacet
  00019	8b 45 fc	 mov	 eax, DWORD PTR _this$[ebp]
  0001c	8b 08		 mov	 ecx, DWORD PTR [eax]
  0001e	8b 51 08	 mov	 edx, DWORD PTR [ecx+8]
  00021	8b 45 08	 mov	 eax, DWORD PTR __Id$[ebp]
  00024	8b 0c 82	 mov	 ecx, DWORD PTR [edx+eax*4]
  00027	89 4d b0	 mov	 DWORD PTR tv69[ebp], ecx
  0002a	eb 07		 jmp	 SHORT $LN7@Getfacet
$LN6@Getfacet:
  0002c	c7 45 b0 00 00
	00 00		 mov	 DWORD PTR tv69[ebp], 0
$LN7@Getfacet:
  00033	8b 55 b0	 mov	 edx, DWORD PTR tv69[ebp]
  00036	89 55 f8	 mov	 DWORD PTR __Facptr$[ebp], edx

; 439  : 		if (_Facptr != 0 || !_Ptr->_Xparent)

  00039	83 7d f8 00	 cmp	 DWORD PTR __Facptr$[ebp], 0
  0003d	75 0d		 jne	 SHORT $LN2@Getfacet
  0003f	8b 45 fc	 mov	 eax, DWORD PTR _this$[ebp]
  00042	8b 08		 mov	 ecx, DWORD PTR [eax]
  00044	0f b6 51 14	 movzx	 edx, BYTE PTR [ecx+20]
  00048	85 d2		 test	 edx, edx
  0004a	75 07		 jne	 SHORT $LN3@Getfacet
$LN2@Getfacet:

; 440  : 			return (_Facptr);	// found facet or not transparent

  0004c	8b 45 f8	 mov	 eax, DWORD PTR __Facptr$[ebp]
  0004f	eb 30		 jmp	 SHORT $LN4@Getfacet

; 441  : 		else

  00051	eb 2e		 jmp	 SHORT $LN4@Getfacet
$LN3@Getfacet:

; 442  : 			{	// look in current locale
; 443  : 			locale::_Locimp *_Ptr = _Getgloballocale();

  00053	e8 00 00 00 00	 call	 ?_Getgloballocale@locale@std@@CAPAV_Locimp@12@XZ ; std::locale::_Getgloballocale
  00058	89 45 f4	 mov	 DWORD PTR __Ptr$189797[ebp], eax

; 444  : 			return (_Id < _Ptr->_Facetcount
; 445  : 				? _Ptr->_Facetvec[_Id]	// get from current locale
; 446  : 				: 0);	// no entry in current locale

  0005b	8b 45 f4	 mov	 eax, DWORD PTR __Ptr$189797[ebp]
  0005e	8b 4d 08	 mov	 ecx, DWORD PTR __Id$[ebp]
  00061	3b 48 0c	 cmp	 ecx, DWORD PTR [eax+12]
  00064	73 11		 jae	 SHORT $LN8@Getfacet
  00066	8b 55 f4	 mov	 edx, DWORD PTR __Ptr$189797[ebp]
  00069	8b 42 08	 mov	 eax, DWORD PTR [edx+8]
  0006c	8b 4d 08	 mov	 ecx, DWORD PTR __Id$[ebp]
  0006f	8b 14 88	 mov	 edx, DWORD PTR [eax+ecx*4]
  00072	89 55 b0	 mov	 DWORD PTR tv80[ebp], edx
  00075	eb 07		 jmp	 SHORT $LN9@Getfacet
$LN8@Getfacet:
  00077	c7 45 b0 00 00
	00 00		 mov	 DWORD PTR tv80[ebp], 0
$LN9@Getfacet:
  0007e	8b 45 b0	 mov	 eax, DWORD PTR tv80[ebp]
$LN4@Getfacet:

; 447  : 			}
; 448  : 		}

  00081	5f		 pop	 edi
  00082	5e		 pop	 esi
  00083	5b		 pop	 ebx
  00084	8b e5		 mov	 esp, ebp
  00086	5d		 pop	 ebp
  00087	c2 04 00	 ret	 4
?_Getfacet@locale@std@@QBEPBVfacet@12@I@Z ENDP		; std::locale::_Getfacet
_TEXT	ENDS
PUBLIC	??_7codecvt_base@std@@6B@			; std::codecvt_base::`vftable'
PUBLIC	??0facet@locale@std@@IAE@I@Z			; std::locale::facet::facet
PUBLIC	??_R4codecvt_base@std@@6B@			; std::codecvt_base::`RTTI Complete Object Locator'
EXTRN	??_Ecodecvt_base@std@@UAEPAXI@Z:PROC		; std::codecvt_base::`vector deleting destructor'
;	COMDAT ??_R4codecvt_base@std@@6B@
rdata$r	SEGMENT
??_R4codecvt_base@std@@6B@ DD 00H			; std::codecvt_base::`RTTI Complete Object Locator'
	DD	00H
	DD	00H
	DD	FLAT:??_R0?AVcodecvt_base@std@@@8
	DD	FLAT:??_R3codecvt_base@std@@8
rdata$r	ENDS
;	COMDAT ??_7codecvt_base@std@@6B@
CONST	SEGMENT
??_7codecvt_base@std@@6B@ DD FLAT:??_R4codecvt_base@std@@6B@ ; std::codecvt_base::`vftable'
	DD	FLAT:??_Ecodecvt_base@std@@UAEPAXI@Z
	DD	FLAT:?do_always_noconv@codecvt_base@std@@MBE_NXZ
	DD	FLAT:?do_max_length@codecvt_base@std@@MBEHXZ
	DD	FLAT:?do_encoding@codecvt_base@std@@MBEHXZ
; Function compile flags: /Odtp /ZI
CONST	ENDS
;	COMDAT ??0codecvt_base@std@@QAE@I@Z
_TEXT	SEGMENT
_this$ = -4						; size = 4
__Refs$ = 8						; size = 4
??0codecvt_base@std@@QAE@I@Z PROC			; std::codecvt_base::codecvt_base, COMDAT
; _this$ = ecx

; 752  : 		{	// default constructor

  00000	55		 push	 ebp
  00001	8b ec		 mov	 ebp, esp
  00003	83 ec 44	 sub	 esp, 68			; 00000044H
  00006	53		 push	 ebx
  00007	56		 push	 esi
  00008	57		 push	 edi
  00009	89 4d fc	 mov	 DWORD PTR _this$[ebp], ecx
  0000c	8b 45 08	 mov	 eax, DWORD PTR __Refs$[ebp]
  0000f	50		 push	 eax
  00010	8b 4d fc	 mov	 ecx, DWORD PTR _this$[ebp]
  00013	e8 00 00 00 00	 call	 ??0facet@locale@std@@IAE@I@Z ; std::locale::facet::facet
  00018	8b 45 fc	 mov	 eax, DWORD PTR _this$[ebp]
  0001b	c7 00 00 00 00
	00		 mov	 DWORD PTR [eax], OFFSET ??_7codecvt_base@std@@6B@

; 753  : 		}

  00021	8b 45 fc	 mov	 eax, DWORD PTR _this$[ebp]
  00024	5f		 pop	 edi
  00025	5e		 pop	 esi
  00026	5b		 pop	 ebx
  00027	8b e5		 mov	 esp, ebp
  00029	5d		 pop	 ebp
  0002a	c2 04 00	 ret	 4
??0codecvt_base@std@@QAE@I@Z ENDP			; std::codecvt_base::codecvt_base
_TEXT	ENDS
PUBLIC	??_7facet@locale@std@@6B@			; std::locale::facet::`vftable'
PUBLIC	??_R4facet@locale@std@@6B@			; std::locale::facet::`RTTI Complete Object Locator'
EXTRN	??_Efacet@locale@std@@UAEPAXI@Z:PROC		; std::locale::facet::`vector deleting destructor'
;	COMDAT ??_R4facet@locale@std@@6B@
rdata$r	SEGMENT
??_R4facet@locale@std@@6B@ DD 00H			; std::locale::facet::`RTTI Complete Object Locator'
	DD	00H
	DD	00H
	DD	FLAT:??_R0?AVfacet@locale@std@@@8
	DD	FLAT:??_R3facet@locale@std@@8
rdata$r	ENDS
;	COMDAT ??_7facet@locale@std@@6B@
CONST	SEGMENT
??_7facet@locale@std@@6B@ DD FLAT:??_R4facet@locale@std@@6B@ ; std::locale::facet::`vftable'
	DD	FLAT:??_Efacet@locale@std@@UAEPAXI@Z
; Function compile flags: /Odtp /ZI
CONST	ENDS
;	COMDAT ??0facet@locale@std@@IAE@I@Z
_TEXT	SEGMENT
_this$ = -4						; size = 4
__Initrefs$ = 8						; size = 4
??0facet@locale@std@@IAE@I@Z PROC			; std::locale::facet::facet, COMDAT
; _this$ = ecx

; 170  : 			{	// construct with initial reference count

  00000	55		 push	 ebp
  00001	8b ec		 mov	 ebp, esp
  00003	83 ec 44	 sub	 esp, 68			; 00000044H
  00006	53		 push	 ebx
  00007	56		 push	 esi
  00008	57		 push	 edi
  00009	89 4d fc	 mov	 DWORD PTR _this$[ebp], ecx
  0000c	8b 45 fc	 mov	 eax, DWORD PTR _this$[ebp]
  0000f	c7 00 00 00 00
	00		 mov	 DWORD PTR [eax], OFFSET ??_7facet@locale@std@@6B@
  00015	8b 45 fc	 mov	 eax, DWORD PTR _this$[ebp]
  00018	8b 4d 08	 mov	 ecx, DWORD PTR __Initrefs$[ebp]
  0001b	89 48 04	 mov	 DWORD PTR [eax+4], ecx

; 171  : 			}

  0001e	8b 45 fc	 mov	 eax, DWORD PTR _this$[ebp]
  00021	5f		 pop	 edi
  00022	5e		 pop	 esi
  00023	5b		 pop	 ebx
  00024	8b e5		 mov	 esp, ebp
  00026	5d		 pop	 ebp
  00027	c2 04 00	 ret	 4
??0facet@locale@std@@IAE@I@Z ENDP			; std::locale::facet::facet
_TEXT	ENDS
PUBLIC	??1facet@locale@std@@UAE@XZ			; std::locale::facet::~facet
; Function compile flags: /Odtp /ZI
;	COMDAT ??_Gfacet@locale@std@@UAEPAXI@Z
_TEXT	SEGMENT
_this$ = -4						; size = 4
___flags$ = 8						; size = 4
??_Gfacet@locale@std@@UAEPAXI@Z PROC			; std::locale::facet::`scalar deleting destructor', COMDAT
; _this$ = ecx
  00000	55		 push	 ebp
  00001	8b ec		 mov	 ebp, esp
  00003	83 ec 44	 sub	 esp, 68			; 00000044H
  00006	53		 push	 ebx
  00007	56		 push	 esi
  00008	57		 push	 edi
  00009	89 4d fc	 mov	 DWORD PTR _this$[ebp], ecx
  0000c	8b 4d fc	 mov	 ecx, DWORD PTR _this$[ebp]
  0000f	e8 00 00 00 00	 call	 ??1facet@locale@std@@UAE@XZ ; std::locale::facet::~facet
  00014	8b 45 08	 mov	 eax, DWORD PTR ___flags$[ebp]
  00017	83 e0 01	 and	 eax, 1
  0001a	74 0c		 je	 SHORT $LN1@scalar@5
  0001c	8b 45 fc	 mov	 eax, DWORD PTR _this$[ebp]
  0001f	50		 push	 eax
  00020	e8 00 00 00 00	 call	 ??3@YAXPAX@Z		; operator delete
  00025	83 c4 04	 add	 esp, 4
$LN1@scalar@5:
  00028	8b 45 fc	 mov	 eax, DWORD PTR _this$[ebp]
  0002b	5f		 pop	 edi
  0002c	5e		 pop	 esi
  0002d	5b		 pop	 ebx
  0002e	8b e5		 mov	 esp, ebp
  00030	5d		 pop	 ebp
  00031	c2 04 00	 ret	 4
??_Gfacet@locale@std@@UAEPAXI@Z ENDP			; std::locale::facet::`scalar deleting destructor'
; Function compile flags: /Odtp /ZI
_TEXT	ENDS
;	COMDAT ??1facet@locale@std@@UAE@XZ
_TEXT	SEGMENT
_this$ = -4						; size = 4
??1facet@locale@std@@UAE@XZ PROC			; std::locale::facet::~facet, COMDAT
; _this$ = ecx

; 164  : 			{	// destroy the object

  00000	55		 push	 ebp
  00001	8b ec		 mov	 ebp, esp
  00003	83 ec 44	 sub	 esp, 68			; 00000044H
  00006	53		 push	 ebx
  00007	56		 push	 esi
  00008	57		 push	 edi
  00009	89 4d fc	 mov	 DWORD PTR _this$[ebp], ecx
  0000c	8b 45 fc	 mov	 eax, DWORD PTR _this$[ebp]
  0000f	c7 00 00 00 00
	00		 mov	 DWORD PTR [eax], OFFSET ??_7facet@locale@std@@6B@

; 165  : 			}

  00015	5f		 pop	 edi
  00016	5e		 pop	 esi
  00017	5b		 pop	 ebx
  00018	8b e5		 mov	 esp, ebp
  0001a	5d		 pop	 ebp
  0001b	c3		 ret	 0
??1facet@locale@std@@UAE@XZ ENDP			; std::locale::facet::~facet
; Function compile flags: /Odtp /ZI
_TEXT	ENDS
;	COMDAT ?always_noconv@codecvt_base@std@@QBE_NXZ
_TEXT	SEGMENT
_this$ = -4						; size = 4
?always_noconv@codecvt_base@std@@QBE_NXZ PROC		; std::codecvt_base::always_noconv, COMDAT
; _this$ = ecx

; 756  : 		{	// return true if conversions never change input (from codecvt)

  00000	55		 push	 ebp
  00001	8b ec		 mov	 ebp, esp
  00003	83 ec 44	 sub	 esp, 68			; 00000044H
  00006	53		 push	 ebx
  00007	56		 push	 esi
  00008	57		 push	 edi
  00009	89 4d fc	 mov	 DWORD PTR _this$[ebp], ecx

; 757  : 		return (do_always_noconv());

  0000c	8b 45 fc	 mov	 eax, DWORD PTR _this$[ebp]
  0000f	8b 10		 mov	 edx, DWORD PTR [eax]
  00011	8b 4d fc	 mov	 ecx, DWORD PTR _this$[ebp]
  00014	8b 42 04	 mov	 eax, DWORD PTR [edx+4]
  00017	ff d0		 call	 eax

; 758  : 		}

  00019	5f		 pop	 edi
  0001a	5e		 pop	 esi
  0001b	5b		 pop	 ebx
  0001c	8b e5		 mov	 esp, ebp
  0001e	5d		 pop	 ebp
  0001f	c3		 ret	 0
?always_noconv@codecvt_base@std@@QBE_NXZ ENDP		; std::codecvt_base::always_noconv
; Function compile flags: /Odtp /ZI
_TEXT	ENDS
;	COMDAT ??1codecvt_base@std@@UAE@XZ
_TEXT	SEGMENT
_this$ = -4						; size = 4
??1codecvt_base@std@@UAE@XZ PROC			; std::codecvt_base::~codecvt_base, COMDAT
; _this$ = ecx

; 771  : 		{	// destroy the object

  00000	55		 push	 ebp
  00001	8b ec		 mov	 ebp, esp
  00003	83 ec 44	 sub	 esp, 68			; 00000044H
  00006	53		 push	 ebx
  00007	56		 push	 esi
  00008	57		 push	 edi
  00009	89 4d fc	 mov	 DWORD PTR _this$[ebp], ecx
  0000c	8b 45 fc	 mov	 eax, DWORD PTR _this$[ebp]
  0000f	c7 00 00 00 00
	00		 mov	 DWORD PTR [eax], OFFSET ??_7codecvt_base@std@@6B@

; 772  : 		}

  00015	8b 4d fc	 mov	 ecx, DWORD PTR _this$[ebp]
  00018	e8 00 00 00 00	 call	 ??1facet@locale@std@@UAE@XZ ; std::locale::facet::~facet
  0001d	5f		 pop	 edi
  0001e	5e		 pop	 esi
  0001f	5b		 pop	 ebx
  00020	8b e5		 mov	 esp, ebp
  00022	5d		 pop	 ebp
  00023	c3		 ret	 0
??1codecvt_base@std@@UAE@XZ ENDP			; std::codecvt_base::~codecvt_base
; Function compile flags: /Odtp /ZI
_TEXT	ENDS
;	COMDAT ?do_always_noconv@codecvt_base@std@@MBE_NXZ
_TEXT	SEGMENT
_this$ = -4						; size = 4
?do_always_noconv@codecvt_base@std@@MBE_NXZ PROC	; std::codecvt_base::do_always_noconv, COMDAT
; _this$ = ecx

; 776  : 		{	// return true if conversions never change input (from codecvt)

  00000	55		 push	 ebp
  00001	8b ec		 mov	 ebp, esp
  00003	83 ec 44	 sub	 esp, 68			; 00000044H
  00006	53		 push	 ebx
  00007	56		 push	 esi
  00008	57		 push	 edi
  00009	89 4d fc	 mov	 DWORD PTR _this$[ebp], ecx

; 777  : 		return (true);

  0000c	b0 01		 mov	 al, 1

; 778  : 		}

  0000e	5f		 pop	 edi
  0000f	5e		 pop	 esi
  00010	5b		 pop	 ebx
  00011	8b e5		 mov	 esp, ebp
  00013	5d		 pop	 ebp
  00014	c3		 ret	 0
?do_always_noconv@codecvt_base@std@@MBE_NXZ ENDP	; std::codecvt_base::do_always_noconv
; Function compile flags: /Odtp /ZI
_TEXT	ENDS
;	COMDAT ?do_max_length@codecvt_base@std@@MBEHXZ
_TEXT	SEGMENT
_this$ = -4						; size = 4
?do_max_length@codecvt_base@std@@MBEHXZ PROC		; std::codecvt_base::do_max_length, COMDAT
; _this$ = ecx

; 781  : 		{	// return maximum length required for a conversion (from codecvt)

  00000	55		 push	 ebp
  00001	8b ec		 mov	 ebp, esp
  00003	83 ec 44	 sub	 esp, 68			; 00000044H
  00006	53		 push	 ebx
  00007	56		 push	 esi
  00008	57		 push	 edi
  00009	89 4d fc	 mov	 DWORD PTR _this$[ebp], ecx

; 782  : 		return (1);

  0000c	b8 01 00 00 00	 mov	 eax, 1

; 783  : 		}

  00011	5f		 pop	 edi
  00012	5e		 pop	 esi
  00013	5b		 pop	 ebx
  00014	8b e5		 mov	 esp, ebp
  00016	5d		 pop	 ebp
  00017	c3		 ret	 0
?do_max_length@codecvt_base@std@@MBEHXZ ENDP		; std::codecvt_base::do_max_length
; Function compile flags: /Odtp /ZI
_TEXT	ENDS
;	COMDAT ?do_encoding@codecvt_base@std@@MBEHXZ
_TEXT	SEGMENT
_this$ = -4						; size = 4
?do_encoding@codecvt_base@std@@MBEHXZ PROC		; std::codecvt_base::do_encoding, COMDAT
; _this$ = ecx

; 786  : 		{	// return length of code sequence (from codecvt)

  00000	55		 push	 ebp
  00001	8b ec		 mov	 ebp, esp
  00003	83 ec 44	 sub	 esp, 68			; 00000044H
  00006	53		 push	 ebx
  00007	56		 push	 esi
  00008	57		 push	 edi
  00009	89 4d fc	 mov	 DWORD PTR _this$[ebp], ecx

; 787  : 		return (1);	// -1 ==> state dependent, 0 ==> varying length

  0000c	b8 01 00 00 00	 mov	 eax, 1

; 788  : 		}

  00011	5f		 pop	 edi
  00012	5e		 pop	 esi
  00013	5b		 pop	 ebx
  00014	8b e5		 mov	 esp, ebp
  00016	5d		 pop	 ebp
  00017	c3		 ret	 0
?do_encoding@codecvt_base@std@@MBEHXZ ENDP		; std::codecvt_base::do_encoding
; Function compile flags: /Odtp /ZI
_TEXT	ENDS
;	COMDAT ??_Gcodecvt_base@std@@UAEPAXI@Z
_TEXT	SEGMENT
_this$ = -4						; size = 4
___flags$ = 8						; size = 4
??_Gcodecvt_base@std@@UAEPAXI@Z PROC			; std::codecvt_base::`scalar deleting destructor', COMDAT
; _this$ = ecx
  00000	55		 push	 ebp
  00001	8b ec		 mov	 ebp, esp
  00003	83 ec 44	 sub	 esp, 68			; 00000044H
  00006	53		 push	 ebx
  00007	56		 push	 esi
  00008	57		 push	 edi
  00009	89 4d fc	 mov	 DWORD PTR _this$[ebp], ecx
  0000c	8b 4d fc	 mov	 ecx, DWORD PTR _this$[ebp]
  0000f	e8 00 00 00 00	 call	 ??1codecvt_base@std@@UAE@XZ ; std::codecvt_base::~codecvt_base
  00014	8b 45 08	 mov	 eax, DWORD PTR ___flags$[ebp]
  00017	83 e0 01	 and	 eax, 1
  0001a	74 0c		 je	 SHORT $LN1@scalar@6
  0001c	8b 45 fc	 mov	 eax, DWORD PTR _this$[ebp]
  0001f	50		 push	 eax
  00020	e8 00 00 00 00	 call	 ??3@YAXPAX@Z		; operator delete
  00025	83 c4 04	 add	 esp, 4
$LN1@scalar@6:
  00028	8b 45 fc	 mov	 eax, DWORD PTR _this$[ebp]
  0002b	5f		 pop	 edi
  0002c	5e		 pop	 esi
  0002d	5b		 pop	 ebx
  0002e	8b e5		 mov	 esp, ebp
  00030	5d		 pop	 ebp
  00031	c2 04 00	 ret	 4
??_Gcodecvt_base@std@@UAEPAXI@Z ENDP			; std::codecvt_base::`scalar deleting destructor'
; Function compile flags: /Odtp /ZI
_TEXT	ENDS
;	COMDAT ?widen@?$ctype@D@std@@QBEDD@Z
_TEXT	SEGMENT
_this$ = -4						; size = 4
__Byte$ = 8						; size = 1
?widen@?$ctype@D@std@@QBEDD@Z PROC			; std::ctype<char>::widen, COMDAT
; _this$ = ecx

; 2324 : 		{	// widen char

  00000	55		 push	 ebp
  00001	8b ec		 mov	 ebp, esp
  00003	83 ec 44	 sub	 esp, 68			; 00000044H
  00006	53		 push	 ebx
  00007	56		 push	 esi
  00008	57		 push	 edi
  00009	89 4d fc	 mov	 DWORD PTR _this$[ebp], ecx

; 2325 : 		return (do_widen(_Byte));

  0000c	0f b6 45 08	 movzx	 eax, BYTE PTR __Byte$[ebp]
  00010	50		 push	 eax
  00011	8b 4d fc	 mov	 ecx, DWORD PTR _this$[ebp]
  00014	8b 11		 mov	 edx, DWORD PTR [ecx]
  00016	8b 4d fc	 mov	 ecx, DWORD PTR _this$[ebp]
  00019	8b 42 18	 mov	 eax, DWORD PTR [edx+24]
  0001c	ff d0		 call	 eax

; 2326 : 		}

  0001e	5f		 pop	 edi
  0001f	5e		 pop	 esi
  00020	5b		 pop	 ebx
  00021	8b e5		 mov	 esp, ebp
  00023	5d		 pop	 ebp
  00024	c2 04 00	 ret	 4
?widen@?$ctype@D@std@@QBEDD@Z ENDP			; std::ctype<char>::widen
; Function compile flags: /Odtp /ZI
; File d:\microsoft visual studio 10.0\vc\include\xiosbase
_TEXT	ENDS
;	COMDAT ?flags@ios_base@std@@QBEHXZ
_TEXT	SEGMENT
_this$ = -4						; size = 4
?flags@ios_base@std@@QBEHXZ PROC			; std::ios_base::flags, COMDAT
; _this$ = ecx

; 394  : 		{	// return format flags

  00000	55		 push	 ebp
  00001	8b ec		 mov	 ebp, esp
  00003	83 ec 44	 sub	 esp, 68			; 00000044H
  00006	53		 push	 ebx
  00007	56		 push	 esi
  00008	57		 push	 edi
  00009	89 4d fc	 mov	 DWORD PTR _this$[ebp], ecx

; 395  : 		return (_Fmtfl);

  0000c	8b 45 fc	 mov	 eax, DWORD PTR _this$[ebp]
  0000f	8b 40 14	 mov	 eax, DWORD PTR [eax+20]

; 396  : 		}

  00012	5f		 pop	 edi
  00013	5e		 pop	 esi
  00014	5b		 pop	 ebx
  00015	8b e5		 mov	 esp, ebp
  00017	5d		 pop	 ebp
  00018	c3		 ret	 0
?flags@ios_base@std@@QBEHXZ ENDP			; std::ios_base::flags
; Function compile flags: /Odtp /ZI
_TEXT	ENDS
;	COMDAT ?width@ios_base@std@@QBE_JXZ
_TEXT	SEGMENT
_this$ = -4						; size = 4
?width@ios_base@std@@QBE_JXZ PROC			; std::ios_base::width, COMDAT
; _this$ = ecx

; 439  : 		{	// return width

  00000	55		 push	 ebp
  00001	8b ec		 mov	 ebp, esp
  00003	83 ec 44	 sub	 esp, 68			; 00000044H
  00006	53		 push	 ebx
  00007	56		 push	 esi
  00008	57		 push	 edi
  00009	89 4d fc	 mov	 DWORD PTR _this$[ebp], ecx

; 440  : 		return (_Wide);

  0000c	8b 4d fc	 mov	 ecx, DWORD PTR _this$[ebp]
  0000f	8b 41 20	 mov	 eax, DWORD PTR [ecx+32]
  00012	8b 51 24	 mov	 edx, DWORD PTR [ecx+36]

; 441  : 		}

  00015	5f		 pop	 edi
  00016	5e		 pop	 esi
  00017	5b		 pop	 ebx
  00018	8b e5		 mov	 esp, ebp
  0001a	5d		 pop	 ebp
  0001b	c3		 ret	 0
?width@ios_base@std@@QBE_JXZ ENDP			; std::ios_base::width
; Function compile flags: /Odtp /ZI
_TEXT	ENDS
;	COMDAT ?width@ios_base@std@@QAE_J_J@Z
_TEXT	SEGMENT
__Oldwidth$ = -12					; size = 8
_this$ = -4						; size = 4
__Newwidth$ = 8						; size = 8
?width@ios_base@std@@QAE_J_J@Z PROC			; std::ios_base::width, COMDAT
; _this$ = ecx

; 444  : 		{	// set width to argument

  00000	55		 push	 ebp
  00001	8b ec		 mov	 ebp, esp
  00003	83 ec 4c	 sub	 esp, 76			; 0000004cH
  00006	53		 push	 ebx
  00007	56		 push	 esi
  00008	57		 push	 edi
  00009	89 4d fc	 mov	 DWORD PTR _this$[ebp], ecx

; 445  : 		streamsize _Oldwidth = _Wide;

  0000c	8b 45 fc	 mov	 eax, DWORD PTR _this$[ebp]
  0000f	8b 48 20	 mov	 ecx, DWORD PTR [eax+32]
  00012	89 4d f4	 mov	 DWORD PTR __Oldwidth$[ebp], ecx
  00015	8b 50 24	 mov	 edx, DWORD PTR [eax+36]
  00018	89 55 f8	 mov	 DWORD PTR __Oldwidth$[ebp+4], edx

; 446  : 		_Wide = _Newwidth;

  0001b	8b 45 fc	 mov	 eax, DWORD PTR _this$[ebp]
  0001e	8b 4d 08	 mov	 ecx, DWORD PTR __Newwidth$[ebp]
  00021	89 48 20	 mov	 DWORD PTR [eax+32], ecx
  00024	8b 55 0c	 mov	 edx, DWORD PTR __Newwidth$[ebp+4]
  00027	89 50 24	 mov	 DWORD PTR [eax+36], edx

; 447  : 		return (_Oldwidth);

  0002a	8b 45 f4	 mov	 eax, DWORD PTR __Oldwidth$[ebp]
  0002d	8b 55 f8	 mov	 edx, DWORD PTR __Oldwidth$[ebp+4]

; 448  : 		}

  00030	5f		 pop	 edi
  00031	5e		 pop	 esi
  00032	5b		 pop	 ebx
  00033	8b e5		 mov	 esp, ebp
  00035	5d		 pop	 ebp
  00036	c2 08 00	 ret	 8
?width@ios_base@std@@QAE_J_J@Z ENDP			; std::ios_base::width
; Function compile flags: /Odtp /ZI
_TEXT	ENDS
;	COMDAT ?getloc@ios_base@std@@QBE?AVlocale@2@XZ
_TEXT	SEGMENT
$T226354 = -72						; size = 4
_this$ = -4						; size = 4
___$ReturnUdt$ = 8					; size = 4
?getloc@ios_base@std@@QBE?AVlocale@2@XZ PROC		; std::ios_base::getloc, COMDAT
; _this$ = ecx

; 451  : 		{	// get locale

  00000	55		 push	 ebp
  00001	8b ec		 mov	 ebp, esp
  00003	83 ec 48	 sub	 esp, 72			; 00000048H
  00006	53		 push	 ebx
  00007	56		 push	 esi
  00008	57		 push	 edi
  00009	89 4d fc	 mov	 DWORD PTR _this$[ebp], ecx
  0000c	c7 45 b8 00 00
	00 00		 mov	 DWORD PTR $T226354[ebp], 0

; 452  : 		return (*_Ploc);

  00013	8b 45 fc	 mov	 eax, DWORD PTR _this$[ebp]
  00016	8b 48 30	 mov	 ecx, DWORD PTR [eax+48]
  00019	51		 push	 ecx
  0001a	8b 4d 08	 mov	 ecx, DWORD PTR ___$ReturnUdt$[ebp]
  0001d	e8 00 00 00 00	 call	 ??0locale@std@@QAE@ABV01@@Z ; std::locale::locale
  00022	8b 55 b8	 mov	 edx, DWORD PTR $T226354[ebp]
  00025	83 ca 01	 or	 edx, 1
  00028	89 55 b8	 mov	 DWORD PTR $T226354[ebp], edx
  0002b	8b 45 08	 mov	 eax, DWORD PTR ___$ReturnUdt$[ebp]

; 453  : 		}

  0002e	5f		 pop	 edi
  0002f	5e		 pop	 esi
  00030	5b		 pop	 ebx
  00031	8b e5		 mov	 esp, ebp
  00033	5d		 pop	 ebp
  00034	c2 04 00	 ret	 4
?getloc@ios_base@std@@QBE?AVlocale@2@XZ ENDP		; std::ios_base::getloc
_TEXT	ENDS
PUBLIC	??_7ios_base@std@@6B@				; std::ios_base::`vftable'
PUBLIC	??_R4ios_base@std@@6B@				; std::ios_base::`RTTI Complete Object Locator'
EXTRN	??_Eios_base@std@@UAEPAXI@Z:PROC		; std::ios_base::`vector deleting destructor'
;	COMDAT ??_R4ios_base@std@@6B@
rdata$r	SEGMENT
??_R4ios_base@std@@6B@ DD 00H				; std::ios_base::`RTTI Complete Object Locator'
	DD	00H
	DD	00H
	DD	FLAT:??_R0?AVios_base@std@@@8
	DD	FLAT:??_R3ios_base@std@@8
rdata$r	ENDS
;	COMDAT ??_7ios_base@std@@6B@
CONST	SEGMENT
??_7ios_base@std@@6B@ DD FLAT:??_R4ios_base@std@@6B@	; std::ios_base::`vftable'
	DD	FLAT:??_Eios_base@std@@UAEPAXI@Z
; Function compile flags: /Odtp /ZI
CONST	ENDS
;	COMDAT ??0ios_base@std@@IAE@XZ
_TEXT	SEGMENT
_this$ = -4						; size = 4
??0ios_base@std@@IAE@XZ PROC				; std::ios_base::ios_base, COMDAT
; _this$ = ecx

; 549  : 	__CLR_OR_THIS_CALL ios_base()

  00000	55		 push	 ebp
  00001	8b ec		 mov	 ebp, esp
  00003	83 ec 44	 sub	 esp, 68			; 00000044H
  00006	53		 push	 ebx
  00007	56		 push	 esi
  00008	57		 push	 edi
  00009	89 4d fc	 mov	 DWORD PTR _this$[ebp], ecx
  0000c	8b 45 fc	 mov	 eax, DWORD PTR _this$[ebp]
  0000f	c7 00 00 00 00
	00		 mov	 DWORD PTR [eax], OFFSET ??_7ios_base@std@@6B@

; 550  : 		{	// default constructor
; 551  : 		}

  00015	8b 45 fc	 mov	 eax, DWORD PTR _this$[ebp]
  00018	5f		 pop	 edi
  00019	5e		 pop	 esi
  0001a	5b		 pop	 ebx
  0001b	8b e5		 mov	 esp, ebp
  0001d	5d		 pop	 ebp
  0001e	c3		 ret	 0
??0ios_base@std@@IAE@XZ ENDP				; std::ios_base::ios_base
_TEXT	ENDS
PUBLIC	?clear@ios_base@std@@QAEXH@Z			; std::ios_base::clear
; Function compile flags: /Odtp /ZI
;	COMDAT ?_Init@ios_base@std@@IAEXXZ
_TEXT	SEGMENT
tv80 = -76						; size = 4
$T226360 = -72						; size = 4
_this$ = -4						; size = 4
?_Init@ios_base@std@@IAEXXZ PROC			; std::ios_base::_Init, COMDAT
; _this$ = ecx

; 554  : 		{	// initialize a new ios_base

  00000	55		 push	 ebp
  00001	8b ec		 mov	 ebp, esp
  00003	83 ec 4c	 sub	 esp, 76			; 0000004cH
  00006	53		 push	 ebx
  00007	56		 push	 esi
  00008	57		 push	 edi
  00009	89 4d fc	 mov	 DWORD PTR _this$[ebp], ecx

; 555  : 		_Ploc = 0;

  0000c	8b 45 fc	 mov	 eax, DWORD PTR _this$[ebp]
  0000f	c7 40 30 00 00
	00 00		 mov	 DWORD PTR [eax+48], 0

; 556  : 		_Stdstr = 0;

  00016	8b 45 fc	 mov	 eax, DWORD PTR _this$[ebp]
  00019	c7 40 08 00 00
	00 00		 mov	 DWORD PTR [eax+8], 0

; 557  : 		_Except = goodbit;

  00020	8b 45 fc	 mov	 eax, DWORD PTR _this$[ebp]
  00023	c7 40 10 00 00
	00 00		 mov	 DWORD PTR [eax+16], 0

; 558  : 		_Fmtfl = (fmtflags)(skipws | dec);

  0002a	8b 45 fc	 mov	 eax, DWORD PTR _this$[ebp]
  0002d	c7 40 14 01 02
	00 00		 mov	 DWORD PTR [eax+20], 513	; 00000201H

; 559  : 		_Prec = 6;

  00034	8b 45 fc	 mov	 eax, DWORD PTR _this$[ebp]
  00037	c7 40 18 06 00
	00 00		 mov	 DWORD PTR [eax+24], 6
  0003e	c7 40 1c 00 00
	00 00		 mov	 DWORD PTR [eax+28], 0

; 560  : 		_Wide = 0;

  00045	8b 45 fc	 mov	 eax, DWORD PTR _this$[ebp]
  00048	c7 40 20 00 00
	00 00		 mov	 DWORD PTR [eax+32], 0
  0004f	c7 40 24 00 00
	00 00		 mov	 DWORD PTR [eax+36], 0

; 561  : 		_Arr = 0;

  00056	8b 45 fc	 mov	 eax, DWORD PTR _this$[ebp]
  00059	c7 40 28 00 00
	00 00		 mov	 DWORD PTR [eax+40], 0

; 562  : 		_Calls = 0;

  00060	8b 45 fc	 mov	 eax, DWORD PTR _this$[ebp]
  00063	c7 40 2c 00 00
	00 00		 mov	 DWORD PTR [eax+44], 0

; 563  : 		clear(goodbit);

  0006a	6a 00		 push	 0
  0006c	8b 4d fc	 mov	 ecx, DWORD PTR _this$[ebp]
  0006f	e8 00 00 00 00	 call	 ?clear@ios_base@std@@QAEXH@Z ; std::ios_base::clear

; 564  : 		_Ploc = _NEW_CRT locale;

  00074	6a 04		 push	 4
  00076	e8 00 00 00 00	 call	 ??2@YAPAXI@Z		; operator new
  0007b	83 c4 04	 add	 esp, 4
  0007e	89 45 b8	 mov	 DWORD PTR $T226360[ebp], eax
  00081	83 7d b8 00	 cmp	 DWORD PTR $T226360[ebp], 0
  00085	74 0d		 je	 SHORT $LN3@Init@2
  00087	8b 4d b8	 mov	 ecx, DWORD PTR $T226360[ebp]
  0008a	e8 00 00 00 00	 call	 ??0locale@std@@QAE@XZ	; std::locale::locale
  0008f	89 45 b4	 mov	 DWORD PTR tv80[ebp], eax
  00092	eb 07		 jmp	 SHORT $LN4@Init@2
$LN3@Init@2:
  00094	c7 45 b4 00 00
	00 00		 mov	 DWORD PTR tv80[ebp], 0
$LN4@Init@2:
  0009b	8b 45 fc	 mov	 eax, DWORD PTR _this$[ebp]
  0009e	8b 4d b4	 mov	 ecx, DWORD PTR tv80[ebp]
  000a1	89 48 30	 mov	 DWORD PTR [eax+48], ecx

; 565  : 		}

  000a4	5f		 pop	 edi
  000a5	5e		 pop	 esi
  000a6	5b		 pop	 ebx
  000a7	8b e5		 mov	 esp, ebp
  000a9	5d		 pop	 ebp
  000aa	c3		 ret	 0
?_Init@ios_base@std@@IAEXXZ ENDP			; std::ios_base::_Init
_TEXT	ENDS
PUBLIC	?clear@ios_base@std@@QAEXH_N@Z			; std::ios_base::clear
; Function compile flags: /Odtp /ZI
;	COMDAT ?clear@ios_base@std@@QAEXH@Z
_TEXT	SEGMENT
_this$ = -4						; size = 4
__State$ = 8						; size = 4
?clear@ios_base@std@@QAEXH@Z PROC			; std::ios_base::clear, COMDAT
; _this$ = ecx

; 325  : 		{	// set state to argument

  00000	55		 push	 ebp
  00001	8b ec		 mov	 ebp, esp
  00003	83 ec 44	 sub	 esp, 68			; 00000044H
  00006	53		 push	 ebx
  00007	56		 push	 esi
  00008	57		 push	 edi
  00009	89 4d fc	 mov	 DWORD PTR _this$[ebp], ecx

; 326  : 		clear(_State, false);

  0000c	6a 00		 push	 0
  0000e	8b 45 08	 mov	 eax, DWORD PTR __State$[ebp]
  00011	50		 push	 eax
  00012	8b 4d fc	 mov	 ecx, DWORD PTR _this$[ebp]
  00015	e8 00 00 00 00	 call	 ?clear@ios_base@std@@QAEXH_N@Z ; std::ios_base::clear

; 327  : 		}

  0001a	5f		 pop	 edi
  0001b	5e		 pop	 esi
  0001c	5b		 pop	 ebx
  0001d	8b e5		 mov	 esp, ebp
  0001f	5d		 pop	 ebp
  00020	c2 04 00	 ret	 4
?clear@ios_base@std@@QAEXH@Z ENDP			; std::ios_base::clear
_TEXT	ENDS
PUBLIC	??_C@_0BF@OOHOMBOF@ios_base?3?3eofbit?5set?$AA@	; `string'
PUBLIC	??_C@_0BG@FMKFHCIL@ios_base?3?3failbit?5set?$AA@ ; `string'
PUBLIC	__TI4?AVfailure@ios_base@std@@
PUBLIC	??0failure@ios_base@std@@QAE@PBDABVerror_code@2@@Z ; std::ios_base::failure::failure
PUBLIC	??_C@_0BF@PHHKMMFD@ios_base?3?3badbit?5set?$AA@	; `string'
PUBLIC	?make_error_code@std@@YA?AVerror_code@1@W4io_errc@31@@Z ; std::make_error_code
PUBLIC	??1failure@ios_base@std@@UAE@XZ			; std::ios_base::failure::~failure
PUBLIC	__CTA4?AVfailure@ios_base@std@@
PUBLIC	__CT??_R0?AVfailure@ios_base@std@@@8??0failure@ios_base@std@@QAE@ABV012@@Z20
PUBLIC	??_R0?AVfailure@ios_base@std@@@8		; std::ios_base::failure `RTTI Type Descriptor'
PUBLIC	??0failure@ios_base@std@@QAE@ABV012@@Z		; std::ios_base::failure::failure
PUBLIC	__CT??_R0?AVsystem_error@std@@@8??0system_error@std@@QAE@ABV01@@Z20
PUBLIC	??_R0?AVsystem_error@std@@@8			; std::system_error `RTTI Type Descriptor'
PUBLIC	??0system_error@std@@QAE@ABV01@@Z		; std::system_error::system_error
;	COMDAT ??_R0?AVsystem_error@std@@@8
_DATA	SEGMENT
??_R0?AVsystem_error@std@@@8 DD FLAT:??_7type_info@@6B@	; std::system_error `RTTI Type Descriptor'
	DD	00H
	DB	'.?AVsystem_error@std@@', 00H
_DATA	ENDS
;	COMDAT __CT??_R0?AVsystem_error@std@@@8??0system_error@std@@QAE@ABV01@@Z20
xdata$x	SEGMENT
__CT??_R0?AVsystem_error@std@@@8??0system_error@std@@QAE@ABV01@@Z20 DD 00H
	DD	FLAT:??_R0?AVsystem_error@std@@@8
	DD	00H
	DD	0ffffffffH
	ORG $+4
	DD	014H
	DD	FLAT:??0system_error@std@@QAE@ABV01@@Z
xdata$x	ENDS
;	COMDAT ??_R0?AVfailure@ios_base@std@@@8
_DATA	SEGMENT
??_R0?AVfailure@ios_base@std@@@8 DD FLAT:??_7type_info@@6B@ ; std::ios_base::failure `RTTI Type Descriptor'
	DD	00H
	DB	'.?AVfailure@ios_base@std@@', 00H
_DATA	ENDS
;	COMDAT __CT??_R0?AVfailure@ios_base@std@@@8??0failure@ios_base@std@@QAE@ABV012@@Z20
xdata$x	SEGMENT
__CT??_R0?AVfailure@ios_base@std@@@8??0failure@ios_base@std@@QAE@ABV012@@Z20 DD 00H
	DD	FLAT:??_R0?AVfailure@ios_base@std@@@8
	DD	00H
	DD	0ffffffffH
	ORG $+4
	DD	014H
	DD	FLAT:??0failure@ios_base@std@@QAE@ABV012@@Z
xdata$x	ENDS
;	COMDAT __CTA4?AVfailure@ios_base@std@@
xdata$x	SEGMENT
__CTA4?AVfailure@ios_base@std@@ DD 04H
	DD	FLAT:__CT??_R0?AVfailure@ios_base@std@@@8??0failure@ios_base@std@@QAE@ABV012@@Z20
	DD	FLAT:__CT??_R0?AVsystem_error@std@@@8??0system_error@std@@QAE@ABV01@@Z20
	DD	FLAT:__CT??_R0?AVruntime_error@std@@@8??0runtime_error@std@@QAE@ABV01@@Z12
	DD	FLAT:__CT??_R0?AVexception@std@@@8??0exception@std@@QAE@ABV01@@Z12
xdata$x	ENDS
;	COMDAT ??_C@_0BF@OOHOMBOF@ios_base?3?3eofbit?5set?$AA@
CONST	SEGMENT
??_C@_0BF@OOHOMBOF@ios_base?3?3eofbit?5set?$AA@ DB 'ios_base::eofbit set', 00H ; `string'
CONST	ENDS
;	COMDAT ??_C@_0BG@FMKFHCIL@ios_base?3?3failbit?5set?$AA@
CONST	SEGMENT
??_C@_0BG@FMKFHCIL@ios_base?3?3failbit?5set?$AA@ DB 'ios_base::failbit se'
	DB	't', 00H					; `string'
CONST	ENDS
;	COMDAT __TI4?AVfailure@ios_base@std@@
xdata$x	SEGMENT
__TI4?AVfailure@ios_base@std@@ DD 00H
	DD	FLAT:??1failure@ios_base@std@@UAE@XZ
	DD	00H
	DD	FLAT:__CTA4?AVfailure@ios_base@std@@
xdata$x	ENDS
;	COMDAT ??_C@_0BF@PHHKMMFD@ios_base?3?3badbit?5set?$AA@
CONST	SEGMENT
??_C@_0BF@PHHKMMFD@ios_base?3?3badbit?5set?$AA@ DB 'ios_base::badbit set', 00H ; `string'
; Function compile flags: /Odtp /ZI
CONST	ENDS
;	COMDAT ?clear@ios_base@std@@QAEXH_N@Z
_TEXT	SEGMENT
$T226367 = -152						; size = 20
$T226368 = -132						; size = 8
$T226369 = -124						; size = 20
$T226370 = -104						; size = 8
$T226371 = -96						; size = 20
$T226372 = -76						; size = 8
_this$ = -4						; size = 4
__State$ = 8						; size = 4
__Reraise$ = 12						; size = 1
?clear@ios_base@std@@QAEXH_N@Z PROC			; std::ios_base::clear, COMDAT
; _this$ = ecx

; 310  : 		{	// set state, possibly reraise exception

  00000	55		 push	 ebp
  00001	8b ec		 mov	 ebp, esp
  00003	81 ec 98 00 00
	00		 sub	 esp, 152		; 00000098H
  00009	53		 push	 ebx
  0000a	56		 push	 esi
  0000b	57		 push	 edi
  0000c	89 4d fc	 mov	 DWORD PTR _this$[ebp], ecx

; 311  : 		_Mystate = (iostate)(_State & _Statmask);

  0000f	8b 45 08	 mov	 eax, DWORD PTR __State$[ebp]
  00012	83 e0 17	 and	 eax, 23			; 00000017H
  00015	8b 4d fc	 mov	 ecx, DWORD PTR _this$[ebp]
  00018	89 41 0c	 mov	 DWORD PTR [ecx+12], eax

; 312  : 		if ((_Mystate & _Except) == 0)

  0001b	8b 45 fc	 mov	 eax, DWORD PTR _this$[ebp]
  0001e	8b 4d fc	 mov	 ecx, DWORD PTR _this$[ebp]
  00021	8b 50 0c	 mov	 edx, DWORD PTR [eax+12]
  00024	23 51 10	 and	 edx, DWORD PTR [ecx+16]
  00027	75 05		 jne	 SHORT $LN8@clear
  00029	e9 c3 00 00 00	 jmp	 $LN10@clear
$LN8@clear:

; 313  : 			;
; 314  : 		else if (_Reraise)

  0002e	0f b6 45 0c	 movzx	 eax, BYTE PTR __Reraise$[ebp]
  00032	85 c0		 test	 eax, eax
  00034	74 0e		 je	 SHORT $LN6@clear

; 315  : 			_RERAISE;

  00036	6a 00		 push	 0
  00038	6a 00		 push	 0
  0003a	e8 00 00 00 00	 call	 __CxxThrowException@8
  0003f	e9 ad 00 00 00	 jmp	 $LN10@clear
$LN6@clear:

; 316  : 		else if (_Mystate & _Except & badbit)

  00044	8b 45 fc	 mov	 eax, DWORD PTR _this$[ebp]
  00047	8b 4d fc	 mov	 ecx, DWORD PTR _this$[ebp]
  0004a	8b 50 0c	 mov	 edx, DWORD PTR [eax+12]
  0004d	23 51 10	 and	 edx, DWORD PTR [ecx+16]
  00050	83 e2 04	 and	 edx, 4
  00053	74 35		 je	 SHORT $LN4@clear

; 317  : 			_THROW_NCEE(failure, "ios_base::badbit set");

  00055	6a 01		 push	 1
  00057	8d 85 7c ff ff
	ff		 lea	 eax, DWORD PTR $T226368[ebp]
  0005d	50		 push	 eax
  0005e	e8 00 00 00 00	 call	 ?make_error_code@std@@YA?AVerror_code@1@W4io_errc@31@@Z ; std::make_error_code
  00063	83 c4 08	 add	 esp, 8
  00066	50		 push	 eax
  00067	68 00 00 00 00	 push	 OFFSET ??_C@_0BF@PHHKMMFD@ios_base?3?3badbit?5set?$AA@
  0006c	8d 8d 68 ff ff
	ff		 lea	 ecx, DWORD PTR $T226367[ebp]
  00072	e8 00 00 00 00	 call	 ??0failure@ios_base@std@@QAE@PBDABVerror_code@2@@Z ; std::ios_base::failure::failure
  00077	68 00 00 00 00	 push	 OFFSET __TI4?AVfailure@ios_base@std@@
  0007c	8d 8d 68 ff ff
	ff		 lea	 ecx, DWORD PTR $T226367[ebp]
  00082	51		 push	 ecx
  00083	e8 00 00 00 00	 call	 __CxxThrowException@8
  00088	eb 67		 jmp	 SHORT $LN10@clear
$LN4@clear:

; 318  : 		else if (_Mystate & _Except & failbit)

  0008a	8b 45 fc	 mov	 eax, DWORD PTR _this$[ebp]
  0008d	8b 4d fc	 mov	 ecx, DWORD PTR _this$[ebp]
  00090	8b 50 0c	 mov	 edx, DWORD PTR [eax+12]
  00093	23 51 10	 and	 edx, DWORD PTR [ecx+16]
  00096	83 e2 02	 and	 edx, 2
  00099	74 2c		 je	 SHORT $LN2@clear

; 319  : 			_THROW_NCEE(failure, "ios_base::failbit set");

  0009b	6a 01		 push	 1
  0009d	8d 45 98	 lea	 eax, DWORD PTR $T226370[ebp]
  000a0	50		 push	 eax
  000a1	e8 00 00 00 00	 call	 ?make_error_code@std@@YA?AVerror_code@1@W4io_errc@31@@Z ; std::make_error_code
  000a6	83 c4 08	 add	 esp, 8
  000a9	50		 push	 eax
  000aa	68 00 00 00 00	 push	 OFFSET ??_C@_0BG@FMKFHCIL@ios_base?3?3failbit?5set?$AA@
  000af	8d 4d 84	 lea	 ecx, DWORD PTR $T226369[ebp]
  000b2	e8 00 00 00 00	 call	 ??0failure@ios_base@std@@QAE@PBDABVerror_code@2@@Z ; std::ios_base::failure::failure
  000b7	68 00 00 00 00	 push	 OFFSET __TI4?AVfailure@ios_base@std@@
  000bc	8d 4d 84	 lea	 ecx, DWORD PTR $T226369[ebp]
  000bf	51		 push	 ecx
  000c0	e8 00 00 00 00	 call	 __CxxThrowException@8

; 320  : 		else

  000c5	eb 2a		 jmp	 SHORT $LN10@clear
$LN2@clear:

; 321  : 			_THROW_NCEE(failure, "ios_base::eofbit set");

  000c7	6a 01		 push	 1
  000c9	8d 45 b4	 lea	 eax, DWORD PTR $T226372[ebp]
  000cc	50		 push	 eax
  000cd	e8 00 00 00 00	 call	 ?make_error_code@std@@YA?AVerror_code@1@W4io_errc@31@@Z ; std::make_error_code
  000d2	83 c4 08	 add	 esp, 8
  000d5	50		 push	 eax
  000d6	68 00 00 00 00	 push	 OFFSET ??_C@_0BF@OOHOMBOF@ios_base?3?3eofbit?5set?$AA@
  000db	8d 4d a0	 lea	 ecx, DWORD PTR $T226371[ebp]
  000de	e8 00 00 00 00	 call	 ??0failure@ios_base@std@@QAE@PBDABVerror_code@2@@Z ; std::ios_base::failure::failure
  000e3	68 00 00 00 00	 push	 OFFSET __TI4?AVfailure@ios_base@std@@
  000e8	8d 4d a0	 lea	 ecx, DWORD PTR $T226371[ebp]
  000eb	51		 push	 ecx
  000ec	e8 00 00 00 00	 call	 __CxxThrowException@8
$LN10@clear:

; 322  : 		}

  000f1	5f		 pop	 edi
  000f2	5e		 pop	 esi
  000f3	5b		 pop	 ebx
  000f4	8b e5		 mov	 esp, ebp
  000f6	5d		 pop	 ebp
  000f7	c2 08 00	 ret	 8
?clear@ios_base@std@@QAEXH_N@Z ENDP			; std::ios_base::clear
_TEXT	ENDS
PUBLIC	??0error_code@std@@QAE@HABVerror_category@1@@Z	; std::error_code::error_code
EXTRN	?iostream_category@std@@YAABVerror_category@1@XZ:PROC ; std::iostream_category
; Function compile flags: /Odtp /ZI
; File d:\microsoft visual studio 10.0\vc\include\system_error
;	COMDAT ?make_error_code@std@@YA?AVerror_code@1@W4io_errc@31@@Z
_TEXT	SEGMENT
___$ReturnUdt$ = 8					; size = 4
__Errno$ = 12						; size = 4
?make_error_code@std@@YA?AVerror_code@1@W4io_errc@31@@Z PROC ; std::make_error_code, COMDAT

; 446  : 	{	// make an error_code

  00000	55		 push	 ebp
  00001	8b ec		 mov	 ebp, esp
  00003	83 ec 40	 sub	 esp, 64			; 00000040H
  00006	53		 push	 ebx
  00007	56		 push	 esi
  00008	57		 push	 edi

; 447  : 	return (error_code(_Errno, iostream_category()));

  00009	e8 00 00 00 00	 call	 ?iostream_category@std@@YAABVerror_category@1@XZ ; std::iostream_category
  0000e	50		 push	 eax
  0000f	8b 45 0c	 mov	 eax, DWORD PTR __Errno$[ebp]
  00012	50		 push	 eax
  00013	8b 4d 08	 mov	 ecx, DWORD PTR ___$ReturnUdt$[ebp]
  00016	e8 00 00 00 00	 call	 ??0error_code@std@@QAE@HABVerror_category@1@@Z ; std::error_code::error_code
  0001b	8b 45 08	 mov	 eax, DWORD PTR ___$ReturnUdt$[ebp]

; 448  : 	}

  0001e	5f		 pop	 edi
  0001f	5e		 pop	 esi
  00020	5b		 pop	 ebx
  00021	8b e5		 mov	 esp, ebp
  00023	5d		 pop	 ebp
  00024	c3		 ret	 0
?make_error_code@std@@YA?AVerror_code@1@W4io_errc@31@@Z ENDP ; std::make_error_code
; Function compile flags: /Odtp /ZI
_TEXT	ENDS
;	COMDAT ??0error_code@std@@QAE@HABVerror_category@1@@Z
_TEXT	SEGMENT
_this$ = -4						; size = 4
__Val$ = 8						; size = 4
__Cat$ = 12						; size = 4
??0error_code@std@@QAE@HABVerror_category@1@@Z PROC	; std::error_code::error_code, COMDAT
; _this$ = ecx

; 204  : 		{	// construct from error code and category

  00000	55		 push	 ebp
  00001	8b ec		 mov	 ebp, esp
  00003	83 ec 44	 sub	 esp, 68			; 00000044H
  00006	53		 push	 ebx
  00007	56		 push	 esi
  00008	57		 push	 edi
  00009	89 4d fc	 mov	 DWORD PTR _this$[ebp], ecx
  0000c	8b 45 fc	 mov	 eax, DWORD PTR _this$[ebp]
  0000f	8b 4d 08	 mov	 ecx, DWORD PTR __Val$[ebp]
  00012	89 08		 mov	 DWORD PTR [eax], ecx
  00014	8b 45 fc	 mov	 eax, DWORD PTR _this$[ebp]
  00017	8b 4d 0c	 mov	 ecx, DWORD PTR __Cat$[ebp]
  0001a	89 48 04	 mov	 DWORD PTR [eax+4], ecx

; 205  : 		}

  0001d	8b 45 fc	 mov	 eax, DWORD PTR _this$[ebp]
  00020	5f		 pop	 edi
  00021	5e		 pop	 esi
  00022	5b		 pop	 ebx
  00023	8b e5		 mov	 esp, ebp
  00025	5d		 pop	 ebp
  00026	c2 08 00	 ret	 8
??0error_code@std@@QAE@HABVerror_category@1@@Z ENDP	; std::error_code::error_code
_TEXT	ENDS
PUBLIC	??_7failure@ios_base@std@@6B@			; std::ios_base::failure::`vftable'
PUBLIC	??0system_error@std@@QAE@Verror_code@1@PBD@Z	; std::system_error::system_error
PUBLIC	??_R4failure@ios_base@std@@6B@			; std::ios_base::failure::`RTTI Complete Object Locator'
PUBLIC	??_R3failure@ios_base@std@@8			; std::ios_base::failure::`RTTI Class Hierarchy Descriptor'
PUBLIC	??_R2failure@ios_base@std@@8			; std::ios_base::failure::`RTTI Base Class Array'
PUBLIC	??_R1A@?0A@EA@failure@ios_base@std@@8		; std::ios_base::failure::`RTTI Base Class Descriptor at (0,-1,0,64)'
PUBLIC	??_R1A@?0A@EA@system_error@std@@8		; std::system_error::`RTTI Base Class Descriptor at (0,-1,0,64)'
PUBLIC	??_R3system_error@std@@8			; std::system_error::`RTTI Class Hierarchy Descriptor'
PUBLIC	??_R2system_error@std@@8			; std::system_error::`RTTI Base Class Array'
EXTRN	??_Efailure@ios_base@std@@UAEPAXI@Z:PROC	; std::ios_base::failure::`vector deleting destructor'
;	COMDAT ??_R2system_error@std@@8
; File d:\microsoft visual studio 10.0\vc\include\xiosbase
rdata$r	SEGMENT
??_R2system_error@std@@8 DD FLAT:??_R1A@?0A@EA@system_error@std@@8 ; std::system_error::`RTTI Base Class Array'
	DD	FLAT:??_R1A@?0A@EA@runtime_error@std@@8
	DD	FLAT:??_R1A@?0A@EA@exception@std@@8
rdata$r	ENDS
;	COMDAT ??_R3system_error@std@@8
rdata$r	SEGMENT
??_R3system_error@std@@8 DD 00H				; std::system_error::`RTTI Class Hierarchy Descriptor'
	DD	00H
	DD	03H
	DD	FLAT:??_R2system_error@std@@8
rdata$r	ENDS
;	COMDAT ??_R1A@?0A@EA@system_error@std@@8
rdata$r	SEGMENT
??_R1A@?0A@EA@system_error@std@@8 DD FLAT:??_R0?AVsystem_error@std@@@8 ; std::system_error::`RTTI Base Class Descriptor at (0,-1,0,64)'
	DD	02H
	DD	00H
	DD	0ffffffffH
	DD	00H
	DD	040H
	DD	FLAT:??_R3system_error@std@@8
rdata$r	ENDS
;	COMDAT ??_R1A@?0A@EA@failure@ios_base@std@@8
rdata$r	SEGMENT
??_R1A@?0A@EA@failure@ios_base@std@@8 DD FLAT:??_R0?AVfailure@ios_base@std@@@8 ; std::ios_base::failure::`RTTI Base Class Descriptor at (0,-1,0,64)'
	DD	03H
	DD	00H
	DD	0ffffffffH
	DD	00H
	DD	040H
	DD	FLAT:??_R3failure@ios_base@std@@8
rdata$r	ENDS
;	COMDAT ??_R2failure@ios_base@std@@8
rdata$r	SEGMENT
??_R2failure@ios_base@std@@8 DD FLAT:??_R1A@?0A@EA@failure@ios_base@std@@8 ; std::ios_base::failure::`RTTI Base Class Array'
	DD	FLAT:??_R1A@?0A@EA@system_error@std@@8
	DD	FLAT:??_R1A@?0A@EA@runtime_error@std@@8
	DD	FLAT:??_R1A@?0A@EA@exception@std@@8
rdata$r	ENDS
;	COMDAT ??_R3failure@ios_base@std@@8
rdata$r	SEGMENT
??_R3failure@ios_base@std@@8 DD 00H			; std::ios_base::failure::`RTTI Class Hierarchy Descriptor'
	DD	00H
	DD	04H
	DD	FLAT:??_R2failure@ios_base@std@@8
rdata$r	ENDS
;	COMDAT ??_R4failure@ios_base@std@@6B@
rdata$r	SEGMENT
??_R4failure@ios_base@std@@6B@ DD 00H			; std::ios_base::failure::`RTTI Complete Object Locator'
	DD	00H
	DD	00H
	DD	FLAT:??_R0?AVfailure@ios_base@std@@@8
	DD	FLAT:??_R3failure@ios_base@std@@8
rdata$r	ENDS
;	COMDAT ??_7failure@ios_base@std@@6B@
CONST	SEGMENT
??_7failure@ios_base@std@@6B@ DD FLAT:??_R4failure@ios_base@std@@6B@ ; std::ios_base::failure::`vftable'
	DD	FLAT:??_Efailure@ios_base@std@@UAEPAXI@Z
	DD	FLAT:?what@exception@std@@UBEPBDXZ
; Function compile flags: /Odtp /ZI
CONST	ENDS
;	COMDAT ??0failure@ios_base@std@@QAE@PBDABVerror_code@2@@Z
_TEXT	SEGMENT
_this$ = -4						; size = 4
__Message$ = 8						; size = 4
__Errcode$ = 12						; size = 4
??0failure@ios_base@std@@QAE@PBDABVerror_code@2@@Z PROC	; std::ios_base::failure::failure, COMDAT
; _this$ = ecx

; 237  : 			{	// construct with message

  00000	55		 push	 ebp
  00001	8b ec		 mov	 ebp, esp
  00003	83 ec 44	 sub	 esp, 68			; 00000044H
  00006	53		 push	 ebx
  00007	56		 push	 esi
  00008	57		 push	 edi
  00009	89 4d fc	 mov	 DWORD PTR _this$[ebp], ecx
  0000c	8b 45 08	 mov	 eax, DWORD PTR __Message$[ebp]
  0000f	50		 push	 eax
  00010	8b 4d 0c	 mov	 ecx, DWORD PTR __Errcode$[ebp]
  00013	8b 51 04	 mov	 edx, DWORD PTR [ecx+4]
  00016	52		 push	 edx
  00017	8b 01		 mov	 eax, DWORD PTR [ecx]
  00019	50		 push	 eax
  0001a	8b 4d fc	 mov	 ecx, DWORD PTR _this$[ebp]
  0001d	e8 00 00 00 00	 call	 ??0system_error@std@@QAE@Verror_code@1@PBD@Z ; std::system_error::system_error
  00022	8b 45 fc	 mov	 eax, DWORD PTR _this$[ebp]
  00025	c7 00 00 00 00
	00		 mov	 DWORD PTR [eax], OFFSET ??_7failure@ios_base@std@@6B@

; 238  : 			}

  0002b	8b 45 fc	 mov	 eax, DWORD PTR _this$[ebp]
  0002e	5f		 pop	 edi
  0002f	5e		 pop	 esi
  00030	5b		 pop	 ebx
  00031	8b e5		 mov	 esp, ebp
  00033	5d		 pop	 ebp
  00034	c2 08 00	 ret	 8
??0failure@ios_base@std@@QAE@PBDABVerror_code@2@@Z ENDP	; std::ios_base::failure::failure
_TEXT	ENDS
PUBLIC	?_Makestr@system_error@std@@AAEXXZ		; std::system_error::_Makestr
PUBLIC	??_7system_error@std@@6B@			; std::system_error::`vftable'
PUBLIC	??_R4system_error@std@@6B@			; std::system_error::`RTTI Complete Object Locator'
EXTRN	??_Esystem_error@std@@UAEPAXI@Z:PROC		; std::system_error::`vector deleting destructor'
;	COMDAT ??_R4system_error@std@@6B@
; File d:\microsoft visual studio 10.0\vc\include\system_error
rdata$r	SEGMENT
??_R4system_error@std@@6B@ DD 00H			; std::system_error::`RTTI Complete Object Locator'
	DD	00H
	DD	00H
	DD	FLAT:??_R0?AVsystem_error@std@@@8
	DD	FLAT:??_R3system_error@std@@8
rdata$r	ENDS
;	COMDAT ??_7system_error@std@@6B@
CONST	SEGMENT
??_7system_error@std@@6B@ DD FLAT:??_R4system_error@std@@6B@ ; std::system_error::`vftable'
	DD	FLAT:??_Esystem_error@std@@UAEPAXI@Z
	DD	FLAT:?what@exception@std@@UBEPBDXZ
CONST	ENDS
;	COMDAT xdata$x
xdata$x	SEGMENT
__unwindtable$??0system_error@std@@QAE@Verror_code@1@PBD@Z DD 0ffffffffH
	DD	FLAT:__unwindfunclet$??0system_error@std@@QAE@Verror_code@1@PBD@Z$0
__ehfuncinfo$??0system_error@std@@QAE@Verror_code@1@PBD@Z DD 019930522H
	DD	01H
	DD	FLAT:__unwindtable$??0system_error@std@@QAE@Verror_code@1@PBD@Z
	DD	2 DUP(00H)
	DD	2 DUP(00H)
	DD	00H
	DD	01H
; Function compile flags: /Odtp /ZI
xdata$x	ENDS
;	COMDAT ??0system_error@std@@QAE@Verror_code@1@PBD@Z
_TEXT	SEGMENT
_this$ = -16						; size = 4
__$EHRec$ = -12						; size = 12
__Errcode$ = 8						; size = 8
__Message$ = 16						; size = 4
??0system_error@std@@QAE@Verror_code@1@PBD@Z PROC	; std::system_error::system_error, COMDAT
; _this$ = ecx

; 516  : 		{	// construct from error code and message string

  00000	55		 push	 ebp
  00001	8b ec		 mov	 ebp, esp
  00003	6a ff		 push	 -1
  00005	68 00 00 00 00	 push	 __ehhandler$??0system_error@std@@QAE@Verror_code@1@PBD@Z
  0000a	64 a1 00 00 00
	00		 mov	 eax, DWORD PTR fs:0
  00010	50		 push	 eax
  00011	83 ec 44	 sub	 esp, 68			; 00000044H
  00014	53		 push	 ebx
  00015	56		 push	 esi
  00016	57		 push	 edi
  00017	a1 00 00 00 00	 mov	 eax, DWORD PTR ___security_cookie
  0001c	33 c5		 xor	 eax, ebp
  0001e	50		 push	 eax
  0001f	8d 45 f4	 lea	 eax, DWORD PTR __$EHRec$[ebp]
  00022	64 a3 00 00 00
	00		 mov	 DWORD PTR fs:0, eax
  00028	89 4d f0	 mov	 DWORD PTR _this$[ebp], ecx
  0002b	8b 45 10	 mov	 eax, DWORD PTR __Message$[ebp]
  0002e	50		 push	 eax
  0002f	8b 4d f0	 mov	 ecx, DWORD PTR _this$[ebp]
  00032	e8 00 00 00 00	 call	 ??0runtime_error@std@@QAE@PBD@Z ; std::runtime_error::runtime_error
  00037	c7 45 fc 00 00
	00 00		 mov	 DWORD PTR __$EHRec$[ebp+8], 0
  0003e	8b 45 f0	 mov	 eax, DWORD PTR _this$[ebp]
  00041	c7 00 00 00 00
	00		 mov	 DWORD PTR [eax], OFFSET ??_7system_error@std@@6B@
  00047	8b 45 f0	 mov	 eax, DWORD PTR _this$[ebp]
  0004a	8b 4d 08	 mov	 ecx, DWORD PTR __Errcode$[ebp]
  0004d	89 48 0c	 mov	 DWORD PTR [eax+12], ecx
  00050	8b 55 0c	 mov	 edx, DWORD PTR __Errcode$[ebp+4]
  00053	89 50 10	 mov	 DWORD PTR [eax+16], edx

; 517  : 		_Makestr();

  00056	8b 4d f0	 mov	 ecx, DWORD PTR _this$[ebp]
  00059	e8 00 00 00 00	 call	 ?_Makestr@system_error@std@@AAEXXZ ; std::system_error::_Makestr

; 518  : 		}

  0005e	c7 45 fc ff ff
	ff ff		 mov	 DWORD PTR __$EHRec$[ebp+8], -1
  00065	8b 45 f0	 mov	 eax, DWORD PTR _this$[ebp]
  00068	8b 4d f4	 mov	 ecx, DWORD PTR __$EHRec$[ebp]
  0006b	64 89 0d 00 00
	00 00		 mov	 DWORD PTR fs:0, ecx
  00072	59		 pop	 ecx
  00073	5f		 pop	 edi
  00074	5e		 pop	 esi
  00075	5b		 pop	 ebx
  00076	8b e5		 mov	 esp, ebp
  00078	5d		 pop	 ebp
  00079	c2 0c 00	 ret	 12			; 0000000cH
_TEXT	ENDS
;	COMDAT text$x
text$x	SEGMENT
__unwindfunclet$??0system_error@std@@QAE@Verror_code@1@PBD@Z$0:
  00000	8b 4d f0	 mov	 ecx, DWORD PTR _this$[ebp]
  00003	e9 00 00 00 00	 jmp	 ??1runtime_error@std@@UAE@XZ
__ehhandler$??0system_error@std@@QAE@Verror_code@1@PBD@Z:
  00008	8b 54 24 08	 mov	 edx, DWORD PTR [esp+8]
  0000c	8d 42 0c	 lea	 eax, DWORD PTR [edx+12]
  0000f	8b 4a ac	 mov	 ecx, DWORD PTR [edx-84]
  00012	33 c8		 xor	 ecx, eax
  00014	e8 00 00 00 00	 call	 @__security_check_cookie@4
  00019	b8 00 00 00 00	 mov	 eax, OFFSET __ehfuncinfo$??0system_error@std@@QAE@Verror_code@1@PBD@Z
  0001e	e9 00 00 00 00	 jmp	 ___CxxFrameHandler3
text$x	ENDS
??0system_error@std@@QAE@Verror_code@1@PBD@Z ENDP	; std::system_error::system_error
; Function compile flags: /Odtp /ZI
;	COMDAT ?_Makestr@system_error@std@@AAEXXZ
_TEXT	SEGMENT
_this$ = -4						; size = 4
?_Makestr@system_error@std@@AAEXXZ PROC			; std::system_error::_Makestr, COMDAT
; _this$ = ecx

; 562  : 		{	// compose error message

  00000	55		 push	 ebp
  00001	8b ec		 mov	 ebp, esp
  00003	83 ec 44	 sub	 esp, 68			; 00000044H
  00006	53		 push	 ebx
  00007	56		 push	 esi
  00008	57		 push	 edi
  00009	89 4d fc	 mov	 DWORD PTR _this$[ebp], ecx

; 563  : //		_Mymes = this->runtime_error::what();
; 564  : //		if (!_Mymes.empty())
; 565  : //			_Mymes.append(": ");
; 566  : //		_Mymes.append(_Mycode.message());
; 567  : 		}

  0000c	5f		 pop	 edi
  0000d	5e		 pop	 esi
  0000e	5b		 pop	 ebx
  0000f	8b e5		 mov	 esp, ebp
  00011	5d		 pop	 ebp
  00012	c3		 ret	 0
?_Makestr@system_error@std@@AAEXXZ ENDP			; std::system_error::_Makestr
_TEXT	ENDS
PUBLIC	??1system_error@std@@UAE@XZ			; std::system_error::~system_error
; Function compile flags: /Odtp /ZI
;	COMDAT ??_Gsystem_error@std@@UAEPAXI@Z
_TEXT	SEGMENT
_this$ = -4						; size = 4
___flags$ = 8						; size = 4
??_Gsystem_error@std@@UAEPAXI@Z PROC			; std::system_error::`scalar deleting destructor', COMDAT
; _this$ = ecx
  00000	55		 push	 ebp
  00001	8b ec		 mov	 ebp, esp
  00003	83 ec 44	 sub	 esp, 68			; 00000044H
  00006	53		 push	 ebx
  00007	56		 push	 esi
  00008	57		 push	 edi
  00009	89 4d fc	 mov	 DWORD PTR _this$[ebp], ecx
  0000c	8b 4d fc	 mov	 ecx, DWORD PTR _this$[ebp]
  0000f	e8 00 00 00 00	 call	 ??1system_error@std@@UAE@XZ
  00014	8b 45 08	 mov	 eax, DWORD PTR ___flags$[ebp]
  00017	83 e0 01	 and	 eax, 1
  0001a	74 0c		 je	 SHORT $LN1@scalar@7
  0001c	8b 45 fc	 mov	 eax, DWORD PTR _this$[ebp]
  0001f	50		 push	 eax
  00020	e8 00 00 00 00	 call	 ??3@YAXPAX@Z		; operator delete
  00025	83 c4 04	 add	 esp, 4
$LN1@scalar@7:
  00028	8b 45 fc	 mov	 eax, DWORD PTR _this$[ebp]
  0002b	5f		 pop	 edi
  0002c	5e		 pop	 esi
  0002d	5b		 pop	 ebx
  0002e	8b e5		 mov	 esp, ebp
  00030	5d		 pop	 ebp
  00031	c2 04 00	 ret	 4
??_Gsystem_error@std@@UAEPAXI@Z ENDP			; std::system_error::`scalar deleting destructor'
; Function compile flags: /Odtp /ZI
_TEXT	ENDS
;	COMDAT ??1system_error@std@@UAE@XZ
_TEXT	SEGMENT
_this$ = -4						; size = 4
??1system_error@std@@UAE@XZ PROC			; std::system_error::~system_error, COMDAT
; _this$ = ecx
  00000	55		 push	 ebp
  00001	8b ec		 mov	 ebp, esp
  00003	83 ec 44	 sub	 esp, 68			; 00000044H
  00006	53		 push	 ebx
  00007	56		 push	 esi
  00008	57		 push	 edi
  00009	89 4d fc	 mov	 DWORD PTR _this$[ebp], ecx
  0000c	8b 4d fc	 mov	 ecx, DWORD PTR _this$[ebp]
  0000f	e8 00 00 00 00	 call	 ??1runtime_error@std@@UAE@XZ
  00014	5f		 pop	 edi
  00015	5e		 pop	 esi
  00016	5b		 pop	 ebx
  00017	8b e5		 mov	 esp, ebp
  00019	5d		 pop	 ebp
  0001a	c3		 ret	 0
??1system_error@std@@UAE@XZ ENDP			; std::system_error::~system_error
; Function compile flags: /Odtp /ZI
_TEXT	ENDS
;	COMDAT ??_Gfailure@ios_base@std@@UAEPAXI@Z
_TEXT	SEGMENT
_this$ = -4						; size = 4
___flags$ = 8						; size = 4
??_Gfailure@ios_base@std@@UAEPAXI@Z PROC		; std::ios_base::failure::`scalar deleting destructor', COMDAT
; _this$ = ecx
  00000	55		 push	 ebp
  00001	8b ec		 mov	 ebp, esp
  00003	83 ec 44	 sub	 esp, 68			; 00000044H
  00006	53		 push	 ebx
  00007	56		 push	 esi
  00008	57		 push	 edi
  00009	89 4d fc	 mov	 DWORD PTR _this$[ebp], ecx
  0000c	8b 4d fc	 mov	 ecx, DWORD PTR _this$[ebp]
  0000f	e8 00 00 00 00	 call	 ??1failure@ios_base@std@@UAE@XZ
  00014	8b 45 08	 mov	 eax, DWORD PTR ___flags$[ebp]
  00017	83 e0 01	 and	 eax, 1
  0001a	74 0c		 je	 SHORT $LN1@scalar@8
  0001c	8b 45 fc	 mov	 eax, DWORD PTR _this$[ebp]
  0001f	50		 push	 eax
  00020	e8 00 00 00 00	 call	 ??3@YAXPAX@Z		; operator delete
  00025	83 c4 04	 add	 esp, 4
$LN1@scalar@8:
  00028	8b 45 fc	 mov	 eax, DWORD PTR _this$[ebp]
  0002b	5f		 pop	 edi
  0002c	5e		 pop	 esi
  0002d	5b		 pop	 ebx
  0002e	8b e5		 mov	 esp, ebp
  00030	5d		 pop	 ebp
  00031	c2 04 00	 ret	 4
??_Gfailure@ios_base@std@@UAEPAXI@Z ENDP		; std::ios_base::failure::`scalar deleting destructor'
; Function compile flags: /Odtp /ZI
_TEXT	ENDS
;	COMDAT ??1failure@ios_base@std@@UAE@XZ
_TEXT	SEGMENT
_this$ = -4						; size = 4
??1failure@ios_base@std@@UAE@XZ PROC			; std::ios_base::failure::~failure, COMDAT
; _this$ = ecx
  00000	55		 push	 ebp
  00001	8b ec		 mov	 ebp, esp
  00003	83 ec 44	 sub	 esp, 68			; 00000044H
  00006	53		 push	 ebx
  00007	56		 push	 esi
  00008	57		 push	 edi
  00009	89 4d fc	 mov	 DWORD PTR _this$[ebp], ecx
  0000c	8b 4d fc	 mov	 ecx, DWORD PTR _this$[ebp]
  0000f	e8 00 00 00 00	 call	 ??1system_error@std@@UAE@XZ
  00014	5f		 pop	 edi
  00015	5e		 pop	 esi
  00016	5b		 pop	 ebx
  00017	8b e5		 mov	 esp, ebp
  00019	5d		 pop	 ebp
  0001a	c3		 ret	 0
??1failure@ios_base@std@@UAE@XZ ENDP			; std::ios_base::failure::~failure
; Function compile flags: /Odtp /ZI
_TEXT	ENDS
;	COMDAT ??0failure@ios_base@std@@QAE@ABV012@@Z
_TEXT	SEGMENT
_this$ = -4						; size = 4
___that$ = 8						; size = 4
??0failure@ios_base@std@@QAE@ABV012@@Z PROC		; std::ios_base::failure::failure, COMDAT
; _this$ = ecx
  00000	55		 push	 ebp
  00001	8b ec		 mov	 ebp, esp
  00003	83 ec 44	 sub	 esp, 68			; 00000044H
  00006	53		 push	 ebx
  00007	56		 push	 esi
  00008	57		 push	 edi
  00009	89 4d fc	 mov	 DWORD PTR _this$[ebp], ecx
  0000c	8b 45 08	 mov	 eax, DWORD PTR ___that$[ebp]
  0000f	50		 push	 eax
  00010	8b 4d fc	 mov	 ecx, DWORD PTR _this$[ebp]
  00013	e8 00 00 00 00	 call	 ??0system_error@std@@QAE@ABV01@@Z
  00018	8b 45 fc	 mov	 eax, DWORD PTR _this$[ebp]
  0001b	c7 00 00 00 00
	00		 mov	 DWORD PTR [eax], OFFSET ??_7failure@ios_base@std@@6B@
  00021	8b 45 fc	 mov	 eax, DWORD PTR _this$[ebp]
  00024	5f		 pop	 edi
  00025	5e		 pop	 esi
  00026	5b		 pop	 ebx
  00027	8b e5		 mov	 esp, ebp
  00029	5d		 pop	 ebp
  0002a	c2 04 00	 ret	 4
??0failure@ios_base@std@@QAE@ABV012@@Z ENDP		; std::ios_base::failure::failure
; Function compile flags: /Odtp /ZI
_TEXT	ENDS
;	COMDAT ??0system_error@std@@QAE@ABV01@@Z
_TEXT	SEGMENT
_this$ = -4						; size = 4
___that$ = 8						; size = 4
??0system_error@std@@QAE@ABV01@@Z PROC			; std::system_error::system_error, COMDAT
; _this$ = ecx
  00000	55		 push	 ebp
  00001	8b ec		 mov	 ebp, esp
  00003	83 ec 44	 sub	 esp, 68			; 00000044H
  00006	53		 push	 ebx
  00007	56		 push	 esi
  00008	57		 push	 edi
  00009	89 4d fc	 mov	 DWORD PTR _this$[ebp], ecx
  0000c	8b 45 08	 mov	 eax, DWORD PTR ___that$[ebp]
  0000f	50		 push	 eax
  00010	8b 4d fc	 mov	 ecx, DWORD PTR _this$[ebp]
  00013	e8 00 00 00 00	 call	 ??0runtime_error@std@@QAE@ABV01@@Z
  00018	8b 45 fc	 mov	 eax, DWORD PTR _this$[ebp]
  0001b	c7 00 00 00 00
	00		 mov	 DWORD PTR [eax], OFFSET ??_7system_error@std@@6B@
  00021	8b 45 08	 mov	 eax, DWORD PTR ___that$[ebp]
  00024	8b 48 0c	 mov	 ecx, DWORD PTR [eax+12]
  00027	8b 50 10	 mov	 edx, DWORD PTR [eax+16]
  0002a	8b 45 fc	 mov	 eax, DWORD PTR _this$[ebp]
  0002d	89 48 0c	 mov	 DWORD PTR [eax+12], ecx
  00030	89 50 10	 mov	 DWORD PTR [eax+16], edx
  00033	8b 45 fc	 mov	 eax, DWORD PTR _this$[ebp]
  00036	5f		 pop	 edi
  00037	5e		 pop	 esi
  00038	5b		 pop	 ebx
  00039	8b e5		 mov	 esp, ebp
  0003b	5d		 pop	 ebp
  0003c	c2 04 00	 ret	 4
??0system_error@std@@QAE@ABV01@@Z ENDP			; std::system_error::system_error
_TEXT	ENDS
PUBLIC	??1ios_base@std@@UAE@XZ				; std::ios_base::~ios_base
; Function compile flags: /Odtp /ZI
;	COMDAT ??_Gios_base@std@@UAEPAXI@Z
_TEXT	SEGMENT
_this$ = -4						; size = 4
___flags$ = 8						; size = 4
??_Gios_base@std@@UAEPAXI@Z PROC			; std::ios_base::`scalar deleting destructor', COMDAT
; _this$ = ecx
  00000	55		 push	 ebp
  00001	8b ec		 mov	 ebp, esp
  00003	83 ec 44	 sub	 esp, 68			; 00000044H
  00006	53		 push	 ebx
  00007	56		 push	 esi
  00008	57		 push	 edi
  00009	89 4d fc	 mov	 DWORD PTR _this$[ebp], ecx
  0000c	8b 4d fc	 mov	 ecx, DWORD PTR _this$[ebp]
  0000f	e8 00 00 00 00	 call	 ??1ios_base@std@@UAE@XZ	; std::ios_base::~ios_base
  00014	8b 45 08	 mov	 eax, DWORD PTR ___flags$[ebp]
  00017	83 e0 01	 and	 eax, 1
  0001a	74 0c		 je	 SHORT $LN1@scalar@9
  0001c	8b 45 fc	 mov	 eax, DWORD PTR _this$[ebp]
  0001f	50		 push	 eax
  00020	e8 00 00 00 00	 call	 ??3@YAXPAX@Z		; operator delete
  00025	83 c4 04	 add	 esp, 4
$LN1@scalar@9:
  00028	8b 45 fc	 mov	 eax, DWORD PTR _this$[ebp]
  0002b	5f		 pop	 edi
  0002c	5e		 pop	 esi
  0002d	5b		 pop	 ebx
  0002e	8b e5		 mov	 esp, ebp
  00030	5d		 pop	 ebp
  00031	c2 04 00	 ret	 4
??_Gios_base@std@@UAEPAXI@Z ENDP			; std::ios_base::`scalar deleting destructor'
_TEXT	ENDS
EXTRN	?_Ios_base_dtor@ios_base@std@@CAXPAV12@@Z:PROC	; std::ios_base::_Ios_base_dtor
; Function compile flags: /Odtp /ZI
; File d:\microsoft visual studio 10.0\vc\include\xiosbase
;	COMDAT ??1ios_base@std@@UAE@XZ
_TEXT	SEGMENT
_this$ = -4						; size = 4
??1ios_base@std@@UAE@XZ PROC				; std::ios_base::~ios_base, COMDAT
; _this$ = ecx

; 540  : 		{	// destroy the object

  00000	55		 push	 ebp
  00001	8b ec		 mov	 ebp, esp
  00003	83 ec 44	 sub	 esp, 68			; 00000044H
  00006	53		 push	 ebx
  00007	56		 push	 esi
  00008	57		 push	 edi
  00009	89 4d fc	 mov	 DWORD PTR _this$[ebp], ecx
  0000c	8b 45 fc	 mov	 eax, DWORD PTR _this$[ebp]
  0000f	c7 00 00 00 00
	00		 mov	 DWORD PTR [eax], OFFSET ??_7ios_base@std@@6B@

; 541  : 		_Ios_base_dtor(this);

  00015	8b 45 fc	 mov	 eax, DWORD PTR _this$[ebp]
  00018	50		 push	 eax
  00019	e8 00 00 00 00	 call	 ?_Ios_base_dtor@ios_base@std@@CAXPAV12@@Z ; std::ios_base::_Ios_base_dtor
  0001e	83 c4 04	 add	 esp, 4

; 542  : 		}

  00021	5f		 pop	 edi
  00022	5e		 pop	 esi
  00023	5b		 pop	 ebx
  00024	8b e5		 mov	 esp, ebp
  00026	5d		 pop	 ebp
  00027	c3		 ret	 0
??1ios_base@std@@UAE@XZ ENDP				; std::ios_base::~ios_base
_TEXT	ENDS
;	COMDAT xdata$x
; File d:\microsoft visual studio 10.0\vc\include\xstring
xdata$x	SEGMENT
__unwindtable$??0?$basic_string@DU?$char_traits@D@std@@V?$allocator@D@2@@std@@QAE@XZ DD 0ffffffffH
	DD	FLAT:__unwindfunclet$??0?$basic_string@DU?$char_traits@D@std@@V?$allocator@D@2@@std@@QAE@XZ$0
__ehfuncinfo$??0?$basic_string@DU?$char_traits@D@std@@V?$allocator@D@2@@std@@QAE@XZ DD 019930522H
	DD	01H
	DD	FLAT:__unwindtable$??0?$basic_string@DU?$char_traits@D@std@@V?$allocator@D@2@@std@@QAE@XZ
	DD	2 DUP(00H)
	DD	2 DUP(00H)
	DD	00H
	DD	01H
; Function compile flags: /Odtp /ZI
xdata$x	ENDS
;	COMDAT ??0?$basic_string@DU?$char_traits@D@std@@V?$allocator@D@2@@std@@QAE@XZ
_TEXT	SEGMENT
$T226413 = -84						; size = 4
_this$ = -16						; size = 4
__$EHRec$ = -12						; size = 12
??0?$basic_string@DU?$char_traits@D@std@@V?$allocator@D@2@@std@@QAE@XZ PROC ; std::basic_string<char,std::char_traits<char>,std::allocator<char> >::basic_string<char,std::char_traits<char>,std::allocator<char> >, COMDAT
; _this$ = ecx

; 550  : 		{	// construct empty string

  00000	55		 push	 ebp
  00001	8b ec		 mov	 ebp, esp
  00003	6a ff		 push	 -1
  00005	68 00 00 00 00	 push	 __ehhandler$??0?$basic_string@DU?$char_traits@D@std@@V?$allocator@D@2@@std@@QAE@XZ
  0000a	64 a1 00 00 00
	00		 mov	 eax, DWORD PTR fs:0
  00010	50		 push	 eax
  00011	83 ec 48	 sub	 esp, 72			; 00000048H
  00014	53		 push	 ebx
  00015	56		 push	 esi
  00016	57		 push	 edi
  00017	a1 00 00 00 00	 mov	 eax, DWORD PTR ___security_cookie
  0001c	33 c5		 xor	 eax, ebp
  0001e	50		 push	 eax
  0001f	8d 45 f4	 lea	 eax, DWORD PTR __$EHRec$[ebp]
  00022	64 a3 00 00 00
	00		 mov	 DWORD PTR fs:0, eax
  00028	89 4d f0	 mov	 DWORD PTR _this$[ebp], ecx
  0002b	51		 push	 ecx
  0002c	8b cc		 mov	 ecx, esp
  0002e	89 65 ac	 mov	 DWORD PTR $T226413[ebp], esp
  00031	e8 00 00 00 00	 call	 ??0?$allocator@D@std@@QAE@XZ ; std::allocator<char>::allocator<char>
  00036	8b 4d f0	 mov	 ecx, DWORD PTR _this$[ebp]
  00039	e8 00 00 00 00	 call	 ??0?$_String_val@DV?$allocator@D@std@@@std@@QAE@V?$allocator@D@1@@Z ; std::_String_val<char,std::allocator<char> >::_String_val<char,std::allocator<char> >
  0003e	c7 45 fc 00 00
	00 00		 mov	 DWORD PTR __$EHRec$[ebp+8], 0

; 551  : 		_Tidy();

  00045	6a 00		 push	 0
  00047	6a 00		 push	 0
  00049	8b 4d f0	 mov	 ecx, DWORD PTR _this$[ebp]
  0004c	e8 00 00 00 00	 call	 ?_Tidy@?$basic_string@DU?$char_traits@D@std@@V?$allocator@D@2@@std@@QAEX_NI@Z ; std::basic_string<char,std::char_traits<char>,std::allocator<char> >::_Tidy

; 552  : 		}

  00051	c7 45 fc ff ff
	ff ff		 mov	 DWORD PTR __$EHRec$[ebp+8], -1
  00058	8b 45 f0	 mov	 eax, DWORD PTR _this$[ebp]
  0005b	8b 4d f4	 mov	 ecx, DWORD PTR __$EHRec$[ebp]
  0005e	64 89 0d 00 00
	00 00		 mov	 DWORD PTR fs:0, ecx
  00065	59		 pop	 ecx
  00066	5f		 pop	 edi
  00067	5e		 pop	 esi
  00068	5b		 pop	 ebx
  00069	8b e5		 mov	 esp, ebp
  0006b	5d		 pop	 ebp
  0006c	c3		 ret	 0
_TEXT	ENDS
;	COMDAT text$x
text$x	SEGMENT
__unwindfunclet$??0?$basic_string@DU?$char_traits@D@std@@V?$allocator@D@2@@std@@QAE@XZ$0:
  00000	8b 4d f0	 mov	 ecx, DWORD PTR _this$[ebp]
  00003	e9 00 00 00 00	 jmp	 ??1?$_String_val@DV?$allocator@D@std@@@std@@QAE@XZ ; std::_String_val<char,std::allocator<char> >::~_String_val<char,std::allocator<char> >
__ehhandler$??0?$basic_string@DU?$char_traits@D@std@@V?$allocator@D@2@@std@@QAE@XZ:
  00008	8b 54 24 08	 mov	 edx, DWORD PTR [esp+8]
  0000c	8d 42 0c	 lea	 eax, DWORD PTR [edx+12]
  0000f	8b 4a a8	 mov	 ecx, DWORD PTR [edx-88]
  00012	33 c8		 xor	 ecx, eax
  00014	e8 00 00 00 00	 call	 @__security_check_cookie@4
  00019	b8 00 00 00 00	 mov	 eax, OFFSET __ehfuncinfo$??0?$basic_string@DU?$char_traits@D@std@@V?$allocator@D@2@@std@@QAE@XZ
  0001e	e9 00 00 00 00	 jmp	 ___CxxFrameHandler3
text$x	ENDS
??0?$basic_string@DU?$char_traits@D@std@@V?$allocator@D@2@@std@@QAE@XZ ENDP ; std::basic_string<char,std::char_traits<char>,std::allocator<char> >::basic_string<char,std::char_traits<char>,std::allocator<char> >
;	COMDAT xdata$x
xdata$x	SEGMENT
__unwindtable$??1?$basic_string@DU?$char_traits@D@std@@V?$allocator@D@2@@std@@QAE@XZ DD 0ffffffffH
	DD	FLAT:__unwindfunclet$??1?$basic_string@DU?$char_traits@D@std@@V?$allocator@D@2@@std@@QAE@XZ$0
__ehfuncinfo$??1?$basic_string@DU?$char_traits@D@std@@V?$allocator@D@2@@std@@QAE@XZ DD 019930522H
	DD	01H
	DD	FLAT:__unwindtable$??1?$basic_string@DU?$char_traits@D@std@@V?$allocator@D@2@@std@@QAE@XZ
	DD	2 DUP(00H)
	DD	2 DUP(00H)
	DD	00H
	DD	01H
; Function compile flags: /Odtp /ZI
xdata$x	ENDS
;	COMDAT ??1?$basic_string@DU?$char_traits@D@std@@V?$allocator@D@2@@std@@QAE@XZ
_TEXT	SEGMENT
_this$ = -16						; size = 4
__$EHRec$ = -12						; size = 12
??1?$basic_string@DU?$char_traits@D@std@@V?$allocator@D@2@@std@@QAE@XZ PROC ; std::basic_string<char,std::char_traits<char>,std::allocator<char> >::~basic_string<char,std::char_traits<char>,std::allocator<char> >, COMDAT
; _this$ = ecx

; 752  : 		{	// destroy the string

  00000	55		 push	 ebp
  00001	8b ec		 mov	 ebp, esp
  00003	6a ff		 push	 -1
  00005	68 00 00 00 00	 push	 __ehhandler$??1?$basic_string@DU?$char_traits@D@std@@V?$allocator@D@2@@std@@QAE@XZ
  0000a	64 a1 00 00 00
	00		 mov	 eax, DWORD PTR fs:0
  00010	50		 push	 eax
  00011	83 ec 44	 sub	 esp, 68			; 00000044H
  00014	53		 push	 ebx
  00015	56		 push	 esi
  00016	57		 push	 edi
  00017	a1 00 00 00 00	 mov	 eax, DWORD PTR ___security_cookie
  0001c	33 c5		 xor	 eax, ebp
  0001e	50		 push	 eax
  0001f	8d 45 f4	 lea	 eax, DWORD PTR __$EHRec$[ebp]
  00022	64 a3 00 00 00
	00		 mov	 DWORD PTR fs:0, eax
  00028	89 4d f0	 mov	 DWORD PTR _this$[ebp], ecx
  0002b	c7 45 fc 00 00
	00 00		 mov	 DWORD PTR __$EHRec$[ebp+8], 0

; 753  : 		_Tidy(true);

  00032	6a 00		 push	 0
  00034	6a 01		 push	 1
  00036	8b 4d f0	 mov	 ecx, DWORD PTR _this$[ebp]
  00039	e8 00 00 00 00	 call	 ?_Tidy@?$basic_string@DU?$char_traits@D@std@@V?$allocator@D@2@@std@@QAEX_NI@Z ; std::basic_string<char,std::char_traits<char>,std::allocator<char> >::_Tidy

; 754  : 		}

  0003e	c7 45 fc ff ff
	ff ff		 mov	 DWORD PTR __$EHRec$[ebp+8], -1
  00045	8b 4d f0	 mov	 ecx, DWORD PTR _this$[ebp]
  00048	e8 00 00 00 00	 call	 ??1?$_String_val@DV?$allocator@D@std@@@std@@QAE@XZ ; std::_String_val<char,std::allocator<char> >::~_String_val<char,std::allocator<char> >
  0004d	8b 4d f4	 mov	 ecx, DWORD PTR __$EHRec$[ebp]
  00050	64 89 0d 00 00
	00 00		 mov	 DWORD PTR fs:0, ecx
  00057	59		 pop	 ecx
  00058	5f		 pop	 edi
  00059	5e		 pop	 esi
  0005a	5b		 pop	 ebx
  0005b	8b e5		 mov	 esp, ebp
  0005d	5d		 pop	 ebp
  0005e	c3		 ret	 0
_TEXT	ENDS
;	COMDAT text$x
text$x	SEGMENT
__unwindfunclet$??1?$basic_string@DU?$char_traits@D@std@@V?$allocator@D@2@@std@@QAE@XZ$0:
  00000	8b 4d f0	 mov	 ecx, DWORD PTR _this$[ebp]
  00003	e9 00 00 00 00	 jmp	 ??1?$_String_val@DV?$allocator@D@std@@@std@@QAE@XZ ; std::_String_val<char,std::allocator<char> >::~_String_val<char,std::allocator<char> >
__ehhandler$??1?$basic_string@DU?$char_traits@D@std@@V?$allocator@D@2@@std@@QAE@XZ:
  00008	8b 54 24 08	 mov	 edx, DWORD PTR [esp+8]
  0000c	8d 42 0c	 lea	 eax, DWORD PTR [edx+12]
  0000f	8b 4a ac	 mov	 ecx, DWORD PTR [edx-84]
  00012	33 c8		 xor	 ecx, eax
  00014	e8 00 00 00 00	 call	 @__security_check_cookie@4
  00019	b8 00 00 00 00	 mov	 eax, OFFSET __ehfuncinfo$??1?$basic_string@DU?$char_traits@D@std@@V?$allocator@D@2@@std@@QAE@XZ
  0001e	e9 00 00 00 00	 jmp	 ___CxxFrameHandler3
text$x	ENDS
??1?$basic_string@DU?$char_traits@D@std@@V?$allocator@D@2@@std@@QAE@XZ ENDP ; std::basic_string<char,std::char_traits<char>,std::allocator<char> >::~basic_string<char,std::char_traits<char>,std::allocator<char> >
; Function compile flags: /Odtp /ZI
;	COMDAT ?size@?$basic_string@DU?$char_traits@D@std@@V?$allocator@D@2@@std@@QBEIXZ
_TEXT	SEGMENT
_this$ = -4						; size = 4
?size@?$basic_string@DU?$char_traits@D@std@@V?$allocator@D@2@@std@@QBEIXZ PROC ; std::basic_string<char,std::char_traits<char>,std::allocator<char> >::size, COMDAT
; _this$ = ecx

; 1510 : 		{	// return length of sequence

  00000	55		 push	 ebp
  00001	8b ec		 mov	 ebp, esp
  00003	83 ec 44	 sub	 esp, 68			; 00000044H
  00006	53		 push	 ebx
  00007	56		 push	 esi
  00008	57		 push	 edi
  00009	89 4d fc	 mov	 DWORD PTR _this$[ebp], ecx

; 1511 : 		return (this->_Mysize);

  0000c	8b 45 fc	 mov	 eax, DWORD PTR _this$[ebp]
  0000f	8b 40 10	 mov	 eax, DWORD PTR [eax+16]

; 1512 : 		}

  00012	5f		 pop	 edi
  00013	5e		 pop	 esi
  00014	5b		 pop	 ebx
  00015	8b e5		 mov	 esp, ebp
  00017	5d		 pop	 ebp
  00018	c3		 ret	 0
?size@?$basic_string@DU?$char_traits@D@std@@V?$allocator@D@2@@std@@QBEIXZ ENDP ; std::basic_string<char,std::char_traits<char>,std::allocator<char> >::size
; Function compile flags: /Odtp /ZI
; File d:\microsoft visual studio 10.0\vc\include\xutility
_TEXT	ENDS
;	COMDAT ??0?$_Yarn@D@std@@QAE@XZ
_TEXT	SEGMENT
_this$ = -4						; size = 4
??0?$_Yarn@D@std@@QAE@XZ PROC				; std::_Yarn<char>::_Yarn<char>, COMDAT
; _this$ = ecx

; 3315 : 		{	// default construct

  00000	55		 push	 ebp
  00001	8b ec		 mov	 ebp, esp
  00003	83 ec 44	 sub	 esp, 68			; 00000044H
  00006	53		 push	 ebx
  00007	56		 push	 esi
  00008	57		 push	 edi
  00009	89 4d fc	 mov	 DWORD PTR _this$[ebp], ecx
  0000c	8b 45 fc	 mov	 eax, DWORD PTR _this$[ebp]
  0000f	c7 00 00 00 00
	00		 mov	 DWORD PTR [eax], 0
  00015	8b 45 fc	 mov	 eax, DWORD PTR _this$[ebp]
  00018	c6 40 04 00	 mov	 BYTE PTR [eax+4], 0

; 3316 : 		}

  0001c	8b 45 fc	 mov	 eax, DWORD PTR _this$[ebp]
  0001f	5f		 pop	 edi
  00020	5e		 pop	 esi
  00021	5b		 pop	 ebx
  00022	8b e5		 mov	 esp, ebp
  00024	5d		 pop	 ebp
  00025	c3		 ret	 0
??0?$_Yarn@D@std@@QAE@XZ ENDP				; std::_Yarn<char>::_Yarn<char>
_TEXT	ENDS
PUBLIC	?_Tidy@?$_Yarn@D@std@@AAEXXZ			; std::_Yarn<char>::_Tidy
; Function compile flags: /Odtp /ZI
;	COMDAT ??1?$_Yarn@D@std@@QAE@XZ
_TEXT	SEGMENT
_this$ = -4						; size = 4
??1?$_Yarn@D@std@@QAE@XZ PROC				; std::_Yarn<char>::~_Yarn<char>, COMDAT
; _this$ = ecx

; 3365 : 		{	// destroy the object

  00000	55		 push	 ebp
  00001	8b ec		 mov	 ebp, esp
  00003	83 ec 44	 sub	 esp, 68			; 00000044H
  00006	53		 push	 ebx
  00007	56		 push	 esi
  00008	57		 push	 edi
  00009	89 4d fc	 mov	 DWORD PTR _this$[ebp], ecx

; 3366 : 		_Tidy();

  0000c	8b 4d fc	 mov	 ecx, DWORD PTR _this$[ebp]
  0000f	e8 00 00 00 00	 call	 ?_Tidy@?$_Yarn@D@std@@AAEXXZ ; std::_Yarn<char>::_Tidy

; 3367 : 		}

  00014	5f		 pop	 edi
  00015	5e		 pop	 esi
  00016	5b		 pop	 ebx
  00017	8b e5		 mov	 esp, ebp
  00019	5d		 pop	 ebp
  0001a	c3		 ret	 0
??1?$_Yarn@D@std@@QAE@XZ ENDP				; std::_Yarn<char>::~_Yarn<char>
; Function compile flags: /Odtp /ZI
_TEXT	ENDS
;	COMDAT ?c_str@?$_Yarn@D@std@@QBEPBDXZ
_TEXT	SEGMENT
tv66 = -72						; size = 4
_this$ = -4						; size = 4
?c_str@?$_Yarn@D@std@@QBEPBDXZ PROC			; std::_Yarn<char>::c_str, COMDAT
; _this$ = ecx

; 3375 : 		{	// return NTBS

  00000	55		 push	 ebp
  00001	8b ec		 mov	 ebp, esp
  00003	83 ec 48	 sub	 esp, 72			; 00000048H
  00006	53		 push	 ebx
  00007	56		 push	 esi
  00008	57		 push	 edi
  00009	89 4d fc	 mov	 DWORD PTR _this$[ebp], ecx

; 3376 : 		return (_Myptr != 0 ? _Myptr : &_Nul);

  0000c	8b 45 fc	 mov	 eax, DWORD PTR _this$[ebp]
  0000f	83 38 00	 cmp	 DWORD PTR [eax], 0
  00012	74 0a		 je	 SHORT $LN3@c_str
  00014	8b 4d fc	 mov	 ecx, DWORD PTR _this$[ebp]
  00017	8b 11		 mov	 edx, DWORD PTR [ecx]
  00019	89 55 b8	 mov	 DWORD PTR tv66[ebp], edx
  0001c	eb 09		 jmp	 SHORT $LN4@c_str
$LN3@c_str:
  0001e	8b 45 fc	 mov	 eax, DWORD PTR _this$[ebp]
  00021	83 c0 04	 add	 eax, 4
  00024	89 45 b8	 mov	 DWORD PTR tv66[ebp], eax
$LN4@c_str:
  00027	8b 45 b8	 mov	 eax, DWORD PTR tv66[ebp]

; 3377 : 		}

  0002a	5f		 pop	 edi
  0002b	5e		 pop	 esi
  0002c	5b		 pop	 ebx
  0002d	8b e5		 mov	 esp, ebp
  0002f	5d		 pop	 ebp
  00030	c3		 ret	 0
?c_str@?$_Yarn@D@std@@QBEPBDXZ ENDP			; std::_Yarn<char>::c_str
; Function compile flags: /Odtp /ZI
; File d:\microsoft visual studio 10.0\vc\include\ostream
_TEXT	ENDS
;	COMDAT ??1?$basic_ostream@DU?$char_traits@D@std@@@std@@UAE@XZ
_TEXT	SEGMENT
_this$ = -4						; size = 4
??1?$basic_ostream@DU?$char_traits@D@std@@@std@@UAE@XZ PROC ; std::basic_ostream<char,std::char_traits<char> >::~basic_ostream<char,std::char_traits<char> >, COMDAT
; _this$ = ecx

; 79   : 		{	// destroy the object

  00000	55		 push	 ebp
  00001	8b ec		 mov	 ebp, esp
  00003	83 ec 44	 sub	 esp, 68			; 00000044H
  00006	53		 push	 ebx
  00007	56		 push	 esi
  00008	57		 push	 edi
  00009	89 4d fc	 mov	 DWORD PTR _this$[ebp], ecx
  0000c	8b 45 fc	 mov	 eax, DWORD PTR _this$[ebp]
  0000f	8b 48 f8	 mov	 ecx, DWORD PTR [eax-8]
  00012	8b 51 04	 mov	 edx, DWORD PTR [ecx+4]
  00015	8b 45 fc	 mov	 eax, DWORD PTR _this$[ebp]
  00018	c7 44 10 f8 00
	00 00 00	 mov	 DWORD PTR [eax+edx-8], OFFSET ??_7?$basic_ostream@DU?$char_traits@D@std@@@std@@6B@

; 80   : 		}

  00020	5f		 pop	 edi
  00021	5e		 pop	 esi
  00022	5b		 pop	 ebx
  00023	8b e5		 mov	 esp, ebp
  00025	5d		 pop	 ebp
  00026	c3		 ret	 0
??1?$basic_ostream@DU?$char_traits@D@std@@@std@@UAE@XZ ENDP ; std::basic_ostream<char,std::char_traits<char> >::~basic_ostream<char,std::char_traits<char> >
; Function compile flags: /Odtp /ZI
; File d:\microsoft visual studio 10.0\vc\include\ios
_TEXT	ENDS
;	COMDAT ??1?$basic_ios@DU?$char_traits@D@std@@@std@@UAE@XZ
_TEXT	SEGMENT
_this$ = -4						; size = 4
??1?$basic_ios@DU?$char_traits@D@std@@@std@@UAE@XZ PROC	; std::basic_ios<char,std::char_traits<char> >::~basic_ios<char,std::char_traits<char> >, COMDAT
; _this$ = ecx

; 37   : 		{	// destroy the object

  00000	55		 push	 ebp
  00001	8b ec		 mov	 ebp, esp
  00003	83 ec 44	 sub	 esp, 68			; 00000044H
  00006	53		 push	 ebx
  00007	56		 push	 esi
  00008	57		 push	 edi
  00009	89 4d fc	 mov	 DWORD PTR _this$[ebp], ecx
  0000c	8b 45 fc	 mov	 eax, DWORD PTR _this$[ebp]
  0000f	c7 00 00 00 00
	00		 mov	 DWORD PTR [eax], OFFSET ??_7?$basic_ios@DU?$char_traits@D@std@@@std@@6B@

; 38   : 		}

  00015	8b 4d fc	 mov	 ecx, DWORD PTR _this$[ebp]
  00018	e8 00 00 00 00	 call	 ??1ios_base@std@@UAE@XZ	; std::ios_base::~ios_base
  0001d	5f		 pop	 edi
  0001e	5e		 pop	 esi
  0001f	5b		 pop	 ebx
  00020	8b e5		 mov	 esp, ebp
  00022	5d		 pop	 ebp
  00023	c3		 ret	 0
??1?$basic_ios@DU?$char_traits@D@std@@@std@@UAE@XZ ENDP	; std::basic_ios<char,std::char_traits<char> >::~basic_ios<char,std::char_traits<char> >
_TEXT	ENDS
PUBLIC	?clear@?$basic_ios@DU?$char_traits@D@std@@@std@@QAEXH_N@Z ; std::basic_ios<char,std::char_traits<char> >::clear
PUBLIC	?rdstate@ios_base@std@@QBEHXZ			; std::ios_base::rdstate
; Function compile flags: /Odtp /ZI
;	COMDAT ?setstate@?$basic_ios@DU?$char_traits@D@std@@@std@@QAEXH_N@Z
_TEXT	SEGMENT
_this$ = -4						; size = 4
__State$ = 8						; size = 4
__Reraise$ = 12						; size = 1
?setstate@?$basic_ios@DU?$char_traits@D@std@@@std@@QAEXH_N@Z PROC ; std::basic_ios<char,std::char_traits<char> >::setstate, COMDAT
; _this$ = ecx

; 54   : 		{	// merge _State into state, possible reraise exception

  00000	55		 push	 ebp
  00001	8b ec		 mov	 ebp, esp
  00003	83 ec 44	 sub	 esp, 68			; 00000044H
  00006	53		 push	 ebx
  00007	56		 push	 esi
  00008	57		 push	 edi
  00009	89 4d fc	 mov	 DWORD PTR _this$[ebp], ecx

; 55   : 		if (_State != goodbit)

  0000c	83 7d 08 00	 cmp	 DWORD PTR __State$[ebp], 0
  00010	74 19		 je	 SHORT $LN2@setstate

; 56   : 			clear((iostate)((int)rdstate() | (int)_State), _Reraise);

  00012	0f b6 45 0c	 movzx	 eax, BYTE PTR __Reraise$[ebp]
  00016	50		 push	 eax
  00017	8b 4d fc	 mov	 ecx, DWORD PTR _this$[ebp]
  0001a	e8 00 00 00 00	 call	 ?rdstate@ios_base@std@@QBEHXZ ; std::ios_base::rdstate
  0001f	0b 45 08	 or	 eax, DWORD PTR __State$[ebp]
  00022	50		 push	 eax
  00023	8b 4d fc	 mov	 ecx, DWORD PTR _this$[ebp]
  00026	e8 00 00 00 00	 call	 ?clear@?$basic_ios@DU?$char_traits@D@std@@@std@@QAEXH_N@Z ; std::basic_ios<char,std::char_traits<char> >::clear
$LN2@setstate:

; 57   : 		}

  0002b	5f		 pop	 edi
  0002c	5e		 pop	 esi
  0002d	5b		 pop	 ebx
  0002e	8b e5		 mov	 esp, ebp
  00030	5d		 pop	 ebp
  00031	c2 08 00	 ret	 8
?setstate@?$basic_ios@DU?$char_traits@D@std@@@std@@QAEXH_N@Z ENDP ; std::basic_ios<char,std::char_traits<char> >::setstate
; Function compile flags: /Odtp /ZI
; File d:\microsoft visual studio 10.0\vc\include\xiosbase
_TEXT	ENDS
;	COMDAT ?rdstate@ios_base@std@@QBEHXZ
_TEXT	SEGMENT
_this$ = -4						; size = 4
?rdstate@ios_base@std@@QBEHXZ PROC			; std::ios_base::rdstate, COMDAT
; _this$ = ecx

; 335  : 		{	// return stream state

  00000	55		 push	 ebp
  00001	8b ec		 mov	 ebp, esp
  00003	83 ec 44	 sub	 esp, 68			; 00000044H
  00006	53		 push	 ebx
  00007	56		 push	 esi
  00008	57		 push	 edi
  00009	89 4d fc	 mov	 DWORD PTR _this$[ebp], ecx

; 336  : 		return (_Mystate);

  0000c	8b 45 fc	 mov	 eax, DWORD PTR _this$[ebp]
  0000f	8b 40 0c	 mov	 eax, DWORD PTR [eax+12]

; 337  : 		}

  00012	5f		 pop	 edi
  00013	5e		 pop	 esi
  00014	5b		 pop	 ebx
  00015	8b e5		 mov	 esp, ebp
  00017	5d		 pop	 ebp
  00018	c3		 ret	 0
?rdstate@ios_base@std@@QBEHXZ ENDP			; std::ios_base::rdstate
; Function compile flags: /Odtp /ZI
; File d:\microsoft visual studio 10.0\vc\include\ios
_TEXT	ENDS
;	COMDAT ?rdbuf@?$basic_ios@DU?$char_traits@D@std@@@std@@QBEPAV?$basic_streambuf@DU?$char_traits@D@std@@@2@XZ
_TEXT	SEGMENT
_this$ = -4						; size = 4
?rdbuf@?$basic_ios@DU?$char_traits@D@std@@@std@@QBEPAV?$basic_streambuf@DU?$char_traits@D@std@@@2@XZ PROC ; std::basic_ios<char,std::char_traits<char> >::rdbuf, COMDAT
; _this$ = ecx

; 85   : 		{	// return stream buffer pointer

  00000	55		 push	 ebp
  00001	8b ec		 mov	 ebp, esp
  00003	83 ec 44	 sub	 esp, 68			; 00000044H
  00006	53		 push	 ebx
  00007	56		 push	 esi
  00008	57		 push	 edi
  00009	89 4d fc	 mov	 DWORD PTR _this$[ebp], ecx

; 86   : 		return (_Mystrbuf);

  0000c	8b 45 fc	 mov	 eax, DWORD PTR _this$[ebp]
  0000f	8b 40 38	 mov	 eax, DWORD PTR [eax+56]

; 87   : 		}

  00012	5f		 pop	 edi
  00013	5e		 pop	 esi
  00014	5b		 pop	 ebx
  00015	8b e5		 mov	 esp, ebp
  00017	5d		 pop	 ebp
  00018	c3		 ret	 0
?rdbuf@?$basic_ios@DU?$char_traits@D@std@@@std@@QBEPAV?$basic_streambuf@DU?$char_traits@D@std@@@2@XZ ENDP ; std::basic_ios<char,std::char_traits<char> >::rdbuf
_TEXT	ENDS
PUBLIC	??_Glocale@std@@QAEPAXI@Z			; std::locale::`scalar deleting destructor'
; Function compile flags: /Odtp /ZI
; File d:\microsoft visual studio 10.0\vc\include\streambuf
;	COMDAT ??1?$basic_streambuf@DU?$char_traits@D@std@@@std@@UAE@XZ
_TEXT	SEGMENT
tv71 = -80						; size = 4
$T226453 = -76						; size = 4
$T226454 = -72						; size = 4
_this$ = -4						; size = 4
??1?$basic_streambuf@DU?$char_traits@D@std@@@std@@UAE@XZ PROC ; std::basic_streambuf<char,std::char_traits<char> >::~basic_streambuf<char,std::char_traits<char> >, COMDAT
; _this$ = ecx

; 79   : 		{	// destroy the object

  00000	55		 push	 ebp
  00001	8b ec		 mov	 ebp, esp
  00003	83 ec 50	 sub	 esp, 80			; 00000050H
  00006	53		 push	 ebx
  00007	56		 push	 esi
  00008	57		 push	 edi
  00009	89 4d fc	 mov	 DWORD PTR _this$[ebp], ecx
  0000c	8b 45 fc	 mov	 eax, DWORD PTR _this$[ebp]
  0000f	c7 00 00 00 00
	00		 mov	 DWORD PTR [eax], OFFSET ??_7?$basic_streambuf@DU?$char_traits@D@std@@@std@@6B@

; 80   : 		_DELETE_CRT(_Plocale);

  00015	8b 45 fc	 mov	 eax, DWORD PTR _this$[ebp]
  00018	8b 48 38	 mov	 ecx, DWORD PTR [eax+56]
  0001b	89 4d b8	 mov	 DWORD PTR $T226454[ebp], ecx
  0001e	8b 55 b8	 mov	 edx, DWORD PTR $T226454[ebp]
  00021	89 55 b4	 mov	 DWORD PTR $T226453[ebp], edx
  00024	83 7d b4 00	 cmp	 DWORD PTR $T226453[ebp], 0
  00028	74 0f		 je	 SHORT $LN3@basic_stre@2
  0002a	6a 01		 push	 1
  0002c	8b 4d b4	 mov	 ecx, DWORD PTR $T226453[ebp]
  0002f	e8 00 00 00 00	 call	 ??_Glocale@std@@QAEPAXI@Z
  00034	89 45 b0	 mov	 DWORD PTR tv71[ebp], eax
  00037	eb 07		 jmp	 SHORT $LN1@basic_stre@2
$LN3@basic_stre@2:
  00039	c7 45 b0 00 00
	00 00		 mov	 DWORD PTR tv71[ebp], 0
$LN1@basic_stre@2:

; 81   : 		}

  00040	8b 4d fc	 mov	 ecx, DWORD PTR _this$[ebp]
  00043	83 c1 04	 add	 ecx, 4
  00046	e8 00 00 00 00	 call	 ??1_Mutex@std@@QAE@XZ	; std::_Mutex::~_Mutex
  0004b	5f		 pop	 edi
  0004c	5e		 pop	 esi
  0004d	5b		 pop	 ebx
  0004e	8b e5		 mov	 esp, ebp
  00050	5d		 pop	 ebp
  00051	c3		 ret	 0
??1?$basic_streambuf@DU?$char_traits@D@std@@@std@@UAE@XZ ENDP ; std::basic_streambuf<char,std::char_traits<char> >::~basic_streambuf<char,std::char_traits<char> >
_TEXT	ENDS
EXTRN	?_Lock@_Mutex@std@@QAEXXZ:PROC			; std::_Mutex::_Lock
; Function compile flags: /Odtp /ZI
;	COMDAT ?_Lock@?$basic_streambuf@DU?$char_traits@D@std@@@std@@UAEXXZ
_TEXT	SEGMENT
_this$ = -4						; size = 4
?_Lock@?$basic_streambuf@DU?$char_traits@D@std@@@std@@UAEXXZ PROC ; std::basic_streambuf<char,std::char_traits<char> >::_Lock, COMDAT
; _this$ = ecx

; 206  : 		{	// set the thread lock

  00000	55		 push	 ebp
  00001	8b ec		 mov	 ebp, esp
  00003	83 ec 44	 sub	 esp, 68			; 00000044H
  00006	53		 push	 ebx
  00007	56		 push	 esi
  00008	57		 push	 edi
  00009	89 4d fc	 mov	 DWORD PTR _this$[ebp], ecx

; 207  : 		_Mylock._Lock();

  0000c	8b 4d fc	 mov	 ecx, DWORD PTR _this$[ebp]
  0000f	83 c1 04	 add	 ecx, 4
  00012	e8 00 00 00 00	 call	 ?_Lock@_Mutex@std@@QAEXXZ ; std::_Mutex::_Lock

; 208  : 		}

  00017	5f		 pop	 edi
  00018	5e		 pop	 esi
  00019	5b		 pop	 ebx
  0001a	8b e5		 mov	 esp, ebp
  0001c	5d		 pop	 ebp
  0001d	c3		 ret	 0
?_Lock@?$basic_streambuf@DU?$char_traits@D@std@@@std@@UAEXXZ ENDP ; std::basic_streambuf<char,std::char_traits<char> >::_Lock
_TEXT	ENDS
EXTRN	?_Unlock@_Mutex@std@@QAEXXZ:PROC		; std::_Mutex::_Unlock
; Function compile flags: /Odtp /ZI
;	COMDAT ?_Unlock@?$basic_streambuf@DU?$char_traits@D@std@@@std@@UAEXXZ
_TEXT	SEGMENT
_this$ = -4						; size = 4
?_Unlock@?$basic_streambuf@DU?$char_traits@D@std@@@std@@UAEXXZ PROC ; std::basic_streambuf<char,std::char_traits<char> >::_Unlock, COMDAT
; _this$ = ecx

; 211  : 		{	// clear the thread lock

  00000	55		 push	 ebp
  00001	8b ec		 mov	 ebp, esp
  00003	83 ec 44	 sub	 esp, 68			; 00000044H
  00006	53		 push	 ebx
  00007	56		 push	 esi
  00008	57		 push	 edi
  00009	89 4d fc	 mov	 DWORD PTR _this$[ebp], ecx

; 212  : 		_Mylock._Unlock();

  0000c	8b 4d fc	 mov	 ecx, DWORD PTR _this$[ebp]
  0000f	83 c1 04	 add	 ecx, 4
  00012	e8 00 00 00 00	 call	 ?_Unlock@_Mutex@std@@QAEXXZ ; std::_Mutex::_Unlock

; 213  : 		}

  00017	5f		 pop	 edi
  00018	5e		 pop	 esi
  00019	5b		 pop	 ebx
  0001a	8b e5		 mov	 esp, ebp
  0001c	5d		 pop	 ebp
  0001d	c3		 ret	 0
?_Unlock@?$basic_streambuf@DU?$char_traits@D@std@@@std@@UAEXXZ ENDP ; std::basic_streambuf<char,std::char_traits<char> >::_Unlock
; Function compile flags: /Odtp /ZI
_TEXT	ENDS
;	COMDAT ?overflow@?$basic_streambuf@DU?$char_traits@D@std@@@std@@MAEHH@Z
_TEXT	SEGMENT
_this$ = -4						; size = 4
___formal$ = 8						; size = 4
?overflow@?$basic_streambuf@DU?$char_traits@D@std@@@std@@MAEHH@Z PROC ; std::basic_streambuf<char,std::char_traits<char> >::overflow, COMDAT
; _this$ = ecx

; 337  : 		{	// put a character to stream (always fail)

  00000	55		 push	 ebp
  00001	8b ec		 mov	 ebp, esp
  00003	83 ec 44	 sub	 esp, 68			; 00000044H
  00006	53		 push	 ebx
  00007	56		 push	 esi
  00008	57		 push	 edi
  00009	89 4d fc	 mov	 DWORD PTR _this$[ebp], ecx

; 338  : 		return (_Traits::eof());

  0000c	e8 00 00 00 00	 call	 ?eof@?$char_traits@D@std@@SAHXZ ; std::char_traits<char>::eof

; 339  : 		}

  00011	5f		 pop	 edi
  00012	5e		 pop	 esi
  00013	5b		 pop	 ebx
  00014	8b e5		 mov	 esp, ebp
  00016	5d		 pop	 ebp
  00017	c2 04 00	 ret	 4
?overflow@?$basic_streambuf@DU?$char_traits@D@std@@@std@@MAEHH@Z ENDP ; std::basic_streambuf<char,std::char_traits<char> >::overflow
; Function compile flags: /Odtp /ZI
_TEXT	ENDS
;	COMDAT ?pbackfail@?$basic_streambuf@DU?$char_traits@D@std@@@std@@MAEHH@Z
_TEXT	SEGMENT
_this$ = -4						; size = 4
___formal$ = 8						; size = 4
?pbackfail@?$basic_streambuf@DU?$char_traits@D@std@@@std@@MAEHH@Z PROC ; std::basic_streambuf<char,std::char_traits<char> >::pbackfail, COMDAT
; _this$ = ecx

; 342  : 		{	// put a character back to stream (always fail)

  00000	55		 push	 ebp
  00001	8b ec		 mov	 ebp, esp
  00003	83 ec 44	 sub	 esp, 68			; 00000044H
  00006	53		 push	 ebx
  00007	56		 push	 esi
  00008	57		 push	 edi
  00009	89 4d fc	 mov	 DWORD PTR _this$[ebp], ecx

; 343  : 		return (_Traits::eof());

  0000c	e8 00 00 00 00	 call	 ?eof@?$char_traits@D@std@@SAHXZ ; std::char_traits<char>::eof

; 344  : 		}

  00011	5f		 pop	 edi
  00012	5e		 pop	 esi
  00013	5b		 pop	 ebx
  00014	8b e5		 mov	 esp, ebp
  00016	5d		 pop	 ebp
  00017	c2 04 00	 ret	 4
?pbackfail@?$basic_streambuf@DU?$char_traits@D@std@@@std@@MAEHH@Z ENDP ; std::basic_streambuf<char,std::char_traits<char> >::pbackfail
; Function compile flags: /Odtp /ZI
_TEXT	ENDS
;	COMDAT ?showmanyc@?$basic_streambuf@DU?$char_traits@D@std@@@std@@MAE_JXZ
_TEXT	SEGMENT
_this$ = -4						; size = 4
?showmanyc@?$basic_streambuf@DU?$char_traits@D@std@@@std@@MAE_JXZ PROC ; std::basic_streambuf<char,std::char_traits<char> >::showmanyc, COMDAT
; _this$ = ecx

; 347  : 		{	// return count of input characters

  00000	55		 push	 ebp
  00001	8b ec		 mov	 ebp, esp
  00003	83 ec 44	 sub	 esp, 68			; 00000044H
  00006	53		 push	 ebx
  00007	56		 push	 esi
  00008	57		 push	 edi
  00009	89 4d fc	 mov	 DWORD PTR _this$[ebp], ecx

; 348  : 		return (0);

  0000c	33 c0		 xor	 eax, eax
  0000e	33 d2		 xor	 edx, edx

; 349  : 		}

  00010	5f		 pop	 edi
  00011	5e		 pop	 esi
  00012	5b		 pop	 ebx
  00013	8b e5		 mov	 esp, ebp
  00015	5d		 pop	 ebp
  00016	c3		 ret	 0
?showmanyc@?$basic_streambuf@DU?$char_traits@D@std@@@std@@MAE_JXZ ENDP ; std::basic_streambuf<char,std::char_traits<char> >::showmanyc
; Function compile flags: /Odtp /ZI
_TEXT	ENDS
;	COMDAT ?underflow@?$basic_streambuf@DU?$char_traits@D@std@@@std@@MAEHXZ
_TEXT	SEGMENT
_this$ = -4						; size = 4
?underflow@?$basic_streambuf@DU?$char_traits@D@std@@@std@@MAEHXZ PROC ; std::basic_streambuf<char,std::char_traits<char> >::underflow, COMDAT
; _this$ = ecx

; 352  : 		{	// get a character from stream, but don't point past it

  00000	55		 push	 ebp
  00001	8b ec		 mov	 ebp, esp
  00003	83 ec 44	 sub	 esp, 68			; 00000044H
  00006	53		 push	 ebx
  00007	56		 push	 esi
  00008	57		 push	 edi
  00009	89 4d fc	 mov	 DWORD PTR _this$[ebp], ecx

; 353  : 		return (_Traits::eof());

  0000c	e8 00 00 00 00	 call	 ?eof@?$char_traits@D@std@@SAHXZ ; std::char_traits<char>::eof

; 354  : 		}

  00011	5f		 pop	 edi
  00012	5e		 pop	 esi
  00013	5b		 pop	 ebx
  00014	8b e5		 mov	 esp, ebp
  00016	5d		 pop	 ebp
  00017	c3		 ret	 0
?underflow@?$basic_streambuf@DU?$char_traits@D@std@@@std@@MAEHXZ ENDP ; std::basic_streambuf<char,std::char_traits<char> >::underflow
; Function compile flags: /Odtp /ZI
_TEXT	ENDS
;	COMDAT ?uflow@?$basic_streambuf@DU?$char_traits@D@std@@@std@@MAEHXZ
_TEXT	SEGMENT
tv79 = -80						; size = 4
$T226472 = -76						; size = 4
$T226473 = -72						; size = 4
_this$ = -4						; size = 4
?uflow@?$basic_streambuf@DU?$char_traits@D@std@@@std@@MAEHXZ PROC ; std::basic_streambuf<char,std::char_traits<char> >::uflow, COMDAT
; _this$ = ecx

; 357  : 		{	// get a character from stream, point past it

  00000	55		 push	 ebp
  00001	8b ec		 mov	 ebp, esp
  00003	83 ec 50	 sub	 esp, 80			; 00000050H
  00006	53		 push	 ebx
  00007	56		 push	 esi
  00008	57		 push	 edi
  00009	89 4d fc	 mov	 DWORD PTR _this$[ebp], ecx

; 358  : 		return (_Traits::eq_int_type(_Traits::eof(), underflow())
; 359  : 			? _Traits::eof() : _Traits::to_int_type(*_Gninc()));

  0000c	8b 45 fc	 mov	 eax, DWORD PTR _this$[ebp]
  0000f	8b 10		 mov	 edx, DWORD PTR [eax]
  00011	8b 4d fc	 mov	 ecx, DWORD PTR _this$[ebp]
  00014	8b 42 18	 mov	 eax, DWORD PTR [edx+24]
  00017	ff d0		 call	 eax
  00019	89 45 b4	 mov	 DWORD PTR $T226472[ebp], eax
  0001c	e8 00 00 00 00	 call	 ?eof@?$char_traits@D@std@@SAHXZ ; std::char_traits<char>::eof
  00021	89 45 b8	 mov	 DWORD PTR $T226473[ebp], eax
  00024	8d 4d b4	 lea	 ecx, DWORD PTR $T226472[ebp]
  00027	51		 push	 ecx
  00028	8d 55 b8	 lea	 edx, DWORD PTR $T226473[ebp]
  0002b	52		 push	 edx
  0002c	e8 00 00 00 00	 call	 ?eq_int_type@?$char_traits@D@std@@SA_NABH0@Z ; std::char_traits<char>::eq_int_type
  00031	83 c4 08	 add	 esp, 8
  00034	0f b6 c0	 movzx	 eax, al
  00037	85 c0		 test	 eax, eax
  00039	74 0a		 je	 SHORT $LN3@uflow@2
  0003b	e8 00 00 00 00	 call	 ?eof@?$char_traits@D@std@@SAHXZ ; std::char_traits<char>::eof
  00040	89 45 b0	 mov	 DWORD PTR tv79[ebp], eax
  00043	eb 14		 jmp	 SHORT $LN4@uflow@2
$LN3@uflow@2:
  00045	8b 4d fc	 mov	 ecx, DWORD PTR _this$[ebp]
  00048	e8 00 00 00 00	 call	 ?_Gninc@?$basic_streambuf@DU?$char_traits@D@std@@@std@@IAEPADXZ ; std::basic_streambuf<char,std::char_traits<char> >::_Gninc
  0004d	50		 push	 eax
  0004e	e8 00 00 00 00	 call	 ?to_int_type@?$char_traits@D@std@@SAHABD@Z ; std::char_traits<char>::to_int_type
  00053	83 c4 04	 add	 esp, 4
  00056	89 45 b0	 mov	 DWORD PTR tv79[ebp], eax
$LN4@uflow@2:
  00059	8b 45 b0	 mov	 eax, DWORD PTR tv79[ebp]

; 360  : 		}

  0005c	5f		 pop	 edi
  0005d	5e		 pop	 esi
  0005e	5b		 pop	 ebx
  0005f	8b e5		 mov	 esp, ebp
  00061	5d		 pop	 ebp
  00062	c3		 ret	 0
?uflow@?$basic_streambuf@DU?$char_traits@D@std@@@std@@MAEHXZ ENDP ; std::basic_streambuf<char,std::char_traits<char> >::uflow
_TEXT	ENDS
PUBLIC	?gbump@?$basic_streambuf@DU?$char_traits@D@std@@@std@@IAEXH@Z ; std::basic_streambuf<char,std::char_traits<char> >::gbump
PUBLIC	?copy@?$char_traits@D@std@@SAPADPADPBDI@Z	; std::char_traits<char>::copy
PUBLIC	?_Gnavail@?$basic_streambuf@DU?$char_traits@D@std@@@std@@IBE_JXZ ; std::basic_streambuf<char,std::char_traits<char> >::_Gnavail
; Function compile flags: /Odtp /ZI
;	COMDAT ?xsgetn@?$basic_streambuf@DU?$char_traits@D@std@@@std@@MAE_JPAD_J@Z
_TEXT	SEGMENT
$T226478 = -92						; size = 4
__Copied$ = -24						; size = 8
__Size$ = -16						; size = 8
__Meta$ = -8						; size = 4
_this$ = -4						; size = 4
__Ptr$ = 8						; size = 4
__Count$ = 12						; size = 8
?xsgetn@?$basic_streambuf@DU?$char_traits@D@std@@@std@@MAE_JPAD_J@Z PROC ; std::basic_streambuf<char,std::char_traits<char> >::xsgetn, COMDAT
; _this$ = ecx

; 364  : 		{	// get _Count characters from stream

  00000	55		 push	 ebp
  00001	8b ec		 mov	 ebp, esp
  00003	83 ec 5c	 sub	 esp, 92			; 0000005cH
  00006	53		 push	 ebx
  00007	56		 push	 esi
  00008	57		 push	 edi
  00009	89 4d fc	 mov	 DWORD PTR _this$[ebp], ecx

; 365  : 		int_type _Meta;
; 366  : 		streamsize _Size, _Copied;
; 367  : 
; 368  : 		for (_Copied = 0; 0 < _Count; )

  0000c	c7 45 e8 00 00
	00 00		 mov	 DWORD PTR __Copied$[ebp], 0
  00013	c7 45 ec 00 00
	00 00		 mov	 DWORD PTR __Copied$[ebp+4], 0
$LN7@xsgetn:
  0001a	83 7d 10 00	 cmp	 DWORD PTR __Count$[ebp+4], 0
  0001e	0f 8c 10 01 00
	00		 jl	 $LN6@xsgetn
  00024	7f 0a		 jg	 SHORT $LN10@xsgetn
  00026	83 7d 0c 00	 cmp	 DWORD PTR __Count$[ebp], 0
  0002a	0f 86 04 01 00
	00		 jbe	 $LN6@xsgetn
$LN10@xsgetn:

; 369  : 			if (0 < (_Size = _Gnavail()))

  00030	8b 4d fc	 mov	 ecx, DWORD PTR _this$[ebp]
  00033	e8 00 00 00 00	 call	 ?_Gnavail@?$basic_streambuf@DU?$char_traits@D@std@@@std@@IBE_JXZ ; std::basic_streambuf<char,std::char_traits<char> >::_Gnavail
  00038	89 45 f0	 mov	 DWORD PTR __Size$[ebp], eax
  0003b	89 55 f4	 mov	 DWORD PTR __Size$[ebp+4], edx
  0003e	83 7d f4 00	 cmp	 DWORD PTR __Size$[ebp+4], 0
  00042	7c 7a		 jl	 SHORT $LN5@xsgetn
  00044	7f 06		 jg	 SHORT $LN11@xsgetn
  00046	83 7d f0 00	 cmp	 DWORD PTR __Size$[ebp], 0
  0004a	76 72		 jbe	 SHORT $LN5@xsgetn
$LN11@xsgetn:

; 370  : 				{	// copy from read buffer
; 371  : 				if (_Count < _Size)

  0004c	8b 45 10	 mov	 eax, DWORD PTR __Count$[ebp+4]
  0004f	3b 45 f4	 cmp	 eax, DWORD PTR __Size$[ebp+4]
  00052	7f 16		 jg	 SHORT $LN4@xsgetn
  00054	7c 08		 jl	 SHORT $LN12@xsgetn
  00056	8b 4d 0c	 mov	 ecx, DWORD PTR __Count$[ebp]
  00059	3b 4d f0	 cmp	 ecx, DWORD PTR __Size$[ebp]
  0005c	73 0c		 jae	 SHORT $LN4@xsgetn
$LN12@xsgetn:

; 372  : 					_Size = _Count;

  0005e	8b 45 0c	 mov	 eax, DWORD PTR __Count$[ebp]
  00061	89 45 f0	 mov	 DWORD PTR __Size$[ebp], eax
  00064	8b 4d 10	 mov	 ecx, DWORD PTR __Count$[ebp+4]
  00067	89 4d f4	 mov	 DWORD PTR __Size$[ebp+4], ecx
$LN4@xsgetn:

; 373  : 				_Traits::copy(_Ptr, gptr(), (size_t)_Size);

  0006a	8b 45 f0	 mov	 eax, DWORD PTR __Size$[ebp]
  0006d	50		 push	 eax
  0006e	8b 4d fc	 mov	 ecx, DWORD PTR _this$[ebp]
  00071	e8 00 00 00 00	 call	 ?gptr@?$basic_streambuf@DU?$char_traits@D@std@@@std@@IBEPADXZ ; std::basic_streambuf<char,std::char_traits<char> >::gptr
  00076	50		 push	 eax
  00077	8b 4d 08	 mov	 ecx, DWORD PTR __Ptr$[ebp]
  0007a	51		 push	 ecx
  0007b	e8 00 00 00 00	 call	 ?copy@?$char_traits@D@std@@SAPADPADPBDI@Z ; std::char_traits<char>::copy
  00080	83 c4 0c	 add	 esp, 12			; 0000000cH

; 374  : 				_Ptr += _Size;

  00083	8b 45 f0	 mov	 eax, DWORD PTR __Size$[ebp]
  00086	03 45 08	 add	 eax, DWORD PTR __Ptr$[ebp]
  00089	89 45 08	 mov	 DWORD PTR __Ptr$[ebp], eax

; 375  : 				_Copied += _Size;

  0008c	8b 45 e8	 mov	 eax, DWORD PTR __Copied$[ebp]
  0008f	03 45 f0	 add	 eax, DWORD PTR __Size$[ebp]
  00092	8b 4d ec	 mov	 ecx, DWORD PTR __Copied$[ebp+4]
  00095	13 4d f4	 adc	 ecx, DWORD PTR __Size$[ebp+4]
  00098	89 45 e8	 mov	 DWORD PTR __Copied$[ebp], eax
  0009b	89 4d ec	 mov	 DWORD PTR __Copied$[ebp+4], ecx

; 376  : 				_Count -= _Size;

  0009e	8b 45 0c	 mov	 eax, DWORD PTR __Count$[ebp]
  000a1	2b 45 f0	 sub	 eax, DWORD PTR __Size$[ebp]
  000a4	8b 4d 10	 mov	 ecx, DWORD PTR __Count$[ebp+4]
  000a7	1b 4d f4	 sbb	 ecx, DWORD PTR __Size$[ebp+4]
  000aa	89 45 0c	 mov	 DWORD PTR __Count$[ebp], eax
  000ad	89 4d 10	 mov	 DWORD PTR __Count$[ebp+4], ecx

; 377  : 				gbump((int)_Size);

  000b0	8b 45 f0	 mov	 eax, DWORD PTR __Size$[ebp]
  000b3	50		 push	 eax
  000b4	8b 4d fc	 mov	 ecx, DWORD PTR _this$[ebp]
  000b7	e8 00 00 00 00	 call	 ?gbump@?$basic_streambuf@DU?$char_traits@D@std@@@std@@IAEXH@Z ; std::basic_streambuf<char,std::char_traits<char> >::gbump
  000bc	eb 71		 jmp	 SHORT $LN3@xsgetn
$LN5@xsgetn:

; 378  : 				}
; 379  : 			else if (_Traits::eq_int_type(_Traits::eof(), _Meta = uflow()))

  000be	8b 45 fc	 mov	 eax, DWORD PTR _this$[ebp]
  000c1	8b 10		 mov	 edx, DWORD PTR [eax]
  000c3	8b 4d fc	 mov	 ecx, DWORD PTR _this$[ebp]
  000c6	8b 42 1c	 mov	 eax, DWORD PTR [edx+28]
  000c9	ff d0		 call	 eax
  000cb	89 45 f8	 mov	 DWORD PTR __Meta$[ebp], eax
  000ce	e8 00 00 00 00	 call	 ?eof@?$char_traits@D@std@@SAHXZ ; std::char_traits<char>::eof
  000d3	89 45 a4	 mov	 DWORD PTR $T226478[ebp], eax
  000d6	8d 4d f8	 lea	 ecx, DWORD PTR __Meta$[ebp]
  000d9	51		 push	 ecx
  000da	8d 55 a4	 lea	 edx, DWORD PTR $T226478[ebp]
  000dd	52		 push	 edx
  000de	e8 00 00 00 00	 call	 ?eq_int_type@?$char_traits@D@std@@SA_NABH0@Z ; std::char_traits<char>::eq_int_type
  000e3	83 c4 08	 add	 esp, 8
  000e6	0f b6 c0	 movzx	 eax, al
  000e9	85 c0		 test	 eax, eax
  000eb	74 04		 je	 SHORT $LN2@xsgetn

; 380  : 				break;	// end of file, quit

  000ed	eb 45		 jmp	 SHORT $LN6@xsgetn

; 381  : 			else

  000ef	eb 3e		 jmp	 SHORT $LN3@xsgetn
$LN2@xsgetn:

; 382  : 				{	// get a single character
; 383  : 				*_Ptr++ = _Traits::to_char_type(_Meta);

  000f1	8d 45 f8	 lea	 eax, DWORD PTR __Meta$[ebp]
  000f4	50		 push	 eax
  000f5	e8 00 00 00 00	 call	 ?to_char_type@?$char_traits@D@std@@SADABH@Z ; std::char_traits<char>::to_char_type
  000fa	83 c4 04	 add	 esp, 4
  000fd	8b 4d 08	 mov	 ecx, DWORD PTR __Ptr$[ebp]
  00100	88 01		 mov	 BYTE PTR [ecx], al
  00102	8b 55 08	 mov	 edx, DWORD PTR __Ptr$[ebp]
  00105	83 c2 01	 add	 edx, 1
  00108	89 55 08	 mov	 DWORD PTR __Ptr$[ebp], edx

; 384  : 				++_Copied;

  0010b	8b 45 e8	 mov	 eax, DWORD PTR __Copied$[ebp]
  0010e	83 c0 01	 add	 eax, 1
  00111	8b 4d ec	 mov	 ecx, DWORD PTR __Copied$[ebp+4]
  00114	83 d1 00	 adc	 ecx, 0
  00117	89 45 e8	 mov	 DWORD PTR __Copied$[ebp], eax
  0011a	89 4d ec	 mov	 DWORD PTR __Copied$[ebp+4], ecx

; 385  : 				--_Count;

  0011d	8b 45 0c	 mov	 eax, DWORD PTR __Count$[ebp]
  00120	83 e8 01	 sub	 eax, 1
  00123	8b 4d 10	 mov	 ecx, DWORD PTR __Count$[ebp+4]
  00126	83 d9 00	 sbb	 ecx, 0
  00129	89 45 0c	 mov	 DWORD PTR __Count$[ebp], eax
  0012c	89 4d 10	 mov	 DWORD PTR __Count$[ebp+4], ecx
$LN3@xsgetn:

; 386  : 				}

  0012f	e9 e6 fe ff ff	 jmp	 $LN7@xsgetn
$LN6@xsgetn:

; 387  : 
; 388  : 		return (_Copied);

  00134	8b 45 e8	 mov	 eax, DWORD PTR __Copied$[ebp]
  00137	8b 55 ec	 mov	 edx, DWORD PTR __Copied$[ebp+4]

; 389  : 		}

  0013a	5f		 pop	 edi
  0013b	5e		 pop	 esi
  0013c	5b		 pop	 ebx
  0013d	8b e5		 mov	 esp, ebp
  0013f	5d		 pop	 ebp
  00140	c2 0c 00	 ret	 12			; 0000000cH
?xsgetn@?$basic_streambuf@DU?$char_traits@D@std@@@std@@MAE_JPAD_J@Z ENDP ; std::basic_streambuf<char,std::char_traits<char> >::xsgetn
_TEXT	ENDS
EXTRN	_memcpy:PROC
; Function compile flags: /Odtp /ZI
; File d:\microsoft visual studio 10.0\vc\include\iosfwd
;	COMDAT ?copy@?$char_traits@D@std@@SAPADPADPBDI@Z
_TEXT	SEGMENT
__First1$ = 8						; size = 4
__First2$ = 12						; size = 4
__Count$ = 16						; size = 4
?copy@?$char_traits@D@std@@SAPADPADPBDI@Z PROC		; std::char_traits<char>::copy, COMDAT

; 496  : 		{	// copy [_First1, _First1 + _Count) to [_First2, ...)

  00000	55		 push	 ebp
  00001	8b ec		 mov	 ebp, esp
  00003	83 ec 40	 sub	 esp, 64			; 00000040H
  00006	53		 push	 ebx
  00007	56		 push	 esi
  00008	57		 push	 edi

; 497  : 		return ((_Elem *)_CSTD memcpy(_First1, _First2, _Count));

  00009	8b 45 10	 mov	 eax, DWORD PTR __Count$[ebp]
  0000c	50		 push	 eax
  0000d	8b 4d 0c	 mov	 ecx, DWORD PTR __First2$[ebp]
  00010	51		 push	 ecx
  00011	8b 55 08	 mov	 edx, DWORD PTR __First1$[ebp]
  00014	52		 push	 edx
  00015	e8 00 00 00 00	 call	 _memcpy
  0001a	83 c4 0c	 add	 esp, 12			; 0000000cH

; 498  : 		}

  0001d	5f		 pop	 edi
  0001e	5e		 pop	 esi
  0001f	5b		 pop	 ebx
  00020	8b e5		 mov	 esp, ebp
  00022	5d		 pop	 ebp
  00023	c3		 ret	 0
?copy@?$char_traits@D@std@@SAPADPADPBDI@Z ENDP		; std::char_traits<char>::copy
_TEXT	ENDS
PUBLIC	?pbump@?$basic_streambuf@DU?$char_traits@D@std@@@std@@IAEXH@Z ; std::basic_streambuf<char,std::char_traits<char> >::pbump
PUBLIC	?_Pnavail@?$basic_streambuf@DU?$char_traits@D@std@@@std@@IBE_JXZ ; std::basic_streambuf<char,std::char_traits<char> >::_Pnavail
; Function compile flags: /Odtp /ZI
; File d:\microsoft visual studio 10.0\vc\include\streambuf
;	COMDAT ?xsputn@?$basic_streambuf@DU?$char_traits@D@std@@@std@@MAE_JPBD_J@Z
_TEXT	SEGMENT
$T226486 = -92						; size = 4
$T226487 = -88						; size = 4
__Copied$ = -20						; size = 8
__Size$ = -12						; size = 8
_this$ = -4						; size = 4
__Ptr$ = 8						; size = 4
__Count$ = 12						; size = 8
?xsputn@?$basic_streambuf@DU?$char_traits@D@std@@@std@@MAE_JPBD_J@Z PROC ; std::basic_streambuf<char,std::char_traits<char> >::xsputn, COMDAT
; _this$ = ecx

; 393  : 		{	// put _Count characters to stream

  00000	55		 push	 ebp
  00001	8b ec		 mov	 ebp, esp
  00003	83 ec 5c	 sub	 esp, 92			; 0000005cH
  00006	53		 push	 ebx
  00007	56		 push	 esi
  00008	57		 push	 edi
  00009	89 4d fc	 mov	 DWORD PTR _this$[ebp], ecx

; 394  : 		streamsize _Size, _Copied;
; 395  : 
; 396  : 		for (_Copied = 0; 0 < _Count; )

  0000c	c7 45 ec 00 00
	00 00		 mov	 DWORD PTR __Copied$[ebp], 0
  00013	c7 45 f0 00 00
	00 00		 mov	 DWORD PTR __Copied$[ebp+4], 0
$LN7@xsputn:
  0001a	83 7d 10 00	 cmp	 DWORD PTR __Count$[ebp+4], 0
  0001e	0f 8c 0c 01 00
	00		 jl	 $LN6@xsputn
  00024	7f 0a		 jg	 SHORT $LN10@xsputn
  00026	83 7d 0c 00	 cmp	 DWORD PTR __Count$[ebp], 0
  0002a	0f 86 00 01 00
	00		 jbe	 $LN6@xsputn
$LN10@xsputn:

; 397  : 			if (0 < (_Size = _Pnavail()))

  00030	8b 4d fc	 mov	 ecx, DWORD PTR _this$[ebp]
  00033	e8 00 00 00 00	 call	 ?_Pnavail@?$basic_streambuf@DU?$char_traits@D@std@@@std@@IBE_JXZ ; std::basic_streambuf<char,std::char_traits<char> >::_Pnavail
  00038	89 45 f4	 mov	 DWORD PTR __Size$[ebp], eax
  0003b	89 55 f8	 mov	 DWORD PTR __Size$[ebp+4], edx
  0003e	83 7d f8 00	 cmp	 DWORD PTR __Size$[ebp+4], 0
  00042	7c 7a		 jl	 SHORT $LN5@xsputn
  00044	7f 06		 jg	 SHORT $LN11@xsputn
  00046	83 7d f4 00	 cmp	 DWORD PTR __Size$[ebp], 0
  0004a	76 72		 jbe	 SHORT $LN5@xsputn
$LN11@xsputn:

; 398  : 				{	// copy to write buffer
; 399  : 				if (_Count < _Size)

  0004c	8b 45 10	 mov	 eax, DWORD PTR __Count$[ebp+4]
  0004f	3b 45 f8	 cmp	 eax, DWORD PTR __Size$[ebp+4]
  00052	7f 16		 jg	 SHORT $LN4@xsputn
  00054	7c 08		 jl	 SHORT $LN12@xsputn
  00056	8b 4d 0c	 mov	 ecx, DWORD PTR __Count$[ebp]
  00059	3b 4d f4	 cmp	 ecx, DWORD PTR __Size$[ebp]
  0005c	73 0c		 jae	 SHORT $LN4@xsputn
$LN12@xsputn:

; 400  : 					_Size = _Count;

  0005e	8b 45 0c	 mov	 eax, DWORD PTR __Count$[ebp]
  00061	89 45 f4	 mov	 DWORD PTR __Size$[ebp], eax
  00064	8b 4d 10	 mov	 ecx, DWORD PTR __Count$[ebp+4]
  00067	89 4d f8	 mov	 DWORD PTR __Size$[ebp+4], ecx
$LN4@xsputn:

; 401  : 				_Traits::copy(pptr(), _Ptr, (size_t)_Size);

  0006a	8b 45 f4	 mov	 eax, DWORD PTR __Size$[ebp]
  0006d	50		 push	 eax
  0006e	8b 4d 08	 mov	 ecx, DWORD PTR __Ptr$[ebp]
  00071	51		 push	 ecx
  00072	8b 4d fc	 mov	 ecx, DWORD PTR _this$[ebp]
  00075	e8 00 00 00 00	 call	 ?pptr@?$basic_streambuf@DU?$char_traits@D@std@@@std@@IBEPADXZ ; std::basic_streambuf<char,std::char_traits<char> >::pptr
  0007a	50		 push	 eax
  0007b	e8 00 00 00 00	 call	 ?copy@?$char_traits@D@std@@SAPADPADPBDI@Z ; std::char_traits<char>::copy
  00080	83 c4 0c	 add	 esp, 12			; 0000000cH

; 402  : 				_Ptr += _Size;

  00083	8b 45 f4	 mov	 eax, DWORD PTR __Size$[ebp]
  00086	03 45 08	 add	 eax, DWORD PTR __Ptr$[ebp]
  00089	89 45 08	 mov	 DWORD PTR __Ptr$[ebp], eax

; 403  : 				_Copied += _Size;

  0008c	8b 45 ec	 mov	 eax, DWORD PTR __Copied$[ebp]
  0008f	03 45 f4	 add	 eax, DWORD PTR __Size$[ebp]
  00092	8b 4d f0	 mov	 ecx, DWORD PTR __Copied$[ebp+4]
  00095	13 4d f8	 adc	 ecx, DWORD PTR __Size$[ebp+4]
  00098	89 45 ec	 mov	 DWORD PTR __Copied$[ebp], eax
  0009b	89 4d f0	 mov	 DWORD PTR __Copied$[ebp+4], ecx

; 404  : 				_Count -= _Size;

  0009e	8b 45 0c	 mov	 eax, DWORD PTR __Count$[ebp]
  000a1	2b 45 f4	 sub	 eax, DWORD PTR __Size$[ebp]
  000a4	8b 4d 10	 mov	 ecx, DWORD PTR __Count$[ebp+4]
  000a7	1b 4d f8	 sbb	 ecx, DWORD PTR __Size$[ebp+4]
  000aa	89 45 0c	 mov	 DWORD PTR __Count$[ebp], eax
  000ad	89 4d 10	 mov	 DWORD PTR __Count$[ebp+4], ecx

; 405  : 				pbump((int)_Size);

  000b0	8b 45 f4	 mov	 eax, DWORD PTR __Size$[ebp]
  000b3	50		 push	 eax
  000b4	8b 4d fc	 mov	 ecx, DWORD PTR _this$[ebp]
  000b7	e8 00 00 00 00	 call	 ?pbump@?$basic_streambuf@DU?$char_traits@D@std@@@std@@IAEXH@Z ; std::basic_streambuf<char,std::char_traits<char> >::pbump

; 406  : 				}
; 407  : 			else if (_Traits::eq_int_type(_Traits::eof(),

  000bc	eb 6d		 jmp	 SHORT $LN3@xsputn
$LN5@xsputn:

; 408  : 				overflow(_Traits::to_int_type(*_Ptr))))

  000be	8b 45 08	 mov	 eax, DWORD PTR __Ptr$[ebp]
  000c1	50		 push	 eax
  000c2	e8 00 00 00 00	 call	 ?to_int_type@?$char_traits@D@std@@SAHABD@Z ; std::char_traits<char>::to_int_type
  000c7	83 c4 04	 add	 esp, 4
  000ca	50		 push	 eax
  000cb	8b 4d fc	 mov	 ecx, DWORD PTR _this$[ebp]
  000ce	8b 11		 mov	 edx, DWORD PTR [ecx]
  000d0	8b 4d fc	 mov	 ecx, DWORD PTR _this$[ebp]
  000d3	8b 42 0c	 mov	 eax, DWORD PTR [edx+12]
  000d6	ff d0		 call	 eax
  000d8	89 45 a4	 mov	 DWORD PTR $T226486[ebp], eax
  000db	e8 00 00 00 00	 call	 ?eof@?$char_traits@D@std@@SAHXZ ; std::char_traits<char>::eof
  000e0	89 45 a8	 mov	 DWORD PTR $T226487[ebp], eax
  000e3	8d 4d a4	 lea	 ecx, DWORD PTR $T226486[ebp]
  000e6	51		 push	 ecx
  000e7	8d 55 a8	 lea	 edx, DWORD PTR $T226487[ebp]
  000ea	52		 push	 edx
  000eb	e8 00 00 00 00	 call	 ?eq_int_type@?$char_traits@D@std@@SA_NABH0@Z ; std::char_traits<char>::eq_int_type
  000f0	83 c4 08	 add	 esp, 8
  000f3	0f b6 c0	 movzx	 eax, al
  000f6	85 c0		 test	 eax, eax
  000f8	74 04		 je	 SHORT $LN2@xsputn

; 409  : 				break;	// single character put failed, quit

  000fa	eb 34		 jmp	 SHORT $LN6@xsputn

; 410  : 			else

  000fc	eb 2d		 jmp	 SHORT $LN3@xsputn
$LN2@xsputn:

; 411  : 				{	// count character successfully put
; 412  : 				++_Ptr;

  000fe	8b 45 08	 mov	 eax, DWORD PTR __Ptr$[ebp]
  00101	83 c0 01	 add	 eax, 1
  00104	89 45 08	 mov	 DWORD PTR __Ptr$[ebp], eax

; 413  : 				++_Copied;

  00107	8b 45 ec	 mov	 eax, DWORD PTR __Copied$[ebp]
  0010a	83 c0 01	 add	 eax, 1
  0010d	8b 4d f0	 mov	 ecx, DWORD PTR __Copied$[ebp+4]
  00110	83 d1 00	 adc	 ecx, 0
  00113	89 45 ec	 mov	 DWORD PTR __Copied$[ebp], eax
  00116	89 4d f0	 mov	 DWORD PTR __Copied$[ebp+4], ecx

; 414  : 				--_Count;

  00119	8b 45 0c	 mov	 eax, DWORD PTR __Count$[ebp]
  0011c	83 e8 01	 sub	 eax, 1
  0011f	8b 4d 10	 mov	 ecx, DWORD PTR __Count$[ebp+4]
  00122	83 d9 00	 sbb	 ecx, 0
  00125	89 45 0c	 mov	 DWORD PTR __Count$[ebp], eax
  00128	89 4d 10	 mov	 DWORD PTR __Count$[ebp+4], ecx
$LN3@xsputn:

; 415  : 				}

  0012b	e9 ea fe ff ff	 jmp	 $LN7@xsputn
$LN6@xsputn:

; 416  : 
; 417  : 		return (_Copied);

  00130	8b 45 ec	 mov	 eax, DWORD PTR __Copied$[ebp]
  00133	8b 55 f0	 mov	 edx, DWORD PTR __Copied$[ebp+4]

; 418  : 		}

  00136	5f		 pop	 edi
  00137	5e		 pop	 esi
  00138	5b		 pop	 ebx
  00139	8b e5		 mov	 esp, ebp
  0013b	5d		 pop	 ebp
  0013c	c2 0c 00	 ret	 12			; 0000000cH
?xsputn@?$basic_streambuf@DU?$char_traits@D@std@@@std@@MAE_JPBD_J@Z ENDP ; std::basic_streambuf<char,std::char_traits<char> >::xsputn
; Function compile flags: /Odtp /ZI
_TEXT	ENDS
;	COMDAT ?seekoff@?$basic_streambuf@DU?$char_traits@D@std@@@std@@MAE?AV?$fpos@H@2@_JHH@Z
_TEXT	SEGMENT
_this$ = -4						; size = 4
___$ReturnUdt$ = 8					; size = 4
___formal$ = 12						; size = 8
___formal$ = 20						; size = 4
___formal$ = 24						; size = 4
?seekoff@?$basic_streambuf@DU?$char_traits@D@std@@@std@@MAE?AV?$fpos@H@2@_JHH@Z PROC ; std::basic_streambuf<char,std::char_traits<char> >::seekoff, COMDAT
; _this$ = ecx

; 423  : 		{	// change position by offset, according to way and mode

  00000	55		 push	 ebp
  00001	8b ec		 mov	 ebp, esp
  00003	83 ec 44	 sub	 esp, 68			; 00000044H
  00006	53		 push	 ebx
  00007	56		 push	 esi
  00008	57		 push	 edi
  00009	89 4d fc	 mov	 DWORD PTR _this$[ebp], ecx

; 424  : 		return (streampos(_BADOFF));

  0000c	a1 04 00 00 00	 mov	 eax, DWORD PTR ?_BADOFF@std@@3_JB+4
  00011	50		 push	 eax
  00012	8b 0d 00 00 00
	00		 mov	 ecx, DWORD PTR ?_BADOFF@std@@3_JB
  00018	51		 push	 ecx
  00019	8b 4d 08	 mov	 ecx, DWORD PTR ___$ReturnUdt$[ebp]
  0001c	e8 00 00 00 00	 call	 ??0?$fpos@H@std@@QAE@_J@Z ; std::fpos<int>::fpos<int>
  00021	8b 45 08	 mov	 eax, DWORD PTR ___$ReturnUdt$[ebp]

; 425  : 		}

  00024	5f		 pop	 edi
  00025	5e		 pop	 esi
  00026	5b		 pop	 ebx
  00027	8b e5		 mov	 esp, ebp
  00029	5d		 pop	 ebp
  0002a	c2 14 00	 ret	 20			; 00000014H
?seekoff@?$basic_streambuf@DU?$char_traits@D@std@@@std@@MAE?AV?$fpos@H@2@_JHH@Z ENDP ; std::basic_streambuf<char,std::char_traits<char> >::seekoff
; Function compile flags: /Odtp /ZI
_TEXT	ENDS
;	COMDAT ?seekpos@?$basic_streambuf@DU?$char_traits@D@std@@@std@@MAE?AV?$fpos@H@2@V32@H@Z
_TEXT	SEGMENT
_this$ = -4						; size = 4
___$ReturnUdt$ = 8					; size = 4
___formal$ = 12						; size = 24
___formal$ = 36						; size = 4
?seekpos@?$basic_streambuf@DU?$char_traits@D@std@@@std@@MAE?AV?$fpos@H@2@V32@H@Z PROC ; std::basic_streambuf<char,std::char_traits<char> >::seekpos, COMDAT
; _this$ = ecx

; 429  : 		{	// change to specified position, according to mode

  00000	55		 push	 ebp
  00001	8b ec		 mov	 ebp, esp
  00003	83 ec 44	 sub	 esp, 68			; 00000044H
  00006	53		 push	 ebx
  00007	56		 push	 esi
  00008	57		 push	 edi
  00009	89 4d fc	 mov	 DWORD PTR _this$[ebp], ecx

; 430  : 		return (streampos(_BADOFF));

  0000c	a1 04 00 00 00	 mov	 eax, DWORD PTR ?_BADOFF@std@@3_JB+4
  00011	50		 push	 eax
  00012	8b 0d 00 00 00
	00		 mov	 ecx, DWORD PTR ?_BADOFF@std@@3_JB
  00018	51		 push	 ecx
  00019	8b 4d 08	 mov	 ecx, DWORD PTR ___$ReturnUdt$[ebp]
  0001c	e8 00 00 00 00	 call	 ??0?$fpos@H@std@@QAE@_J@Z ; std::fpos<int>::fpos<int>
  00021	8b 45 08	 mov	 eax, DWORD PTR ___$ReturnUdt$[ebp]

; 431  : 		}

  00024	5f		 pop	 edi
  00025	5e		 pop	 esi
  00026	5b		 pop	 ebx
  00027	8b e5		 mov	 esp, ebp
  00029	5d		 pop	 ebp
  0002a	c2 20 00	 ret	 32			; 00000020H
?seekpos@?$basic_streambuf@DU?$char_traits@D@std@@@std@@MAE?AV?$fpos@H@2@V32@H@Z ENDP ; std::basic_streambuf<char,std::char_traits<char> >::seekpos
; Function compile flags: /Odtp /ZI
_TEXT	ENDS
;	COMDAT ?setbuf@?$basic_streambuf@DU?$char_traits@D@std@@@std@@MAEPAV12@PAD_J@Z
_TEXT	SEGMENT
_this$ = -4						; size = 4
___formal$ = 8						; size = 4
___formal$ = 12						; size = 8
?setbuf@?$basic_streambuf@DU?$char_traits@D@std@@@std@@MAEPAV12@PAD_J@Z PROC ; std::basic_streambuf<char,std::char_traits<char> >::setbuf, COMDAT
; _this$ = ecx

; 434  : 		{	// offer buffer to external agent (do nothing)

  00000	55		 push	 ebp
  00001	8b ec		 mov	 ebp, esp
  00003	83 ec 44	 sub	 esp, 68			; 00000044H
  00006	53		 push	 ebx
  00007	56		 push	 esi
  00008	57		 push	 edi
  00009	89 4d fc	 mov	 DWORD PTR _this$[ebp], ecx

; 435  : 		return (this);

  0000c	8b 45 fc	 mov	 eax, DWORD PTR _this$[ebp]

; 436  : 		}

  0000f	5f		 pop	 edi
  00010	5e		 pop	 esi
  00011	5b		 pop	 ebx
  00012	8b e5		 mov	 esp, ebp
  00014	5d		 pop	 ebp
  00015	c2 0c 00	 ret	 12			; 0000000cH
?setbuf@?$basic_streambuf@DU?$char_traits@D@std@@@std@@MAEPAV12@PAD_J@Z ENDP ; std::basic_streambuf<char,std::char_traits<char> >::setbuf
; Function compile flags: /Odtp /ZI
_TEXT	ENDS
;	COMDAT ?sync@?$basic_streambuf@DU?$char_traits@D@std@@@std@@MAEHXZ
_TEXT	SEGMENT
_this$ = -4						; size = 4
?sync@?$basic_streambuf@DU?$char_traits@D@std@@@std@@MAEHXZ PROC ; std::basic_streambuf<char,std::char_traits<char> >::sync, COMDAT
; _this$ = ecx

; 439  : 		{	// synchronize with external agent (do nothing)

  00000	55		 push	 ebp
  00001	8b ec		 mov	 ebp, esp
  00003	83 ec 44	 sub	 esp, 68			; 00000044H
  00006	53		 push	 ebx
  00007	56		 push	 esi
  00008	57		 push	 edi
  00009	89 4d fc	 mov	 DWORD PTR _this$[ebp], ecx

; 440  : 		return (0);

  0000c	33 c0		 xor	 eax, eax

; 441  : 		}

  0000e	5f		 pop	 edi
  0000f	5e		 pop	 esi
  00010	5b		 pop	 ebx
  00011	8b e5		 mov	 esp, ebp
  00013	5d		 pop	 ebp
  00014	c3		 ret	 0
?sync@?$basic_streambuf@DU?$char_traits@D@std@@@std@@MAEHXZ ENDP ; std::basic_streambuf<char,std::char_traits<char> >::sync
; Function compile flags: /Odtp /ZI
_TEXT	ENDS
;	COMDAT ?imbue@?$basic_streambuf@DU?$char_traits@D@std@@@std@@MAEXABVlocale@2@@Z
_TEXT	SEGMENT
_this$ = -4						; size = 4
___formal$ = 8						; size = 4
?imbue@?$basic_streambuf@DU?$char_traits@D@std@@@std@@MAEXABVlocale@2@@Z PROC ; std::basic_streambuf<char,std::char_traits<char> >::imbue, COMDAT
; _this$ = ecx

; 444  : 		{	// set locale to argument (do nothing)

  00000	55		 push	 ebp
  00001	8b ec		 mov	 ebp, esp
  00003	83 ec 44	 sub	 esp, 68			; 00000044H
  00006	53		 push	 ebx
  00007	56		 push	 esi
  00008	57		 push	 edi
  00009	89 4d fc	 mov	 DWORD PTR _this$[ebp], ecx

; 445  : 		}

  0000c	5f		 pop	 edi
  0000d	5e		 pop	 esi
  0000e	5b		 pop	 ebx
  0000f	8b e5		 mov	 esp, ebp
  00011	5d		 pop	 ebp
  00012	c2 04 00	 ret	 4
?imbue@?$basic_streambuf@DU?$char_traits@D@std@@@std@@MAEXABVlocale@2@@Z ENDP ; std::basic_streambuf<char,std::char_traits<char> >::imbue
_TEXT	ENDS
PUBLIC	??_D?$basic_ostream@DU?$char_traits@D@std@@@std@@QAEXXZ ; std::basic_ostream<char,std::char_traits<char> >::`vbase destructor'
; Function compile flags: /Odtp /ZI
;	COMDAT ??_G?$basic_ostream@DU?$char_traits@D@std@@@std@@UAEPAXI@Z
_TEXT	SEGMENT
_this$ = -4						; size = 4
___flags$ = 8						; size = 4
??_G?$basic_ostream@DU?$char_traits@D@std@@@std@@UAEPAXI@Z PROC ; std::basic_ostream<char,std::char_traits<char> >::`scalar deleting destructor', COMDAT
; _this$ = ecx
  00000	55		 push	 ebp
  00001	8b ec		 mov	 ebp, esp
  00003	83 ec 44	 sub	 esp, 68			; 00000044H
  00006	53		 push	 ebx
  00007	56		 push	 esi
  00008	57		 push	 edi
  00009	89 4d fc	 mov	 DWORD PTR _this$[ebp], ecx
  0000c	8b 4d fc	 mov	 ecx, DWORD PTR _this$[ebp]
  0000f	83 e9 08	 sub	 ecx, 8
  00012	e8 00 00 00 00	 call	 ??_D?$basic_ostream@DU?$char_traits@D@std@@@std@@QAEXXZ
  00017	8b 45 08	 mov	 eax, DWORD PTR ___flags$[ebp]
  0001a	83 e0 01	 and	 eax, 1
  0001d	74 0f		 je	 SHORT $LN1@scalar@10
  0001f	8b 45 fc	 mov	 eax, DWORD PTR _this$[ebp]
  00022	83 e8 08	 sub	 eax, 8
  00025	50		 push	 eax
  00026	e8 00 00 00 00	 call	 ??3@YAXPAX@Z		; operator delete
  0002b	83 c4 04	 add	 esp, 4
$LN1@scalar@10:
  0002e	8b 45 fc	 mov	 eax, DWORD PTR _this$[ebp]
  00031	83 e8 08	 sub	 eax, 8
  00034	5f		 pop	 edi
  00035	5e		 pop	 esi
  00036	5b		 pop	 ebx
  00037	8b e5		 mov	 esp, ebp
  00039	5d		 pop	 ebp
  0003a	c2 04 00	 ret	 4
??_G?$basic_ostream@DU?$char_traits@D@std@@@std@@UAEPAXI@Z ENDP ; std::basic_ostream<char,std::char_traits<char> >::`scalar deleting destructor'
; Function compile flags: /Odtp /ZI
_TEXT	ENDS
;	COMDAT ??_G?$basic_ios@DU?$char_traits@D@std@@@std@@UAEPAXI@Z
_TEXT	SEGMENT
_this$ = -4						; size = 4
___flags$ = 8						; size = 4
??_G?$basic_ios@DU?$char_traits@D@std@@@std@@UAEPAXI@Z PROC ; std::basic_ios<char,std::char_traits<char> >::`scalar deleting destructor', COMDAT
; _this$ = ecx
  00000	55		 push	 ebp
  00001	8b ec		 mov	 ebp, esp
  00003	83 ec 44	 sub	 esp, 68			; 00000044H
  00006	53		 push	 ebx
  00007	56		 push	 esi
  00008	57		 push	 edi
  00009	89 4d fc	 mov	 DWORD PTR _this$[ebp], ecx
  0000c	8b 4d fc	 mov	 ecx, DWORD PTR _this$[ebp]
  0000f	e8 00 00 00 00	 call	 ??1?$basic_ios@DU?$char_traits@D@std@@@std@@UAE@XZ ; std::basic_ios<char,std::char_traits<char> >::~basic_ios<char,std::char_traits<char> >
  00014	8b 45 08	 mov	 eax, DWORD PTR ___flags$[ebp]
  00017	83 e0 01	 and	 eax, 1
  0001a	74 0c		 je	 SHORT $LN1@scalar@11
  0001c	8b 45 fc	 mov	 eax, DWORD PTR _this$[ebp]
  0001f	50		 push	 eax
  00020	e8 00 00 00 00	 call	 ??3@YAXPAX@Z		; operator delete
  00025	83 c4 04	 add	 esp, 4
$LN1@scalar@11:
  00028	8b 45 fc	 mov	 eax, DWORD PTR _this$[ebp]
  0002b	5f		 pop	 edi
  0002c	5e		 pop	 esi
  0002d	5b		 pop	 ebx
  0002e	8b e5		 mov	 esp, ebp
  00030	5d		 pop	 ebp
  00031	c2 04 00	 ret	 4
??_G?$basic_ios@DU?$char_traits@D@std@@@std@@UAEPAXI@Z ENDP ; std::basic_ios<char,std::char_traits<char> >::`scalar deleting destructor'
; Function compile flags: /Odtp /ZI
_TEXT	ENDS
;	COMDAT ??_G?$basic_streambuf@DU?$char_traits@D@std@@@std@@UAEPAXI@Z
_TEXT	SEGMENT
_this$ = -4						; size = 4
___flags$ = 8						; size = 4
??_G?$basic_streambuf@DU?$char_traits@D@std@@@std@@UAEPAXI@Z PROC ; std::basic_streambuf<char,std::char_traits<char> >::`scalar deleting destructor', COMDAT
; _this$ = ecx
  00000	55		 push	 ebp
  00001	8b ec		 mov	 ebp, esp
  00003	83 ec 44	 sub	 esp, 68			; 00000044H
  00006	53		 push	 ebx
  00007	56		 push	 esi
  00008	57		 push	 edi
  00009	89 4d fc	 mov	 DWORD PTR _this$[ebp], ecx
  0000c	8b 4d fc	 mov	 ecx, DWORD PTR _this$[ebp]
  0000f	e8 00 00 00 00	 call	 ??1?$basic_streambuf@DU?$char_traits@D@std@@@std@@UAE@XZ ; std::basic_streambuf<char,std::char_traits<char> >::~basic_streambuf<char,std::char_traits<char> >
  00014	8b 45 08	 mov	 eax, DWORD PTR ___flags$[ebp]
  00017	83 e0 01	 and	 eax, 1
  0001a	74 0c		 je	 SHORT $LN1@scalar@12
  0001c	8b 45 fc	 mov	 eax, DWORD PTR _this$[ebp]
  0001f	50		 push	 eax
  00020	e8 00 00 00 00	 call	 ??3@YAXPAX@Z		; operator delete
  00025	83 c4 04	 add	 esp, 4
$LN1@scalar@12:
  00028	8b 45 fc	 mov	 eax, DWORD PTR _this$[ebp]
  0002b	5f		 pop	 edi
  0002c	5e		 pop	 esi
  0002d	5b		 pop	 ebx
  0002e	8b e5		 mov	 esp, ebp
  00030	5d		 pop	 ebp
  00031	c2 04 00	 ret	 4
??_G?$basic_streambuf@DU?$char_traits@D@std@@@std@@UAEPAXI@Z ENDP ; std::basic_streambuf<char,std::char_traits<char> >::`scalar deleting destructor'
; Function compile flags: /Odtp /ZI
_TEXT	ENDS
;	COMDAT ??_Glocale@std@@QAEPAXI@Z
_TEXT	SEGMENT
_this$ = -4						; size = 4
___flags$ = 8						; size = 4
??_Glocale@std@@QAEPAXI@Z PROC				; std::locale::`scalar deleting destructor', COMDAT
; _this$ = ecx
  00000	55		 push	 ebp
  00001	8b ec		 mov	 ebp, esp
  00003	83 ec 44	 sub	 esp, 68			; 00000044H
  00006	53		 push	 ebx
  00007	56		 push	 esi
  00008	57		 push	 edi
  00009	89 4d fc	 mov	 DWORD PTR _this$[ebp], ecx
  0000c	8b 4d fc	 mov	 ecx, DWORD PTR _this$[ebp]
  0000f	e8 00 00 00 00	 call	 ??1locale@std@@QAE@XZ	; std::locale::~locale
  00014	8b 45 08	 mov	 eax, DWORD PTR ___flags$[ebp]
  00017	83 e0 01	 and	 eax, 1
  0001a	74 0c		 je	 SHORT $LN1@scalar@13
  0001c	8b 45 fc	 mov	 eax, DWORD PTR _this$[ebp]
  0001f	50		 push	 eax
  00020	e8 00 00 00 00	 call	 ??3@YAXPAX@Z		; operator delete
  00025	83 c4 04	 add	 esp, 4
$LN1@scalar@13:
  00028	8b 45 fc	 mov	 eax, DWORD PTR _this$[ebp]
  0002b	5f		 pop	 edi
  0002c	5e		 pop	 esi
  0002d	5b		 pop	 ebx
  0002e	8b e5		 mov	 esp, ebp
  00030	5d		 pop	 ebp
  00031	c2 04 00	 ret	 4
??_Glocale@std@@QAEPAXI@Z ENDP				; std::locale::`scalar deleting destructor'
; Function compile flags: /Odtp /ZI
_TEXT	ENDS
;	COMDAT ??_D?$basic_ostream@DU?$char_traits@D@std@@@std@@QAEXXZ
_TEXT	SEGMENT
_this$ = -4						; size = 4
??_D?$basic_ostream@DU?$char_traits@D@std@@@std@@QAEXXZ PROC ; std::basic_ostream<char,std::char_traits<char> >::`vbase destructor', COMDAT
; _this$ = ecx
  00000	55		 push	 ebp
  00001	8b ec		 mov	 ebp, esp
  00003	83 ec 44	 sub	 esp, 68			; 00000044H
  00006	53		 push	 ebx
  00007	56		 push	 esi
  00008	57		 push	 edi
  00009	89 4d fc	 mov	 DWORD PTR _this$[ebp], ecx
  0000c	8b 4d fc	 mov	 ecx, DWORD PTR _this$[ebp]
  0000f	83 c1 08	 add	 ecx, 8
  00012	e8 00 00 00 00	 call	 ??1?$basic_ostream@DU?$char_traits@D@std@@@std@@UAE@XZ ; std::basic_ostream<char,std::char_traits<char> >::~basic_ostream<char,std::char_traits<char> >
  00017	8b 4d fc	 mov	 ecx, DWORD PTR _this$[ebp]
  0001a	83 c1 08	 add	 ecx, 8
  0001d	e8 00 00 00 00	 call	 ??1?$basic_ios@DU?$char_traits@D@std@@@std@@UAE@XZ ; std::basic_ios<char,std::char_traits<char> >::~basic_ios<char,std::char_traits<char> >
  00022	5f		 pop	 edi
  00023	5e		 pop	 esi
  00024	5b		 pop	 ebx
  00025	8b e5		 mov	 esp, ebp
  00027	5d		 pop	 ebp
  00028	c3		 ret	 0
??_D?$basic_ostream@DU?$char_traits@D@std@@@std@@QAEXXZ ENDP ; std::basic_ostream<char,std::char_traits<char> >::`vbase destructor'
_TEXT	ENDS
PUBLIC	?deallocate@?$allocator@D@std@@QAEXPADI@Z	; std::allocator<char>::deallocate
; Function compile flags: /Odtp /ZI
; File d:\microsoft visual studio 10.0\vc\include\xstring
;	COMDAT ?_Tidy@?$basic_string@DU?$char_traits@D@std@@V?$allocator@D@2@@std@@QAEX_NI@Z
_TEXT	SEGMENT
__Ptr$201846 = -8					; size = 4
_this$ = -4						; size = 4
__Built$ = 8						; size = 1
__Newsize$ = 12						; size = 4
?_Tidy@?$basic_string@DU?$char_traits@D@std@@V?$allocator@D@2@@std@@QAEX_NI@Z PROC ; std::basic_string<char,std::char_traits<char>,std::allocator<char> >::_Tidy, COMDAT
; _this$ = ecx

; 1987 : 		{	// initialize buffer, deallocating any storage

  00000	55		 push	 ebp
  00001	8b ec		 mov	 ebp, esp
  00003	83 ec 48	 sub	 esp, 72			; 00000048H
  00006	53		 push	 ebx
  00007	56		 push	 esi
  00008	57		 push	 edi
  00009	89 4d fc	 mov	 DWORD PTR _this$[ebp], ecx

; 1988 : 		if (!_Built)

  0000c	0f b6 45 08	 movzx	 eax, BYTE PTR __Built$[ebp]
  00010	85 c0		 test	 eax, eax
  00012	75 02		 jne	 SHORT $LN4@Tidy
  00014	eb 44		 jmp	 SHORT $LN3@Tidy
$LN4@Tidy:

; 1989 : 			;
; 1990 : 		else if (this->_BUF_SIZE <= this->_Myres)

  00016	8b 45 fc	 mov	 eax, DWORD PTR _this$[ebp]
  00019	83 78 14 10	 cmp	 DWORD PTR [eax+20], 16	; 00000010H
  0001d	72 3b		 jb	 SHORT $LN3@Tidy

; 1991 : 			{	// copy any leftovers to small buffer and deallocate
; 1992 : 			_Elem *_Ptr = this->_Bx._Ptr;

  0001f	8b 45 fc	 mov	 eax, DWORD PTR _this$[ebp]
  00022	8b 08		 mov	 ecx, DWORD PTR [eax]
  00024	89 4d f8	 mov	 DWORD PTR __Ptr$201846[ebp], ecx

; 1993 : 			if (0 < _Newsize)

  00027	83 7d 0c 00	 cmp	 DWORD PTR __Newsize$[ebp], 0
  0002b	76 14		 jbe	 SHORT $LN1@Tidy

; 1994 : 				_Traits::copy(this->_Bx._Buf, _Ptr, _Newsize);

  0002d	8b 45 0c	 mov	 eax, DWORD PTR __Newsize$[ebp]
  00030	50		 push	 eax
  00031	8b 4d f8	 mov	 ecx, DWORD PTR __Ptr$201846[ebp]
  00034	51		 push	 ecx
  00035	8b 55 fc	 mov	 edx, DWORD PTR _this$[ebp]
  00038	52		 push	 edx
  00039	e8 00 00 00 00	 call	 ?copy@?$char_traits@D@std@@SAPADPADPBDI@Z ; std::char_traits<char>::copy
  0003e	83 c4 0c	 add	 esp, 12			; 0000000cH
$LN1@Tidy:

; 1995 : 			this->_Alval.deallocate(_Ptr, this->_Myres + 1);

  00041	8b 45 fc	 mov	 eax, DWORD PTR _this$[ebp]
  00044	8b 48 14	 mov	 ecx, DWORD PTR [eax+20]
  00047	83 c1 01	 add	 ecx, 1
  0004a	51		 push	 ecx
  0004b	8b 55 f8	 mov	 edx, DWORD PTR __Ptr$201846[ebp]
  0004e	52		 push	 edx
  0004f	8b 4d fc	 mov	 ecx, DWORD PTR _this$[ebp]
  00052	83 c1 18	 add	 ecx, 24			; 00000018H
  00055	e8 00 00 00 00	 call	 ?deallocate@?$allocator@D@std@@QAEXPADI@Z ; std::allocator<char>::deallocate
$LN3@Tidy:

; 1996 : 			}
; 1997 : 		this->_Myres = this->_BUF_SIZE - 1;

  0005a	8b 45 fc	 mov	 eax, DWORD PTR _this$[ebp]
  0005d	c7 40 14 0f 00
	00 00		 mov	 DWORD PTR [eax+20], 15	; 0000000fH

; 1998 : 		_Eos(_Newsize);

  00064	8b 45 0c	 mov	 eax, DWORD PTR __Newsize$[ebp]
  00067	50		 push	 eax
  00068	8b 4d fc	 mov	 ecx, DWORD PTR _this$[ebp]
  0006b	e8 00 00 00 00	 call	 ?_Eos@?$basic_string@DU?$char_traits@D@std@@V?$allocator@D@2@@std@@QAEXI@Z ; std::basic_string<char,std::char_traits<char>,std::allocator<char> >::_Eos

; 1999 : 		}

  00070	5f		 pop	 edi
  00071	5e		 pop	 esi
  00072	5b		 pop	 ebx
  00073	8b e5		 mov	 esp, ebp
  00075	5d		 pop	 ebp
  00076	c2 08 00	 ret	 8
?_Tidy@?$basic_string@DU?$char_traits@D@std@@V?$allocator@D@2@@std@@QAEX_NI@Z ENDP ; std::basic_string<char,std::char_traits<char>,std::allocator<char> >::_Tidy
_TEXT	ENDS
PUBLIC	??0?$allocator@D@std@@QAE@ABV01@@Z		; std::allocator<char>::allocator<char>
; Function compile flags: /Odtp /ZI
;	COMDAT ??0?$_String_val@DV?$allocator@D@std@@@std@@QAE@V?$allocator@D@1@@Z
_TEXT	SEGMENT
_this$ = -4						; size = 4
__Al$ = 8						; size = 1
??0?$_String_val@DV?$allocator@D@std@@@std@@QAE@V?$allocator@D@1@@Z PROC ; std::_String_val<char,std::allocator<char> >::_String_val<char,std::allocator<char> >, COMDAT
; _this$ = ecx

; 454  : 		{	// construct allocator from _Al

  00000	55		 push	 ebp
  00001	8b ec		 mov	 ebp, esp
  00003	83 ec 44	 sub	 esp, 68			; 00000044H
  00006	53		 push	 ebx
  00007	56		 push	 esi
  00008	57		 push	 edi
  00009	89 4d fc	 mov	 DWORD PTR _this$[ebp], ecx
  0000c	8d 45 08	 lea	 eax, DWORD PTR __Al$[ebp]
  0000f	50		 push	 eax
  00010	8b 4d fc	 mov	 ecx, DWORD PTR _this$[ebp]
  00013	83 c1 18	 add	 ecx, 24			; 00000018H
  00016	e8 00 00 00 00	 call	 ??0?$allocator@D@std@@QAE@ABV01@@Z ; std::allocator<char>::allocator<char>

; 455  : 		}

  0001b	8b 45 fc	 mov	 eax, DWORD PTR _this$[ebp]
  0001e	5f		 pop	 edi
  0001f	5e		 pop	 esi
  00020	5b		 pop	 ebx
  00021	8b e5		 mov	 esp, ebp
  00023	5d		 pop	 ebp
  00024	c2 04 00	 ret	 4
??0?$_String_val@DV?$allocator@D@std@@@std@@QAE@V?$allocator@D@1@@Z ENDP ; std::_String_val<char,std::allocator<char> >::_String_val<char,std::allocator<char> >
; Function compile flags: /Odtp /ZI
_TEXT	ENDS
;	COMDAT ??1?$_String_val@DV?$allocator@D@std@@@std@@QAE@XZ
_TEXT	SEGMENT
_this$ = -4						; size = 4
??1?$_String_val@DV?$allocator@D@std@@@std@@QAE@XZ PROC	; std::_String_val<char,std::allocator<char> >::~_String_val<char,std::allocator<char> >, COMDAT
; _this$ = ecx

; 458  : 		{	// destroy the object

  00000	55		 push	 ebp
  00001	8b ec		 mov	 ebp, esp
  00003	83 ec 44	 sub	 esp, 68			; 00000044H
  00006	53		 push	 ebx
  00007	56		 push	 esi
  00008	57		 push	 edi
  00009	89 4d fc	 mov	 DWORD PTR _this$[ebp], ecx

; 459  : 		}

  0000c	5f		 pop	 edi
  0000d	5e		 pop	 esi
  0000e	5b		 pop	 ebx
  0000f	8b e5		 mov	 esp, ebp
  00011	5d		 pop	 ebp
  00012	c3		 ret	 0
??1?$_String_val@DV?$allocator@D@std@@@std@@QAE@XZ ENDP	; std::_String_val<char,std::allocator<char> >::~_String_val<char,std::allocator<char> >
; Function compile flags: /Odtp /ZI
; File d:\microsoft visual studio 10.0\vc\include\xmemory
_TEXT	ENDS
;	COMDAT ??0?$allocator@D@std@@QAE@XZ
_TEXT	SEGMENT
_this$ = -4						; size = 4
??0?$allocator@D@std@@QAE@XZ PROC			; std::allocator<char>::allocator<char>, COMDAT
; _this$ = ecx

; 161  : 	_ALLOCATOR() _THROW0()

  00000	55		 push	 ebp
  00001	8b ec		 mov	 ebp, esp
  00003	83 ec 44	 sub	 esp, 68			; 00000044H
  00006	53		 push	 ebx
  00007	56		 push	 esi
  00008	57		 push	 edi
  00009	89 4d fc	 mov	 DWORD PTR _this$[ebp], ecx

; 162  : 		{	// construct default allocator (do nothing)
; 163  : 		}

  0000c	8b 45 fc	 mov	 eax, DWORD PTR _this$[ebp]
  0000f	5f		 pop	 edi
  00010	5e		 pop	 esi
  00011	5b		 pop	 ebx
  00012	8b e5		 mov	 esp, ebp
  00014	5d		 pop	 ebp
  00015	c3		 ret	 0
??0?$allocator@D@std@@QAE@XZ ENDP			; std::allocator<char>::allocator<char>
; Function compile flags: /Odtp /ZI
_TEXT	ENDS
;	COMDAT ??0?$allocator@D@std@@QAE@ABV01@@Z
_TEXT	SEGMENT
_this$ = -4						; size = 4
___formal$ = 8						; size = 4
??0?$allocator@D@std@@QAE@ABV01@@Z PROC			; std::allocator<char>::allocator<char>, COMDAT
; _this$ = ecx

; 165  : 	_ALLOCATOR(const _ALLOCATOR<_Ty>&) _THROW0()

  00000	55		 push	 ebp
  00001	8b ec		 mov	 ebp, esp
  00003	83 ec 44	 sub	 esp, 68			; 00000044H
  00006	53		 push	 ebx
  00007	56		 push	 esi
  00008	57		 push	 edi
  00009	89 4d fc	 mov	 DWORD PTR _this$[ebp], ecx

; 166  : 		{	// construct by copying (do nothing)
; 167  : 		}

  0000c	8b 45 fc	 mov	 eax, DWORD PTR _this$[ebp]
  0000f	5f		 pop	 edi
  00010	5e		 pop	 esi
  00011	5b		 pop	 ebx
  00012	8b e5		 mov	 esp, ebp
  00014	5d		 pop	 ebp
  00015	c2 04 00	 ret	 4
??0?$allocator@D@std@@QAE@ABV01@@Z ENDP			; std::allocator<char>::allocator<char>
_TEXT	ENDS
EXTRN	_free:PROC
; Function compile flags: /Odtp /ZI
; File d:\microsoft visual studio 10.0\vc\include\xutility
;	COMDAT ?_Tidy@?$_Yarn@D@std@@AAEXXZ
_TEXT	SEGMENT
_this$ = -4						; size = 4
?_Tidy@?$_Yarn@D@std@@AAEXXZ PROC			; std::_Yarn<char>::_Tidy, COMDAT
; _this$ = ecx

; 3391 : 		{	// discard any string

  00000	55		 push	 ebp
  00001	8b ec		 mov	 ebp, esp
  00003	83 ec 44	 sub	 esp, 68			; 00000044H
  00006	53		 push	 ebx
  00007	56		 push	 esi
  00008	57		 push	 edi
  00009	89 4d fc	 mov	 DWORD PTR _this$[ebp], ecx

; 3392 : 		if (_Myptr != 0)

  0000c	8b 45 fc	 mov	 eax, DWORD PTR _this$[ebp]
  0000f	83 38 00	 cmp	 DWORD PTR [eax], 0
  00012	74 0e		 je	 SHORT $LN1@Tidy@2

; 3393 : 
; 3394 :  #ifdef _DEBUG
; 3395 : 			_free_dbg(_Myptr, _CRT_BLOCK);
; 3396 : 
; 3397 :  #else /* _DEBUG */
; 3398 : 			_CSTD free(_Myptr);

  00014	8b 45 fc	 mov	 eax, DWORD PTR _this$[ebp]
  00017	8b 08		 mov	 ecx, DWORD PTR [eax]
  00019	51		 push	 ecx
  0001a	e8 00 00 00 00	 call	 _free
  0001f	83 c4 04	 add	 esp, 4
$LN1@Tidy@2:

; 3399 :  #endif /* _DEBUG */
; 3400 : 
; 3401 : 		_Myptr = 0;

  00022	8b 45 fc	 mov	 eax, DWORD PTR _this$[ebp]
  00025	c7 00 00 00 00
	00		 mov	 DWORD PTR [eax], 0

; 3402 : 		}

  0002b	5f		 pop	 edi
  0002c	5e		 pop	 esi
  0002d	5b		 pop	 ebx
  0002e	8b e5		 mov	 esp, ebp
  00030	5d		 pop	 ebp
  00031	c3		 ret	 0
?_Tidy@?$_Yarn@D@std@@AAEXXZ ENDP			; std::_Yarn<char>::_Tidy
; Function compile flags: /Odtp /ZI
; File d:\microsoft visual studio 10.0\vc\include\ios
_TEXT	ENDS
;	COMDAT ?clear@?$basic_ios@DU?$char_traits@D@std@@@std@@QAEXH_N@Z
_TEXT	SEGMENT
tv73 = -72						; size = 4
_this$ = -4						; size = 4
__State$ = 8						; size = 4
__Reraise$ = 12						; size = 1
?clear@?$basic_ios@DU?$char_traits@D@std@@@std@@QAEXH_N@Z PROC ; std::basic_ios<char,std::char_traits<char> >::clear, COMDAT
; _this$ = ecx

; 42   : 		{	// set state, possibly reraise exception

  00000	55		 push	 ebp
  00001	8b ec		 mov	 ebp, esp
  00003	83 ec 48	 sub	 esp, 72			; 00000048H
  00006	53		 push	 ebx
  00007	56		 push	 esi
  00008	57		 push	 edi
  00009	89 4d fc	 mov	 DWORD PTR _this$[ebp], ecx

; 43   : 		ios_base::clear((iostate)(_Mystrbuf == 0
; 44   : 			? (int)_State | (int)badbit : (int)_State), _Reraise);

  0000c	8b 45 fc	 mov	 eax, DWORD PTR _this$[ebp]
  0000f	83 78 38 00	 cmp	 DWORD PTR [eax+56], 0
  00013	75 0b		 jne	 SHORT $LN3@clear@2
  00015	8b 4d 08	 mov	 ecx, DWORD PTR __State$[ebp]
  00018	83 c9 04	 or	 ecx, 4
  0001b	89 4d b8	 mov	 DWORD PTR tv73[ebp], ecx
  0001e	eb 06		 jmp	 SHORT $LN4@clear@2
$LN3@clear@2:
  00020	8b 55 08	 mov	 edx, DWORD PTR __State$[ebp]
  00023	89 55 b8	 mov	 DWORD PTR tv73[ebp], edx
$LN4@clear@2:
  00026	0f b6 45 0c	 movzx	 eax, BYTE PTR __Reraise$[ebp]
  0002a	50		 push	 eax
  0002b	8b 4d b8	 mov	 ecx, DWORD PTR tv73[ebp]
  0002e	51		 push	 ecx
  0002f	8b 4d fc	 mov	 ecx, DWORD PTR _this$[ebp]
  00032	e8 00 00 00 00	 call	 ?clear@ios_base@std@@QAEXH_N@Z ; std::ios_base::clear

; 45   : 		}

  00037	5f		 pop	 edi
  00038	5e		 pop	 esi
  00039	5b		 pop	 ebx
  0003a	8b e5		 mov	 esp, ebp
  0003c	5d		 pop	 ebp
  0003d	c2 08 00	 ret	 8
?clear@?$basic_ios@DU?$char_traits@D@std@@@std@@QAEXH_N@Z ENDP ; std::basic_ios<char,std::char_traits<char> >::clear
; Function compile flags: /Odtp /ZI
; File d:\microsoft visual studio 10.0\vc\include\streambuf
_TEXT	ENDS
;	COMDAT ?sputc@?$basic_streambuf@DU?$char_traits@D@std@@@std@@QAEHD@Z
_TEXT	SEGMENT
tv78 = -84						; size = 4
tv85 = -80						; size = 8
$T226529 = -72						; size = 4
_this$ = -4						; size = 4
__Ch$ = 8						; size = 1
?sputc@?$basic_streambuf@DU?$char_traits@D@std@@@std@@QAEHD@Z PROC ; std::basic_streambuf<char,std::char_traits<char> >::sputc, COMDAT
; _this$ = ecx

; 193  : 		{	// put a character

  00000	55		 push	 ebp
  00001	8b ec		 mov	 ebp, esp
  00003	83 ec 54	 sub	 esp, 84			; 00000054H
  00006	53		 push	 ebx
  00007	56		 push	 esi
  00008	57		 push	 edi
  00009	89 4d fc	 mov	 DWORD PTR _this$[ebp], ecx

; 194  : 		return (0 < _Pnavail()
; 195  : 			? _Traits::to_int_type(*_Pninc() = _Ch)
; 196  : 			: overflow(_Traits::to_int_type(_Ch)));

  0000c	8b 4d fc	 mov	 ecx, DWORD PTR _this$[ebp]
  0000f	e8 00 00 00 00	 call	 ?_Pnavail@?$basic_streambuf@DU?$char_traits@D@std@@@std@@IBE_JXZ ; std::basic_streambuf<char,std::char_traits<char> >::_Pnavail
  00014	89 45 b0	 mov	 DWORD PTR tv85[ebp], eax
  00017	89 55 b4	 mov	 DWORD PTR tv85[ebp+4], edx
  0001a	83 7d b4 00	 cmp	 DWORD PTR tv85[ebp+4], 0
  0001e	7c 2c		 jl	 SHORT $LN3@sputc
  00020	7f 06		 jg	 SHORT $LN5@sputc
  00022	83 7d b0 00	 cmp	 DWORD PTR tv85[ebp], 0
  00026	76 24		 jbe	 SHORT $LN3@sputc
$LN5@sputc:
  00028	8b 4d fc	 mov	 ecx, DWORD PTR _this$[ebp]
  0002b	e8 00 00 00 00	 call	 ?_Pninc@?$basic_streambuf@DU?$char_traits@D@std@@@std@@IAEPADXZ ; std::basic_streambuf<char,std::char_traits<char> >::_Pninc
  00030	89 45 b8	 mov	 DWORD PTR $T226529[ebp], eax
  00033	8b 45 b8	 mov	 eax, DWORD PTR $T226529[ebp]
  00036	8a 4d 08	 mov	 cl, BYTE PTR __Ch$[ebp]
  00039	88 08		 mov	 BYTE PTR [eax], cl
  0003b	8b 55 b8	 mov	 edx, DWORD PTR $T226529[ebp]
  0003e	52		 push	 edx
  0003f	e8 00 00 00 00	 call	 ?to_int_type@?$char_traits@D@std@@SAHABD@Z ; std::char_traits<char>::to_int_type
  00044	83 c4 04	 add	 esp, 4
  00047	89 45 ac	 mov	 DWORD PTR tv78[ebp], eax
  0004a	eb 1d		 jmp	 SHORT $LN4@sputc
$LN3@sputc:
  0004c	8d 45 08	 lea	 eax, DWORD PTR __Ch$[ebp]
  0004f	50		 push	 eax
  00050	e8 00 00 00 00	 call	 ?to_int_type@?$char_traits@D@std@@SAHABD@Z ; std::char_traits<char>::to_int_type
  00055	83 c4 04	 add	 esp, 4
  00058	50		 push	 eax
  00059	8b 4d fc	 mov	 ecx, DWORD PTR _this$[ebp]
  0005c	8b 11		 mov	 edx, DWORD PTR [ecx]
  0005e	8b 4d fc	 mov	 ecx, DWORD PTR _this$[ebp]
  00061	8b 42 0c	 mov	 eax, DWORD PTR [edx+12]
  00064	ff d0		 call	 eax
  00066	89 45 ac	 mov	 DWORD PTR tv78[ebp], eax
$LN4@sputc:
  00069	8b 45 ac	 mov	 eax, DWORD PTR tv78[ebp]

; 197  : 		}

  0006c	5f		 pop	 edi
  0006d	5e		 pop	 esi
  0006e	5b		 pop	 ebx
  0006f	8b e5		 mov	 esp, ebp
  00071	5d		 pop	 ebp
  00072	c2 04 00	 ret	 4
?sputc@?$basic_streambuf@DU?$char_traits@D@std@@@std@@QAEHD@Z ENDP ; std::basic_streambuf<char,std::char_traits<char> >::sputc
; Function compile flags: /Odtp /ZI
_TEXT	ENDS
;	COMDAT ?gptr@?$basic_streambuf@DU?$char_traits@D@std@@@std@@IBEPADXZ
_TEXT	SEGMENT
_this$ = -4						; size = 4
?gptr@?$basic_streambuf@DU?$char_traits@D@std@@@std@@IBEPADXZ PROC ; std::basic_streambuf<char,std::char_traits<char> >::gptr, COMDAT
; _this$ = ecx

; 222  : 		{	// return current position in read buffer

  00000	55		 push	 ebp
  00001	8b ec		 mov	 ebp, esp
  00003	83 ec 44	 sub	 esp, 68			; 00000044H
  00006	53		 push	 ebx
  00007	56		 push	 esi
  00008	57		 push	 edi
  00009	89 4d fc	 mov	 DWORD PTR _this$[ebp], ecx

; 223  : 		return (*_IGnext);

  0000c	8b 45 fc	 mov	 eax, DWORD PTR _this$[ebp]
  0000f	8b 48 20	 mov	 ecx, DWORD PTR [eax+32]
  00012	8b 01		 mov	 eax, DWORD PTR [ecx]

; 224  : 		}

  00014	5f		 pop	 edi
  00015	5e		 pop	 esi
  00016	5b		 pop	 ebx
  00017	8b e5		 mov	 esp, ebp
  00019	5d		 pop	 ebp
  0001a	c3		 ret	 0
?gptr@?$basic_streambuf@DU?$char_traits@D@std@@@std@@IBEPADXZ ENDP ; std::basic_streambuf<char,std::char_traits<char> >::gptr
; Function compile flags: /Odtp /ZI
_TEXT	ENDS
;	COMDAT ?pptr@?$basic_streambuf@DU?$char_traits@D@std@@@std@@IBEPADXZ
_TEXT	SEGMENT
_this$ = -4						; size = 4
?pptr@?$basic_streambuf@DU?$char_traits@D@std@@@std@@IBEPADXZ PROC ; std::basic_streambuf<char,std::char_traits<char> >::pptr, COMDAT
; _this$ = ecx

; 232  : 		{	// return current position in write buffer

  00000	55		 push	 ebp
  00001	8b ec		 mov	 ebp, esp
  00003	83 ec 44	 sub	 esp, 68			; 00000044H
  00006	53		 push	 ebx
  00007	56		 push	 esi
  00008	57		 push	 edi
  00009	89 4d fc	 mov	 DWORD PTR _this$[ebp], ecx

; 233  : 		return (*_IPnext);

  0000c	8b 45 fc	 mov	 eax, DWORD PTR _this$[ebp]
  0000f	8b 48 24	 mov	 ecx, DWORD PTR [eax+36]
  00012	8b 01		 mov	 eax, DWORD PTR [ecx]

; 234  : 		}

  00014	5f		 pop	 edi
  00015	5e		 pop	 esi
  00016	5b		 pop	 ebx
  00017	8b e5		 mov	 esp, ebp
  00019	5d		 pop	 ebp
  0001a	c3		 ret	 0
?pptr@?$basic_streambuf@DU?$char_traits@D@std@@@std@@IBEPADXZ ENDP ; std::basic_streambuf<char,std::char_traits<char> >::pptr
; Function compile flags: /Odtp /ZI
_TEXT	ENDS
;	COMDAT ?gbump@?$basic_streambuf@DU?$char_traits@D@std@@@std@@IAEXH@Z
_TEXT	SEGMENT
_this$ = -4						; size = 4
__Off$ = 8						; size = 4
?gbump@?$basic_streambuf@DU?$char_traits@D@std@@@std@@IAEXH@Z PROC ; std::basic_streambuf<char,std::char_traits<char> >::gbump, COMDAT
; _this$ = ecx

; 242  : 		{	// alter current position in read buffer by _Off

  00000	55		 push	 ebp
  00001	8b ec		 mov	 ebp, esp
  00003	83 ec 44	 sub	 esp, 68			; 00000044H
  00006	53		 push	 ebx
  00007	56		 push	 esi
  00008	57		 push	 edi
  00009	89 4d fc	 mov	 DWORD PTR _this$[ebp], ecx

; 243  : 		*_IGcount -= _Off;

  0000c	8b 45 fc	 mov	 eax, DWORD PTR _this$[ebp]
  0000f	8b 48 30	 mov	 ecx, DWORD PTR [eax+48]
  00012	8b 11		 mov	 edx, DWORD PTR [ecx]
  00014	2b 55 08	 sub	 edx, DWORD PTR __Off$[ebp]
  00017	8b 45 fc	 mov	 eax, DWORD PTR _this$[ebp]
  0001a	8b 48 30	 mov	 ecx, DWORD PTR [eax+48]
  0001d	89 11		 mov	 DWORD PTR [ecx], edx

; 244  : 		*_IGnext += _Off;

  0001f	8b 45 fc	 mov	 eax, DWORD PTR _this$[ebp]
  00022	8b 48 20	 mov	 ecx, DWORD PTR [eax+32]
  00025	8b 11		 mov	 edx, DWORD PTR [ecx]
  00027	03 55 08	 add	 edx, DWORD PTR __Off$[ebp]
  0002a	8b 45 fc	 mov	 eax, DWORD PTR _this$[ebp]
  0002d	8b 48 20	 mov	 ecx, DWORD PTR [eax+32]
  00030	89 11		 mov	 DWORD PTR [ecx], edx

; 245  : 		}

  00032	5f		 pop	 edi
  00033	5e		 pop	 esi
  00034	5b		 pop	 ebx
  00035	8b e5		 mov	 esp, ebp
  00037	5d		 pop	 ebp
  00038	c2 04 00	 ret	 4
?gbump@?$basic_streambuf@DU?$char_traits@D@std@@@std@@IAEXH@Z ENDP ; std::basic_streambuf<char,std::char_traits<char> >::gbump
; Function compile flags: /Odtp /ZI
_TEXT	ENDS
;	COMDAT ?_Gninc@?$basic_streambuf@DU?$char_traits@D@std@@@std@@IAEPADXZ
_TEXT	SEGMENT
tv76 = -72						; size = 4
_this$ = -4						; size = 4
?_Gninc@?$basic_streambuf@DU?$char_traits@D@std@@@std@@IAEPADXZ PROC ; std::basic_streambuf<char,std::char_traits<char> >::_Gninc, COMDAT
; _this$ = ecx

; 266  : 		{	// increment current position in read buffer

  00000	55		 push	 ebp
  00001	8b ec		 mov	 ebp, esp
  00003	83 ec 48	 sub	 esp, 72			; 00000048H
  00006	53		 push	 ebx
  00007	56		 push	 esi
  00008	57		 push	 edi
  00009	89 4d fc	 mov	 DWORD PTR _this$[ebp], ecx

; 267  : 		--*_IGcount;

  0000c	8b 45 fc	 mov	 eax, DWORD PTR _this$[ebp]
  0000f	8b 48 30	 mov	 ecx, DWORD PTR [eax+48]
  00012	8b 11		 mov	 edx, DWORD PTR [ecx]
  00014	83 ea 01	 sub	 edx, 1
  00017	8b 45 fc	 mov	 eax, DWORD PTR _this$[ebp]
  0001a	8b 48 30	 mov	 ecx, DWORD PTR [eax+48]
  0001d	89 11		 mov	 DWORD PTR [ecx], edx

; 268  : 		return ((*_IGnext)++);

  0001f	8b 45 fc	 mov	 eax, DWORD PTR _this$[ebp]
  00022	8b 48 20	 mov	 ecx, DWORD PTR [eax+32]
  00025	8b 11		 mov	 edx, DWORD PTR [ecx]
  00027	89 55 b8	 mov	 DWORD PTR tv76[ebp], edx
  0002a	8b 45 fc	 mov	 eax, DWORD PTR _this$[ebp]
  0002d	8b 48 20	 mov	 ecx, DWORD PTR [eax+32]
  00030	8b 11		 mov	 edx, DWORD PTR [ecx]
  00032	83 c2 01	 add	 edx, 1
  00035	8b 45 fc	 mov	 eax, DWORD PTR _this$[ebp]
  00038	8b 48 20	 mov	 ecx, DWORD PTR [eax+32]
  0003b	89 11		 mov	 DWORD PTR [ecx], edx
  0003d	8b 45 b8	 mov	 eax, DWORD PTR tv76[ebp]

; 269  : 		}

  00040	5f		 pop	 edi
  00041	5e		 pop	 esi
  00042	5b		 pop	 ebx
  00043	8b e5		 mov	 esp, ebp
  00045	5d		 pop	 ebp
  00046	c3		 ret	 0
?_Gninc@?$basic_streambuf@DU?$char_traits@D@std@@@std@@IAEPADXZ ENDP ; std::basic_streambuf<char,std::char_traits<char> >::_Gninc
; Function compile flags: /Odtp /ZI
_TEXT	ENDS
;	COMDAT ?_Gnavail@?$basic_streambuf@DU?$char_traits@D@std@@@std@@IBE_JXZ
_TEXT	SEGMENT
tv69 = -72						; size = 4
_this$ = -4						; size = 4
?_Gnavail@?$basic_streambuf@DU?$char_traits@D@std@@@std@@IBE_JXZ PROC ; std::basic_streambuf<char,std::char_traits<char> >::_Gnavail, COMDAT
; _this$ = ecx

; 278  : 		{	// count number of available elements in read buffer

  00000	55		 push	 ebp
  00001	8b ec		 mov	 ebp, esp
  00003	83 ec 48	 sub	 esp, 72			; 00000048H
  00006	53		 push	 ebx
  00007	56		 push	 esi
  00008	57		 push	 edi
  00009	89 4d fc	 mov	 DWORD PTR _this$[ebp], ecx

; 279  : 		return (*_IGnext != 0 ? *_IGcount : 0);

  0000c	8b 45 fc	 mov	 eax, DWORD PTR _this$[ebp]
  0000f	8b 48 20	 mov	 ecx, DWORD PTR [eax+32]
  00012	83 39 00	 cmp	 DWORD PTR [ecx], 0
  00015	74 0d		 je	 SHORT $LN3@Gnavail
  00017	8b 55 fc	 mov	 edx, DWORD PTR _this$[ebp]
  0001a	8b 42 30	 mov	 eax, DWORD PTR [edx+48]
  0001d	8b 08		 mov	 ecx, DWORD PTR [eax]
  0001f	89 4d b8	 mov	 DWORD PTR tv69[ebp], ecx
  00022	eb 07		 jmp	 SHORT $LN4@Gnavail
$LN3@Gnavail:
  00024	c7 45 b8 00 00
	00 00		 mov	 DWORD PTR tv69[ebp], 0
$LN4@Gnavail:
  0002b	8b 45 b8	 mov	 eax, DWORD PTR tv69[ebp]
  0002e	99		 cdq

; 280  : 		}

  0002f	5f		 pop	 edi
  00030	5e		 pop	 esi
  00031	5b		 pop	 ebx
  00032	8b e5		 mov	 esp, ebp
  00034	5d		 pop	 ebp
  00035	c3		 ret	 0
?_Gnavail@?$basic_streambuf@DU?$char_traits@D@std@@@std@@IBE_JXZ ENDP ; std::basic_streambuf<char,std::char_traits<char> >::_Gnavail
; Function compile flags: /Odtp /ZI
_TEXT	ENDS
;	COMDAT ?pbump@?$basic_streambuf@DU?$char_traits@D@std@@@std@@IAEXH@Z
_TEXT	SEGMENT
_this$ = -4						; size = 4
__Off$ = 8						; size = 4
?pbump@?$basic_streambuf@DU?$char_traits@D@std@@@std@@IAEXH@Z PROC ; std::basic_streambuf<char,std::char_traits<char> >::pbump, COMDAT
; _this$ = ecx

; 283  : 		{	// alter current position in write buffer by _Off

  00000	55		 push	 ebp
  00001	8b ec		 mov	 ebp, esp
  00003	83 ec 44	 sub	 esp, 68			; 00000044H
  00006	53		 push	 ebx
  00007	56		 push	 esi
  00008	57		 push	 edi
  00009	89 4d fc	 mov	 DWORD PTR _this$[ebp], ecx

; 284  : 		*_IPcount -= _Off;

  0000c	8b 45 fc	 mov	 eax, DWORD PTR _this$[ebp]
  0000f	8b 48 34	 mov	 ecx, DWORD PTR [eax+52]
  00012	8b 11		 mov	 edx, DWORD PTR [ecx]
  00014	2b 55 08	 sub	 edx, DWORD PTR __Off$[ebp]
  00017	8b 45 fc	 mov	 eax, DWORD PTR _this$[ebp]
  0001a	8b 48 34	 mov	 ecx, DWORD PTR [eax+52]
  0001d	89 11		 mov	 DWORD PTR [ecx], edx

; 285  : 		*_IPnext += _Off;

  0001f	8b 45 fc	 mov	 eax, DWORD PTR _this$[ebp]
  00022	8b 48 24	 mov	 ecx, DWORD PTR [eax+36]
  00025	8b 11		 mov	 edx, DWORD PTR [ecx]
  00027	03 55 08	 add	 edx, DWORD PTR __Off$[ebp]
  0002a	8b 45 fc	 mov	 eax, DWORD PTR _this$[ebp]
  0002d	8b 48 24	 mov	 ecx, DWORD PTR [eax+36]
  00030	89 11		 mov	 DWORD PTR [ecx], edx

; 286  : 		}

  00032	5f		 pop	 edi
  00033	5e		 pop	 esi
  00034	5b		 pop	 ebx
  00035	8b e5		 mov	 esp, ebp
  00037	5d		 pop	 ebp
  00038	c2 04 00	 ret	 4
?pbump@?$basic_streambuf@DU?$char_traits@D@std@@@std@@IAEXH@Z ENDP ; std::basic_streambuf<char,std::char_traits<char> >::pbump
; Function compile flags: /Odtp /ZI
_TEXT	ENDS
;	COMDAT ?_Pnavail@?$basic_streambuf@DU?$char_traits@D@std@@@std@@IBE_JXZ
_TEXT	SEGMENT
tv69 = -72						; size = 4
_this$ = -4						; size = 4
?_Pnavail@?$basic_streambuf@DU?$char_traits@D@std@@@std@@IBE_JXZ PROC ; std::basic_streambuf<char,std::char_traits<char> >::_Pnavail, COMDAT
; _this$ = ecx

; 309  : 		{	// count number of available positions in write buffer

  00000	55		 push	 ebp
  00001	8b ec		 mov	 ebp, esp
  00003	83 ec 48	 sub	 esp, 72			; 00000048H
  00006	53		 push	 ebx
  00007	56		 push	 esi
  00008	57		 push	 edi
  00009	89 4d fc	 mov	 DWORD PTR _this$[ebp], ecx

; 310  : 		return (*_IPnext != 0 ? *_IPcount : 0);

  0000c	8b 45 fc	 mov	 eax, DWORD PTR _this$[ebp]
  0000f	8b 48 24	 mov	 ecx, DWORD PTR [eax+36]
  00012	83 39 00	 cmp	 DWORD PTR [ecx], 0
  00015	74 0d		 je	 SHORT $LN3@Pnavail
  00017	8b 55 fc	 mov	 edx, DWORD PTR _this$[ebp]
  0001a	8b 42 34	 mov	 eax, DWORD PTR [edx+52]
  0001d	8b 08		 mov	 ecx, DWORD PTR [eax]
  0001f	89 4d b8	 mov	 DWORD PTR tv69[ebp], ecx
  00022	eb 07		 jmp	 SHORT $LN4@Pnavail
$LN3@Pnavail:
  00024	c7 45 b8 00 00
	00 00		 mov	 DWORD PTR tv69[ebp], 0
$LN4@Pnavail:
  0002b	8b 45 b8	 mov	 eax, DWORD PTR tv69[ebp]
  0002e	99		 cdq

; 311  : 		}

  0002f	5f		 pop	 edi
  00030	5e		 pop	 esi
  00031	5b		 pop	 ebx
  00032	8b e5		 mov	 esp, ebp
  00034	5d		 pop	 ebp
  00035	c3		 ret	 0
?_Pnavail@?$basic_streambuf@DU?$char_traits@D@std@@@std@@IBE_JXZ ENDP ; std::basic_streambuf<char,std::char_traits<char> >::_Pnavail
_TEXT	ENDS
PUBLIC	??1_Sentry_base@?$basic_ostream@DU?$char_traits@D@std@@@std@@QAE@XZ ; std::basic_ostream<char,std::char_traits<char> >::_Sentry_base::~_Sentry_base
PUBLIC	?flush@?$basic_ostream@DU?$char_traits@D@std@@@std@@QAEAAV12@XZ ; std::basic_ostream<char,std::char_traits<char> >::flush
PUBLIC	?tie@?$basic_ios@DU?$char_traits@D@std@@@std@@QBEPAV?$basic_ostream@DU?$char_traits@D@std@@@2@XZ ; std::basic_ios<char,std::char_traits<char> >::tie
PUBLIC	?good@ios_base@std@@QBE_NXZ			; std::ios_base::good
PUBLIC	??0_Sentry_base@?$basic_ostream@DU?$char_traits@D@std@@@std@@QAE@AAV12@@Z ; std::basic_ostream<char,std::char_traits<char> >::_Sentry_base::_Sentry_base
;	COMDAT xdata$x
; File d:\microsoft visual studio 10.0\vc\include\ostream
xdata$x	SEGMENT
__unwindtable$??0sentry@?$basic_ostream@DU?$char_traits@D@std@@@std@@QAE@AAV12@@Z DD 0ffffffffH
	DD	FLAT:__unwindfunclet$??0sentry@?$basic_ostream@DU?$char_traits@D@std@@@std@@QAE@AAV12@@Z$0
__ehfuncinfo$??0sentry@?$basic_ostream@DU?$char_traits@D@std@@@std@@QAE@AAV12@@Z DD 019930522H
	DD	01H
	DD	FLAT:__unwindtable$??0sentry@?$basic_ostream@DU?$char_traits@D@std@@@std@@QAE@AAV12@@Z
	DD	2 DUP(00H)
	DD	2 DUP(00H)
	DD	00H
	DD	01H
; Function compile flags: /Odtp /ZI
xdata$x	ENDS
;	COMDAT ??0sentry@?$basic_ostream@DU?$char_traits@D@std@@@std@@QAE@AAV12@@Z
_TEXT	SEGMENT
_this$ = -16						; size = 4
__$EHRec$ = -12						; size = 12
__Ostr$ = 8						; size = 4
??0sentry@?$basic_ostream@DU?$char_traits@D@std@@@std@@QAE@AAV12@@Z PROC ; std::basic_ostream<char,std::char_traits<char> >::sentry::sentry, COMDAT
; _this$ = ecx

; 114  : 			{	// construct locking and testing stream

  00000	55		 push	 ebp
  00001	8b ec		 mov	 ebp, esp
  00003	6a ff		 push	 -1
  00005	68 00 00 00 00	 push	 __ehhandler$??0sentry@?$basic_ostream@DU?$char_traits@D@std@@@std@@QAE@AAV12@@Z
  0000a	64 a1 00 00 00
	00		 mov	 eax, DWORD PTR fs:0
  00010	50		 push	 eax
  00011	83 ec 44	 sub	 esp, 68			; 00000044H
  00014	53		 push	 ebx
  00015	56		 push	 esi
  00016	57		 push	 edi
  00017	a1 00 00 00 00	 mov	 eax, DWORD PTR ___security_cookie
  0001c	33 c5		 xor	 eax, ebp
  0001e	50		 push	 eax
  0001f	8d 45 f4	 lea	 eax, DWORD PTR __$EHRec$[ebp]
  00022	64 a3 00 00 00
	00		 mov	 DWORD PTR fs:0, eax
  00028	89 4d f0	 mov	 DWORD PTR _this$[ebp], ecx
  0002b	8b 45 08	 mov	 eax, DWORD PTR __Ostr$[ebp]
  0002e	50		 push	 eax
  0002f	8b 4d f0	 mov	 ecx, DWORD PTR _this$[ebp]
  00032	e8 00 00 00 00	 call	 ??0_Sentry_base@?$basic_ostream@DU?$char_traits@D@std@@@std@@QAE@AAV12@@Z ; std::basic_ostream<char,std::char_traits<char> >::_Sentry_base::_Sentry_base
  00037	c7 45 fc 00 00
	00 00		 mov	 DWORD PTR __$EHRec$[ebp+8], 0

; 115  : 			if (_Ostr.good() && _Ostr.tie() != 0)

  0003e	8b 45 08	 mov	 eax, DWORD PTR __Ostr$[ebp]
  00041	8b 08		 mov	 ecx, DWORD PTR [eax]
  00043	8b 55 08	 mov	 edx, DWORD PTR __Ostr$[ebp]
  00046	03 51 04	 add	 edx, DWORD PTR [ecx+4]
  00049	8b ca		 mov	 ecx, edx
  0004b	e8 00 00 00 00	 call	 ?good@ios_base@std@@QBE_NXZ ; std::ios_base::good
  00050	0f b6 c0	 movzx	 eax, al
  00053	85 c0		 test	 eax, eax
  00055	74 2f		 je	 SHORT $LN1@sentry
  00057	8b 45 08	 mov	 eax, DWORD PTR __Ostr$[ebp]
  0005a	8b 08		 mov	 ecx, DWORD PTR [eax]
  0005c	8b 55 08	 mov	 edx, DWORD PTR __Ostr$[ebp]
  0005f	03 51 04	 add	 edx, DWORD PTR [ecx+4]
  00062	8b ca		 mov	 ecx, edx
  00064	e8 00 00 00 00	 call	 ?tie@?$basic_ios@DU?$char_traits@D@std@@@std@@QBEPAV?$basic_ostream@DU?$char_traits@D@std@@@2@XZ ; std::basic_ios<char,std::char_traits<char> >::tie
  00069	85 c0		 test	 eax, eax
  0006b	74 19		 je	 SHORT $LN1@sentry

; 116  : 				_Ostr.tie()->flush();

  0006d	8b 45 08	 mov	 eax, DWORD PTR __Ostr$[ebp]
  00070	8b 08		 mov	 ecx, DWORD PTR [eax]
  00072	8b 55 08	 mov	 edx, DWORD PTR __Ostr$[ebp]
  00075	03 51 04	 add	 edx, DWORD PTR [ecx+4]
  00078	8b ca		 mov	 ecx, edx
  0007a	e8 00 00 00 00	 call	 ?tie@?$basic_ios@DU?$char_traits@D@std@@@std@@QBEPAV?$basic_ostream@DU?$char_traits@D@std@@@2@XZ ; std::basic_ios<char,std::char_traits<char> >::tie
  0007f	8b c8		 mov	 ecx, eax
  00081	e8 00 00 00 00	 call	 ?flush@?$basic_ostream@DU?$char_traits@D@std@@@std@@QAEAAV12@XZ ; std::basic_ostream<char,std::char_traits<char> >::flush
$LN1@sentry:

; 117  : 			_Ok = _Ostr.good();	// store test only after flushing tie

  00086	8b 45 08	 mov	 eax, DWORD PTR __Ostr$[ebp]
  00089	8b 08		 mov	 ecx, DWORD PTR [eax]
  0008b	8b 55 08	 mov	 edx, DWORD PTR __Ostr$[ebp]
  0008e	03 51 04	 add	 edx, DWORD PTR [ecx+4]
  00091	8b ca		 mov	 ecx, edx
  00093	e8 00 00 00 00	 call	 ?good@ios_base@std@@QBE_NXZ ; std::ios_base::good
  00098	8b 4d f0	 mov	 ecx, DWORD PTR _this$[ebp]
  0009b	88 41 04	 mov	 BYTE PTR [ecx+4], al

; 118  : 			}

  0009e	c7 45 fc ff ff
	ff ff		 mov	 DWORD PTR __$EHRec$[ebp+8], -1
  000a5	8b 45 f0	 mov	 eax, DWORD PTR _this$[ebp]
  000a8	8b 4d f4	 mov	 ecx, DWORD PTR __$EHRec$[ebp]
  000ab	64 89 0d 00 00
	00 00		 mov	 DWORD PTR fs:0, ecx
  000b2	59		 pop	 ecx
  000b3	5f		 pop	 edi
  000b4	5e		 pop	 esi
  000b5	5b		 pop	 ebx
  000b6	8b e5		 mov	 esp, ebp
  000b8	5d		 pop	 ebp
  000b9	c2 04 00	 ret	 4
_TEXT	ENDS
;	COMDAT text$x
text$x	SEGMENT
__unwindfunclet$??0sentry@?$basic_ostream@DU?$char_traits@D@std@@@std@@QAE@AAV12@@Z$0:
  00000	8b 4d f0	 mov	 ecx, DWORD PTR _this$[ebp]
  00003	e9 00 00 00 00	 jmp	 ??1_Sentry_base@?$basic_ostream@DU?$char_traits@D@std@@@std@@QAE@XZ ; std::basic_ostream<char,std::char_traits<char> >::_Sentry_base::~_Sentry_base
__ehhandler$??0sentry@?$basic_ostream@DU?$char_traits@D@std@@@std@@QAE@AAV12@@Z:
  00008	8b 54 24 08	 mov	 edx, DWORD PTR [esp+8]
  0000c	8d 42 0c	 lea	 eax, DWORD PTR [edx+12]
  0000f	8b 4a ac	 mov	 ecx, DWORD PTR [edx-84]
  00012	33 c8		 xor	 ecx, eax
  00014	e8 00 00 00 00	 call	 @__security_check_cookie@4
  00019	b8 00 00 00 00	 mov	 eax, OFFSET __ehfuncinfo$??0sentry@?$basic_ostream@DU?$char_traits@D@std@@@std@@QAE@AAV12@@Z
  0001e	e9 00 00 00 00	 jmp	 ___CxxFrameHandler3
text$x	ENDS
??0sentry@?$basic_ostream@DU?$char_traits@D@std@@@std@@QAE@AAV12@@Z ENDP ; std::basic_ostream<char,std::char_traits<char> >::sentry::sentry
; Function compile flags: /Odtp /ZI
; File d:\microsoft visual studio 10.0\vc\include\xiosbase
;	COMDAT ?good@ios_base@std@@QBE_NXZ
_TEXT	SEGMENT
_this$ = -4						; size = 4
?good@ios_base@std@@QBE_NXZ PROC			; std::ios_base::good, COMDAT
; _this$ = ecx

; 357  : 		{	// test if no state bits are set

  00000	55		 push	 ebp
  00001	8b ec		 mov	 ebp, esp
  00003	83 ec 44	 sub	 esp, 68			; 00000044H
  00006	53		 push	 ebx
  00007	56		 push	 esi
  00008	57		 push	 edi
  00009	89 4d fc	 mov	 DWORD PTR _this$[ebp], ecx

; 358  : 		return (rdstate() == goodbit);

  0000c	8b 4d fc	 mov	 ecx, DWORD PTR _this$[ebp]
  0000f	e8 00 00 00 00	 call	 ?rdstate@ios_base@std@@QBEHXZ ; std::ios_base::rdstate
  00014	f7 d8		 neg	 eax
  00016	1b c0		 sbb	 eax, eax
  00018	83 c0 01	 add	 eax, 1

; 359  : 		}

  0001b	5f		 pop	 edi
  0001c	5e		 pop	 esi
  0001d	5b		 pop	 ebx
  0001e	8b e5		 mov	 esp, ebp
  00020	5d		 pop	 ebp
  00021	c3		 ret	 0
?good@ios_base@std@@QBE_NXZ ENDP			; std::ios_base::good
_TEXT	ENDS
PUBLIC	?pubsync@?$basic_streambuf@DU?$char_traits@D@std@@@std@@QAEHXZ ; std::basic_streambuf<char,std::char_traits<char> >::pubsync
PUBLIC	?fail@ios_base@std@@QBE_NXZ			; std::ios_base::fail
; Function compile flags: /Odtp /ZI
; File d:\microsoft visual studio 10.0\vc\include\ostream
;	COMDAT ?flush@?$basic_ostream@DU?$char_traits@D@std@@@std@@QAEAAV12@XZ
_TEXT	SEGMENT
__State$ = -8						; size = 4
_this$ = -4						; size = 4
?flush@?$basic_ostream@DU?$char_traits@D@std@@@std@@QAEAAV12@XZ PROC ; std::basic_ostream<char,std::char_traits<char> >::flush, COMDAT
; _this$ = ecx

; 570  : 		{	// flush output stream

  00000	55		 push	 ebp
  00001	8b ec		 mov	 ebp, esp
  00003	83 ec 48	 sub	 esp, 72			; 00000048H
  00006	53		 push	 ebx
  00007	56		 push	 esi
  00008	57		 push	 edi
  00009	89 4d fc	 mov	 DWORD PTR _this$[ebp], ecx

; 571  : 		ios_base::iostate _State = ios_base::goodbit;

  0000c	c7 45 f8 00 00
	00 00		 mov	 DWORD PTR __State$[ebp], 0

; 572  : 		if (!ios_base::fail() && _Myios::rdbuf()->pubsync() == -1)

  00013	8b 45 fc	 mov	 eax, DWORD PTR _this$[ebp]
  00016	8b 08		 mov	 ecx, DWORD PTR [eax]
  00018	8b 55 fc	 mov	 edx, DWORD PTR _this$[ebp]
  0001b	03 51 04	 add	 edx, DWORD PTR [ecx+4]
  0001e	8b ca		 mov	 ecx, edx
  00020	e8 00 00 00 00	 call	 ?fail@ios_base@std@@QBE_NXZ ; std::ios_base::fail
  00025	0f b6 c0	 movzx	 eax, al
  00028	85 c0		 test	 eax, eax
  0002a	75 27		 jne	 SHORT $LN1@flush
  0002c	8b 45 fc	 mov	 eax, DWORD PTR _this$[ebp]
  0002f	8b 08		 mov	 ecx, DWORD PTR [eax]
  00031	8b 55 fc	 mov	 edx, DWORD PTR _this$[ebp]
  00034	03 51 04	 add	 edx, DWORD PTR [ecx+4]
  00037	8b ca		 mov	 ecx, edx
  00039	e8 00 00 00 00	 call	 ?rdbuf@?$basic_ios@DU?$char_traits@D@std@@@std@@QBEPAV?$basic_streambuf@DU?$char_traits@D@std@@@2@XZ ; std::basic_ios<char,std::char_traits<char> >::rdbuf
  0003e	8b c8		 mov	 ecx, eax
  00040	e8 00 00 00 00	 call	 ?pubsync@?$basic_streambuf@DU?$char_traits@D@std@@@std@@QAEHXZ ; std::basic_streambuf<char,std::char_traits<char> >::pubsync
  00045	83 f8 ff	 cmp	 eax, -1
  00048	75 09		 jne	 SHORT $LN1@flush

; 573  : 			_State |= ios_base::badbit;	// sync failed

  0004a	8b 45 f8	 mov	 eax, DWORD PTR __State$[ebp]
  0004d	83 c8 04	 or	 eax, 4
  00050	89 45 f8	 mov	 DWORD PTR __State$[ebp], eax
$LN1@flush:

; 574  : 		_Myios::setstate(_State);

  00053	6a 00		 push	 0
  00055	8b 45 f8	 mov	 eax, DWORD PTR __State$[ebp]
  00058	50		 push	 eax
  00059	8b 4d fc	 mov	 ecx, DWORD PTR _this$[ebp]
  0005c	8b 11		 mov	 edx, DWORD PTR [ecx]
  0005e	8b 4d fc	 mov	 ecx, DWORD PTR _this$[ebp]
  00061	03 4a 04	 add	 ecx, DWORD PTR [edx+4]
  00064	e8 00 00 00 00	 call	 ?setstate@?$basic_ios@DU?$char_traits@D@std@@@std@@QAEXH_N@Z ; std::basic_ios<char,std::char_traits<char> >::setstate

; 575  : 		return (*this);

  00069	8b 45 fc	 mov	 eax, DWORD PTR _this$[ebp]

; 576  : 		}

  0006c	5f		 pop	 edi
  0006d	5e		 pop	 esi
  0006e	5b		 pop	 ebx
  0006f	8b e5		 mov	 esp, ebp
  00071	5d		 pop	 ebp
  00072	c3		 ret	 0
?flush@?$basic_ostream@DU?$char_traits@D@std@@@std@@QAEAAV12@XZ ENDP ; std::basic_ostream<char,std::char_traits<char> >::flush
; Function compile flags: /Odtp /ZI
; File d:\microsoft visual studio 10.0\vc\include\xiosbase
_TEXT	ENDS
;	COMDAT ?fail@ios_base@std@@QBE_NXZ
_TEXT	SEGMENT
_this$ = -4						; size = 4
?fail@ios_base@std@@QBE_NXZ PROC			; std::ios_base::fail, COMDAT
; _this$ = ecx

; 367  : 		{	// test if badbit or failbit is set in stream state

  00000	55		 push	 ebp
  00001	8b ec		 mov	 ebp, esp
  00003	83 ec 44	 sub	 esp, 68			; 00000044H
  00006	53		 push	 ebx
  00007	56		 push	 esi
  00008	57		 push	 edi
  00009	89 4d fc	 mov	 DWORD PTR _this$[ebp], ecx

; 368  : 		return (((int)rdstate()
; 369  : 			& ((int)badbit | (int)failbit)) != 0);

  0000c	8b 4d fc	 mov	 ecx, DWORD PTR _this$[ebp]
  0000f	e8 00 00 00 00	 call	 ?rdstate@ios_base@std@@QBEHXZ ; std::ios_base::rdstate
  00014	83 e0 06	 and	 eax, 6
  00017	f7 d8		 neg	 eax
  00019	1b c0		 sbb	 eax, eax
  0001b	f7 d8		 neg	 eax

; 370  : 		}

  0001d	5f		 pop	 edi
  0001e	5e		 pop	 esi
  0001f	5b		 pop	 ebx
  00020	8b e5		 mov	 esp, ebp
  00022	5d		 pop	 ebp
  00023	c3		 ret	 0
?fail@ios_base@std@@QBE_NXZ ENDP			; std::ios_base::fail
; Function compile flags: /Odtp /ZI
; File d:\microsoft visual studio 10.0\vc\include\streambuf
_TEXT	ENDS
;	COMDAT ?pubsync@?$basic_streambuf@DU?$char_traits@D@std@@@std@@QAEHXZ
_TEXT	SEGMENT
_this$ = -4						; size = 4
?pubsync@?$basic_streambuf@DU?$char_traits@D@std@@@std@@QAEHXZ PROC ; std::basic_streambuf<char,std::char_traits<char> >::pubsync, COMDAT
; _this$ = ecx

; 140  : 		{	// synchronize with external agent

  00000	55		 push	 ebp
  00001	8b ec		 mov	 ebp, esp
  00003	83 ec 44	 sub	 esp, 68			; 00000044H
  00006	53		 push	 ebx
  00007	56		 push	 esi
  00008	57		 push	 edi
  00009	89 4d fc	 mov	 DWORD PTR _this$[ebp], ecx

; 141  : 		return (sync());

  0000c	8b 45 fc	 mov	 eax, DWORD PTR _this$[ebp]
  0000f	8b 10		 mov	 edx, DWORD PTR [eax]
  00011	8b 4d fc	 mov	 ecx, DWORD PTR _this$[ebp]
  00014	8b 42 34	 mov	 eax, DWORD PTR [edx+52]
  00017	ff d0		 call	 eax

; 142  : 		}

  00019	5f		 pop	 edi
  0001a	5e		 pop	 esi
  0001b	5b		 pop	 ebx
  0001c	8b e5		 mov	 esp, ebp
  0001e	5d		 pop	 ebp
  0001f	c3		 ret	 0
?pubsync@?$basic_streambuf@DU?$char_traits@D@std@@@std@@QAEHXZ ENDP ; std::basic_streambuf<char,std::char_traits<char> >::pubsync
_TEXT	ENDS
PUBLIC	?_Osfx@?$basic_ostream@DU?$char_traits@D@std@@@std@@QAEXXZ ; std::basic_ostream<char,std::char_traits<char> >::_Osfx
EXTRN	?uncaught_exception@std@@YA_NXZ:PROC		; std::uncaught_exception
;	COMDAT xdata$x
; File d:\microsoft visual studio 10.0\vc\include\ostream
xdata$x	SEGMENT
__unwindtable$??1sentry@?$basic_ostream@DU?$char_traits@D@std@@@std@@QAE@XZ DD 0ffffffffH
	DD	FLAT:__unwindfunclet$??1sentry@?$basic_ostream@DU?$char_traits@D@std@@@std@@QAE@XZ$0
__ehfuncinfo$??1sentry@?$basic_ostream@DU?$char_traits@D@std@@@std@@QAE@XZ DD 019930522H
	DD	01H
	DD	FLAT:__unwindtable$??1sentry@?$basic_ostream@DU?$char_traits@D@std@@@std@@QAE@XZ
	DD	2 DUP(00H)
	DD	2 DUP(00H)
	DD	00H
	DD	01H
; Function compile flags: /Odtp /ZI
xdata$x	ENDS
;	COMDAT ??1sentry@?$basic_ostream@DU?$char_traits@D@std@@@std@@QAE@XZ
_TEXT	SEGMENT
_this$ = -16						; size = 4
__$EHRec$ = -12						; size = 12
??1sentry@?$basic_ostream@DU?$char_traits@D@std@@@std@@QAE@XZ PROC ; std::basic_ostream<char,std::char_traits<char> >::sentry::~sentry, COMDAT
; _this$ = ecx

; 121  : 			{	// destroy the object

  00000	55		 push	 ebp
  00001	8b ec		 mov	 ebp, esp
  00003	6a ff		 push	 -1
  00005	68 00 00 00 00	 push	 __ehhandler$??1sentry@?$basic_ostream@DU?$char_traits@D@std@@@std@@QAE@XZ
  0000a	64 a1 00 00 00
	00		 mov	 eax, DWORD PTR fs:0
  00010	50		 push	 eax
  00011	83 ec 44	 sub	 esp, 68			; 00000044H
  00014	53		 push	 ebx
  00015	56		 push	 esi
  00016	57		 push	 edi
  00017	a1 00 00 00 00	 mov	 eax, DWORD PTR ___security_cookie
  0001c	33 c5		 xor	 eax, ebp
  0001e	50		 push	 eax
  0001f	8d 45 f4	 lea	 eax, DWORD PTR __$EHRec$[ebp]
  00022	64 a3 00 00 00
	00		 mov	 DWORD PTR fs:0, eax
  00028	89 4d f0	 mov	 DWORD PTR _this$[ebp], ecx
  0002b	c7 45 fc 00 00
	00 00		 mov	 DWORD PTR __$EHRec$[ebp+8], 0

; 122  :  #if _HAS_EXCEPTIONS
; 123  : 			if (!uncaught_exception())

  00032	e8 00 00 00 00	 call	 ?uncaught_exception@std@@YA_NXZ ; std::uncaught_exception
  00037	0f b6 c0	 movzx	 eax, al
  0003a	85 c0		 test	 eax, eax
  0003c	75 0a		 jne	 SHORT $LN2@sentry@2

; 124  : 				this->_Myostr._Osfx();

  0003e	8b 45 f0	 mov	 eax, DWORD PTR _this$[ebp]
  00041	8b 08		 mov	 ecx, DWORD PTR [eax]
  00043	e8 00 00 00 00	 call	 ?_Osfx@?$basic_ostream@DU?$char_traits@D@std@@@std@@QAEXXZ ; std::basic_ostream<char,std::char_traits<char> >::_Osfx
$LN2@sentry@2:

; 125  : 
; 126  :  #else /* _HAS_EXCEPTIONS */
; 127  : 			this->_Myostr._Osfx();
; 128  :  #endif /* _HAS_EXCEPTIONS */
; 129  : 			}

  00048	c7 45 fc ff ff
	ff ff		 mov	 DWORD PTR __$EHRec$[ebp+8], -1
  0004f	8b 4d f0	 mov	 ecx, DWORD PTR _this$[ebp]
  00052	e8 00 00 00 00	 call	 ??1_Sentry_base@?$basic_ostream@DU?$char_traits@D@std@@@std@@QAE@XZ ; std::basic_ostream<char,std::char_traits<char> >::_Sentry_base::~_Sentry_base
  00057	8b 4d f4	 mov	 ecx, DWORD PTR __$EHRec$[ebp]
  0005a	64 89 0d 00 00
	00 00		 mov	 DWORD PTR fs:0, ecx
  00061	59		 pop	 ecx
  00062	5f		 pop	 edi
  00063	5e		 pop	 esi
  00064	5b		 pop	 ebx
  00065	8b e5		 mov	 esp, ebp
  00067	5d		 pop	 ebp
  00068	c3		 ret	 0
_TEXT	ENDS
;	COMDAT text$x
text$x	SEGMENT
__unwindfunclet$??1sentry@?$basic_ostream@DU?$char_traits@D@std@@@std@@QAE@XZ$0:
  00000	8b 4d f0	 mov	 ecx, DWORD PTR _this$[ebp]
  00003	e9 00 00 00 00	 jmp	 ??1_Sentry_base@?$basic_ostream@DU?$char_traits@D@std@@@std@@QAE@XZ ; std::basic_ostream<char,std::char_traits<char> >::_Sentry_base::~_Sentry_base
__ehhandler$??1sentry@?$basic_ostream@DU?$char_traits@D@std@@@std@@QAE@XZ:
  00008	8b 54 24 08	 mov	 edx, DWORD PTR [esp+8]
  0000c	8d 42 0c	 lea	 eax, DWORD PTR [edx+12]
  0000f	8b 4a ac	 mov	 ecx, DWORD PTR [edx-84]
  00012	33 c8		 xor	 ecx, eax
  00014	e8 00 00 00 00	 call	 @__security_check_cookie@4
  00019	b8 00 00 00 00	 mov	 eax, OFFSET __ehfuncinfo$??1sentry@?$basic_ostream@DU?$char_traits@D@std@@@std@@QAE@XZ
  0001e	e9 00 00 00 00	 jmp	 ___CxxFrameHandler3
text$x	ENDS
??1sentry@?$basic_ostream@DU?$char_traits@D@std@@@std@@QAE@XZ ENDP ; std::basic_ostream<char,std::char_traits<char> >::sentry::~sentry
; Function compile flags: /Odtp /ZI
;	COMDAT ??Bsentry@?$basic_ostream@DU?$char_traits@D@std@@@std@@QBEPQ_Bool_struct@2@HXZ
_TEXT	SEGMENT
_this$ = -4						; size = 4
??Bsentry@?$basic_ostream@DU?$char_traits@D@std@@@std@@QBEPQ_Bool_struct@2@HXZ PROC ; std::basic_ostream<char,std::char_traits<char> >::sentry::operator int std::_Bool_struct::*, COMDAT
; _this$ = ecx

; 132  : 			{	// test if stream state okay

  00000	55		 push	 ebp
  00001	8b ec		 mov	 ebp, esp
  00003	83 ec 44	 sub	 esp, 68			; 00000044H
  00006	53		 push	 ebx
  00007	56		 push	 esi
  00008	57		 push	 edi
  00009	89 4d fc	 mov	 DWORD PTR _this$[ebp], ecx

; 133  : 			return (_Ok ? _CONVERTIBLE_TO_TRUE : 0);

  0000c	8b 45 fc	 mov	 eax, DWORD PTR _this$[ebp]
  0000f	0f b6 40 04	 movzx	 eax, BYTE PTR [eax+4]
  00013	f7 d8		 neg	 eax
  00015	1b c0		 sbb	 eax, eax
  00017	f7 d8		 neg	 eax
  00019	83 e8 01	 sub	 eax, 1

; 134  : 			}

  0001c	5f		 pop	 edi
  0001d	5e		 pop	 esi
  0001e	5b		 pop	 ebx
  0001f	8b e5		 mov	 esp, ebp
  00021	5d		 pop	 ebp
  00022	c3		 ret	 0
??Bsentry@?$basic_ostream@DU?$char_traits@D@std@@@std@@QBEPQ_Bool_struct@2@HXZ ENDP ; std::basic_ostream<char,std::char_traits<char> >::sentry::operator int std::_Bool_struct::*
_TEXT	ENDS
PUBLIC	?_Stz@?$fpos@H@std@@0HB				; std::fpos<int>::_Stz
;	COMDAT ?_Stz@?$fpos@H@std@@0HB
; File d:\microsoft visual studio 10.0\vc\include\iosfwd
CONST	SEGMENT
?_Stz@?$fpos@H@std@@0HB DD 00H				; std::fpos<int>::_Stz
; Function compile flags: /Odtp /ZI
CONST	ENDS
;	COMDAT ??0?$fpos@H@std@@QAE@_J@Z
_TEXT	SEGMENT
_this$ = -4						; size = 4
__Off$ = 8						; size = 8
??0?$fpos@H@std@@QAE@_J@Z PROC				; std::fpos<int>::fpos<int>, COMDAT
; _this$ = ecx

; 40   : 		{	// construct with stream offset

  00000	55		 push	 ebp
  00001	8b ec		 mov	 ebp, esp
  00003	83 ec 44	 sub	 esp, 68			; 00000044H
  00006	53		 push	 ebx
  00007	56		 push	 esi
  00008	57		 push	 edi
  00009	89 4d fc	 mov	 DWORD PTR _this$[ebp], ecx
  0000c	8b 45 fc	 mov	 eax, DWORD PTR _this$[ebp]
  0000f	8b 4d 08	 mov	 ecx, DWORD PTR __Off$[ebp]
  00012	89 08		 mov	 DWORD PTR [eax], ecx
  00014	8b 55 0c	 mov	 edx, DWORD PTR __Off$[ebp+4]
  00017	89 50 04	 mov	 DWORD PTR [eax+4], edx
  0001a	8b 45 fc	 mov	 eax, DWORD PTR _this$[ebp]
  0001d	c7 40 08 00 00
	00 00		 mov	 DWORD PTR [eax+8], 0
  00024	c7 40 0c 00 00
	00 00		 mov	 DWORD PTR [eax+12], 0
  0002b	8b 45 fc	 mov	 eax, DWORD PTR _this$[ebp]
  0002e	8b 0d 00 00 00
	00		 mov	 ecx, DWORD PTR ?_Stz@?$fpos@H@std@@0HB ; std::fpos<int>::_Stz
  00034	89 48 10	 mov	 DWORD PTR [eax+16], ecx

; 41   : 		}

  00037	8b 45 fc	 mov	 eax, DWORD PTR _this$[ebp]
  0003a	5f		 pop	 edi
  0003b	5e		 pop	 esi
  0003c	5b		 pop	 ebx
  0003d	8b e5		 mov	 esp, ebp
  0003f	5d		 pop	 ebp
  00040	c2 08 00	 ret	 8
??0?$fpos@H@std@@QAE@_J@Z ENDP				; std::fpos<int>::fpos<int>
_TEXT	ENDS
PUBLIC	??0?$_String_iterator@DU?$char_traits@D@std@@V?$allocator@D@2@@std@@QAE@PADPBU_Container_base0@1@@Z ; std::_String_iterator<char,std::char_traits<char>,std::allocator<char> >::_String_iterator<char,std::char_traits<char>,std::allocator<char> >
PUBLIC	?_Myptr@?$basic_string@DU?$char_traits@D@std@@V?$allocator@D@2@@std@@QAEPADXZ ; std::basic_string<char,std::char_traits<char>,std::allocator<char> >::_Myptr
; Function compile flags: /Odtp /ZI
; File d:\microsoft visual studio 10.0\vc\include\xstring
;	COMDAT ?begin@?$basic_string@DU?$char_traits@D@std@@V?$allocator@D@2@@std@@QAE?AV?$_String_iterator@DU?$char_traits@D@std@@V?$allocator@D@2@@2@XZ
_TEXT	SEGMENT
_this$ = -4						; size = 4
___$ReturnUdt$ = 8					; size = 4
?begin@?$basic_string@DU?$char_traits@D@std@@V?$allocator@D@2@@std@@QAE?AV?$_String_iterator@DU?$char_traits@D@std@@V?$allocator@D@2@@2@XZ PROC ; std::basic_string<char,std::char_traits<char>,std::allocator<char> >::begin, COMDAT
; _this$ = ecx

; 1350 : 		{	// return iterator for beginning of mutable sequence

  00000	55		 push	 ebp
  00001	8b ec		 mov	 ebp, esp
  00003	83 ec 44	 sub	 esp, 68			; 00000044H
  00006	53		 push	 ebx
  00007	56		 push	 esi
  00008	57		 push	 edi
  00009	89 4d fc	 mov	 DWORD PTR _this$[ebp], ecx

; 1351 : 		return (_STRING_ITERATOR(_Myptr()));

  0000c	8b 45 fc	 mov	 eax, DWORD PTR _this$[ebp]
  0000f	50		 push	 eax
  00010	8b 4d fc	 mov	 ecx, DWORD PTR _this$[ebp]
  00013	e8 00 00 00 00	 call	 ?_Myptr@?$basic_string@DU?$char_traits@D@std@@V?$allocator@D@2@@std@@QAEPADXZ ; std::basic_string<char,std::char_traits<char>,std::allocator<char> >::_Myptr
  00018	50		 push	 eax
  00019	8b 4d 08	 mov	 ecx, DWORD PTR ___$ReturnUdt$[ebp]
  0001c	e8 00 00 00 00	 call	 ??0?$_String_iterator@DU?$char_traits@D@std@@V?$allocator@D@2@@std@@QAE@PADPBU_Container_base0@1@@Z ; std::_String_iterator<char,std::char_traits<char>,std::allocator<char> >::_String_iterator<char,std::char_traits<char>,std::allocator<char> >
  00021	8b 45 08	 mov	 eax, DWORD PTR ___$ReturnUdt$[ebp]

; 1352 : 		}

  00024	5f		 pop	 edi
  00025	5e		 pop	 esi
  00026	5b		 pop	 ebx
  00027	8b e5		 mov	 esp, ebp
  00029	5d		 pop	 ebp
  0002a	c2 04 00	 ret	 4
?begin@?$basic_string@DU?$char_traits@D@std@@V?$allocator@D@2@@std@@QAE?AV?$_String_iterator@DU?$char_traits@D@std@@V?$allocator@D@2@@2@XZ ENDP ; std::basic_string<char,std::char_traits<char>,std::allocator<char> >::begin
_TEXT	ENDS
PUBLIC	?assign@?$char_traits@D@std@@SAXAADABD@Z	; std::char_traits<char>::assign
; Function compile flags: /Odtp /ZI
;	COMDAT ?_Eos@?$basic_string@DU?$char_traits@D@std@@V?$allocator@D@2@@std@@QAEXI@Z
_TEXT	SEGMENT
$T226585 = -69						; size = 1
_this$ = -4						; size = 4
__Newsize$ = 8						; size = 4
?_Eos@?$basic_string@DU?$char_traits@D@std@@V?$allocator@D@2@@std@@QAEXI@Z PROC ; std::basic_string<char,std::char_traits<char>,std::allocator<char> >::_Eos, COMDAT
; _this$ = ecx

; 1952 : 		{	// set new length and null terminator

  00000	55		 push	 ebp
  00001	8b ec		 mov	 ebp, esp
  00003	83 ec 48	 sub	 esp, 72			; 00000048H
  00006	53		 push	 ebx
  00007	56		 push	 esi
  00008	57		 push	 edi
  00009	89 4d fc	 mov	 DWORD PTR _this$[ebp], ecx

; 1953 : 		_Traits::assign(_Myptr()[this->_Mysize = _Newsize], _Elem());

  0000c	c6 45 bb 00	 mov	 BYTE PTR $T226585[ebp], 0
  00010	8b 45 fc	 mov	 eax, DWORD PTR _this$[ebp]
  00013	8b 4d 08	 mov	 ecx, DWORD PTR __Newsize$[ebp]
  00016	89 48 10	 mov	 DWORD PTR [eax+16], ecx
  00019	8d 55 bb	 lea	 edx, DWORD PTR $T226585[ebp]
  0001c	52		 push	 edx
  0001d	8b 4d fc	 mov	 ecx, DWORD PTR _this$[ebp]
  00020	e8 00 00 00 00	 call	 ?_Myptr@?$basic_string@DU?$char_traits@D@std@@V?$allocator@D@2@@std@@QAEPADXZ ; std::basic_string<char,std::char_traits<char>,std::allocator<char> >::_Myptr
  00025	03 45 08	 add	 eax, DWORD PTR __Newsize$[ebp]
  00028	50		 push	 eax
  00029	e8 00 00 00 00	 call	 ?assign@?$char_traits@D@std@@SAXAADABD@Z ; std::char_traits<char>::assign
  0002e	83 c4 08	 add	 esp, 8

; 1954 : 		}

  00031	5f		 pop	 edi
  00032	5e		 pop	 esi
  00033	5b		 pop	 ebx
  00034	8b e5		 mov	 esp, ebp
  00036	5d		 pop	 ebp
  00037	c2 04 00	 ret	 4
?_Eos@?$basic_string@DU?$char_traits@D@std@@V?$allocator@D@2@@std@@QAEXI@Z ENDP ; std::basic_string<char,std::char_traits<char>,std::allocator<char> >::_Eos
; Function compile flags: /Odtp /ZI
; File d:\microsoft visual studio 10.0\vc\include\iosfwd
_TEXT	ENDS
;	COMDAT ?assign@?$char_traits@D@std@@SAXAADABD@Z
_TEXT	SEGMENT
__Left$ = 8						; size = 4
__Right$ = 12						; size = 4
?assign@?$char_traits@D@std@@SAXAADABD@Z PROC		; std::char_traits<char>::assign, COMDAT

; 526  : 		{	// assign an element

  00000	55		 push	 ebp
  00001	8b ec		 mov	 ebp, esp
  00003	83 ec 40	 sub	 esp, 64			; 00000040H
  00006	53		 push	 ebx
  00007	56		 push	 esi
  00008	57		 push	 edi

; 527  : 		_Left = _Right;

  00009	8b 45 08	 mov	 eax, DWORD PTR __Left$[ebp]
  0000c	8b 4d 0c	 mov	 ecx, DWORD PTR __Right$[ebp]
  0000f	8a 11		 mov	 dl, BYTE PTR [ecx]
  00011	88 10		 mov	 BYTE PTR [eax], dl

; 528  : 		}

  00013	5f		 pop	 edi
  00014	5e		 pop	 esi
  00015	5b		 pop	 ebx
  00016	8b e5		 mov	 esp, ebp
  00018	5d		 pop	 ebp
  00019	c3		 ret	 0
?assign@?$char_traits@D@std@@SAXAADABD@Z ENDP		; std::char_traits<char>::assign
; Function compile flags: /Odtp /ZI
; File d:\microsoft visual studio 10.0\vc\include\xstring
_TEXT	ENDS
;	COMDAT ?_Myptr@?$basic_string@DU?$char_traits@D@std@@V?$allocator@D@2@@std@@QAEPADXZ
_TEXT	SEGMENT
tv80 = -72						; size = 4
_this$ = -4						; size = 4
?_Myptr@?$basic_string@DU?$char_traits@D@std@@V?$allocator@D@2@@std@@QAEPADXZ PROC ; std::basic_string<char,std::char_traits<char>,std::allocator<char> >::_Myptr, COMDAT
; _this$ = ecx

; 2002 : 		{	// determine current pointer to buffer for mutable string

  00000	55		 push	 ebp
  00001	8b ec		 mov	 ebp, esp
  00003	83 ec 48	 sub	 esp, 72			; 00000048H
  00006	53		 push	 ebx
  00007	56		 push	 esi
  00008	57		 push	 edi
  00009	89 4d fc	 mov	 DWORD PTR _this$[ebp], ecx

; 2003 : 		return (this->_BUF_SIZE <= this->_Myres ? this->_Bx._Ptr
; 2004 : 			: this->_Bx._Buf);

  0000c	8b 45 fc	 mov	 eax, DWORD PTR _this$[ebp]
  0000f	83 78 14 10	 cmp	 DWORD PTR [eax+20], 16	; 00000010H
  00013	72 0a		 jb	 SHORT $LN3@Myptr
  00015	8b 4d fc	 mov	 ecx, DWORD PTR _this$[ebp]
  00018	8b 11		 mov	 edx, DWORD PTR [ecx]
  0001a	89 55 b8	 mov	 DWORD PTR tv80[ebp], edx
  0001d	eb 06		 jmp	 SHORT $LN4@Myptr
$LN3@Myptr:
  0001f	8b 45 fc	 mov	 eax, DWORD PTR _this$[ebp]
  00022	89 45 b8	 mov	 DWORD PTR tv80[ebp], eax
$LN4@Myptr:
  00025	8b 45 b8	 mov	 eax, DWORD PTR tv80[ebp]

; 2005 : 		}

  00028	5f		 pop	 edi
  00029	5e		 pop	 esi
  0002a	5b		 pop	 ebx
  0002b	8b e5		 mov	 esp, ebp
  0002d	5d		 pop	 ebp
  0002e	c3		 ret	 0
?_Myptr@?$basic_string@DU?$char_traits@D@std@@V?$allocator@D@2@@std@@QAEPADXZ ENDP ; std::basic_string<char,std::char_traits<char>,std::allocator<char> >::_Myptr
; Function compile flags: /Odtp /ZI
; File d:\microsoft visual studio 10.0\vc\include\xmemory
_TEXT	ENDS
;	COMDAT ?deallocate@?$allocator@D@std@@QAEXPADI@Z
_TEXT	SEGMENT
_this$ = -4						; size = 4
__Ptr$ = 8						; size = 4
___formal$ = 12						; size = 4
?deallocate@?$allocator@D@std@@QAEXPADI@Z PROC		; std::allocator<char>::deallocate, COMDAT
; _this$ = ecx

; 181  : 		{	// deallocate object at _Ptr, ignore size

  00000	55		 push	 ebp
  00001	8b ec		 mov	 ebp, esp
  00003	83 ec 44	 sub	 esp, 68			; 00000044H
  00006	53		 push	 ebx
  00007	56		 push	 esi
  00008	57		 push	 edi
  00009	89 4d fc	 mov	 DWORD PTR _this$[ebp], ecx

; 182  : 		::operator delete(_Ptr);

  0000c	8b 45 08	 mov	 eax, DWORD PTR __Ptr$[ebp]
  0000f	50		 push	 eax
  00010	e8 00 00 00 00	 call	 ??3@YAXPAX@Z		; operator delete
  00015	83 c4 04	 add	 esp, 4

; 183  : 		}

  00018	5f		 pop	 edi
  00019	5e		 pop	 esi
  0001a	5b		 pop	 ebx
  0001b	8b e5		 mov	 esp, ebp
  0001d	5d		 pop	 ebp
  0001e	c2 08 00	 ret	 8
?deallocate@?$allocator@D@std@@QAEXPADI@Z ENDP		; std::allocator<char>::deallocate
_TEXT	ENDS
;	COMDAT xdata$x
; File d:\microsoft visual studio 10.0\vc\include\ostream
xdata$x	SEGMENT
__catchsym$?_Osfx@?$basic_ostream@DU?$char_traits@D@std@@@std@@QAEXXZ$2 DD 040H
	DD	00H
	DD	00H
	DD	FLAT:__catch$?_Osfx@?$basic_ostream@DU?$char_traits@D@std@@@std@@QAEXXZ$0
__unwindtable$?_Osfx@?$basic_ostream@DU?$char_traits@D@std@@@std@@QAEXXZ DD 0ffffffffH
	DD	00H
	DD	0ffffffffH
	DD	00H
__tryblocktable$?_Osfx@?$basic_ostream@DU?$char_traits@D@std@@@std@@QAEXXZ DD 00H
	DD	00H
	DD	01H
	DD	01H
	DD	FLAT:__catchsym$?_Osfx@?$basic_ostream@DU?$char_traits@D@std@@@std@@QAEXXZ$2
__ehfuncinfo$?_Osfx@?$basic_ostream@DU?$char_traits@D@std@@@std@@QAEXXZ DD 019930522H
	DD	02H
	DD	FLAT:__unwindtable$?_Osfx@?$basic_ostream@DU?$char_traits@D@std@@@std@@QAEXXZ
	DD	01H
	DD	FLAT:__tryblocktable$?_Osfx@?$basic_ostream@DU?$char_traits@D@std@@@std@@QAEXXZ
	DD	2 DUP(00H)
	DD	00H
	DD	01H
; Function compile flags: /Odtp /ZI
xdata$x	ENDS
;	COMDAT ?_Osfx@?$basic_ostream@DU?$char_traits@D@std@@@std@@QAEXXZ
_TEXT	SEGMENT
tv79 = -88						; size = 4
_this$ = -20						; size = 4
__$EHRec$ = -16						; size = 16
?_Osfx@?$basic_ostream@DU?$char_traits@D@std@@@std@@QAEXXZ PROC ; std::basic_ostream<char,std::char_traits<char> >::_Osfx, COMDAT
; _this$ = ecx

; 156  : 		{	// perform any wrapup

  00000	55		 push	 ebp
  00001	8b ec		 mov	 ebp, esp
  00003	6a ff		 push	 -1
  00005	68 00 00 00 00	 push	 __ehhandler$?_Osfx@?$basic_ostream@DU?$char_traits@D@std@@@std@@QAEXXZ
  0000a	64 a1 00 00 00
	00		 mov	 eax, DWORD PTR fs:0
  00010	50		 push	 eax
  00011	51		 push	 ecx
  00012	83 ec 48	 sub	 esp, 72			; 00000048H
  00015	53		 push	 ebx
  00016	56		 push	 esi
  00017	57		 push	 edi
  00018	a1 00 00 00 00	 mov	 eax, DWORD PTR ___security_cookie
  0001d	33 c5		 xor	 eax, ebp
  0001f	50		 push	 eax
  00020	8d 45 f4	 lea	 eax, DWORD PTR __$EHRec$[ebp+4]
  00023	64 a3 00 00 00
	00		 mov	 DWORD PTR fs:0, eax
  00029	89 65 f0	 mov	 DWORD PTR __$EHRec$[ebp], esp
  0002c	89 4d ec	 mov	 DWORD PTR _this$[ebp], ecx

; 157  : 		_TRY_BEGIN

  0002f	c7 45 fc 00 00
	00 00		 mov	 DWORD PTR __$EHRec$[ebp+12], 0

; 158  : 		if (ios_base::flags() & ios_base::unitbuf)

  00036	8b 45 ec	 mov	 eax, DWORD PTR _this$[ebp]
  00039	8b 08		 mov	 ecx, DWORD PTR [eax]
  0003b	8b 55 ec	 mov	 edx, DWORD PTR _this$[ebp]
  0003e	03 51 04	 add	 edx, DWORD PTR [ecx+4]
  00041	8b ca		 mov	 ecx, edx
  00043	e8 00 00 00 00	 call	 ?flags@ios_base@std@@QBEHXZ ; std::ios_base::flags
  00048	89 45 a8	 mov	 DWORD PTR tv79[ebp], eax
  0004b	8b 45 a8	 mov	 eax, DWORD PTR tv79[ebp]
  0004e	83 e0 02	 and	 eax, 2
  00051	74 08		 je	 SHORT $LN1@Osfx

; 159  : 			flush();	// flush stream as needed

  00053	8b 4d ec	 mov	 ecx, DWORD PTR _this$[ebp]
  00056	e8 00 00 00 00	 call	 ?flush@?$basic_ostream@DU?$char_traits@D@std@@@std@@QAEAAV12@XZ ; std::basic_ostream<char,std::char_traits<char> >::flush
$LN1@Osfx:
  0005b	eb 0d		 jmp	 SHORT $LN5@Osfx
__catch$?_Osfx@?$basic_ostream@DU?$char_traits@D@std@@@std@@QAEXXZ$0:

; 160  : 		_CATCH_ALL
; 161  : 		_CATCH_END

  0005d	c7 45 fc ff ff
	ff ff		 mov	 DWORD PTR __$EHRec$[ebp+12], -1
  00064	b8 00 00 00 00	 mov	 eax, $LN3@Osfx
  00069	c3		 ret	 0
$LN5@Osfx:
  0006a	c7 45 fc ff ff
	ff ff		 mov	 DWORD PTR __$EHRec$[ebp+12], -1
$LN3@Osfx:

; 162  : 		}

  00071	8b 4d f4	 mov	 ecx, DWORD PTR __$EHRec$[ebp+4]
  00074	64 89 0d 00 00
	00 00		 mov	 DWORD PTR fs:0, ecx
  0007b	59		 pop	 ecx
  0007c	5f		 pop	 edi
  0007d	5e		 pop	 esi
  0007e	5b		 pop	 ebx
  0007f	8b e5		 mov	 esp, ebp
  00081	5d		 pop	 ebp
  00082	c3		 ret	 0
_TEXT	ENDS
;	COMDAT text$x
text$x	SEGMENT
__ehhandler$?_Osfx@?$basic_ostream@DU?$char_traits@D@std@@@std@@QAEXXZ:
  00000	8b 54 24 08	 mov	 edx, DWORD PTR [esp+8]
  00004	8d 42 0c	 lea	 eax, DWORD PTR [edx+12]
  00007	8b 4a a4	 mov	 ecx, DWORD PTR [edx-92]
  0000a	33 c8		 xor	 ecx, eax
  0000c	e8 00 00 00 00	 call	 @__security_check_cookie@4
  00011	b8 00 00 00 00	 mov	 eax, OFFSET __ehfuncinfo$?_Osfx@?$basic_ostream@DU?$char_traits@D@std@@@std@@QAEXXZ
  00016	e9 00 00 00 00	 jmp	 ___CxxFrameHandler3
text$x	ENDS
?_Osfx@?$basic_ostream@DU?$char_traits@D@std@@@std@@QAEXXZ ENDP ; std::basic_ostream<char,std::char_traits<char> >::_Osfx
; Function compile flags: /Odtp /ZI
; File d:\microsoft visual studio 10.0\vc\include\ios
;	COMDAT ?tie@?$basic_ios@DU?$char_traits@D@std@@@std@@QBEPAV?$basic_ostream@DU?$char_traits@D@std@@@2@XZ
_TEXT	SEGMENT
_this$ = -4						; size = 4
?tie@?$basic_ios@DU?$char_traits@D@std@@@std@@QBEPAV?$basic_ostream@DU?$char_traits@D@std@@@2@XZ PROC ; std::basic_ios<char,std::char_traits<char> >::tie, COMDAT
; _this$ = ecx

; 73   : 		{	// return tie pointer

  00000	55		 push	 ebp
  00001	8b ec		 mov	 ebp, esp
  00003	83 ec 44	 sub	 esp, 68			; 00000044H
  00006	53		 push	 ebx
  00007	56		 push	 esi
  00008	57		 push	 edi
  00009	89 4d fc	 mov	 DWORD PTR _this$[ebp], ecx

; 74   : 		return (_Tiestr);

  0000c	8b 45 fc	 mov	 eax, DWORD PTR _this$[ebp]
  0000f	8b 40 3c	 mov	 eax, DWORD PTR [eax+60]

; 75   : 		}

  00012	5f		 pop	 edi
  00013	5e		 pop	 esi
  00014	5b		 pop	 ebx
  00015	8b e5		 mov	 esp, ebp
  00017	5d		 pop	 ebp
  00018	c3		 ret	 0
?tie@?$basic_ios@DU?$char_traits@D@std@@@std@@QBEPAV?$basic_ostream@DU?$char_traits@D@std@@@2@XZ ENDP ; std::basic_ios<char,std::char_traits<char> >::tie
; Function compile flags: /Odtp /ZI
; File d:\microsoft visual studio 10.0\vc\include\streambuf
_TEXT	ENDS
;	COMDAT ?_Pninc@?$basic_streambuf@DU?$char_traits@D@std@@@std@@IAEPADXZ
_TEXT	SEGMENT
tv76 = -72						; size = 4
_this$ = -4						; size = 4
?_Pninc@?$basic_streambuf@DU?$char_traits@D@std@@@std@@IAEPADXZ PROC ; std::basic_streambuf<char,std::char_traits<char> >::_Pninc, COMDAT
; _this$ = ecx

; 303  : 		{	// increment current position in write buffer

  00000	55		 push	 ebp
  00001	8b ec		 mov	 ebp, esp
  00003	83 ec 48	 sub	 esp, 72			; 00000048H
  00006	53		 push	 ebx
  00007	56		 push	 esi
  00008	57		 push	 edi
  00009	89 4d fc	 mov	 DWORD PTR _this$[ebp], ecx

; 304  : 		--*_IPcount;

  0000c	8b 45 fc	 mov	 eax, DWORD PTR _this$[ebp]
  0000f	8b 48 34	 mov	 ecx, DWORD PTR [eax+52]
  00012	8b 11		 mov	 edx, DWORD PTR [ecx]
  00014	83 ea 01	 sub	 edx, 1
  00017	8b 45 fc	 mov	 eax, DWORD PTR _this$[ebp]
  0001a	8b 48 34	 mov	 ecx, DWORD PTR [eax+52]
  0001d	89 11		 mov	 DWORD PTR [ecx], edx

; 305  : 		return ((*_IPnext)++);

  0001f	8b 45 fc	 mov	 eax, DWORD PTR _this$[ebp]
  00022	8b 48 24	 mov	 ecx, DWORD PTR [eax+36]
  00025	8b 11		 mov	 edx, DWORD PTR [ecx]
  00027	89 55 b8	 mov	 DWORD PTR tv76[ebp], edx
  0002a	8b 45 fc	 mov	 eax, DWORD PTR _this$[ebp]
  0002d	8b 48 24	 mov	 ecx, DWORD PTR [eax+36]
  00030	8b 11		 mov	 edx, DWORD PTR [ecx]
  00032	83 c2 01	 add	 edx, 1
  00035	8b 45 fc	 mov	 eax, DWORD PTR _this$[ebp]
  00038	8b 48 24	 mov	 ecx, DWORD PTR [eax+36]
  0003b	89 11		 mov	 DWORD PTR [ecx], edx
  0003d	8b 45 b8	 mov	 eax, DWORD PTR tv76[ebp]

; 306  : 		}

  00040	5f		 pop	 edi
  00041	5e		 pop	 esi
  00042	5b		 pop	 ebx
  00043	8b e5		 mov	 esp, ebp
  00045	5d		 pop	 ebp
  00046	c3		 ret	 0
?_Pninc@?$basic_streambuf@DU?$char_traits@D@std@@@std@@IAEPADXZ ENDP ; std::basic_streambuf<char,std::char_traits<char> >::_Pninc
_TEXT	ENDS
PUBLIC	??0?$_String_const_iterator@DU?$char_traits@D@std@@V?$allocator@D@2@@std@@QAE@PBDPBU_Container_base0@1@@Z ; std::_String_const_iterator<char,std::char_traits<char>,std::allocator<char> >::_String_const_iterator<char,std::char_traits<char>,std::allocator<char> >
; Function compile flags: /Odtp /ZI
; File d:\microsoft visual studio 10.0\vc\include\xstring
;	COMDAT ??0?$_String_iterator@DU?$char_traits@D@std@@V?$allocator@D@2@@std@@QAE@PADPBU_Container_base0@1@@Z
_TEXT	SEGMENT
_this$ = -4						; size = 4
__Parg$ = 8						; size = 4
__Pstring$ = 12						; size = 4
??0?$_String_iterator@DU?$char_traits@D@std@@V?$allocator@D@2@@std@@QAE@PADPBU_Container_base0@1@@Z PROC ; std::_String_iterator<char,std::char_traits<char>,std::allocator<char> >::_String_iterator<char,std::char_traits<char>,std::allocator<char> >, COMDAT
; _this$ = ecx

; 325  : 		{	// construct with pointer _Parg

  00000	55		 push	 ebp
  00001	8b ec		 mov	 ebp, esp
  00003	83 ec 44	 sub	 esp, 68			; 00000044H
  00006	53		 push	 ebx
  00007	56		 push	 esi
  00008	57		 push	 edi
  00009	89 4d fc	 mov	 DWORD PTR _this$[ebp], ecx
  0000c	8b 45 0c	 mov	 eax, DWORD PTR __Pstring$[ebp]
  0000f	50		 push	 eax
  00010	8b 4d 08	 mov	 ecx, DWORD PTR __Parg$[ebp]
  00013	51		 push	 ecx
  00014	8b 4d fc	 mov	 ecx, DWORD PTR _this$[ebp]
  00017	e8 00 00 00 00	 call	 ??0?$_String_const_iterator@DU?$char_traits@D@std@@V?$allocator@D@2@@std@@QAE@PBDPBU_Container_base0@1@@Z ; std::_String_const_iterator<char,std::char_traits<char>,std::allocator<char> >::_String_const_iterator<char,std::char_traits<char>,std::allocator<char> >

; 326  : 		}

  0001c	8b 45 fc	 mov	 eax, DWORD PTR _this$[ebp]
  0001f	5f		 pop	 edi
  00020	5e		 pop	 esi
  00021	5b		 pop	 ebx
  00022	8b e5		 mov	 esp, ebp
  00024	5d		 pop	 ebp
  00025	c2 08 00	 ret	 8
??0?$_String_iterator@DU?$char_traits@D@std@@V?$allocator@D@2@@std@@QAE@PADPBU_Container_base0@1@@Z ENDP ; std::_String_iterator<char,std::char_traits<char>,std::allocator<char> >::_String_iterator<char,std::char_traits<char>,std::allocator<char> >
; Function compile flags: /Odtp /ZI
; File d:\microsoft visual studio 10.0\vc\include\ostream
_TEXT	ENDS
;	COMDAT ??0_Sentry_base@?$basic_ostream@DU?$char_traits@D@std@@@std@@QAE@AAV12@@Z
_TEXT	SEGMENT
tv90 = -72						; size = 4
_this$ = -4						; size = 4
__Ostr$ = 8						; size = 4
??0_Sentry_base@?$basic_ostream@DU?$char_traits@D@std@@@std@@QAE@AAV12@@Z PROC ; std::basic_ostream<char,std::char_traits<char> >::_Sentry_base::_Sentry_base, COMDAT
; _this$ = ecx

; 91   : 			{	// lock the stream buffer, if there

  00000	55		 push	 ebp
  00001	8b ec		 mov	 ebp, esp
  00003	83 ec 48	 sub	 esp, 72			; 00000048H
  00006	53		 push	 ebx
  00007	56		 push	 esi
  00008	57		 push	 edi
  00009	89 4d fc	 mov	 DWORD PTR _this$[ebp], ecx
  0000c	8b 45 fc	 mov	 eax, DWORD PTR _this$[ebp]
  0000f	8b 4d 08	 mov	 ecx, DWORD PTR __Ostr$[ebp]
  00012	89 08		 mov	 DWORD PTR [eax], ecx

; 92   : 			if (_Myostr.rdbuf() != 0)

  00014	8b 45 fc	 mov	 eax, DWORD PTR _this$[ebp]
  00017	8b 08		 mov	 ecx, DWORD PTR [eax]
  00019	8b 11		 mov	 edx, DWORD PTR [ecx]
  0001b	8b 45 fc	 mov	 eax, DWORD PTR _this$[ebp]
  0001e	8b 08		 mov	 ecx, DWORD PTR [eax]
  00020	03 4a 04	 add	 ecx, DWORD PTR [edx+4]
  00023	e8 00 00 00 00	 call	 ?rdbuf@?$basic_ios@DU?$char_traits@D@std@@@std@@QBEPAV?$basic_streambuf@DU?$char_traits@D@std@@@2@XZ ; std::basic_ios<char,std::char_traits<char> >::rdbuf
  00028	85 c0		 test	 eax, eax
  0002a	74 24		 je	 SHORT $LN2@Sentry_bas

; 93   : 				_Myostr.rdbuf()->_Lock();

  0002c	8b 45 fc	 mov	 eax, DWORD PTR _this$[ebp]
  0002f	8b 08		 mov	 ecx, DWORD PTR [eax]
  00031	8b 11		 mov	 edx, DWORD PTR [ecx]
  00033	8b 45 fc	 mov	 eax, DWORD PTR _this$[ebp]
  00036	8b 08		 mov	 ecx, DWORD PTR [eax]
  00038	03 4a 04	 add	 ecx, DWORD PTR [edx+4]
  0003b	e8 00 00 00 00	 call	 ?rdbuf@?$basic_ios@DU?$char_traits@D@std@@@std@@QBEPAV?$basic_streambuf@DU?$char_traits@D@std@@@2@XZ ; std::basic_ios<char,std::char_traits<char> >::rdbuf
  00040	89 45 b8	 mov	 DWORD PTR tv90[ebp], eax
  00043	8b 4d b8	 mov	 ecx, DWORD PTR tv90[ebp]
  00046	8b 11		 mov	 edx, DWORD PTR [ecx]
  00048	8b 4d b8	 mov	 ecx, DWORD PTR tv90[ebp]
  0004b	8b 42 04	 mov	 eax, DWORD PTR [edx+4]
  0004e	ff d0		 call	 eax
$LN2@Sentry_bas:

; 94   : 			}

  00050	8b 45 fc	 mov	 eax, DWORD PTR _this$[ebp]
  00053	5f		 pop	 edi
  00054	5e		 pop	 esi
  00055	5b		 pop	 ebx
  00056	8b e5		 mov	 esp, ebp
  00058	5d		 pop	 ebp
  00059	c2 04 00	 ret	 4
??0_Sentry_base@?$basic_ostream@DU?$char_traits@D@std@@@std@@QAE@AAV12@@Z ENDP ; std::basic_ostream<char,std::char_traits<char> >::_Sentry_base::_Sentry_base
; Function compile flags: /Odtp /ZI
_TEXT	ENDS
;	COMDAT ??1_Sentry_base@?$basic_ostream@DU?$char_traits@D@std@@@std@@QAE@XZ
_TEXT	SEGMENT
tv90 = -72						; size = 4
_this$ = -4						; size = 4
??1_Sentry_base@?$basic_ostream@DU?$char_traits@D@std@@@std@@QAE@XZ PROC ; std::basic_ostream<char,std::char_traits<char> >::_Sentry_base::~_Sentry_base, COMDAT
; _this$ = ecx

; 97   : 			{	// destroy after unlocking

  00000	55		 push	 ebp
  00001	8b ec		 mov	 ebp, esp
  00003	83 ec 48	 sub	 esp, 72			; 00000048H
  00006	53		 push	 ebx
  00007	56		 push	 esi
  00008	57		 push	 edi
  00009	89 4d fc	 mov	 DWORD PTR _this$[ebp], ecx

; 98   : 			if (_Myostr.rdbuf() != 0)

  0000c	8b 45 fc	 mov	 eax, DWORD PTR _this$[ebp]
  0000f	8b 08		 mov	 ecx, DWORD PTR [eax]
  00011	8b 11		 mov	 edx, DWORD PTR [ecx]
  00013	8b 45 fc	 mov	 eax, DWORD PTR _this$[ebp]
  00016	8b 08		 mov	 ecx, DWORD PTR [eax]
  00018	03 4a 04	 add	 ecx, DWORD PTR [edx+4]
  0001b	e8 00 00 00 00	 call	 ?rdbuf@?$basic_ios@DU?$char_traits@D@std@@@std@@QBEPAV?$basic_streambuf@DU?$char_traits@D@std@@@2@XZ ; std::basic_ios<char,std::char_traits<char> >::rdbuf
  00020	85 c0		 test	 eax, eax
  00022	74 24		 je	 SHORT $LN2@Sentry_bas@2

; 99   : 				_Myostr.rdbuf()->_Unlock();

  00024	8b 45 fc	 mov	 eax, DWORD PTR _this$[ebp]
  00027	8b 08		 mov	 ecx, DWORD PTR [eax]
  00029	8b 11		 mov	 edx, DWORD PTR [ecx]
  0002b	8b 45 fc	 mov	 eax, DWORD PTR _this$[ebp]
  0002e	8b 08		 mov	 ecx, DWORD PTR [eax]
  00030	03 4a 04	 add	 ecx, DWORD PTR [edx+4]
  00033	e8 00 00 00 00	 call	 ?rdbuf@?$basic_ios@DU?$char_traits@D@std@@@std@@QBEPAV?$basic_streambuf@DU?$char_traits@D@std@@@2@XZ ; std::basic_ios<char,std::char_traits<char> >::rdbuf
  00038	89 45 b8	 mov	 DWORD PTR tv90[ebp], eax
  0003b	8b 4d b8	 mov	 ecx, DWORD PTR tv90[ebp]
  0003e	8b 11		 mov	 edx, DWORD PTR [ecx]
  00040	8b 4d b8	 mov	 ecx, DWORD PTR tv90[ebp]
  00043	8b 42 08	 mov	 eax, DWORD PTR [edx+8]
  00046	ff d0		 call	 eax
$LN2@Sentry_bas@2:

; 100  : 			}

  00048	5f		 pop	 edi
  00049	5e		 pop	 esi
  0004a	5b		 pop	 ebx
  0004b	8b e5		 mov	 esp, ebp
  0004d	5d		 pop	 ebp
  0004e	c3		 ret	 0
??1_Sentry_base@?$basic_ostream@DU?$char_traits@D@std@@@std@@QAE@XZ ENDP ; std::basic_ostream<char,std::char_traits<char> >::_Sentry_base::~_Sentry_base
_TEXT	ENDS
PUBLIC	?assign@?$char_traits@D@std@@SAPADPADID@Z	; std::char_traits<char>::assign
; Function compile flags: /Odtp /ZI
; File d:\microsoft visual studio 10.0\vc\include\xstring
;	COMDAT ?_Chassign@?$basic_string@DU?$char_traits@D@std@@V?$allocator@D@2@@std@@QAEXIID@Z
_TEXT	SEGMENT
_this$ = -4						; size = 4
__Off$ = 8						; size = 4
__Count$ = 12						; size = 4
__Ch$ = 16						; size = 1
?_Chassign@?$basic_string@DU?$char_traits@D@std@@V?$allocator@D@2@@std@@QAEXIID@Z PROC ; std::basic_string<char,std::char_traits<char>,std::allocator<char> >::_Chassign, COMDAT
; _this$ = ecx

; 1910 : 		{	// assign _Count copies of _Ch beginning at _Off

  00000	55		 push	 ebp
  00001	8b ec		 mov	 ebp, esp
  00003	83 ec 44	 sub	 esp, 68			; 00000044H
  00006	53		 push	 ebx
  00007	56		 push	 esi
  00008	57		 push	 edi
  00009	89 4d fc	 mov	 DWORD PTR _this$[ebp], ecx

; 1911 : 		if (_Count == 1)

  0000c	83 7d 0c 01	 cmp	 DWORD PTR __Count$[ebp], 1
  00010	75 1a		 jne	 SHORT $LN2@Chassign

; 1912 : 			_Traits::assign(*(_Myptr() + _Off), _Ch);

  00012	8d 45 10	 lea	 eax, DWORD PTR __Ch$[ebp]
  00015	50		 push	 eax
  00016	8b 4d fc	 mov	 ecx, DWORD PTR _this$[ebp]
  00019	e8 00 00 00 00	 call	 ?_Myptr@?$basic_string@DU?$char_traits@D@std@@V?$allocator@D@2@@std@@QAEPADXZ ; std::basic_string<char,std::char_traits<char>,std::allocator<char> >::_Myptr
  0001e	03 45 08	 add	 eax, DWORD PTR __Off$[ebp]
  00021	50		 push	 eax
  00022	e8 00 00 00 00	 call	 ?assign@?$char_traits@D@std@@SAXAADABD@Z ; std::char_traits<char>::assign
  00027	83 c4 08	 add	 esp, 8

; 1913 : 		else

  0002a	eb 1d		 jmp	 SHORT $LN3@Chassign
$LN2@Chassign:

; 1914 : 			_Traits::assign(_Myptr() + _Off, _Count, _Ch);

  0002c	0f b6 45 10	 movzx	 eax, BYTE PTR __Ch$[ebp]
  00030	50		 push	 eax
  00031	8b 4d 0c	 mov	 ecx, DWORD PTR __Count$[ebp]
  00034	51		 push	 ecx
  00035	8b 4d fc	 mov	 ecx, DWORD PTR _this$[ebp]
  00038	e8 00 00 00 00	 call	 ?_Myptr@?$basic_string@DU?$char_traits@D@std@@V?$allocator@D@2@@std@@QAEPADXZ ; std::basic_string<char,std::char_traits<char>,std::allocator<char> >::_Myptr
  0003d	03 45 08	 add	 eax, DWORD PTR __Off$[ebp]
  00040	50		 push	 eax
  00041	e8 00 00 00 00	 call	 ?assign@?$char_traits@D@std@@SAPADPADID@Z ; std::char_traits<char>::assign
  00046	83 c4 0c	 add	 esp, 12			; 0000000cH
$LN3@Chassign:

; 1915 : 		}

  00049	5f		 pop	 edi
  0004a	5e		 pop	 esi
  0004b	5b		 pop	 ebx
  0004c	8b e5		 mov	 esp, ebp
  0004e	5d		 pop	 ebp
  0004f	c2 0c 00	 ret	 12			; 0000000cH
?_Chassign@?$basic_string@DU?$char_traits@D@std@@V?$allocator@D@2@@std@@QAEXIID@Z ENDP ; std::basic_string<char,std::char_traits<char>,std::allocator<char> >::_Chassign
; Function compile flags: /Odtp /ZI
; File d:\microsoft visual studio 10.0\vc\include\iosfwd
_TEXT	ENDS
;	COMDAT ?assign@?$char_traits@D@std@@SAPADPADID@Z
_TEXT	SEGMENT
__First$ = 8						; size = 4
__Count$ = 12						; size = 4
__Ch$ = 16						; size = 1
?assign@?$char_traits@D@std@@SAPADPADID@Z PROC		; std::char_traits<char>::assign, COMDAT

; 521  : 		{	// assign _Count * _Ch to [_First, ...)

  00000	55		 push	 ebp
  00001	8b ec		 mov	 ebp, esp
  00003	83 ec 40	 sub	 esp, 64			; 00000040H
  00006	53		 push	 ebx
  00007	56		 push	 esi
  00008	57		 push	 edi

; 522  : 		return ((_Elem *)_CSTD memset(_First, _Ch, _Count));

  00009	8b 45 0c	 mov	 eax, DWORD PTR __Count$[ebp]
  0000c	50		 push	 eax
  0000d	0f be 4d 10	 movsx	 ecx, BYTE PTR __Ch$[ebp]
  00011	51		 push	 ecx
  00012	8b 55 08	 mov	 edx, DWORD PTR __First$[ebp]
  00015	52		 push	 edx
  00016	e8 00 00 00 00	 call	 _memset
  0001b	83 c4 0c	 add	 esp, 12			; 0000000cH

; 523  : 		}

  0001e	5f		 pop	 edi
  0001f	5e		 pop	 esi
  00020	5b		 pop	 ebx
  00021	8b e5		 mov	 esp, ebp
  00023	5d		 pop	 ebp
  00024	c3		 ret	 0
?assign@?$char_traits@D@std@@SAPADPADID@Z ENDP		; std::char_traits<char>::assign
_TEXT	ENDS
PUBLIC	?_Copy@?$basic_string@DU?$char_traits@D@std@@V?$allocator@D@2@@std@@QAEXII@Z ; std::basic_string<char,std::char_traits<char>,std::allocator<char> >::_Copy
PUBLIC	?max_size@?$basic_string@DU?$char_traits@D@std@@V?$allocator@D@2@@std@@QBEIXZ ; std::basic_string<char,std::char_traits<char>,std::allocator<char> >::max_size
; Function compile flags: /Odtp /ZI
; File d:\microsoft visual studio 10.0\vc\include\xstring
;	COMDAT ?_Grow@?$basic_string@DU?$char_traits@D@std@@V?$allocator@D@2@@std@@QAE_NI_N@Z
_TEXT	SEGMENT
tv129 = -72						; size = 4
_this$ = -4						; size = 4
__Newsize$ = 8						; size = 4
__Trim$ = 12						; size = 1
?_Grow@?$basic_string@DU?$char_traits@D@std@@V?$allocator@D@2@@std@@QAE_NI_N@Z PROC ; std::basic_string<char,std::char_traits<char>,std::allocator<char> >::_Grow, COMDAT
; _this$ = ecx

; 1958 : 		{	// ensure buffer is big enough, trim to size if _Trim is true

  00000	55		 push	 ebp
  00001	8b ec		 mov	 ebp, esp
  00003	83 ec 48	 sub	 esp, 72			; 00000048H
  00006	53		 push	 ebx
  00007	56		 push	 esi
  00008	57		 push	 edi
  00009	89 4d fc	 mov	 DWORD PTR _this$[ebp], ecx

; 1959 : 		if (max_size() < _Newsize)

  0000c	8b 4d fc	 mov	 ecx, DWORD PTR _this$[ebp]
  0000f	e8 00 00 00 00	 call	 ?max_size@?$basic_string@DU?$char_traits@D@std@@V?$allocator@D@2@@std@@QBEIXZ ; std::basic_string<char,std::char_traits<char>,std::allocator<char> >::max_size
  00014	3b 45 08	 cmp	 eax, DWORD PTR __Newsize$[ebp]
  00017	73 08		 jae	 SHORT $LN6@Grow

; 1960 : 			_Xlen();	// result too long

  00019	8b 4d fc	 mov	 ecx, DWORD PTR _this$[ebp]
  0001c	e8 00 00 00 00	 call	 ?_Xlen@?$basic_string@DU?$char_traits@D@std@@V?$allocator@D@2@@std@@QBEXXZ ; std::basic_string<char,std::char_traits<char>,std::allocator<char> >::_Xlen
$LN6@Grow:

; 1961 : 		if (this->_Myres < _Newsize)

  00021	8b 45 fc	 mov	 eax, DWORD PTR _this$[ebp]
  00024	8b 48 14	 mov	 ecx, DWORD PTR [eax+20]
  00027	3b 4d 08	 cmp	 ecx, DWORD PTR __Newsize$[ebp]
  0002a	73 15		 jae	 SHORT $LN5@Grow

; 1962 : 			_Copy(_Newsize, this->_Mysize);	// reallocate to grow

  0002c	8b 45 fc	 mov	 eax, DWORD PTR _this$[ebp]
  0002f	8b 48 10	 mov	 ecx, DWORD PTR [eax+16]
  00032	51		 push	 ecx
  00033	8b 55 08	 mov	 edx, DWORD PTR __Newsize$[ebp]
  00036	52		 push	 edx
  00037	8b 4d fc	 mov	 ecx, DWORD PTR _this$[ebp]
  0003a	e8 00 00 00 00	 call	 ?_Copy@?$basic_string@DU?$char_traits@D@std@@V?$allocator@D@2@@std@@QAEXII@Z ; std::basic_string<char,std::char_traits<char>,std::allocator<char> >::_Copy
  0003f	eb 4a		 jmp	 SHORT $LN4@Grow
$LN5@Grow:

; 1963 : 		else if (_Trim && _Newsize < this->_BUF_SIZE)

  00041	0f b6 45 0c	 movzx	 eax, BYTE PTR __Trim$[ebp]
  00045	85 c0		 test	 eax, eax
  00047	74 32		 je	 SHORT $LN3@Grow
  00049	83 7d 08 10	 cmp	 DWORD PTR __Newsize$[ebp], 16 ; 00000010H
  0004d	73 2c		 jae	 SHORT $LN3@Grow

; 1964 : 			_Tidy(true,	// copy and deallocate if trimming to small string
; 1965 : 				_Newsize < this->_Mysize ? _Newsize : this->_Mysize);

  0004f	8b 45 fc	 mov	 eax, DWORD PTR _this$[ebp]
  00052	8b 4d 08	 mov	 ecx, DWORD PTR __Newsize$[ebp]
  00055	3b 48 10	 cmp	 ecx, DWORD PTR [eax+16]
  00058	73 08		 jae	 SHORT $LN9@Grow
  0005a	8b 55 08	 mov	 edx, DWORD PTR __Newsize$[ebp]
  0005d	89 55 b8	 mov	 DWORD PTR tv129[ebp], edx
  00060	eb 09		 jmp	 SHORT $LN10@Grow
$LN9@Grow:
  00062	8b 45 fc	 mov	 eax, DWORD PTR _this$[ebp]
  00065	8b 48 10	 mov	 ecx, DWORD PTR [eax+16]
  00068	89 4d b8	 mov	 DWORD PTR tv129[ebp], ecx
$LN10@Grow:
  0006b	8b 55 b8	 mov	 edx, DWORD PTR tv129[ebp]
  0006e	52		 push	 edx
  0006f	6a 01		 push	 1
  00071	8b 4d fc	 mov	 ecx, DWORD PTR _this$[ebp]
  00074	e8 00 00 00 00	 call	 ?_Tidy@?$basic_string@DU?$char_traits@D@std@@V?$allocator@D@2@@std@@QAEX_NI@Z ; std::basic_string<char,std::char_traits<char>,std::allocator<char> >::_Tidy
  00079	eb 10		 jmp	 SHORT $LN4@Grow
$LN3@Grow:

; 1966 : 		else if (_Newsize == 0)

  0007b	83 7d 08 00	 cmp	 DWORD PTR __Newsize$[ebp], 0
  0007f	75 0a		 jne	 SHORT $LN4@Grow

; 1967 : 			_Eos(0);	// new size is zero, just null terminate

  00081	6a 00		 push	 0
  00083	8b 4d fc	 mov	 ecx, DWORD PTR _this$[ebp]
  00086	e8 00 00 00 00	 call	 ?_Eos@?$basic_string@DU?$char_traits@D@std@@V?$allocator@D@2@@std@@QAEXI@Z ; std::basic_string<char,std::char_traits<char>,std::allocator<char> >::_Eos
$LN4@Grow:

; 1968 : 		return (0 < _Newsize);	// return true only if more work to do

  0008b	33 c0		 xor	 eax, eax
  0008d	3b 45 08	 cmp	 eax, DWORD PTR __Newsize$[ebp]
  00090	1b c0		 sbb	 eax, eax
  00092	f7 d8		 neg	 eax
$LN8@Grow:

; 1969 : 		}

  00094	5f		 pop	 edi
  00095	5e		 pop	 esi
  00096	5b		 pop	 ebx
  00097	8b e5		 mov	 esp, ebp
  00099	5d		 pop	 ebp
  0009a	c2 08 00	 ret	 8
?_Grow@?$basic_string@DU?$char_traits@D@std@@V?$allocator@D@2@@std@@QAE_NI_N@Z ENDP ; std::basic_string<char,std::char_traits<char>,std::allocator<char> >::_Grow
_TEXT	ENDS
PUBLIC	??_C@_0BA@JFNIOLAK@string?5too?5long?$AA@	; `string'
EXTRN	?_Xlength_error@std@@YAXPBD@Z:PROC		; std::_Xlength_error
;	COMDAT ??_C@_0BA@JFNIOLAK@string?5too?5long?$AA@
CONST	SEGMENT
??_C@_0BA@JFNIOLAK@string?5too?5long?$AA@ DB 'string too long', 00H ; `string'
; Function compile flags: /Odtp /ZI
CONST	ENDS
;	COMDAT ?_Xlen@?$basic_string@DU?$char_traits@D@std@@V?$allocator@D@2@@std@@QBEXXZ
_TEXT	SEGMENT
_this$ = -4						; size = 4
?_Xlen@?$basic_string@DU?$char_traits@D@std@@V?$allocator@D@2@@std@@QBEXXZ PROC ; std::basic_string<char,std::char_traits<char>,std::allocator<char> >::_Xlen, COMDAT
; _this$ = ecx

; 2014 : 		{	// report a length_error

  00000	55		 push	 ebp
  00001	8b ec		 mov	 ebp, esp
  00003	83 ec 44	 sub	 esp, 68			; 00000044H
  00006	53		 push	 ebx
  00007	56		 push	 esi
  00008	57		 push	 edi
  00009	89 4d fc	 mov	 DWORD PTR _this$[ebp], ecx

; 2015 : 		_Xlength_error("string too long");

  0000c	68 00 00 00 00	 push	 OFFSET ??_C@_0BA@JFNIOLAK@string?5too?5long?$AA@
  00011	e8 00 00 00 00	 call	 ?_Xlength_error@std@@YAXPBD@Z ; std::_Xlength_error
$LN2@Xlen:

; 2016 : 		}

  00016	5f		 pop	 edi
  00017	5e		 pop	 esi
  00018	5b		 pop	 ebx
  00019	8b e5		 mov	 esp, ebp
  0001b	5d		 pop	 ebp
  0001c	c3		 ret	 0
?_Xlen@?$basic_string@DU?$char_traits@D@std@@V?$allocator@D@2@@std@@QBEXXZ ENDP ; std::basic_string<char,std::char_traits<char>,std::allocator<char> >::_Xlen
_TEXT	ENDS
PUBLIC	?_Adopt@_Iterator_base0@std@@QAEXPBX@Z		; std::_Iterator_base0::_Adopt
; Function compile flags: /Odtp /ZI
;	COMDAT ??0?$_String_const_iterator@DU?$char_traits@D@std@@V?$allocator@D@2@@std@@QAE@PBDPBU_Container_base0@1@@Z
_TEXT	SEGMENT
_this$ = -4						; size = 4
__Parg$ = 8						; size = 4
__Pstring$ = 12						; size = 4
??0?$_String_const_iterator@DU?$char_traits@D@std@@V?$allocator@D@2@@std@@QAE@PBDPBU_Container_base0@1@@Z PROC ; std::_String_const_iterator<char,std::char_traits<char>,std::allocator<char> >::_String_const_iterator<char,std::char_traits<char>,std::allocator<char> >, COMDAT
; _this$ = ecx

; 50   : 	_String_const_iterator(pointer _Parg, const _Container_base *_Pstring)

  00000	55		 push	 ebp
  00001	8b ec		 mov	 ebp, esp
  00003	83 ec 44	 sub	 esp, 68			; 00000044H
  00006	53		 push	 ebx
  00007	56		 push	 esi
  00008	57		 push	 edi
  00009	89 4d fc	 mov	 DWORD PTR _this$[ebp], ecx

; 51   : 		{	// construct with pointer _Parg
; 52   : 		this->_Adopt(_Pstring);

  0000c	8b 45 0c	 mov	 eax, DWORD PTR __Pstring$[ebp]
  0000f	50		 push	 eax
  00010	8b 4d fc	 mov	 ecx, DWORD PTR _this$[ebp]
  00013	e8 00 00 00 00	 call	 ?_Adopt@_Iterator_base0@std@@QAEXPBX@Z ; std::_Iterator_base0::_Adopt

; 53   : 		this->_Ptr = _Parg;

  00018	8b 45 fc	 mov	 eax, DWORD PTR _this$[ebp]
  0001b	8b 4d 08	 mov	 ecx, DWORD PTR __Parg$[ebp]
  0001e	89 08		 mov	 DWORD PTR [eax], ecx

; 54   : 		}

  00020	8b 45 fc	 mov	 eax, DWORD PTR _this$[ebp]
  00023	5f		 pop	 edi
  00024	5e		 pop	 esi
  00025	5b		 pop	 ebx
  00026	8b e5		 mov	 esp, ebp
  00028	5d		 pop	 ebp
  00029	c2 08 00	 ret	 8
??0?$_String_const_iterator@DU?$char_traits@D@std@@V?$allocator@D@2@@std@@QAE@PBDPBU_Container_base0@1@@Z ENDP ; std::_String_const_iterator<char,std::char_traits<char>,std::allocator<char> >::_String_const_iterator<char,std::char_traits<char>,std::allocator<char> >
; Function compile flags: /Odtp /ZI
; File d:\microsoft visual studio 10.0\vc\include\xutility
_TEXT	ENDS
;	COMDAT ?_Adopt@_Iterator_base0@std@@QAEXPBX@Z
_TEXT	SEGMENT
_this$ = -4						; size = 4
___formal$ = 8						; size = 4
?_Adopt@_Iterator_base0@std@@QAEXPBX@Z PROC		; std::_Iterator_base0::_Adopt, COMDAT
; _this$ = ecx

; 48   : 		{	// adopt this iterator by parent

  00000	55		 push	 ebp
  00001	8b ec		 mov	 ebp, esp
  00003	83 ec 44	 sub	 esp, 68			; 00000044H
  00006	53		 push	 ebx
  00007	56		 push	 esi
  00008	57		 push	 edi
  00009	89 4d fc	 mov	 DWORD PTR _this$[ebp], ecx

; 49   : 		}

  0000c	5f		 pop	 edi
  0000d	5e		 pop	 esi
  0000e	5b		 pop	 ebx
  0000f	8b e5		 mov	 esp, ebp
  00011	5d		 pop	 ebp
  00012	c2 04 00	 ret	 4
?_Adopt@_Iterator_base0@std@@QAEXPBX@Z ENDP		; std::_Iterator_base0::_Adopt
_TEXT	ENDS
PUBLIC	?move@?$char_traits@D@std@@SAPADPADPBDI@Z	; std::char_traits<char>::move
PUBLIC	?_Xran@?$basic_string@DU?$char_traits@D@std@@V?$allocator@D@2@@std@@QBEXXZ ; std::basic_string<char,std::char_traits<char>,std::allocator<char> >::_Xran
; Function compile flags: /Odtp /ZI
; File d:\microsoft visual studio 10.0\vc\include\xstring
;	COMDAT ?erase@?$basic_string@DU?$char_traits@D@std@@V?$allocator@D@2@@std@@QAEAAV12@II@Z
_TEXT	SEGMENT
__Newsize$202635 = -8					; size = 4
_this$ = -4						; size = 4
__Off$ = 8						; size = 4
__Count$ = 12						; size = 4
?erase@?$basic_string@DU?$char_traits@D@std@@V?$allocator@D@2@@std@@QAEAAV12@II@Z PROC ; std::basic_string<char,std::char_traits<char>,std::allocator<char> >::erase, COMDAT
; _this$ = ecx

; 1108 : 		{	// erase elements [_Off, _Off + _Count)

  00000	55		 push	 ebp
  00001	8b ec		 mov	 ebp, esp
  00003	83 ec 48	 sub	 esp, 72			; 00000048H
  00006	53		 push	 ebx
  00007	56		 push	 esi
  00008	57		 push	 edi
  00009	89 4d fc	 mov	 DWORD PTR _this$[ebp], ecx

; 1109 : 		if (this->_Mysize < _Off)

  0000c	8b 45 fc	 mov	 eax, DWORD PTR _this$[ebp]
  0000f	8b 48 10	 mov	 ecx, DWORD PTR [eax+16]
  00012	3b 4d 08	 cmp	 ecx, DWORD PTR __Off$[ebp]
  00015	73 08		 jae	 SHORT $LN3@erase

; 1110 : 			_Xran();	// _Off off end

  00017	8b 4d fc	 mov	 ecx, DWORD PTR _this$[ebp]
  0001a	e8 00 00 00 00	 call	 ?_Xran@?$basic_string@DU?$char_traits@D@std@@V?$allocator@D@2@@std@@QBEXXZ ; std::basic_string<char,std::char_traits<char>,std::allocator<char> >::_Xran
$LN3@erase:

; 1111 : 		if (this->_Mysize - _Off < _Count)

  0001f	8b 45 fc	 mov	 eax, DWORD PTR _this$[ebp]
  00022	8b 48 10	 mov	 ecx, DWORD PTR [eax+16]
  00025	2b 4d 08	 sub	 ecx, DWORD PTR __Off$[ebp]
  00028	3b 4d 0c	 cmp	 ecx, DWORD PTR __Count$[ebp]
  0002b	73 0c		 jae	 SHORT $LN2@erase

; 1112 : 			_Count = this->_Mysize - _Off;	// trim _Count

  0002d	8b 45 fc	 mov	 eax, DWORD PTR _this$[ebp]
  00030	8b 48 10	 mov	 ecx, DWORD PTR [eax+16]
  00033	2b 4d 08	 sub	 ecx, DWORD PTR __Off$[ebp]
  00036	89 4d 0c	 mov	 DWORD PTR __Count$[ebp], ecx
$LN2@erase:

; 1113 : 		if (0 < _Count)

  00039	83 7d 0c 00	 cmp	 DWORD PTR __Count$[ebp], 0
  0003d	76 48		 jbe	 SHORT $LN1@erase

; 1114 : 			{	// move elements down
; 1115 : 			_Traits::move(_Myptr() + _Off, _Myptr() + _Off + _Count,
; 1116 : 				this->_Mysize - _Off - _Count);

  0003f	8b 45 fc	 mov	 eax, DWORD PTR _this$[ebp]
  00042	8b 48 10	 mov	 ecx, DWORD PTR [eax+16]
  00045	2b 4d 08	 sub	 ecx, DWORD PTR __Off$[ebp]
  00048	2b 4d 0c	 sub	 ecx, DWORD PTR __Count$[ebp]
  0004b	51		 push	 ecx
  0004c	8b 4d fc	 mov	 ecx, DWORD PTR _this$[ebp]
  0004f	e8 00 00 00 00	 call	 ?_Myptr@?$basic_string@DU?$char_traits@D@std@@V?$allocator@D@2@@std@@QAEPADXZ ; std::basic_string<char,std::char_traits<char>,std::allocator<char> >::_Myptr
  00054	03 45 08	 add	 eax, DWORD PTR __Off$[ebp]
  00057	03 45 0c	 add	 eax, DWORD PTR __Count$[ebp]
  0005a	50		 push	 eax
  0005b	8b 4d fc	 mov	 ecx, DWORD PTR _this$[ebp]
  0005e	e8 00 00 00 00	 call	 ?_Myptr@?$basic_string@DU?$char_traits@D@std@@V?$allocator@D@2@@std@@QAEPADXZ ; std::basic_string<char,std::char_traits<char>,std::allocator<char> >::_Myptr
  00063	03 45 08	 add	 eax, DWORD PTR __Off$[ebp]
  00066	50		 push	 eax
  00067	e8 00 00 00 00	 call	 ?move@?$char_traits@D@std@@SAPADPADPBDI@Z ; std::char_traits<char>::move
  0006c	83 c4 0c	 add	 esp, 12			; 0000000cH

; 1117 : 			size_type _Newsize = this->_Mysize - _Count;

  0006f	8b 45 fc	 mov	 eax, DWORD PTR _this$[ebp]
  00072	8b 48 10	 mov	 ecx, DWORD PTR [eax+16]
  00075	2b 4d 0c	 sub	 ecx, DWORD PTR __Count$[ebp]
  00078	89 4d f8	 mov	 DWORD PTR __Newsize$202635[ebp], ecx

; 1118 : 			_Eos(_Newsize);

  0007b	8b 45 f8	 mov	 eax, DWORD PTR __Newsize$202635[ebp]
  0007e	50		 push	 eax
  0007f	8b 4d fc	 mov	 ecx, DWORD PTR _this$[ebp]
  00082	e8 00 00 00 00	 call	 ?_Eos@?$basic_string@DU?$char_traits@D@std@@V?$allocator@D@2@@std@@QAEXI@Z ; std::basic_string<char,std::char_traits<char>,std::allocator<char> >::_Eos
$LN1@erase:

; 1119 : 			}
; 1120 : 		return (*this);

  00087	8b 45 fc	 mov	 eax, DWORD PTR _this$[ebp]
$LN5@erase:

; 1121 : 		}

  0008a	5f		 pop	 edi
  0008b	5e		 pop	 esi
  0008c	5b		 pop	 ebx
  0008d	8b e5		 mov	 esp, ebp
  0008f	5d		 pop	 ebp
  00090	c2 08 00	 ret	 8
?erase@?$basic_string@DU?$char_traits@D@std@@V?$allocator@D@2@@std@@QAEAAV12@II@Z ENDP ; std::basic_string<char,std::char_traits<char>,std::allocator<char> >::erase
_TEXT	ENDS
EXTRN	_memmove:PROC
; Function compile flags: /Odtp /ZI
; File d:\microsoft visual studio 10.0\vc\include\iosfwd
;	COMDAT ?move@?$char_traits@D@std@@SAPADPADPBDI@Z
_TEXT	SEGMENT
__First1$ = 8						; size = 4
__First2$ = 12						; size = 4
__Count$ = 16						; size = 4
?move@?$char_traits@D@std@@SAPADPADPBDI@Z PROC		; std::char_traits<char>::move, COMDAT

; 516  : 		{	// copy [_First1, _First1 + _Count) to [_First2, ...)

  00000	55		 push	 ebp
  00001	8b ec		 mov	 ebp, esp
  00003	83 ec 40	 sub	 esp, 64			; 00000040H
  00006	53		 push	 ebx
  00007	56		 push	 esi
  00008	57		 push	 edi

; 517  : 		return ((_Elem *)_CSTD memmove(_First1, _First2, _Count));

  00009	8b 45 10	 mov	 eax, DWORD PTR __Count$[ebp]
  0000c	50		 push	 eax
  0000d	8b 4d 0c	 mov	 ecx, DWORD PTR __First2$[ebp]
  00010	51		 push	 ecx
  00011	8b 55 08	 mov	 edx, DWORD PTR __First1$[ebp]
  00014	52		 push	 edx
  00015	e8 00 00 00 00	 call	 _memmove
  0001a	83 c4 0c	 add	 esp, 12			; 0000000cH

; 518  : 		}

  0001d	5f		 pop	 edi
  0001e	5e		 pop	 esi
  0001f	5b		 pop	 ebx
  00020	8b e5		 mov	 esp, ebp
  00022	5d		 pop	 ebp
  00023	c3		 ret	 0
?move@?$char_traits@D@std@@SAPADPADPBDI@Z ENDP		; std::char_traits<char>::move
_TEXT	ENDS
PUBLIC	??_C@_0BI@CFPLBAOH@invalid?5string?5position?$AA@ ; `string'
EXTRN	?_Xout_of_range@std@@YAXPBD@Z:PROC		; std::_Xout_of_range
;	COMDAT ??_C@_0BI@CFPLBAOH@invalid?5string?5position?$AA@
; File d:\microsoft visual studio 10.0\vc\include\xstring
CONST	SEGMENT
??_C@_0BI@CFPLBAOH@invalid?5string?5position?$AA@ DB 'invalid string posi'
	DB	'tion', 00H					; `string'
; Function compile flags: /Odtp /ZI
CONST	ENDS
;	COMDAT ?_Xran@?$basic_string@DU?$char_traits@D@std@@V?$allocator@D@2@@std@@QBEXXZ
_TEXT	SEGMENT
_this$ = -4						; size = 4
?_Xran@?$basic_string@DU?$char_traits@D@std@@V?$allocator@D@2@@std@@QBEXXZ PROC ; std::basic_string<char,std::char_traits<char>,std::allocator<char> >::_Xran, COMDAT
; _this$ = ecx

; 2019 : 		{	// report an out_of_range error

  00000	55		 push	 ebp
  00001	8b ec		 mov	 ebp, esp
  00003	83 ec 44	 sub	 esp, 68			; 00000044H
  00006	53		 push	 ebx
  00007	56		 push	 esi
  00008	57		 push	 edi
  00009	89 4d fc	 mov	 DWORD PTR _this$[ebp], ecx

; 2020 : 		_Xout_of_range("invalid string position");

  0000c	68 00 00 00 00	 push	 OFFSET ??_C@_0BI@CFPLBAOH@invalid?5string?5position?$AA@
  00011	e8 00 00 00 00	 call	 ?_Xout_of_range@std@@YAXPBD@Z ; std::_Xout_of_range
$LN2@Xran:

; 2021 : 		}

  00016	5f		 pop	 edi
  00017	5e		 pop	 esi
  00018	5b		 pop	 ebx
  00019	8b e5		 mov	 esp, ebp
  0001b	5d		 pop	 ebp
  0001c	c3		 ret	 0
?_Xran@?$basic_string@DU?$char_traits@D@std@@V?$allocator@D@2@@std@@QBEXXZ ENDP ; std::basic_string<char,std::char_traits<char>,std::allocator<char> >::_Xran
_TEXT	ENDS
PUBLIC	?max_size@?$allocator@D@std@@QBEIXZ		; std::allocator<char>::max_size
; Function compile flags: /Odtp /ZI
;	COMDAT ?max_size@?$basic_string@DU?$char_traits@D@std@@V?$allocator@D@2@@std@@QBEIXZ
_TEXT	SEGMENT
tv73 = -76						; size = 4
__Num$ = -8						; size = 4
_this$ = -4						; size = 4
?max_size@?$basic_string@DU?$char_traits@D@std@@V?$allocator@D@2@@std@@QBEIXZ PROC ; std::basic_string<char,std::char_traits<char>,std::allocator<char> >::max_size, COMDAT
; _this$ = ecx

; 1515 : 		{	// return maximum possible length of sequence

  00000	55		 push	 ebp
  00001	8b ec		 mov	 ebp, esp
  00003	83 ec 4c	 sub	 esp, 76			; 0000004cH
  00006	53		 push	 ebx
  00007	56		 push	 esi
  00008	57		 push	 edi
  00009	89 4d fc	 mov	 DWORD PTR _this$[ebp], ecx

; 1516 : 		size_type _Num = this->_Alval.max_size();

  0000c	8b 4d fc	 mov	 ecx, DWORD PTR _this$[ebp]
  0000f	83 c1 18	 add	 ecx, 24			; 00000018H
  00012	e8 00 00 00 00	 call	 ?max_size@?$allocator@D@std@@QBEIXZ ; std::allocator<char>::max_size
  00017	89 45 f8	 mov	 DWORD PTR __Num$[ebp], eax

; 1517 : 		return (_Num <= 1 ? 1 : _Num - 1);

  0001a	83 7d f8 01	 cmp	 DWORD PTR __Num$[ebp], 1
  0001e	77 09		 ja	 SHORT $LN3@max_size
  00020	c7 45 b4 01 00
	00 00		 mov	 DWORD PTR tv73[ebp], 1
  00027	eb 09		 jmp	 SHORT $LN4@max_size
$LN3@max_size:
  00029	8b 45 f8	 mov	 eax, DWORD PTR __Num$[ebp]
  0002c	83 e8 01	 sub	 eax, 1
  0002f	89 45 b4	 mov	 DWORD PTR tv73[ebp], eax
$LN4@max_size:
  00032	8b 45 b4	 mov	 eax, DWORD PTR tv73[ebp]

; 1518 : 		}

  00035	5f		 pop	 edi
  00036	5e		 pop	 esi
  00037	5b		 pop	 ebx
  00038	8b e5		 mov	 esp, ebp
  0003a	5d		 pop	 ebp
  0003b	c3		 ret	 0
?max_size@?$basic_string@DU?$char_traits@D@std@@V?$allocator@D@2@@std@@QBEIXZ ENDP ; std::basic_string<char,std::char_traits<char>,std::allocator<char> >::max_size
_TEXT	ENDS
PUBLIC	?allocate@?$allocator@D@std@@QAEPADI@Z		; std::allocator<char>::allocate
;	COMDAT xdata$x
xdata$x	SEGMENT
__catchsym$?_Copy@?$basic_string@DU?$char_traits@D@std@@V?$allocator@D@2@@std@@QAEXII@Z$5 DD 040H
	DD	00H
	DD	00H
	DD	FLAT:__catch$?_Copy@?$basic_string@DU?$char_traits@D@std@@V?$allocator@D@2@@std@@QAEXII@Z$0
__catchsym$?_Copy@?$basic_string@DU?$char_traits@D@std@@V?$allocator@D@2@@std@@QAEXII@Z$4 DD 040H
	DD	00H
	DD	00H
	DD	FLAT:__catch$?_Copy@?$basic_string@DU?$char_traits@D@std@@V?$allocator@D@2@@std@@QAEXII@Z$1
__unwindtable$?_Copy@?$basic_string@DU?$char_traits@D@std@@V?$allocator@D@2@@std@@QAEXII@Z DD 0ffffffffH
	DD	00H
	DD	0ffffffffH
	DD	00H
	DD	01H
	DD	00H
	DD	01H
	DD	00H
__ehfuncinfo$?_Copy@?$basic_string@DU?$char_traits@D@std@@V?$allocator@D@2@@std@@QAEXII@Z DD 019930522H
	DD	04H
	DD	FLAT:__unwindtable$?_Copy@?$basic_string@DU?$char_traits@D@std@@V?$allocator@D@2@@std@@QAEXII@Z
	DD	02H
	DD	FLAT:__tryblocktable$?_Copy@?$basic_string@DU?$char_traits@D@std@@V?$allocator@D@2@@std@@QAEXII@Z
	DD	2 DUP(00H)
	DD	00H
	DD	01H
__tryblocktable$?_Copy@?$basic_string@DU?$char_traits@D@std@@V?$allocator@D@2@@std@@QAEXII@Z DD 02H
	DD	02H
	DD	03H
	DD	01H
	DD	FLAT:__catchsym$?_Copy@?$basic_string@DU?$char_traits@D@std@@V?$allocator@D@2@@std@@QAEXII@Z$4
	DD	00H
	DD	00H
	DD	03H
	DD	01H
	DD	FLAT:__catchsym$?_Copy@?$basic_string@DU?$char_traits@D@std@@V?$allocator@D@2@@std@@QAEXII@Z$5
; Function compile flags: /Odtp /ZI
xdata$x	ENDS
;	COMDAT ?_Copy@?$basic_string@DU?$char_traits@D@std@@V?$allocator@D@2@@std@@QAEXII@Z
_TEXT	SEGMENT
tv184 = -96						; size = 4
tv183 = -96						; size = 4
__Ptr$ = -28						; size = 4
__Newres$ = -24						; size = 4
_this$ = -20						; size = 4
__$EHRec$ = -16						; size = 16
__Newsize$ = 8						; size = 4
__Oldlen$ = 12						; size = 4
?_Copy@?$basic_string@DU?$char_traits@D@std@@V?$allocator@D@2@@std@@QAEXII@Z PROC ; std::basic_string<char,std::char_traits<char>,std::allocator<char> >::_Copy, COMDAT
; _this$ = ecx

; 1918 : 		{	// copy _Oldlen elements to newly allocated buffer

  00000	55		 push	 ebp
  00001	8b ec		 mov	 ebp, esp
  00003	6a ff		 push	 -1
  00005	68 00 00 00 00	 push	 __ehhandler$?_Copy@?$basic_string@DU?$char_traits@D@std@@V?$allocator@D@2@@std@@QAEXII@Z
  0000a	64 a1 00 00 00
	00		 mov	 eax, DWORD PTR fs:0
  00010	50		 push	 eax
  00011	51		 push	 ecx
  00012	83 ec 50	 sub	 esp, 80			; 00000050H
  00015	53		 push	 ebx
  00016	56		 push	 esi
  00017	57		 push	 edi
  00018	a1 00 00 00 00	 mov	 eax, DWORD PTR ___security_cookie
  0001d	33 c5		 xor	 eax, ebp
  0001f	50		 push	 eax
  00020	8d 45 f4	 lea	 eax, DWORD PTR __$EHRec$[ebp+4]
  00023	64 a3 00 00 00
	00		 mov	 DWORD PTR fs:0, eax
  00029	89 65 f0	 mov	 DWORD PTR __$EHRec$[ebp], esp
  0002c	89 4d ec	 mov	 DWORD PTR _this$[ebp], ecx

; 1919 : 		size_type _Newres = _Newsize | this->_ALLOC_MASK;

  0002f	8b 45 08	 mov	 eax, DWORD PTR __Newsize$[ebp]
  00032	83 c8 0f	 or	 eax, 15			; 0000000fH
  00035	89 45 e8	 mov	 DWORD PTR __Newres$[ebp], eax

; 1920 : 		if (max_size() < _Newres)

  00038	8b 4d ec	 mov	 ecx, DWORD PTR _this$[ebp]
  0003b	e8 00 00 00 00	 call	 ?max_size@?$basic_string@DU?$char_traits@D@std@@V?$allocator@D@2@@std@@QBEIXZ ; std::basic_string<char,std::char_traits<char>,std::allocator<char> >::max_size
  00040	3b 45 e8	 cmp	 eax, DWORD PTR __Newres$[ebp]
  00043	73 08		 jae	 SHORT $LN9@Copy

; 1921 : 			_Newres = _Newsize;	// undo roundup if too big

  00045	8b 45 08	 mov	 eax, DWORD PTR __Newsize$[ebp]
  00048	89 45 e8	 mov	 DWORD PTR __Newres$[ebp], eax
  0004b	eb 52		 jmp	 SHORT $LN8@Copy
$LN9@Copy:

; 1922 : 		else if (this->_Myres / 2 <= _Newres / 3)

  0004d	8b 45 e8	 mov	 eax, DWORD PTR __Newres$[ebp]
  00050	33 d2		 xor	 edx, edx
  00052	b9 03 00 00 00	 mov	 ecx, 3
  00057	f7 f1		 div	 ecx
  00059	8b 55 ec	 mov	 edx, DWORD PTR _this$[ebp]
  0005c	8b 4a 14	 mov	 ecx, DWORD PTR [edx+20]
  0005f	d1 e9		 shr	 ecx, 1
  00061	3b c8		 cmp	 ecx, eax
  00063	77 02		 ja	 SHORT $LN7@Copy
  00065	eb 38		 jmp	 SHORT $LN8@Copy
$LN7@Copy:

; 1923 : 			;
; 1924 : 		else if (this->_Myres <= max_size() - this->_Myres / 2)

  00067	8b 45 ec	 mov	 eax, DWORD PTR _this$[ebp]
  0006a	8b 70 14	 mov	 esi, DWORD PTR [eax+20]
  0006d	d1 ee		 shr	 esi, 1
  0006f	8b 4d ec	 mov	 ecx, DWORD PTR _this$[ebp]
  00072	e8 00 00 00 00	 call	 ?max_size@?$basic_string@DU?$char_traits@D@std@@V?$allocator@D@2@@std@@QBEIXZ ; std::basic_string<char,std::char_traits<char>,std::allocator<char> >::max_size
  00077	2b c6		 sub	 eax, esi
  00079	8b 4d ec	 mov	 ecx, DWORD PTR _this$[ebp]
  0007c	39 41 14	 cmp	 DWORD PTR [ecx+20], eax
  0007f	77 13		 ja	 SHORT $LN5@Copy

; 1925 : 			_Newres = this->_Myres
; 1926 : 				+ this->_Myres / 2;	// grow exponentially if possible

  00081	8b 45 ec	 mov	 eax, DWORD PTR _this$[ebp]
  00084	8b 48 14	 mov	 ecx, DWORD PTR [eax+20]
  00087	d1 e9		 shr	 ecx, 1
  00089	8b 55 ec	 mov	 edx, DWORD PTR _this$[ebp]
  0008c	03 4a 14	 add	 ecx, DWORD PTR [edx+20]
  0008f	89 4d e8	 mov	 DWORD PTR __Newres$[ebp], ecx

; 1927 : 		else

  00092	eb 0b		 jmp	 SHORT $LN8@Copy
$LN5@Copy:

; 1928 : 			_Newres = max_size();	// settle for max_size()

  00094	8b 4d ec	 mov	 ecx, DWORD PTR _this$[ebp]
  00097	e8 00 00 00 00	 call	 ?max_size@?$basic_string@DU?$char_traits@D@std@@V?$allocator@D@2@@std@@QBEIXZ ; std::basic_string<char,std::char_traits<char>,std::allocator<char> >::max_size
  0009c	89 45 e8	 mov	 DWORD PTR __Newres$[ebp], eax
$LN8@Copy:

; 1929 : 
; 1930 : 		_Elem *_Ptr;
; 1931 : 		_TRY_BEGIN

  0009f	c7 45 fc 00 00
	00 00		 mov	 DWORD PTR __$EHRec$[ebp+12], 0

; 1932 : 			_Ptr = this->_Alval.allocate(_Newres + 1);

  000a6	8b 45 e8	 mov	 eax, DWORD PTR __Newres$[ebp]
  000a9	83 c0 01	 add	 eax, 1
  000ac	50		 push	 eax
  000ad	8b 4d ec	 mov	 ecx, DWORD PTR _this$[ebp]
  000b0	83 c1 18	 add	 ecx, 24			; 00000018H
  000b3	e8 00 00 00 00	 call	 ?allocate@?$allocator@D@std@@QAEPADI@Z ; std::allocator<char>::allocate
  000b8	89 45 a0	 mov	 DWORD PTR tv183[ebp], eax
  000bb	8b 4d a0	 mov	 ecx, DWORD PTR tv183[ebp]
  000be	89 4d e4	 mov	 DWORD PTR __Ptr$[ebp], ecx
  000c1	eb 60		 jmp	 SHORT $LN12@Copy
__catch$?_Copy@?$basic_string@DU?$char_traits@D@std@@V?$allocator@D@2@@std@@QAEXII@Z$0:

; 1933 : 		_CATCH_ALL

  000c3	89 65 f0	 mov	 DWORD PTR __$EHRec$[ebp], esp

; 1934 : 			_Newres = _Newsize;	// allocation failed, undo roundup and retry

  000c6	8b 45 08	 mov	 eax, DWORD PTR __Newsize$[ebp]
  000c9	89 45 e8	 mov	 DWORD PTR __Newres$[ebp], eax

; 1935 : 			_TRY_BEGIN

  000cc	c6 45 fc 02	 mov	 BYTE PTR __$EHRec$[ebp+12], 2

; 1936 : 				_Ptr = this->_Alval.allocate(_Newres + 1);

  000d0	8b 45 e8	 mov	 eax, DWORD PTR __Newres$[ebp]
  000d3	83 c0 01	 add	 eax, 1
  000d6	50		 push	 eax
  000d7	8b 4d ec	 mov	 ecx, DWORD PTR _this$[ebp]
  000da	83 c1 18	 add	 ecx, 24			; 00000018H
  000dd	e8 00 00 00 00	 call	 ?allocate@?$allocator@D@std@@QAEPADI@Z ; std::allocator<char>::allocate
  000e2	89 45 a0	 mov	 DWORD PTR tv184[ebp], eax
  000e5	8b 4d a0	 mov	 ecx, DWORD PTR tv184[ebp]
  000e8	89 4d e4	 mov	 DWORD PTR __Ptr$[ebp], ecx
  000eb	eb 22		 jmp	 SHORT $LN14@Copy
__catch$?_Copy@?$basic_string@DU?$char_traits@D@std@@V?$allocator@D@2@@std@@QAEXII@Z$1:

; 1937 : 			_CATCH_ALL
; 1938 : 			_Tidy(true);	// failed again, discard storage and reraise

  000ed	6a 00		 push	 0
  000ef	6a 01		 push	 1
  000f1	8b 4d ec	 mov	 ecx, DWORD PTR _this$[ebp]
  000f4	e8 00 00 00 00	 call	 ?_Tidy@?$basic_string@DU?$char_traits@D@std@@V?$allocator@D@2@@std@@QAEX_NI@Z ; std::basic_string<char,std::char_traits<char>,std::allocator<char> >::_Tidy

; 1939 : 			_RERAISE;

  000f9	6a 00		 push	 0
  000fb	6a 00		 push	 0
  000fd	e8 00 00 00 00	 call	 __CxxThrowException@8

; 1940 : 			_CATCH_END

  00102	c7 45 fc 01 00
	00 00		 mov	 DWORD PTR __$EHRec$[ebp+12], 1
  00109	b8 00 00 00 00	 mov	 eax, __tryend$?_Copy@?$basic_string@DU?$char_traits@D@std@@V?$allocator@D@2@@std@@QAEXII@Z$2
  0010e	c3		 ret	 0
$LN14@Copy:
  0010f	c7 45 fc 01 00
	00 00		 mov	 DWORD PTR __$EHRec$[ebp+12], 1
__tryend$?_Copy@?$basic_string@DU?$char_traits@D@std@@V?$allocator@D@2@@std@@QAEXII@Z$2:

; 1941 : 		_CATCH_END

  00116	c7 45 fc 01 00
	00 00		 mov	 DWORD PTR __$EHRec$[ebp+12], 1
  0011d	b8 00 00 00 00	 mov	 eax, __tryend$?_Copy@?$basic_string@DU?$char_traits@D@std@@V?$allocator@D@2@@std@@QAEXII@Z$3
  00122	c3		 ret	 0
$LN12@Copy:
  00123	c7 45 fc ff ff
	ff ff		 mov	 DWORD PTR __$EHRec$[ebp+12], -1
__tryend$?_Copy@?$basic_string@DU?$char_traits@D@std@@V?$allocator@D@2@@std@@QAEXII@Z$3:

; 1942 : 
; 1943 : 		if (0 < _Oldlen)

  0012a	83 7d 0c 00	 cmp	 DWORD PTR __Oldlen$[ebp], 0
  0012e	76 19		 jbe	 SHORT $LN1@Copy

; 1944 : 			_Traits::copy(_Ptr, _Myptr(), _Oldlen);	// copy existing elements

  00130	8b 45 0c	 mov	 eax, DWORD PTR __Oldlen$[ebp]
  00133	50		 push	 eax
  00134	8b 4d ec	 mov	 ecx, DWORD PTR _this$[ebp]
  00137	e8 00 00 00 00	 call	 ?_Myptr@?$basic_string@DU?$char_traits@D@std@@V?$allocator@D@2@@std@@QAEPADXZ ; std::basic_string<char,std::char_traits<char>,std::allocator<char> >::_Myptr
  0013c	50		 push	 eax
  0013d	8b 4d e4	 mov	 ecx, DWORD PTR __Ptr$[ebp]
  00140	51		 push	 ecx
  00141	e8 00 00 00 00	 call	 ?copy@?$char_traits@D@std@@SAPADPADPBDI@Z ; std::char_traits<char>::copy
  00146	83 c4 0c	 add	 esp, 12			; 0000000cH
$LN1@Copy:

; 1945 : 		_Tidy(true);

  00149	6a 00		 push	 0
  0014b	6a 01		 push	 1
  0014d	8b 4d ec	 mov	 ecx, DWORD PTR _this$[ebp]
  00150	e8 00 00 00 00	 call	 ?_Tidy@?$basic_string@DU?$char_traits@D@std@@V?$allocator@D@2@@std@@QAEX_NI@Z ; std::basic_string<char,std::char_traits<char>,std::allocator<char> >::_Tidy

; 1946 : 		this->_Bx._Ptr = _Ptr;

  00155	8b 45 ec	 mov	 eax, DWORD PTR _this$[ebp]
  00158	8b 4d e4	 mov	 ecx, DWORD PTR __Ptr$[ebp]
  0015b	89 08		 mov	 DWORD PTR [eax], ecx

; 1947 : 		this->_Myres = _Newres;

  0015d	8b 45 ec	 mov	 eax, DWORD PTR _this$[ebp]
  00160	8b 4d e8	 mov	 ecx, DWORD PTR __Newres$[ebp]
  00163	89 48 14	 mov	 DWORD PTR [eax+20], ecx

; 1948 : 		_Eos(_Oldlen);

  00166	8b 45 0c	 mov	 eax, DWORD PTR __Oldlen$[ebp]
  00169	50		 push	 eax
  0016a	8b 4d ec	 mov	 ecx, DWORD PTR _this$[ebp]
  0016d	e8 00 00 00 00	 call	 ?_Eos@?$basic_string@DU?$char_traits@D@std@@V?$allocator@D@2@@std@@QAEXI@Z ; std::basic_string<char,std::char_traits<char>,std::allocator<char> >::_Eos
$LN11@Copy:

; 1949 : 		}

  00172	8b 4d f4	 mov	 ecx, DWORD PTR __$EHRec$[ebp+4]
  00175	64 89 0d 00 00
	00 00		 mov	 DWORD PTR fs:0, ecx
  0017c	59		 pop	 ecx
  0017d	5f		 pop	 edi
  0017e	5e		 pop	 esi
  0017f	5b		 pop	 ebx
  00180	8b e5		 mov	 esp, ebp
  00182	5d		 pop	 ebp
  00183	c2 08 00	 ret	 8
_TEXT	ENDS
;	COMDAT text$x
text$x	SEGMENT
__ehhandler$?_Copy@?$basic_string@DU?$char_traits@D@std@@V?$allocator@D@2@@std@@QAEXII@Z:
  00000	8b 54 24 08	 mov	 edx, DWORD PTR [esp+8]
  00004	8d 42 0c	 lea	 eax, DWORD PTR [edx+12]
  00007	8b 4a 9c	 mov	 ecx, DWORD PTR [edx-100]
  0000a	33 c8		 xor	 ecx, eax
  0000c	e8 00 00 00 00	 call	 @__security_check_cookie@4
  00011	b8 00 00 00 00	 mov	 eax, OFFSET __ehfuncinfo$?_Copy@?$basic_string@DU?$char_traits@D@std@@V?$allocator@D@2@@std@@QAEXII@Z
  00016	e9 00 00 00 00	 jmp	 ___CxxFrameHandler3
text$x	ENDS
?_Copy@?$basic_string@DU?$char_traits@D@std@@V?$allocator@D@2@@std@@QAEXII@Z ENDP ; std::basic_string<char,std::char_traits<char>,std::allocator<char> >::_Copy
PUBLIC	??$_Allocate@D@std@@YAPADIPAD@Z			; std::_Allocate<char>
; Function compile flags: /Odtp /ZI
; File d:\microsoft visual studio 10.0\vc\include\xmemory
;	COMDAT ?allocate@?$allocator@D@std@@QAEPADI@Z
_TEXT	SEGMENT
_this$ = -4						; size = 4
__Count$ = 8						; size = 4
?allocate@?$allocator@D@std@@QAEPADI@Z PROC		; std::allocator<char>::allocate, COMDAT
; _this$ = ecx

; 186  : 		{	// allocate array of _Count elements

  00000	55		 push	 ebp
  00001	8b ec		 mov	 ebp, esp
  00003	83 ec 44	 sub	 esp, 68			; 00000044H
  00006	53		 push	 ebx
  00007	56		 push	 esi
  00008	57		 push	 edi
  00009	89 4d fc	 mov	 DWORD PTR _this$[ebp], ecx

; 187  : 		return (_Allocate(_Count, (pointer)0));

  0000c	6a 00		 push	 0
  0000e	8b 45 08	 mov	 eax, DWORD PTR __Count$[ebp]
  00011	50		 push	 eax
  00012	e8 00 00 00 00	 call	 ??$_Allocate@D@std@@YAPADIPAD@Z ; std::_Allocate<char>
  00017	83 c4 08	 add	 esp, 8

; 188  : 		}

  0001a	5f		 pop	 edi
  0001b	5e		 pop	 esi
  0001c	5b		 pop	 ebx
  0001d	8b e5		 mov	 esp, ebp
  0001f	5d		 pop	 ebp
  00020	c2 04 00	 ret	 4
?allocate@?$allocator@D@std@@QAEPADI@Z ENDP		; std::allocator<char>::allocate
; Function compile flags: /Odtp /ZI
_TEXT	ENDS
;	COMDAT ?max_size@?$allocator@D@std@@QBEIXZ
_TEXT	SEGMENT
tv65 = -76						; size = 4
__Count$ = -8						; size = 4
_this$ = -4						; size = 4
?max_size@?$allocator@D@std@@QBEIXZ PROC		; std::allocator<char>::max_size, COMDAT
; _this$ = ecx

; 217  : 		{	// estimate maximum array size

  00000	55		 push	 ebp
  00001	8b ec		 mov	 ebp, esp
  00003	83 ec 4c	 sub	 esp, 76			; 0000004cH
  00006	53		 push	 ebx
  00007	56		 push	 esi
  00008	57		 push	 edi
  00009	89 4d fc	 mov	 DWORD PTR _this$[ebp], ecx

; 218  : 		_SIZT _Count = (_SIZT)(-1) / sizeof (_Ty);

  0000c	c7 45 f8 ff ff
	ff ff		 mov	 DWORD PTR __Count$[ebp], -1

; 219  : 		return (0 < _Count ? _Count : 1);

  00013	83 7d f8 00	 cmp	 DWORD PTR __Count$[ebp], 0
  00017	76 08		 jbe	 SHORT $LN3@max_size@2
  00019	8b 45 f8	 mov	 eax, DWORD PTR __Count$[ebp]
  0001c	89 45 b4	 mov	 DWORD PTR tv65[ebp], eax
  0001f	eb 07		 jmp	 SHORT $LN4@max_size@2
$LN3@max_size@2:
  00021	c7 45 b4 01 00
	00 00		 mov	 DWORD PTR tv65[ebp], 1
$LN4@max_size@2:
  00028	8b 45 b4	 mov	 eax, DWORD PTR tv65[ebp]

; 220  : 		}

  0002b	5f		 pop	 edi
  0002c	5e		 pop	 esi
  0002d	5b		 pop	 ebx
  0002e	8b e5		 mov	 esp, ebp
  00030	5d		 pop	 ebp
  00031	c3		 ret	 0
?max_size@?$allocator@D@std@@QBEIXZ ENDP		; std::allocator<char>::max_size
_TEXT	ENDS
PUBLIC	?_Getcat@?$ctype@D@std@@SAIPAPBVfacet@locale@2@PBV42@@Z ; std::ctype<char>::_Getcat
PUBLIC	?_Psave@?$_Facetptr@V?$ctype@D@std@@@std@@2PBVfacet@locale@2@B ; std::_Facetptr<std::ctype<char> >::_Psave
EXTRN	?id@?$ctype@D@std@@2V0locale@2@A:DWORD		; std::ctype<char>::id
;	COMDAT ?_Psave@?$_Facetptr@V?$ctype@D@std@@@std@@2PBVfacet@locale@2@B
; File d:\microsoft visual studio 10.0\vc\include\xlocale
_BSS	SEGMENT
?_Psave@?$_Facetptr@V?$ctype@D@std@@@std@@2PBVfacet@locale@2@B DD 01H DUP (?) ; std::_Facetptr<std::ctype<char> >::_Psave
_BSS	ENDS
;	COMDAT xdata$x
xdata$x	SEGMENT
__unwindtable$??$use_facet@V?$ctype@D@std@@@std@@YAABV?$ctype@D@0@ABVlocale@0@@Z DD 0ffffffffH
	DD	FLAT:__unwindfunclet$??$use_facet@V?$ctype@D@std@@@std@@YAABV?$ctype@D@0@ABVlocale@0@@Z$0
__ehfuncinfo$??$use_facet@V?$ctype@D@std@@@std@@YAABV?$ctype@D@0@ABVlocale@0@@Z DD 019930522H
	DD	01H
	DD	FLAT:__unwindtable$??$use_facet@V?$ctype@D@std@@@std@@YAABV?$ctype@D@0@ABVlocale@0@@Z
	DD	2 DUP(00H)
	DD	2 DUP(00H)
	DD	00H
	DD	01H
; Function compile flags: /Odtp /ZI
xdata$x	ENDS
;	COMDAT ??$use_facet@V?$ctype@D@std@@@std@@YAABV?$ctype@D@0@ABVlocale@0@@Z
_TEXT	SEGMENT
$T226671 = -112						; size = 12
$T226672 = -100						; size = 4
__Pfmod$203040 = -32					; size = 4
__Pf$203024 = -28					; size = 4
__Id$203023 = -24					; size = 4
__Psave$203011 = -20					; size = 4
__Lock$203010 = -16					; size = 4
__$EHRec$ = -12						; size = 12
__Loc$ = 8						; size = 4
??$use_facet@V?$ctype@D@std@@@std@@YAABV?$ctype@D@0@ABVlocale@0@@Z PROC ; std::use_facet<std::ctype<char> >, COMDAT

; 504  : 	{	// get facet reference from locale

  00000	55		 push	 ebp
  00001	8b ec		 mov	 ebp, esp
  00003	6a ff		 push	 -1
  00005	68 00 00 00 00	 push	 __ehhandler$??$use_facet@V?$ctype@D@std@@@std@@YAABV?$ctype@D@0@ABVlocale@0@@Z
  0000a	64 a1 00 00 00
	00		 mov	 eax, DWORD PTR fs:0
  00010	50		 push	 eax
  00011	83 ec 64	 sub	 esp, 100		; 00000064H
  00014	53		 push	 ebx
  00015	56		 push	 esi
  00016	57		 push	 edi
  00017	a1 00 00 00 00	 mov	 eax, DWORD PTR ___security_cookie
  0001c	33 c5		 xor	 eax, ebp
  0001e	50		 push	 eax
  0001f	8d 45 f4	 lea	 eax, DWORD PTR __$EHRec$[ebp]
  00022	64 a3 00 00 00
	00		 mov	 DWORD PTR fs:0, eax

; 505  : 	_BEGIN_LOCK(_LOCK_LOCALE)	// the thread lock, make get atomic

  00028	6a 00		 push	 0
  0002a	8d 4d f0	 lea	 ecx, DWORD PTR __Lock$203010[ebp]
  0002d	e8 00 00 00 00	 call	 ??0_Lockit@std@@QAE@H@Z	; std::_Lockit::_Lockit
  00032	c7 45 fc 00 00
	00 00		 mov	 DWORD PTR __$EHRec$[ebp+8], 0

; 506  : 		const locale::facet *_Psave =
; 507  : 			_Facetptr<_Facet>::_Psave;	// static pointer to lazy facet

  00039	a1 00 00 00 00	 mov	 eax, DWORD PTR ?_Psave@?$_Facetptr@V?$ctype@D@std@@@std@@2PBVfacet@locale@2@B ; std::_Facetptr<std::ctype<char> >::_Psave
  0003e	89 45 ec	 mov	 DWORD PTR __Psave$203011[ebp], eax

; 508  : 
; 509  : 		size_t _Id = _Facet::id;

  00041	b9 00 00 00 00	 mov	 ecx, OFFSET ?id@?$ctype@D@std@@2V0locale@2@A ; std::ctype<char>::id
  00046	e8 00 00 00 00	 call	 ??Bid@locale@std@@QAEIXZ ; std::locale::id::operator unsigned int
  0004b	89 45 e8	 mov	 DWORD PTR __Id$203023[ebp], eax

; 510  : 		const locale::facet *_Pf = _Loc._Getfacet(_Id);

  0004e	8b 45 e8	 mov	 eax, DWORD PTR __Id$203023[ebp]
  00051	50		 push	 eax
  00052	8b 4d 08	 mov	 ecx, DWORD PTR __Loc$[ebp]
  00055	e8 00 00 00 00	 call	 ?_Getfacet@locale@std@@QBEPBVfacet@12@I@Z ; std::locale::_Getfacet
  0005a	89 45 e4	 mov	 DWORD PTR __Pf$203024[ebp], eax

; 511  : 
; 512  : 		if (_Pf != 0)

  0005d	83 7d e4 00	 cmp	 DWORD PTR __Pf$203024[ebp], 0
  00061	74 02		 je	 SHORT $LN6@use_facet@2
  00063	eb 64		 jmp	 SHORT $LN5@use_facet@2
$LN6@use_facet@2:

; 513  : 			;	// got facet from locale
; 514  : 		else if (_Psave != 0)

  00065	83 7d ec 00	 cmp	 DWORD PTR __Psave$203011[ebp], 0
  00069	74 08		 je	 SHORT $LN4@use_facet@2

; 515  : 			_Pf = _Psave;	// lazy facet already allocated

  0006b	8b 45 ec	 mov	 eax, DWORD PTR __Psave$203011[ebp]
  0006e	89 45 e4	 mov	 DWORD PTR __Pf$203024[ebp], eax
  00071	eb 56		 jmp	 SHORT $LN5@use_facet@2
$LN4@use_facet@2:

; 516  : 		else if (_Facet::_Getcat(&_Psave, &_Loc) == (size_t)(-1))

  00073	8b 45 08	 mov	 eax, DWORD PTR __Loc$[ebp]
  00076	50		 push	 eax
  00077	8d 4d ec	 lea	 ecx, DWORD PTR __Psave$203011[ebp]
  0007a	51		 push	 ecx
  0007b	e8 00 00 00 00	 call	 ?_Getcat@?$ctype@D@std@@SAIPAPBVfacet@locale@2@PBV42@@Z ; std::ctype<char>::_Getcat
  00080	83 c4 08	 add	 esp, 8
  00083	83 f8 ff	 cmp	 eax, -1
  00086	75 1d		 jne	 SHORT $LN2@use_facet@2

; 517  : 
; 518  :  #if _HAS_EXCEPTIONS
; 519  : 
; 520  : 			_THROW_NCEE(bad_cast, _EMPTY_ARGUMENT);	// lazy disallowed

  00088	68 00 00 00 00	 push	 OFFSET ??_C@_08EPJLHIJG@bad?5cast?$AA@
  0008d	8d 4d 90	 lea	 ecx, DWORD PTR $T226671[ebp]
  00090	e8 00 00 00 00	 call	 ??0bad_cast@std@@QAE@PBD@Z ; std::bad_cast::bad_cast
  00095	68 00 00 00 00	 push	 OFFSET __TI2?AVbad_cast@std@@
  0009a	8d 45 90	 lea	 eax, DWORD PTR $T226671[ebp]
  0009d	50		 push	 eax
  0009e	e8 00 00 00 00	 call	 __CxxThrowException@8

; 521  : 
; 522  :  #else /* _HAS_EXCEPTIONS */
; 523  : 			abort();	// lazy disallowed
; 524  :  #endif /* _HAS_EXCEPTIONS */
; 525  : 
; 526  : 		else

  000a3	eb 24		 jmp	 SHORT $LN5@use_facet@2
$LN2@use_facet@2:

; 527  : 			{	// queue up lazy facet for destruction
; 528  : 			_Pf = _Psave;

  000a5	8b 45 ec	 mov	 eax, DWORD PTR __Psave$203011[ebp]
  000a8	89 45 e4	 mov	 DWORD PTR __Pf$203024[ebp], eax

; 529  : 			_Facetptr<_Facet>::_Psave = _Psave;

  000ab	8b 45 ec	 mov	 eax, DWORD PTR __Psave$203011[ebp]
  000ae	a3 00 00 00 00	 mov	 DWORD PTR ?_Psave@?$_Facetptr@V?$ctype@D@std@@@std@@2PBVfacet@locale@2@B, eax ; std::_Facetptr<std::ctype<char> >::_Psave

; 530  : 
; 531  : 			locale::facet *_Pfmod = (_Facet *)_Psave;

  000b3	8b 45 ec	 mov	 eax, DWORD PTR __Psave$203011[ebp]
  000b6	89 45 e0	 mov	 DWORD PTR __Pfmod$203040[ebp], eax

; 532  : 			_Pfmod->_Incref();

  000b9	8b 4d e0	 mov	 ecx, DWORD PTR __Pfmod$203040[ebp]
  000bc	e8 00 00 00 00	 call	 ?_Incref@facet@locale@std@@QAEXXZ ; std::locale::facet::_Incref

; 533  : 			_Pfmod->_Register();

  000c1	8b 4d e0	 mov	 ecx, DWORD PTR __Pfmod$203040[ebp]
  000c4	e8 00 00 00 00	 call	 ?_Register@facet@locale@std@@QAEXXZ ; std::locale::facet::_Register
$LN5@use_facet@2:

; 534  : 			}
; 535  : 
; 536  : 		return ((const _Facet&)(*_Pf));	// should be dynamic_cast

  000c9	8b 45 e4	 mov	 eax, DWORD PTR __Pf$203024[ebp]
  000cc	89 45 9c	 mov	 DWORD PTR $T226672[ebp], eax
  000cf	c7 45 fc ff ff
	ff ff		 mov	 DWORD PTR __$EHRec$[ebp+8], -1
  000d6	8d 4d f0	 lea	 ecx, DWORD PTR __Lock$203010[ebp]
  000d9	e8 00 00 00 00	 call	 ??1_Lockit@std@@QAE@XZ	; std::_Lockit::~_Lockit
  000de	8b 45 9c	 mov	 eax, DWORD PTR $T226672[ebp]
$LN8@use_facet@2:

; 537  : 	_END_LOCK()
; 538  : 	}

  000e1	8b 4d f4	 mov	 ecx, DWORD PTR __$EHRec$[ebp]
  000e4	64 89 0d 00 00
	00 00		 mov	 DWORD PTR fs:0, ecx
  000eb	59		 pop	 ecx
  000ec	5f		 pop	 edi
  000ed	5e		 pop	 esi
  000ee	5b		 pop	 ebx
  000ef	8b e5		 mov	 esp, ebp
  000f1	5d		 pop	 ebp
  000f2	c3		 ret	 0
_TEXT	ENDS
;	COMDAT text$x
text$x	SEGMENT
__unwindfunclet$??$use_facet@V?$ctype@D@std@@@std@@YAABV?$ctype@D@0@ABVlocale@0@@Z$0:
  00000	8d 4d f0	 lea	 ecx, DWORD PTR __Lock$203010[ebp]
  00003	e9 00 00 00 00	 jmp	 ??1_Lockit@std@@QAE@XZ	; std::_Lockit::~_Lockit
__ehhandler$??$use_facet@V?$ctype@D@std@@@std@@YAABV?$ctype@D@0@ABVlocale@0@@Z:
  00008	8b 54 24 08	 mov	 edx, DWORD PTR [esp+8]
  0000c	8d 42 0c	 lea	 eax, DWORD PTR [edx+12]
  0000f	8b 4a 8c	 mov	 ecx, DWORD PTR [edx-116]
  00012	33 c8		 xor	 ecx, eax
  00014	e8 00 00 00 00	 call	 @__security_check_cookie@4
  00019	b8 00 00 00 00	 mov	 eax, OFFSET __ehfuncinfo$??$use_facet@V?$ctype@D@std@@@std@@YAABV?$ctype@D@0@ABVlocale@0@@Z
  0001e	e9 00 00 00 00	 jmp	 ___CxxFrameHandler3
text$x	ENDS
??$use_facet@V?$ctype@D@std@@@std@@YAABV?$ctype@D@0@ABVlocale@0@@Z ENDP ; std::use_facet<std::ctype<char> >
PUBLIC	??0?$ctype@D@std@@QAE@ABV_Locinfo@1@I@Z		; std::ctype<char>::ctype<char>
;	COMDAT xdata$x
xdata$x	SEGMENT
__unwindtable$?_Getcat@?$ctype@D@std@@SAIPAPBVfacet@locale@2@PBV42@@Z DD 0ffffffffH
	DD	FLAT:__unwindfunclet$?_Getcat@?$ctype@D@std@@SAIPAPBVfacet@locale@2@PBV42@@Z$0
	DD	00H
	DD	FLAT:__unwindfunclet$?_Getcat@?$ctype@D@std@@SAIPAPBVfacet@locale@2@PBV42@@Z$1
	DD	0ffffffffH
	DD	FLAT:__unwindfunclet$?_Getcat@?$ctype@D@std@@SAIPAPBVfacet@locale@2@PBV42@@Z$1
__ehfuncinfo$?_Getcat@?$ctype@D@std@@SAIPAPBVfacet@locale@2@PBV42@@Z DD 019930522H
	DD	03H
	DD	FLAT:__unwindtable$?_Getcat@?$ctype@D@std@@SAIPAPBVfacet@locale@2@PBV42@@Z
	DD	2 DUP(00H)
	DD	2 DUP(00H)
	DD	00H
	DD	01H
; Function compile flags: /Odtp /ZI
xdata$x	ENDS
;	COMDAT ?_Getcat@?$ctype@D@std@@SAIPAPBVfacet@locale@2@PBV42@@Z
_TEXT	SEGMENT
tv85 = -136						; size = 4
tv91 = -132						; size = 4
tv95 = -128						; size = 4
$T226683 = -124						; size = 4
$T226684 = -120						; size = 4
$T226685 = -116						; size = 36
$T226689 = -80						; size = 4
__$EHRec$ = -12						; size = 12
__Ppf$ = 8						; size = 4
__Ploc$ = 12						; size = 4
?_Getcat@?$ctype@D@std@@SAIPAPBVfacet@locale@2@PBV42@@Z PROC ; std::ctype<char>::_Getcat, COMDAT

; 2371 : 		{	// return locale category mask and construct standard facet

  00000	55		 push	 ebp
  00001	8b ec		 mov	 ebp, esp
  00003	6a ff		 push	 -1
  00005	68 00 00 00 00	 push	 __ehhandler$?_Getcat@?$ctype@D@std@@SAIPAPBVfacet@locale@2@PBV42@@Z
  0000a	64 a1 00 00 00
	00		 mov	 eax, DWORD PTR fs:0
  00010	50		 push	 eax
  00011	83 ec 7c	 sub	 esp, 124		; 0000007cH
  00014	53		 push	 ebx
  00015	56		 push	 esi
  00016	57		 push	 edi
  00017	a1 00 00 00 00	 mov	 eax, DWORD PTR ___security_cookie
  0001c	33 c5		 xor	 eax, ebp
  0001e	50		 push	 eax
  0001f	8d 45 f4	 lea	 eax, DWORD PTR __$EHRec$[ebp]
  00022	64 a3 00 00 00
	00		 mov	 DWORD PTR fs:0, eax
  00028	c7 45 b0 00 00
	00 00		 mov	 DWORD PTR $T226689[ebp], 0

; 2372 : 		if (_Ppf != 0 && *_Ppf == 0)

  0002f	83 7d 08 00	 cmp	 DWORD PTR __Ppf$[ebp], 0
  00033	0f 84 a6 00 00
	00		 je	 $LN1@Getcat@2
  00039	8b 45 08	 mov	 eax, DWORD PTR __Ppf$[ebp]
  0003c	83 38 00	 cmp	 DWORD PTR [eax], 0
  0003f	0f 85 9a 00 00
	00		 jne	 $LN1@Getcat@2

; 2373 : 			*_Ppf = _NEW_CRT ctype<_Elem>(
; 2374 : 				_Locinfo(_Ploc->c_str()));

  00045	6a 18		 push	 24			; 00000018H
  00047	e8 00 00 00 00	 call	 ??2@YAPAXI@Z		; operator new
  0004c	83 c4 04	 add	 esp, 4
  0004f	89 45 88	 mov	 DWORD PTR $T226684[ebp], eax
  00052	c7 45 fc 00 00
	00 00		 mov	 DWORD PTR __$EHRec$[ebp+8], 0
  00059	83 7d 88 00	 cmp	 DWORD PTR $T226684[ebp], 0
  0005d	74 43		 je	 SHORT $LN4@Getcat@2
  0005f	6a 00		 push	 0
  00061	8b 4d 0c	 mov	 ecx, DWORD PTR __Ploc$[ebp]
  00064	e8 00 00 00 00	 call	 ?c_str@locale@std@@QBEPBDXZ ; std::locale::c_str
  00069	50		 push	 eax
  0006a	8d 4d 8c	 lea	 ecx, DWORD PTR $T226685[ebp]
  0006d	e8 00 00 00 00	 call	 ??0_Locinfo@std@@QAE@PBD@Z ; std::_Locinfo::_Locinfo
  00072	89 45 80	 mov	 DWORD PTR tv95[ebp], eax
  00075	8b 45 80	 mov	 eax, DWORD PTR tv95[ebp]
  00078	89 85 7c ff ff
	ff		 mov	 DWORD PTR tv91[ebp], eax
  0007e	c6 45 fc 01	 mov	 BYTE PTR __$EHRec$[ebp+8], 1
  00082	8b 4d b0	 mov	 ecx, DWORD PTR $T226689[ebp]
  00085	83 c9 01	 or	 ecx, 1
  00088	89 4d b0	 mov	 DWORD PTR $T226689[ebp], ecx
  0008b	8b 95 7c ff ff
	ff		 mov	 edx, DWORD PTR tv91[ebp]
  00091	52		 push	 edx
  00092	8b 4d 88	 mov	 ecx, DWORD PTR $T226684[ebp]
  00095	e8 00 00 00 00	 call	 ??0?$ctype@D@std@@QAE@ABV_Locinfo@1@I@Z ; std::ctype<char>::ctype<char>
  0009a	89 85 78 ff ff
	ff		 mov	 DWORD PTR tv85[ebp], eax
  000a0	eb 0a		 jmp	 SHORT $LN5@Getcat@2
$LN4@Getcat@2:
  000a2	c7 85 78 ff ff
	ff 00 00 00 00	 mov	 DWORD PTR tv85[ebp], 0
$LN5@Getcat@2:
  000ac	8b 85 78 ff ff
	ff		 mov	 eax, DWORD PTR tv85[ebp]
  000b2	89 45 84	 mov	 DWORD PTR $T226683[ebp], eax
  000b5	c7 45 fc 02 00
	00 00		 mov	 DWORD PTR __$EHRec$[ebp+8], 2
  000bc	8b 4d 08	 mov	 ecx, DWORD PTR __Ppf$[ebp]
  000bf	8b 55 84	 mov	 edx, DWORD PTR $T226683[ebp]
  000c2	89 11		 mov	 DWORD PTR [ecx], edx
  000c4	c7 45 fc ff ff
	ff ff		 mov	 DWORD PTR __$EHRec$[ebp+8], -1
  000cb	8b 45 b0	 mov	 eax, DWORD PTR $T226689[ebp]
  000ce	83 e0 01	 and	 eax, 1
  000d1	74 0c		 je	 SHORT $LN1@Getcat@2
  000d3	83 65 b0 fe	 and	 DWORD PTR $T226689[ebp], -2 ; fffffffeH
  000d7	8d 4d 8c	 lea	 ecx, DWORD PTR $T226685[ebp]
  000da	e8 00 00 00 00	 call	 ??1_Locinfo@std@@QAE@XZ	; std::_Locinfo::~_Locinfo
$LN1@Getcat@2:

; 2375 : 		return (_X_CTYPE);

  000df	b8 02 00 00 00	 mov	 eax, 2

; 2376 : 		}

  000e4	8b 4d f4	 mov	 ecx, DWORD PTR __$EHRec$[ebp]
  000e7	64 89 0d 00 00
	00 00		 mov	 DWORD PTR fs:0, ecx
  000ee	59		 pop	 ecx
  000ef	5f		 pop	 edi
  000f0	5e		 pop	 esi
  000f1	5b		 pop	 ebx
  000f2	8b e5		 mov	 esp, ebp
  000f4	5d		 pop	 ebp
  000f5	c3		 ret	 0
_TEXT	ENDS
;	COMDAT text$x
text$x	SEGMENT
__unwindfunclet$?_Getcat@?$ctype@D@std@@SAIPAPBVfacet@locale@2@PBV42@@Z$0:
  00000	8b 45 88	 mov	 eax, DWORD PTR $T226684[ebp]
  00003	50		 push	 eax
  00004	e8 00 00 00 00	 call	 ??3@YAXPAX@Z		; operator delete
  00009	59		 pop	 ecx
  0000a	c3		 ret	 0
__unwindfunclet$?_Getcat@?$ctype@D@std@@SAIPAPBVfacet@locale@2@PBV42@@Z$1:
  0000b	8b 45 b0	 mov	 eax, DWORD PTR $T226689[ebp]
  0000e	83 e0 01	 and	 eax, 1
  00011	0f 84 0c 00 00
	00		 je	 $LN8@Getcat@2
  00017	83 65 b0 fe	 and	 DWORD PTR $T226689[ebp], -2 ; fffffffeH
  0001b	8d 4d 8c	 lea	 ecx, DWORD PTR $T226685[ebp]
  0001e	e9 00 00 00 00	 jmp	 ??1_Locinfo@std@@QAE@XZ	; std::_Locinfo::~_Locinfo
$LN8@Getcat@2:
  00023	c3		 ret	 0
__ehhandler$?_Getcat@?$ctype@D@std@@SAIPAPBVfacet@locale@2@PBV42@@Z:
  00024	8b 54 24 08	 mov	 edx, DWORD PTR [esp+8]
  00028	8d 42 0c	 lea	 eax, DWORD PTR [edx+12]
  0002b	8b 8a 74 ff ff
	ff		 mov	 ecx, DWORD PTR [edx-140]
  00031	33 c8		 xor	 ecx, eax
  00033	e8 00 00 00 00	 call	 @__security_check_cookie@4
  00038	b8 00 00 00 00	 mov	 eax, OFFSET __ehfuncinfo$?_Getcat@?$ctype@D@std@@SAIPAPBVfacet@locale@2@PBV42@@Z
  0003d	e9 00 00 00 00	 jmp	 ___CxxFrameHandler3
text$x	ENDS
?_Getcat@?$ctype@D@std@@SAIPAPBVfacet@locale@2@PBV42@@Z ENDP ; std::ctype<char>::_Getcat
PUBLIC	??1ctype_base@std@@UAE@XZ			; std::ctype_base::~ctype_base
PUBLIC	?_Init@?$ctype@D@std@@IAEXABV_Locinfo@2@@Z	; std::ctype<char>::_Init
PUBLIC	??_7?$ctype@D@std@@6B@				; std::ctype<char>::`vftable'
PUBLIC	??0ctype_base@std@@QAE@I@Z			; std::ctype_base::ctype_base
PUBLIC	??_R4?$ctype@D@std@@6B@				; std::ctype<char>::`RTTI Complete Object Locator'
PUBLIC	??_R0?AV?$ctype@D@std@@@8			; std::ctype<char> `RTTI Type Descriptor'
PUBLIC	??_R3?$ctype@D@std@@8				; std::ctype<char>::`RTTI Class Hierarchy Descriptor'
PUBLIC	??_R2?$ctype@D@std@@8				; std::ctype<char>::`RTTI Base Class Array'
PUBLIC	??_R1A@?0A@EA@?$ctype@D@std@@8			; std::ctype<char>::`RTTI Base Class Descriptor at (0,-1,0,64)'
PUBLIC	??_R1A@?0A@EA@ctype_base@std@@8			; std::ctype_base::`RTTI Base Class Descriptor at (0,-1,0,64)'
PUBLIC	??_R0?AUctype_base@std@@@8			; std::ctype_base `RTTI Type Descriptor'
PUBLIC	??_R3ctype_base@std@@8				; std::ctype_base::`RTTI Class Hierarchy Descriptor'
PUBLIC	??_R2ctype_base@std@@8				; std::ctype_base::`RTTI Base Class Array'
PUBLIC	?do_tolower@?$ctype@D@std@@MBEPBDPADPBD@Z	; std::ctype<char>::do_tolower
PUBLIC	?do_tolower@?$ctype@D@std@@MBEDD@Z		; std::ctype<char>::do_tolower
PUBLIC	?do_toupper@?$ctype@D@std@@MBEPBDPADPBD@Z	; std::ctype<char>::do_toupper
PUBLIC	?do_toupper@?$ctype@D@std@@MBEDD@Z		; std::ctype<char>::do_toupper
PUBLIC	?do_widen@?$ctype@D@std@@MBEPBDPBD0PAD@Z	; std::ctype<char>::do_widen
PUBLIC	?do_widen@?$ctype@D@std@@MBEDD@Z		; std::ctype<char>::do_widen
PUBLIC	?do_narrow@?$ctype@D@std@@MBEPBDPBD0DPAD@Z	; std::ctype<char>::do_narrow
PUBLIC	?do_narrow@?$ctype@D@std@@MBEDDD@Z		; std::ctype<char>::do_narrow
EXTRN	??_E?$ctype@D@std@@MAEPAXI@Z:PROC		; std::ctype<char>::`vector deleting destructor'
;	COMDAT ??_R2ctype_base@std@@8
rdata$r	SEGMENT
??_R2ctype_base@std@@8 DD FLAT:??_R1A@?0A@EA@ctype_base@std@@8 ; std::ctype_base::`RTTI Base Class Array'
	DD	FLAT:??_R1A@?0A@EA@facet@locale@std@@8
rdata$r	ENDS
;	COMDAT ??_R3ctype_base@std@@8
rdata$r	SEGMENT
??_R3ctype_base@std@@8 DD 00H				; std::ctype_base::`RTTI Class Hierarchy Descriptor'
	DD	00H
	DD	02H
	DD	FLAT:??_R2ctype_base@std@@8
rdata$r	ENDS
;	COMDAT ??_R0?AUctype_base@std@@@8
_DATA	SEGMENT
??_R0?AUctype_base@std@@@8 DD FLAT:??_7type_info@@6B@	; std::ctype_base `RTTI Type Descriptor'
	DD	00H
	DB	'.?AUctype_base@std@@', 00H
_DATA	ENDS
;	COMDAT ??_R1A@?0A@EA@ctype_base@std@@8
rdata$r	SEGMENT
??_R1A@?0A@EA@ctype_base@std@@8 DD FLAT:??_R0?AUctype_base@std@@@8 ; std::ctype_base::`RTTI Base Class Descriptor at (0,-1,0,64)'
	DD	01H
	DD	00H
	DD	0ffffffffH
	DD	00H
	DD	040H
	DD	FLAT:??_R3ctype_base@std@@8
rdata$r	ENDS
;	COMDAT ??_R1A@?0A@EA@?$ctype@D@std@@8
rdata$r	SEGMENT
??_R1A@?0A@EA@?$ctype@D@std@@8 DD FLAT:??_R0?AV?$ctype@D@std@@@8 ; std::ctype<char>::`RTTI Base Class Descriptor at (0,-1,0,64)'
	DD	02H
	DD	00H
	DD	0ffffffffH
	DD	00H
	DD	040H
	DD	FLAT:??_R3?$ctype@D@std@@8
rdata$r	ENDS
;	COMDAT ??_R2?$ctype@D@std@@8
rdata$r	SEGMENT
??_R2?$ctype@D@std@@8 DD FLAT:??_R1A@?0A@EA@?$ctype@D@std@@8 ; std::ctype<char>::`RTTI Base Class Array'
	DD	FLAT:??_R1A@?0A@EA@ctype_base@std@@8
	DD	FLAT:??_R1A@?0A@EA@facet@locale@std@@8
rdata$r	ENDS
;	COMDAT ??_R3?$ctype@D@std@@8
rdata$r	SEGMENT
??_R3?$ctype@D@std@@8 DD 00H				; std::ctype<char>::`RTTI Class Hierarchy Descriptor'
	DD	00H
	DD	03H
	DD	FLAT:??_R2?$ctype@D@std@@8
rdata$r	ENDS
;	COMDAT ??_R0?AV?$ctype@D@std@@@8
_DATA	SEGMENT
??_R0?AV?$ctype@D@std@@@8 DD FLAT:??_7type_info@@6B@	; std::ctype<char> `RTTI Type Descriptor'
	DD	00H
	DB	'.?AV?$ctype@D@std@@', 00H
_DATA	ENDS
;	COMDAT ??_R4?$ctype@D@std@@6B@
rdata$r	SEGMENT
??_R4?$ctype@D@std@@6B@ DD 00H				; std::ctype<char>::`RTTI Complete Object Locator'
	DD	00H
	DD	00H
	DD	FLAT:??_R0?AV?$ctype@D@std@@@8
	DD	FLAT:??_R3?$ctype@D@std@@8
rdata$r	ENDS
;	COMDAT ??_7?$ctype@D@std@@6B@
CONST	SEGMENT
??_7?$ctype@D@std@@6B@ DD FLAT:??_R4?$ctype@D@std@@6B@	; std::ctype<char>::`vftable'
	DD	FLAT:??_E?$ctype@D@std@@MAEPAXI@Z
	DD	FLAT:?do_tolower@?$ctype@D@std@@MBEPBDPADPBD@Z
	DD	FLAT:?do_tolower@?$ctype@D@std@@MBEDD@Z
	DD	FLAT:?do_toupper@?$ctype@D@std@@MBEPBDPADPBD@Z
	DD	FLAT:?do_toupper@?$ctype@D@std@@MBEDD@Z
	DD	FLAT:?do_widen@?$ctype@D@std@@MBEPBDPBD0PAD@Z
	DD	FLAT:?do_widen@?$ctype@D@std@@MBEDD@Z
	DD	FLAT:?do_narrow@?$ctype@D@std@@MBEPBDPBD0DPAD@Z
	DD	FLAT:?do_narrow@?$ctype@D@std@@MBEDDD@Z
CONST	ENDS
;	COMDAT xdata$x
xdata$x	SEGMENT
__unwindtable$??0?$ctype@D@std@@QAE@ABV_Locinfo@1@I@Z DD 0ffffffffH
	DD	FLAT:__unwindfunclet$??0?$ctype@D@std@@QAE@ABV_Locinfo@1@I@Z$0
__ehfuncinfo$??0?$ctype@D@std@@QAE@ABV_Locinfo@1@I@Z DD 019930522H
	DD	01H
	DD	FLAT:__unwindtable$??0?$ctype@D@std@@QAE@ABV_Locinfo@1@I@Z
	DD	2 DUP(00H)
	DD	2 DUP(00H)
	DD	00H
	DD	01H
; Function compile flags: /Odtp /ZI
xdata$x	ENDS
;	COMDAT ??0?$ctype@D@std@@QAE@ABV_Locinfo@1@I@Z
_TEXT	SEGMENT
_this$ = -16						; size = 4
__$EHRec$ = -12						; size = 12
__Lobj$ = 8						; size = 4
__Refs$ = 12						; size = 4
??0?$ctype@D@std@@QAE@ABV_Locinfo@1@I@Z PROC		; std::ctype<char>::ctype<char>, COMDAT
; _this$ = ecx

; 2365 : 		{	// construct from current locale

  00000	55		 push	 ebp
  00001	8b ec		 mov	 ebp, esp
  00003	6a ff		 push	 -1
  00005	68 00 00 00 00	 push	 __ehhandler$??0?$ctype@D@std@@QAE@ABV_Locinfo@1@I@Z
  0000a	64 a1 00 00 00
	00		 mov	 eax, DWORD PTR fs:0
  00010	50		 push	 eax
  00011	83 ec 44	 sub	 esp, 68			; 00000044H
  00014	53		 push	 ebx
  00015	56		 push	 esi
  00016	57		 push	 edi
  00017	a1 00 00 00 00	 mov	 eax, DWORD PTR ___security_cookie
  0001c	33 c5		 xor	 eax, ebp
  0001e	50		 push	 eax
  0001f	8d 45 f4	 lea	 eax, DWORD PTR __$EHRec$[ebp]
  00022	64 a3 00 00 00
	00		 mov	 DWORD PTR fs:0, eax
  00028	89 4d f0	 mov	 DWORD PTR _this$[ebp], ecx
  0002b	8b 45 0c	 mov	 eax, DWORD PTR __Refs$[ebp]
  0002e	50		 push	 eax
  0002f	8b 4d f0	 mov	 ecx, DWORD PTR _this$[ebp]
  00032	e8 00 00 00 00	 call	 ??0ctype_base@std@@QAE@I@Z ; std::ctype_base::ctype_base
  00037	c7 45 fc 00 00
	00 00		 mov	 DWORD PTR __$EHRec$[ebp+8], 0
  0003e	8b 45 f0	 mov	 eax, DWORD PTR _this$[ebp]
  00041	c7 00 00 00 00
	00		 mov	 DWORD PTR [eax], OFFSET ??_7?$ctype@D@std@@6B@

; 2366 : 		_Init(_Lobj);

  00047	8b 45 08	 mov	 eax, DWORD PTR __Lobj$[ebp]
  0004a	50		 push	 eax
  0004b	8b 4d f0	 mov	 ecx, DWORD PTR _this$[ebp]
  0004e	e8 00 00 00 00	 call	 ?_Init@?$ctype@D@std@@IAEXABV_Locinfo@2@@Z ; std::ctype<char>::_Init

; 2367 : 		}

  00053	c7 45 fc ff ff
	ff ff		 mov	 DWORD PTR __$EHRec$[ebp+8], -1
  0005a	8b 45 f0	 mov	 eax, DWORD PTR _this$[ebp]
  0005d	8b 4d f4	 mov	 ecx, DWORD PTR __$EHRec$[ebp]
  00060	64 89 0d 00 00
	00 00		 mov	 DWORD PTR fs:0, ecx
  00067	59		 pop	 ecx
  00068	5f		 pop	 edi
  00069	5e		 pop	 esi
  0006a	5b		 pop	 ebx
  0006b	8b e5		 mov	 esp, ebp
  0006d	5d		 pop	 ebp
  0006e	c2 08 00	 ret	 8
_TEXT	ENDS
;	COMDAT text$x
text$x	SEGMENT
__unwindfunclet$??0?$ctype@D@std@@QAE@ABV_Locinfo@1@I@Z$0:
  00000	8b 4d f0	 mov	 ecx, DWORD PTR _this$[ebp]
  00003	e9 00 00 00 00	 jmp	 ??1ctype_base@std@@UAE@XZ ; std::ctype_base::~ctype_base
__ehhandler$??0?$ctype@D@std@@QAE@ABV_Locinfo@1@I@Z:
  00008	8b 54 24 08	 mov	 edx, DWORD PTR [esp+8]
  0000c	8d 42 0c	 lea	 eax, DWORD PTR [edx+12]
  0000f	8b 4a ac	 mov	 ecx, DWORD PTR [edx-84]
  00012	33 c8		 xor	 ecx, eax
  00014	e8 00 00 00 00	 call	 @__security_check_cookie@4
  00019	b8 00 00 00 00	 mov	 eax, OFFSET __ehfuncinfo$??0?$ctype@D@std@@QAE@ABV_Locinfo@1@I@Z
  0001e	e9 00 00 00 00	 jmp	 ___CxxFrameHandler3
text$x	ENDS
??0?$ctype@D@std@@QAE@ABV_Locinfo@1@I@Z ENDP		; std::ctype<char>::ctype<char>
PUBLIC	??_7ctype_base@std@@6B@				; std::ctype_base::`vftable'
PUBLIC	??_R4ctype_base@std@@6B@			; std::ctype_base::`RTTI Complete Object Locator'
EXTRN	??_Ectype_base@std@@UAEPAXI@Z:PROC		; std::ctype_base::`vector deleting destructor'
;	COMDAT ??_R4ctype_base@std@@6B@
rdata$r	SEGMENT
??_R4ctype_base@std@@6B@ DD 00H				; std::ctype_base::`RTTI Complete Object Locator'
	DD	00H
	DD	00H
	DD	FLAT:??_R0?AUctype_base@std@@@8
	DD	FLAT:??_R3ctype_base@std@@8
rdata$r	ENDS
;	COMDAT ??_7ctype_base@std@@6B@
CONST	SEGMENT
??_7ctype_base@std@@6B@ DD FLAT:??_R4ctype_base@std@@6B@ ; std::ctype_base::`vftable'
	DD	FLAT:??_Ectype_base@std@@UAEPAXI@Z
; Function compile flags: /Odtp /ZI
CONST	ENDS
;	COMDAT ??0ctype_base@std@@QAE@I@Z
_TEXT	SEGMENT
_this$ = -4						; size = 4
__Refs$ = 8						; size = 4
??0ctype_base@std@@QAE@I@Z PROC				; std::ctype_base::ctype_base, COMDAT
; _this$ = ecx

; 2011 : 		{	// default constructor

  00000	55		 push	 ebp
  00001	8b ec		 mov	 ebp, esp
  00003	83 ec 44	 sub	 esp, 68			; 00000044H
  00006	53		 push	 ebx
  00007	56		 push	 esi
  00008	57		 push	 edi
  00009	89 4d fc	 mov	 DWORD PTR _this$[ebp], ecx
  0000c	8b 45 08	 mov	 eax, DWORD PTR __Refs$[ebp]
  0000f	50		 push	 eax
  00010	8b 4d fc	 mov	 ecx, DWORD PTR _this$[ebp]
  00013	e8 00 00 00 00	 call	 ??0facet@locale@std@@IAE@I@Z ; std::locale::facet::facet
  00018	8b 45 fc	 mov	 eax, DWORD PTR _this$[ebp]
  0001b	c7 00 00 00 00
	00		 mov	 DWORD PTR [eax], OFFSET ??_7ctype_base@std@@6B@

; 2012 : 		}

  00021	8b 45 fc	 mov	 eax, DWORD PTR _this$[ebp]
  00024	5f		 pop	 edi
  00025	5e		 pop	 esi
  00026	5b		 pop	 ebx
  00027	8b e5		 mov	 esp, ebp
  00029	5d		 pop	 ebp
  0002a	c2 04 00	 ret	 4
??0ctype_base@std@@QAE@I@Z ENDP				; std::ctype_base::ctype_base
; Function compile flags: /Odtp /ZI
_TEXT	ENDS
;	COMDAT ??1ctype_base@std@@UAE@XZ
_TEXT	SEGMENT
_this$ = -4						; size = 4
??1ctype_base@std@@UAE@XZ PROC				; std::ctype_base::~ctype_base, COMDAT
; _this$ = ecx

; 2015 : 		{	// destroy the object

  00000	55		 push	 ebp
  00001	8b ec		 mov	 ebp, esp
  00003	83 ec 44	 sub	 esp, 68			; 00000044H
  00006	53		 push	 ebx
  00007	56		 push	 esi
  00008	57		 push	 edi
  00009	89 4d fc	 mov	 DWORD PTR _this$[ebp], ecx
  0000c	8b 45 fc	 mov	 eax, DWORD PTR _this$[ebp]
  0000f	c7 00 00 00 00
	00		 mov	 DWORD PTR [eax], OFFSET ??_7ctype_base@std@@6B@

; 2016 : 		}

  00015	8b 4d fc	 mov	 ecx, DWORD PTR _this$[ebp]
  00018	e8 00 00 00 00	 call	 ??1facet@locale@std@@UAE@XZ ; std::locale::facet::~facet
  0001d	5f		 pop	 edi
  0001e	5e		 pop	 esi
  0001f	5b		 pop	 ebx
  00020	8b e5		 mov	 esp, ebp
  00022	5d		 pop	 ebp
  00023	c3		 ret	 0
??1ctype_base@std@@UAE@XZ ENDP				; std::ctype_base::~ctype_base
; Function compile flags: /Odtp /ZI
_TEXT	ENDS
;	COMDAT ??_Gctype_base@std@@UAEPAXI@Z
_TEXT	SEGMENT
_this$ = -4						; size = 4
___flags$ = 8						; size = 4
??_Gctype_base@std@@UAEPAXI@Z PROC			; std::ctype_base::`scalar deleting destructor', COMDAT
; _this$ = ecx
  00000	55		 push	 ebp
  00001	8b ec		 mov	 ebp, esp
  00003	83 ec 44	 sub	 esp, 68			; 00000044H
  00006	53		 push	 ebx
  00007	56		 push	 esi
  00008	57		 push	 edi
  00009	89 4d fc	 mov	 DWORD PTR _this$[ebp], ecx
  0000c	8b 4d fc	 mov	 ecx, DWORD PTR _this$[ebp]
  0000f	e8 00 00 00 00	 call	 ??1ctype_base@std@@UAE@XZ ; std::ctype_base::~ctype_base
  00014	8b 45 08	 mov	 eax, DWORD PTR ___flags$[ebp]
  00017	83 e0 01	 and	 eax, 1
  0001a	74 0c		 je	 SHORT $LN1@scalar@14
  0001c	8b 45 fc	 mov	 eax, DWORD PTR _this$[ebp]
  0001f	50		 push	 eax
  00020	e8 00 00 00 00	 call	 ??3@YAXPAX@Z		; operator delete
  00025	83 c4 04	 add	 esp, 4
$LN1@scalar@14:
  00028	8b 45 fc	 mov	 eax, DWORD PTR _this$[ebp]
  0002b	5f		 pop	 edi
  0002c	5e		 pop	 esi
  0002d	5b		 pop	 ebx
  0002e	8b e5		 mov	 esp, ebp
  00030	5d		 pop	 ebp
  00031	c2 04 00	 ret	 4
??_Gctype_base@std@@UAEPAXI@Z ENDP			; std::ctype_base::`scalar deleting destructor'
_TEXT	ENDS
PUBLIC	?_Getctype@_Locinfo@std@@QBE?AU_Ctypevec@@XZ	; std::_Locinfo::_Getctype
; Function compile flags: /Odtp /ZI
;	COMDAT ?_Init@?$ctype@D@std@@IAEXABV_Locinfo@2@@Z
_TEXT	SEGMENT
$T226718 = -84						; size = 16
_this$ = -4						; size = 4
__Lobj$ = 8						; size = 4
?_Init@?$ctype@D@std@@IAEXABV_Locinfo@2@@Z PROC		; std::ctype<char>::_Init, COMDAT
; _this$ = ecx

; 2399 : 		{	// initialize from _Lobj

  00000	55		 push	 ebp
  00001	8b ec		 mov	 ebp, esp
  00003	83 ec 54	 sub	 esp, 84			; 00000054H
  00006	53		 push	 ebx
  00007	56		 push	 esi
  00008	57		 push	 edi
  00009	89 4d fc	 mov	 DWORD PTR _this$[ebp], ecx

; 2400 : 		_Ctype = _Lobj._Getctype();

  0000c	8d 45 ac	 lea	 eax, DWORD PTR $T226718[ebp]
  0000f	50		 push	 eax
  00010	8b 4d 08	 mov	 ecx, DWORD PTR __Lobj$[ebp]
  00013	e8 00 00 00 00	 call	 ?_Getctype@_Locinfo@std@@QBE?AU_Ctypevec@@XZ ; std::_Locinfo::_Getctype
  00018	8b 4d fc	 mov	 ecx, DWORD PTR _this$[ebp]
  0001b	83 c1 08	 add	 ecx, 8
  0001e	8b 10		 mov	 edx, DWORD PTR [eax]
  00020	89 11		 mov	 DWORD PTR [ecx], edx
  00022	8b 50 04	 mov	 edx, DWORD PTR [eax+4]
  00025	89 51 04	 mov	 DWORD PTR [ecx+4], edx
  00028	8b 50 08	 mov	 edx, DWORD PTR [eax+8]
  0002b	89 51 08	 mov	 DWORD PTR [ecx+8], edx
  0002e	8b 40 0c	 mov	 eax, DWORD PTR [eax+12]
  00031	89 41 0c	 mov	 DWORD PTR [ecx+12], eax

; 2401 : 		}

  00034	5f		 pop	 edi
  00035	5e		 pop	 esi
  00036	5b		 pop	 ebx
  00037	8b e5		 mov	 esp, ebp
  00039	5d		 pop	 ebp
  0003a	c2 04 00	 ret	 4
?_Init@?$ctype@D@std@@IAEXABV_Locinfo@2@@Z ENDP		; std::ctype<char>::_Init
_TEXT	ENDS
EXTRN	__Getctype:PROC
; Function compile flags: /Odtp /ZI
; File d:\microsoft visual studio 10.0\vc\include\xlocinfo
;	COMDAT ?_Getctype@_Locinfo@std@@QBE?AU_Ctypevec@@XZ
_TEXT	SEGMENT
$T226721 = -100						; size = 16
$T226722 = -84						; size = 16
_this$ = -4						; size = 4
___$ReturnUdt$ = 8					; size = 4
?_Getctype@_Locinfo@std@@QBE?AU_Ctypevec@@XZ PROC	; std::_Locinfo::_Getctype, COMDAT
; _this$ = ecx

; 117  : 		{	// return ctype stuff

  00000	55		 push	 ebp
  00001	8b ec		 mov	 ebp, esp
  00003	83 ec 64	 sub	 esp, 100		; 00000064H
  00006	53		 push	 ebx
  00007	56		 push	 esi
  00008	57		 push	 edi
  00009	89 4d fc	 mov	 DWORD PTR _this$[ebp], ecx

; 118  : 		return (::_Getctype());

  0000c	8d 45 ac	 lea	 eax, DWORD PTR $T226722[ebp]
  0000f	50		 push	 eax
  00010	e8 00 00 00 00	 call	 __Getctype
  00015	83 c4 04	 add	 esp, 4
  00018	8b 08		 mov	 ecx, DWORD PTR [eax]
  0001a	89 4d 9c	 mov	 DWORD PTR $T226721[ebp], ecx
  0001d	8b 50 04	 mov	 edx, DWORD PTR [eax+4]
  00020	89 55 a0	 mov	 DWORD PTR $T226721[ebp+4], edx
  00023	8b 48 08	 mov	 ecx, DWORD PTR [eax+8]
  00026	89 4d a4	 mov	 DWORD PTR $T226721[ebp+8], ecx
  00029	8b 50 0c	 mov	 edx, DWORD PTR [eax+12]
  0002c	89 55 a8	 mov	 DWORD PTR $T226721[ebp+12], edx
  0002f	8b 45 08	 mov	 eax, DWORD PTR ___$ReturnUdt$[ebp]
  00032	8b 4d 9c	 mov	 ecx, DWORD PTR $T226721[ebp]
  00035	89 08		 mov	 DWORD PTR [eax], ecx
  00037	8b 55 a0	 mov	 edx, DWORD PTR $T226721[ebp+4]
  0003a	89 50 04	 mov	 DWORD PTR [eax+4], edx
  0003d	8b 4d a4	 mov	 ecx, DWORD PTR $T226721[ebp+8]
  00040	89 48 08	 mov	 DWORD PTR [eax+8], ecx
  00043	8b 55 a8	 mov	 edx, DWORD PTR $T226721[ebp+12]
  00046	89 50 0c	 mov	 DWORD PTR [eax+12], edx
  00049	8b 45 08	 mov	 eax, DWORD PTR ___$ReturnUdt$[ebp]

; 119  : 		}

  0004c	5f		 pop	 edi
  0004d	5e		 pop	 esi
  0004e	5b		 pop	 ebx
  0004f	8b e5		 mov	 esp, ebp
  00051	5d		 pop	 ebp
  00052	c2 04 00	 ret	 4
?_Getctype@_Locinfo@std@@QBE?AU_Ctypevec@@XZ ENDP	; std::_Locinfo::_Getctype
_TEXT	ENDS
EXTRN	__Tolower:PROC
; Function compile flags: /Odtp /ZI
; File d:\microsoft visual studio 10.0\vc\include\xlocale
;	COMDAT ?do_tolower@?$ctype@D@std@@MBEDD@Z
_TEXT	SEGMENT
_this$ = -4						; size = 4
__Ch$ = 8						; size = 1
?do_tolower@?$ctype@D@std@@MBEDD@Z PROC			; std::ctype<char>::do_tolower, COMDAT
; _this$ = ecx

; 2412 : 		{	// convert element to lower case

  00000	55		 push	 ebp
  00001	8b ec		 mov	 ebp, esp
  00003	83 ec 44	 sub	 esp, 68			; 00000044H
  00006	53		 push	 ebx
  00007	56		 push	 esi
  00008	57		 push	 edi
  00009	89 4d fc	 mov	 DWORD PTR _this$[ebp], ecx

; 2413 : 		return ((_Elem)_Tolower((unsigned char)_Ch, &_Ctype));

  0000c	8b 45 fc	 mov	 eax, DWORD PTR _this$[ebp]
  0000f	83 c0 08	 add	 eax, 8
  00012	50		 push	 eax
  00013	0f b6 4d 08	 movzx	 ecx, BYTE PTR __Ch$[ebp]
  00017	51		 push	 ecx
  00018	e8 00 00 00 00	 call	 __Tolower
  0001d	83 c4 08	 add	 esp, 8

; 2414 : 		}

  00020	5f		 pop	 edi
  00021	5e		 pop	 esi
  00022	5b		 pop	 ebx
  00023	8b e5		 mov	 esp, ebp
  00025	5d		 pop	 ebp
  00026	c2 04 00	 ret	 4
?do_tolower@?$ctype@D@std@@MBEDD@Z ENDP			; std::ctype<char>::do_tolower
; Function compile flags: /Odtp /ZI
_TEXT	ENDS
;	COMDAT ?do_tolower@?$ctype@D@std@@MBEPBDPADPBD@Z
_TEXT	SEGMENT
_this$ = -4						; size = 4
__First$ = 8						; size = 4
__Last$ = 12						; size = 4
?do_tolower@?$ctype@D@std@@MBEPBDPADPBD@Z PROC		; std::ctype<char>::do_tolower, COMDAT
; _this$ = ecx

; 2418 : 		{	// convert [_First, _Last) in place to lower case

  00000	55		 push	 ebp
  00001	8b ec		 mov	 ebp, esp
  00003	83 ec 44	 sub	 esp, 68			; 00000044H
  00006	53		 push	 ebx
  00007	56		 push	 esi
  00008	57		 push	 edi
  00009	89 4d fc	 mov	 DWORD PTR _this$[ebp], ecx

; 2419 : 		_DEBUG_RANGE((const _Elem *)_First, _Last);
; 2420 : 		for (; _First != _Last; ++_First)

  0000c	eb 09		 jmp	 SHORT $LN3@do_tolower
$LN2@do_tolower:
  0000e	8b 45 08	 mov	 eax, DWORD PTR __First$[ebp]
  00011	83 c0 01	 add	 eax, 1
  00014	89 45 08	 mov	 DWORD PTR __First$[ebp], eax
$LN3@do_tolower:
  00017	8b 45 08	 mov	 eax, DWORD PTR __First$[ebp]
  0001a	3b 45 0c	 cmp	 eax, DWORD PTR __Last$[ebp]
  0001d	74 1d		 je	 SHORT $LN1@do_tolower

; 2421 : 			*_First = (_Elem)_Tolower((unsigned char)*_First, &_Ctype);

  0001f	8b 45 fc	 mov	 eax, DWORD PTR _this$[ebp]
  00022	83 c0 08	 add	 eax, 8
  00025	50		 push	 eax
  00026	8b 4d 08	 mov	 ecx, DWORD PTR __First$[ebp]
  00029	0f b6 11	 movzx	 edx, BYTE PTR [ecx]
  0002c	52		 push	 edx
  0002d	e8 00 00 00 00	 call	 __Tolower
  00032	83 c4 08	 add	 esp, 8
  00035	8b 4d 08	 mov	 ecx, DWORD PTR __First$[ebp]
  00038	88 01		 mov	 BYTE PTR [ecx], al
  0003a	eb d2		 jmp	 SHORT $LN2@do_tolower
$LN1@do_tolower:

; 2422 : 		return ((const _Elem *)_First);

  0003c	8b 45 08	 mov	 eax, DWORD PTR __First$[ebp]

; 2423 : 		}

  0003f	5f		 pop	 edi
  00040	5e		 pop	 esi
  00041	5b		 pop	 ebx
  00042	8b e5		 mov	 esp, ebp
  00044	5d		 pop	 ebp
  00045	c2 08 00	 ret	 8
?do_tolower@?$ctype@D@std@@MBEPBDPADPBD@Z ENDP		; std::ctype<char>::do_tolower
_TEXT	ENDS
EXTRN	__Toupper:PROC
; Function compile flags: /Odtp /ZI
;	COMDAT ?do_toupper@?$ctype@D@std@@MBEDD@Z
_TEXT	SEGMENT
_this$ = -4						; size = 4
__Ch$ = 8						; size = 1
?do_toupper@?$ctype@D@std@@MBEDD@Z PROC			; std::ctype<char>::do_toupper, COMDAT
; _this$ = ecx

; 2426 : 		{	// convert element to upper case

  00000	55		 push	 ebp
  00001	8b ec		 mov	 ebp, esp
  00003	83 ec 44	 sub	 esp, 68			; 00000044H
  00006	53		 push	 ebx
  00007	56		 push	 esi
  00008	57		 push	 edi
  00009	89 4d fc	 mov	 DWORD PTR _this$[ebp], ecx

; 2427 : 		return ((_Elem)_Toupper((unsigned char)_Ch, &_Ctype));

  0000c	8b 45 fc	 mov	 eax, DWORD PTR _this$[ebp]
  0000f	83 c0 08	 add	 eax, 8
  00012	50		 push	 eax
  00013	0f b6 4d 08	 movzx	 ecx, BYTE PTR __Ch$[ebp]
  00017	51		 push	 ecx
  00018	e8 00 00 00 00	 call	 __Toupper
  0001d	83 c4 08	 add	 esp, 8

; 2428 : 		}

  00020	5f		 pop	 edi
  00021	5e		 pop	 esi
  00022	5b		 pop	 ebx
  00023	8b e5		 mov	 esp, ebp
  00025	5d		 pop	 ebp
  00026	c2 04 00	 ret	 4
?do_toupper@?$ctype@D@std@@MBEDD@Z ENDP			; std::ctype<char>::do_toupper
; Function compile flags: /Odtp /ZI
_TEXT	ENDS
;	COMDAT ?do_toupper@?$ctype@D@std@@MBEPBDPADPBD@Z
_TEXT	SEGMENT
_this$ = -4						; size = 4
__First$ = 8						; size = 4
__Last$ = 12						; size = 4
?do_toupper@?$ctype@D@std@@MBEPBDPADPBD@Z PROC		; std::ctype<char>::do_toupper, COMDAT
; _this$ = ecx

; 2432 : 		{	// convert [_First, _Last) in place to upper case

  00000	55		 push	 ebp
  00001	8b ec		 mov	 ebp, esp
  00003	83 ec 44	 sub	 esp, 68			; 00000044H
  00006	53		 push	 ebx
  00007	56		 push	 esi
  00008	57		 push	 edi
  00009	89 4d fc	 mov	 DWORD PTR _this$[ebp], ecx

; 2433 : 		_DEBUG_RANGE((const _Elem *)_First, _Last);
; 2434 : 		for (; _First != _Last; ++_First)

  0000c	eb 09		 jmp	 SHORT $LN3@do_toupper
$LN2@do_toupper:
  0000e	8b 45 08	 mov	 eax, DWORD PTR __First$[ebp]
  00011	83 c0 01	 add	 eax, 1
  00014	89 45 08	 mov	 DWORD PTR __First$[ebp], eax
$LN3@do_toupper:
  00017	8b 45 08	 mov	 eax, DWORD PTR __First$[ebp]
  0001a	3b 45 0c	 cmp	 eax, DWORD PTR __Last$[ebp]
  0001d	74 1d		 je	 SHORT $LN1@do_toupper

; 2435 : 			*_First = (_Elem)_Toupper((unsigned char)*_First, &_Ctype);

  0001f	8b 45 fc	 mov	 eax, DWORD PTR _this$[ebp]
  00022	83 c0 08	 add	 eax, 8
  00025	50		 push	 eax
  00026	8b 4d 08	 mov	 ecx, DWORD PTR __First$[ebp]
  00029	0f b6 11	 movzx	 edx, BYTE PTR [ecx]
  0002c	52		 push	 edx
  0002d	e8 00 00 00 00	 call	 __Toupper
  00032	83 c4 08	 add	 esp, 8
  00035	8b 4d 08	 mov	 ecx, DWORD PTR __First$[ebp]
  00038	88 01		 mov	 BYTE PTR [ecx], al
  0003a	eb d2		 jmp	 SHORT $LN2@do_toupper
$LN1@do_toupper:

; 2436 : 		return ((const _Elem *)_First);

  0003c	8b 45 08	 mov	 eax, DWORD PTR __First$[ebp]

; 2437 : 		}

  0003f	5f		 pop	 edi
  00040	5e		 pop	 esi
  00041	5b		 pop	 ebx
  00042	8b e5		 mov	 esp, ebp
  00044	5d		 pop	 ebp
  00045	c2 08 00	 ret	 8
?do_toupper@?$ctype@D@std@@MBEPBDPADPBD@Z ENDP		; std::ctype<char>::do_toupper
; Function compile flags: /Odtp /ZI
_TEXT	ENDS
;	COMDAT ?do_widen@?$ctype@D@std@@MBEDD@Z
_TEXT	SEGMENT
_this$ = -4						; size = 4
__Byte$ = 8						; size = 1
?do_widen@?$ctype@D@std@@MBEDD@Z PROC			; std::ctype<char>::do_widen, COMDAT
; _this$ = ecx

; 2440 : 		{	// widen char

  00000	55		 push	 ebp
  00001	8b ec		 mov	 ebp, esp
  00003	83 ec 44	 sub	 esp, 68			; 00000044H
  00006	53		 push	 ebx
  00007	56		 push	 esi
  00008	57		 push	 edi
  00009	89 4d fc	 mov	 DWORD PTR _this$[ebp], ecx

; 2441 : 		return (_Byte);

  0000c	8a 45 08	 mov	 al, BYTE PTR __Byte$[ebp]

; 2442 : 		}

  0000f	5f		 pop	 edi
  00010	5e		 pop	 esi
  00011	5b		 pop	 ebx
  00012	8b e5		 mov	 esp, ebp
  00014	5d		 pop	 ebp
  00015	c2 04 00	 ret	 4
?do_widen@?$ctype@D@std@@MBEDD@Z ENDP			; std::ctype<char>::do_widen
; Function compile flags: /Odtp /ZI
_TEXT	ENDS
;	COMDAT ?do_widen@?$ctype@D@std@@MBEPBDPBD0PAD@Z
_TEXT	SEGMENT
_this$ = -4						; size = 4
__First$ = 8						; size = 4
__Last$ = 12						; size = 4
__Dest$ = 16						; size = 4
?do_widen@?$ctype@D@std@@MBEPBDPBD0PAD@Z PROC		; std::ctype<char>::do_widen, COMDAT
; _this$ = ecx

; 2446 : 		{	// widen chars in [_First, _Last)

  00000	55		 push	 ebp
  00001	8b ec		 mov	 ebp, esp
  00003	83 ec 44	 sub	 esp, 68			; 00000044H
  00006	53		 push	 ebx
  00007	56		 push	 esi
  00008	57		 push	 edi
  00009	89 4d fc	 mov	 DWORD PTR _this$[ebp], ecx

; 2447 : 		_DEBUG_RANGE(_First, _Last);
; 2448 : 		_DEBUG_POINTER(_Dest);
; 2449 : 		_CSTD memcpy(_Dest, _First, _Last - _First);

  0000c	8b 45 0c	 mov	 eax, DWORD PTR __Last$[ebp]
  0000f	2b 45 08	 sub	 eax, DWORD PTR __First$[ebp]
  00012	50		 push	 eax
  00013	8b 4d 08	 mov	 ecx, DWORD PTR __First$[ebp]
  00016	51		 push	 ecx
  00017	8b 55 10	 mov	 edx, DWORD PTR __Dest$[ebp]
  0001a	52		 push	 edx
  0001b	e8 00 00 00 00	 call	 _memcpy
  00020	83 c4 0c	 add	 esp, 12			; 0000000cH

; 2450 : 		return (_Last);

  00023	8b 45 0c	 mov	 eax, DWORD PTR __Last$[ebp]

; 2451 : 		}

  00026	5f		 pop	 edi
  00027	5e		 pop	 esi
  00028	5b		 pop	 ebx
  00029	8b e5		 mov	 esp, ebp
  0002b	5d		 pop	 ebp
  0002c	c2 0c 00	 ret	 12			; 0000000cH
?do_widen@?$ctype@D@std@@MBEPBDPBD0PAD@Z ENDP		; std::ctype<char>::do_widen
; Function compile flags: /Odtp /ZI
_TEXT	ENDS
;	COMDAT ?do_narrow@?$ctype@D@std@@MBEDDD@Z
_TEXT	SEGMENT
_this$ = -4						; size = 4
__Ch$ = 8						; size = 1
___formal$ = 12						; size = 1
?do_narrow@?$ctype@D@std@@MBEDDD@Z PROC			; std::ctype<char>::do_narrow, COMDAT
; _this$ = ecx

; 2454 : 		{	// narrow char

  00000	55		 push	 ebp
  00001	8b ec		 mov	 ebp, esp
  00003	83 ec 44	 sub	 esp, 68			; 00000044H
  00006	53		 push	 ebx
  00007	56		 push	 esi
  00008	57		 push	 edi
  00009	89 4d fc	 mov	 DWORD PTR _this$[ebp], ecx

; 2455 : 		return (_Ch);

  0000c	8a 45 08	 mov	 al, BYTE PTR __Ch$[ebp]

; 2456 : 		}

  0000f	5f		 pop	 edi
  00010	5e		 pop	 esi
  00011	5b		 pop	 ebx
  00012	8b e5		 mov	 esp, ebp
  00014	5d		 pop	 ebp
  00015	c2 08 00	 ret	 8
?do_narrow@?$ctype@D@std@@MBEDDD@Z ENDP			; std::ctype<char>::do_narrow
; Function compile flags: /Odtp /ZI
_TEXT	ENDS
;	COMDAT ?do_narrow@?$ctype@D@std@@MBEPBDPBD0DPAD@Z
_TEXT	SEGMENT
_this$ = -4						; size = 4
__First$ = 8						; size = 4
__Last$ = 12						; size = 4
___formal$ = 16						; size = 1
__Dest$ = 20						; size = 4
?do_narrow@?$ctype@D@std@@MBEPBDPBD0DPAD@Z PROC		; std::ctype<char>::do_narrow, COMDAT
; _this$ = ecx

; 2460 : 		{	// narrow elements in [_First, _Last) to chars

  00000	55		 push	 ebp
  00001	8b ec		 mov	 ebp, esp
  00003	83 ec 44	 sub	 esp, 68			; 00000044H
  00006	53		 push	 ebx
  00007	56		 push	 esi
  00008	57		 push	 edi
  00009	89 4d fc	 mov	 DWORD PTR _this$[ebp], ecx

; 2461 : 		_DEBUG_RANGE(_First, _Last);
; 2462 : 		_DEBUG_POINTER(_Dest);
; 2463 : 		_CSTD memcpy(_Dest, _First, _Last - _First);

  0000c	8b 45 0c	 mov	 eax, DWORD PTR __Last$[ebp]
  0000f	2b 45 08	 sub	 eax, DWORD PTR __First$[ebp]
  00012	50		 push	 eax
  00013	8b 4d 08	 mov	 ecx, DWORD PTR __First$[ebp]
  00016	51		 push	 ecx
  00017	8b 55 14	 mov	 edx, DWORD PTR __Dest$[ebp]
  0001a	52		 push	 edx
  0001b	e8 00 00 00 00	 call	 _memcpy
  00020	83 c4 0c	 add	 esp, 12			; 0000000cH

; 2464 : 		return (_Last);

  00023	8b 45 0c	 mov	 eax, DWORD PTR __Last$[ebp]

; 2465 : 		}

  00026	5f		 pop	 edi
  00027	5e		 pop	 esi
  00028	5b		 pop	 ebx
  00029	8b e5		 mov	 esp, ebp
  0002b	5d		 pop	 ebp
  0002c	c2 10 00	 ret	 16			; 00000010H
?do_narrow@?$ctype@D@std@@MBEPBDPBD0DPAD@Z ENDP		; std::ctype<char>::do_narrow
_TEXT	ENDS
PUBLIC	??1?$ctype@D@std@@MAE@XZ			; std::ctype<char>::~ctype<char>
; Function compile flags: /Odtp /ZI
;	COMDAT ??_G?$ctype@D@std@@MAEPAXI@Z
_TEXT	SEGMENT
_this$ = -4						; size = 4
___flags$ = 8						; size = 4
??_G?$ctype@D@std@@MAEPAXI@Z PROC			; std::ctype<char>::`scalar deleting destructor', COMDAT
; _this$ = ecx
  00000	55		 push	 ebp
  00001	8b ec		 mov	 ebp, esp
  00003	83 ec 44	 sub	 esp, 68			; 00000044H
  00006	53		 push	 ebx
  00007	56		 push	 esi
  00008	57		 push	 edi
  00009	89 4d fc	 mov	 DWORD PTR _this$[ebp], ecx
  0000c	8b 4d fc	 mov	 ecx, DWORD PTR _this$[ebp]
  0000f	e8 00 00 00 00	 call	 ??1?$ctype@D@std@@MAE@XZ ; std::ctype<char>::~ctype<char>
  00014	8b 45 08	 mov	 eax, DWORD PTR ___flags$[ebp]
  00017	83 e0 01	 and	 eax, 1
  0001a	74 0c		 je	 SHORT $LN1@scalar@15
  0001c	8b 45 fc	 mov	 eax, DWORD PTR _this$[ebp]
  0001f	50		 push	 eax
  00020	e8 00 00 00 00	 call	 ??3@YAXPAX@Z		; operator delete
  00025	83 c4 04	 add	 esp, 4
$LN1@scalar@15:
  00028	8b 45 fc	 mov	 eax, DWORD PTR _this$[ebp]
  0002b	5f		 pop	 edi
  0002c	5e		 pop	 esi
  0002d	5b		 pop	 ebx
  0002e	8b e5		 mov	 esp, ebp
  00030	5d		 pop	 ebp
  00031	c2 04 00	 ret	 4
??_G?$ctype@D@std@@MAEPAXI@Z ENDP			; std::ctype<char>::`scalar deleting destructor'
_TEXT	ENDS
PUBLIC	?_Tidy@?$ctype@D@std@@IAEXXZ			; std::ctype<char>::_Tidy
;	COMDAT xdata$x
xdata$x	SEGMENT
__unwindtable$??1?$ctype@D@std@@MAE@XZ DD 0ffffffffH
	DD	FLAT:__unwindfunclet$??1?$ctype@D@std@@MAE@XZ$0
__ehfuncinfo$??1?$ctype@D@std@@MAE@XZ DD 019930522H
	DD	01H
	DD	FLAT:__unwindtable$??1?$ctype@D@std@@MAE@XZ
	DD	2 DUP(00H)
	DD	2 DUP(00H)
	DD	00H
	DD	01H
; Function compile flags: /Odtp /ZI
xdata$x	ENDS
;	COMDAT ??1?$ctype@D@std@@MAE@XZ
_TEXT	SEGMENT
_this$ = -16						; size = 4
__$EHRec$ = -12						; size = 12
??1?$ctype@D@std@@MAE@XZ PROC				; std::ctype<char>::~ctype<char>, COMDAT
; _this$ = ecx

; 2394 : 		{	// destroy the object

  00000	55		 push	 ebp
  00001	8b ec		 mov	 ebp, esp
  00003	6a ff		 push	 -1
  00005	68 00 00 00 00	 push	 __ehhandler$??1?$ctype@D@std@@MAE@XZ
  0000a	64 a1 00 00 00
	00		 mov	 eax, DWORD PTR fs:0
  00010	50		 push	 eax
  00011	83 ec 44	 sub	 esp, 68			; 00000044H
  00014	53		 push	 ebx
  00015	56		 push	 esi
  00016	57		 push	 edi
  00017	a1 00 00 00 00	 mov	 eax, DWORD PTR ___security_cookie
  0001c	33 c5		 xor	 eax, ebp
  0001e	50		 push	 eax
  0001f	8d 45 f4	 lea	 eax, DWORD PTR __$EHRec$[ebp]
  00022	64 a3 00 00 00
	00		 mov	 DWORD PTR fs:0, eax
  00028	89 4d f0	 mov	 DWORD PTR _this$[ebp], ecx
  0002b	8b 45 f0	 mov	 eax, DWORD PTR _this$[ebp]
  0002e	c7 00 00 00 00
	00		 mov	 DWORD PTR [eax], OFFSET ??_7?$ctype@D@std@@6B@
  00034	c7 45 fc 00 00
	00 00		 mov	 DWORD PTR __$EHRec$[ebp+8], 0

; 2395 : 		_Tidy();

  0003b	8b 4d f0	 mov	 ecx, DWORD PTR _this$[ebp]
  0003e	e8 00 00 00 00	 call	 ?_Tidy@?$ctype@D@std@@IAEXXZ ; std::ctype<char>::_Tidy

; 2396 : 		}

  00043	c7 45 fc ff ff
	ff ff		 mov	 DWORD PTR __$EHRec$[ebp+8], -1
  0004a	8b 4d f0	 mov	 ecx, DWORD PTR _this$[ebp]
  0004d	e8 00 00 00 00	 call	 ??1ctype_base@std@@UAE@XZ ; std::ctype_base::~ctype_base
  00052	8b 4d f4	 mov	 ecx, DWORD PTR __$EHRec$[ebp]
  00055	64 89 0d 00 00
	00 00		 mov	 DWORD PTR fs:0, ecx
  0005c	59		 pop	 ecx
  0005d	5f		 pop	 edi
  0005e	5e		 pop	 esi
  0005f	5b		 pop	 ebx
  00060	8b e5		 mov	 esp, ebp
  00062	5d		 pop	 ebp
  00063	c3		 ret	 0
_TEXT	ENDS
;	COMDAT text$x
text$x	SEGMENT
__unwindfunclet$??1?$ctype@D@std@@MAE@XZ$0:
  00000	8b 4d f0	 mov	 ecx, DWORD PTR _this$[ebp]
  00003	e9 00 00 00 00	 jmp	 ??1ctype_base@std@@UAE@XZ ; std::ctype_base::~ctype_base
__ehhandler$??1?$ctype@D@std@@MAE@XZ:
  00008	8b 54 24 08	 mov	 edx, DWORD PTR [esp+8]
  0000c	8d 42 0c	 lea	 eax, DWORD PTR [edx+12]
  0000f	8b 4a ac	 mov	 ecx, DWORD PTR [edx-84]
  00012	33 c8		 xor	 ecx, eax
  00014	e8 00 00 00 00	 call	 @__security_check_cookie@4
  00019	b8 00 00 00 00	 mov	 eax, OFFSET __ehfuncinfo$??1?$ctype@D@std@@MAE@XZ
  0001e	e9 00 00 00 00	 jmp	 ___CxxFrameHandler3
text$x	ENDS
??1?$ctype@D@std@@MAE@XZ ENDP				; std::ctype<char>::~ctype<char>
EXTRN	??_V@YAXPAX@Z:PROC				; operator delete[]
; Function compile flags: /Odtp /ZI
;	COMDAT ?_Tidy@?$ctype@D@std@@IAEXXZ
_TEXT	SEGMENT
$T226752 = -72						; size = 4
_this$ = -4						; size = 4
?_Tidy@?$ctype@D@std@@IAEXXZ PROC			; std::ctype<char>::_Tidy, COMDAT
; _this$ = ecx

; 2404 : 		{	// free any allocated storage

  00000	55		 push	 ebp
  00001	8b ec		 mov	 ebp, esp
  00003	83 ec 48	 sub	 esp, 72			; 00000048H
  00006	53		 push	 ebx
  00007	56		 push	 esi
  00008	57		 push	 edi
  00009	89 4d fc	 mov	 DWORD PTR _this$[ebp], ecx

; 2405 : 		if (0 < _Ctype._Delfl)

  0000c	8b 45 fc	 mov	 eax, DWORD PTR _this$[ebp]
  0000f	83 78 14 00	 cmp	 DWORD PTR [eax+20], 0
  00013	7e 11		 jle	 SHORT $LN3@Tidy@3

; 2406 : 			free((void *)_Ctype._Table);

  00015	8b 45 fc	 mov	 eax, DWORD PTR _this$[ebp]
  00018	8b 48 10	 mov	 ecx, DWORD PTR [eax+16]
  0001b	51		 push	 ecx
  0001c	e8 00 00 00 00	 call	 _free
  00021	83 c4 04	 add	 esp, 4
  00024	eb 1e		 jmp	 SHORT $LN4@Tidy@3
$LN3@Tidy@3:

; 2407 : 		else if (_Ctype._Delfl < 0)

  00026	8b 45 fc	 mov	 eax, DWORD PTR _this$[ebp]
  00029	83 78 14 00	 cmp	 DWORD PTR [eax+20], 0
  0002d	7d 15		 jge	 SHORT $LN4@Tidy@3

; 2408 : 			delete[] (void *)_Ctype._Table;

  0002f	8b 45 fc	 mov	 eax, DWORD PTR _this$[ebp]
  00032	8b 48 10	 mov	 ecx, DWORD PTR [eax+16]
  00035	89 4d b8	 mov	 DWORD PTR $T226752[ebp], ecx
  00038	8b 55 b8	 mov	 edx, DWORD PTR $T226752[ebp]
  0003b	52		 push	 edx
  0003c	e8 00 00 00 00	 call	 ??_V@YAXPAX@Z		; operator delete[]
  00041	83 c4 04	 add	 esp, 4
$LN4@Tidy@3:

; 2409 : 		}

  00044	5f		 pop	 edi
  00045	5e		 pop	 esi
  00046	5b		 pop	 ebx
  00047	8b e5		 mov	 esp, ebp
  00049	5d		 pop	 ebp
  0004a	c3		 ret	 0
?_Tidy@?$ctype@D@std@@IAEXXZ ENDP			; std::ctype<char>::_Tidy
_TEXT	ENDS
PUBLIC	__TI2?AVbad_alloc@std@@
PUBLIC	??0bad_alloc@std@@QAE@PBD@Z			; std::bad_alloc::bad_alloc
PUBLIC	??1bad_alloc@std@@UAE@XZ			; std::bad_alloc::~bad_alloc
PUBLIC	__CTA2?AVbad_alloc@std@@
PUBLIC	__CT??_R0?AVbad_alloc@std@@@8??0bad_alloc@std@@QAE@ABV01@@Z12
PUBLIC	??_R0?AVbad_alloc@std@@@8			; std::bad_alloc `RTTI Type Descriptor'
PUBLIC	??0bad_alloc@std@@QAE@ABV01@@Z			; std::bad_alloc::bad_alloc
;	COMDAT ??_R0?AVbad_alloc@std@@@8
; File d:\microsoft visual studio 10.0\vc\include\xmemory
_DATA	SEGMENT
??_R0?AVbad_alloc@std@@@8 DD FLAT:??_7type_info@@6B@	; std::bad_alloc `RTTI Type Descriptor'
	DD	00H
	DB	'.?AVbad_alloc@std@@', 00H
_DATA	ENDS
;	COMDAT __CT??_R0?AVbad_alloc@std@@@8??0bad_alloc@std@@QAE@ABV01@@Z12
xdata$x	SEGMENT
__CT??_R0?AVbad_alloc@std@@@8??0bad_alloc@std@@QAE@ABV01@@Z12 DD 00H
	DD	FLAT:??_R0?AVbad_alloc@std@@@8
	DD	00H
	DD	0ffffffffH
	ORG $+4
	DD	0cH
	DD	FLAT:??0bad_alloc@std@@QAE@ABV01@@Z
xdata$x	ENDS
;	COMDAT __CTA2?AVbad_alloc@std@@
xdata$x	SEGMENT
__CTA2?AVbad_alloc@std@@ DD 02H
	DD	FLAT:__CT??_R0?AVbad_alloc@std@@@8??0bad_alloc@std@@QAE@ABV01@@Z12
	DD	FLAT:__CT??_R0?AVexception@std@@@8??0exception@std@@QAE@ABV01@@Z12
xdata$x	ENDS
;	COMDAT __TI2?AVbad_alloc@std@@
xdata$x	SEGMENT
__TI2?AVbad_alloc@std@@ DD 00H
	DD	FLAT:??1bad_alloc@std@@UAE@XZ
	DD	00H
	DD	FLAT:__CTA2?AVbad_alloc@std@@
; Function compile flags: /Odtp /ZI
xdata$x	ENDS
;	COMDAT ??$_Allocate@D@std@@YAPADIPAD@Z
_TEXT	SEGMENT
$T226755 = -80						; size = 12
__Ptr$ = -4						; size = 4
__Count$ = 8						; size = 4
___formal$ = 12						; size = 4
??$_Allocate@D@std@@YAPADIPAD@Z PROC			; std::_Allocate<char>, COMDAT

; 30   : 	{	// allocate storage for _Count elements of type _Ty

  00000	55		 push	 ebp
  00001	8b ec		 mov	 ebp, esp
  00003	83 ec 50	 sub	 esp, 80			; 00000050H
  00006	53		 push	 ebx
  00007	56		 push	 esi
  00008	57		 push	 edi

; 31   : 	void *_Ptr = 0;

  00009	c7 45 fc 00 00
	00 00		 mov	 DWORD PTR __Ptr$[ebp], 0

; 32   : 
; 33   : 	if (_Count <= 0)

  00010	83 7d 08 00	 cmp	 DWORD PTR __Count$[ebp], 0
  00014	77 09		 ja	 SHORT $LN4@Allocate

; 34   : 		_Count = 0;

  00016	c7 45 08 00 00
	00 00		 mov	 DWORD PTR __Count$[ebp], 0

; 35   : 	else if (((_SIZT)(-1) / sizeof (_Ty) < _Count)

  0001d	eb 33		 jmp	 SHORT $LN3@Allocate
$LN4@Allocate:

; 36   : 		|| (_Ptr = ::operator new(_Count * sizeof (_Ty))) == 0)

  0001f	83 7d 08 ff	 cmp	 DWORD PTR __Count$[ebp], -1
  00023	77 15		 ja	 SHORT $LN1@Allocate
  00025	8b 45 08	 mov	 eax, DWORD PTR __Count$[ebp]
  00028	50		 push	 eax
  00029	e8 00 00 00 00	 call	 ??2@YAPAXI@Z		; operator new
  0002e	83 c4 04	 add	 esp, 4
  00031	89 45 fc	 mov	 DWORD PTR __Ptr$[ebp], eax
  00034	83 7d fc 00	 cmp	 DWORD PTR __Ptr$[ebp], 0
  00038	75 18		 jne	 SHORT $LN3@Allocate
$LN1@Allocate:

; 37   : 		_THROW_NCEE(bad_alloc, 0);

  0003a	6a 00		 push	 0
  0003c	8d 4d b0	 lea	 ecx, DWORD PTR $T226755[ebp]
  0003f	e8 00 00 00 00	 call	 ??0bad_alloc@std@@QAE@PBD@Z ; std::bad_alloc::bad_alloc
  00044	68 00 00 00 00	 push	 OFFSET __TI2?AVbad_alloc@std@@
  00049	8d 45 b0	 lea	 eax, DWORD PTR $T226755[ebp]
  0004c	50		 push	 eax
  0004d	e8 00 00 00 00	 call	 __CxxThrowException@8
$LN3@Allocate:

; 38   : 
; 39   : 	return ((_Ty _FARQ *)_Ptr);

  00052	8b 45 fc	 mov	 eax, DWORD PTR __Ptr$[ebp]
$LN6@Allocate:

; 40   : 	}

  00055	5f		 pop	 edi
  00056	5e		 pop	 esi
  00057	5b		 pop	 ebx
  00058	8b e5		 mov	 esp, ebp
  0005a	5d		 pop	 ebp
  0005b	c3		 ret	 0
??$_Allocate@D@std@@YAPADIPAD@Z ENDP			; std::_Allocate<char>
_TEXT	ENDS
PUBLIC	??_7bad_alloc@std@@6B@				; std::bad_alloc::`vftable'
PUBLIC	??_R4bad_alloc@std@@6B@				; std::bad_alloc::`RTTI Complete Object Locator'
PUBLIC	??_R3bad_alloc@std@@8				; std::bad_alloc::`RTTI Class Hierarchy Descriptor'
PUBLIC	??_R2bad_alloc@std@@8				; std::bad_alloc::`RTTI Base Class Array'
PUBLIC	??_R1A@?0A@EA@bad_alloc@std@@8			; std::bad_alloc::`RTTI Base Class Descriptor at (0,-1,0,64)'
EXTRN	??_Ebad_alloc@std@@UAEPAXI@Z:PROC		; std::bad_alloc::`vector deleting destructor'
;	COMDAT ??_R1A@?0A@EA@bad_alloc@std@@8
; File d:\microsoft visual studio 10.0\vc\include\exception
rdata$r	SEGMENT
??_R1A@?0A@EA@bad_alloc@std@@8 DD FLAT:??_R0?AVbad_alloc@std@@@8 ; std::bad_alloc::`RTTI Base Class Descriptor at (0,-1,0,64)'
	DD	01H
	DD	00H
	DD	0ffffffffH
	DD	00H
	DD	040H
	DD	FLAT:??_R3bad_alloc@std@@8
rdata$r	ENDS
;	COMDAT ??_R2bad_alloc@std@@8
rdata$r	SEGMENT
??_R2bad_alloc@std@@8 DD FLAT:??_R1A@?0A@EA@bad_alloc@std@@8 ; std::bad_alloc::`RTTI Base Class Array'
	DD	FLAT:??_R1A@?0A@EA@exception@std@@8
rdata$r	ENDS
;	COMDAT ??_R3bad_alloc@std@@8
rdata$r	SEGMENT
??_R3bad_alloc@std@@8 DD 00H				; std::bad_alloc::`RTTI Class Hierarchy Descriptor'
	DD	00H
	DD	02H
	DD	FLAT:??_R2bad_alloc@std@@8
rdata$r	ENDS
;	COMDAT ??_R4bad_alloc@std@@6B@
rdata$r	SEGMENT
??_R4bad_alloc@std@@6B@ DD 00H				; std::bad_alloc::`RTTI Complete Object Locator'
	DD	00H
	DD	00H
	DD	FLAT:??_R0?AVbad_alloc@std@@@8
	DD	FLAT:??_R3bad_alloc@std@@8
rdata$r	ENDS
;	COMDAT ??_7bad_alloc@std@@6B@
CONST	SEGMENT
??_7bad_alloc@std@@6B@ DD FLAT:??_R4bad_alloc@std@@6B@	; std::bad_alloc::`vftable'
	DD	FLAT:??_Ebad_alloc@std@@UAEPAXI@Z
	DD	FLAT:?what@exception@std@@UBEPBDXZ
; Function compile flags: /Odtp /ZI
CONST	ENDS
;	COMDAT ??0bad_alloc@std@@QAE@PBD@Z
_TEXT	SEGMENT
_this$ = -4						; size = 4
__Message$ = 8						; size = 4
??0bad_alloc@std@@QAE@PBD@Z PROC			; std::bad_alloc::bad_alloc, COMDAT
; _this$ = ecx

; 345  : 		{	// construct from message string

  00000	55		 push	 ebp
  00001	8b ec		 mov	 ebp, esp
  00003	83 ec 44	 sub	 esp, 68			; 00000044H
  00006	53		 push	 ebx
  00007	56		 push	 esi
  00008	57		 push	 edi
  00009	89 4d fc	 mov	 DWORD PTR _this$[ebp], ecx
  0000c	8d 45 08	 lea	 eax, DWORD PTR __Message$[ebp]
  0000f	50		 push	 eax
  00010	8b 4d fc	 mov	 ecx, DWORD PTR _this$[ebp]
  00013	e8 00 00 00 00	 call	 ??0exception@std@@QAE@ABQBD@Z ; std::exception::exception
  00018	8b 45 fc	 mov	 eax, DWORD PTR _this$[ebp]
  0001b	c7 00 00 00 00
	00		 mov	 DWORD PTR [eax], OFFSET ??_7bad_alloc@std@@6B@

; 346  : 		}

  00021	8b 45 fc	 mov	 eax, DWORD PTR _this$[ebp]
  00024	5f		 pop	 edi
  00025	5e		 pop	 esi
  00026	5b		 pop	 ebx
  00027	8b e5		 mov	 esp, ebp
  00029	5d		 pop	 ebp
  0002a	c2 04 00	 ret	 4
??0bad_alloc@std@@QAE@PBD@Z ENDP			; std::bad_alloc::bad_alloc
; Function compile flags: /Odtp /ZI
_TEXT	ENDS
;	COMDAT ??1bad_alloc@std@@UAE@XZ
_TEXT	SEGMENT
_this$ = -4						; size = 4
??1bad_alloc@std@@UAE@XZ PROC				; std::bad_alloc::~bad_alloc, COMDAT
; _this$ = ecx

; 354  : 		{	// destroy the object

  00000	55		 push	 ebp
  00001	8b ec		 mov	 ebp, esp
  00003	83 ec 44	 sub	 esp, 68			; 00000044H
  00006	53		 push	 ebx
  00007	56		 push	 esi
  00008	57		 push	 edi
  00009	89 4d fc	 mov	 DWORD PTR _this$[ebp], ecx
  0000c	8b 45 fc	 mov	 eax, DWORD PTR _this$[ebp]
  0000f	c7 00 00 00 00
	00		 mov	 DWORD PTR [eax], OFFSET ??_7bad_alloc@std@@6B@

; 355  : 		}

  00015	8b 4d fc	 mov	 ecx, DWORD PTR _this$[ebp]
  00018	e8 00 00 00 00	 call	 ??1exception@std@@UAE@XZ ; std::exception::~exception
  0001d	5f		 pop	 edi
  0001e	5e		 pop	 esi
  0001f	5b		 pop	 ebx
  00020	8b e5		 mov	 esp, ebp
  00022	5d		 pop	 ebp
  00023	c3		 ret	 0
??1bad_alloc@std@@UAE@XZ ENDP				; std::bad_alloc::~bad_alloc
; Function compile flags: /Odtp /ZI
_TEXT	ENDS
;	COMDAT ??_Gbad_alloc@std@@UAEPAXI@Z
_TEXT	SEGMENT
_this$ = -4						; size = 4
___flags$ = 8						; size = 4
??_Gbad_alloc@std@@UAEPAXI@Z PROC			; std::bad_alloc::`scalar deleting destructor', COMDAT
; _this$ = ecx
  00000	55		 push	 ebp
  00001	8b ec		 mov	 ebp, esp
  00003	83 ec 44	 sub	 esp, 68			; 00000044H
  00006	53		 push	 ebx
  00007	56		 push	 esi
  00008	57		 push	 edi
  00009	89 4d fc	 mov	 DWORD PTR _this$[ebp], ecx
  0000c	8b 4d fc	 mov	 ecx, DWORD PTR _this$[ebp]
  0000f	e8 00 00 00 00	 call	 ??1bad_alloc@std@@UAE@XZ ; std::bad_alloc::~bad_alloc
  00014	8b 45 08	 mov	 eax, DWORD PTR ___flags$[ebp]
  00017	83 e0 01	 and	 eax, 1
  0001a	74 0c		 je	 SHORT $LN1@scalar@16
  0001c	8b 45 fc	 mov	 eax, DWORD PTR _this$[ebp]
  0001f	50		 push	 eax
  00020	e8 00 00 00 00	 call	 ??3@YAXPAX@Z		; operator delete
  00025	83 c4 04	 add	 esp, 4
$LN1@scalar@16:
  00028	8b 45 fc	 mov	 eax, DWORD PTR _this$[ebp]
  0002b	5f		 pop	 edi
  0002c	5e		 pop	 esi
  0002d	5b		 pop	 ebx
  0002e	8b e5		 mov	 esp, ebp
  00030	5d		 pop	 ebp
  00031	c2 04 00	 ret	 4
??_Gbad_alloc@std@@UAEPAXI@Z ENDP			; std::bad_alloc::`scalar deleting destructor'
; Function compile flags: /Odtp /ZI
_TEXT	ENDS
;	COMDAT ??0bad_alloc@std@@QAE@ABV01@@Z
_TEXT	SEGMENT
_this$ = -4						; size = 4
___that$ = 8						; size = 4
??0bad_alloc@std@@QAE@ABV01@@Z PROC			; std::bad_alloc::bad_alloc, COMDAT
; _this$ = ecx
  00000	55		 push	 ebp
  00001	8b ec		 mov	 ebp, esp
  00003	83 ec 44	 sub	 esp, 68			; 00000044H
  00006	53		 push	 ebx
  00007	56		 push	 esi
  00008	57		 push	 edi
  00009	89 4d fc	 mov	 DWORD PTR _this$[ebp], ecx
  0000c	8b 45 08	 mov	 eax, DWORD PTR ___that$[ebp]
  0000f	50		 push	 eax
  00010	8b 4d fc	 mov	 ecx, DWORD PTR _this$[ebp]
  00013	e8 00 00 00 00	 call	 ??0exception@std@@QAE@ABV01@@Z ; std::exception::exception
  00018	8b 45 fc	 mov	 eax, DWORD PTR _this$[ebp]
  0001b	c7 00 00 00 00
	00		 mov	 DWORD PTR [eax], OFFSET ??_7bad_alloc@std@@6B@
  00021	8b 45 fc	 mov	 eax, DWORD PTR _this$[ebp]
  00024	5f		 pop	 edi
  00025	5e		 pop	 esi
  00026	5b		 pop	 ebx
  00027	8b e5		 mov	 esp, ebp
  00029	5d		 pop	 ebp
  0002a	c2 04 00	 ret	 4
??0bad_alloc@std@@QAE@ABV01@@Z ENDP			; std::bad_alloc::bad_alloc
_TEXT	ENDS
PUBLIC	??_C@_06GAKOAKAA@Mmotop?$AA@			; `string'
PUBLIC	??_C@_0N@IJMGJMHG@?4?2LOG?2Mmotop?$AA@		; `string'
EXTRN	_atexit:PROC
EXTRN	??0CLogToFile@@QAE@QAD0H@Z:PROC			; CLogToFile::CLogToFile
;	COMDAT ??_C@_06GAKOAKAA@Mmotop?$AA@
; File d:\projects\exteam6.3\source\gameserver\gameserver\voter.cpp
CONST	SEGMENT
??_C@_06GAKOAKAA@Mmotop?$AA@ DB 'Mmotop', 00H		; `string'
CONST	ENDS
;	COMDAT ??_C@_0N@IJMGJMHG@?4?2LOG?2Mmotop?$AA@
CONST	SEGMENT
??_C@_0N@IJMGJMHG@?4?2LOG?2Mmotop?$AA@ DB '.\LOG\Mmotop', 00H ; `string'
; Function compile flags: /Odtp /ZI
CONST	ENDS
;	COMDAT ??__Eg_MmotopLog@@YAXXZ
text$yc	SEGMENT
??__Eg_MmotopLog@@YAXXZ PROC				; `dynamic initializer for 'g_MmotopLog'', COMDAT

; 26   : CLogToFile g_MmotopLog("Mmotop", ".\\LOG\\Mmotop", TRUE);

  00000	55		 push	 ebp
  00001	8b ec		 mov	 ebp, esp
  00003	83 ec 40	 sub	 esp, 64			; 00000040H
  00006	53		 push	 ebx
  00007	56		 push	 esi
  00008	57		 push	 edi
  00009	6a 01		 push	 1
  0000b	68 00 00 00 00	 push	 OFFSET ??_C@_0N@IJMGJMHG@?4?2LOG?2Mmotop?$AA@
  00010	68 00 00 00 00	 push	 OFFSET ??_C@_06GAKOAKAA@Mmotop?$AA@
  00015	b9 00 00 00 00	 mov	 ecx, OFFSET ?g_MmotopLog@@3VCLogToFile@@A ; g_MmotopLog
  0001a	e8 00 00 00 00	 call	 ??0CLogToFile@@QAE@QAD0H@Z ; CLogToFile::CLogToFile
  0001f	68 00 00 00 00	 push	 OFFSET ??__Fg_MmotopLog@@YAXXZ ; `dynamic atexit destructor for 'g_MmotopLog''
  00024	e8 00 00 00 00	 call	 _atexit
  00029	83 c4 04	 add	 esp, 4
  0002c	5f		 pop	 edi
  0002d	5e		 pop	 esi
  0002e	5b		 pop	 ebx
  0002f	8b e5		 mov	 esp, ebp
  00031	5d		 pop	 ebp
  00032	c3		 ret	 0
??__Eg_MmotopLog@@YAXXZ ENDP				; `dynamic initializer for 'g_MmotopLog''
text$yc	ENDS
PUBLIC	??0id@locale@std@@QAE@I@Z			; std::locale::id::id
; Function compile flags: /Odtp /ZI
; File d:\microsoft visual studio 10.0\vc\include\xlocale
;	COMDAT ??__E?id@?$codecvt@DDH@std@@2V0locale@2@A@@YAXXZ
text$yc	SEGMENT
??__E?id@?$codecvt@DDH@std@@2V0locale@2@A@@YAXXZ PROC	; `dynamic initializer for 'std::codecvt<char,char,int>::id'', COMDAT

; 900  : 	__PURE_APPDOMAIN_GLOBAL locale::id codecvt<_Elem, _Byte, _Statype>::id;

  00000	55		 push	 ebp
  00001	8b ec		 mov	 ebp, esp
  00003	83 ec 40	 sub	 esp, 64			; 00000040H
  00006	53		 push	 ebx
  00007	56		 push	 esi
  00008	57		 push	 edi
  00009	6a 00		 push	 0
  0000b	b9 00 00 00 00	 mov	 ecx, OFFSET ?id@?$codecvt@DDH@std@@2V0locale@2@A ; std::codecvt<char,char,int>::id
  00010	e8 00 00 00 00	 call	 ??0id@locale@std@@QAE@I@Z ; std::locale::id::id
  00015	5f		 pop	 edi
  00016	5e		 pop	 esi
  00017	5b		 pop	 ebx
  00018	8b e5		 mov	 esp, ebp
  0001a	5d		 pop	 ebp
  0001b	c3		 ret	 0
??__E?id@?$codecvt@DDH@std@@2V0locale@2@A@@YAXXZ ENDP	; `dynamic initializer for 'std::codecvt<char,char,int>::id''
; Function compile flags: /Odtp /ZI
text$yc	ENDS
;	COMDAT ??0id@locale@std@@QAE@I@Z
_TEXT	SEGMENT
_this$ = -4						; size = 4
__Val$ = 8						; size = 4
??0id@locale@std@@QAE@I@Z PROC				; std::locale::id::id, COMDAT
; _this$ = ecx

; 71   : 			{	// construct with specified stamp value

  00000	55		 push	 ebp
  00001	8b ec		 mov	 ebp, esp
  00003	83 ec 44	 sub	 esp, 68			; 00000044H
  00006	53		 push	 ebx
  00007	56		 push	 esi
  00008	57		 push	 edi
  00009	89 4d fc	 mov	 DWORD PTR _this$[ebp], ecx
  0000c	8b 45 fc	 mov	 eax, DWORD PTR _this$[ebp]
  0000f	8b 4d 08	 mov	 ecx, DWORD PTR __Val$[ebp]
  00012	89 08		 mov	 DWORD PTR [eax], ecx

; 72   : 			}

  00014	8b 45 fc	 mov	 eax, DWORD PTR _this$[ebp]
  00017	5f		 pop	 edi
  00018	5e		 pop	 esi
  00019	5b		 pop	 ebx
  0001a	8b e5		 mov	 esp, ebp
  0001c	5d		 pop	 ebp
  0001d	c2 04 00	 ret	 4
??0id@locale@std@@QAE@I@Z ENDP				; std::locale::id::id
_TEXT	ENDS
EXTRN	??1CLogToFile@@QAE@XZ:PROC			; CLogToFile::~CLogToFile
; Function compile flags: /Odtp /ZI
;	COMDAT ??__Fg_MmotopLog@@YAXXZ
text$yd	SEGMENT
??__Fg_MmotopLog@@YAXXZ PROC				; `dynamic atexit destructor for 'g_MmotopLog'', COMDAT
  00000	55		 push	 ebp
  00001	8b ec		 mov	 ebp, esp
  00003	83 ec 40	 sub	 esp, 64			; 00000040H
  00006	53		 push	 ebx
  00007	56		 push	 esi
  00008	57		 push	 edi
  00009	b9 00 00 00 00	 mov	 ecx, OFFSET ?g_MmotopLog@@3VCLogToFile@@A ; g_MmotopLog
  0000e	e8 00 00 00 00	 call	 ??1CLogToFile@@QAE@XZ	; CLogToFile::~CLogToFile
  00013	5f		 pop	 edi
  00014	5e		 pop	 esi
  00015	5b		 pop	 ebx
  00016	8b e5		 mov	 esp, ebp
  00018	5d		 pop	 ebp
  00019	c3		 ret	 0
??__Fg_MmotopLog@@YAXXZ ENDP				; `dynamic atexit destructor for 'g_MmotopLog''
text$yd	ENDS
PUBLIC	?id@?$codecvt@DDH@std@@2V0locale@2@A		; std::codecvt<char,char,int>::id
PUBLIC	?g_MmotopLog@@3VCLogToFile@@A			; g_MmotopLog
;	COMDAT ?id@?$codecvt@DDH@std@@2V0locale@2@A
_BSS	SEGMENT
?id@?$codecvt@DDH@std@@2V0locale@2@A DD 01H DUP (?)	; std::codecvt<char,char,int>::id
_BSS	ENDS
_BSS	SEGMENT
?g_MmotopLog@@3VCLogToFile@@A DB 010228H DUP (?)	; g_MmotopLog
_BSS	ENDS
CRT$XCU	SEGMENT
_g_MmotopLog$initializer$ DD FLAT:??__Eg_MmotopLog@@YAXXZ
CRT$XCU	ENDS
;	COMDAT CRT$XCU
CRT$XCU	SEGMENT
?id$initializer$@?$codecvt@DDH@std@@2P6AXXZA DD FLAT:??__E?id@?$codecvt@DDH@std@@2V0locale@2@A@@YAXXZ ; std::codecvt<char,char,int>::id$initializer$
CRT$XCU	ENDS
END
