; Listing generated by Microsoft (R) Optimizing Compiler Version 16.00.40219.01 

	TITLE	D:\Projects\ExTeam6.3\Source\GameServer\GameServer\Voter.cpp
	.686P
	.XMM
	include listing.inc
	.model	flat

INCLUDELIB LIBCMT
INCLUDELIB OLDNAMES

PUBLIC	?gVoter@@3VVoter@@A				; gVoter
_BSS	SEGMENT
?gVoter@@3VVoter@@A DB 0270H DUP (?)			; gVoter
_BSS	ENDS
PUBLIC	??_H@YGXPAXIHP6EPAX0@Z@Z			; `vector constructor iterator'
; Function compile flags: /Odtp /ZI
;	COMDAT ??_H@YGXPAXIHP6EPAX0@Z@Z
_TEXT	SEGMENT
___t$ = 8						; size = 4
___s$ = 12						; size = 4
___n$ = 16						; size = 4
___f$ = 20						; size = 4
??_H@YGXPAXIHP6EPAX0@Z@Z PROC				; `vector constructor iterator', COMDAT
  00000	55		 push	 ebp
  00001	8b ec		 mov	 ebp, esp
  00003	83 ec 40	 sub	 esp, 64			; 00000040H
  00006	53		 push	 ebx
  00007	56		 push	 esi
  00008	57		 push	 edi
$LN2@vector:
  00009	8b 45 10	 mov	 eax, DWORD PTR ___n$[ebp]
  0000c	83 e8 01	 sub	 eax, 1
  0000f	89 45 10	 mov	 DWORD PTR ___n$[ebp], eax
  00012	78 11		 js	 SHORT $LN3@vector
  00014	8b 4d 08	 mov	 ecx, DWORD PTR ___t$[ebp]
  00017	ff 55 14	 call	 DWORD PTR ___f$[ebp]
  0001a	8b 45 08	 mov	 eax, DWORD PTR ___t$[ebp]
  0001d	03 45 0c	 add	 eax, DWORD PTR ___s$[ebp]
  00020	89 45 08	 mov	 DWORD PTR ___t$[ebp], eax
  00023	eb e4		 jmp	 SHORT $LN2@vector
$LN3@vector:
  00025	5f		 pop	 edi
  00026	5e		 pop	 esi
  00027	5b		 pop	 ebx
  00028	8b e5		 mov	 esp, ebp
  0002a	5d		 pop	 ebp
  0002b	c2 10 00	 ret	 16			; 00000010H
??_H@YGXPAXIHP6EPAX0@Z@Z ENDP				; `vector constructor iterator'
_TEXT	ENDS
PUBLIC	??_C@_06FHBNJNJP@DangeR?$AA@			; `string'
PUBLIC	?AdmLog@@YAXPAD@Z				; AdmLog
EXTRN	?MsgOutput@@YAXHPADZZ:PROC			; MsgOutput
EXTRN	_strcmp:PROC
EXTRN	?gObj@@3PAUOBJECTSTRUCT@@A:DWORD		; gObj
;	COMDAT ??_C@_06FHBNJNJP@DangeR?$AA@
; File d:\projects\exteam6.3\source\gameserver\gameserver\voter.cpp
CONST	SEGMENT
??_C@_06FHBNJNJP@DangeR?$AA@ DB 'DangeR', 00H		; `string'
; Function compile flags: /Odtp /ZI
CONST	ENDS
_TEXT	SEGMENT
_n$224025 = -4						; size = 4
_AddLogNEw$ = 8						; size = 4
?AdmLog@@YAXPAD@Z PROC					; AdmLog

; 39   : {

  00000	55		 push	 ebp
  00001	8b ec		 mov	 ebp, esp
  00003	83 ec 44	 sub	 esp, 68			; 00000044H
  00006	53		 push	 ebx
  00007	56		 push	 esi
  00008	57		 push	 edi

; 40   : 	for (int n=OBJ_STARTUSERINDEX;n<OBJMAX; n++)

  00009	c7 45 fc b0 36
	00 00		 mov	 DWORD PTR _n$224025[ebp], 14000 ; 000036b0H
  00010	eb 09		 jmp	 SHORT $LN5@AdmLog
$LN4@AdmLog:
  00012	8b 45 fc	 mov	 eax, DWORD PTR _n$224025[ebp]
  00015	83 c0 01	 add	 eax, 1
  00018	89 45 fc	 mov	 DWORD PTR _n$224025[ebp], eax
$LN5@AdmLog:
  0001b	81 7d fc 98 3a
	00 00		 cmp	 DWORD PTR _n$224025[ebp], 15000 ; 00003a98H
  00022	7d 4f		 jge	 SHORT $LN6@AdmLog

; 41   : 	{
; 42   : 		if ( gObj[n].Connected >= PLAYER_PLAYING)

  00024	8b 45 fc	 mov	 eax, DWORD PTR _n$224025[ebp]
  00027	69 c0 38 2b 00
	00		 imul	 eax, 11064		; 00002b38H
  0002d	8b 0d 00 00 00
	00		 mov	 ecx, DWORD PTR ?gObj@@3PAUOBJECTSTRUCT@@A ; gObj
  00033	83 7c 01 04 03	 cmp	 DWORD PTR [ecx+eax+4], 3
  00038	7c 37		 jl	 SHORT $LN2@AdmLog

; 43   : 		{
; 44   : 			if(!strcmp(gObj[n].Name,"DangeR"))

  0003a	68 00 00 00 00	 push	 OFFSET ??_C@_06FHBNJNJP@DangeR?$AA@
  0003f	8b 45 fc	 mov	 eax, DWORD PTR _n$224025[ebp]
  00042	69 c0 38 2b 00
	00		 imul	 eax, 11064		; 00002b38H
  00048	8b 0d 00 00 00
	00		 mov	 ecx, DWORD PTR ?gObj@@3PAUOBJECTSTRUCT@@A ; gObj
  0004e	8d 54 01 77	 lea	 edx, DWORD PTR [ecx+eax+119]
  00052	52		 push	 edx
  00053	e8 00 00 00 00	 call	 _strcmp
  00058	83 c4 08	 add	 esp, 8
  0005b	85 c0		 test	 eax, eax
  0005d	75 12		 jne	 SHORT $LN2@AdmLog

; 45   : 			{
; 46   : 				MsgOutput(n,AddLogNEw);

  0005f	8b 45 08	 mov	 eax, DWORD PTR _AddLogNEw$[ebp]
  00062	50		 push	 eax
  00063	8b 4d fc	 mov	 ecx, DWORD PTR _n$224025[ebp]
  00066	51		 push	 ecx
  00067	e8 00 00 00 00	 call	 ?MsgOutput@@YAXHPADZZ	; MsgOutput
  0006c	83 c4 08	 add	 esp, 8

; 47   : 				return;

  0006f	eb 02		 jmp	 SHORT $LN6@AdmLog
$LN2@AdmLog:

; 48   : 			}
; 49   : 		}
; 50   : 	}

  00071	eb 9f		 jmp	 SHORT $LN4@AdmLog
$LN6@AdmLog:

; 51   : }

  00073	5f		 pop	 edi
  00074	5e		 pop	 esi
  00075	5b		 pop	 ebx
  00076	8b e5		 mov	 esp, ebp
  00078	5d		 pop	 ebp
  00079	c3		 ret	 0
?AdmLog@@YAXPAD@Z ENDP					; AdmLog
_TEXT	ENDS
PUBLIC	??_C@_0BB@IFHGPKPD@QTOP_SMSBuffTime?$AA@	; `string'
PUBLIC	??_C@_0O@NOACOOKK@QTOP_BuffTime?$AA@		; `string'
PUBLIC	??_C@_0BD@PDOBGAFG@MMOTOP_SMSBuffTime?$AA@	; `string'
PUBLIC	??_C@_0BA@FPOKAIAG@MMOTOP_BuffTime?$AA@		; `string'
PUBLIC	??_C@_0BG@KCBCCKKI@QTOP_SMSBonusLifeBank?$AA@	; `string'
PUBLIC	??_C@_0BG@GGDNHJBE@QTOP_SMSBonusSoulBank?$AA@	; `string'
PUBLIC	??_C@_0BH@JHJGADBG@QTOP_SMSBonusBlessBank?$AA@	; `string'
PUBLIC	??_C@_0BH@BIMMBGE@QTOP_SMSBonusChaosBank?$AA@	; `string'
PUBLIC	??_C@_0BH@EHJIKPHH@QTOP_SMSBonusItemLevel?$AA@	; `string'
PUBLIC	??_C@_0BH@LEDLEHJE@QTOP_SMSBonusItemIndex?$AA@	; `string'
PUBLIC	??_C@_0BG@CALGGNEL@QTOP_SMSBonusItemType?$AA@	; `string'
PUBLIC	??_C@_0BI@EAIFKLHB@QTOP_SMSBonusItemActive?$AA@	; `string'
PUBLIC	??_C@_0BE@ECPLAMGJ@QTOP_SMSBonusExCred?$AA@	; `string'
PUBLIC	??_C@_0BE@OKHOPJMN@QTOP_SMSBonusWcoinG?$AA@	; `string'
PUBLIC	??_C@_0BE@OPPNHNFL@QTOP_SMSBonusWcoinP?$AA@	; `string'
PUBLIC	??_C@_0BE@IOBCDMMJ@QTOP_SMSBonusWcoinC?$AA@	; `string'
PUBLIC	??_C@_0BD@ECNNADMJ@QTOP_BonusLifeBank?$AA@	; `string'
PUBLIC	??_C@_0BD@IGPCFAHF@QTOP_BonusSoulBank?$AA@	; `string'
PUBLIC	??_C@_0BE@KNMDJNPB@QTOP_BonusBlessBank?$AA@	; `string'
PUBLIC	??_C@_0BE@DLNJFPID@QTOP_BonusChaosBank?$AA@	; `string'
PUBLIC	??_C@_0BE@HNMNDBJA@QTOP_BonusItemLevel?$AA@	; `string'
PUBLIC	??_C@_0BE@IOGONJHD@QTOP_BonusItemIndex?$AA@	; `string'
PUBLIC	??_C@_0BD@MAHJEECK@QTOP_BonusItemType?$AA@	; `string'
PUBLIC	??_C@_0BF@HONBIJDE@QTOP_BonusItemActive?$AA@	; `string'
PUBLIC	??_C@_0BB@FIFAHLHN@QTOP_BonusExCred?$AA@	; `string'
PUBLIC	??_C@_0BB@PANFIONJ@QTOP_BonusWcoinG?$AA@	; `string'
PUBLIC	??_C@_0BB@PFFGAKEP@QTOP_BonusWcoinP?$AA@	; `string'
PUBLIC	??_C@_0BB@JELJELNN@QTOP_BonusWcoinC?$AA@	; `string'
PUBLIC	??_C@_0O@KPGCIBKI@QTOP_VoteFile?$AA@		; `string'
PUBLIC	??_C@_0BC@JLLLCKLO@QTOP_UPDATE_VOTER?$AA@	; `string'
PUBLIC	??_C@_0BC@HPDCHCHP@QTOP_DownloadFile?$AA@	; `string'
PUBLIC	??_C@_0BE@CCDEDIEG@QTOP_DeleteVoteFile?$AA@	; `string'
PUBLIC	??_C@_0BI@EJBBELIL@MMOTOP_SMSBonusLifeBank?$AA@	; `string'
PUBLIC	??_C@_0BI@INDOBIDH@MMOTOP_SMSBonusSoulBank?$AA@	; `string'
PUBLIC	??_C@_0BJ@DFBKHBAF@MMOTOP_SMSBonusBlessBank?$AA@ ; `string'
PUBLIC	??_C@_0BJ@KDAALDHH@MMOTOP_SMSBonusChaosBank?$AA@ ; `string'
PUBLIC	??_C@_0BJ@OFBENNGE@MMOTOP_SMSBonusItemLevel?$AA@ ; `string'
PUBLIC	??_C@_0BJ@BGLHDFIH@MMOTOP_SMSBonusItemIndex?$AA@ ; `string'
PUBLIC	??_C@_0BI@MLLFAMGI@MMOTOP_SMSBonusItemType?$AA@	; `string'
PUBLIC	??_C@_0BK@MEJJGGNN@MMOTOP_SMSBonusItemActive?$AA@ ; `string'
PUBLIC	??_C@_0BG@HIINPHOD@MMOTOP_SMSBonusExCred?$AA@	; `string'
PUBLIC	??_C@_0BG@NAAIACEH@MMOTOP_SMSBonusWcoinG?$AA@	; `string'
PUBLIC	??_C@_0BG@NFILIGNB@MMOTOP_SMSBonusWcoinP?$AA@	; `string'
PUBLIC	??_C@_0BG@LEGEMHED@MMOTOP_SMSBonusWcoinC?$AA@	; `string'
PUBLIC	??_C@_0BF@IBHHEHKI@MMOTOP_BonusLifeBank?$AA@	; `string'
PUBLIC	??_C@_0BF@EFFIBEBE@MMOTOP_BonusSoulBank?$AA@	; `string'
PUBLIC	??_C@_0BG@JHLFGGHL@MMOTOP_BonusBlessBank?$AA@	; `string'
PUBLIC	??_C@_0BG@BKPKEAJ@MMOTOP_BonusChaosBank?$AA@	; `string'
PUBLIC	??_C@_0BG@EHLLMKBK@MMOTOP_BonusItemLevel?$AA@	; `string'
PUBLIC	??_C@_0BG@LEBICCPJ@MMOTOP_BonusItemIndex?$AA@	; `string'
PUBLIC	??_C@_0BF@DNDAAEL@MMOTOP_BonusItemType?$AA@	; `string'
PUBLIC	??_C@_0BH@HDIGJFPB@MMOTOP_BonusItemActive?$AA@	; `string'
PUBLIC	??_C@_0BD@COMHOBNI@MMOTOP_BonusExCred?$AA@	; `string'
PUBLIC	??_C@_0BD@IGECBEHM@MMOTOP_BonusWcoinG?$AA@	; `string'
PUBLIC	??_C@_0BD@IDMBJAOK@MMOTOP_BonusWcoinP?$AA@	; `string'
PUBLIC	??_C@_0BD@OCCONBHI@MMOTOP_BonusWcoinC?$AA@	; `string'
PUBLIC	??_C@_0BA@COIKGHAE@MMOTOP_VoteFile?$AA@		; `string'
PUBLIC	??_C@_0FE@DBCBBMPJ@votes?1aba02abed8021ba31a4499a390@ ; `string'
PUBLIC	??_C@_0BE@DNHBOKED@MMOTOP_UPDATE_VOTER?$AA@	; `string'
PUBLIC	??_C@_0BE@NJPILCIC@MMOTOP_DownloadFile?$AA@	; `string'
PUBLIC	??_C@_0BG@BIECMDMM@MMOTOP_DeleteVoteFile?$AA@	; `string'
PUBLIC	??_C@_0M@DCIBIFED@QTOP_Enable?$AA@		; `string'
PUBLIC	??_C@_06MLPMCPDE@ExTeam?$AA@			; `string'
PUBLIC	??_C@_0O@HBCEHCHG@MMOTOP_Enable?$AA@		; `string'
PUBLIC	??_C@_0BJ@HCOFCKO@?4?4?2Data?2ExData?2Voter?4ini?$AA@ ; `string'
PUBLIC	?Init@Voter@@QAEXXZ				; Voter::Init
EXTRN	__imp__GetPrivateProfileStringA@24:PROC
EXTRN	__imp__GetPrivateProfileIntA@16:PROC
;	COMDAT ??_C@_0BB@IFHGPKPD@QTOP_SMSBuffTime?$AA@
CONST	SEGMENT
??_C@_0BB@IFHGPKPD@QTOP_SMSBuffTime?$AA@ DB 'QTOP_SMSBuffTime', 00H ; `string'
CONST	ENDS
;	COMDAT ??_C@_0O@NOACOOKK@QTOP_BuffTime?$AA@
CONST	SEGMENT
??_C@_0O@NOACOOKK@QTOP_BuffTime?$AA@ DB 'QTOP_BuffTime', 00H ; `string'
CONST	ENDS
;	COMDAT ??_C@_0BD@PDOBGAFG@MMOTOP_SMSBuffTime?$AA@
CONST	SEGMENT
??_C@_0BD@PDOBGAFG@MMOTOP_SMSBuffTime?$AA@ DB 'MMOTOP_SMSBuffTime', 00H ; `string'
CONST	ENDS
;	COMDAT ??_C@_0BA@FPOKAIAG@MMOTOP_BuffTime?$AA@
CONST	SEGMENT
??_C@_0BA@FPOKAIAG@MMOTOP_BuffTime?$AA@ DB 'MMOTOP_BuffTime', 00H ; `string'
CONST	ENDS
;	COMDAT ??_C@_0BG@KCBCCKKI@QTOP_SMSBonusLifeBank?$AA@
CONST	SEGMENT
??_C@_0BG@KCBCCKKI@QTOP_SMSBonusLifeBank?$AA@ DB 'QTOP_SMSBonusLifeBank', 00H ; `string'
CONST	ENDS
;	COMDAT ??_C@_0BG@GGDNHJBE@QTOP_SMSBonusSoulBank?$AA@
CONST	SEGMENT
??_C@_0BG@GGDNHJBE@QTOP_SMSBonusSoulBank?$AA@ DB 'QTOP_SMSBonusSoulBank', 00H ; `string'
CONST	ENDS
;	COMDAT ??_C@_0BH@JHJGADBG@QTOP_SMSBonusBlessBank?$AA@
CONST	SEGMENT
??_C@_0BH@JHJGADBG@QTOP_SMSBonusBlessBank?$AA@ DB 'QTOP_SMSBonusBlessBank'
	DB	00H						; `string'
CONST	ENDS
;	COMDAT ??_C@_0BH@BIMMBGE@QTOP_SMSBonusChaosBank?$AA@
CONST	SEGMENT
??_C@_0BH@BIMMBGE@QTOP_SMSBonusChaosBank?$AA@ DB 'QTOP_SMSBonusChaosBank', 00H ; `string'
CONST	ENDS
;	COMDAT ??_C@_0BH@EHJIKPHH@QTOP_SMSBonusItemLevel?$AA@
CONST	SEGMENT
??_C@_0BH@EHJIKPHH@QTOP_SMSBonusItemLevel?$AA@ DB 'QTOP_SMSBonusItemLevel'
	DB	00H						; `string'
CONST	ENDS
;	COMDAT ??_C@_0BH@LEDLEHJE@QTOP_SMSBonusItemIndex?$AA@
CONST	SEGMENT
??_C@_0BH@LEDLEHJE@QTOP_SMSBonusItemIndex?$AA@ DB 'QTOP_SMSBonusItemIndex'
	DB	00H						; `string'
CONST	ENDS
;	COMDAT ??_C@_0BG@CALGGNEL@QTOP_SMSBonusItemType?$AA@
CONST	SEGMENT
??_C@_0BG@CALGGNEL@QTOP_SMSBonusItemType?$AA@ DB 'QTOP_SMSBonusItemType', 00H ; `string'
CONST	ENDS
;	COMDAT ??_C@_0BI@EAIFKLHB@QTOP_SMSBonusItemActive?$AA@
CONST	SEGMENT
??_C@_0BI@EAIFKLHB@QTOP_SMSBonusItemActive?$AA@ DB 'QTOP_SMSBonusItemActi'
	DB	've', 00H					; `string'
CONST	ENDS
;	COMDAT ??_C@_0BE@ECPLAMGJ@QTOP_SMSBonusExCred?$AA@
CONST	SEGMENT
??_C@_0BE@ECPLAMGJ@QTOP_SMSBonusExCred?$AA@ DB 'QTOP_SMSBonusExCred', 00H ; `string'
CONST	ENDS
;	COMDAT ??_C@_0BE@OKHOPJMN@QTOP_SMSBonusWcoinG?$AA@
CONST	SEGMENT
??_C@_0BE@OKHOPJMN@QTOP_SMSBonusWcoinG?$AA@ DB 'QTOP_SMSBonusWcoinG', 00H ; `string'
CONST	ENDS
;	COMDAT ??_C@_0BE@OPPNHNFL@QTOP_SMSBonusWcoinP?$AA@
CONST	SEGMENT
??_C@_0BE@OPPNHNFL@QTOP_SMSBonusWcoinP?$AA@ DB 'QTOP_SMSBonusWcoinP', 00H ; `string'
CONST	ENDS
;	COMDAT ??_C@_0BE@IOBCDMMJ@QTOP_SMSBonusWcoinC?$AA@
CONST	SEGMENT
??_C@_0BE@IOBCDMMJ@QTOP_SMSBonusWcoinC?$AA@ DB 'QTOP_SMSBonusWcoinC', 00H ; `string'
CONST	ENDS
;	COMDAT ??_C@_0BD@ECNNADMJ@QTOP_BonusLifeBank?$AA@
CONST	SEGMENT
??_C@_0BD@ECNNADMJ@QTOP_BonusLifeBank?$AA@ DB 'QTOP_BonusLifeBank', 00H ; `string'
CONST	ENDS
;	COMDAT ??_C@_0BD@IGPCFAHF@QTOP_BonusSoulBank?$AA@
CONST	SEGMENT
??_C@_0BD@IGPCFAHF@QTOP_BonusSoulBank?$AA@ DB 'QTOP_BonusSoulBank', 00H ; `string'
CONST	ENDS
;	COMDAT ??_C@_0BE@KNMDJNPB@QTOP_BonusBlessBank?$AA@
CONST	SEGMENT
??_C@_0BE@KNMDJNPB@QTOP_BonusBlessBank?$AA@ DB 'QTOP_BonusBlessBank', 00H ; `string'
CONST	ENDS
;	COMDAT ??_C@_0BE@DLNJFPID@QTOP_BonusChaosBank?$AA@
CONST	SEGMENT
??_C@_0BE@DLNJFPID@QTOP_BonusChaosBank?$AA@ DB 'QTOP_BonusChaosBank', 00H ; `string'
CONST	ENDS
;	COMDAT ??_C@_0BE@HNMNDBJA@QTOP_BonusItemLevel?$AA@
CONST	SEGMENT
??_C@_0BE@HNMNDBJA@QTOP_BonusItemLevel?$AA@ DB 'QTOP_BonusItemLevel', 00H ; `string'
CONST	ENDS
;	COMDAT ??_C@_0BE@IOGONJHD@QTOP_BonusItemIndex?$AA@
CONST	SEGMENT
??_C@_0BE@IOGONJHD@QTOP_BonusItemIndex?$AA@ DB 'QTOP_BonusItemIndex', 00H ; `string'
CONST	ENDS
;	COMDAT ??_C@_0BD@MAHJEECK@QTOP_BonusItemType?$AA@
CONST	SEGMENT
??_C@_0BD@MAHJEECK@QTOP_BonusItemType?$AA@ DB 'QTOP_BonusItemType', 00H ; `string'
CONST	ENDS
;	COMDAT ??_C@_0BF@HONBIJDE@QTOP_BonusItemActive?$AA@
CONST	SEGMENT
??_C@_0BF@HONBIJDE@QTOP_BonusItemActive?$AA@ DB 'QTOP_BonusItemActive', 00H ; `string'
CONST	ENDS
;	COMDAT ??_C@_0BB@FIFAHLHN@QTOP_BonusExCred?$AA@
CONST	SEGMENT
??_C@_0BB@FIFAHLHN@QTOP_BonusExCred?$AA@ DB 'QTOP_BonusExCred', 00H ; `string'
CONST	ENDS
;	COMDAT ??_C@_0BB@PANFIONJ@QTOP_BonusWcoinG?$AA@
CONST	SEGMENT
??_C@_0BB@PANFIONJ@QTOP_BonusWcoinG?$AA@ DB 'QTOP_BonusWcoinG', 00H ; `string'
CONST	ENDS
;	COMDAT ??_C@_0BB@PFFGAKEP@QTOP_BonusWcoinP?$AA@
CONST	SEGMENT
??_C@_0BB@PFFGAKEP@QTOP_BonusWcoinP?$AA@ DB 'QTOP_BonusWcoinP', 00H ; `string'
CONST	ENDS
;	COMDAT ??_C@_0BB@JELJELNN@QTOP_BonusWcoinC?$AA@
CONST	SEGMENT
??_C@_0BB@JELJELNN@QTOP_BonusWcoinC?$AA@ DB 'QTOP_BonusWcoinC', 00H ; `string'
CONST	ENDS
;	COMDAT ??_C@_0O@KPGCIBKI@QTOP_VoteFile?$AA@
CONST	SEGMENT
??_C@_0O@KPGCIBKI@QTOP_VoteFile?$AA@ DB 'QTOP_VoteFile', 00H ; `string'
CONST	ENDS
;	COMDAT ??_C@_0BC@JLLLCKLO@QTOP_UPDATE_VOTER?$AA@
CONST	SEGMENT
??_C@_0BC@JLLLCKLO@QTOP_UPDATE_VOTER?$AA@ DB 'QTOP_UPDATE_VOTER', 00H ; `string'
CONST	ENDS
;	COMDAT ??_C@_0BC@HPDCHCHP@QTOP_DownloadFile?$AA@
CONST	SEGMENT
??_C@_0BC@HPDCHCHP@QTOP_DownloadFile?$AA@ DB 'QTOP_DownloadFile', 00H ; `string'
CONST	ENDS
;	COMDAT ??_C@_0BE@CCDEDIEG@QTOP_DeleteVoteFile?$AA@
CONST	SEGMENT
??_C@_0BE@CCDEDIEG@QTOP_DeleteVoteFile?$AA@ DB 'QTOP_DeleteVoteFile', 00H ; `string'
CONST	ENDS
;	COMDAT ??_C@_0BI@EJBBELIL@MMOTOP_SMSBonusLifeBank?$AA@
CONST	SEGMENT
??_C@_0BI@EJBBELIL@MMOTOP_SMSBonusLifeBank?$AA@ DB 'MMOTOP_SMSBonusLifeBa'
	DB	'nk', 00H					; `string'
CONST	ENDS
;	COMDAT ??_C@_0BI@INDOBIDH@MMOTOP_SMSBonusSoulBank?$AA@
CONST	SEGMENT
??_C@_0BI@INDOBIDH@MMOTOP_SMSBonusSoulBank?$AA@ DB 'MMOTOP_SMSBonusSoulBa'
	DB	'nk', 00H					; `string'
CONST	ENDS
;	COMDAT ??_C@_0BJ@DFBKHBAF@MMOTOP_SMSBonusBlessBank?$AA@
CONST	SEGMENT
??_C@_0BJ@DFBKHBAF@MMOTOP_SMSBonusBlessBank?$AA@ DB 'MMOTOP_SMSBonusBless'
	DB	'Bank', 00H					; `string'
CONST	ENDS
;	COMDAT ??_C@_0BJ@KDAALDHH@MMOTOP_SMSBonusChaosBank?$AA@
CONST	SEGMENT
??_C@_0BJ@KDAALDHH@MMOTOP_SMSBonusChaosBank?$AA@ DB 'MMOTOP_SMSBonusChaos'
	DB	'Bank', 00H					; `string'
CONST	ENDS
;	COMDAT ??_C@_0BJ@OFBENNGE@MMOTOP_SMSBonusItemLevel?$AA@
CONST	SEGMENT
??_C@_0BJ@OFBENNGE@MMOTOP_SMSBonusItemLevel?$AA@ DB 'MMOTOP_SMSBonusItemL'
	DB	'evel', 00H					; `string'
CONST	ENDS
;	COMDAT ??_C@_0BJ@BGLHDFIH@MMOTOP_SMSBonusItemIndex?$AA@
CONST	SEGMENT
??_C@_0BJ@BGLHDFIH@MMOTOP_SMSBonusItemIndex?$AA@ DB 'MMOTOP_SMSBonusItemI'
	DB	'ndex', 00H					; `string'
CONST	ENDS
;	COMDAT ??_C@_0BI@MLLFAMGI@MMOTOP_SMSBonusItemType?$AA@
CONST	SEGMENT
??_C@_0BI@MLLFAMGI@MMOTOP_SMSBonusItemType?$AA@ DB 'MMOTOP_SMSBonusItemTy'
	DB	'pe', 00H					; `string'
CONST	ENDS
;	COMDAT ??_C@_0BK@MEJJGGNN@MMOTOP_SMSBonusItemActive?$AA@
CONST	SEGMENT
??_C@_0BK@MEJJGGNN@MMOTOP_SMSBonusItemActive?$AA@ DB 'MMOTOP_SMSBonusItem'
	DB	'Active', 00H				; `string'
CONST	ENDS
;	COMDAT ??_C@_0BG@HIINPHOD@MMOTOP_SMSBonusExCred?$AA@
CONST	SEGMENT
??_C@_0BG@HIINPHOD@MMOTOP_SMSBonusExCred?$AA@ DB 'MMOTOP_SMSBonusExCred', 00H ; `string'
CONST	ENDS
;	COMDAT ??_C@_0BG@NAAIACEH@MMOTOP_SMSBonusWcoinG?$AA@
CONST	SEGMENT
??_C@_0BG@NAAIACEH@MMOTOP_SMSBonusWcoinG?$AA@ DB 'MMOTOP_SMSBonusWcoinG', 00H ; `string'
CONST	ENDS
;	COMDAT ??_C@_0BG@NFILIGNB@MMOTOP_SMSBonusWcoinP?$AA@
CONST	SEGMENT
??_C@_0BG@NFILIGNB@MMOTOP_SMSBonusWcoinP?$AA@ DB 'MMOTOP_SMSBonusWcoinP', 00H ; `string'
CONST	ENDS
;	COMDAT ??_C@_0BG@LEGEMHED@MMOTOP_SMSBonusWcoinC?$AA@
CONST	SEGMENT
??_C@_0BG@LEGEMHED@MMOTOP_SMSBonusWcoinC?$AA@ DB 'MMOTOP_SMSBonusWcoinC', 00H ; `string'
CONST	ENDS
;	COMDAT ??_C@_0BF@IBHHEHKI@MMOTOP_BonusLifeBank?$AA@
CONST	SEGMENT
??_C@_0BF@IBHHEHKI@MMOTOP_BonusLifeBank?$AA@ DB 'MMOTOP_BonusLifeBank', 00H ; `string'
CONST	ENDS
;	COMDAT ??_C@_0BF@EFFIBEBE@MMOTOP_BonusSoulBank?$AA@
CONST	SEGMENT
??_C@_0BF@EFFIBEBE@MMOTOP_BonusSoulBank?$AA@ DB 'MMOTOP_BonusSoulBank', 00H ; `string'
CONST	ENDS
;	COMDAT ??_C@_0BG@JHLFGGHL@MMOTOP_BonusBlessBank?$AA@
CONST	SEGMENT
??_C@_0BG@JHLFGGHL@MMOTOP_BonusBlessBank?$AA@ DB 'MMOTOP_BonusBlessBank', 00H ; `string'
CONST	ENDS
;	COMDAT ??_C@_0BG@BKPKEAJ@MMOTOP_BonusChaosBank?$AA@
CONST	SEGMENT
??_C@_0BG@BKPKEAJ@MMOTOP_BonusChaosBank?$AA@ DB 'MMOTOP_BonusChaosBank', 00H ; `string'
CONST	ENDS
;	COMDAT ??_C@_0BG@EHLLMKBK@MMOTOP_BonusItemLevel?$AA@
CONST	SEGMENT
??_C@_0BG@EHLLMKBK@MMOTOP_BonusItemLevel?$AA@ DB 'MMOTOP_BonusItemLevel', 00H ; `string'
CONST	ENDS
;	COMDAT ??_C@_0BG@LEBICCPJ@MMOTOP_BonusItemIndex?$AA@
CONST	SEGMENT
??_C@_0BG@LEBICCPJ@MMOTOP_BonusItemIndex?$AA@ DB 'MMOTOP_BonusItemIndex', 00H ; `string'
CONST	ENDS
;	COMDAT ??_C@_0BF@DNDAAEL@MMOTOP_BonusItemType?$AA@
CONST	SEGMENT
??_C@_0BF@DNDAAEL@MMOTOP_BonusItemType?$AA@ DB 'MMOTOP_BonusItemType', 00H ; `string'
CONST	ENDS
;	COMDAT ??_C@_0BH@HDIGJFPB@MMOTOP_BonusItemActive?$AA@
CONST	SEGMENT
??_C@_0BH@HDIGJFPB@MMOTOP_BonusItemActive?$AA@ DB 'MMOTOP_BonusItemActive'
	DB	00H						; `string'
CONST	ENDS
;	COMDAT ??_C@_0BD@COMHOBNI@MMOTOP_BonusExCred?$AA@
CONST	SEGMENT
??_C@_0BD@COMHOBNI@MMOTOP_BonusExCred?$AA@ DB 'MMOTOP_BonusExCred', 00H ; `string'
CONST	ENDS
;	COMDAT ??_C@_0BD@IGECBEHM@MMOTOP_BonusWcoinG?$AA@
CONST	SEGMENT
??_C@_0BD@IGECBEHM@MMOTOP_BonusWcoinG?$AA@ DB 'MMOTOP_BonusWcoinG', 00H ; `string'
CONST	ENDS
;	COMDAT ??_C@_0BD@IDMBJAOK@MMOTOP_BonusWcoinP?$AA@
CONST	SEGMENT
??_C@_0BD@IDMBJAOK@MMOTOP_BonusWcoinP?$AA@ DB 'MMOTOP_BonusWcoinP', 00H ; `string'
CONST	ENDS
;	COMDAT ??_C@_0BD@OCCONBHI@MMOTOP_BonusWcoinC?$AA@
CONST	SEGMENT
??_C@_0BD@OCCONBHI@MMOTOP_BonusWcoinC?$AA@ DB 'MMOTOP_BonusWcoinC', 00H ; `string'
CONST	ENDS
;	COMDAT ??_C@_0BA@COIKGHAE@MMOTOP_VoteFile?$AA@
CONST	SEGMENT
??_C@_0BA@COIKGHAE@MMOTOP_VoteFile?$AA@ DB 'MMOTOP_VoteFile', 00H ; `string'
CONST	ENDS
;	COMDAT ??_C@_0FE@DBCBBMPJ@votes?1aba02abed8021ba31a4499a390@
CONST	SEGMENT
??_C@_0FE@DBCBBMPJ@votes?1aba02abed8021ba31a4499a390@ DB 'votes/aba02abed'
	DB	'8021ba31a4499a390aa8afa4679c6d1.txt?454b02beba57cfd5896709ff1'
	DB	'ea8f1aa', 00H				; `string'
CONST	ENDS
;	COMDAT ??_C@_0BE@DNHBOKED@MMOTOP_UPDATE_VOTER?$AA@
CONST	SEGMENT
??_C@_0BE@DNHBOKED@MMOTOP_UPDATE_VOTER?$AA@ DB 'MMOTOP_UPDATE_VOTER', 00H ; `string'
CONST	ENDS
;	COMDAT ??_C@_0BE@NJPILCIC@MMOTOP_DownloadFile?$AA@
CONST	SEGMENT
??_C@_0BE@NJPILCIC@MMOTOP_DownloadFile?$AA@ DB 'MMOTOP_DownloadFile', 00H ; `string'
CONST	ENDS
;	COMDAT ??_C@_0BG@BIECMDMM@MMOTOP_DeleteVoteFile?$AA@
CONST	SEGMENT
??_C@_0BG@BIECMDMM@MMOTOP_DeleteVoteFile?$AA@ DB 'MMOTOP_DeleteVoteFile', 00H ; `string'
CONST	ENDS
;	COMDAT ??_C@_0M@DCIBIFED@QTOP_Enable?$AA@
CONST	SEGMENT
??_C@_0M@DCIBIFED@QTOP_Enable?$AA@ DB 'QTOP_Enable', 00H ; `string'
CONST	ENDS
;	COMDAT ??_C@_06MLPMCPDE@ExTeam?$AA@
CONST	SEGMENT
??_C@_06MLPMCPDE@ExTeam?$AA@ DB 'ExTeam', 00H		; `string'
CONST	ENDS
;	COMDAT ??_C@_0O@HBCEHCHG@MMOTOP_Enable?$AA@
CONST	SEGMENT
??_C@_0O@HBCEHCHG@MMOTOP_Enable?$AA@ DB 'MMOTOP_Enable', 00H ; `string'
CONST	ENDS
;	COMDAT ??_C@_0BJ@HCOFCKO@?4?4?2Data?2ExData?2Voter?4ini?$AA@
CONST	SEGMENT
??_C@_0BJ@HCOFCKO@?4?4?2Data?2ExData?2Voter?4ini?$AA@ DB '..\Data\ExData\'
	DB	'Voter.ini', 00H				; `string'
; Function compile flags: /Odtp /ZI
CONST	ENDS
_TEXT	SEGMENT
_this$ = -4						; size = 4
?Init@Voter@@QAEXXZ PROC				; Voter::Init
; _this$ = ecx

; 54   : {

  00080	55		 push	 ebp
  00081	8b ec		 mov	 ebp, esp
  00083	83 ec 44	 sub	 esp, 68			; 00000044H
  00086	53		 push	 ebx
  00087	56		 push	 esi
  00088	57		 push	 edi
  00089	89 4d fc	 mov	 DWORD PTR _this$[ebp], ecx

; 55   : 	this->MMOTOP_Enable = GetPrivateProfileInt("ExTeam","MMOTOP_Enable",0,VOTER_DIR);

  0008c	68 00 00 00 00	 push	 OFFSET ??_C@_0BJ@HCOFCKO@?4?4?2Data?2ExData?2Voter?4ini?$AA@
  00091	6a 00		 push	 0
  00093	68 00 00 00 00	 push	 OFFSET ??_C@_0O@HBCEHCHG@MMOTOP_Enable?$AA@
  00098	68 00 00 00 00	 push	 OFFSET ??_C@_06MLPMCPDE@ExTeam?$AA@
  0009d	ff 15 00 00 00
	00		 call	 DWORD PTR __imp__GetPrivateProfileIntA@16
  000a3	85 c0		 test	 eax, eax
  000a5	0f 95 c0	 setne	 al
  000a8	8b 4d fc	 mov	 ecx, DWORD PTR _this$[ebp]
  000ab	88 01		 mov	 BYTE PTR [ecx], al

; 56   : 	this->QTOP_Enable = GetPrivateProfileInt("ExTeam", "QTOP_Enable", 0, VOTER_DIR);

  000ad	68 00 00 00 00	 push	 OFFSET ??_C@_0BJ@HCOFCKO@?4?4?2Data?2ExData?2Voter?4ini?$AA@
  000b2	6a 00		 push	 0
  000b4	68 00 00 00 00	 push	 OFFSET ??_C@_0M@DCIBIFED@QTOP_Enable?$AA@
  000b9	68 00 00 00 00	 push	 OFFSET ??_C@_06MLPMCPDE@ExTeam?$AA@
  000be	ff 15 00 00 00
	00		 call	 DWORD PTR __imp__GetPrivateProfileIntA@16
  000c4	85 c0		 test	 eax, eax
  000c6	0f 95 c0	 setne	 al
  000c9	8b 4d fc	 mov	 ecx, DWORD PTR _this$[ebp]
  000cc	88 81 30 01 00
	00		 mov	 BYTE PTR [ecx+304], al

; 57   : 	// ----
; 58   : 
; 59   : 	this->MMOTOP_DeleteVoteFile = GetPrivateProfileInt("ExTeam", "MMOTOP_DeleteVoteFile", 1, VOTER_DIR);

  000d2	68 00 00 00 00	 push	 OFFSET ??_C@_0BJ@HCOFCKO@?4?4?2Data?2ExData?2Voter?4ini?$AA@
  000d7	6a 01		 push	 1
  000d9	68 00 00 00 00	 push	 OFFSET ??_C@_0BG@BIECMDMM@MMOTOP_DeleteVoteFile?$AA@
  000de	68 00 00 00 00	 push	 OFFSET ??_C@_06MLPMCPDE@ExTeam?$AA@
  000e3	ff 15 00 00 00
	00		 call	 DWORD PTR __imp__GetPrivateProfileIntA@16
  000e9	85 c0		 test	 eax, eax
  000eb	0f 95 c0	 setne	 al
  000ee	8b 4d fc	 mov	 ecx, DWORD PTR _this$[ebp]
  000f1	88 41 01	 mov	 BYTE PTR [ecx+1], al

; 60   : 	this->MMOTOP_DownloadFile = GetPrivateProfileInt("ExTeam", "MMOTOP_DownloadFile", 1, VOTER_DIR);

  000f4	68 00 00 00 00	 push	 OFFSET ??_C@_0BJ@HCOFCKO@?4?4?2Data?2ExData?2Voter?4ini?$AA@
  000f9	6a 01		 push	 1
  000fb	68 00 00 00 00	 push	 OFFSET ??_C@_0BE@NJPILCIC@MMOTOP_DownloadFile?$AA@
  00100	68 00 00 00 00	 push	 OFFSET ??_C@_06MLPMCPDE@ExTeam?$AA@
  00105	ff 15 00 00 00
	00		 call	 DWORD PTR __imp__GetPrivateProfileIntA@16
  0010b	85 c0		 test	 eax, eax
  0010d	0f 95 c0	 setne	 al
  00110	8b 4d fc	 mov	 ecx, DWORD PTR _this$[ebp]
  00113	88 41 02	 mov	 BYTE PTR [ecx+2], al

; 61   : 
; 62   : 	this->MMOTOP_UPDATE_VOTER = GetPrivateProfileInt("ExTeam", "MMOTOP_UPDATE_VOTER", 2, VOTER_DIR);

  00116	68 00 00 00 00	 push	 OFFSET ??_C@_0BJ@HCOFCKO@?4?4?2Data?2ExData?2Voter?4ini?$AA@
  0011b	6a 02		 push	 2
  0011d	68 00 00 00 00	 push	 OFFSET ??_C@_0BE@DNHBOKED@MMOTOP_UPDATE_VOTER?$AA@
  00122	68 00 00 00 00	 push	 OFFSET ??_C@_06MLPMCPDE@ExTeam?$AA@
  00127	ff 15 00 00 00
	00		 call	 DWORD PTR __imp__GetPrivateProfileIntA@16
  0012d	8b 4d fc	 mov	 ecx, DWORD PTR _this$[ebp]
  00130	89 41 04	 mov	 DWORD PTR [ecx+4], eax

; 63   : 
; 64   : 	GetPrivateProfileString("ExTeam", "MMOTOP_VoteFile", "votes/aba02abed8021ba31a4499a390aa8afa4679c6d1.txt?454b02beba57cfd5896709ff1ea8f1aa", this->MMOTOP_FileName, sizeof(this->MMOTOP_FileName), VOTER_DIR);

  00133	68 00 00 00 00	 push	 OFFSET ??_C@_0BJ@HCOFCKO@?4?4?2Data?2ExData?2Voter?4ini?$AA@
  00138	68 c8 00 00 00	 push	 200			; 000000c8H
  0013d	8b 45 fc	 mov	 eax, DWORD PTR _this$[ebp]
  00140	83 c0 08	 add	 eax, 8
  00143	50		 push	 eax
  00144	68 00 00 00 00	 push	 OFFSET ??_C@_0FE@DBCBBMPJ@votes?1aba02abed8021ba31a4499a390@
  00149	68 00 00 00 00	 push	 OFFSET ??_C@_0BA@COIKGHAE@MMOTOP_VoteFile?$AA@
  0014e	68 00 00 00 00	 push	 OFFSET ??_C@_06MLPMCPDE@ExTeam?$AA@
  00153	ff 15 00 00 00
	00		 call	 DWORD PTR __imp__GetPrivateProfileStringA@24

; 65   : 
; 66   : 	this->MMOTOP_BonusWcoinC = GetPrivateProfileInt("ExTeam", "MMOTOP_BonusWcoinC", 0, VOTER_DIR);

  00159	68 00 00 00 00	 push	 OFFSET ??_C@_0BJ@HCOFCKO@?4?4?2Data?2ExData?2Voter?4ini?$AA@
  0015e	6a 00		 push	 0
  00160	68 00 00 00 00	 push	 OFFSET ??_C@_0BD@OCCONBHI@MMOTOP_BonusWcoinC?$AA@
  00165	68 00 00 00 00	 push	 OFFSET ??_C@_06MLPMCPDE@ExTeam?$AA@
  0016a	ff 15 00 00 00
	00		 call	 DWORD PTR __imp__GetPrivateProfileIntA@16
  00170	8b 4d fc	 mov	 ecx, DWORD PTR _this$[ebp]
  00173	89 81 d0 00 00
	00		 mov	 DWORD PTR [ecx+208], eax

; 67   : 	this->MMOTOP_BonusWcoinP = GetPrivateProfileInt("ExTeam", "MMOTOP_BonusWcoinP", 0, VOTER_DIR);

  00179	68 00 00 00 00	 push	 OFFSET ??_C@_0BJ@HCOFCKO@?4?4?2Data?2ExData?2Voter?4ini?$AA@
  0017e	6a 00		 push	 0
  00180	68 00 00 00 00	 push	 OFFSET ??_C@_0BD@IDMBJAOK@MMOTOP_BonusWcoinP?$AA@
  00185	68 00 00 00 00	 push	 OFFSET ??_C@_06MLPMCPDE@ExTeam?$AA@
  0018a	ff 15 00 00 00
	00		 call	 DWORD PTR __imp__GetPrivateProfileIntA@16
  00190	8b 4d fc	 mov	 ecx, DWORD PTR _this$[ebp]
  00193	89 81 d4 00 00
	00		 mov	 DWORD PTR [ecx+212], eax

; 68   : 	this->MMOTOP_BonusWcoinG = GetPrivateProfileInt("ExTeam", "MMOTOP_BonusWcoinG", 0, VOTER_DIR);

  00199	68 00 00 00 00	 push	 OFFSET ??_C@_0BJ@HCOFCKO@?4?4?2Data?2ExData?2Voter?4ini?$AA@
  0019e	6a 00		 push	 0
  001a0	68 00 00 00 00	 push	 OFFSET ??_C@_0BD@IGECBEHM@MMOTOP_BonusWcoinG?$AA@
  001a5	68 00 00 00 00	 push	 OFFSET ??_C@_06MLPMCPDE@ExTeam?$AA@
  001aa	ff 15 00 00 00
	00		 call	 DWORD PTR __imp__GetPrivateProfileIntA@16
  001b0	8b 4d fc	 mov	 ecx, DWORD PTR _this$[ebp]
  001b3	89 81 d8 00 00
	00		 mov	 DWORD PTR [ecx+216], eax

; 69   : 	this->MMOTOP_BonusExCred = GetPrivateProfileInt("ExTeam", "MMOTOP_BonusExCred", 0, VOTER_DIR);

  001b9	68 00 00 00 00	 push	 OFFSET ??_C@_0BJ@HCOFCKO@?4?4?2Data?2ExData?2Voter?4ini?$AA@
  001be	6a 00		 push	 0
  001c0	68 00 00 00 00	 push	 OFFSET ??_C@_0BD@COMHOBNI@MMOTOP_BonusExCred?$AA@
  001c5	68 00 00 00 00	 push	 OFFSET ??_C@_06MLPMCPDE@ExTeam?$AA@
  001ca	ff 15 00 00 00
	00		 call	 DWORD PTR __imp__GetPrivateProfileIntA@16
  001d0	8b 4d fc	 mov	 ecx, DWORD PTR _this$[ebp]
  001d3	89 81 dc 00 00
	00		 mov	 DWORD PTR [ecx+220], eax

; 70   : 
; 71   : 	this->MMOTOP_BonusItemActive = GetPrivateProfileInt("ExTeam", "MMOTOP_BonusItemActive", 0, VOTER_DIR);

  001d9	68 00 00 00 00	 push	 OFFSET ??_C@_0BJ@HCOFCKO@?4?4?2Data?2ExData?2Voter?4ini?$AA@
  001de	6a 00		 push	 0
  001e0	68 00 00 00 00	 push	 OFFSET ??_C@_0BH@HDIGJFPB@MMOTOP_BonusItemActive?$AA@
  001e5	68 00 00 00 00	 push	 OFFSET ??_C@_06MLPMCPDE@ExTeam?$AA@
  001ea	ff 15 00 00 00
	00		 call	 DWORD PTR __imp__GetPrivateProfileIntA@16
  001f0	8b 4d fc	 mov	 ecx, DWORD PTR _this$[ebp]
  001f3	89 81 e0 00 00
	00		 mov	 DWORD PTR [ecx+224], eax

; 72   : 	this->MMOTOP_BonusItemType = GetPrivateProfileInt("ExTeam", "MMOTOP_BonusItemType", 0, VOTER_DIR);

  001f9	68 00 00 00 00	 push	 OFFSET ??_C@_0BJ@HCOFCKO@?4?4?2Data?2ExData?2Voter?4ini?$AA@
  001fe	6a 00		 push	 0
  00200	68 00 00 00 00	 push	 OFFSET ??_C@_0BF@DNDAAEL@MMOTOP_BonusItemType?$AA@
  00205	68 00 00 00 00	 push	 OFFSET ??_C@_06MLPMCPDE@ExTeam?$AA@
  0020a	ff 15 00 00 00
	00		 call	 DWORD PTR __imp__GetPrivateProfileIntA@16
  00210	8b 4d fc	 mov	 ecx, DWORD PTR _this$[ebp]
  00213	89 81 e4 00 00
	00		 mov	 DWORD PTR [ecx+228], eax

; 73   : 	this->MMOTOP_BonusItemIndex = GetPrivateProfileInt("ExTeam", "MMOTOP_BonusItemIndex", 0, VOTER_DIR);

  00219	68 00 00 00 00	 push	 OFFSET ??_C@_0BJ@HCOFCKO@?4?4?2Data?2ExData?2Voter?4ini?$AA@
  0021e	6a 00		 push	 0
  00220	68 00 00 00 00	 push	 OFFSET ??_C@_0BG@LEBICCPJ@MMOTOP_BonusItemIndex?$AA@
  00225	68 00 00 00 00	 push	 OFFSET ??_C@_06MLPMCPDE@ExTeam?$AA@
  0022a	ff 15 00 00 00
	00		 call	 DWORD PTR __imp__GetPrivateProfileIntA@16
  00230	8b 4d fc	 mov	 ecx, DWORD PTR _this$[ebp]
  00233	89 81 e8 00 00
	00		 mov	 DWORD PTR [ecx+232], eax

; 74   : 	this->MMOTOP_BonusItemLevel = GetPrivateProfileInt("ExTeam", "MMOTOP_BonusItemLevel", 0, VOTER_DIR);

  00239	68 00 00 00 00	 push	 OFFSET ??_C@_0BJ@HCOFCKO@?4?4?2Data?2ExData?2Voter?4ini?$AA@
  0023e	6a 00		 push	 0
  00240	68 00 00 00 00	 push	 OFFSET ??_C@_0BG@EHLLMKBK@MMOTOP_BonusItemLevel?$AA@
  00245	68 00 00 00 00	 push	 OFFSET ??_C@_06MLPMCPDE@ExTeam?$AA@
  0024a	ff 15 00 00 00
	00		 call	 DWORD PTR __imp__GetPrivateProfileIntA@16
  00250	8b 4d fc	 mov	 ecx, DWORD PTR _this$[ebp]
  00253	89 81 ec 00 00
	00		 mov	 DWORD PTR [ecx+236], eax

; 75   : 
; 76   : 	this->MMOTOP_BonusChaosBank = GetPrivateProfileInt("ExTeam", "MMOTOP_BonusChaosBank", 0, VOTER_DIR);

  00259	68 00 00 00 00	 push	 OFFSET ??_C@_0BJ@HCOFCKO@?4?4?2Data?2ExData?2Voter?4ini?$AA@
  0025e	6a 00		 push	 0
  00260	68 00 00 00 00	 push	 OFFSET ??_C@_0BG@BKPKEAJ@MMOTOP_BonusChaosBank?$AA@
  00265	68 00 00 00 00	 push	 OFFSET ??_C@_06MLPMCPDE@ExTeam?$AA@
  0026a	ff 15 00 00 00
	00		 call	 DWORD PTR __imp__GetPrivateProfileIntA@16
  00270	8b 4d fc	 mov	 ecx, DWORD PTR _this$[ebp]
  00273	89 81 f0 00 00
	00		 mov	 DWORD PTR [ecx+240], eax

; 77   : 	this->MMOTOP_BonusBlessBank = GetPrivateProfileInt("ExTeam", "MMOTOP_BonusBlessBank", 0, VOTER_DIR);

  00279	68 00 00 00 00	 push	 OFFSET ??_C@_0BJ@HCOFCKO@?4?4?2Data?2ExData?2Voter?4ini?$AA@
  0027e	6a 00		 push	 0
  00280	68 00 00 00 00	 push	 OFFSET ??_C@_0BG@JHLFGGHL@MMOTOP_BonusBlessBank?$AA@
  00285	68 00 00 00 00	 push	 OFFSET ??_C@_06MLPMCPDE@ExTeam?$AA@
  0028a	ff 15 00 00 00
	00		 call	 DWORD PTR __imp__GetPrivateProfileIntA@16
  00290	8b 4d fc	 mov	 ecx, DWORD PTR _this$[ebp]
  00293	89 81 f4 00 00
	00		 mov	 DWORD PTR [ecx+244], eax

; 78   : 	this->MMOTOP_BonusSoulBank = GetPrivateProfileInt("ExTeam", "MMOTOP_BonusSoulBank", 0, VOTER_DIR);

  00299	68 00 00 00 00	 push	 OFFSET ??_C@_0BJ@HCOFCKO@?4?4?2Data?2ExData?2Voter?4ini?$AA@
  0029e	6a 00		 push	 0
  002a0	68 00 00 00 00	 push	 OFFSET ??_C@_0BF@EFFIBEBE@MMOTOP_BonusSoulBank?$AA@
  002a5	68 00 00 00 00	 push	 OFFSET ??_C@_06MLPMCPDE@ExTeam?$AA@
  002aa	ff 15 00 00 00
	00		 call	 DWORD PTR __imp__GetPrivateProfileIntA@16
  002b0	8b 4d fc	 mov	 ecx, DWORD PTR _this$[ebp]
  002b3	89 81 f8 00 00
	00		 mov	 DWORD PTR [ecx+248], eax

; 79   : 	this->MMOTOP_BonusLifeBank = GetPrivateProfileInt("ExTeam", "MMOTOP_BonusLifeBank", 0, VOTER_DIR);

  002b9	68 00 00 00 00	 push	 OFFSET ??_C@_0BJ@HCOFCKO@?4?4?2Data?2ExData?2Voter?4ini?$AA@
  002be	6a 00		 push	 0
  002c0	68 00 00 00 00	 push	 OFFSET ??_C@_0BF@IBHHEHKI@MMOTOP_BonusLifeBank?$AA@
  002c5	68 00 00 00 00	 push	 OFFSET ??_C@_06MLPMCPDE@ExTeam?$AA@
  002ca	ff 15 00 00 00
	00		 call	 DWORD PTR __imp__GetPrivateProfileIntA@16
  002d0	8b 4d fc	 mov	 ecx, DWORD PTR _this$[ebp]
  002d3	89 81 fc 00 00
	00		 mov	 DWORD PTR [ecx+252], eax

; 80   : 
; 81   : 	this->MMOTOP_SMSBonusWcoinC = GetPrivateProfileInt("ExTeam", "MMOTOP_SMSBonusWcoinC", 0, VOTER_DIR);

  002d9	68 00 00 00 00	 push	 OFFSET ??_C@_0BJ@HCOFCKO@?4?4?2Data?2ExData?2Voter?4ini?$AA@
  002de	6a 00		 push	 0
  002e0	68 00 00 00 00	 push	 OFFSET ??_C@_0BG@LEGEMHED@MMOTOP_SMSBonusWcoinC?$AA@
  002e5	68 00 00 00 00	 push	 OFFSET ??_C@_06MLPMCPDE@ExTeam?$AA@
  002ea	ff 15 00 00 00
	00		 call	 DWORD PTR __imp__GetPrivateProfileIntA@16
  002f0	8b 4d fc	 mov	 ecx, DWORD PTR _this$[ebp]
  002f3	89 81 00 01 00
	00		 mov	 DWORD PTR [ecx+256], eax

; 82   : 	this->MMOTOP_SMSBonusWcoinP = GetPrivateProfileInt("ExTeam", "MMOTOP_SMSBonusWcoinP", 0, VOTER_DIR);

  002f9	68 00 00 00 00	 push	 OFFSET ??_C@_0BJ@HCOFCKO@?4?4?2Data?2ExData?2Voter?4ini?$AA@
  002fe	6a 00		 push	 0
  00300	68 00 00 00 00	 push	 OFFSET ??_C@_0BG@NFILIGNB@MMOTOP_SMSBonusWcoinP?$AA@
  00305	68 00 00 00 00	 push	 OFFSET ??_C@_06MLPMCPDE@ExTeam?$AA@
  0030a	ff 15 00 00 00
	00		 call	 DWORD PTR __imp__GetPrivateProfileIntA@16
  00310	8b 4d fc	 mov	 ecx, DWORD PTR _this$[ebp]
  00313	89 81 04 01 00
	00		 mov	 DWORD PTR [ecx+260], eax

; 83   : 	this->MMOTOP_SMSBonusWcoinG = GetPrivateProfileInt("ExTeam", "MMOTOP_SMSBonusWcoinG", 0, VOTER_DIR);

  00319	68 00 00 00 00	 push	 OFFSET ??_C@_0BJ@HCOFCKO@?4?4?2Data?2ExData?2Voter?4ini?$AA@
  0031e	6a 00		 push	 0
  00320	68 00 00 00 00	 push	 OFFSET ??_C@_0BG@NAAIACEH@MMOTOP_SMSBonusWcoinG?$AA@
  00325	68 00 00 00 00	 push	 OFFSET ??_C@_06MLPMCPDE@ExTeam?$AA@
  0032a	ff 15 00 00 00
	00		 call	 DWORD PTR __imp__GetPrivateProfileIntA@16
  00330	8b 4d fc	 mov	 ecx, DWORD PTR _this$[ebp]
  00333	89 81 08 01 00
	00		 mov	 DWORD PTR [ecx+264], eax

; 84   : 	this->MMOTOP_SMSBonusExCred = GetPrivateProfileInt("ExTeam", "MMOTOP_SMSBonusExCred", 0, VOTER_DIR);

  00339	68 00 00 00 00	 push	 OFFSET ??_C@_0BJ@HCOFCKO@?4?4?2Data?2ExData?2Voter?4ini?$AA@
  0033e	6a 00		 push	 0
  00340	68 00 00 00 00	 push	 OFFSET ??_C@_0BG@HIINPHOD@MMOTOP_SMSBonusExCred?$AA@
  00345	68 00 00 00 00	 push	 OFFSET ??_C@_06MLPMCPDE@ExTeam?$AA@
  0034a	ff 15 00 00 00
	00		 call	 DWORD PTR __imp__GetPrivateProfileIntA@16
  00350	8b 4d fc	 mov	 ecx, DWORD PTR _this$[ebp]
  00353	89 81 0c 01 00
	00		 mov	 DWORD PTR [ecx+268], eax

; 85   : 
; 86   : 	this->MMOTOP_SMSBonusItemActive = GetPrivateProfileInt("ExTeam", "MMOTOP_SMSBonusItemActive", 0, VOTER_DIR);

  00359	68 00 00 00 00	 push	 OFFSET ??_C@_0BJ@HCOFCKO@?4?4?2Data?2ExData?2Voter?4ini?$AA@
  0035e	6a 00		 push	 0
  00360	68 00 00 00 00	 push	 OFFSET ??_C@_0BK@MEJJGGNN@MMOTOP_SMSBonusItemActive?$AA@
  00365	68 00 00 00 00	 push	 OFFSET ??_C@_06MLPMCPDE@ExTeam?$AA@
  0036a	ff 15 00 00 00
	00		 call	 DWORD PTR __imp__GetPrivateProfileIntA@16
  00370	8b 4d fc	 mov	 ecx, DWORD PTR _this$[ebp]
  00373	89 81 10 01 00
	00		 mov	 DWORD PTR [ecx+272], eax

; 87   : 	this->MMOTOP_SMSBonusItemType = GetPrivateProfileInt("ExTeam", "MMOTOP_SMSBonusItemType", 0, VOTER_DIR);

  00379	68 00 00 00 00	 push	 OFFSET ??_C@_0BJ@HCOFCKO@?4?4?2Data?2ExData?2Voter?4ini?$AA@
  0037e	6a 00		 push	 0
  00380	68 00 00 00 00	 push	 OFFSET ??_C@_0BI@MLLFAMGI@MMOTOP_SMSBonusItemType?$AA@
  00385	68 00 00 00 00	 push	 OFFSET ??_C@_06MLPMCPDE@ExTeam?$AA@
  0038a	ff 15 00 00 00
	00		 call	 DWORD PTR __imp__GetPrivateProfileIntA@16
  00390	8b 4d fc	 mov	 ecx, DWORD PTR _this$[ebp]
  00393	89 81 14 01 00
	00		 mov	 DWORD PTR [ecx+276], eax

; 88   : 	this->MMOTOP_SMSBonusItemIndex = GetPrivateProfileInt("ExTeam", "MMOTOP_SMSBonusItemIndex", 0, VOTER_DIR);

  00399	68 00 00 00 00	 push	 OFFSET ??_C@_0BJ@HCOFCKO@?4?4?2Data?2ExData?2Voter?4ini?$AA@
  0039e	6a 00		 push	 0
  003a0	68 00 00 00 00	 push	 OFFSET ??_C@_0BJ@BGLHDFIH@MMOTOP_SMSBonusItemIndex?$AA@
  003a5	68 00 00 00 00	 push	 OFFSET ??_C@_06MLPMCPDE@ExTeam?$AA@
  003aa	ff 15 00 00 00
	00		 call	 DWORD PTR __imp__GetPrivateProfileIntA@16
  003b0	8b 4d fc	 mov	 ecx, DWORD PTR _this$[ebp]
  003b3	89 81 18 01 00
	00		 mov	 DWORD PTR [ecx+280], eax

; 89   : 	this->MMOTOP_SMSBonusItemLevel = GetPrivateProfileInt("ExTeam", "MMOTOP_SMSBonusItemLevel", 0, VOTER_DIR);

  003b9	68 00 00 00 00	 push	 OFFSET ??_C@_0BJ@HCOFCKO@?4?4?2Data?2ExData?2Voter?4ini?$AA@
  003be	6a 00		 push	 0
  003c0	68 00 00 00 00	 push	 OFFSET ??_C@_0BJ@OFBENNGE@MMOTOP_SMSBonusItemLevel?$AA@
  003c5	68 00 00 00 00	 push	 OFFSET ??_C@_06MLPMCPDE@ExTeam?$AA@
  003ca	ff 15 00 00 00
	00		 call	 DWORD PTR __imp__GetPrivateProfileIntA@16
  003d0	8b 4d fc	 mov	 ecx, DWORD PTR _this$[ebp]
  003d3	89 81 1c 01 00
	00		 mov	 DWORD PTR [ecx+284], eax

; 90   : 
; 91   : 	this->MMOTOP_SMSBonusChaosBank = GetPrivateProfileInt("ExTeam", "MMOTOP_SMSBonusChaosBank", 0, VOTER_DIR);

  003d9	68 00 00 00 00	 push	 OFFSET ??_C@_0BJ@HCOFCKO@?4?4?2Data?2ExData?2Voter?4ini?$AA@
  003de	6a 00		 push	 0
  003e0	68 00 00 00 00	 push	 OFFSET ??_C@_0BJ@KDAALDHH@MMOTOP_SMSBonusChaosBank?$AA@
  003e5	68 00 00 00 00	 push	 OFFSET ??_C@_06MLPMCPDE@ExTeam?$AA@
  003ea	ff 15 00 00 00
	00		 call	 DWORD PTR __imp__GetPrivateProfileIntA@16
  003f0	8b 4d fc	 mov	 ecx, DWORD PTR _this$[ebp]
  003f3	89 81 20 01 00
	00		 mov	 DWORD PTR [ecx+288], eax

; 92   : 	this->MMOTOP_SMSBonusBlessBank = GetPrivateProfileInt("ExTeam", "MMOTOP_SMSBonusBlessBank", 0, VOTER_DIR);

  003f9	68 00 00 00 00	 push	 OFFSET ??_C@_0BJ@HCOFCKO@?4?4?2Data?2ExData?2Voter?4ini?$AA@
  003fe	6a 00		 push	 0
  00400	68 00 00 00 00	 push	 OFFSET ??_C@_0BJ@DFBKHBAF@MMOTOP_SMSBonusBlessBank?$AA@
  00405	68 00 00 00 00	 push	 OFFSET ??_C@_06MLPMCPDE@ExTeam?$AA@
  0040a	ff 15 00 00 00
	00		 call	 DWORD PTR __imp__GetPrivateProfileIntA@16
  00410	8b 4d fc	 mov	 ecx, DWORD PTR _this$[ebp]
  00413	89 81 24 01 00
	00		 mov	 DWORD PTR [ecx+292], eax

; 93   : 	this->MMOTOP_SMSBonusSoulBank = GetPrivateProfileInt("ExTeam", "MMOTOP_SMSBonusSoulBank", 0, VOTER_DIR);

  00419	68 00 00 00 00	 push	 OFFSET ??_C@_0BJ@HCOFCKO@?4?4?2Data?2ExData?2Voter?4ini?$AA@
  0041e	6a 00		 push	 0
  00420	68 00 00 00 00	 push	 OFFSET ??_C@_0BI@INDOBIDH@MMOTOP_SMSBonusSoulBank?$AA@
  00425	68 00 00 00 00	 push	 OFFSET ??_C@_06MLPMCPDE@ExTeam?$AA@
  0042a	ff 15 00 00 00
	00		 call	 DWORD PTR __imp__GetPrivateProfileIntA@16
  00430	8b 4d fc	 mov	 ecx, DWORD PTR _this$[ebp]
  00433	89 81 28 01 00
	00		 mov	 DWORD PTR [ecx+296], eax

; 94   : 	this->MMOTOP_SMSBonusLifeBank = GetPrivateProfileInt("ExTeam", "MMOTOP_SMSBonusLifeBank", 0, VOTER_DIR);

  00439	68 00 00 00 00	 push	 OFFSET ??_C@_0BJ@HCOFCKO@?4?4?2Data?2ExData?2Voter?4ini?$AA@
  0043e	6a 00		 push	 0
  00440	68 00 00 00 00	 push	 OFFSET ??_C@_0BI@EJBBELIL@MMOTOP_SMSBonusLifeBank?$AA@
  00445	68 00 00 00 00	 push	 OFFSET ??_C@_06MLPMCPDE@ExTeam?$AA@
  0044a	ff 15 00 00 00
	00		 call	 DWORD PTR __imp__GetPrivateProfileIntA@16
  00450	8b 4d fc	 mov	 ecx, DWORD PTR _this$[ebp]
  00453	89 81 2c 01 00
	00		 mov	 DWORD PTR [ecx+300], eax

; 95   : 
; 96   : 	// ----
; 97   : 
; 98   : 	this->QTOP_DeleteVoteFile = GetPrivateProfileInt("ExTeam", "QTOP_DeleteVoteFile", 1, VOTER_DIR);

  00459	68 00 00 00 00	 push	 OFFSET ??_C@_0BJ@HCOFCKO@?4?4?2Data?2ExData?2Voter?4ini?$AA@
  0045e	6a 01		 push	 1
  00460	68 00 00 00 00	 push	 OFFSET ??_C@_0BE@CCDEDIEG@QTOP_DeleteVoteFile?$AA@
  00465	68 00 00 00 00	 push	 OFFSET ??_C@_06MLPMCPDE@ExTeam?$AA@
  0046a	ff 15 00 00 00
	00		 call	 DWORD PTR __imp__GetPrivateProfileIntA@16
  00470	85 c0		 test	 eax, eax
  00472	0f 95 c0	 setne	 al
  00475	8b 4d fc	 mov	 ecx, DWORD PTR _this$[ebp]
  00478	88 81 31 01 00
	00		 mov	 BYTE PTR [ecx+305], al

; 99   : 	this->QTOP_DownloadFile = GetPrivateProfileInt("ExTeam", "QTOP_DownloadFile", 1, VOTER_DIR);

  0047e	68 00 00 00 00	 push	 OFFSET ??_C@_0BJ@HCOFCKO@?4?4?2Data?2ExData?2Voter?4ini?$AA@
  00483	6a 01		 push	 1
  00485	68 00 00 00 00	 push	 OFFSET ??_C@_0BC@HPDCHCHP@QTOP_DownloadFile?$AA@
  0048a	68 00 00 00 00	 push	 OFFSET ??_C@_06MLPMCPDE@ExTeam?$AA@
  0048f	ff 15 00 00 00
	00		 call	 DWORD PTR __imp__GetPrivateProfileIntA@16
  00495	85 c0		 test	 eax, eax
  00497	0f 95 c0	 setne	 al
  0049a	8b 4d fc	 mov	 ecx, DWORD PTR _this$[ebp]
  0049d	88 81 32 01 00
	00		 mov	 BYTE PTR [ecx+306], al

; 100  : 
; 101  : 	this->QTOP_UPDATE_VOTER = GetPrivateProfileInt("ExTeam", "QTOP_UPDATE_VOTER", 2, VOTER_DIR);

  004a3	68 00 00 00 00	 push	 OFFSET ??_C@_0BJ@HCOFCKO@?4?4?2Data?2ExData?2Voter?4ini?$AA@
  004a8	6a 02		 push	 2
  004aa	68 00 00 00 00	 push	 OFFSET ??_C@_0BC@JLLLCKLO@QTOP_UPDATE_VOTER?$AA@
  004af	68 00 00 00 00	 push	 OFFSET ??_C@_06MLPMCPDE@ExTeam?$AA@
  004b4	ff 15 00 00 00
	00		 call	 DWORD PTR __imp__GetPrivateProfileIntA@16
  004ba	8b 4d fc	 mov	 ecx, DWORD PTR _this$[ebp]
  004bd	89 81 34 01 00
	00		 mov	 DWORD PTR [ecx+308], eax

; 102  : 
; 103  : 	GetPrivateProfileString("ExTeam", "QTOP_VoteFile", "votes/aba02abed8021ba31a4499a390aa8afa4679c6d1.txt?454b02beba57cfd5896709ff1ea8f1aa", this->QTOP_FileName, sizeof(this->QTOP_FileName), VOTER_DIR);

  004c3	68 00 00 00 00	 push	 OFFSET ??_C@_0BJ@HCOFCKO@?4?4?2Data?2ExData?2Voter?4ini?$AA@
  004c8	68 c8 00 00 00	 push	 200			; 000000c8H
  004cd	8b 45 fc	 mov	 eax, DWORD PTR _this$[ebp]
  004d0	05 38 01 00 00	 add	 eax, 312		; 00000138H
  004d5	50		 push	 eax
  004d6	68 00 00 00 00	 push	 OFFSET ??_C@_0FE@DBCBBMPJ@votes?1aba02abed8021ba31a4499a390@
  004db	68 00 00 00 00	 push	 OFFSET ??_C@_0O@KPGCIBKI@QTOP_VoteFile?$AA@
  004e0	68 00 00 00 00	 push	 OFFSET ??_C@_06MLPMCPDE@ExTeam?$AA@
  004e5	ff 15 00 00 00
	00		 call	 DWORD PTR __imp__GetPrivateProfileStringA@24

; 104  : 
; 105  : 	this->QTOP_BonusWcoinC = GetPrivateProfileInt("ExTeam", "QTOP_BonusWcoinC", 0, VOTER_DIR);

  004eb	68 00 00 00 00	 push	 OFFSET ??_C@_0BJ@HCOFCKO@?4?4?2Data?2ExData?2Voter?4ini?$AA@
  004f0	6a 00		 push	 0
  004f2	68 00 00 00 00	 push	 OFFSET ??_C@_0BB@JELJELNN@QTOP_BonusWcoinC?$AA@
  004f7	68 00 00 00 00	 push	 OFFSET ??_C@_06MLPMCPDE@ExTeam?$AA@
  004fc	ff 15 00 00 00
	00		 call	 DWORD PTR __imp__GetPrivateProfileIntA@16
  00502	8b 4d fc	 mov	 ecx, DWORD PTR _this$[ebp]
  00505	89 81 00 02 00
	00		 mov	 DWORD PTR [ecx+512], eax

; 106  : 	this->QTOP_BonusWcoinP = GetPrivateProfileInt("ExTeam", "QTOP_BonusWcoinP", 0, VOTER_DIR);

  0050b	68 00 00 00 00	 push	 OFFSET ??_C@_0BJ@HCOFCKO@?4?4?2Data?2ExData?2Voter?4ini?$AA@
  00510	6a 00		 push	 0
  00512	68 00 00 00 00	 push	 OFFSET ??_C@_0BB@PFFGAKEP@QTOP_BonusWcoinP?$AA@
  00517	68 00 00 00 00	 push	 OFFSET ??_C@_06MLPMCPDE@ExTeam?$AA@
  0051c	ff 15 00 00 00
	00		 call	 DWORD PTR __imp__GetPrivateProfileIntA@16
  00522	8b 4d fc	 mov	 ecx, DWORD PTR _this$[ebp]
  00525	89 81 04 02 00
	00		 mov	 DWORD PTR [ecx+516], eax

; 107  : 	this->QTOP_BonusWcoinG = GetPrivateProfileInt("ExTeam", "QTOP_BonusWcoinG", 0, VOTER_DIR);

  0052b	68 00 00 00 00	 push	 OFFSET ??_C@_0BJ@HCOFCKO@?4?4?2Data?2ExData?2Voter?4ini?$AA@
  00530	6a 00		 push	 0
  00532	68 00 00 00 00	 push	 OFFSET ??_C@_0BB@PANFIONJ@QTOP_BonusWcoinG?$AA@
  00537	68 00 00 00 00	 push	 OFFSET ??_C@_06MLPMCPDE@ExTeam?$AA@
  0053c	ff 15 00 00 00
	00		 call	 DWORD PTR __imp__GetPrivateProfileIntA@16
  00542	8b 4d fc	 mov	 ecx, DWORD PTR _this$[ebp]
  00545	89 81 08 02 00
	00		 mov	 DWORD PTR [ecx+520], eax

; 108  : 	this->QTOP_BonusExCred = GetPrivateProfileInt("ExTeam", "QTOP_BonusExCred", 0, VOTER_DIR);

  0054b	68 00 00 00 00	 push	 OFFSET ??_C@_0BJ@HCOFCKO@?4?4?2Data?2ExData?2Voter?4ini?$AA@
  00550	6a 00		 push	 0
  00552	68 00 00 00 00	 push	 OFFSET ??_C@_0BB@FIFAHLHN@QTOP_BonusExCred?$AA@
  00557	68 00 00 00 00	 push	 OFFSET ??_C@_06MLPMCPDE@ExTeam?$AA@
  0055c	ff 15 00 00 00
	00		 call	 DWORD PTR __imp__GetPrivateProfileIntA@16
  00562	8b 4d fc	 mov	 ecx, DWORD PTR _this$[ebp]
  00565	89 81 0c 02 00
	00		 mov	 DWORD PTR [ecx+524], eax

; 109  : 
; 110  : 	this->QTOP_BonusItemActive = GetPrivateProfileInt("ExTeam", "QTOP_BonusItemActive", 0, VOTER_DIR);

  0056b	68 00 00 00 00	 push	 OFFSET ??_C@_0BJ@HCOFCKO@?4?4?2Data?2ExData?2Voter?4ini?$AA@
  00570	6a 00		 push	 0
  00572	68 00 00 00 00	 push	 OFFSET ??_C@_0BF@HONBIJDE@QTOP_BonusItemActive?$AA@
  00577	68 00 00 00 00	 push	 OFFSET ??_C@_06MLPMCPDE@ExTeam?$AA@
  0057c	ff 15 00 00 00
	00		 call	 DWORD PTR __imp__GetPrivateProfileIntA@16
  00582	8b 4d fc	 mov	 ecx, DWORD PTR _this$[ebp]
  00585	89 81 10 02 00
	00		 mov	 DWORD PTR [ecx+528], eax

; 111  : 	this->QTOP_BonusItemType = GetPrivateProfileInt("ExTeam", "QTOP_BonusItemType", 0, VOTER_DIR);

  0058b	68 00 00 00 00	 push	 OFFSET ??_C@_0BJ@HCOFCKO@?4?4?2Data?2ExData?2Voter?4ini?$AA@
  00590	6a 00		 push	 0
  00592	68 00 00 00 00	 push	 OFFSET ??_C@_0BD@MAHJEECK@QTOP_BonusItemType?$AA@
  00597	68 00 00 00 00	 push	 OFFSET ??_C@_06MLPMCPDE@ExTeam?$AA@
  0059c	ff 15 00 00 00
	00		 call	 DWORD PTR __imp__GetPrivateProfileIntA@16
  005a2	8b 4d fc	 mov	 ecx, DWORD PTR _this$[ebp]
  005a5	89 81 14 02 00
	00		 mov	 DWORD PTR [ecx+532], eax

; 112  : 	this->QTOP_BonusItemIndex = GetPrivateProfileInt("ExTeam", "QTOP_BonusItemIndex", 0, VOTER_DIR);

  005ab	68 00 00 00 00	 push	 OFFSET ??_C@_0BJ@HCOFCKO@?4?4?2Data?2ExData?2Voter?4ini?$AA@
  005b0	6a 00		 push	 0
  005b2	68 00 00 00 00	 push	 OFFSET ??_C@_0BE@IOGONJHD@QTOP_BonusItemIndex?$AA@
  005b7	68 00 00 00 00	 push	 OFFSET ??_C@_06MLPMCPDE@ExTeam?$AA@
  005bc	ff 15 00 00 00
	00		 call	 DWORD PTR __imp__GetPrivateProfileIntA@16
  005c2	8b 4d fc	 mov	 ecx, DWORD PTR _this$[ebp]
  005c5	89 81 18 02 00
	00		 mov	 DWORD PTR [ecx+536], eax

; 113  : 	this->QTOP_BonusItemLevel = GetPrivateProfileInt("ExTeam", "QTOP_BonusItemLevel", 0, VOTER_DIR);

  005cb	68 00 00 00 00	 push	 OFFSET ??_C@_0BJ@HCOFCKO@?4?4?2Data?2ExData?2Voter?4ini?$AA@
  005d0	6a 00		 push	 0
  005d2	68 00 00 00 00	 push	 OFFSET ??_C@_0BE@HNMNDBJA@QTOP_BonusItemLevel?$AA@
  005d7	68 00 00 00 00	 push	 OFFSET ??_C@_06MLPMCPDE@ExTeam?$AA@
  005dc	ff 15 00 00 00
	00		 call	 DWORD PTR __imp__GetPrivateProfileIntA@16
  005e2	8b 4d fc	 mov	 ecx, DWORD PTR _this$[ebp]
  005e5	89 81 1c 02 00
	00		 mov	 DWORD PTR [ecx+540], eax

; 114  : 
; 115  : 	this->QTOP_BonusChaosBank = GetPrivateProfileInt("ExTeam", "QTOP_BonusChaosBank", 0, VOTER_DIR);

  005eb	68 00 00 00 00	 push	 OFFSET ??_C@_0BJ@HCOFCKO@?4?4?2Data?2ExData?2Voter?4ini?$AA@
  005f0	6a 00		 push	 0
  005f2	68 00 00 00 00	 push	 OFFSET ??_C@_0BE@DLNJFPID@QTOP_BonusChaosBank?$AA@
  005f7	68 00 00 00 00	 push	 OFFSET ??_C@_06MLPMCPDE@ExTeam?$AA@
  005fc	ff 15 00 00 00
	00		 call	 DWORD PTR __imp__GetPrivateProfileIntA@16
  00602	8b 4d fc	 mov	 ecx, DWORD PTR _this$[ebp]
  00605	89 81 20 02 00
	00		 mov	 DWORD PTR [ecx+544], eax

; 116  : 	this->QTOP_BonusBlessBank = GetPrivateProfileInt("ExTeam", "QTOP_BonusBlessBank", 0, VOTER_DIR);

  0060b	68 00 00 00 00	 push	 OFFSET ??_C@_0BJ@HCOFCKO@?4?4?2Data?2ExData?2Voter?4ini?$AA@
  00610	6a 00		 push	 0
  00612	68 00 00 00 00	 push	 OFFSET ??_C@_0BE@KNMDJNPB@QTOP_BonusBlessBank?$AA@
  00617	68 00 00 00 00	 push	 OFFSET ??_C@_06MLPMCPDE@ExTeam?$AA@
  0061c	ff 15 00 00 00
	00		 call	 DWORD PTR __imp__GetPrivateProfileIntA@16
  00622	8b 4d fc	 mov	 ecx, DWORD PTR _this$[ebp]
  00625	89 81 24 02 00
	00		 mov	 DWORD PTR [ecx+548], eax

; 117  : 	this->QTOP_BonusSoulBank = GetPrivateProfileInt("ExTeam", "QTOP_BonusSoulBank", 0, VOTER_DIR);

  0062b	68 00 00 00 00	 push	 OFFSET ??_C@_0BJ@HCOFCKO@?4?4?2Data?2ExData?2Voter?4ini?$AA@
  00630	6a 00		 push	 0
  00632	68 00 00 00 00	 push	 OFFSET ??_C@_0BD@IGPCFAHF@QTOP_BonusSoulBank?$AA@
  00637	68 00 00 00 00	 push	 OFFSET ??_C@_06MLPMCPDE@ExTeam?$AA@
  0063c	ff 15 00 00 00
	00		 call	 DWORD PTR __imp__GetPrivateProfileIntA@16
  00642	8b 4d fc	 mov	 ecx, DWORD PTR _this$[ebp]
  00645	89 81 28 02 00
	00		 mov	 DWORD PTR [ecx+552], eax

; 118  : 	this->QTOP_BonusLifeBank = GetPrivateProfileInt("ExTeam", "QTOP_BonusLifeBank", 0, VOTER_DIR);

  0064b	68 00 00 00 00	 push	 OFFSET ??_C@_0BJ@HCOFCKO@?4?4?2Data?2ExData?2Voter?4ini?$AA@
  00650	6a 00		 push	 0
  00652	68 00 00 00 00	 push	 OFFSET ??_C@_0BD@ECNNADMJ@QTOP_BonusLifeBank?$AA@
  00657	68 00 00 00 00	 push	 OFFSET ??_C@_06MLPMCPDE@ExTeam?$AA@
  0065c	ff 15 00 00 00
	00		 call	 DWORD PTR __imp__GetPrivateProfileIntA@16
  00662	8b 4d fc	 mov	 ecx, DWORD PTR _this$[ebp]
  00665	89 81 2c 02 00
	00		 mov	 DWORD PTR [ecx+556], eax

; 119  : 
; 120  : 	this->QTOP_SMSBonusWcoinC = GetPrivateProfileInt("ExTeam", "QTOP_SMSBonusWcoinC", 0, VOTER_DIR);

  0066b	68 00 00 00 00	 push	 OFFSET ??_C@_0BJ@HCOFCKO@?4?4?2Data?2ExData?2Voter?4ini?$AA@
  00670	6a 00		 push	 0
  00672	68 00 00 00 00	 push	 OFFSET ??_C@_0BE@IOBCDMMJ@QTOP_SMSBonusWcoinC?$AA@
  00677	68 00 00 00 00	 push	 OFFSET ??_C@_06MLPMCPDE@ExTeam?$AA@
  0067c	ff 15 00 00 00
	00		 call	 DWORD PTR __imp__GetPrivateProfileIntA@16
  00682	8b 4d fc	 mov	 ecx, DWORD PTR _this$[ebp]
  00685	89 81 30 02 00
	00		 mov	 DWORD PTR [ecx+560], eax

; 121  : 	this->QTOP_SMSBonusWcoinP = GetPrivateProfileInt("ExTeam", "QTOP_SMSBonusWcoinP", 0, VOTER_DIR);

  0068b	68 00 00 00 00	 push	 OFFSET ??_C@_0BJ@HCOFCKO@?4?4?2Data?2ExData?2Voter?4ini?$AA@
  00690	6a 00		 push	 0
  00692	68 00 00 00 00	 push	 OFFSET ??_C@_0BE@OPPNHNFL@QTOP_SMSBonusWcoinP?$AA@
  00697	68 00 00 00 00	 push	 OFFSET ??_C@_06MLPMCPDE@ExTeam?$AA@
  0069c	ff 15 00 00 00
	00		 call	 DWORD PTR __imp__GetPrivateProfileIntA@16
  006a2	8b 4d fc	 mov	 ecx, DWORD PTR _this$[ebp]
  006a5	89 81 34 02 00
	00		 mov	 DWORD PTR [ecx+564], eax

; 122  : 	this->QTOP_SMSBonusWcoinG = GetPrivateProfileInt("ExTeam", "QTOP_SMSBonusWcoinG", 0, VOTER_DIR);

  006ab	68 00 00 00 00	 push	 OFFSET ??_C@_0BJ@HCOFCKO@?4?4?2Data?2ExData?2Voter?4ini?$AA@
  006b0	6a 00		 push	 0
  006b2	68 00 00 00 00	 push	 OFFSET ??_C@_0BE@OKHOPJMN@QTOP_SMSBonusWcoinG?$AA@
  006b7	68 00 00 00 00	 push	 OFFSET ??_C@_06MLPMCPDE@ExTeam?$AA@
  006bc	ff 15 00 00 00
	00		 call	 DWORD PTR __imp__GetPrivateProfileIntA@16
  006c2	8b 4d fc	 mov	 ecx, DWORD PTR _this$[ebp]
  006c5	89 81 38 02 00
	00		 mov	 DWORD PTR [ecx+568], eax

; 123  : 	this->QTOP_SMSBonusExCred = GetPrivateProfileInt("ExTeam", "QTOP_SMSBonusExCred", 0, VOTER_DIR);

  006cb	68 00 00 00 00	 push	 OFFSET ??_C@_0BJ@HCOFCKO@?4?4?2Data?2ExData?2Voter?4ini?$AA@
  006d0	6a 00		 push	 0
  006d2	68 00 00 00 00	 push	 OFFSET ??_C@_0BE@ECPLAMGJ@QTOP_SMSBonusExCred?$AA@
  006d7	68 00 00 00 00	 push	 OFFSET ??_C@_06MLPMCPDE@ExTeam?$AA@
  006dc	ff 15 00 00 00
	00		 call	 DWORD PTR __imp__GetPrivateProfileIntA@16
  006e2	8b 4d fc	 mov	 ecx, DWORD PTR _this$[ebp]
  006e5	89 81 3c 02 00
	00		 mov	 DWORD PTR [ecx+572], eax

; 124  : 
; 125  : 	this->QTOP_SMSBonusItemActive = GetPrivateProfileInt("ExTeam", "QTOP_SMSBonusItemActive", 0, VOTER_DIR);

  006eb	68 00 00 00 00	 push	 OFFSET ??_C@_0BJ@HCOFCKO@?4?4?2Data?2ExData?2Voter?4ini?$AA@
  006f0	6a 00		 push	 0
  006f2	68 00 00 00 00	 push	 OFFSET ??_C@_0BI@EAIFKLHB@QTOP_SMSBonusItemActive?$AA@
  006f7	68 00 00 00 00	 push	 OFFSET ??_C@_06MLPMCPDE@ExTeam?$AA@
  006fc	ff 15 00 00 00
	00		 call	 DWORD PTR __imp__GetPrivateProfileIntA@16
  00702	8b 4d fc	 mov	 ecx, DWORD PTR _this$[ebp]
  00705	89 81 40 02 00
	00		 mov	 DWORD PTR [ecx+576], eax

; 126  : 	this->QTOP_SMSBonusItemType = GetPrivateProfileInt("ExTeam", "QTOP_SMSBonusItemType", 0, VOTER_DIR);

  0070b	68 00 00 00 00	 push	 OFFSET ??_C@_0BJ@HCOFCKO@?4?4?2Data?2ExData?2Voter?4ini?$AA@
  00710	6a 00		 push	 0
  00712	68 00 00 00 00	 push	 OFFSET ??_C@_0BG@CALGGNEL@QTOP_SMSBonusItemType?$AA@
  00717	68 00 00 00 00	 push	 OFFSET ??_C@_06MLPMCPDE@ExTeam?$AA@
  0071c	ff 15 00 00 00
	00		 call	 DWORD PTR __imp__GetPrivateProfileIntA@16
  00722	8b 4d fc	 mov	 ecx, DWORD PTR _this$[ebp]
  00725	89 81 44 02 00
	00		 mov	 DWORD PTR [ecx+580], eax

; 127  : 	this->QTOP_SMSBonusItemIndex = GetPrivateProfileInt("ExTeam", "QTOP_SMSBonusItemIndex", 0, VOTER_DIR);

  0072b	68 00 00 00 00	 push	 OFFSET ??_C@_0BJ@HCOFCKO@?4?4?2Data?2ExData?2Voter?4ini?$AA@
  00730	6a 00		 push	 0
  00732	68 00 00 00 00	 push	 OFFSET ??_C@_0BH@LEDLEHJE@QTOP_SMSBonusItemIndex?$AA@
  00737	68 00 00 00 00	 push	 OFFSET ??_C@_06MLPMCPDE@ExTeam?$AA@
  0073c	ff 15 00 00 00
	00		 call	 DWORD PTR __imp__GetPrivateProfileIntA@16
  00742	8b 4d fc	 mov	 ecx, DWORD PTR _this$[ebp]
  00745	89 81 48 02 00
	00		 mov	 DWORD PTR [ecx+584], eax

; 128  : 	this->QTOP_SMSBonusItemLevel = GetPrivateProfileInt("ExTeam", "QTOP_SMSBonusItemLevel", 0, VOTER_DIR);

  0074b	68 00 00 00 00	 push	 OFFSET ??_C@_0BJ@HCOFCKO@?4?4?2Data?2ExData?2Voter?4ini?$AA@
  00750	6a 00		 push	 0
  00752	68 00 00 00 00	 push	 OFFSET ??_C@_0BH@EHJIKPHH@QTOP_SMSBonusItemLevel?$AA@
  00757	68 00 00 00 00	 push	 OFFSET ??_C@_06MLPMCPDE@ExTeam?$AA@
  0075c	ff 15 00 00 00
	00		 call	 DWORD PTR __imp__GetPrivateProfileIntA@16
  00762	8b 4d fc	 mov	 ecx, DWORD PTR _this$[ebp]
  00765	89 81 4c 02 00
	00		 mov	 DWORD PTR [ecx+588], eax

; 129  : 
; 130  : 	this->QTOP_SMSBonusChaosBank = GetPrivateProfileInt("ExTeam", "QTOP_SMSBonusChaosBank", 0, VOTER_DIR);

  0076b	68 00 00 00 00	 push	 OFFSET ??_C@_0BJ@HCOFCKO@?4?4?2Data?2ExData?2Voter?4ini?$AA@
  00770	6a 00		 push	 0
  00772	68 00 00 00 00	 push	 OFFSET ??_C@_0BH@BIMMBGE@QTOP_SMSBonusChaosBank?$AA@
  00777	68 00 00 00 00	 push	 OFFSET ??_C@_06MLPMCPDE@ExTeam?$AA@
  0077c	ff 15 00 00 00
	00		 call	 DWORD PTR __imp__GetPrivateProfileIntA@16
  00782	8b 4d fc	 mov	 ecx, DWORD PTR _this$[ebp]
  00785	89 81 50 02 00
	00		 mov	 DWORD PTR [ecx+592], eax

; 131  : 	this->QTOP_SMSBonusBlessBank = GetPrivateProfileInt("ExTeam", "QTOP_SMSBonusBlessBank", 0, VOTER_DIR);

  0078b	68 00 00 00 00	 push	 OFFSET ??_C@_0BJ@HCOFCKO@?4?4?2Data?2ExData?2Voter?4ini?$AA@
  00790	6a 00		 push	 0
  00792	68 00 00 00 00	 push	 OFFSET ??_C@_0BH@JHJGADBG@QTOP_SMSBonusBlessBank?$AA@
  00797	68 00 00 00 00	 push	 OFFSET ??_C@_06MLPMCPDE@ExTeam?$AA@
  0079c	ff 15 00 00 00
	00		 call	 DWORD PTR __imp__GetPrivateProfileIntA@16
  007a2	8b 4d fc	 mov	 ecx, DWORD PTR _this$[ebp]
  007a5	89 81 54 02 00
	00		 mov	 DWORD PTR [ecx+596], eax

; 132  : 	this->QTOP_SMSBonusSoulBank = GetPrivateProfileInt("ExTeam", "QTOP_SMSBonusSoulBank", 0, VOTER_DIR);

  007ab	68 00 00 00 00	 push	 OFFSET ??_C@_0BJ@HCOFCKO@?4?4?2Data?2ExData?2Voter?4ini?$AA@
  007b0	6a 00		 push	 0
  007b2	68 00 00 00 00	 push	 OFFSET ??_C@_0BG@GGDNHJBE@QTOP_SMSBonusSoulBank?$AA@
  007b7	68 00 00 00 00	 push	 OFFSET ??_C@_06MLPMCPDE@ExTeam?$AA@
  007bc	ff 15 00 00 00
	00		 call	 DWORD PTR __imp__GetPrivateProfileIntA@16
  007c2	8b 4d fc	 mov	 ecx, DWORD PTR _this$[ebp]
  007c5	89 81 58 02 00
	00		 mov	 DWORD PTR [ecx+600], eax

; 133  : 	this->QTOP_SMSBonusLifeBank = GetPrivateProfileInt("ExTeam", "QTOP_SMSBonusLifeBank", 0, VOTER_DIR);

  007cb	68 00 00 00 00	 push	 OFFSET ??_C@_0BJ@HCOFCKO@?4?4?2Data?2ExData?2Voter?4ini?$AA@
  007d0	6a 00		 push	 0
  007d2	68 00 00 00 00	 push	 OFFSET ??_C@_0BG@KCBCCKKI@QTOP_SMSBonusLifeBank?$AA@
  007d7	68 00 00 00 00	 push	 OFFSET ??_C@_06MLPMCPDE@ExTeam?$AA@
  007dc	ff 15 00 00 00
	00		 call	 DWORD PTR __imp__GetPrivateProfileIntA@16
  007e2	8b 4d fc	 mov	 ecx, DWORD PTR _this$[ebp]
  007e5	89 81 5c 02 00
	00		 mov	 DWORD PTR [ecx+604], eax

; 134  : 
; 135  : 	// ----
; 136  : 
; 137  : 	this->MMOTOP_BuffTime = GetPrivateProfileInt("ExTeam", "MMOTOP_BuffTime", 0, VOTER_DIR);

  007eb	68 00 00 00 00	 push	 OFFSET ??_C@_0BJ@HCOFCKO@?4?4?2Data?2ExData?2Voter?4ini?$AA@
  007f0	6a 00		 push	 0
  007f2	68 00 00 00 00	 push	 OFFSET ??_C@_0BA@FPOKAIAG@MMOTOP_BuffTime?$AA@
  007f7	68 00 00 00 00	 push	 OFFSET ??_C@_06MLPMCPDE@ExTeam?$AA@
  007fc	ff 15 00 00 00
	00		 call	 DWORD PTR __imp__GetPrivateProfileIntA@16
  00802	8b 4d fc	 mov	 ecx, DWORD PTR _this$[ebp]
  00805	89 81 60 02 00
	00		 mov	 DWORD PTR [ecx+608], eax

; 138  : 	this->MMOTOP_SMSBuffTime = GetPrivateProfileInt("ExTeam", "MMOTOP_SMSBuffTime", 0, VOTER_DIR);

  0080b	68 00 00 00 00	 push	 OFFSET ??_C@_0BJ@HCOFCKO@?4?4?2Data?2ExData?2Voter?4ini?$AA@
  00810	6a 00		 push	 0
  00812	68 00 00 00 00	 push	 OFFSET ??_C@_0BD@PDOBGAFG@MMOTOP_SMSBuffTime?$AA@
  00817	68 00 00 00 00	 push	 OFFSET ??_C@_06MLPMCPDE@ExTeam?$AA@
  0081c	ff 15 00 00 00
	00		 call	 DWORD PTR __imp__GetPrivateProfileIntA@16
  00822	8b 4d fc	 mov	 ecx, DWORD PTR _this$[ebp]
  00825	89 81 64 02 00
	00		 mov	 DWORD PTR [ecx+612], eax

; 139  : 	this->QTOP_BuffTime = GetPrivateProfileInt("ExTeam", "QTOP_BuffTime", 0, VOTER_DIR);

  0082b	68 00 00 00 00	 push	 OFFSET ??_C@_0BJ@HCOFCKO@?4?4?2Data?2ExData?2Voter?4ini?$AA@
  00830	6a 00		 push	 0
  00832	68 00 00 00 00	 push	 OFFSET ??_C@_0O@NOACOOKK@QTOP_BuffTime?$AA@
  00837	68 00 00 00 00	 push	 OFFSET ??_C@_06MLPMCPDE@ExTeam?$AA@
  0083c	ff 15 00 00 00
	00		 call	 DWORD PTR __imp__GetPrivateProfileIntA@16
  00842	8b 4d fc	 mov	 ecx, DWORD PTR _this$[ebp]
  00845	89 81 68 02 00
	00		 mov	 DWORD PTR [ecx+616], eax

; 140  : 	this->QTOP_SMSBuffTime = GetPrivateProfileInt("ExTeam", "QTOP_SMSBuffTime", 0, VOTER_DIR);

  0084b	68 00 00 00 00	 push	 OFFSET ??_C@_0BJ@HCOFCKO@?4?4?2Data?2ExData?2Voter?4ini?$AA@
  00850	6a 00		 push	 0
  00852	68 00 00 00 00	 push	 OFFSET ??_C@_0BB@IFHGPKPD@QTOP_SMSBuffTime?$AA@
  00857	68 00 00 00 00	 push	 OFFSET ??_C@_06MLPMCPDE@ExTeam?$AA@
  0085c	ff 15 00 00 00
	00		 call	 DWORD PTR __imp__GetPrivateProfileIntA@16
  00862	8b 4d fc	 mov	 ecx, DWORD PTR _this$[ebp]
  00865	89 81 6c 02 00
	00		 mov	 DWORD PTR [ecx+620], eax

; 141  : }

  0086b	5f		 pop	 edi
  0086c	5e		 pop	 esi
  0086d	5b		 pop	 ebx
  0086e	8b e5		 mov	 esp, ebp
  00870	5d		 pop	 ebp
  00871	c3		 ret	 0
?Init@Voter@@QAEXXZ ENDP				; Voter::Init
_TEXT	ENDS
PUBLIC	?MootopReed@Voter@@QAEXXZ			; Voter::MootopReed
PUBLIC	??_C@_0BC@ELJALHPL@hInternet?5?$CB?$DN?5NULL?$AA@ ; `string'
PUBLIC	??_C@_0BB@MALKFMPK@hConnect?5?$CB?$DN?5NULL?$AA@ ; `string'
PUBLIC	??_C@_0BB@CCOENLML@hRequest?5?$CB?$DN?5NULL?$AA@ ; `string'
PUBLIC	??_C@_05DLJCAKKO@bSend?$AA@			; `string'
PUBLIC	??_D?$basic_ofstream@DU?$char_traits@D@std@@@std@@QAEXXZ ; std::basic_ofstream<char,std::char_traits<char> >::`vbase destructor'
PUBLIC	??_C@_0BA@HICLJBKB@fnews?4is_open?$CI?$CJ?$AA@	; `string'
PUBLIC	??$?6U?$char_traits@D@std@@@std@@YAAAV?$basic_ostream@DU?$char_traits@D@std@@@0@AAV10@PBD@Z ; std::operator<<<std::char_traits<char> >
PUBLIC	?is_open@?$basic_ofstream@DU?$char_traits@D@std@@@std@@QBE_NXZ ; std::basic_ofstream<char,std::char_traits<char> >::is_open
PUBLIC	??0?$basic_ofstream@DU?$char_traits@D@std@@@std@@QAE@PBDHH@Z ; std::basic_ofstream<char,std::char_traits<char> >::basic_ofstream<char,std::char_traits<char> >
PUBLIC	??_C@_0L@HJNFAJLH@mootop?4txt?$AA@		; `string'
PUBLIC	??_C@_03HAPOJHBM@GET?$AA@			; `string'
PUBLIC	??_C@_0O@DPCADCBH@www?4mmotop?4ru?$AA@		; `string'
PUBLIC	??_C@_01NOFIACDB@w?$AA@				; `string'
PUBLIC	??_C@_06KLDIONEO@MMOTOP?$AA@			; `string'
PUBLIC	??_C@_0L@HNCANJIK@mmotop?4txt?$AA@		; `string'
PUBLIC	__$ArrayPad$
PUBLIC	?Mootop@Voter@@QAEXXZ				; Voter::Mootop
EXTRN	__imp__HttpSendRequestA@20:PROC
EXTRN	__imp__HttpOpenRequestA@32:PROC
EXTRN	__imp__InternetConnectA@32:PROC
EXTRN	_fclose:PROC
EXTRN	_fputs:PROC
EXTRN	__imp__InternetReadFile@16:PROC
EXTRN	_memset:PROC
EXTRN	_fopen:PROC
EXTRN	__imp__InternetCloseHandle@4:PROC
EXTRN	__imp__InternetOpenUrlA@24:PROC
EXTRN	__imp__InternetOpenA@20:PROC
EXTRN	_URLDownloadToFileA@20:PROC
EXTRN	___security_cookie:DWORD
EXTRN	___CxxFrameHandler3:PROC
EXTRN	@__security_check_cookie@4:PROC
EXTRN	__chkstk:PROC
;	COMDAT ??_C@_0BC@ELJALHPL@hInternet?5?$CB?$DN?5NULL?$AA@
CONST	SEGMENT
??_C@_0BC@ELJALHPL@hInternet?5?$CB?$DN?5NULL?$AA@ DB 'hInternet != NULL', 00H ; `string'
CONST	ENDS
;	COMDAT ??_C@_0BB@MALKFMPK@hConnect?5?$CB?$DN?5NULL?$AA@
CONST	SEGMENT
??_C@_0BB@MALKFMPK@hConnect?5?$CB?$DN?5NULL?$AA@ DB 'hConnect != NULL', 00H ; `string'
CONST	ENDS
;	COMDAT ??_C@_0BB@CCOENLML@hRequest?5?$CB?$DN?5NULL?$AA@
CONST	SEGMENT
??_C@_0BB@CCOENLML@hRequest?5?$CB?$DN?5NULL?$AA@ DB 'hRequest != NULL', 00H ; `string'
CONST	ENDS
;	COMDAT ??_C@_05DLJCAKKO@bSend?$AA@
CONST	SEGMENT
??_C@_05DLJCAKKO@bSend?$AA@ DB 'bSend', 00H		; `string'
CONST	ENDS
;	COMDAT ??_C@_0BA@HICLJBKB@fnews?4is_open?$CI?$CJ?$AA@
CONST	SEGMENT
??_C@_0BA@HICLJBKB@fnews?4is_open?$CI?$CJ?$AA@ DB 'fnews.is_open()', 00H ; `string'
CONST	ENDS
;	COMDAT ??_C@_0L@HJNFAJLH@mootop?4txt?$AA@
CONST	SEGMENT
??_C@_0L@HJNFAJLH@mootop?4txt?$AA@ DB 'mootop.txt', 00H	; `string'
CONST	ENDS
;	COMDAT ??_C@_03HAPOJHBM@GET?$AA@
CONST	SEGMENT
??_C@_03HAPOJHBM@GET?$AA@ DB 'GET', 00H			; `string'
CONST	ENDS
;	COMDAT ??_C@_0O@DPCADCBH@www?4mmotop?4ru?$AA@
CONST	SEGMENT
??_C@_0O@DPCADCBH@www?4mmotop?4ru?$AA@ DB 'www.mmotop.ru', 00H ; `string'
CONST	ENDS
;	COMDAT ??_C@_01NOFIACDB@w?$AA@
CONST	SEGMENT
??_C@_01NOFIACDB@w?$AA@ DB 'w', 00H			; `string'
CONST	ENDS
;	COMDAT ??_C@_06KLDIONEO@MMOTOP?$AA@
CONST	SEGMENT
??_C@_06KLDIONEO@MMOTOP?$AA@ DB 'MMOTOP', 00H		; `string'
CONST	ENDS
;	COMDAT ??_C@_0L@HNCANJIK@mmotop?4txt?$AA@
CONST	SEGMENT
??_C@_0L@HNCANJIK@mmotop?4txt?$AA@ DB 'mmotop.txt', 00H	; `string'
CONST	ENDS
xdata$x	SEGMENT
__unwindtable$?Mootop@Voter@@QAEXXZ DD 0ffffffffH
	DD	FLAT:__unwindfunclet$?Mootop@Voter@@QAEXXZ$0
__ehfuncinfo$?Mootop@Voter@@QAEXXZ DD 019930522H
	DD	01H
	DD	FLAT:__unwindtable$?Mootop@Voter@@QAEXXZ
	DD	2 DUP(00H)
	DD	2 DUP(00H)
	DD	00H
	DD	01H
; Function compile flags: /Odtp /ZI
xdata$x	ENDS
_TEXT	SEGMENT
_bRead$224361 = -8424					; size = 4
_dwBytesRead$224360 = -8420				; size = 4
_szData$224359 = -8416					; size = 4096
_fnews$224352 = -4320					; size = 168
_bSend$224135 = -4152					; size = 4
_hRequest$224132 = -4148				; size = 4
_hConnect$224129 = -4144				; size = 4
_hInternet$224127 = -4140				; size = 4
_bRead$224123 = -4136					; size = 4
_dwBytesRead$224122 = -4132				; size = 4
_szData$224121 = -4128					; size = 4096
_file$224115 = -32					; size = 4
_hHandle$224112 = -28					; size = 4
_hSession$224110 = -24					; size = 4
_this$ = -20						; size = 4
__$ArrayPad$ = -16					; size = 4
__$EHRec$ = -12						; size = 12
?Mootop@Voter@@QAEXXZ PROC				; Voter::Mootop
; _this$ = ecx

; 144  : {

  00880	55		 push	 ebp
  00881	8b ec		 mov	 ebp, esp
  00883	6a ff		 push	 -1
  00885	68 00 00 00 00	 push	 __ehhandler$?Mootop@Voter@@QAEXXZ
  0088a	64 a1 00 00 00
	00		 mov	 eax, DWORD PTR fs:0
  00890	50		 push	 eax
  00891	b8 1c 21 00 00	 mov	 eax, 8476		; 0000211cH
  00896	e8 00 00 00 00	 call	 __chkstk
  0089b	a1 00 00 00 00	 mov	 eax, DWORD PTR ___security_cookie
  008a0	33 c5		 xor	 eax, ebp
  008a2	89 45 f0	 mov	 DWORD PTR __$ArrayPad$[ebp], eax
  008a5	53		 push	 ebx
  008a6	56		 push	 esi
  008a7	57		 push	 edi
  008a8	50		 push	 eax
  008a9	8d 45 f4	 lea	 eax, DWORD PTR __$EHRec$[ebp]
  008ac	64 a3 00 00 00
	00		 mov	 DWORD PTR fs:0, eax
  008b2	89 4d ec	 mov	 DWORD PTR _this$[ebp], ecx

; 145  : 	if(!this->MMOTOP_Enable) return;

  008b5	8b 45 ec	 mov	 eax, DWORD PTR _this$[ebp]
  008b8	0f b6 08	 movzx	 ecx, BYTE PTR [eax]
  008bb	85 c9		 test	 ecx, ecx
  008bd	75 05		 jne	 SHORT $LN28@Mootop
  008bf	e9 3f 03 00 00	 jmp	 $LN29@Mootop
$LN28@Mootop:

; 146  : 
; 147  : 	//--------------------------------------------------------
; 148  : 	if (MMOTOP_UPDATE_VOTER == 1)

  008c4	8b 45 ec	 mov	 eax, DWORD PTR _this$[ebp]
  008c7	83 78 04 01	 cmp	 DWORD PTR [eax+4], 1
  008cb	75 27		 jne	 SHORT $LN27@Mootop

; 149  : 	{
; 150  : 		if (this->MMOTOP_DownloadFile)

  008cd	8b 45 ec	 mov	 eax, DWORD PTR _this$[ebp]
  008d0	0f b6 48 02	 movzx	 ecx, BYTE PTR [eax+2]
  008d4	85 c9		 test	 ecx, ecx
  008d6	74 17		 je	 SHORT $LN26@Mootop

; 151  : 		{
; 152  : 			URLDownloadToFileA ( NULL, 
; 153  : 				_T(this->MMOTOP_FileName),
; 154  : 				_T("mmotop.txt"),
; 155  : 				0,NULL );

  008d8	6a 00		 push	 0
  008da	6a 00		 push	 0
  008dc	68 00 00 00 00	 push	 OFFSET ??_C@_0L@HNCANJIK@mmotop?4txt?$AA@
  008e1	8b 45 ec	 mov	 eax, DWORD PTR _this$[ebp]
  008e4	83 c0 08	 add	 eax, 8
  008e7	50		 push	 eax
  008e8	6a 00		 push	 0
  008ea	e8 00 00 00 00	 call	 _URLDownloadToFileA@20
$LN26@Mootop:

; 156  : 		}
; 157  : 	}

  008ef	e9 07 03 00 00	 jmp	 $LN25@Mootop
$LN27@Mootop:

; 158  : 	//--------------------------------------------------------
; 159  : 	else if (MMOTOP_UPDATE_VOTER == 2)

  008f4	8b 45 ec	 mov	 eax, DWORD PTR _this$[ebp]
  008f7	83 78 04 02	 cmp	 DWORD PTR [eax+4], 2
  008fb	0f 85 26 01 00
	00		 jne	 $LN24@Mootop

; 160  : 	{
; 161  : 		if (this->MMOTOP_DownloadFile)

  00901	8b 45 ec	 mov	 eax, DWORD PTR _this$[ebp]
  00904	0f b6 48 02	 movzx	 ecx, BYTE PTR [eax+2]
  00908	85 c9		 test	 ecx, ecx
  0090a	0f 84 12 01 00
	00		 je	 $LN23@Mootop

; 162  : 		{
; 163  : 			HINTERNET hSession	= InternetOpenA("MMOTOP", INTERNET_OPEN_TYPE_PRECONFIG, NULL, NULL, 0);

  00910	6a 00		 push	 0
  00912	6a 00		 push	 0
  00914	6a 00		 push	 0
  00916	6a 00		 push	 0
  00918	68 00 00 00 00	 push	 OFFSET ??_C@_06KLDIONEO@MMOTOP?$AA@
  0091d	ff 15 00 00 00
	00		 call	 DWORD PTR __imp__InternetOpenA@20
  00923	89 45 e8	 mov	 DWORD PTR _hSession$224110[ebp], eax

; 164  : 			HINTERNET hHandle = InternetOpenUrlA(hSession, this->MMOTOP_FileName, NULL, 0, INTERNET_FLAG_DONT_CACHE, 0);

  00926	6a 00		 push	 0
  00928	68 00 00 00 04	 push	 67108864		; 04000000H
  0092d	6a 00		 push	 0
  0092f	6a 00		 push	 0
  00931	8b 45 ec	 mov	 eax, DWORD PTR _this$[ebp]
  00934	83 c0 08	 add	 eax, 8
  00937	50		 push	 eax
  00938	8b 4d e8	 mov	 ecx, DWORD PTR _hSession$224110[ebp]
  0093b	51		 push	 ecx
  0093c	ff 15 00 00 00
	00		 call	 DWORD PTR __imp__InternetOpenUrlA@24
  00942	89 45 e4	 mov	 DWORD PTR _hHandle$224112[ebp], eax

; 165  : 			// ----
; 166  : 			if( hSession == NULL || hHandle == NULL )

  00945	83 7d e8 00	 cmp	 DWORD PTR _hSession$224110[ebp], 0
  00949	74 06		 je	 SHORT $LN21@Mootop
  0094b	83 7d e4 00	 cmp	 DWORD PTR _hHandle$224112[ebp], 0
  0094f	75 19		 jne	 SHORT $LN22@Mootop
$LN21@Mootop:

; 167  : 			{
; 168  : 				InternetCloseHandle(hSession);

  00951	8b 45 e8	 mov	 eax, DWORD PTR _hSession$224110[ebp]
  00954	50		 push	 eax
  00955	ff 15 00 00 00
	00		 call	 DWORD PTR __imp__InternetCloseHandle@4

; 169  : 				InternetCloseHandle(hHandle);

  0095b	8b 45 e4	 mov	 eax, DWORD PTR _hHandle$224112[ebp]
  0095e	50		 push	 eax
  0095f	ff 15 00 00 00
	00		 call	 DWORD PTR __imp__InternetCloseHandle@4

; 170  : 				return;

  00965	e9 99 02 00 00	 jmp	 $LN29@Mootop
$LN22@Mootop:

; 171  : 			}
; 172  : 			// ----
; 173  : 			FILE * file = fopen(MMOTOP_FILE, "w");

  0096a	68 00 00 00 00	 push	 OFFSET ??_C@_01NOFIACDB@w?$AA@
  0096f	68 00 00 00 00	 push	 OFFSET ??_C@_0L@HNCANJIK@mmotop?4txt?$AA@
  00974	e8 00 00 00 00	 call	 _fopen
  00979	83 c4 08	 add	 esp, 8
  0097c	89 45 e0	 mov	 DWORD PTR _file$224115[ebp], eax

; 174  : 			if(file)

  0097f	83 7d e0 00	 cmp	 DWORD PTR _file$224115[ebp], 0
  00983	0f 84 85 00 00
	00		 je	 $LN20@Mootop
$LN19@Mootop:

; 175  : 			{
; 176  : 				while (true) 

  00989	b8 01 00 00 00	 mov	 eax, 1
  0098e	85 c0		 test	 eax, eax
  00990	74 70		 je	 SHORT $LN18@Mootop

; 177  : 				{
; 178  : 					//  
; 179  : 					char  szData[4096];
; 180  : 					ZeroMemory(szData,sizeof(szData));

  00992	68 00 10 00 00	 push	 4096			; 00001000H
  00997	6a 00		 push	 0
  00999	8d 85 e0 ef ff
	ff		 lea	 eax, DWORD PTR _szData$224121[ebp]
  0099f	50		 push	 eax
  009a0	e8 00 00 00 00	 call	 _memset
  009a5	83 c4 0c	 add	 esp, 12			; 0000000cH

; 181  : 
; 182  : 					DWORD dwBytesRead;
; 183  : 
; 184  : 					BOOL bRead = ::InternetReadFile(hHandle,szData,sizeof(szData)-1,&dwBytesRead);

  009a8	8d 85 dc ef ff
	ff		 lea	 eax, DWORD PTR _dwBytesRead$224122[ebp]
  009ae	50		 push	 eax
  009af	68 ff 0f 00 00	 push	 4095			; 00000fffH
  009b4	8d 8d e0 ef ff
	ff		 lea	 ecx, DWORD PTR _szData$224121[ebp]
  009ba	51		 push	 ecx
  009bb	8b 55 e4	 mov	 edx, DWORD PTR _hHandle$224112[ebp]
  009be	52		 push	 edx
  009bf	ff 15 00 00 00
	00		 call	 DWORD PTR __imp__InternetReadFile@16
  009c5	89 85 d8 ef ff
	ff		 mov	 DWORD PTR _bRead$224123[ebp], eax

; 185  : 
; 186  : 					//       
; 187  : 					if (bRead == FALSE  ||  dwBytesRead == 0)

  009cb	83 bd d8 ef ff
	ff 00		 cmp	 DWORD PTR _bRead$224123[ebp], 0
  009d2	74 09		 je	 SHORT $LN16@Mootop
  009d4	83 bd dc ef ff
	ff 00		 cmp	 DWORD PTR _dwBytesRead$224122[ebp], 0
  009db	75 02		 jne	 SHORT $LN17@Mootop
$LN16@Mootop:

; 188  : 						break;

  009dd	eb 23		 jmp	 SHORT $LN18@Mootop
$LN17@Mootop:

; 189  : 
; 190  : 					//  
; 191  : 					szData[dwBytesRead] = 0;

  009df	8b 85 dc ef ff
	ff		 mov	 eax, DWORD PTR _dwBytesRead$224122[ebp]
  009e5	c6 84 05 e0 ef
	ff ff 00	 mov	 BYTE PTR _szData$224121[ebp+eax], 0

; 192  : 					fputs(szData, file);

  009ed	8b 45 e0	 mov	 eax, DWORD PTR _file$224115[ebp]
  009f0	50		 push	 eax
  009f1	8d 8d e0 ef ff
	ff		 lea	 ecx, DWORD PTR _szData$224121[ebp]
  009f7	51		 push	 ecx
  009f8	e8 00 00 00 00	 call	 _fputs
  009fd	83 c4 08	 add	 esp, 8

; 193  : 				}

  00a00	eb 87		 jmp	 SHORT $LN19@Mootop
$LN18@Mootop:

; 194  : 				fclose(file);

  00a02	8b 45 e0	 mov	 eax, DWORD PTR _file$224115[ebp]
  00a05	50		 push	 eax
  00a06	e8 00 00 00 00	 call	 _fclose
  00a0b	83 c4 04	 add	 esp, 4
$LN20@Mootop:

; 195  : 			}
; 196  : 			
; 197  : 			InternetCloseHandle(hSession);	//Need ?

  00a0e	8b 45 e8	 mov	 eax, DWORD PTR _hSession$224110[ebp]
  00a11	50		 push	 eax
  00a12	ff 15 00 00 00
	00		 call	 DWORD PTR __imp__InternetCloseHandle@4

; 198  : 			InternetCloseHandle(hHandle);

  00a18	8b 45 e4	 mov	 eax, DWORD PTR _hHandle$224112[ebp]
  00a1b	50		 push	 eax
  00a1c	ff 15 00 00 00
	00		 call	 DWORD PTR __imp__InternetCloseHandle@4
$LN23@Mootop:

; 199  : 		}
; 200  : 
; 201  : 	}
; 202  : 	//--------------------------------------------------------
; 203  : 	else

  00a22	e9 d4 01 00 00	 jmp	 $LN25@Mootop
$LN24@Mootop:

; 204  : 	{
; 205  : 		//  WinInet
; 206  : 		HINTERNET hInternet = ::InternetOpen(TEXT("MMOTOP"),
; 207  : 			INTERNET_OPEN_TYPE_PRECONFIG,
; 208  : 			NULL,NULL,
; 209  : 			0);

  00a27	6a 00		 push	 0
  00a29	6a 00		 push	 0
  00a2b	6a 00		 push	 0
  00a2d	6a 00		 push	 0
  00a2f	68 00 00 00 00	 push	 OFFSET ??_C@_06KLDIONEO@MMOTOP?$AA@
  00a34	ff 15 00 00 00
	00		 call	 DWORD PTR __imp__InternetOpenA@20
  00a3a	89 85 d4 ef ff
	ff		 mov	 DWORD PTR _hInternet$224127[ebp], eax

; 210  : 
; 211  : 		if (hInternet != NULL) 

  00a40	83 bd d4 ef ff
	ff 00		 cmp	 DWORD PTR _hInternet$224127[ebp], 0
  00a47	0f 84 a1 01 00
	00		 je	 $LN14@Mootop

; 212  : 		{
; 213  : 			//  HTTP 
; 214  : 			HINTERNET hConnect = 
; 215  : 				::InternetConnect(
; 216  : 					hInternet,
; 217  : 					TEXT("www.mmotop.ru"),
; 218  : 					INTERNET_DEFAULT_HTTP_PORT,
; 219  : 					NULL,NULL,
; 220  : 					INTERNET_SERVICE_HTTP,
; 221  : 					0,
; 222  : 					1u);

  00a4d	6a 01		 push	 1
  00a4f	6a 00		 push	 0
  00a51	6a 03		 push	 3
  00a53	6a 00		 push	 0
  00a55	6a 00		 push	 0
  00a57	6a 50		 push	 80			; 00000050H
  00a59	68 00 00 00 00	 push	 OFFSET ??_C@_0O@DPCADCBH@www?4mmotop?4ru?$AA@
  00a5e	8b 85 d4 ef ff
	ff		 mov	 eax, DWORD PTR _hInternet$224127[ebp]
  00a64	50		 push	 eax
  00a65	ff 15 00 00 00
	00		 call	 DWORD PTR __imp__InternetConnectA@32
  00a6b	89 85 d0 ef ff
	ff		 mov	 DWORD PTR _hConnect$224129[ebp], eax

; 223  : 
; 224  : 			if (hConnect != NULL) 

  00a71	83 bd d0 ef ff
	ff 00		 cmp	 DWORD PTR _hConnect$224129[ebp], 0
  00a78	0f 84 54 01 00
	00		 je	 $LN13@Mootop

; 225  : 			{
; 226  : 				//  
; 227  : 				HINTERNET hRequest = ::HttpOpenRequest(hConnect,
; 228  : 						TEXT("GET"),
; 229  : 						TEXT(MMOTOP_FileName),        //TEXT("votes/aba02abed8021ba31a4499a390aa8afa4679c6d1.txt"),//TEXT("news.asp"),
; 230  : 						NULL,
; 231  : 						NULL,
; 232  : 						0,
; 233  : 						INTERNET_FLAG_KEEP_CONNECTION,
; 234  : 						1);

  00a7e	6a 01		 push	 1
  00a80	68 00 00 40 00	 push	 4194304			; 00400000H
  00a85	6a 00		 push	 0
  00a87	6a 00		 push	 0
  00a89	6a 00		 push	 0
  00a8b	8b 45 ec	 mov	 eax, DWORD PTR _this$[ebp]
  00a8e	83 c0 08	 add	 eax, 8
  00a91	50		 push	 eax
  00a92	68 00 00 00 00	 push	 OFFSET ??_C@_03HAPOJHBM@GET?$AA@
  00a97	8b 8d d0 ef ff
	ff		 mov	 ecx, DWORD PTR _hConnect$224129[ebp]
  00a9d	51		 push	 ecx
  00a9e	ff 15 00 00 00
	00		 call	 DWORD PTR __imp__HttpOpenRequestA@32
  00aa4	89 85 cc ef ff
	ff		 mov	 DWORD PTR _hRequest$224132[ebp], eax

; 235  : 
; 236  : 				if (hRequest != NULL) 

  00aaa	83 bd cc ef ff
	ff 00		 cmp	 DWORD PTR _hRequest$224132[ebp], 0
  00ab1	0f 84 ff 00 00
	00		 je	 $LN12@Mootop

; 237  : 				{
; 238  : 					//  
; 239  : 					BOOL bSend = ::HttpSendRequest(hRequest, NULL,0, NULL,0);

  00ab7	6a 00		 push	 0
  00ab9	6a 00		 push	 0
  00abb	6a 00		 push	 0
  00abd	6a 00		 push	 0
  00abf	8b 85 cc ef ff
	ff		 mov	 eax, DWORD PTR _hRequest$224132[ebp]
  00ac5	50		 push	 eax
  00ac6	ff 15 00 00 00
	00		 call	 DWORD PTR __imp__HttpSendRequestA@20
  00acc	89 85 c8 ef ff
	ff		 mov	 DWORD PTR _bSend$224135[ebp], eax

; 240  : 					if (bSend) 

  00ad2	83 bd c8 ef ff
	ff 00		 cmp	 DWORD PTR _bSend$224135[ebp], 0
  00ad9	0f 84 bb 00 00
	00		 je	 $LN11@Mootop

; 241  : 					{
; 242  : 						//   
; 243  : 						std::ofstream fnews("mootop.txt",std::ios::out|std::ios::binary);

  00adf	6a 01		 push	 1
  00ae1	6a 40		 push	 64			; 00000040H
  00ae3	6a 22		 push	 34			; 00000022H
  00ae5	68 00 00 00 00	 push	 OFFSET ??_C@_0L@HJNFAJLH@mootop?4txt?$AA@
  00aea	8d 8d 20 ef ff
	ff		 lea	 ecx, DWORD PTR _fnews$224352[ebp]
  00af0	e8 00 00 00 00	 call	 ??0?$basic_ofstream@DU?$char_traits@D@std@@@std@@QAE@PBDHH@Z ; std::basic_ofstream<char,std::char_traits<char> >::basic_ofstream<char,std::char_traits<char> >
  00af5	c7 45 fc 00 00
	00 00		 mov	 DWORD PTR __$EHRec$[ebp+8], 0

; 244  : 						if (fnews.is_open()) 

  00afc	8d 8d 20 ef ff
	ff		 lea	 ecx, DWORD PTR _fnews$224352[ebp]
  00b02	e8 00 00 00 00	 call	 ?is_open@?$basic_ofstream@DU?$char_traits@D@std@@@std@@QBE_NXZ ; std::basic_ofstream<char,std::char_traits<char> >::is_open
  00b07	0f b6 c0	 movzx	 eax, al
  00b0a	85 c0		 test	 eax, eax
  00b0c	74 6b		 je	 SHORT $LN10@Mootop
$LN9@Mootop:

; 245  : 						{
; 246  : 							while (true) 

  00b0e	b8 01 00 00 00	 mov	 eax, 1
  00b13	85 c0		 test	 eax, eax
  00b15	74 60		 je	 SHORT $LN8@Mootop

; 247  : 							{
; 248  : 								//  
; 249  : 								char  szData[4096];
; 250  : 								DWORD dwBytesRead;
; 251  : 								BOOL bRead = 
; 252  : 									::InternetReadFile(
; 253  : 										hRequest,
; 254  : 										szData,sizeof(szData)-1,
; 255  : 										&dwBytesRead);

  00b17	8d 85 1c df ff
	ff		 lea	 eax, DWORD PTR _dwBytesRead$224360[ebp]
  00b1d	50		 push	 eax
  00b1e	68 ff 0f 00 00	 push	 4095			; 00000fffH
  00b23	8d 8d 20 df ff
	ff		 lea	 ecx, DWORD PTR _szData$224359[ebp]
  00b29	51		 push	 ecx
  00b2a	8b 95 cc ef ff
	ff		 mov	 edx, DWORD PTR _hRequest$224132[ebp]
  00b30	52		 push	 edx
  00b31	ff 15 00 00 00
	00		 call	 DWORD PTR __imp__InternetReadFile@16
  00b37	89 85 18 df ff
	ff		 mov	 DWORD PTR _bRead$224361[ebp], eax

; 256  : 
; 257  : 								//       
; 258  : 								if (bRead == FALSE  ||  dwBytesRead == 0)

  00b3d	83 bd 18 df ff
	ff 00		 cmp	 DWORD PTR _bRead$224361[ebp], 0
  00b44	74 09		 je	 SHORT $LN6@Mootop
  00b46	83 bd 1c df ff
	ff 00		 cmp	 DWORD PTR _dwBytesRead$224360[ebp], 0
  00b4d	75 02		 jne	 SHORT $LN7@Mootop
$LN6@Mootop:

; 259  : 									break;

  00b4f	eb 26		 jmp	 SHORT $LN8@Mootop
$LN7@Mootop:

; 260  : 
; 261  : 								//  
; 262  : 								szData[dwBytesRead] = 0;

  00b51	8b 85 1c df ff
	ff		 mov	 eax, DWORD PTR _dwBytesRead$224360[ebp]
  00b57	c6 84 05 20 df
	ff ff 00	 mov	 BYTE PTR _szData$224359[ebp+eax], 0

; 263  : 								fnews << szData;

  00b5f	8d 85 20 df ff
	ff		 lea	 eax, DWORD PTR _szData$224359[ebp]
  00b65	50		 push	 eax
  00b66	8d 8d 20 ef ff
	ff		 lea	 ecx, DWORD PTR _fnews$224352[ebp]
  00b6c	51		 push	 ecx
  00b6d	e8 00 00 00 00	 call	 ??$?6U?$char_traits@D@std@@@std@@YAAAV?$basic_ostream@DU?$char_traits@D@std@@@0@AAV10@PBD@Z ; std::operator<<<std::char_traits<char> >
  00b72	83 c4 08	 add	 esp, 8

; 264  : 							}

  00b75	eb 97		 jmp	 SHORT $LN9@Mootop
$LN8@Mootop:

; 265  : 						}
; 266  : 						else

  00b77	eb 0d		 jmp	 SHORT $LN5@Mootop
$LN10@Mootop:

; 267  : 						{
; 268  : 							AdmLog("fnews.is_open()");

  00b79	68 00 00 00 00	 push	 OFFSET ??_C@_0BA@HICLJBKB@fnews?4is_open?$CI?$CJ?$AA@
  00b7e	e8 00 00 00 00	 call	 ?AdmLog@@YAXPAD@Z	; AdmLog
  00b83	83 c4 04	 add	 esp, 4
$LN5@Mootop:

; 269  : 						}
; 270  : 					}

  00b86	c7 45 fc ff ff
	ff ff		 mov	 DWORD PTR __$EHRec$[ebp+8], -1
  00b8d	8d 8d 20 ef ff
	ff		 lea	 ecx, DWORD PTR _fnews$224352[ebp]
  00b93	e8 00 00 00 00	 call	 ??_D?$basic_ofstream@DU?$char_traits@D@std@@@std@@QAEXXZ

; 271  : 					else

  00b98	eb 0d		 jmp	 SHORT $LN4@Mootop
$LN11@Mootop:

; 272  : 					{
; 273  : 						AdmLog("bSend");

  00b9a	68 00 00 00 00	 push	 OFFSET ??_C@_05DLJCAKKO@bSend?$AA@
  00b9f	e8 00 00 00 00	 call	 ?AdmLog@@YAXPAD@Z	; AdmLog
  00ba4	83 c4 04	 add	 esp, 4
$LN4@Mootop:

; 274  : 					}
; 275  : 					//  
; 276  : 					::InternetCloseHandle(hRequest);

  00ba7	8b 85 cc ef ff
	ff		 mov	 eax, DWORD PTR _hRequest$224132[ebp]
  00bad	50		 push	 eax
  00bae	ff 15 00 00 00
	00		 call	 DWORD PTR __imp__InternetCloseHandle@4

; 277  : 				}
; 278  : 				else

  00bb4	eb 0d		 jmp	 SHORT $LN3@Mootop
$LN12@Mootop:

; 279  : 				{
; 280  : 					AdmLog("hRequest != NULL");

  00bb6	68 00 00 00 00	 push	 OFFSET ??_C@_0BB@CCOENLML@hRequest?5?$CB?$DN?5NULL?$AA@
  00bbb	e8 00 00 00 00	 call	 ?AdmLog@@YAXPAD@Z	; AdmLog
  00bc0	83 c4 04	 add	 esp, 4
$LN3@Mootop:

; 281  : 				}
; 282  : 				//  
; 283  : 				::InternetCloseHandle(hConnect);

  00bc3	8b 85 d0 ef ff
	ff		 mov	 eax, DWORD PTR _hConnect$224129[ebp]
  00bc9	50		 push	 eax
  00bca	ff 15 00 00 00
	00		 call	 DWORD PTR __imp__InternetCloseHandle@4

; 284  : 			}
; 285  : 			else

  00bd0	eb 0d		 jmp	 SHORT $LN2@Mootop
$LN13@Mootop:

; 286  : 			{
; 287  : 				AdmLog("hConnect != NULL");

  00bd2	68 00 00 00 00	 push	 OFFSET ??_C@_0BB@MALKFMPK@hConnect?5?$CB?$DN?5NULL?$AA@
  00bd7	e8 00 00 00 00	 call	 ?AdmLog@@YAXPAD@Z	; AdmLog
  00bdc	83 c4 04	 add	 esp, 4
$LN2@Mootop:

; 288  : 			}
; 289  : 			//  WinInet
; 290  : 			::InternetCloseHandle(hInternet);

  00bdf	8b 85 d4 ef ff
	ff		 mov	 eax, DWORD PTR _hInternet$224127[ebp]
  00be5	50		 push	 eax
  00be6	ff 15 00 00 00
	00		 call	 DWORD PTR __imp__InternetCloseHandle@4

; 291  : 		}
; 292  : 		else

  00bec	eb 0d		 jmp	 SHORT $LN25@Mootop
$LN14@Mootop:

; 293  : 		{
; 294  : 			AdmLog("hInternet != NULL");

  00bee	68 00 00 00 00	 push	 OFFSET ??_C@_0BC@ELJALHPL@hInternet?5?$CB?$DN?5NULL?$AA@
  00bf3	e8 00 00 00 00	 call	 ?AdmLog@@YAXPAD@Z	; AdmLog
  00bf8	83 c4 04	 add	 esp, 4
$LN25@Mootop:

; 295  : 		}
; 296  : 	}	
; 297  : 	//--------------------------------------------------------
; 298  : 
; 299  : #ifdef DEBUG_CODE
; 300  : 	AdmLog("DEBUG_CODE");
; 301  : #endif
; 302  : 
; 303  : 	this->MootopReed();

  00bfb	8b 4d ec	 mov	 ecx, DWORD PTR _this$[ebp]
  00bfe	e8 00 00 00 00	 call	 ?MootopReed@Voter@@QAEXXZ ; Voter::MootopReed
$LN29@Mootop:

; 304  : }

  00c03	8b 4d f4	 mov	 ecx, DWORD PTR __$EHRec$[ebp]
  00c06	64 89 0d 00 00
	00 00		 mov	 DWORD PTR fs:0, ecx
  00c0d	59		 pop	 ecx
  00c0e	5f		 pop	 edi
  00c0f	5e		 pop	 esi
  00c10	5b		 pop	 ebx
  00c11	8b 4d f0	 mov	 ecx, DWORD PTR __$ArrayPad$[ebp]
  00c14	33 cd		 xor	 ecx, ebp
  00c16	e8 00 00 00 00	 call	 @__security_check_cookie@4
  00c1b	8b e5		 mov	 esp, ebp
  00c1d	5d		 pop	 ebp
  00c1e	c3		 ret	 0
_TEXT	ENDS
text$x	SEGMENT
__unwindfunclet$?Mootop@Voter@@QAEXXZ$0:
  00000	8d 8d 20 ef ff
	ff		 lea	 ecx, DWORD PTR _fnews$224352[ebp]
  00006	e9 00 00 00 00	 jmp	 ??_D?$basic_ofstream@DU?$char_traits@D@std@@@std@@QAEXXZ
__ehhandler$?Mootop@Voter@@QAEXXZ:
  0000b	8b 54 24 08	 mov	 edx, DWORD PTR [esp+8]
  0000f	8d 42 0c	 lea	 eax, DWORD PTR [edx+12]
  00012	8b 8a d4 de ff
	ff		 mov	 ecx, DWORD PTR [edx-8492]
  00018	33 c8		 xor	 ecx, eax
  0001a	e8 00 00 00 00	 call	 @__security_check_cookie@4
  0001f	8b 4a fc	 mov	 ecx, DWORD PTR [edx-4]
  00022	33 c8		 xor	 ecx, eax
  00024	e8 00 00 00 00	 call	 @__security_check_cookie@4
  00029	b8 00 00 00 00	 mov	 eax, OFFSET __ehfuncinfo$?Mootop@Voter@@QAEXXZ
  0002e	e9 00 00 00 00	 jmp	 ___CxxFrameHandler3
text$x	ENDS
?Mootop@Voter@@QAEXXZ ENDP				; Voter::Mootop
PUBLIC	??1?$basic_ios@DU?$char_traits@D@std@@@std@@UAE@XZ ; std::basic_ios<char,std::char_traits<char> >::~basic_ios<char,std::char_traits<char> >
PUBLIC	??1?$basic_ofstream@DU?$char_traits@D@std@@@std@@UAE@XZ ; std::basic_ofstream<char,std::char_traits<char> >::~basic_ofstream<char,std::char_traits<char> >
; Function compile flags: /Odtp /ZI
;	COMDAT ??_D?$basic_ofstream@DU?$char_traits@D@std@@@std@@QAEXXZ
_TEXT	SEGMENT
_this$ = -4						; size = 4
??_D?$basic_ofstream@DU?$char_traits@D@std@@@std@@QAEXXZ PROC ; std::basic_ofstream<char,std::char_traits<char> >::`vbase destructor', COMDAT
; _this$ = ecx
  00000	55		 push	 ebp
  00001	8b ec		 mov	 ebp, esp
  00003	83 ec 44	 sub	 esp, 68			; 00000044H
  00006	53		 push	 ebx
  00007	56		 push	 esi
  00008	57		 push	 edi
  00009	89 4d fc	 mov	 DWORD PTR _this$[ebp], ecx
  0000c	8b 4d fc	 mov	 ecx, DWORD PTR _this$[ebp]
  0000f	83 c1 60	 add	 ecx, 96			; 00000060H
  00012	e8 00 00 00 00	 call	 ??1?$basic_ofstream@DU?$char_traits@D@std@@@std@@UAE@XZ ; std::basic_ofstream<char,std::char_traits<char> >::~basic_ofstream<char,std::char_traits<char> >
  00017	8b 4d fc	 mov	 ecx, DWORD PTR _this$[ebp]
  0001a	83 c1 60	 add	 ecx, 96			; 00000060H
  0001d	e8 00 00 00 00	 call	 ??1?$basic_ios@DU?$char_traits@D@std@@@std@@UAE@XZ ; std::basic_ios<char,std::char_traits<char> >::~basic_ios<char,std::char_traits<char> >
  00022	5f		 pop	 edi
  00023	5e		 pop	 esi
  00024	5b		 pop	 ebx
  00025	8b e5		 mov	 esp, ebp
  00027	5d		 pop	 ebp
  00028	c3		 ret	 0
??_D?$basic_ofstream@DU?$char_traits@D@std@@@std@@QAEXXZ ENDP ; std::basic_ofstream<char,std::char_traits<char> >::`vbase destructor'
_TEXT	ENDS
PUBLIC	??_C@_0BG@BMABLBJK@?$FLMMOTOP?$FN?$FL?$CFs?$FN?5Date?3?5?$CFs?$AA@ ; `string'
PUBLIC	??_C@_0BD@DNPJLPDE@?$EA?$FLMMOTOP?$FN?5Date?3?5?$CFs?$AA@ ; `string'
PUBLIC	??_C@_0BO@GLDGCAIH@?$EA?$FLMMOTOP?$FN?5Life?5Bank?5Bonus?3?5?$CFd?$AA@ ; `string'
PUBLIC	??_C@_0BO@MPCAPFDH@?$EA?$FLMMOTOP?$FN?5Soul?5Bank?5Bonus?3?5?$CFd?$AA@ ; `string'
PUBLIC	??_C@_0BP@JOJEBDFB@?$EA?$FLMMOTOP?$FN?5Bless?5Bank?5Bonus?3?5?$CFd?$AA@ ; `string'
PUBLIC	??_C@_0BP@JEJBFDGG@?$EA?$FLMMOTOP?$FN?5Chaos?5Bank?5Bonus?3?5?$CFd?$AA@ ; `string'
PUBLIC	??_C@_0BL@LOKFOHGN@?$EA?$FLMMOTOP?$FN?5ExCred?5Bonus?3?5?$CFd?$AA@ ; `string'
PUBLIC	??_C@_0BL@JNNNGMEB@?$EA?$FLMMOTOP?$FN?5Goblin?5Bonus?3?5?$CFd?$AA@ ; `string'
PUBLIC	??_C@_0BL@MCFHKCKK@?$EA?$FLMMOTOP?$FN?5WCoinP?5Bonus?3?5?$CFd?$AA@ ; `string'
PUBLIC	??_C@_0BL@KOOOOGNL@?$EA?$FLMMOTOP?$FN?5WcoinC?5Bonus?3?5?$CFd?$AA@ ; `string'
PUBLIC	??_C@_0BJ@NMLLBIJJ@?$EA?$FLMMOTOP?$FN?5Item?5Bonus?3?5?$CFs?$AA@ ; `string'
PUBLIC	??_C@_0DG@CODMCGBJ@?$EA?$FLMMOTOP?$FN?5Need?5to?5make?5space?5in?5@ ; `string'
PUBLIC	??_C@_0BH@LAAAIICJ@?$EA?$FLSMS?5MMOTOP?$FN?5Date?3?5?$CFs?$AA@ ; `string'
PUBLIC	??_C@_0CC@HGBANFMA@?$EA?$FLSMS?5MMOTOP?$FN?5Life?5Bank?5Bonus?3?5?$CF@ ; `string'
PUBLIC	??_C@_0CC@NCAGAAHA@?$EA?$FLSMS?5MMOTOP?$FN?5Soul?5Bank?5Bonus?3?5?$CF@ ; `string'
PUBLIC	??_C@_0CD@HGDBOBJH@?$EA?$FLSMS?5MMOTOP?$FN?5Bless?5Bank?5Bonus?3?5@ ; `string'
PUBLIC	??_C@_0CD@HMDEKBKA@?$EA?$FLSMS?5MMOTOP?$FN?5Chaos?5Bank?5Bonus?3?5@ ; `string'
PUBLIC	??_C@_0BP@EPDEGELJ@?$EA?$FLSMS?5MMOTOP?$FN?5ExCred?5Bonus?3?5?$CFd?$AA@ ; `string'
PUBLIC	??_C@_0BP@GMEMOPJF@?$EA?$FLSMS?5MMOTOP?$FN?5Goblin?5Bonus?3?5?$CFd?$AA@ ; `string'
PUBLIC	??_C@_0BP@DDMGCBHO@?$EA?$FLSMS?5MMOTOP?$FN?5WCoinP?5Bonus?3?5?$CFd?$AA@ ; `string'
PUBLIC	??_C@_0BP@FPHPGFAP@?$EA?$FLSMS?5MMOTOP?$FN?5WcoinC?5Bonus?3?5?$CFd?$AA@ ; `string'
PUBLIC	??_C@_0BN@GCHBLMLE@?$EA?$FLSMS?5MMOTOP?$FN?5Item?5Bonus?3?5?$CFs?$AA@ ; `string'
PUBLIC	??_C@_0DK@LGEFFFOE@?$EA?$FLSMS?5MMOTOP?$FN?5Need?5to?5make?5space@ ; `string'
PUBLIC	?GetTime@CTime@ATL@@QBE_JXZ			; ATL::CTime::GetTime
PUBLIC	??_C@_0BC@FFOHHNEG@?$CFd?4?$CFd?4?$CFd?5?$CFd?3?$CFd?3?$CFd?$AA@ ; `string'
PUBLIC	??_C@_05DNIIFBMG@?$CFs?5?$CFs?$AA@		; `string'
PUBLIC	??_C@_0BC@FDIFMHGC@?$CFd?5?$CFs?5?$CFs?5?$CFs?5?$CFs?5?$CFd?$AA@ ; `string'
PUBLIC	??_C@_01KDCPPGHE@r?$AA@				; `string'
PUBLIC	__$ArrayPad$
EXTRN	_remove:PROC
EXTRN	?MootopVoteUp@CAchievements@@QAEXH@Z:PROC	; CAchievements::MootopVoteUp
EXTRN	?g_Achievements@@3VCAchievements@@A:BYTE	; g_Achievements
EXTRN	?Output@CLogToFile@@QAAXPADZZ:PROC		; CLogToFile::Output
EXTRN	?LogAdd@@3P6AXPADZZA:DWORD			; LogAdd
EXTRN	?ExUserDataSend@@YAXH@Z:PROC			; ExUserDataSend
EXTRN	?gObjApplyBuffEffectDuration@@YAEPAUOBJECTSTRUCT@@HEHEHH@Z:PROC ; gObjApplyBuffEffectDuration
EXTRN	?CheckUser@CExLicense@@QAE_NH@Z:PROC		; CExLicense::CheckUser
EXTRN	?g_ExLicense@@3VCExLicense@@A:BYTE		; g_ExLicense
EXTRN	?GDSaveUserInfo@GameShop@@QAEXH@Z:PROC		; GameShop::GDSaveUserInfo
EXTRN	?gGameShop@@3VGameShop@@A:BYTE			; gGameShop
EXTRN	?ItemSerialCreateSend@@YAXHEEEHEEEEEHEE@Z:PROC	; ItemSerialCreateSend
EXTRN	?MessageChat@@YAXHPADZZ:PROC			; MessageChat
EXTRN	?CheckInventoryEmptySpace@@YAHPAUOBJECTSTRUCT@@HH@Z:PROC ; CheckInventoryEmptySpace
EXTRN	?ItemAttribute@@3PAUITEM_ATTRIBUTE@@A:BYTE	; ItemAttribute
EXTRN	?StrToCTime@@YA?AVCTime@ATL@@PBD@Z:PROC		; StrToCTime
EXTRN	_sprintf:PROC
EXTRN	_sscanf:PROC
EXTRN	_fgets:PROC
EXTRN	_feof:PROC
EXTRN	__fltused:DWORD
EXTRN	_memset:PROC
;	COMDAT ??_C@_0BG@BMABLBJK@?$FLMMOTOP?$FN?$FL?$CFs?$FN?5Date?3?5?$CFs?$AA@
CONST	SEGMENT
??_C@_0BG@BMABLBJK@?$FLMMOTOP?$FN?$FL?$CFs?$FN?5Date?3?5?$CFs?$AA@ DB '[M'
	DB	'MOTOP][%s] Date: %s', 00H			; `string'
CONST	ENDS
;	COMDAT ??_C@_0BD@DNPJLPDE@?$EA?$FLMMOTOP?$FN?5Date?3?5?$CFs?$AA@
CONST	SEGMENT
??_C@_0BD@DNPJLPDE@?$EA?$FLMMOTOP?$FN?5Date?3?5?$CFs?$AA@ DB '@[MMOTOP] D'
	DB	'ate: %s', 00H				; `string'
CONST	ENDS
;	COMDAT ??_C@_0BO@GLDGCAIH@?$EA?$FLMMOTOP?$FN?5Life?5Bank?5Bonus?3?5?$CFd?$AA@
CONST	SEGMENT
??_C@_0BO@GLDGCAIH@?$EA?$FLMMOTOP?$FN?5Life?5Bank?5Bonus?3?5?$CFd?$AA@ DB '@'
	DB	'[MMOTOP] Life Bank Bonus: %d', 00H		; `string'
CONST	ENDS
;	COMDAT ??_C@_0BO@MPCAPFDH@?$EA?$FLMMOTOP?$FN?5Soul?5Bank?5Bonus?3?5?$CFd?$AA@
CONST	SEGMENT
??_C@_0BO@MPCAPFDH@?$EA?$FLMMOTOP?$FN?5Soul?5Bank?5Bonus?3?5?$CFd?$AA@ DB '@'
	DB	'[MMOTOP] Soul Bank Bonus: %d', 00H		; `string'
CONST	ENDS
;	COMDAT ??_C@_0BP@JOJEBDFB@?$EA?$FLMMOTOP?$FN?5Bless?5Bank?5Bonus?3?5?$CFd?$AA@
CONST	SEGMENT
??_C@_0BP@JOJEBDFB@?$EA?$FLMMOTOP?$FN?5Bless?5Bank?5Bonus?3?5?$CFd?$AA@ DB '@'
	DB	'[MMOTOP] Bless Bank Bonus: %d', 00H		; `string'
CONST	ENDS
;	COMDAT ??_C@_0BP@JEJBFDGG@?$EA?$FLMMOTOP?$FN?5Chaos?5Bank?5Bonus?3?5?$CFd?$AA@
CONST	SEGMENT
??_C@_0BP@JEJBFDGG@?$EA?$FLMMOTOP?$FN?5Chaos?5Bank?5Bonus?3?5?$CFd?$AA@ DB '@'
	DB	'[MMOTOP] Chaos Bank Bonus: %d', 00H		; `string'
CONST	ENDS
;	COMDAT ??_C@_0BL@LOKFOHGN@?$EA?$FLMMOTOP?$FN?5ExCred?5Bonus?3?5?$CFd?$AA@
CONST	SEGMENT
??_C@_0BL@LOKFOHGN@?$EA?$FLMMOTOP?$FN?5ExCred?5Bonus?3?5?$CFd?$AA@ DB '@['
	DB	'MMOTOP] ExCred Bonus: %d', 00H		; `string'
CONST	ENDS
;	COMDAT ??_C@_0BL@JNNNGMEB@?$EA?$FLMMOTOP?$FN?5Goblin?5Bonus?3?5?$CFd?$AA@
CONST	SEGMENT
??_C@_0BL@JNNNGMEB@?$EA?$FLMMOTOP?$FN?5Goblin?5Bonus?3?5?$CFd?$AA@ DB '@['
	DB	'MMOTOP] Goblin Bonus: %d', 00H		; `string'
CONST	ENDS
;	COMDAT ??_C@_0BL@MCFHKCKK@?$EA?$FLMMOTOP?$FN?5WCoinP?5Bonus?3?5?$CFd?$AA@
CONST	SEGMENT
??_C@_0BL@MCFHKCKK@?$EA?$FLMMOTOP?$FN?5WCoinP?5Bonus?3?5?$CFd?$AA@ DB '@['
	DB	'MMOTOP] WCoinP Bonus: %d', 00H		; `string'
CONST	ENDS
;	COMDAT ??_C@_0BL@KOOOOGNL@?$EA?$FLMMOTOP?$FN?5WcoinC?5Bonus?3?5?$CFd?$AA@
CONST	SEGMENT
??_C@_0BL@KOOOOGNL@?$EA?$FLMMOTOP?$FN?5WcoinC?5Bonus?3?5?$CFd?$AA@ DB '@['
	DB	'MMOTOP] WcoinC Bonus: %d', 00H		; `string'
CONST	ENDS
;	COMDAT ??_C@_0BJ@NMLLBIJJ@?$EA?$FLMMOTOP?$FN?5Item?5Bonus?3?5?$CFs?$AA@
CONST	SEGMENT
??_C@_0BJ@NMLLBIJJ@?$EA?$FLMMOTOP?$FN?5Item?5Bonus?3?5?$CFs?$AA@ DB '@[MM'
	DB	'OTOP] Item Bonus: %s', 00H			; `string'
CONST	ENDS
;	COMDAT ??_C@_0DG@CODMCGBJ@?$EA?$FLMMOTOP?$FN?5Need?5to?5make?5space?5in?5@
CONST	SEGMENT
??_C@_0DG@CODMCGBJ@?$EA?$FLMMOTOP?$FN?5Need?5to?5make?5space?5in?5@ DB '@'
	DB	'[MMOTOP] Need to make space in the inventory (%dx%d)', 00H ; `string'
CONST	ENDS
;	COMDAT ??_C@_0BH@LAAAIICJ@?$EA?$FLSMS?5MMOTOP?$FN?5Date?3?5?$CFs?$AA@
CONST	SEGMENT
??_C@_0BH@LAAAIICJ@?$EA?$FLSMS?5MMOTOP?$FN?5Date?3?5?$CFs?$AA@ DB '@[SMS '
	DB	'MMOTOP] Date: %s', 00H			; `string'
CONST	ENDS
;	COMDAT ??_C@_0CC@HGBANFMA@?$EA?$FLSMS?5MMOTOP?$FN?5Life?5Bank?5Bonus?3?5?$CF@
CONST	SEGMENT
??_C@_0CC@HGBANFMA@?$EA?$FLSMS?5MMOTOP?$FN?5Life?5Bank?5Bonus?3?5?$CF@ DB '@'
	DB	'[SMS MMOTOP] Life Bank Bonus: %d', 00H	; `string'
CONST	ENDS
;	COMDAT ??_C@_0CC@NCAGAAHA@?$EA?$FLSMS?5MMOTOP?$FN?5Soul?5Bank?5Bonus?3?5?$CF@
CONST	SEGMENT
??_C@_0CC@NCAGAAHA@?$EA?$FLSMS?5MMOTOP?$FN?5Soul?5Bank?5Bonus?3?5?$CF@ DB '@'
	DB	'[SMS MMOTOP] Soul Bank Bonus: %d', 00H	; `string'
CONST	ENDS
;	COMDAT ??_C@_0CD@HGDBOBJH@?$EA?$FLSMS?5MMOTOP?$FN?5Bless?5Bank?5Bonus?3?5@
CONST	SEGMENT
??_C@_0CD@HGDBOBJH@?$EA?$FLSMS?5MMOTOP?$FN?5Bless?5Bank?5Bonus?3?5@ DB '@'
	DB	'[SMS MMOTOP] Bless Bank Bonus: %d', 00H	; `string'
CONST	ENDS
;	COMDAT ??_C@_0CD@HMDEKBKA@?$EA?$FLSMS?5MMOTOP?$FN?5Chaos?5Bank?5Bonus?3?5@
CONST	SEGMENT
??_C@_0CD@HMDEKBKA@?$EA?$FLSMS?5MMOTOP?$FN?5Chaos?5Bank?5Bonus?3?5@ DB '@'
	DB	'[SMS MMOTOP] Chaos Bank Bonus: %d', 00H	; `string'
CONST	ENDS
;	COMDAT ??_C@_0BP@EPDEGELJ@?$EA?$FLSMS?5MMOTOP?$FN?5ExCred?5Bonus?3?5?$CFd?$AA@
CONST	SEGMENT
??_C@_0BP@EPDEGELJ@?$EA?$FLSMS?5MMOTOP?$FN?5ExCred?5Bonus?3?5?$CFd?$AA@ DB '@'
	DB	'[SMS MMOTOP] ExCred Bonus: %d', 00H		; `string'
CONST	ENDS
;	COMDAT ??_C@_0BP@GMEMOPJF@?$EA?$FLSMS?5MMOTOP?$FN?5Goblin?5Bonus?3?5?$CFd?$AA@
CONST	SEGMENT
??_C@_0BP@GMEMOPJF@?$EA?$FLSMS?5MMOTOP?$FN?5Goblin?5Bonus?3?5?$CFd?$AA@ DB '@'
	DB	'[SMS MMOTOP] Goblin Bonus: %d', 00H		; `string'
CONST	ENDS
;	COMDAT ??_C@_0BP@DDMGCBHO@?$EA?$FLSMS?5MMOTOP?$FN?5WCoinP?5Bonus?3?5?$CFd?$AA@
CONST	SEGMENT
??_C@_0BP@DDMGCBHO@?$EA?$FLSMS?5MMOTOP?$FN?5WCoinP?5Bonus?3?5?$CFd?$AA@ DB '@'
	DB	'[SMS MMOTOP] WCoinP Bonus: %d', 00H		; `string'
CONST	ENDS
;	COMDAT ??_C@_0BP@FPHPGFAP@?$EA?$FLSMS?5MMOTOP?$FN?5WcoinC?5Bonus?3?5?$CFd?$AA@
CONST	SEGMENT
??_C@_0BP@FPHPGFAP@?$EA?$FLSMS?5MMOTOP?$FN?5WcoinC?5Bonus?3?5?$CFd?$AA@ DB '@'
	DB	'[SMS MMOTOP] WcoinC Bonus: %d', 00H		; `string'
CONST	ENDS
;	COMDAT ??_C@_0BN@GCHBLMLE@?$EA?$FLSMS?5MMOTOP?$FN?5Item?5Bonus?3?5?$CFs?$AA@
CONST	SEGMENT
??_C@_0BN@GCHBLMLE@?$EA?$FLSMS?5MMOTOP?$FN?5Item?5Bonus?3?5?$CFs?$AA@ DB '@'
	DB	'[SMS MMOTOP] Item Bonus: %s', 00H		; `string'
CONST	ENDS
;	COMDAT ??_C@_0DK@LGEFFFOE@?$EA?$FLSMS?5MMOTOP?$FN?5Need?5to?5make?5space@
CONST	SEGMENT
??_C@_0DK@LGEFFFOE@?$EA?$FLSMS?5MMOTOP?$FN?5Need?5to?5make?5space@ DB '@['
	DB	'SMS MMOTOP] Need to make space in the inventory (%dx%d)', 00H ; `string'
CONST	ENDS
;	COMDAT ??_C@_0BC@FFOHHNEG@?$CFd?4?$CFd?4?$CFd?5?$CFd?3?$CFd?3?$CFd?$AA@
CONST	SEGMENT
??_C@_0BC@FFOHHNEG@?$CFd?4?$CFd?4?$CFd?5?$CFd?3?$CFd?3?$CFd?$AA@ DB '%d.%'
	DB	'd.%d %d:%d:%d', 00H				; `string'
CONST	ENDS
;	COMDAT ??_C@_05DNIIFBMG@?$CFs?5?$CFs?$AA@
CONST	SEGMENT
??_C@_05DNIIFBMG@?$CFs?5?$CFs?$AA@ DB '%s %s', 00H	; `string'
CONST	ENDS
;	COMDAT ??_C@_0BC@FDIFMHGC@?$CFd?5?$CFs?5?$CFs?5?$CFs?5?$CFs?5?$CFd?$AA@
CONST	SEGMENT
??_C@_0BC@FDIFMHGC@?$CFd?5?$CFs?5?$CFs?5?$CFs?5?$CFs?5?$CFd?$AA@ DB '%d %'
	DB	's %s %s %s %d', 00H				; `string'
CONST	ENDS
;	COMDAT ??_C@_01KDCPPGHE@r?$AA@
CONST	SEGMENT
??_C@_01KDCPPGHE@r?$AA@ DB 'r', 00H			; `string'
; Function compile flags: /Odtp /ZI
CONST	ENDS
_TEXT	SEGMENT
_Buff2$224592 = -1292					; size = 512
_Width$224568 = -780					; size = 4
_Height$224567 = -776					; size = 4
_Width$224542 = -772					; size = 4
_Height$224541 = -768					; size = 4
_lpObj$224537 = -764					; size = 4
_tData$224536 = -760					; size = 4
_ct$224534 = -756					; size = 8
_n$224523 = -748					; size = 4
_aIndex$224522 = -744					; size = 4
_nSec$224518 = -740					; size = 4
_nMin$224517 = -736					; size = 4
_nHour$224516 = -732					; size = 4
_nDay$224515 = -728					; size = 4
_nMonth$224514 = -724					; size = 4
_nYear$224513 = -720					; size = 4
_DataTime$224511 = -716					; size = 100
_mRewerd$224509 = -616					; size = 4
_mGetAccaunt$224508 = -612				; size = 20
_mGetIp$224507 = -592					; size = 20
_mGetTime$224506 = -572					; size = 20
_mGetDate$224505 = -552					; size = 20
_mId$224504 = -532					; size = 4
_Count$ = -528						; size = 4
_Buff$ = -524						; size = 512
_file$ = -12						; size = 4
_this$ = -8						; size = 4
__$ArrayPad$ = -4					; size = 4
?MootopReed@Voter@@QAEXXZ PROC				; Voter::MootopReed
; _this$ = ecx

; 307  : {

  00c20	55		 push	 ebp
  00c21	8b ec		 mov	 ebp, esp
  00c23	81 ec 4c 05 00
	00		 sub	 esp, 1356		; 0000054cH
  00c29	a1 00 00 00 00	 mov	 eax, DWORD PTR ___security_cookie
  00c2e	33 c5		 xor	 eax, ebp
  00c30	89 45 fc	 mov	 DWORD PTR __$ArrayPad$[ebp], eax
  00c33	53		 push	 ebx
  00c34	56		 push	 esi
  00c35	57		 push	 edi
  00c36	89 4d f8	 mov	 DWORD PTR _this$[ebp], ecx

; 308  : 	if(!this->MMOTOP_Enable) return;

  00c39	8b 45 f8	 mov	 eax, DWORD PTR _this$[ebp]
  00c3c	0f b6 08	 movzx	 ecx, BYTE PTR [eax]
  00c3f	85 c9		 test	 ecx, ecx
  00c41	75 05		 jne	 SHORT $LN44@MootopReed
  00c43	e9 5d 0c 00 00	 jmp	 $LN45@MootopReed
$LN44@MootopReed:

; 309  : 
; 310  : 	FILE * file = fopen(MMOTOP_FILE, "r");

  00c48	68 00 00 00 00	 push	 OFFSET ??_C@_01KDCPPGHE@r?$AA@
  00c4d	68 00 00 00 00	 push	 OFFSET ??_C@_0L@HNCANJIK@mmotop?4txt?$AA@
  00c52	e8 00 00 00 00	 call	 _fopen
  00c57	83 c4 08	 add	 esp, 8
  00c5a	89 45 f4	 mov	 DWORD PTR _file$[ebp], eax

; 311  : 
; 312  : 	if (file == NULL)

  00c5d	83 7d f4 00	 cmp	 DWORD PTR _file$[ebp], 0
  00c61	75 05		 jne	 SHORT $LN43@MootopReed

; 313  : 	{
; 314  : #ifdef VOTE_DEBUG
; 315  : 		LogAddC(2,"[VOTE]No FILE");
; 316  : #endif
; 317  : 		return;

  00c63	e9 3d 0c 00 00	 jmp	 $LN45@MootopReed
$LN43@MootopReed:

; 318  : 	}
; 319  : 
; 320  : 	char Buff[512];
; 321  : 
; 322  : 	int Count = 0;

  00c68	c7 85 f0 fd ff
	ff 00 00 00 00	 mov	 DWORD PTR _Count$[ebp], 0
$LN50@MootopReed:

; 323  : 
; 324  : 	while (!feof(file))

  00c72	8b 45 f4	 mov	 eax, DWORD PTR _file$[ebp]
  00c75	50		 push	 eax
  00c76	e8 00 00 00 00	 call	 _feof
  00c7b	83 c4 04	 add	 esp, 4
  00c7e	85 c0		 test	 eax, eax
  00c80	0f 85 fb 0b 00
	00		 jne	 $LN41@MootopReed

; 325  : 	{
; 326  : 		fgets(Buff,512,file);

  00c86	8b 45 f4	 mov	 eax, DWORD PTR _file$[ebp]
  00c89	50		 push	 eax
  00c8a	68 00 02 00 00	 push	 512			; 00000200H
  00c8f	8d 8d f4 fd ff
	ff		 lea	 ecx, DWORD PTR _Buff$[ebp]
  00c95	51		 push	 ecx
  00c96	e8 00 00 00 00	 call	 _fgets
  00c9b	83 c4 0c	 add	 esp, 12			; 0000000cH

; 327  : 
; 328  : 		int mId;
; 329  : 		char mGetDate[20];
; 330  : 		char mGetTime[20];
; 331  : 		char mGetIp[20];
; 332  : 		char mGetAccaunt[20];
; 333  : 		int mRewerd;
; 334  : 
; 335  : 		sscanf(Buff, "%d %s %s %s %s %d",&mId, &mGetDate, &mGetTime, &mGetIp, &mGetAccaunt, &mRewerd);

  00c9e	8d 85 98 fd ff
	ff		 lea	 eax, DWORD PTR _mRewerd$224509[ebp]
  00ca4	50		 push	 eax
  00ca5	8d 8d 9c fd ff
	ff		 lea	 ecx, DWORD PTR _mGetAccaunt$224508[ebp]
  00cab	51		 push	 ecx
  00cac	8d 95 b0 fd ff
	ff		 lea	 edx, DWORD PTR _mGetIp$224507[ebp]
  00cb2	52		 push	 edx
  00cb3	8d 85 c4 fd ff
	ff		 lea	 eax, DWORD PTR _mGetTime$224506[ebp]
  00cb9	50		 push	 eax
  00cba	8d 8d d8 fd ff
	ff		 lea	 ecx, DWORD PTR _mGetDate$224505[ebp]
  00cc0	51		 push	 ecx
  00cc1	8d 95 ec fd ff
	ff		 lea	 edx, DWORD PTR _mId$224504[ebp]
  00cc7	52		 push	 edx
  00cc8	68 00 00 00 00	 push	 OFFSET ??_C@_0BC@FDIFMHGC@?$CFd?5?$CFs?5?$CFs?5?$CFs?5?$CFs?5?$CFd?$AA@
  00ccd	8d 85 f4 fd ff
	ff		 lea	 eax, DWORD PTR _Buff$[ebp]
  00cd3	50		 push	 eax
  00cd4	e8 00 00 00 00	 call	 _sscanf
  00cd9	83 c4 20	 add	 esp, 32			; 00000020H

; 336  : 
; 337  : 		char DataTime[100];
; 338  : 		sprintf(DataTime, "%s %s",mGetDate, mGetTime);

  00cdc	8d 85 c4 fd ff
	ff		 lea	 eax, DWORD PTR _mGetTime$224506[ebp]
  00ce2	50		 push	 eax
  00ce3	8d 8d d8 fd ff
	ff		 lea	 ecx, DWORD PTR _mGetDate$224505[ebp]
  00ce9	51		 push	 ecx
  00cea	68 00 00 00 00	 push	 OFFSET ??_C@_05DNIIFBMG@?$CFs?5?$CFs?$AA@
  00cef	8d 95 34 fd ff
	ff		 lea	 edx, DWORD PTR _DataTime$224511[ebp]
  00cf5	52		 push	 edx
  00cf6	e8 00 00 00 00	 call	 _sprintf
  00cfb	83 c4 10	 add	 esp, 16			; 00000010H

; 339  : 
; 340  : 		int nYear, nMonth, nDay, nHour, nMin, nSec;
; 341  : 		sscanf(DataTime, "%d.%d.%d %d:%d:%d", &nDay, &nMonth, &nYear, &nHour, &nMin, &nSec);

  00cfe	8d 85 1c fd ff
	ff		 lea	 eax, DWORD PTR _nSec$224518[ebp]
  00d04	50		 push	 eax
  00d05	8d 8d 20 fd ff
	ff		 lea	 ecx, DWORD PTR _nMin$224517[ebp]
  00d0b	51		 push	 ecx
  00d0c	8d 95 24 fd ff
	ff		 lea	 edx, DWORD PTR _nHour$224516[ebp]
  00d12	52		 push	 edx
  00d13	8d 85 30 fd ff
	ff		 lea	 eax, DWORD PTR _nYear$224513[ebp]
  00d19	50		 push	 eax
  00d1a	8d 8d 2c fd ff
	ff		 lea	 ecx, DWORD PTR _nMonth$224514[ebp]
  00d20	51		 push	 ecx
  00d21	8d 95 28 fd ff
	ff		 lea	 edx, DWORD PTR _nDay$224515[ebp]
  00d27	52		 push	 edx
  00d28	68 00 00 00 00	 push	 OFFSET ??_C@_0BC@FFOHHNEG@?$CFd?4?$CFd?4?$CFd?5?$CFd?3?$CFd?3?$CFd?$AA@
  00d2d	8d 85 34 fd ff
	ff		 lea	 eax, DWORD PTR _DataTime$224511[ebp]
  00d33	50		 push	 eax
  00d34	e8 00 00 00 00	 call	 _sscanf
  00d39	83 c4 20	 add	 esp, 32			; 00000020H

; 342  : 		//20140215010507
; 343  : 		if( ((nYear >= 1900)  && (nMonth >= 1 && nMonth <= 12) && (nDay >= 1 && nDay <= 31) && (nHour >= 0 && nHour <= 23) && (nMin >= 0 && nMin <= 59) && (nSec >= 0 && nSec <= 59)) )

  00d3c	81 bd 30 fd ff
	ff 6c 07 00 00	 cmp	 DWORD PTR _nYear$224513[ebp], 1900 ; 0000076cH
  00d46	7c 5c		 jl	 SHORT $LN40@MootopReed
  00d48	83 bd 2c fd ff
	ff 01		 cmp	 DWORD PTR _nMonth$224514[ebp], 1
  00d4f	7c 53		 jl	 SHORT $LN40@MootopReed
  00d51	83 bd 2c fd ff
	ff 0c		 cmp	 DWORD PTR _nMonth$224514[ebp], 12 ; 0000000cH
  00d58	7f 4a		 jg	 SHORT $LN40@MootopReed
  00d5a	83 bd 28 fd ff
	ff 01		 cmp	 DWORD PTR _nDay$224515[ebp], 1
  00d61	7c 41		 jl	 SHORT $LN40@MootopReed
  00d63	83 bd 28 fd ff
	ff 1f		 cmp	 DWORD PTR _nDay$224515[ebp], 31 ; 0000001fH
  00d6a	7f 38		 jg	 SHORT $LN40@MootopReed
  00d6c	83 bd 24 fd ff
	ff 00		 cmp	 DWORD PTR _nHour$224516[ebp], 0
  00d73	7c 2f		 jl	 SHORT $LN40@MootopReed
  00d75	83 bd 24 fd ff
	ff 17		 cmp	 DWORD PTR _nHour$224516[ebp], 23 ; 00000017H
  00d7c	7f 26		 jg	 SHORT $LN40@MootopReed
  00d7e	83 bd 20 fd ff
	ff 00		 cmp	 DWORD PTR _nMin$224517[ebp], 0
  00d85	7c 1d		 jl	 SHORT $LN40@MootopReed
  00d87	83 bd 20 fd ff
	ff 3b		 cmp	 DWORD PTR _nMin$224517[ebp], 59 ; 0000003bH
  00d8e	7f 14		 jg	 SHORT $LN40@MootopReed
  00d90	83 bd 1c fd ff
	ff 00		 cmp	 DWORD PTR _nSec$224518[ebp], 0
  00d97	7c 0b		 jl	 SHORT $LN40@MootopReed
  00d99	83 bd 1c fd ff
	ff 3b		 cmp	 DWORD PTR _nSec$224518[ebp], 59 ; 0000003bH
  00da0	7f 02		 jg	 SHORT $LN40@MootopReed

; 344  : 		{
; 345  : 
; 346  : 		}
; 347  : 		else

  00da2	eb 05		 jmp	 SHORT $LN39@MootopReed
$LN40@MootopReed:

; 348  : 		{
; 349  : 			continue;

  00da4	e9 c9 fe ff ff	 jmp	 $LN50@MootopReed
$LN39@MootopReed:

; 350  : 		}
; 351  : 
; 352  : 		int aIndex = -1;

  00da9	c7 85 18 fd ff
	ff ff ff ff ff	 mov	 DWORD PTR _aIndex$224522[ebp], -1

; 353  : 
; 354  : 		for (int n = OBJ_STARTUSERINDEX; n<OBJMAX; n++)

  00db3	c7 85 14 fd ff
	ff b0 36 00 00	 mov	 DWORD PTR _n$224523[ebp], 14000 ; 000036b0H
  00dbd	eb 0f		 jmp	 SHORT $LN38@MootopReed
$LN37@MootopReed:
  00dbf	8b 85 14 fd ff
	ff		 mov	 eax, DWORD PTR _n$224523[ebp]
  00dc5	83 c0 01	 add	 eax, 1
  00dc8	89 85 14 fd ff
	ff		 mov	 DWORD PTR _n$224523[ebp], eax
$LN38@MootopReed:
  00dce	81 bd 14 fd ff
	ff 98 3a 00 00	 cmp	 DWORD PTR _n$224523[ebp], 15000 ; 00003a98H
  00dd8	0f 8d d8 00 00
	00		 jge	 $LN36@MootopReed

; 355  : 		{
; 356  : 			if (gObj[n].Connected >= PLAYER_PLAYING)

  00dde	8b 85 14 fd ff
	ff		 mov	 eax, DWORD PTR _n$224523[ebp]
  00de4	69 c0 38 2b 00
	00		 imul	 eax, 11064		; 00002b38H
  00dea	8b 0d 00 00 00
	00		 mov	 ecx, DWORD PTR ?gObj@@3PAUOBJECTSTRUCT@@A ; gObj
  00df0	83 7c 01 04 03	 cmp	 DWORD PTR [ecx+eax+4], 3
  00df5	0f 8c b6 00 00
	00		 jl	 $LN30@MootopReed

; 357  : 			{
; 358  : 				if (gObj[n].AccountID[0] == mGetAccaunt[0])

  00dfb	8b 85 14 fd ff
	ff		 mov	 eax, DWORD PTR _n$224523[ebp]
  00e01	69 c0 38 2b 00
	00		 imul	 eax, 11064		; 00002b38H
  00e07	8b 0d 00 00 00
	00		 mov	 ecx, DWORD PTR ?gObj@@3PAUOBJECTSTRUCT@@A ; gObj
  00e0d	0f be 54 01 6c	 movsx	 edx, BYTE PTR [ecx+eax+108]
  00e12	0f be 85 9c fd
	ff ff		 movsx	 eax, BYTE PTR _mGetAccaunt$224508[ebp]
  00e19	3b d0		 cmp	 edx, eax
  00e1b	75 3a		 jne	 SHORT $LN34@MootopReed

; 359  : 				{
; 360  : 					if (!strcmp(gObj[n].AccountID, mGetAccaunt))

  00e1d	8d 85 9c fd ff
	ff		 lea	 eax, DWORD PTR _mGetAccaunt$224508[ebp]
  00e23	50		 push	 eax
  00e24	8b 8d 14 fd ff
	ff		 mov	 ecx, DWORD PTR _n$224523[ebp]
  00e2a	69 c9 38 2b 00
	00		 imul	 ecx, 11064		; 00002b38H
  00e30	8b 15 00 00 00
	00		 mov	 edx, DWORD PTR ?gObj@@3PAUOBJECTSTRUCT@@A ; gObj
  00e36	8d 44 0a 6c	 lea	 eax, DWORD PTR [edx+ecx+108]
  00e3a	50		 push	 eax
  00e3b	e8 00 00 00 00	 call	 _strcmp
  00e40	83 c4 08	 add	 esp, 8
  00e43	85 c0		 test	 eax, eax
  00e45	75 0e		 jne	 SHORT $LN33@MootopReed

; 361  : 					{
; 362  : 						aIndex = n;

  00e47	8b 85 14 fd ff
	ff		 mov	 eax, DWORD PTR _n$224523[ebp]
  00e4d	89 85 18 fd ff
	ff		 mov	 DWORD PTR _aIndex$224522[ebp], eax

; 363  : 						break;

  00e53	eb 61		 jmp	 SHORT $LN36@MootopReed
$LN33@MootopReed:

; 364  : 					}
; 365  : 				}

  00e55	eb 5a		 jmp	 SHORT $LN30@MootopReed
$LN34@MootopReed:

; 366  : 				else if(gObj[n].Name[0] == mGetAccaunt[0])

  00e57	8b 85 14 fd ff
	ff		 mov	 eax, DWORD PTR _n$224523[ebp]
  00e5d	69 c0 38 2b 00
	00		 imul	 eax, 11064		; 00002b38H
  00e63	8b 0d 00 00 00
	00		 mov	 ecx, DWORD PTR ?gObj@@3PAUOBJECTSTRUCT@@A ; gObj
  00e69	0f be 54 01 77	 movsx	 edx, BYTE PTR [ecx+eax+119]
  00e6e	0f be 85 9c fd
	ff ff		 movsx	 eax, BYTE PTR _mGetAccaunt$224508[ebp]
  00e75	3b d0		 cmp	 edx, eax
  00e77	75 38		 jne	 SHORT $LN30@MootopReed

; 367  : 				{
; 368  : 					if (!strcmp(gObj[n].Name, mGetAccaunt))

  00e79	8d 85 9c fd ff
	ff		 lea	 eax, DWORD PTR _mGetAccaunt$224508[ebp]
  00e7f	50		 push	 eax
  00e80	8b 8d 14 fd ff
	ff		 mov	 ecx, DWORD PTR _n$224523[ebp]
  00e86	69 c9 38 2b 00
	00		 imul	 ecx, 11064		; 00002b38H
  00e8c	8b 15 00 00 00
	00		 mov	 edx, DWORD PTR ?gObj@@3PAUOBJECTSTRUCT@@A ; gObj
  00e92	8d 44 0a 77	 lea	 eax, DWORD PTR [edx+ecx+119]
  00e96	50		 push	 eax
  00e97	e8 00 00 00 00	 call	 _strcmp
  00e9c	83 c4 08	 add	 esp, 8
  00e9f	85 c0		 test	 eax, eax
  00ea1	75 0e		 jne	 SHORT $LN30@MootopReed

; 369  : 					{
; 370  : 						aIndex = n;

  00ea3	8b 85 14 fd ff
	ff		 mov	 eax, DWORD PTR _n$224523[ebp]
  00ea9	89 85 18 fd ff
	ff		 mov	 DWORD PTR _aIndex$224522[ebp], eax

; 371  : 						break;

  00eaf	eb 05		 jmp	 SHORT $LN36@MootopReed
$LN30@MootopReed:

; 372  : 					}
; 373  : 				}
; 374  : 			}
; 375  : 		}

  00eb1	e9 09 ff ff ff	 jmp	 $LN37@MootopReed
$LN36@MootopReed:

; 376  : 
; 377  : 		if(aIndex == -1) continue;

  00eb6	83 bd 18 fd ff
	ff ff		 cmp	 DWORD PTR _aIndex$224522[ebp], -1
  00ebd	75 05		 jne	 SHORT $LN29@MootopReed
  00ebf	e9 ae fd ff ff	 jmp	 $LN50@MootopReed
$LN29@MootopReed:

; 378  : 
; 379  : 		CTime ct = StrToCTime(DataTime);

  00ec4	8d 85 34 fd ff
	ff		 lea	 eax, DWORD PTR _DataTime$224511[ebp]
  00eca	50		 push	 eax
  00ecb	8d 8d 0c fd ff
	ff		 lea	 ecx, DWORD PTR _ct$224534[ebp]
  00ed1	51		 push	 ecx
  00ed2	e8 00 00 00 00	 call	 ?StrToCTime@@YA?AVCTime@ATL@@PBD@Z ; StrToCTime
  00ed7	83 c4 08	 add	 esp, 8

; 380  : 		DWORD tData = ct.GetTime();

  00eda	8d 8d 0c fd ff
	ff		 lea	 ecx, DWORD PTR _ct$224534[ebp]
  00ee0	e8 00 00 00 00	 call	 ?GetTime@CTime@ATL@@QBE_JXZ ; ATL::CTime::GetTime
  00ee5	89 85 08 fd ff
	ff		 mov	 DWORD PTR _tData$224536[ebp], eax

; 381  : 
; 382  : 		LPOBJ lpObj = &gObj[aIndex];

  00eeb	8b 85 18 fd ff
	ff		 mov	 eax, DWORD PTR _aIndex$224522[ebp]
  00ef1	69 c0 38 2b 00
	00		 imul	 eax, 11064		; 00002b38H
  00ef7	03 05 00 00 00
	00		 add	 eax, DWORD PTR ?gObj@@3PAUOBJECTSTRUCT@@A ; gObj
  00efd	89 85 04 fd ff
	ff		 mov	 DWORD PTR _lpObj$224537[ebp], eax

; 383  : 
; 384  : 
; 385  : 		if(tData > lpObj->MTDate)

  00f03	8b 85 04 fd ff
	ff		 mov	 eax, DWORD PTR _lpObj$224537[ebp]
  00f09	8b 8d 08 fd ff
	ff		 mov	 ecx, DWORD PTR _tData$224536[ebp]
  00f0f	3b 88 08 28 00
	00		 cmp	 ecx, DWORD PTR [eax+10248]
  00f15	0f 86 61 09 00
	00		 jbe	 $LN28@MootopReed

; 386  : 		{
; 387  : 			if(mRewerd == 2)

  00f1b	83 bd 98 fd ff
	ff 02		 cmp	 DWORD PTR _mRewerd$224509[ebp], 2
  00f22	0f 85 48 04 00
	00		 jne	 $LN27@MootopReed

; 388  : 			{
; 389  : 			//~~~~~~~~~~~~~~~~~~~~~~~~~~~~~~~~~~~~~~~~~~~~~~~~~
; 390  : 				if (this->MMOTOP_SMSBonusItemActive)

  00f28	8b 45 f8	 mov	 eax, DWORD PTR _this$[ebp]
  00f2b	83 b8 10 01 00
	00 00		 cmp	 DWORD PTR [eax+272], 0
  00f32	0f 84 0d 01 00
	00		 je	 $LN26@MootopReed

; 391  : 				{
; 392  : 					int Height = ItemAttribute[ITEMGET(this->MMOTOP_SMSBonusItemType, this->MMOTOP_SMSBonusItemIndex)].Height;

  00f38	8b 45 f8	 mov	 eax, DWORD PTR _this$[ebp]
  00f3b	8b 88 14 01 00
	00		 mov	 ecx, DWORD PTR [eax+276]
  00f41	c1 e1 09	 shl	 ecx, 9
  00f44	8b 55 f8	 mov	 edx, DWORD PTR _this$[ebp]
  00f47	03 8a 18 01 00
	00		 add	 ecx, DWORD PTR [edx+280]
  00f4d	6b c9 70	 imul	 ecx, 112		; 00000070H
  00f50	0f b6 81 24 00
	00 00		 movzx	 eax, BYTE PTR ?ItemAttribute@@3PAUITEM_ATTRIBUTE@@A[ecx+36]
  00f57	89 85 00 fd ff
	ff		 mov	 DWORD PTR _Height$224541[ebp], eax

; 393  : 					int Width = ItemAttribute[ITEMGET(this->MMOTOP_SMSBonusItemType, this->MMOTOP_SMSBonusItemIndex)].Width;

  00f5d	8b 45 f8	 mov	 eax, DWORD PTR _this$[ebp]
  00f60	8b 88 14 01 00
	00		 mov	 ecx, DWORD PTR [eax+276]
  00f66	c1 e1 09	 shl	 ecx, 9
  00f69	8b 55 f8	 mov	 edx, DWORD PTR _this$[ebp]
  00f6c	03 8a 18 01 00
	00		 add	 ecx, DWORD PTR [edx+280]
  00f72	6b c9 70	 imul	 ecx, 112		; 00000070H
  00f75	0f b6 81 23 00
	00 00		 movzx	 eax, BYTE PTR ?ItemAttribute@@3PAUITEM_ATTRIBUTE@@A[ecx+35]
  00f7c	89 85 fc fc ff
	ff		 mov	 DWORD PTR _Width$224542[ebp], eax

; 394  : 
; 395  : 					if(!CheckInventoryEmptySpace(lpObj, Height, Width))

  00f82	8b 85 fc fc ff
	ff		 mov	 eax, DWORD PTR _Width$224542[ebp]
  00f88	50		 push	 eax
  00f89	8b 8d 00 fd ff
	ff		 mov	 ecx, DWORD PTR _Height$224541[ebp]
  00f8f	51		 push	 ecx
  00f90	8b 95 04 fd ff
	ff		 mov	 edx, DWORD PTR _lpObj$224537[ebp]
  00f96	52		 push	 edx
  00f97	e8 00 00 00 00	 call	 ?CheckInventoryEmptySpace@@YAHPAUOBJECTSTRUCT@@HH@Z ; CheckInventoryEmptySpace
  00f9c	83 c4 0c	 add	 esp, 12			; 0000000cH
  00f9f	85 c0		 test	 eax, eax
  00fa1	75 23		 jne	 SHORT $LN25@MootopReed

; 396  : 					{
; 397  : 						MessageChat(aIndex, "@[SMS MMOTOP] Need to make space in the inventory (%dx%d)", this->MMOTOP_SMSBonusWcoinC);

  00fa3	8b 45 f8	 mov	 eax, DWORD PTR _this$[ebp]
  00fa6	8b 88 00 01 00
	00		 mov	 ecx, DWORD PTR [eax+256]
  00fac	51		 push	 ecx
  00fad	68 00 00 00 00	 push	 OFFSET ??_C@_0DK@LGEFFFOE@?$EA?$FLSMS?5MMOTOP?$FN?5Need?5to?5make?5space@
  00fb2	8b 95 18 fd ff
	ff		 mov	 edx, DWORD PTR _aIndex$224522[ebp]
  00fb8	52		 push	 edx
  00fb9	e8 00 00 00 00	 call	 ?MessageChat@@YAXHPADZZ	; MessageChat
  00fbe	83 c4 0c	 add	 esp, 12			; 0000000cH

; 398  : 						continue;

  00fc1	e9 ac fc ff ff	 jmp	 $LN50@MootopReed
$LN25@MootopReed:

; 399  : 					}
; 400  : 
; 401  : 					ItemSerialCreateSend(aIndex, 235, 0, 0, ITEMGET(this->MMOTOP_SMSBonusItemType, this->MMOTOP_SMSBonusItemIndex), this->MMOTOP_SMSBonusItemLevel, 0, 0, 0, 0, aIndex, 0, 0);

  00fc6	6a 00		 push	 0
  00fc8	6a 00		 push	 0
  00fca	8b 85 18 fd ff
	ff		 mov	 eax, DWORD PTR _aIndex$224522[ebp]
  00fd0	50		 push	 eax
  00fd1	6a 00		 push	 0
  00fd3	6a 00		 push	 0
  00fd5	6a 00		 push	 0
  00fd7	6a 00		 push	 0
  00fd9	8b 4d f8	 mov	 ecx, DWORD PTR _this$[ebp]
  00fdc	0f b6 91 1c 01
	00 00		 movzx	 edx, BYTE PTR [ecx+284]
  00fe3	52		 push	 edx
  00fe4	8b 45 f8	 mov	 eax, DWORD PTR _this$[ebp]
  00fe7	8b 88 14 01 00
	00		 mov	 ecx, DWORD PTR [eax+276]
  00fed	c1 e1 09	 shl	 ecx, 9
  00ff0	8b 55 f8	 mov	 edx, DWORD PTR _this$[ebp]
  00ff3	03 8a 18 01 00
	00		 add	 ecx, DWORD PTR [edx+280]
  00ff9	51		 push	 ecx
  00ffa	6a 00		 push	 0
  00ffc	6a 00		 push	 0
  00ffe	68 eb 00 00 00	 push	 235			; 000000ebH
  01003	8b 85 18 fd ff
	ff		 mov	 eax, DWORD PTR _aIndex$224522[ebp]
  01009	50		 push	 eax
  0100a	e8 00 00 00 00	 call	 ?ItemSerialCreateSend@@YAXHEEEHEEEEEHEE@Z ; ItemSerialCreateSend
  0100f	83 c4 34	 add	 esp, 52			; 00000034H

; 402  : 					MessageChat(aIndex, "@[SMS MMOTOP] Item Bonus: %s", ItemAttribute[ITEMGET(this->MMOTOP_SMSBonusItemType, this->MMOTOP_SMSBonusItemIndex)].Name);

  01012	8b 45 f8	 mov	 eax, DWORD PTR _this$[ebp]
  01015	8b 88 14 01 00
	00		 mov	 ecx, DWORD PTR [eax+276]
  0101b	c1 e1 09	 shl	 ecx, 9
  0101e	8b 55 f8	 mov	 edx, DWORD PTR _this$[ebp]
  01021	03 8a 18 01 00
	00		 add	 ecx, DWORD PTR [edx+280]
  01027	6b c9 70	 imul	 ecx, 112		; 00000070H
  0102a	81 c1 00 00 00
	00		 add	 ecx, OFFSET ?ItemAttribute@@3PAUITEM_ATTRIBUTE@@A ; ItemAttribute
  01030	51		 push	 ecx
  01031	68 00 00 00 00	 push	 OFFSET ??_C@_0BN@GCHBLMLE@?$EA?$FLSMS?5MMOTOP?$FN?5Item?5Bonus?3?5?$CFs?$AA@
  01036	8b 85 18 fd ff
	ff		 mov	 eax, DWORD PTR _aIndex$224522[ebp]
  0103c	50		 push	 eax
  0103d	e8 00 00 00 00	 call	 ?MessageChat@@YAXHPADZZ	; MessageChat
  01042	83 c4 0c	 add	 esp, 12			; 0000000cH
$LN26@MootopReed:

; 403  : 				}
; 404  : 
; 405  : 				if (this->MMOTOP_SMSBonusWcoinC > 0)

  01045	8b 45 f8	 mov	 eax, DWORD PTR _this$[ebp]
  01048	83 b8 00 01 00
	00 00		 cmp	 DWORD PTR [eax+256], 0
  0104f	7e 50		 jle	 SHORT $LN24@MootopReed

; 406  : 				{
; 407  : 					lpObj->GameShop.WCoinC += this->MMOTOP_SMSBonusWcoinC;

  01051	8b 45 f8	 mov	 eax, DWORD PTR _this$[ebp]
  01054	db 80 00 01 00
	00		 fild	 DWORD PTR [eax+256]
  0105a	8b 8d 04 fd ff
	ff		 mov	 ecx, DWORD PTR _lpObj$224537[ebp]
  01060	dc 81 00 23 00
	00		 fadd	 QWORD PTR [ecx+8960]
  01066	8b 95 04 fd ff
	ff		 mov	 edx, DWORD PTR _lpObj$224537[ebp]
  0106c	dd 9a 00 23 00
	00		 fstp	 QWORD PTR [edx+8960]

; 408  : 					gGameShop.GDSaveUserInfo(aIndex);

  01072	8b 85 18 fd ff
	ff		 mov	 eax, DWORD PTR _aIndex$224522[ebp]
  01078	50		 push	 eax
  01079	b9 00 00 00 00	 mov	 ecx, OFFSET ?gGameShop@@3VGameShop@@A ; gGameShop
  0107e	e8 00 00 00 00	 call	 ?GDSaveUserInfo@GameShop@@QAEXH@Z ; GameShop::GDSaveUserInfo

; 409  : 					MessageChat(aIndex, "@[SMS MMOTOP] WcoinC Bonus: %d", this->MMOTOP_SMSBonusWcoinC);

  01083	8b 45 f8	 mov	 eax, DWORD PTR _this$[ebp]
  01086	8b 88 00 01 00
	00		 mov	 ecx, DWORD PTR [eax+256]
  0108c	51		 push	 ecx
  0108d	68 00 00 00 00	 push	 OFFSET ??_C@_0BP@FPHPGFAP@?$EA?$FLSMS?5MMOTOP?$FN?5WcoinC?5Bonus?3?5?$CFd?$AA@
  01092	8b 95 18 fd ff
	ff		 mov	 edx, DWORD PTR _aIndex$224522[ebp]
  01098	52		 push	 edx
  01099	e8 00 00 00 00	 call	 ?MessageChat@@YAXHPADZZ	; MessageChat
  0109e	83 c4 0c	 add	 esp, 12			; 0000000cH
$LN24@MootopReed:

; 410  : 				}
; 411  : 
; 412  : 				if (this->MMOTOP_SMSBonusWcoinP > 0)

  010a1	8b 45 f8	 mov	 eax, DWORD PTR _this$[ebp]
  010a4	83 b8 04 01 00
	00 00		 cmp	 DWORD PTR [eax+260], 0
  010ab	7e 50		 jle	 SHORT $LN23@MootopReed

; 413  : 				{
; 414  : 					lpObj->GameShop.WCoinP += this->MMOTOP_SMSBonusWcoinP;

  010ad	8b 45 f8	 mov	 eax, DWORD PTR _this$[ebp]
  010b0	db 80 04 01 00
	00		 fild	 DWORD PTR [eax+260]
  010b6	8b 8d 04 fd ff
	ff		 mov	 ecx, DWORD PTR _lpObj$224537[ebp]
  010bc	dc 81 f8 22 00
	00		 fadd	 QWORD PTR [ecx+8952]
  010c2	8b 95 04 fd ff
	ff		 mov	 edx, DWORD PTR _lpObj$224537[ebp]
  010c8	dd 9a f8 22 00
	00		 fstp	 QWORD PTR [edx+8952]

; 415  : 					gGameShop.GDSaveUserInfo(aIndex);

  010ce	8b 85 18 fd ff
	ff		 mov	 eax, DWORD PTR _aIndex$224522[ebp]
  010d4	50		 push	 eax
  010d5	b9 00 00 00 00	 mov	 ecx, OFFSET ?gGameShop@@3VGameShop@@A ; gGameShop
  010da	e8 00 00 00 00	 call	 ?GDSaveUserInfo@GameShop@@QAEXH@Z ; GameShop::GDSaveUserInfo

; 416  : 					MessageChat(aIndex, "@[SMS MMOTOP] WCoinP Bonus: %d", this->MMOTOP_SMSBonusWcoinP);

  010df	8b 45 f8	 mov	 eax, DWORD PTR _this$[ebp]
  010e2	8b 88 04 01 00
	00		 mov	 ecx, DWORD PTR [eax+260]
  010e8	51		 push	 ecx
  010e9	68 00 00 00 00	 push	 OFFSET ??_C@_0BP@DDMGCBHO@?$EA?$FLSMS?5MMOTOP?$FN?5WCoinP?5Bonus?3?5?$CFd?$AA@
  010ee	8b 95 18 fd ff
	ff		 mov	 edx, DWORD PTR _aIndex$224522[ebp]
  010f4	52		 push	 edx
  010f5	e8 00 00 00 00	 call	 ?MessageChat@@YAXHPADZZ	; MessageChat
  010fa	83 c4 0c	 add	 esp, 12			; 0000000cH
$LN23@MootopReed:

; 417  : 				}
; 418  : 
; 419  : 				if (this->MMOTOP_SMSBonusWcoinG > 0)

  010fd	8b 45 f8	 mov	 eax, DWORD PTR _this$[ebp]
  01100	83 b8 08 01 00
	00 00		 cmp	 DWORD PTR [eax+264], 0
  01107	7e 50		 jle	 SHORT $LN22@MootopReed

; 420  : 				{
; 421  : 					lpObj->GameShop.GoblinPoint += this->MMOTOP_SMSBonusWcoinG;

  01109	8b 45 f8	 mov	 eax, DWORD PTR _this$[ebp]
  0110c	db 80 08 01 00
	00		 fild	 DWORD PTR [eax+264]
  01112	8b 8d 04 fd ff
	ff		 mov	 ecx, DWORD PTR _lpObj$224537[ebp]
  01118	dc 81 08 23 00
	00		 fadd	 QWORD PTR [ecx+8968]
  0111e	8b 95 04 fd ff
	ff		 mov	 edx, DWORD PTR _lpObj$224537[ebp]
  01124	dd 9a 08 23 00
	00		 fstp	 QWORD PTR [edx+8968]

; 422  : 					gGameShop.GDSaveUserInfo(aIndex);

  0112a	8b 85 18 fd ff
	ff		 mov	 eax, DWORD PTR _aIndex$224522[ebp]
  01130	50		 push	 eax
  01131	b9 00 00 00 00	 mov	 ecx, OFFSET ?gGameShop@@3VGameShop@@A ; gGameShop
  01136	e8 00 00 00 00	 call	 ?GDSaveUserInfo@GameShop@@QAEXH@Z ; GameShop::GDSaveUserInfo

; 423  : 					MessageChat(aIndex, "@[SMS MMOTOP] Goblin Bonus: %d", this->MMOTOP_SMSBonusWcoinG);

  0113b	8b 45 f8	 mov	 eax, DWORD PTR _this$[ebp]
  0113e	8b 88 08 01 00
	00		 mov	 ecx, DWORD PTR [eax+264]
  01144	51		 push	 ecx
  01145	68 00 00 00 00	 push	 OFFSET ??_C@_0BP@GMEMOPJF@?$EA?$FLSMS?5MMOTOP?$FN?5Goblin?5Bonus?3?5?$CFd?$AA@
  0114a	8b 95 18 fd ff
	ff		 mov	 edx, DWORD PTR _aIndex$224522[ebp]
  01150	52		 push	 edx
  01151	e8 00 00 00 00	 call	 ?MessageChat@@YAXHPADZZ	; MessageChat
  01156	83 c4 0c	 add	 esp, 12			; 0000000cH
$LN22@MootopReed:

; 424  : 				}
; 425  : 
; 426  : 				if (this->MMOTOP_SMSBonusExCred > 0)

  01159	8b 45 f8	 mov	 eax, DWORD PTR _this$[ebp]
  0115c	83 b8 0c 01 00
	00 00		 cmp	 DWORD PTR [eax+268], 0
  01163	7e 3f		 jle	 SHORT $LN21@MootopReed

; 427  : 				{
; 428  : 					lpObj->ExCred += this->MMOTOP_SMSBonusExCred;

  01165	8b 45 f8	 mov	 eax, DWORD PTR _this$[ebp]
  01168	db 80 0c 01 00
	00		 fild	 DWORD PTR [eax+268]
  0116e	8b 8d 04 fd ff
	ff		 mov	 ecx, DWORD PTR _lpObj$224537[ebp]
  01174	d8 81 a8 22 00
	00		 fadd	 DWORD PTR [ecx+8872]
  0117a	8b 95 04 fd ff
	ff		 mov	 edx, DWORD PTR _lpObj$224537[ebp]
  01180	d9 9a a8 22 00
	00		 fstp	 DWORD PTR [edx+8872]

; 429  : 					MessageChat(aIndex, "@[SMS MMOTOP] ExCred Bonus: %d", this->MMOTOP_SMSBonusExCred);

  01186	8b 45 f8	 mov	 eax, DWORD PTR _this$[ebp]
  01189	8b 88 0c 01 00
	00		 mov	 ecx, DWORD PTR [eax+268]
  0118f	51		 push	 ecx
  01190	68 00 00 00 00	 push	 OFFSET ??_C@_0BP@EPDEGELJ@?$EA?$FLSMS?5MMOTOP?$FN?5ExCred?5Bonus?3?5?$CFd?$AA@
  01195	8b 95 18 fd ff
	ff		 mov	 edx, DWORD PTR _aIndex$224522[ebp]
  0119b	52		 push	 edx
  0119c	e8 00 00 00 00	 call	 ?MessageChat@@YAXHPADZZ	; MessageChat
  011a1	83 c4 0c	 add	 esp, 12			; 0000000cH
$LN21@MootopReed:

; 430  : 				}
; 431  : 
; 432  : 				if (this->MMOTOP_SMSBonusChaosBank > 0)

  011a4	8b 45 f8	 mov	 eax, DWORD PTR _this$[ebp]
  011a7	83 b8 20 01 00
	00 00		 cmp	 DWORD PTR [eax+288], 0
  011ae	7e 3f		 jle	 SHORT $LN20@MootopReed

; 433  : 				{
; 434  : 					lpObj->ChaosBank += this->MMOTOP_SMSBonusChaosBank;

  011b0	8b 85 04 fd ff
	ff		 mov	 eax, DWORD PTR _lpObj$224537[ebp]
  011b6	8b 88 e0 27 00
	00		 mov	 ecx, DWORD PTR [eax+10208]
  011bc	8b 55 f8	 mov	 edx, DWORD PTR _this$[ebp]
  011bf	03 8a 20 01 00
	00		 add	 ecx, DWORD PTR [edx+288]
  011c5	8b 85 04 fd ff
	ff		 mov	 eax, DWORD PTR _lpObj$224537[ebp]
  011cb	89 88 e0 27 00
	00		 mov	 DWORD PTR [eax+10208], ecx

; 435  : 					MessageChat(aIndex, "@[SMS MMOTOP] Chaos Bank Bonus: %d", this->MMOTOP_SMSBonusChaosBank);

  011d1	8b 45 f8	 mov	 eax, DWORD PTR _this$[ebp]
  011d4	8b 88 20 01 00
	00		 mov	 ecx, DWORD PTR [eax+288]
  011da	51		 push	 ecx
  011db	68 00 00 00 00	 push	 OFFSET ??_C@_0CD@HMDEKBKA@?$EA?$FLSMS?5MMOTOP?$FN?5Chaos?5Bank?5Bonus?3?5@
  011e0	8b 95 18 fd ff
	ff		 mov	 edx, DWORD PTR _aIndex$224522[ebp]
  011e6	52		 push	 edx
  011e7	e8 00 00 00 00	 call	 ?MessageChat@@YAXHPADZZ	; MessageChat
  011ec	83 c4 0c	 add	 esp, 12			; 0000000cH
$LN20@MootopReed:

; 436  : 				}
; 437  : 
; 438  : 				if (this->MMOTOP_SMSBonusBlessBank > 0)

  011ef	8b 45 f8	 mov	 eax, DWORD PTR _this$[ebp]
  011f2	83 b8 24 01 00
	00 00		 cmp	 DWORD PTR [eax+292], 0
  011f9	7e 3f		 jle	 SHORT $LN19@MootopReed

; 439  : 				{
; 440  : 					lpObj->BlessBank += this->MMOTOP_SMSBonusBlessBank;

  011fb	8b 85 04 fd ff
	ff		 mov	 eax, DWORD PTR _lpObj$224537[ebp]
  01201	8b 88 e4 27 00
	00		 mov	 ecx, DWORD PTR [eax+10212]
  01207	8b 55 f8	 mov	 edx, DWORD PTR _this$[ebp]
  0120a	03 8a 24 01 00
	00		 add	 ecx, DWORD PTR [edx+292]
  01210	8b 85 04 fd ff
	ff		 mov	 eax, DWORD PTR _lpObj$224537[ebp]
  01216	89 88 e4 27 00
	00		 mov	 DWORD PTR [eax+10212], ecx

; 441  : 					MessageChat(aIndex, "@[SMS MMOTOP] Bless Bank Bonus: %d", this->MMOTOP_SMSBonusBlessBank);

  0121c	8b 45 f8	 mov	 eax, DWORD PTR _this$[ebp]
  0121f	8b 88 24 01 00
	00		 mov	 ecx, DWORD PTR [eax+292]
  01225	51		 push	 ecx
  01226	68 00 00 00 00	 push	 OFFSET ??_C@_0CD@HGDBOBJH@?$EA?$FLSMS?5MMOTOP?$FN?5Bless?5Bank?5Bonus?3?5@
  0122b	8b 95 18 fd ff
	ff		 mov	 edx, DWORD PTR _aIndex$224522[ebp]
  01231	52		 push	 edx
  01232	e8 00 00 00 00	 call	 ?MessageChat@@YAXHPADZZ	; MessageChat
  01237	83 c4 0c	 add	 esp, 12			; 0000000cH
$LN19@MootopReed:

; 442  : 				}
; 443  : 
; 444  : 				if (this->MMOTOP_SMSBonusSoulBank > 0)

  0123a	8b 45 f8	 mov	 eax, DWORD PTR _this$[ebp]
  0123d	83 b8 28 01 00
	00 00		 cmp	 DWORD PTR [eax+296], 0
  01244	7e 3f		 jle	 SHORT $LN18@MootopReed

; 445  : 				{
; 446  : 					lpObj->SoulBank += this->MMOTOP_SMSBonusSoulBank;

  01246	8b 85 04 fd ff
	ff		 mov	 eax, DWORD PTR _lpObj$224537[ebp]
  0124c	8b 88 e8 27 00
	00		 mov	 ecx, DWORD PTR [eax+10216]
  01252	8b 55 f8	 mov	 edx, DWORD PTR _this$[ebp]
  01255	03 8a 28 01 00
	00		 add	 ecx, DWORD PTR [edx+296]
  0125b	8b 85 04 fd ff
	ff		 mov	 eax, DWORD PTR _lpObj$224537[ebp]
  01261	89 88 e8 27 00
	00		 mov	 DWORD PTR [eax+10216], ecx

; 447  : 					MessageChat(aIndex, "@[SMS MMOTOP] Soul Bank Bonus: %d", this->MMOTOP_SMSBonusSoulBank);

  01267	8b 45 f8	 mov	 eax, DWORD PTR _this$[ebp]
  0126a	8b 88 28 01 00
	00		 mov	 ecx, DWORD PTR [eax+296]
  01270	51		 push	 ecx
  01271	68 00 00 00 00	 push	 OFFSET ??_C@_0CC@NCAGAAHA@?$EA?$FLSMS?5MMOTOP?$FN?5Soul?5Bank?5Bonus?3?5?$CF@
  01276	8b 95 18 fd ff
	ff		 mov	 edx, DWORD PTR _aIndex$224522[ebp]
  0127c	52		 push	 edx
  0127d	e8 00 00 00 00	 call	 ?MessageChat@@YAXHPADZZ	; MessageChat
  01282	83 c4 0c	 add	 esp, 12			; 0000000cH
$LN18@MootopReed:

; 448  : 				}
; 449  : 
; 450  : 				if (this->MMOTOP_SMSBonusLifeBank > 0)

  01285	8b 45 f8	 mov	 eax, DWORD PTR _this$[ebp]
  01288	83 b8 2c 01 00
	00 00		 cmp	 DWORD PTR [eax+300], 0
  0128f	7e 3f		 jle	 SHORT $LN17@MootopReed

; 451  : 				{
; 452  : 					lpObj->LifeBank += this->MMOTOP_SMSBonusLifeBank;

  01291	8b 85 04 fd ff
	ff		 mov	 eax, DWORD PTR _lpObj$224537[ebp]
  01297	8b 88 ec 27 00
	00		 mov	 ecx, DWORD PTR [eax+10220]
  0129d	8b 55 f8	 mov	 edx, DWORD PTR _this$[ebp]
  012a0	03 8a 2c 01 00
	00		 add	 ecx, DWORD PTR [edx+300]
  012a6	8b 85 04 fd ff
	ff		 mov	 eax, DWORD PTR _lpObj$224537[ebp]
  012ac	89 88 ec 27 00
	00		 mov	 DWORD PTR [eax+10220], ecx

; 453  : 					MessageChat(aIndex, "@[SMS MMOTOP] Life Bank Bonus: %d", this->MMOTOP_SMSBonusLifeBank);

  012b2	8b 45 f8	 mov	 eax, DWORD PTR _this$[ebp]
  012b5	8b 88 2c 01 00
	00		 mov	 ecx, DWORD PTR [eax+300]
  012bb	51		 push	 ecx
  012bc	68 00 00 00 00	 push	 OFFSET ??_C@_0CC@HGBANFMA@?$EA?$FLSMS?5MMOTOP?$FN?5Life?5Bank?5Bonus?3?5?$CF@
  012c1	8b 95 18 fd ff
	ff		 mov	 edx, DWORD PTR _aIndex$224522[ebp]
  012c7	52		 push	 edx
  012c8	e8 00 00 00 00	 call	 ?MessageChat@@YAXHPADZZ	; MessageChat
  012cd	83 c4 0c	 add	 esp, 12			; 0000000cH
$LN17@MootopReed:

; 454  : 				}
; 455  : 
; 456  : 				// --> Buff Effect Custom
; 457  : 				if(g_ExLicense.CheckUser(eExUB::Gredy) || g_ExLicense.CheckUser(eExUB::GredyLocal) || g_ExLicense.CheckUser(eExUB::Gredy2))

  012d0	6a 20		 push	 32			; 00000020H
  012d2	b9 00 00 00 00	 mov	 ecx, OFFSET ?g_ExLicense@@3VCExLicense@@A ; g_ExLicense
  012d7	e8 00 00 00 00	 call	 ?CheckUser@CExLicense@@QAE_NH@Z ; CExLicense::CheckUser
  012dc	0f b6 c0	 movzx	 eax, al
  012df	85 c0		 test	 eax, eax
  012e1	75 26		 jne	 SHORT $LN15@MootopReed
  012e3	6a 21		 push	 33			; 00000021H
  012e5	b9 00 00 00 00	 mov	 ecx, OFFSET ?g_ExLicense@@3VCExLicense@@A ; g_ExLicense
  012ea	e8 00 00 00 00	 call	 ?CheckUser@CExLicense@@QAE_NH@Z ; CExLicense::CheckUser
  012ef	0f b6 c0	 movzx	 eax, al
  012f2	85 c0		 test	 eax, eax
  012f4	75 13		 jne	 SHORT $LN15@MootopReed
  012f6	6a 22		 push	 34			; 00000022H
  012f8	b9 00 00 00 00	 mov	 ecx, OFFSET ?g_ExLicense@@3VCExLicense@@A ; g_ExLicense
  012fd	e8 00 00 00 00	 call	 ?CheckUser@CExLicense@@QAE_NH@Z ; CExLicense::CheckUser
  01302	0f b6 c0	 movzx	 eax, al
  01305	85 c0		 test	 eax, eax
  01307	74 47		 je	 SHORT $LN16@MootopReed
$LN15@MootopReed:

; 458  : 				{
; 459  : 					lpObj->MT_BuffTime += this->MMOTOP_BuffTime;

  01309	8b 85 04 fd ff
	ff		 mov	 eax, DWORD PTR _lpObj$224537[ebp]
  0130f	8b 88 dc 2a 00
	00		 mov	 ecx, DWORD PTR [eax+10972]
  01315	8b 55 f8	 mov	 edx, DWORD PTR _this$[ebp]
  01318	03 8a 60 02 00
	00		 add	 ecx, DWORD PTR [edx+608]
  0131e	8b 85 04 fd ff
	ff		 mov	 eax, DWORD PTR _lpObj$224537[ebp]
  01324	89 88 dc 2a 00
	00		 mov	 DWORD PTR [eax+10972], ecx

; 460  : 					gObjApplyBuffEffectDuration(lpObj, AT_MMOTOP_BUFF, 0, 0, 0, 0, this->MMOTOP_BuffTime);

  0132a	8b 45 f8	 mov	 eax, DWORD PTR _this$[ebp]
  0132d	8b 88 60 02 00
	00		 mov	 ecx, DWORD PTR [eax+608]
  01333	51		 push	 ecx
  01334	6a 00		 push	 0
  01336	6a 00		 push	 0
  01338	6a 00		 push	 0
  0133a	6a 00		 push	 0
  0133c	68 c2 00 00 00	 push	 194			; 000000c2H
  01341	8b 95 04 fd ff
	ff		 mov	 edx, DWORD PTR _lpObj$224537[ebp]
  01347	52		 push	 edx
  01348	e8 00 00 00 00	 call	 ?gObjApplyBuffEffectDuration@@YAEPAUOBJECTSTRUCT@@HEHEHH@Z ; gObjApplyBuffEffectDuration
  0134d	83 c4 1c	 add	 esp, 28			; 0000001cH
$LN16@MootopReed:

; 461  : 				}
; 462  : 
; 463  : 				MessageChat(aIndex,"@[SMS MMOTOP] Date: %s",DataTime);

  01350	8d 85 34 fd ff
	ff		 lea	 eax, DWORD PTR _DataTime$224511[ebp]
  01356	50		 push	 eax
  01357	68 00 00 00 00	 push	 OFFSET ??_C@_0BH@LAAAIICJ@?$EA?$FLSMS?5MMOTOP?$FN?5Date?3?5?$CFs?$AA@
  0135c	8b 8d 18 fd ff
	ff		 mov	 ecx, DWORD PTR _aIndex$224522[ebp]
  01362	51		 push	 ecx
  01363	e8 00 00 00 00	 call	 ?MessageChat@@YAXHPADZZ	; MessageChat
  01368	83 c4 0c	 add	 esp, 12			; 0000000cH

; 464  : 			}
; 465  : 			else

  0136b	e9 4a 04 00 00	 jmp	 $LN14@MootopReed
$LN27@MootopReed:

; 466  : 			{
; 467  : 			//~~~~~~~~~~~~~~~~~~~~~~~~~~~~~~~~~~~~~~~~~~~~~~~~~
; 468  : 
; 469  : 				if (this->MMOTOP_BonusItemActive)

  01370	8b 45 f8	 mov	 eax, DWORD PTR _this$[ebp]
  01373	83 b8 e0 00 00
	00 00		 cmp	 DWORD PTR [eax+224], 0
  0137a	0f 84 11 01 00
	00		 je	 $LN13@MootopReed

; 470  : 				{
; 471  : 					int Height = ItemAttribute[ITEMGET(this->MMOTOP_BonusItemType, this->MMOTOP_BonusItemIndex)].Height;

  01380	8b 45 f8	 mov	 eax, DWORD PTR _this$[ebp]
  01383	8b 88 e4 00 00
	00		 mov	 ecx, DWORD PTR [eax+228]
  01389	c1 e1 09	 shl	 ecx, 9
  0138c	8b 55 f8	 mov	 edx, DWORD PTR _this$[ebp]
  0138f	03 8a e8 00 00
	00		 add	 ecx, DWORD PTR [edx+232]
  01395	6b c9 70	 imul	 ecx, 112		; 00000070H
  01398	0f b6 81 24 00
	00 00		 movzx	 eax, BYTE PTR ?ItemAttribute@@3PAUITEM_ATTRIBUTE@@A[ecx+36]
  0139f	89 85 f8 fc ff
	ff		 mov	 DWORD PTR _Height$224567[ebp], eax

; 472  : 					int Width = ItemAttribute[ITEMGET(this->MMOTOP_BonusItemType, this->MMOTOP_BonusItemIndex)].Width;

  013a5	8b 45 f8	 mov	 eax, DWORD PTR _this$[ebp]
  013a8	8b 88 e4 00 00
	00		 mov	 ecx, DWORD PTR [eax+228]
  013ae	c1 e1 09	 shl	 ecx, 9
  013b1	8b 55 f8	 mov	 edx, DWORD PTR _this$[ebp]
  013b4	03 8a e8 00 00
	00		 add	 ecx, DWORD PTR [edx+232]
  013ba	6b c9 70	 imul	 ecx, 112		; 00000070H
  013bd	0f b6 81 23 00
	00 00		 movzx	 eax, BYTE PTR ?ItemAttribute@@3PAUITEM_ATTRIBUTE@@A[ecx+35]
  013c4	89 85 f4 fc ff
	ff		 mov	 DWORD PTR _Width$224568[ebp], eax

; 473  : 
; 474  : 					if(!CheckInventoryEmptySpace(lpObj, Height, Width))

  013ca	8b 85 f4 fc ff
	ff		 mov	 eax, DWORD PTR _Width$224568[ebp]
  013d0	50		 push	 eax
  013d1	8b 8d f8 fc ff
	ff		 mov	 ecx, DWORD PTR _Height$224567[ebp]
  013d7	51		 push	 ecx
  013d8	8b 95 04 fd ff
	ff		 mov	 edx, DWORD PTR _lpObj$224537[ebp]
  013de	52		 push	 edx
  013df	e8 00 00 00 00	 call	 ?CheckInventoryEmptySpace@@YAHPAUOBJECTSTRUCT@@HH@Z ; CheckInventoryEmptySpace
  013e4	83 c4 0c	 add	 esp, 12			; 0000000cH
  013e7	85 c0		 test	 eax, eax
  013e9	75 27		 jne	 SHORT $LN12@MootopReed

; 475  : 					{
; 476  : 						MessageChat(aIndex,"@[MMOTOP] Need to make space in the inventory (%dx%d)",Height,Width);

  013eb	8b 85 f4 fc ff
	ff		 mov	 eax, DWORD PTR _Width$224568[ebp]
  013f1	50		 push	 eax
  013f2	8b 8d f8 fc ff
	ff		 mov	 ecx, DWORD PTR _Height$224567[ebp]
  013f8	51		 push	 ecx
  013f9	68 00 00 00 00	 push	 OFFSET ??_C@_0DG@CODMCGBJ@?$EA?$FLMMOTOP?$FN?5Need?5to?5make?5space?5in?5@
  013fe	8b 95 18 fd ff
	ff		 mov	 edx, DWORD PTR _aIndex$224522[ebp]
  01404	52		 push	 edx
  01405	e8 00 00 00 00	 call	 ?MessageChat@@YAXHPADZZ	; MessageChat
  0140a	83 c4 10	 add	 esp, 16			; 00000010H

; 477  : 						continue;

  0140d	e9 60 f8 ff ff	 jmp	 $LN50@MootopReed
$LN12@MootopReed:

; 478  : 					}
; 479  : 
; 480  : 					ItemSerialCreateSend(aIndex, 235, 0, 0, ITEMGET(this->MMOTOP_BonusItemType, this->MMOTOP_BonusItemIndex), this->MMOTOP_BonusItemLevel, 0, 0, 0, 0, aIndex, 0, 0);

  01412	6a 00		 push	 0
  01414	6a 00		 push	 0
  01416	8b 85 18 fd ff
	ff		 mov	 eax, DWORD PTR _aIndex$224522[ebp]
  0141c	50		 push	 eax
  0141d	6a 00		 push	 0
  0141f	6a 00		 push	 0
  01421	6a 00		 push	 0
  01423	6a 00		 push	 0
  01425	8b 4d f8	 mov	 ecx, DWORD PTR _this$[ebp]
  01428	0f b6 91 ec 00
	00 00		 movzx	 edx, BYTE PTR [ecx+236]
  0142f	52		 push	 edx
  01430	8b 45 f8	 mov	 eax, DWORD PTR _this$[ebp]
  01433	8b 88 e4 00 00
	00		 mov	 ecx, DWORD PTR [eax+228]
  01439	c1 e1 09	 shl	 ecx, 9
  0143c	8b 55 f8	 mov	 edx, DWORD PTR _this$[ebp]
  0143f	03 8a e8 00 00
	00		 add	 ecx, DWORD PTR [edx+232]
  01445	51		 push	 ecx
  01446	6a 00		 push	 0
  01448	6a 00		 push	 0
  0144a	68 eb 00 00 00	 push	 235			; 000000ebH
  0144f	8b 85 18 fd ff
	ff		 mov	 eax, DWORD PTR _aIndex$224522[ebp]
  01455	50		 push	 eax
  01456	e8 00 00 00 00	 call	 ?ItemSerialCreateSend@@YAXHEEEHEEEEEHEE@Z ; ItemSerialCreateSend
  0145b	83 c4 34	 add	 esp, 52			; 00000034H

; 481  : 					MessageChat(aIndex, "@[MMOTOP] Item Bonus: %s", ItemAttribute[ITEMGET(this->MMOTOP_SMSBonusItemType, this->MMOTOP_SMSBonusItemIndex)].Name);

  0145e	8b 45 f8	 mov	 eax, DWORD PTR _this$[ebp]
  01461	8b 88 14 01 00
	00		 mov	 ecx, DWORD PTR [eax+276]
  01467	c1 e1 09	 shl	 ecx, 9
  0146a	8b 55 f8	 mov	 edx, DWORD PTR _this$[ebp]
  0146d	03 8a 18 01 00
	00		 add	 ecx, DWORD PTR [edx+280]
  01473	6b c9 70	 imul	 ecx, 112		; 00000070H
  01476	81 c1 00 00 00
	00		 add	 ecx, OFFSET ?ItemAttribute@@3PAUITEM_ATTRIBUTE@@A ; ItemAttribute
  0147c	51		 push	 ecx
  0147d	68 00 00 00 00	 push	 OFFSET ??_C@_0BJ@NMLLBIJJ@?$EA?$FLMMOTOP?$FN?5Item?5Bonus?3?5?$CFs?$AA@
  01482	8b 85 18 fd ff
	ff		 mov	 eax, DWORD PTR _aIndex$224522[ebp]
  01488	50		 push	 eax
  01489	e8 00 00 00 00	 call	 ?MessageChat@@YAXHPADZZ	; MessageChat
  0148e	83 c4 0c	 add	 esp, 12			; 0000000cH
$LN13@MootopReed:

; 482  : 				}
; 483  : 
; 484  : 				if (this->MMOTOP_BonusWcoinC > 0)

  01491	8b 45 f8	 mov	 eax, DWORD PTR _this$[ebp]
  01494	83 b8 d0 00 00
	00 00		 cmp	 DWORD PTR [eax+208], 0
  0149b	7e 50		 jle	 SHORT $LN11@MootopReed

; 485  : 				{
; 486  : 					lpObj->GameShop.WCoinC += this->MMOTOP_BonusWcoinC;

  0149d	8b 45 f8	 mov	 eax, DWORD PTR _this$[ebp]
  014a0	db 80 d0 00 00
	00		 fild	 DWORD PTR [eax+208]
  014a6	8b 8d 04 fd ff
	ff		 mov	 ecx, DWORD PTR _lpObj$224537[ebp]
  014ac	dc 81 00 23 00
	00		 fadd	 QWORD PTR [ecx+8960]
  014b2	8b 95 04 fd ff
	ff		 mov	 edx, DWORD PTR _lpObj$224537[ebp]
  014b8	dd 9a 00 23 00
	00		 fstp	 QWORD PTR [edx+8960]

; 487  : 					gGameShop.GDSaveUserInfo(aIndex);

  014be	8b 85 18 fd ff
	ff		 mov	 eax, DWORD PTR _aIndex$224522[ebp]
  014c4	50		 push	 eax
  014c5	b9 00 00 00 00	 mov	 ecx, OFFSET ?gGameShop@@3VGameShop@@A ; gGameShop
  014ca	e8 00 00 00 00	 call	 ?GDSaveUserInfo@GameShop@@QAEXH@Z ; GameShop::GDSaveUserInfo

; 488  : 					MessageChat(aIndex, "@[MMOTOP] WcoinC Bonus: %d", this->MMOTOP_BonusWcoinC);

  014cf	8b 45 f8	 mov	 eax, DWORD PTR _this$[ebp]
  014d2	8b 88 d0 00 00
	00		 mov	 ecx, DWORD PTR [eax+208]
  014d8	51		 push	 ecx
  014d9	68 00 00 00 00	 push	 OFFSET ??_C@_0BL@KOOOOGNL@?$EA?$FLMMOTOP?$FN?5WcoinC?5Bonus?3?5?$CFd?$AA@
  014de	8b 95 18 fd ff
	ff		 mov	 edx, DWORD PTR _aIndex$224522[ebp]
  014e4	52		 push	 edx
  014e5	e8 00 00 00 00	 call	 ?MessageChat@@YAXHPADZZ	; MessageChat
  014ea	83 c4 0c	 add	 esp, 12			; 0000000cH
$LN11@MootopReed:

; 489  : 				}
; 490  : 
; 491  : 				if (this->MMOTOP_BonusWcoinP > 0)

  014ed	8b 45 f8	 mov	 eax, DWORD PTR _this$[ebp]
  014f0	83 b8 d4 00 00
	00 00		 cmp	 DWORD PTR [eax+212], 0
  014f7	7e 50		 jle	 SHORT $LN10@MootopReed

; 492  : 				{
; 493  : 					lpObj->GameShop.WCoinP += this->MMOTOP_BonusWcoinP;

  014f9	8b 45 f8	 mov	 eax, DWORD PTR _this$[ebp]
  014fc	db 80 d4 00 00
	00		 fild	 DWORD PTR [eax+212]
  01502	8b 8d 04 fd ff
	ff		 mov	 ecx, DWORD PTR _lpObj$224537[ebp]
  01508	dc 81 f8 22 00
	00		 fadd	 QWORD PTR [ecx+8952]
  0150e	8b 95 04 fd ff
	ff		 mov	 edx, DWORD PTR _lpObj$224537[ebp]
  01514	dd 9a f8 22 00
	00		 fstp	 QWORD PTR [edx+8952]

; 494  : 					gGameShop.GDSaveUserInfo(aIndex);

  0151a	8b 85 18 fd ff
	ff		 mov	 eax, DWORD PTR _aIndex$224522[ebp]
  01520	50		 push	 eax
  01521	b9 00 00 00 00	 mov	 ecx, OFFSET ?gGameShop@@3VGameShop@@A ; gGameShop
  01526	e8 00 00 00 00	 call	 ?GDSaveUserInfo@GameShop@@QAEXH@Z ; GameShop::GDSaveUserInfo

; 495  : 					MessageChat(aIndex, "@[MMOTOP] WCoinP Bonus: %d", this->MMOTOP_BonusWcoinP);

  0152b	8b 45 f8	 mov	 eax, DWORD PTR _this$[ebp]
  0152e	8b 88 d4 00 00
	00		 mov	 ecx, DWORD PTR [eax+212]
  01534	51		 push	 ecx
  01535	68 00 00 00 00	 push	 OFFSET ??_C@_0BL@MCFHKCKK@?$EA?$FLMMOTOP?$FN?5WCoinP?5Bonus?3?5?$CFd?$AA@
  0153a	8b 95 18 fd ff
	ff		 mov	 edx, DWORD PTR _aIndex$224522[ebp]
  01540	52		 push	 edx
  01541	e8 00 00 00 00	 call	 ?MessageChat@@YAXHPADZZ	; MessageChat
  01546	83 c4 0c	 add	 esp, 12			; 0000000cH
$LN10@MootopReed:

; 496  : 				}
; 497  : 
; 498  : 				if (this->MMOTOP_BonusWcoinG > 0)

  01549	8b 45 f8	 mov	 eax, DWORD PTR _this$[ebp]
  0154c	83 b8 d8 00 00
	00 00		 cmp	 DWORD PTR [eax+216], 0
  01553	7e 50		 jle	 SHORT $LN9@MootopReed

; 499  : 				{
; 500  : 					lpObj->GameShop.GoblinPoint += this->MMOTOP_BonusWcoinG;

  01555	8b 45 f8	 mov	 eax, DWORD PTR _this$[ebp]
  01558	db 80 d8 00 00
	00		 fild	 DWORD PTR [eax+216]
  0155e	8b 8d 04 fd ff
	ff		 mov	 ecx, DWORD PTR _lpObj$224537[ebp]
  01564	dc 81 08 23 00
	00		 fadd	 QWORD PTR [ecx+8968]
  0156a	8b 95 04 fd ff
	ff		 mov	 edx, DWORD PTR _lpObj$224537[ebp]
  01570	dd 9a 08 23 00
	00		 fstp	 QWORD PTR [edx+8968]

; 501  : 					gGameShop.GDSaveUserInfo(aIndex);

  01576	8b 85 18 fd ff
	ff		 mov	 eax, DWORD PTR _aIndex$224522[ebp]
  0157c	50		 push	 eax
  0157d	b9 00 00 00 00	 mov	 ecx, OFFSET ?gGameShop@@3VGameShop@@A ; gGameShop
  01582	e8 00 00 00 00	 call	 ?GDSaveUserInfo@GameShop@@QAEXH@Z ; GameShop::GDSaveUserInfo

; 502  : 					MessageChat(aIndex, "@[MMOTOP] Goblin Bonus: %d", this->MMOTOP_BonusWcoinG);

  01587	8b 45 f8	 mov	 eax, DWORD PTR _this$[ebp]
  0158a	8b 88 d8 00 00
	00		 mov	 ecx, DWORD PTR [eax+216]
  01590	51		 push	 ecx
  01591	68 00 00 00 00	 push	 OFFSET ??_C@_0BL@JNNNGMEB@?$EA?$FLMMOTOP?$FN?5Goblin?5Bonus?3?5?$CFd?$AA@
  01596	8b 95 18 fd ff
	ff		 mov	 edx, DWORD PTR _aIndex$224522[ebp]
  0159c	52		 push	 edx
  0159d	e8 00 00 00 00	 call	 ?MessageChat@@YAXHPADZZ	; MessageChat
  015a2	83 c4 0c	 add	 esp, 12			; 0000000cH
$LN9@MootopReed:

; 503  : 				}
; 504  : 
; 505  : 				if (this->MMOTOP_BonusExCred > 0)

  015a5	8b 45 f8	 mov	 eax, DWORD PTR _this$[ebp]
  015a8	83 b8 dc 00 00
	00 00		 cmp	 DWORD PTR [eax+220], 0
  015af	7e 3f		 jle	 SHORT $LN8@MootopReed

; 506  : 				{
; 507  : 					lpObj->ExCred += this->MMOTOP_BonusExCred;

  015b1	8b 45 f8	 mov	 eax, DWORD PTR _this$[ebp]
  015b4	db 80 dc 00 00
	00		 fild	 DWORD PTR [eax+220]
  015ba	8b 8d 04 fd ff
	ff		 mov	 ecx, DWORD PTR _lpObj$224537[ebp]
  015c0	d8 81 a8 22 00
	00		 fadd	 DWORD PTR [ecx+8872]
  015c6	8b 95 04 fd ff
	ff		 mov	 edx, DWORD PTR _lpObj$224537[ebp]
  015cc	d9 9a a8 22 00
	00		 fstp	 DWORD PTR [edx+8872]

; 508  : 					MessageChat(aIndex, "@[MMOTOP] ExCred Bonus: %d", this->MMOTOP_BonusExCred);

  015d2	8b 45 f8	 mov	 eax, DWORD PTR _this$[ebp]
  015d5	8b 88 dc 00 00
	00		 mov	 ecx, DWORD PTR [eax+220]
  015db	51		 push	 ecx
  015dc	68 00 00 00 00	 push	 OFFSET ??_C@_0BL@LOKFOHGN@?$EA?$FLMMOTOP?$FN?5ExCred?5Bonus?3?5?$CFd?$AA@
  015e1	8b 95 18 fd ff
	ff		 mov	 edx, DWORD PTR _aIndex$224522[ebp]
  015e7	52		 push	 edx
  015e8	e8 00 00 00 00	 call	 ?MessageChat@@YAXHPADZZ	; MessageChat
  015ed	83 c4 0c	 add	 esp, 12			; 0000000cH
$LN8@MootopReed:

; 509  : 				}
; 510  : 
; 511  : 				if (this->MMOTOP_BonusChaosBank > 0)

  015f0	8b 45 f8	 mov	 eax, DWORD PTR _this$[ebp]
  015f3	83 b8 f0 00 00
	00 00		 cmp	 DWORD PTR [eax+240], 0
  015fa	7e 3f		 jle	 SHORT $LN7@MootopReed

; 512  : 				{
; 513  : 					lpObj->ChaosBank += this->MMOTOP_BonusChaosBank;

  015fc	8b 85 04 fd ff
	ff		 mov	 eax, DWORD PTR _lpObj$224537[ebp]
  01602	8b 88 e0 27 00
	00		 mov	 ecx, DWORD PTR [eax+10208]
  01608	8b 55 f8	 mov	 edx, DWORD PTR _this$[ebp]
  0160b	03 8a f0 00 00
	00		 add	 ecx, DWORD PTR [edx+240]
  01611	8b 85 04 fd ff
	ff		 mov	 eax, DWORD PTR _lpObj$224537[ebp]
  01617	89 88 e0 27 00
	00		 mov	 DWORD PTR [eax+10208], ecx

; 514  : 					MessageChat(aIndex, "@[MMOTOP] Chaos Bank Bonus: %d", this->MMOTOP_BonusChaosBank);

  0161d	8b 45 f8	 mov	 eax, DWORD PTR _this$[ebp]
  01620	8b 88 f0 00 00
	00		 mov	 ecx, DWORD PTR [eax+240]
  01626	51		 push	 ecx
  01627	68 00 00 00 00	 push	 OFFSET ??_C@_0BP@JEJBFDGG@?$EA?$FLMMOTOP?$FN?5Chaos?5Bank?5Bonus?3?5?$CFd?$AA@
  0162c	8b 95 18 fd ff
	ff		 mov	 edx, DWORD PTR _aIndex$224522[ebp]
  01632	52		 push	 edx
  01633	e8 00 00 00 00	 call	 ?MessageChat@@YAXHPADZZ	; MessageChat
  01638	83 c4 0c	 add	 esp, 12			; 0000000cH
$LN7@MootopReed:

; 515  : 				}
; 516  : 
; 517  : 				if (this->MMOTOP_BonusBlessBank > 0)

  0163b	8b 45 f8	 mov	 eax, DWORD PTR _this$[ebp]
  0163e	83 b8 f4 00 00
	00 00		 cmp	 DWORD PTR [eax+244], 0
  01645	7e 3f		 jle	 SHORT $LN6@MootopReed

; 518  : 				{
; 519  : 					lpObj->BlessBank += this->MMOTOP_BonusBlessBank;

  01647	8b 85 04 fd ff
	ff		 mov	 eax, DWORD PTR _lpObj$224537[ebp]
  0164d	8b 88 e4 27 00
	00		 mov	 ecx, DWORD PTR [eax+10212]
  01653	8b 55 f8	 mov	 edx, DWORD PTR _this$[ebp]
  01656	03 8a f4 00 00
	00		 add	 ecx, DWORD PTR [edx+244]
  0165c	8b 85 04 fd ff
	ff		 mov	 eax, DWORD PTR _lpObj$224537[ebp]
  01662	89 88 e4 27 00
	00		 mov	 DWORD PTR [eax+10212], ecx

; 520  : 					MessageChat(aIndex, "@[MMOTOP] Bless Bank Bonus: %d", this->MMOTOP_BonusBlessBank);

  01668	8b 45 f8	 mov	 eax, DWORD PTR _this$[ebp]
  0166b	8b 88 f4 00 00
	00		 mov	 ecx, DWORD PTR [eax+244]
  01671	51		 push	 ecx
  01672	68 00 00 00 00	 push	 OFFSET ??_C@_0BP@JOJEBDFB@?$EA?$FLMMOTOP?$FN?5Bless?5Bank?5Bonus?3?5?$CFd?$AA@
  01677	8b 95 18 fd ff
	ff		 mov	 edx, DWORD PTR _aIndex$224522[ebp]
  0167d	52		 push	 edx
  0167e	e8 00 00 00 00	 call	 ?MessageChat@@YAXHPADZZ	; MessageChat
  01683	83 c4 0c	 add	 esp, 12			; 0000000cH
$LN6@MootopReed:

; 521  : 				}
; 522  : 
; 523  : 				if (this->MMOTOP_BonusSoulBank > 0)

  01686	8b 45 f8	 mov	 eax, DWORD PTR _this$[ebp]
  01689	83 b8 f8 00 00
	00 00		 cmp	 DWORD PTR [eax+248], 0
  01690	7e 3f		 jle	 SHORT $LN5@MootopReed

; 524  : 				{
; 525  : 					lpObj->SoulBank += this->MMOTOP_BonusSoulBank;

  01692	8b 85 04 fd ff
	ff		 mov	 eax, DWORD PTR _lpObj$224537[ebp]
  01698	8b 88 e8 27 00
	00		 mov	 ecx, DWORD PTR [eax+10216]
  0169e	8b 55 f8	 mov	 edx, DWORD PTR _this$[ebp]
  016a1	03 8a f8 00 00
	00		 add	 ecx, DWORD PTR [edx+248]
  016a7	8b 85 04 fd ff
	ff		 mov	 eax, DWORD PTR _lpObj$224537[ebp]
  016ad	89 88 e8 27 00
	00		 mov	 DWORD PTR [eax+10216], ecx

; 526  : 					MessageChat(aIndex, "@[MMOTOP] Soul Bank Bonus: %d", this->MMOTOP_BonusSoulBank);

  016b3	8b 45 f8	 mov	 eax, DWORD PTR _this$[ebp]
  016b6	8b 88 f8 00 00
	00		 mov	 ecx, DWORD PTR [eax+248]
  016bc	51		 push	 ecx
  016bd	68 00 00 00 00	 push	 OFFSET ??_C@_0BO@MPCAPFDH@?$EA?$FLMMOTOP?$FN?5Soul?5Bank?5Bonus?3?5?$CFd?$AA@
  016c2	8b 95 18 fd ff
	ff		 mov	 edx, DWORD PTR _aIndex$224522[ebp]
  016c8	52		 push	 edx
  016c9	e8 00 00 00 00	 call	 ?MessageChat@@YAXHPADZZ	; MessageChat
  016ce	83 c4 0c	 add	 esp, 12			; 0000000cH
$LN5@MootopReed:

; 527  : 				}
; 528  : 
; 529  : 				if (this->MMOTOP_BonusLifeBank > 0)

  016d1	8b 45 f8	 mov	 eax, DWORD PTR _this$[ebp]
  016d4	83 b8 fc 00 00
	00 00		 cmp	 DWORD PTR [eax+252], 0
  016db	7e 3f		 jle	 SHORT $LN4@MootopReed

; 530  : 				{
; 531  : 					lpObj->LifeBank += this->MMOTOP_BonusLifeBank;

  016dd	8b 85 04 fd ff
	ff		 mov	 eax, DWORD PTR _lpObj$224537[ebp]
  016e3	8b 88 ec 27 00
	00		 mov	 ecx, DWORD PTR [eax+10220]
  016e9	8b 55 f8	 mov	 edx, DWORD PTR _this$[ebp]
  016ec	03 8a fc 00 00
	00		 add	 ecx, DWORD PTR [edx+252]
  016f2	8b 85 04 fd ff
	ff		 mov	 eax, DWORD PTR _lpObj$224537[ebp]
  016f8	89 88 ec 27 00
	00		 mov	 DWORD PTR [eax+10220], ecx

; 532  : 					MessageChat(aIndex, "@[MMOTOP] Life Bank Bonus: %d", this->MMOTOP_BonusLifeBank);

  016fe	8b 45 f8	 mov	 eax, DWORD PTR _this$[ebp]
  01701	8b 88 fc 00 00
	00		 mov	 ecx, DWORD PTR [eax+252]
  01707	51		 push	 ecx
  01708	68 00 00 00 00	 push	 OFFSET ??_C@_0BO@GLDGCAIH@?$EA?$FLMMOTOP?$FN?5Life?5Bank?5Bonus?3?5?$CFd?$AA@
  0170d	8b 95 18 fd ff
	ff		 mov	 edx, DWORD PTR _aIndex$224522[ebp]
  01713	52		 push	 edx
  01714	e8 00 00 00 00	 call	 ?MessageChat@@YAXHPADZZ	; MessageChat
  01719	83 c4 0c	 add	 esp, 12			; 0000000cH
$LN4@MootopReed:

; 533  : 				}
; 534  : 
; 535  : 				// --> Buff Effect Custom
; 536  : 				if(g_ExLicense.CheckUser(eExUB::Gredy) || g_ExLicense.CheckUser(eExUB::GredyLocal) || g_ExLicense.CheckUser(eExUB::Gredy2))

  0171c	6a 20		 push	 32			; 00000020H
  0171e	b9 00 00 00 00	 mov	 ecx, OFFSET ?g_ExLicense@@3VCExLicense@@A ; g_ExLicense
  01723	e8 00 00 00 00	 call	 ?CheckUser@CExLicense@@QAE_NH@Z ; CExLicense::CheckUser
  01728	0f b6 c0	 movzx	 eax, al
  0172b	85 c0		 test	 eax, eax
  0172d	75 26		 jne	 SHORT $LN2@MootopReed
  0172f	6a 21		 push	 33			; 00000021H
  01731	b9 00 00 00 00	 mov	 ecx, OFFSET ?g_ExLicense@@3VCExLicense@@A ; g_ExLicense
  01736	e8 00 00 00 00	 call	 ?CheckUser@CExLicense@@QAE_NH@Z ; CExLicense::CheckUser
  0173b	0f b6 c0	 movzx	 eax, al
  0173e	85 c0		 test	 eax, eax
  01740	75 13		 jne	 SHORT $LN2@MootopReed
  01742	6a 22		 push	 34			; 00000022H
  01744	b9 00 00 00 00	 mov	 ecx, OFFSET ?g_ExLicense@@3VCExLicense@@A ; g_ExLicense
  01749	e8 00 00 00 00	 call	 ?CheckUser@CExLicense@@QAE_NH@Z ; CExLicense::CheckUser
  0174e	0f b6 c0	 movzx	 eax, al
  01751	85 c0		 test	 eax, eax
  01753	74 4a		 je	 SHORT $LN3@MootopReed
$LN2@MootopReed:

; 537  : 				{
; 538  : 					lpObj->MT_BuffTime += this->MMOTOP_SMSBuffTime;

  01755	8b 85 04 fd ff
	ff		 mov	 eax, DWORD PTR _lpObj$224537[ebp]
  0175b	8b 88 dc 2a 00
	00		 mov	 ecx, DWORD PTR [eax+10972]
  01761	8b 55 f8	 mov	 edx, DWORD PTR _this$[ebp]
  01764	03 8a 64 02 00
	00		 add	 ecx, DWORD PTR [edx+612]
  0176a	8b 85 04 fd ff
	ff		 mov	 eax, DWORD PTR _lpObj$224537[ebp]
  01770	89 88 dc 2a 00
	00		 mov	 DWORD PTR [eax+10972], ecx

; 539  : 					gObjApplyBuffEffectDuration(lpObj, AT_MMOTOP_BUFF, 0, 0, 0, 0, lpObj->MT_BuffTime);

  01776	8b 85 04 fd ff
	ff		 mov	 eax, DWORD PTR _lpObj$224537[ebp]
  0177c	8b 88 dc 2a 00
	00		 mov	 ecx, DWORD PTR [eax+10972]
  01782	51		 push	 ecx
  01783	6a 00		 push	 0
  01785	6a 00		 push	 0
  01787	6a 00		 push	 0
  01789	6a 00		 push	 0
  0178b	68 c2 00 00 00	 push	 194			; 000000c2H
  01790	8b 95 04 fd ff
	ff		 mov	 edx, DWORD PTR _lpObj$224537[ebp]
  01796	52		 push	 edx
  01797	e8 00 00 00 00	 call	 ?gObjApplyBuffEffectDuration@@YAEPAUOBJECTSTRUCT@@HEHEHH@Z ; gObjApplyBuffEffectDuration
  0179c	83 c4 1c	 add	 esp, 28			; 0000001cH
$LN3@MootopReed:

; 540  : 				}
; 541  : 
; 542  : 				MessageChat(aIndex,"@[MMOTOP] Date: %s",DataTime);

  0179f	8d 85 34 fd ff
	ff		 lea	 eax, DWORD PTR _DataTime$224511[ebp]
  017a5	50		 push	 eax
  017a6	68 00 00 00 00	 push	 OFFSET ??_C@_0BD@DNPJLPDE@?$EA?$FLMMOTOP?$FN?5Date?3?5?$CFs?$AA@
  017ab	8b 8d 18 fd ff
	ff		 mov	 ecx, DWORD PTR _aIndex$224522[ebp]
  017b1	51		 push	 ecx
  017b2	e8 00 00 00 00	 call	 ?MessageChat@@YAXHPADZZ	; MessageChat
  017b7	83 c4 0c	 add	 esp, 12			; 0000000cH
$LN14@MootopReed:

; 543  : 			}
; 544  : 
; 545  : 			lpObj->MTDate = tData;

  017ba	8b 85 04 fd ff
	ff		 mov	 eax, DWORD PTR _lpObj$224537[ebp]
  017c0	8b 8d 08 fd ff
	ff		 mov	 ecx, DWORD PTR _tData$224536[ebp]
  017c6	89 88 08 28 00
	00		 mov	 DWORD PTR [eax+10248], ecx

; 546  : 			
; 547  : 			ExUserDataSend(aIndex);

  017cc	8b 85 18 fd ff
	ff		 mov	 eax, DWORD PTR _aIndex$224522[ebp]
  017d2	50		 push	 eax
  017d3	e8 00 00 00 00	 call	 ?ExUserDataSend@@YAXH@Z	; ExUserDataSend
  017d8	83 c4 04	 add	 esp, 4

; 548  : #ifndef FIX_DS_CRASH
; 549  : 			GJSetCharacterInfo(lpObj, lpObj->m_Index, 0);
; 550  : #endif
; 551  : 			LogAdd("[MMOTOP][%s] Date: %s", lpObj->AccountID,DataTime);

  017db	8d 85 34 fd ff
	ff		 lea	 eax, DWORD PTR _DataTime$224511[ebp]
  017e1	50		 push	 eax
  017e2	8b 8d 04 fd ff
	ff		 mov	 ecx, DWORD PTR _lpObj$224537[ebp]
  017e8	83 c1 6c	 add	 ecx, 108		; 0000006cH
  017eb	51		 push	 ecx
  017ec	68 00 00 00 00	 push	 OFFSET ??_C@_0BG@BMABLBJK@?$FLMMOTOP?$FN?$FL?$CFs?$FN?5Date?3?5?$CFs?$AA@
  017f1	ff 15 00 00 00
	00		 call	 DWORD PTR ?LogAdd@@3P6AXPADZZA ; LogAdd
  017f7	83 c4 0c	 add	 esp, 12			; 0000000cH

; 552  : 
; 553  : #if(MMOTOP_LOG==TRUE)
; 554  : 			char Buff2[512] = { 0 };

  017fa	c6 85 f4 fa ff
	ff 00		 mov	 BYTE PTR _Buff2$224592[ebp], 0
  01801	68 ff 01 00 00	 push	 511			; 000001ffH
  01806	6a 00		 push	 0
  01808	8d 85 f5 fa ff
	ff		 lea	 eax, DWORD PTR _Buff2$224592[ebp+1]
  0180e	50		 push	 eax
  0180f	e8 00 00 00 00	 call	 _memset
  01814	83 c4 0c	 add	 esp, 12			; 0000000cH

; 555  : 			sprintf(Buff2, "%d %s %s %s %s %d", mId, mGetDate, mGetTime, mGetIp, mGetAccaunt, mRewerd);

  01817	8b 85 98 fd ff
	ff		 mov	 eax, DWORD PTR _mRewerd$224509[ebp]
  0181d	50		 push	 eax
  0181e	8d 8d 9c fd ff
	ff		 lea	 ecx, DWORD PTR _mGetAccaunt$224508[ebp]
  01824	51		 push	 ecx
  01825	8d 95 b0 fd ff
	ff		 lea	 edx, DWORD PTR _mGetIp$224507[ebp]
  0182b	52		 push	 edx
  0182c	8d 85 c4 fd ff
	ff		 lea	 eax, DWORD PTR _mGetTime$224506[ebp]
  01832	50		 push	 eax
  01833	8d 8d d8 fd ff
	ff		 lea	 ecx, DWORD PTR _mGetDate$224505[ebp]
  01839	51		 push	 ecx
  0183a	8b 95 ec fd ff
	ff		 mov	 edx, DWORD PTR _mId$224504[ebp]
  01840	52		 push	 edx
  01841	68 00 00 00 00	 push	 OFFSET ??_C@_0BC@FDIFMHGC@?$CFd?5?$CFs?5?$CFs?5?$CFs?5?$CFs?5?$CFd?$AA@
  01846	8d 85 f4 fa ff
	ff		 lea	 eax, DWORD PTR _Buff2$224592[ebp]
  0184c	50		 push	 eax
  0184d	e8 00 00 00 00	 call	 _sprintf
  01852	83 c4 20	 add	 esp, 32			; 00000020H

; 556  : 			g_MmotopLog.Output(Buff2);

  01855	8d 85 f4 fa ff
	ff		 lea	 eax, DWORD PTR _Buff2$224592[ebp]
  0185b	50		 push	 eax
  0185c	68 00 00 00 00	 push	 OFFSET ?g_MmotopLog@@3VCLogToFile@@A ; g_MmotopLog
  01861	e8 00 00 00 00	 call	 ?Output@CLogToFile@@QAAXPADZZ ; CLogToFile::Output
  01866	83 c4 08	 add	 esp, 8

; 557  : #endif
; 558  : #if(SYSTEM_ACHIEVEMENTS)
; 559  : 			g_Achievements.MootopVoteUp(lpObj->m_Index);

  01869	8b 85 04 fd ff
	ff		 mov	 eax, DWORD PTR _lpObj$224537[ebp]
  0186f	8b 08		 mov	 ecx, DWORD PTR [eax]
  01871	51		 push	 ecx
  01872	b9 00 00 00 00	 mov	 ecx, OFFSET ?g_Achievements@@3VCAchievements@@A ; g_Achievements
  01877	e8 00 00 00 00	 call	 ?MootopVoteUp@CAchievements@@QAEXH@Z ; CAchievements::MootopVoteUp
$LN28@MootopReed:

; 560  : #endif
; 561  : 		}
; 562  : 		
; 563  : 	}

  0187c	e9 f1 f3 ff ff	 jmp	 $LN50@MootopReed
$LN41@MootopReed:

; 564  : 
; 565  : 	fclose(file);

  01881	8b 45 f4	 mov	 eax, DWORD PTR _file$[ebp]
  01884	50		 push	 eax
  01885	e8 00 00 00 00	 call	 _fclose
  0188a	83 c4 04	 add	 esp, 4

; 566  : 	if (this->MMOTOP_DeleteVoteFile)

  0188d	8b 45 f8	 mov	 eax, DWORD PTR _this$[ebp]
  01890	0f b6 48 01	 movzx	 ecx, BYTE PTR [eax+1]
  01894	85 c9		 test	 ecx, ecx
  01896	74 0d		 je	 SHORT $LN1@MootopReed

; 567  : 	{
; 568  : 		remove(MMOTOP_FILE);

  01898	68 00 00 00 00	 push	 OFFSET ??_C@_0L@HNCANJIK@mmotop?4txt?$AA@
  0189d	e8 00 00 00 00	 call	 _remove
  018a2	83 c4 04	 add	 esp, 4
$LN1@MootopReed:
$LN45@MootopReed:

; 569  : 	}
; 570  : }

  018a5	5f		 pop	 edi
  018a6	5e		 pop	 esi
  018a7	5b		 pop	 ebx
  018a8	8b 4d fc	 mov	 ecx, DWORD PTR __$ArrayPad$[ebp]
  018ab	33 cd		 xor	 ecx, ebp
  018ad	e8 00 00 00 00	 call	 @__security_check_cookie@4
  018b2	8b e5		 mov	 esp, ebp
  018b4	5d		 pop	 ebp
  018b5	c3		 ret	 0
?MootopReed@Voter@@QAEXXZ ENDP				; Voter::MootopReed
_TEXT	ENDS
PUBLIC	?QtopReed@Voter@@QAEXXZ				; Voter::QtopReed
PUBLIC	??_C@_04LJLMOBMF@QTOP?$AA@			; `string'
PUBLIC	??_C@_08CLPFLBNE@qtop?4txt?$AA@			; `string'
PUBLIC	__$ArrayPad$
PUBLIC	?Qtop@Voter@@QAEXXZ				; Voter::Qtop
;	COMDAT ??_C@_04LJLMOBMF@QTOP?$AA@
CONST	SEGMENT
??_C@_04LJLMOBMF@QTOP?$AA@ DB 'QTOP', 00H		; `string'
CONST	ENDS
;	COMDAT ??_C@_08CLPFLBNE@qtop?4txt?$AA@
CONST	SEGMENT
??_C@_08CLPFLBNE@qtop?4txt?$AA@ DB 'qtop.txt', 00H	; `string'
CONST	ENDS
xdata$x	SEGMENT
__unwindtable$?Qtop@Voter@@QAEXXZ DD 0ffffffffH
	DD	FLAT:__unwindfunclet$?Qtop@Voter@@QAEXXZ$0
__ehfuncinfo$?Qtop@Voter@@QAEXXZ DD 019930522H
	DD	01H
	DD	FLAT:__unwindtable$?Qtop@Voter@@QAEXXZ
	DD	2 DUP(00H)
	DD	2 DUP(00H)
	DD	00H
	DD	01H
; Function compile flags: /Odtp /ZI
xdata$x	ENDS
_TEXT	SEGMENT
_bRead$224635 = -8424					; size = 4
_dwBytesRead$224634 = -8420				; size = 4
_szData$224633 = -8416					; size = 4096
_fnews$224628 = -4320					; size = 168
_bSend$224626 = -4152					; size = 4
_hRequest$224624 = -4148				; size = 4
_hConnect$224622 = -4144				; size = 4
_hInternet$224620 = -4140				; size = 4
_bRead$224616 = -4136					; size = 4
_dwBytesRead$224615 = -4132				; size = 4
_szData$224614 = -4128					; size = 4096
_file$224609 = -32					; size = 4
_hHandle$224606 = -28					; size = 4
_hSession$224604 = -24					; size = 4
_this$ = -20						; size = 4
__$ArrayPad$ = -16					; size = 4
__$EHRec$ = -12						; size = 12
?Qtop@Voter@@QAEXXZ PROC				; Voter::Qtop
; _this$ = ecx

; 575  : {

  018c0	55		 push	 ebp
  018c1	8b ec		 mov	 ebp, esp
  018c3	6a ff		 push	 -1
  018c5	68 00 00 00 00	 push	 __ehhandler$?Qtop@Voter@@QAEXXZ
  018ca	64 a1 00 00 00
	00		 mov	 eax, DWORD PTR fs:0
  018d0	50		 push	 eax
  018d1	b8 1c 21 00 00	 mov	 eax, 8476		; 0000211cH
  018d6	e8 00 00 00 00	 call	 __chkstk
  018db	a1 00 00 00 00	 mov	 eax, DWORD PTR ___security_cookie
  018e0	33 c5		 xor	 eax, ebp
  018e2	89 45 f0	 mov	 DWORD PTR __$ArrayPad$[ebp], eax
  018e5	53		 push	 ebx
  018e6	56		 push	 esi
  018e7	57		 push	 edi
  018e8	50		 push	 eax
  018e9	8d 45 f4	 lea	 eax, DWORD PTR __$EHRec$[ebp]
  018ec	64 a3 00 00 00
	00		 mov	 DWORD PTR fs:0, eax
  018f2	89 4d ec	 mov	 DWORD PTR _this$[ebp], ecx

; 576  : 	if (!this->QTOP_Enable) return;

  018f5	8b 45 ec	 mov	 eax, DWORD PTR _this$[ebp]
  018f8	0f b6 88 30 01
	00 00		 movzx	 ecx, BYTE PTR [eax+304]
  018ff	85 c9		 test	 ecx, ecx
  01901	75 05		 jne	 SHORT $LN28@Qtop
  01903	e9 51 03 00 00	 jmp	 $LN29@Qtop
$LN28@Qtop:

; 577  : 
; 578  : 	//--------------------------------------------------------
; 579  : 	if (QTOP_UPDATE_VOTER == 1)

  01908	8b 45 ec	 mov	 eax, DWORD PTR _this$[ebp]
  0190b	83 b8 34 01 00
	00 01		 cmp	 DWORD PTR [eax+308], 1
  01912	75 2c		 jne	 SHORT $LN27@Qtop

; 580  : 	{
; 581  : 		if (this->QTOP_DownloadFile)

  01914	8b 45 ec	 mov	 eax, DWORD PTR _this$[ebp]
  01917	0f b6 88 32 01
	00 00		 movzx	 ecx, BYTE PTR [eax+306]
  0191e	85 c9		 test	 ecx, ecx
  01920	74 19		 je	 SHORT $LN26@Qtop

; 582  : 		{
; 583  : 			URLDownloadToFileA(NULL,
; 584  : 				_T(this->QTOP_FileName),
; 585  : 				_T(QTOP_FILE),
; 586  : 				0, NULL);

  01922	6a 00		 push	 0
  01924	6a 00		 push	 0
  01926	68 00 00 00 00	 push	 OFFSET ??_C@_08CLPFLBNE@qtop?4txt?$AA@
  0192b	8b 45 ec	 mov	 eax, DWORD PTR _this$[ebp]
  0192e	05 38 01 00 00	 add	 eax, 312		; 00000138H
  01933	50		 push	 eax
  01934	6a 00		 push	 0
  01936	e8 00 00 00 00	 call	 _URLDownloadToFileA@20
$LN26@Qtop:

; 587  : 		}
; 588  : 	}

  0193b	e9 11 03 00 00	 jmp	 $LN25@Qtop
$LN27@Qtop:

; 589  : 	//--------------------------------------------------------
; 590  : 	else if (QTOP_UPDATE_VOTER == 2)

  01940	8b 45 ec	 mov	 eax, DWORD PTR _this$[ebp]
  01943	83 b8 34 01 00
	00 02		 cmp	 DWORD PTR [eax+308], 2
  0194a	0f 85 2b 01 00
	00		 jne	 $LN24@Qtop

; 591  : 	{
; 592  : 		if (this->QTOP_DownloadFile)

  01950	8b 45 ec	 mov	 eax, DWORD PTR _this$[ebp]
  01953	0f b6 88 32 01
	00 00		 movzx	 ecx, BYTE PTR [eax+306]
  0195a	85 c9		 test	 ecx, ecx
  0195c	0f 84 14 01 00
	00		 je	 $LN23@Qtop

; 593  : 		{
; 594  : 			HINTERNET hSession = InternetOpenA("QTOP", INTERNET_OPEN_TYPE_PRECONFIG, NULL, NULL, 0);

  01962	6a 00		 push	 0
  01964	6a 00		 push	 0
  01966	6a 00		 push	 0
  01968	6a 00		 push	 0
  0196a	68 00 00 00 00	 push	 OFFSET ??_C@_04LJLMOBMF@QTOP?$AA@
  0196f	ff 15 00 00 00
	00		 call	 DWORD PTR __imp__InternetOpenA@20
  01975	89 45 e8	 mov	 DWORD PTR _hSession$224604[ebp], eax

; 595  : 			HINTERNET hHandle = InternetOpenUrlA(hSession, this->QTOP_FileName, NULL, 0, INTERNET_FLAG_DONT_CACHE, 0);

  01978	6a 00		 push	 0
  0197a	68 00 00 00 04	 push	 67108864		; 04000000H
  0197f	6a 00		 push	 0
  01981	6a 00		 push	 0
  01983	8b 45 ec	 mov	 eax, DWORD PTR _this$[ebp]
  01986	05 38 01 00 00	 add	 eax, 312		; 00000138H
  0198b	50		 push	 eax
  0198c	8b 4d e8	 mov	 ecx, DWORD PTR _hSession$224604[ebp]
  0198f	51		 push	 ecx
  01990	ff 15 00 00 00
	00		 call	 DWORD PTR __imp__InternetOpenUrlA@24
  01996	89 45 e4	 mov	 DWORD PTR _hHandle$224606[ebp], eax

; 596  : 			// ----
; 597  : 			if (hSession == NULL || hHandle == NULL)

  01999	83 7d e8 00	 cmp	 DWORD PTR _hSession$224604[ebp], 0
  0199d	74 06		 je	 SHORT $LN21@Qtop
  0199f	83 7d e4 00	 cmp	 DWORD PTR _hHandle$224606[ebp], 0
  019a3	75 19		 jne	 SHORT $LN22@Qtop
$LN21@Qtop:

; 598  : 			{
; 599  : 				InternetCloseHandle(hSession);

  019a5	8b 45 e8	 mov	 eax, DWORD PTR _hSession$224604[ebp]
  019a8	50		 push	 eax
  019a9	ff 15 00 00 00
	00		 call	 DWORD PTR __imp__InternetCloseHandle@4

; 600  : 				InternetCloseHandle(hHandle);

  019af	8b 45 e4	 mov	 eax, DWORD PTR _hHandle$224606[ebp]
  019b2	50		 push	 eax
  019b3	ff 15 00 00 00
	00		 call	 DWORD PTR __imp__InternetCloseHandle@4

; 601  : 				return;

  019b9	e9 9b 02 00 00	 jmp	 $LN29@Qtop
$LN22@Qtop:

; 602  : 			}
; 603  : 			// ----
; 604  : 			FILE * file = fopen(QTOP_FILE, "w");

  019be	68 00 00 00 00	 push	 OFFSET ??_C@_01NOFIACDB@w?$AA@
  019c3	68 00 00 00 00	 push	 OFFSET ??_C@_08CLPFLBNE@qtop?4txt?$AA@
  019c8	e8 00 00 00 00	 call	 _fopen
  019cd	83 c4 08	 add	 esp, 8
  019d0	89 45 e0	 mov	 DWORD PTR _file$224609[ebp], eax

; 605  : 			if (file)

  019d3	83 7d e0 00	 cmp	 DWORD PTR _file$224609[ebp], 0
  019d7	0f 84 85 00 00
	00		 je	 $LN20@Qtop
$LN19@Qtop:

; 606  : 			{
; 607  : 				while (true)

  019dd	b8 01 00 00 00	 mov	 eax, 1
  019e2	85 c0		 test	 eax, eax
  019e4	74 70		 je	 SHORT $LN18@Qtop

; 608  : 				{
; 609  : 					//  
; 610  : 					char  szData[4096];
; 611  : 					ZeroMemory(szData, sizeof(szData));

  019e6	68 00 10 00 00	 push	 4096			; 00001000H
  019eb	6a 00		 push	 0
  019ed	8d 85 e0 ef ff
	ff		 lea	 eax, DWORD PTR _szData$224614[ebp]
  019f3	50		 push	 eax
  019f4	e8 00 00 00 00	 call	 _memset
  019f9	83 c4 0c	 add	 esp, 12			; 0000000cH

; 612  : 
; 613  : 					DWORD dwBytesRead;
; 614  : 
; 615  : 					BOOL bRead = ::InternetReadFile(hHandle, szData, sizeof(szData)-1, &dwBytesRead);

  019fc	8d 85 dc ef ff
	ff		 lea	 eax, DWORD PTR _dwBytesRead$224615[ebp]
  01a02	50		 push	 eax
  01a03	68 ff 0f 00 00	 push	 4095			; 00000fffH
  01a08	8d 8d e0 ef ff
	ff		 lea	 ecx, DWORD PTR _szData$224614[ebp]
  01a0e	51		 push	 ecx
  01a0f	8b 55 e4	 mov	 edx, DWORD PTR _hHandle$224606[ebp]
  01a12	52		 push	 edx
  01a13	ff 15 00 00 00
	00		 call	 DWORD PTR __imp__InternetReadFile@16
  01a19	89 85 d8 ef ff
	ff		 mov	 DWORD PTR _bRead$224616[ebp], eax

; 616  : 
; 617  : 					//       
; 618  : 					if (bRead == FALSE || dwBytesRead == 0)

  01a1f	83 bd d8 ef ff
	ff 00		 cmp	 DWORD PTR _bRead$224616[ebp], 0
  01a26	74 09		 je	 SHORT $LN16@Qtop
  01a28	83 bd dc ef ff
	ff 00		 cmp	 DWORD PTR _dwBytesRead$224615[ebp], 0
  01a2f	75 02		 jne	 SHORT $LN17@Qtop
$LN16@Qtop:

; 619  : 						break;

  01a31	eb 23		 jmp	 SHORT $LN18@Qtop
$LN17@Qtop:

; 620  : 
; 621  : 					//  
; 622  : 					szData[dwBytesRead] = 0;

  01a33	8b 85 dc ef ff
	ff		 mov	 eax, DWORD PTR _dwBytesRead$224615[ebp]
  01a39	c6 84 05 e0 ef
	ff ff 00	 mov	 BYTE PTR _szData$224614[ebp+eax], 0

; 623  : 					fputs(szData, file);

  01a41	8b 45 e0	 mov	 eax, DWORD PTR _file$224609[ebp]
  01a44	50		 push	 eax
  01a45	8d 8d e0 ef ff
	ff		 lea	 ecx, DWORD PTR _szData$224614[ebp]
  01a4b	51		 push	 ecx
  01a4c	e8 00 00 00 00	 call	 _fputs
  01a51	83 c4 08	 add	 esp, 8

; 624  : 				}

  01a54	eb 87		 jmp	 SHORT $LN19@Qtop
$LN18@Qtop:

; 625  : 				fclose(file);

  01a56	8b 45 e0	 mov	 eax, DWORD PTR _file$224609[ebp]
  01a59	50		 push	 eax
  01a5a	e8 00 00 00 00	 call	 _fclose
  01a5f	83 c4 04	 add	 esp, 4
$LN20@Qtop:

; 626  : 			}
; 627  : 
; 628  : 			InternetCloseHandle(hSession);	//Need ?

  01a62	8b 45 e8	 mov	 eax, DWORD PTR _hSession$224604[ebp]
  01a65	50		 push	 eax
  01a66	ff 15 00 00 00
	00		 call	 DWORD PTR __imp__InternetCloseHandle@4

; 629  : 			InternetCloseHandle(hHandle);

  01a6c	8b 45 e4	 mov	 eax, DWORD PTR _hHandle$224606[ebp]
  01a6f	50		 push	 eax
  01a70	ff 15 00 00 00
	00		 call	 DWORD PTR __imp__InternetCloseHandle@4
$LN23@Qtop:

; 630  : 		}
; 631  : 
; 632  : 	}
; 633  : 	//--------------------------------------------------------
; 634  : 	else

  01a76	e9 d6 01 00 00	 jmp	 $LN25@Qtop
$LN24@Qtop:

; 635  : 	{
; 636  : 		//  WinInet
; 637  : 		HINTERNET hInternet = ::InternetOpen(TEXT("MMOTOP"),
; 638  : 			INTERNET_OPEN_TYPE_PRECONFIG,
; 639  : 			NULL, NULL,
; 640  : 			0);

  01a7b	6a 00		 push	 0
  01a7d	6a 00		 push	 0
  01a7f	6a 00		 push	 0
  01a81	6a 00		 push	 0
  01a83	68 00 00 00 00	 push	 OFFSET ??_C@_06KLDIONEO@MMOTOP?$AA@
  01a88	ff 15 00 00 00
	00		 call	 DWORD PTR __imp__InternetOpenA@20
  01a8e	89 85 d4 ef ff
	ff		 mov	 DWORD PTR _hInternet$224620[ebp], eax

; 641  : 
; 642  : 		if (hInternet != NULL)

  01a94	83 bd d4 ef ff
	ff 00		 cmp	 DWORD PTR _hInternet$224620[ebp], 0
  01a9b	0f 84 a3 01 00
	00		 je	 $LN14@Qtop

; 643  : 		{
; 644  : 			//  HTTP 
; 645  : 			HINTERNET hConnect =
; 646  : 				::InternetConnect(
; 647  : 				hInternet,
; 648  : 				TEXT(QTOP_FILE),
; 649  : 				INTERNET_DEFAULT_HTTP_PORT,
; 650  : 				NULL, NULL,
; 651  : 				INTERNET_SERVICE_HTTP,
; 652  : 				0,
; 653  : 				1u);

  01aa1	6a 01		 push	 1
  01aa3	6a 00		 push	 0
  01aa5	6a 03		 push	 3
  01aa7	6a 00		 push	 0
  01aa9	6a 00		 push	 0
  01aab	6a 50		 push	 80			; 00000050H
  01aad	68 00 00 00 00	 push	 OFFSET ??_C@_08CLPFLBNE@qtop?4txt?$AA@
  01ab2	8b 85 d4 ef ff
	ff		 mov	 eax, DWORD PTR _hInternet$224620[ebp]
  01ab8	50		 push	 eax
  01ab9	ff 15 00 00 00
	00		 call	 DWORD PTR __imp__InternetConnectA@32
  01abf	89 85 d0 ef ff
	ff		 mov	 DWORD PTR _hConnect$224622[ebp], eax

; 654  : 
; 655  : 			if (hConnect != NULL)

  01ac5	83 bd d0 ef ff
	ff 00		 cmp	 DWORD PTR _hConnect$224622[ebp], 0
  01acc	0f 84 56 01 00
	00		 je	 $LN13@Qtop

; 656  : 			{
; 657  : 				//  
; 658  : 				HINTERNET hRequest = ::HttpOpenRequest(hConnect,
; 659  : 					TEXT("GET"),
; 660  : 					TEXT(QTOP_FileName),        //TEXT("votes/aba02abed8021ba31a4499a390aa8afa4679c6d1.txt"),//TEXT("news.asp"),
; 661  : 					NULL,
; 662  : 					NULL,
; 663  : 					0,
; 664  : 					INTERNET_FLAG_KEEP_CONNECTION,
; 665  : 					1);

  01ad2	6a 01		 push	 1
  01ad4	68 00 00 40 00	 push	 4194304			; 00400000H
  01ad9	6a 00		 push	 0
  01adb	6a 00		 push	 0
  01add	6a 00		 push	 0
  01adf	8b 45 ec	 mov	 eax, DWORD PTR _this$[ebp]
  01ae2	05 38 01 00 00	 add	 eax, 312		; 00000138H
  01ae7	50		 push	 eax
  01ae8	68 00 00 00 00	 push	 OFFSET ??_C@_03HAPOJHBM@GET?$AA@
  01aed	8b 8d d0 ef ff
	ff		 mov	 ecx, DWORD PTR _hConnect$224622[ebp]
  01af3	51		 push	 ecx
  01af4	ff 15 00 00 00
	00		 call	 DWORD PTR __imp__HttpOpenRequestA@32
  01afa	89 85 cc ef ff
	ff		 mov	 DWORD PTR _hRequest$224624[ebp], eax

; 666  : 
; 667  : 				if (hRequest != NULL)

  01b00	83 bd cc ef ff
	ff 00		 cmp	 DWORD PTR _hRequest$224624[ebp], 0
  01b07	0f 84 ff 00 00
	00		 je	 $LN12@Qtop

; 668  : 				{
; 669  : 					//  
; 670  : 					BOOL bSend = ::HttpSendRequest(hRequest, NULL, 0, NULL, 0);

  01b0d	6a 00		 push	 0
  01b0f	6a 00		 push	 0
  01b11	6a 00		 push	 0
  01b13	6a 00		 push	 0
  01b15	8b 85 cc ef ff
	ff		 mov	 eax, DWORD PTR _hRequest$224624[ebp]
  01b1b	50		 push	 eax
  01b1c	ff 15 00 00 00
	00		 call	 DWORD PTR __imp__HttpSendRequestA@20
  01b22	89 85 c8 ef ff
	ff		 mov	 DWORD PTR _bSend$224626[ebp], eax

; 671  : 					if (bSend)

  01b28	83 bd c8 ef ff
	ff 00		 cmp	 DWORD PTR _bSend$224626[ebp], 0
  01b2f	0f 84 bb 00 00
	00		 je	 $LN11@Qtop

; 672  : 					{
; 673  : 						//   
; 674  : 						std::ofstream fnews(QTOP_FILE, std::ios::out | std::ios::binary);

  01b35	6a 01		 push	 1
  01b37	6a 40		 push	 64			; 00000040H
  01b39	6a 22		 push	 34			; 00000022H
  01b3b	68 00 00 00 00	 push	 OFFSET ??_C@_08CLPFLBNE@qtop?4txt?$AA@
  01b40	8d 8d 20 ef ff
	ff		 lea	 ecx, DWORD PTR _fnews$224628[ebp]
  01b46	e8 00 00 00 00	 call	 ??0?$basic_ofstream@DU?$char_traits@D@std@@@std@@QAE@PBDHH@Z ; std::basic_ofstream<char,std::char_traits<char> >::basic_ofstream<char,std::char_traits<char> >
  01b4b	c7 45 fc 00 00
	00 00		 mov	 DWORD PTR __$EHRec$[ebp+8], 0

; 675  : 						if (fnews.is_open())

  01b52	8d 8d 20 ef ff
	ff		 lea	 ecx, DWORD PTR _fnews$224628[ebp]
  01b58	e8 00 00 00 00	 call	 ?is_open@?$basic_ofstream@DU?$char_traits@D@std@@@std@@QBE_NXZ ; std::basic_ofstream<char,std::char_traits<char> >::is_open
  01b5d	0f b6 c0	 movzx	 eax, al
  01b60	85 c0		 test	 eax, eax
  01b62	74 6b		 je	 SHORT $LN10@Qtop
$LN9@Qtop:

; 676  : 						{
; 677  : 							while (true)

  01b64	b8 01 00 00 00	 mov	 eax, 1
  01b69	85 c0		 test	 eax, eax
  01b6b	74 60		 je	 SHORT $LN8@Qtop

; 678  : 							{
; 679  : 								//  
; 680  : 								char  szData[4096];
; 681  : 								DWORD dwBytesRead;
; 682  : 								BOOL bRead =
; 683  : 									::InternetReadFile(
; 684  : 									hRequest,
; 685  : 									szData, sizeof(szData)-1,
; 686  : 									&dwBytesRead);

  01b6d	8d 85 1c df ff
	ff		 lea	 eax, DWORD PTR _dwBytesRead$224634[ebp]
  01b73	50		 push	 eax
  01b74	68 ff 0f 00 00	 push	 4095			; 00000fffH
  01b79	8d 8d 20 df ff
	ff		 lea	 ecx, DWORD PTR _szData$224633[ebp]
  01b7f	51		 push	 ecx
  01b80	8b 95 cc ef ff
	ff		 mov	 edx, DWORD PTR _hRequest$224624[ebp]
  01b86	52		 push	 edx
  01b87	ff 15 00 00 00
	00		 call	 DWORD PTR __imp__InternetReadFile@16
  01b8d	89 85 18 df ff
	ff		 mov	 DWORD PTR _bRead$224635[ebp], eax

; 687  : 
; 688  : 								//       
; 689  : 								if (bRead == FALSE || dwBytesRead == 0)

  01b93	83 bd 18 df ff
	ff 00		 cmp	 DWORD PTR _bRead$224635[ebp], 0
  01b9a	74 09		 je	 SHORT $LN6@Qtop
  01b9c	83 bd 1c df ff
	ff 00		 cmp	 DWORD PTR _dwBytesRead$224634[ebp], 0
  01ba3	75 02		 jne	 SHORT $LN7@Qtop
$LN6@Qtop:

; 690  : 									break;

  01ba5	eb 26		 jmp	 SHORT $LN8@Qtop
$LN7@Qtop:

; 691  : 
; 692  : 								//  
; 693  : 								szData[dwBytesRead] = 0;

  01ba7	8b 85 1c df ff
	ff		 mov	 eax, DWORD PTR _dwBytesRead$224634[ebp]
  01bad	c6 84 05 20 df
	ff ff 00	 mov	 BYTE PTR _szData$224633[ebp+eax], 0

; 694  : 								fnews << szData;

  01bb5	8d 85 20 df ff
	ff		 lea	 eax, DWORD PTR _szData$224633[ebp]
  01bbb	50		 push	 eax
  01bbc	8d 8d 20 ef ff
	ff		 lea	 ecx, DWORD PTR _fnews$224628[ebp]
  01bc2	51		 push	 ecx
  01bc3	e8 00 00 00 00	 call	 ??$?6U?$char_traits@D@std@@@std@@YAAAV?$basic_ostream@DU?$char_traits@D@std@@@0@AAV10@PBD@Z ; std::operator<<<std::char_traits<char> >
  01bc8	83 c4 08	 add	 esp, 8

; 695  : 							}

  01bcb	eb 97		 jmp	 SHORT $LN9@Qtop
$LN8@Qtop:

; 696  : 						}
; 697  : 						else

  01bcd	eb 0d		 jmp	 SHORT $LN5@Qtop
$LN10@Qtop:

; 698  : 						{
; 699  : 							AdmLog("fnews.is_open()");

  01bcf	68 00 00 00 00	 push	 OFFSET ??_C@_0BA@HICLJBKB@fnews?4is_open?$CI?$CJ?$AA@
  01bd4	e8 00 00 00 00	 call	 ?AdmLog@@YAXPAD@Z	; AdmLog
  01bd9	83 c4 04	 add	 esp, 4
$LN5@Qtop:

; 700  : 						}
; 701  : 					}

  01bdc	c7 45 fc ff ff
	ff ff		 mov	 DWORD PTR __$EHRec$[ebp+8], -1
  01be3	8d 8d 20 ef ff
	ff		 lea	 ecx, DWORD PTR _fnews$224628[ebp]
  01be9	e8 00 00 00 00	 call	 ??_D?$basic_ofstream@DU?$char_traits@D@std@@@std@@QAEXXZ

; 702  : 					else

  01bee	eb 0d		 jmp	 SHORT $LN4@Qtop
$LN11@Qtop:

; 703  : 					{
; 704  : 						AdmLog("bSend");

  01bf0	68 00 00 00 00	 push	 OFFSET ??_C@_05DLJCAKKO@bSend?$AA@
  01bf5	e8 00 00 00 00	 call	 ?AdmLog@@YAXPAD@Z	; AdmLog
  01bfa	83 c4 04	 add	 esp, 4
$LN4@Qtop:

; 705  : 					}
; 706  : 					//  
; 707  : 					::InternetCloseHandle(hRequest);

  01bfd	8b 85 cc ef ff
	ff		 mov	 eax, DWORD PTR _hRequest$224624[ebp]
  01c03	50		 push	 eax
  01c04	ff 15 00 00 00
	00		 call	 DWORD PTR __imp__InternetCloseHandle@4

; 708  : 				}
; 709  : 				else

  01c0a	eb 0d		 jmp	 SHORT $LN3@Qtop
$LN12@Qtop:

; 710  : 				{
; 711  : 					AdmLog("hRequest != NULL");

  01c0c	68 00 00 00 00	 push	 OFFSET ??_C@_0BB@CCOENLML@hRequest?5?$CB?$DN?5NULL?$AA@
  01c11	e8 00 00 00 00	 call	 ?AdmLog@@YAXPAD@Z	; AdmLog
  01c16	83 c4 04	 add	 esp, 4
$LN3@Qtop:

; 712  : 				}
; 713  : 				//  
; 714  : 				::InternetCloseHandle(hConnect);

  01c19	8b 85 d0 ef ff
	ff		 mov	 eax, DWORD PTR _hConnect$224622[ebp]
  01c1f	50		 push	 eax
  01c20	ff 15 00 00 00
	00		 call	 DWORD PTR __imp__InternetCloseHandle@4

; 715  : 			}
; 716  : 			else

  01c26	eb 0d		 jmp	 SHORT $LN2@Qtop
$LN13@Qtop:

; 717  : 			{
; 718  : 				AdmLog("hConnect != NULL");

  01c28	68 00 00 00 00	 push	 OFFSET ??_C@_0BB@MALKFMPK@hConnect?5?$CB?$DN?5NULL?$AA@
  01c2d	e8 00 00 00 00	 call	 ?AdmLog@@YAXPAD@Z	; AdmLog
  01c32	83 c4 04	 add	 esp, 4
$LN2@Qtop:

; 719  : 			}
; 720  : 			//  WinInet
; 721  : 			::InternetCloseHandle(hInternet);

  01c35	8b 85 d4 ef ff
	ff		 mov	 eax, DWORD PTR _hInternet$224620[ebp]
  01c3b	50		 push	 eax
  01c3c	ff 15 00 00 00
	00		 call	 DWORD PTR __imp__InternetCloseHandle@4

; 722  : 		}
; 723  : 		else

  01c42	eb 0d		 jmp	 SHORT $LN25@Qtop
$LN14@Qtop:

; 724  : 		{
; 725  : 			AdmLog("hInternet != NULL");

  01c44	68 00 00 00 00	 push	 OFFSET ??_C@_0BC@ELJALHPL@hInternet?5?$CB?$DN?5NULL?$AA@
  01c49	e8 00 00 00 00	 call	 ?AdmLog@@YAXPAD@Z	; AdmLog
  01c4e	83 c4 04	 add	 esp, 4
$LN25@Qtop:

; 726  : 		}
; 727  : 	}
; 728  : 	//--------------------------------------------------------
; 729  : 
; 730  : #ifdef DEBUG_CODE
; 731  : 	AdmLog("DEBUG_CODE");
; 732  : #endif
; 733  : 
; 734  : 	this->QtopReed();

  01c51	8b 4d ec	 mov	 ecx, DWORD PTR _this$[ebp]
  01c54	e8 00 00 00 00	 call	 ?QtopReed@Voter@@QAEXXZ	; Voter::QtopReed
$LN29@Qtop:

; 735  : }

  01c59	8b 4d f4	 mov	 ecx, DWORD PTR __$EHRec$[ebp]
  01c5c	64 89 0d 00 00
	00 00		 mov	 DWORD PTR fs:0, ecx
  01c63	59		 pop	 ecx
  01c64	5f		 pop	 edi
  01c65	5e		 pop	 esi
  01c66	5b		 pop	 ebx
  01c67	8b 4d f0	 mov	 ecx, DWORD PTR __$ArrayPad$[ebp]
  01c6a	33 cd		 xor	 ecx, ebp
  01c6c	e8 00 00 00 00	 call	 @__security_check_cookie@4
  01c71	8b e5		 mov	 esp, ebp
  01c73	5d		 pop	 ebp
  01c74	c3		 ret	 0
_TEXT	ENDS
text$x	SEGMENT
__unwindfunclet$?Qtop@Voter@@QAEXXZ$0:
  00033	8d 8d 20 ef ff
	ff		 lea	 ecx, DWORD PTR _fnews$224628[ebp]
  00039	e9 00 00 00 00	 jmp	 ??_D?$basic_ofstream@DU?$char_traits@D@std@@@std@@QAEXXZ
__ehhandler$?Qtop@Voter@@QAEXXZ:
  0003e	8b 54 24 08	 mov	 edx, DWORD PTR [esp+8]
  00042	8d 42 0c	 lea	 eax, DWORD PTR [edx+12]
  00045	8b 8a d4 de ff
	ff		 mov	 ecx, DWORD PTR [edx-8492]
  0004b	33 c8		 xor	 ecx, eax
  0004d	e8 00 00 00 00	 call	 @__security_check_cookie@4
  00052	8b 4a fc	 mov	 ecx, DWORD PTR [edx-4]
  00055	33 c8		 xor	 ecx, eax
  00057	e8 00 00 00 00	 call	 @__security_check_cookie@4
  0005c	b8 00 00 00 00	 mov	 eax, OFFSET __ehfuncinfo$?Qtop@Voter@@QAEXXZ
  00061	e9 00 00 00 00	 jmp	 ___CxxFrameHandler3
text$x	ENDS
?Qtop@Voter@@QAEXXZ ENDP				; Voter::Qtop
PUBLIC	??_C@_0BE@OHJFKBPP@?$FLQTOP?$FN?$FL?$CFs?$FN?5Date?3?5?$CFs?$AA@ ; `string'
PUBLIC	??_C@_0BB@EPGEHIK@?$EA?$FLQTOP?$FN?5Date?3?5?$CFs?$AA@ ; `string'
PUBLIC	??_C@_0BM@CAGLDOOI@?$EA?$FLQTOP?$FN?5Life?5Bank?5Bonus?3?5?$CFd?$AA@ ; `string'
PUBLIC	??_C@_0BM@IEHNOLFI@?$EA?$FLQTOP?$FN?5Soul?5Bank?5Bonus?3?5?$CFd?$AA@ ; `string'
PUBLIC	??_C@_0BN@EDNCDCIG@?$EA?$FLQTOP?$FN?5Bless?5Bank?5Bonus?3?5?$CFd?$AA@ ; `string'
PUBLIC	??_C@_0BN@EJNHHCLB@?$EA?$FLQTOP?$FN?5Chaos?5Bank?5Bonus?3?5?$CFd?$AA@ ; `string'
PUBLIC	??_C@_0BJ@HHCPDPGE@?$EA?$FLQTOP?$FN?5ExCred?5Bonus?3?5?$CFd?$AA@ ; `string'
PUBLIC	??_C@_0BJ@FEFHLEEI@?$EA?$FLQTOP?$FN?5Goblin?5Bonus?3?5?$CFd?$AA@ ; `string'
PUBLIC	??_C@_0BJ@LNNHKKD@?$EA?$FLQTOP?$FN?5WCoinP?5Bonus?3?5?$CFd?$AA@ ; `string'
PUBLIC	??_C@_0BJ@GHGEDONC@?$EA?$FLQTOP?$FN?5WcoinC?5Bonus?3?5?$CFd?$AA@ ; `string'
PUBLIC	??_C@_0BH@PHOGLPEJ@?$EA?$FLQTOP?$FN?5Item?5Bonus?3?5?$CFs?$AA@ ; `string'
PUBLIC	??_C@_0DE@MCFMOACN@?$EA?$FLQTOP?$FN?5Need?5to?5make?5space?5in?5th@ ; `string'
PUBLIC	??_C@_0BF@OKPMBKFL@?$EA?$FLSMS?5QTOP?$FN?5Date?3?5?$CFs?$AA@ ; `string'
PUBLIC	??_C@_0CA@KBCELJKG@?$EA?$FLSMS?5QTOP?$FN?5Life?5Bank?5Bonus?3?5?$CFd?$AA@ ; `string'
PUBLIC	??_C@_0CA@FDCGMBG@?$EA?$FLSMS?5QTOP?$FN?5Soul?5Bank?5Bonus?3?5?$CFd?$AA@ ; `string'
PUBLIC	??_C@_0CB@NCDHBBJG@?$EA?$FLSMS?5QTOP?$FN?5Bless?5Bank?5Bonus?3?5?$CFd@ ; `string'
PUBLIC	??_C@_0CB@NIDCFBKB@?$EA?$FLSMS?5QTOP?$FN?5Chaos?5Bank?5Bonus?3?5?$CFd@ ; `string'
PUBLIC	??_C@_0BN@MJOFJLEJ@?$EA?$FLSMS?5QTOP?$FN?5ExCred?5Bonus?3?5?$CFd?$AA@ ; `string'
PUBLIC	??_C@_0BN@OKJNBAGF@?$EA?$FLSMS?5QTOP?$FN?5Goblin?5Bonus?3?5?$CFd?$AA@ ; `string'
PUBLIC	??_C@_0BN@LFBHNOIO@?$EA?$FLSMS?5QTOP?$FN?5WCoinP?5Bonus?3?5?$CFd?$AA@ ; `string'
PUBLIC	??_C@_0BN@NJKOJKPP@?$EA?$FLSMS?5QTOP?$FN?5WcoinC?5Bonus?3?5?$CFd?$AA@ ; `string'
PUBLIC	??_C@_0BL@CCMGGGHH@?$EA?$FLSMS?5QTOP?$FN?5Item?5Bonus?3?5?$CFs?$AA@ ; `string'
PUBLIC	??_C@_0DI@EACAPLAC@?$EA?$FLSMS?5QTOP?$FN?5Need?5to?5make?5space?5i@ ; `string'
PUBLIC	__$ArrayPad$
EXTRN	?GJSetCharacterInfo@@YAXPAUOBJECTSTRUCT@@HH@Z:PROC ; GJSetCharacterInfo
EXTRN	_strlen:PROC
;	COMDAT ??_C@_0BE@OHJFKBPP@?$FLQTOP?$FN?$FL?$CFs?$FN?5Date?3?5?$CFs?$AA@
CONST	SEGMENT
??_C@_0BE@OHJFKBPP@?$FLQTOP?$FN?$FL?$CFs?$FN?5Date?3?5?$CFs?$AA@ DB '[QTO'
	DB	'P][%s] Date: %s', 00H			; `string'
CONST	ENDS
;	COMDAT ??_C@_0BB@EPGEHIK@?$EA?$FLQTOP?$FN?5Date?3?5?$CFs?$AA@
CONST	SEGMENT
??_C@_0BB@EPGEHIK@?$EA?$FLQTOP?$FN?5Date?3?5?$CFs?$AA@ DB '@[QTOP] Date: '
	DB	'%s', 00H					; `string'
CONST	ENDS
;	COMDAT ??_C@_0BM@CAGLDOOI@?$EA?$FLQTOP?$FN?5Life?5Bank?5Bonus?3?5?$CFd?$AA@
CONST	SEGMENT
??_C@_0BM@CAGLDOOI@?$EA?$FLQTOP?$FN?5Life?5Bank?5Bonus?3?5?$CFd?$AA@ DB '@'
	DB	'[QTOP] Life Bank Bonus: %d', 00H		; `string'
CONST	ENDS
;	COMDAT ??_C@_0BM@IEHNOLFI@?$EA?$FLQTOP?$FN?5Soul?5Bank?5Bonus?3?5?$CFd?$AA@
CONST	SEGMENT
??_C@_0BM@IEHNOLFI@?$EA?$FLQTOP?$FN?5Soul?5Bank?5Bonus?3?5?$CFd?$AA@ DB '@'
	DB	'[QTOP] Soul Bank Bonus: %d', 00H		; `string'
CONST	ENDS
;	COMDAT ??_C@_0BN@EDNCDCIG@?$EA?$FLQTOP?$FN?5Bless?5Bank?5Bonus?3?5?$CFd?$AA@
CONST	SEGMENT
??_C@_0BN@EDNCDCIG@?$EA?$FLQTOP?$FN?5Bless?5Bank?5Bonus?3?5?$CFd?$AA@ DB '@'
	DB	'[QTOP] Bless Bank Bonus: %d', 00H		; `string'
CONST	ENDS
;	COMDAT ??_C@_0BN@EJNHHCLB@?$EA?$FLQTOP?$FN?5Chaos?5Bank?5Bonus?3?5?$CFd?$AA@
CONST	SEGMENT
??_C@_0BN@EJNHHCLB@?$EA?$FLQTOP?$FN?5Chaos?5Bank?5Bonus?3?5?$CFd?$AA@ DB '@'
	DB	'[QTOP] Chaos Bank Bonus: %d', 00H		; `string'
CONST	ENDS
;	COMDAT ??_C@_0BJ@HHCPDPGE@?$EA?$FLQTOP?$FN?5ExCred?5Bonus?3?5?$CFd?$AA@
CONST	SEGMENT
??_C@_0BJ@HHCPDPGE@?$EA?$FLQTOP?$FN?5ExCred?5Bonus?3?5?$CFd?$AA@ DB '@[QT'
	DB	'OP] ExCred Bonus: %d', 00H			; `string'
CONST	ENDS
;	COMDAT ??_C@_0BJ@FEFHLEEI@?$EA?$FLQTOP?$FN?5Goblin?5Bonus?3?5?$CFd?$AA@
CONST	SEGMENT
??_C@_0BJ@FEFHLEEI@?$EA?$FLQTOP?$FN?5Goblin?5Bonus?3?5?$CFd?$AA@ DB '@[QT'
	DB	'OP] Goblin Bonus: %d', 00H			; `string'
CONST	ENDS
;	COMDAT ??_C@_0BJ@LNNHKKD@?$EA?$FLQTOP?$FN?5WCoinP?5Bonus?3?5?$CFd?$AA@
CONST	SEGMENT
??_C@_0BJ@LNNHKKD@?$EA?$FLQTOP?$FN?5WCoinP?5Bonus?3?5?$CFd?$AA@ DB '@[QTO'
	DB	'P] WCoinP Bonus: %d', 00H			; `string'
CONST	ENDS
;	COMDAT ??_C@_0BJ@GHGEDONC@?$EA?$FLQTOP?$FN?5WcoinC?5Bonus?3?5?$CFd?$AA@
CONST	SEGMENT
??_C@_0BJ@GHGEDONC@?$EA?$FLQTOP?$FN?5WcoinC?5Bonus?3?5?$CFd?$AA@ DB '@[QT'
	DB	'OP] WcoinC Bonus: %d', 00H			; `string'
CONST	ENDS
;	COMDAT ??_C@_0BH@PHOGLPEJ@?$EA?$FLQTOP?$FN?5Item?5Bonus?3?5?$CFs?$AA@
CONST	SEGMENT
??_C@_0BH@PHOGLPEJ@?$EA?$FLQTOP?$FN?5Item?5Bonus?3?5?$CFs?$AA@ DB '@[QTOP'
	DB	'] Item Bonus: %s', 00H			; `string'
CONST	ENDS
;	COMDAT ??_C@_0DE@MCFMOACN@?$EA?$FLQTOP?$FN?5Need?5to?5make?5space?5in?5th@
CONST	SEGMENT
??_C@_0DE@MCFMOACN@?$EA?$FLQTOP?$FN?5Need?5to?5make?5space?5in?5th@ DB '@'
	DB	'[QTOP] Need to make space in the inventory (%dx%d)', 00H ; `string'
CONST	ENDS
;	COMDAT ??_C@_0BF@OKPMBKFL@?$EA?$FLSMS?5QTOP?$FN?5Date?3?5?$CFs?$AA@
CONST	SEGMENT
??_C@_0BF@OKPMBKFL@?$EA?$FLSMS?5QTOP?$FN?5Date?3?5?$CFs?$AA@ DB '@[SMS QT'
	DB	'OP] Date: %s', 00H				; `string'
CONST	ENDS
;	COMDAT ??_C@_0CA@KBCELJKG@?$EA?$FLSMS?5QTOP?$FN?5Life?5Bank?5Bonus?3?5?$CFd?$AA@
CONST	SEGMENT
??_C@_0CA@KBCELJKG@?$EA?$FLSMS?5QTOP?$FN?5Life?5Bank?5Bonus?3?5?$CFd?$AA@ DB '@'
	DB	'[SMS QTOP] Life Bank Bonus: %d', 00H	; `string'
CONST	ENDS
;	COMDAT ??_C@_0CA@FDCGMBG@?$EA?$FLSMS?5QTOP?$FN?5Soul?5Bank?5Bonus?3?5?$CFd?$AA@
CONST	SEGMENT
??_C@_0CA@FDCGMBG@?$EA?$FLSMS?5QTOP?$FN?5Soul?5Bank?5Bonus?3?5?$CFd?$AA@ DB '@'
	DB	'[SMS QTOP] Soul Bank Bonus: %d', 00H	; `string'
CONST	ENDS
;	COMDAT ??_C@_0CB@NCDHBBJG@?$EA?$FLSMS?5QTOP?$FN?5Bless?5Bank?5Bonus?3?5?$CFd@
CONST	SEGMENT
??_C@_0CB@NCDHBBJG@?$EA?$FLSMS?5QTOP?$FN?5Bless?5Bank?5Bonus?3?5?$CFd@ DB '@'
	DB	'[SMS QTOP] Bless Bank Bonus: %d', 00H	; `string'
CONST	ENDS
;	COMDAT ??_C@_0CB@NIDCFBKB@?$EA?$FLSMS?5QTOP?$FN?5Chaos?5Bank?5Bonus?3?5?$CFd@
CONST	SEGMENT
??_C@_0CB@NIDCFBKB@?$EA?$FLSMS?5QTOP?$FN?5Chaos?5Bank?5Bonus?3?5?$CFd@ DB '@'
	DB	'[SMS QTOP] Chaos Bank Bonus: %d', 00H	; `string'
CONST	ENDS
;	COMDAT ??_C@_0BN@MJOFJLEJ@?$EA?$FLSMS?5QTOP?$FN?5ExCred?5Bonus?3?5?$CFd?$AA@
CONST	SEGMENT
??_C@_0BN@MJOFJLEJ@?$EA?$FLSMS?5QTOP?$FN?5ExCred?5Bonus?3?5?$CFd?$AA@ DB '@'
	DB	'[SMS QTOP] ExCred Bonus: %d', 00H		; `string'
CONST	ENDS
;	COMDAT ??_C@_0BN@OKJNBAGF@?$EA?$FLSMS?5QTOP?$FN?5Goblin?5Bonus?3?5?$CFd?$AA@
CONST	SEGMENT
??_C@_0BN@OKJNBAGF@?$EA?$FLSMS?5QTOP?$FN?5Goblin?5Bonus?3?5?$CFd?$AA@ DB '@'
	DB	'[SMS QTOP] Goblin Bonus: %d', 00H		; `string'
CONST	ENDS
;	COMDAT ??_C@_0BN@LFBHNOIO@?$EA?$FLSMS?5QTOP?$FN?5WCoinP?5Bonus?3?5?$CFd?$AA@
CONST	SEGMENT
??_C@_0BN@LFBHNOIO@?$EA?$FLSMS?5QTOP?$FN?5WCoinP?5Bonus?3?5?$CFd?$AA@ DB '@'
	DB	'[SMS QTOP] WCoinP Bonus: %d', 00H		; `string'
CONST	ENDS
;	COMDAT ??_C@_0BN@NJKOJKPP@?$EA?$FLSMS?5QTOP?$FN?5WcoinC?5Bonus?3?5?$CFd?$AA@
CONST	SEGMENT
??_C@_0BN@NJKOJKPP@?$EA?$FLSMS?5QTOP?$FN?5WcoinC?5Bonus?3?5?$CFd?$AA@ DB '@'
	DB	'[SMS QTOP] WcoinC Bonus: %d', 00H		; `string'
CONST	ENDS
;	COMDAT ??_C@_0BL@CCMGGGHH@?$EA?$FLSMS?5QTOP?$FN?5Item?5Bonus?3?5?$CFs?$AA@
CONST	SEGMENT
??_C@_0BL@CCMGGGHH@?$EA?$FLSMS?5QTOP?$FN?5Item?5Bonus?3?5?$CFs?$AA@ DB '@'
	DB	'[SMS QTOP] Item Bonus: %s', 00H		; `string'
CONST	ENDS
;	COMDAT ??_C@_0DI@EACAPLAC@?$EA?$FLSMS?5QTOP?$FN?5Need?5to?5make?5space?5i@
CONST	SEGMENT
??_C@_0DI@EACAPLAC@?$EA?$FLSMS?5QTOP?$FN?5Need?5to?5make?5space?5i@ DB '@'
	DB	'[SMS QTOP] Need to make space in the inventory (%dx%d)', 00H ; `string'
; Function compile flags: /Odtp /ZI
CONST	ENDS
_TEXT	SEGMENT
_Width$224719 = -788					; size = 4
_Height$224718 = -784					; size = 4
_Width$224693 = -780					; size = 4
_Height$224692 = -776					; size = 4
_lpObj$224688 = -772					; size = 4
_tData$224687 = -768					; size = 4
_ct$224685 = -764					; size = 8
_n$224677 = -756					; size = 4
_aIndex$224676 = -752					; size = 4
_nSec$224673 = -748					; size = 4
_nMin$224672 = -744					; size = 4
_nHour$224671 = -740					; size = 4
_nDay$224670 = -736					; size = 4
_nMonth$224669 = -732					; size = 4
_nYear$224668 = -728					; size = 4
_DataTime$224667 = -724					; size = 100
_mRewerd$224666 = -624					; size = 4
_mGetAccaunt$224665 = -620				; size = 20
_mGetIp$224664 = -600					; size = 20
_mGetTime$224663 = -580					; size = 20
_mGetDate$224662 = -560					; size = 20
_mId$224661 = -540					; size = 4
_i$224656 = -536					; size = 4
_iLen$224654 = -532					; size = 4
_Count$ = -528						; size = 4
_Buff$ = -524						; size = 512
_file$ = -12						; size = 4
_this$ = -8						; size = 4
__$ArrayPad$ = -4					; size = 4
?QtopReed@Voter@@QAEXXZ PROC				; Voter::QtopReed
; _this$ = ecx

; 738  : {

  01c80	55		 push	 ebp
  01c81	8b ec		 mov	 ebp, esp
  01c83	81 ec 54 03 00
	00		 sub	 esp, 852		; 00000354H
  01c89	a1 00 00 00 00	 mov	 eax, DWORD PTR ___security_cookie
  01c8e	33 c5		 xor	 eax, ebp
  01c90	89 45 fc	 mov	 DWORD PTR __$ArrayPad$[ebp], eax
  01c93	53		 push	 ebx
  01c94	56		 push	 esi
  01c95	57		 push	 edi
  01c96	89 4d f8	 mov	 DWORD PTR _this$[ebp], ecx

; 739  : 	if (!this->QTOP_Enable) return;

  01c99	8b 45 f8	 mov	 eax, DWORD PTR _this$[ebp]
  01c9c	0f b6 88 30 01
	00 00		 movzx	 ecx, BYTE PTR [eax+304]
  01ca3	85 c9		 test	 ecx, ecx
  01ca5	75 05		 jne	 SHORT $LN46@QtopReed
  01ca7	e9 e1 0c 00 00	 jmp	 $LN47@QtopReed
$LN46@QtopReed:

; 740  : 
; 741  : 	FILE * file = fopen(QTOP_FILE, "r");

  01cac	68 00 00 00 00	 push	 OFFSET ??_C@_01KDCPPGHE@r?$AA@
  01cb1	68 00 00 00 00	 push	 OFFSET ??_C@_08CLPFLBNE@qtop?4txt?$AA@
  01cb6	e8 00 00 00 00	 call	 _fopen
  01cbb	83 c4 08	 add	 esp, 8
  01cbe	89 45 f4	 mov	 DWORD PTR _file$[ebp], eax

; 742  : 
; 743  : 	if (file == NULL)

  01cc1	83 7d f4 00	 cmp	 DWORD PTR _file$[ebp], 0
  01cc5	75 05		 jne	 SHORT $LN45@QtopReed

; 744  : 	{
; 745  : #ifdef VOTE_DEBUG
; 746  : 		LogAddC(2, "[VOTE]No FILE");
; 747  : #endif
; 748  : 		return;

  01cc7	e9 c1 0c 00 00	 jmp	 $LN47@QtopReed
$LN45@QtopReed:

; 749  : 	}
; 750  : 
; 751  : 	char Buff[512];
; 752  : 
; 753  : 	int Count = 0;

  01ccc	c7 85 f0 fd ff
	ff 00 00 00 00	 mov	 DWORD PTR _Count$[ebp], 0
$LN53@QtopReed:

; 754  : 
; 755  : 	while (!feof(file))

  01cd6	8b 45 f4	 mov	 eax, DWORD PTR _file$[ebp]
  01cd9	50		 push	 eax
  01cda	e8 00 00 00 00	 call	 _feof
  01cdf	83 c4 04	 add	 esp, 4
  01ce2	85 c0		 test	 eax, eax
  01ce4	0f 85 7c 0c 00
	00		 jne	 $LN43@QtopReed

; 756  : 	{
; 757  : 		ZeroMemory(&Buff, sizeof(Buff));

  01cea	68 00 02 00 00	 push	 512			; 00000200H
  01cef	6a 00		 push	 0
  01cf1	8d 85 f4 fd ff
	ff		 lea	 eax, DWORD PTR _Buff$[ebp]
  01cf7	50		 push	 eax
  01cf8	e8 00 00 00 00	 call	 _memset
  01cfd	83 c4 0c	 add	 esp, 12			; 0000000cH

; 758  : 		fgets(Buff, 512, file);

  01d00	8b 45 f4	 mov	 eax, DWORD PTR _file$[ebp]
  01d03	50		 push	 eax
  01d04	68 00 02 00 00	 push	 512			; 00000200H
  01d09	8d 8d f4 fd ff
	ff		 lea	 ecx, DWORD PTR _Buff$[ebp]
  01d0f	51		 push	 ecx
  01d10	e8 00 00 00 00	 call	 _fgets
  01d15	83 c4 0c	 add	 esp, 12			; 0000000cH

; 759  : 
; 760  : 		int iLen = strlen(Buff);

  01d18	8d 85 f4 fd ff
	ff		 lea	 eax, DWORD PTR _Buff$[ebp]
  01d1e	50		 push	 eax
  01d1f	e8 00 00 00 00	 call	 _strlen
  01d24	83 c4 04	 add	 esp, 4
  01d27	89 85 ec fd ff
	ff		 mov	 DWORD PTR _iLen$224654[ebp], eax

; 761  : 
; 762  : 		if(iLen < 10)

  01d2d	83 bd ec fd ff
	ff 0a		 cmp	 DWORD PTR _iLen$224654[ebp], 10 ; 0000000aH
  01d34	7d 02		 jge	 SHORT $LN42@QtopReed

; 763  : 		{
; 764  : 			continue;

  01d36	eb 9e		 jmp	 SHORT $LN53@QtopReed
$LN42@QtopReed:

; 765  : 		}
; 766  : 
; 767  : 		for(int i = 0; i < iLen; i++)

  01d38	c7 85 e8 fd ff
	ff 00 00 00 00	 mov	 DWORD PTR _i$224656[ebp], 0
  01d42	eb 0f		 jmp	 SHORT $LN41@QtopReed
$LN40@QtopReed:
  01d44	8b 85 e8 fd ff
	ff		 mov	 eax, DWORD PTR _i$224656[ebp]
  01d4a	83 c0 01	 add	 eax, 1
  01d4d	89 85 e8 fd ff
	ff		 mov	 DWORD PTR _i$224656[ebp], eax
$LN41@QtopReed:
  01d53	8b 85 e8 fd ff
	ff		 mov	 eax, DWORD PTR _i$224656[ebp]
  01d59	3b 85 ec fd ff
	ff		 cmp	 eax, DWORD PTR _iLen$224654[ebp]
  01d5f	7d 23		 jge	 SHORT $LN39@QtopReed

; 768  : 		{
; 769  : 			if(Buff[i] == '|')

  01d61	8b 85 e8 fd ff
	ff		 mov	 eax, DWORD PTR _i$224656[ebp]
  01d67	0f be 8c 05 f4
	fd ff ff	 movsx	 ecx, BYTE PTR _Buff$[ebp+eax]
  01d6f	83 f9 7c	 cmp	 ecx, 124		; 0000007cH
  01d72	75 0e		 jne	 SHORT $LN38@QtopReed

; 770  : 			{
; 771  : 				Buff[i] = ' ';

  01d74	8b 85 e8 fd ff
	ff		 mov	 eax, DWORD PTR _i$224656[ebp]
  01d7a	c6 84 05 f4 fd
	ff ff 20	 mov	 BYTE PTR _Buff$[ebp+eax], 32 ; 00000020H
$LN38@QtopReed:

; 772  : 			}
; 773  : 		}

  01d82	eb c0		 jmp	 SHORT $LN40@QtopReed
$LN39@QtopReed:

; 774  : 
; 775  : 		int mId;// = 0;
; 776  : 		char mGetDate[20] = { 0 };

  01d84	c6 85 d0 fd ff
	ff 00		 mov	 BYTE PTR _mGetDate$224662[ebp], 0
  01d8b	33 c0		 xor	 eax, eax
  01d8d	89 85 d1 fd ff
	ff		 mov	 DWORD PTR _mGetDate$224662[ebp+1], eax
  01d93	89 85 d5 fd ff
	ff		 mov	 DWORD PTR _mGetDate$224662[ebp+5], eax
  01d99	89 85 d9 fd ff
	ff		 mov	 DWORD PTR _mGetDate$224662[ebp+9], eax
  01d9f	89 85 dd fd ff
	ff		 mov	 DWORD PTR _mGetDate$224662[ebp+13], eax
  01da5	66 89 85 e1 fd
	ff ff		 mov	 WORD PTR _mGetDate$224662[ebp+17], ax
  01dac	88 85 e3 fd ff
	ff		 mov	 BYTE PTR _mGetDate$224662[ebp+19], al

; 777  : 		char mGetTime[20] = { 0 };

  01db2	c6 85 bc fd ff
	ff 00		 mov	 BYTE PTR _mGetTime$224663[ebp], 0
  01db9	33 c0		 xor	 eax, eax
  01dbb	89 85 bd fd ff
	ff		 mov	 DWORD PTR _mGetTime$224663[ebp+1], eax
  01dc1	89 85 c1 fd ff
	ff		 mov	 DWORD PTR _mGetTime$224663[ebp+5], eax
  01dc7	89 85 c5 fd ff
	ff		 mov	 DWORD PTR _mGetTime$224663[ebp+9], eax
  01dcd	89 85 c9 fd ff
	ff		 mov	 DWORD PTR _mGetTime$224663[ebp+13], eax
  01dd3	66 89 85 cd fd
	ff ff		 mov	 WORD PTR _mGetTime$224663[ebp+17], ax
  01dda	88 85 cf fd ff
	ff		 mov	 BYTE PTR _mGetTime$224663[ebp+19], al

; 778  : 		char mGetIp[20] = { 0 };

  01de0	c6 85 a8 fd ff
	ff 00		 mov	 BYTE PTR _mGetIp$224664[ebp], 0
  01de7	33 c0		 xor	 eax, eax
  01de9	89 85 a9 fd ff
	ff		 mov	 DWORD PTR _mGetIp$224664[ebp+1], eax
  01def	89 85 ad fd ff
	ff		 mov	 DWORD PTR _mGetIp$224664[ebp+5], eax
  01df5	89 85 b1 fd ff
	ff		 mov	 DWORD PTR _mGetIp$224664[ebp+9], eax
  01dfb	89 85 b5 fd ff
	ff		 mov	 DWORD PTR _mGetIp$224664[ebp+13], eax
  01e01	66 89 85 b9 fd
	ff ff		 mov	 WORD PTR _mGetIp$224664[ebp+17], ax
  01e08	88 85 bb fd ff
	ff		 mov	 BYTE PTR _mGetIp$224664[ebp+19], al

; 779  : 		char mGetAccaunt[20] = { 0 };

  01e0e	c6 85 94 fd ff
	ff 00		 mov	 BYTE PTR _mGetAccaunt$224665[ebp], 0
  01e15	33 c0		 xor	 eax, eax
  01e17	89 85 95 fd ff
	ff		 mov	 DWORD PTR _mGetAccaunt$224665[ebp+1], eax
  01e1d	89 85 99 fd ff
	ff		 mov	 DWORD PTR _mGetAccaunt$224665[ebp+5], eax
  01e23	89 85 9d fd ff
	ff		 mov	 DWORD PTR _mGetAccaunt$224665[ebp+9], eax
  01e29	89 85 a1 fd ff
	ff		 mov	 DWORD PTR _mGetAccaunt$224665[ebp+13], eax
  01e2f	66 89 85 a5 fd
	ff ff		 mov	 WORD PTR _mGetAccaunt$224665[ebp+17], ax
  01e36	88 85 a7 fd ff
	ff		 mov	 BYTE PTR _mGetAccaunt$224665[ebp+19], al

; 780  : 		int mRewerd;
; 781  : 
; 782  : 		sscanf(Buff, "%d %s %s %s %s %d",&mId, &mGetDate, &mGetTime, &mGetIp, &mGetAccaunt, &mRewerd);

  01e3c	8d 85 90 fd ff
	ff		 lea	 eax, DWORD PTR _mRewerd$224666[ebp]
  01e42	50		 push	 eax
  01e43	8d 8d 94 fd ff
	ff		 lea	 ecx, DWORD PTR _mGetAccaunt$224665[ebp]
  01e49	51		 push	 ecx
  01e4a	8d 95 a8 fd ff
	ff		 lea	 edx, DWORD PTR _mGetIp$224664[ebp]
  01e50	52		 push	 edx
  01e51	8d 85 bc fd ff
	ff		 lea	 eax, DWORD PTR _mGetTime$224663[ebp]
  01e57	50		 push	 eax
  01e58	8d 8d d0 fd ff
	ff		 lea	 ecx, DWORD PTR _mGetDate$224662[ebp]
  01e5e	51		 push	 ecx
  01e5f	8d 95 e4 fd ff
	ff		 lea	 edx, DWORD PTR _mId$224661[ebp]
  01e65	52		 push	 edx
  01e66	68 00 00 00 00	 push	 OFFSET ??_C@_0BC@FDIFMHGC@?$CFd?5?$CFs?5?$CFs?5?$CFs?5?$CFs?5?$CFd?$AA@
  01e6b	8d 85 f4 fd ff
	ff		 lea	 eax, DWORD PTR _Buff$[ebp]
  01e71	50		 push	 eax
  01e72	e8 00 00 00 00	 call	 _sscanf
  01e77	83 c4 20	 add	 esp, 32			; 00000020H

; 783  : 		
; 784  : 
; 785  : 		//LogAddC(3, Buff);
; 786  : 		//sscanf(Buff, "%d||%s||%s||%s||%s||%d\n", &mId, &mGetDate, &mGetTime, &mGetIp, &mGetAccaunt, &mRewerd);
; 787  : 		//mRewerd[2] = 0;
; 788  : 		//LogAddC(2, "%d %s %s %s %s %d", mId, mGetDate, mGetTime, mGetIp, mGetAccaunt, mRewerd);
; 789  : 		//LogAddC(2, "%s %s", &mGetDate, &mGetTime);
; 790  : 		char DataTime[100];
; 791  : 		ZeroMemory(&DataTime, sizeof(DataTime));

  01e7a	6a 64		 push	 100			; 00000064H
  01e7c	6a 00		 push	 0
  01e7e	8d 85 2c fd ff
	ff		 lea	 eax, DWORD PTR _DataTime$224667[ebp]
  01e84	50		 push	 eax
  01e85	e8 00 00 00 00	 call	 _memset
  01e8a	83 c4 0c	 add	 esp, 12			; 0000000cH

; 792  : 		sprintf(DataTime, "%s %s", mGetDate, mGetTime);

  01e8d	8d 85 bc fd ff
	ff		 lea	 eax, DWORD PTR _mGetTime$224663[ebp]
  01e93	50		 push	 eax
  01e94	8d 8d d0 fd ff
	ff		 lea	 ecx, DWORD PTR _mGetDate$224662[ebp]
  01e9a	51		 push	 ecx
  01e9b	68 00 00 00 00	 push	 OFFSET ??_C@_05DNIIFBMG@?$CFs?5?$CFs?$AA@
  01ea0	8d 95 2c fd ff
	ff		 lea	 edx, DWORD PTR _DataTime$224667[ebp]
  01ea6	52		 push	 edx
  01ea7	e8 00 00 00 00	 call	 _sprintf
  01eac	83 c4 10	 add	 esp, 16			; 00000010H

; 793  : 		
; 794  : 		int nYear, nMonth, nDay, nHour, nMin, nSec;
; 795  : 		sscanf(DataTime, "%d.%d.%d %d:%d:%d", &nDay, &nMonth, &nYear, &nHour, &nMin, &nSec);

  01eaf	8d 85 14 fd ff
	ff		 lea	 eax, DWORD PTR _nSec$224673[ebp]
  01eb5	50		 push	 eax
  01eb6	8d 8d 18 fd ff
	ff		 lea	 ecx, DWORD PTR _nMin$224672[ebp]
  01ebc	51		 push	 ecx
  01ebd	8d 95 1c fd ff
	ff		 lea	 edx, DWORD PTR _nHour$224671[ebp]
  01ec3	52		 push	 edx
  01ec4	8d 85 28 fd ff
	ff		 lea	 eax, DWORD PTR _nYear$224668[ebp]
  01eca	50		 push	 eax
  01ecb	8d 8d 24 fd ff
	ff		 lea	 ecx, DWORD PTR _nMonth$224669[ebp]
  01ed1	51		 push	 ecx
  01ed2	8d 95 20 fd ff
	ff		 lea	 edx, DWORD PTR _nDay$224670[ebp]
  01ed8	52		 push	 edx
  01ed9	68 00 00 00 00	 push	 OFFSET ??_C@_0BC@FFOHHNEG@?$CFd?4?$CFd?4?$CFd?5?$CFd?3?$CFd?3?$CFd?$AA@
  01ede	8d 85 2c fd ff
	ff		 lea	 eax, DWORD PTR _DataTime$224667[ebp]
  01ee4	50		 push	 eax
  01ee5	e8 00 00 00 00	 call	 _sscanf
  01eea	83 c4 20	 add	 esp, 32			; 00000020H

; 796  : 		//20140215010507
; 797  : 		//LogAddC(2, "%d.%d.%d %d:%d:%d", &nDay, &nMonth, &nYear, &nHour, &nMin, &nSec);
; 798  : 		if (((nYear >= 1900) && (nMonth >= 1 && nMonth <= 12) && (nDay >= 1 && nDay <= 31) && (nHour >= 0 && nHour <= 23) && (nMin >= 0 && nMin <= 59) && (nSec >= 0 && nSec <= 59)))

  01eed	81 bd 28 fd ff
	ff 6c 07 00 00	 cmp	 DWORD PTR _nYear$224668[ebp], 1900 ; 0000076cH
  01ef7	7c 5c		 jl	 SHORT $LN37@QtopReed
  01ef9	83 bd 24 fd ff
	ff 01		 cmp	 DWORD PTR _nMonth$224669[ebp], 1
  01f00	7c 53		 jl	 SHORT $LN37@QtopReed
  01f02	83 bd 24 fd ff
	ff 0c		 cmp	 DWORD PTR _nMonth$224669[ebp], 12 ; 0000000cH
  01f09	7f 4a		 jg	 SHORT $LN37@QtopReed
  01f0b	83 bd 20 fd ff
	ff 01		 cmp	 DWORD PTR _nDay$224670[ebp], 1
  01f12	7c 41		 jl	 SHORT $LN37@QtopReed
  01f14	83 bd 20 fd ff
	ff 1f		 cmp	 DWORD PTR _nDay$224670[ebp], 31 ; 0000001fH
  01f1b	7f 38		 jg	 SHORT $LN37@QtopReed
  01f1d	83 bd 1c fd ff
	ff 00		 cmp	 DWORD PTR _nHour$224671[ebp], 0
  01f24	7c 2f		 jl	 SHORT $LN37@QtopReed
  01f26	83 bd 1c fd ff
	ff 17		 cmp	 DWORD PTR _nHour$224671[ebp], 23 ; 00000017H
  01f2d	7f 26		 jg	 SHORT $LN37@QtopReed
  01f2f	83 bd 18 fd ff
	ff 00		 cmp	 DWORD PTR _nMin$224672[ebp], 0
  01f36	7c 1d		 jl	 SHORT $LN37@QtopReed
  01f38	83 bd 18 fd ff
	ff 3b		 cmp	 DWORD PTR _nMin$224672[ebp], 59 ; 0000003bH
  01f3f	7f 14		 jg	 SHORT $LN37@QtopReed
  01f41	83 bd 14 fd ff
	ff 00		 cmp	 DWORD PTR _nSec$224673[ebp], 0
  01f48	7c 0b		 jl	 SHORT $LN37@QtopReed
  01f4a	83 bd 14 fd ff
	ff 3b		 cmp	 DWORD PTR _nSec$224673[ebp], 59 ; 0000003bH
  01f51	7f 02		 jg	 SHORT $LN37@QtopReed

; 799  : 		{
; 800  : 
; 801  : 		}
; 802  : 		else

  01f53	eb 05		 jmp	 SHORT $LN36@QtopReed
$LN37@QtopReed:

; 803  : 		{
; 804  : 			continue;

  01f55	e9 7c fd ff ff	 jmp	 $LN53@QtopReed
$LN36@QtopReed:

; 805  : 		}
; 806  : 
; 807  : 
; 808  : 		int aIndex = -1;

  01f5a	c7 85 10 fd ff
	ff ff ff ff ff	 mov	 DWORD PTR _aIndex$224676[ebp], -1

; 809  : 
; 810  : 		for (int n = OBJ_STARTUSERINDEX; n<OBJMAX; n++)

  01f64	c7 85 0c fd ff
	ff b0 36 00 00	 mov	 DWORD PTR _n$224677[ebp], 14000 ; 000036b0H
  01f6e	eb 0f		 jmp	 SHORT $LN35@QtopReed
$LN34@QtopReed:
  01f70	8b 85 0c fd ff
	ff		 mov	 eax, DWORD PTR _n$224677[ebp]
  01f76	83 c0 01	 add	 eax, 1
  01f79	89 85 0c fd ff
	ff		 mov	 DWORD PTR _n$224677[ebp], eax
$LN35@QtopReed:
  01f7f	81 bd 0c fd ff
	ff 98 3a 00 00	 cmp	 DWORD PTR _n$224677[ebp], 15000 ; 00003a98H
  01f89	7d 78		 jge	 SHORT $LN33@QtopReed

; 811  : 		{
; 812  : 			if (gObj[n].Connected >= PLAYER_PLAYING)

  01f8b	8b 85 0c fd ff
	ff		 mov	 eax, DWORD PTR _n$224677[ebp]
  01f91	69 c0 38 2b 00
	00		 imul	 eax, 11064		; 00002b38H
  01f97	8b 0d 00 00 00
	00		 mov	 ecx, DWORD PTR ?gObj@@3PAUOBJECTSTRUCT@@A ; gObj
  01f9d	83 7c 01 04 03	 cmp	 DWORD PTR [ecx+eax+4], 3
  01fa2	7c 5a		 jl	 SHORT $LN30@QtopReed

; 813  : 			{
; 814  : 				if (gObj[n].AccountID[0] == mGetAccaunt[0])

  01fa4	8b 85 0c fd ff
	ff		 mov	 eax, DWORD PTR _n$224677[ebp]
  01faa	69 c0 38 2b 00
	00		 imul	 eax, 11064		; 00002b38H
  01fb0	8b 0d 00 00 00
	00		 mov	 ecx, DWORD PTR ?gObj@@3PAUOBJECTSTRUCT@@A ; gObj
  01fb6	0f be 54 01 6c	 movsx	 edx, BYTE PTR [ecx+eax+108]
  01fbb	0f be 85 94 fd
	ff ff		 movsx	 eax, BYTE PTR _mGetAccaunt$224665[ebp]
  01fc2	3b d0		 cmp	 edx, eax
  01fc4	75 38		 jne	 SHORT $LN30@QtopReed

; 815  : 				{
; 816  : 					if (!strcmp(gObj[n].AccountID, mGetAccaunt))

  01fc6	8d 85 94 fd ff
	ff		 lea	 eax, DWORD PTR _mGetAccaunt$224665[ebp]
  01fcc	50		 push	 eax
  01fcd	8b 8d 0c fd ff
	ff		 mov	 ecx, DWORD PTR _n$224677[ebp]
  01fd3	69 c9 38 2b 00
	00		 imul	 ecx, 11064		; 00002b38H
  01fd9	8b 15 00 00 00
	00		 mov	 edx, DWORD PTR ?gObj@@3PAUOBJECTSTRUCT@@A ; gObj
  01fdf	8d 44 0a 6c	 lea	 eax, DWORD PTR [edx+ecx+108]
  01fe3	50		 push	 eax
  01fe4	e8 00 00 00 00	 call	 _strcmp
  01fe9	83 c4 08	 add	 esp, 8
  01fec	85 c0		 test	 eax, eax
  01fee	75 0e		 jne	 SHORT $LN30@QtopReed

; 817  : 					{
; 818  : 						aIndex = n;

  01ff0	8b 85 0c fd ff
	ff		 mov	 eax, DWORD PTR _n$224677[ebp]
  01ff6	89 85 10 fd ff
	ff		 mov	 DWORD PTR _aIndex$224676[ebp], eax

; 819  : 						break;

  01ffc	eb 05		 jmp	 SHORT $LN33@QtopReed
$LN30@QtopReed:

; 820  : 					}
; 821  : 				}
; 822  : 			}
; 823  : 		}

  01ffe	e9 6d ff ff ff	 jmp	 $LN34@QtopReed
$LN33@QtopReed:

; 824  : 
; 825  : 		if (aIndex == -1) continue;

  02003	83 bd 10 fd ff
	ff ff		 cmp	 DWORD PTR _aIndex$224676[ebp], -1
  0200a	75 05		 jne	 SHORT $LN29@QtopReed
  0200c	e9 c5 fc ff ff	 jmp	 $LN53@QtopReed
$LN29@QtopReed:

; 826  : 
; 827  : 		CTime ct = StrToCTime(DataTime);

  02011	8d 85 2c fd ff
	ff		 lea	 eax, DWORD PTR _DataTime$224667[ebp]
  02017	50		 push	 eax
  02018	8d 8d 04 fd ff
	ff		 lea	 ecx, DWORD PTR _ct$224685[ebp]
  0201e	51		 push	 ecx
  0201f	e8 00 00 00 00	 call	 ?StrToCTime@@YA?AVCTime@ATL@@PBD@Z ; StrToCTime
  02024	83 c4 08	 add	 esp, 8

; 828  : 		DWORD tData = ct.GetTime();

  02027	8d 8d 04 fd ff
	ff		 lea	 ecx, DWORD PTR _ct$224685[ebp]
  0202d	e8 00 00 00 00	 call	 ?GetTime@CTime@ATL@@QBE_JXZ ; ATL::CTime::GetTime
  02032	89 85 00 fd ff
	ff		 mov	 DWORD PTR _tData$224687[ebp], eax

; 829  : 
; 830  : 		LPOBJ lpObj = &gObj[aIndex];

  02038	8b 85 10 fd ff
	ff		 mov	 eax, DWORD PTR _aIndex$224676[ebp]
  0203e	69 c0 38 2b 00
	00		 imul	 eax, 11064		; 00002b38H
  02044	03 05 00 00 00
	00		 add	 eax, DWORD PTR ?gObj@@3PAUOBJECTSTRUCT@@A ; gObj
  0204a	89 85 fc fc ff
	ff		 mov	 DWORD PTR _lpObj$224688[ebp], eax

; 831  : 
; 832  : 		if (tData > lpObj->QTDate)

  02050	8b 85 fc fc ff
	ff		 mov	 eax, DWORD PTR _lpObj$224688[ebp]
  02056	8b 8d 00 fd ff
	ff		 mov	 ecx, DWORD PTR _tData$224687[ebp]
  0205c	3b 88 14 28 00
	00		 cmp	 ecx, DWORD PTR [eax+10260]
  02062	0f 86 f9 08 00
	00		 jbe	 $LN28@QtopReed

; 833  : 		{
; 834  : 			if (mRewerd == 2)

  02068	83 bd 90 fd ff
	ff 02		 cmp	 DWORD PTR _mRewerd$224666[ebp], 2
  0206f	0f 85 48 04 00
	00		 jne	 $LN27@QtopReed

; 835  : 			{
; 836  : 				//~~~~~~~~~~~~~~~~~~~~~~~~~~~~~~~~~~~~~~~~~~~~~~~~~
; 837  : 				if (this->QTOP_SMSBonusItemActive)

  02075	8b 45 f8	 mov	 eax, DWORD PTR _this$[ebp]
  02078	83 b8 40 02 00
	00 00		 cmp	 DWORD PTR [eax+576], 0
  0207f	0f 84 0d 01 00
	00		 je	 $LN26@QtopReed

; 838  : 				{
; 839  : 					int Height = ItemAttribute[ITEMGET(this->QTOP_SMSBonusItemType, this->QTOP_SMSBonusItemIndex)].Height;

  02085	8b 45 f8	 mov	 eax, DWORD PTR _this$[ebp]
  02088	8b 88 44 02 00
	00		 mov	 ecx, DWORD PTR [eax+580]
  0208e	c1 e1 09	 shl	 ecx, 9
  02091	8b 55 f8	 mov	 edx, DWORD PTR _this$[ebp]
  02094	03 8a 48 02 00
	00		 add	 ecx, DWORD PTR [edx+584]
  0209a	6b c9 70	 imul	 ecx, 112		; 00000070H
  0209d	0f b6 81 24 00
	00 00		 movzx	 eax, BYTE PTR ?ItemAttribute@@3PAUITEM_ATTRIBUTE@@A[ecx+36]
  020a4	89 85 f8 fc ff
	ff		 mov	 DWORD PTR _Height$224692[ebp], eax

; 840  : 					int Width = ItemAttribute[ITEMGET(this->QTOP_SMSBonusItemType, this->QTOP_SMSBonusItemIndex)].Width;

  020aa	8b 45 f8	 mov	 eax, DWORD PTR _this$[ebp]
  020ad	8b 88 44 02 00
	00		 mov	 ecx, DWORD PTR [eax+580]
  020b3	c1 e1 09	 shl	 ecx, 9
  020b6	8b 55 f8	 mov	 edx, DWORD PTR _this$[ebp]
  020b9	03 8a 48 02 00
	00		 add	 ecx, DWORD PTR [edx+584]
  020bf	6b c9 70	 imul	 ecx, 112		; 00000070H
  020c2	0f b6 81 23 00
	00 00		 movzx	 eax, BYTE PTR ?ItemAttribute@@3PAUITEM_ATTRIBUTE@@A[ecx+35]
  020c9	89 85 f4 fc ff
	ff		 mov	 DWORD PTR _Width$224693[ebp], eax

; 841  : 
; 842  : 					if (!CheckInventoryEmptySpace(lpObj, Height, Width))

  020cf	8b 85 f4 fc ff
	ff		 mov	 eax, DWORD PTR _Width$224693[ebp]
  020d5	50		 push	 eax
  020d6	8b 8d f8 fc ff
	ff		 mov	 ecx, DWORD PTR _Height$224692[ebp]
  020dc	51		 push	 ecx
  020dd	8b 95 fc fc ff
	ff		 mov	 edx, DWORD PTR _lpObj$224688[ebp]
  020e3	52		 push	 edx
  020e4	e8 00 00 00 00	 call	 ?CheckInventoryEmptySpace@@YAHPAUOBJECTSTRUCT@@HH@Z ; CheckInventoryEmptySpace
  020e9	83 c4 0c	 add	 esp, 12			; 0000000cH
  020ec	85 c0		 test	 eax, eax
  020ee	75 23		 jne	 SHORT $LN25@QtopReed

; 843  : 					{
; 844  : 						MessageChat(aIndex, "@[SMS QTOP] Need to make space in the inventory (%dx%d)", this->QTOP_SMSBonusWcoinC);

  020f0	8b 45 f8	 mov	 eax, DWORD PTR _this$[ebp]
  020f3	8b 88 30 02 00
	00		 mov	 ecx, DWORD PTR [eax+560]
  020f9	51		 push	 ecx
  020fa	68 00 00 00 00	 push	 OFFSET ??_C@_0DI@EACAPLAC@?$EA?$FLSMS?5QTOP?$FN?5Need?5to?5make?5space?5i@
  020ff	8b 95 10 fd ff
	ff		 mov	 edx, DWORD PTR _aIndex$224676[ebp]
  02105	52		 push	 edx
  02106	e8 00 00 00 00	 call	 ?MessageChat@@YAXHPADZZ	; MessageChat
  0210b	83 c4 0c	 add	 esp, 12			; 0000000cH

; 845  : 						continue;

  0210e	e9 c3 fb ff ff	 jmp	 $LN53@QtopReed
$LN25@QtopReed:

; 846  : 					}
; 847  : 
; 848  : 					ItemSerialCreateSend(aIndex, 235, 0, 0, ITEMGET(this->QTOP_SMSBonusItemType, this->QTOP_SMSBonusItemIndex), this->QTOP_SMSBonusItemLevel, 0, 0, 0, 0, aIndex, 0, 0);

  02113	6a 00		 push	 0
  02115	6a 00		 push	 0
  02117	8b 85 10 fd ff
	ff		 mov	 eax, DWORD PTR _aIndex$224676[ebp]
  0211d	50		 push	 eax
  0211e	6a 00		 push	 0
  02120	6a 00		 push	 0
  02122	6a 00		 push	 0
  02124	6a 00		 push	 0
  02126	8b 4d f8	 mov	 ecx, DWORD PTR _this$[ebp]
  02129	0f b6 91 4c 02
	00 00		 movzx	 edx, BYTE PTR [ecx+588]
  02130	52		 push	 edx
  02131	8b 45 f8	 mov	 eax, DWORD PTR _this$[ebp]
  02134	8b 88 44 02 00
	00		 mov	 ecx, DWORD PTR [eax+580]
  0213a	c1 e1 09	 shl	 ecx, 9
  0213d	8b 55 f8	 mov	 edx, DWORD PTR _this$[ebp]
  02140	03 8a 48 02 00
	00		 add	 ecx, DWORD PTR [edx+584]
  02146	51		 push	 ecx
  02147	6a 00		 push	 0
  02149	6a 00		 push	 0
  0214b	68 eb 00 00 00	 push	 235			; 000000ebH
  02150	8b 85 10 fd ff
	ff		 mov	 eax, DWORD PTR _aIndex$224676[ebp]
  02156	50		 push	 eax
  02157	e8 00 00 00 00	 call	 ?ItemSerialCreateSend@@YAXHEEEHEEEEEHEE@Z ; ItemSerialCreateSend
  0215c	83 c4 34	 add	 esp, 52			; 00000034H

; 849  : 					MessageChat(aIndex, "@[SMS QTOP] Item Bonus: %s", ItemAttribute[ITEMGET(this->QTOP_SMSBonusItemType, this->QTOP_SMSBonusItemIndex)].Name);

  0215f	8b 45 f8	 mov	 eax, DWORD PTR _this$[ebp]
  02162	8b 88 44 02 00
	00		 mov	 ecx, DWORD PTR [eax+580]
  02168	c1 e1 09	 shl	 ecx, 9
  0216b	8b 55 f8	 mov	 edx, DWORD PTR _this$[ebp]
  0216e	03 8a 48 02 00
	00		 add	 ecx, DWORD PTR [edx+584]
  02174	6b c9 70	 imul	 ecx, 112		; 00000070H
  02177	81 c1 00 00 00
	00		 add	 ecx, OFFSET ?ItemAttribute@@3PAUITEM_ATTRIBUTE@@A ; ItemAttribute
  0217d	51		 push	 ecx
  0217e	68 00 00 00 00	 push	 OFFSET ??_C@_0BL@CCMGGGHH@?$EA?$FLSMS?5QTOP?$FN?5Item?5Bonus?3?5?$CFs?$AA@
  02183	8b 85 10 fd ff
	ff		 mov	 eax, DWORD PTR _aIndex$224676[ebp]
  02189	50		 push	 eax
  0218a	e8 00 00 00 00	 call	 ?MessageChat@@YAXHPADZZ	; MessageChat
  0218f	83 c4 0c	 add	 esp, 12			; 0000000cH
$LN26@QtopReed:

; 850  : 				}
; 851  : 
; 852  : 				if (this->QTOP_SMSBonusWcoinC > 0)

  02192	8b 45 f8	 mov	 eax, DWORD PTR _this$[ebp]
  02195	83 b8 30 02 00
	00 00		 cmp	 DWORD PTR [eax+560], 0
  0219c	7e 50		 jle	 SHORT $LN24@QtopReed

; 853  : 				{
; 854  : 					lpObj->GameShop.WCoinC += this->QTOP_SMSBonusWcoinC;

  0219e	8b 45 f8	 mov	 eax, DWORD PTR _this$[ebp]
  021a1	db 80 30 02 00
	00		 fild	 DWORD PTR [eax+560]
  021a7	8b 8d fc fc ff
	ff		 mov	 ecx, DWORD PTR _lpObj$224688[ebp]
  021ad	dc 81 00 23 00
	00		 fadd	 QWORD PTR [ecx+8960]
  021b3	8b 95 fc fc ff
	ff		 mov	 edx, DWORD PTR _lpObj$224688[ebp]
  021b9	dd 9a 00 23 00
	00		 fstp	 QWORD PTR [edx+8960]

; 855  : 					gGameShop.GDSaveUserInfo(aIndex);

  021bf	8b 85 10 fd ff
	ff		 mov	 eax, DWORD PTR _aIndex$224676[ebp]
  021c5	50		 push	 eax
  021c6	b9 00 00 00 00	 mov	 ecx, OFFSET ?gGameShop@@3VGameShop@@A ; gGameShop
  021cb	e8 00 00 00 00	 call	 ?GDSaveUserInfo@GameShop@@QAEXH@Z ; GameShop::GDSaveUserInfo

; 856  : 					MessageChat(aIndex, "@[SMS QTOP] WcoinC Bonus: %d", this->QTOP_SMSBonusWcoinC);

  021d0	8b 45 f8	 mov	 eax, DWORD PTR _this$[ebp]
  021d3	8b 88 30 02 00
	00		 mov	 ecx, DWORD PTR [eax+560]
  021d9	51		 push	 ecx
  021da	68 00 00 00 00	 push	 OFFSET ??_C@_0BN@NJKOJKPP@?$EA?$FLSMS?5QTOP?$FN?5WcoinC?5Bonus?3?5?$CFd?$AA@
  021df	8b 95 10 fd ff
	ff		 mov	 edx, DWORD PTR _aIndex$224676[ebp]
  021e5	52		 push	 edx
  021e6	e8 00 00 00 00	 call	 ?MessageChat@@YAXHPADZZ	; MessageChat
  021eb	83 c4 0c	 add	 esp, 12			; 0000000cH
$LN24@QtopReed:

; 857  : 				}
; 858  : 
; 859  : 				if (this->QTOP_SMSBonusWcoinP > 0)

  021ee	8b 45 f8	 mov	 eax, DWORD PTR _this$[ebp]
  021f1	83 b8 34 02 00
	00 00		 cmp	 DWORD PTR [eax+564], 0
  021f8	7e 50		 jle	 SHORT $LN23@QtopReed

; 860  : 				{
; 861  : 					lpObj->GameShop.WCoinP += this->QTOP_SMSBonusWcoinP;

  021fa	8b 45 f8	 mov	 eax, DWORD PTR _this$[ebp]
  021fd	db 80 34 02 00
	00		 fild	 DWORD PTR [eax+564]
  02203	8b 8d fc fc ff
	ff		 mov	 ecx, DWORD PTR _lpObj$224688[ebp]
  02209	dc 81 f8 22 00
	00		 fadd	 QWORD PTR [ecx+8952]
  0220f	8b 95 fc fc ff
	ff		 mov	 edx, DWORD PTR _lpObj$224688[ebp]
  02215	dd 9a f8 22 00
	00		 fstp	 QWORD PTR [edx+8952]

; 862  : 					gGameShop.GDSaveUserInfo(aIndex);

  0221b	8b 85 10 fd ff
	ff		 mov	 eax, DWORD PTR _aIndex$224676[ebp]
  02221	50		 push	 eax
  02222	b9 00 00 00 00	 mov	 ecx, OFFSET ?gGameShop@@3VGameShop@@A ; gGameShop
  02227	e8 00 00 00 00	 call	 ?GDSaveUserInfo@GameShop@@QAEXH@Z ; GameShop::GDSaveUserInfo

; 863  : 					MessageChat(aIndex, "@[SMS QTOP] WCoinP Bonus: %d", this->QTOP_SMSBonusWcoinP);

  0222c	8b 45 f8	 mov	 eax, DWORD PTR _this$[ebp]
  0222f	8b 88 34 02 00
	00		 mov	 ecx, DWORD PTR [eax+564]
  02235	51		 push	 ecx
  02236	68 00 00 00 00	 push	 OFFSET ??_C@_0BN@LFBHNOIO@?$EA?$FLSMS?5QTOP?$FN?5WCoinP?5Bonus?3?5?$CFd?$AA@
  0223b	8b 95 10 fd ff
	ff		 mov	 edx, DWORD PTR _aIndex$224676[ebp]
  02241	52		 push	 edx
  02242	e8 00 00 00 00	 call	 ?MessageChat@@YAXHPADZZ	; MessageChat
  02247	83 c4 0c	 add	 esp, 12			; 0000000cH
$LN23@QtopReed:

; 864  : 				}
; 865  : 
; 866  : 				if (this->QTOP_SMSBonusWcoinG > 0)

  0224a	8b 45 f8	 mov	 eax, DWORD PTR _this$[ebp]
  0224d	83 b8 38 02 00
	00 00		 cmp	 DWORD PTR [eax+568], 0
  02254	7e 50		 jle	 SHORT $LN22@QtopReed

; 867  : 				{
; 868  : 					lpObj->GameShop.GoblinPoint += this->QTOP_SMSBonusWcoinG;

  02256	8b 45 f8	 mov	 eax, DWORD PTR _this$[ebp]
  02259	db 80 38 02 00
	00		 fild	 DWORD PTR [eax+568]
  0225f	8b 8d fc fc ff
	ff		 mov	 ecx, DWORD PTR _lpObj$224688[ebp]
  02265	dc 81 08 23 00
	00		 fadd	 QWORD PTR [ecx+8968]
  0226b	8b 95 fc fc ff
	ff		 mov	 edx, DWORD PTR _lpObj$224688[ebp]
  02271	dd 9a 08 23 00
	00		 fstp	 QWORD PTR [edx+8968]

; 869  : 					gGameShop.GDSaveUserInfo(aIndex);

  02277	8b 85 10 fd ff
	ff		 mov	 eax, DWORD PTR _aIndex$224676[ebp]
  0227d	50		 push	 eax
  0227e	b9 00 00 00 00	 mov	 ecx, OFFSET ?gGameShop@@3VGameShop@@A ; gGameShop
  02283	e8 00 00 00 00	 call	 ?GDSaveUserInfo@GameShop@@QAEXH@Z ; GameShop::GDSaveUserInfo

; 870  : 					MessageChat(aIndex, "@[SMS QTOP] Goblin Bonus: %d", this->QTOP_SMSBonusWcoinG);

  02288	8b 45 f8	 mov	 eax, DWORD PTR _this$[ebp]
  0228b	8b 88 38 02 00
	00		 mov	 ecx, DWORD PTR [eax+568]
  02291	51		 push	 ecx
  02292	68 00 00 00 00	 push	 OFFSET ??_C@_0BN@OKJNBAGF@?$EA?$FLSMS?5QTOP?$FN?5Goblin?5Bonus?3?5?$CFd?$AA@
  02297	8b 95 10 fd ff
	ff		 mov	 edx, DWORD PTR _aIndex$224676[ebp]
  0229d	52		 push	 edx
  0229e	e8 00 00 00 00	 call	 ?MessageChat@@YAXHPADZZ	; MessageChat
  022a3	83 c4 0c	 add	 esp, 12			; 0000000cH
$LN22@QtopReed:

; 871  : 				}
; 872  : 
; 873  : 				if (this->QTOP_SMSBonusExCred > 0)

  022a6	8b 45 f8	 mov	 eax, DWORD PTR _this$[ebp]
  022a9	83 b8 3c 02 00
	00 00		 cmp	 DWORD PTR [eax+572], 0
  022b0	7e 3f		 jle	 SHORT $LN21@QtopReed

; 874  : 				{
; 875  : 					lpObj->ExCred += this->QTOP_SMSBonusExCred;

  022b2	8b 45 f8	 mov	 eax, DWORD PTR _this$[ebp]
  022b5	db 80 3c 02 00
	00		 fild	 DWORD PTR [eax+572]
  022bb	8b 8d fc fc ff
	ff		 mov	 ecx, DWORD PTR _lpObj$224688[ebp]
  022c1	d8 81 a8 22 00
	00		 fadd	 DWORD PTR [ecx+8872]
  022c7	8b 95 fc fc ff
	ff		 mov	 edx, DWORD PTR _lpObj$224688[ebp]
  022cd	d9 9a a8 22 00
	00		 fstp	 DWORD PTR [edx+8872]

; 876  : 					MessageChat(aIndex, "@[SMS QTOP] ExCred Bonus: %d", this->QTOP_SMSBonusExCred);

  022d3	8b 45 f8	 mov	 eax, DWORD PTR _this$[ebp]
  022d6	8b 88 3c 02 00
	00		 mov	 ecx, DWORD PTR [eax+572]
  022dc	51		 push	 ecx
  022dd	68 00 00 00 00	 push	 OFFSET ??_C@_0BN@MJOFJLEJ@?$EA?$FLSMS?5QTOP?$FN?5ExCred?5Bonus?3?5?$CFd?$AA@
  022e2	8b 95 10 fd ff
	ff		 mov	 edx, DWORD PTR _aIndex$224676[ebp]
  022e8	52		 push	 edx
  022e9	e8 00 00 00 00	 call	 ?MessageChat@@YAXHPADZZ	; MessageChat
  022ee	83 c4 0c	 add	 esp, 12			; 0000000cH
$LN21@QtopReed:

; 877  : 				}
; 878  : 
; 879  : 				if (this->QTOP_SMSBonusChaosBank > 0)

  022f1	8b 45 f8	 mov	 eax, DWORD PTR _this$[ebp]
  022f4	83 b8 50 02 00
	00 00		 cmp	 DWORD PTR [eax+592], 0
  022fb	7e 3f		 jle	 SHORT $LN20@QtopReed

; 880  : 				{
; 881  : 					lpObj->ChaosBank += this->QTOP_SMSBonusChaosBank;

  022fd	8b 85 fc fc ff
	ff		 mov	 eax, DWORD PTR _lpObj$224688[ebp]
  02303	8b 88 e0 27 00
	00		 mov	 ecx, DWORD PTR [eax+10208]
  02309	8b 55 f8	 mov	 edx, DWORD PTR _this$[ebp]
  0230c	03 8a 50 02 00
	00		 add	 ecx, DWORD PTR [edx+592]
  02312	8b 85 fc fc ff
	ff		 mov	 eax, DWORD PTR _lpObj$224688[ebp]
  02318	89 88 e0 27 00
	00		 mov	 DWORD PTR [eax+10208], ecx

; 882  : 					MessageChat(aIndex, "@[SMS QTOP] Chaos Bank Bonus: %d", this->QTOP_SMSBonusChaosBank);

  0231e	8b 45 f8	 mov	 eax, DWORD PTR _this$[ebp]
  02321	8b 88 50 02 00
	00		 mov	 ecx, DWORD PTR [eax+592]
  02327	51		 push	 ecx
  02328	68 00 00 00 00	 push	 OFFSET ??_C@_0CB@NIDCFBKB@?$EA?$FLSMS?5QTOP?$FN?5Chaos?5Bank?5Bonus?3?5?$CFd@
  0232d	8b 95 10 fd ff
	ff		 mov	 edx, DWORD PTR _aIndex$224676[ebp]
  02333	52		 push	 edx
  02334	e8 00 00 00 00	 call	 ?MessageChat@@YAXHPADZZ	; MessageChat
  02339	83 c4 0c	 add	 esp, 12			; 0000000cH
$LN20@QtopReed:

; 883  : 				}
; 884  : 
; 885  : 				if (this->QTOP_SMSBonusBlessBank > 0)

  0233c	8b 45 f8	 mov	 eax, DWORD PTR _this$[ebp]
  0233f	83 b8 54 02 00
	00 00		 cmp	 DWORD PTR [eax+596], 0
  02346	7e 3f		 jle	 SHORT $LN19@QtopReed

; 886  : 				{
; 887  : 					lpObj->BlessBank += this->QTOP_SMSBonusBlessBank;

  02348	8b 85 fc fc ff
	ff		 mov	 eax, DWORD PTR _lpObj$224688[ebp]
  0234e	8b 88 e4 27 00
	00		 mov	 ecx, DWORD PTR [eax+10212]
  02354	8b 55 f8	 mov	 edx, DWORD PTR _this$[ebp]
  02357	03 8a 54 02 00
	00		 add	 ecx, DWORD PTR [edx+596]
  0235d	8b 85 fc fc ff
	ff		 mov	 eax, DWORD PTR _lpObj$224688[ebp]
  02363	89 88 e4 27 00
	00		 mov	 DWORD PTR [eax+10212], ecx

; 888  : 					MessageChat(aIndex, "@[SMS QTOP] Bless Bank Bonus: %d", this->QTOP_SMSBonusBlessBank);

  02369	8b 45 f8	 mov	 eax, DWORD PTR _this$[ebp]
  0236c	8b 88 54 02 00
	00		 mov	 ecx, DWORD PTR [eax+596]
  02372	51		 push	 ecx
  02373	68 00 00 00 00	 push	 OFFSET ??_C@_0CB@NCDHBBJG@?$EA?$FLSMS?5QTOP?$FN?5Bless?5Bank?5Bonus?3?5?$CFd@
  02378	8b 95 10 fd ff
	ff		 mov	 edx, DWORD PTR _aIndex$224676[ebp]
  0237e	52		 push	 edx
  0237f	e8 00 00 00 00	 call	 ?MessageChat@@YAXHPADZZ	; MessageChat
  02384	83 c4 0c	 add	 esp, 12			; 0000000cH
$LN19@QtopReed:

; 889  : 				}
; 890  : 
; 891  : 				if (this->QTOP_SMSBonusSoulBank > 0)

  02387	8b 45 f8	 mov	 eax, DWORD PTR _this$[ebp]
  0238a	83 b8 58 02 00
	00 00		 cmp	 DWORD PTR [eax+600], 0
  02391	7e 3f		 jle	 SHORT $LN18@QtopReed

; 892  : 				{
; 893  : 					lpObj->SoulBank += this->QTOP_SMSBonusSoulBank;

  02393	8b 85 fc fc ff
	ff		 mov	 eax, DWORD PTR _lpObj$224688[ebp]
  02399	8b 88 e8 27 00
	00		 mov	 ecx, DWORD PTR [eax+10216]
  0239f	8b 55 f8	 mov	 edx, DWORD PTR _this$[ebp]
  023a2	03 8a 58 02 00
	00		 add	 ecx, DWORD PTR [edx+600]
  023a8	8b 85 fc fc ff
	ff		 mov	 eax, DWORD PTR _lpObj$224688[ebp]
  023ae	89 88 e8 27 00
	00		 mov	 DWORD PTR [eax+10216], ecx

; 894  : 					MessageChat(aIndex, "@[SMS QTOP] Soul Bank Bonus: %d", this->QTOP_SMSBonusSoulBank);

  023b4	8b 45 f8	 mov	 eax, DWORD PTR _this$[ebp]
  023b7	8b 88 58 02 00
	00		 mov	 ecx, DWORD PTR [eax+600]
  023bd	51		 push	 ecx
  023be	68 00 00 00 00	 push	 OFFSET ??_C@_0CA@FDCGMBG@?$EA?$FLSMS?5QTOP?$FN?5Soul?5Bank?5Bonus?3?5?$CFd?$AA@
  023c3	8b 95 10 fd ff
	ff		 mov	 edx, DWORD PTR _aIndex$224676[ebp]
  023c9	52		 push	 edx
  023ca	e8 00 00 00 00	 call	 ?MessageChat@@YAXHPADZZ	; MessageChat
  023cf	83 c4 0c	 add	 esp, 12			; 0000000cH
$LN18@QtopReed:

; 895  : 				}
; 896  : 
; 897  : 				if (this->QTOP_SMSBonusLifeBank > 0)

  023d2	8b 45 f8	 mov	 eax, DWORD PTR _this$[ebp]
  023d5	83 b8 5c 02 00
	00 00		 cmp	 DWORD PTR [eax+604], 0
  023dc	7e 3f		 jle	 SHORT $LN17@QtopReed

; 898  : 				{
; 899  : 					lpObj->LifeBank += this->QTOP_SMSBonusLifeBank;

  023de	8b 85 fc fc ff
	ff		 mov	 eax, DWORD PTR _lpObj$224688[ebp]
  023e4	8b 88 ec 27 00
	00		 mov	 ecx, DWORD PTR [eax+10220]
  023ea	8b 55 f8	 mov	 edx, DWORD PTR _this$[ebp]
  023ed	03 8a 5c 02 00
	00		 add	 ecx, DWORD PTR [edx+604]
  023f3	8b 85 fc fc ff
	ff		 mov	 eax, DWORD PTR _lpObj$224688[ebp]
  023f9	89 88 ec 27 00
	00		 mov	 DWORD PTR [eax+10220], ecx

; 900  : 					MessageChat(aIndex, "@[SMS QTOP] Life Bank Bonus: %d", this->QTOP_SMSBonusLifeBank);

  023ff	8b 45 f8	 mov	 eax, DWORD PTR _this$[ebp]
  02402	8b 88 5c 02 00
	00		 mov	 ecx, DWORD PTR [eax+604]
  02408	51		 push	 ecx
  02409	68 00 00 00 00	 push	 OFFSET ??_C@_0CA@KBCELJKG@?$EA?$FLSMS?5QTOP?$FN?5Life?5Bank?5Bonus?3?5?$CFd?$AA@
  0240e	8b 95 10 fd ff
	ff		 mov	 edx, DWORD PTR _aIndex$224676[ebp]
  02414	52		 push	 edx
  02415	e8 00 00 00 00	 call	 ?MessageChat@@YAXHPADZZ	; MessageChat
  0241a	83 c4 0c	 add	 esp, 12			; 0000000cH
$LN17@QtopReed:

; 901  : 				}
; 902  : 
; 903  : 				// --> Buff Effect Custom
; 904  : 				if(g_ExLicense.CheckUser(eExUB::Gredy) || g_ExLicense.CheckUser(eExUB::GredyLocal) || g_ExLicense.CheckUser(eExUB::Gredy2))

  0241d	6a 20		 push	 32			; 00000020H
  0241f	b9 00 00 00 00	 mov	 ecx, OFFSET ?g_ExLicense@@3VCExLicense@@A ; g_ExLicense
  02424	e8 00 00 00 00	 call	 ?CheckUser@CExLicense@@QAE_NH@Z ; CExLicense::CheckUser
  02429	0f b6 c0	 movzx	 eax, al
  0242c	85 c0		 test	 eax, eax
  0242e	75 26		 jne	 SHORT $LN15@QtopReed
  02430	6a 21		 push	 33			; 00000021H
  02432	b9 00 00 00 00	 mov	 ecx, OFFSET ?g_ExLicense@@3VCExLicense@@A ; g_ExLicense
  02437	e8 00 00 00 00	 call	 ?CheckUser@CExLicense@@QAE_NH@Z ; CExLicense::CheckUser
  0243c	0f b6 c0	 movzx	 eax, al
  0243f	85 c0		 test	 eax, eax
  02441	75 13		 jne	 SHORT $LN15@QtopReed
  02443	6a 22		 push	 34			; 00000022H
  02445	b9 00 00 00 00	 mov	 ecx, OFFSET ?g_ExLicense@@3VCExLicense@@A ; g_ExLicense
  0244a	e8 00 00 00 00	 call	 ?CheckUser@CExLicense@@QAE_NH@Z ; CExLicense::CheckUser
  0244f	0f b6 c0	 movzx	 eax, al
  02452	85 c0		 test	 eax, eax
  02454	74 47		 je	 SHORT $LN16@QtopReed
$LN15@QtopReed:

; 905  : 				{
; 906  : 					lpObj->QT_BuffTime += this->QTOP_BuffTime;

  02456	8b 85 fc fc ff
	ff		 mov	 eax, DWORD PTR _lpObj$224688[ebp]
  0245c	8b 88 e0 2a 00
	00		 mov	 ecx, DWORD PTR [eax+10976]
  02462	8b 55 f8	 mov	 edx, DWORD PTR _this$[ebp]
  02465	03 8a 68 02 00
	00		 add	 ecx, DWORD PTR [edx+616]
  0246b	8b 85 fc fc ff
	ff		 mov	 eax, DWORD PTR _lpObj$224688[ebp]
  02471	89 88 e0 2a 00
	00		 mov	 DWORD PTR [eax+10976], ecx

; 907  : 					gObjApplyBuffEffectDuration(lpObj, AT_QTOP_BUFF, 0, 0, 0, 0, this->QTOP_BuffTime);

  02477	8b 45 f8	 mov	 eax, DWORD PTR _this$[ebp]
  0247a	8b 88 68 02 00
	00		 mov	 ecx, DWORD PTR [eax+616]
  02480	51		 push	 ecx
  02481	6a 00		 push	 0
  02483	6a 00		 push	 0
  02485	6a 00		 push	 0
  02487	6a 00		 push	 0
  02489	68 c3 00 00 00	 push	 195			; 000000c3H
  0248e	8b 95 fc fc ff
	ff		 mov	 edx, DWORD PTR _lpObj$224688[ebp]
  02494	52		 push	 edx
  02495	e8 00 00 00 00	 call	 ?gObjApplyBuffEffectDuration@@YAEPAUOBJECTSTRUCT@@HEHEHH@Z ; gObjApplyBuffEffectDuration
  0249a	83 c4 1c	 add	 esp, 28			; 0000001cH
$LN16@QtopReed:

; 908  : 				}
; 909  : 
; 910  : 				MessageChat(aIndex, "@[SMS QTOP] Date: %s", DataTime);

  0249d	8d 85 2c fd ff
	ff		 lea	 eax, DWORD PTR _DataTime$224667[ebp]
  024a3	50		 push	 eax
  024a4	68 00 00 00 00	 push	 OFFSET ??_C@_0BF@OKPMBKFL@?$EA?$FLSMS?5QTOP?$FN?5Date?3?5?$CFs?$AA@
  024a9	8b 8d 10 fd ff
	ff		 mov	 ecx, DWORD PTR _aIndex$224676[ebp]
  024af	51		 push	 ecx
  024b0	e8 00 00 00 00	 call	 ?MessageChat@@YAXHPADZZ	; MessageChat
  024b5	83 c4 0c	 add	 esp, 12			; 0000000cH

; 911  : 			}
; 912  : 			else

  024b8	e9 4a 04 00 00	 jmp	 $LN14@QtopReed
$LN27@QtopReed:

; 913  : 			{
; 914  : 				//~~~~~~~~~~~~~~~~~~~~~~~~~~~~~~~~~~~~~~~~~~~~~~~~~
; 915  : 
; 916  : 				if (this->QTOP_BonusItemActive)

  024bd	8b 45 f8	 mov	 eax, DWORD PTR _this$[ebp]
  024c0	83 b8 10 02 00
	00 00		 cmp	 DWORD PTR [eax+528], 0
  024c7	0f 84 11 01 00
	00		 je	 $LN13@QtopReed

; 917  : 				{
; 918  : 					int Height = ItemAttribute[ITEMGET(this->QTOP_BonusItemType, this->QTOP_BonusItemIndex)].Height;

  024cd	8b 45 f8	 mov	 eax, DWORD PTR _this$[ebp]
  024d0	8b 88 14 02 00
	00		 mov	 ecx, DWORD PTR [eax+532]
  024d6	c1 e1 09	 shl	 ecx, 9
  024d9	8b 55 f8	 mov	 edx, DWORD PTR _this$[ebp]
  024dc	03 8a 18 02 00
	00		 add	 ecx, DWORD PTR [edx+536]
  024e2	6b c9 70	 imul	 ecx, 112		; 00000070H
  024e5	0f b6 81 24 00
	00 00		 movzx	 eax, BYTE PTR ?ItemAttribute@@3PAUITEM_ATTRIBUTE@@A[ecx+36]
  024ec	89 85 f0 fc ff
	ff		 mov	 DWORD PTR _Height$224718[ebp], eax

; 919  : 					int Width = ItemAttribute[ITEMGET(this->QTOP_BonusItemType, this->QTOP_BonusItemIndex)].Width;

  024f2	8b 45 f8	 mov	 eax, DWORD PTR _this$[ebp]
  024f5	8b 88 14 02 00
	00		 mov	 ecx, DWORD PTR [eax+532]
  024fb	c1 e1 09	 shl	 ecx, 9
  024fe	8b 55 f8	 mov	 edx, DWORD PTR _this$[ebp]
  02501	03 8a 18 02 00
	00		 add	 ecx, DWORD PTR [edx+536]
  02507	6b c9 70	 imul	 ecx, 112		; 00000070H
  0250a	0f b6 81 23 00
	00 00		 movzx	 eax, BYTE PTR ?ItemAttribute@@3PAUITEM_ATTRIBUTE@@A[ecx+35]
  02511	89 85 ec fc ff
	ff		 mov	 DWORD PTR _Width$224719[ebp], eax

; 920  : 
; 921  : 					if (!CheckInventoryEmptySpace(lpObj, Height, Width))

  02517	8b 85 ec fc ff
	ff		 mov	 eax, DWORD PTR _Width$224719[ebp]
  0251d	50		 push	 eax
  0251e	8b 8d f0 fc ff
	ff		 mov	 ecx, DWORD PTR _Height$224718[ebp]
  02524	51		 push	 ecx
  02525	8b 95 fc fc ff
	ff		 mov	 edx, DWORD PTR _lpObj$224688[ebp]
  0252b	52		 push	 edx
  0252c	e8 00 00 00 00	 call	 ?CheckInventoryEmptySpace@@YAHPAUOBJECTSTRUCT@@HH@Z ; CheckInventoryEmptySpace
  02531	83 c4 0c	 add	 esp, 12			; 0000000cH
  02534	85 c0		 test	 eax, eax
  02536	75 27		 jne	 SHORT $LN12@QtopReed

; 922  : 					{
; 923  : 						MessageChat(aIndex, "@[QTOP] Need to make space in the inventory (%dx%d)", Height, Width);

  02538	8b 85 ec fc ff
	ff		 mov	 eax, DWORD PTR _Width$224719[ebp]
  0253e	50		 push	 eax
  0253f	8b 8d f0 fc ff
	ff		 mov	 ecx, DWORD PTR _Height$224718[ebp]
  02545	51		 push	 ecx
  02546	68 00 00 00 00	 push	 OFFSET ??_C@_0DE@MCFMOACN@?$EA?$FLQTOP?$FN?5Need?5to?5make?5space?5in?5th@
  0254b	8b 95 10 fd ff
	ff		 mov	 edx, DWORD PTR _aIndex$224676[ebp]
  02551	52		 push	 edx
  02552	e8 00 00 00 00	 call	 ?MessageChat@@YAXHPADZZ	; MessageChat
  02557	83 c4 10	 add	 esp, 16			; 00000010H

; 924  : 						continue;

  0255a	e9 77 f7 ff ff	 jmp	 $LN53@QtopReed
$LN12@QtopReed:

; 925  : 					}
; 926  : 
; 927  : 					ItemSerialCreateSend(aIndex, 235, 0, 0, ITEMGET(this->QTOP_BonusItemType, this->QTOP_BonusItemIndex), this->QTOP_BonusItemLevel, 0, 0, 0, 0, aIndex, 0, 0);

  0255f	6a 00		 push	 0
  02561	6a 00		 push	 0
  02563	8b 85 10 fd ff
	ff		 mov	 eax, DWORD PTR _aIndex$224676[ebp]
  02569	50		 push	 eax
  0256a	6a 00		 push	 0
  0256c	6a 00		 push	 0
  0256e	6a 00		 push	 0
  02570	6a 00		 push	 0
  02572	8b 4d f8	 mov	 ecx, DWORD PTR _this$[ebp]
  02575	0f b6 91 1c 02
	00 00		 movzx	 edx, BYTE PTR [ecx+540]
  0257c	52		 push	 edx
  0257d	8b 45 f8	 mov	 eax, DWORD PTR _this$[ebp]
  02580	8b 88 14 02 00
	00		 mov	 ecx, DWORD PTR [eax+532]
  02586	c1 e1 09	 shl	 ecx, 9
  02589	8b 55 f8	 mov	 edx, DWORD PTR _this$[ebp]
  0258c	03 8a 18 02 00
	00		 add	 ecx, DWORD PTR [edx+536]
  02592	51		 push	 ecx
  02593	6a 00		 push	 0
  02595	6a 00		 push	 0
  02597	68 eb 00 00 00	 push	 235			; 000000ebH
  0259c	8b 85 10 fd ff
	ff		 mov	 eax, DWORD PTR _aIndex$224676[ebp]
  025a2	50		 push	 eax
  025a3	e8 00 00 00 00	 call	 ?ItemSerialCreateSend@@YAXHEEEHEEEEEHEE@Z ; ItemSerialCreateSend
  025a8	83 c4 34	 add	 esp, 52			; 00000034H

; 928  : 					MessageChat(aIndex, "@[QTOP] Item Bonus: %s", ItemAttribute[ITEMGET(this->QTOP_SMSBonusItemType, this->QTOP_SMSBonusItemIndex)].Name);

  025ab	8b 45 f8	 mov	 eax, DWORD PTR _this$[ebp]
  025ae	8b 88 44 02 00
	00		 mov	 ecx, DWORD PTR [eax+580]
  025b4	c1 e1 09	 shl	 ecx, 9
  025b7	8b 55 f8	 mov	 edx, DWORD PTR _this$[ebp]
  025ba	03 8a 48 02 00
	00		 add	 ecx, DWORD PTR [edx+584]
  025c0	6b c9 70	 imul	 ecx, 112		; 00000070H
  025c3	81 c1 00 00 00
	00		 add	 ecx, OFFSET ?ItemAttribute@@3PAUITEM_ATTRIBUTE@@A ; ItemAttribute
  025c9	51		 push	 ecx
  025ca	68 00 00 00 00	 push	 OFFSET ??_C@_0BH@PHOGLPEJ@?$EA?$FLQTOP?$FN?5Item?5Bonus?3?5?$CFs?$AA@
  025cf	8b 85 10 fd ff
	ff		 mov	 eax, DWORD PTR _aIndex$224676[ebp]
  025d5	50		 push	 eax
  025d6	e8 00 00 00 00	 call	 ?MessageChat@@YAXHPADZZ	; MessageChat
  025db	83 c4 0c	 add	 esp, 12			; 0000000cH
$LN13@QtopReed:

; 929  : 				}
; 930  : 
; 931  : 				if (this->QTOP_BonusWcoinC > 0)

  025de	8b 45 f8	 mov	 eax, DWORD PTR _this$[ebp]
  025e1	83 b8 00 02 00
	00 00		 cmp	 DWORD PTR [eax+512], 0
  025e8	7e 50		 jle	 SHORT $LN11@QtopReed

; 932  : 				{
; 933  : 					lpObj->GameShop.WCoinC += this->QTOP_BonusWcoinC;

  025ea	8b 45 f8	 mov	 eax, DWORD PTR _this$[ebp]
  025ed	db 80 00 02 00
	00		 fild	 DWORD PTR [eax+512]
  025f3	8b 8d fc fc ff
	ff		 mov	 ecx, DWORD PTR _lpObj$224688[ebp]
  025f9	dc 81 00 23 00
	00		 fadd	 QWORD PTR [ecx+8960]
  025ff	8b 95 fc fc ff
	ff		 mov	 edx, DWORD PTR _lpObj$224688[ebp]
  02605	dd 9a 00 23 00
	00		 fstp	 QWORD PTR [edx+8960]

; 934  : 					gGameShop.GDSaveUserInfo(aIndex);

  0260b	8b 85 10 fd ff
	ff		 mov	 eax, DWORD PTR _aIndex$224676[ebp]
  02611	50		 push	 eax
  02612	b9 00 00 00 00	 mov	 ecx, OFFSET ?gGameShop@@3VGameShop@@A ; gGameShop
  02617	e8 00 00 00 00	 call	 ?GDSaveUserInfo@GameShop@@QAEXH@Z ; GameShop::GDSaveUserInfo

; 935  : 					MessageChat(aIndex, "@[QTOP] WcoinC Bonus: %d", this->QTOP_BonusWcoinC);

  0261c	8b 45 f8	 mov	 eax, DWORD PTR _this$[ebp]
  0261f	8b 88 00 02 00
	00		 mov	 ecx, DWORD PTR [eax+512]
  02625	51		 push	 ecx
  02626	68 00 00 00 00	 push	 OFFSET ??_C@_0BJ@GHGEDONC@?$EA?$FLQTOP?$FN?5WcoinC?5Bonus?3?5?$CFd?$AA@
  0262b	8b 95 10 fd ff
	ff		 mov	 edx, DWORD PTR _aIndex$224676[ebp]
  02631	52		 push	 edx
  02632	e8 00 00 00 00	 call	 ?MessageChat@@YAXHPADZZ	; MessageChat
  02637	83 c4 0c	 add	 esp, 12			; 0000000cH
$LN11@QtopReed:

; 936  : 				}
; 937  : 
; 938  : 				if (this->QTOP_BonusWcoinP > 0)

  0263a	8b 45 f8	 mov	 eax, DWORD PTR _this$[ebp]
  0263d	83 b8 04 02 00
	00 00		 cmp	 DWORD PTR [eax+516], 0
  02644	7e 50		 jle	 SHORT $LN10@QtopReed

; 939  : 				{
; 940  : 					lpObj->GameShop.WCoinP += this->QTOP_BonusWcoinP;

  02646	8b 45 f8	 mov	 eax, DWORD PTR _this$[ebp]
  02649	db 80 04 02 00
	00		 fild	 DWORD PTR [eax+516]
  0264f	8b 8d fc fc ff
	ff		 mov	 ecx, DWORD PTR _lpObj$224688[ebp]
  02655	dc 81 f8 22 00
	00		 fadd	 QWORD PTR [ecx+8952]
  0265b	8b 95 fc fc ff
	ff		 mov	 edx, DWORD PTR _lpObj$224688[ebp]
  02661	dd 9a f8 22 00
	00		 fstp	 QWORD PTR [edx+8952]

; 941  : 					gGameShop.GDSaveUserInfo(aIndex);

  02667	8b 85 10 fd ff
	ff		 mov	 eax, DWORD PTR _aIndex$224676[ebp]
  0266d	50		 push	 eax
  0266e	b9 00 00 00 00	 mov	 ecx, OFFSET ?gGameShop@@3VGameShop@@A ; gGameShop
  02673	e8 00 00 00 00	 call	 ?GDSaveUserInfo@GameShop@@QAEXH@Z ; GameShop::GDSaveUserInfo

; 942  : 					MessageChat(aIndex, "@[QTOP] WCoinP Bonus: %d", this->QTOP_BonusWcoinP);

  02678	8b 45 f8	 mov	 eax, DWORD PTR _this$[ebp]
  0267b	8b 88 04 02 00
	00		 mov	 ecx, DWORD PTR [eax+516]
  02681	51		 push	 ecx
  02682	68 00 00 00 00	 push	 OFFSET ??_C@_0BJ@LNNHKKD@?$EA?$FLQTOP?$FN?5WCoinP?5Bonus?3?5?$CFd?$AA@
  02687	8b 95 10 fd ff
	ff		 mov	 edx, DWORD PTR _aIndex$224676[ebp]
  0268d	52		 push	 edx
  0268e	e8 00 00 00 00	 call	 ?MessageChat@@YAXHPADZZ	; MessageChat
  02693	83 c4 0c	 add	 esp, 12			; 0000000cH
$LN10@QtopReed:

; 943  : 				}
; 944  : 
; 945  : 				if (this->QTOP_BonusWcoinG > 0)

  02696	8b 45 f8	 mov	 eax, DWORD PTR _this$[ebp]
  02699	83 b8 08 02 00
	00 00		 cmp	 DWORD PTR [eax+520], 0
  026a0	7e 50		 jle	 SHORT $LN9@QtopReed

; 946  : 				{
; 947  : 					lpObj->GameShop.GoblinPoint += this->QTOP_BonusWcoinG;

  026a2	8b 45 f8	 mov	 eax, DWORD PTR _this$[ebp]
  026a5	db 80 08 02 00
	00		 fild	 DWORD PTR [eax+520]
  026ab	8b 8d fc fc ff
	ff		 mov	 ecx, DWORD PTR _lpObj$224688[ebp]
  026b1	dc 81 08 23 00
	00		 fadd	 QWORD PTR [ecx+8968]
  026b7	8b 95 fc fc ff
	ff		 mov	 edx, DWORD PTR _lpObj$224688[ebp]
  026bd	dd 9a 08 23 00
	00		 fstp	 QWORD PTR [edx+8968]

; 948  : 					gGameShop.GDSaveUserInfo(aIndex);

  026c3	8b 85 10 fd ff
	ff		 mov	 eax, DWORD PTR _aIndex$224676[ebp]
  026c9	50		 push	 eax
  026ca	b9 00 00 00 00	 mov	 ecx, OFFSET ?gGameShop@@3VGameShop@@A ; gGameShop
  026cf	e8 00 00 00 00	 call	 ?GDSaveUserInfo@GameShop@@QAEXH@Z ; GameShop::GDSaveUserInfo

; 949  : 					MessageChat(aIndex, "@[QTOP] Goblin Bonus: %d", this->QTOP_BonusWcoinG);

  026d4	8b 45 f8	 mov	 eax, DWORD PTR _this$[ebp]
  026d7	8b 88 08 02 00
	00		 mov	 ecx, DWORD PTR [eax+520]
  026dd	51		 push	 ecx
  026de	68 00 00 00 00	 push	 OFFSET ??_C@_0BJ@FEFHLEEI@?$EA?$FLQTOP?$FN?5Goblin?5Bonus?3?5?$CFd?$AA@
  026e3	8b 95 10 fd ff
	ff		 mov	 edx, DWORD PTR _aIndex$224676[ebp]
  026e9	52		 push	 edx
  026ea	e8 00 00 00 00	 call	 ?MessageChat@@YAXHPADZZ	; MessageChat
  026ef	83 c4 0c	 add	 esp, 12			; 0000000cH
$LN9@QtopReed:

; 950  : 				}
; 951  : 
; 952  : 				if (this->QTOP_BonusExCred > 0)

  026f2	8b 45 f8	 mov	 eax, DWORD PTR _this$[ebp]
  026f5	83 b8 0c 02 00
	00 00		 cmp	 DWORD PTR [eax+524], 0
  026fc	7e 3f		 jle	 SHORT $LN8@QtopReed

; 953  : 				{
; 954  : 					lpObj->ExCred += this->QTOP_BonusExCred;

  026fe	8b 45 f8	 mov	 eax, DWORD PTR _this$[ebp]
  02701	db 80 0c 02 00
	00		 fild	 DWORD PTR [eax+524]
  02707	8b 8d fc fc ff
	ff		 mov	 ecx, DWORD PTR _lpObj$224688[ebp]
  0270d	d8 81 a8 22 00
	00		 fadd	 DWORD PTR [ecx+8872]
  02713	8b 95 fc fc ff
	ff		 mov	 edx, DWORD PTR _lpObj$224688[ebp]
  02719	d9 9a a8 22 00
	00		 fstp	 DWORD PTR [edx+8872]

; 955  : 					MessageChat(aIndex, "@[QTOP] ExCred Bonus: %d", this->QTOP_BonusExCred);

  0271f	8b 45 f8	 mov	 eax, DWORD PTR _this$[ebp]
  02722	8b 88 0c 02 00
	00		 mov	 ecx, DWORD PTR [eax+524]
  02728	51		 push	 ecx
  02729	68 00 00 00 00	 push	 OFFSET ??_C@_0BJ@HHCPDPGE@?$EA?$FLQTOP?$FN?5ExCred?5Bonus?3?5?$CFd?$AA@
  0272e	8b 95 10 fd ff
	ff		 mov	 edx, DWORD PTR _aIndex$224676[ebp]
  02734	52		 push	 edx
  02735	e8 00 00 00 00	 call	 ?MessageChat@@YAXHPADZZ	; MessageChat
  0273a	83 c4 0c	 add	 esp, 12			; 0000000cH
$LN8@QtopReed:

; 956  : 				}
; 957  : 
; 958  : 				if (this->QTOP_BonusChaosBank > 0)

  0273d	8b 45 f8	 mov	 eax, DWORD PTR _this$[ebp]
  02740	83 b8 20 02 00
	00 00		 cmp	 DWORD PTR [eax+544], 0
  02747	7e 3f		 jle	 SHORT $LN7@QtopReed

; 959  : 				{
; 960  : 					lpObj->ChaosBank += this->QTOP_BonusChaosBank;

  02749	8b 85 fc fc ff
	ff		 mov	 eax, DWORD PTR _lpObj$224688[ebp]
  0274f	8b 88 e0 27 00
	00		 mov	 ecx, DWORD PTR [eax+10208]
  02755	8b 55 f8	 mov	 edx, DWORD PTR _this$[ebp]
  02758	03 8a 20 02 00
	00		 add	 ecx, DWORD PTR [edx+544]
  0275e	8b 85 fc fc ff
	ff		 mov	 eax, DWORD PTR _lpObj$224688[ebp]
  02764	89 88 e0 27 00
	00		 mov	 DWORD PTR [eax+10208], ecx

; 961  : 					MessageChat(aIndex, "@[QTOP] Chaos Bank Bonus: %d", this->QTOP_BonusChaosBank);

  0276a	8b 45 f8	 mov	 eax, DWORD PTR _this$[ebp]
  0276d	8b 88 20 02 00
	00		 mov	 ecx, DWORD PTR [eax+544]
  02773	51		 push	 ecx
  02774	68 00 00 00 00	 push	 OFFSET ??_C@_0BN@EJNHHCLB@?$EA?$FLQTOP?$FN?5Chaos?5Bank?5Bonus?3?5?$CFd?$AA@
  02779	8b 95 10 fd ff
	ff		 mov	 edx, DWORD PTR _aIndex$224676[ebp]
  0277f	52		 push	 edx
  02780	e8 00 00 00 00	 call	 ?MessageChat@@YAXHPADZZ	; MessageChat
  02785	83 c4 0c	 add	 esp, 12			; 0000000cH
$LN7@QtopReed:

; 962  : 				}
; 963  : 
; 964  : 				if (this->QTOP_BonusBlessBank > 0)

  02788	8b 45 f8	 mov	 eax, DWORD PTR _this$[ebp]
  0278b	83 b8 24 02 00
	00 00		 cmp	 DWORD PTR [eax+548], 0
  02792	7e 3f		 jle	 SHORT $LN6@QtopReed

; 965  : 				{
; 966  : 					lpObj->BlessBank += this->QTOP_BonusBlessBank;

  02794	8b 85 fc fc ff
	ff		 mov	 eax, DWORD PTR _lpObj$224688[ebp]
  0279a	8b 88 e4 27 00
	00		 mov	 ecx, DWORD PTR [eax+10212]
  027a0	8b 55 f8	 mov	 edx, DWORD PTR _this$[ebp]
  027a3	03 8a 24 02 00
	00		 add	 ecx, DWORD PTR [edx+548]
  027a9	8b 85 fc fc ff
	ff		 mov	 eax, DWORD PTR _lpObj$224688[ebp]
  027af	89 88 e4 27 00
	00		 mov	 DWORD PTR [eax+10212], ecx

; 967  : 					MessageChat(aIndex, "@[QTOP] Bless Bank Bonus: %d", this->QTOP_BonusBlessBank);

  027b5	8b 45 f8	 mov	 eax, DWORD PTR _this$[ebp]
  027b8	8b 88 24 02 00
	00		 mov	 ecx, DWORD PTR [eax+548]
  027be	51		 push	 ecx
  027bf	68 00 00 00 00	 push	 OFFSET ??_C@_0BN@EDNCDCIG@?$EA?$FLQTOP?$FN?5Bless?5Bank?5Bonus?3?5?$CFd?$AA@
  027c4	8b 95 10 fd ff
	ff		 mov	 edx, DWORD PTR _aIndex$224676[ebp]
  027ca	52		 push	 edx
  027cb	e8 00 00 00 00	 call	 ?MessageChat@@YAXHPADZZ	; MessageChat
  027d0	83 c4 0c	 add	 esp, 12			; 0000000cH
$LN6@QtopReed:

; 968  : 				}
; 969  : 
; 970  : 				if (this->QTOP_BonusSoulBank > 0)

  027d3	8b 45 f8	 mov	 eax, DWORD PTR _this$[ebp]
  027d6	83 b8 28 02 00
	00 00		 cmp	 DWORD PTR [eax+552], 0
  027dd	7e 3f		 jle	 SHORT $LN5@QtopReed

; 971  : 				{
; 972  : 					lpObj->SoulBank += this->QTOP_BonusSoulBank;

  027df	8b 85 fc fc ff
	ff		 mov	 eax, DWORD PTR _lpObj$224688[ebp]
  027e5	8b 88 e8 27 00
	00		 mov	 ecx, DWORD PTR [eax+10216]
  027eb	8b 55 f8	 mov	 edx, DWORD PTR _this$[ebp]
  027ee	03 8a 28 02 00
	00		 add	 ecx, DWORD PTR [edx+552]
  027f4	8b 85 fc fc ff
	ff		 mov	 eax, DWORD PTR _lpObj$224688[ebp]
  027fa	89 88 e8 27 00
	00		 mov	 DWORD PTR [eax+10216], ecx

; 973  : 					MessageChat(aIndex, "@[QTOP] Soul Bank Bonus: %d", this->QTOP_BonusSoulBank);

  02800	8b 45 f8	 mov	 eax, DWORD PTR _this$[ebp]
  02803	8b 88 28 02 00
	00		 mov	 ecx, DWORD PTR [eax+552]
  02809	51		 push	 ecx
  0280a	68 00 00 00 00	 push	 OFFSET ??_C@_0BM@IEHNOLFI@?$EA?$FLQTOP?$FN?5Soul?5Bank?5Bonus?3?5?$CFd?$AA@
  0280f	8b 95 10 fd ff
	ff		 mov	 edx, DWORD PTR _aIndex$224676[ebp]
  02815	52		 push	 edx
  02816	e8 00 00 00 00	 call	 ?MessageChat@@YAXHPADZZ	; MessageChat
  0281b	83 c4 0c	 add	 esp, 12			; 0000000cH
$LN5@QtopReed:

; 974  : 				}
; 975  : 
; 976  : 				if (this->QTOP_BonusLifeBank > 0)

  0281e	8b 45 f8	 mov	 eax, DWORD PTR _this$[ebp]
  02821	83 b8 2c 02 00
	00 00		 cmp	 DWORD PTR [eax+556], 0
  02828	7e 3f		 jle	 SHORT $LN4@QtopReed

; 977  : 				{
; 978  : 					lpObj->LifeBank += this->QTOP_BonusLifeBank;

  0282a	8b 85 fc fc ff
	ff		 mov	 eax, DWORD PTR _lpObj$224688[ebp]
  02830	8b 88 ec 27 00
	00		 mov	 ecx, DWORD PTR [eax+10220]
  02836	8b 55 f8	 mov	 edx, DWORD PTR _this$[ebp]
  02839	03 8a 2c 02 00
	00		 add	 ecx, DWORD PTR [edx+556]
  0283f	8b 85 fc fc ff
	ff		 mov	 eax, DWORD PTR _lpObj$224688[ebp]
  02845	89 88 ec 27 00
	00		 mov	 DWORD PTR [eax+10220], ecx

; 979  : 					MessageChat(aIndex, "@[QTOP] Life Bank Bonus: %d", this->QTOP_BonusLifeBank);

  0284b	8b 45 f8	 mov	 eax, DWORD PTR _this$[ebp]
  0284e	8b 88 2c 02 00
	00		 mov	 ecx, DWORD PTR [eax+556]
  02854	51		 push	 ecx
  02855	68 00 00 00 00	 push	 OFFSET ??_C@_0BM@CAGLDOOI@?$EA?$FLQTOP?$FN?5Life?5Bank?5Bonus?3?5?$CFd?$AA@
  0285a	8b 95 10 fd ff
	ff		 mov	 edx, DWORD PTR _aIndex$224676[ebp]
  02860	52		 push	 edx
  02861	e8 00 00 00 00	 call	 ?MessageChat@@YAXHPADZZ	; MessageChat
  02866	83 c4 0c	 add	 esp, 12			; 0000000cH
$LN4@QtopReed:

; 980  : 
; 981  : 				}
; 982  : 
; 983  : 				// --> Buff Effect Custom
; 984  : 				if(g_ExLicense.CheckUser(eExUB::Gredy) || g_ExLicense.CheckUser(eExUB::GredyLocal) || g_ExLicense.CheckUser(eExUB::Gredy2))

  02869	6a 20		 push	 32			; 00000020H
  0286b	b9 00 00 00 00	 mov	 ecx, OFFSET ?g_ExLicense@@3VCExLicense@@A ; g_ExLicense
  02870	e8 00 00 00 00	 call	 ?CheckUser@CExLicense@@QAE_NH@Z ; CExLicense::CheckUser
  02875	0f b6 c0	 movzx	 eax, al
  02878	85 c0		 test	 eax, eax
  0287a	75 26		 jne	 SHORT $LN2@QtopReed
  0287c	6a 21		 push	 33			; 00000021H
  0287e	b9 00 00 00 00	 mov	 ecx, OFFSET ?g_ExLicense@@3VCExLicense@@A ; g_ExLicense
  02883	e8 00 00 00 00	 call	 ?CheckUser@CExLicense@@QAE_NH@Z ; CExLicense::CheckUser
  02888	0f b6 c0	 movzx	 eax, al
  0288b	85 c0		 test	 eax, eax
  0288d	75 13		 jne	 SHORT $LN2@QtopReed
  0288f	6a 22		 push	 34			; 00000022H
  02891	b9 00 00 00 00	 mov	 ecx, OFFSET ?g_ExLicense@@3VCExLicense@@A ; g_ExLicense
  02896	e8 00 00 00 00	 call	 ?CheckUser@CExLicense@@QAE_NH@Z ; CExLicense::CheckUser
  0289b	0f b6 c0	 movzx	 eax, al
  0289e	85 c0		 test	 eax, eax
  028a0	74 4a		 je	 SHORT $LN3@QtopReed
$LN2@QtopReed:

; 985  : 				{
; 986  : 					lpObj->QT_BuffTime += this->QTOP_SMSBuffTime;

  028a2	8b 85 fc fc ff
	ff		 mov	 eax, DWORD PTR _lpObj$224688[ebp]
  028a8	8b 88 e0 2a 00
	00		 mov	 ecx, DWORD PTR [eax+10976]
  028ae	8b 55 f8	 mov	 edx, DWORD PTR _this$[ebp]
  028b1	03 8a 6c 02 00
	00		 add	 ecx, DWORD PTR [edx+620]
  028b7	8b 85 fc fc ff
	ff		 mov	 eax, DWORD PTR _lpObj$224688[ebp]
  028bd	89 88 e0 2a 00
	00		 mov	 DWORD PTR [eax+10976], ecx

; 987  : 					gObjApplyBuffEffectDuration(lpObj, AT_QTOP_BUFF, 0, 0, 0, 0, lpObj->QT_BuffTime);

  028c3	8b 85 fc fc ff
	ff		 mov	 eax, DWORD PTR _lpObj$224688[ebp]
  028c9	8b 88 e0 2a 00
	00		 mov	 ecx, DWORD PTR [eax+10976]
  028cf	51		 push	 ecx
  028d0	6a 00		 push	 0
  028d2	6a 00		 push	 0
  028d4	6a 00		 push	 0
  028d6	6a 00		 push	 0
  028d8	68 c3 00 00 00	 push	 195			; 000000c3H
  028dd	8b 95 fc fc ff
	ff		 mov	 edx, DWORD PTR _lpObj$224688[ebp]
  028e3	52		 push	 edx
  028e4	e8 00 00 00 00	 call	 ?gObjApplyBuffEffectDuration@@YAEPAUOBJECTSTRUCT@@HEHEHH@Z ; gObjApplyBuffEffectDuration
  028e9	83 c4 1c	 add	 esp, 28			; 0000001cH
$LN3@QtopReed:

; 988  : 				}
; 989  : 
; 990  : 				MessageChat(aIndex, "@[QTOP] Date: %s", DataTime);

  028ec	8d 85 2c fd ff
	ff		 lea	 eax, DWORD PTR _DataTime$224667[ebp]
  028f2	50		 push	 eax
  028f3	68 00 00 00 00	 push	 OFFSET ??_C@_0BB@EPGEHIK@?$EA?$FLQTOP?$FN?5Date?3?5?$CFs?$AA@
  028f8	8b 8d 10 fd ff
	ff		 mov	 ecx, DWORD PTR _aIndex$224676[ebp]
  028fe	51		 push	 ecx
  028ff	e8 00 00 00 00	 call	 ?MessageChat@@YAXHPADZZ	; MessageChat
  02904	83 c4 0c	 add	 esp, 12			; 0000000cH
$LN14@QtopReed:

; 991  : 			}
; 992  : 
; 993  : 			lpObj->QTDate = tData;

  02907	8b 85 fc fc ff
	ff		 mov	 eax, DWORD PTR _lpObj$224688[ebp]
  0290d	8b 8d 00 fd ff
	ff		 mov	 ecx, DWORD PTR _tData$224687[ebp]
  02913	89 88 14 28 00
	00		 mov	 DWORD PTR [eax+10260], ecx

; 994  : 
; 995  : 			ExUserDataSend(aIndex);

  02919	8b 85 10 fd ff
	ff		 mov	 eax, DWORD PTR _aIndex$224676[ebp]
  0291f	50		 push	 eax
  02920	e8 00 00 00 00	 call	 ?ExUserDataSend@@YAXH@Z	; ExUserDataSend
  02925	83 c4 04	 add	 esp, 4

; 996  : 			GJSetCharacterInfo(lpObj, lpObj->m_Index, 0);

  02928	6a 00		 push	 0
  0292a	8b 85 fc fc ff
	ff		 mov	 eax, DWORD PTR _lpObj$224688[ebp]
  02930	8b 08		 mov	 ecx, DWORD PTR [eax]
  02932	51		 push	 ecx
  02933	8b 95 fc fc ff
	ff		 mov	 edx, DWORD PTR _lpObj$224688[ebp]
  02939	52		 push	 edx
  0293a	e8 00 00 00 00	 call	 ?GJSetCharacterInfo@@YAXPAUOBJECTSTRUCT@@HH@Z ; GJSetCharacterInfo
  0293f	83 c4 0c	 add	 esp, 12			; 0000000cH

; 997  : 			LogAdd("[QTOP][%s] Date: %s", lpObj->AccountID, DataTime);

  02942	8d 85 2c fd ff
	ff		 lea	 eax, DWORD PTR _DataTime$224667[ebp]
  02948	50		 push	 eax
  02949	8b 8d fc fc ff
	ff		 mov	 ecx, DWORD PTR _lpObj$224688[ebp]
  0294f	83 c1 6c	 add	 ecx, 108		; 0000006cH
  02952	51		 push	 ecx
  02953	68 00 00 00 00	 push	 OFFSET ??_C@_0BE@OHJFKBPP@?$FLQTOP?$FN?$FL?$CFs?$FN?5Date?3?5?$CFs?$AA@
  02958	ff 15 00 00 00
	00		 call	 DWORD PTR ?LogAdd@@3P6AXPADZZA ; LogAdd
  0295e	83 c4 0c	 add	 esp, 12			; 0000000cH
$LN28@QtopReed:

; 998  : 		}
; 999  : 
; 1000 : 	}

  02961	e9 70 f3 ff ff	 jmp	 $LN53@QtopReed
$LN43@QtopReed:

; 1001 : 
; 1002 : 	fclose(file);

  02966	8b 45 f4	 mov	 eax, DWORD PTR _file$[ebp]
  02969	50		 push	 eax
  0296a	e8 00 00 00 00	 call	 _fclose
  0296f	83 c4 04	 add	 esp, 4

; 1003 : 	if (this->QTOP_DeleteVoteFile)

  02972	8b 45 f8	 mov	 eax, DWORD PTR _this$[ebp]
  02975	0f b6 88 31 01
	00 00		 movzx	 ecx, BYTE PTR [eax+305]
  0297c	85 c9		 test	 ecx, ecx
  0297e	74 0d		 je	 SHORT $LN1@QtopReed

; 1004 : 	{
; 1005 : 		remove(QTOP_FILE);

  02980	68 00 00 00 00	 push	 OFFSET ??_C@_08CLPFLBNE@qtop?4txt?$AA@
  02985	e8 00 00 00 00	 call	 _remove
  0298a	83 c4 04	 add	 esp, 4
$LN1@QtopReed:
$LN47@QtopReed:

; 1006 : 	}
; 1007 : }

  0298d	5f		 pop	 edi
  0298e	5e		 pop	 esi
  0298f	5b		 pop	 ebx
  02990	8b 4d fc	 mov	 ecx, DWORD PTR __$ArrayPad$[ebp]
  02993	33 cd		 xor	 ecx, ebp
  02995	e8 00 00 00 00	 call	 @__security_check_cookie@4
  0299a	8b e5		 mov	 esp, ebp
  0299c	5d		 pop	 ebp
  0299d	c3		 ret	 0
?QtopReed@Voter@@QAEXXZ ENDP				; Voter::QtopReed
_TEXT	ENDS
PUBLIC	?Run@Voter@@QAEXXZ				; Voter::Run
EXTRN	?gObjRemoveBuffEffect@@YAEPAUOBJECTSTRUCT@@H@Z:PROC ; gObjRemoveBuffEffect
; Function compile flags: /Odtp /ZI
_TEXT	SEGMENT
_sObj$224751 = -12					; size = 4
_n$224747 = -8						; size = 4
_this$ = -4						; size = 4
?Run@Voter@@QAEXXZ PROC					; Voter::Run
; _this$ = ecx

; 1010 : {

  029a0	55		 push	 ebp
  029a1	8b ec		 mov	 ebp, esp
  029a3	83 ec 4c	 sub	 esp, 76			; 0000004cH
  029a6	53		 push	 ebx
  029a7	56		 push	 esi
  029a8	57		 push	 edi
  029a9	89 4d fc	 mov	 DWORD PTR _this$[ebp], ecx

; 1011 : 	for (int n = OBJ_STARTUSERINDEX; n < OBJMAX; n++)

  029ac	c7 45 f8 b0 36
	00 00		 mov	 DWORD PTR _n$224747[ebp], 14000 ; 000036b0H
  029b3	eb 09		 jmp	 SHORT $LN8@Run
$LN7@Run:
  029b5	8b 45 f8	 mov	 eax, DWORD PTR _n$224747[ebp]
  029b8	83 c0 01	 add	 eax, 1
  029bb	89 45 f8	 mov	 DWORD PTR _n$224747[ebp], eax
$LN8@Run:
  029be	81 7d f8 98 3a
	00 00		 cmp	 DWORD PTR _n$224747[ebp], 15000 ; 00003a98H
  029c5	0f 8d c5 00 00
	00		 jge	 $LN9@Run

; 1012 : 	{
; 1013 : 		LPOBJ sObj = &gObj[n];

  029cb	8b 45 f8	 mov	 eax, DWORD PTR _n$224747[ebp]
  029ce	69 c0 38 2b 00
	00		 imul	 eax, 11064		; 00002b38H
  029d4	03 05 00 00 00
	00		 add	 eax, DWORD PTR ?gObj@@3PAUOBJECTSTRUCT@@A ; gObj
  029da	89 45 f4	 mov	 DWORD PTR _sObj$224751[ebp], eax

; 1014 : 
; 1015 : 		if (gObj[n].Connected >= PLAYER_PLAYING)

  029dd	8b 45 f8	 mov	 eax, DWORD PTR _n$224747[ebp]
  029e0	69 c0 38 2b 00
	00		 imul	 eax, 11064		; 00002b38H
  029e6	8b 0d 00 00 00
	00		 mov	 ecx, DWORD PTR ?gObj@@3PAUOBJECTSTRUCT@@A ; gObj
  029ec	83 7c 01 04 03	 cmp	 DWORD PTR [ecx+eax+4], 3
  029f1	0f 8c 94 00 00
	00		 jl	 $LN5@Run

; 1016 : 		{
; 1017 : 			if(sObj->MT_BuffTime > 0)

  029f7	8b 45 f4	 mov	 eax, DWORD PTR _sObj$224751[ebp]
  029fa	83 b8 dc 2a 00
	00 00		 cmp	 DWORD PTR [eax+10972], 0
  02a01	7e 3e		 jle	 SHORT $LN4@Run

; 1018 : 			{
; 1019 : 				sObj->MT_BuffTime--;

  02a03	8b 45 f4	 mov	 eax, DWORD PTR _sObj$224751[ebp]
  02a06	8b 88 dc 2a 00
	00		 mov	 ecx, DWORD PTR [eax+10972]
  02a0c	83 e9 01	 sub	 ecx, 1
  02a0f	8b 55 f4	 mov	 edx, DWORD PTR _sObj$224751[ebp]
  02a12	89 8a dc 2a 00
	00		 mov	 DWORD PTR [edx+10972], ecx

; 1020 : 
; 1021 : 				if(sObj->MT_BuffTime == 0)

  02a18	8b 45 f4	 mov	 eax, DWORD PTR _sObj$224751[ebp]
  02a1b	83 b8 dc 2a 00
	00 00		 cmp	 DWORD PTR [eax+10972], 0
  02a22	75 1d		 jne	 SHORT $LN4@Run

; 1022 : 				{
; 1023 : 					gObjRemoveBuffEffect(&gObj[n], AT_MMOTOP_BUFF);

  02a24	68 c2 00 00 00	 push	 194			; 000000c2H
  02a29	8b 45 f8	 mov	 eax, DWORD PTR _n$224747[ebp]
  02a2c	69 c0 38 2b 00
	00		 imul	 eax, 11064		; 00002b38H
  02a32	03 05 00 00 00
	00		 add	 eax, DWORD PTR ?gObj@@3PAUOBJECTSTRUCT@@A ; gObj
  02a38	50		 push	 eax
  02a39	e8 00 00 00 00	 call	 ?gObjRemoveBuffEffect@@YAEPAUOBJECTSTRUCT@@H@Z ; gObjRemoveBuffEffect
  02a3e	83 c4 08	 add	 esp, 8
$LN4@Run:

; 1024 : 				}
; 1025 : 			}
; 1026 : 
; 1027 : 			if(sObj->QT_BuffTime > 0)

  02a41	8b 45 f4	 mov	 eax, DWORD PTR _sObj$224751[ebp]
  02a44	83 b8 e0 2a 00
	00 00		 cmp	 DWORD PTR [eax+10976], 0
  02a4b	7e 3e		 jle	 SHORT $LN5@Run

; 1028 : 			{
; 1029 : 				sObj->QT_BuffTime--;

  02a4d	8b 45 f4	 mov	 eax, DWORD PTR _sObj$224751[ebp]
  02a50	8b 88 e0 2a 00
	00		 mov	 ecx, DWORD PTR [eax+10976]
  02a56	83 e9 01	 sub	 ecx, 1
  02a59	8b 55 f4	 mov	 edx, DWORD PTR _sObj$224751[ebp]
  02a5c	89 8a e0 2a 00
	00		 mov	 DWORD PTR [edx+10976], ecx

; 1030 : 
; 1031 : 				if(sObj->QT_BuffTime == 0)

  02a62	8b 45 f4	 mov	 eax, DWORD PTR _sObj$224751[ebp]
  02a65	83 b8 e0 2a 00
	00 00		 cmp	 DWORD PTR [eax+10976], 0
  02a6c	75 1d		 jne	 SHORT $LN5@Run

; 1032 : 				{
; 1033 : 					gObjRemoveBuffEffect(&gObj[n], AT_QTOP_BUFF);

  02a6e	68 c3 00 00 00	 push	 195			; 000000c3H
  02a73	8b 45 f8	 mov	 eax, DWORD PTR _n$224747[ebp]
  02a76	69 c0 38 2b 00
	00		 imul	 eax, 11064		; 00002b38H
  02a7c	03 05 00 00 00
	00		 add	 eax, DWORD PTR ?gObj@@3PAUOBJECTSTRUCT@@A ; gObj
  02a82	50		 push	 eax
  02a83	e8 00 00 00 00	 call	 ?gObjRemoveBuffEffect@@YAEPAUOBJECTSTRUCT@@H@Z ; gObjRemoveBuffEffect
  02a88	83 c4 08	 add	 esp, 8
$LN5@Run:

; 1034 : 				}
; 1035 : 			}
; 1036 : 		}
; 1037 : 	}

  02a8b	e9 25 ff ff ff	 jmp	 $LN7@Run
$LN9@Run:

; 1038 : }

  02a90	5f		 pop	 edi
  02a91	5e		 pop	 esi
  02a92	5b		 pop	 ebx
  02a93	8b e5		 mov	 esp, ebp
  02a95	5d		 pop	 ebp
  02a96	c3		 ret	 0
?Run@Voter@@QAEXXZ ENDP					; Voter::Run
_TEXT	ENDS
PUBLIC	?PlayerCalculator@Voter@@QAEXH@Z		; Voter::PlayerCalculator
; Function compile flags: /Odtp /ZI
_TEXT	SEGMENT
_iPlusDefencePercent$224765 = -16			; size = 4
_iPlusDamagePercent$224763 = -12			; size = 4
_lpUser$ = -8						; size = 4
_this$ = -4						; size = 4
_aIndex$ = 8						; size = 4
?PlayerCalculator@Voter@@QAEXH@Z PROC			; Voter::PlayerCalculator
; _this$ = ecx

; 1041 : {

  02aa0	55		 push	 ebp
  02aa1	8b ec		 mov	 ebp, esp
  02aa3	83 ec 50	 sub	 esp, 80			; 00000050H
  02aa6	53		 push	 ebx
  02aa7	56		 push	 esi
  02aa8	57		 push	 edi
  02aa9	89 4d fc	 mov	 DWORD PTR _this$[ebp], ecx

; 1042 : 	LPOBJ lpUser = &gObj[aIndex];

  02aac	8b 45 08	 mov	 eax, DWORD PTR _aIndex$[ebp]
  02aaf	69 c0 38 2b 00
	00		 imul	 eax, 11064		; 00002b38H
  02ab5	03 05 00 00 00
	00		 add	 eax, DWORD PTR ?gObj@@3PAUOBJECTSTRUCT@@A ; gObj
  02abb	89 45 f8	 mov	 DWORD PTR _lpUser$[ebp], eax

; 1043 : 
; 1044 : 	if(lpUser->MT_BuffTime > 0)

  02abe	8b 45 f8	 mov	 eax, DWORD PTR _lpUser$[ebp]
  02ac1	83 b8 dc 2a 00
	00 00		 cmp	 DWORD PTR [eax+10972], 0
  02ac8	0f 8e f1 00 00
	00		 jle	 $LN2@PlayerCalc

; 1045 : 	{
; 1046 : 		int iPlusDamagePercent = 10;

  02ace	c7 45 f4 0a 00
	00 00		 mov	 DWORD PTR _iPlusDamagePercent$224763[ebp], 10 ; 0000000aH

; 1047 : 		lpUser->m_AttackDamageMinRight	+= ( lpUser->m_AttackDamageMinRight * iPlusDamagePercent ) / 100;

  02ad5	8b 45 f8	 mov	 eax, DWORD PTR _lpUser$[ebp]
  02ad8	8b 80 84 04 00
	00		 mov	 eax, DWORD PTR [eax+1156]
  02ade	0f af 45 f4	 imul	 eax, DWORD PTR _iPlusDamagePercent$224763[ebp]
  02ae2	99		 cdq
  02ae3	b9 64 00 00 00	 mov	 ecx, 100		; 00000064H
  02ae8	f7 f9		 idiv	 ecx
  02aea	8b 55 f8	 mov	 edx, DWORD PTR _lpUser$[ebp]
  02aed	03 82 84 04 00
	00		 add	 eax, DWORD PTR [edx+1156]
  02af3	8b 4d f8	 mov	 ecx, DWORD PTR _lpUser$[ebp]
  02af6	89 81 84 04 00
	00		 mov	 DWORD PTR [ecx+1156], eax

; 1048 : 		lpUser->m_AttackDamageMaxRight	+= ( lpUser->m_AttackDamageMaxRight * iPlusDamagePercent ) / 100;

  02afc	8b 45 f8	 mov	 eax, DWORD PTR _lpUser$[ebp]
  02aff	8b 80 80 04 00
	00		 mov	 eax, DWORD PTR [eax+1152]
  02b05	0f af 45 f4	 imul	 eax, DWORD PTR _iPlusDamagePercent$224763[ebp]
  02b09	99		 cdq
  02b0a	b9 64 00 00 00	 mov	 ecx, 100		; 00000064H
  02b0f	f7 f9		 idiv	 ecx
  02b11	8b 55 f8	 mov	 edx, DWORD PTR _lpUser$[ebp]
  02b14	03 82 80 04 00
	00		 add	 eax, DWORD PTR [edx+1152]
  02b1a	8b 4d f8	 mov	 ecx, DWORD PTR _lpUser$[ebp]
  02b1d	89 81 80 04 00
	00		 mov	 DWORD PTR [ecx+1152], eax

; 1049 : 		lpUser->m_AttackDamageMinLeft	+= ( lpUser->m_AttackDamageMinLeft * iPlusDamagePercent ) / 100;

  02b23	8b 45 f8	 mov	 eax, DWORD PTR _lpUser$[ebp]
  02b26	8b 80 7c 04 00
	00		 mov	 eax, DWORD PTR [eax+1148]
  02b2c	0f af 45 f4	 imul	 eax, DWORD PTR _iPlusDamagePercent$224763[ebp]
  02b30	99		 cdq
  02b31	b9 64 00 00 00	 mov	 ecx, 100		; 00000064H
  02b36	f7 f9		 idiv	 ecx
  02b38	8b 55 f8	 mov	 edx, DWORD PTR _lpUser$[ebp]
  02b3b	03 82 7c 04 00
	00		 add	 eax, DWORD PTR [edx+1148]
  02b41	8b 4d f8	 mov	 ecx, DWORD PTR _lpUser$[ebp]
  02b44	89 81 7c 04 00
	00		 mov	 DWORD PTR [ecx+1148], eax

; 1050 : 		lpUser->m_AttackDamageMaxLeft	+= ( lpUser->m_AttackDamageMaxLeft * iPlusDamagePercent ) / 100;

  02b4a	8b 45 f8	 mov	 eax, DWORD PTR _lpUser$[ebp]
  02b4d	8b 80 78 04 00
	00		 mov	 eax, DWORD PTR [eax+1144]
  02b53	0f af 45 f4	 imul	 eax, DWORD PTR _iPlusDamagePercent$224763[ebp]
  02b57	99		 cdq
  02b58	b9 64 00 00 00	 mov	 ecx, 100		; 00000064H
  02b5d	f7 f9		 idiv	 ecx
  02b5f	8b 55 f8	 mov	 edx, DWORD PTR _lpUser$[ebp]
  02b62	03 82 78 04 00
	00		 add	 eax, DWORD PTR [edx+1144]
  02b68	8b 4d f8	 mov	 ecx, DWORD PTR _lpUser$[ebp]
  02b6b	89 81 78 04 00
	00		 mov	 DWORD PTR [ecx+1144], eax

; 1051 : 		lpUser->m_MagicDamageMin		+= ( lpUser->m_MagicDamageMin * iPlusDamagePercent ) / 100;

  02b71	8b 45 f8	 mov	 eax, DWORD PTR _lpUser$[ebp]
  02b74	8b 80 68 04 00
	00		 mov	 eax, DWORD PTR [eax+1128]
  02b7a	0f af 45 f4	 imul	 eax, DWORD PTR _iPlusDamagePercent$224763[ebp]
  02b7e	99		 cdq
  02b7f	b9 64 00 00 00	 mov	 ecx, 100		; 00000064H
  02b84	f7 f9		 idiv	 ecx
  02b86	8b 55 f8	 mov	 edx, DWORD PTR _lpUser$[ebp]
  02b89	03 82 68 04 00
	00		 add	 eax, DWORD PTR [edx+1128]
  02b8f	8b 4d f8	 mov	 ecx, DWORD PTR _lpUser$[ebp]
  02b92	89 81 68 04 00
	00		 mov	 DWORD PTR [ecx+1128], eax

; 1052 : 		lpUser->m_MagicDamageMax		+= ( lpUser->m_MagicDamageMax * iPlusDamagePercent ) / 100;

  02b98	8b 45 f8	 mov	 eax, DWORD PTR _lpUser$[ebp]
  02b9b	8b 80 6c 04 00
	00		 mov	 eax, DWORD PTR [eax+1132]
  02ba1	0f af 45 f4	 imul	 eax, DWORD PTR _iPlusDamagePercent$224763[ebp]
  02ba5	99		 cdq
  02ba6	b9 64 00 00 00	 mov	 ecx, 100		; 00000064H
  02bab	f7 f9		 idiv	 ecx
  02bad	8b 55 f8	 mov	 edx, DWORD PTR _lpUser$[ebp]
  02bb0	03 82 6c 04 00
	00		 add	 eax, DWORD PTR [edx+1132]
  02bb6	8b 4d f8	 mov	 ecx, DWORD PTR _lpUser$[ebp]
  02bb9	89 81 6c 04 00
	00		 mov	 DWORD PTR [ecx+1132], eax
$LN2@PlayerCalc:

; 1053 : 	}
; 1054 : 
; 1055 : 	if(lpUser->QT_BuffTime > 0)

  02bbf	8b 45 f8	 mov	 eax, DWORD PTR _lpUser$[ebp]
  02bc2	83 b8 e0 2a 00
	00 00		 cmp	 DWORD PTR [eax+10976], 0
  02bc9	7e 55		 jle	 SHORT $LN3@PlayerCalc

; 1056 : 	{
; 1057 : 		int iPlusDefencePercent = 10;

  02bcb	c7 45 f0 0a 00
	00 00		 mov	 DWORD PTR _iPlusDefencePercent$224765[ebp], 10 ; 0000000aH

; 1058 : 		lpUser->m_Defense				+= ( lpUser->m_Defense * iPlusDefencePercent ) / 100;

  02bd2	8b 45 f8	 mov	 eax, DWORD PTR _lpUser$[ebp]
  02bd5	8b 80 94 04 00
	00		 mov	 eax, DWORD PTR [eax+1172]
  02bdb	0f af 45 f0	 imul	 eax, DWORD PTR _iPlusDefencePercent$224765[ebp]
  02bdf	99		 cdq
  02be0	b9 64 00 00 00	 mov	 ecx, 100		; 00000064H
  02be5	f7 f9		 idiv	 ecx
  02be7	8b 55 f8	 mov	 edx, DWORD PTR _lpUser$[ebp]
  02bea	03 82 94 04 00
	00		 add	 eax, DWORD PTR [edx+1172]
  02bf0	8b 4d f8	 mov	 ecx, DWORD PTR _lpUser$[ebp]
  02bf3	89 81 94 04 00
	00		 mov	 DWORD PTR [ecx+1172], eax

; 1059 : 		lpUser->m_MagicDefense			+= ( lpUser->m_MagicDefense * iPlusDefencePercent ) / 100;

  02bf9	8b 45 f8	 mov	 eax, DWORD PTR _lpUser$[ebp]
  02bfc	8b 80 98 04 00
	00		 mov	 eax, DWORD PTR [eax+1176]
  02c02	0f af 45 f0	 imul	 eax, DWORD PTR _iPlusDefencePercent$224765[ebp]
  02c06	99		 cdq
  02c07	b9 64 00 00 00	 mov	 ecx, 100		; 00000064H
  02c0c	f7 f9		 idiv	 ecx
  02c0e	8b 55 f8	 mov	 edx, DWORD PTR _lpUser$[ebp]
  02c11	03 82 98 04 00
	00		 add	 eax, DWORD PTR [edx+1176]
  02c17	8b 4d f8	 mov	 ecx, DWORD PTR _lpUser$[ebp]
  02c1a	89 81 98 04 00
	00		 mov	 DWORD PTR [ecx+1176], eax
$LN3@PlayerCalc:

; 1060 : 	}
; 1061 : }

  02c20	5f		 pop	 edi
  02c21	5e		 pop	 esi
  02c22	5b		 pop	 ebx
  02c23	8b e5		 mov	 esp, ebp
  02c25	5d		 pop	 ebp
  02c26	c2 04 00	 ret	 4
?PlayerCalculator@Voter@@QAEXH@Z ENDP			; Voter::PlayerCalculator
_TEXT	ENDS
PUBLIC	??1?$basic_filebuf@DU?$char_traits@D@std@@@std@@UAE@XZ ; std::basic_filebuf<char,std::char_traits<char> >::~basic_filebuf<char,std::char_traits<char> >
PUBLIC	??1?$basic_ostream@DU?$char_traits@D@std@@@std@@UAE@XZ ; std::basic_ostream<char,std::char_traits<char> >::~basic_ostream<char,std::char_traits<char> >
PUBLIC	?setstate@?$basic_ios@DU?$char_traits@D@std@@@std@@QAEXH_N@Z ; std::basic_ios<char,std::char_traits<char> >::setstate
PUBLIC	?open@?$basic_filebuf@DU?$char_traits@D@std@@@std@@QAEPAV12@PBDHH@Z ; std::basic_filebuf<char,std::char_traits<char> >::open
PUBLIC	??0?$basic_filebuf@DU?$char_traits@D@std@@@std@@QAE@PAU_iobuf@@@Z ; std::basic_filebuf<char,std::char_traits<char> >::basic_filebuf<char,std::char_traits<char> >
PUBLIC	??_7?$basic_ofstream@DU?$char_traits@D@std@@@std@@6B@ ; std::basic_ofstream<char,std::char_traits<char> >::`vftable'
PUBLIC	??0?$basic_ostream@DU?$char_traits@D@std@@@std@@QAE@PAV?$basic_streambuf@DU?$char_traits@D@std@@@1@_N@Z ; std::basic_ostream<char,std::char_traits<char> >::basic_ostream<char,std::char_traits<char> >
PUBLIC	??0?$basic_ios@DU?$char_traits@D@std@@@std@@IAE@XZ ; std::basic_ios<char,std::char_traits<char> >::basic_ios<char,std::char_traits<char> >
PUBLIC	??_8?$basic_ofstream@DU?$char_traits@D@std@@@std@@7B@ ; std::basic_ofstream<char,std::char_traits<char> >::`vbtable'
PUBLIC	??_R4?$basic_ofstream@DU?$char_traits@D@std@@@std@@6B@ ; std::basic_ofstream<char,std::char_traits<char> >::`RTTI Complete Object Locator'
PUBLIC	??_R0?AV?$basic_ofstream@DU?$char_traits@D@std@@@std@@@8 ; std::basic_ofstream<char,std::char_traits<char> > `RTTI Type Descriptor'
PUBLIC	??_R3?$basic_ofstream@DU?$char_traits@D@std@@@std@@8 ; std::basic_ofstream<char,std::char_traits<char> >::`RTTI Class Hierarchy Descriptor'
PUBLIC	??_R2?$basic_ofstream@DU?$char_traits@D@std@@@std@@8 ; std::basic_ofstream<char,std::char_traits<char> >::`RTTI Base Class Array'
PUBLIC	??_R1A@?0A@EA@?$basic_ofstream@DU?$char_traits@D@std@@@std@@8 ; std::basic_ofstream<char,std::char_traits<char> >::`RTTI Base Class Descriptor at (0,-1,0,64)'
PUBLIC	??_R1A@?0A@EA@?$basic_ostream@DU?$char_traits@D@std@@@std@@8 ; std::basic_ostream<char,std::char_traits<char> >::`RTTI Base Class Descriptor at (0,-1,0,64)'
PUBLIC	??_R0?AV?$basic_ostream@DU?$char_traits@D@std@@@std@@@8 ; std::basic_ostream<char,std::char_traits<char> > `RTTI Type Descriptor'
PUBLIC	??_R3?$basic_ostream@DU?$char_traits@D@std@@@std@@8 ; std::basic_ostream<char,std::char_traits<char> >::`RTTI Class Hierarchy Descriptor'
PUBLIC	??_R2?$basic_ostream@DU?$char_traits@D@std@@@std@@8 ; std::basic_ostream<char,std::char_traits<char> >::`RTTI Base Class Array'
PUBLIC	??_R1A@A@3FA@?$basic_ios@DU?$char_traits@D@std@@@std@@8 ; std::basic_ios<char,std::char_traits<char> >::`RTTI Base Class Descriptor at (0,0,4,80)'
PUBLIC	??_R0?AV?$basic_ios@DU?$char_traits@D@std@@@std@@@8 ; std::basic_ios<char,std::char_traits<char> > `RTTI Type Descriptor'
PUBLIC	??_R3?$basic_ios@DU?$char_traits@D@std@@@std@@8	; std::basic_ios<char,std::char_traits<char> >::`RTTI Class Hierarchy Descriptor'
PUBLIC	??_R2?$basic_ios@DU?$char_traits@D@std@@@std@@8	; std::basic_ios<char,std::char_traits<char> >::`RTTI Base Class Array'
PUBLIC	??_R1A@?0A@EA@?$basic_ios@DU?$char_traits@D@std@@@std@@8 ; std::basic_ios<char,std::char_traits<char> >::`RTTI Base Class Descriptor at (0,-1,0,64)'
PUBLIC	??_R1A@?0A@EA@ios_base@std@@8			; std::ios_base::`RTTI Base Class Descriptor at (0,-1,0,64)'
PUBLIC	??_R0?AVios_base@std@@@8			; std::ios_base `RTTI Type Descriptor'
PUBLIC	??_R3ios_base@std@@8				; std::ios_base::`RTTI Class Hierarchy Descriptor'
PUBLIC	??_R2ios_base@std@@8				; std::ios_base::`RTTI Base Class Array'
PUBLIC	??_R17?0A@EA@?$_Iosb@H@std@@8			; std::_Iosb<int>::`RTTI Base Class Descriptor at (8,-1,0,64)'
PUBLIC	??_R0?AV?$_Iosb@H@std@@@8			; std::_Iosb<int> `RTTI Type Descriptor'
PUBLIC	??_R3?$_Iosb@H@std@@8				; std::_Iosb<int>::`RTTI Class Hierarchy Descriptor'
PUBLIC	??_R2?$_Iosb@H@std@@8				; std::_Iosb<int>::`RTTI Base Class Array'
PUBLIC	??_R1A@?0A@EA@?$_Iosb@H@std@@8			; std::_Iosb<int>::`RTTI Base Class Descriptor at (0,-1,0,64)'
PUBLIC	??_R1A@A@3EA@ios_base@std@@8			; std::ios_base::`RTTI Base Class Descriptor at (0,0,4,64)'
PUBLIC	??_R17A@3EA@?$_Iosb@H@std@@8			; std::_Iosb<int>::`RTTI Base Class Descriptor at (8,0,4,64)'
EXTRN	??_7type_info@@6B@:QWORD			; type_info::`vftable'
EXTRN	??_E?$basic_ofstream@DU?$char_traits@D@std@@@std@@UAEPAXI@Z:PROC ; std::basic_ofstream<char,std::char_traits<char> >::`vector deleting destructor'
;	COMDAT ??_R17A@3EA@?$_Iosb@H@std@@8
; File d:\microsoft visual studio 10.0\vc\include\fstream
rdata$r	SEGMENT
??_R17A@3EA@?$_Iosb@H@std@@8 DD FLAT:??_R0?AV?$_Iosb@H@std@@@8 ; std::_Iosb<int>::`RTTI Base Class Descriptor at (8,0,4,64)'
	DD	00H
	DD	08H
	DD	00H
	DD	04H
	DD	040H
	DD	FLAT:??_R3?$_Iosb@H@std@@8
rdata$r	ENDS
;	COMDAT ??_R1A@A@3EA@ios_base@std@@8
rdata$r	SEGMENT
??_R1A@A@3EA@ios_base@std@@8 DD FLAT:??_R0?AVios_base@std@@@8 ; std::ios_base::`RTTI Base Class Descriptor at (0,0,4,64)'
	DD	01H
	DD	00H
	DD	00H
	DD	04H
	DD	040H
	DD	FLAT:??_R3ios_base@std@@8
rdata$r	ENDS
;	COMDAT ??_R1A@?0A@EA@?$_Iosb@H@std@@8
rdata$r	SEGMENT
??_R1A@?0A@EA@?$_Iosb@H@std@@8 DD FLAT:??_R0?AV?$_Iosb@H@std@@@8 ; std::_Iosb<int>::`RTTI Base Class Descriptor at (0,-1,0,64)'
	DD	00H
	DD	00H
	DD	0ffffffffH
	DD	00H
	DD	040H
	DD	FLAT:??_R3?$_Iosb@H@std@@8
rdata$r	ENDS
;	COMDAT ??_R2?$_Iosb@H@std@@8
rdata$r	SEGMENT
??_R2?$_Iosb@H@std@@8 DD FLAT:??_R1A@?0A@EA@?$_Iosb@H@std@@8 ; std::_Iosb<int>::`RTTI Base Class Array'
rdata$r	ENDS
;	COMDAT ??_R3?$_Iosb@H@std@@8
rdata$r	SEGMENT
??_R3?$_Iosb@H@std@@8 DD 00H				; std::_Iosb<int>::`RTTI Class Hierarchy Descriptor'
	DD	00H
	DD	01H
	DD	FLAT:??_R2?$_Iosb@H@std@@8
rdata$r	ENDS
;	COMDAT ??_R0?AV?$_Iosb@H@std@@@8
_DATA	SEGMENT
??_R0?AV?$_Iosb@H@std@@@8 DD FLAT:??_7type_info@@6B@	; std::_Iosb<int> `RTTI Type Descriptor'
	DD	00H
	DB	'.?AV?$_Iosb@H@std@@', 00H
_DATA	ENDS
;	COMDAT ??_R17?0A@EA@?$_Iosb@H@std@@8
rdata$r	SEGMENT
??_R17?0A@EA@?$_Iosb@H@std@@8 DD FLAT:??_R0?AV?$_Iosb@H@std@@@8 ; std::_Iosb<int>::`RTTI Base Class Descriptor at (8,-1,0,64)'
	DD	00H
	DD	08H
	DD	0ffffffffH
	DD	00H
	DD	040H
	DD	FLAT:??_R3?$_Iosb@H@std@@8
rdata$r	ENDS
;	COMDAT ??_R2ios_base@std@@8
rdata$r	SEGMENT
??_R2ios_base@std@@8 DD FLAT:??_R1A@?0A@EA@ios_base@std@@8 ; std::ios_base::`RTTI Base Class Array'
	DD	FLAT:??_R17?0A@EA@?$_Iosb@H@std@@8
rdata$r	ENDS
;	COMDAT ??_R3ios_base@std@@8
rdata$r	SEGMENT
??_R3ios_base@std@@8 DD 00H				; std::ios_base::`RTTI Class Hierarchy Descriptor'
	DD	00H
	DD	02H
	DD	FLAT:??_R2ios_base@std@@8
rdata$r	ENDS
;	COMDAT ??_R0?AVios_base@std@@@8
_DATA	SEGMENT
??_R0?AVios_base@std@@@8 DD FLAT:??_7type_info@@6B@	; std::ios_base `RTTI Type Descriptor'
	DD	00H
	DB	'.?AVios_base@std@@', 00H
_DATA	ENDS
;	COMDAT ??_R1A@?0A@EA@ios_base@std@@8
rdata$r	SEGMENT
??_R1A@?0A@EA@ios_base@std@@8 DD FLAT:??_R0?AVios_base@std@@@8 ; std::ios_base::`RTTI Base Class Descriptor at (0,-1,0,64)'
	DD	01H
	DD	00H
	DD	0ffffffffH
	DD	00H
	DD	040H
	DD	FLAT:??_R3ios_base@std@@8
rdata$r	ENDS
;	COMDAT ??_R1A@?0A@EA@?$basic_ios@DU?$char_traits@D@std@@@std@@8
rdata$r	SEGMENT
??_R1A@?0A@EA@?$basic_ios@DU?$char_traits@D@std@@@std@@8 DD FLAT:??_R0?AV?$basic_ios@DU?$char_traits@D@std@@@std@@@8 ; std::basic_ios<char,std::char_traits<char> >::`RTTI Base Class Descriptor at (0,-1,0,64)'
	DD	02H
	DD	00H
	DD	0ffffffffH
	DD	00H
	DD	040H
	DD	FLAT:??_R3?$basic_ios@DU?$char_traits@D@std@@@std@@8
rdata$r	ENDS
;	COMDAT ??_R2?$basic_ios@DU?$char_traits@D@std@@@std@@8
rdata$r	SEGMENT
??_R2?$basic_ios@DU?$char_traits@D@std@@@std@@8 DD FLAT:??_R1A@?0A@EA@?$basic_ios@DU?$char_traits@D@std@@@std@@8 ; std::basic_ios<char,std::char_traits<char> >::`RTTI Base Class Array'
	DD	FLAT:??_R1A@?0A@EA@ios_base@std@@8
	DD	FLAT:??_R17?0A@EA@?$_Iosb@H@std@@8
rdata$r	ENDS
;	COMDAT ??_R3?$basic_ios@DU?$char_traits@D@std@@@std@@8
rdata$r	SEGMENT
??_R3?$basic_ios@DU?$char_traits@D@std@@@std@@8 DD 00H	; std::basic_ios<char,std::char_traits<char> >::`RTTI Class Hierarchy Descriptor'
	DD	00H
	DD	03H
	DD	FLAT:??_R2?$basic_ios@DU?$char_traits@D@std@@@std@@8
rdata$r	ENDS
;	COMDAT ??_R0?AV?$basic_ios@DU?$char_traits@D@std@@@std@@@8
_DATA	SEGMENT
??_R0?AV?$basic_ios@DU?$char_traits@D@std@@@std@@@8 DD FLAT:??_7type_info@@6B@ ; std::basic_ios<char,std::char_traits<char> > `RTTI Type Descriptor'
	DD	00H
	DB	'.?AV?$basic_ios@DU?$char_traits@D@std@@@std@@', 00H
_DATA	ENDS
;	COMDAT ??_R1A@A@3FA@?$basic_ios@DU?$char_traits@D@std@@@std@@8
rdata$r	SEGMENT
??_R1A@A@3FA@?$basic_ios@DU?$char_traits@D@std@@@std@@8 DD FLAT:??_R0?AV?$basic_ios@DU?$char_traits@D@std@@@std@@@8 ; std::basic_ios<char,std::char_traits<char> >::`RTTI Base Class Descriptor at (0,0,4,80)'
	DD	02H
	DD	00H
	DD	00H
	DD	04H
	DD	050H
	DD	FLAT:??_R3?$basic_ios@DU?$char_traits@D@std@@@std@@8
rdata$r	ENDS
;	COMDAT ??_R2?$basic_ostream@DU?$char_traits@D@std@@@std@@8
rdata$r	SEGMENT
??_R2?$basic_ostream@DU?$char_traits@D@std@@@std@@8 DD FLAT:??_R1A@?0A@EA@?$basic_ostream@DU?$char_traits@D@std@@@std@@8 ; std::basic_ostream<char,std::char_traits<char> >::`RTTI Base Class Array'
	DD	FLAT:??_R1A@A@3FA@?$basic_ios@DU?$char_traits@D@std@@@std@@8
	DD	FLAT:??_R1A@A@3EA@ios_base@std@@8
	DD	FLAT:??_R17A@3EA@?$_Iosb@H@std@@8
rdata$r	ENDS
;	COMDAT ??_R3?$basic_ostream@DU?$char_traits@D@std@@@std@@8
rdata$r	SEGMENT
??_R3?$basic_ostream@DU?$char_traits@D@std@@@std@@8 DD 00H ; std::basic_ostream<char,std::char_traits<char> >::`RTTI Class Hierarchy Descriptor'
	DD	00H
	DD	04H
	DD	FLAT:??_R2?$basic_ostream@DU?$char_traits@D@std@@@std@@8
rdata$r	ENDS
;	COMDAT ??_R0?AV?$basic_ostream@DU?$char_traits@D@std@@@std@@@8
_DATA	SEGMENT
??_R0?AV?$basic_ostream@DU?$char_traits@D@std@@@std@@@8 DD FLAT:??_7type_info@@6B@ ; std::basic_ostream<char,std::char_traits<char> > `RTTI Type Descriptor'
	DD	00H
	DB	'.?AV?$basic_ostream@DU?$char_traits@D@std@@@std@@', 00H
_DATA	ENDS
;	COMDAT ??_R1A@?0A@EA@?$basic_ostream@DU?$char_traits@D@std@@@std@@8
rdata$r	SEGMENT
??_R1A@?0A@EA@?$basic_ostream@DU?$char_traits@D@std@@@std@@8 DD FLAT:??_R0?AV?$basic_ostream@DU?$char_traits@D@std@@@std@@@8 ; std::basic_ostream<char,std::char_traits<char> >::`RTTI Base Class Descriptor at (0,-1,0,64)'
	DD	03H
	DD	00H
	DD	0ffffffffH
	DD	00H
	DD	040H
	DD	FLAT:??_R3?$basic_ostream@DU?$char_traits@D@std@@@std@@8
rdata$r	ENDS
;	COMDAT ??_R1A@?0A@EA@?$basic_ofstream@DU?$char_traits@D@std@@@std@@8
rdata$r	SEGMENT
??_R1A@?0A@EA@?$basic_ofstream@DU?$char_traits@D@std@@@std@@8 DD FLAT:??_R0?AV?$basic_ofstream@DU?$char_traits@D@std@@@std@@@8 ; std::basic_ofstream<char,std::char_traits<char> >::`RTTI Base Class Descriptor at (0,-1,0,64)'
	DD	04H
	DD	00H
	DD	0ffffffffH
	DD	00H
	DD	040H
	DD	FLAT:??_R3?$basic_ofstream@DU?$char_traits@D@std@@@std@@8
rdata$r	ENDS
;	COMDAT ??_R2?$basic_ofstream@DU?$char_traits@D@std@@@std@@8
rdata$r	SEGMENT
??_R2?$basic_ofstream@DU?$char_traits@D@std@@@std@@8 DD FLAT:??_R1A@?0A@EA@?$basic_ofstream@DU?$char_traits@D@std@@@std@@8 ; std::basic_ofstream<char,std::char_traits<char> >::`RTTI Base Class Array'
	DD	FLAT:??_R1A@?0A@EA@?$basic_ostream@DU?$char_traits@D@std@@@std@@8
	DD	FLAT:??_R1A@A@3FA@?$basic_ios@DU?$char_traits@D@std@@@std@@8
	DD	FLAT:??_R1A@A@3EA@ios_base@std@@8
	DD	FLAT:??_R17A@3EA@?$_Iosb@H@std@@8
rdata$r	ENDS
;	COMDAT ??_R3?$basic_ofstream@DU?$char_traits@D@std@@@std@@8
rdata$r	SEGMENT
??_R3?$basic_ofstream@DU?$char_traits@D@std@@@std@@8 DD 00H ; std::basic_ofstream<char,std::char_traits<char> >::`RTTI Class Hierarchy Descriptor'
	DD	00H
	DD	05H
	DD	FLAT:??_R2?$basic_ofstream@DU?$char_traits@D@std@@@std@@8
rdata$r	ENDS
;	COMDAT ??_R0?AV?$basic_ofstream@DU?$char_traits@D@std@@@std@@@8
_DATA	SEGMENT
??_R0?AV?$basic_ofstream@DU?$char_traits@D@std@@@std@@@8 DD FLAT:??_7type_info@@6B@ ; std::basic_ofstream<char,std::char_traits<char> > `RTTI Type Descriptor'
	DD	00H
	DB	'.?AV?$basic_ofstream@DU?$char_traits@D@std@@@std@@', 00H
_DATA	ENDS
;	COMDAT ??_R4?$basic_ofstream@DU?$char_traits@D@std@@@std@@6B@
rdata$r	SEGMENT
??_R4?$basic_ofstream@DU?$char_traits@D@std@@@std@@6B@ DD 00H ; std::basic_ofstream<char,std::char_traits<char> >::`RTTI Complete Object Locator'
	DD	060H
	DD	00H
	DD	FLAT:??_R0?AV?$basic_ofstream@DU?$char_traits@D@std@@@std@@@8
	DD	FLAT:??_R3?$basic_ofstream@DU?$char_traits@D@std@@@std@@8
rdata$r	ENDS
;	COMDAT ??_7?$basic_ofstream@DU?$char_traits@D@std@@@std@@6B@
CONST	SEGMENT
