; Listing generated by Microsoft (R) Optimizing Compiler Version 16.00.40219.01 

	TITLE	D:\Projects\ExTeam6.3\Source\GameServer\GameServer\WinConsole.cpp
	.686P
	.XMM
	include listing.inc
	.model	flat

INCLUDELIB LIBCMT
INCLUDELIB OLDNAMES

PUBLIC	?WinConCritical@@3U_RTL_CRITICAL_SECTION@@A	; WinConCritical
PUBLIC	?lpfnInputEdit@@3P6GJPAUHWND__@@IIJ@ZA		; lpfnInputEdit
PUBLIC	?g_Console@@3PAVCWinConsole@@A			; g_Console
PUBLIC	?g_DbgFp@CWinConsole@@0PAU_iobuf@@A		; CWinConsole::g_DbgFp
PUBLIC	?m_cline@CWinConsole@@0HA			; CWinConsole::m_cline
PUBLIC	?LogTextViewType@CWinConsole@@0PAEA		; CWinConsole::LogTextViewType
PUBLIC	?LogTextLength@CWinConsole@@0PAFA		; CWinConsole::LogTextLength
PUBLIC	?LogText@CWinConsole@@0PAY0FA@DA		; CWinConsole::LogText
PUBLIC	?m_CommandBuffer@CWinConsole@@0PADA		; CWinConsole::m_CommandBuffer
PUBLIC	?m_pszBackUpString@CWinConsole@@0PAY0EAA@DA	; CWinConsole::m_pszBackUpString
PUBLIC	?m_iBackUpLineNo@CWinConsole@@0HA		; CWinConsole::m_iBackUpLineNo
PUBLIC	?m_iCurrentBackUpLineNo@CWinConsole@@0HA	; CWinConsole::m_iCurrentBackUpLineNo
PUBLIC	?m_MaxTextWidth@CWinConsole@@0HA		; CWinConsole::m_MaxTextWidth
PUBLIC	?m_bWinIsActive@CWinConsole@@0_NC		; CWinConsole::m_bWinIsActive
PUBLIC	?m_hWnd@CWinConsole@@0RAUHWND__@@A		; CWinConsole::m_hWnd
PUBLIC	?m_hListBox@CWinConsole@@0RAUHWND__@@A		; CWinConsole::m_hListBox
PUBLIC	?m_hEditControl@CWinConsole@@0RAUHWND__@@A	; CWinConsole::m_hEditControl
PUBLIC	?LogMYear@CWinConsole@@0HA			; CWinConsole::LogMYear
PUBLIC	?LogMonth@CWinConsole@@0HA			; CWinConsole::LogMonth
PUBLIC	?LogMDay@CWinConsole@@0HA			; CWinConsole::LogMDay
_BSS	SEGMENT
?WinConCritical@@3U_RTL_CRITICAL_SECTION@@A DB 018H DUP (?) ; WinConCritical
?lpfnInputEdit@@3P6GJPAUHWND__@@IIJ@ZA DD 01H DUP (?)	; lpfnInputEdit
?g_Console@@3PAVCWinConsole@@A DD 01H DUP (?)		; g_Console
?g_DbgFp@CWinConsole@@0PAU_iobuf@@A DD 01H DUP (?)	; CWinConsole::g_DbgFp
?m_cline@CWinConsole@@0HA DD 01H DUP (?)		; CWinConsole::m_cline
?LogTextViewType@CWinConsole@@0PAEA DB 014H DUP (?)	; CWinConsole::LogTextViewType
?LogTextLength@CWinConsole@@0PAFA DW 014H DUP (?)	; CWinConsole::LogTextLength
?LogText@CWinConsole@@0PAY0FA@DA DB 0640H DUP (?)	; CWinConsole::LogText
?m_CommandBuffer@CWinConsole@@0PADA DB 0400H DUP (?)	; CWinConsole::m_CommandBuffer
?m_pszBackUpString@CWinConsole@@0PAY0EAA@DA DB 02800H DUP (?) ; CWinConsole::m_pszBackUpString
?m_iBackUpLineNo@CWinConsole@@0HA DD 01H DUP (?)	; CWinConsole::m_iBackUpLineNo
?m_iCurrentBackUpLineNo@CWinConsole@@0HA DD 01H DUP (?)	; CWinConsole::m_iCurrentBackUpLineNo
?m_MaxTextWidth@CWinConsole@@0HA DD 01H DUP (?)		; CWinConsole::m_MaxTextWidth
?m_bWinIsActive@CWinConsole@@0_NC DB 01H DUP (?)	; CWinConsole::m_bWinIsActive
	ALIGN	4

?m_hWnd@CWinConsole@@0RAUHWND__@@A DD 01H DUP (?)	; CWinConsole::m_hWnd
?m_hListBox@CWinConsole@@0RAUHWND__@@A DD 01H DUP (?)	; CWinConsole::m_hListBox
?m_hEditControl@CWinConsole@@0RAUHWND__@@A DD 01H DUP (?) ; CWinConsole::m_hEditControl
?LogMYear@CWinConsole@@0HA DD 01H DUP (?)		; CWinConsole::LogMYear
?LogMonth@CWinConsole@@0HA DD 01H DUP (?)		; CWinConsole::LogMonth
?LogMDay@CWinConsole@@0HA DD 01H DUP (?)		; CWinConsole::LogMDay
_BSS	ENDS
PUBLIC	??_C@_0EI@GBGHCLJP@?9?9?9?9?9?9?9?9?9?9?9?9?9?9?9?9?9?9?9?9?9?9?5MULOG?5Sav@ ; `string'
PUBLIC	??_C@_01EEMJAFIK@?6?$AA@			; `string'
PUBLIC	??_C@_0FB@KAJMDOLB@?9?9?9?9?9?9?9?9?9?9?9?9?9?5MULOG?5Save?5?$FLStart?$FN@ ; `string'
PUBLIC	??_C@_0CI@PMFEINIM@SaveDbgWnd?$CI?$CJ?5Error?$CB?$CB?5?9?5item?5is?5i@ ; `string'
PUBLIC	??_C@_0CK@CEADPBBK@SaveDbgWnd?$CI?$CJ?5Error?$CB?$CB?5?9?5file?5open@ ; `string'
PUBLIC	??_C@_02CPIDLAI@at?$AA@				; `string'
PUBLIC	?Write@CWinConsole@@SAXPBDZZ			; CWinConsole::Write
PUBLIC	??_C@_0CN@PNDHKNPC@SaveDbgWnd?$CI?$CJ?5Error?$CB?$CB?5?9?5file?5name@ ; `string'
PUBLIC	__$ArrayPad$
PUBLIC	?SaveDbgWnd@CWinConsole@@QAEXPBD@Z		; CWinConsole::SaveDbgWnd
EXTRN	_fputs:PROC
EXTRN	_fprintf:PROC
EXTRN	__imp__GetLocalTime@4:PROC
EXTRN	_fclose:PROC
EXTRN	__imp__SendMessageA@16:PROC
EXTRN	_fopen:PROC
EXTRN	___security_cookie:DWORD
EXTRN	@__security_check_cookie@4:PROC
EXTRN	_memset:PROC
;	COMDAT ??_C@_0EI@GBGHCLJP@?9?9?9?9?9?9?9?9?9?9?9?9?9?9?9?9?9?9?9?9?9?9?5MULOG?5Sav@
; File d:\projects\exteam6.3\source\gameserver\gameserver\winconsole.cpp
CONST	SEGMENT
??_C@_0EI@GBGHCLJP@?9?9?9?9?9?9?9?9?9?9?9?9?9?9?9?9?9?9?9?9?9?9?5MULOG?5Sav@ DB '-'
	DB	'--------------------- MULOG Save [Completed] ----------------'
	DB	'-------', 0aH, 0aH, 00H			; `string'
CONST	ENDS
;	COMDAT ??_C@_01EEMJAFIK@?6?$AA@
CONST	SEGMENT
??_C@_01EEMJAFIK@?6?$AA@ DB 0aH, 00H			; `string'
CONST	ENDS
;	COMDAT ??_C@_0FB@KAJMDOLB@?9?9?9?9?9?9?9?9?9?9?9?9?9?5MULOG?5Save?5?$FLStart?$FN@
CONST	SEGMENT
??_C@_0FB@KAJMDOLB@?9?9?9?9?9?9?9?9?9?9?9?9?9?5MULOG?5Save?5?$FLStart?$FN@ DB '-'
	DB	'------------ MULOG Save [Start]  [%04d/%02d/%02d %02d:%02d:%0'
	DB	'2d] -------------', 0aH, 00H		; `string'
CONST	ENDS
;	COMDAT ??_C@_0CI@PMFEINIM@SaveDbgWnd?$CI?$CJ?5Error?$CB?$CB?5?9?5item?5is?5i@
CONST	SEGMENT
??_C@_0CI@PMFEINIM@SaveDbgWnd?$CI?$CJ?5Error?$CB?$CB?5?9?5item?5is?5i@ DB 'S'
	DB	'aveDbgWnd() Error!! - item is invalid!', 00H ; `string'
CONST	ENDS
;	COMDAT ??_C@_0CK@CEADPBBK@SaveDbgWnd?$CI?$CJ?5Error?$CB?$CB?5?9?5file?5open@
CONST	SEGMENT
??_C@_0CK@CEADPBBK@SaveDbgWnd?$CI?$CJ?5Error?$CB?$CB?5?9?5file?5open@ DB 'S'
	DB	'aveDbgWnd() Error!! - file open failure!', 00H ; `string'
CONST	ENDS
;	COMDAT ??_C@_02CPIDLAI@at?$AA@
CONST	SEGMENT
??_C@_02CPIDLAI@at?$AA@ DB 'at', 00H			; `string'
CONST	ENDS
;	COMDAT ??_C@_0CN@PNDHKNPC@SaveDbgWnd?$CI?$CJ?5Error?$CB?$CB?5?9?5file?5name@
CONST	SEGMENT
??_C@_0CN@PNDHKNPC@SaveDbgWnd?$CI?$CJ?5Error?$CB?$CB?5?9?5file?5name@ DB 'S'
	DB	'aveDbgWnd() Error!! - file name is invlid!!', 00H ; `string'
; Function compile flags: /Odtp /ZI
CONST	ENDS
_TEXT	SEGMENT
_szGetString$205243 = -1060				; size = 1024
_i$205239 = -36						; size = 4
_retSystemTime$ = -32					; size = 16
_nItemCnt$ = -16					; size = 4
_fp$ = -12						; size = 4
_this$ = -8						; size = 4
__$ArrayPad$ = -4					; size = 4
_pFilename$ = 8						; size = 4
?SaveDbgWnd@CWinConsole@@QAEXPBD@Z PROC			; CWinConsole::SaveDbgWnd
; _this$ = ecx

; 53   : {

  00000	55		 push	 ebp
  00001	8b ec		 mov	 ebp, esp
  00003	81 ec 64 04 00
	00		 sub	 esp, 1124		; 00000464H
  00009	a1 00 00 00 00	 mov	 eax, DWORD PTR ___security_cookie
  0000e	33 c5		 xor	 eax, ebp
  00010	89 45 fc	 mov	 DWORD PTR __$ArrayPad$[ebp], eax
  00013	53		 push	 ebx
  00014	56		 push	 esi
  00015	57		 push	 edi
  00016	89 4d f8	 mov	 DWORD PTR _this$[ebp], ecx

; 54   : 	if ( !pFilename )

  00019	83 7d 08 00	 cmp	 DWORD PTR _pFilename$[ebp], 0
  0001d	75 12		 jne	 SHORT $LN7@SaveDbgWnd

; 55   : 	{
; 56   : 		CWinConsole::Write("SaveDbgWnd() Error!! - file name is invlid!!");

  0001f	68 00 00 00 00	 push	 OFFSET ??_C@_0CN@PNDHKNPC@SaveDbgWnd?$CI?$CJ?5Error?$CB?$CB?5?9?5file?5name@
  00024	e8 00 00 00 00	 call	 ?Write@CWinConsole@@SAXPBDZZ ; CWinConsole::Write
  00029	83 c4 04	 add	 esp, 4

; 57   : 		return;

  0002c	e9 45 01 00 00	 jmp	 $LN8@SaveDbgWnd
$LN7@SaveDbgWnd:

; 58   : 	}
; 59   : 
; 60   : 	FILE *fp = fopen(pFilename, "at");

  00031	68 00 00 00 00	 push	 OFFSET ??_C@_02CPIDLAI@at?$AA@
  00036	8b 45 08	 mov	 eax, DWORD PTR _pFilename$[ebp]
  00039	50		 push	 eax
  0003a	e8 00 00 00 00	 call	 _fopen
  0003f	83 c4 08	 add	 esp, 8
  00042	89 45 f4	 mov	 DWORD PTR _fp$[ebp], eax

; 61   : 	if ( !fp )

  00045	83 7d f4 00	 cmp	 DWORD PTR _fp$[ebp], 0
  00049	75 12		 jne	 SHORT $LN6@SaveDbgWnd

; 62   : 	{
; 63   : 		CWinConsole::Write("SaveDbgWnd() Error!! - file open failure!");

  0004b	68 00 00 00 00	 push	 OFFSET ??_C@_0CK@CEADPBBK@SaveDbgWnd?$CI?$CJ?5Error?$CB?$CB?5?9?5file?5open@
  00050	e8 00 00 00 00	 call	 ?Write@CWinConsole@@SAXPBDZZ ; CWinConsole::Write
  00055	83 c4 04	 add	 esp, 4

; 64   : 		return;

  00058	e9 19 01 00 00	 jmp	 $LN8@SaveDbgWnd
$LN6@SaveDbgWnd:

; 65   : 	}
; 66   : 
; 67   : 	int nItemCnt = SendMessage(CWinConsole::m_hListBox, LB_GETCOUNT, 0, 0);

  0005d	6a 00		 push	 0
  0005f	6a 00		 push	 0
  00061	68 8b 01 00 00	 push	 395			; 0000018bH
  00066	a1 00 00 00 00	 mov	 eax, DWORD PTR ?m_hListBox@CWinConsole@@0RAUHWND__@@A ; CWinConsole::m_hListBox
  0006b	50		 push	 eax
  0006c	ff 15 00 00 00
	00		 call	 DWORD PTR __imp__SendMessageA@16
  00072	89 45 f0	 mov	 DWORD PTR _nItemCnt$[ebp], eax

; 68   : 	if ( nItemCnt != -1 && nItemCnt <= 0 )

  00075	83 7d f0 ff	 cmp	 DWORD PTR _nItemCnt$[ebp], -1
  00079	74 24		 je	 SHORT $LN5@SaveDbgWnd
  0007b	83 7d f0 00	 cmp	 DWORD PTR _nItemCnt$[ebp], 0
  0007f	7f 1e		 jg	 SHORT $LN5@SaveDbgWnd

; 69   : 	{
; 70   : 		CWinConsole::Write("SaveDbgWnd() Error!! - item is invalid!");

  00081	68 00 00 00 00	 push	 OFFSET ??_C@_0CI@PMFEINIM@SaveDbgWnd?$CI?$CJ?5Error?$CB?$CB?5?9?5item?5is?5i@
  00086	e8 00 00 00 00	 call	 ?Write@CWinConsole@@SAXPBDZZ ; CWinConsole::Write
  0008b	83 c4 04	 add	 esp, 4

; 71   : 		fclose(fp);

  0008e	8b 45 f4	 mov	 eax, DWORD PTR _fp$[ebp]
  00091	50		 push	 eax
  00092	e8 00 00 00 00	 call	 _fclose
  00097	83 c4 04	 add	 esp, 4

; 72   : 
; 73   : 		return;

  0009a	e9 d7 00 00 00	 jmp	 $LN8@SaveDbgWnd
$LN5@SaveDbgWnd:

; 74   : 	}
; 75   : 
; 76   : 	SYSTEMTIME retSystemTime;
; 77   : 	GetLocalTime(&retSystemTime);

  0009f	8d 45 e0	 lea	 eax, DWORD PTR _retSystemTime$[ebp]
  000a2	50		 push	 eax
  000a3	ff 15 00 00 00
	00		 call	 DWORD PTR __imp__GetLocalTime@4

; 78   : 	fprintf(fp,
; 79   : 		"------------- MULOG Save [Start]  [%04d/%02d/%02d %02d:%02d:%02d] -------------\n",
; 80   : 		retSystemTime.wYear,
; 81   : 		retSystemTime.wMonth,
; 82   : 		retSystemTime.wDay,
; 83   : 		retSystemTime.wHour,
; 84   : 		retSystemTime.wMinute,
; 85   : 		retSystemTime.wSecond);

  000a9	0f b7 45 ec	 movzx	 eax, WORD PTR _retSystemTime$[ebp+12]
  000ad	50		 push	 eax
  000ae	0f b7 4d ea	 movzx	 ecx, WORD PTR _retSystemTime$[ebp+10]
  000b2	51		 push	 ecx
  000b3	0f b7 55 e8	 movzx	 edx, WORD PTR _retSystemTime$[ebp+8]
  000b7	52		 push	 edx
  000b8	0f b7 45 e6	 movzx	 eax, WORD PTR _retSystemTime$[ebp+6]
  000bc	50		 push	 eax
  000bd	0f b7 4d e2	 movzx	 ecx, WORD PTR _retSystemTime$[ebp+2]
  000c1	51		 push	 ecx
  000c2	0f b7 55 e0	 movzx	 edx, WORD PTR _retSystemTime$[ebp]
  000c6	52		 push	 edx
  000c7	68 00 00 00 00	 push	 OFFSET ??_C@_0FB@KAJMDOLB@?9?9?9?9?9?9?9?9?9?9?9?9?9?5MULOG?5Save?5?$FLStart?$FN@
  000cc	8b 45 f4	 mov	 eax, DWORD PTR _fp$[ebp]
  000cf	50		 push	 eax
  000d0	e8 00 00 00 00	 call	 _fprintf
  000d5	83 c4 20	 add	 esp, 32			; 00000020H

; 86   : 
; 87   : 	for (int i = 0; i < nItemCnt; ++i )

  000d8	c7 45 dc 00 00
	00 00		 mov	 DWORD PTR _i$205239[ebp], 0
  000df	eb 09		 jmp	 SHORT $LN4@SaveDbgWnd
$LN3@SaveDbgWnd:
  000e1	8b 45 dc	 mov	 eax, DWORD PTR _i$205239[ebp]
  000e4	83 c0 01	 add	 eax, 1
  000e7	89 45 dc	 mov	 DWORD PTR _i$205239[ebp], eax
$LN4@SaveDbgWnd:
  000ea	8b 45 dc	 mov	 eax, DWORD PTR _i$205239[ebp]
  000ed	3b 45 f0	 cmp	 eax, DWORD PTR _nItemCnt$[ebp]
  000f0	7d 67		 jge	 SHORT $LN2@SaveDbgWnd

; 88   : 	{
; 89   : 		char szGetString[1024]={0};

  000f2	c6 85 dc fb ff
	ff 00		 mov	 BYTE PTR _szGetString$205243[ebp], 0
  000f9	68 ff 03 00 00	 push	 1023			; 000003ffH
  000fe	6a 00		 push	 0
  00100	8d 85 dd fb ff
	ff		 lea	 eax, DWORD PTR _szGetString$205243[ebp+1]
  00106	50		 push	 eax
  00107	e8 00 00 00 00	 call	 _memset
  0010c	83 c4 0c	 add	 esp, 12			; 0000000cH

; 90   : 
; 91   : 		if ( SendMessage(CWinConsole::m_hListBox, LB_GETTEXT, i, (LPARAM)szGetString) == -1 )

  0010f	8d 85 dc fb ff
	ff		 lea	 eax, DWORD PTR _szGetString$205243[ebp]
  00115	50		 push	 eax
  00116	8b 4d dc	 mov	 ecx, DWORD PTR _i$205239[ebp]
  00119	51		 push	 ecx
  0011a	68 89 01 00 00	 push	 393			; 00000189H
  0011f	8b 15 00 00 00
	00		 mov	 edx, DWORD PTR ?m_hListBox@CWinConsole@@0RAUHWND__@@A ; CWinConsole::m_hListBox
  00125	52		 push	 edx
  00126	ff 15 00 00 00
	00		 call	 DWORD PTR __imp__SendMessageA@16
  0012c	83 f8 ff	 cmp	 eax, -1
  0012f	75 02		 jne	 SHORT $LN1@SaveDbgWnd

; 92   : 			break;

  00131	eb 26		 jmp	 SHORT $LN2@SaveDbgWnd
$LN1@SaveDbgWnd:

; 93   : 
; 94   : 		fputs(szGetString, fp);

  00133	8b 45 f4	 mov	 eax, DWORD PTR _fp$[ebp]
  00136	50		 push	 eax
  00137	8d 8d dc fb ff
	ff		 lea	 ecx, DWORD PTR _szGetString$205243[ebp]
  0013d	51		 push	 ecx
  0013e	e8 00 00 00 00	 call	 _fputs
  00143	83 c4 08	 add	 esp, 8

; 95   : 		fputs("\n", fp);

  00146	8b 45 f4	 mov	 eax, DWORD PTR _fp$[ebp]
  00149	50		 push	 eax
  0014a	68 00 00 00 00	 push	 OFFSET ??_C@_01EEMJAFIK@?6?$AA@
  0014f	e8 00 00 00 00	 call	 _fputs
  00154	83 c4 08	 add	 esp, 8

; 96   : 	}

  00157	eb 88		 jmp	 SHORT $LN3@SaveDbgWnd
$LN2@SaveDbgWnd:

; 97   : 
; 98   : 	fprintf(fp, "---------------------- MULOG Save [Completed] -----------------------\n\n");

  00159	68 00 00 00 00	 push	 OFFSET ??_C@_0EI@GBGHCLJP@?9?9?9?9?9?9?9?9?9?9?9?9?9?9?9?9?9?9?9?9?9?9?5MULOG?5Sav@
  0015e	8b 45 f4	 mov	 eax, DWORD PTR _fp$[ebp]
  00161	50		 push	 eax
  00162	e8 00 00 00 00	 call	 _fprintf
  00167	83 c4 08	 add	 esp, 8

; 99   : 
; 100  : 	fclose(fp);

  0016a	8b 45 f4	 mov	 eax, DWORD PTR _fp$[ebp]
  0016d	50		 push	 eax
  0016e	e8 00 00 00 00	 call	 _fclose
  00173	83 c4 04	 add	 esp, 4
$LN8@SaveDbgWnd:

; 101  : }

  00176	5f		 pop	 edi
  00177	5e		 pop	 esi
  00178	5b		 pop	 ebx
  00179	8b 4d fc	 mov	 ecx, DWORD PTR __$ArrayPad$[ebp]
  0017c	33 cd		 xor	 ecx, ebp
  0017e	e8 00 00 00 00	 call	 @__security_check_cookie@4
  00183	8b e5		 mov	 esp, ebp
  00185	5d		 pop	 ebp
  00186	c2 04 00	 ret	 4
?SaveDbgWnd@CWinConsole@@QAEXPBD@Z ENDP			; CWinConsole::SaveDbgWnd
_TEXT	ENDS
PUBLIC	??_C@_04PHJEIGMI@a?$CLtc?$AA@			; `string'
PUBLIC	??_C@_0BM@NHLKPEBH@log?1?$CF02d?$CF02d?$CF02d_LuaDbg?4log?$AA@ ; `string'
PUBLIC	__$ArrayPad$
PUBLIC	?LogDateChange@CWinConsole@@SAHXZ		; CWinConsole::LogDateChange
EXTRN	__imp__LeaveCriticalSection@4:PROC
EXTRN	__imp__wsprintfA:PROC
EXTRN	_memset:PROC
EXTRN	__imp__EnterCriticalSection@4:PROC
;	COMDAT ??_C@_04PHJEIGMI@a?$CLtc?$AA@
CONST	SEGMENT
??_C@_04PHJEIGMI@a?$CLtc?$AA@ DB 'a+tc', 00H		; `string'
CONST	ENDS
;	COMDAT ??_C@_0BM@NHLKPEBH@log?1?$CF02d?$CF02d?$CF02d_LuaDbg?4log?$AA@
CONST	SEGMENT
??_C@_0BM@NHLKPEBH@log?1?$CF02d?$CF02d?$CF02d_LuaDbg?4log?$AA@ DB 'log/%0'
	DB	'2d%02d%02d_LuaDbg.log', 00H			; `string'
; Function compile flags: /Odtp /ZI
CONST	ENDS
_TEXT	SEGMENT
_szTemp$ = -268						; size = 250
_today$ = -16						; size = 4
_ltime$ = -12						; size = 8
__$ArrayPad$ = -4					; size = 4
?LogDateChange@CWinConsole@@SAHXZ PROC			; CWinConsole::LogDateChange

; 104  : {

  00190	55		 push	 ebp
  00191	8b ec		 mov	 ebp, esp
  00193	81 ec 4c 01 00
	00		 sub	 esp, 332		; 0000014cH
  00199	a1 00 00 00 00	 mov	 eax, DWORD PTR ___security_cookie
  0019e	33 c5		 xor	 eax, ebp
  001a0	89 45 fc	 mov	 DWORD PTR __$ArrayPad$[ebp], eax
  001a3	53		 push	 ebx
  001a4	56		 push	 esi
  001a5	57		 push	 edi

; 105  : 	time_t ltime;
; 106  : 	tm* today;
; 107  : 	char szTemp[250];
; 108  : 
; 109  : 	time(&ltime);

  001a6	8d 45 f4	 lea	 eax, DWORD PTR _ltime$[ebp]
  001a9	50		 push	 eax
  001aa	e8 00 00 00 00	 call	 _time
  001af	83 c4 04	 add	 esp, 4

; 110  : 	today = localtime(&ltime);

  001b2	8d 45 f4	 lea	 eax, DWORD PTR _ltime$[ebp]
  001b5	50		 push	 eax
  001b6	e8 00 00 00 00	 call	 _localtime
  001bb	83 c4 04	 add	 esp, 4
  001be	89 45 f0	 mov	 DWORD PTR _today$[ebp], eax

; 111  : 
; 112  : 	today->tm_year += 1900;

  001c1	8b 45 f0	 mov	 eax, DWORD PTR _today$[ebp]
  001c4	8b 48 14	 mov	 ecx, DWORD PTR [eax+20]
  001c7	81 c1 6c 07 00
	00		 add	 ecx, 1900		; 0000076cH
  001cd	8b 55 f0	 mov	 edx, DWORD PTR _today$[ebp]
  001d0	89 4a 14	 mov	 DWORD PTR [edx+20], ecx

; 113  : 	++today->tm_mon;

  001d3	8b 45 f0	 mov	 eax, DWORD PTR _today$[ebp]
  001d6	8b 48 10	 mov	 ecx, DWORD PTR [eax+16]
  001d9	83 c1 01	 add	 ecx, 1
  001dc	8b 55 f0	 mov	 edx, DWORD PTR _today$[ebp]
  001df	89 4a 10	 mov	 DWORD PTR [edx+16], ecx

; 114  : 
; 115  : 	if ( today->tm_year <= CWinConsole::LogMYear
; 116  : 		&& today->tm_mon <= CWinConsole::LogMonth
; 117  : 		&& today->tm_mday <= CWinConsole::LogMDay )

  001e2	8b 45 f0	 mov	 eax, DWORD PTR _today$[ebp]
  001e5	8b 48 14	 mov	 ecx, DWORD PTR [eax+20]
  001e8	3b 0d 00 00 00
	00		 cmp	 ecx, DWORD PTR ?LogMYear@CWinConsole@@0HA ; CWinConsole::LogMYear
  001ee	7f 23		 jg	 SHORT $LN2@LogDateCha
  001f0	8b 45 f0	 mov	 eax, DWORD PTR _today$[ebp]
  001f3	8b 48 10	 mov	 ecx, DWORD PTR [eax+16]
  001f6	3b 0d 00 00 00
	00		 cmp	 ecx, DWORD PTR ?LogMonth@CWinConsole@@0HA ; CWinConsole::LogMonth
  001fc	7f 15		 jg	 SHORT $LN2@LogDateCha
  001fe	8b 45 f0	 mov	 eax, DWORD PTR _today$[ebp]
  00201	8b 48 0c	 mov	 ecx, DWORD PTR [eax+12]
  00204	3b 0d 00 00 00
	00		 cmp	 ecx, DWORD PTR ?LogMDay@CWinConsole@@0HA ; CWinConsole::LogMDay
  0020a	7f 07		 jg	 SHORT $LN2@LogDateCha

; 118  : 	{
; 119  : 		return FALSE;

  0020c	33 c0		 xor	 eax, eax
  0020e	e9 b8 00 00 00	 jmp	 $LN3@LogDateCha
$LN2@LogDateCha:

; 120  : 	}
; 121  : 
; 122  :     CWinConsole::LogMYear = today->tm_year;

  00213	8b 45 f0	 mov	 eax, DWORD PTR _today$[ebp]
  00216	8b 48 14	 mov	 ecx, DWORD PTR [eax+20]
  00219	89 0d 00 00 00
	00		 mov	 DWORD PTR ?LogMYear@CWinConsole@@0HA, ecx ; CWinConsole::LogMYear

; 123  :     CWinConsole::LogMonth = today->tm_mon;

  0021f	8b 45 f0	 mov	 eax, DWORD PTR _today$[ebp]
  00222	8b 48 10	 mov	 ecx, DWORD PTR [eax+16]
  00225	89 0d 00 00 00
	00		 mov	 DWORD PTR ?LogMonth@CWinConsole@@0HA, ecx ; CWinConsole::LogMonth

; 124  :     CWinConsole::LogMDay = today->tm_mday;

  0022b	8b 45 f0	 mov	 eax, DWORD PTR _today$[ebp]
  0022e	8b 48 0c	 mov	 ecx, DWORD PTR [eax+12]
  00231	89 0d 00 00 00
	00		 mov	 DWORD PTR ?LogMDay@CWinConsole@@0HA, ecx ; CWinConsole::LogMDay

; 125  : 
; 126  :     EnterCriticalSection(&WinConCritical);

  00237	68 00 00 00 00	 push	 OFFSET ?WinConCritical@@3U_RTL_CRITICAL_SECTION@@A ; WinConCritical
  0023c	ff 15 00 00 00
	00		 call	 DWORD PTR __imp__EnterCriticalSection@4

; 127  : 
; 128  :     memset(szTemp, 0, 250);

  00242	68 fa 00 00 00	 push	 250			; 000000faH
  00247	6a 00		 push	 0
  00249	8d 85 f4 fe ff
	ff		 lea	 eax, DWORD PTR _szTemp$[ebp]
  0024f	50		 push	 eax
  00250	e8 00 00 00 00	 call	 _memset
  00255	83 c4 0c	 add	 esp, 12			; 0000000cH

; 129  : 
; 130  :     wsprintf(szTemp, "log/%02d%02d%02d_LuaDbg.log",
; 131  :       CWinConsole::LogMYear, CWinConsole::LogMonth, CWinConsole::LogMDay);

  00258	a1 00 00 00 00	 mov	 eax, DWORD PTR ?LogMDay@CWinConsole@@0HA ; CWinConsole::LogMDay
  0025d	50		 push	 eax
  0025e	8b 0d 00 00 00
	00		 mov	 ecx, DWORD PTR ?LogMonth@CWinConsole@@0HA ; CWinConsole::LogMonth
  00264	51		 push	 ecx
  00265	8b 15 00 00 00
	00		 mov	 edx, DWORD PTR ?LogMYear@CWinConsole@@0HA ; CWinConsole::LogMYear
  0026b	52		 push	 edx
  0026c	68 00 00 00 00	 push	 OFFSET ??_C@_0BM@NHLKPEBH@log?1?$CF02d?$CF02d?$CF02d_LuaDbg?4log?$AA@
  00271	8d 85 f4 fe ff
	ff		 lea	 eax, DWORD PTR _szTemp$[ebp]
  00277	50		 push	 eax
  00278	ff 15 00 00 00
	00		 call	 DWORD PTR __imp__wsprintfA
  0027e	83 c4 14	 add	 esp, 20			; 00000014H

; 132  : 
; 133  :     if ( CWinConsole::g_DbgFp )

  00281	83 3d 00 00 00
	00 00		 cmp	 DWORD PTR ?g_DbgFp@CWinConsole@@0PAU_iobuf@@A, 0 ; CWinConsole::g_DbgFp
  00288	74 18		 je	 SHORT $LN1@LogDateCha

; 134  :     {
; 135  : 		fclose(CWinConsole::g_DbgFp);

  0028a	a1 00 00 00 00	 mov	 eax, DWORD PTR ?g_DbgFp@CWinConsole@@0PAU_iobuf@@A ; CWinConsole::g_DbgFp
  0028f	50		 push	 eax
  00290	e8 00 00 00 00	 call	 _fclose
  00295	83 c4 04	 add	 esp, 4

; 136  : 		CWinConsole::g_DbgFp = NULL;

  00298	c7 05 00 00 00
	00 00 00 00 00	 mov	 DWORD PTR ?g_DbgFp@CWinConsole@@0PAU_iobuf@@A, 0 ; CWinConsole::g_DbgFp
$LN1@LogDateCha:

; 137  :     }
; 138  : 
; 139  :     CWinConsole::g_DbgFp = fopen(szTemp, "a+tc");

  002a2	68 00 00 00 00	 push	 OFFSET ??_C@_04PHJEIGMI@a?$CLtc?$AA@
  002a7	8d 85 f4 fe ff
	ff		 lea	 eax, DWORD PTR _szTemp$[ebp]
  002ad	50		 push	 eax
  002ae	e8 00 00 00 00	 call	 _fopen
  002b3	83 c4 08	 add	 esp, 8
  002b6	a3 00 00 00 00	 mov	 DWORD PTR ?g_DbgFp@CWinConsole@@0PAU_iobuf@@A, eax ; CWinConsole::g_DbgFp

; 140  :     LeaveCriticalSection(&WinConCritical);

  002bb	68 00 00 00 00	 push	 OFFSET ?WinConCritical@@3U_RTL_CRITICAL_SECTION@@A ; WinConCritical
  002c0	ff 15 00 00 00
	00		 call	 DWORD PTR __imp__LeaveCriticalSection@4

; 141  :   
; 142  : 	return TRUE;

  002c6	b8 01 00 00 00	 mov	 eax, 1
$LN3@LogDateCha:

; 143  : }

  002cb	5f		 pop	 edi
  002cc	5e		 pop	 esi
  002cd	5b		 pop	 ebx
  002ce	8b 4d fc	 mov	 ecx, DWORD PTR __$ArrayPad$[ebp]
  002d1	33 cd		 xor	 ecx, ebp
  002d3	e8 00 00 00 00	 call	 @__security_check_cookie@4
  002d8	8b e5		 mov	 esp, ebp
  002da	5d		 pop	 ebp
  002db	c3		 ret	 0
?LogDateChange@CWinConsole@@SAHXZ ENDP			; CWinConsole::LogDateChange
_TEXT	ENDS
PUBLIC	??_C@_0BM@CBNIBACL@LuaDbgLog?5file?5create?5error?$AA@ ; `string'
PUBLIC	??_C@_0CG@MLENCKHH@LUA_DEBUG_LOG?1?$CF02d?$CF02d?$CF02d_LuaDb@ ; `string'
PUBLIC	??_C@_0BA@GDPOIANK@?4?1LUA_DEBUG_LOG?$AA@	; `string'
PUBLIC	__$ArrayPad$
PUBLIC	?CreateDbgFile@CWinConsole@@SAXXZ		; CWinConsole::CreateDbgFile
EXTRN	?LogAdd@@3P6AXPADZZA:DWORD			; LogAdd
EXTRN	__imp__CreateDirectoryA@8:PROC
;	COMDAT ??_C@_0BM@CBNIBACL@LuaDbgLog?5file?5create?5error?$AA@
CONST	SEGMENT
??_C@_0BM@CBNIBACL@LuaDbgLog?5file?5create?5error?$AA@ DB 'LuaDbgLog file'
	DB	' create error', 00H				; `string'
CONST	ENDS
;	COMDAT ??_C@_0CG@MLENCKHH@LUA_DEBUG_LOG?1?$CF02d?$CF02d?$CF02d_LuaDb@
CONST	SEGMENT
??_C@_0CG@MLENCKHH@LUA_DEBUG_LOG?1?$CF02d?$CF02d?$CF02d_LuaDb@ DB 'LUA_DE'
	DB	'BUG_LOG/%02d%02d%02d_LuaDbg.txt', 00H	; `string'
CONST	ENDS
;	COMDAT ??_C@_0BA@GDPOIANK@?4?1LUA_DEBUG_LOG?$AA@
CONST	SEGMENT
??_C@_0BA@GDPOIANK@?4?1LUA_DEBUG_LOG?$AA@ DB './LUA_DEBUG_LOG', 00H ; `string'
; Function compile flags: /Odtp /ZI
CONST	ENDS
_TEXT	SEGMENT
_szTemp$ = -268						; size = 250
_today$ = -16						; size = 4
_ltime$ = -12						; size = 8
__$ArrayPad$ = -4					; size = 4
?CreateDbgFile@CWinConsole@@SAXXZ PROC			; CWinConsole::CreateDbgFile

; 147  : {

  002e0	55		 push	 ebp
  002e1	8b ec		 mov	 ebp, esp
  002e3	81 ec 4c 01 00
	00		 sub	 esp, 332		; 0000014cH
  002e9	a1 00 00 00 00	 mov	 eax, DWORD PTR ___security_cookie
  002ee	33 c5		 xor	 eax, ebp
  002f0	89 45 fc	 mov	 DWORD PTR __$ArrayPad$[ebp], eax
  002f3	53		 push	 ebx
  002f4	56		 push	 esi
  002f5	57		 push	 edi

; 148  : 	time_t ltime;
; 149  : 	tm* today;
; 150  : 	char szTemp[250]={0};

  002f6	c6 85 f4 fe ff
	ff 00		 mov	 BYTE PTR _szTemp$[ebp], 0
  002fd	68 f9 00 00 00	 push	 249			; 000000f9H
  00302	6a 00		 push	 0
  00304	8d 85 f5 fe ff
	ff		 lea	 eax, DWORD PTR _szTemp$[ebp+1]
  0030a	50		 push	 eax
  0030b	e8 00 00 00 00	 call	 _memset
  00310	83 c4 0c	 add	 esp, 12			; 0000000cH

; 151  : 
; 152  : 	time(&ltime);

  00313	8d 45 f4	 lea	 eax, DWORD PTR _ltime$[ebp]
  00316	50		 push	 eax
  00317	e8 00 00 00 00	 call	 _time
  0031c	83 c4 04	 add	 esp, 4

; 153  : 	today = localtime(&ltime);

  0031f	8d 45 f4	 lea	 eax, DWORD PTR _ltime$[ebp]
  00322	50		 push	 eax
  00323	e8 00 00 00 00	 call	 _localtime
  00328	83 c4 04	 add	 esp, 4
  0032b	89 45 f0	 mov	 DWORD PTR _today$[ebp], eax

; 154  : 
; 155  : 	today->tm_year += 1900;

  0032e	8b 45 f0	 mov	 eax, DWORD PTR _today$[ebp]
  00331	8b 48 14	 mov	 ecx, DWORD PTR [eax+20]
  00334	81 c1 6c 07 00
	00		 add	 ecx, 1900		; 0000076cH
  0033a	8b 55 f0	 mov	 edx, DWORD PTR _today$[ebp]
  0033d	89 4a 14	 mov	 DWORD PTR [edx+20], ecx

; 156  : 
; 157  :     CWinConsole::LogMYear = today->tm_year;

  00340	8b 45 f0	 mov	 eax, DWORD PTR _today$[ebp]
  00343	8b 48 14	 mov	 ecx, DWORD PTR [eax+20]
  00346	89 0d 00 00 00
	00		 mov	 DWORD PTR ?LogMYear@CWinConsole@@0HA, ecx ; CWinConsole::LogMYear

; 158  :     CWinConsole::LogMonth = today->tm_mon+1;

  0034c	8b 45 f0	 mov	 eax, DWORD PTR _today$[ebp]
  0034f	8b 48 10	 mov	 ecx, DWORD PTR [eax+16]
  00352	83 c1 01	 add	 ecx, 1
  00355	89 0d 00 00 00
	00		 mov	 DWORD PTR ?LogMonth@CWinConsole@@0HA, ecx ; CWinConsole::LogMonth

; 159  :     CWinConsole::LogMDay = today->tm_mday;

  0035b	8b 45 f0	 mov	 eax, DWORD PTR _today$[ebp]
  0035e	8b 48 0c	 mov	 ecx, DWORD PTR [eax+12]
  00361	89 0d 00 00 00
	00		 mov	 DWORD PTR ?LogMDay@CWinConsole@@0HA, ecx ; CWinConsole::LogMDay

; 160  : 
; 161  : 	CreateDirectory("./LUA_DEBUG_LOG", 0);

  00367	6a 00		 push	 0
  00369	68 00 00 00 00	 push	 OFFSET ??_C@_0BA@GDPOIANK@?4?1LUA_DEBUG_LOG?$AA@
  0036e	ff 15 00 00 00
	00		 call	 DWORD PTR __imp__CreateDirectoryA@8

; 162  : 
; 163  : 	wsprintf(szTemp, "LUA_DEBUG_LOG/%02d%02d%02d_LuaDbg.txt",
; 164  : 		CWinConsole::LogMYear, CWinConsole::LogMonth, CWinConsole::LogMDay);

  00374	a1 00 00 00 00	 mov	 eax, DWORD PTR ?LogMDay@CWinConsole@@0HA ; CWinConsole::LogMDay
  00379	50		 push	 eax
  0037a	8b 0d 00 00 00
	00		 mov	 ecx, DWORD PTR ?LogMonth@CWinConsole@@0HA ; CWinConsole::LogMonth
  00380	51		 push	 ecx
  00381	8b 15 00 00 00
	00		 mov	 edx, DWORD PTR ?LogMYear@CWinConsole@@0HA ; CWinConsole::LogMYear
  00387	52		 push	 edx
  00388	68 00 00 00 00	 push	 OFFSET ??_C@_0CG@MLENCKHH@LUA_DEBUG_LOG?1?$CF02d?$CF02d?$CF02d_LuaDb@
  0038d	8d 85 f4 fe ff
	ff		 lea	 eax, DWORD PTR _szTemp$[ebp]
  00393	50		 push	 eax
  00394	ff 15 00 00 00
	00		 call	 DWORD PTR __imp__wsprintfA
  0039a	83 c4 14	 add	 esp, 20			; 00000014H

; 165  : 
; 166  : 	if ( CWinConsole::g_DbgFp )

  0039d	83 3d 00 00 00
	00 00		 cmp	 DWORD PTR ?g_DbgFp@CWinConsole@@0PAU_iobuf@@A, 0 ; CWinConsole::g_DbgFp
  003a4	74 18		 je	 SHORT $LN2@CreateDbgF

; 167  : 	{
; 168  : 		fclose(CWinConsole::g_DbgFp);

  003a6	a1 00 00 00 00	 mov	 eax, DWORD PTR ?g_DbgFp@CWinConsole@@0PAU_iobuf@@A ; CWinConsole::g_DbgFp
  003ab	50		 push	 eax
  003ac	e8 00 00 00 00	 call	 _fclose
  003b1	83 c4 04	 add	 esp, 4

; 169  : 		CWinConsole::g_DbgFp = NULL;

  003b4	c7 05 00 00 00
	00 00 00 00 00	 mov	 DWORD PTR ?g_DbgFp@CWinConsole@@0PAU_iobuf@@A, 0 ; CWinConsole::g_DbgFp
$LN2@CreateDbgF:

; 170  : 	}
; 171  : 
; 172  : 	CWinConsole::g_DbgFp = fopen(szTemp, "a+tc");

  003be	68 00 00 00 00	 push	 OFFSET ??_C@_04PHJEIGMI@a?$CLtc?$AA@
  003c3	8d 85 f4 fe ff
	ff		 lea	 eax, DWORD PTR _szTemp$[ebp]
  003c9	50		 push	 eax
  003ca	e8 00 00 00 00	 call	 _fopen
  003cf	83 c4 08	 add	 esp, 8
  003d2	a3 00 00 00 00	 mov	 DWORD PTR ?g_DbgFp@CWinConsole@@0PAU_iobuf@@A, eax ; CWinConsole::g_DbgFp

; 173  : 
; 174  : 	if ( !CWinConsole::g_DbgFp )

  003d7	83 3d 00 00 00
	00 00		 cmp	 DWORD PTR ?g_DbgFp@CWinConsole@@0PAU_iobuf@@A, 0 ; CWinConsole::g_DbgFp
  003de	75 0e		 jne	 SHORT $LN3@CreateDbgF

; 175  : 		LogAdd("LuaDbgLog file create error");

  003e0	68 00 00 00 00	 push	 OFFSET ??_C@_0BM@CBNIBACL@LuaDbgLog?5file?5create?5error?$AA@
  003e5	ff 15 00 00 00
	00		 call	 DWORD PTR ?LogAdd@@3P6AXPADZZA ; LogAdd
  003eb	83 c4 04	 add	 esp, 4
$LN3@CreateDbgF:

; 176  : 
; 177  : }

  003ee	5f		 pop	 edi
  003ef	5e		 pop	 esi
  003f0	5b		 pop	 ebx
  003f1	8b 4d fc	 mov	 ecx, DWORD PTR __$ArrayPad$[ebp]
  003f4	33 cd		 xor	 ecx, ebp
  003f6	e8 00 00 00 00	 call	 @__security_check_cookie@4
  003fb	8b e5		 mov	 esp, ebp
  003fd	5d		 pop	 ebp
  003fe	c3		 ret	 0
?CreateDbgFile@CWinConsole@@SAXXZ ENDP			; CWinConsole::CreateDbgFile
_TEXT	ENDS
PUBLIC	?PrintDbgFile@CWinConsole@@SAXPBD@Z		; CWinConsole::PrintDbgFile
; Function compile flags: /Odtp /ZI
_TEXT	SEGMENT
_szBuf$ = 8						; size = 4
?PrintDbgFile@CWinConsole@@SAXPBD@Z PROC		; CWinConsole::PrintDbgFile

; 181  : {

  00400	55		 push	 ebp
  00401	8b ec		 mov	 ebp, esp
  00403	83 ec 40	 sub	 esp, 64			; 00000040H
  00406	53		 push	 ebx
  00407	56		 push	 esi
  00408	57		 push	 edi

; 182  : 	// nothing found
; 183  : }

  00409	5f		 pop	 edi
  0040a	5e		 pop	 esi
  0040b	5b		 pop	 ebx
  0040c	8b e5		 mov	 esp, ebp
  0040e	5d		 pop	 ebp
  0040f	c3		 ret	 0
?PrintDbgFile@CWinConsole@@SAXPBD@Z ENDP		; CWinConsole::PrintDbgFile
_TEXT	ENDS
PUBLIC	??_C@_0L@NNLLPGPO@DebugPrint?$AA@		; `string'
PUBLIC	?Debug_AddDebugPrint@@YAXPAUlua_State@@@Z	; Debug_AddDebugPrint
EXTRN	_lua_setfield:PROC
EXTRN	_lua_pushcclosure:PROC
;	COMDAT ??_C@_0L@NNLLPGPO@DebugPrint?$AA@
CONST	SEGMENT
??_C@_0L@NNLLPGPO@DebugPrint?$AA@ DB 'DebugPrint', 00H	; `string'
; Function compile flags: /Odtp /ZI
CONST	ENDS
_TEXT	SEGMENT
_i$205277 = -20						; size = 4
_DebugGlue$ = -16					; size = 16
_L$ = 8							; size = 4
?Debug_AddDebugPrint@@YAXPAUlua_State@@@Z PROC		; Debug_AddDebugPrint

; 187  : {

  00410	55		 push	 ebp
  00411	8b ec		 mov	 ebp, esp
  00413	83 ec 54	 sub	 esp, 84			; 00000054H
  00416	53		 push	 ebx
  00417	56		 push	 esi
  00418	57		 push	 edi

; 188  : 	luaL_reg DebugGlue[] =
; 189  : 	{
; 190  : 		{"DebugPrint", Debug_Print},

  00419	c7 45 f0 00 00
	00 00		 mov	 DWORD PTR _DebugGlue$[ebp], OFFSET ??_C@_0L@NNLLPGPO@DebugPrint?$AA@
  00420	c7 45 f4 00 00
	00 00		 mov	 DWORD PTR _DebugGlue$[ebp+4], OFFSET ?Debug_Print@@YAHPAUlua_State@@@Z ; Debug_Print

; 191  : 		{NULL, NULL}

  00427	c7 45 f8 00 00
	00 00		 mov	 DWORD PTR _DebugGlue$[ebp+8], 0
  0042e	c7 45 fc 00 00
	00 00		 mov	 DWORD PTR _DebugGlue$[ebp+12], 0

; 192  : 	};
; 193  : 
; 194  : 
; 195  : 	for (int i = 0; DebugGlue[i].name; ++i )

  00435	c7 45 ec 00 00
	00 00		 mov	 DWORD PTR _i$205277[ebp], 0
  0043c	eb 09		 jmp	 SHORT $LN3@Debug_AddD
$LN2@Debug_AddD:
  0043e	8b 45 ec	 mov	 eax, DWORD PTR _i$205277[ebp]
  00441	83 c0 01	 add	 eax, 1
  00444	89 45 ec	 mov	 DWORD PTR _i$205277[ebp], eax
$LN3@Debug_AddD:
  00447	8b 45 ec	 mov	 eax, DWORD PTR _i$205277[ebp]
  0044a	83 7c c5 f0 00	 cmp	 DWORD PTR _DebugGlue$[ebp+eax*8], 0
  0044f	74 31		 je	 SHORT $LN4@Debug_AddD

; 196  : 	{
; 197  : 		lua_pushcclosure(L, DebugGlue[i].func, 0);

  00451	6a 00		 push	 0
  00453	8b 45 ec	 mov	 eax, DWORD PTR _i$205277[ebp]
  00456	8b 4c c5 f4	 mov	 ecx, DWORD PTR _DebugGlue$[ebp+eax*8+4]
  0045a	51		 push	 ecx
  0045b	8b 55 08	 mov	 edx, DWORD PTR _L$[ebp]
  0045e	52		 push	 edx
  0045f	e8 00 00 00 00	 call	 _lua_pushcclosure
  00464	83 c4 0c	 add	 esp, 12			; 0000000cH

; 198  : 		lua_setfield(L, LUA_GLOBALSINDEX, DebugGlue[i].name);

  00467	8b 45 ec	 mov	 eax, DWORD PTR _i$205277[ebp]
  0046a	8b 4c c5 f0	 mov	 ecx, DWORD PTR _DebugGlue$[ebp+eax*8]
  0046e	51		 push	 ecx
  0046f	68 ee d8 ff ff	 push	 -10002			; ffffd8eeH
  00474	8b 55 08	 mov	 edx, DWORD PTR _L$[ebp]
  00477	52		 push	 edx
  00478	e8 00 00 00 00	 call	 _lua_setfield
  0047d	83 c4 0c	 add	 esp, 12			; 0000000cH

; 199  : 	}

  00480	eb bc		 jmp	 SHORT $LN2@Debug_AddD
$LN4@Debug_AddD:

; 200  : }

  00482	5f		 pop	 edi
  00483	5e		 pop	 esi
  00484	5b		 pop	 ebx
  00485	8b e5		 mov	 esp, ebp
  00487	5d		 pop	 ebp
  00488	c3		 ret	 0
?Debug_AddDebugPrint@@YAXPAUlua_State@@@Z ENDP		; Debug_AddDebugPrint
; Function compile flags: /Odtp /ZI
_L$ = 8						; size = 4
?Debug_Print@@YAHPAUlua_State@@@Z PROC			; Debug_Print

; 203  : {

  00490	55		 push	 ebp
  00491	8b ec		 mov	 ebp, esp
  00493	83 ec 40	 sub	 esp, 64			; 00000040H
  00496	53		 push	 ebx
  00497	56		 push	 esi
  00498	57		 push	 edi

; 204  : #ifdef _DEBUG
; 205  : 	// here must be some code
; 206  : 	// no code in executable, since it was build without _DEBUG
; 207  : #endif
; 208  : 
; 209  : 	return 0;

  00499	33 c0		 xor	 eax, eax

; 210  : }

  0049b	5f		 pop	 edi
  0049c	5e		 pop	 esi
  0049d	5b		 pop	 ebx
  0049e	8b e5		 mov	 esp, ebp
  004a0	5d		 pop	 ebp
  004a1	c3		 ret	 0
?Debug_Print@@YAHPAUlua_State@@@Z ENDP			; Debug_Print
_TEXT	ENDS
PUBLIC	??_C@_0L@HCMILMHJ@savedbgwnd?$AA@		; `string'
PUBLIC	??_C@_0M@LHGMPCPP@cleardbgwnd?$AA@		; `string'
PUBLIC	?Init@CWinConsole@@AAEXPAUHINSTANCE__@@@Z	; CWinConsole::Init
PUBLIC	??0CWinConsole@@AAE@XZ				; CWinConsole::CWinConsole
PUBLIC	__$ArrayPad$
PUBLIC	?StartConsole@CWinConsole@@SAPAUHWND__@@PAUHINSTANCE__@@PAUlua_State@@@Z ; CWinConsole::StartConsole
EXTRN	??3@YAXPAX@Z:PROC				; operator delete
EXTRN	??2@YAPAXI@Z:PROC				; operator new
EXTRN	__imp__InitializeCriticalSection@4:PROC
EXTRN	___CxxFrameHandler3:PROC
;	COMDAT ??_C@_0L@HCMILMHJ@savedbgwnd?$AA@
CONST	SEGMENT
??_C@_0L@HCMILMHJ@savedbgwnd?$AA@ DB 'savedbgwnd', 00H	; `string'
CONST	ENDS
;	COMDAT ??_C@_0M@LHGMPCPP@cleardbgwnd?$AA@
CONST	SEGMENT
??_C@_0M@LHGMPCPP@cleardbgwnd?$AA@ DB 'cleardbgwnd', 00H ; `string'
CONST	ENDS
xdata$x	SEGMENT
__unwindtable$?StartConsole@CWinConsole@@SAPAUHWND__@@PAUHINSTANCE__@@PAUlua_State@@@Z DD 0ffffffffH
	DD	FLAT:__unwindfunclet$?StartConsole@CWinConsole@@SAPAUHWND__@@PAUHINSTANCE__@@PAUlua_State@@@Z$0
__ehfuncinfo$?StartConsole@CWinConsole@@SAPAUHWND__@@PAUHINSTANCE__@@PAUlua_State@@@Z DD 019930522H
	DD	01H
	DD	FLAT:__unwindtable$?StartConsole@CWinConsole@@SAPAUHWND__@@PAUHINSTANCE__@@PAUlua_State@@@Z
	DD	2 DUP(00H)
	DD	2 DUP(00H)
	DD	00H
	DD	01H
; Function compile flags: /Odtp /ZI
xdata$x	ENDS
_TEXT	SEGMENT
tv73 = -120						; size = 4
$T205675 = -116						; size = 4
$T205676 = -112						; size = 4
_i$205298 = -44						; size = 4
_DebugGlue$205295 = -40					; size = 24
__$ArrayPad$ = -16					; size = 4
__$EHRec$ = -12						; size = 12
_hInstance$ = 8						; size = 4
_pScriptContext$ = 12					; size = 4
?StartConsole@CWinConsole@@SAPAUHWND__@@PAUHINSTANCE__@@PAUlua_State@@@Z PROC ; CWinConsole::StartConsole

; 214  : {

  004b0	55		 push	 ebp
  004b1	8b ec		 mov	 ebp, esp
  004b3	6a ff		 push	 -1
  004b5	68 00 00 00 00	 push	 __ehhandler$?StartConsole@CWinConsole@@SAPAUHWND__@@PAUHINSTANCE__@@PAUlua_State@@@Z
  004ba	64 a1 00 00 00
	00		 mov	 eax, DWORD PTR fs:0
  004c0	50		 push	 eax
  004c1	83 ec 6c	 sub	 esp, 108		; 0000006cH
  004c4	a1 00 00 00 00	 mov	 eax, DWORD PTR ___security_cookie
  004c9	33 c5		 xor	 eax, ebp
  004cb	89 45 f0	 mov	 DWORD PTR __$ArrayPad$[ebp], eax
  004ce	53		 push	 ebx
  004cf	56		 push	 esi
  004d0	57		 push	 edi
  004d1	50		 push	 eax
  004d2	8d 45 f4	 lea	 eax, DWORD PTR __$EHRec$[ebp]
  004d5	64 a3 00 00 00
	00		 mov	 DWORD PTR fs:0, eax

; 215  : 
; 216  : 	// need to add exception handling
; 217  : 
; 218  : 	InitializeCriticalSection(&WinConCritical);

  004db	68 00 00 00 00	 push	 OFFSET ?WinConCritical@@3U_RTL_CRITICAL_SECTION@@A ; WinConCritical
  004e0	ff 15 00 00 00
	00		 call	 DWORD PTR __imp__InitializeCriticalSection@4

; 219  : 	if ( !g_Console )

  004e6	83 3d 00 00 00
	00 00		 cmp	 DWORD PTR ?g_Console@@3PAVCWinConsole@@A, 0 ; g_Console
  004ed	75 49		 jne	 SHORT $LN6@StartConso

; 220  : 	{
; 221  : 		g_Console = new CWinConsole();

  004ef	6a 20		 push	 32			; 00000020H
  004f1	e8 00 00 00 00	 call	 ??2@YAPAXI@Z		; operator new
  004f6	83 c4 04	 add	 esp, 4
  004f9	89 45 90	 mov	 DWORD PTR $T205676[ebp], eax
  004fc	c7 45 fc 00 00
	00 00		 mov	 DWORD PTR __$EHRec$[ebp+8], 0
  00503	83 7d 90 00	 cmp	 DWORD PTR $T205676[ebp], 0
  00507	74 0d		 je	 SHORT $LN9@StartConso
  00509	8b 4d 90	 mov	 ecx, DWORD PTR $T205676[ebp]
  0050c	e8 00 00 00 00	 call	 ??0CWinConsole@@AAE@XZ	; CWinConsole::CWinConsole
  00511	89 45 88	 mov	 DWORD PTR tv73[ebp], eax
  00514	eb 07		 jmp	 SHORT $LN10@StartConso
$LN9@StartConso:
  00516	c7 45 88 00 00
	00 00		 mov	 DWORD PTR tv73[ebp], 0
$LN10@StartConso:
  0051d	8b 45 88	 mov	 eax, DWORD PTR tv73[ebp]
  00520	89 45 8c	 mov	 DWORD PTR $T205675[ebp], eax
  00523	c7 45 fc ff ff
	ff ff		 mov	 DWORD PTR __$EHRec$[ebp+8], -1
  0052a	8b 4d 8c	 mov	 ecx, DWORD PTR $T205675[ebp]
  0052d	89 0d 00 00 00
	00		 mov	 DWORD PTR ?g_Console@@3PAVCWinConsole@@A, ecx ; g_Console

; 222  : 		CWinConsole::CreateDbgFile();

  00533	e8 00 00 00 00	 call	 ?CreateDbgFile@CWinConsole@@SAXXZ ; CWinConsole::CreateDbgFile
$LN6@StartConso:

; 223  : 	}
; 224  : 
; 225  : 	if ( !CWinConsole::m_hWnd )

  00538	83 3d 00 00 00
	00 00		 cmp	 DWORD PTR ?m_hWnd@CWinConsole@@0RAUHWND__@@A, 0 ; CWinConsole::m_hWnd
  0053f	75 0f		 jne	 SHORT $LN5@StartConso

; 226  : 		g_Console->Init(hInstance);

  00541	8b 45 08	 mov	 eax, DWORD PTR _hInstance$[ebp]
  00544	50		 push	 eax
  00545	8b 0d 00 00 00
	00		 mov	 ecx, DWORD PTR ?g_Console@@3PAVCWinConsole@@A ; g_Console
  0054b	e8 00 00 00 00	 call	 ?Init@CWinConsole@@AAEXPAUHINSTANCE__@@@Z ; CWinConsole::Init
$LN5@StartConso:

; 227  : 
; 228  : 	if ( pScriptContext )

  00550	83 7d 0c 00	 cmp	 DWORD PTR _pScriptContext$[ebp], 0
  00554	0f 84 8e 00 00
	00		 je	 $LN4@StartConso

; 229  : 	{
; 230  : 		g_Console->m_pScriptContext = pScriptContext;

  0055a	a1 00 00 00 00	 mov	 eax, DWORD PTR ?g_Console@@3PAVCWinConsole@@A ; g_Console
  0055f	8b 4d 0c	 mov	 ecx, DWORD PTR _pScriptContext$[ebp]
  00562	89 48 14	 mov	 DWORD PTR [eax+20], ecx

; 231  : 		Debug_AddDebugPrint(pScriptContext);

  00565	8b 45 0c	 mov	 eax, DWORD PTR _pScriptContext$[ebp]
  00568	50		 push	 eax
  00569	e8 00 00 00 00	 call	 ?Debug_AddDebugPrint@@YAXPAUlua_State@@@Z ; Debug_AddDebugPrint
  0056e	83 c4 04	 add	 esp, 4

; 232  : 
; 233  : 		luaL_Reg DebugGlue[] =
; 234  : 		{
; 235  : 			{"cleardbgwnd",	Clear_DebugWindow},

  00571	c7 45 d8 00 00
	00 00		 mov	 DWORD PTR _DebugGlue$205295[ebp], OFFSET ??_C@_0M@LHGMPCPP@cleardbgwnd?$AA@
  00578	c7 45 dc 00 00
	00 00		 mov	 DWORD PTR _DebugGlue$205295[ebp+4], OFFSET ?Clear_DebugWindow@@YAHPAUlua_State@@@Z ; Clear_DebugWindow

; 236  : 			{"savedbgwnd",	Save_DebugWindowContents},

  0057f	c7 45 e0 00 00
	00 00		 mov	 DWORD PTR _DebugGlue$205295[ebp+8], OFFSET ??_C@_0L@HCMILMHJ@savedbgwnd?$AA@
  00586	c7 45 e4 00 00
	00 00		 mov	 DWORD PTR _DebugGlue$205295[ebp+12], OFFSET ?Save_DebugWindowContents@@YAHPAUlua_State@@@Z ; Save_DebugWindowContents

; 237  : 			{NULL, NULL}

  0058d	c7 45 e8 00 00
	00 00		 mov	 DWORD PTR _DebugGlue$205295[ebp+16], 0
  00594	c7 45 ec 00 00
	00 00		 mov	 DWORD PTR _DebugGlue$205295[ebp+20], 0

; 238  : 		};
; 239  : 
; 240  : 		for (int i = 0; DebugGlue[i].name; ++i )

  0059b	c7 45 d4 00 00
	00 00		 mov	 DWORD PTR _i$205298[ebp], 0
  005a2	eb 09		 jmp	 SHORT $LN3@StartConso
$LN2@StartConso:
  005a4	8b 45 d4	 mov	 eax, DWORD PTR _i$205298[ebp]
  005a7	83 c0 01	 add	 eax, 1
  005aa	89 45 d4	 mov	 DWORD PTR _i$205298[ebp], eax
$LN3@StartConso:
  005ad	8b 45 d4	 mov	 eax, DWORD PTR _i$205298[ebp]
  005b0	83 7c c5 d8 00	 cmp	 DWORD PTR _DebugGlue$205295[ebp+eax*8], 0
  005b5	74 31		 je	 SHORT $LN4@StartConso

; 241  : 		{
; 242  : 			lua_pushcclosure(pScriptContext, DebugGlue[i].func, 0);

  005b7	6a 00		 push	 0
  005b9	8b 45 d4	 mov	 eax, DWORD PTR _i$205298[ebp]
  005bc	8b 4c c5 dc	 mov	 ecx, DWORD PTR _DebugGlue$205295[ebp+eax*8+4]
  005c0	51		 push	 ecx
  005c1	8b 55 0c	 mov	 edx, DWORD PTR _pScriptContext$[ebp]
  005c4	52		 push	 edx
  005c5	e8 00 00 00 00	 call	 _lua_pushcclosure
  005ca	83 c4 0c	 add	 esp, 12			; 0000000cH

; 243  : 			lua_setfield(pScriptContext, LUA_GLOBALSINDEX, DebugGlue[i].name);

  005cd	8b 45 d4	 mov	 eax, DWORD PTR _i$205298[ebp]
  005d0	8b 4c c5 d8	 mov	 ecx, DWORD PTR _DebugGlue$205295[ebp+eax*8]
  005d4	51		 push	 ecx
  005d5	68 ee d8 ff ff	 push	 -10002			; ffffd8eeH
  005da	8b 55 0c	 mov	 edx, DWORD PTR _pScriptContext$[ebp]
  005dd	52		 push	 edx
  005de	e8 00 00 00 00	 call	 _lua_setfield
  005e3	83 c4 0c	 add	 esp, 12			; 0000000cH

; 244  : 		}

  005e6	eb bc		 jmp	 SHORT $LN2@StartConso
$LN4@StartConso:

; 245  : 	}
; 246  : 
; 247  :   return CWinConsole::m_hWnd;

  005e8	a1 00 00 00 00	 mov	 eax, DWORD PTR ?m_hWnd@CWinConsole@@0RAUHWND__@@A ; CWinConsole::m_hWnd

; 248  : }

  005ed	8b 4d f4	 mov	 ecx, DWORD PTR __$EHRec$[ebp]
  005f0	64 89 0d 00 00
	00 00		 mov	 DWORD PTR fs:0, ecx
  005f7	59		 pop	 ecx
  005f8	5f		 pop	 edi
  005f9	5e		 pop	 esi
  005fa	5b		 pop	 ebx
  005fb	8b 4d f0	 mov	 ecx, DWORD PTR __$ArrayPad$[ebp]
  005fe	33 cd		 xor	 ecx, ebp
  00600	e8 00 00 00 00	 call	 @__security_check_cookie@4
  00605	8b e5		 mov	 esp, ebp
  00607	5d		 pop	 ebp
  00608	c3		 ret	 0
_TEXT	ENDS
text$x	SEGMENT
__unwindfunclet$?StartConsole@CWinConsole@@SAPAUHWND__@@PAUHINSTANCE__@@PAUlua_State@@@Z$0:
  00000	8b 45 90	 mov	 eax, DWORD PTR $T205676[ebp]
  00003	50		 push	 eax
  00004	e8 00 00 00 00	 call	 ??3@YAXPAX@Z		; operator delete
  00009	59		 pop	 ecx
  0000a	c3		 ret	 0
__ehhandler$?StartConsole@CWinConsole@@SAPAUHWND__@@PAUHINSTANCE__@@PAUlua_State@@@Z:
  0000b	8b 54 24 08	 mov	 edx, DWORD PTR [esp+8]
  0000f	8d 42 0c	 lea	 eax, DWORD PTR [edx+12]
  00012	8b 4a 84	 mov	 ecx, DWORD PTR [edx-124]
  00015	33 c8		 xor	 ecx, eax
  00017	e8 00 00 00 00	 call	 @__security_check_cookie@4
  0001c	8b 4a fc	 mov	 ecx, DWORD PTR [edx-4]
  0001f	33 c8		 xor	 ecx, eax
  00021	e8 00 00 00 00	 call	 @__security_check_cookie@4
  00026	b8 00 00 00 00	 mov	 eax, OFFSET __ehfuncinfo$?StartConsole@CWinConsole@@SAPAUHWND__@@PAUHINSTANCE__@@PAUlua_State@@@Z
  0002b	e9 00 00 00 00	 jmp	 ___CxxFrameHandler3
text$x	ENDS
?StartConsole@CWinConsole@@SAPAUHWND__@@PAUHINSTANCE__@@PAUlua_State@@@Z ENDP ; CWinConsole::StartConsole
PUBLIC	?ClearDbgWnd@CWinConsole@@SAXXZ			; CWinConsole::ClearDbgWnd
; Function compile flags: /Odtp /ZI
_TEXT	SEGMENT
_L$ = 8							; size = 4
?Clear_DebugWindow@@YAHPAUlua_State@@@Z PROC		; Clear_DebugWindow

; 251  : {

  00610	55		 push	 ebp
  00611	8b ec		 mov	 ebp, esp
  00613	83 ec 40	 sub	 esp, 64			; 00000040H
  00616	53		 push	 ebx
  00617	56		 push	 esi
  00618	57		 push	 edi

; 252  : 	CWinConsole::ClearDbgWnd();

  00619	e8 00 00 00 00	 call	 ?ClearDbgWnd@CWinConsole@@SAXXZ ; CWinConsole::ClearDbgWnd

; 253  : 
; 254  : 	return 0;

  0061e	33 c0		 xor	 eax, eax

; 255  : }

  00620	5f		 pop	 edi
  00621	5e		 pop	 esi
  00622	5b		 pop	 ebx
  00623	8b e5		 mov	 esp, ebp
  00625	5d		 pop	 ebp
  00626	c3		 ret	 0
?Clear_DebugWindow@@YAHPAUlua_State@@@Z ENDP		; Clear_DebugWindow
_TEXT	ENDS
EXTRN	_luaL_checklstring:PROC
; Function compile flags: /Odtp /ZI
_TEXT	SEGMENT
_L$ = 8							; size = 4
?Save_DebugWindowContents@@YAHPAUlua_State@@@Z PROC	; Save_DebugWindowContents

; 258  : {

  00630	55		 push	 ebp
  00631	8b ec		 mov	 ebp, esp
  00633	83 ec 40	 sub	 esp, 64			; 00000040H
  00636	53		 push	 ebx
  00637	56		 push	 esi
  00638	57		 push	 edi

; 259  : 	g_Console->SaveDbgWnd( luaL_checklstring(L, 1, 0) );

  00639	6a 00		 push	 0
  0063b	6a 01		 push	 1
  0063d	8b 45 08	 mov	 eax, DWORD PTR _L$[ebp]
  00640	50		 push	 eax
  00641	e8 00 00 00 00	 call	 _luaL_checklstring
  00646	83 c4 0c	 add	 esp, 12			; 0000000cH
  00649	50		 push	 eax
  0064a	8b 0d 00 00 00
	00		 mov	 ecx, DWORD PTR ?g_Console@@3PAVCWinConsole@@A ; g_Console
  00650	e8 00 00 00 00	 call	 ?SaveDbgWnd@CWinConsole@@QAEXPBD@Z ; CWinConsole::SaveDbgWnd

; 260  : 
; 261  : 	return 0;

  00655	33 c0		 xor	 eax, eax

; 262  : }

  00657	5f		 pop	 edi
  00658	5e		 pop	 esi
  00659	5b		 pop	 ebx
  0065a	8b e5		 mov	 esp, ebp
  0065c	5d		 pop	 ebp
  0065d	c3		 ret	 0
?Save_DebugWindowContents@@YAHPAUlua_State@@@Z ENDP	; Save_DebugWindowContents
_TEXT	ENDS
PUBLIC	?StopConsole@CWinConsole@@SAXXZ			; CWinConsole::StopConsole
EXTRN	__imp__DeleteCriticalSection@4:PROC
EXTRN	__imp__DestroyWindow@4:PROC
; Function compile flags: /Odtp /ZI
_TEXT	SEGMENT
tv71 = -76						; size = 4
$T205690 = -72						; size = 4
$T205691 = -68						; size = 4
?StopConsole@CWinConsole@@SAXXZ PROC			; CWinConsole::StopConsole

; 266  : {

  00660	55		 push	 ebp
  00661	8b ec		 mov	 ebp, esp
  00663	83 ec 4c	 sub	 esp, 76			; 0000004cH
  00666	53		 push	 ebx
  00667	56		 push	 esi
  00668	57		 push	 edi

; 267  : 	if ( g_Console )

  00669	83 3d 00 00 00
	00 00		 cmp	 DWORD PTR ?g_Console@@3PAVCWinConsole@@A, 0 ; g_Console
  00670	74 38		 je	 SHORT $LN3@StopConsol

; 268  : 	{
; 269  : 		delete g_Console;

  00672	a1 00 00 00 00	 mov	 eax, DWORD PTR ?g_Console@@3PAVCWinConsole@@A ; g_Console
  00677	89 45 bc	 mov	 DWORD PTR $T205691[ebp], eax
  0067a	8b 4d bc	 mov	 ecx, DWORD PTR $T205691[ebp]
  0067d	89 4d b8	 mov	 DWORD PTR $T205690[ebp], ecx
  00680	83 7d b8 00	 cmp	 DWORD PTR $T205690[ebp], 0
  00684	74 13		 je	 SHORT $LN6@StopConsol
  00686	6a 01		 push	 1
  00688	8b 55 b8	 mov	 edx, DWORD PTR $T205690[ebp]
  0068b	8b 02		 mov	 eax, DWORD PTR [edx]
  0068d	8b 4d b8	 mov	 ecx, DWORD PTR $T205690[ebp]
  00690	8b 10		 mov	 edx, DWORD PTR [eax]
  00692	ff d2		 call	 edx
  00694	89 45 b4	 mov	 DWORD PTR tv71[ebp], eax
  00697	eb 07		 jmp	 SHORT $LN7@StopConsol
$LN6@StopConsol:
  00699	c7 45 b4 00 00
	00 00		 mov	 DWORD PTR tv71[ebp], 0
$LN7@StopConsol:

; 270  : 		g_Console = NULL;

  006a0	c7 05 00 00 00
	00 00 00 00 00	 mov	 DWORD PTR ?g_Console@@3PAVCWinConsole@@A, 0 ; g_Console
$LN3@StopConsol:

; 271  : 	}
; 272  : 
; 273  : 	if ( CWinConsole::m_hWnd )

  006aa	83 3d 00 00 00
	00 00		 cmp	 DWORD PTR ?m_hWnd@CWinConsole@@0RAUHWND__@@A, 0 ; CWinConsole::m_hWnd
  006b1	74 0c		 je	 SHORT $LN2@StopConsol

; 274  : 		DestroyWindow(CWinConsole::m_hWnd);

  006b3	a1 00 00 00 00	 mov	 eax, DWORD PTR ?m_hWnd@CWinConsole@@0RAUHWND__@@A ; CWinConsole::m_hWnd
  006b8	50		 push	 eax
  006b9	ff 15 00 00 00
	00		 call	 DWORD PTR __imp__DestroyWindow@4
$LN2@StopConsol:

; 275  : 
; 276  : 	if ( CWinConsole::g_DbgFp )

  006bf	83 3d 00 00 00
	00 00		 cmp	 DWORD PTR ?g_DbgFp@CWinConsole@@0PAU_iobuf@@A, 0 ; CWinConsole::g_DbgFp
  006c6	74 18		 je	 SHORT $LN1@StopConsol

; 277  : 	{
; 278  : 		fclose(CWinConsole::g_DbgFp);

  006c8	a1 00 00 00 00	 mov	 eax, DWORD PTR ?g_DbgFp@CWinConsole@@0PAU_iobuf@@A ; CWinConsole::g_DbgFp
  006cd	50		 push	 eax
  006ce	e8 00 00 00 00	 call	 _fclose
  006d3	83 c4 04	 add	 esp, 4

; 279  : 		CWinConsole::g_DbgFp = NULL;

  006d6	c7 05 00 00 00
	00 00 00 00 00	 mov	 DWORD PTR ?g_DbgFp@CWinConsole@@0PAU_iobuf@@A, 0 ; CWinConsole::g_DbgFp
$LN1@StopConsol:

; 280  : 	}
; 281  : 
; 282  : 	DeleteCriticalSection(&WinConCritical);

  006e0	68 00 00 00 00	 push	 OFFSET ?WinConCritical@@3U_RTL_CRITICAL_SECTION@@A ; WinConCritical
  006e5	ff 15 00 00 00
	00		 call	 DWORD PTR __imp__DeleteCriticalSection@4

; 283  : 
; 284  : }

  006eb	5f		 pop	 edi
  006ec	5e		 pop	 esi
  006ed	5b		 pop	 ebx
  006ee	8b e5		 mov	 esp, ebp
  006f0	5d		 pop	 ebp
  006f1	c3		 ret	 0
?StopConsole@CWinConsole@@SAXXZ ENDP			; CWinConsole::StopConsole
_TEXT	ENDS
PUBLIC	??_7CWinConsole@@6B@				; CWinConsole::`vftable'
PUBLIC	??_R4CWinConsole@@6B@				; CWinConsole::`RTTI Complete Object Locator'
PUBLIC	??_R0?AVCWinConsole@@@8				; CWinConsole `RTTI Type Descriptor'
PUBLIC	??_R3CWinConsole@@8				; CWinConsole::`RTTI Class Hierarchy Descriptor'
PUBLIC	??_R2CWinConsole@@8				; CWinConsole::`RTTI Base Class Array'
PUBLIC	??_R1A@?0A@EA@CWinConsole@@8			; CWinConsole::`RTTI Base Class Descriptor at (0,-1,0,64)'
EXTRN	??_7type_info@@6B@:QWORD			; type_info::`vftable'
EXTRN	??_ECWinConsole@@EAEPAXI@Z:PROC			; CWinConsole::`vector deleting destructor'
;	COMDAT ??_R1A@?0A@EA@CWinConsole@@8
rdata$r	SEGMENT
??_R1A@?0A@EA@CWinConsole@@8 DD FLAT:??_R0?AVCWinConsole@@@8 ; CWinConsole::`RTTI Base Class Descriptor at (0,-1,0,64)'
	DD	00H
	DD	00H
	DD	0ffffffffH
	DD	00H
	DD	040H
	DD	FLAT:??_R3CWinConsole@@8
rdata$r	ENDS
;	COMDAT ??_R2CWinConsole@@8
rdata$r	SEGMENT
??_R2CWinConsole@@8 DD FLAT:??_R1A@?0A@EA@CWinConsole@@8 ; CWinConsole::`RTTI Base Class Array'
rdata$r	ENDS
;	COMDAT ??_R3CWinConsole@@8
rdata$r	SEGMENT
??_R3CWinConsole@@8 DD 00H				; CWinConsole::`RTTI Class Hierarchy Descriptor'
	DD	00H
	DD	01H
	DD	FLAT:??_R2CWinConsole@@8
rdata$r	ENDS
;	COMDAT ??_R0?AVCWinConsole@@@8
_DATA	SEGMENT
??_R0?AVCWinConsole@@@8 DD FLAT:??_7type_info@@6B@	; CWinConsole `RTTI Type Descriptor'
	DD	00H
	DB	'.?AVCWinConsole@@', 00H
_DATA	ENDS
;	COMDAT ??_R4CWinConsole@@6B@
rdata$r	SEGMENT
??_R4CWinConsole@@6B@ DD 00H				; CWinConsole::`RTTI Complete Object Locator'
	DD	00H
	DD	00H
	DD	FLAT:??_R0?AVCWinConsole@@@8
	DD	FLAT:??_R3CWinConsole@@8
rdata$r	ENDS
;	COMDAT ??_7CWinConsole@@6B@
CONST	SEGMENT
??_7CWinConsole@@6B@ DD FLAT:??_R4CWinConsole@@6B@	; CWinConsole::`vftable'
	DD	FLAT:??_ECWinConsole@@EAEPAXI@Z
; Function compile flags: /Odtp /ZI
CONST	ENDS
_TEXT	SEGMENT
_this$ = -4						; size = 4
??0CWinConsole@@AAE@XZ PROC				; CWinConsole::CWinConsole
; _this$ = ecx

; 287  : {

  00700	55		 push	 ebp
  00701	8b ec		 mov	 ebp, esp
  00703	83 ec 44	 sub	 esp, 68			; 00000044H
  00706	53		 push	 ebx
  00707	56		 push	 esi
  00708	57		 push	 edi
  00709	89 4d fc	 mov	 DWORD PTR _this$[ebp], ecx
  0070c	8b 45 fc	 mov	 eax, DWORD PTR _this$[ebp]
  0070f	c7 00 00 00 00
	00		 mov	 DWORD PTR [eax], OFFSET ??_7CWinConsole@@6B@

; 288  : 	CWinConsole::m_hWnd = NULL;

  00715	c7 05 00 00 00
	00 00 00 00 00	 mov	 DWORD PTR ?m_hWnd@CWinConsole@@0RAUHWND__@@A, 0 ; CWinConsole::m_hWnd

; 289  : 	m_pScriptContext = NULL;

  0071f	8b 45 fc	 mov	 eax, DWORD PTR _this$[ebp]
  00722	c7 40 14 00 00
	00 00		 mov	 DWORD PTR [eax+20], 0

; 290  : 
; 291  : 	memset(CWinConsole::m_CommandBuffer, 0, sizeof(CWinConsole::m_CommandBuffer));

  00729	68 00 04 00 00	 push	 1024			; 00000400H
  0072e	6a 00		 push	 0
  00730	68 00 00 00 00	 push	 OFFSET ?m_CommandBuffer@CWinConsole@@0PADA ; CWinConsole::m_CommandBuffer
  00735	e8 00 00 00 00	 call	 _memset
  0073a	83 c4 0c	 add	 esp, 12			; 0000000cH

; 292  : 	memset(CWinConsole::m_pszBackUpString, 0, sizeof(CWinConsole::m_pszBackUpString));

  0073d	68 00 28 00 00	 push	 10240			; 00002800H
  00742	6a 00		 push	 0
  00744	68 00 00 00 00	 push	 OFFSET ?m_pszBackUpString@CWinConsole@@0PAY0EAA@DA ; CWinConsole::m_pszBackUpString
  00749	e8 00 00 00 00	 call	 _memset
  0074e	83 c4 0c	 add	 esp, 12			; 0000000cH

; 293  : 
; 294  : 	CWinConsole::m_iBackUpLineNo = 0;

  00751	c7 05 00 00 00
	00 00 00 00 00	 mov	 DWORD PTR ?m_iBackUpLineNo@CWinConsole@@0HA, 0 ; CWinConsole::m_iBackUpLineNo

; 295  : 	CWinConsole::m_iCurrentBackUpLineNo = 0;

  0075b	c7 05 00 00 00
	00 00 00 00 00	 mov	 DWORD PTR ?m_iCurrentBackUpLineNo@CWinConsole@@0HA, 0 ; CWinConsole::m_iCurrentBackUpLineNo

; 296  : 
; 297  : 	m_dwWinConsoleOpt = 1;

  00765	8b 45 fc	 mov	 eax, DWORD PTR _this$[ebp]
  00768	c7 40 10 01 00
	00 00		 mov	 DWORD PTR [eax+16], 1

; 298  : 	m_hMainMenu = 0;

  0076f	8b 45 fc	 mov	 eax, DWORD PTR _this$[ebp]
  00772	c7 40 08 00 00
	00 00		 mov	 DWORD PTR [eax+8], 0

; 299  : 	m_hSubMenu = 0;

  00779	8b 45 fc	 mov	 eax, DWORD PTR _this$[ebp]
  0077c	c7 40 0c 00 00
	00 00		 mov	 DWORD PTR [eax+12], 0

; 300  : 
; 301  : 	CWinConsole::m_cline = 0;

  00783	c7 05 00 00 00
	00 00 00 00 00	 mov	 DWORD PTR ?m_cline@CWinConsole@@0HA, 0 ; CWinConsole::m_cline

; 302  : }

  0078d	8b 45 fc	 mov	 eax, DWORD PTR _this$[ebp]
  00790	5f		 pop	 edi
  00791	5e		 pop	 esi
  00792	5b		 pop	 ebx
  00793	8b e5		 mov	 esp, ebp
  00795	5d		 pop	 ebp
  00796	c3		 ret	 0
??0CWinConsole@@AAE@XZ ENDP				; CWinConsole::CWinConsole
_TEXT	ENDS
PUBLIC	??1CWinConsole@@EAE@XZ				; CWinConsole::~CWinConsole
; Function compile flags: /Odtp /ZI
;	COMDAT ??_GCWinConsole@@EAEPAXI@Z
_TEXT	SEGMENT
_this$ = -4						; size = 4
___flags$ = 8						; size = 4
??_GCWinConsole@@EAEPAXI@Z PROC				; CWinConsole::`scalar deleting destructor', COMDAT
; _this$ = ecx
  00000	55		 push	 ebp
  00001	8b ec		 mov	 ebp, esp
  00003	83 ec 44	 sub	 esp, 68			; 00000044H
  00006	53		 push	 ebx
  00007	56		 push	 esi
  00008	57		 push	 edi
  00009	89 4d fc	 mov	 DWORD PTR _this$[ebp], ecx
  0000c	8b 4d fc	 mov	 ecx, DWORD PTR _this$[ebp]
  0000f	e8 00 00 00 00	 call	 ??1CWinConsole@@EAE@XZ	; CWinConsole::~CWinConsole
  00014	8b 45 08	 mov	 eax, DWORD PTR ___flags$[ebp]
  00017	83 e0 01	 and	 eax, 1
  0001a	74 0c		 je	 SHORT $LN1@scalar
  0001c	8b 45 fc	 mov	 eax, DWORD PTR _this$[ebp]
  0001f	50		 push	 eax
  00020	e8 00 00 00 00	 call	 ??3@YAXPAX@Z		; operator delete
  00025	83 c4 04	 add	 esp, 4
$LN1@scalar:
  00028	8b 45 fc	 mov	 eax, DWORD PTR _this$[ebp]
  0002b	5f		 pop	 edi
  0002c	5e		 pop	 esi
  0002d	5b		 pop	 ebx
  0002e	8b e5		 mov	 esp, ebp
  00030	5d		 pop	 ebp
  00031	c2 04 00	 ret	 4
??_GCWinConsole@@EAEPAXI@Z ENDP				; CWinConsole::`scalar deleting destructor'
; Function compile flags: /Odtp /ZI
_TEXT	ENDS
_TEXT	SEGMENT
_this$ = -4						; size = 4
??1CWinConsole@@EAE@XZ PROC				; CWinConsole::~CWinConsole
; _this$ = ecx

; 306  : {

  007a0	55		 push	 ebp
  007a1	8b ec		 mov	 ebp, esp
  007a3	83 ec 44	 sub	 esp, 68			; 00000044H
  007a6	53		 push	 ebx
  007a7	56		 push	 esi
  007a8	57		 push	 edi
  007a9	89 4d fc	 mov	 DWORD PTR _this$[ebp], ecx
  007ac	8b 45 fc	 mov	 eax, DWORD PTR _this$[ebp]
  007af	c7 00 00 00 00
	00		 mov	 DWORD PTR [eax], OFFSET ??_7CWinConsole@@6B@

; 307  : 	if ( CWinConsole::m_hWnd )

  007b5	83 3d 00 00 00
	00 00		 cmp	 DWORD PTR ?m_hWnd@CWinConsole@@0RAUHWND__@@A, 0 ; CWinConsole::m_hWnd
  007bc	74 0c		 je	 SHORT $LN2@CWinConsol

; 308  : 		DestroyWindow(CWinConsole::m_hWnd);

  007be	a1 00 00 00 00	 mov	 eax, DWORD PTR ?m_hWnd@CWinConsole@@0RAUHWND__@@A ; CWinConsole::m_hWnd
  007c3	50		 push	 eax
  007c4	ff 15 00 00 00
	00		 call	 DWORD PTR __imp__DestroyWindow@4
$LN2@CWinConsol:

; 309  : 
; 310  : 	if ( CWinConsole::g_DbgFp )

  007ca	83 3d 00 00 00
	00 00		 cmp	 DWORD PTR ?g_DbgFp@CWinConsole@@0PAU_iobuf@@A, 0 ; CWinConsole::g_DbgFp
  007d1	74 18		 je	 SHORT $LN1@CWinConsol

; 311  : 	{
; 312  : 		fclose(CWinConsole::g_DbgFp);

  007d3	a1 00 00 00 00	 mov	 eax, DWORD PTR ?g_DbgFp@CWinConsole@@0PAU_iobuf@@A ; CWinConsole::g_DbgFp
  007d8	50		 push	 eax
  007d9	e8 00 00 00 00	 call	 _fclose
  007de	83 c4 04	 add	 esp, 4

; 313  : 		CWinConsole::g_DbgFp = NULL;

  007e1	c7 05 00 00 00
	00 00 00 00 00	 mov	 DWORD PTR ?g_DbgFp@CWinConsole@@0PAU_iobuf@@A, 0 ; CWinConsole::g_DbgFp
$LN1@CWinConsol:

; 314  : 	}
; 315  : 
; 316  : 	DeleteCriticalSection(&WinConCritical);

  007eb	68 00 00 00 00	 push	 OFFSET ?WinConCritical@@3U_RTL_CRITICAL_SECTION@@A ; WinConCritical
  007f0	ff 15 00 00 00
	00		 call	 DWORD PTR __imp__DeleteCriticalSection@4

; 317  : }

  007f6	5f		 pop	 edi
  007f7	5e		 pop	 esi
  007f8	5b		 pop	 ebx
  007f9	8b e5		 mov	 esp, ebp
  007fb	5d		 pop	 ebp
  007fc	c3		 ret	 0
??1CWinConsole@@EAE@XZ ENDP				; CWinConsole::~CWinConsole
_TEXT	ENDS
PUBLIC	__$ArrayPad$
PUBLIC	?ResizeControls@CWinConsole@@AAEXXZ		; CWinConsole::ResizeControls
EXTRN	__imp__InvalidateRect@12:PROC
EXTRN	__imp__SetWindowPos@28:PROC
EXTRN	__imp__GetClientRect@8:PROC
; Function compile flags: /Odtp /ZI
_TEXT	SEGMENT
_Rect$ = -24						; size = 16
_this$ = -8						; size = 4
__$ArrayPad$ = -4					; size = 4
?ResizeControls@CWinConsole@@AAEXXZ PROC		; CWinConsole::ResizeControls
; _this$ = ecx

; 321  : {

  00800	55		 push	 ebp
  00801	8b ec		 mov	 ebp, esp
  00803	83 ec 58	 sub	 esp, 88			; 00000058H
  00806	a1 00 00 00 00	 mov	 eax, DWORD PTR ___security_cookie
  0080b	33 c5		 xor	 eax, ebp
  0080d	89 45 fc	 mov	 DWORD PTR __$ArrayPad$[ebp], eax
  00810	53		 push	 ebx
  00811	56		 push	 esi
  00812	57		 push	 edi
  00813	89 4d f8	 mov	 DWORD PTR _this$[ebp], ecx

; 322  : 
; 323  : 	RECT Rect;
; 324  : 
; 325  : 	GetClientRect(CWinConsole::m_hWnd, &Rect);

  00816	8d 45 e8	 lea	 eax, DWORD PTR _Rect$[ebp]
  00819	50		 push	 eax
  0081a	8b 0d 00 00 00
	00		 mov	 ecx, DWORD PTR ?m_hWnd@CWinConsole@@0RAUHWND__@@A ; CWinConsole::m_hWnd
  00820	51		 push	 ecx
  00821	ff 15 00 00 00
	00		 call	 DWORD PTR __imp__GetClientRect@8

; 326  : 
; 327  : 	SetWindowPos(CWinConsole::m_hEditControl, NULL,
; 328  : 		Rect.left + 2, Rect.bottom - 18,
; 329  : 		Rect.right - Rect.left - 4,  16,
; 330  : 		SWP_NOZORDER);

  00827	6a 04		 push	 4
  00829	6a 10		 push	 16			; 00000010H
  0082b	8b 45 f0	 mov	 eax, DWORD PTR _Rect$[ebp+8]
  0082e	2b 45 e8	 sub	 eax, DWORD PTR _Rect$[ebp]
  00831	83 e8 04	 sub	 eax, 4
  00834	50		 push	 eax
  00835	8b 4d f4	 mov	 ecx, DWORD PTR _Rect$[ebp+12]
  00838	83 e9 12	 sub	 ecx, 18			; 00000012H
  0083b	51		 push	 ecx
  0083c	8b 55 e8	 mov	 edx, DWORD PTR _Rect$[ebp]
  0083f	83 c2 02	 add	 edx, 2
  00842	52		 push	 edx
  00843	6a 00		 push	 0
  00845	a1 00 00 00 00	 mov	 eax, DWORD PTR ?m_hEditControl@CWinConsole@@0RAUHWND__@@A ; CWinConsole::m_hEditControl
  0084a	50		 push	 eax
  0084b	ff 15 00 00 00
	00		 call	 DWORD PTR __imp__SetWindowPos@28

; 331  : 
; 332  : 	SetWindowPos(CWinConsole::m_hListBox, NULL,
; 333  : 		Rect.left + 2, Rect.top + 2,
; 334  : 		Rect.right - Rect.left - 4, Rect.bottom - Rect.top - 24,
; 335  : 		SWP_NOZORDER);

  00851	6a 04		 push	 4
  00853	8b 45 f4	 mov	 eax, DWORD PTR _Rect$[ebp+12]
  00856	2b 45 ec	 sub	 eax, DWORD PTR _Rect$[ebp+4]
  00859	83 e8 18	 sub	 eax, 24			; 00000018H
  0085c	50		 push	 eax
  0085d	8b 4d f0	 mov	 ecx, DWORD PTR _Rect$[ebp+8]
  00860	2b 4d e8	 sub	 ecx, DWORD PTR _Rect$[ebp]
  00863	83 e9 04	 sub	 ecx, 4
  00866	51		 push	 ecx
  00867	8b 55 ec	 mov	 edx, DWORD PTR _Rect$[ebp+4]
  0086a	83 c2 02	 add	 edx, 2
  0086d	52		 push	 edx
  0086e	8b 45 e8	 mov	 eax, DWORD PTR _Rect$[ebp]
  00871	83 c0 02	 add	 eax, 2
  00874	50		 push	 eax
  00875	6a 00		 push	 0
  00877	8b 0d 00 00 00
	00		 mov	 ecx, DWORD PTR ?m_hListBox@CWinConsole@@0RAUHWND__@@A ; CWinConsole::m_hListBox
  0087d	51		 push	 ecx
  0087e	ff 15 00 00 00
	00		 call	 DWORD PTR __imp__SetWindowPos@28

; 336  : 
; 337  : 	InvalidateRect(CWinConsole::m_hWnd, NULL, TRUE);

  00884	6a 01		 push	 1
  00886	6a 00		 push	 0
  00888	a1 00 00 00 00	 mov	 eax, DWORD PTR ?m_hWnd@CWinConsole@@0RAUHWND__@@A ; CWinConsole::m_hWnd
  0088d	50		 push	 eax
  0088e	ff 15 00 00 00
	00		 call	 DWORD PTR __imp__InvalidateRect@12

; 338  : }

  00894	5f		 pop	 edi
  00895	5e		 pop	 esi
  00896	5b		 pop	 ebx
  00897	8b 4d fc	 mov	 ecx, DWORD PTR __$ArrayPad$[ebp]
  0089a	33 cd		 xor	 ecx, ebp
  0089c	e8 00 00 00 00	 call	 @__security_check_cookie@4
  008a1	8b e5		 mov	 esp, ebp
  008a3	5d		 pop	 ebp
  008a4	c3		 ret	 0
?ResizeControls@CWinConsole@@AAEXXZ ENDP		; CWinConsole::ResizeControls
_TEXT	ENDS
PUBLIC	?Paint@CWinConsole@@AAEXPAUHDC__@@@Z		; CWinConsole::Paint
; Function compile flags: /Odtp /ZI
_TEXT	SEGMENT
_this$ = -4						; size = 4
_hDC$ = 8						; size = 4
?Paint@CWinConsole@@AAEXPAUHDC__@@@Z PROC		; CWinConsole::Paint
; _this$ = ecx

; 341  : {

  008b0	55		 push	 ebp
  008b1	8b ec		 mov	 ebp, esp
  008b3	83 ec 44	 sub	 esp, 68			; 00000044H
  008b6	53		 push	 ebx
  008b7	56		 push	 esi
  008b8	57		 push	 edi
  008b9	89 4d fc	 mov	 DWORD PTR _this$[ebp], ecx

; 342  : 
; 343  : }

  008bc	5f		 pop	 edi
  008bd	5e		 pop	 esi
  008be	5b		 pop	 ebx
  008bf	8b e5		 mov	 esp, ebp
  008c1	5d		 pop	 ebp
  008c2	c2 04 00	 ret	 4
?Paint@CWinConsole@@AAEXPAUHDC__@@@Z ENDP		; CWinConsole::Paint
_TEXT	ENDS
PUBLIC	??_C@_0BC@CFFFCCA@Error?5in?5Command?6?$AA@	; `string'
PUBLIC	??_C@_0BH@CDHCBCKF@Error?5loading?5Command?6?$AA@ ; `string'
PUBLIC	?AddWinConsoleOption@CWinConsole@@QAEXK@Z	; CWinConsole::AddWinConsoleOption
PUBLIC	?SubtractWinConsoleOption@CWinConsole@@QAEXK@Z	; CWinConsole::SubtractWinConsoleOption
PUBLIC	?GetSubMenu@CWinConsole@@QAEPAUHMENU__@@XZ	; CWinConsole::GetSubMenu
PUBLIC	?EnableWinConsoleOption@CWinConsole@@SA_NK@Z	; CWinConsole::EnableWinConsoleOption
PUBLIC	??_C@_03CLFHJCDC@txt?$AA@			; `string'
PUBLIC	??_C@_0BF@DGNPBKOC@MU?5LOG?5Files?5?$CI?$CK?4txt?$CJ?$AA@ ; `string'
PUBLIC	??_C@_0BF@MPHFEAKA@Do?5you?5want?5to?5quit?$DP?$AA@ ; `string'
PUBLIC	??_C@_0BC@EBAFCIDC@MU?5Console?5Window?$AA@	; `string'
PUBLIC	__$ArrayPad$
PUBLIC	?MsgProc@CWinConsole@@SGJPAUHWND__@@IIJ@Z	; CWinConsole::MsgProc
EXTRN	__imp__DefWindowProcA@16:PROC
EXTRN	_lua_pcall:PROC
EXTRN	_luaL_loadbuffer:PROC
EXTRN	_strlen:PROC
EXTRN	__imp__ShowCursor@4:PROC
EXTRN	__imp__SetCursor@4:PROC
EXTRN	__imp__LoadCursorA@8:PROC
EXTRN	__imp__CheckMenuItem@12:PROC
EXTRN	__imp__GetSaveFileNameA@4:PROC
EXTRN	__imp__MessageBoxA@16:PROC
EXTRN	__imp__EndPaint@8:PROC
EXTRN	__imp__BeginPaint@8:PROC
;	COMDAT ??_C@_0BC@CFFFCCA@Error?5in?5Command?6?$AA@
CONST	SEGMENT
??_C@_0BC@CFFFCCA@Error?5in?5Command?6?$AA@ DB 'Error in Command', 0aH, 00H ; `string'
CONST	ENDS
;	COMDAT ??_C@_0BH@CDHCBCKF@Error?5loading?5Command?6?$AA@
CONST	SEGMENT
??_C@_0BH@CDHCBCKF@Error?5loading?5Command?6?$AA@ DB 'Error loading Comma'
	DB	'nd', 0aH, 00H				; `string'
CONST	ENDS
;	COMDAT ??_C@_03CLFHJCDC@txt?$AA@
CONST	SEGMENT
??_C@_03CLFHJCDC@txt?$AA@ DB 'txt', 00H			; `string'
CONST	ENDS
;	COMDAT ??_C@_0BF@DGNPBKOC@MU?5LOG?5Files?5?$CI?$CK?4txt?$CJ?$AA@
CONST	SEGMENT
??_C@_0BF@DGNPBKOC@MU?5LOG?5Files?5?$CI?$CK?4txt?$CJ?$AA@ DB 'MU LOG File'
	DB	's (*.txt)', 00H				; `string'
CONST	ENDS
;	COMDAT ??_C@_0BF@MPHFEAKA@Do?5you?5want?5to?5quit?$DP?$AA@
CONST	SEGMENT
??_C@_0BF@MPHFEAKA@Do?5you?5want?5to?5quit?$DP?$AA@ DB 'Do you want to qu'
	DB	'it?', 00H					; `string'
CONST	ENDS
;	COMDAT ??_C@_0BC@EBAFCIDC@MU?5Console?5Window?$AA@
CONST	SEGMENT
??_C@_0BC@EBAFCIDC@MU?5Console?5Window?$AA@ DB 'MU Console Window', 00H ; `string'
; Function compile flags: /Odtp /ZI
CONST	ENDS
_TEXT	SEGMENT
tv80 = -2276						; size = 4
tv64 = -2276						; size = 4
tv69 = -2273						; size = 1
_ofn$205369 = -2208					; size = 88
_szFileName$205368 = -2120				; size = 1024
_szFullPath$205367 = -1096				; size = 1024
_ps$ = -72						; size = 64
_hdc$ = -8						; size = 4
__$ArrayPad$ = -4					; size = 4
_hWnd$ = 8						; size = 4
_uMsg$ = 12						; size = 4
_wParam$ = 16						; size = 4
_lParam$ = 20						; size = 4
?MsgProc@CWinConsole@@SGJPAUHWND__@@IIJ@Z PROC		; CWinConsole::MsgProc

; 346  : {

  008d0	55		 push	 ebp
  008d1	8b ec		 mov	 ebp, esp
  008d3	81 ec e4 08 00
	00		 sub	 esp, 2276		; 000008e4H
  008d9	a1 00 00 00 00	 mov	 eax, DWORD PTR ___security_cookie
  008de	33 c5		 xor	 eax, ebp
  008e0	89 45 fc	 mov	 DWORD PTR __$ArrayPad$[ebp], eax
  008e3	53		 push	 ebx
  008e4	56		 push	 esi
  008e5	57		 push	 edi

; 347  : 	HDC hdc;
; 348  : 	PAINTSTRUCT ps;
; 349  : 
; 350  : 	switch(uMsg)

  008e6	8b 45 0c	 mov	 eax, DWORD PTR _uMsg$[ebp]
  008e9	89 85 1c f7 ff
	ff		 mov	 DWORD PTR tv64[ebp], eax
  008ef	83 bd 1c f7 ff
	ff 1c		 cmp	 DWORD PTR tv64[ebp], 28	; 0000001cH
  008f6	77 3d		 ja	 SHORT $LN32@MsgProc
  008f8	83 bd 1c f7 ff
	ff 1c		 cmp	 DWORD PTR tv64[ebp], 28	; 0000001cH
  008ff	0f 84 83 00 00
	00		 je	 $LN25@MsgProc
  00905	8b 8d 1c f7 ff
	ff		 mov	 ecx, DWORD PTR tv64[ebp]
  0090b	83 e9 02	 sub	 ecx, 2
  0090e	89 8d 1c f7 ff
	ff		 mov	 DWORD PTR tv64[ebp], ecx
  00914	83 bd 1c f7 ff
	ff 0e		 cmp	 DWORD PTR tv64[ebp], 14	; 0000000eH
  0091b	0f 87 fa 03 00
	00		 ja	 $LN26@MsgProc
  00921	8b 95 1c f7 ff
	ff		 mov	 edx, DWORD PTR tv64[ebp]
  00927	0f b6 82 00 00
	00 00		 movzx	 eax, BYTE PTR $LN34@MsgProc[edx]
  0092e	ff 24 85 00 00
	00 00		 jmp	 DWORD PTR $LN35@MsgProc[eax*4]
$LN32@MsgProc:
  00935	81 bd 1c f7 ff
	ff 14 02 00 00	 cmp	 DWORD PTR tv64[ebp], 532 ; 00000214H
  0093f	77 32		 ja	 SHORT $LN33@MsgProc
  00941	81 bd 1c f7 ff
	ff 14 02 00 00	 cmp	 DWORD PTR tv64[ebp], 532 ; 00000214H
  0094b	0f 84 f0 02 00
	00		 je	 $LN6@MsgProc
  00951	83 bd 1c f7 ff
	ff 20		 cmp	 DWORD PTR tv64[ebp], 32	; 00000020H
  00958	0f 84 f3 02 00
	00		 je	 $LN5@MsgProc
  0095e	81 bd 1c f7 ff
	ff 11 01 00 00	 cmp	 DWORD PTR tv64[ebp], 273 ; 00000111H
  00968	0f 84 ab 00 00
	00		 je	 $LN20@MsgProc
  0096e	e9 a8 03 00 00	 jmp	 $LN26@MsgProc
$LN33@MsgProc:
  00973	81 bd 1c f7 ff
	ff 04 04 00 00	 cmp	 DWORD PTR tv64[ebp], 1028 ; 00000404H
  0097d	0f 84 ef 02 00
	00		 je	 $LN4@MsgProc
  00983	e9 93 03 00 00	 jmp	 $LN26@MsgProc
$LN25@MsgProc:

; 351  : 	{
; 352  : 		case WM_ACTIVATEAPP: 
; 353  : 			CWinConsole::m_bWinIsActive = (wParam != FALSE);

  00988	83 7d 10 00	 cmp	 DWORD PTR _wParam$[ebp], 0
  0098c	0f 95 c0	 setne	 al
  0098f	a2 00 00 00 00	 mov	 BYTE PTR ?m_bWinIsActive@CWinConsole@@0_NC, al ; CWinConsole::m_bWinIsActive

; 354  : 		return 0;

  00994	33 c0		 xor	 eax, eax
  00996	e9 96 03 00 00	 jmp	 $LN28@MsgProc
$LN24@MsgProc:

; 355  :     
; 356  : 		case WM_ACTIVATE:
; 357  : 			CWinConsole::m_bWinIsActive = ( wParam == WA_ACTIVE || wParam == WA_CLICKACTIVE);

  0099b	83 7d 10 01	 cmp	 DWORD PTR _wParam$[ebp], 1
  0099f	74 0f		 je	 SHORT $LN30@MsgProc
  009a1	83 7d 10 02	 cmp	 DWORD PTR _wParam$[ebp], 2
  009a5	74 09		 je	 SHORT $LN30@MsgProc
  009a7	c6 85 1f f7 ff
	ff 00		 mov	 BYTE PTR tv69[ebp], 0
  009ae	eb 07		 jmp	 SHORT $LN31@MsgProc
$LN30@MsgProc:
  009b0	c6 85 1f f7 ff
	ff 01		 mov	 BYTE PTR tv69[ebp], 1
$LN31@MsgProc:
  009b7	8a 85 1f f7 ff
	ff		 mov	 al, BYTE PTR tv69[ebp]
  009bd	a2 00 00 00 00	 mov	 BYTE PTR ?m_bWinIsActive@CWinConsole@@0_NC, al ; CWinConsole::m_bWinIsActive

; 358  : 		return 0;

  009c2	33 c0		 xor	 eax, eax
  009c4	e9 68 03 00 00	 jmp	 $LN28@MsgProc
$LN23@MsgProc:

; 359  : 
; 360  : 		case WM_DESTROY:
; 361  : 			CWinConsole::m_bWinIsActive = false;

  009c9	c6 05 00 00 00
	00 00		 mov	 BYTE PTR ?m_bWinIsActive@CWinConsole@@0_NC, 0 ; CWinConsole::m_bWinIsActive

; 362  : 			CWinConsole::m_hWnd = NULL;

  009d0	c7 05 00 00 00
	00 00 00 00 00	 mov	 DWORD PTR ?m_hWnd@CWinConsole@@0RAUHWND__@@A, 0 ; CWinConsole::m_hWnd

; 363  : 		break;

  009da	e9 3c 03 00 00	 jmp	 $LN26@MsgProc
$LN22@MsgProc:

; 364  : 
; 365  : 		case WM_CLOSE:
; 366  :         return 0;

  009df	33 c0		 xor	 eax, eax
  009e1	e9 4b 03 00 00	 jmp	 $LN28@MsgProc
$LN21@MsgProc:

; 367  : 
; 368  : 		case WM_PAINT:
; 369  : 			hdc = BeginPaint(hWnd, &ps);

  009e6	8d 45 b8	 lea	 eax, DWORD PTR _ps$[ebp]
  009e9	50		 push	 eax
  009ea	8b 4d 08	 mov	 ecx, DWORD PTR _hWnd$[ebp]
  009ed	51		 push	 ecx
  009ee	ff 15 00 00 00
	00		 call	 DWORD PTR __imp__BeginPaint@8
  009f4	89 45 f8	 mov	 DWORD PTR _hdc$[ebp], eax

; 370  : 			g_Console->Paint(hdc);

  009f7	8b 45 f8	 mov	 eax, DWORD PTR _hdc$[ebp]
  009fa	50		 push	 eax
  009fb	8b 0d 00 00 00
	00		 mov	 ecx, DWORD PTR ?g_Console@@3PAVCWinConsole@@A ; g_Console
  00a01	e8 00 00 00 00	 call	 ?Paint@CWinConsole@@AAEXPAUHDC__@@@Z ; CWinConsole::Paint

; 371  : 			EndPaint(hWnd, &ps);

  00a06	8d 45 b8	 lea	 eax, DWORD PTR _ps$[ebp]
  00a09	50		 push	 eax
  00a0a	8b 4d 08	 mov	 ecx, DWORD PTR _hWnd$[ebp]
  00a0d	51		 push	 ecx
  00a0e	ff 15 00 00 00
	00		 call	 DWORD PTR __imp__EndPaint@8

; 372  :         break;

  00a14	e9 02 03 00 00	 jmp	 $LN26@MsgProc
$LN20@MsgProc:

; 373  : 
; 374  : 		case WM_COMMAND:
; 375  : 		{
; 376  : 			switch(LOWORD(wParam))

  00a19	8b 45 10	 mov	 eax, DWORD PTR _wParam$[ebp]
  00a1c	25 ff ff 00 00	 and	 eax, 65535		; 0000ffffH
  00a21	0f b7 c8	 movzx	 ecx, ax
  00a24	89 8d 1c f7 ff
	ff		 mov	 DWORD PTR tv80[ebp], ecx
  00a2a	8b 95 1c f7 ff
	ff		 mov	 edx, DWORD PTR tv80[ebp]
  00a30	81 ea b8 0b 00
	00		 sub	 edx, 3000		; 00000bb8H
  00a36	89 95 1c f7 ff
	ff		 mov	 DWORD PTR tv80[ebp], edx
  00a3c	83 bd 1c f7 ff
	ff 05		 cmp	 DWORD PTR tv80[ebp], 5
  00a43	0f 87 f3 01 00
	00		 ja	 $LN18@MsgProc
  00a49	8b 85 1c f7 ff
	ff		 mov	 eax, DWORD PTR tv80[ebp]
  00a4f	ff 24 85 00 00
	00 00		 jmp	 DWORD PTR $LN36@MsgProc[eax*4]
$LN17@MsgProc:

; 377  : 			{
; 378  : 				case IDM_WINCONS_EXIT:
; 379  : 					if ( MessageBox(hWnd, "Do you want to quit?", "MU Console Window", 
; 380  : 							MB_YESNO | MB_ICONQUESTION) == IDYES )

  00a56	6a 24		 push	 36			; 00000024H
  00a58	68 00 00 00 00	 push	 OFFSET ??_C@_0BC@EBAFCIDC@MU?5Console?5Window?$AA@
  00a5d	68 00 00 00 00	 push	 OFFSET ??_C@_0BF@MPHFEAKA@Do?5you?5want?5to?5quit?$DP?$AA@
  00a62	8b 45 08	 mov	 eax, DWORD PTR _hWnd$[ebp]
  00a65	50		 push	 eax
  00a66	ff 15 00 00 00
	00		 call	 DWORD PTR __imp__MessageBoxA@16
  00a6c	83 f8 06	 cmp	 eax, 6
  00a6f	75 0c		 jne	 SHORT $LN16@MsgProc

; 381  : 					{
; 382  : 						StopConsole();

  00a71	e8 00 00 00 00	 call	 ?StopConsole@CWinConsole@@SAXXZ ; CWinConsole::StopConsole

; 383  : 						return 0;

  00a76	33 c0		 xor	 eax, eax
  00a78	e9 b4 02 00 00	 jmp	 $LN28@MsgProc
$LN16@MsgProc:

; 384  : 					}
; 385  : 				break;

  00a7d	e9 ba 01 00 00	 jmp	 $LN18@MsgProc
$LN15@MsgProc:

; 386  : 
; 387  : 				case IDM_WINCONS_SAVE:
; 388  : 				{
; 389  : 					char szFullPath[1024] = {0};

  00a82	c6 85 b8 fb ff
	ff 00		 mov	 BYTE PTR _szFullPath$205367[ebp], 0
  00a89	68 ff 03 00 00	 push	 1023			; 000003ffH
  00a8e	6a 00		 push	 0
  00a90	8d 85 b9 fb ff
	ff		 lea	 eax, DWORD PTR _szFullPath$205367[ebp+1]
  00a96	50		 push	 eax
  00a97	e8 00 00 00 00	 call	 _memset
  00a9c	83 c4 0c	 add	 esp, 12			; 0000000cH

; 390  : 					char szFileName[1024] = {0};	// not used

  00a9f	c6 85 b8 f7 ff
	ff 00		 mov	 BYTE PTR _szFileName$205368[ebp], 0
  00aa6	68 ff 03 00 00	 push	 1023			; 000003ffH
  00aab	6a 00		 push	 0
  00aad	8d 85 b9 f7 ff
	ff		 lea	 eax, DWORD PTR _szFileName$205368[ebp+1]
  00ab3	50		 push	 eax
  00ab4	e8 00 00 00 00	 call	 _memset
  00ab9	83 c4 0c	 add	 esp, 12			; 0000000cH

; 391  : 					OPENFILENAME ofn;
; 392  : 					ZeroMemory(&ofn, sizeof(ofn));

  00abc	6a 58		 push	 88			; 00000058H
  00abe	6a 00		 push	 0
  00ac0	8d 85 60 f7 ff
	ff		 lea	 eax, DWORD PTR _ofn$205369[ebp]
  00ac6	50		 push	 eax
  00ac7	e8 00 00 00 00	 call	 _memset
  00acc	83 c4 0c	 add	 esp, 12			; 0000000cH

; 393  : 					ofn.lStructSize = sizeof(ofn);

  00acf	c7 85 60 f7 ff
	ff 58 00 00 00	 mov	 DWORD PTR _ofn$205369[ebp], 88 ; 00000058H

; 394  : 					ofn.hwndOwner = NULL;

  00ad9	c7 85 64 f7 ff
	ff 00 00 00 00	 mov	 DWORD PTR _ofn$205369[ebp+4], 0

; 395  : 					ofn.hInstance = NULL;

  00ae3	c7 85 68 f7 ff
	ff 00 00 00 00	 mov	 DWORD PTR _ofn$205369[ebp+8], 0

; 396  : 					ofn.lpstrFilter = "MU LOG Files (*.txt)";

  00aed	c7 85 6c f7 ff
	ff 00 00 00 00	 mov	 DWORD PTR _ofn$205369[ebp+12], OFFSET ??_C@_0BF@DGNPBKOC@MU?5LOG?5Files?5?$CI?$CK?4txt?$CJ?$AA@

; 397  : 					ofn.lpstrDefExt = "txt";

  00af7	c7 85 9c f7 ff
	ff 00 00 00 00	 mov	 DWORD PTR _ofn$205369[ebp+60], OFFSET ??_C@_03CLFHJCDC@txt?$AA@

; 398  : 					ofn.lpstrFile = szFullPath;

  00b01	8d 85 b8 fb ff
	ff		 lea	 eax, DWORD PTR _szFullPath$205367[ebp]
  00b07	89 85 7c f7 ff
	ff		 mov	 DWORD PTR _ofn$205369[ebp+28], eax

; 399  : 					ofn.nMaxFile = sizeof(szFullPath);	// in asm value 1280 is used

  00b0d	c7 85 80 f7 ff
	ff 00 04 00 00	 mov	 DWORD PTR _ofn$205369[ebp+32], 1024 ; 00000400H

; 400  : 
; 401  : 					if ( GetSaveFileName(&ofn) != 0 )

  00b17	8d 85 60 f7 ff
	ff		 lea	 eax, DWORD PTR _ofn$205369[ebp]
  00b1d	50		 push	 eax
  00b1e	ff 15 00 00 00
	00		 call	 DWORD PTR __imp__GetSaveFileNameA@4
  00b24	85 c0		 test	 eax, eax
  00b26	74 12		 je	 SHORT $LN14@MsgProc

; 402  : 						g_Console->SaveDbgWnd(szFullPath);

  00b28	8d 85 b8 fb ff
	ff		 lea	 eax, DWORD PTR _szFullPath$205367[ebp]
  00b2e	50		 push	 eax
  00b2f	8b 0d 00 00 00
	00		 mov	 ecx, DWORD PTR ?g_Console@@3PAVCWinConsole@@A ; g_Console
  00b35	e8 00 00 00 00	 call	 ?SaveDbgWnd@CWinConsole@@QAEXPBD@Z ; CWinConsole::SaveDbgWnd
$LN14@MsgProc:

; 403  : 				}
; 404  : 				break;

  00b3a	e9 fd 00 00 00	 jmp	 $LN18@MsgProc
$LN13@MsgProc:

; 405  : 
; 406  : 				case IDM_WINCONS_CLEAR:
; 407  : 					CWinConsole::ClearDbgWnd();

  00b3f	e8 00 00 00 00	 call	 ?ClearDbgWnd@CWinConsole@@SAXXZ ; CWinConsole::ClearDbgWnd

; 408  : 				break;

  00b44	e9 f3 00 00 00	 jmp	 $LN18@MsgProc
$LN12@MsgProc:

; 409  : 
; 410  : 				case IDM_WINCONS_DEBUG:
; 411  : 					if ( CWinConsole::EnableWinConsoleOption(2) )

  00b49	6a 02		 push	 2
  00b4b	e8 00 00 00 00	 call	 ?EnableWinConsoleOption@CWinConsole@@SA_NK@Z ; CWinConsole::EnableWinConsoleOption
  00b50	83 c4 04	 add	 esp, 4
  00b53	0f b6 c0	 movzx	 eax, al
  00b56	85 c0		 test	 eax, eax
  00b58	74 28		 je	 SHORT $LN11@MsgProc

; 412  : 					{
; 413  : 						CheckMenuItem(g_Console->GetSubMenu(), IDM_WINCONS_DEBUG, MF_UNCHECKED);

  00b5a	6a 00		 push	 0
  00b5c	68 bc 0b 00 00	 push	 3004			; 00000bbcH
  00b61	8b 0d 00 00 00
	00		 mov	 ecx, DWORD PTR ?g_Console@@3PAVCWinConsole@@A ; g_Console
  00b67	e8 00 00 00 00	 call	 ?GetSubMenu@CWinConsole@@QAEPAUHMENU__@@XZ ; CWinConsole::GetSubMenu
  00b6c	50		 push	 eax
  00b6d	ff 15 00 00 00
	00		 call	 DWORD PTR __imp__CheckMenuItem@12

; 414  : 						g_Console->SubtractWinConsoleOption(2);

  00b73	6a 02		 push	 2
  00b75	8b 0d 00 00 00
	00		 mov	 ecx, DWORD PTR ?g_Console@@3PAVCWinConsole@@A ; g_Console
  00b7b	e8 00 00 00 00	 call	 ?SubtractWinConsoleOption@CWinConsole@@QAEXK@Z ; CWinConsole::SubtractWinConsoleOption

; 415  : 					}
; 416  : 					else

  00b80	eb 26		 jmp	 SHORT $LN10@MsgProc
$LN11@MsgProc:

; 417  : 					{
; 418  : 						CheckMenuItem(g_Console->GetSubMenu(), IDM_WINCONS_DEBUG, MF_CHECKED);

  00b82	6a 08		 push	 8
  00b84	68 bc 0b 00 00	 push	 3004			; 00000bbcH
  00b89	8b 0d 00 00 00
	00		 mov	 ecx, DWORD PTR ?g_Console@@3PAVCWinConsole@@A ; g_Console
  00b8f	e8 00 00 00 00	 call	 ?GetSubMenu@CWinConsole@@QAEPAUHMENU__@@XZ ; CWinConsole::GetSubMenu
  00b94	50		 push	 eax
  00b95	ff 15 00 00 00
	00		 call	 DWORD PTR __imp__CheckMenuItem@12

; 419  : 						g_Console->AddWinConsoleOption(2);

  00b9b	6a 02		 push	 2
  00b9d	8b 0d 00 00 00
	00		 mov	 ecx, DWORD PTR ?g_Console@@3PAVCWinConsole@@A ; g_Console
  00ba3	e8 00 00 00 00	 call	 ?AddWinConsoleOption@CWinConsole@@QAEXK@Z ; CWinConsole::AddWinConsoleOption
$LN10@MsgProc:

; 420  : 					}
; 421  : 				break;

  00ba8	e9 8f 00 00 00	 jmp	 $LN18@MsgProc
$LN9@MsgProc:

; 422  : 
; 423  : 				case IDM_WINCONS_TOPMOST:
; 424  : 					if ( CWinConsole::EnableWinConsoleOption(4) )

  00bad	6a 04		 push	 4
  00baf	e8 00 00 00 00	 call	 ?EnableWinConsoleOption@CWinConsole@@SA_NK@Z ; CWinConsole::EnableWinConsoleOption
  00bb4	83 c4 04	 add	 esp, 4
  00bb7	0f b6 c0	 movzx	 eax, al
  00bba	85 c0		 test	 eax, eax
  00bbc	74 40		 je	 SHORT $LN8@MsgProc

; 425  : 					{
; 426  : 						CheckMenuItem(g_Console->GetSubMenu(), IDM_WINCONS_TOPMOST, MF_UNCHECKED);

  00bbe	6a 00		 push	 0
  00bc0	68 bd 0b 00 00	 push	 3005			; 00000bbdH
  00bc5	8b 0d 00 00 00
	00		 mov	 ecx, DWORD PTR ?g_Console@@3PAVCWinConsole@@A ; g_Console
  00bcb	e8 00 00 00 00	 call	 ?GetSubMenu@CWinConsole@@QAEPAUHMENU__@@XZ ; CWinConsole::GetSubMenu
  00bd0	50		 push	 eax
  00bd1	ff 15 00 00 00
	00		 call	 DWORD PTR __imp__CheckMenuItem@12

; 427  : 						g_Console->SubtractWinConsoleOption(2); // bug? maybe 4

  00bd7	6a 02		 push	 2
  00bd9	8b 0d 00 00 00
	00		 mov	 ecx, DWORD PTR ?g_Console@@3PAVCWinConsole@@A ; g_Console
  00bdf	e8 00 00 00 00	 call	 ?SubtractWinConsoleOption@CWinConsole@@QAEXK@Z ; CWinConsole::SubtractWinConsoleOption

; 428  : 
; 429  : 						SetWindowPos(CWinConsole::m_hWnd, (HWND)HWND_NOTOPMOST, 
; 430  : 								0, 0, 0, 0, SWP_NOACTIVATE|SWP_NOMOVE|SWP_NOSIZE);

  00be4	6a 13		 push	 19			; 00000013H
  00be6	6a 00		 push	 0
  00be8	6a 00		 push	 0
  00bea	6a 00		 push	 0
  00bec	6a 00		 push	 0
  00bee	6a fe		 push	 -2			; fffffffeH
  00bf0	a1 00 00 00 00	 mov	 eax, DWORD PTR ?m_hWnd@CWinConsole@@0RAUHWND__@@A ; CWinConsole::m_hWnd
  00bf5	50		 push	 eax
  00bf6	ff 15 00 00 00
	00		 call	 DWORD PTR __imp__SetWindowPos@28

; 431  : 					}
; 432  : 					else

  00bfc	eb 3e		 jmp	 SHORT $LN18@MsgProc
$LN8@MsgProc:

; 433  : 					{
; 434  : 						CheckMenuItem(g_Console->GetSubMenu(), IDM_WINCONS_TOPMOST, MF_CHECKED);

  00bfe	6a 08		 push	 8
  00c00	68 bd 0b 00 00	 push	 3005			; 00000bbdH
  00c05	8b 0d 00 00 00
	00		 mov	 ecx, DWORD PTR ?g_Console@@3PAVCWinConsole@@A ; g_Console
  00c0b	e8 00 00 00 00	 call	 ?GetSubMenu@CWinConsole@@QAEPAUHMENU__@@XZ ; CWinConsole::GetSubMenu
  00c10	50		 push	 eax
  00c11	ff 15 00 00 00
	00		 call	 DWORD PTR __imp__CheckMenuItem@12

; 435  : 						g_Console->AddWinConsoleOption(4);

  00c17	6a 04		 push	 4
  00c19	8b 0d 00 00 00
	00		 mov	 ecx, DWORD PTR ?g_Console@@3PAVCWinConsole@@A ; g_Console
  00c1f	e8 00 00 00 00	 call	 ?AddWinConsoleOption@CWinConsole@@QAEXK@Z ; CWinConsole::AddWinConsoleOption

; 436  : 
; 437  : 						SetWindowPos(CWinConsole::m_hWnd, (HWND)HWND_TOPMOST, 
; 438  : 								0, 0, 0, 0, SWP_NOACTIVATE|SWP_NOMOVE|SWP_NOSIZE);

  00c24	6a 13		 push	 19			; 00000013H
  00c26	6a 00		 push	 0
  00c28	6a 00		 push	 0
  00c2a	6a 00		 push	 0
  00c2c	6a 00		 push	 0
  00c2e	6a ff		 push	 -1
  00c30	a1 00 00 00 00	 mov	 eax, DWORD PTR ?m_hWnd@CWinConsole@@0RAUHWND__@@A ; CWinConsole::m_hWnd
  00c35	50		 push	 eax
  00c36	ff 15 00 00 00
	00		 call	 DWORD PTR __imp__SetWindowPos@28
$LN18@MsgProc:

; 439  : 					}
; 440  : 				break;
; 441  : 
; 442  : 			} //  switch(LOWORD(wParam))
; 443  : 
; 444  : 		}
; 445  : 		break; // case WM_COMMAND:

  00c3c	e9 da 00 00 00	 jmp	 $LN26@MsgProc
$LN6@MsgProc:

; 446  : 
; 447  : 
; 448  : 		case WM_SIZING:
; 449  : 		case WM_SIZE:
; 450  : 			g_Console->ResizeControls();

  00c41	8b 0d 00 00 00
	00		 mov	 ecx, DWORD PTR ?g_Console@@3PAVCWinConsole@@A ; g_Console
  00c47	e8 00 00 00 00	 call	 ?ResizeControls@CWinConsole@@AAEXXZ ; CWinConsole::ResizeControls

; 451  : 		break;

  00c4c	e9 ca 00 00 00	 jmp	 $LN26@MsgProc
$LN5@MsgProc:

; 452  : 
; 453  : 		case WM_SETCURSOR:
; 454  : 			SetCursor(LoadCursor(NULL, (LPCSTR)IDC_ARROW));

  00c51	68 00 7f 00 00	 push	 32512			; 00007f00H
  00c56	6a 00		 push	 0
  00c58	ff 15 00 00 00
	00		 call	 DWORD PTR __imp__LoadCursorA@8
  00c5e	50		 push	 eax
  00c5f	ff 15 00 00 00
	00		 call	 DWORD PTR __imp__SetCursor@4

; 455  : 			ShowCursor(TRUE);

  00c65	6a 01		 push	 1
  00c67	ff 15 00 00 00
	00		 call	 DWORD PTR __imp__ShowCursor@4

; 456  : 		break;

  00c6d	e9 a9 00 00 00	 jmp	 $LN26@MsgProc
$LN4@MsgProc:

; 457  : 
; 458  : 		case 1028:	// 0x404
; 459  : 			CWinConsole::Write(CWinConsole::m_CommandBuffer);

  00c72	68 00 00 00 00	 push	 OFFSET ?m_CommandBuffer@CWinConsole@@0PADA ; CWinConsole::m_CommandBuffer
  00c77	e8 00 00 00 00	 call	 ?Write@CWinConsole@@SAXPBDZZ ; CWinConsole::Write
  00c7c	83 c4 04	 add	 esp, 4

; 460  : 
; 461  : 			if ( g_Console->m_pScriptContext )

  00c7f	a1 00 00 00 00	 mov	 eax, DWORD PTR ?g_Console@@3PAVCWinConsole@@A ; g_Console
  00c84	83 78 14 00	 cmp	 DWORD PTR [eax+20], 0
  00c88	74 7d		 je	 SHORT $LN3@MsgProc

; 462  : 			{
; 463  : 				if ( luaL_loadbuffer(g_Console->m_pScriptContext, CWinConsole::m_CommandBuffer, strlen(CWinConsole::m_CommandBuffer), NULL) )

  00c8a	6a 00		 push	 0
  00c8c	68 00 00 00 00	 push	 OFFSET ?m_CommandBuffer@CWinConsole@@0PADA ; CWinConsole::m_CommandBuffer
  00c91	e8 00 00 00 00	 call	 _strlen
  00c96	83 c4 04	 add	 esp, 4
  00c99	50		 push	 eax
  00c9a	68 00 00 00 00	 push	 OFFSET ?m_CommandBuffer@CWinConsole@@0PADA ; CWinConsole::m_CommandBuffer
  00c9f	a1 00 00 00 00	 mov	 eax, DWORD PTR ?g_Console@@3PAVCWinConsole@@A ; g_Console
  00ca4	8b 48 14	 mov	 ecx, DWORD PTR [eax+20]
  00ca7	51		 push	 ecx
  00ca8	e8 00 00 00 00	 call	 _luaL_loadbuffer
  00cad	83 c4 10	 add	 esp, 16			; 00000010H
  00cb0	85 c0		 test	 eax, eax
  00cb2	74 0d		 je	 SHORT $LN2@MsgProc

; 464  : 					CWinConsole::Write("Error loading Command\n");

  00cb4	68 00 00 00 00	 push	 OFFSET ??_C@_0BH@CDHCBCKF@Error?5loading?5Command?6?$AA@
  00cb9	e8 00 00 00 00	 call	 ?Write@CWinConsole@@SAXPBDZZ ; CWinConsole::Write
  00cbe	83 c4 04	 add	 esp, 4
$LN2@MsgProc:

; 465  : 
; 466  : 				if ( lua_pcall(g_Console->m_pScriptContext, 0, -1, 0) )

  00cc1	6a 00		 push	 0
  00cc3	6a ff		 push	 -1
  00cc5	6a 00		 push	 0
  00cc7	a1 00 00 00 00	 mov	 eax, DWORD PTR ?g_Console@@3PAVCWinConsole@@A ; g_Console
  00ccc	8b 48 14	 mov	 ecx, DWORD PTR [eax+20]
  00ccf	51		 push	 ecx
  00cd0	e8 00 00 00 00	 call	 _lua_pcall
  00cd5	83 c4 10	 add	 esp, 16			; 00000010H
  00cd8	85 c0		 test	 eax, eax
  00cda	74 2b		 je	 SHORT $LN3@MsgProc

; 467  : 				{
; 468  : 					CWinConsole::Write("Error in Command\n");

  00cdc	68 00 00 00 00	 push	 OFFSET ??_C@_0BC@CFFFCCA@Error?5in?5Command?6?$AA@
  00ce1	e8 00 00 00 00	 call	 ?Write@CWinConsole@@SAXPBDZZ ; CWinConsole::Write
  00ce6	83 c4 04	 add	 esp, 4

; 469  : 					CWinConsole::Write(luaL_checklstring(g_Console->m_pScriptContext, -1, NULL));

  00ce9	6a 00		 push	 0
  00ceb	6a ff		 push	 -1
  00ced	a1 00 00 00 00	 mov	 eax, DWORD PTR ?g_Console@@3PAVCWinConsole@@A ; g_Console
  00cf2	8b 48 14	 mov	 ecx, DWORD PTR [eax+20]
  00cf5	51		 push	 ecx
  00cf6	e8 00 00 00 00	 call	 _luaL_checklstring
  00cfb	83 c4 0c	 add	 esp, 12			; 0000000cH
  00cfe	50		 push	 eax
  00cff	e8 00 00 00 00	 call	 ?Write@CWinConsole@@SAXPBDZZ ; CWinConsole::Write
  00d04	83 c4 04	 add	 esp, 4
$LN3@MsgProc:

; 470  : 				}
; 471  : 			}
; 472  : 
; 473  : 			ZeroMemory(CWinConsole::m_CommandBuffer, sizeof(CWinConsole::m_CommandBuffer));

  00d07	68 00 04 00 00	 push	 1024			; 00000400H
  00d0c	6a 00		 push	 0
  00d0e	68 00 00 00 00	 push	 OFFSET ?m_CommandBuffer@CWinConsole@@0PADA ; CWinConsole::m_CommandBuffer
  00d13	e8 00 00 00 00	 call	 _memset
  00d18	83 c4 0c	 add	 esp, 12			; 0000000cH
$LN26@MsgProc:

; 474  : 		break;
; 475  : 
; 476  : 	} // switch(uMsg)
; 477  : 
; 478  : 
; 479  : 	return DefWindowProc(hWnd, uMsg, wParam, lParam);

  00d1b	8b 45 14	 mov	 eax, DWORD PTR _lParam$[ebp]
  00d1e	50		 push	 eax
  00d1f	8b 4d 10	 mov	 ecx, DWORD PTR _wParam$[ebp]
  00d22	51		 push	 ecx
  00d23	8b 55 0c	 mov	 edx, DWORD PTR _uMsg$[ebp]
  00d26	52		 push	 edx
  00d27	8b 45 08	 mov	 eax, DWORD PTR _hWnd$[ebp]
  00d2a	50		 push	 eax
  00d2b	ff 15 00 00 00
	00		 call	 DWORD PTR __imp__DefWindowProcA@16
$LN28@MsgProc:

; 480  : }

  00d31	5f		 pop	 edi
  00d32	5e		 pop	 esi
  00d33	5b		 pop	 ebx
  00d34	8b 4d fc	 mov	 ecx, DWORD PTR __$ArrayPad$[ebp]
  00d37	33 cd		 xor	 ecx, ebp
  00d39	e8 00 00 00 00	 call	 @__security_check_cookie@4
  00d3e	8b e5		 mov	 esp, ebp
  00d40	5d		 pop	 ebp
  00d41	c2 10 00	 ret	 16			; 00000010H
$LN35@MsgProc:
  00d44	00 00 00 00	 DD	 $LN23@MsgProc
  00d48	00 00 00 00	 DD	 $LN6@MsgProc
  00d4c	00 00 00 00	 DD	 $LN24@MsgProc
  00d50	00 00 00 00	 DD	 $LN21@MsgProc
  00d54	00 00 00 00	 DD	 $LN22@MsgProc
  00d58	00 00 00 00	 DD	 $LN26@MsgProc
$LN34@MsgProc:
  00d5c	00		 DB	 0
  00d5d	05		 DB	 5
  00d5e	05		 DB	 5
  00d5f	01		 DB	 1
  00d60	02		 DB	 2
  00d61	05		 DB	 5
  00d62	05		 DB	 5
  00d63	05		 DB	 5
  00d64	05		 DB	 5
  00d65	05		 DB	 5
  00d66	05		 DB	 5
  00d67	05		 DB	 5
  00d68	05		 DB	 5
  00d69	03		 DB	 3
  00d6a	04		 DB	 4
  00d6b	90		 npad	 1
$LN36@MsgProc:
  00d6c	00 00 00 00	 DD	 $LN17@MsgProc
  00d70	00 00 00 00	 DD	 $LN15@MsgProc
  00d74	00 00 00 00	 DD	 $LN13@MsgProc
  00d78	00 00 00 00	 DD	 $LN18@MsgProc
  00d7c	00 00 00 00	 DD	 $LN12@MsgProc
  00d80	00 00 00 00	 DD	 $LN9@MsgProc
?MsgProc@CWinConsole@@SGJPAUHWND__@@IIJ@Z ENDP		; CWinConsole::MsgProc
; Function compile flags: /Odtp /ZI
_this$ = -4						; size = 4
?GetSubMenu@CWinConsole@@QAEPAUHMENU__@@XZ PROC		; CWinConsole::GetSubMenu
; _this$ = ecx

; 484  : {

  00d90	55		 push	 ebp
  00d91	8b ec		 mov	 ebp, esp
  00d93	83 ec 44	 sub	 esp, 68			; 00000044H
  00d96	53		 push	 ebx
  00d97	56		 push	 esi
  00d98	57		 push	 edi
  00d99	89 4d fc	 mov	 DWORD PTR _this$[ebp], ecx

; 485  : 	return m_hSubMenu;

  00d9c	8b 45 fc	 mov	 eax, DWORD PTR _this$[ebp]
  00d9f	8b 40 0c	 mov	 eax, DWORD PTR [eax+12]

; 486  : }

  00da2	5f		 pop	 edi
  00da3	5e		 pop	 esi
  00da4	5b		 pop	 ebx
  00da5	8b e5		 mov	 esp, ebp
  00da7	5d		 pop	 ebp
  00da8	c3		 ret	 0
?GetSubMenu@CWinConsole@@QAEPAUHMENU__@@XZ ENDP		; CWinConsole::GetSubMenu
_TEXT	ENDS
PUBLIC	__$ArrayPad$
EXTRN	__imp__ReleaseDC@8:PROC
EXTRN	__imp__GetTextExtentPoint32A@16:PROC
EXTRN	__imp__GetDC@4:PROC
EXTRN	__imp__OutputDebugStringA@4:PROC
EXTRN	__imp__SendMessageTimeoutA@28:PROC
EXTRN	_vsprintf:PROC
EXTRN	__imp__Sleep@4:PROC
; Function compile flags: /Odtp /ZI
_TEXT	SEGMENT
_lpdwResult$205447 = -2124				; size = 4
_TextSize$205444 = -2120				; size = 8
_hDC$205442 = -2112					; size = 4
_dwLine$205441 = -2108					; size = 4
_lResult$205436 = -2104					; size = 4
_lpdwResult$205435 = -2100				; size = 4
_TextSize$205432 = -2096				; size = 8
_hDC$205430 = -2088					; size = 4
_dwLine$205429 = -2084					; size = 4
_lResult$205424 = -2080					; size = 4
_lpdwResult$205423 = -2076				; size = 4
_i$205418 = -2072					; size = 4
_tempMaxTextWidth$205416 = -2068			; size = 4
_indx$205415 = -2064					; size = 4
_buf$205414 = -2060					; size = 1024
_szBuffer$205412 = -1036				; size = 1024
_iTimeOut$ = -12					; size = 4
_vl$ = -8						; size = 4
__$ArrayPad$ = -4					; size = 4
_pString$ = 8						; size = 4
?Write@CWinConsole@@SAXPBDZZ PROC			; CWinConsole::Write

; 489  : {

  00db0	55		 push	 ebp
  00db1	8b ec		 mov	 ebp, esp
  00db3	81 ec 8c 08 00
	00		 sub	 esp, 2188		; 0000088cH
  00db9	a1 00 00 00 00	 mov	 eax, DWORD PTR ___security_cookie
  00dbe	33 c5		 xor	 eax, ebp
  00dc0	89 45 fc	 mov	 DWORD PTR __$ArrayPad$[ebp], eax
  00dc3	53		 push	 ebx
  00dc4	56		 push	 esi
  00dc5	57		 push	 edi

; 490  : 	va_list vl;
; 491  : 
; 492  : 	va_start(vl, pString);

  00dc6	8d 45 0c	 lea	 eax, DWORD PTR _pString$[ebp+4]
  00dc9	89 45 f8	 mov	 DWORD PTR _vl$[ebp], eax

; 493  : 
; 494  : 	int iTimeOut = 10;

  00dcc	c7 45 f4 0a 00
	00 00		 mov	 DWORD PTR _iTimeOut$[ebp], 10 ; 0000000aH

; 495  : 
; 496  : 	EnterCriticalSection(&WinConCritical);

  00dd3	68 00 00 00 00	 push	 OFFSET ?WinConCritical@@3U_RTL_CRITICAL_SECTION@@A ; WinConCritical
  00dd8	ff 15 00 00 00
	00		 call	 DWORD PTR __imp__EnterCriticalSection@4

; 497  : 
; 498  : 	if ( pString && g_Console && CWinConsole::m_hWnd )

  00dde	83 7d 08 00	 cmp	 DWORD PTR _pString$[ebp], 0
  00de2	0f 84 01 04 00
	00		 je	 $LN19@Write
  00de8	83 3d 00 00 00
	00 00		 cmp	 DWORD PTR ?g_Console@@3PAVCWinConsole@@A, 0 ; g_Console
  00def	0f 84 f4 03 00
	00		 je	 $LN19@Write
  00df5	83 3d 00 00 00
	00 00		 cmp	 DWORD PTR ?m_hWnd@CWinConsole@@0RAUHWND__@@A, 0 ; CWinConsole::m_hWnd
  00dfc	0f 84 e7 03 00
	00		 je	 $LN19@Write

; 499  : 	{
; 500  : 		if( !CWinConsole::EnableWinConsoleOption(1) )

  00e02	6a 01		 push	 1
  00e04	e8 00 00 00 00	 call	 ?EnableWinConsoleOption@CWinConsole@@SA_NK@Z ; CWinConsole::EnableWinConsoleOption
  00e09	83 c4 04	 add	 esp, 4
  00e0c	0f b6 c0	 movzx	 eax, al
  00e0f	85 c0		 test	 eax, eax
  00e11	75 05		 jne	 SHORT $LN18@Write

; 501  : 			return; // trick or dead-lock provoking?

  00e13	e9 dc 03 00 00	 jmp	 $LN20@Write
$LN18@Write:

; 502  : 
; 503  : 		char szBuffer[1024]={0};

  00e18	c6 85 f4 fb ff
	ff 00		 mov	 BYTE PTR _szBuffer$205412[ebp], 0
  00e1f	68 ff 03 00 00	 push	 1023			; 000003ffH
  00e24	6a 00		 push	 0
  00e26	8d 85 f5 fb ff
	ff		 lea	 eax, DWORD PTR _szBuffer$205412[ebp+1]
  00e2c	50		 push	 eax
  00e2d	e8 00 00 00 00	 call	 _memset
  00e32	83 c4 0c	 add	 esp, 12			; 0000000cH

; 504  : 
; 505  : 		Sleep(1);

  00e35	6a 01		 push	 1
  00e37	ff 15 00 00 00
	00		 call	 DWORD PTR __imp__Sleep@4

; 506  : 
; 507  : 		vsprintf(szBuffer, pString, vl);

  00e3d	8b 45 f8	 mov	 eax, DWORD PTR _vl$[ebp]
  00e40	50		 push	 eax
  00e41	8b 4d 08	 mov	 ecx, DWORD PTR _pString$[ebp]
  00e44	51		 push	 ecx
  00e45	8d 95 f4 fb ff
	ff		 lea	 edx, DWORD PTR _szBuffer$205412[ebp]
  00e4b	52		 push	 edx
  00e4c	e8 00 00 00 00	 call	 _vsprintf
  00e51	83 c4 0c	 add	 esp, 12			; 0000000cH

; 508  : 		va_end(vl);

  00e54	c7 45 f8 00 00
	00 00		 mov	 DWORD PTR _vl$[ebp], 0

; 509  : 
; 510  : 		char buf[1024]={0};

  00e5b	c6 85 f4 f7 ff
	ff 00		 mov	 BYTE PTR _buf$205414[ebp], 0
  00e62	68 ff 03 00 00	 push	 1023			; 000003ffH
  00e67	6a 00		 push	 0
  00e69	8d 85 f5 f7 ff
	ff		 lea	 eax, DWORD PTR _buf$205414[ebp+1]
  00e6f	50		 push	 eax
  00e70	e8 00 00 00 00	 call	 _memset
  00e75	83 c4 0c	 add	 esp, 12			; 0000000cH

; 511  : 
; 512  : 
; 513  : 		int indx = 0;

  00e78	c7 85 f0 f7 ff
	ff 00 00 00 00	 mov	 DWORD PTR _indx$205415[ebp], 0

; 514  : 		int tempMaxTextWidth = 0;

  00e82	c7 85 ec f7 ff
	ff 00 00 00 00	 mov	 DWORD PTR _tempMaxTextWidth$205416[ebp], 0

; 515  : 
; 516  : 		// strange
; 517  : 		if ( strlen(szBuffer) > WINCONSOLE_LINE_LENGTH )

  00e8c	8d 85 f4 fb ff
	ff		 lea	 eax, DWORD PTR _szBuffer$205412[ebp]
  00e92	50		 push	 eax
  00e93	e8 00 00 00 00	 call	 _strlen
  00e98	83 c4 04	 add	 esp, 4
  00e9b	3d 00 04 00 00	 cmp	 eax, 1024		; 00000400H
  00ea0	76 05		 jbe	 SHORT $LN17@Write

; 518  : 		{
; 519  : 			//TRACE_LOG("CWinConsole::Write - OverFlow");
; 520  : 
; 521  : 			return; // trick or dead-lock provoking?

  00ea2	e9 4d 03 00 00	 jmp	 $LN20@Write
$LN17@Write:

; 522  : 		}
; 523  : 
; 524  : 		for (int i = 0; i < strlen(szBuffer); ++i )

  00ea7	c7 85 e8 f7 ff
	ff 00 00 00 00	 mov	 DWORD PTR _i$205418[ebp], 0
  00eb1	eb 0f		 jmp	 SHORT $LN16@Write
$LN15@Write:
  00eb3	8b 85 e8 f7 ff
	ff		 mov	 eax, DWORD PTR _i$205418[ebp]
  00eb9	83 c0 01	 add	 eax, 1
  00ebc	89 85 e8 f7 ff
	ff		 mov	 DWORD PTR _i$205418[ebp], eax
$LN16@Write:
  00ec2	8d 85 f4 fb ff
	ff		 lea	 eax, DWORD PTR _szBuffer$205412[ebp]
  00ec8	50		 push	 eax
  00ec9	e8 00 00 00 00	 call	 _strlen
  00ece	83 c4 04	 add	 esp, 4
  00ed1	39 85 e8 f7 ff
	ff		 cmp	 DWORD PTR _i$205418[ebp], eax
  00ed7	0f 83 78 01 00
	00		 jae	 $LN14@Write

; 525  : 		{
; 526  : 			Sleep(1);

  00edd	6a 01		 push	 1
  00edf	ff 15 00 00 00
	00		 call	 DWORD PTR __imp__Sleep@4

; 527  : 
; 528  : 			if ( szBuffer[i] != '\n' )

  00ee5	8b 85 e8 f7 ff
	ff		 mov	 eax, DWORD PTR _i$205418[ebp]
  00eeb	0f be 8c 05 f4
	fb ff ff	 movsx	 ecx, BYTE PTR _szBuffer$205412[ebp+eax]
  00ef3	83 f9 0a	 cmp	 ecx, 10			; 0000000aH
  00ef6	74 2b		 je	 SHORT $LN13@Write

; 529  : 			{
; 530  : 				buf[indx++] = szBuffer[i];

  00ef8	8b 85 f0 f7 ff
	ff		 mov	 eax, DWORD PTR _indx$205415[ebp]
  00efe	8b 8d e8 f7 ff
	ff		 mov	 ecx, DWORD PTR _i$205418[ebp]
  00f04	8a 94 0d f4 fb
	ff ff		 mov	 dl, BYTE PTR _szBuffer$205412[ebp+ecx]
  00f0b	88 94 05 f4 f7
	ff ff		 mov	 BYTE PTR _buf$205414[ebp+eax], dl
  00f12	8b 85 f0 f7 ff
	ff		 mov	 eax, DWORD PTR _indx$205415[ebp]
  00f18	83 c0 01	 add	 eax, 1
  00f1b	89 85 f0 f7 ff
	ff		 mov	 DWORD PTR _indx$205415[ebp], eax

; 531  : 				continue;

  00f21	eb 90		 jmp	 SHORT $LN15@Write
$LN13@Write:

; 532  : 			}
; 533  : 
; 534  : 
; 535  : 			buf[indx] = 0;

  00f23	8b 85 f0 f7 ff
	ff		 mov	 eax, DWORD PTR _indx$205415[ebp]
  00f29	c6 84 05 f4 f7
	ff ff 00	 mov	 BYTE PTR _buf$205414[ebp+eax], 0

; 536  : 			DWORD lpdwResult = 0;

  00f31	c7 85 e4 f7 ff
	ff 00 00 00 00	 mov	 DWORD PTR _lpdwResult$205423[ebp], 0

; 537  : 			LRESULT lResult = SendMessageTimeout(CWinConsole::m_hListBox, LB_ADDSTRING,
; 538  : 						0, (LPARAM)buf, SMTO_NORMAL, iTimeOut, &lpdwResult);

  00f3b	8d 85 e4 f7 ff
	ff		 lea	 eax, DWORD PTR _lpdwResult$205423[ebp]
  00f41	50		 push	 eax
  00f42	8b 4d f4	 mov	 ecx, DWORD PTR _iTimeOut$[ebp]
  00f45	51		 push	 ecx
  00f46	6a 00		 push	 0
  00f48	8d 95 f4 f7 ff
	ff		 lea	 edx, DWORD PTR _buf$205414[ebp]
  00f4e	52		 push	 edx
  00f4f	6a 00		 push	 0
  00f51	68 80 01 00 00	 push	 384			; 00000180H
  00f56	a1 00 00 00 00	 mov	 eax, DWORD PTR ?m_hListBox@CWinConsole@@0RAUHWND__@@A ; CWinConsole::m_hListBox
  00f5b	50		 push	 eax
  00f5c	ff 15 00 00 00
	00		 call	 DWORD PTR __imp__SendMessageTimeoutA@28
  00f62	89 85 e0 f7 ff
	ff		 mov	 DWORD PTR _lResult$205424[ebp], eax

; 539  : 
; 540  : 			if ( CWinConsole::EnableWinConsoleOption(2) )

  00f68	6a 02		 push	 2
  00f6a	e8 00 00 00 00	 call	 ?EnableWinConsoleOption@CWinConsole@@SA_NK@Z ; CWinConsole::EnableWinConsoleOption
  00f6f	83 c4 04	 add	 esp, 4
  00f72	0f b6 c0	 movzx	 eax, al
  00f75	85 c0		 test	 eax, eax
  00f77	74 18		 je	 SHORT $LN12@Write

; 541  : 			{
; 542  : 				OutputDebugString(buf);

  00f79	8d 85 f4 f7 ff
	ff		 lea	 eax, DWORD PTR _buf$205414[ebp]
  00f7f	50		 push	 eax
  00f80	ff 15 00 00 00
	00		 call	 DWORD PTR __imp__OutputDebugStringA@4

; 543  : 				OutputDebugString("\n");

  00f86	68 00 00 00 00	 push	 OFFSET ??_C@_01EEMJAFIK@?6?$AA@
  00f8b	ff 15 00 00 00
	00		 call	 DWORD PTR __imp__OutputDebugStringA@4
$LN12@Write:

; 544  : 			}
; 545  : 
; 546  : 			if ( lResult == -2 || lResult == -1 )

  00f91	83 bd e0 f7 ff
	ff fe		 cmp	 DWORD PTR _lResult$205424[ebp], -2 ; fffffffeH
  00f98	74 09		 je	 SHORT $LN10@Write
  00f9a	83 bd e0 f7 ff
	ff ff		 cmp	 DWORD PTR _lResult$205424[ebp], -1
  00fa1	75 05		 jne	 SHORT $LN11@Write
$LN10@Write:

; 547  : 				return; // trick or dead-lock provoking?

  00fa3	e9 4c 02 00 00	 jmp	 $LN20@Write
$LN11@Write:

; 548  : 
; 549  : 			DWORD dwLine = lpdwResult;

  00fa8	8b 85 e4 f7 ff
	ff		 mov	 eax, DWORD PTR _lpdwResult$205423[ebp]
  00fae	89 85 dc f7 ff
	ff		 mov	 DWORD PTR _dwLine$205429[ebp], eax

; 550  : 			SendMessageTimeout(CWinConsole::m_hListBox, LB_SETCURSEL, 
; 551  : 				dwLine, 0, SMTO_NORMAL, iTimeOut, &lpdwResult);

  00fb4	8d 85 e4 f7 ff
	ff		 lea	 eax, DWORD PTR _lpdwResult$205423[ebp]
  00fba	50		 push	 eax
  00fbb	8b 4d f4	 mov	 ecx, DWORD PTR _iTimeOut$[ebp]
  00fbe	51		 push	 ecx
  00fbf	6a 00		 push	 0
  00fc1	6a 00		 push	 0
  00fc3	8b 95 dc f7 ff
	ff		 mov	 edx, DWORD PTR _dwLine$205429[ebp]
  00fc9	52		 push	 edx
  00fca	68 86 01 00 00	 push	 390			; 00000186H
  00fcf	a1 00 00 00 00	 mov	 eax, DWORD PTR ?m_hListBox@CWinConsole@@0RAUHWND__@@A ; CWinConsole::m_hListBox
  00fd4	50		 push	 eax
  00fd5	ff 15 00 00 00
	00		 call	 DWORD PTR __imp__SendMessageTimeoutA@28

; 552  : 
; 553  : 			HDC hDC = GetDC(CWinConsole::m_hWnd);

  00fdb	a1 00 00 00 00	 mov	 eax, DWORD PTR ?m_hWnd@CWinConsole@@0RAUHWND__@@A ; CWinConsole::m_hWnd
  00fe0	50		 push	 eax
  00fe1	ff 15 00 00 00
	00		 call	 DWORD PTR __imp__GetDC@4
  00fe7	89 85 d8 f7 ff
	ff		 mov	 DWORD PTR _hDC$205430[ebp], eax

; 554  : 
; 555  : 			if ( hDC )

  00fed	83 bd d8 f7 ff
	ff 00		 cmp	 DWORD PTR _hDC$205430[ebp], 0
  00ff4	74 50		 je	 SHORT $LN9@Write

; 556  : 			{
; 557  : 				SIZE TextSize;
; 558  : 				GetTextExtentPoint32(hDC, buf, indx, &TextSize);

  00ff6	8d 85 d0 f7 ff
	ff		 lea	 eax, DWORD PTR _TextSize$205432[ebp]
  00ffc	50		 push	 eax
  00ffd	8b 8d f0 f7 ff
	ff		 mov	 ecx, DWORD PTR _indx$205415[ebp]
  01003	51		 push	 ecx
  01004	8d 95 f4 f7 ff
	ff		 lea	 edx, DWORD PTR _buf$205414[ebp]
  0100a	52		 push	 edx
  0100b	8b 85 d8 f7 ff
	ff		 mov	 eax, DWORD PTR _hDC$205430[ebp]
  01011	50		 push	 eax
  01012	ff 15 00 00 00
	00		 call	 DWORD PTR __imp__GetTextExtentPoint32A@16

; 559  : 				if ( TextSize.cx > tempMaxTextWidth )

  01018	8b 85 d0 f7 ff
	ff		 mov	 eax, DWORD PTR _TextSize$205432[ebp]
  0101e	3b 85 ec f7 ff
	ff		 cmp	 eax, DWORD PTR _tempMaxTextWidth$205416[ebp]
  01024	7e 0c		 jle	 SHORT $LN8@Write

; 560  : 					tempMaxTextWidth = TextSize.cx;

  01026	8b 85 d0 f7 ff
	ff		 mov	 eax, DWORD PTR _TextSize$205432[ebp]
  0102c	89 85 ec f7 ff
	ff		 mov	 DWORD PTR _tempMaxTextWidth$205416[ebp], eax
$LN8@Write:

; 561  : 				ReleaseDC(CWinConsole::m_hWnd, hDC);

  01032	8b 85 d8 f7 ff
	ff		 mov	 eax, DWORD PTR _hDC$205430[ebp]
  01038	50		 push	 eax
  01039	8b 0d 00 00 00
	00		 mov	 ecx, DWORD PTR ?m_hWnd@CWinConsole@@0RAUHWND__@@A ; CWinConsole::m_hWnd
  0103f	51		 push	 ecx
  01040	ff 15 00 00 00
	00		 call	 DWORD PTR __imp__ReleaseDC@8
$LN9@Write:

; 562  : 			}
; 563  : 
; 564  : 			indx = 0;

  01046	c7 85 f0 f7 ff
	ff 00 00 00 00	 mov	 DWORD PTR _indx$205415[ebp], 0

; 565  : 
; 566  : 		} // for

  01050	e9 5e fe ff ff	 jmp	 $LN15@Write
$LN14@Write:

; 567  : 
; 568  : 		if(indx > 0)

  01055	83 bd f0 f7 ff
	ff 00		 cmp	 DWORD PTR _indx$205415[ebp], 0
  0105c	0f 8e 2b 01 00
	00		 jle	 $LN7@Write

; 569  : 		{
; 570  : 			buf[indx] = 0;

  01062	8b 85 f0 f7 ff
	ff		 mov	 eax, DWORD PTR _indx$205415[ebp]
  01068	c6 84 05 f4 f7
	ff ff 00	 mov	 BYTE PTR _buf$205414[ebp+eax], 0

; 571  : 			DWORD lpdwResult = 0;

  01070	c7 85 cc f7 ff
	ff 00 00 00 00	 mov	 DWORD PTR _lpdwResult$205435[ebp], 0

; 572  : 
; 573  : 			Sleep(1);

  0107a	6a 01		 push	 1
  0107c	ff 15 00 00 00
	00		 call	 DWORD PTR __imp__Sleep@4

; 574  : 
; 575  : 			LRESULT lResult = SendMessageTimeout(CWinConsole::m_hListBox, LB_ADDSTRING,
; 576  : 					0, (LPARAM)buf, SMTO_NORMAL, iTimeOut, &lpdwResult);;

  01082	8d 85 cc f7 ff
	ff		 lea	 eax, DWORD PTR _lpdwResult$205435[ebp]
  01088	50		 push	 eax
  01089	8b 4d f4	 mov	 ecx, DWORD PTR _iTimeOut$[ebp]
  0108c	51		 push	 ecx
  0108d	6a 00		 push	 0
  0108f	8d 95 f4 f7 ff
	ff		 lea	 edx, DWORD PTR _buf$205414[ebp]
  01095	52		 push	 edx
  01096	6a 00		 push	 0
  01098	68 80 01 00 00	 push	 384			; 00000180H
  0109d	a1 00 00 00 00	 mov	 eax, DWORD PTR ?m_hListBox@CWinConsole@@0RAUHWND__@@A ; CWinConsole::m_hListBox
  010a2	50		 push	 eax
  010a3	ff 15 00 00 00
	00		 call	 DWORD PTR __imp__SendMessageTimeoutA@28
  010a9	89 85 c8 f7 ff
	ff		 mov	 DWORD PTR _lResult$205436[ebp], eax

; 577  : 
; 578  : 			if ( CWinConsole::EnableWinConsoleOption(2) )

  010af	6a 02		 push	 2
  010b1	e8 00 00 00 00	 call	 ?EnableWinConsoleOption@CWinConsole@@SA_NK@Z ; CWinConsole::EnableWinConsoleOption
  010b6	83 c4 04	 add	 esp, 4
  010b9	0f b6 c0	 movzx	 eax, al
  010bc	85 c0		 test	 eax, eax
  010be	74 18		 je	 SHORT $LN6@Write

; 579  : 			{
; 580  : 				OutputDebugString(buf);

  010c0	8d 85 f4 f7 ff
	ff		 lea	 eax, DWORD PTR _buf$205414[ebp]
  010c6	50		 push	 eax
  010c7	ff 15 00 00 00
	00		 call	 DWORD PTR __imp__OutputDebugStringA@4

; 581  : 				OutputDebugString("\n");

  010cd	68 00 00 00 00	 push	 OFFSET ??_C@_01EEMJAFIK@?6?$AA@
  010d2	ff 15 00 00 00
	00		 call	 DWORD PTR __imp__OutputDebugStringA@4
$LN6@Write:

; 582  : 			}
; 583  : 
; 584  : 			if ( lResult == -2 || lResult == -1 )

  010d8	83 bd c8 f7 ff
	ff fe		 cmp	 DWORD PTR _lResult$205436[ebp], -2 ; fffffffeH
  010df	74 09		 je	 SHORT $LN4@Write
  010e1	83 bd c8 f7 ff
	ff ff		 cmp	 DWORD PTR _lResult$205436[ebp], -1
  010e8	75 05		 jne	 SHORT $LN5@Write
$LN4@Write:

; 585  : 				return; // trick or dead-lock provoking?

  010ea	e9 05 01 00 00	 jmp	 $LN20@Write
$LN5@Write:

; 586  : 
; 587  : 			DWORD dwLine = lpdwResult;

  010ef	8b 85 cc f7 ff
	ff		 mov	 eax, DWORD PTR _lpdwResult$205435[ebp]
  010f5	89 85 c4 f7 ff
	ff		 mov	 DWORD PTR _dwLine$205441[ebp], eax

; 588  : 			SendMessageTimeout(CWinConsole::m_hListBox, LB_SETCURSEL, 
; 589  : 				dwLine, 0, SMTO_NORMAL, iTimeOut, &lpdwResult);

  010fb	8d 85 cc f7 ff
	ff		 lea	 eax, DWORD PTR _lpdwResult$205435[ebp]
  01101	50		 push	 eax
  01102	8b 4d f4	 mov	 ecx, DWORD PTR _iTimeOut$[ebp]
  01105	51		 push	 ecx
  01106	6a 00		 push	 0
  01108	6a 00		 push	 0
  0110a	8b 95 c4 f7 ff
	ff		 mov	 edx, DWORD PTR _dwLine$205441[ebp]
  01110	52		 push	 edx
  01111	68 86 01 00 00	 push	 390			; 00000186H
  01116	a1 00 00 00 00	 mov	 eax, DWORD PTR ?m_hListBox@CWinConsole@@0RAUHWND__@@A ; CWinConsole::m_hListBox
  0111b	50		 push	 eax
  0111c	ff 15 00 00 00
	00		 call	 DWORD PTR __imp__SendMessageTimeoutA@28

; 590  : 
; 591  : 			HDC hDC = GetDC(CWinConsole::m_hWnd);

  01122	a1 00 00 00 00	 mov	 eax, DWORD PTR ?m_hWnd@CWinConsole@@0RAUHWND__@@A ; CWinConsole::m_hWnd
  01127	50		 push	 eax
  01128	ff 15 00 00 00
	00		 call	 DWORD PTR __imp__GetDC@4
  0112e	89 85 c0 f7 ff
	ff		 mov	 DWORD PTR _hDC$205442[ebp], eax

; 592  : 
; 593  : 			if ( hDC )

  01134	83 bd c0 f7 ff
	ff 00		 cmp	 DWORD PTR _hDC$205442[ebp], 0
  0113b	74 50		 je	 SHORT $LN7@Write

; 594  : 			{
; 595  : 				SIZE TextSize;
; 596  : 				GetTextExtentPoint32A(hDC, buf, indx, &TextSize);

  0113d	8d 85 b8 f7 ff
	ff		 lea	 eax, DWORD PTR _TextSize$205444[ebp]
  01143	50		 push	 eax
  01144	8b 8d f0 f7 ff
	ff		 mov	 ecx, DWORD PTR _indx$205415[ebp]
  0114a	51		 push	 ecx
  0114b	8d 95 f4 f7 ff
	ff		 lea	 edx, DWORD PTR _buf$205414[ebp]
  01151	52		 push	 edx
  01152	8b 85 c0 f7 ff
	ff		 mov	 eax, DWORD PTR _hDC$205442[ebp]
  01158	50		 push	 eax
  01159	ff 15 00 00 00
	00		 call	 DWORD PTR __imp__GetTextExtentPoint32A@16

; 597  : 
; 598  : 				if ( TextSize.cx > tempMaxTextWidth )

  0115f	8b 85 b8 f7 ff
	ff		 mov	 eax, DWORD PTR _TextSize$205444[ebp]
  01165	3b 85 ec f7 ff
	ff		 cmp	 eax, DWORD PTR _tempMaxTextWidth$205416[ebp]
  0116b	7e 0c		 jle	 SHORT $LN2@Write

; 599  : 					tempMaxTextWidth = TextSize.cx;

  0116d	8b 85 b8 f7 ff
	ff		 mov	 eax, DWORD PTR _TextSize$205444[ebp]
  01173	89 85 ec f7 ff
	ff		 mov	 DWORD PTR _tempMaxTextWidth$205416[ebp], eax
$LN2@Write:

; 600  : 
; 601  : 				ReleaseDC(CWinConsole::m_hWnd, hDC);

  01179	8b 85 c0 f7 ff
	ff		 mov	 eax, DWORD PTR _hDC$205442[ebp]
  0117f	50		 push	 eax
  01180	8b 0d 00 00 00
	00		 mov	 ecx, DWORD PTR ?m_hWnd@CWinConsole@@0RAUHWND__@@A ; CWinConsole::m_hWnd
  01186	51		 push	 ecx
  01187	ff 15 00 00 00
	00		 call	 DWORD PTR __imp__ReleaseDC@8
$LN7@Write:

; 602  : 			}
; 603  : 
; 604  : 		} // if(indx > 0)
; 605  : 
; 606  : 
; 607  : 		if ( CWinConsole::m_MaxTextWidth < tempMaxTextWidth )

  0118d	a1 00 00 00 00	 mov	 eax, DWORD PTR ?m_MaxTextWidth@CWinConsole@@0HA ; CWinConsole::m_MaxTextWidth
  01192	3b 85 ec f7 ff
	ff		 cmp	 eax, DWORD PTR _tempMaxTextWidth$205416[ebp]
  01198	7d 3f		 jge	 SHORT $LN1@Write

; 608  : 		{
; 609  : 			CWinConsole::m_MaxTextWidth = tempMaxTextWidth;

  0119a	8b 85 ec f7 ff
	ff		 mov	 eax, DWORD PTR _tempMaxTextWidth$205416[ebp]
  011a0	a3 00 00 00 00	 mov	 DWORD PTR ?m_MaxTextWidth@CWinConsole@@0HA, eax ; CWinConsole::m_MaxTextWidth

; 610  : 
; 611  : 			DWORD lpdwResult = 0;

  011a5	c7 85 b4 f7 ff
	ff 00 00 00 00	 mov	 DWORD PTR _lpdwResult$205447[ebp], 0

; 612  : 			SendMessageTimeout(CWinConsole::m_hListBox, LB_SETHORIZONTALEXTENT,
; 613  : 					CWinConsole::m_MaxTextWidth + 10, 0,
; 614  : 					SMTO_NORMAL, iTimeOut, &lpdwResult);

  011af	8d 85 b4 f7 ff
	ff		 lea	 eax, DWORD PTR _lpdwResult$205447[ebp]
  011b5	50		 push	 eax
  011b6	8b 4d f4	 mov	 ecx, DWORD PTR _iTimeOut$[ebp]
  011b9	51		 push	 ecx
  011ba	6a 00		 push	 0
  011bc	6a 00		 push	 0
  011be	8b 15 00 00 00
	00		 mov	 edx, DWORD PTR ?m_MaxTextWidth@CWinConsole@@0HA ; CWinConsole::m_MaxTextWidth
  011c4	83 c2 0a	 add	 edx, 10			; 0000000aH
  011c7	52		 push	 edx
  011c8	68 94 01 00 00	 push	 404			; 00000194H
  011cd	a1 00 00 00 00	 mov	 eax, DWORD PTR ?m_hListBox@CWinConsole@@0RAUHWND__@@A ; CWinConsole::m_hListBox
  011d2	50		 push	 eax
  011d3	ff 15 00 00 00
	00		 call	 DWORD PTR __imp__SendMessageTimeoutA@28
$LN1@Write:

; 615  : 
; 616  : 		}
; 617  : 
; 618  : 		InvalidateRect(CWinConsole::m_hWnd, NULL, TRUE);

  011d9	6a 01		 push	 1
  011db	6a 00		 push	 0
  011dd	a1 00 00 00 00	 mov	 eax, DWORD PTR ?m_hWnd@CWinConsole@@0RAUHWND__@@A ; CWinConsole::m_hWnd
  011e2	50		 push	 eax
  011e3	ff 15 00 00 00
	00		 call	 DWORD PTR __imp__InvalidateRect@12
$LN19@Write:

; 619  : 
; 620  : 	}
; 621  : 
; 622  : 	LeaveCriticalSection(&WinConCritical);

  011e9	68 00 00 00 00	 push	 OFFSET ?WinConCritical@@3U_RTL_CRITICAL_SECTION@@A ; WinConCritical
  011ee	ff 15 00 00 00
	00		 call	 DWORD PTR __imp__LeaveCriticalSection@4
$LN20@Write:

; 623  : }

  011f4	5f		 pop	 edi
  011f5	5e		 pop	 esi
  011f6	5b		 pop	 ebx
  011f7	8b 4d fc	 mov	 ecx, DWORD PTR __$ArrayPad$[ebp]
  011fa	33 cd		 xor	 ecx, ebp
  011fc	e8 00 00 00 00	 call	 @__security_check_cookie@4
  01201	8b e5		 mov	 esp, ebp
  01203	5d		 pop	 ebp
  01204	c3		 ret	 0
?Write@CWinConsole@@SAXPBDZZ ENDP			; CWinConsole::Write
_TEXT	ENDS
PUBLIC	??_C@_00CNPNBAHC@?$AA@				; `string'
PUBLIC	?ChangeFromStringToBackUp@CWinConsole@@CAXH@Z	; CWinConsole::ChangeFromStringToBackUp
PUBLIC	?ChangeFromBackUpToString@CWinConsole@@CAXH@Z	; CWinConsole::ChangeFromBackUpToString
PUBLIC	?SubclassInputEditProc@CWinConsole@@SGJPAUHWND__@@IIJ@Z ; CWinConsole::SubclassInputEditProc
EXTRN	__imp__CallWindowProcA@20:PROC
;	COMDAT ??_C@_00CNPNBAHC@?$AA@
CONST	SEGMENT
??_C@_00CNPNBAHC@?$AA@ DB 00H				; `string'
; Function compile flags: /Odtp /ZI
CONST	ENDS
_TEXT	SEGMENT
tv65 = -72						; size = 4
tv64 = -72						; size = 4
_lSizeofString$ = -4					; size = 4
_hWnd$ = 8						; size = 4
_message$ = 12						; size = 4
_wParam$ = 16						; size = 4
_lParam$ = 20						; size = 4
?SubclassInputEditProc@CWinConsole@@SGJPAUHWND__@@IIJ@Z PROC ; CWinConsole::SubclassInputEditProc

; 626  : {

  01210	55		 push	 ebp
  01211	8b ec		 mov	 ebp, esp
  01213	83 ec 48	 sub	 esp, 72			; 00000048H
  01216	53		 push	 ebx
  01217	56		 push	 esi
  01218	57		 push	 edi

; 627  : 	long lSizeofString;
; 628  : 
; 629  : 	switch(message)

  01219	8b 45 0c	 mov	 eax, DWORD PTR _message$[ebp]
  0121c	89 45 b8	 mov	 DWORD PTR tv64[ebp], eax
  0121f	81 7d b8 00 01
	00 00		 cmp	 DWORD PTR tv64[ebp], 256 ; 00000100H
  01226	74 0e		 je	 SHORT $LN7@SubclassIn
  01228	81 7d b8 02 01
	00 00		 cmp	 DWORD PTR tv64[ebp], 258 ; 00000102H
  0122f	74 31		 je	 SHORT $LN2@SubclassIn
  01231	e9 99 00 00 00	 jmp	 $LN8@SubclassIn
$LN7@SubclassIn:

; 630  : 	{
; 631  : 		case WM_KEYFIRST:
; 632  : 		{
; 633  : 			// didn't find any info about this
; 634  : 			switch(wParam)

  01236	8b 45 10	 mov	 eax, DWORD PTR _wParam$[ebp]
  01239	89 45 b8	 mov	 DWORD PTR tv65[ebp], eax
  0123c	83 7d b8 26	 cmp	 DWORD PTR tv65[ebp], 38	; 00000026H
  01240	74 08		 je	 SHORT $LN4@SubclassIn
  01242	83 7d b8 28	 cmp	 DWORD PTR tv65[ebp], 40	; 00000028H
  01246	74 0e		 je	 SHORT $LN3@SubclassIn
  01248	eb 16		 jmp	 SHORT $LN5@SubclassIn
$LN4@SubclassIn:

; 635  : 			{
; 636  : 				case 38:
; 637  : 					CWinConsole::ChangeFromBackUpToString(1);

  0124a	6a 01		 push	 1
  0124c	e8 00 00 00 00	 call	 ?ChangeFromBackUpToString@CWinConsole@@CAXH@Z ; CWinConsole::ChangeFromBackUpToString
  01251	83 c4 04	 add	 esp, 4

; 638  : 				break;

  01254	eb 0a		 jmp	 SHORT $LN5@SubclassIn
$LN3@SubclassIn:

; 639  : 
; 640  : 				case 40:
; 641  : 					CWinConsole::ChangeFromBackUpToString(0);

  01256	6a 00		 push	 0
  01258	e8 00 00 00 00	 call	 ?ChangeFromBackUpToString@CWinConsole@@CAXH@Z ; CWinConsole::ChangeFromBackUpToString
  0125d	83 c4 04	 add	 esp, 4
$LN5@SubclassIn:

; 642  : 				break;
; 643  : 			}
; 644  : 		}
; 645  : 		break;

  01260	eb 6d		 jmp	 SHORT $LN8@SubclassIn
$LN2@SubclassIn:

; 646  : 
; 647  : 		case WM_CHAR:
; 648  : 			if(wParam == 13)

  01262	83 7d 10 0d	 cmp	 DWORD PTR _wParam$[ebp], 13 ; 0000000dH
  01266	75 67		 jne	 SHORT $LN8@SubclassIn

; 649  : 			{
; 650  : 				lSizeofString = SendMessage(hWnd, WM_GETTEXTLENGTH, 0, 0);

  01268	6a 00		 push	 0
  0126a	6a 00		 push	 0
  0126c	6a 0e		 push	 14			; 0000000eH
  0126e	8b 45 08	 mov	 eax, DWORD PTR _hWnd$[ebp]
  01271	50		 push	 eax
  01272	ff 15 00 00 00
	00		 call	 DWORD PTR __imp__SendMessageA@16
  01278	89 45 fc	 mov	 DWORD PTR _lSizeofString$[ebp], eax

; 651  : 				SendMessage(hWnd, WM_GETTEXT, lSizeofString + 1, (LPARAM)CWinConsole::m_CommandBuffer);

  0127b	68 00 00 00 00	 push	 OFFSET ?m_CommandBuffer@CWinConsole@@0PADA ; CWinConsole::m_CommandBuffer
  01280	8b 45 fc	 mov	 eax, DWORD PTR _lSizeofString$[ebp]
  01283	83 c0 01	 add	 eax, 1
  01286	50		 push	 eax
  01287	6a 0d		 push	 13			; 0000000dH
  01289	8b 4d 08	 mov	 ecx, DWORD PTR _hWnd$[ebp]
  0128c	51		 push	 ecx
  0128d	ff 15 00 00 00
	00		 call	 DWORD PTR __imp__SendMessageA@16

; 652  : 
; 653  : 				CWinConsole::ChangeFromStringToBackUp(1);

  01293	6a 01		 push	 1
  01295	e8 00 00 00 00	 call	 ?ChangeFromStringToBackUp@CWinConsole@@CAXH@Z ; CWinConsole::ChangeFromStringToBackUp
  0129a	83 c4 04	 add	 esp, 4

; 654  : 
; 655  : 				SendMessage(CWinConsole::m_hWnd, 0x404, 0, lSizeofString);

  0129d	8b 45 fc	 mov	 eax, DWORD PTR _lSizeofString$[ebp]
  012a0	50		 push	 eax
  012a1	6a 00		 push	 0
  012a3	68 04 04 00 00	 push	 1028			; 00000404H
  012a8	8b 0d 00 00 00
	00		 mov	 ecx, DWORD PTR ?m_hWnd@CWinConsole@@0RAUHWND__@@A ; CWinConsole::m_hWnd
  012ae	51		 push	 ecx
  012af	ff 15 00 00 00
	00		 call	 DWORD PTR __imp__SendMessageA@16

; 656  : 				SendMessage(hWnd, WM_SETTEXT, 0, (LPARAM)"");

  012b5	68 00 00 00 00	 push	 OFFSET ??_C@_00CNPNBAHC@?$AA@
  012ba	6a 00		 push	 0
  012bc	6a 0c		 push	 12			; 0000000cH
  012be	8b 45 08	 mov	 eax, DWORD PTR _hWnd$[ebp]
  012c1	50		 push	 eax
  012c2	ff 15 00 00 00
	00		 call	 DWORD PTR __imp__SendMessageA@16

; 657  : 
; 658  : 				return 1;

  012c8	b8 01 00 00 00	 mov	 eax, 1
  012cd	eb 1d		 jmp	 SHORT $LN10@SubclassIn
$LN8@SubclassIn:

; 659  : 			}
; 660  : 		break;
; 661  : 	}
; 662  : 
; 663  : 
; 664  : 	return CallWindowProc(lpfnInputEdit, hWnd, message, wParam, lParam);

  012cf	8b 45 14	 mov	 eax, DWORD PTR _lParam$[ebp]
  012d2	50		 push	 eax
  012d3	8b 4d 10	 mov	 ecx, DWORD PTR _wParam$[ebp]
  012d6	51		 push	 ecx
  012d7	8b 55 0c	 mov	 edx, DWORD PTR _message$[ebp]
  012da	52		 push	 edx
  012db	8b 45 08	 mov	 eax, DWORD PTR _hWnd$[ebp]
  012de	50		 push	 eax
  012df	8b 0d 00 00 00
	00		 mov	 ecx, DWORD PTR ?lpfnInputEdit@@3P6GJPAUHWND__@@IIJ@ZA ; lpfnInputEdit
  012e5	51		 push	 ecx
  012e6	ff 15 00 00 00
	00		 call	 DWORD PTR __imp__CallWindowProcA@20
$LN10@SubclassIn:

; 665  : }

  012ec	5f		 pop	 edi
  012ed	5e		 pop	 esi
  012ee	5b		 pop	 ebx
  012ef	8b e5		 mov	 esp, ebp
  012f1	5d		 pop	 ebp
  012f2	c2 10 00	 ret	 16			; 00000010H
?SubclassInputEditProc@CWinConsole@@SGJPAUHWND__@@IIJ@Z ENDP ; CWinConsole::SubclassInputEditProc
_TEXT	ENDS
PUBLIC	??_C@_04BMCEDOKO@EDIT?$AA@			; `string'
PUBLIC	??_C@_07EKEMFJNL@LISTBOX?$AA@			; `string'
PUBLIC	??_C@_0O@FACHKEOH@MU?5WinConsole?$AA@		; `string'
PUBLIC	??_C@_0L@BAMMLEPM@WinConsole?$AA@		; `string'
PUBLIC	??_C@_0O@GINGKKJL@?D?$NM?$LM?V?5?$MA?$KJ?$LF?$LF?$CI?$CGC?$CJ?$AA@ ; `string'
PUBLIC	??_C@_0BD@LJCAFLIC@?D?$NM?$LM?V?5?$MA?$KJ?$LF?$LF?5?A?$LO?$LH?a?$CI?$CGX?$CJ?$AA@ ; `string'
PUBLIC	??_C@_0BF@DPLOAIKO@?D?$NM?$LM?V?5?$MA?$KJ?$LF?$LF?5?A?v?$LP?l?$LB?b?$CI?$CGC?$CJ?$AA@ ; `string'
PUBLIC	??_C@_0BD@LNIHMAIE@?D?$NM?$LM?V?5?$MA?$KJ?$LF?$LF?5?$MA?z?$MA?e?$CI?$CGS?$CJ?$AA@ ; `string'
PUBLIC	??_C@_0BC@HLCIKHDM@?$LF?p?$LJ?v?$LB?W?C?$KC?5?C?b?$LH?B?$CI?$CGD?$CJ?$AA@ ; `string'
PUBLIC	??_C@_0BF@DJIBBDKI@?$MA?$KJ?$LF?$LF?5?G?W?$LL?s?5?C?V?$LL?s?$MA?$KH?$CI?$CGT?$CJ?$AA@ ; `string'
EXTRN	__imp__SetWindowLongA@12:PROC
EXTRN	__imp__ShowWindow@8:PROC
EXTRN	__imp__UpdateWindow@4:PROC
EXTRN	__imp__CreateWindowExA@48:PROC
EXTRN	__imp__RegisterClassA@4:PROC
EXTRN	__imp__GetStockObject@4:PROC
EXTRN	__imp__InsertMenuA@20:PROC
EXTRN	__imp__AppendMenuA@16:PROC
EXTRN	__imp__CreatePopupMenu@0:PROC
EXTRN	__imp__CreateMenu@0:PROC
;	COMDAT ??_C@_04BMCEDOKO@EDIT?$AA@
CONST	SEGMENT
??_C@_04BMCEDOKO@EDIT?$AA@ DB 'EDIT', 00H		; `string'
CONST	ENDS
;	COMDAT ??_C@_07EKEMFJNL@LISTBOX?$AA@
CONST	SEGMENT
??_C@_07EKEMFJNL@LISTBOX?$AA@ DB 'LISTBOX', 00H		; `string'
CONST	ENDS
;	COMDAT ??_C@_0O@FACHKEOH@MU?5WinConsole?$AA@
CONST	SEGMENT
??_C@_0O@FACHKEOH@MU?5WinConsole?$AA@ DB 'MU WinConsole', 00H ; `string'
CONST	ENDS
;	COMDAT ??_C@_0L@BAMMLEPM@WinConsole?$AA@
CONST	SEGMENT
??_C@_0L@BAMMLEPM@WinConsole?$AA@ DB 'WinConsole', 00H	; `string'
CONST	ENDS
;	COMDAT ??_C@_0O@GINGKKJL@?D?$NM?$LM?V?5?$MA?$KJ?$LF?$LF?$CI?$CGC?$CJ?$AA@
CONST	SEGMENT
??_C@_0O@GINGKKJL@?D?$NM?$LM?V?5?$MA?$KJ?$LF?$LF?$CI?$CGC?$CJ?$AA@ DB 0c4H
	DB	0dcH, 0bcH, 0d6H, ' ', 0c0H, 0a9H, 0b5H, 0b5H, '(&C)', 00H ; `string'
CONST	ENDS
;	COMDAT ??_C@_0BD@LJCAFLIC@?D?$NM?$LM?V?5?$MA?$KJ?$LF?$LF?5?A?$LO?$LH?a?$CI?$CGX?$CJ?$AA@
CONST	SEGMENT
??_C@_0BD@LJCAFLIC@?D?$NM?$LM?V?5?$MA?$KJ?$LF?$LF?5?A?$LO?$LH?a?$CI?$CGX?$CJ?$AA@ DB 0c4H
	DB	0dcH, 0bcH, 0d6H, ' ', 0c0H, 0a9H, 0b5H, 0b5H, ' ', 0c1H, 0beH
	DB	0b7H, 0e1H, '(&X)', 00H			; `string'
CONST	ENDS
;	COMDAT ??_C@_0BF@DPLOAIKO@?D?$NM?$LM?V?5?$MA?$KJ?$LF?$LF?5?A?v?$LP?l?$LB?b?$CI?$CGC?$CJ?$AA@
CONST	SEGMENT
??_C@_0BF@DPLOAIKO@?D?$NM?$LM?V?5?$MA?$KJ?$LF?$LF?5?A?v?$LP?l?$LB?b?$CI?$CGC?$CJ?$AA@ DB 0c4H
	DB	0dcH, 0bcH, 0d6H, ' ', 0c0H, 0a9H, 0b5H, 0b5H, ' ', 0c1H, 0f6H
	DB	0bfH, 0ecH, 0b1H, 0e2H, '(&C)', 00H		; `string'
CONST	ENDS
;	COMDAT ??_C@_0BD@LNIHMAIE@?D?$NM?$LM?V?5?$MA?$KJ?$LF?$LF?5?$MA?z?$MA?e?$CI?$CGS?$CJ?$AA@
CONST	SEGMENT
??_C@_0BD@LNIHMAIE@?D?$NM?$LM?V?5?$MA?$KJ?$LF?$LF?5?$MA?z?$MA?e?$CI?$CGS?$CJ?$AA@ DB 0c4H
	DB	0dcH, 0bcH, 0d6H, ' ', 0c0H, 0a9H, 0b5H, 0b5H, ' ', 0c0H, 0faH
	DB	0c0H, 0e5H, '(&S)', 00H			; `string'
CONST	ENDS
;	COMDAT ??_C@_0BC@HLCIKHDM@?$LF?p?$LJ?v?$LB?W?C?$KC?5?C?b?$LH?B?$CI?$CGD?$CJ?$AA@
CONST	SEGMENT
??_C@_0BC@HLCIKHDM@?$LF?p?$LJ?v?$LB?W?C?$KC?5?C?b?$LH?B?$CI?$CGD?$CJ?$AA@ DB 0b5H
	DB	0f0H, 0b9H, 0f6H, 0b1H, 0d7H, 0c3H, 0a2H, ' ', 0c3H, 0e2H, 0b7H
	DB	0c2H, '(&D)', 00H				; `string'
CONST	ENDS
;	COMDAT ??_C@_0BF@DJIBBDKI@?$MA?$KJ?$LF?$LF?5?G?W?$LL?s?5?C?V?$LL?s?$MA?$KH?$CI?$CGT?$CJ?$AA@
CONST	SEGMENT
??_C@_0BF@DJIBBDKI@?$MA?$KJ?$LF?$LF?5?G?W?$LL?s?5?C?V?$LL?s?$MA?$KH?$CI?$CGT?$CJ?$AA@ DB 0c0H
	DB	0a9H, 0b5H, 0b5H, ' ', 0c7H, 0d7H, 0bbH, 0f3H, ' ', 0c3H, 0d6H
	DB	0bbH, 0f3H, 0c0H, 0a7H, '(&T)', 00H		; `string'
; Function compile flags: /Odtp /ZI
CONST	ENDS
_TEXT	SEGMENT
_WndClass$ = -44					; size = 40
_this$ = -4						; size = 4
_hInstance$ = 8						; size = 4
?Init@CWinConsole@@AAEXPAUHINSTANCE__@@@Z PROC		; CWinConsole::Init
; _this$ = ecx

; 668  : {

  01300	55		 push	 ebp
  01301	8b ec		 mov	 ebp, esp
  01303	83 ec 6c	 sub	 esp, 108		; 0000006cH
  01306	53		 push	 ebx
  01307	56		 push	 esi
  01308	57		 push	 edi
  01309	89 4d fc	 mov	 DWORD PTR _this$[ebp], ecx

; 669  : 	WNDCLASS WndClass;
; 670  : 	m_hInstance = hInstance;

  0130c	8b 45 fc	 mov	 eax, DWORD PTR _this$[ebp]
  0130f	8b 4d 08	 mov	 ecx, DWORD PTR _hInstance$[ebp]
  01312	89 48 04	 mov	 DWORD PTR [eax+4], ecx

; 671  : 
; 672  : 	m_ScrollyPos = 0;

  01315	8b 45 fc	 mov	 eax, DWORD PTR _this$[ebp]
  01318	c7 40 18 00 00
	00 00		 mov	 DWORD PTR [eax+24], 0

; 673  : 	m_hMainMenu = CreateMenu();

  0131f	ff 15 00 00 00
	00		 call	 DWORD PTR __imp__CreateMenu@0
  01325	8b 4d fc	 mov	 ecx, DWORD PTR _this$[ebp]
  01328	89 41 08	 mov	 DWORD PTR [ecx+8], eax

; 674  : 	m_hSubMenu = CreatePopupMenu();

  0132b	ff 15 00 00 00
	00		 call	 DWORD PTR __imp__CreatePopupMenu@0
  01331	8b 4d fc	 mov	 ecx, DWORD PTR _this$[ebp]
  01334	89 41 0c	 mov	 DWORD PTR [ecx+12], eax

; 675  : 
; 676  : 	AppendMenuA(m_hSubMenu, 0, IDM_WINCONS_TOPMOST, "  (&T)");	// [T]opmost ?

  01337	68 00 00 00 00	 push	 OFFSET ??_C@_0BF@DJIBBDKI@?$MA?$KJ?$LF?$LF?5?G?W?$LL?s?5?C?V?$LL?s?$MA?$KH?$CI?$CGT?$CJ?$AA@
  0133c	68 bd 0b 00 00	 push	 3005			; 00000bbdH
  01341	6a 00		 push	 0
  01343	8b 45 fc	 mov	 eax, DWORD PTR _this$[ebp]
  01346	8b 48 0c	 mov	 ecx, DWORD PTR [eax+12]
  01349	51		 push	 ecx
  0134a	ff 15 00 00 00
	00		 call	 DWORD PTR __imp__AppendMenuA@16

; 677  : 	AppendMenuA(m_hSubMenu, MF_SEPARATOR, 0, 0);

  01350	6a 00		 push	 0
  01352	6a 00		 push	 0
  01354	68 00 08 00 00	 push	 2048			; 00000800H
  01359	8b 45 fc	 mov	 eax, DWORD PTR _this$[ebp]
  0135c	8b 48 0c	 mov	 ecx, DWORD PTR [eax+12]
  0135f	51		 push	 ecx
  01360	ff 15 00 00 00
	00		 call	 DWORD PTR __imp__AppendMenuA@16

; 678  : 	AppendMenuA(m_hSubMenu, 0, IDM_WINCONS_DEBUG, " (&D)");			// [D]ebugOut ?

  01366	68 00 00 00 00	 push	 OFFSET ??_C@_0BC@HLCIKHDM@?$LF?p?$LJ?v?$LB?W?C?$KC?5?C?b?$LH?B?$CI?$CGD?$CJ?$AA@
  0136b	68 bc 0b 00 00	 push	 3004			; 00000bbcH
  01370	6a 00		 push	 0
  01372	8b 45 fc	 mov	 eax, DWORD PTR _this$[ebp]
  01375	8b 48 0c	 mov	 ecx, DWORD PTR [eax+12]
  01378	51		 push	 ecx
  01379	ff 15 00 00 00
	00		 call	 DWORD PTR __imp__AppendMenuA@16

; 679  : 	AppendMenuA(m_hSubMenu, MF_SEPARATOR, 0, 0);

  0137f	6a 00		 push	 0
  01381	6a 00		 push	 0
  01383	68 00 08 00 00	 push	 2048			; 00000800H
  01388	8b 45 fc	 mov	 eax, DWORD PTR _this$[ebp]
  0138b	8b 48 0c	 mov	 ecx, DWORD PTR [eax+12]
  0138e	51		 push	 ecx
  0138f	ff 15 00 00 00
	00		 call	 DWORD PTR __imp__AppendMenuA@16

; 680  : 	AppendMenuA(m_hSubMenu, 0, IDM_WINCONS_SAVE, "  (&S)");			// [S]ave ?

  01395	68 00 00 00 00	 push	 OFFSET ??_C@_0BD@LNIHMAIE@?D?$NM?$LM?V?5?$MA?$KJ?$LF?$LF?5?$MA?z?$MA?e?$CI?$CGS?$CJ?$AA@
  0139a	68 b9 0b 00 00	 push	 3001			; 00000bb9H
  0139f	6a 00		 push	 0
  013a1	8b 45 fc	 mov	 eax, DWORD PTR _this$[ebp]
  013a4	8b 48 0c	 mov	 ecx, DWORD PTR [eax+12]
  013a7	51		 push	 ecx
  013a8	ff 15 00 00 00
	00		 call	 DWORD PTR __imp__AppendMenuA@16

; 681  : 	AppendMenuA(m_hSubMenu, 0, IDM_WINCONS_CLEAR, "  (&C)");		// [C]lear ?

  013ae	68 00 00 00 00	 push	 OFFSET ??_C@_0BF@DPLOAIKO@?D?$NM?$LM?V?5?$MA?$KJ?$LF?$LF?5?A?v?$LP?l?$LB?b?$CI?$CGC?$CJ?$AA@
  013b3	68 ba 0b 00 00	 push	 3002			; 00000bbaH
  013b8	6a 00		 push	 0
  013ba	8b 45 fc	 mov	 eax, DWORD PTR _this$[ebp]
  013bd	8b 48 0c	 mov	 ecx, DWORD PTR [eax+12]
  013c0	51		 push	 ecx
  013c1	ff 15 00 00 00
	00		 call	 DWORD PTR __imp__AppendMenuA@16

; 682  : 	AppendMenuA(m_hSubMenu, MF_SEPARATOR, 0, 0);

  013c7	6a 00		 push	 0
  013c9	6a 00		 push	 0
  013cb	68 00 08 00 00	 push	 2048			; 00000800H
  013d0	8b 45 fc	 mov	 eax, DWORD PTR _this$[ebp]
  013d3	8b 48 0c	 mov	 ecx, DWORD PTR [eax+12]
  013d6	51		 push	 ecx
  013d7	ff 15 00 00 00
	00		 call	 DWORD PTR __imp__AppendMenuA@16

; 683  : 	AppendMenuA(m_hSubMenu, 0, IDM_WINCONS_EXIT, "  (&X)");			// e[X]it ?

  013dd	68 00 00 00 00	 push	 OFFSET ??_C@_0BD@LJCAFLIC@?D?$NM?$LM?V?5?$MA?$KJ?$LF?$LF?5?A?$LO?$LH?a?$CI?$CGX?$CJ?$AA@
  013e2	68 b8 0b 00 00	 push	 3000			; 00000bb8H
  013e7	6a 00		 push	 0
  013e9	8b 45 fc	 mov	 eax, DWORD PTR _this$[ebp]
  013ec	8b 48 0c	 mov	 ecx, DWORD PTR [eax+12]
  013ef	51		 push	 ecx
  013f0	ff 15 00 00 00
	00		 call	 DWORD PTR __imp__AppendMenuA@16

; 684  : 	InsertMenuA(m_hMainMenu, 0, MF_POPUP, (UINT_PTR)m_hSubMenu, " (&C)"); // no idea

  013f6	68 00 00 00 00	 push	 OFFSET ??_C@_0O@GINGKKJL@?D?$NM?$LM?V?5?$MA?$KJ?$LF?$LF?$CI?$CGC?$CJ?$AA@
  013fb	8b 45 fc	 mov	 eax, DWORD PTR _this$[ebp]
  013fe	8b 48 0c	 mov	 ecx, DWORD PTR [eax+12]
  01401	51		 push	 ecx
  01402	6a 10		 push	 16			; 00000010H
  01404	6a 00		 push	 0
  01406	8b 55 fc	 mov	 edx, DWORD PTR _this$[ebp]
  01409	8b 42 08	 mov	 eax, DWORD PTR [edx+8]
  0140c	50		 push	 eax
  0140d	ff 15 00 00 00
	00		 call	 DWORD PTR __imp__InsertMenuA@20

; 685  : 
; 686  : 
; 687  : 	WndClass.style = 0;

  01413	c7 45 d4 00 00
	00 00		 mov	 DWORD PTR _WndClass$[ebp], 0

; 688  : 	WndClass.lpfnWndProc = (WNDPROC)CWinConsole::MsgProc;

  0141a	c7 45 d8 00 00
	00 00		 mov	 DWORD PTR _WndClass$[ebp+4], OFFSET ?MsgProc@CWinConsole@@SGJPAUHWND__@@IIJ@Z ; CWinConsole::MsgProc

; 689  : 	WndClass.cbClsExtra = 0;

  01421	c7 45 dc 00 00
	00 00		 mov	 DWORD PTR _WndClass$[ebp+8], 0

; 690  : 	WndClass.cbWndExtra = 4;			// ??

  01428	c7 45 e0 04 00
	00 00		 mov	 DWORD PTR _WndClass$[ebp+12], 4

; 691  : 	WndClass.hInstance = m_hInstance;

  0142f	8b 45 fc	 mov	 eax, DWORD PTR _this$[ebp]
  01432	8b 48 04	 mov	 ecx, DWORD PTR [eax+4]
  01435	89 4d e4	 mov	 DWORD PTR _WndClass$[ebp+16], ecx

; 692  : 	WndClass.hIcon = NULL;

  01438	c7 45 e8 00 00
	00 00		 mov	 DWORD PTR _WndClass$[ebp+20], 0

; 693  : 	WndClass.hCursor = LoadCursor(NULL, (LPCSTR)IDC_ARROW);

  0143f	68 00 7f 00 00	 push	 32512			; 00007f00H
  01444	6a 00		 push	 0
  01446	ff 15 00 00 00
	00		 call	 DWORD PTR __imp__LoadCursorA@8
  0144c	89 45 ec	 mov	 DWORD PTR _WndClass$[ebp+24], eax

; 694  : 	WndClass.hbrBackground = (HBRUSH)GetStockObject(BLACK_BRUSH);

  0144f	6a 04		 push	 4
  01451	ff 15 00 00 00
	00		 call	 DWORD PTR __imp__GetStockObject@4
  01457	89 45 f0	 mov	 DWORD PTR _WndClass$[ebp+28], eax

; 695  : 	WndClass.lpszMenuName = NULL;

  0145a	c7 45 f4 00 00
	00 00		 mov	 DWORD PTR _WndClass$[ebp+32], 0

; 696  : 	WndClass.lpszClassName = "WinConsole";

  01461	c7 45 f8 00 00
	00 00		 mov	 DWORD PTR _WndClass$[ebp+36], OFFSET ??_C@_0L@BAMMLEPM@WinConsole?$AA@

; 697  : 	RegisterClass(&WndClass);

  01468	8d 45 d4	 lea	 eax, DWORD PTR _WndClass$[ebp]
  0146b	50		 push	 eax
  0146c	ff 15 00 00 00
	00		 call	 DWORD PTR __imp__RegisterClassA@4

; 698  : 
; 699  : 	CWinConsole::m_hWnd = CreateWindowEx(0, "WinConsole", "MU WinConsole",
; 700  : 							WS_OVERLAPPEDWINDOW,
; 701  : 							0, 0, 640, 480,
; 702  : 							NULL, m_hMainMenu, m_hInstance, NULL);

  01472	6a 00		 push	 0
  01474	8b 45 fc	 mov	 eax, DWORD PTR _this$[ebp]
  01477	8b 48 04	 mov	 ecx, DWORD PTR [eax+4]
  0147a	51		 push	 ecx
  0147b	8b 55 fc	 mov	 edx, DWORD PTR _this$[ebp]
  0147e	8b 42 08	 mov	 eax, DWORD PTR [edx+8]
  01481	50		 push	 eax
  01482	6a 00		 push	 0
  01484	68 e0 01 00 00	 push	 480			; 000001e0H
  01489	68 80 02 00 00	 push	 640			; 00000280H
  0148e	6a 00		 push	 0
  01490	6a 00		 push	 0
  01492	68 00 00 cf 00	 push	 13565952		; 00cf0000H
  01497	68 00 00 00 00	 push	 OFFSET ??_C@_0O@FACHKEOH@MU?5WinConsole?$AA@
  0149c	68 00 00 00 00	 push	 OFFSET ??_C@_0L@BAMMLEPM@WinConsole?$AA@
  014a1	6a 00		 push	 0
  014a3	ff 15 00 00 00
	00		 call	 DWORD PTR __imp__CreateWindowExA@48
  014a9	a3 00 00 00 00	 mov	 DWORD PTR ?m_hWnd@CWinConsole@@0RAUHWND__@@A, eax ; CWinConsole::m_hWnd

; 703  : 
; 704  : 	UpdateWindow(CWinConsole::m_hWnd);

  014ae	a1 00 00 00 00	 mov	 eax, DWORD PTR ?m_hWnd@CWinConsole@@0RAUHWND__@@A ; CWinConsole::m_hWnd
  014b3	50		 push	 eax
  014b4	ff 15 00 00 00
	00		 call	 DWORD PTR __imp__UpdateWindow@4

; 705  : 
; 706  : 
; 707  : 	CWinConsole::m_hListBox = CreateWindowEx(0, "LISTBOX", "",
; 708  : 					WS_CHILD|WS_VSCROLL|WS_HSCROLL|WS_BORDER|(LBS_HASSTRINGS | LBS_USETABSTOPS),
; 709  : 					2, 2, 636, 462,
; 710  : 					CWinConsole::m_hWnd, 
; 711  : 					(HMENU)0xA7, m_hInstance, NULL);

  014ba	6a 00		 push	 0
  014bc	8b 45 fc	 mov	 eax, DWORD PTR _this$[ebp]
  014bf	8b 48 04	 mov	 ecx, DWORD PTR [eax+4]
  014c2	51		 push	 ecx
  014c3	68 a7 00 00 00	 push	 167			; 000000a7H
  014c8	8b 15 00 00 00
	00		 mov	 edx, DWORD PTR ?m_hWnd@CWinConsole@@0RAUHWND__@@A ; CWinConsole::m_hWnd
  014ce	52		 push	 edx
  014cf	68 ce 01 00 00	 push	 462			; 000001ceH
  014d4	68 7c 02 00 00	 push	 636			; 0000027cH
  014d9	6a 02		 push	 2
  014db	6a 02		 push	 2
  014dd	68 c0 00 b0 40	 push	 1085276352		; 40b000c0H
  014e2	68 00 00 00 00	 push	 OFFSET ??_C@_00CNPNBAHC@?$AA@
  014e7	68 00 00 00 00	 push	 OFFSET ??_C@_07EKEMFJNL@LISTBOX?$AA@
  014ec	6a 00		 push	 0
  014ee	ff 15 00 00 00
	00		 call	 DWORD PTR __imp__CreateWindowExA@48
  014f4	a3 00 00 00 00	 mov	 DWORD PTR ?m_hListBox@CWinConsole@@0RAUHWND__@@A, eax ; CWinConsole::m_hListBox

; 712  : 
; 713  : 	ShowWindow(CWinConsole::m_hListBox, SW_SHOW);

  014f9	6a 05		 push	 5
  014fb	a1 00 00 00 00	 mov	 eax, DWORD PTR ?m_hListBox@CWinConsole@@0RAUHWND__@@A ; CWinConsole::m_hListBox
  01500	50		 push	 eax
  01501	ff 15 00 00 00
	00		 call	 DWORD PTR __imp__ShowWindow@8

; 714  : 	UpdateWindow(CWinConsole::m_hListBox);

  01507	a1 00 00 00 00	 mov	 eax, DWORD PTR ?m_hListBox@CWinConsole@@0RAUHWND__@@A ; CWinConsole::m_hListBox
  0150c	50		 push	 eax
  0150d	ff 15 00 00 00
	00		 call	 DWORD PTR __imp__UpdateWindow@4

; 715  : 
; 716  : 
; 717  : 	CWinConsole::m_MaxTextWidth = 320;

  01513	c7 05 00 00 00
	00 40 01 00 00	 mov	 DWORD PTR ?m_MaxTextWidth@CWinConsole@@0HA, 320 ; CWinConsole::m_MaxTextWidth, 00000140H

; 718  : 	CWinConsole::m_hEditControl = CreateWindowEx(0, "EDIT", "",
; 719  : 							WS_CHILD | ES_AUTOHSCROLL,
; 720  : 							2, 462, 636, 16,
; 721  : 							CWinConsole::m_hWnd,
; 722  : 							(HMENU)0xA7, m_hInstance, 0);

  0151d	6a 00		 push	 0
  0151f	8b 45 fc	 mov	 eax, DWORD PTR _this$[ebp]
  01522	8b 48 04	 mov	 ecx, DWORD PTR [eax+4]
  01525	51		 push	 ecx
  01526	68 a7 00 00 00	 push	 167			; 000000a7H
  0152b	8b 15 00 00 00
	00		 mov	 edx, DWORD PTR ?m_hWnd@CWinConsole@@0RAUHWND__@@A ; CWinConsole::m_hWnd
  01531	52		 push	 edx
  01532	6a 10		 push	 16			; 00000010H
  01534	68 7c 02 00 00	 push	 636			; 0000027cH
  01539	68 ce 01 00 00	 push	 462			; 000001ceH
  0153e	6a 02		 push	 2
  01540	68 80 00 00 40	 push	 1073741952		; 40000080H
  01545	68 00 00 00 00	 push	 OFFSET ??_C@_00CNPNBAHC@?$AA@
  0154a	68 00 00 00 00	 push	 OFFSET ??_C@_04BMCEDOKO@EDIT?$AA@
  0154f	6a 00		 push	 0
  01551	ff 15 00 00 00
	00		 call	 DWORD PTR __imp__CreateWindowExA@48
  01557	a3 00 00 00 00	 mov	 DWORD PTR ?m_hEditControl@CWinConsole@@0RAUHWND__@@A, eax ; CWinConsole::m_hEditControl

; 723  : 
; 724  : 	ShowWindow(CWinConsole::m_hEditControl, SW_SHOW);

  0155c	6a 05		 push	 5
  0155e	a1 00 00 00 00	 mov	 eax, DWORD PTR ?m_hEditControl@CWinConsole@@0RAUHWND__@@A ; CWinConsole::m_hEditControl
  01563	50		 push	 eax
  01564	ff 15 00 00 00
	00		 call	 DWORD PTR __imp__ShowWindow@8

; 725  : 	UpdateWindow(CWinConsole::m_hEditControl);

  0156a	a1 00 00 00 00	 mov	 eax, DWORD PTR ?m_hEditControl@CWinConsole@@0RAUHWND__@@A ; CWinConsole::m_hEditControl
  0156f	50		 push	 eax
  01570	ff 15 00 00 00
	00		 call	 DWORD PTR __imp__UpdateWindow@4

; 726  : 
; 727  : 
; 728  : 	SendMessage(CWinConsole::m_hEditControl, EM_SETLIMITTEXT, WINCONSOLE_LINE_LENGTH, 0);

  01576	6a 00		 push	 0
  01578	68 00 04 00 00	 push	 1024			; 00000400H
  0157d	68 c5 00 00 00	 push	 197			; 000000c5H
  01582	a1 00 00 00 00	 mov	 eax, DWORD PTR ?m_hEditControl@CWinConsole@@0RAUHWND__@@A ; CWinConsole::m_hEditControl
  01587	50		 push	 eax
  01588	ff 15 00 00 00
	00		 call	 DWORD PTR __imp__SendMessageA@16

; 729  : 	m_ScrollyPos = 0;

  0158e	8b 45 fc	 mov	 eax, DWORD PTR _this$[ebp]
  01591	c7 40 18 00 00
	00 00		 mov	 DWORD PTR [eax+24], 0

; 730  : 
; 731  : 	lpfnInputEdit = (WNDPROC)SetWindowLong(
; 732  : 							CWinConsole::m_hEditControl,
; 733  : 							GWL_WNDPROC,
; 734  : 							(LONG)CWinConsole::SubclassInputEditProc);

  01598	68 00 00 00 00	 push	 OFFSET ?SubclassInputEditProc@CWinConsole@@SGJPAUHWND__@@IIJ@Z ; CWinConsole::SubclassInputEditProc
  0159d	6a fc		 push	 -4			; fffffffcH
  0159f	a1 00 00 00 00	 mov	 eax, DWORD PTR ?m_hEditControl@CWinConsole@@0RAUHWND__@@A ; CWinConsole::m_hEditControl
  015a4	50		 push	 eax
  015a5	ff 15 00 00 00
	00		 call	 DWORD PTR __imp__SetWindowLongA@12
  015ab	a3 00 00 00 00	 mov	 DWORD PTR ?lpfnInputEdit@@3P6GJPAUHWND__@@IIJ@ZA, eax ; lpfnInputEdit

; 735  : 
; 736  : 	g_Console->ResizeControls();

  015b0	8b 0d 00 00 00
	00		 mov	 ecx, DWORD PTR ?g_Console@@3PAVCWinConsole@@A ; g_Console
  015b6	e8 00 00 00 00	 call	 ?ResizeControls@CWinConsole@@AAEXXZ ; CWinConsole::ResizeControls

; 737  : 
; 738  : }

  015bb	5f		 pop	 edi
  015bc	5e		 pop	 esi
  015bd	5b		 pop	 ebx
  015be	8b e5		 mov	 esp, ebp
  015c0	5d		 pop	 ebp
  015c1	c2 04 00	 ret	 4
?Init@CWinConsole@@AAEXPAUHINSTANCE__@@@Z ENDP		; CWinConsole::Init
; Function compile flags: /Odtp /ZI
_iTimeOut$ = -8					; size = 4
_lpdwResult$ = -4					; size = 4
?ClearDbgWnd@CWinConsole@@SAXXZ PROC			; CWinConsole::ClearDbgWnd

; 741  : {

  015d0	55		 push	 ebp
  015d1	8b ec		 mov	 ebp, esp
  015d3	83 ec 48	 sub	 esp, 72			; 00000048H
  015d6	53		 push	 ebx
  015d7	56		 push	 esi
  015d8	57		 push	 edi

; 742  : 	DWORD lpdwResult;
; 743  : 	int iTimeOut;
; 744  : 
; 745  : 	if ( g_Console && CWinConsole::m_hWnd)

  015d9	83 3d 00 00 00
	00 00		 cmp	 DWORD PTR ?g_Console@@3PAVCWinConsole@@A, 0 ; g_Console
  015e0	74 76		 je	 SHORT $LN2@ClearDbgWn
  015e2	83 3d 00 00 00
	00 00		 cmp	 DWORD PTR ?m_hWnd@CWinConsole@@0RAUHWND__@@A, 0 ; CWinConsole::m_hWnd
  015e9	74 6d		 je	 SHORT $LN2@ClearDbgWn

; 746  : 	{
; 747  : 		iTimeOut = 1;

  015eb	c7 45 f8 01 00
	00 00		 mov	 DWORD PTR _iTimeOut$[ebp], 1

; 748  : 		lpdwResult = 0;

  015f2	c7 45 fc 00 00
	00 00		 mov	 DWORD PTR _lpdwResult$[ebp], 0

; 749  : 
; 750  : 		SendMessageTimeout(CWinConsole::m_hListBox, LB_RESETCONTENT,
; 751  : 				0, 0, SMTO_NORMAL, 1, &lpdwResult);

  015f9	8d 45 fc	 lea	 eax, DWORD PTR _lpdwResult$[ebp]
  015fc	50		 push	 eax
  015fd	6a 01		 push	 1
  015ff	6a 00		 push	 0
  01601	6a 00		 push	 0
  01603	6a 00		 push	 0
  01605	68 84 01 00 00	 push	 388			; 00000184H
  0160a	8b 0d 00 00 00
	00		 mov	 ecx, DWORD PTR ?m_hListBox@CWinConsole@@0RAUHWND__@@A ; CWinConsole::m_hListBox
  01610	51		 push	 ecx
  01611	ff 15 00 00 00
	00		 call	 DWORD PTR __imp__SendMessageTimeoutA@28

; 752  : 
; 753  : 		CWinConsole::m_MaxTextWidth = 320;

  01617	c7 05 00 00 00
	00 40 01 00 00	 mov	 DWORD PTR ?m_MaxTextWidth@CWinConsole@@0HA, 320 ; CWinConsole::m_MaxTextWidth, 00000140H

; 754  : 
; 755  : 		SendMessageTimeout(CWinConsole::m_hListBox, LB_SETHORIZONTALEXTENT,
; 756  : 				CWinConsole::m_MaxTextWidth + 10, 0, 
; 757  : 				SMTO_NORMAL, iTimeOut, &lpdwResult);

  01621	8d 45 fc	 lea	 eax, DWORD PTR _lpdwResult$[ebp]
  01624	50		 push	 eax
  01625	8b 4d f8	 mov	 ecx, DWORD PTR _iTimeOut$[ebp]
  01628	51		 push	 ecx
  01629	6a 00		 push	 0
  0162b	6a 00		 push	 0
  0162d	8b 15 00 00 00
	00		 mov	 edx, DWORD PTR ?m_MaxTextWidth@CWinConsole@@0HA ; CWinConsole::m_MaxTextWidth
  01633	83 c2 0a	 add	 edx, 10			; 0000000aH
  01636	52		 push	 edx
  01637	68 94 01 00 00	 push	 404			; 00000194H
  0163c	a1 00 00 00 00	 mov	 eax, DWORD PTR ?m_hListBox@CWinConsole@@0RAUHWND__@@A ; CWinConsole::m_hListBox
  01641	50		 push	 eax
  01642	ff 15 00 00 00
	00		 call	 DWORD PTR __imp__SendMessageTimeoutA@28

; 758  : 
; 759  : 		InvalidateRect(CWinConsole::m_hWnd, NULL, TRUE);

  01648	6a 01		 push	 1
  0164a	6a 00		 push	 0
  0164c	a1 00 00 00 00	 mov	 eax, DWORD PTR ?m_hWnd@CWinConsole@@0RAUHWND__@@A ; CWinConsole::m_hWnd
  01651	50		 push	 eax
  01652	ff 15 00 00 00
	00		 call	 DWORD PTR __imp__InvalidateRect@12
$LN2@ClearDbgWn:

; 760  : 	}
; 761  : }

  01658	5f		 pop	 edi
  01659	5e		 pop	 esi
  0165a	5b		 pop	 ebx
  0165b	8b e5		 mov	 esp, ebp
  0165d	5d		 pop	 ebp
  0165e	c3		 ret	 0
?ClearDbgWnd@CWinConsole@@SAXXZ ENDP			; CWinConsole::ClearDbgWnd
_TEXT	ENDS
PUBLIC	?GetHWND@CWinConsole@@QAEPAUHWND__@@XZ		; CWinConsole::GetHWND
; Function compile flags: /Odtp /ZI
_TEXT	SEGMENT
_this$ = -4						; size = 4
?GetHWND@CWinConsole@@QAEPAUHWND__@@XZ PROC		; CWinConsole::GetHWND
; _this$ = ecx

; 765  : {

  01660	55		 push	 ebp
  01661	8b ec		 mov	 ebp, esp
  01663	83 ec 44	 sub	 esp, 68			; 00000044H
  01666	53		 push	 ebx
  01667	56		 push	 esi
  01668	57		 push	 edi
  01669	89 4d fc	 mov	 DWORD PTR _this$[ebp], ecx

; 766  : 	return CWinConsole::m_hWnd;

  0166c	a1 00 00 00 00	 mov	 eax, DWORD PTR ?m_hWnd@CWinConsole@@0RAUHWND__@@A ; CWinConsole::m_hWnd

; 767  : }

  01671	5f		 pop	 edi
  01672	5e		 pop	 esi
  01673	5b		 pop	 ebx
  01674	8b e5		 mov	 esp, ebp
  01676	5d		 pop	 ebp
  01677	c3		 ret	 0
?GetHWND@CWinConsole@@QAEPAUHWND__@@XZ ENDP		; CWinConsole::GetHWND
_TEXT	ENDS
PUBLIC	?IsWinActive@CWinConsole@@QAE_NXZ		; CWinConsole::IsWinActive
; Function compile flags: /Odtp /ZI
_TEXT	SEGMENT
_this$ = -4						; size = 4
?IsWinActive@CWinConsole@@QAE_NXZ PROC			; CWinConsole::IsWinActive
; _this$ = ecx

; 770  : {

  01680	55		 push	 ebp
  01681	8b ec		 mov	 ebp, esp
  01683	83 ec 44	 sub	 esp, 68			; 00000044H
  01686	53		 push	 ebx
  01687	56		 push	 esi
  01688	57		 push	 edi
  01689	89 4d fc	 mov	 DWORD PTR _this$[ebp], ecx

; 771  : 	return CWinConsole::m_bWinIsActive;

  0168c	a0 00 00 00 00	 mov	 al, BYTE PTR ?m_bWinIsActive@CWinConsole@@0_NC ; CWinConsole::m_bWinIsActive

; 772  : }

  01691	5f		 pop	 edi
  01692	5e		 pop	 esi
  01693	5b		 pop	 ebx
  01694	8b e5		 mov	 esp, ebp
  01696	5d		 pop	 ebp
  01697	c3		 ret	 0
?IsWinActive@CWinConsole@@QAE_NXZ ENDP			; CWinConsole::IsWinActive
_TEXT	ENDS
PUBLIC	?HasFocusEditCtrl@CWinConsole@@QAE_NXZ		; CWinConsole::HasFocusEditCtrl
EXTRN	__imp__GetFocus@0:PROC
; Function compile flags: /Odtp /ZI
_TEXT	SEGMENT
_this$ = -4						; size = 4
?HasFocusEditCtrl@CWinConsole@@QAE_NXZ PROC		; CWinConsole::HasFocusEditCtrl
; _this$ = ecx

; 775  : {

  016a0	55		 push	 ebp
  016a1	8b ec		 mov	 ebp, esp
  016a3	83 ec 44	 sub	 esp, 68			; 00000044H
  016a6	53		 push	 ebx
  016a7	56		 push	 esi
  016a8	57		 push	 edi
  016a9	89 4d fc	 mov	 DWORD PTR _this$[ebp], ecx

; 776  : 	if(CWinConsole::m_hEditControl)

  016ac	83 3d 00 00 00
	00 00		 cmp	 DWORD PTR ?m_hEditControl@CWinConsole@@0RAUHWND__@@A, 0 ; CWinConsole::m_hEditControl
  016b3	74 17		 je	 SHORT $LN1@HasFocusEd

; 777  : 		return (CWinConsole::m_hEditControl == GetFocus());

  016b5	ff 15 00 00 00
	00		 call	 DWORD PTR __imp__GetFocus@0
  016bb	8b 0d 00 00 00
	00		 mov	 ecx, DWORD PTR ?m_hEditControl@CWinConsole@@0RAUHWND__@@A ; CWinConsole::m_hEditControl
  016c1	33 d2		 xor	 edx, edx
  016c3	3b c8		 cmp	 ecx, eax
  016c5	0f 94 c2	 sete	 dl
  016c8	8a c2		 mov	 al, dl
  016ca	eb 02		 jmp	 SHORT $LN2@HasFocusEd
$LN1@HasFocusEd:

; 778  : 
; 779  : 	return false;

  016cc	32 c0		 xor	 al, al
$LN2@HasFocusEd:

; 780  : }

  016ce	5f		 pop	 edi
  016cf	5e		 pop	 esi
  016d0	5b		 pop	 ebx
  016d1	8b e5		 mov	 esp, ebp
  016d3	5d		 pop	 ebp
  016d4	c3		 ret	 0
?HasFocusEditCtrl@CWinConsole@@QAE_NXZ ENDP		; CWinConsole::HasFocusEditCtrl
_TEXT	ENDS
EXTRN	_strcpy:PROC
; Function compile flags: /Odtp /ZI
_TEXT	SEGMENT
_bSetNext$ = 8						; size = 4
?ChangeFromStringToBackUp@CWinConsole@@CAXH@Z PROC	; CWinConsole::ChangeFromStringToBackUp

; 783  : {

  016e0	55		 push	 ebp
  016e1	8b ec		 mov	 ebp, esp
  016e3	83 ec 40	 sub	 esp, 64			; 00000040H
  016e6	53		 push	 ebx
  016e7	56		 push	 esi
  016e8	57		 push	 edi

; 784  : 	strcpy(CWinConsole::m_pszBackUpString[CWinConsole::m_iBackUpLineNo], 
; 785  : 				CWinConsole::m_CommandBuffer);

  016e9	68 00 00 00 00	 push	 OFFSET ?m_CommandBuffer@CWinConsole@@0PADA ; CWinConsole::m_CommandBuffer
  016ee	a1 00 00 00 00	 mov	 eax, DWORD PTR ?m_iBackUpLineNo@CWinConsole@@0HA ; CWinConsole::m_iBackUpLineNo
  016f3	c1 e0 0a	 shl	 eax, 10			; 0000000aH
  016f6	05 00 00 00 00	 add	 eax, OFFSET ?m_pszBackUpString@CWinConsole@@0PAY0EAA@DA ; CWinConsole::m_pszBackUpString
  016fb	50		 push	 eax
  016fc	e8 00 00 00 00	 call	 _strcpy
  01701	83 c4 08	 add	 esp, 8

; 786  : 
; 787  : 	if ( bSetNext )

  01704	83 7d 08 00	 cmp	 DWORD PTR _bSetNext$[ebp], 0
  01708	74 22		 je	 SHORT $LN4@ChangeFrom

; 788  : 	{
; 789  : 		++CWinConsole::m_iBackUpLineNo;

  0170a	a1 00 00 00 00	 mov	 eax, DWORD PTR ?m_iBackUpLineNo@CWinConsole@@0HA ; CWinConsole::m_iBackUpLineNo
  0170f	83 c0 01	 add	 eax, 1
  01712	a3 00 00 00 00	 mov	 DWORD PTR ?m_iBackUpLineNo@CWinConsole@@0HA, eax ; CWinConsole::m_iBackUpLineNo

; 790  : 		if ( CWinConsole::m_iBackUpLineNo >= WINCONSOLE_LINE_COUNT )

  01717	83 3d 00 00 00
	00 0a		 cmp	 DWORD PTR ?m_iBackUpLineNo@CWinConsole@@0HA, 10 ; CWinConsole::m_iBackUpLineNo, 0000000aH
  0171e	7c 0a		 jl	 SHORT $LN3@ChangeFrom

; 791  : 			CWinConsole::m_iBackUpLineNo = 0;

  01720	c7 05 00 00 00
	00 00 00 00 00	 mov	 DWORD PTR ?m_iBackUpLineNo@CWinConsole@@0HA, 0 ; CWinConsole::m_iBackUpLineNo
$LN3@ChangeFrom:

; 792  : 	}
; 793  : 	else

  0172a	eb 19		 jmp	 SHORT $LN2@ChangeFrom
$LN4@ChangeFrom:

; 794  : 	{
; 795  : 		--CWinConsole::m_iBackUpLineNo;

  0172c	a1 00 00 00 00	 mov	 eax, DWORD PTR ?m_iBackUpLineNo@CWinConsole@@0HA ; CWinConsole::m_iBackUpLineNo
  01731	83 e8 01	 sub	 eax, 1
  01734	a3 00 00 00 00	 mov	 DWORD PTR ?m_iBackUpLineNo@CWinConsole@@0HA, eax ; CWinConsole::m_iBackUpLineNo

; 796  : 		if ( CWinConsole::m_iBackUpLineNo < 0 )

  01739	79 0a		 jns	 SHORT $LN2@ChangeFrom

; 797  : 			CWinConsole::m_iBackUpLineNo = WINCONSOLE_LINE_COUNT-1;

  0173b	c7 05 00 00 00
	00 09 00 00 00	 mov	 DWORD PTR ?m_iBackUpLineNo@CWinConsole@@0HA, 9 ; CWinConsole::m_iBackUpLineNo
$LN2@ChangeFrom:

; 798  : 	}
; 799  : 
; 800  : 	CWinConsole::m_iCurrentBackUpLineNo = CWinConsole::m_iBackUpLineNo;

  01745	a1 00 00 00 00	 mov	 eax, DWORD PTR ?m_iBackUpLineNo@CWinConsole@@0HA ; CWinConsole::m_iBackUpLineNo
  0174a	a3 00 00 00 00	 mov	 DWORD PTR ?m_iCurrentBackUpLineNo@CWinConsole@@0HA, eax ; CWinConsole::m_iCurrentBackUpLineNo

; 801  : }

  0174f	5f		 pop	 edi
  01750	5e		 pop	 esi
  01751	5b		 pop	 ebx
  01752	8b e5		 mov	 esp, ebp
  01754	5d		 pop	 ebp
  01755	c3		 ret	 0
?ChangeFromStringToBackUp@CWinConsole@@CAXH@Z ENDP	; CWinConsole::ChangeFromStringToBackUp
; Function compile flags: /Odtp /ZI
_i$205549 = -20					; size = 4
_i$205543 = -16						; size = 4
_i$205535 = -12						; size = 4
_i$205529 = -8						; size = 4
_bExist$ = -4						; size = 4
_bGetNext$ = 8						; size = 4
?ChangeFromBackUpToString@CWinConsole@@CAXH@Z PROC	; CWinConsole::ChangeFromBackUpToString

; 804  : {

  01760	55		 push	 ebp
  01761	8b ec		 mov	 ebp, esp
  01763	83 ec 54	 sub	 esp, 84			; 00000054H
  01766	53		 push	 ebx
  01767	56		 push	 esi
  01768	57		 push	 edi

; 805  : 	BOOL bExist = FALSE;

  01769	c7 45 fc 00 00
	00 00		 mov	 DWORD PTR _bExist$[ebp], 0

; 806  : 	if ( bGetNext )

  01770	83 7d 08 00	 cmp	 DWORD PTR _bGetNext$[ebp], 0
  01774	0f 84 b9 00 00
	00		 je	 $LN25@ChangeFrom@2

; 807  : 	{
; 808  : 		if ( CWinConsole::m_iCurrentBackUpLineNo < WINCONSOLE_LINE_COUNT-1 )

  0177a	83 3d 00 00 00
	00 09		 cmp	 DWORD PTR ?m_iCurrentBackUpLineNo@CWinConsole@@0HA, 9 ; CWinConsole::m_iCurrentBackUpLineNo
  01781	7d 0f		 jge	 SHORT $LN24@ChangeFrom@2

; 809  : 			++CWinConsole::m_iCurrentBackUpLineNo;

  01783	a1 00 00 00 00	 mov	 eax, DWORD PTR ?m_iCurrentBackUpLineNo@CWinConsole@@0HA ; CWinConsole::m_iCurrentBackUpLineNo
  01788	83 c0 01	 add	 eax, 1
  0178b	a3 00 00 00 00	 mov	 DWORD PTR ?m_iCurrentBackUpLineNo@CWinConsole@@0HA, eax ; CWinConsole::m_iCurrentBackUpLineNo

; 810  : 		else

  01790	eb 0a		 jmp	 SHORT $LN23@ChangeFrom@2
$LN24@ChangeFrom@2:

; 811  : 			CWinConsole::m_iCurrentBackUpLineNo = 0;

  01792	c7 05 00 00 00
	00 00 00 00 00	 mov	 DWORD PTR ?m_iCurrentBackUpLineNo@CWinConsole@@0HA, 0 ; CWinConsole::m_iCurrentBackUpLineNo
$LN23@ChangeFrom@2:

; 812  : 
; 813  : 		for (int i = CWinConsole::m_iCurrentBackUpLineNo; i < WINCONSOLE_LINE_COUNT; ++i )

  0179c	a1 00 00 00 00	 mov	 eax, DWORD PTR ?m_iCurrentBackUpLineNo@CWinConsole@@0HA ; CWinConsole::m_iCurrentBackUpLineNo
  017a1	89 45 f8	 mov	 DWORD PTR _i$205529[ebp], eax
  017a4	eb 09		 jmp	 SHORT $LN22@ChangeFrom@2
$LN21@ChangeFrom@2:
  017a6	8b 45 f8	 mov	 eax, DWORD PTR _i$205529[ebp]
  017a9	83 c0 01	 add	 eax, 1
  017ac	89 45 f8	 mov	 DWORD PTR _i$205529[ebp], eax
$LN22@ChangeFrom@2:
  017af	83 7d f8 0a	 cmp	 DWORD PTR _i$205529[ebp], 10 ; 0000000aH
  017b3	7d 2b		 jge	 SHORT $LN20@ChangeFrom@2

; 814  : 		{
; 815  : 			if ( strlen(CWinConsole::m_pszBackUpString[i]) )

  017b5	8b 45 f8	 mov	 eax, DWORD PTR _i$205529[ebp]
  017b8	c1 e0 0a	 shl	 eax, 10			; 0000000aH
  017bb	05 00 00 00 00	 add	 eax, OFFSET ?m_pszBackUpString@CWinConsole@@0PAY0EAA@DA ; CWinConsole::m_pszBackUpString
  017c0	50		 push	 eax
  017c1	e8 00 00 00 00	 call	 _strlen
  017c6	83 c4 04	 add	 esp, 4
  017c9	85 c0		 test	 eax, eax
  017cb	74 11		 je	 SHORT $LN19@ChangeFrom@2

; 816  : 			{
; 817  : 				CWinConsole::m_iCurrentBackUpLineNo = i;

  017cd	8b 45 f8	 mov	 eax, DWORD PTR _i$205529[ebp]
  017d0	a3 00 00 00 00	 mov	 DWORD PTR ?m_iCurrentBackUpLineNo@CWinConsole@@0HA, eax ; CWinConsole::m_iCurrentBackUpLineNo

; 818  : 				bExist = TRUE;

  017d5	c7 45 fc 01 00
	00 00		 mov	 DWORD PTR _bExist$[ebp], 1

; 819  : 				break;

  017dc	eb 02		 jmp	 SHORT $LN20@ChangeFrom@2
$LN19@ChangeFrom@2:

; 820  : 			}
; 821  : 		}

  017de	eb c6		 jmp	 SHORT $LN21@ChangeFrom@2
$LN20@ChangeFrom@2:

; 822  : 
; 823  : 		if ( !bExist )

  017e0	83 7d fc 00	 cmp	 DWORD PTR _bExist$[ebp], 0
  017e4	75 48		 jne	 SHORT $LN18@ChangeFrom@2

; 824  : 		{
; 825  : 			for (int i = 0; i < CWinConsole::m_iCurrentBackUpLineNo; ++i )

  017e6	c7 45 f4 00 00
	00 00		 mov	 DWORD PTR _i$205535[ebp], 0
  017ed	eb 09		 jmp	 SHORT $LN17@ChangeFrom@2
$LN16@ChangeFrom@2:
  017ef	8b 45 f4	 mov	 eax, DWORD PTR _i$205535[ebp]
  017f2	83 c0 01	 add	 eax, 1
  017f5	89 45 f4	 mov	 DWORD PTR _i$205535[ebp], eax
$LN17@ChangeFrom@2:
  017f8	8b 45 f4	 mov	 eax, DWORD PTR _i$205535[ebp]
  017fb	3b 05 00 00 00
	00		 cmp	 eax, DWORD PTR ?m_iCurrentBackUpLineNo@CWinConsole@@0HA ; CWinConsole::m_iCurrentBackUpLineNo
  01801	7d 2b		 jge	 SHORT $LN18@ChangeFrom@2

; 826  : 			{
; 827  : 				if ( strlen(CWinConsole::m_pszBackUpString[i]) )

  01803	8b 45 f4	 mov	 eax, DWORD PTR _i$205535[ebp]
  01806	c1 e0 0a	 shl	 eax, 10			; 0000000aH
  01809	05 00 00 00 00	 add	 eax, OFFSET ?m_pszBackUpString@CWinConsole@@0PAY0EAA@DA ; CWinConsole::m_pszBackUpString
  0180e	50		 push	 eax
  0180f	e8 00 00 00 00	 call	 _strlen
  01814	83 c4 04	 add	 esp, 4
  01817	85 c0		 test	 eax, eax
  01819	74 11		 je	 SHORT $LN14@ChangeFrom@2

; 828  : 				{
; 829  : 					CWinConsole::m_iCurrentBackUpLineNo = i;

  0181b	8b 45 f4	 mov	 eax, DWORD PTR _i$205535[ebp]
  0181e	a3 00 00 00 00	 mov	 DWORD PTR ?m_iCurrentBackUpLineNo@CWinConsole@@0HA, eax ; CWinConsole::m_iCurrentBackUpLineNo

; 830  : 					bExist = TRUE;

  01823	c7 45 fc 01 00
	00 00		 mov	 DWORD PTR _bExist$[ebp], 1

; 831  : 					break;

  0182a	eb 02		 jmp	 SHORT $LN18@ChangeFrom@2
$LN14@ChangeFrom@2:

; 832  : 				}
; 833  : 			}

  0182c	eb c1		 jmp	 SHORT $LN16@ChangeFrom@2
$LN18@ChangeFrom@2:

; 834  : 		}
; 835  : 	}
; 836  : 	else

  0182e	e9 b4 00 00 00	 jmp	 $LN13@ChangeFrom@2
$LN25@ChangeFrom@2:

; 837  : 	{
; 838  : 		if ( CWinConsole::m_iCurrentBackUpLineNo <= 0 )

  01833	83 3d 00 00 00
	00 00		 cmp	 DWORD PTR ?m_iCurrentBackUpLineNo@CWinConsole@@0HA, 0 ; CWinConsole::m_iCurrentBackUpLineNo
  0183a	7f 0c		 jg	 SHORT $LN12@ChangeFrom@2

; 839  : 			CWinConsole::m_iCurrentBackUpLineNo = WINCONSOLE_LINE_COUNT-1;

  0183c	c7 05 00 00 00
	00 09 00 00 00	 mov	 DWORD PTR ?m_iCurrentBackUpLineNo@CWinConsole@@0HA, 9 ; CWinConsole::m_iCurrentBackUpLineNo

; 840  : 		else

  01846	eb 0d		 jmp	 SHORT $LN11@ChangeFrom@2
$LN12@ChangeFrom@2:

; 841  : 			--CWinConsole::m_iCurrentBackUpLineNo;

  01848	a1 00 00 00 00	 mov	 eax, DWORD PTR ?m_iCurrentBackUpLineNo@CWinConsole@@0HA ; CWinConsole::m_iCurrentBackUpLineNo
  0184d	83 e8 01	 sub	 eax, 1
  01850	a3 00 00 00 00	 mov	 DWORD PTR ?m_iCurrentBackUpLineNo@CWinConsole@@0HA, eax ; CWinConsole::m_iCurrentBackUpLineNo
$LN11@ChangeFrom@2:

; 842  : 
; 843  : 		for ( int i = CWinConsole::m_iCurrentBackUpLineNo; i >= 0; --i )

  01855	a1 00 00 00 00	 mov	 eax, DWORD PTR ?m_iCurrentBackUpLineNo@CWinConsole@@0HA ; CWinConsole::m_iCurrentBackUpLineNo
  0185a	89 45 f0	 mov	 DWORD PTR _i$205543[ebp], eax
  0185d	eb 09		 jmp	 SHORT $LN10@ChangeFrom@2
$LN9@ChangeFrom@2:
  0185f	8b 45 f0	 mov	 eax, DWORD PTR _i$205543[ebp]
  01862	83 e8 01	 sub	 eax, 1
  01865	89 45 f0	 mov	 DWORD PTR _i$205543[ebp], eax
$LN10@ChangeFrom@2:
  01868	83 7d f0 00	 cmp	 DWORD PTR _i$205543[ebp], 0
  0186c	7c 2b		 jl	 SHORT $LN8@ChangeFrom@2

; 844  : 		{
; 845  : 			if ( strlen(CWinConsole::m_pszBackUpString[i]) )

  0186e	8b 45 f0	 mov	 eax, DWORD PTR _i$205543[ebp]
  01871	c1 e0 0a	 shl	 eax, 10			; 0000000aH
  01874	05 00 00 00 00	 add	 eax, OFFSET ?m_pszBackUpString@CWinConsole@@0PAY0EAA@DA ; CWinConsole::m_pszBackUpString
  01879	50		 push	 eax
  0187a	e8 00 00 00 00	 call	 _strlen
  0187f	83 c4 04	 add	 esp, 4
  01882	85 c0		 test	 eax, eax
  01884	74 11		 je	 SHORT $LN7@ChangeFrom@2

; 846  : 			{
; 847  : 				CWinConsole::m_iCurrentBackUpLineNo = i;

  01886	8b 45 f0	 mov	 eax, DWORD PTR _i$205543[ebp]
  01889	a3 00 00 00 00	 mov	 DWORD PTR ?m_iCurrentBackUpLineNo@CWinConsole@@0HA, eax ; CWinConsole::m_iCurrentBackUpLineNo

; 848  : 				bExist = TRUE;

  0188e	c7 45 fc 01 00
	00 00		 mov	 DWORD PTR _bExist$[ebp], 1

; 849  : 				break;

  01895	eb 02		 jmp	 SHORT $LN8@ChangeFrom@2
$LN7@ChangeFrom@2:

; 850  : 			}
; 851  : 		}

  01897	eb c6		 jmp	 SHORT $LN9@ChangeFrom@2
$LN8@ChangeFrom@2:

; 852  : 
; 853  : 		if ( !bExist )

  01899	83 7d fc 00	 cmp	 DWORD PTR _bExist$[ebp], 0
  0189d	75 48		 jne	 SHORT $LN13@ChangeFrom@2

; 854  : 		{
; 855  : 			for ( int i = WINCONSOLE_LINE_COUNT-1; i > CWinConsole::m_iCurrentBackUpLineNo; --i )

  0189f	c7 45 ec 09 00
	00 00		 mov	 DWORD PTR _i$205549[ebp], 9
  018a6	eb 09		 jmp	 SHORT $LN5@ChangeFrom@2
$LN4@ChangeFrom@2:
  018a8	8b 45 ec	 mov	 eax, DWORD PTR _i$205549[ebp]
  018ab	83 e8 01	 sub	 eax, 1
  018ae	89 45 ec	 mov	 DWORD PTR _i$205549[ebp], eax
$LN5@ChangeFrom@2:
  018b1	8b 45 ec	 mov	 eax, DWORD PTR _i$205549[ebp]
  018b4	3b 05 00 00 00
	00		 cmp	 eax, DWORD PTR ?m_iCurrentBackUpLineNo@CWinConsole@@0HA ; CWinConsole::m_iCurrentBackUpLineNo
  018ba	7e 2b		 jle	 SHORT $LN13@ChangeFrom@2

; 856  : 			{
; 857  : 				if ( strlen(CWinConsole::m_pszBackUpString[i]) )

  018bc	8b 45 ec	 mov	 eax, DWORD PTR _i$205549[ebp]
  018bf	c1 e0 0a	 shl	 eax, 10			; 0000000aH
  018c2	05 00 00 00 00	 add	 eax, OFFSET ?m_pszBackUpString@CWinConsole@@0PAY0EAA@DA ; CWinConsole::m_pszBackUpString
  018c7	50		 push	 eax
  018c8	e8 00 00 00 00	 call	 _strlen
  018cd	83 c4 04	 add	 esp, 4
  018d0	85 c0		 test	 eax, eax
  018d2	74 11		 je	 SHORT $LN2@ChangeFrom@2

; 858  : 				{
; 859  : 					CWinConsole::m_iCurrentBackUpLineNo = i;

  018d4	8b 45 ec	 mov	 eax, DWORD PTR _i$205549[ebp]
  018d7	a3 00 00 00 00	 mov	 DWORD PTR ?m_iCurrentBackUpLineNo@CWinConsole@@0HA, eax ; CWinConsole::m_iCurrentBackUpLineNo

; 860  : 					bExist = TRUE;

  018dc	c7 45 fc 01 00
	00 00		 mov	 DWORD PTR _bExist$[ebp], 1

; 861  : 					break;

  018e3	eb 02		 jmp	 SHORT $LN13@ChangeFrom@2
$LN2@ChangeFrom@2:

; 862  : 				}
; 863  : 			}

  018e5	eb c1		 jmp	 SHORT $LN4@ChangeFrom@2
$LN13@ChangeFrom@2:

; 864  : 		}
; 865  : 	}
; 866  : 
; 867  : 	if ( bExist )

  018e7	83 7d fc 00	 cmp	 DWORD PTR _bExist$[ebp], 0
  018eb	74 33		 je	 SHORT $LN26@ChangeFrom@2

; 868  : 	{
; 869  : 		ZeroMemory(CWinConsole::m_CommandBuffer, sizeof(CWinConsole::m_CommandBuffer));

  018ed	68 00 04 00 00	 push	 1024			; 00000400H
  018f2	6a 00		 push	 0
  018f4	68 00 00 00 00	 push	 OFFSET ?m_CommandBuffer@CWinConsole@@0PADA ; CWinConsole::m_CommandBuffer
  018f9	e8 00 00 00 00	 call	 _memset
  018fe	83 c4 0c	 add	 esp, 12			; 0000000cH

; 870  : 		SendMessage(CWinConsole::m_hEditControl,
; 871  : 				WM_SETTEXT, 0,
; 872  : 				(LPARAM)CWinConsole::m_pszBackUpString[CWinConsole::m_iCurrentBackUpLineNo]);

  01901	a1 00 00 00 00	 mov	 eax, DWORD PTR ?m_iCurrentBackUpLineNo@CWinConsole@@0HA ; CWinConsole::m_iCurrentBackUpLineNo
  01906	c1 e0 0a	 shl	 eax, 10			; 0000000aH
  01909	05 00 00 00 00	 add	 eax, OFFSET ?m_pszBackUpString@CWinConsole@@0PAY0EAA@DA ; CWinConsole::m_pszBackUpString
  0190e	50		 push	 eax
  0190f	6a 00		 push	 0
  01911	6a 0c		 push	 12			; 0000000cH
  01913	8b 0d 00 00 00
	00		 mov	 ecx, DWORD PTR ?m_hEditControl@CWinConsole@@0RAUHWND__@@A ; CWinConsole::m_hEditControl
  01919	51		 push	 ecx
  0191a	ff 15 00 00 00
	00		 call	 DWORD PTR __imp__SendMessageA@16
$LN26@ChangeFrom@2:

; 873  : 	}
; 874  : }

  01920	5f		 pop	 edi
  01921	5e		 pop	 esi
  01922	5b		 pop	 ebx
  01923	8b e5		 mov	 esp, ebp
  01925	5d		 pop	 ebp
  01926	c3		 ret	 0
?ChangeFromBackUpToString@CWinConsole@@CAXH@Z ENDP	; CWinConsole::ChangeFromBackUpToString
_TEXT	ENDS
PUBLIC	?GetWinConsoleOpt@CWinConsole@@QAEKXZ		; CWinConsole::GetWinConsoleOpt
; Function compile flags: /Odtp /ZI
_TEXT	SEGMENT
_dwWinConsoleOpt$ = 8					; size = 4
?EnableWinConsoleOption@CWinConsole@@SA_NK@Z PROC	; CWinConsole::EnableWinConsoleOption

; 878  : {

  01930	55		 push	 ebp
  01931	8b ec		 mov	 ebp, esp
  01933	83 ec 40	 sub	 esp, 64			; 00000040H
  01936	53		 push	 ebx
  01937	56		 push	 esi
  01938	57		 push	 edi

; 879  : 	if(g_Console && CWinConsole::m_hWnd)

  01939	83 3d 00 00 00
	00 00		 cmp	 DWORD PTR ?g_Console@@3PAVCWinConsole@@A, 0 ; g_Console
  01940	74 1d		 je	 SHORT $LN2@EnableWinC
  01942	83 3d 00 00 00
	00 00		 cmp	 DWORD PTR ?m_hWnd@CWinConsole@@0RAUHWND__@@A, 0 ; CWinConsole::m_hWnd
  01949	74 14		 je	 SHORT $LN2@EnableWinC

; 880  : 	{
; 881  : 		if( (g_Console->GetWinConsoleOpt() & dwWinConsoleOpt) )

  0194b	8b 0d 00 00 00
	00		 mov	 ecx, DWORD PTR ?g_Console@@3PAVCWinConsole@@A ; g_Console
  01951	e8 00 00 00 00	 call	 ?GetWinConsoleOpt@CWinConsole@@QAEKXZ ; CWinConsole::GetWinConsoleOpt
  01956	23 45 08	 and	 eax, DWORD PTR _dwWinConsoleOpt$[ebp]
  01959	74 04		 je	 SHORT $LN2@EnableWinC

; 882  : 			return true;

  0195b	b0 01		 mov	 al, 1
  0195d	eb 02		 jmp	 SHORT $LN3@EnableWinC
$LN2@EnableWinC:

; 883  : 	}
; 884  : 
; 885  : 	return false;

  0195f	32 c0		 xor	 al, al
$LN3@EnableWinC:

; 886  : }

  01961	5f		 pop	 edi
  01962	5e		 pop	 esi
  01963	5b		 pop	 ebx
  01964	8b e5		 mov	 esp, ebp
  01966	5d		 pop	 ebp
  01967	c3		 ret	 0
?EnableWinConsoleOption@CWinConsole@@SA_NK@Z ENDP	; CWinConsole::EnableWinConsoleOption
; Function compile flags: /Odtp /ZI
_this$ = -4						; size = 4
?GetWinConsoleOpt@CWinConsole@@QAEKXZ PROC		; CWinConsole::GetWinConsoleOpt
; _this$ = ecx

; 889  : {

  01970	55		 push	 ebp
  01971	8b ec		 mov	 ebp, esp
  01973	83 ec 44	 sub	 esp, 68			; 00000044H
  01976	53		 push	 ebx
  01977	56		 push	 esi
  01978	57		 push	 edi
  01979	89 4d fc	 mov	 DWORD PTR _this$[ebp], ecx

; 890  : 	return m_dwWinConsoleOpt;

  0197c	8b 45 fc	 mov	 eax, DWORD PTR _this$[ebp]
  0197f	8b 40 10	 mov	 eax, DWORD PTR [eax+16]

; 891  : }

  01982	5f		 pop	 edi
  01983	5e		 pop	 esi
  01984	5b		 pop	 ebx
  01985	8b e5		 mov	 esp, ebp
  01987	5d		 pop	 ebp
  01988	c3		 ret	 0
?GetWinConsoleOpt@CWinConsole@@QAEKXZ ENDP		; CWinConsole::GetWinConsoleOpt
; Function compile flags: /Odtp /ZI
_this$ = -4						; size = 4
_dwWinConsoleOpt$ = 8					; size = 4
?AddWinConsoleOption@CWinConsole@@QAEXK@Z PROC		; CWinConsole::AddWinConsoleOption
; _this$ = ecx

; 894  : {

  01990	55		 push	 ebp
  01991	8b ec		 mov	 ebp, esp
  01993	83 ec 44	 sub	 esp, 68			; 00000044H
  01996	53		 push	 ebx
  01997	56		 push	 esi
  01998	57		 push	 edi
  01999	89 4d fc	 mov	 DWORD PTR _this$[ebp], ecx

; 895  : 	m_dwWinConsoleOpt |= dwWinConsoleOpt;

  0199c	8b 45 fc	 mov	 eax, DWORD PTR _this$[ebp]
  0199f	8b 48 10	 mov	 ecx, DWORD PTR [eax+16]
  019a2	0b 4d 08	 or	 ecx, DWORD PTR _dwWinConsoleOpt$[ebp]
  019a5	8b 55 fc	 mov	 edx, DWORD PTR _this$[ebp]
  019a8	89 4a 10	 mov	 DWORD PTR [edx+16], ecx

; 896  : }

  019ab	5f		 pop	 edi
  019ac	5e		 pop	 esi
  019ad	5b		 pop	 ebx
  019ae	8b e5		 mov	 esp, ebp
  019b0	5d		 pop	 ebp
  019b1	c2 04 00	 ret	 4
?AddWinConsoleOption@CWinConsole@@QAEXK@Z ENDP		; CWinConsole::AddWinConsoleOption
; Function compile flags: /Odtp /ZI
_this$ = -4						; size = 4
_dwWinConsoleOpt$ = 8					; size = 4
?SubtractWinConsoleOption@CWinConsole@@QAEXK@Z PROC	; CWinConsole::SubtractWinConsoleOption
; _this$ = ecx

; 899  : {

  019c0	55		 push	 ebp
  019c1	8b ec		 mov	 ebp, esp
  019c3	83 ec 44	 sub	 esp, 68			; 00000044H
  019c6	53		 push	 ebx
  019c7	56		 push	 esi
  019c8	57		 push	 edi
  019c9	89 4d fc	 mov	 DWORD PTR _this$[ebp], ecx

; 900  : 	m_dwWinConsoleOpt &= (~dwWinConsoleOpt);

  019cc	8b 45 08	 mov	 eax, DWORD PTR _dwWinConsoleOpt$[ebp]
  019cf	f7 d0		 not	 eax
  019d1	8b 4d fc	 mov	 ecx, DWORD PTR _this$[ebp]
  019d4	23 41 10	 and	 eax, DWORD PTR [ecx+16]
  019d7	8b 55 fc	 mov	 edx, DWORD PTR _this$[ebp]
  019da	89 42 10	 mov	 DWORD PTR [edx+16], eax

; 901  : }

  019dd	5f		 pop	 edi
  019de	5e		 pop	 esi
  019df	5b		 pop	 ebx
  019e0	8b e5		 mov	 esp, ebp
  019e2	5d		 pop	 ebp
  019e3	c2 04 00	 ret	 4
?SubtractWinConsoleOption@CWinConsole@@QAEXK@Z ENDP	; CWinConsole::SubtractWinConsoleOption
_TEXT	ENDS
EXTRN	__localtime64:PROC
; Function compile flags: /Odtp /ZI
; File d:\microsoft visual studio 10.0\vc\include\time.inl
_TEXT	SEGMENT
__Time$ = 8						; size = 4
_localtime PROC

; 113  : {

  019f0	55		 push	 ebp
  019f1	8b ec		 mov	 ebp, esp
  019f3	83 ec 40	 sub	 esp, 64			; 00000040H
  019f6	53		 push	 ebx
  019f7	56		 push	 esi
  019f8	57		 push	 edi

; 114  : #pragma warning( push )
; 115  : #pragma warning( disable : 4996 )
; 116  :     return _localtime64(_Time);

  019f9	8b 45 08	 mov	 eax, DWORD PTR __Time$[ebp]
  019fc	50		 push	 eax
  019fd	e8 00 00 00 00	 call	 __localtime64
  01a02	83 c4 04	 add	 esp, 4

; 117  : #pragma warning( pop )
; 118  : }

  01a05	5f		 pop	 edi
  01a06	5e		 pop	 esi
  01a07	5b		 pop	 ebx
  01a08	8b e5		 mov	 esp, ebp
  01a0a	5d		 pop	 ebp
  01a0b	c3		 ret	 0
_localtime ENDP
_TEXT	ENDS
EXTRN	__time64:PROC
; Function compile flags: /Odtp /ZI
_TEXT	SEGMENT
__Time$ = 8						; size = 4
_time	PROC

; 132  : {

  01a10	55		 push	 ebp
  01a11	8b ec		 mov	 ebp, esp
  01a13	83 ec 40	 sub	 esp, 64			; 00000040H
  01a16	53		 push	 ebx
  01a17	56		 push	 esi
  01a18	57		 push	 edi

; 133  :     return _time64(_Time);

  01a19	8b 45 08	 mov	 eax, DWORD PTR __Time$[ebp]
  01a1c	50		 push	 eax
  01a1d	e8 00 00 00 00	 call	 __time64
  01a22	83 c4 04	 add	 esp, 4

; 134  : }

  01a25	5f		 pop	 edi
  01a26	5e		 pop	 esi
  01a27	5b		 pop	 ebx
  01a28	8b e5		 mov	 esp, ebp
  01a2a	5d		 pop	 ebp
  01a2b	c3		 ret	 0
_time	ENDP
_TEXT	ENDS
END
