; Listing generated by Microsoft (R) Optimizing Compiler Version 16.00.40219.01 

	TITLE	D:\Projects\ExTeam6.3\Source\GameServer\GameServer\WzAG.cpp
	.686P
	.XMM
	include listing.inc
	.model	flat

INCLUDELIB LIBCMT
INCLUDELIB OLDNAMES

PUBLIC	?SMDFile@@3PAU_iobuf@@A				; SMDFile
PUBLIC	?DataBuffer@@3PADA				; DataBuffer
PUBLIC	?DataBufferSize@@3KA				; DataBufferSize
PUBLIC	?gWzAG@@3VWzAG@@A				; gWzAG
PUBLIC	?sztmpServerName@@3PADA				; sztmpServerName
PUBLIC	?szServerKey@@3PAEA				; szServerKey
_BSS	SEGMENT
?SMDFile@@3PAU_iobuf@@A DD 01H DUP (?)			; SMDFile
?DataBuffer@@3PADA DD 01H DUP (?)			; DataBuffer
?DataBufferSize@@3KA DD 01H DUP (?)			; DataBufferSize
?gWzAG@@3VWzAG@@A DB 01H DUP (?)			; gWzAG
	ALIGN	4

?sztmpServerName@@3PADA DB 033H DUP (?)			; sztmpServerName
_BSS	ENDS
_DATA	SEGMENT
_g_iNpcUpDfLevel_CGATE DD 01H
	DD	02H
	DD	02dc6c0H
	DD	02H
	DD	03H
	DD	02dc6c0H
	DD	03H
	DD	04H
	DD	02dc6c0H
_g_iNpcUpDfLevel_CSTATUE DD 01H
	DD	03H
	DD	02dc6c0H
	DD	02H
	DD	05H
	DD	02dc6c0H
	DD	03H
	DD	07H
	DD	02dc6c0H
_g_iNpcUpMaxHP_CGATE DD 02625a0H
	DD	02H
	DD	0f4240H
	DD	03567e0H
	DD	03H
	DD	0f4240H
	DD	04f5880H
	DD	04H
	DD	0f4240H
_g_iNpcUpMaxHP_CSTATUE DD 02191c0H
	DD	03H
	DD	0f4240H
	DD	033e140H
	DD	05H
	DD	0f4240H
	DD	04c4b40H
	DD	07H
	DD	0f4240H
_g_iNpcUpRgLevel_CSTATUE DD 01H
	DD	03H
	DD	04c4b40H
	DD	02H
	DD	05H
	DD	04c4b40H
	DD	03H
	DD	07H
	DD	04c4b40H
_g_iCsUserReSpawnArea DD 023H
	DD	011H
	DD	090H
	DD	030H
	DD	04aH
	DD	090H
	DD	073H
	DD	09aH
	DD	023H
	DD	011H
	DD	090H
	DD	030H
_g_iNpcDefense_CGATE DD 064H
	DD	0b4H
	DD	012cH
	DD	0208H
_g_iNpcDefense_CSTATUE DD 050H
	DD	0b4H
	DD	0154H
	DD	0226H
_g_iCastleWallStepAxisY DD 071H
	DD	0a0H
	DD	0cbH
?szServerKey@@3PAEA DB 029H				; szServerKey
	DB	023H
	DB	0beH
	DB	00H
	DB	0e1H
	DB	06cH
	DB	0d6H
	DB	0aeH
	DB	052H
	DB	090H
	DB	049H
	DB	0f1H
	DB	0f1H
	DB	0bbH
	DB	0e9H
	DB	0ebH
	DB	0b3H
	DB	0a6H
	DB	0dbH
_DATA	ENDS
PUBLIC	??_H@YGXPAXIHP6EPAX0@Z@Z			; `vector constructor iterator'
; Function compile flags: /Odtp /ZI
;	COMDAT ??_H@YGXPAXIHP6EPAX0@Z@Z
_TEXT	SEGMENT
___t$ = 8						; size = 4
___s$ = 12						; size = 4
___n$ = 16						; size = 4
___f$ = 20						; size = 4
??_H@YGXPAXIHP6EPAX0@Z@Z PROC				; `vector constructor iterator', COMDAT
  00000	55		 push	 ebp
  00001	8b ec		 mov	 ebp, esp
  00003	83 ec 40	 sub	 esp, 64			; 00000040H
  00006	53		 push	 ebx
  00007	56		 push	 esi
  00008	57		 push	 edi
$LN2@vector:
  00009	8b 45 10	 mov	 eax, DWORD PTR ___n$[ebp]
  0000c	83 e8 01	 sub	 eax, 1
  0000f	89 45 10	 mov	 DWORD PTR ___n$[ebp], eax
  00012	78 11		 js	 SHORT $LN3@vector
  00014	8b 4d 08	 mov	 ecx, DWORD PTR ___t$[ebp]
  00017	ff 55 14	 call	 DWORD PTR ___f$[ebp]
  0001a	8b 45 08	 mov	 eax, DWORD PTR ___t$[ebp]
  0001d	03 45 0c	 add	 eax, DWORD PTR ___s$[ebp]
  00020	89 45 08	 mov	 DWORD PTR ___t$[ebp], eax
  00023	eb e4		 jmp	 SHORT $LN2@vector
$LN3@vector:
  00025	5f		 pop	 edi
  00026	5e		 pop	 esi
  00027	5b		 pop	 ebx
  00028	8b e5		 mov	 esp, ebp
  0002a	5d		 pop	 ebp
  0002b	c2 10 00	 ret	 16			; 00000010H
??_H@YGXPAXIHP6EPAX0@Z@Z ENDP				; `vector constructor iterator'
_TEXT	ENDS
PUBLIC	?GameServerAuthCallBackFunc@@YAXHH@Z		; GameServerAuthCallBackFunc
EXTRN	?ReadServerInfo@@YAXXZ:PROC			; ReadServerInfo
EXTRN	?GameMonsterAllCloseAndReLoad@@YAXXZ:PROC	; GameMonsterAllCloseAndReLoad
EXTRN	?ReadCommonServerInfo@@YAXXZ:PROC		; ReadCommonServerInfo
; Function compile flags: /Odtp /ZI
; File d:\projects\exteam6.3\source\gameserver\gameserver\wzag.cpp
_TEXT	SEGMENT
tv65 = -68						; size = 4
_Type$ = 8						; size = 4
_Data$ = 12						; size = 4
?GameServerAuthCallBackFunc@@YAXHH@Z PROC		; GameServerAuthCallBackFunc

; 25   : {

  00000	55		 push	 ebp
  00001	8b ec		 mov	 ebp, esp
  00003	83 ec 44	 sub	 esp, 68			; 00000044H
  00006	53		 push	 ebx
  00007	56		 push	 esi
  00008	57		 push	 edi

; 26   : 	if (!Type)

  00009	83 7d 08 00	 cmp	 DWORD PTR _Type$[ebp], 0
  0000d	75 2d		 jne	 SHORT $LN7@GameServer

; 27   : 	{
; 28   : 		switch (Data)

  0000f	8b 45 0c	 mov	 eax, DWORD PTR _Data$[ebp]
  00012	89 45 bc	 mov	 DWORD PTR tv65[ebp], eax
  00015	83 7d bc 01	 cmp	 DWORD PTR tv65[ebp], 1
  00019	74 0e		 je	 SHORT $LN3@GameServer
  0001b	83 7d bc 02	 cmp	 DWORD PTR tv65[ebp], 2
  0001f	74 0f		 je	 SHORT $LN2@GameServer
  00021	83 7d bc 03	 cmp	 DWORD PTR tv65[ebp], 3
  00025	74 10		 je	 SHORT $LN1@GameServer
  00027	eb 13		 jmp	 SHORT $LN7@GameServer
$LN3@GameServer:

; 29   : 		{
; 30   : 		case 1:	ReadCommonServerInfo();			break;

  00029	e8 00 00 00 00	 call	 ?ReadCommonServerInfo@@YAXXZ ; ReadCommonServerInfo
  0002e	eb 0c		 jmp	 SHORT $LN7@GameServer
$LN2@GameServer:

; 31   : 		case 2:	GameMonsterAllCloseAndReLoad();	break;

  00030	e8 00 00 00 00	 call	 ?GameMonsterAllCloseAndReLoad@@YAXXZ ; GameMonsterAllCloseAndReLoad
  00035	eb 05		 jmp	 SHORT $LN7@GameServer
$LN1@GameServer:

; 32   : 		case 3:	ReadServerInfo();				break;

  00037	e8 00 00 00 00	 call	 ?ReadServerInfo@@YAXXZ	; ReadServerInfo
$LN7@GameServer:

; 33   : 		}
; 34   : 	}
; 35   : }

  0003c	5f		 pop	 edi
  0003d	5e		 pop	 esi
  0003e	5b		 pop	 ebx
  0003f	8b e5		 mov	 esp, ebp
  00041	5d		 pop	 ebp
  00042	c3		 ret	 0
?GameServerAuthCallBackFunc@@YAXHH@Z ENDP		; GameServerAuthCallBackFunc
_TEXT	ENDS
PUBLIC	??_C@_0BA@JHAHNEJ@ClientExeSerial?$AA@		; `string'
PUBLIC	??_C@_0P@EMJDPFDH@GameServerInfo?$AA@		; `string'
PUBLIC	??_C@_0BB@FBDFNIJB@ClientExeVersion?$AA@	; `string'
PUBLIC	??_C@_00CNPNBAHC@?$AA@				; `string'
PUBLIC	??_C@_0BM@GJEGIJCL@?4?4?2Data?2Other?2commonloc?4cfg?$AA@ ; `string'
PUBLIC	__$ArrayPad$
PUBLIC	?GetClientVersion@WzAG@@QAEXPAD0@Z		; WzAG::GetClientVersion
EXTRN	_memcpy:PROC
EXTRN	__imp__GetPrivateProfileStringA@24:PROC
EXTRN	___security_cookie:DWORD
EXTRN	@__security_check_cookie@4:PROC
;	COMDAT ??_C@_0BA@JHAHNEJ@ClientExeSerial?$AA@
CONST	SEGMENT
??_C@_0BA@JHAHNEJ@ClientExeSerial?$AA@ DB 'ClientExeSerial', 00H ; `string'
CONST	ENDS
;	COMDAT ??_C@_0P@EMJDPFDH@GameServerInfo?$AA@
CONST	SEGMENT
??_C@_0P@EMJDPFDH@GameServerInfo?$AA@ DB 'GameServerInfo', 00H ; `string'
CONST	ENDS
;	COMDAT ??_C@_0BB@FBDFNIJB@ClientExeVersion?$AA@
CONST	SEGMENT
??_C@_0BB@FBDFNIJB@ClientExeVersion?$AA@ DB 'ClientExeVersion', 00H ; `string'
CONST	ENDS
;	COMDAT ??_C@_00CNPNBAHC@?$AA@
CONST	SEGMENT
??_C@_00CNPNBAHC@?$AA@ DB 00H				; `string'
CONST	ENDS
;	COMDAT ??_C@_0BM@GJEGIJCL@?4?4?2Data?2Other?2commonloc?4cfg?$AA@
CONST	SEGMENT
??_C@_0BM@GJEGIJCL@?4?4?2Data?2Other?2commonloc?4cfg?$AA@ DB '..\Data\Oth'
	DB	'er\commonloc.cfg', 00H			; `string'
; Function compile flags: /Odtp /ZI
CONST	ENDS
_TEXT	SEGMENT
_ClientSerialBuff$ = -48				; size = 20
_ClientVersionBuff$ = -28				; size = 20
_this$ = -8						; size = 4
__$ArrayPad$ = -4					; size = 4
_ClientVersion$ = 8					; size = 4
_ClientSerial$ = 12					; size = 4
?GetClientVersion@WzAG@@QAEXPAD0@Z PROC			; WzAG::GetClientVersion
; _this$ = ecx

; 39   : {

  00050	55		 push	 ebp
  00051	8b ec		 mov	 ebp, esp
  00053	83 ec 70	 sub	 esp, 112		; 00000070H
  00056	a1 00 00 00 00	 mov	 eax, DWORD PTR ___security_cookie
  0005b	33 c5		 xor	 eax, ebp
  0005d	89 45 fc	 mov	 DWORD PTR __$ArrayPad$[ebp], eax
  00060	53		 push	 ebx
  00061	56		 push	 esi
  00062	57		 push	 edi
  00063	89 4d f8	 mov	 DWORD PTR _this$[ebp], ecx

; 40   : 	char ClientVersionBuff[20];
; 41   : 	char ClientSerialBuff[20];
; 42   : 	// ----
; 43   : 	GetPrivateProfileString("GameServerInfo", "ClientExeVersion", "", ClientVersionBuff, 20, "..\\Data\\Other\\commonloc.cfg");

  00066	68 00 00 00 00	 push	 OFFSET ??_C@_0BM@GJEGIJCL@?4?4?2Data?2Other?2commonloc?4cfg?$AA@
  0006b	6a 14		 push	 20			; 00000014H
  0006d	8d 45 e4	 lea	 eax, DWORD PTR _ClientVersionBuff$[ebp]
  00070	50		 push	 eax
  00071	68 00 00 00 00	 push	 OFFSET ??_C@_00CNPNBAHC@?$AA@
  00076	68 00 00 00 00	 push	 OFFSET ??_C@_0BB@FBDFNIJB@ClientExeVersion?$AA@
  0007b	68 00 00 00 00	 push	 OFFSET ??_C@_0P@EMJDPFDH@GameServerInfo?$AA@
  00080	ff 15 00 00 00
	00		 call	 DWORD PTR __imp__GetPrivateProfileStringA@24

; 44   : 	GetPrivateProfileString("GameServerInfo", "ClientExeSerial", "", ClientSerialBuff, 20, "..\\Data\\Other\\commonloc.cfg");

  00086	68 00 00 00 00	 push	 OFFSET ??_C@_0BM@GJEGIJCL@?4?4?2Data?2Other?2commonloc?4cfg?$AA@
  0008b	6a 14		 push	 20			; 00000014H
  0008d	8d 45 d0	 lea	 eax, DWORD PTR _ClientSerialBuff$[ebp]
  00090	50		 push	 eax
  00091	68 00 00 00 00	 push	 OFFSET ??_C@_00CNPNBAHC@?$AA@
  00096	68 00 00 00 00	 push	 OFFSET ??_C@_0BA@JHAHNEJ@ClientExeSerial?$AA@
  0009b	68 00 00 00 00	 push	 OFFSET ??_C@_0P@EMJDPFDH@GameServerInfo?$AA@
  000a0	ff 15 00 00 00
	00		 call	 DWORD PTR __imp__GetPrivateProfileStringA@24

; 45   : 	// ----
; 46   : 	memcpy(ClientVersion, ClientVersionBuff, 20);

  000a6	6a 14		 push	 20			; 00000014H
  000a8	8d 45 e4	 lea	 eax, DWORD PTR _ClientVersionBuff$[ebp]
  000ab	50		 push	 eax
  000ac	8b 4d 08	 mov	 ecx, DWORD PTR _ClientVersion$[ebp]
  000af	51		 push	 ecx
  000b0	e8 00 00 00 00	 call	 _memcpy
  000b5	83 c4 0c	 add	 esp, 12			; 0000000cH

; 47   : 	memcpy(ClientSerial, ClientSerialBuff, 20);

  000b8	6a 14		 push	 20			; 00000014H
  000ba	8d 45 d0	 lea	 eax, DWORD PTR _ClientSerialBuff$[ebp]
  000bd	50		 push	 eax
  000be	8b 4d 0c	 mov	 ecx, DWORD PTR _ClientSerial$[ebp]
  000c1	51		 push	 ecx
  000c2	e8 00 00 00 00	 call	 _memcpy
  000c7	83 c4 0c	 add	 esp, 12			; 0000000cH

; 48   : }

  000ca	5f		 pop	 edi
  000cb	5e		 pop	 esi
  000cc	5b		 pop	 ebx
  000cd	8b 4d fc	 mov	 ecx, DWORD PTR __$ArrayPad$[ebp]
  000d0	33 cd		 xor	 ecx, ebp
  000d2	e8 00 00 00 00	 call	 @__security_check_cookie@4
  000d7	8b e5		 mov	 esp, ebp
  000d9	5d		 pop	 ebp
  000da	c2 08 00	 ret	 8
?GetClientVersion@WzAG@@QAEXPAD0@Z ENDP			; WzAG::GetClientVersion
_TEXT	ENDS
PUBLIC	?GetDataBuffer@WzAG@@QAEPADXZ			; WzAG::GetDataBuffer
; Function compile flags: /Odtp /ZI
_TEXT	SEGMENT
_this$ = -4						; size = 4
?GetDataBuffer@WzAG@@QAEPADXZ PROC			; WzAG::GetDataBuffer
; _this$ = ecx

; 52   : {

  000e0	55		 push	 ebp
  000e1	8b ec		 mov	 ebp, esp
  000e3	83 ec 44	 sub	 esp, 68			; 00000044H
  000e6	53		 push	 ebx
  000e7	56		 push	 esi
  000e8	57		 push	 edi
  000e9	89 4d fc	 mov	 DWORD PTR _this$[ebp], ecx

; 53   : 	return DataBuffer;

  000ec	a1 00 00 00 00	 mov	 eax, DWORD PTR ?DataBuffer@@3PADA ; DataBuffer

; 54   : }

  000f1	5f		 pop	 edi
  000f2	5e		 pop	 esi
  000f3	5b		 pop	 ebx
  000f4	8b e5		 mov	 esp, ebp
  000f6	5d		 pop	 ebp
  000f7	c3		 ret	 0
?GetDataBuffer@WzAG@@QAEPADXZ ENDP			; WzAG::GetDataBuffer
_TEXT	ENDS
PUBLIC	?GetDataBufferSize@WzAG@@QAEHXZ			; WzAG::GetDataBufferSize
; Function compile flags: /Odtp /ZI
_TEXT	SEGMENT
_this$ = -4						; size = 4
?GetDataBufferSize@WzAG@@QAEHXZ PROC			; WzAG::GetDataBufferSize
; _this$ = ecx

; 58   : {

  00100	55		 push	 ebp
  00101	8b ec		 mov	 ebp, esp
  00103	83 ec 44	 sub	 esp, 68			; 00000044H
  00106	53		 push	 ebx
  00107	56		 push	 esi
  00108	57		 push	 edi
  00109	89 4d fc	 mov	 DWORD PTR _this$[ebp], ecx

; 59   : 	return DataBufferSize;

  0010c	a1 00 00 00 00	 mov	 eax, DWORD PTR ?DataBufferSize@@3KA ; DataBufferSize

; 60   : }

  00111	5f		 pop	 edi
  00112	5e		 pop	 esi
  00113	5b		 pop	 ebx
  00114	8b e5		 mov	 esp, ebp
  00116	5d		 pop	 ebp
  00117	c3		 ret	 0
?GetDataBufferSize@WzAG@@QAEHXZ ENDP			; WzAG::GetDataBufferSize
_TEXT	ENDS
PUBLIC	?GetKey@WzAG@@QAEXPADHH@Z			; WzAG::GetKey
; Function compile flags: /Odtp /ZI
_TEXT	SEGMENT
_this$ = -4						; size = 4
_Key$ = 8						; size = 4
_StartIndex$ = 12					; size = 4
_Len$ = 16						; size = 4
?GetKey@WzAG@@QAEXPADHH@Z PROC				; WzAG::GetKey
; _this$ = ecx

; 64   : {

  00120	55		 push	 ebp
  00121	8b ec		 mov	 ebp, esp
  00123	83 ec 44	 sub	 esp, 68			; 00000044H
  00126	53		 push	 ebx
  00127	56		 push	 esi
  00128	57		 push	 edi
  00129	89 4d fc	 mov	 DWORD PTR _this$[ebp], ecx

; 65   : 	memcpy(Key, szServerKey, sizeof(szServerKey));

  0012c	6a 13		 push	 19			; 00000013H
  0012e	68 00 00 00 00	 push	 OFFSET ?szServerKey@@3PAEA ; szServerKey
  00133	8b 45 08	 mov	 eax, DWORD PTR _Key$[ebp]
  00136	50		 push	 eax
  00137	e8 00 00 00 00	 call	 _memcpy
  0013c	83 c4 0c	 add	 esp, 12			; 0000000cH

; 66   : }

  0013f	5f		 pop	 edi
  00140	5e		 pop	 esi
  00141	5b		 pop	 ebx
  00142	8b e5		 mov	 esp, ebp
  00144	5d		 pop	 ebp
  00145	c2 0c 00	 ret	 12			; 0000000cH
?GetKey@WzAG@@QAEXPADHH@Z ENDP				; WzAG::GetKey
_TEXT	ENDS
PUBLIC	?ReleaseData@WzAG@@QAEXXZ			; WzAG::ReleaseData
EXTRN	??_V@YAXPAX@Z:PROC				; operator delete[]
; Function compile flags: /Odtp /ZI
_TEXT	SEGMENT
$T227393 = -72						; size = 4
_this$ = -4						; size = 4
?ReleaseData@WzAG@@QAEXXZ PROC				; WzAG::ReleaseData
; _this$ = ecx

; 70   : {

  00150	55		 push	 ebp
  00151	8b ec		 mov	 ebp, esp
  00153	83 ec 48	 sub	 esp, 72			; 00000048H
  00156	53		 push	 ebx
  00157	56		 push	 esi
  00158	57		 push	 edi
  00159	89 4d fc	 mov	 DWORD PTR _this$[ebp], ecx

; 71   : 	delete [] DataBuffer;

  0015c	a1 00 00 00 00	 mov	 eax, DWORD PTR ?DataBuffer@@3PADA ; DataBuffer
  00161	89 45 b8	 mov	 DWORD PTR $T227393[ebp], eax
  00164	8b 4d b8	 mov	 ecx, DWORD PTR $T227393[ebp]
  00167	51		 push	 ecx
  00168	e8 00 00 00 00	 call	 ??_V@YAXPAX@Z		; operator delete[]
  0016d	83 c4 04	 add	 esp, 4

; 72   : 	DataBufferSize = 0;

  00170	c7 05 00 00 00
	00 00 00 00 00	 mov	 DWORD PTR ?DataBufferSize@@3KA, 0 ; DataBufferSize

; 73   : }

  0017a	5f		 pop	 edi
  0017b	5e		 pop	 esi
  0017c	5b		 pop	 ebx
  0017d	8b e5		 mov	 esp, ebp
  0017f	5d		 pop	 ebp
  00180	c3		 ret	 0
?ReleaseData@WzAG@@QAEXXZ ENDP				; WzAG::ReleaseData
_TEXT	ENDS
PUBLIC	??_C@_06JPHCLLC@Error?$CB?$AA@			; `string'
PUBLIC	??_C@_02JDPG@rb?$AA@				; `string'
PUBLIC	??_C@_0BJ@BFLDOHGO@?4?4?2data?2Shops?2Shop19?4txt?$AA@ ; `string'
PUBLIC	??_C@_0BJ@NOOPDEML@?4?4?2data?2Shops?2Shop18?4txt?$AA@ ; `string'
PUBLIC	??_C@_0BJ@CPLJIGBO@?4?4?2data?2Shops?2Shop17?4txt?$AA@ ; `string'
PUBLIC	??_C@_0BJ@OEOFFFLL@?4?4?2data?2Shops?2Shop16?4txt?$AA@ ; `string'
PUBLIC	??_C@_0BJ@GCHBCHBF@?4?4?2data?2Shops?2Shop15?4txt?$AA@ ; `string'
PUBLIC	??_C@_0BJ@KJCNPELA@?4?4?2data?2Shops?2Shop14?4txt?$AA@ ; `string'
PUBLIC	??_C@_0BJ@LECIMEAI@?4?4?2data?2Shops?2Shop13?4txt?$AA@ ; `string'
PUBLIC	??_C@_0BO@FDENOPBB@?4?4?2Data?2Items?2ItemSetType?4txt?$AA@ ; `string'
PUBLIC	??_C@_0CA@PODOEDPD@?4?4?2Data?2Items?2ItemSetOption?4txt?$AA@ ; `string'
PUBLIC	??_C@_0BE@HLAIMECE@?4?4?2Data?2MoveReq?4txt?$AA@ ; `string'
PUBLIC	??_C@_0BJ@HPHEBHKN@?4?4?2data?2Shops?2Shop12?4txt?$AA@ ; `string'
PUBLIC	??_C@_0BJ@PJOAGFAD@?4?4?2data?2Shops?2Shop11?4txt?$AA@ ; `string'
PUBLIC	??_C@_0BJ@DCLMLGKG@?4?4?2data?2Shops?2Shop10?4txt?$AA@ ; `string'
PUBLIC	??_C@_0BI@BCOACCJ@?4?4?2data?2Shops?2Shop9?4txt?$AA@ ; `string'
PUBLIC	??_C@_0BI@MKHCNBIM@?4?4?2data?2Shops?2Shop8?4txt?$AA@ ; `string'
PUBLIC	??_C@_0BI@DLCEGDFJ@?4?4?2data?2Shops?2Shop7?4txt?$AA@ ; `string'
PUBLIC	??_C@_0BI@PAHILAPM@?4?4?2data?2Shops?2Shop6?4txt?$AA@ ; `string'
PUBLIC	??_C@_0BI@HGOMMCFC@?4?4?2data?2Shops?2Shop5?4txt?$AA@ ; `string'
PUBLIC	??_C@_0BI@LNLABBPH@?4?4?2data?2Shops?2Shop4?4txt?$AA@ ; `string'
PUBLIC	??_C@_0BI@KALFCBEP@?4?4?2data?2Shops?2Shop3?4txt?$AA@ ; `string'
PUBLIC	??_C@_0BI@GLOJPCOK@?4?4?2data?2Shops?2Shop2?4txt?$AA@ ; `string'
PUBLIC	??_C@_0BI@ONHNIAEE@?4?4?2data?2Shops?2Shop1?4txt?$AA@ ; `string'
PUBLIC	??_C@_0BI@CGCBFDOB@?4?4?2data?2Shops?2Shop0?4txt?$AA@ ; `string'
PUBLIC	??_C@_0CE@LNFJNEBB@?4?4?2Data?2Monsters?2MonsterSetBase?4@ ; `string'
PUBLIC	??_C@_0BB@FGLJGNCE@?4?4?2Data?2Gate?4txt?$AA@	; `string'
PUBLIC	??_C@_0BN@JDJPJJNO@?4?4?2Data?2Monsters?2Monster?4txt?$AA@ ; `string'
PUBLIC	??_C@_0BL@CDGBLNEO@?4?4?2Data?2Other?2CheckSum?4dat?$AA@ ; `string'
PUBLIC	??_C@_0BC@IEPPCBPK@?4?4?2Data?2Quest?4txt?$AA@	; `string'
PUBLIC	??_C@_0BJ@DJGILM@?4?4?2Data?2Skills?2Skill?4txt?$AA@ ; `string'
PUBLIC	??_C@_0BH@KFDILPPP@?4?4?2Data?2Items?2Item?4txt?$AA@ ; `string'
PUBLIC	?RequestData@WzAG@@QAEXH@Z			; WzAG::RequestData
EXTRN	_fclose:PROC
EXTRN	_fread:PROC
EXTRN	??_U@YAPAXI@Z:PROC				; operator new[]
EXTRN	_ftell:PROC
EXTRN	_fseek:PROC
EXTRN	__imp__ExitProcess@4:PROC
EXTRN	__imp__MessageBoxA@16:PROC
EXTRN	_fopen:PROC
;	COMDAT ??_C@_06JPHCLLC@Error?$CB?$AA@
CONST	SEGMENT
??_C@_06JPHCLLC@Error?$CB?$AA@ DB 'Error!', 00H		; `string'
CONST	ENDS
;	COMDAT ??_C@_02JDPG@rb?$AA@
CONST	SEGMENT
??_C@_02JDPG@rb?$AA@ DB 'rb', 00H			; `string'
CONST	ENDS
;	COMDAT ??_C@_0BJ@BFLDOHGO@?4?4?2data?2Shops?2Shop19?4txt?$AA@
CONST	SEGMENT
??_C@_0BJ@BFLDOHGO@?4?4?2data?2Shops?2Shop19?4txt?$AA@ DB '..\data\Shops\'
	DB	'Shop19.txt', 00H				; `string'
CONST	ENDS
;	COMDAT ??_C@_0BJ@NOOPDEML@?4?4?2data?2Shops?2Shop18?4txt?$AA@
CONST	SEGMENT
??_C@_0BJ@NOOPDEML@?4?4?2data?2Shops?2Shop18?4txt?$AA@ DB '..\data\Shops\'
	DB	'Shop18.txt', 00H				; `string'
CONST	ENDS
;	COMDAT ??_C@_0BJ@CPLJIGBO@?4?4?2data?2Shops?2Shop17?4txt?$AA@
CONST	SEGMENT
??_C@_0BJ@CPLJIGBO@?4?4?2data?2Shops?2Shop17?4txt?$AA@ DB '..\data\Shops\'
	DB	'Shop17.txt', 00H				; `string'
CONST	ENDS
;	COMDAT ??_C@_0BJ@OEOFFFLL@?4?4?2data?2Shops?2Shop16?4txt?$AA@
CONST	SEGMENT
??_C@_0BJ@OEOFFFLL@?4?4?2data?2Shops?2Shop16?4txt?$AA@ DB '..\data\Shops\'
	DB	'Shop16.txt', 00H				; `string'
CONST	ENDS
;	COMDAT ??_C@_0BJ@GCHBCHBF@?4?4?2data?2Shops?2Shop15?4txt?$AA@
CONST	SEGMENT
??_C@_0BJ@GCHBCHBF@?4?4?2data?2Shops?2Shop15?4txt?$AA@ DB '..\data\Shops\'
	DB	'Shop15.txt', 00H				; `string'
CONST	ENDS
;	COMDAT ??_C@_0BJ@KJCNPELA@?4?4?2data?2Shops?2Shop14?4txt?$AA@
CONST	SEGMENT
??_C@_0BJ@KJCNPELA@?4?4?2data?2Shops?2Shop14?4txt?$AA@ DB '..\data\Shops\'
	DB	'Shop14.txt', 00H				; `string'
CONST	ENDS
;	COMDAT ??_C@_0BJ@LECIMEAI@?4?4?2data?2Shops?2Shop13?4txt?$AA@
CONST	SEGMENT
??_C@_0BJ@LECIMEAI@?4?4?2data?2Shops?2Shop13?4txt?$AA@ DB '..\data\Shops\'
	DB	'Shop13.txt', 00H				; `string'
CONST	ENDS
;	COMDAT ??_C@_0BO@FDENOPBB@?4?4?2Data?2Items?2ItemSetType?4txt?$AA@
CONST	SEGMENT
??_C@_0BO@FDENOPBB@?4?4?2Data?2Items?2ItemSetType?4txt?$AA@ DB '..\Data\I'
	DB	'tems\ItemSetType.txt', 00H			; `string'
CONST	ENDS
;	COMDAT ??_C@_0CA@PODOEDPD@?4?4?2Data?2Items?2ItemSetOption?4txt?$AA@
CONST	SEGMENT
??_C@_0CA@PODOEDPD@?4?4?2Data?2Items?2ItemSetOption?4txt?$AA@ DB '..\Data'
	DB	'\Items\ItemSetOption.txt', 00H		; `string'
CONST	ENDS
;	COMDAT ??_C@_0BE@HLAIMECE@?4?4?2Data?2MoveReq?4txt?$AA@
CONST	SEGMENT
??_C@_0BE@HLAIMECE@?4?4?2Data?2MoveReq?4txt?$AA@ DB '..\Data\MoveReq.txt', 00H ; `string'
CONST	ENDS
;	COMDAT ??_C@_0BJ@HPHEBHKN@?4?4?2data?2Shops?2Shop12?4txt?$AA@
CONST	SEGMENT
??_C@_0BJ@HPHEBHKN@?4?4?2data?2Shops?2Shop12?4txt?$AA@ DB '..\data\Shops\'
	DB	'Shop12.txt', 00H				; `string'
CONST	ENDS
;	COMDAT ??_C@_0BJ@PJOAGFAD@?4?4?2data?2Shops?2Shop11?4txt?$AA@
CONST	SEGMENT
??_C@_0BJ@PJOAGFAD@?4?4?2data?2Shops?2Shop11?4txt?$AA@ DB '..\data\Shops\'
	DB	'Shop11.txt', 00H				; `string'
CONST	ENDS
;	COMDAT ??_C@_0BJ@DCLMLGKG@?4?4?2data?2Shops?2Shop10?4txt?$AA@
CONST	SEGMENT
??_C@_0BJ@DCLMLGKG@?4?4?2data?2Shops?2Shop10?4txt?$AA@ DB '..\data\Shops\'
	DB	'Shop10.txt', 00H				; `string'
CONST	ENDS
;	COMDAT ??_C@_0BI@BCOACCJ@?4?4?2data?2Shops?2Shop9?4txt?$AA@
CONST	SEGMENT
??_C@_0BI@BCOACCJ@?4?4?2data?2Shops?2Shop9?4txt?$AA@ DB '..\data\Shops\Sh'
	DB	'op9.txt', 00H				; `string'
CONST	ENDS
;	COMDAT ??_C@_0BI@MKHCNBIM@?4?4?2data?2Shops?2Shop8?4txt?$AA@
CONST	SEGMENT
??_C@_0BI@MKHCNBIM@?4?4?2data?2Shops?2Shop8?4txt?$AA@ DB '..\data\Shops\S'
	DB	'hop8.txt', 00H				; `string'
CONST	ENDS
;	COMDAT ??_C@_0BI@DLCEGDFJ@?4?4?2data?2Shops?2Shop7?4txt?$AA@
CONST	SEGMENT
??_C@_0BI@DLCEGDFJ@?4?4?2data?2Shops?2Shop7?4txt?$AA@ DB '..\data\Shops\S'
	DB	'hop7.txt', 00H				; `string'
CONST	ENDS
;	COMDAT ??_C@_0BI@PAHILAPM@?4?4?2data?2Shops?2Shop6?4txt?$AA@
CONST	SEGMENT
??_C@_0BI@PAHILAPM@?4?4?2data?2Shops?2Shop6?4txt?$AA@ DB '..\data\Shops\S'
	DB	'hop6.txt', 00H				; `string'
CONST	ENDS
;	COMDAT ??_C@_0BI@HGOMMCFC@?4?4?2data?2Shops?2Shop5?4txt?$AA@
CONST	SEGMENT
??_C@_0BI@HGOMMCFC@?4?4?2data?2Shops?2Shop5?4txt?$AA@ DB '..\data\Shops\S'
	DB	'hop5.txt', 00H				; `string'
CONST	ENDS
;	COMDAT ??_C@_0BI@LNLABBPH@?4?4?2data?2Shops?2Shop4?4txt?$AA@
CONST	SEGMENT
??_C@_0BI@LNLABBPH@?4?4?2data?2Shops?2Shop4?4txt?$AA@ DB '..\data\Shops\S'
	DB	'hop4.txt', 00H				; `string'
CONST	ENDS
;	COMDAT ??_C@_0BI@KALFCBEP@?4?4?2data?2Shops?2Shop3?4txt?$AA@
CONST	SEGMENT
??_C@_0BI@KALFCBEP@?4?4?2data?2Shops?2Shop3?4txt?$AA@ DB '..\data\Shops\S'
	DB	'hop3.txt', 00H				; `string'
CONST	ENDS
;	COMDAT ??_C@_0BI@GLOJPCOK@?4?4?2data?2Shops?2Shop2?4txt?$AA@
CONST	SEGMENT
??_C@_0BI@GLOJPCOK@?4?4?2data?2Shops?2Shop2?4txt?$AA@ DB '..\data\Shops\S'
	DB	'hop2.txt', 00H				; `string'
CONST	ENDS
;	COMDAT ??_C@_0BI@ONHNIAEE@?4?4?2data?2Shops?2Shop1?4txt?$AA@
CONST	SEGMENT
??_C@_0BI@ONHNIAEE@?4?4?2data?2Shops?2Shop1?4txt?$AA@ DB '..\data\Shops\S'
	DB	'hop1.txt', 00H				; `string'
CONST	ENDS
;	COMDAT ??_C@_0BI@CGCBFDOB@?4?4?2data?2Shops?2Shop0?4txt?$AA@
CONST	SEGMENT
??_C@_0BI@CGCBFDOB@?4?4?2data?2Shops?2Shop0?4txt?$AA@ DB '..\data\Shops\S'
	DB	'hop0.txt', 00H				; `string'
CONST	ENDS
;	COMDAT ??_C@_0CE@LNFJNEBB@?4?4?2Data?2Monsters?2MonsterSetBase?4@
CONST	SEGMENT
??_C@_0CE@LNFJNEBB@?4?4?2Data?2Monsters?2MonsterSetBase?4@ DB '..\Data\Mo'
	DB	'nsters\MonsterSetBase.txt', 00H		; `string'
CONST	ENDS
;	COMDAT ??_C@_0BB@FGLJGNCE@?4?4?2Data?2Gate?4txt?$AA@
CONST	SEGMENT
??_C@_0BB@FGLJGNCE@?4?4?2Data?2Gate?4txt?$AA@ DB '..\Data\Gate.txt', 00H ; `string'
CONST	ENDS
;	COMDAT ??_C@_0BN@JDJPJJNO@?4?4?2Data?2Monsters?2Monster?4txt?$AA@
CONST	SEGMENT
??_C@_0BN@JDJPJJNO@?4?4?2Data?2Monsters?2Monster?4txt?$AA@ DB '..\Data\Mo'
	DB	'nsters\Monster.txt', 00H			; `string'
CONST	ENDS
;	COMDAT ??_C@_0BL@CDGBLNEO@?4?4?2Data?2Other?2CheckSum?4dat?$AA@
CONST	SEGMENT
??_C@_0BL@CDGBLNEO@?4?4?2Data?2Other?2CheckSum?4dat?$AA@ DB '..\Data\Othe'
	DB	'r\CheckSum.dat', 00H			; `string'
CONST	ENDS
;	COMDAT ??_C@_0BC@IEPPCBPK@?4?4?2Data?2Quest?4txt?$AA@
CONST	SEGMENT
??_C@_0BC@IEPPCBPK@?4?4?2Data?2Quest?4txt?$AA@ DB '..\Data\Quest.txt', 00H ; `string'
CONST	ENDS
;	COMDAT ??_C@_0BJ@DJGILM@?4?4?2Data?2Skills?2Skill?4txt?$AA@
CONST	SEGMENT
??_C@_0BJ@DJGILM@?4?4?2Data?2Skills?2Skill?4txt?$AA@ DB '..\Data\Skills\S'
	DB	'kill.txt', 00H				; `string'
CONST	ENDS
;	COMDAT ??_C@_0BH@KFDILPPP@?4?4?2Data?2Items?2Item?4txt?$AA@
CONST	SEGMENT
??_C@_0BH@KFDILPPP@?4?4?2Data?2Items?2Item?4txt?$AA@ DB '..\Data\Items\It'
	DB	'em.txt', 00H				; `string'
; Function compile flags: /Odtp /ZI
CONST	ENDS
_TEXT	SEGMENT
tv64 = -96						; size = 4
$T227395 = -92						; size = 4
$T227396 = -88						; size = 4
_File$ = -20						; size = 4
_v3$ = -12						; size = 4
_v2$ = -8						; size = 4
_this$ = -4						; size = 4
_Type$ = 8						; size = 4
?RequestData@WzAG@@QAEXH@Z PROC				; WzAG::RequestData
; _this$ = ecx

; 77   : {

  00190	55		 push	 ebp
  00191	8b ec		 mov	 ebp, esp
  00193	83 ec 60	 sub	 esp, 96			; 00000060H
  00196	53		 push	 ebx
  00197	56		 push	 esi
  00198	57		 push	 edi
  00199	89 4d fc	 mov	 DWORD PTR _this$[ebp], ecx

; 78   : 	const char *v2; // esi@1
; 79   : 	FILE *v3; // eax@38
; 80   : 	int result; // eax@40
; 81   : 
; 82   : 	v2 = 0;

  0019c	c7 45 f8 00 00
	00 00		 mov	 DWORD PTR _v2$[ebp], 0

; 83   : 	switch ( Type )

  001a3	8b 45 08	 mov	 eax, DWORD PTR _Type$[ebp]
  001a6	89 45 a0	 mov	 DWORD PTR tv64[ebp], eax
  001a9	83 7d a0 24	 cmp	 DWORD PTR tv64[ebp], 36	; 00000024H
  001ad	0f 87 8b 01 00
	00		 ja	 $LN41@RequestDat
  001b3	8b 4d a0	 mov	 ecx, DWORD PTR tv64[ebp]
  001b6	ff 24 8d 00 00
	00 00		 jmp	 DWORD PTR $LN45@RequestDat[ecx*4]
$LN40@RequestDat:

; 84   : 	{
; 85   : 	case 0:
; 86   : 		v2 = "..\\Data\\Items\\Item.txt";

  001bd	c7 45 f8 00 00
	00 00		 mov	 DWORD PTR _v2$[ebp], OFFSET ??_C@_0BH@KFDILPPP@?4?4?2Data?2Items?2Item?4txt?$AA@

; 87   : 		break;

  001c4	e9 75 01 00 00	 jmp	 $LN41@RequestDat
$LN39@RequestDat:

; 88   : 	case 1:
; 89   : 		v2 = "..\\Data\\Items\\Item.txt";

  001c9	c7 45 f8 00 00
	00 00		 mov	 DWORD PTR _v2$[ebp], OFFSET ??_C@_0BH@KFDILPPP@?4?4?2Data?2Items?2Item?4txt?$AA@

; 90   : 		break;

  001d0	e9 69 01 00 00	 jmp	 $LN41@RequestDat
$LN38@RequestDat:

; 91   : 	case 2:
; 92   : 		v2 = "..\\Data\\Skills\\Skill.txt";

  001d5	c7 45 f8 00 00
	00 00		 mov	 DWORD PTR _v2$[ebp], OFFSET ??_C@_0BJ@DJGILM@?4?4?2Data?2Skills?2Skill?4txt?$AA@

; 93   : 		break;

  001dc	e9 5d 01 00 00	 jmp	 $LN41@RequestDat
$LN37@RequestDat:

; 94   : 	case 3:
; 95   : 		v2 = "..\\Data\\Skills\\Skill.txt";

  001e1	c7 45 f8 00 00
	00 00		 mov	 DWORD PTR _v2$[ebp], OFFSET ??_C@_0BJ@DJGILM@?4?4?2Data?2Skills?2Skill?4txt?$AA@

; 96   : 		break;

  001e8	e9 51 01 00 00	 jmp	 $LN41@RequestDat
$LN36@RequestDat:

; 97   : 	case 4:
; 98   : 		v2 = "..\\Data\\Quest.txt";

  001ed	c7 45 f8 00 00
	00 00		 mov	 DWORD PTR _v2$[ebp], OFFSET ??_C@_0BC@IEPPCBPK@?4?4?2Data?2Quest?4txt?$AA@

; 99   : 		break;

  001f4	e9 45 01 00 00	 jmp	 $LN41@RequestDat
$LN35@RequestDat:

; 100  : 	case 5:
; 101  : 		v2 = "..\\Data\\Quest.txt";

  001f9	c7 45 f8 00 00
	00 00		 mov	 DWORD PTR _v2$[ebp], OFFSET ??_C@_0BC@IEPPCBPK@?4?4?2Data?2Quest?4txt?$AA@

; 102  : 		break;

  00200	e9 39 01 00 00	 jmp	 $LN41@RequestDat
$LN34@RequestDat:

; 103  : 	case 6:
; 104  : 		v2 = "..\\Data\\Other\\CheckSum.dat";

  00205	c7 45 f8 00 00
	00 00		 mov	 DWORD PTR _v2$[ebp], OFFSET ??_C@_0BL@CDGBLNEO@?4?4?2Data?2Other?2CheckSum?4dat?$AA@

; 105  : 		break;

  0020c	e9 2d 01 00 00	 jmp	 $LN41@RequestDat
$LN33@RequestDat:

; 106  : 	case 7:
; 107  : 		v2 = "..\\Data\\Monsters\\Monster.txt";

  00211	c7 45 f8 00 00
	00 00		 mov	 DWORD PTR _v2$[ebp], OFFSET ??_C@_0BN@JDJPJJNO@?4?4?2Data?2Monsters?2Monster?4txt?$AA@

; 108  : 		break;

  00218	e9 21 01 00 00	 jmp	 $LN41@RequestDat
$LN32@RequestDat:

; 109  : 	case 8:
; 110  : 		v2 = "..\\Data\\Gate.txt";

  0021d	c7 45 f8 00 00
	00 00		 mov	 DWORD PTR _v2$[ebp], OFFSET ??_C@_0BB@FGLJGNCE@?4?4?2Data?2Gate?4txt?$AA@

; 111  : 		break;

  00224	e9 15 01 00 00	 jmp	 $LN41@RequestDat
$LN31@RequestDat:

; 112  : 	case 9:
; 113  : 		v2 = "..\\Data\\Monsters\\MonsterSetBase.txt";

  00229	c7 45 f8 00 00
	00 00		 mov	 DWORD PTR _v2$[ebp], OFFSET ??_C@_0CE@LNFJNEBB@?4?4?2Data?2Monsters?2MonsterSetBase?4@

; 114  : 		break;

  00230	e9 09 01 00 00	 jmp	 $LN41@RequestDat
$LN30@RequestDat:

; 115  : 	case 11:
; 116  : 		v2 = "..\\data\\Shops\\Shop0.txt";

  00235	c7 45 f8 00 00
	00 00		 mov	 DWORD PTR _v2$[ebp], OFFSET ??_C@_0BI@CGCBFDOB@?4?4?2data?2Shops?2Shop0?4txt?$AA@

; 117  : 		break;

  0023c	e9 fd 00 00 00	 jmp	 $LN41@RequestDat
$LN29@RequestDat:

; 118  : 	case 12:
; 119  : 		v2 = "..\\data\\Shops\\Shop1.txt";

  00241	c7 45 f8 00 00
	00 00		 mov	 DWORD PTR _v2$[ebp], OFFSET ??_C@_0BI@ONHNIAEE@?4?4?2data?2Shops?2Shop1?4txt?$AA@

; 120  : 		break;

  00248	e9 f1 00 00 00	 jmp	 $LN41@RequestDat
$LN28@RequestDat:

; 121  : 	case 13:
; 122  : 		v2 = "..\\data\\Shops\\Shop2.txt";

  0024d	c7 45 f8 00 00
	00 00		 mov	 DWORD PTR _v2$[ebp], OFFSET ??_C@_0BI@GLOJPCOK@?4?4?2data?2Shops?2Shop2?4txt?$AA@

; 123  : 		break;

  00254	e9 e5 00 00 00	 jmp	 $LN41@RequestDat
$LN27@RequestDat:

; 124  : 	case 14:
; 125  : 		v2 = "..\\data\\Shops\\Shop3.txt";

  00259	c7 45 f8 00 00
	00 00		 mov	 DWORD PTR _v2$[ebp], OFFSET ??_C@_0BI@KALFCBEP@?4?4?2data?2Shops?2Shop3?4txt?$AA@

; 126  : 		break;

  00260	e9 d9 00 00 00	 jmp	 $LN41@RequestDat
$LN26@RequestDat:

; 127  : 	case 15:
; 128  : 		v2 = "..\\data\\Shops\\Shop4.txt";

  00265	c7 45 f8 00 00
	00 00		 mov	 DWORD PTR _v2$[ebp], OFFSET ??_C@_0BI@LNLABBPH@?4?4?2data?2Shops?2Shop4?4txt?$AA@

; 129  : 		break;

  0026c	e9 cd 00 00 00	 jmp	 $LN41@RequestDat
$LN25@RequestDat:

; 130  : 	case 16:
; 131  : 		v2 = "..\\data\\Shops\\Shop5.txt";

  00271	c7 45 f8 00 00
	00 00		 mov	 DWORD PTR _v2$[ebp], OFFSET ??_C@_0BI@HGOMMCFC@?4?4?2data?2Shops?2Shop5?4txt?$AA@

; 132  : 		break;

  00278	e9 c1 00 00 00	 jmp	 $LN41@RequestDat
$LN24@RequestDat:

; 133  : 	case 17:
; 134  : 		v2 = "..\\data\\Shops\\Shop6.txt";

  0027d	c7 45 f8 00 00
	00 00		 mov	 DWORD PTR _v2$[ebp], OFFSET ??_C@_0BI@PAHILAPM@?4?4?2data?2Shops?2Shop6?4txt?$AA@

; 135  : 		break;

  00284	e9 b5 00 00 00	 jmp	 $LN41@RequestDat
$LN23@RequestDat:

; 136  : 	case 18:
; 137  : 		v2 = "..\\data\\Shops\\Shop7.txt";

  00289	c7 45 f8 00 00
	00 00		 mov	 DWORD PTR _v2$[ebp], OFFSET ??_C@_0BI@DLCEGDFJ@?4?4?2data?2Shops?2Shop7?4txt?$AA@

; 138  : 		break;

  00290	e9 a9 00 00 00	 jmp	 $LN41@RequestDat
$LN22@RequestDat:

; 139  : 	case 19:
; 140  : 		v2 = "..\\data\\Shops\\Shop8.txt";

  00295	c7 45 f8 00 00
	00 00		 mov	 DWORD PTR _v2$[ebp], OFFSET ??_C@_0BI@MKHCNBIM@?4?4?2data?2Shops?2Shop8?4txt?$AA@

; 141  : 		break;

  0029c	e9 9d 00 00 00	 jmp	 $LN41@RequestDat
$LN21@RequestDat:

; 142  : 	case 20:
; 143  : 		v2 = "..\\data\\Shops\\Shop9.txt";

  002a1	c7 45 f8 00 00
	00 00		 mov	 DWORD PTR _v2$[ebp], OFFSET ??_C@_0BI@BCOACCJ@?4?4?2data?2Shops?2Shop9?4txt?$AA@

; 144  : 		break;

  002a8	e9 91 00 00 00	 jmp	 $LN41@RequestDat
$LN20@RequestDat:

; 145  : 	case 21:
; 146  : 		v2 = "..\\data\\Shops\\Shop10.txt";

  002ad	c7 45 f8 00 00
	00 00		 mov	 DWORD PTR _v2$[ebp], OFFSET ??_C@_0BJ@DCLMLGKG@?4?4?2data?2Shops?2Shop10?4txt?$AA@

; 147  : 		break;

  002b4	e9 85 00 00 00	 jmp	 $LN41@RequestDat
$LN19@RequestDat:

; 148  : 	case 22:
; 149  : 		v2 = "..\\data\\Shops\\Shop11.txt";

  002b9	c7 45 f8 00 00
	00 00		 mov	 DWORD PTR _v2$[ebp], OFFSET ??_C@_0BJ@PJOAGFAD@?4?4?2data?2Shops?2Shop11?4txt?$AA@

; 150  : 		break;

  002c0	eb 7c		 jmp	 SHORT $LN41@RequestDat
$LN18@RequestDat:

; 151  : 	case 23:
; 152  : 		v2 = "..\\data\\Shops\\Shop12.txt";

  002c2	c7 45 f8 00 00
	00 00		 mov	 DWORD PTR _v2$[ebp], OFFSET ??_C@_0BJ@HPHEBHKN@?4?4?2data?2Shops?2Shop12?4txt?$AA@

; 153  : 		break;

  002c9	eb 73		 jmp	 SHORT $LN41@RequestDat
$LN17@RequestDat:

; 154  : 	case 24:
; 155  : 		v2 = "..\\Data\\MoveReq.txt";

  002cb	c7 45 f8 00 00
	00 00		 mov	 DWORD PTR _v2$[ebp], OFFSET ??_C@_0BE@HLAIMECE@?4?4?2Data?2MoveReq?4txt?$AA@

; 156  : 		break;

  002d2	eb 6a		 jmp	 SHORT $LN41@RequestDat
$LN16@RequestDat:

; 157  : 	case 25:
; 158  : 		v2 = "..\\Data\\MoveReq.txt";

  002d4	c7 45 f8 00 00
	00 00		 mov	 DWORD PTR _v2$[ebp], OFFSET ??_C@_0BE@HLAIMECE@?4?4?2Data?2MoveReq?4txt?$AA@

; 159  : 		break;

  002db	eb 61		 jmp	 SHORT $LN41@RequestDat
$LN15@RequestDat:

; 160  : 	case 26:
; 161  : 		v2 = "..\\Data\\Items\\ItemSetOption.txt";

  002dd	c7 45 f8 00 00
	00 00		 mov	 DWORD PTR _v2$[ebp], OFFSET ??_C@_0CA@PODOEDPD@?4?4?2Data?2Items?2ItemSetOption?4txt?$AA@

; 162  : 		break;

  002e4	eb 58		 jmp	 SHORT $LN41@RequestDat
$LN14@RequestDat:

; 163  : 	case 27:
; 164  : 		v2 = "..\\Data\\Items\\ItemSetOption.txt";

  002e6	c7 45 f8 00 00
	00 00		 mov	 DWORD PTR _v2$[ebp], OFFSET ??_C@_0CA@PODOEDPD@?4?4?2Data?2Items?2ItemSetOption?4txt?$AA@

; 165  : 		break;

  002ed	eb 4f		 jmp	 SHORT $LN41@RequestDat
$LN13@RequestDat:

; 166  : 	case 28:
; 167  : 		v2 = "..\\Data\\Items\\ItemSetType.txt";

  002ef	c7 45 f8 00 00
	00 00		 mov	 DWORD PTR _v2$[ebp], OFFSET ??_C@_0BO@FDENOPBB@?4?4?2Data?2Items?2ItemSetType?4txt?$AA@

; 168  : 		break;

  002f6	eb 46		 jmp	 SHORT $LN41@RequestDat
$LN12@RequestDat:

; 169  : 	case 29:
; 170  : 		v2 = "..\\Data\\Items\\ItemSetType.txt";

  002f8	c7 45 f8 00 00
	00 00		 mov	 DWORD PTR _v2$[ebp], OFFSET ??_C@_0BO@FDENOPBB@?4?4?2Data?2Items?2ItemSetType?4txt?$AA@

; 171  : 		break;

  002ff	eb 3d		 jmp	 SHORT $LN41@RequestDat
$LN11@RequestDat:

; 172  : 	case 30:
; 173  : 		v2 = "..\\data\\Shops\\Shop13.txt";

  00301	c7 45 f8 00 00
	00 00		 mov	 DWORD PTR _v2$[ebp], OFFSET ??_C@_0BJ@LECIMEAI@?4?4?2data?2Shops?2Shop13?4txt?$AA@

; 174  : 		break;

  00308	eb 34		 jmp	 SHORT $LN41@RequestDat
$LN10@RequestDat:

; 175  : 	case 31:
; 176  : 		v2 = "..\\data\\Shops\\Shop14.txt";

  0030a	c7 45 f8 00 00
	00 00		 mov	 DWORD PTR _v2$[ebp], OFFSET ??_C@_0BJ@KJCNPELA@?4?4?2data?2Shops?2Shop14?4txt?$AA@

; 177  : 		break;

  00311	eb 2b		 jmp	 SHORT $LN41@RequestDat
$LN9@RequestDat:

; 178  : 	case 32:
; 179  : 		v2 = "..\\data\\Shops\\Shop15.txt";

  00313	c7 45 f8 00 00
	00 00		 mov	 DWORD PTR _v2$[ebp], OFFSET ??_C@_0BJ@GCHBCHBF@?4?4?2data?2Shops?2Shop15?4txt?$AA@

; 180  : 		break;

  0031a	eb 22		 jmp	 SHORT $LN41@RequestDat
$LN8@RequestDat:

; 181  : 	case 33:
; 182  : 		v2 = "..\\data\\Shops\\Shop16.txt";

  0031c	c7 45 f8 00 00
	00 00		 mov	 DWORD PTR _v2$[ebp], OFFSET ??_C@_0BJ@OEOFFFLL@?4?4?2data?2Shops?2Shop16?4txt?$AA@

; 183  : 		break;

  00323	eb 19		 jmp	 SHORT $LN41@RequestDat
$LN7@RequestDat:

; 184  : 	case 34:
; 185  : 		v2 = "..\\data\\Shops\\Shop17.txt";

  00325	c7 45 f8 00 00
	00 00		 mov	 DWORD PTR _v2$[ebp], OFFSET ??_C@_0BJ@CPLJIGBO@?4?4?2data?2Shops?2Shop17?4txt?$AA@

; 186  : 		break;

  0032c	eb 10		 jmp	 SHORT $LN41@RequestDat
$LN6@RequestDat:

; 187  : 	case 35:
; 188  : 		v2 = "..\\data\\Shops\\Shop18.txt";

  0032e	c7 45 f8 00 00
	00 00		 mov	 DWORD PTR _v2$[ebp], OFFSET ??_C@_0BJ@NOOPDEML@?4?4?2data?2Shops?2Shop18?4txt?$AA@

; 189  : 		break;

  00335	eb 07		 jmp	 SHORT $LN41@RequestDat
$LN5@RequestDat:

; 190  : 	case 36:
; 191  : 		v2 = "..\\data\\Shops\\Shop19.txt";

  00337	c7 45 f8 00 00
	00 00		 mov	 DWORD PTR _v2$[ebp], OFFSET ??_C@_0BJ@BFLDOHGO@?4?4?2data?2Shops?2Shop19?4txt?$AA@
$LN41@RequestDat:

; 192  : 		break;
; 193  : 	case 10:
; 194  : 		break;
; 195  : 	}
; 196  : 	v3 = fopen(v2, "rb");	//ok

  0033e	68 00 00 00 00	 push	 OFFSET ??_C@_02JDPG@rb?$AA@
  00343	8b 45 f8	 mov	 eax, DWORD PTR _v2$[ebp]
  00346	50		 push	 eax
  00347	e8 00 00 00 00	 call	 _fopen
  0034c	83 c4 08	 add	 esp, 8
  0034f	89 45 f4	 mov	 DWORD PTR _v3$[ebp], eax

; 197  : 	FILE * File = v3;

  00352	8b 45 f4	 mov	 eax, DWORD PTR _v3$[ebp]
  00355	89 45 ec	 mov	 DWORD PTR _File$[ebp], eax

; 198  : 	if ( !v3 )

  00358	83 7d f4 00	 cmp	 DWORD PTR _v3$[ebp], 0
  0035c	75 1b		 jne	 SHORT $LN3@RequestDat

; 199  : 	{
; 200  : 		MessageBoxA(0, v2, "Error!", 0);

  0035e	6a 00		 push	 0
  00360	68 00 00 00 00	 push	 OFFSET ??_C@_06JPHCLLC@Error?$CB?$AA@
  00365	8b 45 f8	 mov	 eax, DWORD PTR _v2$[ebp]
  00368	50		 push	 eax
  00369	6a 00		 push	 0
  0036b	ff 15 00 00 00
	00		 call	 DWORD PTR __imp__MessageBoxA@16

; 201  : 		ExitProcess(0);

  00371	6a 00		 push	 0
  00373	ff 15 00 00 00
	00		 call	 DWORD PTR __imp__ExitProcess@4
$LN3@RequestDat:

; 202  : 	}
; 203  : 	fseek(v3, 0, 2);

  00379	6a 02		 push	 2
  0037b	6a 00		 push	 0
  0037d	8b 45 f4	 mov	 eax, DWORD PTR _v3$[ebp]
  00380	50		 push	 eax
  00381	e8 00 00 00 00	 call	 _fseek
  00386	83 c4 0c	 add	 esp, 12			; 0000000cH

; 204  : 	DataBufferSize = ftell(File);

  00389	8b 45 ec	 mov	 eax, DWORD PTR _File$[ebp]
  0038c	50		 push	 eax
  0038d	e8 00 00 00 00	 call	 _ftell
  00392	83 c4 04	 add	 esp, 4
  00395	a3 00 00 00 00	 mov	 DWORD PTR ?DataBufferSize@@3KA, eax ; DataBufferSize

; 205  : 	if ( !DataBufferSize )

  0039a	83 3d 00 00 00
	00 00		 cmp	 DWORD PTR ?DataBufferSize@@3KA, 0 ; DataBufferSize
  003a1	75 1b		 jne	 SHORT $LN2@RequestDat

; 206  : 	{
; 207  : 		MessageBoxA(0, v2, "Error!", 0);

  003a3	6a 00		 push	 0
  003a5	68 00 00 00 00	 push	 OFFSET ??_C@_06JPHCLLC@Error?$CB?$AA@
  003aa	8b 45 f8	 mov	 eax, DWORD PTR _v2$[ebp]
  003ad	50		 push	 eax
  003ae	6a 00		 push	 0
  003b0	ff 15 00 00 00
	00		 call	 DWORD PTR __imp__MessageBoxA@16

; 208  : 		ExitProcess(0);

  003b6	6a 00		 push	 0
  003b8	ff 15 00 00 00
	00		 call	 DWORD PTR __imp__ExitProcess@4
$LN2@RequestDat:

; 209  : 	}
; 210  : 	fseek(File, 0, 0);

  003be	6a 00		 push	 0
  003c0	6a 00		 push	 0
  003c2	8b 45 ec	 mov	 eax, DWORD PTR _File$[ebp]
  003c5	50		 push	 eax
  003c6	e8 00 00 00 00	 call	 _fseek
  003cb	83 c4 0c	 add	 esp, 12			; 0000000cH

; 211  : 	if( DataBuffer != NULL )

  003ce	83 3d 00 00 00
	00 00		 cmp	 DWORD PTR ?DataBuffer@@3PADA, 0 ; DataBuffer
  003d5	74 14		 je	 SHORT $LN1@RequestDat

; 212  : 	{
; 213  : 		delete[] DataBuffer;

  003d7	a1 00 00 00 00	 mov	 eax, DWORD PTR ?DataBuffer@@3PADA ; DataBuffer
  003dc	89 45 a4	 mov	 DWORD PTR $T227395[ebp], eax
  003df	8b 4d a4	 mov	 ecx, DWORD PTR $T227395[ebp]
  003e2	51		 push	 ecx
  003e3	e8 00 00 00 00	 call	 ??_V@YAXPAX@Z		; operator delete[]
  003e8	83 c4 04	 add	 esp, 4
$LN1@RequestDat:

; 214  : 	}
; 215  : 	DataBuffer = new char[DataBufferSize + 1];

  003eb	a1 00 00 00 00	 mov	 eax, DWORD PTR ?DataBufferSize@@3KA ; DataBufferSize
  003f0	83 c0 01	 add	 eax, 1
  003f3	50		 push	 eax
  003f4	e8 00 00 00 00	 call	 ??_U@YAPAXI@Z		; operator new[]
  003f9	83 c4 04	 add	 esp, 4
  003fc	89 45 a8	 mov	 DWORD PTR $T227396[ebp], eax
  003ff	8b 4d a8	 mov	 ecx, DWORD PTR $T227396[ebp]
  00402	89 0d 00 00 00
	00		 mov	 DWORD PTR ?DataBuffer@@3PADA, ecx ; DataBuffer

; 216  : 	// ----
; 217  : 	fread((void *)DataBuffer, DataBufferSize, 1, File);

  00408	8b 45 ec	 mov	 eax, DWORD PTR _File$[ebp]
  0040b	50		 push	 eax
  0040c	6a 01		 push	 1
  0040e	8b 0d 00 00 00
	00		 mov	 ecx, DWORD PTR ?DataBufferSize@@3KA ; DataBufferSize
  00414	51		 push	 ecx
  00415	8b 15 00 00 00
	00		 mov	 edx, DWORD PTR ?DataBuffer@@3PADA ; DataBuffer
  0041b	52		 push	 edx
  0041c	e8 00 00 00 00	 call	 _fread
  00421	83 c4 10	 add	 esp, 16			; 00000010H

; 218  : 	fclose(File);

  00424	8b 45 ec	 mov	 eax, DWORD PTR _File$[ebp]
  00427	50		 push	 eax
  00428	e8 00 00 00 00	 call	 _fclose
  0042d	83 c4 04	 add	 esp, 4
$LN44@RequestDat:

; 219  : }

  00430	5f		 pop	 edi
  00431	5e		 pop	 esi
  00432	5b		 pop	 ebx
  00433	8b e5		 mov	 esp, ebp
  00435	5d		 pop	 ebp
  00436	c2 04 00	 ret	 4
  00439	8d 49 00	 npad	 3
$LN45@RequestDat:
  0043c	00 00 00 00	 DD	 $LN40@RequestDat
  00440	00 00 00 00	 DD	 $LN39@RequestDat
  00444	00 00 00 00	 DD	 $LN38@RequestDat
  00448	00 00 00 00	 DD	 $LN37@RequestDat
  0044c	00 00 00 00	 DD	 $LN36@RequestDat
  00450	00 00 00 00	 DD	 $LN35@RequestDat
  00454	00 00 00 00	 DD	 $LN34@RequestDat
  00458	00 00 00 00	 DD	 $LN33@RequestDat
  0045c	00 00 00 00	 DD	 $LN32@RequestDat
  00460	00 00 00 00	 DD	 $LN31@RequestDat
  00464	00 00 00 00	 DD	 $LN41@RequestDat
  00468	00 00 00 00	 DD	 $LN30@RequestDat
  0046c	00 00 00 00	 DD	 $LN29@RequestDat
  00470	00 00 00 00	 DD	 $LN28@RequestDat
  00474	00 00 00 00	 DD	 $LN27@RequestDat
  00478	00 00 00 00	 DD	 $LN26@RequestDat
  0047c	00 00 00 00	 DD	 $LN25@RequestDat
  00480	00 00 00 00	 DD	 $LN24@RequestDat
  00484	00 00 00 00	 DD	 $LN23@RequestDat
  00488	00 00 00 00	 DD	 $LN22@RequestDat
  0048c	00 00 00 00	 DD	 $LN21@RequestDat
  00490	00 00 00 00	 DD	 $LN20@RequestDat
  00494	00 00 00 00	 DD	 $LN19@RequestDat
  00498	00 00 00 00	 DD	 $LN18@RequestDat
  0049c	00 00 00 00	 DD	 $LN17@RequestDat
  004a0	00 00 00 00	 DD	 $LN16@RequestDat
  004a4	00 00 00 00	 DD	 $LN15@RequestDat
  004a8	00 00 00 00	 DD	 $LN14@RequestDat
  004ac	00 00 00 00	 DD	 $LN13@RequestDat
  004b0	00 00 00 00	 DD	 $LN12@RequestDat
  004b4	00 00 00 00	 DD	 $LN11@RequestDat
  004b8	00 00 00 00	 DD	 $LN10@RequestDat
  004bc	00 00 00 00	 DD	 $LN9@RequestDat
  004c0	00 00 00 00	 DD	 $LN8@RequestDat
  004c4	00 00 00 00	 DD	 $LN7@RequestDat
  004c8	00 00 00 00	 DD	 $LN6@RequestDat
  004cc	00 00 00 00	 DD	 $LN5@RequestDat
?RequestData@WzAG@@QAEXH@Z ENDP				; WzAG::RequestData
_TEXT	ENDS
PUBLIC	?SetInfo@WzAG@@QAE_NHEFPAD0HP6AXHH@Z@Z		; WzAG::SetInfo
EXTRN	_strcpy:PROC
; Function compile flags: /Odtp /ZI
_TEXT	SEGMENT
$T227399 = -72						; size = 4
_this$ = -4						; size = 4
_CountryCode$ = 8					; size = 4
_Partition$ = 12					; size = 1
_ServerCode$ = 16					; size = 2
_ServerVersion$ = 20					; size = 4
_ServerName$ = 24					; size = 4
_ServerType$ = 28					; size = 4
_CallBack$ = 32						; size = 4
?SetInfo@WzAG@@QAE_NHEFPAD0HP6AXHH@Z@Z PROC		; WzAG::SetInfo
; _this$ = ecx

; 223  : {

  004d0	55		 push	 ebp
  004d1	8b ec		 mov	 ebp, esp
  004d3	83 ec 48	 sub	 esp, 72			; 00000048H
  004d6	53		 push	 ebx
  004d7	56		 push	 esi
  004d8	57		 push	 edi
  004d9	89 4d fc	 mov	 DWORD PTR _this$[ebp], ecx

; 224  : 	if( DataBuffer )		

  004dc	83 3d 00 00 00
	00 00		 cmp	 DWORD PTR ?DataBuffer@@3PADA, 0 ; DataBuffer
  004e3	74 14		 je	 SHORT $LN2@SetInfo

; 225  : 	{
; 226  : 		delete [] DataBuffer;

  004e5	a1 00 00 00 00	 mov	 eax, DWORD PTR ?DataBuffer@@3PADA ; DataBuffer
  004ea	89 45 b8	 mov	 DWORD PTR $T227399[ebp], eax
  004ed	8b 4d b8	 mov	 ecx, DWORD PTR $T227399[ebp]
  004f0	51		 push	 ecx
  004f1	e8 00 00 00 00	 call	 ??_V@YAXPAX@Z		; operator delete[]
  004f6	83 c4 04	 add	 esp, 4
$LN2@SetInfo:

; 227  : 	}
; 228  : 	// ----
; 229  : 	if( DataBufferSize )

  004f9	83 3d 00 00 00
	00 00		 cmp	 DWORD PTR ?DataBufferSize@@3KA, 0 ; DataBufferSize
  00500	74 0a		 je	 SHORT $LN1@SetInfo

; 230  : 	{
; 231  : 		DataBufferSize = 0;

  00502	c7 05 00 00 00
	00 00 00 00 00	 mov	 DWORD PTR ?DataBufferSize@@3KA, 0 ; DataBufferSize
$LN1@SetInfo:

; 232  : 	}
; 233  : 	// ----
; 234  : 	strcpy(sztmpServerName, ServerName);

  0050c	8b 45 18	 mov	 eax, DWORD PTR _ServerName$[ebp]
  0050f	50		 push	 eax
  00510	68 00 00 00 00	 push	 OFFSET ?sztmpServerName@@3PADA ; sztmpServerName
  00515	e8 00 00 00 00	 call	 _strcpy
  0051a	83 c4 08	 add	 esp, 8

; 235  : 	// ----
; 236  : 	return true;

  0051d	b0 01		 mov	 al, 1

; 237  : }

  0051f	5f		 pop	 edi
  00520	5e		 pop	 esi
  00521	5b		 pop	 ebx
  00522	8b e5		 mov	 esp, ebp
  00524	5d		 pop	 ebp
  00525	c2 1c 00	 ret	 28			; 0000001cH
?SetInfo@WzAG@@QAE_NHEFPAD0HP6AXHH@Z@Z ENDP		; WzAG::SetInfo
_TEXT	ENDS
PUBLIC	?SetSubInfo@WzAG@@QAEXHHHHMH@Z			; WzAG::SetSubInfo
; Function compile flags: /Odtp /ZI
_TEXT	SEGMENT
_this$ = -4						; size = 4
_ServerMaxUser$ = 8					; size = 4
_ObjTotalUser$ = 12					; size = 4
_MonsterHP$ = 16					; size = 4
_ItemDropPer$ = 20					; size = 4
_AddExperience$ = 24					; size = 4
_EventFlag$ = 28					; size = 4
?SetSubInfo@WzAG@@QAEXHHHHMH@Z PROC			; WzAG::SetSubInfo
; _this$ = ecx

; 241  : {

  00530	55		 push	 ebp
  00531	8b ec		 mov	 ebp, esp
  00533	83 ec 44	 sub	 esp, 68			; 00000044H
  00536	53		 push	 ebx
  00537	56		 push	 esi
  00538	57		 push	 edi
  00539	89 4d fc	 mov	 DWORD PTR _this$[ebp], ecx

; 242  : 	// ----
; 243  : }

  0053c	5f		 pop	 edi
  0053d	5e		 pop	 esi
  0053e	5b		 pop	 ebx
  0053f	8b e5		 mov	 esp, ebp
  00541	5d		 pop	 ebp
  00542	c2 18 00	 ret	 24			; 00000018H
?SetSubInfo@WzAG@@QAEXHHHHMH@Z ENDP			; WzAG::SetSubInfo
_TEXT	ENDS
PUBLIC	??_C@_05MDAMHPFF@Korea?$AA@			; `string'
PUBLIC	??_C@_07BGODPMK@Vietnam?$AA@			; `string'
PUBLIC	??_C@_0M@FCHOEOBK@Phillipines?$AA@		; `string'
PUBLIC	??_C@_08KLPMBLEF@Thailand?$AA@			; `string'
PUBLIC	??_C@_06KGAAFLPN@Taiwan?$AA@			; `string'
PUBLIC	??_C@_05BGDCBOFH@China?$AA@			; `string'
PUBLIC	??_C@_05JNPIGOAJ@Japan?$AA@			; `string'
PUBLIC	??_C@_07NEKHPBCG@English?$AA@			; `string'
PUBLIC	?GetCountryNameByCode@WzAG@@AAEPADH@Z		; WzAG::GetCountryNameByCode
;	COMDAT ??_C@_05MDAMHPFF@Korea?$AA@
CONST	SEGMENT
??_C@_05MDAMHPFF@Korea?$AA@ DB 'Korea', 00H		; `string'
CONST	ENDS
;	COMDAT ??_C@_07BGODPMK@Vietnam?$AA@
CONST	SEGMENT
??_C@_07BGODPMK@Vietnam?$AA@ DB 'Vietnam', 00H		; `string'
CONST	ENDS
;	COMDAT ??_C@_0M@FCHOEOBK@Phillipines?$AA@
CONST	SEGMENT
??_C@_0M@FCHOEOBK@Phillipines?$AA@ DB 'Phillipines', 00H ; `string'
CONST	ENDS
;	COMDAT ??_C@_08KLPMBLEF@Thailand?$AA@
CONST	SEGMENT
??_C@_08KLPMBLEF@Thailand?$AA@ DB 'Thailand', 00H	; `string'
CONST	ENDS
;	COMDAT ??_C@_06KGAAFLPN@Taiwan?$AA@
CONST	SEGMENT
??_C@_06KGAAFLPN@Taiwan?$AA@ DB 'Taiwan', 00H		; `string'
CONST	ENDS
;	COMDAT ??_C@_05BGDCBOFH@China?$AA@
CONST	SEGMENT
??_C@_05BGDCBOFH@China?$AA@ DB 'China', 00H		; `string'
CONST	ENDS
;	COMDAT ??_C@_05JNPIGOAJ@Japan?$AA@
CONST	SEGMENT
??_C@_05JNPIGOAJ@Japan?$AA@ DB 'Japan', 00H		; `string'
CONST	ENDS
;	COMDAT ??_C@_07NEKHPBCG@English?$AA@
CONST	SEGMENT
??_C@_07NEKHPBCG@English?$AA@ DB 'English', 00H		; `string'
; Function compile flags: /Odtp /ZI
CONST	ENDS
_TEXT	SEGMENT
tv71 = -96						; size = 4
tv72 = -92						; size = 4
tv73 = -88						; size = 4
tv74 = -84						; size = 4
tv75 = -80						; size = 4
tv76 = -76						; size = 4
tv77 = -72						; size = 4
_this$ = -4						; size = 4
_iCountryCode$ = 8					; size = 4
?GetCountryNameByCode@WzAG@@AAEPADH@Z PROC		; WzAG::GetCountryNameByCode
; _this$ = ecx

; 247  : {

  00550	55		 push	 ebp
  00551	8b ec		 mov	 ebp, esp
  00553	83 ec 60	 sub	 esp, 96			; 00000060H
  00556	53		 push	 ebx
  00557	56		 push	 esi
  00558	57		 push	 edi
  00559	89 4d fc	 mov	 DWORD PTR _this$[ebp], ecx

; 248  : 	return (iCountryCode==1)?("English"):(iCountryCode==2)?("Japan"):(iCountryCode==3)?("China"):(iCountryCode==4)?("Taiwan"):(iCountryCode==5)?("Thailand"):(iCountryCode==6)?("Phillipines"):(iCountryCode==7)?("Vietnam"):("Korea");

  0055c	83 7d 08 01	 cmp	 DWORD PTR _iCountryCode$[ebp], 1
  00560	75 0c		 jne	 SHORT $LN15@GetCountry
  00562	c7 45 b8 00 00
	00 00		 mov	 DWORD PTR tv77[ebp], OFFSET ??_C@_07NEKHPBCG@English?$AA@
  00569	e9 85 00 00 00	 jmp	 $LN16@GetCountry
$LN15@GetCountry:
  0056e	83 7d 08 02	 cmp	 DWORD PTR _iCountryCode$[ebp], 2
  00572	75 09		 jne	 SHORT $LN13@GetCountry
  00574	c7 45 b4 00 00
	00 00		 mov	 DWORD PTR tv76[ebp], OFFSET ??_C@_05JNPIGOAJ@Japan?$AA@
  0057b	eb 70		 jmp	 SHORT $LN14@GetCountry
$LN13@GetCountry:
  0057d	83 7d 08 03	 cmp	 DWORD PTR _iCountryCode$[ebp], 3
  00581	75 09		 jne	 SHORT $LN11@GetCountry
  00583	c7 45 b0 00 00
	00 00		 mov	 DWORD PTR tv75[ebp], OFFSET ??_C@_05BGDCBOFH@China?$AA@
  0058a	eb 5b		 jmp	 SHORT $LN12@GetCountry
$LN11@GetCountry:
  0058c	83 7d 08 04	 cmp	 DWORD PTR _iCountryCode$[ebp], 4
  00590	75 09		 jne	 SHORT $LN9@GetCountry
  00592	c7 45 ac 00 00
	00 00		 mov	 DWORD PTR tv74[ebp], OFFSET ??_C@_06KGAAFLPN@Taiwan?$AA@
  00599	eb 46		 jmp	 SHORT $LN10@GetCountry
$LN9@GetCountry:
  0059b	83 7d 08 05	 cmp	 DWORD PTR _iCountryCode$[ebp], 5
  0059f	75 09		 jne	 SHORT $LN7@GetCountry
  005a1	c7 45 a8 00 00
	00 00		 mov	 DWORD PTR tv73[ebp], OFFSET ??_C@_08KLPMBLEF@Thailand?$AA@
  005a8	eb 31		 jmp	 SHORT $LN8@GetCountry
$LN7@GetCountry:
  005aa	83 7d 08 06	 cmp	 DWORD PTR _iCountryCode$[ebp], 6
  005ae	75 09		 jne	 SHORT $LN5@GetCountry
  005b0	c7 45 a4 00 00
	00 00		 mov	 DWORD PTR tv72[ebp], OFFSET ??_C@_0M@FCHOEOBK@Phillipines?$AA@
  005b7	eb 1c		 jmp	 SHORT $LN6@GetCountry
$LN5@GetCountry:
  005b9	83 7d 08 07	 cmp	 DWORD PTR _iCountryCode$[ebp], 7
  005bd	75 09		 jne	 SHORT $LN3@GetCountry
  005bf	c7 45 a0 00 00
	00 00		 mov	 DWORD PTR tv71[ebp], OFFSET ??_C@_07BGODPMK@Vietnam?$AA@
  005c6	eb 07		 jmp	 SHORT $LN4@GetCountry
$LN3@GetCountry:
  005c8	c7 45 a0 00 00
	00 00		 mov	 DWORD PTR tv71[ebp], OFFSET ??_C@_05MDAMHPFF@Korea?$AA@
$LN4@GetCountry:
  005cf	8b 45 a0	 mov	 eax, DWORD PTR tv71[ebp]
  005d2	89 45 a4	 mov	 DWORD PTR tv72[ebp], eax
$LN6@GetCountry:
  005d5	8b 4d a4	 mov	 ecx, DWORD PTR tv72[ebp]
  005d8	89 4d a8	 mov	 DWORD PTR tv73[ebp], ecx
$LN8@GetCountry:
  005db	8b 55 a8	 mov	 edx, DWORD PTR tv73[ebp]
  005de	89 55 ac	 mov	 DWORD PTR tv74[ebp], edx
$LN10@GetCountry:
  005e1	8b 45 ac	 mov	 eax, DWORD PTR tv74[ebp]
  005e4	89 45 b0	 mov	 DWORD PTR tv75[ebp], eax
$LN12@GetCountry:
  005e7	8b 4d b0	 mov	 ecx, DWORD PTR tv75[ebp]
  005ea	89 4d b4	 mov	 DWORD PTR tv76[ebp], ecx
$LN14@GetCountry:
  005ed	8b 55 b4	 mov	 edx, DWORD PTR tv76[ebp]
  005f0	89 55 b8	 mov	 DWORD PTR tv77[ebp], edx
$LN16@GetCountry:
  005f3	8b 45 b8	 mov	 eax, DWORD PTR tv77[ebp]

; 249  : }

  005f6	5f		 pop	 edi
  005f7	5e		 pop	 esi
  005f8	5b		 pop	 ebx
  005f9	8b e5		 mov	 esp, ebp
  005fb	5d		 pop	 ebp
  005fc	c2 04 00	 ret	 4
?GetCountryNameByCode@WzAG@@AAEPADH@Z ENDP		; WzAG::GetCountryNameByCode
_TEXT	ENDS
PUBLIC	??_C@_0L@FGHHMDFA@MainServer?$AA@		; `string'
PUBLIC	??_C@_0BA@MMJDKKGF@Internal?5Server?$AA@	; `string'
PUBLIC	??_C@_0L@FOLCHMGI@TestServer?$AA@		; `string'
PUBLIC	?GetServerTypeByType@WzAG@@AAEPADH@Z		; WzAG::GetServerTypeByType
;	COMDAT ??_C@_0L@FGHHMDFA@MainServer?$AA@
CONST	SEGMENT
??_C@_0L@FGHHMDFA@MainServer?$AA@ DB 'MainServer', 00H	; `string'
CONST	ENDS
;	COMDAT ??_C@_0BA@MMJDKKGF@Internal?5Server?$AA@
CONST	SEGMENT
??_C@_0BA@MMJDKKGF@Internal?5Server?$AA@ DB 'Internal Server', 00H ; `string'
CONST	ENDS
;	COMDAT ??_C@_0L@FOLCHMGI@TestServer?$AA@
CONST	SEGMENT
??_C@_0L@FOLCHMGI@TestServer?$AA@ DB 'TestServer', 00H	; `string'
; Function compile flags: /Odtp /ZI
CONST	ENDS
_TEXT	SEGMENT
tv66 = -76						; size = 4
tv67 = -72						; size = 4
_this$ = -4						; size = 4
_ServerType$ = 8					; size = 4
?GetServerTypeByType@WzAG@@AAEPADH@Z PROC		; WzAG::GetServerTypeByType
; _this$ = ecx

; 253  : {

  00600	55		 push	 ebp
  00601	8b ec		 mov	 ebp, esp
  00603	83 ec 4c	 sub	 esp, 76			; 0000004cH
  00606	53		 push	 ebx
  00607	56		 push	 esi
  00608	57		 push	 edi
  00609	89 4d fc	 mov	 DWORD PTR _this$[ebp], ecx

; 254  : 	return (ServerType==1)?("TestServer"):(ServerType==2)?("Internal Server"):("MainServer");

  0060c	83 7d 08 01	 cmp	 DWORD PTR _ServerType$[ebp], 1
  00610	75 09		 jne	 SHORT $LN5@GetServerT
  00612	c7 45 b8 00 00
	00 00		 mov	 DWORD PTR tv67[ebp], OFFSET ??_C@_0L@FOLCHMGI@TestServer?$AA@
  00619	eb 1c		 jmp	 SHORT $LN6@GetServerT
$LN5@GetServerT:
  0061b	83 7d 08 02	 cmp	 DWORD PTR _ServerType$[ebp], 2
  0061f	75 09		 jne	 SHORT $LN3@GetServerT
  00621	c7 45 b4 00 00
	00 00		 mov	 DWORD PTR tv66[ebp], OFFSET ??_C@_0BA@MMJDKKGF@Internal?5Server?$AA@
  00628	eb 07		 jmp	 SHORT $LN4@GetServerT
$LN3@GetServerT:
  0062a	c7 45 b4 00 00
	00 00		 mov	 DWORD PTR tv66[ebp], OFFSET ??_C@_0L@FGHHMDFA@MainServer?$AA@
$LN4@GetServerT:
  00631	8b 45 b4	 mov	 eax, DWORD PTR tv66[ebp]
  00634	89 45 b8	 mov	 DWORD PTR tv67[ebp], eax
$LN6@GetServerT:
  00637	8b 45 b8	 mov	 eax, DWORD PTR tv67[ebp]

; 255  : }

  0063a	5f		 pop	 edi
  0063b	5e		 pop	 esi
  0063c	5b		 pop	 ebx
  0063d	8b e5		 mov	 esp, ebp
  0063f	5d		 pop	 ebp
  00640	c2 04 00	 ret	 4
?GetServerTypeByType@WzAG@@AAEPADH@Z ENDP		; WzAG::GetServerTypeByType
_TEXT	ENDS
PUBLIC	??_C@_0BH@JJJKECHB@?$HM?5NProtect?5CheckSum?5?$HM?5?$AA@ ; `string'
PUBLIC	??_C@_0BD@HNEFMGCE@?$HM?5Eledora?5Event?5?$HM?5?$AA@ ; `string'
PUBLIC	??_C@_0BF@BBGHIHK@?$HM?5EventChip?5Event?5?$HM?5?$AA@ ; `string'
PUBLIC	??_C@_0BH@GGAHMDCB@?$HM?5Ring?5Attack?5Event?5?$HM?5?$AA@ ; `string'
PUBLIC	??_C@_0BB@PHGDCDDI@?$HM?5Medal?5Event?5?$HM?5?$AA@ ; `string'
PUBLIC	??_C@_0BJ@LKICJNHN@?$HM?5Heart?5Of?5Love?5Event?5?$HM?5?$AA@ ; `string'
PUBLIC	??_C@_0BI@LCLNHMLE@?$HM?5Fire?5Cracker?5Event?5?$HM?5?$AA@ ; `string'
PUBLIC	??_C@_0BF@CFKCHCCC@?$HM?5XMas?5Star?5Event?5?$HM?5?$AA@ ; `string'
PUBLIC	??_C@_0BI@GJDGAFKJ@?$HM?5Blood?5Castle?5Event?5?$HM?5?$AA@ ; `string'
PUBLIC	??_C@_0BI@CFJOPHED@?$HM?5Devil?5Square?5Event?5?$HM?5?$AA@ ; `string'
PUBLIC	?GetEventFlag@WzAG@@AAEPADH@Z			; WzAG::GetEventFlag
EXTRN	_strcat:PROC
EXTRN	_memset:PROC
;	COMDAT ??_C@_0BH@JJJKECHB@?$HM?5NProtect?5CheckSum?5?$HM?5?$AA@
CONST	SEGMENT
??_C@_0BH@JJJKECHB@?$HM?5NProtect?5CheckSum?5?$HM?5?$AA@ DB '| NProtect C'
	DB	'heckSum | ', 00H				; `string'
CONST	ENDS
;	COMDAT ??_C@_0BD@HNEFMGCE@?$HM?5Eledora?5Event?5?$HM?5?$AA@
CONST	SEGMENT
??_C@_0BD@HNEFMGCE@?$HM?5Eledora?5Event?5?$HM?5?$AA@ DB '| Eledora Event '
	DB	'| ', 00H					; `string'
CONST	ENDS
;	COMDAT ??_C@_0BF@BBGHIHK@?$HM?5EventChip?5Event?5?$HM?5?$AA@
CONST	SEGMENT
??_C@_0BF@BBGHIHK@?$HM?5EventChip?5Event?5?$HM?5?$AA@ DB '| EventChip Eve'
	DB	'nt | ', 00H					; `string'
CONST	ENDS
;	COMDAT ??_C@_0BH@GGAHMDCB@?$HM?5Ring?5Attack?5Event?5?$HM?5?$AA@
CONST	SEGMENT
??_C@_0BH@GGAHMDCB@?$HM?5Ring?5Attack?5Event?5?$HM?5?$AA@ DB '| Ring Atta'
	DB	'ck Event | ', 00H				; `string'
CONST	ENDS
;	COMDAT ??_C@_0BB@PHGDCDDI@?$HM?5Medal?5Event?5?$HM?5?$AA@
CONST	SEGMENT
??_C@_0BB@PHGDCDDI@?$HM?5Medal?5Event?5?$HM?5?$AA@ DB '| Medal Event | ', 00H ; `string'
CONST	ENDS
;	COMDAT ??_C@_0BJ@LKICJNHN@?$HM?5Heart?5Of?5Love?5Event?5?$HM?5?$AA@
CONST	SEGMENT
??_C@_0BJ@LKICJNHN@?$HM?5Heart?5Of?5Love?5Event?5?$HM?5?$AA@ DB '| Heart '
	DB	'Of Love Event | ', 00H			; `string'
CONST	ENDS
;	COMDAT ??_C@_0BI@LCLNHMLE@?$HM?5Fire?5Cracker?5Event?5?$HM?5?$AA@
CONST	SEGMENT
??_C@_0BI@LCLNHMLE@?$HM?5Fire?5Cracker?5Event?5?$HM?5?$AA@ DB '| Fire Cra'
	DB	'cker Event | ', 00H				; `string'
CONST	ENDS
;	COMDAT ??_C@_0BF@CFKCHCCC@?$HM?5XMas?5Star?5Event?5?$HM?5?$AA@
CONST	SEGMENT
??_C@_0BF@CFKCHCCC@?$HM?5XMas?5Star?5Event?5?$HM?5?$AA@ DB '| XMas Star E'
	DB	'vent | ', 00H				; `string'
CONST	ENDS
;	COMDAT ??_C@_0BI@GJDGAFKJ@?$HM?5Blood?5Castle?5Event?5?$HM?5?$AA@
CONST	SEGMENT
??_C@_0BI@GJDGAFKJ@?$HM?5Blood?5Castle?5Event?5?$HM?5?$AA@ DB '| Blood Ca'
	DB	'stle Event | ', 00H				; `string'
CONST	ENDS
;	COMDAT ??_C@_0BI@CFJOPHED@?$HM?5Devil?5Square?5Event?5?$HM?5?$AA@
CONST	SEGMENT
??_C@_0BI@CFJOPHED@?$HM?5Devil?5Square?5Event?5?$HM?5?$AA@ DB '| Devil Sq'
	DB	'uare Event | ', 00H				; `string'
; Function compile flags: /Odtp /ZI
CONST	ENDS
_TEXT	SEGMENT
$T227422 = -76						; size = 4
_ReturnText$ = -8					; size = 4
_this$ = -4						; size = 4
_Flag$ = 8						; size = 4
?GetEventFlag@WzAG@@AAEPADH@Z PROC			; WzAG::GetEventFlag
; _this$ = ecx

; 259  : {

  00650	55		 push	 ebp
  00651	8b ec		 mov	 ebp, esp
  00653	83 ec 4c	 sub	 esp, 76			; 0000004cH
  00656	53		 push	 ebx
  00657	56		 push	 esi
  00658	57		 push	 edi
  00659	89 4d fc	 mov	 DWORD PTR _this$[ebp], ecx

; 260  : 	char * ReturnText = new char[512];

  0065c	68 00 02 00 00	 push	 512			; 00000200H
  00661	e8 00 00 00 00	 call	 ??_U@YAPAXI@Z		; operator new[]
  00666	83 c4 04	 add	 esp, 4
  00669	89 45 b4	 mov	 DWORD PTR $T227422[ebp], eax
  0066c	8b 45 b4	 mov	 eax, DWORD PTR $T227422[ebp]
  0066f	89 45 f8	 mov	 DWORD PTR _ReturnText$[ebp], eax

; 261  : 	memset(ReturnText, 0, 512);

  00672	68 00 02 00 00	 push	 512			; 00000200H
  00677	6a 00		 push	 0
  00679	8b 45 f8	 mov	 eax, DWORD PTR _ReturnText$[ebp]
  0067c	50		 push	 eax
  0067d	e8 00 00 00 00	 call	 _memset
  00682	83 c4 0c	 add	 esp, 12			; 0000000cH

; 262  : 	// ----
; 263  : 	if(EVENT_ACTIVE(1))		strcat(ReturnText, "| Devil Square Event | ");

  00685	8b 45 08	 mov	 eax, DWORD PTR _Flag$[ebp]
  00688	83 e0 01	 and	 eax, 1
  0068b	74 11		 je	 SHORT $LN10@GetEventFl
  0068d	68 00 00 00 00	 push	 OFFSET ??_C@_0BI@CFJOPHED@?$HM?5Devil?5Square?5Event?5?$HM?5?$AA@
  00692	8b 45 f8	 mov	 eax, DWORD PTR _ReturnText$[ebp]
  00695	50		 push	 eax
  00696	e8 00 00 00 00	 call	 _strcat
  0069b	83 c4 08	 add	 esp, 8
$LN10@GetEventFl:

; 264  : 	if(EVENT_ACTIVE(2))		strcat(ReturnText, "| Blood Castle Event | ");

  0069e	8b 45 08	 mov	 eax, DWORD PTR _Flag$[ebp]
  006a1	83 e0 02	 and	 eax, 2
  006a4	74 11		 je	 SHORT $LN9@GetEventFl
  006a6	68 00 00 00 00	 push	 OFFSET ??_C@_0BI@GJDGAFKJ@?$HM?5Blood?5Castle?5Event?5?$HM?5?$AA@
  006ab	8b 45 f8	 mov	 eax, DWORD PTR _ReturnText$[ebp]
  006ae	50		 push	 eax
  006af	e8 00 00 00 00	 call	 _strcat
  006b4	83 c4 08	 add	 esp, 8
$LN9@GetEventFl:

; 265  : 	if(EVENT_ACTIVE(256))	strcat(ReturnText, "| XMas Star Event | ");

  006b7	8b 45 08	 mov	 eax, DWORD PTR _Flag$[ebp]
  006ba	25 00 01 00 00	 and	 eax, 256		; 00000100H
  006bf	74 11		 je	 SHORT $LN8@GetEventFl
  006c1	68 00 00 00 00	 push	 OFFSET ??_C@_0BF@CFKCHCCC@?$HM?5XMas?5Star?5Event?5?$HM?5?$AA@
  006c6	8b 45 f8	 mov	 eax, DWORD PTR _ReturnText$[ebp]
  006c9	50		 push	 eax
  006ca	e8 00 00 00 00	 call	 _strcat
  006cf	83 c4 08	 add	 esp, 8
$LN8@GetEventFl:

; 266  : 	if(EVENT_ACTIVE(512))	strcat(ReturnText, "| Fire Cracker Event | ");

  006d2	8b 45 08	 mov	 eax, DWORD PTR _Flag$[ebp]
  006d5	25 00 02 00 00	 and	 eax, 512		; 00000200H
  006da	74 11		 je	 SHORT $LN7@GetEventFl
  006dc	68 00 00 00 00	 push	 OFFSET ??_C@_0BI@LCLNHMLE@?$HM?5Fire?5Cracker?5Event?5?$HM?5?$AA@
  006e1	8b 45 f8	 mov	 eax, DWORD PTR _ReturnText$[ebp]
  006e4	50		 push	 eax
  006e5	e8 00 00 00 00	 call	 _strcat
  006ea	83 c4 08	 add	 esp, 8
$LN7@GetEventFl:

; 267  : 	if(EVENT_ACTIVE(1024))	strcat(ReturnText, "| Heart Of Love Event | ");

  006ed	8b 45 08	 mov	 eax, DWORD PTR _Flag$[ebp]
  006f0	25 00 04 00 00	 and	 eax, 1024		; 00000400H
  006f5	74 11		 je	 SHORT $LN6@GetEventFl
  006f7	68 00 00 00 00	 push	 OFFSET ??_C@_0BJ@LKICJNHN@?$HM?5Heart?5Of?5Love?5Event?5?$HM?5?$AA@
  006fc	8b 45 f8	 mov	 eax, DWORD PTR _ReturnText$[ebp]
  006ff	50		 push	 eax
  00700	e8 00 00 00 00	 call	 _strcat
  00705	83 c4 08	 add	 esp, 8
$LN6@GetEventFl:

; 268  : 	if(EVENT_ACTIVE(2048))	strcat(ReturnText, "| Medal Event | ");

  00708	8b 45 08	 mov	 eax, DWORD PTR _Flag$[ebp]
  0070b	25 00 08 00 00	 and	 eax, 2048		; 00000800H
  00710	74 11		 je	 SHORT $LN5@GetEventFl
  00712	68 00 00 00 00	 push	 OFFSET ??_C@_0BB@PHGDCDDI@?$HM?5Medal?5Event?5?$HM?5?$AA@
  00717	8b 45 f8	 mov	 eax, DWORD PTR _ReturnText$[ebp]
  0071a	50		 push	 eax
  0071b	e8 00 00 00 00	 call	 _strcat
  00720	83 c4 08	 add	 esp, 8
$LN5@GetEventFl:

; 269  : 	if(EVENT_ACTIVE(4096))	strcat(ReturnText, "| Ring Attack Event | ");

  00723	8b 45 08	 mov	 eax, DWORD PTR _Flag$[ebp]
  00726	25 00 10 00 00	 and	 eax, 4096		; 00001000H
  0072b	74 11		 je	 SHORT $LN4@GetEventFl
  0072d	68 00 00 00 00	 push	 OFFSET ??_C@_0BH@GGAHMDCB@?$HM?5Ring?5Attack?5Event?5?$HM?5?$AA@
  00732	8b 45 f8	 mov	 eax, DWORD PTR _ReturnText$[ebp]
  00735	50		 push	 eax
  00736	e8 00 00 00 00	 call	 _strcat
  0073b	83 c4 08	 add	 esp, 8
$LN4@GetEventFl:

; 270  : 	if(EVENT_ACTIVE(8192))	strcat(ReturnText, "| EventChip Event | ");

  0073e	8b 45 08	 mov	 eax, DWORD PTR _Flag$[ebp]
  00741	25 00 20 00 00	 and	 eax, 8192		; 00002000H
  00746	74 11		 je	 SHORT $LN3@GetEventFl
  00748	68 00 00 00 00	 push	 OFFSET ??_C@_0BF@BBGHIHK@?$HM?5EventChip?5Event?5?$HM?5?$AA@
  0074d	8b 45 f8	 mov	 eax, DWORD PTR _ReturnText$[ebp]
  00750	50		 push	 eax
  00751	e8 00 00 00 00	 call	 _strcat
  00756	83 c4 08	 add	 esp, 8
$LN3@GetEventFl:

; 271  : 	if(EVENT_ACTIVE(16384))	strcat(ReturnText, "| Eledora Event | ");

  00759	8b 45 08	 mov	 eax, DWORD PTR _Flag$[ebp]
  0075c	25 00 40 00 00	 and	 eax, 16384		; 00004000H
  00761	74 11		 je	 SHORT $LN2@GetEventFl
  00763	68 00 00 00 00	 push	 OFFSET ??_C@_0BD@HNEFMGCE@?$HM?5Eledora?5Event?5?$HM?5?$AA@
  00768	8b 45 f8	 mov	 eax, DWORD PTR _ReturnText$[ebp]
  0076b	50		 push	 eax
  0076c	e8 00 00 00 00	 call	 _strcat
  00771	83 c4 08	 add	 esp, 8
$LN2@GetEventFl:

; 272  : 	if(EVENT_ACTIVE(65536))	strcat(ReturnText, "| NProtect CheckSum | ");

  00774	8b 45 08	 mov	 eax, DWORD PTR _Flag$[ebp]
  00777	25 00 00 01 00	 and	 eax, 65536		; 00010000H
  0077c	74 11		 je	 SHORT $LN1@GetEventFl
  0077e	68 00 00 00 00	 push	 OFFSET ??_C@_0BH@JJJKECHB@?$HM?5NProtect?5CheckSum?5?$HM?5?$AA@
  00783	8b 45 f8	 mov	 eax, DWORD PTR _ReturnText$[ebp]
  00786	50		 push	 eax
  00787	e8 00 00 00 00	 call	 _strcat
  0078c	83 c4 08	 add	 esp, 8
$LN1@GetEventFl:

; 273  : 	// ----
; 274  : 	return ReturnText;

  0078f	8b 45 f8	 mov	 eax, DWORD PTR _ReturnText$[ebp]

; 275  : }

  00792	5f		 pop	 edi
  00793	5e		 pop	 esi
  00794	5b		 pop	 ebx
  00795	8b e5		 mov	 esp, ebp
  00797	5d		 pop	 ebp
  00798	c2 04 00	 ret	 4
?GetEventFlag@WzAG@@AAEPADH@Z ENDP			; WzAG::GetEventFlag
_TEXT	ENDS
END
