; Listing generated by Microsoft (R) Optimizing Compiler Version 16.00.40219.01 

	TITLE	D:\Projects\ExTeam6.3\Source\GameServer\common\zzzitem.cpp
	.686P
	.XMM
	include listing.inc
	.model	flat

INCLUDELIB LIBCMT
INCLUDELIB OLDNAMES

PUBLIC	?ItemAttribute@@3PAUITEM_ATTRIBUTE@@A		; ItemAttribute
PUBLIC	?g_MaxItemIndexOfEachItemType@@3PAHA		; g_MaxItemIndexOfEachItemType
_BSS	SEGMENT
?ItemAttribute@@3PAUITEM_ATTRIBUTE@@A DB 0e0000H DUP (?) ; ItemAttribute
?g_MaxItemIndexOfEachItemType@@3PAHA DD 010H DUP (?)	; g_MaxItemIndexOfEachItemType
_BSS	ENDS
_DATA	SEGMENT
_g_iNpcUpDfLevel_CGATE DD 01H
	DD	02H
	DD	02dc6c0H
	DD	02H
	DD	03H
	DD	02dc6c0H
	DD	03H
	DD	04H
	DD	02dc6c0H
_g_iNpcUpDfLevel_CSTATUE DD 01H
	DD	03H
	DD	02dc6c0H
	DD	02H
	DD	05H
	DD	02dc6c0H
	DD	03H
	DD	07H
	DD	02dc6c0H
_g_iNpcUpMaxHP_CGATE DD 02625a0H
	DD	02H
	DD	0f4240H
	DD	03567e0H
	DD	03H
	DD	0f4240H
	DD	04f5880H
	DD	04H
	DD	0f4240H
_g_iNpcUpMaxHP_CSTATUE DD 02191c0H
	DD	03H
	DD	0f4240H
	DD	033e140H
	DD	05H
	DD	0f4240H
	DD	04c4b40H
	DD	07H
	DD	0f4240H
_g_iNpcUpRgLevel_CSTATUE DD 01H
	DD	03H
	DD	04c4b40H
	DD	02H
	DD	05H
	DD	04c4b40H
	DD	03H
	DD	07H
	DD	04c4b40H
_g_iCsUserReSpawnArea DD 023H
	DD	011H
	DD	090H
	DD	030H
	DD	04aH
	DD	090H
	DD	073H
	DD	09aH
	DD	023H
	DD	011H
	DD	090H
	DD	030H
_g_iNpcDefense_CGATE DD 064H
	DD	0b4H
	DD	012cH
	DD	0208H
_g_iNpcDefense_CSTATUE DD 050H
	DD	0b4H
	DD	0154H
	DD	0226H
_g_iCastleWallStepAxisY DD 071H
	DD	0a0H
	DD	0cbH
_DATA	ENDS
PUBLIC	??_H@YGXPAXIHP6EPAX0@Z@Z			; `vector constructor iterator'
; Function compile flags: /Odtp /ZI
;	COMDAT ??_H@YGXPAXIHP6EPAX0@Z@Z
_TEXT	SEGMENT
___t$ = 8						; size = 4
___s$ = 12						; size = 4
___n$ = 16						; size = 4
___f$ = 20						; size = 4
??_H@YGXPAXIHP6EPAX0@Z@Z PROC				; `vector constructor iterator', COMDAT
  00000	55		 push	 ebp
  00001	8b ec		 mov	 ebp, esp
  00003	83 ec 40	 sub	 esp, 64			; 00000040H
  00006	53		 push	 ebx
  00007	56		 push	 esi
  00008	57		 push	 edi
$LN2@vector:
  00009	8b 45 10	 mov	 eax, DWORD PTR ___n$[ebp]
  0000c	83 e8 01	 sub	 eax, 1
  0000f	89 45 10	 mov	 DWORD PTR ___n$[ebp], eax
  00012	78 11		 js	 SHORT $LN3@vector
  00014	8b 4d 08	 mov	 ecx, DWORD PTR ___t$[ebp]
  00017	ff 55 14	 call	 DWORD PTR ___f$[ebp]
  0001a	8b 45 08	 mov	 eax, DWORD PTR ___t$[ebp]
  0001d	03 45 0c	 add	 eax, DWORD PTR ___s$[ebp]
  00020	89 45 08	 mov	 DWORD PTR ___t$[ebp], eax
  00023	eb e4		 jmp	 SHORT $LN2@vector
$LN3@vector:
  00025	5f		 pop	 edi
  00026	5e		 pop	 esi
  00027	5b		 pop	 ebx
  00028	8b e5		 mov	 esp, ebp
  0002a	5d		 pop	 ebp
  0002b	c2 10 00	 ret	 16			; 00000010H
??_H@YGXPAXIHP6EPAX0@Z@Z ENDP				; `vector constructor iterator'
_TEXT	ENDS
PUBLIC	?Clear@CItem@@QAEXXZ				; CItem::Clear
PUBLIC	??0CItem@@QAE@XZ				; CItem::CItem
; Function compile flags: /Odtp /ZI
; File d:\projects\exteam6.3\source\gameserver\common\zzzitem.cpp
_TEXT	SEGMENT
_this$ = -4						; size = 4
??0CItem@@QAE@XZ PROC					; CItem::CItem
; _this$ = ecx

; 26   : {

  00000	55		 push	 ebp
  00001	8b ec		 mov	 ebp, esp
  00003	83 ec 44	 sub	 esp, 68			; 00000044H
  00006	53		 push	 ebx
  00007	56		 push	 esi
  00008	57		 push	 edi
  00009	89 4d fc	 mov	 DWORD PTR _this$[ebp], ecx

; 27   : 	this->Clear();

  0000c	8b 4d fc	 mov	 ecx, DWORD PTR _this$[ebp]
  0000f	e8 00 00 00 00	 call	 ?Clear@CItem@@QAEXXZ	; CItem::Clear

; 28   : }

  00014	8b 45 fc	 mov	 eax, DWORD PTR _this$[ebp]
  00017	5f		 pop	 edi
  00018	5e		 pop	 esi
  00019	5b		 pop	 ebx
  0001a	8b e5		 mov	 esp, ebp
  0001c	5d		 pop	 ebp
  0001d	c3		 ret	 0
??0CItem@@QAE@XZ ENDP					; CItem::CItem
_TEXT	ENDS
PUBLIC	__real@bf800000
PUBLIC	__real@00000000
EXTRN	_memset:PROC
EXTRN	__fltused:DWORD
;	COMDAT __real@bf800000
CONST	SEGMENT
__real@bf800000 DD 0bf800000r			; -1
CONST	ENDS
;	COMDAT __real@00000000
CONST	SEGMENT
__real@00000000 DD 000000000r			; 0
; Function compile flags: /Odtp /ZI
CONST	ENDS
_TEXT	SEGMENT
_this$ = -4						; size = 4
?Clear@CItem@@QAEXXZ PROC				; CItem::Clear
; _this$ = ecx

; 31   : {

  00020	55		 push	 ebp
  00021	8b ec		 mov	 ebp, esp
  00023	83 ec 44	 sub	 esp, 68			; 00000044H
  00026	53		 push	 ebx
  00027	56		 push	 esi
  00028	57		 push	 edi
  00029	89 4d fc	 mov	 DWORD PTR _this$[ebp], ecx

; 32   : 	this->m_Type =-1;

  0002c	83 c8 ff	 or	 eax, -1
  0002f	8b 4d fc	 mov	 ecx, DWORD PTR _this$[ebp]
  00032	66 89 41 06	 mov	 WORD PTR [ecx+6], ax

; 33   : 	this->m_Level =0;

  00036	33 c0		 xor	 eax, eax
  00038	8b 4d fc	 mov	 ecx, DWORD PTR _this$[ebp]
  0003b	66 89 41 08	 mov	 WORD PTR [ecx+8], ax

; 34   : 	this->m_Part=0;

  0003f	8b 45 fc	 mov	 eax, DWORD PTR _this$[ebp]
  00042	c6 40 0a 00	 mov	 BYTE PTR [eax+10], 0

; 35   : 	this->m_Class=0;

  00046	8b 45 fc	 mov	 eax, DWORD PTR _this$[ebp]
  00049	c6 40 0b 00	 mov	 BYTE PTR [eax+11], 0

; 36   : 	this->m_TwoHand=0;

  0004d	8b 45 fc	 mov	 eax, DWORD PTR _this$[ebp]
  00050	c6 40 0c 00	 mov	 BYTE PTR [eax+12], 0

; 37   : 	this->m_AttackSpeed=0;

  00054	8b 45 fc	 mov	 eax, DWORD PTR _this$[ebp]
  00057	c6 40 0d 00	 mov	 BYTE PTR [eax+13], 0

; 38   : 	this->m_DamageMin=0;

  0005b	33 c0		 xor	 eax, eax
  0005d	8b 4d fc	 mov	 ecx, DWORD PTR _this$[ebp]
  00060	66 89 41 10	 mov	 WORD PTR [ecx+16], ax

; 39   : 	this->m_DamageMax=0;

  00064	33 c0		 xor	 eax, eax
  00066	8b 4d fc	 mov	 ecx, DWORD PTR _this$[ebp]
  00069	66 89 41 12	 mov	 WORD PTR [ecx+18], ax

; 40   : 	this->m_SuccessfulBlocking=0;

  0006d	8b 45 fc	 mov	 eax, DWORD PTR _this$[ebp]
  00070	c6 40 14 00	 mov	 BYTE PTR [eax+20], 0

; 41   : 	this->m_Defense=0;

  00074	33 c0		 xor	 eax, eax
  00076	8b 4d fc	 mov	 ecx, DWORD PTR _this$[ebp]
  00079	66 89 41 16	 mov	 WORD PTR [ecx+22], ax

; 42   : 	this->m_MagicDefense =0;

  0007d	33 c0		 xor	 eax, eax
  0007f	8b 4d fc	 mov	 ecx, DWORD PTR _this$[ebp]
  00082	66 89 41 18	 mov	 WORD PTR [ecx+24], ax

; 43   : 	this->m_Durability=0;

  00086	8b 45 fc	 mov	 eax, DWORD PTR _this$[ebp]
  00089	d9 ee		 fldz
  0008b	d9 58 24	 fstp	 DWORD PTR [eax+36]

; 44   : 	this->m_SpecialNum=0;

  0008e	8b 45 fc	 mov	 eax, DWORD PTR _this$[ebp]
  00091	c6 40 30 00	 mov	 BYTE PTR [eax+48], 0

; 45   : 	this->m_Value=0;

  00095	8b 45 fc	 mov	 eax, DWORD PTR _this$[ebp]
  00098	c7 40 68 00 00
	00 00		 mov	 DWORD PTR [eax+104], 0

; 46   : 	this->m_Option1 =0;

  0009f	8b 45 fc	 mov	 eax, DWORD PTR _this$[ebp]
  000a2	c6 80 94 00 00
	00 00		 mov	 BYTE PTR [eax+148], 0

; 47   : 	this->m_Option2 =0;

  000a9	8b 45 fc	 mov	 eax, DWORD PTR _this$[ebp]
  000ac	c6 80 95 00 00
	00 00		 mov	 BYTE PTR [eax+149], 0

; 48   : 	this->m_Option3 =0;

  000b3	8b 45 fc	 mov	 eax, DWORD PTR _this$[ebp]
  000b6	c6 80 96 00 00
	00 00		 mov	 BYTE PTR [eax+150], 0

; 49   : 	this->m_NewOption =0;

  000bd	8b 45 fc	 mov	 eax, DWORD PTR _this$[ebp]
  000c0	c6 80 97 00 00
	00 00		 mov	 BYTE PTR [eax+151], 0

; 50   : 	this->m_Number =0;

  000c7	8b 45 fc	 mov	 eax, DWORD PTR _this$[ebp]
  000ca	c7 00 00 00 00
	00		 mov	 DWORD PTR [eax], 0

; 51   : 	this->m_DurabilitySmall =0;

  000d0	33 c0		 xor	 eax, eax
  000d2	8b 4d fc	 mov	 ecx, DWORD PTR _this$[ebp]
  000d5	66 89 41 28	 mov	 WORD PTR [ecx+40], ax

; 52   : 	this->m_iPShopValue=-1;

  000d9	8b 45 fc	 mov	 eax, DWORD PTR _this$[ebp]
  000dc	c7 40 74 ff ff
	ff ff		 mov	 DWORD PTR [eax+116], -1

; 53   : 
; 54   : #if(CUSTOM_PERSONAL_SHOP==TRUE)
; 55   : 	this->m_iPShopBonus=-1;

  000e3	8b 45 fc	 mov	 eax, DWORD PTR _this$[ebp]
  000e6	c7 40 78 ff ff
	ff ff		 mov	 DWORD PTR [eax+120], -1

; 56   : 	this->m_PShopBlessValue=-1;

  000ed	83 c8 ff	 or	 eax, -1
  000f0	8b 4d fc	 mov	 ecx, DWORD PTR _this$[ebp]
  000f3	66 89 41 7c	 mov	 WORD PTR [ecx+124], ax

; 57   : 	this->m_PShopSoulValue=-1;

  000f7	83 c8 ff	 or	 eax, -1
  000fa	8b 4d fc	 mov	 ecx, DWORD PTR _this$[ebp]
  000fd	66 89 41 7e	 mov	 WORD PTR [ecx+126], ax

; 58   : 	this->m_PShopChaosValue=-1;

  00101	83 c8 ff	 or	 eax, -1
  00104	8b 4d fc	 mov	 ecx, DWORD PTR _this$[ebp]
  00107	66 89 81 80 00
	00 00		 mov	 WORD PTR [ecx+128], ax

; 59   : 	this->m_PShopLifeValue=-1;

  0010e	83 c8 ff	 or	 eax, -1
  00111	8b 4d fc	 mov	 ecx, DWORD PTR _this$[ebp]
  00114	66 89 81 82 00
	00 00		 mov	 WORD PTR [ecx+130], ax

; 60   : 	//#if(DEV_PERSONAL_CREDIT)
; 61   : 	this->m_iPShopCredit=-1;

  0011b	8b 45 fc	 mov	 eax, DWORD PTR _this$[ebp]
  0011e	c7 80 84 00 00
	00 ff ff ff ff	 mov	 DWORD PTR [eax+132], -1

; 62   : 	//#endif
; 63   : #endif
; 64   : 
; 65   : 	this->m_bItemExist=true;

  00128	8b 45 fc	 mov	 eax, DWORD PTR _this$[ebp]
  0012b	c6 80 88 00 00
	00 01		 mov	 BYTE PTR [eax+136], 1

; 66   : 	this->m_CurrentDurabilityState=-1;

  00132	8b 45 fc	 mov	 eax, DWORD PTR _this$[ebp]
  00135	d9 05 00 00 00
	00		 fld	 DWORD PTR __real@bf800000
  0013b	d9 98 a8 00 00
	00		 fstp	 DWORD PTR [eax+168]

; 67   : 	this->m_SetOption=0;

  00141	8b 45 fc	 mov	 eax, DWORD PTR _this$[ebp]
  00144	c6 80 ae 00 00
	00 00		 mov	 BYTE PTR [eax+174], 0

; 68   : 	this->m_QuestItem=false;

  0014b	8b 45 fc	 mov	 eax, DWORD PTR _this$[ebp]
  0014e	c6 80 ad 00 00
	00 00		 mov	 BYTE PTR [eax+173], 0

; 69   : 
; 70   : 	memset(this->m_Special, 0, sizeof(this->m_Special));

  00155	6a 10		 push	 16			; 00000010H
  00157	6a 00		 push	 0
  00159	8b 45 fc	 mov	 eax, DWORD PTR _this$[ebp]
  0015c	83 c0 32	 add	 eax, 50			; 00000032H
  0015f	50		 push	 eax
  00160	e8 00 00 00 00	 call	 _memset
  00165	83 c4 0c	 add	 esp, 12			; 0000000cH

; 71   : 	memset(this->m_SpecialValue, 0, sizeof(this->m_SpecialValue));

  00168	6a 08		 push	 8
  0016a	6a 00		 push	 0
  0016c	8b 45 fc	 mov	 eax, DWORD PTR _this$[ebp]
  0016f	83 c0 42	 add	 eax, 66			; 00000042H
  00172	50		 push	 eax
  00173	e8 00 00 00 00	 call	 _memset
  00178	83 c4 0c	 add	 esp, 12			; 0000000cH

; 72   : 	memset(this->m_Resistance, 0, sizeof(this->m_Resistance));

  0017b	6a 07		 push	 7
  0017d	6a 00		 push	 0
  0017f	8b 45 fc	 mov	 eax, DWORD PTR _this$[ebp]
  00182	83 c0 5f	 add	 eax, 95			; 0000005fH
  00185	50		 push	 eax
  00186	e8 00 00 00 00	 call	 _memset
  0018b	83 c4 0c	 add	 esp, 12			; 0000000cH

; 73   : 
; 74   : 	this->m_IsLoadPetItemInfo=0;

  0018e	8b 45 fc	 mov	 eax, DWORD PTR _this$[ebp]
  00191	c7 80 b8 00 00
	00 00 00 00 00	 mov	 DWORD PTR [eax+184], 0

; 75   : 	this->m_PetItem_Level =1;

  0019b	8b 45 fc	 mov	 eax, DWORD PTR _this$[ebp]
  0019e	c7 80 bc 00 00
	00 01 00 00 00	 mov	 DWORD PTR [eax+188], 1

; 76   : 	this->m_PetItem_Exp =0;

  001a8	8b 45 fc	 mov	 eax, DWORD PTR _this$[ebp]
  001ab	c7 80 c0 00 00
	00 00 00 00 00	 mov	 DWORD PTR [eax+192], 0

; 77   : 	this->m_Leadership=0;

  001b5	33 c0		 xor	 eax, eax
  001b7	8b 4d fc	 mov	 ecx, DWORD PTR _this$[ebp]
  001ba	66 89 41 56	 mov	 WORD PTR [ecx+86], ax

; 78   : 	this->m_JewelOfHarmonyOption = 0;

  001be	8b 45 fc	 mov	 eax, DWORD PTR _this$[ebp]
  001c1	c6 80 c4 00 00
	00 00		 mov	 BYTE PTR [eax+196], 0

; 79   : 	this->m_ItemOptionEx = 0;

  001c8	8b 45 fc	 mov	 eax, DWORD PTR _this$[ebp]
  001cb	c6 80 ca 00 00
	00 00		 mov	 BYTE PTR [eax+202], 0

; 80   : #ifdef PERIOD
; 81   : 	m_PeriodItemOption = 0;

  001d2	8b 45 fc	 mov	 eax, DWORD PTR _this$[ebp]
  001d5	c6 80 d2 00 00
	00 00		 mov	 BYTE PTR [eax+210], 0

; 82   : #endif
; 83   : 	//Season 4 add-on
; 84   : 	this->m_SocketOptionIndex = 0xFF;

  001dc	8b 45 fc	 mov	 eax, DWORD PTR _this$[ebp]
  001df	c6 80 cb 00 00
	00 ff		 mov	 BYTE PTR [eax+203], 255	; 000000ffH

; 85   : 
; 86   : 	memset(this->m_SocketOption, 0xFF, sizeof(this->m_SocketOption));

  001e6	6a 05		 push	 5
  001e8	68 ff 00 00 00	 push	 255			; 000000ffH
  001ed	8b 45 fc	 mov	 eax, DWORD PTR _this$[ebp]
  001f0	05 cc 00 00 00	 add	 eax, 204		; 000000ccH
  001f5	50		 push	 eax
  001f6	e8 00 00 00 00	 call	 _memset
  001fb	83 c4 0c	 add	 esp, 12			; 0000000cH

; 87   : 
; 88   : 	this->m_SocketBonus = 0;

  001fe	8b 45 fc	 mov	 eax, DWORD PTR _this$[ebp]
  00201	c6 80 d1 00 00
	00 00		 mov	 BYTE PTR [eax+209], 0

; 89   : }

  00208	5f		 pop	 edi
  00209	5e		 pop	 esi
  0020a	5b		 pop	 ebx
  0020b	8b e5		 mov	 esp, ebp
  0020d	5d		 pop	 ebp
  0020e	c3		 ret	 0
?Clear@CItem@@QAEXXZ ENDP				; CItem::Clear
_TEXT	ENDS
PUBLIC	?IsItem@CItem@@QAEHXZ				; CItem::IsItem
; Function compile flags: /Odtp /ZI
_TEXT	SEGMENT
_this$ = -4						; size = 4
?IsItem@CItem@@QAEHXZ PROC				; CItem::IsItem
; _this$ = ecx

; 92   : {

  00210	55		 push	 ebp
  00211	8b ec		 mov	 ebp, esp
  00213	83 ec 44	 sub	 esp, 68			; 00000044H
  00216	53		 push	 ebx
  00217	56		 push	 esi
  00218	57		 push	 edi
  00219	89 4d fc	 mov	 DWORD PTR _this$[ebp], ecx

; 93   : 	if (this->m_Type < 0)

  0021c	8b 45 fc	 mov	 eax, DWORD PTR _this$[ebp]
  0021f	0f bf 48 06	 movsx	 ecx, WORD PTR [eax+6]
  00223	85 c9		 test	 ecx, ecx
  00225	7d 06		 jge	 SHORT $LN2@IsItem

; 94   : 	{
; 95   : 		return 0;

  00227	33 c0		 xor	 eax, eax
  00229	eb 07		 jmp	 SHORT $LN3@IsItem

; 96   : 	}
; 97   : 	else

  0022b	eb 05		 jmp	 SHORT $LN3@IsItem
$LN2@IsItem:

; 98   : 	{
; 99   : 		return 1;

  0022d	b8 01 00 00 00	 mov	 eax, 1
$LN3@IsItem:

; 100  : 	}
; 101  : }

  00232	5f		 pop	 edi
  00233	5e		 pop	 esi
  00234	5b		 pop	 ebx
  00235	8b e5		 mov	 esp, ebp
  00237	5d		 pop	 ebp
  00238	c3		 ret	 0
?IsItem@CItem@@QAEHXZ ENDP				; CItem::IsItem
_TEXT	ENDS
PUBLIC	?IsSetItem@CItem@@QAEHXZ			; CItem::IsSetItem
; Function compile flags: /Odtp /ZI
_TEXT	SEGMENT
_this$ = -4						; size = 4
?IsSetItem@CItem@@QAEHXZ PROC				; CItem::IsSetItem
; _this$ = ecx

; 104  : {

  00240	55		 push	 ebp
  00241	8b ec		 mov	 ebp, esp
  00243	83 ec 44	 sub	 esp, 68			; 00000044H
  00246	53		 push	 ebx
  00247	56		 push	 esi
  00248	57		 push	 edi
  00249	89 4d fc	 mov	 DWORD PTR _this$[ebp], ecx

; 105  : 	if (this->m_Type < 0)

  0024c	8b 45 fc	 mov	 eax, DWORD PTR _this$[ebp]
  0024f	0f bf 48 06	 movsx	 ecx, WORD PTR [eax+6]
  00253	85 c9		 test	 ecx, ecx
  00255	7d 06		 jge	 SHORT $LN2@IsSetItem

; 106  : 	{
; 107  : 		return 0;

  00257	33 c0		 xor	 eax, eax
  00259	eb 0f		 jmp	 SHORT $LN3@IsSetItem

; 108  : 	}
; 109  : 	else

  0025b	eb 0d		 jmp	 SHORT $LN3@IsSetItem
$LN2@IsSetItem:

; 110  : 	{
; 111  : 		return this->m_SetOption & 3;

  0025d	8b 45 fc	 mov	 eax, DWORD PTR _this$[ebp]
  00260	0f b6 80 ae 00
	00 00		 movzx	 eax, BYTE PTR [eax+174]
  00267	83 e0 03	 and	 eax, 3
$LN3@IsSetItem:

; 112  : 	}
; 113  : }	

  0026a	5f		 pop	 edi
  0026b	5e		 pop	 esi
  0026c	5b		 pop	 ebx
  0026d	8b e5		 mov	 esp, ebp
  0026f	5d		 pop	 ebp
  00270	c3		 ret	 0
?IsSetItem@CItem@@QAEHXZ ENDP				; CItem::IsSetItem
_TEXT	ENDS
PUBLIC	__real@3ff0000000000000
PUBLIC	?Value@CItem@@QAEXXZ				; CItem::Value
PUBLIC	__real@3e4ccccd
PUBLIC	__real@3e99999a
PUBLIC	__real@3f000000
PUBLIC	__real@3f800000
PUBLIC	__real@0000000000000000
PUBLIC	__real@4024000000000000
PUBLIC	__real@3fc99999a0000000
PUBLIC	__real@3fd3333340000000
PUBLIC	__real@3fe0000000000000
PUBLIC	?ItemGetDurability@@YAHHHHH@Z			; ItemGetDurability
PUBLIC	??_C@_0BO@NENAGJKH@error?9L1?5?3?5ItemIndex?5error?5?$CFd?$AA@ ; `string'
PUBLIC	?Convert@CItem@@QAEXHEEEEEEPAEEEE@Z		; CItem::Convert
EXTRN	?ApplySocketEffectforWeapons@CSocketOption@@QAEXPAVCItem@@@Z:PROC ; CSocketOption::ApplySocketEffectforWeapons
EXTRN	?GetItemEffectValue@CJewelOfHarmonySystem@@QAEHPAVCItem@@H@Z:PROC ; CJewelOfHarmonySystem::GetItemEffectValue
EXTRN	?_GetItemType@CJewelOfHarmonySystem@@QAEHPAVCItem@@@Z:PROC ; CJewelOfHarmonySystem::_GetItemType
EXTRN	?GetItemStrengthenOption@CJewelOfHarmonySystem@@QAEEPAVCItem@@@Z:PROC ; CJewelOfHarmonySystem::GetItemStrengthenOption
EXTRN	?IsActive@CJewelOfHarmonySystem@@QAEHPAVCItem@@@Z:PROC ; CJewelOfHarmonySystem::IsActive
EXTRN	?g_kJewelOfHarmonySystem@@3VCJewelOfHarmonySystem@@A:BYTE ; g_kJewelOfHarmonySystem
EXTRN	_memcpy:PROC
EXTRN	?ExExcellentSocket@@3HA:DWORD			; ExExcellentSocket
EXTRN	?ExAncientSocket@@3HA:DWORD			; ExAncientSocket
EXTRN	?IsSocketOption@CSocketOption@@QAEEPAVCItem@@@Z:PROC ; CSocketOption::IsSocketOption
EXTRN	?IsActive@CSocketOption@@QAEEPAVCItem@@@Z:PROC	; CSocketOption::IsActive
EXTRN	?g_SocketOption@@3VCSocketOption@@A:BYTE	; g_SocketOption
EXTRN	?ExExcellentAncient@@3HA:DWORD			; ExExcellentAncient
EXTRN	?IsSetItem@CSetItemOption@@QAEHH@Z:PROC		; CSetItemOption::IsSetItem
EXTRN	?gSetItemOption@@3VCSetItemOption@@A:BYTE	; gSetItemOption
EXTRN	?LogAddC@@3P6AXEPADZZA:DWORD			; LogAddC
EXTRN	__ftol2_sse:PROC
;	COMDAT __real@3ff0000000000000
CONST	SEGMENT
__real@3ff0000000000000 DQ 03ff0000000000000r	; 1
CONST	ENDS
;	COMDAT __real@3e4ccccd
CONST	SEGMENT
__real@3e4ccccd DD 03e4ccccdr			; 0.2
CONST	ENDS
;	COMDAT __real@3e99999a
CONST	SEGMENT
__real@3e99999a DD 03e99999ar			; 0.3
CONST	ENDS
;	COMDAT __real@3f000000
CONST	SEGMENT
__real@3f000000 DD 03f000000r			; 0.5
CONST	ENDS
;	COMDAT __real@3f800000
CONST	SEGMENT
__real@3f800000 DD 03f800000r			; 1
CONST	ENDS
;	COMDAT __real@0000000000000000
CONST	SEGMENT
__real@0000000000000000 DQ 00000000000000000r	; 0
CONST	ENDS
;	COMDAT __real@4024000000000000
CONST	SEGMENT
__real@4024000000000000 DQ 04024000000000000r	; 10
CONST	ENDS
;	COMDAT __real@3fc99999a0000000
CONST	SEGMENT
__real@3fc99999a0000000 DQ 03fc99999a0000000r	; 0.2
CONST	ENDS
;	COMDAT __real@3fd3333340000000
CONST	SEGMENT
__real@3fd3333340000000 DQ 03fd3333340000000r	; 0.3
CONST	ENDS
;	COMDAT __real@3fe0000000000000
CONST	SEGMENT
__real@3fe0000000000000 DQ 03fe0000000000000r	; 0.5
CONST	ENDS
;	COMDAT ??_C@_0BO@NENAGJKH@error?9L1?5?3?5ItemIndex?5error?5?$CFd?$AA@
CONST	SEGMENT
??_C@_0BO@NENAGJKH@error?9L1?5?3?5ItemIndex?5error?5?$CFd?$AA@ DB 'error-'
	DB	'L1 : ItemIndex error %d', 00H		; `string'
; Function compile flags: /Odtp /ZI
CONST	ENDS
_TEXT	SEGMENT
tv4479 = -116						; size = 4
tv4470 = -116						; size = 4
tv4461 = -116						; size = 4
tv4452 = -116						; size = 4
tv2923 = -116						; size = 4
tv2694 = -116						; size = 4
tv2637 = -116						; size = 4
tv2580 = -116						; size = 4
tv2523 = -116						; size = 4
tv1925 = -116						; size = 4
tv1896 = -116						; size = 4
tv1867 = -116						; size = 4
tv1838 = -116						; size = 4
tv1530 = -116						; size = 4
tv1519 = -116						; size = 4
tv1508 = -116						; size = 4
tv1497 = -116						; size = 4
tv1223 = -116						; size = 4
tv1199 = -116						; size = 4
tv1175 = -116						; size = 4
tv1151 = -116						; size = 4
tv584 = -116						; size = 4
tv577 = -116						; size = 4
tv570 = -116						; size = 4
tv563 = -116						; size = 4
tv155 = -116						; size = 4
tv150 = -116						; size = 4
tv145 = -116						; size = 4
tv140 = -116						; size = 4
_iItemType$230612 = -48					; size = 4
_btOption$230611 = -41					; size = 1
_i$230588 = -40						; size = 4
_iChaosItem$ = -36					; size = 4
_i$230558 = -32						; size = 4
_i$230549 = -28						; size = 4
_SOptionStatValue$ = -24				; size = 4
_SOption$ = -20						; size = 4
_p$ = -16						; size = 4
_ItemLevel$ = -12					; size = 4
__type$ = -8						; size = 4
_this$ = -4						; size = 4
_type$ = 8						; size = 4
_Option1$ = 12						; size = 1
_Option2$ = 16						; size = 1
_Option3$ = 20						; size = 1
_Attribute2$ = 24					; size = 1
_SetOption$ = 28					; size = 1
_ItemEffectEx$ = 32					; size = 1
_SocketOption$ = 36					; size = 4
_SocketIndex$ = 40					; size = 1
_PeriodItemOption$ = 44					; size = 1
_DbVersion$ = 48					; size = 1
?Convert@CItem@@QAEXHEEEEEEPAEEEE@Z PROC		; CItem::Convert
; _this$ = ecx

; 118  : {

  00280	55		 push	 ebp
  00281	8b ec		 mov	 ebp, esp
  00283	83 ec 74	 sub	 esp, 116		; 00000074H
  00286	53		 push	 ebx
  00287	56		 push	 esi
  00288	57		 push	 edi
  00289	89 4d fc	 mov	 DWORD PTR _this$[ebp], ecx

; 119  : 	int _type; //2
; 120  : 	int ItemLevel; //3
; 121  : 	LPITEM_ATTRIBUTE p; //4
; 122  : 	int SOption; //5
; 123  : 	int SOptionStatValue; //6
; 124  : 	
; 125  : 	_type = type;

  0028c	8b 45 08	 mov	 eax, DWORD PTR _type$[ebp]
  0028f	89 45 f8	 mov	 DWORD PTR __type$[ebp], eax

; 126  : 
; 127  : 	if ( (DbVersion ) == 0)

  00292	0f b6 45 30	 movzx	 eax, BYTE PTR _DbVersion$[ebp]
  00296	85 c0		 test	 eax, eax
  00298	75 26		 jne	 SHORT $LN392@Convert

; 128  : 	{
; 129  : 		_type=(type/MAX_TYPE_ITEMS*MAX_SUBTYPE_ITEMS)+(type % MAX_TYPE_ITEMS);

  0029a	8b 45 08	 mov	 eax, DWORD PTR _type$[ebp]
  0029d	99		 cdq
  0029e	83 e2 0f	 and	 edx, 15			; 0000000fH
  002a1	03 c2		 add	 eax, edx
  002a3	c1 f8 04	 sar	 eax, 4
  002a6	c1 e0 09	 shl	 eax, 9
  002a9	8b 4d 08	 mov	 ecx, DWORD PTR _type$[ebp]
  002ac	81 e1 0f 00 00
	80		 and	 ecx, -2147483633	; 8000000fH
  002b2	79 05		 jns	 SHORT $LN443@Convert
  002b4	49		 dec	 ecx
  002b5	83 c9 f0	 or	 ecx, -16		; fffffff0H
  002b8	41		 inc	 ecx
$LN443@Convert:
  002b9	03 c1		 add	 eax, ecx
  002bb	89 45 f8	 mov	 DWORD PTR __type$[ebp], eax
  002be	eb 2d		 jmp	 SHORT $LN390@Convert
$LN392@Convert:

; 130  : 
; 131  : 	}
; 132  : 	else if ( DbVersion <= 2 )

  002c0	0f b6 45 30	 movzx	 eax, BYTE PTR _DbVersion$[ebp]
  002c4	83 f8 02	 cmp	 eax, 2
  002c7	7f 24		 jg	 SHORT $LN390@Convert

; 133  : 	{
; 134  : 		_type = (type/32*MAX_SUBTYPE_ITEMS) + (type % 32 );

  002c9	8b 45 08	 mov	 eax, DWORD PTR _type$[ebp]
  002cc	99		 cdq
  002cd	83 e2 1f	 and	 edx, 31			; 0000001fH
  002d0	03 c2		 add	 eax, edx
  002d2	c1 f8 05	 sar	 eax, 5
  002d5	c1 e0 09	 shl	 eax, 9
  002d8	8b 4d 08	 mov	 ecx, DWORD PTR _type$[ebp]
  002db	81 e1 1f 00 00
	80		 and	 ecx, -2147483617	; 8000001fH
  002e1	79 05		 jns	 SHORT $LN444@Convert
  002e3	49		 dec	 ecx
  002e4	83 c9 e0	 or	 ecx, -32		; ffffffe0H
  002e7	41		 inc	 ecx
$LN444@Convert:
  002e8	03 c1		 add	 eax, ecx
  002ea	89 45 f8	 mov	 DWORD PTR __type$[ebp], eax
$LN390@Convert:

; 135  : 	}
; 136  : 	
; 137  : 	if ( _type >MAX_ITEMS-1)

  002ed	81 7d f8 ff 1f
	00 00		 cmp	 DWORD PTR __type$[ebp], 8191 ; 00001fffH
  002f4	7e 14		 jle	 SHORT $LN389@Convert

; 138  : 	{
; 139  : 		LogAddC(2, "error-L1 : ItemIndex error %d", _type);

  002f6	8b 45 f8	 mov	 eax, DWORD PTR __type$[ebp]
  002f9	50		 push	 eax
  002fa	68 00 00 00 00	 push	 OFFSET ??_C@_0BO@NENAGJKH@error?9L1?5?3?5ItemIndex?5error?5?$CFd?$AA@
  002ff	6a 02		 push	 2
  00301	ff 15 00 00 00
	00		 call	 DWORD PTR ?LogAddC@@3P6AXEPADZZA ; LogAddC
  00307	83 c4 0c	 add	 esp, 12			; 0000000cH
$LN389@Convert:

; 140  : 	}
; 141  : 	
; 142  : 	p=&ItemAttribute[_type];

  0030a	8b 45 f8	 mov	 eax, DWORD PTR __type$[ebp]
  0030d	6b c0 70	 imul	 eax, 112		; 00000070H
  00310	05 00 00 00 00	 add	 eax, OFFSET ?ItemAttribute@@3PAUITEM_ATTRIBUTE@@A ; ItemAttribute
  00315	89 45 f0	 mov	 DWORD PTR _p$[ebp], eax

; 143  : 	this->m_serial=ItemAttribute[_type].Serial ;

  00318	8b 45 f8	 mov	 eax, DWORD PTR __type$[ebp]
  0031b	6b c0 70	 imul	 eax, 112		; 00000070H
  0031e	8b 4d fc	 mov	 ecx, DWORD PTR _this$[ebp]
  00321	8a 90 25 00 00
	00		 mov	 dl, BYTE PTR ?ItemAttribute@@3PAUITEM_ATTRIBUTE@@A[eax+37]
  00327	88 51 04	 mov	 BYTE PTR [ecx+4], dl

; 144  : 	this->m_Type=type;

  0032a	8b 45 fc	 mov	 eax, DWORD PTR _this$[ebp]
  0032d	66 8b 4d 08	 mov	 cx, WORD PTR _type$[ebp]
  00331	66 89 48 06	 mov	 WORD PTR [eax+6], cx

; 145  : 	
; 146  : 	if ( (DbVersion ) <= 2)

  00335	0f b6 45 30	 movzx	 eax, BYTE PTR _DbVersion$[ebp]
  00339	83 f8 02	 cmp	 eax, 2
  0033c	7f 0b		 jg	 SHORT $LN388@Convert

; 147  : 	{
; 148  : 		this->m_Type=_type;

  0033e	8b 45 fc	 mov	 eax, DWORD PTR _this$[ebp]
  00341	66 8b 4d f8	 mov	 cx, WORD PTR __type$[ebp]
  00345	66 89 48 06	 mov	 WORD PTR [eax+6], cx
$LN388@Convert:

; 149  : 	}
; 150  : 
; 151  : 	this->m_NewOption =Attribute2;

  00349	8b 45 fc	 mov	 eax, DWORD PTR _this$[ebp]
  0034c	8a 4d 18	 mov	 cl, BYTE PTR _Attribute2$[ebp]
  0034f	88 88 97 00 00
	00		 mov	 BYTE PTR [eax+151], cl

; 152  : 	
; 153  : 	if (p->OptionFlag  == 0)

  00355	8b 45 f0	 mov	 eax, DWORD PTR _p$[ebp]
  00358	0f b6 48 26	 movzx	 ecx, BYTE PTR [eax+38]
  0035c	85 c9		 test	 ecx, ecx
  0035e	75 0a		 jne	 SHORT $LN387@Convert

; 154  : 	{
; 155  : 		this->m_NewOption=0;

  00360	8b 45 fc	 mov	 eax, DWORD PTR _this$[ebp]
  00363	c6 80 97 00 00
	00 00		 mov	 BYTE PTR [eax+151], 0
$LN387@Convert:

; 156  : 	}
; 157  : 	if ( (_type >= MuItem::miWINGS_SPIRIT && _type <= MuItem::miWINGS_DARKNESS)
; 158  : 			|| _type == MuItem::miCAPE_LORD || _type == MuItem::miWINGS_CURSE
; 159  : 			|| _type == MuItem::miWINGS_DESPAIR || _type == MuItem::miWINGS_DIMENSION
; 160  : 			|| _type == MuItem::miCAPE_FIGTHER || _type == MuItem::miCAPE_OVERRULE
; 161  : 			|| (_type >= MuItem::miWINGS_STORM && _type <= MuItem::miCAPE_EMPEROR)
; 162  : #ifdef NEWWINGS_2_5
; 163  : 			|| IS_NEWWINGS_2_5(_type) 
; 164  : #endif
; 165  : #ifdef NEWWINGS_4
; 166  : 			|| IS_NEWWINGS_4(_type) 
; 167  : #endif
; 168  : #ifdef NEWWINGS_5
; 169  : 			|| IS_NEWWINGS_5(_type) 
; 170  : #endif
; 171  : #ifdef NEWWINGS_6
; 172  : 			|| IS_NEWWINGS_6(_type) 
; 173  : #endif
; 174  : 			)

  0036a	81 7d f8 03 18
	00 00		 cmp	 DWORD PTR __type$[ebp], 6147 ; 00001803H
  00371	7c 0d		 jl	 SHORT $LN384@Convert
  00373	81 7d f8 06 18
	00 00		 cmp	 DWORD PTR __type$[ebp], 6150 ; 00001806H
  0037a	0f 8e 00 01 00
	00		 jle	 $LN385@Convert
$LN384@Convert:
  00380	81 7d f8 1e 1a
	00 00		 cmp	 DWORD PTR __type$[ebp], 6686 ; 00001a1eH
  00387	0f 84 f3 00 00
	00		 je	 $LN385@Convert
  0038d	81 7d f8 29 18
	00 00		 cmp	 DWORD PTR __type$[ebp], 6185 ; 00001829H
  00394	0f 84 e6 00 00
	00		 je	 $LN385@Convert
  0039a	81 7d f8 2a 18
	00 00		 cmp	 DWORD PTR __type$[ebp], 6186 ; 0000182aH
  003a1	0f 84 d9 00 00
	00		 je	 $LN385@Convert
  003a7	81 7d f8 2b 18
	00 00		 cmp	 DWORD PTR __type$[ebp], 6187 ; 0000182bH
  003ae	0f 84 cc 00 00
	00		 je	 $LN385@Convert
  003b4	81 7d f8 31 18
	00 00		 cmp	 DWORD PTR __type$[ebp], 6193 ; 00001831H
  003bb	0f 84 bf 00 00
	00		 je	 $LN385@Convert
  003c1	81 7d f8 32 18
	00 00		 cmp	 DWORD PTR __type$[ebp], 6194 ; 00001832H
  003c8	0f 84 b2 00 00
	00		 je	 $LN385@Convert
  003ce	81 7d f8 24 18
	00 00		 cmp	 DWORD PTR __type$[ebp], 6180 ; 00001824H
  003d5	7c 0d		 jl	 SHORT $LN383@Convert
  003d7	81 7d f8 28 18
	00 00		 cmp	 DWORD PTR __type$[ebp], 6184 ; 00001828H
  003de	0f 8e 9c 00 00
	00		 jle	 $LN385@Convert
$LN383@Convert:
  003e4	81 7d f8 ba 18
	00 00		 cmp	 DWORD PTR __type$[ebp], 6330 ; 000018baH
  003eb	7d 09		 jge	 SHORT $LN395@Convert
  003ed	c7 45 8c 00 00
	00 00		 mov	 DWORD PTR tv140[ebp], 0
  003f4	eb 0f		 jmp	 SHORT $LN396@Convert
$LN395@Convert:
  003f6	33 c0		 xor	 eax, eax
  003f8	81 7d f8 bc 18
	00 00		 cmp	 DWORD PTR __type$[ebp], 6332 ; 000018bcH
  003ff	0f 9e c0	 setle	 al
  00402	89 45 8c	 mov	 DWORD PTR tv140[ebp], eax
$LN396@Convert:
  00405	83 7d 8c 00	 cmp	 DWORD PTR tv140[ebp], 0
  00409	75 75		 jne	 SHORT $LN385@Convert
  0040b	81 7d f8 b4 18
	00 00		 cmp	 DWORD PTR __type$[ebp], 6324 ; 000018b4H
  00412	7d 09		 jge	 SHORT $LN397@Convert
  00414	c7 45 8c 00 00
	00 00		 mov	 DWORD PTR tv145[ebp], 0
  0041b	eb 0f		 jmp	 SHORT $LN398@Convert
$LN397@Convert:
  0041d	33 c0		 xor	 eax, eax
  0041f	81 7d f8 b9 18
	00 00		 cmp	 DWORD PTR __type$[ebp], 6329 ; 000018b9H
  00426	0f 9e c0	 setle	 al
  00429	89 45 8c	 mov	 DWORD PTR tv145[ebp], eax
$LN398@Convert:
  0042c	83 7d 8c 00	 cmp	 DWORD PTR tv145[ebp], 0
  00430	75 4e		 jne	 SHORT $LN385@Convert
  00432	81 7d f8 bd 18
	00 00		 cmp	 DWORD PTR __type$[ebp], 6333 ; 000018bdH
  00439	7d 09		 jge	 SHORT $LN399@Convert
  0043b	c7 45 8c 00 00
	00 00		 mov	 DWORD PTR tv150[ebp], 0
  00442	eb 0f		 jmp	 SHORT $LN400@Convert
$LN399@Convert:
  00444	33 c0		 xor	 eax, eax
  00446	81 7d f8 c2 18
	00 00		 cmp	 DWORD PTR __type$[ebp], 6338 ; 000018c2H
  0044d	0f 9e c0	 setle	 al
  00450	89 45 8c	 mov	 DWORD PTR tv150[ebp], eax
$LN400@Convert:
  00453	83 7d 8c 00	 cmp	 DWORD PTR tv150[ebp], 0
  00457	75 27		 jne	 SHORT $LN385@Convert
  00459	81 7d f8 c3 18
	00 00		 cmp	 DWORD PTR __type$[ebp], 6339 ; 000018c3H
  00460	7d 09		 jge	 SHORT $LN401@Convert
  00462	c7 45 8c 00 00
	00 00		 mov	 DWORD PTR tv155[ebp], 0
  00469	eb 0f		 jmp	 SHORT $LN402@Convert
$LN401@Convert:
  0046b	33 c0		 xor	 eax, eax
  0046d	81 7d f8 dc 18
	00 00		 cmp	 DWORD PTR __type$[ebp], 6364 ; 000018dcH
  00474	0f 9e c0	 setle	 al
  00477	89 45 8c	 mov	 DWORD PTR tv155[ebp], eax
$LN402@Convert:
  0047a	83 7d 8c 00	 cmp	 DWORD PTR tv155[ebp], 0
  0047e	74 04		 je	 SHORT $LN386@Convert
$LN385@Convert:

; 175  : 	{
; 176  : 		Attribute2=0;

  00480	c6 45 18 00	 mov	 BYTE PTR _Attribute2$[ebp], 0
$LN386@Convert:

; 177  : 	}
; 178  : 
; 179  : 	if ( _type == ITEMGET(13,37) )

  00484	81 7d f8 25 1a
	00 00		 cmp	 DWORD PTR __type$[ebp], 6693 ; 00001a25H
  0048b	75 04		 jne	 SHORT $LN382@Convert

; 180  : 	{
; 181  : 		Attribute2 = 0;

  0048d	c6 45 18 00	 mov	 BYTE PTR _Attribute2$[ebp], 0
$LN382@Convert:

; 182  : 	}
; 183  : 
; 184  : 	SetOption = SetOption & 15;

  00491	0f b6 45 1c	 movzx	 eax, BYTE PTR _SetOption$[ebp]
  00495	83 e0 0f	 and	 eax, 15			; 0000000fH
  00498	88 45 1c	 mov	 BYTE PTR _SetOption$[ebp], al

; 185  : 		
; 186  : 	SOption=SetOption & 3;

  0049b	0f b6 45 1c	 movzx	 eax, BYTE PTR _SetOption$[ebp]
  0049f	83 e0 03	 and	 eax, 3
  004a2	89 45 ec	 mov	 DWORD PTR _SOption$[ebp], eax

; 187  : 	SOptionStatValue=0;

  004a5	c7 45 e8 00 00
	00 00		 mov	 DWORD PTR _SOptionStatValue$[ebp], 0

; 188  : 
; 189  : 	if (SOption != 1 && SOption != 2)

  004ac	83 7d ec 01	 cmp	 DWORD PTR _SOption$[ebp], 1
  004b0	74 0d		 je	 SHORT $LN381@Convert
  004b2	83 7d ec 02	 cmp	 DWORD PTR _SOption$[ebp], 2
  004b6	74 07		 je	 SHORT $LN381@Convert

; 190  : 	{
; 191  : 		SOption=0;

  004b8	c7 45 ec 00 00
	00 00		 mov	 DWORD PTR _SOption$[ebp], 0
$LN381@Convert:

; 192  : 	}
; 193  : 
; 194  : 	if ( (( (SetOption>>2) & 3) != 1) && ( ((SetOption>>2) & 3) != 2) )

  004bf	0f b6 45 1c	 movzx	 eax, BYTE PTR _SetOption$[ebp]
  004c3	c1 f8 02	 sar	 eax, 2
  004c6	83 e0 03	 and	 eax, 3
  004c9	83 f8 01	 cmp	 eax, 1
  004cc	74 16		 je	 SHORT $LN380@Convert
  004ce	0f b6 45 1c	 movzx	 eax, BYTE PTR _SetOption$[ebp]
  004d2	c1 f8 02	 sar	 eax, 2
  004d5	83 e0 03	 and	 eax, 3
  004d8	83 f8 02	 cmp	 eax, 2
  004db	74 07		 je	 SHORT $LN380@Convert

; 195  : 	{
; 196  : 		SOption=0;

  004dd	c7 45 ec 00 00
	00 00		 mov	 DWORD PTR _SOption$[ebp], 0
$LN380@Convert:

; 197  : 	}
; 198  : 
; 199  : 	if ( gSetItemOption.IsSetItem(_type) != 0 && SetOption != 255 && SOption != 0)

  004e4	8b 45 f8	 mov	 eax, DWORD PTR __type$[ebp]
  004e7	50		 push	 eax
  004e8	b9 00 00 00 00	 mov	 ecx, OFFSET ?gSetItemOption@@3VCSetItemOption@@A ; gSetItemOption
  004ed	e8 00 00 00 00	 call	 ?IsSetItem@CSetItemOption@@QAEHH@Z ; CSetItemOption::IsSetItem
  004f2	85 c0		 test	 eax, eax
  004f4	74 51		 je	 SHORT $LN379@Convert
  004f6	0f b6 45 1c	 movzx	 eax, BYTE PTR _SetOption$[ebp]
  004fa	3d ff 00 00 00	 cmp	 eax, 255		; 000000ffH
  004ff	74 46		 je	 SHORT $LN379@Convert
  00501	83 7d ec 00	 cmp	 DWORD PTR _SOption$[ebp], 0
  00505	74 40		 je	 SHORT $LN379@Convert

; 200  : 	{
; 201  : 		this->m_SetOption = SetOption;

  00507	8b 45 fc	 mov	 eax, DWORD PTR _this$[ebp]
  0050a	8a 4d 1c	 mov	 cl, BYTE PTR _SetOption$[ebp]
  0050d	88 88 ae 00 00
	00		 mov	 BYTE PTR [eax+174], cl

; 202  : 		if ( this->m_SetOption != 0 )

  00513	8b 45 fc	 mov	 eax, DWORD PTR _this$[ebp]
  00516	0f b6 88 ae 00
	00 00		 movzx	 ecx, BYTE PTR [eax+174]
  0051d	85 c9		 test	 ecx, ecx
  0051f	74 24		 je	 SHORT $LN378@Convert

; 203  : 		{
; 204  : 			//int ExExcellentAncient = GetPrivateProfileInt("Items","ExcellentAncient",1,"..\\Data\\ExData\\CommonServer.ini");
; 205  : 			if(!ExExcellentAncient)

  00521	83 3d 00 00 00
	00 00		 cmp	 DWORD PTR ?ExExcellentAncient@@3HA, 0 ; ExExcellentAncient
  00528	75 0a		 jne	 SHORT $LN377@Convert

; 206  : 				this->m_NewOption = 0;

  0052a	8b 45 fc	 mov	 eax, DWORD PTR _this$[ebp]
  0052d	c6 80 97 00 00
	00 00		 mov	 BYTE PTR [eax+151], 0
$LN377@Convert:

; 207  : 			Attribute2 = 0;

  00534	c6 45 18 00	 mov	 BYTE PTR _Attribute2$[ebp], 0

; 208  : 			SOptionStatValue = (SetOption>>2)&3;

  00538	0f b6 45 1c	 movzx	 eax, BYTE PTR _SetOption$[ebp]
  0053c	c1 f8 02	 sar	 eax, 2
  0053f	83 e0 03	 and	 eax, 3
  00542	89 45 e8	 mov	 DWORD PTR _SOptionStatValue$[ebp], eax
$LN378@Convert:

; 209  : 		}
; 210  : 	}
; 211  : 	else

  00545	eb 0a		 jmp	 SHORT $LN376@Convert
$LN379@Convert:

; 212  : 	{
; 213  : 		this->m_SetOption = 0;

  00547	8b 45 fc	 mov	 eax, DWORD PTR _this$[ebp]
  0054a	c6 80 ae 00 00
	00 00		 mov	 BYTE PTR [eax+174], 0
$LN376@Convert:

; 214  : 	}
; 215  : 	
; 216  : 	this->m_ItemOptionEx = ItemEffectEx;

  00551	8b 45 fc	 mov	 eax, DWORD PTR _this$[ebp]
  00554	8a 4d 20	 mov	 cl, BYTE PTR _ItemEffectEx$[ebp]
  00557	88 88 ca 00 00
	00		 mov	 BYTE PTR [eax+202], cl

; 217  : 
; 218  : 	//Socket Season 4 OPTION #START!
; 219  : 	if(g_SocketOption.IsActive(this) == 1)

  0055d	8b 45 fc	 mov	 eax, DWORD PTR _this$[ebp]
  00560	50		 push	 eax
  00561	b9 00 00 00 00	 mov	 ecx, OFFSET ?g_SocketOption@@3VCSocketOption@@A ; g_SocketOption
  00566	e8 00 00 00 00	 call	 ?IsActive@CSocketOption@@QAEEPAVCItem@@@Z ; CSocketOption::IsActive
  0056b	0f b6 c8	 movzx	 ecx, al
  0056e	83 f9 01	 cmp	 ecx, 1
  00571	0f 85 98 00 00
	00		 jne	 $LN375@Convert

; 220  : 	{
; 221  : 		if(SocketOption != 0)

  00577	83 7d 24 00	 cmp	 DWORD PTR _SocketOption$[ebp], 0
  0057b	74 3a		 je	 SHORT $LN371@Convert

; 222  : 		{
; 223  : 			this->m_SocketOptionIndex = SocketIndex;

  0057d	8b 45 fc	 mov	 eax, DWORD PTR _this$[ebp]
  00580	8a 4d 28	 mov	 cl, BYTE PTR _SocketIndex$[ebp]
  00583	88 88 cb 00 00
	00		 mov	 BYTE PTR [eax+203], cl

; 224  : 
; 225  : 			for(int i = 0; i < 5; i++) //7

  00589	c7 45 e4 00 00
	00 00		 mov	 DWORD PTR _i$230549[ebp], 0
  00590	eb 09		 jmp	 SHORT $LN373@Convert
$LN372@Convert:
  00592	8b 45 e4	 mov	 eax, DWORD PTR _i$230549[ebp]
  00595	83 c0 01	 add	 eax, 1
  00598	89 45 e4	 mov	 DWORD PTR _i$230549[ebp], eax
$LN373@Convert:
  0059b	83 7d e4 05	 cmp	 DWORD PTR _i$230549[ebp], 5
  0059f	7d 16		 jge	 SHORT $LN371@Convert

; 226  : 			{
; 227  : 				this->m_SocketOption[i] = SocketOption[i];

  005a1	8b 45 fc	 mov	 eax, DWORD PTR _this$[ebp]
  005a4	03 45 e4	 add	 eax, DWORD PTR _i$230549[ebp]
  005a7	8b 4d 24	 mov	 ecx, DWORD PTR _SocketOption$[ebp]
  005aa	03 4d e4	 add	 ecx, DWORD PTR _i$230549[ebp]
  005ad	8a 11		 mov	 dl, BYTE PTR [ecx]
  005af	88 90 cc 00 00
	00		 mov	 BYTE PTR [eax+204], dl

; 228  : 			}

  005b5	eb db		 jmp	 SHORT $LN372@Convert
$LN371@Convert:

; 229  : 		}
; 230  : 
; 231  : 		if(g_SocketOption.IsSocketOption(this) == 1)

  005b7	8b 45 fc	 mov	 eax, DWORD PTR _this$[ebp]
  005ba	50		 push	 eax
  005bb	b9 00 00 00 00	 mov	 ecx, OFFSET ?g_SocketOption@@3VCSocketOption@@A ; g_SocketOption
  005c0	e8 00 00 00 00	 call	 ?IsSocketOption@CSocketOption@@QAEEPAVCItem@@@Z ; CSocketOption::IsSocketOption
  005c5	0f b6 c8	 movzx	 ecx, al
  005c8	83 f9 01	 cmp	 ecx, 1
  005cb	75 36		 jne	 SHORT $LN370@Convert

; 232  : 		{	//Zero SET
; 233  : 			//this->m_ItemOptionEx = 0;
; 234  : 			//int ExAncientSocket = GetPrivateProfileInt("Items","AncientSocket",1,"..\\Data\\ExData\\CommonServer.ini");
; 235  : 			if(!ExAncientSocket)

  005cd	83 3d 00 00 00
	00 00		 cmp	 DWORD PTR ?ExAncientSocket@@3HA, 0 ; ExAncientSocket
  005d4	75 0a		 jne	 SHORT $LN369@Convert

; 236  : 				this->m_SetOption = 0;

  005d6	8b 45 fc	 mov	 eax, DWORD PTR _this$[ebp]
  005d9	c6 80 ae 00 00
	00 00		 mov	 BYTE PTR [eax+174], 0
$LN369@Convert:

; 237  : 			
; 238  : 			//int ExExcellentSocket = GetPrivateProfileInt("Items","ExcellentSocket",1,"..\\Data\\ExData\\CommonServer.ini");
; 239  : 			if(!ExExcellentSocket)

  005e0	83 3d 00 00 00
	00 00		 cmp	 DWORD PTR ?ExExcellentSocket@@3HA, 0 ; ExExcellentSocket
  005e7	75 0e		 jne	 SHORT $LN368@Convert

; 240  : 			{
; 241  : 				Attribute2 = 0;

  005e9	c6 45 18 00	 mov	 BYTE PTR _Attribute2$[ebp], 0

; 242  : 				this->m_NewOption = 0;

  005ed	8b 45 fc	 mov	 eax, DWORD PTR _this$[ebp]
  005f0	c6 80 97 00 00
	00 00		 mov	 BYTE PTR [eax+151], 0
$LN368@Convert:

; 243  : 			}
; 244  : 				
; 245  : 			this->m_JewelOfHarmonyOption = 0;

  005f7	8b 45 fc	 mov	 eax, DWORD PTR _this$[ebp]
  005fa	c6 80 c4 00 00
	00 00		 mov	 BYTE PTR [eax+196], 0

; 246  : 		}
; 247  : 		else

  00601	eb 0a		 jmp	 SHORT $LN367@Convert
$LN370@Convert:

; 248  : 		{
; 249  : 			//Zero SET
; 250  : 			this->m_SocketOptionIndex = 0;

  00603	8b 45 fc	 mov	 eax, DWORD PTR _this$[ebp]
  00606	c6 80 cb 00 00
	00 00		 mov	 BYTE PTR [eax+203], 0
$LN367@Convert:

; 251  : 		}
; 252  : 	}
; 253  : 	else

  0060d	eb 31		 jmp	 SHORT $LN363@Convert
$LN375@Convert:

; 254  : 	{
; 255  : 		//Zero SET
; 256  : 		this->m_SocketOptionIndex = 0;

  0060f	8b 45 fc	 mov	 eax, DWORD PTR _this$[ebp]
  00612	c6 80 cb 00 00
	00 00		 mov	 BYTE PTR [eax+203], 0

; 257  : 
; 258  : 		for(int i = 0; i < 5; i++) //8

  00619	c7 45 e0 00 00
	00 00		 mov	 DWORD PTR _i$230558[ebp], 0
  00620	eb 09		 jmp	 SHORT $LN365@Convert
$LN364@Convert:
  00622	8b 45 e0	 mov	 eax, DWORD PTR _i$230558[ebp]
  00625	83 c0 01	 add	 eax, 1
  00628	89 45 e0	 mov	 DWORD PTR _i$230558[ebp], eax
$LN365@Convert:
  0062b	83 7d e0 05	 cmp	 DWORD PTR _i$230558[ebp], 5
  0062f	7d 0f		 jge	 SHORT $LN363@Convert

; 259  : 		{
; 260  : 			this->m_SocketOption[i] = 0xFF;

  00631	8b 45 fc	 mov	 eax, DWORD PTR _this$[ebp]
  00634	03 45 e0	 add	 eax, DWORD PTR _i$230558[ebp]
  00637	c6 80 cc 00 00
	00 ff		 mov	 BYTE PTR [eax+204], 255	; 000000ffH

; 261  : 		}

  0063e	eb e2		 jmp	 SHORT $LN364@Convert
$LN363@Convert:

; 262  : 	}
; 263  : #ifdef PERIOD
; 264  : 	this->m_PeriodItemOption = PeriodItemOption;

  00640	8b 45 fc	 mov	 eax, DWORD PTR _this$[ebp]
  00643	8a 4d 2c	 mov	 cl, BYTE PTR _PeriodItemOption$[ebp]
  00646	88 88 d2 00 00
	00		 mov	 BYTE PTR [eax+210], cl

; 265  : #endif
; 266  : 	memset( this->m_SkillResistance , 0, sizeof(this->m_SkillResistance) );

  0064c	6a 07		 push	 7
  0064e	6a 00		 push	 0
  00650	8b 45 fc	 mov	 eax, DWORD PTR _this$[ebp]
  00653	05 b1 00 00 00	 add	 eax, 177		; 000000b1H
  00658	50		 push	 eax
  00659	e8 00 00 00 00	 call	 _memset
  0065e	83 c4 0c	 add	 esp, 12			; 0000000cH

; 267  : 	
; 268  : 	if ( _type == ITEMGET(0,19) || _type == ITEMGET(4,18) || _type == ITEMGET(5,10) || _type == ITEMGET(2,13))

  00661	83 7d f8 13	 cmp	 DWORD PTR __type$[ebp], 19 ; 00000013H
  00665	74 1b		 je	 SHORT $LN361@Convert
  00667	81 7d f8 12 08
	00 00		 cmp	 DWORD PTR __type$[ebp], 2066 ; 00000812H
  0066e	74 12		 je	 SHORT $LN361@Convert
  00670	81 7d f8 0a 0a
	00 00		 cmp	 DWORD PTR __type$[ebp], 2570 ; 00000a0aH
  00677	74 09		 je	 SHORT $LN361@Convert
  00679	81 7d f8 0d 04
	00 00		 cmp	 DWORD PTR __type$[ebp], 1037 ; 0000040dH
  00680	75 04		 jne	 SHORT $LN362@Convert
$LN361@Convert:

; 269  : 	{
; 270  : 		Attribute2=0;

  00682	c6 45 18 00	 mov	 BYTE PTR _Attribute2$[ebp], 0
$LN362@Convert:

; 271  : 	}
; 272  : 
; 273  : 	int iChaosItem = 0;

  00686	c7 45 dc 00 00
	00 00		 mov	 DWORD PTR _iChaosItem$[ebp], 0

; 274  : 
; 275  : 	if ( this->m_Type == ITEMGET(2,6) )

  0068d	8b 45 fc	 mov	 eax, DWORD PTR _this$[ebp]
  00690	0f bf 48 06	 movsx	 ecx, WORD PTR [eax+6]
  00694	81 f9 06 04 00
	00		 cmp	 ecx, 1030		; 00000406H
  0069a	75 09		 jne	 SHORT $LN360@Convert

; 276  : 	{
; 277  : 		iChaosItem = 15;

  0069c	c7 45 dc 0f 00
	00 00		 mov	 DWORD PTR _iChaosItem$[ebp], 15 ; 0000000fH
  006a3	eb 2e		 jmp	 SHORT $LN356@Convert
$LN360@Convert:

; 278  : 	}
; 279  : 	else if ( this->m_Type == ITEMGET(5,7) )

  006a5	8b 45 fc	 mov	 eax, DWORD PTR _this$[ebp]
  006a8	0f bf 48 06	 movsx	 ecx, WORD PTR [eax+6]
  006ac	81 f9 07 0a 00
	00		 cmp	 ecx, 2567		; 00000a07H
  006b2	75 09		 jne	 SHORT $LN358@Convert

; 280  : 	{
; 281  : 		iChaosItem = 25;

  006b4	c7 45 dc 19 00
	00 00		 mov	 DWORD PTR _iChaosItem$[ebp], 25 ; 00000019H
  006bb	eb 16		 jmp	 SHORT $LN356@Convert
$LN358@Convert:

; 282  : 	}
; 283  : 	else if ( this->m_Type == ITEMGET(4,6) )

  006bd	8b 45 fc	 mov	 eax, DWORD PTR _this$[ebp]
  006c0	0f bf 48 06	 movsx	 ecx, WORD PTR [eax+6]
  006c4	81 f9 06 08 00
	00		 cmp	 ecx, 2054		; 00000806H
  006ca	75 07		 jne	 SHORT $LN356@Convert

; 284  : 	{
; 285  : 		iChaosItem = 30;

  006cc	c7 45 dc 1e 00
	00 00		 mov	 DWORD PTR _iChaosItem$[ebp], 30 ; 0000001eH
$LN356@Convert:

; 286  : 	}
; 287  : 
; 288  : 	if ( ItemGetDurability(this->m_Type, 0, 0, 0) != 0 )

  006d3	6a 00		 push	 0
  006d5	6a 00		 push	 0
  006d7	6a 00		 push	 0
  006d9	8b 45 fc	 mov	 eax, DWORD PTR _this$[ebp]
  006dc	0f bf 48 06	 movsx	 ecx, WORD PTR [eax+6]
  006e0	51		 push	 ecx
  006e1	e8 00 00 00 00	 call	 ?ItemGetDurability@@YAHHHHH@Z ; ItemGetDurability
  006e6	83 c4 10	 add	 esp, 16			; 00000010H
  006e9	85 c0		 test	 eax, eax
  006eb	74 39		 je	 SHORT $LN355@Convert

; 289  : 	{
; 290  : 		this->m_BaseDurability = (float)ItemGetDurability(this->m_Type, this->m_Level, Attribute2 & 0x7F, this->m_SetOption );

  006ed	8b 45 fc	 mov	 eax, DWORD PTR _this$[ebp]
  006f0	0f b6 88 ae 00
	00 00		 movzx	 ecx, BYTE PTR [eax+174]
  006f7	51		 push	 ecx
  006f8	0f b6 55 18	 movzx	 edx, BYTE PTR _Attribute2$[ebp]
  006fc	83 e2 7f	 and	 edx, 127		; 0000007fH
  006ff	52		 push	 edx
  00700	8b 45 fc	 mov	 eax, DWORD PTR _this$[ebp]
  00703	0f bf 48 08	 movsx	 ecx, WORD PTR [eax+8]
  00707	51		 push	 ecx
  00708	8b 55 fc	 mov	 edx, DWORD PTR _this$[ebp]
  0070b	0f bf 42 06	 movsx	 eax, WORD PTR [edx+6]
  0070f	50		 push	 eax
  00710	e8 00 00 00 00	 call	 ?ItemGetDurability@@YAHHHHH@Z ; ItemGetDurability
  00715	83 c4 10	 add	 esp, 16			; 00000010H
  00718	89 45 8c	 mov	 DWORD PTR tv2923[ebp], eax
  0071b	db 45 8c	 fild	 DWORD PTR tv2923[ebp]
  0071e	8b 4d fc	 mov	 ecx, DWORD PTR _this$[ebp]
  00721	d9 59 2c	 fstp	 DWORD PTR [ecx+44]

; 291  : 	}
; 292  : 	else

  00724	eb 08		 jmp	 SHORT $LN354@Convert
$LN355@Convert:

; 293  : 	{
; 294  : 		this->m_BaseDurability = 0;

  00726	8b 45 fc	 mov	 eax, DWORD PTR _this$[ebp]
  00729	d9 ee		 fldz
  0072b	d9 58 2c	 fstp	 DWORD PTR [eax+44]
$LN354@Convert:

; 295  : 	}
; 296  : 
; 297  : 	this->m_DurabilityState[0] = this->m_BaseDurability * 0.5f;

  0072e	8b 45 fc	 mov	 eax, DWORD PTR _this$[ebp]
  00731	d9 40 2c	 fld	 DWORD PTR [eax+44]
  00734	dc 0d 00 00 00
	00		 fmul	 QWORD PTR __real@3fe0000000000000
  0073a	8b 4d fc	 mov	 ecx, DWORD PTR _this$[ebp]
  0073d	d9 99 98 00 00
	00		 fstp	 DWORD PTR [ecx+152]

; 298  : 	this->m_DurabilityState[1] = this->m_BaseDurability * 0.3f;

  00743	8b 45 fc	 mov	 eax, DWORD PTR _this$[ebp]
  00746	d9 40 2c	 fld	 DWORD PTR [eax+44]
  00749	dc 0d 00 00 00
	00		 fmul	 QWORD PTR __real@3fd3333340000000
  0074f	8b 4d fc	 mov	 ecx, DWORD PTR _this$[ebp]
  00752	d9 99 9c 00 00
	00		 fstp	 DWORD PTR [ecx+156]

; 299  : 	this->m_DurabilityState[2] = this->m_BaseDurability * 0.2f;

  00758	8b 45 fc	 mov	 eax, DWORD PTR _this$[ebp]
  0075b	d9 40 2c	 fld	 DWORD PTR [eax+44]
  0075e	dc 0d 00 00 00
	00		 fmul	 QWORD PTR __real@3fc99999a0000000
  00764	8b 4d fc	 mov	 ecx, DWORD PTR _this$[ebp]
  00767	d9 99 a0 00 00
	00		 fstp	 DWORD PTR [ecx+160]

; 300  : 	this->m_Value = p->Value;

  0076d	8b 45 f0	 mov	 eax, DWORD PTR _p$[ebp]
  00770	0f b7 48 3c	 movzx	 ecx, WORD PTR [eax+60]
  00774	8b 55 fc	 mov	 edx, DWORD PTR _this$[ebp]
  00777	89 4a 68	 mov	 DWORD PTR [edx+104], ecx

; 301  : 	this->m_AttackSpeed = p->AttackSpeed;

  0077a	8b 45 fc	 mov	 eax, DWORD PTR _this$[ebp]
  0077d	8b 4d f0	 mov	 ecx, DWORD PTR _p$[ebp]
  00780	8a 51 28	 mov	 dl, BYTE PTR [ecx+40]
  00783	88 50 0d	 mov	 BYTE PTR [eax+13], dl

; 302  : 	this->m_TwoHand = p->TwoHand;

  00786	8b 45 fc	 mov	 eax, DWORD PTR _this$[ebp]
  00789	8b 4d f0	 mov	 ecx, DWORD PTR _p$[ebp]
  0078c	8a 51 21	 mov	 dl, BYTE PTR [ecx+33]
  0078f	88 50 0c	 mov	 BYTE PTR [eax+12], dl

; 303  : 	this->m_DamageMin = p->DamageMin;

  00792	8b 45 f0	 mov	 eax, DWORD PTR _p$[ebp]
  00795	66 0f b6 48 2a	 movzx	 cx, BYTE PTR [eax+42]
  0079a	8b 55 fc	 mov	 edx, DWORD PTR _this$[ebp]
  0079d	66 89 4a 10	 mov	 WORD PTR [edx+16], cx

; 304  : 	this->m_DamageMax = p->DamageMax;

  007a1	8b 45 f0	 mov	 eax, DWORD PTR _p$[ebp]
  007a4	66 0f b6 48 2b	 movzx	 cx, BYTE PTR [eax+43]
  007a9	8b 55 fc	 mov	 edx, DWORD PTR _this$[ebp]
  007ac	66 89 4a 12	 mov	 WORD PTR [edx+18], cx

; 305  : 	this->m_SuccessfulBlocking = p->SuccessfulBlocking;

  007b0	8b 45 fc	 mov	 eax, DWORD PTR _this$[ebp]
  007b3	8b 4d f0	 mov	 ecx, DWORD PTR _p$[ebp]
  007b6	8a 51 2c	 mov	 dl, BYTE PTR [ecx+44]
  007b9	88 50 14	 mov	 BYTE PTR [eax+20], dl

; 306  : 	this->m_Defense = p->Defense;

  007bc	8b 45 f0	 mov	 eax, DWORD PTR _p$[ebp]
  007bf	66 0f b6 48 2d	 movzx	 cx, BYTE PTR [eax+45]
  007c4	8b 55 fc	 mov	 edx, DWORD PTR _this$[ebp]
  007c7	66 89 4a 16	 mov	 WORD PTR [edx+22], cx

; 307  : 	this->m_MagicDefense = p->MagicDefense;

  007cb	8b 45 f0	 mov	 eax, DWORD PTR _p$[ebp]
  007ce	66 0f b6 48 2e	 movzx	 cx, BYTE PTR [eax+46]
  007d3	8b 55 fc	 mov	 edx, DWORD PTR _this$[ebp]
  007d6	66 89 4a 18	 mov	 WORD PTR [edx+24], cx

; 308  : 	this->m_WalkSpeed = p->WalkSpeed;

  007da	8b 45 fc	 mov	 eax, DWORD PTR _this$[ebp]
  007dd	8b 4d f0	 mov	 ecx, DWORD PTR _p$[ebp]
  007e0	8a 51 29	 mov	 dl, BYTE PTR [ecx+41]
  007e3	88 50 0e	 mov	 BYTE PTR [eax+14], dl

; 309  : 
; 310  : 	if((_type >> 9) == 5 && p->ItemSlot == 1) //Season3 add-on

  007e6	8b 45 f8	 mov	 eax, DWORD PTR __type$[ebp]
  007e9	c1 f8 09	 sar	 eax, 9
  007ec	83 f8 05	 cmp	 eax, 5
  007ef	75 22		 jne	 SHORT $LN353@Convert
  007f1	8b 45 f0	 mov	 eax, DWORD PTR _p$[ebp]
  007f4	83 78 64 01	 cmp	 DWORD PTR [eax+100], 1
  007f8	75 19		 jne	 SHORT $LN353@Convert

; 311  : 	{
; 312  : 		this->m_Magic = 0;

  007fa	33 c0		 xor	 eax, eax
  007fc	8b 4d fc	 mov	 ecx, DWORD PTR _this$[ebp]
  007ff	66 89 41 20	 mov	 WORD PTR [ecx+32], ax

; 313  : 		this->m_BookSpell = p->MagicPW;

  00803	8b 45 fc	 mov	 eax, DWORD PTR _this$[ebp]
  00806	8b 4d f0	 mov	 ecx, DWORD PTR _p$[ebp]
  00809	66 8b 51 54	 mov	 dx, WORD PTR [ecx+84]
  0080d	66 89 50 22	 mov	 WORD PTR [eax+34], dx

; 314  : 	}
; 315  : 	else

  00811	eb 17		 jmp	 SHORT $LN352@Convert
$LN353@Convert:

; 316  : 	{
; 317  : 		this->m_Magic = p->MagicPW;

  00813	8b 45 fc	 mov	 eax, DWORD PTR _this$[ebp]
  00816	8b 4d f0	 mov	 ecx, DWORD PTR _p$[ebp]
  00819	66 8b 51 54	 mov	 dx, WORD PTR [ecx+84]
  0081d	66 89 50 20	 mov	 WORD PTR [eax+32], dx

; 318  : 		this->m_BookSpell = 0;

  00821	33 c0		 xor	 eax, eax
  00823	8b 4d fc	 mov	 ecx, DWORD PTR _this$[ebp]
  00826	66 89 41 22	 mov	 WORD PTR [ecx+34], ax
$LN352@Convert:

; 319  : 	}
; 320  : 	
; 321  : 	this->m_serial = p->Serial;

  0082a	8b 45 fc	 mov	 eax, DWORD PTR _this$[ebp]
  0082d	8b 4d f0	 mov	 ecx, DWORD PTR _p$[ebp]
  00830	8a 51 25	 mov	 dl, BYTE PTR [ecx+37]
  00833	88 50 04	 mov	 BYTE PTR [eax+4], dl

; 322  : 	this->m_QuestItem = (bool)p->QuestItem;

  00836	8b 45 fc	 mov	 eax, DWORD PTR _this$[ebp]
  00839	8b 4d f0	 mov	 ecx, DWORD PTR _p$[ebp]
  0083c	8a 51 60	 mov	 dl, BYTE PTR [ecx+96]
  0083f	88 90 ad 00 00
	00		 mov	 BYTE PTR [eax+173], dl

; 323  : 	this->m_RequireLeaderShip = 0;

  00845	33 c0		 xor	 eax, eax
  00847	8b 4d fc	 mov	 ecx, DWORD PTR _this$[ebp]
  0084a	66 89 41 54	 mov	 WORD PTR [ecx+84], ax

; 324  : 
; 325  : 	/////////
; 326  : 	if ( this->m_BaseDurability > 10.0f && 
; 327  : 		_type != ITEMGET(13,20) &&
; 328  : 		_type != ITEMGET(13,38) &&
; 329  : 		this->m_Durability > this->m_BaseDurability) //season 4.5 add-on

  0084e	8b 45 fc	 mov	 eax, DWORD PTR _this$[ebp]
  00851	d9 40 2c	 fld	 DWORD PTR [eax+44]
  00854	dc 1d 00 00 00
	00		 fcomp	 QWORD PTR __real@4024000000000000
  0085a	df e0		 fnstsw	 ax
  0085c	f6 c4 41	 test	 ah, 65			; 00000041H
  0085f	75 33		 jne	 SHORT $LN351@Convert
  00861	81 7d f8 14 1a
	00 00		 cmp	 DWORD PTR __type$[ebp], 6676 ; 00001a14H
  00868	74 2a		 je	 SHORT $LN351@Convert
  0086a	81 7d f8 26 1a
	00 00		 cmp	 DWORD PTR __type$[ebp], 6694 ; 00001a26H
  00871	74 21		 je	 SHORT $LN351@Convert
  00873	8b 45 fc	 mov	 eax, DWORD PTR _this$[ebp]
  00876	d9 40 24	 fld	 DWORD PTR [eax+36]
  00879	8b 4d fc	 mov	 ecx, DWORD PTR _this$[ebp]
  0087c	d9 41 2c	 fld	 DWORD PTR [ecx+44]
  0087f	de d9		 fcompp
  00881	df e0		 fnstsw	 ax
  00883	f6 c4 05	 test	 ah, 5
  00886	7a 0c		 jp	 SHORT $LN351@Convert

; 330  : 	{
; 331  : 		this->m_Durability = this->m_BaseDurability;

  00888	8b 45 fc	 mov	 eax, DWORD PTR _this$[ebp]
  0088b	8b 4d fc	 mov	 ecx, DWORD PTR _this$[ebp]
  0088e	d9 41 2c	 fld	 DWORD PTR [ecx+44]
  00891	d9 58 24	 fstp	 DWORD PTR [eax+36]
$LN351@Convert:

; 332  : 	}
; 333  : 	////////
; 334  : 
; 335  : 	if ( this->m_Durability == 0 )

  00894	8b 45 fc	 mov	 eax, DWORD PTR _this$[ebp]
  00897	d9 40 24	 fld	 DWORD PTR [eax+36]
  0089a	d9 ee		 fldz
  0089c	da e9		 fucompp
  0089e	df e0		 fnstsw	 ax
  008a0	f6 c4 44	 test	 ah, 68			; 00000044H
  008a3	7a 10		 jp	 SHORT $LN350@Convert

; 336  : 	{
; 337  : 		this->m_CurrentDurabilityState = 1;

  008a5	8b 45 fc	 mov	 eax, DWORD PTR _this$[ebp]
  008a8	d9 e8		 fld1
  008aa	d9 98 a8 00 00
	00		 fstp	 DWORD PTR [eax+168]
  008b0	e9 86 00 00 00	 jmp	 $LN343@Convert
$LN350@Convert:

; 338  : 	}
; 339  : 	else if ( this->m_Durability < this->m_DurabilityState[2] )

  008b5	8b 45 fc	 mov	 eax, DWORD PTR _this$[ebp]
  008b8	d9 40 24	 fld	 DWORD PTR [eax+36]
  008bb	8b 4d fc	 mov	 ecx, DWORD PTR _this$[ebp]
  008be	d9 81 a0 00 00
	00		 fld	 DWORD PTR [ecx+160]
  008c4	de d9		 fcompp
  008c6	df e0		 fnstsw	 ax
  008c8	f6 c4 41	 test	 ah, 65			; 00000041H
  008cb	75 11		 jne	 SHORT $LN348@Convert

; 340  : 	{
; 341  : 		this->m_CurrentDurabilityState = (float)0.5;

  008cd	8b 45 fc	 mov	 eax, DWORD PTR _this$[ebp]
  008d0	d9 05 00 00 00
	00		 fld	 DWORD PTR __real@3f000000
  008d6	d9 98 a8 00 00
	00		 fstp	 DWORD PTR [eax+168]
  008dc	eb 5d		 jmp	 SHORT $LN343@Convert
$LN348@Convert:

; 342  : 	}
; 343  : 	else if ( this->m_Durability < this->m_DurabilityState[1] )

  008de	8b 45 fc	 mov	 eax, DWORD PTR _this$[ebp]
  008e1	d9 40 24	 fld	 DWORD PTR [eax+36]
  008e4	8b 4d fc	 mov	 ecx, DWORD PTR _this$[ebp]
  008e7	d9 81 9c 00 00
	00		 fld	 DWORD PTR [ecx+156]
  008ed	de d9		 fcompp
  008ef	df e0		 fnstsw	 ax
  008f1	f6 c4 41	 test	 ah, 65			; 00000041H
  008f4	75 11		 jne	 SHORT $LN346@Convert

; 344  : 	{
; 345  : 		this->m_CurrentDurabilityState = (float)0.3;

  008f6	8b 45 fc	 mov	 eax, DWORD PTR _this$[ebp]
  008f9	d9 05 00 00 00
	00		 fld	 DWORD PTR __real@3e99999a
  008ff	d9 98 a8 00 00
	00		 fstp	 DWORD PTR [eax+168]
  00905	eb 34		 jmp	 SHORT $LN343@Convert
$LN346@Convert:

; 346  : 	}
; 347  : 	else if ( this->m_Durability < this->m_DurabilityState[0] )

  00907	8b 45 fc	 mov	 eax, DWORD PTR _this$[ebp]
  0090a	d9 40 24	 fld	 DWORD PTR [eax+36]
  0090d	8b 4d fc	 mov	 ecx, DWORD PTR _this$[ebp]
  00910	d9 81 98 00 00
	00		 fld	 DWORD PTR [ecx+152]
  00916	de d9		 fcompp
  00918	df e0		 fnstsw	 ax
  0091a	f6 c4 41	 test	 ah, 65			; 00000041H
  0091d	75 11		 jne	 SHORT $LN344@Convert

; 348  : 	{
; 349  : 		this->m_CurrentDurabilityState = (float)0.2;

  0091f	8b 45 fc	 mov	 eax, DWORD PTR _this$[ebp]
  00922	d9 05 00 00 00
	00		 fld	 DWORD PTR __real@3e4ccccd
  00928	d9 98 a8 00 00
	00		 fstp	 DWORD PTR [eax+168]

; 350  : 	}
; 351  : 	else

  0092e	eb 0b		 jmp	 SHORT $LN343@Convert
$LN344@Convert:

; 352  : 	{
; 353  : 		this->m_CurrentDurabilityState = 0.0;

  00930	8b 45 fc	 mov	 eax, DWORD PTR _this$[ebp]
  00933	d9 ee		 fldz
  00935	d9 98 a8 00 00
	00		 fstp	 DWORD PTR [eax+168]
$LN343@Convert:

; 354  : 	}
; 355  : 
; 356  : 	memcpy(this->m_RequireClass, p->RequireClass , sizeof(this->m_RequireClass));

  0093b	6a 07		 push	 7
  0093d	8b 45 f0	 mov	 eax, DWORD PTR _p$[ebp]
  00940	83 c0 3e	 add	 eax, 62			; 0000003eH
  00943	50		 push	 eax
  00944	8b 4d fc	 mov	 ecx, DWORD PTR _this$[ebp]
  00947	83 c1 58	 add	 ecx, 88			; 00000058H
  0094a	51		 push	 ecx
  0094b	e8 00 00 00 00	 call	 _memcpy
  00950	83 c4 0c	 add	 esp, 12			; 0000000cH

; 357  : 
; 358  : 	for (int i = 0; i<MAX_ITEM_SPECIAL_ATTRIBUTE ; i++ ) //9

  00953	c7 45 d8 00 00
	00 00		 mov	 DWORD PTR _i$230588[ebp], 0
  0095a	eb 09		 jmp	 SHORT $LN342@Convert
$LN341@Convert:
  0095c	8b 45 d8	 mov	 eax, DWORD PTR _i$230588[ebp]
  0095f	83 c0 01	 add	 eax, 1
  00962	89 45 d8	 mov	 DWORD PTR _i$230588[ebp], eax
$LN342@Convert:
  00965	83 7d d8 07	 cmp	 DWORD PTR _i$230588[ebp], 7
  00969	7d 1f		 jge	 SHORT $LN340@Convert

; 359  : 	{
; 360  : 		this->m_Resistance[i] = p->Resistance[i] * this->m_Level;

  0096b	8b 45 f0	 mov	 eax, DWORD PTR _p$[ebp]
  0096e	03 45 d8	 add	 eax, DWORD PTR _i$230588[ebp]
  00971	0f b6 48 45	 movzx	 ecx, BYTE PTR [eax+69]
  00975	8b 55 fc	 mov	 edx, DWORD PTR _this$[ebp]
  00978	0f bf 42 08	 movsx	 eax, WORD PTR [edx+8]
  0097c	0f af c8	 imul	 ecx, eax
  0097f	8b 55 fc	 mov	 edx, DWORD PTR _this$[ebp]
  00982	03 55 d8	 add	 edx, DWORD PTR _i$230588[ebp]
  00985	88 4a 5f	 mov	 BYTE PTR [edx+95], cl

; 361  : 	}

  00988	eb d2		 jmp	 SHORT $LN341@Convert
$LN340@Convert:

; 362  : 
; 363  : 	ItemLevel = p->Level;

  0098a	8b 45 f0	 mov	 eax, DWORD PTR _p$[ebp]
  0098d	0f b6 48 22	 movzx	 ecx, BYTE PTR [eax+34]
  00991	89 4d f4	 mov	 DWORD PTR _ItemLevel$[ebp], ecx

; 364  : 
; 365  : 	if ( ( Attribute2 & 0x3F) > 0 )

  00994	0f b6 45 18	 movzx	 eax, BYTE PTR _Attribute2$[ebp]
  00998	83 e0 3f	 and	 eax, 63			; 0000003fH
  0099b	7e 0f		 jle	 SHORT $LN339@Convert

; 366  : 	{
; 367  : 		ItemLevel = p->Level + 25;

  0099d	8b 45 f0	 mov	 eax, DWORD PTR _p$[ebp]
  009a0	0f b6 48 22	 movzx	 ecx, BYTE PTR [eax+34]
  009a4	83 c1 19	 add	 ecx, 25			; 00000019H
  009a7	89 4d f4	 mov	 DWORD PTR _ItemLevel$[ebp], ecx

; 368  : 	}
; 369  : 	else

  009aa	eb 1b		 jmp	 SHORT $LN337@Convert
$LN339@Convert:

; 370  : 	{
; 371  : 		if (this->m_SetOption != 0 )

  009ac	8b 45 fc	 mov	 eax, DWORD PTR _this$[ebp]
  009af	0f b6 88 ae 00
	00 00		 movzx	 ecx, BYTE PTR [eax+174]
  009b6	85 c9		 test	 ecx, ecx
  009b8	74 0d		 je	 SHORT $LN337@Convert

; 372  : 		{
; 373  : 			ItemLevel = p->Level + 25;

  009ba	8b 45 f0	 mov	 eax, DWORD PTR _p$[ebp]
  009bd	0f b6 48 22	 movzx	 ecx, BYTE PTR [eax+34]
  009c1	83 c1 19	 add	 ecx, 25			; 00000019H
  009c4	89 4d f4	 mov	 DWORD PTR _ItemLevel$[ebp], ecx
$LN337@Convert:

; 374  : 		}
; 375  : 	}
; 376  : 
; 377  : 	if ( p->RequireStrength != 0 )

  009c7	8b 45 f0	 mov	 eax, DWORD PTR _p$[ebp]
  009ca	0f b7 48 34	 movzx	 ecx, WORD PTR [eax+52]
  009ce	85 c9		 test	 ecx, ecx
  009d0	74 2e		 je	 SHORT $LN336@Convert

; 378  : 	{
; 379  : 		this->m_RequireStrength = ((p->RequireStrength * (ItemLevel + this->m_Level * 3 ) ) * 3) / 100 + 20;

  009d2	8b 45 f0	 mov	 eax, DWORD PTR _p$[ebp]
  009d5	0f b7 40 34	 movzx	 eax, WORD PTR [eax+52]
  009d9	8b 4d fc	 mov	 ecx, DWORD PTR _this$[ebp]
  009dc	0f bf 51 08	 movsx	 edx, WORD PTR [ecx+8]
  009e0	6b d2 03	 imul	 edx, 3
  009e3	03 55 f4	 add	 edx, DWORD PTR _ItemLevel$[ebp]
  009e6	0f af c2	 imul	 eax, edx
  009e9	6b c0 03	 imul	 eax, 3
  009ec	99		 cdq
  009ed	b9 64 00 00 00	 mov	 ecx, 100		; 00000064H
  009f2	f7 f9		 idiv	 ecx
  009f4	83 c0 14	 add	 eax, 20			; 00000014H
  009f7	8b 55 fc	 mov	 edx, DWORD PTR _this$[ebp]
  009fa	66 89 42 4a	 mov	 WORD PTR [edx+74], ax

; 380  : 	}
; 381  : 	else

  009fe	eb 09		 jmp	 SHORT $LN335@Convert
$LN336@Convert:

; 382  : 	{
; 383  : 		this->m_RequireStrength = 0;

  00a00	33 c0		 xor	 eax, eax
  00a02	8b 4d fc	 mov	 ecx, DWORD PTR _this$[ebp]
  00a05	66 89 41 4a	 mov	 WORD PTR [ecx+74], ax
$LN335@Convert:

; 384  : 	}
; 385  : 
; 386  : 
; 387  : 	if ( p->RequireDexterity != 0 )

  00a09	8b 45 f0	 mov	 eax, DWORD PTR _p$[ebp]
  00a0c	0f b7 48 36	 movzx	 ecx, WORD PTR [eax+54]
  00a10	85 c9		 test	 ecx, ecx
  00a12	74 2e		 je	 SHORT $LN334@Convert

; 388  : 	{
; 389  : 		this->m_RequireDexterity = ((p->RequireDexterity * (ItemLevel + this->m_Level * 3 ) ) * 3) / 100 + 20;

  00a14	8b 45 f0	 mov	 eax, DWORD PTR _p$[ebp]
  00a17	0f b7 40 36	 movzx	 eax, WORD PTR [eax+54]
  00a1b	8b 4d fc	 mov	 ecx, DWORD PTR _this$[ebp]
  00a1e	0f bf 51 08	 movsx	 edx, WORD PTR [ecx+8]
  00a22	6b d2 03	 imul	 edx, 3
  00a25	03 55 f4	 add	 edx, DWORD PTR _ItemLevel$[ebp]
  00a28	0f af c2	 imul	 eax, edx
  00a2b	6b c0 03	 imul	 eax, 3
  00a2e	99		 cdq
  00a2f	b9 64 00 00 00	 mov	 ecx, 100		; 00000064H
  00a34	f7 f9		 idiv	 ecx
  00a36	83 c0 14	 add	 eax, 20			; 00000014H
  00a39	8b 55 fc	 mov	 edx, DWORD PTR _this$[ebp]
  00a3c	66 89 42 4c	 mov	 WORD PTR [edx+76], ax

; 390  : 	}
; 391  : 	else

  00a40	eb 09		 jmp	 SHORT $LN333@Convert
$LN334@Convert:

; 392  : 	{
; 393  : 		this->m_RequireDexterity  = 0;

  00a42	33 c0		 xor	 eax, eax
  00a44	8b 4d fc	 mov	 ecx, DWORD PTR _this$[ebp]
  00a47	66 89 41 4c	 mov	 WORD PTR [ecx+76], ax
$LN333@Convert:

; 394  : 	}
; 395  : 
; 396  : 	if ( p->RequireEnergy != 0 )

  00a4b	8b 45 f0	 mov	 eax, DWORD PTR _p$[ebp]
  00a4e	0f b7 48 38	 movzx	 ecx, WORD PTR [eax+56]
  00a52	85 c9		 test	 ecx, ecx
  00a54	74 2e		 je	 SHORT $LN332@Convert

; 397  : 	{
; 398  : 		this->m_RequireEnergy = ((p->RequireEnergy * (ItemLevel + this->m_Level * 3 ) ) * 4) / 100 + 20;

  00a56	8b 45 f0	 mov	 eax, DWORD PTR _p$[ebp]
  00a59	0f b7 40 38	 movzx	 eax, WORD PTR [eax+56]
  00a5d	8b 4d fc	 mov	 ecx, DWORD PTR _this$[ebp]
  00a60	0f bf 51 08	 movsx	 edx, WORD PTR [ecx+8]
  00a64	6b d2 03	 imul	 edx, 3
  00a67	03 55 f4	 add	 edx, DWORD PTR _ItemLevel$[ebp]
  00a6a	0f af c2	 imul	 eax, edx
  00a6d	c1 e0 02	 shl	 eax, 2
  00a70	99		 cdq
  00a71	b9 64 00 00 00	 mov	 ecx, 100		; 00000064H
  00a76	f7 f9		 idiv	 ecx
  00a78	83 c0 14	 add	 eax, 20			; 00000014H
  00a7b	8b 55 fc	 mov	 edx, DWORD PTR _this$[ebp]
  00a7e	66 89 42 4e	 mov	 WORD PTR [edx+78], ax

; 399  : 	}
; 400  : 	else

  00a82	eb 09		 jmp	 SHORT $LN331@Convert
$LN332@Convert:

; 401  : 	{
; 402  : 		this->m_RequireEnergy = 0;

  00a84	33 c0		 xor	 eax, eax
  00a86	8b 4d fc	 mov	 ecx, DWORD PTR _this$[ebp]
  00a89	66 89 41 4e	 mov	 WORD PTR [ecx+78], ax
$LN331@Convert:

; 403  : 	}
; 404  : 
; 405  : 	if(p->RequireEnergy != 0)

  00a8d	8b 45 f0	 mov	 eax, DWORD PTR _p$[ebp]
  00a90	0f b7 48 38	 movzx	 ecx, WORD PTR [eax+56]
  00a94	85 c9		 test	 ecx, ecx
  00a96	74 3f		 je	 SHORT $LN330@Convert

; 406  : 	{
; 407  : 		if((_type >> 9) == 5 && p->ItemSlot == 1) //Season3 add-on

  00a98	8b 45 f8	 mov	 eax, DWORD PTR __type$[ebp]
  00a9b	c1 f8 09	 sar	 eax, 9
  00a9e	83 f8 05	 cmp	 eax, 5
  00aa1	75 32		 jne	 SHORT $LN329@Convert
  00aa3	8b 45 f0	 mov	 eax, DWORD PTR _p$[ebp]
  00aa6	83 78 64 01	 cmp	 DWORD PTR [eax+100], 1
  00aaa	75 29		 jne	 SHORT $LN329@Convert

; 408  : 		{
; 409  : 			this->m_RequireEnergy = ((p->RequireEnergy * (ItemLevel + this->m_Level) ) * 3) / 100 + 20;

  00aac	8b 45 f0	 mov	 eax, DWORD PTR _p$[ebp]
  00aaf	0f b7 40 38	 movzx	 eax, WORD PTR [eax+56]
  00ab3	8b 4d fc	 mov	 ecx, DWORD PTR _this$[ebp]
  00ab6	0f bf 51 08	 movsx	 edx, WORD PTR [ecx+8]
  00aba	03 55 f4	 add	 edx, DWORD PTR _ItemLevel$[ebp]
  00abd	0f af c2	 imul	 eax, edx
  00ac0	6b c0 03	 imul	 eax, 3
  00ac3	99		 cdq
  00ac4	b9 64 00 00 00	 mov	 ecx, 100		; 00000064H
  00ac9	f7 f9		 idiv	 ecx
  00acb	83 c0 14	 add	 eax, 20			; 00000014H
  00ace	8b 55 fc	 mov	 edx, DWORD PTR _this$[ebp]
  00ad1	66 89 42 4e	 mov	 WORD PTR [edx+78], ax
$LN329@Convert:

; 410  : 		}
; 411  : 	}
; 412  : 	else

  00ad5	eb 09		 jmp	 SHORT $LN328@Convert
$LN330@Convert:

; 413  : 	{
; 414  : 		this->m_RequireEnergy = 0;

  00ad7	33 c0		 xor	 eax, eax
  00ad9	8b 4d fc	 mov	 ecx, DWORD PTR _this$[ebp]
  00adc	66 89 41 4e	 mov	 WORD PTR [ecx+78], ax
$LN328@Convert:

; 415  : 	}
; 416  : 
; 417  : 	if ( _type >= ITEMGET(0,0) && _type < ITEMGET(12,0) )

  00ae0	83 7d f8 00	 cmp	 DWORD PTR __type$[ebp], 0
  00ae4	0f 8c 8f 00 00
	00		 jl	 $LN323@Convert
  00aea	81 7d f8 00 18
	00 00		 cmp	 DWORD PTR __type$[ebp], 6144 ; 00001800H
  00af1	0f 8d 82 00 00
	00		 jge	 $LN323@Convert

; 418  : 	{
; 419  : 		if ( p->RequireVitality != 0 )

  00af7	8b 45 f0	 mov	 eax, DWORD PTR _p$[ebp]
  00afa	0f b7 48 4c	 movzx	 ecx, WORD PTR [eax+76]
  00afe	85 c9		 test	 ecx, ecx
  00b00	74 2e		 je	 SHORT $LN326@Convert

; 420  : 		{
; 421  : 			this->m_RequireVitality = ((p->RequireVitality * (ItemLevel + this->m_Level * 3 ) ) * 3) / 100 + 20;

  00b02	8b 45 f0	 mov	 eax, DWORD PTR _p$[ebp]
  00b05	0f b7 40 4c	 movzx	 eax, WORD PTR [eax+76]
  00b09	8b 4d fc	 mov	 ecx, DWORD PTR _this$[ebp]
  00b0c	0f bf 51 08	 movsx	 edx, WORD PTR [ecx+8]
  00b10	6b d2 03	 imul	 edx, 3
  00b13	03 55 f4	 add	 edx, DWORD PTR _ItemLevel$[ebp]
  00b16	0f af c2	 imul	 eax, edx
  00b19	6b c0 03	 imul	 eax, 3
  00b1c	99		 cdq
  00b1d	b9 64 00 00 00	 mov	 ecx, 100		; 00000064H
  00b22	f7 f9		 idiv	 ecx
  00b24	83 c0 14	 add	 eax, 20			; 00000014H
  00b27	8b 55 fc	 mov	 edx, DWORD PTR _this$[ebp]
  00b2a	66 89 42 52	 mov	 WORD PTR [edx+82], ax

; 422  : 		}
; 423  : 		else

  00b2e	eb 09		 jmp	 SHORT $LN325@Convert
$LN326@Convert:

; 424  : 		{
; 425  : 			this->m_RequireVitality = 0;

  00b30	33 c0		 xor	 eax, eax
  00b32	8b 4d fc	 mov	 ecx, DWORD PTR _this$[ebp]
  00b35	66 89 41 52	 mov	 WORD PTR [ecx+82], ax
$LN325@Convert:

; 426  : 		}
; 427  : 
; 428  : 		if ( p->RequireLeadership != 0 )

  00b39	8b 45 f0	 mov	 eax, DWORD PTR _p$[ebp]
  00b3c	83 78 6c 00	 cmp	 DWORD PTR [eax+108], 0
  00b40	74 2e		 je	 SHORT $LN324@Convert

; 429  : 		{
; 430  : 			this->m_RequireLeaderShip = ((p->RequireVitality * (ItemLevel + this->m_Level * 3 ) ) * 3) / 100 + 20;

  00b42	8b 45 f0	 mov	 eax, DWORD PTR _p$[ebp]
  00b45	0f b7 40 4c	 movzx	 eax, WORD PTR [eax+76]
  00b49	8b 4d fc	 mov	 ecx, DWORD PTR _this$[ebp]
  00b4c	0f bf 51 08	 movsx	 edx, WORD PTR [ecx+8]
  00b50	6b d2 03	 imul	 edx, 3
  00b53	03 55 f4	 add	 edx, DWORD PTR _ItemLevel$[ebp]
  00b56	0f af c2	 imul	 eax, edx
  00b59	6b c0 03	 imul	 eax, 3
  00b5c	99		 cdq
  00b5d	b9 64 00 00 00	 mov	 ecx, 100		; 00000064H
  00b62	f7 f9		 idiv	 ecx
  00b64	83 c0 14	 add	 eax, 20			; 00000014H
  00b67	8b 55 fc	 mov	 edx, DWORD PTR _this$[ebp]
  00b6a	66 89 42 54	 mov	 WORD PTR [edx+84], ax

; 431  : 		}
; 432  : 		else

  00b6e	eb 09		 jmp	 SHORT $LN323@Convert
$LN324@Convert:

; 433  : 		{
; 434  : 			this->m_RequireLeaderShip = 0;

  00b70	33 c0		 xor	 eax, eax
  00b72	8b 4d fc	 mov	 ecx, DWORD PTR _this$[ebp]
  00b75	66 89 41 54	 mov	 WORD PTR [ecx+84], ax
$LN323@Convert:

; 435  : 		}
; 436  : 	}
; 437  : 
; 438  : 	if ( _type == ITEMGET(13,5) )

  00b79	81 7d f8 05 1a
	00 00		 cmp	 DWORD PTR __type$[ebp], 6661 ; 00001a05H
  00b80	75 31		 jne	 SHORT $LN322@Convert

; 439  : 	{
; 440  : 		this->m_RequireLeaderShip = this->m_PetItem_Level * 15 + 185;

  00b82	8b 45 fc	 mov	 eax, DWORD PTR _this$[ebp]
  00b85	8b 88 bc 00 00
	00		 mov	 ecx, DWORD PTR [eax+188]
  00b8b	6b c9 0f	 imul	 ecx, 15			; 0000000fH
  00b8e	81 c1 b9 00 00
	00		 add	 ecx, 185		; 000000b9H
  00b94	8b 55 fc	 mov	 edx, DWORD PTR _this$[ebp]
  00b97	66 89 4a 54	 mov	 WORD PTR [edx+84], cx

; 441  : 		p->RequireLeadership = this->m_PetItem_Level * 15 + 185; //season4 add-on

  00b9b	8b 45 fc	 mov	 eax, DWORD PTR _this$[ebp]
  00b9e	8b 88 bc 00 00
	00		 mov	 ecx, DWORD PTR [eax+188]
  00ba4	6b c9 0f	 imul	 ecx, 15			; 0000000fH
  00ba7	81 c1 b9 00 00
	00		 add	 ecx, 185		; 000000b9H
  00bad	8b 55 f0	 mov	 edx, DWORD PTR _p$[ebp]
  00bb0	89 4a 6c	 mov	 DWORD PTR [edx+108], ecx
$LN322@Convert:

; 442  : 	}
; 443  : 
; 444  : 	if ( g_kJewelOfHarmonySystem.IsActive(this) == TRUE )

  00bb3	8b 45 fc	 mov	 eax, DWORD PTR _this$[ebp]
  00bb6	50		 push	 eax
  00bb7	b9 00 00 00 00	 mov	 ecx, OFFSET ?g_kJewelOfHarmonySystem@@3VCJewelOfHarmonySystem@@A ; g_kJewelOfHarmonySystem
  00bbc	e8 00 00 00 00	 call	 ?IsActive@CJewelOfHarmonySystem@@QAEHPAVCItem@@@Z ; CJewelOfHarmonySystem::IsActive
  00bc1	83 f8 01	 cmp	 eax, 1
  00bc4	0f 85 c2 00 00
	00		 jne	 $LN321@Convert

; 445  : 	{
; 446  : 		BYTE btOption = g_kJewelOfHarmonySystem.GetItemStrengthenOption(this);

  00bca	8b 45 fc	 mov	 eax, DWORD PTR _this$[ebp]
  00bcd	50		 push	 eax
  00bce	b9 00 00 00 00	 mov	 ecx, OFFSET ?g_kJewelOfHarmonySystem@@3VCJewelOfHarmonySystem@@A ; g_kJewelOfHarmonySystem
  00bd3	e8 00 00 00 00	 call	 ?GetItemStrengthenOption@CJewelOfHarmonySystem@@QAEEPAVCItem@@@Z ; CJewelOfHarmonySystem::GetItemStrengthenOption
  00bd8	88 45 d7	 mov	 BYTE PTR _btOption$230611[ebp], al

; 447  : 		int iItemType = g_kJewelOfHarmonySystem._GetItemType(this);

  00bdb	8b 45 fc	 mov	 eax, DWORD PTR _this$[ebp]
  00bde	50		 push	 eax
  00bdf	b9 00 00 00 00	 mov	 ecx, OFFSET ?g_kJewelOfHarmonySystem@@3VCJewelOfHarmonySystem@@A ; g_kJewelOfHarmonySystem
  00be4	e8 00 00 00 00	 call	 ?_GetItemType@CJewelOfHarmonySystem@@QAEHPAVCItem@@@Z ; CJewelOfHarmonySystem::_GetItemType
  00be9	89 45 d0	 mov	 DWORD PTR _iItemType$230612[ebp], eax

; 448  : 
; 449  : 		if(iItemType == 1)

  00bec	83 7d d0 01	 cmp	 DWORD PTR _iItemType$230612[ebp], 1
  00bf0	75 4a		 jne	 SHORT $LN320@Convert

; 450  : 		{
; 451  : 			if ( btOption == AT_JEWELOFHARMONY_WEAPON_DECREASE_REQUIRE_STR )

  00bf2	0f b6 45 d7	 movzx	 eax, BYTE PTR _btOption$230611[ebp]
  00bf6	83 f8 03	 cmp	 eax, 3
  00bf9	75 1c		 jne	 SHORT $LN319@Convert

; 452  : 			{
; 453  : 				this->m_HJOpStrength = g_kJewelOfHarmonySystem.GetItemEffectValue(this,	AT_JEWELOFHARMONY_WEAPON_DECREASE_REQUIRE_STR);

  00bfb	6a 03		 push	 3
  00bfd	8b 45 fc	 mov	 eax, DWORD PTR _this$[ebp]
  00c00	50		 push	 eax
  00c01	b9 00 00 00 00	 mov	 ecx, OFFSET ?g_kJewelOfHarmonySystem@@3VCJewelOfHarmonySystem@@A ; g_kJewelOfHarmonySystem
  00c06	e8 00 00 00 00	 call	 ?GetItemEffectValue@CJewelOfHarmonySystem@@QAEHPAVCItem@@H@Z ; CJewelOfHarmonySystem::GetItemEffectValue
  00c0b	8b 4d fc	 mov	 ecx, DWORD PTR _this$[ebp]
  00c0e	66 89 81 c6 00
	00 00		 mov	 WORD PTR [ecx+198], ax
  00c15	eb 23		 jmp	 SHORT $LN317@Convert
$LN319@Convert:

; 454  : 			}
; 455  : 			else if ( btOption == AT_JEWELOFHARMONY_WEAPON_DECREASE_REQUIRE_DEX )

  00c17	0f b6 45 d7	 movzx	 eax, BYTE PTR _btOption$230611[ebp]
  00c1b	83 f8 04	 cmp	 eax, 4
  00c1e	75 1a		 jne	 SHORT $LN317@Convert

; 456  : 			{
; 457  : 				this->m_HJOpDexterity = g_kJewelOfHarmonySystem.GetItemEffectValue(this, AT_JEWELOFHARMONY_WEAPON_DECREASE_REQUIRE_DEX);

  00c20	6a 04		 push	 4
  00c22	8b 45 fc	 mov	 eax, DWORD PTR _this$[ebp]
  00c25	50		 push	 eax
  00c26	b9 00 00 00 00	 mov	 ecx, OFFSET ?g_kJewelOfHarmonySystem@@3VCJewelOfHarmonySystem@@A ; g_kJewelOfHarmonySystem
  00c2b	e8 00 00 00 00	 call	 ?GetItemEffectValue@CJewelOfHarmonySystem@@QAEHPAVCItem@@H@Z ; CJewelOfHarmonySystem::GetItemEffectValue
  00c30	8b 4d fc	 mov	 ecx, DWORD PTR _this$[ebp]
  00c33	66 89 81 c8 00
	00 00		 mov	 WORD PTR [ecx+200], ax
$LN317@Convert:

; 458  : 			}
; 459  : 		}

  00c3a	eb 4e		 jmp	 SHORT $LN312@Convert
$LN320@Convert:

; 460  : 		else if(iItemType == 2)

  00c3c	83 7d d0 02	 cmp	 DWORD PTR _iItemType$230612[ebp], 2
  00c40	75 48		 jne	 SHORT $LN312@Convert

; 461  : 		{
; 462  : 			if ( btOption == AT_JEWELOFHARMONY_WEAPON_IMPROVE_MAXATTACKDAMAGE )

  00c42	0f b6 45 d7	 movzx	 eax, BYTE PTR _btOption$230611[ebp]
  00c46	83 f8 02	 cmp	 eax, 2
  00c49	75 1c		 jne	 SHORT $LN314@Convert

; 463  : 			{
; 464  : 				this->m_HJOpStrength = g_kJewelOfHarmonySystem.GetItemEffectValue(this,	AT_JEWELOFHARMONY_WEAPON_IMPROVE_MAXATTACKDAMAGE);

  00c4b	6a 02		 push	 2
  00c4d	8b 45 fc	 mov	 eax, DWORD PTR _this$[ebp]
  00c50	50		 push	 eax
  00c51	b9 00 00 00 00	 mov	 ecx, OFFSET ?g_kJewelOfHarmonySystem@@3VCJewelOfHarmonySystem@@A ; g_kJewelOfHarmonySystem
  00c56	e8 00 00 00 00	 call	 ?GetItemEffectValue@CJewelOfHarmonySystem@@QAEHPAVCItem@@H@Z ; CJewelOfHarmonySystem::GetItemEffectValue
  00c5b	8b 4d fc	 mov	 ecx, DWORD PTR _this$[ebp]
  00c5e	66 89 81 c6 00
	00 00		 mov	 WORD PTR [ecx+198], ax
  00c65	eb 23		 jmp	 SHORT $LN312@Convert
$LN314@Convert:

; 465  : 			}
; 466  : 			else if ( btOption == AT_JEWELOFHARMONY_WEAPON_DECREASE_REQUIRE_STR )

  00c67	0f b6 45 d7	 movzx	 eax, BYTE PTR _btOption$230611[ebp]
  00c6b	83 f8 03	 cmp	 eax, 3
  00c6e	75 1a		 jne	 SHORT $LN312@Convert

; 467  : 			{
; 468  : 				this->m_HJOpDexterity = g_kJewelOfHarmonySystem.GetItemEffectValue(this, AT_JEWELOFHARMONY_WEAPON_DECREASE_REQUIRE_STR);

  00c70	6a 03		 push	 3
  00c72	8b 45 fc	 mov	 eax, DWORD PTR _this$[ebp]
  00c75	50		 push	 eax
  00c76	b9 00 00 00 00	 mov	 ecx, OFFSET ?g_kJewelOfHarmonySystem@@3VCJewelOfHarmonySystem@@A ; g_kJewelOfHarmonySystem
  00c7b	e8 00 00 00 00	 call	 ?GetItemEffectValue@CJewelOfHarmonySystem@@QAEHPAVCItem@@H@Z ; CJewelOfHarmonySystem::GetItemEffectValue
  00c80	8b 4d fc	 mov	 ecx, DWORD PTR _this$[ebp]
  00c83	66 89 81 c8 00
	00 00		 mov	 WORD PTR [ecx+200], ax
$LN312@Convert:

; 469  : 			}
; 470  : 		}		
; 471  : 	}
; 472  : 	else //WZ Fix for Season3.0

  00c8a	eb 18		 jmp	 SHORT $LN311@Convert
$LN321@Convert:

; 473  : 	{
; 474  : 		this->m_HJOpStrength = 0;

  00c8c	33 c0		 xor	 eax, eax
  00c8e	8b 4d fc	 mov	 ecx, DWORD PTR _this$[ebp]
  00c91	66 89 81 c6 00
	00 00		 mov	 WORD PTR [ecx+198], ax

; 475  : 		this->m_HJOpDexterity = 0;

  00c98	33 c0		 xor	 eax, eax
  00c9a	8b 4d fc	 mov	 ecx, DWORD PTR _this$[ebp]
  00c9d	66 89 81 c8 00
	00 00		 mov	 WORD PTR [ecx+200], ax
$LN311@Convert:

; 476  : 	}
; 477  : 
; 478  : 	g_SocketOption.ApplySocketEffectforWeapons(this); //season 4 add-on

  00ca4	8b 45 fc	 mov	 eax, DWORD PTR _this$[ebp]
  00ca7	50		 push	 eax
  00ca8	b9 00 00 00 00	 mov	 ecx, OFFSET ?g_SocketOption@@3VCSocketOption@@A ; g_SocketOption
  00cad	e8 00 00 00 00	 call	 ?ApplySocketEffectforWeapons@CSocketOption@@QAEXPAVCItem@@@Z ; CSocketOption::ApplySocketEffectforWeapons

; 479  : 
; 480  : 	if ( p->RequireLevel != 0 )

  00cb2	8b 45 f0	 mov	 eax, DWORD PTR _p$[ebp]
  00cb5	0f b7 48 3a	 movzx	 ecx, WORD PTR [eax+58]
  00cb9	85 c9		 test	 ecx, ecx
  00cbb	0f 84 2c 02 00
	00		 je	 $LN310@Convert

; 481  : 	{
; 482  : 		if ( _type == ITEMGET(13,4) )	// DarkHorse

  00cc1	81 7d f8 04 1a
	00 00		 cmp	 DWORD PTR __type$[ebp], 6660 ; 00001a04H
  00cc8	75 1c		 jne	 SHORT $LN309@Convert

; 483  : 		{
; 484  : 			this->m_RequireLevel = this->m_PetItem_Level * 2 + 218;

  00cca	8b 45 fc	 mov	 eax, DWORD PTR _this$[ebp]
  00ccd	8b 88 bc 00 00
	00		 mov	 ecx, DWORD PTR [eax+188]
  00cd3	8d 94 09 da 00
	00 00		 lea	 edx, DWORD PTR [ecx+ecx+218]
  00cda	8b 45 fc	 mov	 eax, DWORD PTR _this$[ebp]
  00cdd	66 89 50 50	 mov	 WORD PTR [eax+80], dx
  00ce1	e9 05 02 00 00	 jmp	 $LN285@Convert
$LN309@Convert:

; 485  : 		}
; 486  : 		else if ( _type >= ITEMGET(12,36) && _type <= ITEMGET(12,40) )

  00ce6	81 7d f8 24 18
	00 00		 cmp	 DWORD PTR __type$[ebp], 6180 ; 00001824H
  00ced	7c 1c		 jl	 SHORT $LN307@Convert
  00cef	81 7d f8 28 18
	00 00		 cmp	 DWORD PTR __type$[ebp], 6184 ; 00001828H
  00cf6	7f 13		 jg	 SHORT $LN307@Convert

; 487  : 		{
; 488  : 			this->m_RequireLevel = p->RequireLevel;

  00cf8	8b 45 fc	 mov	 eax, DWORD PTR _this$[ebp]
  00cfb	8b 4d f0	 mov	 ecx, DWORD PTR _p$[ebp]
  00cfe	66 8b 51 3a	 mov	 dx, WORD PTR [ecx+58]
  00d02	66 89 50 50	 mov	 WORD PTR [eax+80], dx
  00d06	e9 e0 01 00 00	 jmp	 $LN285@Convert
$LN307@Convert:

; 489  : 		}
; 490  : 		else if ( _type >= ITEMGET(12,180) && _type <= ITEMGET(12,188) )	//Custom Wings4

  00d0b	81 7d f8 b4 18
	00 00		 cmp	 DWORD PTR __type$[ebp], 6324 ; 000018b4H
  00d12	7c 1c		 jl	 SHORT $LN305@Convert
  00d14	81 7d f8 bc 18
	00 00		 cmp	 DWORD PTR __type$[ebp], 6332 ; 000018bcH
  00d1b	7f 13		 jg	 SHORT $LN305@Convert

; 491  : 		{
; 492  : 			this->m_RequireLevel = p->RequireLevel;

  00d1d	8b 45 fc	 mov	 eax, DWORD PTR _this$[ebp]
  00d20	8b 4d f0	 mov	 ecx, DWORD PTR _p$[ebp]
  00d23	66 8b 51 3a	 mov	 dx, WORD PTR [ecx+58]
  00d27	66 89 50 50	 mov	 WORD PTR [eax+80], dx
  00d2b	e9 bb 01 00 00	 jmp	 $LN285@Convert
$LN305@Convert:

; 493  : 		}
; 494  : #ifdef NEWWINGS_2_5
; 495  : 		else if( IS_NEWWINGS_2_5(_type) )

  00d30	81 7d f8 ba 18
	00 00		 cmp	 DWORD PTR __type$[ebp], 6330 ; 000018baH
  00d37	7d 09		 jge	 SHORT $LN403@Convert
  00d39	c7 45 8c 00 00
	00 00		 mov	 DWORD PTR tv563[ebp], 0
  00d40	eb 0f		 jmp	 SHORT $LN404@Convert
$LN403@Convert:
  00d42	33 c0		 xor	 eax, eax
  00d44	81 7d f8 bc 18
	00 00		 cmp	 DWORD PTR __type$[ebp], 6332 ; 000018bcH
  00d4b	0f 9e c0	 setle	 al
  00d4e	89 45 8c	 mov	 DWORD PTR tv563[ebp], eax
$LN404@Convert:
  00d51	83 7d 8c 00	 cmp	 DWORD PTR tv563[ebp], 0
  00d55	74 13		 je	 SHORT $LN303@Convert

; 496  : 		{
; 497  : 			this->m_RequireLevel = p->RequireLevel;

  00d57	8b 45 fc	 mov	 eax, DWORD PTR _this$[ebp]
  00d5a	8b 4d f0	 mov	 ecx, DWORD PTR _p$[ebp]
  00d5d	66 8b 51 3a	 mov	 dx, WORD PTR [ecx+58]
  00d61	66 89 50 50	 mov	 WORD PTR [eax+80], dx
  00d65	e9 81 01 00 00	 jmp	 $LN285@Convert
$LN303@Convert:

; 498  : 		}
; 499  : #endif
; 500  : #ifdef NEWWINGS_4
; 501  : 		else if( IS_NEWWINGS_4(_type) )

  00d6a	81 7d f8 b4 18
	00 00		 cmp	 DWORD PTR __type$[ebp], 6324 ; 000018b4H
  00d71	7d 09		 jge	 SHORT $LN405@Convert
  00d73	c7 45 8c 00 00
	00 00		 mov	 DWORD PTR tv570[ebp], 0
  00d7a	eb 0f		 jmp	 SHORT $LN406@Convert
$LN405@Convert:
  00d7c	33 c0		 xor	 eax, eax
  00d7e	81 7d f8 b9 18
	00 00		 cmp	 DWORD PTR __type$[ebp], 6329 ; 000018b9H
  00d85	0f 9e c0	 setle	 al
  00d88	89 45 8c	 mov	 DWORD PTR tv570[ebp], eax
$LN406@Convert:
  00d8b	83 7d 8c 00	 cmp	 DWORD PTR tv570[ebp], 0
  00d8f	74 13		 je	 SHORT $LN301@Convert

; 502  : 		{
; 503  : 			this->m_RequireLevel = p->RequireLevel;

  00d91	8b 45 fc	 mov	 eax, DWORD PTR _this$[ebp]
  00d94	8b 4d f0	 mov	 ecx, DWORD PTR _p$[ebp]
  00d97	66 8b 51 3a	 mov	 dx, WORD PTR [ecx+58]
  00d9b	66 89 50 50	 mov	 WORD PTR [eax+80], dx
  00d9f	e9 47 01 00 00	 jmp	 $LN285@Convert
$LN301@Convert:

; 504  : 		}
; 505  : #endif
; 506  : #ifdef NEWWINGS_5
; 507  : 		else if( IS_NEWWINGS_5(_type) )

  00da4	81 7d f8 bd 18
	00 00		 cmp	 DWORD PTR __type$[ebp], 6333 ; 000018bdH
  00dab	7d 09		 jge	 SHORT $LN407@Convert
  00dad	c7 45 8c 00 00
	00 00		 mov	 DWORD PTR tv577[ebp], 0
  00db4	eb 0f		 jmp	 SHORT $LN408@Convert
$LN407@Convert:
  00db6	33 c0		 xor	 eax, eax
  00db8	81 7d f8 c2 18
	00 00		 cmp	 DWORD PTR __type$[ebp], 6338 ; 000018c2H
  00dbf	0f 9e c0	 setle	 al
  00dc2	89 45 8c	 mov	 DWORD PTR tv577[ebp], eax
$LN408@Convert:
  00dc5	83 7d 8c 00	 cmp	 DWORD PTR tv577[ebp], 0
  00dc9	74 13		 je	 SHORT $LN299@Convert

; 508  : 		{
; 509  : 			this->m_RequireLevel = p->RequireLevel;

  00dcb	8b 45 fc	 mov	 eax, DWORD PTR _this$[ebp]
  00dce	8b 4d f0	 mov	 ecx, DWORD PTR _p$[ebp]
  00dd1	66 8b 51 3a	 mov	 dx, WORD PTR [ecx+58]
  00dd5	66 89 50 50	 mov	 WORD PTR [eax+80], dx
  00dd9	e9 0d 01 00 00	 jmp	 $LN285@Convert
$LN299@Convert:

; 510  : 		}
; 511  : #endif
; 512  : #ifdef NEWWINGS_6
; 513  : 		else if( IS_NEWWINGS_6(_type) )

  00dde	81 7d f8 c3 18
	00 00		 cmp	 DWORD PTR __type$[ebp], 6339 ; 000018c3H
  00de5	7d 09		 jge	 SHORT $LN409@Convert
  00de7	c7 45 8c 00 00
	00 00		 mov	 DWORD PTR tv584[ebp], 0
  00dee	eb 0f		 jmp	 SHORT $LN410@Convert
$LN409@Convert:
  00df0	33 c0		 xor	 eax, eax
  00df2	81 7d f8 dc 18
	00 00		 cmp	 DWORD PTR __type$[ebp], 6364 ; 000018dcH
  00df9	0f 9e c0	 setle	 al
  00dfc	89 45 8c	 mov	 DWORD PTR tv584[ebp], eax
$LN410@Convert:
  00dff	83 7d 8c 00	 cmp	 DWORD PTR tv584[ebp], 0
  00e03	74 13		 je	 SHORT $LN297@Convert

; 514  : 		{
; 515  : 
; 516  : 			this->m_RequireLevel = p->RequireLevel;

  00e05	8b 45 fc	 mov	 eax, DWORD PTR _this$[ebp]
  00e08	8b 4d f0	 mov	 ecx, DWORD PTR _p$[ebp]
  00e0b	66 8b 51 3a	 mov	 dx, WORD PTR [ecx+58]
  00e0f	66 89 50 50	 mov	 WORD PTR [eax+80], dx
  00e13	e9 d3 00 00 00	 jmp	 $LN285@Convert
$LN297@Convert:

; 517  : 		}
; 518  : #endif
; 519  : 		else if ( _type >= ITEMGET(12,3) && _type <= ITEMGET(12,6) )

  00e18	81 7d f8 03 18
	00 00		 cmp	 DWORD PTR __type$[ebp], 6147 ; 00001803H
  00e1f	7c 28		 jl	 SHORT $LN295@Convert
  00e21	81 7d f8 06 18
	00 00		 cmp	 DWORD PTR __type$[ebp], 6150 ; 00001806H
  00e28	7f 1f		 jg	 SHORT $LN295@Convert

; 520  : 		{
; 521  : 			this->m_RequireLevel = p->RequireLevel + (this->m_Level * 5);

  00e2a	8b 45 f0	 mov	 eax, DWORD PTR _p$[ebp]
  00e2d	0f b7 48 3a	 movzx	 ecx, WORD PTR [eax+58]
  00e31	8b 55 fc	 mov	 edx, DWORD PTR _this$[ebp]
  00e34	0f bf 42 08	 movsx	 eax, WORD PTR [edx+8]
  00e38	6b c0 05	 imul	 eax, 5
  00e3b	03 c8		 add	 ecx, eax
  00e3d	8b 55 fc	 mov	 edx, DWORD PTR _this$[ebp]
  00e40	66 89 4a 50	 mov	 WORD PTR [edx+80], cx
  00e44	e9 a2 00 00 00	 jmp	 $LN285@Convert
$LN295@Convert:

; 522  : 		}
; 523  : 		else if ( _type == ITEMGET(12,42) ) //Season3

  00e49	81 7d f8 2a 18
	00 00		 cmp	 DWORD PTR __type$[ebp], 6186 ; 0000182aH
  00e50	75 1c		 jne	 SHORT $LN293@Convert

; 524  : 		{
; 525  : 			this->m_RequireLevel = p->RequireLevel + (this->m_Level * 5);

  00e52	8b 45 f0	 mov	 eax, DWORD PTR _p$[ebp]
  00e55	0f b7 48 3a	 movzx	 ecx, WORD PTR [eax+58]
  00e59	8b 55 fc	 mov	 edx, DWORD PTR _this$[ebp]
  00e5c	0f bf 42 08	 movsx	 eax, WORD PTR [edx+8]
  00e60	6b c0 05	 imul	 eax, 5
  00e63	03 c8		 add	 ecx, eax
  00e65	8b 55 fc	 mov	 edx, DWORD PTR _this$[ebp]
  00e68	66 89 4a 50	 mov	 WORD PTR [edx+80], cx
  00e6c	eb 7d		 jmp	 SHORT $LN285@Convert
$LN293@Convert:

; 526  : 		}
; 527  : 		else if ( _type == ITEMGET(12,43) ) //Season3

  00e6e	81 7d f8 2b 18
	00 00		 cmp	 DWORD PTR __type$[ebp], 6187 ; 0000182bH
  00e75	75 10		 jne	 SHORT $LN291@Convert

; 528  : 		{
; 529  : 			this->m_RequireLevel = p->RequireLevel;

  00e77	8b 45 fc	 mov	 eax, DWORD PTR _this$[ebp]
  00e7a	8b 4d f0	 mov	 ecx, DWORD PTR _p$[ebp]
  00e7d	66 8b 51 3a	 mov	 dx, WORD PTR [ecx+58]
  00e81	66 89 50 50	 mov	 WORD PTR [eax+80], dx
  00e85	eb 64		 jmp	 SHORT $LN285@Convert
$LN291@Convert:

; 530  : 		}
; 531  : 		else if ( _type >= ITEMGET(12,7) && _type <= ITEMGET(12,24) )

  00e87	81 7d f8 07 18
	00 00		 cmp	 DWORD PTR __type$[ebp], 6151 ; 00001807H
  00e8e	7c 19		 jl	 SHORT $LN289@Convert
  00e90	81 7d f8 18 18
	00 00		 cmp	 DWORD PTR __type$[ebp], 6168 ; 00001818H
  00e97	7f 10		 jg	 SHORT $LN289@Convert

; 532  : 		{
; 533  : 			this->m_RequireLevel = p->RequireLevel;

  00e99	8b 45 fc	 mov	 eax, DWORD PTR _this$[ebp]
  00e9c	8b 4d f0	 mov	 ecx, DWORD PTR _p$[ebp]
  00e9f	66 8b 51 3a	 mov	 dx, WORD PTR [ecx+58]
  00ea3	66 89 50 50	 mov	 WORD PTR [eax+80], dx
  00ea7	eb 42		 jmp	 SHORT $LN285@Convert
$LN289@Convert:

; 534  : 		}
; 535  : 		else if ( _type >= ITEMGET(0,0) && _type < ITEMGET(12,0) )

  00ea9	83 7d f8 00	 cmp	 DWORD PTR __type$[ebp], 0
  00ead	7c 24		 jl	 SHORT $LN287@Convert
  00eaf	81 7d f8 00 18
	00 00		 cmp	 DWORD PTR __type$[ebp], 6144 ; 00001800H
  00eb6	7d 1b		 jge	 SHORT $LN287@Convert

; 536  : 		{
; 537  : 			if ( p->RequireLevel )

  00eb8	8b 45 f0	 mov	 eax, DWORD PTR _p$[ebp]
  00ebb	0f b7 48 3a	 movzx	 ecx, WORD PTR [eax+58]
  00ebf	85 c9		 test	 ecx, ecx
  00ec1	74 0e		 je	 SHORT $LN286@Convert

; 538  : 				this->m_RequireLevel = p->RequireLevel;

  00ec3	8b 45 fc	 mov	 eax, DWORD PTR _this$[ebp]
  00ec6	8b 4d f0	 mov	 ecx, DWORD PTR _p$[ebp]
  00ec9	66 8b 51 3a	 mov	 dx, WORD PTR [ecx+58]
  00ecd	66 89 50 50	 mov	 WORD PTR [eax+80], dx
$LN286@Convert:

; 539  : 		}
; 540  : 		else

  00ed1	eb 18		 jmp	 SHORT $LN285@Convert
$LN287@Convert:

; 541  : 		{
; 542  : 			this->m_RequireLevel = p->RequireLevel + this->m_Level * 4;

  00ed3	8b 45 f0	 mov	 eax, DWORD PTR _p$[ebp]
  00ed6	0f b7 48 3a	 movzx	 ecx, WORD PTR [eax+58]
  00eda	8b 55 fc	 mov	 edx, DWORD PTR _this$[ebp]
  00edd	0f bf 42 08	 movsx	 eax, WORD PTR [edx+8]
  00ee1	8d 0c 81	 lea	 ecx, DWORD PTR [ecx+eax*4]
  00ee4	8b 55 fc	 mov	 edx, DWORD PTR _this$[ebp]
  00ee7	66 89 4a 50	 mov	 WORD PTR [edx+80], cx
$LN285@Convert:

; 543  : 		}
; 544  : 	}
; 545  : 	else

  00eeb	eb 09		 jmp	 SHORT $LN284@Convert
$LN310@Convert:

; 546  : 	{
; 547  : 		this->m_RequireLevel = 0;

  00eed	33 c0		 xor	 eax, eax
  00eef	8b 4d fc	 mov	 ecx, DWORD PTR _this$[ebp]
  00ef2	66 89 41 50	 mov	 WORD PTR [ecx+80], ax
$LN284@Convert:

; 548  : 	}
; 549  : 
; 550  : 	if ( this->m_Type == ITEMGET(13,10) )

  00ef6	8b 45 fc	 mov	 eax, DWORD PTR _this$[ebp]
  00ef9	0f bf 48 06	 movsx	 ecx, WORD PTR [eax+6]
  00efd	81 f9 0a 1a 00
	00		 cmp	 ecx, 6666		; 00001a0aH
  00f03	75 20		 jne	 SHORT $LN281@Convert

; 551  : 	{
; 552  : 		if ( ItemLevel <= 2 )

  00f05	83 7d f4 02	 cmp	 DWORD PTR _ItemLevel$[ebp], 2
  00f09	7f 0e		 jg	 SHORT $LN282@Convert

; 553  : 		{
; 554  : 			this->m_RequireLevel = 20;

  00f0b	b8 14 00 00 00	 mov	 eax, 20			; 00000014H
  00f10	8b 4d fc	 mov	 ecx, DWORD PTR _this$[ebp]
  00f13	66 89 41 50	 mov	 WORD PTR [ecx+80], ax

; 555  : 		}
; 556  : 		else

  00f17	eb 0c		 jmp	 SHORT $LN281@Convert
$LN282@Convert:

; 557  : 		{
; 558  : 			this->m_RequireLevel = 50;

  00f19	b8 32 00 00 00	 mov	 eax, 50			; 00000032H
  00f1e	8b 4d fc	 mov	 ecx, DWORD PTR _this$[ebp]
  00f21	66 89 41 50	 mov	 WORD PTR [ecx+80], ax
$LN281@Convert:

; 559  : 		}
; 560  : 	}
; 561  : 
; 562  : 	if ( (Attribute2 & 0x3F) > 0 )

  00f25	0f b6 45 18	 movzx	 eax, BYTE PTR _Attribute2$[ebp]
  00f29	83 e0 3f	 and	 eax, 63			; 0000003fH
  00f2c	7e 2b		 jle	 SHORT $LN278@Convert

; 563  : 	{
; 564  : 		if ( this->m_RequireLevel > 0 )

  00f2e	8b 45 fc	 mov	 eax, DWORD PTR _this$[ebp]
  00f31	0f b7 48 50	 movzx	 ecx, WORD PTR [eax+80]
  00f35	85 c9		 test	 ecx, ecx
  00f37	7e 20		 jle	 SHORT $LN278@Convert

; 565  : 		{
; 566  : 			if ( _type < ITEMGET(0,0) || _type >= ITEMGET(12,0) )

  00f39	83 7d f8 00	 cmp	 DWORD PTR __type$[ebp], 0
  00f3d	7c 09		 jl	 SHORT $LN277@Convert
  00f3f	81 7d f8 00 18
	00 00		 cmp	 DWORD PTR __type$[ebp], 6144 ; 00001800H
  00f46	7c 11		 jl	 SHORT $LN278@Convert
$LN277@Convert:

; 567  : 				this->m_RequireLevel += 20;

  00f48	8b 45 fc	 mov	 eax, DWORD PTR _this$[ebp]
  00f4b	0f b7 48 50	 movzx	 ecx, WORD PTR [eax+80]
  00f4f	83 c1 14	 add	 ecx, 20			; 00000014H
  00f52	8b 55 fc	 mov	 edx, DWORD PTR _this$[ebp]
  00f55	66 89 4a 50	 mov	 WORD PTR [edx+80], cx
$LN278@Convert:

; 568  : 		}
; 569  : 	}
; 570  : 
; 571  : 	if ( this->m_SetOption != 0 )

  00f59	8b 45 fc	 mov	 eax, DWORD PTR _this$[ebp]
  00f5c	0f b6 88 ae 00
	00 00		 movzx	 ecx, BYTE PTR [eax+174]
  00f63	85 c9		 test	 ecx, ecx
  00f65	74 0d		 je	 SHORT $LN276@Convert

; 572  : 	{
; 573  : 		ItemLevel = p->Level + 30;

  00f67	8b 45 f0	 mov	 eax, DWORD PTR _p$[ebp]
  00f6a	0f b6 48 22	 movzx	 ecx, BYTE PTR [eax+34]
  00f6e	83 c1 1e	 add	 ecx, 30			; 0000001eH
  00f71	89 4d f4	 mov	 DWORD PTR _ItemLevel$[ebp], ecx
$LN276@Convert:

; 574  : 	}
; 575  : 	
; 576  : 	this->m_Leadership = 0;

  00f74	33 c0		 xor	 eax, eax
  00f76	8b 4d fc	 mov	 ecx, DWORD PTR _this$[ebp]
  00f79	66 89 41 56	 mov	 WORD PTR [ecx+86], ax

; 577  : 
; 578  : 	if ( this->m_DamageMax > 0 )

  00f7d	8b 45 fc	 mov	 eax, DWORD PTR _this$[ebp]
  00f80	0f b7 48 12	 movzx	 ecx, WORD PTR [eax+18]
  00f84	85 c9		 test	 ecx, ecx
  00f86	0f 8e fe 00 00
	00		 jle	 $LN268@Convert

; 579  : 	{
; 580  : 		if ( this->m_SetOption != 0 && ItemLevel != 0 )

  00f8c	8b 45 fc	 mov	 eax, DWORD PTR _this$[ebp]
  00f8f	0f b6 88 ae 00
	00 00		 movzx	 ecx, BYTE PTR [eax+174]
  00f96	85 c9		 test	 ecx, ecx
  00f98	74 4b		 je	 SHORT $LN274@Convert
  00f9a	83 7d f4 00	 cmp	 DWORD PTR _ItemLevel$[ebp], 0
  00f9e	74 45		 je	 SHORT $LN274@Convert

; 581  : 		{
; 582  : 			this->m_DamageMax += (this->m_DamageMin * 25) / p->Level + 5;

  00fa0	8b 45 fc	 mov	 eax, DWORD PTR _this$[ebp]
  00fa3	0f b7 40 10	 movzx	 eax, WORD PTR [eax+16]
  00fa7	6b c0 19	 imul	 eax, 25			; 00000019H
  00faa	8b 4d f0	 mov	 ecx, DWORD PTR _p$[ebp]
  00fad	0f b6 49 22	 movzx	 ecx, BYTE PTR [ecx+34]
  00fb1	99		 cdq
  00fb2	f7 f9		 idiv	 ecx
  00fb4	8b 55 fc	 mov	 edx, DWORD PTR _this$[ebp]
  00fb7	0f b7 4a 12	 movzx	 ecx, WORD PTR [edx+18]
  00fbb	8d 54 01 05	 lea	 edx, DWORD PTR [ecx+eax+5]
  00fbf	8b 45 fc	 mov	 eax, DWORD PTR _this$[ebp]
  00fc2	66 89 50 12	 mov	 WORD PTR [eax+18], dx

; 583  : 			this->m_DamageMax += ItemLevel / 40 + 5;

  00fc6	8b 45 f4	 mov	 eax, DWORD PTR _ItemLevel$[ebp]
  00fc9	99		 cdq
  00fca	b9 28 00 00 00	 mov	 ecx, 40			; 00000028H
  00fcf	f7 f9		 idiv	 ecx
  00fd1	8b 55 fc	 mov	 edx, DWORD PTR _this$[ebp]
  00fd4	0f b7 4a 12	 movzx	 ecx, WORD PTR [edx+18]
  00fd8	8d 54 01 05	 lea	 edx, DWORD PTR [ecx+eax+5]
  00fdc	8b 45 fc	 mov	 eax, DWORD PTR _this$[ebp]
  00fdf	66 89 50 12	 mov	 WORD PTR [eax+18], dx

; 584  : 		}
; 585  : 		else

  00fe3	eb 53		 jmp	 SHORT $LN269@Convert
$LN274@Convert:

; 586  : 		{
; 587  : 			if ( (Attribute2 & 0x3F)  > 0 )

  00fe5	0f b6 45 18	 movzx	 eax, BYTE PTR _Attribute2$[ebp]
  00fe9	83 e0 3f	 and	 eax, 63			; 0000003fH
  00fec	7e 4a		 jle	 SHORT $LN269@Convert

; 588  : 			{
; 589  : 				if ( iChaosItem != 0 )

  00fee	83 7d dc 00	 cmp	 DWORD PTR _iChaosItem$[ebp], 0
  00ff2	74 13		 je	 SHORT $LN271@Convert

; 590  : 				{
; 591  : 					this->m_DamageMax += iChaosItem;

  00ff4	8b 45 fc	 mov	 eax, DWORD PTR _this$[ebp]
  00ff7	0f b7 48 12	 movzx	 ecx, WORD PTR [eax+18]
  00ffb	03 4d dc	 add	 ecx, DWORD PTR _iChaosItem$[ebp]
  00ffe	8b 55 fc	 mov	 edx, DWORD PTR _this$[ebp]
  01001	66 89 4a 12	 mov	 WORD PTR [edx+18], cx
  01005	eb 31		 jmp	 SHORT $LN269@Convert
$LN271@Convert:

; 592  : 				}
; 593  : 				else if ( p->Level != 0 )

  01007	8b 45 f0	 mov	 eax, DWORD PTR _p$[ebp]
  0100a	0f b6 48 22	 movzx	 ecx, BYTE PTR [eax+34]
  0100e	85 c9		 test	 ecx, ecx
  01010	74 26		 je	 SHORT $LN269@Convert

; 594  : 				{
; 595  : 					this->m_DamageMax += (this->m_DamageMin * 25) / p->Level + 5;

  01012	8b 45 fc	 mov	 eax, DWORD PTR _this$[ebp]
  01015	0f b7 40 10	 movzx	 eax, WORD PTR [eax+16]
  01019	6b c0 19	 imul	 eax, 25			; 00000019H
  0101c	8b 4d f0	 mov	 ecx, DWORD PTR _p$[ebp]
  0101f	0f b6 49 22	 movzx	 ecx, BYTE PTR [ecx+34]
  01023	99		 cdq
  01024	f7 f9		 idiv	 ecx
  01026	8b 55 fc	 mov	 edx, DWORD PTR _this$[ebp]
  01029	0f b7 4a 12	 movzx	 ecx, WORD PTR [edx+18]
  0102d	8d 54 01 05	 lea	 edx, DWORD PTR [ecx+eax+5]
  01031	8b 45 fc	 mov	 eax, DWORD PTR _this$[ebp]
  01034	66 89 50 12	 mov	 WORD PTR [eax+18], dx
$LN269@Convert:

; 596  : 				}
; 597  : 			}
; 598  : 		}
; 599  : 
; 600  : 		this->m_DamageMax += this->m_Level * 3;

  01038	8b 45 fc	 mov	 eax, DWORD PTR _this$[ebp]
  0103b	0f bf 48 08	 movsx	 ecx, WORD PTR [eax+8]
  0103f	6b c9 03	 imul	 ecx, 3
  01042	8b 55 fc	 mov	 edx, DWORD PTR _this$[ebp]
  01045	0f b7 42 12	 movzx	 eax, WORD PTR [edx+18]
  01049	03 c1		 add	 eax, ecx
  0104b	8b 4d fc	 mov	 ecx, DWORD PTR _this$[ebp]
  0104e	66 89 41 12	 mov	 WORD PTR [ecx+18], ax

; 601  : 
; 602  : 		if ( this->m_Level >= 10 )

  01052	8b 45 fc	 mov	 eax, DWORD PTR _this$[ebp]
  01055	0f bf 48 08	 movsx	 ecx, WORD PTR [eax+8]
  01059	83 f9 0a	 cmp	 ecx, 10			; 0000000aH
  0105c	7c 2c		 jl	 SHORT $LN268@Convert

; 603  : 		{
; 604  : 			this->m_DamageMax += (this->m_Level - 9) * (this->m_Level - 8) / 2;

  0105e	8b 45 fc	 mov	 eax, DWORD PTR _this$[ebp]
  01061	0f bf 40 08	 movsx	 eax, WORD PTR [eax+8]
  01065	83 e8 09	 sub	 eax, 9
  01068	8b 4d fc	 mov	 ecx, DWORD PTR _this$[ebp]
  0106b	0f bf 51 08	 movsx	 edx, WORD PTR [ecx+8]
  0106f	83 ea 08	 sub	 edx, 8
  01072	0f af c2	 imul	 eax, edx
  01075	99		 cdq
  01076	2b c2		 sub	 eax, edx
  01078	d1 f8		 sar	 eax, 1
  0107a	8b 4d fc	 mov	 ecx, DWORD PTR _this$[ebp]
  0107d	0f b7 51 12	 movzx	 edx, WORD PTR [ecx+18]
  01081	03 d0		 add	 edx, eax
  01083	8b 45 fc	 mov	 eax, DWORD PTR _this$[ebp]
  01086	66 89 50 12	 mov	 WORD PTR [eax+18], dx
$LN268@Convert:

; 605  : 		}
; 606  : 	}
; 607  : 
; 608  : 	if ( this->m_DamageMin > 0 )	

  0108a	8b 45 fc	 mov	 eax, DWORD PTR _this$[ebp]
  0108d	0f b7 48 10	 movzx	 ecx, WORD PTR [eax+16]
  01091	85 c9		 test	 ecx, ecx
  01093	0f 8e fe 00 00
	00		 jle	 $LN260@Convert

; 609  : 	{
; 610  : 		if ( this->m_SetOption != 0 && ItemLevel != 0 )

  01099	8b 45 fc	 mov	 eax, DWORD PTR _this$[ebp]
  0109c	0f b6 88 ae 00
	00 00		 movzx	 ecx, BYTE PTR [eax+174]
  010a3	85 c9		 test	 ecx, ecx
  010a5	74 4b		 je	 SHORT $LN266@Convert
  010a7	83 7d f4 00	 cmp	 DWORD PTR _ItemLevel$[ebp], 0
  010ab	74 45		 je	 SHORT $LN266@Convert

; 611  : 		{
; 612  : 			this->m_DamageMin += (this->m_DamageMin * 25) / p->Level + 5;

  010ad	8b 45 fc	 mov	 eax, DWORD PTR _this$[ebp]
  010b0	0f b7 40 10	 movzx	 eax, WORD PTR [eax+16]
  010b4	6b c0 19	 imul	 eax, 25			; 00000019H
  010b7	8b 4d f0	 mov	 ecx, DWORD PTR _p$[ebp]
  010ba	0f b6 49 22	 movzx	 ecx, BYTE PTR [ecx+34]
  010be	99		 cdq
  010bf	f7 f9		 idiv	 ecx
  010c1	8b 55 fc	 mov	 edx, DWORD PTR _this$[ebp]
  010c4	0f b7 4a 10	 movzx	 ecx, WORD PTR [edx+16]
  010c8	8d 54 01 05	 lea	 edx, DWORD PTR [ecx+eax+5]
  010cc	8b 45 fc	 mov	 eax, DWORD PTR _this$[ebp]
  010cf	66 89 50 10	 mov	 WORD PTR [eax+16], dx

; 613  : 			this->m_DamageMin += ItemLevel / 40 + 5;

  010d3	8b 45 f4	 mov	 eax, DWORD PTR _ItemLevel$[ebp]
  010d6	99		 cdq
  010d7	b9 28 00 00 00	 mov	 ecx, 40			; 00000028H
  010dc	f7 f9		 idiv	 ecx
  010de	8b 55 fc	 mov	 edx, DWORD PTR _this$[ebp]
  010e1	0f b7 4a 10	 movzx	 ecx, WORD PTR [edx+16]
  010e5	8d 54 01 05	 lea	 edx, DWORD PTR [ecx+eax+5]
  010e9	8b 45 fc	 mov	 eax, DWORD PTR _this$[ebp]
  010ec	66 89 50 10	 mov	 WORD PTR [eax+16], dx

; 614  : 		}
; 615  : 		else

  010f0	eb 53		 jmp	 SHORT $LN261@Convert
$LN266@Convert:

; 616  : 		{
; 617  : 			if ( (Attribute2 & 0x3F)  > 0 )

  010f2	0f b6 45 18	 movzx	 eax, BYTE PTR _Attribute2$[ebp]
  010f6	83 e0 3f	 and	 eax, 63			; 0000003fH
  010f9	7e 4a		 jle	 SHORT $LN261@Convert

; 618  : 			{
; 619  : 				if ( iChaosItem != 0 )

  010fb	83 7d dc 00	 cmp	 DWORD PTR _iChaosItem$[ebp], 0
  010ff	74 13		 je	 SHORT $LN263@Convert

; 620  : 				{
; 621  : 					this->m_DamageMin += iChaosItem;

  01101	8b 45 fc	 mov	 eax, DWORD PTR _this$[ebp]
  01104	0f b7 48 10	 movzx	 ecx, WORD PTR [eax+16]
  01108	03 4d dc	 add	 ecx, DWORD PTR _iChaosItem$[ebp]
  0110b	8b 55 fc	 mov	 edx, DWORD PTR _this$[ebp]
  0110e	66 89 4a 10	 mov	 WORD PTR [edx+16], cx
  01112	eb 31		 jmp	 SHORT $LN261@Convert
$LN263@Convert:

; 622  : 				}
; 623  : 				else if ( p->Level != 0 )

  01114	8b 45 f0	 mov	 eax, DWORD PTR _p$[ebp]
  01117	0f b6 48 22	 movzx	 ecx, BYTE PTR [eax+34]
  0111b	85 c9		 test	 ecx, ecx
  0111d	74 26		 je	 SHORT $LN261@Convert

; 624  : 				{
; 625  : 					this->m_DamageMin += (this->m_DamageMin * 25) / p->Level + 5;

  0111f	8b 45 fc	 mov	 eax, DWORD PTR _this$[ebp]
  01122	0f b7 40 10	 movzx	 eax, WORD PTR [eax+16]
  01126	6b c0 19	 imul	 eax, 25			; 00000019H
  01129	8b 4d f0	 mov	 ecx, DWORD PTR _p$[ebp]
  0112c	0f b6 49 22	 movzx	 ecx, BYTE PTR [ecx+34]
  01130	99		 cdq
  01131	f7 f9		 idiv	 ecx
  01133	8b 55 fc	 mov	 edx, DWORD PTR _this$[ebp]
  01136	0f b7 4a 10	 movzx	 ecx, WORD PTR [edx+16]
  0113a	8d 54 01 05	 lea	 edx, DWORD PTR [ecx+eax+5]
  0113e	8b 45 fc	 mov	 eax, DWORD PTR _this$[ebp]
  01141	66 89 50 10	 mov	 WORD PTR [eax+16], dx
$LN261@Convert:

; 626  : 				}
; 627  : 			}
; 628  : 		}
; 629  : 
; 630  : 		this->m_DamageMin += this->m_Level * 3;

  01145	8b 45 fc	 mov	 eax, DWORD PTR _this$[ebp]
  01148	0f bf 48 08	 movsx	 ecx, WORD PTR [eax+8]
  0114c	6b c9 03	 imul	 ecx, 3
  0114f	8b 55 fc	 mov	 edx, DWORD PTR _this$[ebp]
  01152	0f b7 42 10	 movzx	 eax, WORD PTR [edx+16]
  01156	03 c1		 add	 eax, ecx
  01158	8b 4d fc	 mov	 ecx, DWORD PTR _this$[ebp]
  0115b	66 89 41 10	 mov	 WORD PTR [ecx+16], ax

; 631  : 
; 632  : 		if ( this->m_Level >= 10 )

  0115f	8b 45 fc	 mov	 eax, DWORD PTR _this$[ebp]
  01162	0f bf 48 08	 movsx	 ecx, WORD PTR [eax+8]
  01166	83 f9 0a	 cmp	 ecx, 10			; 0000000aH
  01169	7c 2c		 jl	 SHORT $LN260@Convert

; 633  : 		{
; 634  : 			this->m_DamageMin += (this->m_Level - 9) * (this->m_Level - 8) / 2;

  0116b	8b 45 fc	 mov	 eax, DWORD PTR _this$[ebp]
  0116e	0f bf 40 08	 movsx	 eax, WORD PTR [eax+8]
  01172	83 e8 09	 sub	 eax, 9
  01175	8b 4d fc	 mov	 ecx, DWORD PTR _this$[ebp]
  01178	0f bf 51 08	 movsx	 edx, WORD PTR [ecx+8]
  0117c	83 ea 08	 sub	 edx, 8
  0117f	0f af c2	 imul	 eax, edx
  01182	99		 cdq
  01183	2b c2		 sub	 eax, edx
  01185	d1 f8		 sar	 eax, 1
  01187	8b 4d fc	 mov	 ecx, DWORD PTR _this$[ebp]
  0118a	0f b7 51 10	 movzx	 edx, WORD PTR [ecx+16]
  0118e	03 d0		 add	 edx, eax
  01190	8b 45 fc	 mov	 eax, DWORD PTR _this$[ebp]
  01193	66 89 50 10	 mov	 WORD PTR [eax+16], dx
$LN260@Convert:

; 635  : 		}
; 636  : 	}
; 637  : 
; 638  : 	if ( this->m_Magic > 0 )	

  01197	8b 45 fc	 mov	 eax, DWORD PTR _this$[ebp]
  0119a	0f b7 48 20	 movzx	 ecx, WORD PTR [eax+32]
  0119e	85 c9		 test	 ecx, ecx
  011a0	0f 8e fe 00 00
	00		 jle	 $LN252@Convert

; 639  : 	{
; 640  : 		if ( this->m_SetOption != 0 && ItemLevel != 0 )

  011a6	8b 45 fc	 mov	 eax, DWORD PTR _this$[ebp]
  011a9	0f b6 88 ae 00
	00 00		 movzx	 ecx, BYTE PTR [eax+174]
  011b0	85 c9		 test	 ecx, ecx
  011b2	74 4b		 je	 SHORT $LN258@Convert
  011b4	83 7d f4 00	 cmp	 DWORD PTR _ItemLevel$[ebp], 0
  011b8	74 45		 je	 SHORT $LN258@Convert

; 641  : 		{
; 642  : 			this->m_Magic += (this->m_Magic * 25) / p->Level + 5;

  011ba	8b 45 fc	 mov	 eax, DWORD PTR _this$[ebp]
  011bd	0f b7 40 20	 movzx	 eax, WORD PTR [eax+32]
  011c1	6b c0 19	 imul	 eax, 25			; 00000019H
  011c4	8b 4d f0	 mov	 ecx, DWORD PTR _p$[ebp]
  011c7	0f b6 49 22	 movzx	 ecx, BYTE PTR [ecx+34]
  011cb	99		 cdq
  011cc	f7 f9		 idiv	 ecx
  011ce	8b 55 fc	 mov	 edx, DWORD PTR _this$[ebp]
  011d1	0f b7 4a 20	 movzx	 ecx, WORD PTR [edx+32]
  011d5	8d 54 01 05	 lea	 edx, DWORD PTR [ecx+eax+5]
  011d9	8b 45 fc	 mov	 eax, DWORD PTR _this$[ebp]
  011dc	66 89 50 20	 mov	 WORD PTR [eax+32], dx

; 643  : 			this->m_Magic += ItemLevel / 60 + 2;

  011e0	8b 45 f4	 mov	 eax, DWORD PTR _ItemLevel$[ebp]
  011e3	99		 cdq
  011e4	b9 3c 00 00 00	 mov	 ecx, 60			; 0000003cH
  011e9	f7 f9		 idiv	 ecx
  011eb	8b 55 fc	 mov	 edx, DWORD PTR _this$[ebp]
  011ee	0f b7 4a 20	 movzx	 ecx, WORD PTR [edx+32]
  011f2	8d 54 01 02	 lea	 edx, DWORD PTR [ecx+eax+2]
  011f6	8b 45 fc	 mov	 eax, DWORD PTR _this$[ebp]
  011f9	66 89 50 20	 mov	 WORD PTR [eax+32], dx

; 644  : 		}
; 645  : 		else

  011fd	eb 53		 jmp	 SHORT $LN253@Convert
$LN258@Convert:

; 646  : 		{
; 647  : 			if ( (Attribute2 & 0x3F)  > 0 )

  011ff	0f b6 45 18	 movzx	 eax, BYTE PTR _Attribute2$[ebp]
  01203	83 e0 3f	 and	 eax, 63			; 0000003fH
  01206	7e 4a		 jle	 SHORT $LN253@Convert

; 648  : 			{
; 649  : 				if ( iChaosItem != 0 )

  01208	83 7d dc 00	 cmp	 DWORD PTR _iChaosItem$[ebp], 0
  0120c	74 13		 je	 SHORT $LN255@Convert

; 650  : 				{
; 651  : 					this->m_Magic += iChaosItem;

  0120e	8b 45 fc	 mov	 eax, DWORD PTR _this$[ebp]
  01211	0f b7 48 20	 movzx	 ecx, WORD PTR [eax+32]
  01215	03 4d dc	 add	 ecx, DWORD PTR _iChaosItem$[ebp]
  01218	8b 55 fc	 mov	 edx, DWORD PTR _this$[ebp]
  0121b	66 89 4a 20	 mov	 WORD PTR [edx+32], cx
  0121f	eb 31		 jmp	 SHORT $LN253@Convert
$LN255@Convert:

; 652  : 				}
; 653  : 				else if ( p->Level != 0 )

  01221	8b 45 f0	 mov	 eax, DWORD PTR _p$[ebp]
  01224	0f b6 48 22	 movzx	 ecx, BYTE PTR [eax+34]
  01228	85 c9		 test	 ecx, ecx
  0122a	74 26		 je	 SHORT $LN253@Convert

; 654  : 				{
; 655  : 					this->m_Magic += (this->m_Magic * 25) / p->Level + 5;

  0122c	8b 45 fc	 mov	 eax, DWORD PTR _this$[ebp]
  0122f	0f b7 40 20	 movzx	 eax, WORD PTR [eax+32]
  01233	6b c0 19	 imul	 eax, 25			; 00000019H
  01236	8b 4d f0	 mov	 ecx, DWORD PTR _p$[ebp]
  01239	0f b6 49 22	 movzx	 ecx, BYTE PTR [ecx+34]
  0123d	99		 cdq
  0123e	f7 f9		 idiv	 ecx
  01240	8b 55 fc	 mov	 edx, DWORD PTR _this$[ebp]
  01243	0f b7 4a 20	 movzx	 ecx, WORD PTR [edx+32]
  01247	8d 54 01 05	 lea	 edx, DWORD PTR [ecx+eax+5]
  0124b	8b 45 fc	 mov	 eax, DWORD PTR _this$[ebp]
  0124e	66 89 50 20	 mov	 WORD PTR [eax+32], dx
$LN253@Convert:

; 656  : 				}
; 657  : 			}
; 658  : 		}
; 659  : 
; 660  : 		this->m_Magic += this->m_Level * 3;

  01252	8b 45 fc	 mov	 eax, DWORD PTR _this$[ebp]
  01255	0f bf 48 08	 movsx	 ecx, WORD PTR [eax+8]
  01259	6b c9 03	 imul	 ecx, 3
  0125c	8b 55 fc	 mov	 edx, DWORD PTR _this$[ebp]
  0125f	0f b7 42 20	 movzx	 eax, WORD PTR [edx+32]
  01263	03 c1		 add	 eax, ecx
  01265	8b 4d fc	 mov	 ecx, DWORD PTR _this$[ebp]
  01268	66 89 41 20	 mov	 WORD PTR [ecx+32], ax

; 661  : 
; 662  : 		if ( this->m_Level >= 10 )

  0126c	8b 45 fc	 mov	 eax, DWORD PTR _this$[ebp]
  0126f	0f bf 48 08	 movsx	 ecx, WORD PTR [eax+8]
  01273	83 f9 0a	 cmp	 ecx, 10			; 0000000aH
  01276	7c 2c		 jl	 SHORT $LN252@Convert

; 663  : 		{
; 664  : 			this->m_Magic += (this->m_Level - 9) * (this->m_Level - 8) / 2;

  01278	8b 45 fc	 mov	 eax, DWORD PTR _this$[ebp]
  0127b	0f bf 40 08	 movsx	 eax, WORD PTR [eax+8]
  0127f	83 e8 09	 sub	 eax, 9
  01282	8b 4d fc	 mov	 ecx, DWORD PTR _this$[ebp]
  01285	0f bf 51 08	 movsx	 edx, WORD PTR [ecx+8]
  01289	83 ea 08	 sub	 edx, 8
  0128c	0f af c2	 imul	 eax, edx
  0128f	99		 cdq
  01290	2b c2		 sub	 eax, edx
  01292	d1 f8		 sar	 eax, 1
  01294	8b 4d fc	 mov	 ecx, DWORD PTR _this$[ebp]
  01297	0f b7 51 20	 movzx	 edx, WORD PTR [ecx+32]
  0129b	03 d0		 add	 edx, eax
  0129d	8b 45 fc	 mov	 eax, DWORD PTR _this$[ebp]
  012a0	66 89 50 20	 mov	 WORD PTR [eax+32], dx
$LN252@Convert:

; 665  : 		}
; 666  : 	}
; 667  : 
; 668  : 	if( this->m_BookSpell > 0) //Season3 Summoner

  012a4	8b 45 fc	 mov	 eax, DWORD PTR _this$[ebp]
  012a7	0f b7 48 22	 movzx	 ecx, WORD PTR [eax+34]
  012ab	85 c9		 test	 ecx, ecx
  012ad	0f 8e fe 00 00
	00		 jle	 $LN244@Convert

; 669  : 	{
; 670  : 		if ( this->m_SetOption != 0 && ItemLevel != 0 )

  012b3	8b 45 fc	 mov	 eax, DWORD PTR _this$[ebp]
  012b6	0f b6 88 ae 00
	00 00		 movzx	 ecx, BYTE PTR [eax+174]
  012bd	85 c9		 test	 ecx, ecx
  012bf	74 4b		 je	 SHORT $LN250@Convert
  012c1	83 7d f4 00	 cmp	 DWORD PTR _ItemLevel$[ebp], 0
  012c5	74 45		 je	 SHORT $LN250@Convert

; 671  : 		{
; 672  : 			this->m_BookSpell += (this->m_BookSpell * 25) / p->Level + 5;

  012c7	8b 45 fc	 mov	 eax, DWORD PTR _this$[ebp]
  012ca	0f b7 40 22	 movzx	 eax, WORD PTR [eax+34]
  012ce	6b c0 19	 imul	 eax, 25			; 00000019H
  012d1	8b 4d f0	 mov	 ecx, DWORD PTR _p$[ebp]
  012d4	0f b6 49 22	 movzx	 ecx, BYTE PTR [ecx+34]
  012d8	99		 cdq
  012d9	f7 f9		 idiv	 ecx
  012db	8b 55 fc	 mov	 edx, DWORD PTR _this$[ebp]
  012de	0f b7 4a 22	 movzx	 ecx, WORD PTR [edx+34]
  012e2	8d 54 01 05	 lea	 edx, DWORD PTR [ecx+eax+5]
  012e6	8b 45 fc	 mov	 eax, DWORD PTR _this$[ebp]
  012e9	66 89 50 22	 mov	 WORD PTR [eax+34], dx

; 673  : 			this->m_BookSpell += ItemLevel / 60 + 2;

  012ed	8b 45 f4	 mov	 eax, DWORD PTR _ItemLevel$[ebp]
  012f0	99		 cdq
  012f1	b9 3c 00 00 00	 mov	 ecx, 60			; 0000003cH
  012f6	f7 f9		 idiv	 ecx
  012f8	8b 55 fc	 mov	 edx, DWORD PTR _this$[ebp]
  012fb	0f b7 4a 22	 movzx	 ecx, WORD PTR [edx+34]
  012ff	8d 54 01 02	 lea	 edx, DWORD PTR [ecx+eax+2]
  01303	8b 45 fc	 mov	 eax, DWORD PTR _this$[ebp]
  01306	66 89 50 22	 mov	 WORD PTR [eax+34], dx

; 674  : 		}
; 675  : 		else

  0130a	eb 53		 jmp	 SHORT $LN245@Convert
$LN250@Convert:

; 676  : 		{
; 677  : 			if ( (Attribute2 & 0x3F)  > 0 )

  0130c	0f b6 45 18	 movzx	 eax, BYTE PTR _Attribute2$[ebp]
  01310	83 e0 3f	 and	 eax, 63			; 0000003fH
  01313	7e 4a		 jle	 SHORT $LN245@Convert

; 678  : 			{
; 679  : 				if ( iChaosItem != 0 ) //season4 changed

  01315	83 7d dc 00	 cmp	 DWORD PTR _iChaosItem$[ebp], 0
  01319	74 13		 je	 SHORT $LN247@Convert

; 680  : 				{
; 681  : 					this->m_BookSpell += iChaosItem; //season4 changed

  0131b	8b 45 fc	 mov	 eax, DWORD PTR _this$[ebp]
  0131e	0f b7 48 22	 movzx	 ecx, WORD PTR [eax+34]
  01322	03 4d dc	 add	 ecx, DWORD PTR _iChaosItem$[ebp]
  01325	8b 55 fc	 mov	 edx, DWORD PTR _this$[ebp]
  01328	66 89 4a 22	 mov	 WORD PTR [edx+34], cx
  0132c	eb 31		 jmp	 SHORT $LN245@Convert
$LN247@Convert:

; 682  : 				}
; 683  : 				else if ( p->Level != 0 )

  0132e	8b 45 f0	 mov	 eax, DWORD PTR _p$[ebp]
  01331	0f b6 48 22	 movzx	 ecx, BYTE PTR [eax+34]
  01335	85 c9		 test	 ecx, ecx
  01337	74 26		 je	 SHORT $LN245@Convert

; 684  : 				{
; 685  : 					this->m_BookSpell += (this->m_BookSpell * 25) / p->Level + 5;

  01339	8b 45 fc	 mov	 eax, DWORD PTR _this$[ebp]
  0133c	0f b7 40 22	 movzx	 eax, WORD PTR [eax+34]
  01340	6b c0 19	 imul	 eax, 25			; 00000019H
  01343	8b 4d f0	 mov	 ecx, DWORD PTR _p$[ebp]
  01346	0f b6 49 22	 movzx	 ecx, BYTE PTR [ecx+34]
  0134a	99		 cdq
  0134b	f7 f9		 idiv	 ecx
  0134d	8b 55 fc	 mov	 edx, DWORD PTR _this$[ebp]
  01350	0f b7 4a 22	 movzx	 ecx, WORD PTR [edx+34]
  01354	8d 54 01 05	 lea	 edx, DWORD PTR [ecx+eax+5]
  01358	8b 45 fc	 mov	 eax, DWORD PTR _this$[ebp]
  0135b	66 89 50 22	 mov	 WORD PTR [eax+34], dx
$LN245@Convert:

; 686  : 				}
; 687  : 			}
; 688  : 		}
; 689  : 
; 690  : 		this->m_BookSpell += this->m_Level * 3;

  0135f	8b 45 fc	 mov	 eax, DWORD PTR _this$[ebp]
  01362	0f bf 48 08	 movsx	 ecx, WORD PTR [eax+8]
  01366	6b c9 03	 imul	 ecx, 3
  01369	8b 55 fc	 mov	 edx, DWORD PTR _this$[ebp]
  0136c	0f b7 42 22	 movzx	 eax, WORD PTR [edx+34]
  01370	03 c1		 add	 eax, ecx
  01372	8b 4d fc	 mov	 ecx, DWORD PTR _this$[ebp]
  01375	66 89 41 22	 mov	 WORD PTR [ecx+34], ax

; 691  : 
; 692  : 		if ( this->m_Level >= 10 )

  01379	8b 45 fc	 mov	 eax, DWORD PTR _this$[ebp]
  0137c	0f bf 48 08	 movsx	 ecx, WORD PTR [eax+8]
  01380	83 f9 0a	 cmp	 ecx, 10			; 0000000aH
  01383	7c 2c		 jl	 SHORT $LN244@Convert

; 693  : 		{
; 694  : 			this->m_BookSpell += (this->m_Level - 9) * (this->m_Level - 8) / 2;

  01385	8b 45 fc	 mov	 eax, DWORD PTR _this$[ebp]
  01388	0f bf 40 08	 movsx	 eax, WORD PTR [eax+8]
  0138c	83 e8 09	 sub	 eax, 9
  0138f	8b 4d fc	 mov	 ecx, DWORD PTR _this$[ebp]
  01392	0f bf 51 08	 movsx	 edx, WORD PTR [ecx+8]
  01396	83 ea 08	 sub	 edx, 8
  01399	0f af c2	 imul	 eax, edx
  0139c	99		 cdq
  0139d	2b c2		 sub	 eax, edx
  0139f	d1 f8		 sar	 eax, 1
  013a1	8b 4d fc	 mov	 ecx, DWORD PTR _this$[ebp]
  013a4	0f b7 51 22	 movzx	 edx, WORD PTR [ecx+34]
  013a8	03 d0		 add	 edx, eax
  013aa	8b 45 fc	 mov	 eax, DWORD PTR _this$[ebp]
  013ad	66 89 50 22	 mov	 WORD PTR [eax+34], dx
$LN244@Convert:

; 695  : 		}
; 696  : 	}
; 697  : 
; 698  : 	if ( p->SuccessfulBlocking > 0 )	

  013b1	8b 45 f0	 mov	 eax, DWORD PTR _p$[ebp]
  013b4	0f b6 48 2c	 movzx	 ecx, BYTE PTR [eax+44]
  013b8	85 c9		 test	 ecx, ecx
  013ba	0f 8e e0 00 00
	00		 jle	 $LN238@Convert

; 699  : 	{
; 700  : 		if ( this->m_SetOption != 0 && ItemLevel != 0 )

  013c0	8b 45 fc	 mov	 eax, DWORD PTR _this$[ebp]
  013c3	0f b6 88 ae 00
	00 00		 movzx	 ecx, BYTE PTR [eax+174]
  013ca	85 c9		 test	 ecx, ecx
  013cc	74 49		 je	 SHORT $LN242@Convert
  013ce	83 7d f4 00	 cmp	 DWORD PTR _ItemLevel$[ebp], 0
  013d2	74 43		 je	 SHORT $LN242@Convert

; 701  : 		{
; 702  : 			this->m_SuccessfulBlocking += (this->m_SuccessfulBlocking * 25) / p->Level + 5;

  013d4	8b 45 fc	 mov	 eax, DWORD PTR _this$[ebp]
  013d7	0f b6 40 14	 movzx	 eax, BYTE PTR [eax+20]
  013db	6b c0 19	 imul	 eax, 25			; 00000019H
  013de	8b 4d f0	 mov	 ecx, DWORD PTR _p$[ebp]
  013e1	0f b6 49 22	 movzx	 ecx, BYTE PTR [ecx+34]
  013e5	99		 cdq
  013e6	f7 f9		 idiv	 ecx
  013e8	8b 55 fc	 mov	 edx, DWORD PTR _this$[ebp]
  013eb	0f b6 4a 14	 movzx	 ecx, BYTE PTR [edx+20]
  013ef	8d 54 01 05	 lea	 edx, DWORD PTR [ecx+eax+5]
  013f3	8b 45 fc	 mov	 eax, DWORD PTR _this$[ebp]
  013f6	88 50 14	 mov	 BYTE PTR [eax+20], dl

; 703  : 			this->m_SuccessfulBlocking += ItemLevel / 40 + 5;

  013f9	8b 45 f4	 mov	 eax, DWORD PTR _ItemLevel$[ebp]
  013fc	99		 cdq
  013fd	b9 28 00 00 00	 mov	 ecx, 40			; 00000028H
  01402	f7 f9		 idiv	 ecx
  01404	8b 55 fc	 mov	 edx, DWORD PTR _this$[ebp]
  01407	0f b6 4a 14	 movzx	 ecx, BYTE PTR [edx+20]
  0140b	8d 54 01 05	 lea	 edx, DWORD PTR [ecx+eax+5]
  0140f	8b 45 fc	 mov	 eax, DWORD PTR _this$[ebp]
  01412	88 50 14	 mov	 BYTE PTR [eax+20], dl

; 704  : 		}
; 705  : 		else

  01415	eb 39		 jmp	 SHORT $LN239@Convert
$LN242@Convert:

; 706  : 		{
; 707  : 			if ( (Attribute2 & 0x3F)  > 0 )

  01417	0f b6 45 18	 movzx	 eax, BYTE PTR _Attribute2$[ebp]
  0141b	83 e0 3f	 and	 eax, 63			; 0000003fH
  0141e	7e 30		 jle	 SHORT $LN239@Convert

; 708  : 			{
; 709  : 				if ( p->Level != 0 )

  01420	8b 45 f0	 mov	 eax, DWORD PTR _p$[ebp]
  01423	0f b6 48 22	 movzx	 ecx, BYTE PTR [eax+34]
  01427	85 c9		 test	 ecx, ecx
  01429	74 25		 je	 SHORT $LN239@Convert

; 710  : 				{
; 711  : 					this->m_SuccessfulBlocking += (this->m_SuccessfulBlocking * 25) / p->Level + 5;

  0142b	8b 45 fc	 mov	 eax, DWORD PTR _this$[ebp]
  0142e	0f b6 40 14	 movzx	 eax, BYTE PTR [eax+20]
  01432	6b c0 19	 imul	 eax, 25			; 00000019H
  01435	8b 4d f0	 mov	 ecx, DWORD PTR _p$[ebp]
  01438	0f b6 49 22	 movzx	 ecx, BYTE PTR [ecx+34]
  0143c	99		 cdq
  0143d	f7 f9		 idiv	 ecx
  0143f	8b 55 fc	 mov	 edx, DWORD PTR _this$[ebp]
  01442	0f b6 4a 14	 movzx	 ecx, BYTE PTR [edx+20]
  01446	8d 54 01 05	 lea	 edx, DWORD PTR [ecx+eax+5]
  0144a	8b 45 fc	 mov	 eax, DWORD PTR _this$[ebp]
  0144d	88 50 14	 mov	 BYTE PTR [eax+20], dl
$LN239@Convert:

; 712  : 				}
; 713  : 			}
; 714  : 		}
; 715  : 
; 716  : 		this->m_SuccessfulBlocking += this->m_Level * 3;

  01450	8b 45 fc	 mov	 eax, DWORD PTR _this$[ebp]
  01453	0f bf 48 08	 movsx	 ecx, WORD PTR [eax+8]
  01457	6b c9 03	 imul	 ecx, 3
  0145a	8b 55 fc	 mov	 edx, DWORD PTR _this$[ebp]
  0145d	0f b6 42 14	 movzx	 eax, BYTE PTR [edx+20]
  01461	03 c1		 add	 eax, ecx
  01463	8b 4d fc	 mov	 ecx, DWORD PTR _this$[ebp]
  01466	88 41 14	 mov	 BYTE PTR [ecx+20], al

; 717  : 
; 718  : 		if ( this->m_Level >= 10 )

  01469	8b 45 fc	 mov	 eax, DWORD PTR _this$[ebp]
  0146c	0f bf 48 08	 movsx	 ecx, WORD PTR [eax+8]
  01470	83 f9 0a	 cmp	 ecx, 10			; 0000000aH
  01473	7c 2b		 jl	 SHORT $LN238@Convert

; 719  : 		{
; 720  : 			this->m_SuccessfulBlocking += (this->m_Level - 9) * (this->m_Level - 8) / 2;

  01475	8b 45 fc	 mov	 eax, DWORD PTR _this$[ebp]
  01478	0f bf 40 08	 movsx	 eax, WORD PTR [eax+8]
  0147c	83 e8 09	 sub	 eax, 9
  0147f	8b 4d fc	 mov	 ecx, DWORD PTR _this$[ebp]
  01482	0f bf 51 08	 movsx	 edx, WORD PTR [ecx+8]
  01486	83 ea 08	 sub	 edx, 8
  01489	0f af c2	 imul	 eax, edx
  0148c	99		 cdq
  0148d	2b c2		 sub	 eax, edx
  0148f	d1 f8		 sar	 eax, 1
  01491	8b 4d fc	 mov	 ecx, DWORD PTR _this$[ebp]
  01494	0f b6 51 14	 movzx	 edx, BYTE PTR [ecx+20]
  01498	03 d0		 add	 edx, eax
  0149a	8b 45 fc	 mov	 eax, DWORD PTR _this$[ebp]
  0149d	88 50 14	 mov	 BYTE PTR [eax+20], dl
$LN238@Convert:

; 721  : 		}
; 722  : 	}
; 723  : 
; 724  : 	if ( p->Defense > 0 )	

  014a0	8b 45 f0	 mov	 eax, DWORD PTR _p$[ebp]
  014a3	0f b6 48 2d	 movzx	 ecx, BYTE PTR [eax+45]
  014a7	85 c9		 test	 ecx, ecx
  014a9	0f 8e 11 04 00
	00		 jle	 $LN208@Convert

; 725  : 	{
; 726  : 		if ( this->m_Type >= ITEMGET(6,0) && this->m_Type < ITEMGET(7,0) )

  014af	8b 45 fc	 mov	 eax, DWORD PTR _this$[ebp]
  014b2	0f bf 48 06	 movsx	 ecx, WORD PTR [eax+6]
  014b6	81 f9 00 0c 00
	00		 cmp	 ecx, 3072		; 00000c00H
  014bc	7c 5f		 jl	 SHORT $LN236@Convert
  014be	8b 45 fc	 mov	 eax, DWORD PTR _this$[ebp]
  014c1	0f bf 48 06	 movsx	 ecx, WORD PTR [eax+6]
  014c5	81 f9 00 0e 00
	00		 cmp	 ecx, 3584		; 00000e00H
  014cb	7d 50		 jge	 SHORT $LN236@Convert

; 727  : 		{
; 728  : 			this->m_Defense += this->m_Level;

  014cd	8b 45 fc	 mov	 eax, DWORD PTR _this$[ebp]
  014d0	0f bf 48 08	 movsx	 ecx, WORD PTR [eax+8]
  014d4	8b 55 fc	 mov	 edx, DWORD PTR _this$[ebp]
  014d7	0f b7 42 16	 movzx	 eax, WORD PTR [edx+22]
  014db	03 c1		 add	 eax, ecx
  014dd	8b 4d fc	 mov	 ecx, DWORD PTR _this$[ebp]
  014e0	66 89 41 16	 mov	 WORD PTR [ecx+22], ax

; 729  : 
; 730  : 			if ( this->m_SetOption != 0 && ItemLevel != 0 )

  014e4	8b 45 fc	 mov	 eax, DWORD PTR _this$[ebp]
  014e7	0f b6 88 ae 00
	00 00		 movzx	 ecx, BYTE PTR [eax+174]
  014ee	85 c9		 test	 ecx, ecx
  014f0	74 26		 je	 SHORT $LN235@Convert
  014f2	83 7d f4 00	 cmp	 DWORD PTR _ItemLevel$[ebp], 0
  014f6	74 20		 je	 SHORT $LN235@Convert

; 731  : 			{
; 732  : 				this->m_Defense += (this->m_Defense * 20) / ItemLevel + 2;

  014f8	8b 45 fc	 mov	 eax, DWORD PTR _this$[ebp]
  014fb	0f b7 40 16	 movzx	 eax, WORD PTR [eax+22]
  014ff	6b c0 14	 imul	 eax, 20			; 00000014H
  01502	99		 cdq
  01503	f7 7d f4	 idiv	 DWORD PTR _ItemLevel$[ebp]
  01506	8b 4d fc	 mov	 ecx, DWORD PTR _this$[ebp]
  01509	0f b7 51 16	 movzx	 edx, WORD PTR [ecx+22]
  0150d	8d 44 02 02	 lea	 eax, DWORD PTR [edx+eax+2]
  01511	8b 4d fc	 mov	 ecx, DWORD PTR _this$[ebp]
  01514	66 89 41 16	 mov	 WORD PTR [ecx+22], ax
$LN235@Convert:

; 733  : 			}
; 734  : 		}
; 735  : 		else 

  01518	e9 a3 03 00 00	 jmp	 $LN208@Convert
$LN236@Convert:

; 736  : 		{
; 737  : 			if ( this->m_SetOption != 0 && ItemLevel != 0 )

  0151d	8b 45 fc	 mov	 eax, DWORD PTR _this$[ebp]
  01520	0f b6 88 ae 00
	00 00		 movzx	 ecx, BYTE PTR [eax+174]
  01527	85 c9		 test	 ecx, ecx
  01529	74 70		 je	 SHORT $LN233@Convert
  0152b	83 7d f4 00	 cmp	 DWORD PTR _ItemLevel$[ebp], 0
  0152f	74 6a		 je	 SHORT $LN233@Convert

; 738  : 			{
; 739  : 				this->m_Defense += (this->m_Defense * 12) / p->Level + (p->Level / 5 ) + 4;

  01531	8b 45 fc	 mov	 eax, DWORD PTR _this$[ebp]
  01534	0f b7 40 16	 movzx	 eax, WORD PTR [eax+22]
  01538	6b c0 0c	 imul	 eax, 12			; 0000000cH
  0153b	8b 4d f0	 mov	 ecx, DWORD PTR _p$[ebp]
  0153e	0f b6 49 22	 movzx	 ecx, BYTE PTR [ecx+34]
  01542	99		 cdq
  01543	f7 f9		 idiv	 ecx
  01545	8b c8		 mov	 ecx, eax
  01547	8b 55 f0	 mov	 edx, DWORD PTR _p$[ebp]
  0154a	0f b6 42 22	 movzx	 eax, BYTE PTR [edx+34]
  0154e	99		 cdq
  0154f	be 05 00 00 00	 mov	 esi, 5
  01554	f7 fe		 idiv	 esi
  01556	03 c8		 add	 ecx, eax
  01558	8b 45 fc	 mov	 eax, DWORD PTR _this$[ebp]
  0155b	0f b7 50 16	 movzx	 edx, WORD PTR [eax+22]
  0155f	8d 44 0a 04	 lea	 eax, DWORD PTR [edx+ecx+4]
  01563	8b 4d fc	 mov	 ecx, DWORD PTR _this$[ebp]
  01566	66 89 41 16	 mov	 WORD PTR [ecx+22], ax

; 740  : 				this->m_Defense += (this->m_Defense * 3) / ItemLevel  + ( ItemLevel / 30 ) + 2;

  0156a	8b 45 fc	 mov	 eax, DWORD PTR _this$[ebp]
  0156d	0f b7 40 16	 movzx	 eax, WORD PTR [eax+22]
  01571	6b c0 03	 imul	 eax, 3
  01574	99		 cdq
  01575	f7 7d f4	 idiv	 DWORD PTR _ItemLevel$[ebp]
  01578	8b c8		 mov	 ecx, eax
  0157a	8b 45 f4	 mov	 eax, DWORD PTR _ItemLevel$[ebp]
  0157d	99		 cdq
  0157e	be 1e 00 00 00	 mov	 esi, 30			; 0000001eH
  01583	f7 fe		 idiv	 esi
  01585	03 c8		 add	 ecx, eax
  01587	8b 55 fc	 mov	 edx, DWORD PTR _this$[ebp]
  0158a	0f b7 42 16	 movzx	 eax, WORD PTR [edx+22]
  0158e	8d 4c 08 02	 lea	 ecx, DWORD PTR [eax+ecx+2]
  01592	8b 55 fc	 mov	 edx, DWORD PTR _this$[ebp]
  01595	66 89 4a 16	 mov	 WORD PTR [edx+22], cx
  01599	eb 4d		 jmp	 SHORT $LN230@Convert
$LN233@Convert:

; 741  : 			}
; 742  : 			else if ( (Attribute2 & 0x3F) > 0 )

  0159b	0f b6 45 18	 movzx	 eax, BYTE PTR _Attribute2$[ebp]
  0159f	83 e0 3f	 and	 eax, 63			; 0000003fH
  015a2	7e 44		 jle	 SHORT $LN230@Convert

; 743  : 			{
; 744  : 				if ( p->Level != 0 )

  015a4	8b 45 f0	 mov	 eax, DWORD PTR _p$[ebp]
  015a7	0f b6 48 22	 movzx	 ecx, BYTE PTR [eax+34]
  015ab	85 c9		 test	 ecx, ecx
  015ad	74 39		 je	 SHORT $LN230@Convert

; 745  : 				{
; 746  : 					this->m_Defense += (this->m_Defense * 12) / p->Level + (p->Level / 5 ) + 4;

  015af	8b 45 fc	 mov	 eax, DWORD PTR _this$[ebp]
  015b2	0f b7 40 16	 movzx	 eax, WORD PTR [eax+22]
  015b6	6b c0 0c	 imul	 eax, 12			; 0000000cH
  015b9	8b 4d f0	 mov	 ecx, DWORD PTR _p$[ebp]
  015bc	0f b6 49 22	 movzx	 ecx, BYTE PTR [ecx+34]
  015c0	99		 cdq
  015c1	f7 f9		 idiv	 ecx
  015c3	8b c8		 mov	 ecx, eax
  015c5	8b 55 f0	 mov	 edx, DWORD PTR _p$[ebp]
  015c8	0f b6 42 22	 movzx	 eax, BYTE PTR [edx+34]
  015cc	99		 cdq
  015cd	be 05 00 00 00	 mov	 esi, 5
  015d2	f7 fe		 idiv	 esi
  015d4	03 c8		 add	 ecx, eax
  015d6	8b 45 fc	 mov	 eax, DWORD PTR _this$[ebp]
  015d9	0f b7 50 16	 movzx	 edx, WORD PTR [eax+22]
  015dd	8d 44 0a 04	 lea	 eax, DWORD PTR [edx+ecx+4]
  015e1	8b 4d fc	 mov	 ecx, DWORD PTR _this$[ebp]
  015e4	66 89 41 16	 mov	 WORD PTR [ecx+22], ax
$LN230@Convert:

; 747  : 				}
; 748  : 			}
; 749  : 			
; 750  : 			if ( ( _type >= ITEMGET(12,36) && _type <= ITEMGET(12,40)) )

  015e8	81 7d f8 24 18
	00 00		 cmp	 DWORD PTR __type$[ebp], 6180 ; 00001824H
  015ef	7c 46		 jl	 SHORT $LN228@Convert
  015f1	81 7d f8 28 18
	00 00		 cmp	 DWORD PTR __type$[ebp], 6184 ; 00001828H
  015f8	7f 3d		 jg	 SHORT $LN228@Convert

; 751  : 			{
; 752  : 				this->m_Defense += this->m_Level * 4;

  015fa	8b 45 fc	 mov	 eax, DWORD PTR _this$[ebp]
  015fd	0f bf 48 08	 movsx	 ecx, WORD PTR [eax+8]
  01601	8b 55 fc	 mov	 edx, DWORD PTR _this$[ebp]
  01604	0f b7 42 16	 movzx	 eax, WORD PTR [edx+22]
  01608	8d 0c 88	 lea	 ecx, DWORD PTR [eax+ecx*4]
  0160b	8b 55 fc	 mov	 edx, DWORD PTR _this$[ebp]
  0160e	66 89 4a 16	 mov	 WORD PTR [edx+22], cx

; 753  : 
; 754  : 				if ( this->m_Level >= 10 )

  01612	8b 45 fc	 mov	 eax, DWORD PTR _this$[ebp]
  01615	0f bf 48 08	 movsx	 ecx, WORD PTR [eax+8]
  01619	83 f9 0a	 cmp	 ecx, 10			; 0000000aH
  0161c	7c 19		 jl	 SHORT $LN228@Convert

; 755  : 				{
; 756  : 					this->m_Defense += (this->m_Level - 9);

  0161e	8b 45 fc	 mov	 eax, DWORD PTR _this$[ebp]
  01621	0f bf 48 08	 movsx	 ecx, WORD PTR [eax+8]
  01625	8b 55 fc	 mov	 edx, DWORD PTR _this$[ebp]
  01628	0f b7 42 16	 movzx	 eax, WORD PTR [edx+22]
  0162c	8d 4c 08 f7	 lea	 ecx, DWORD PTR [eax+ecx-9]
  01630	8b 55 fc	 mov	 edx, DWORD PTR _this$[ebp]
  01633	66 89 4a 16	 mov	 WORD PTR [edx+22], cx
$LN228@Convert:

; 757  : 				}
; 758  : 			}
; 759  : 			if ( _type == MuItem::miCAPE_FIGTHER )

  01637	81 7d f8 31 18
	00 00		 cmp	 DWORD PTR __type$[ebp], 6193 ; 00001831H
  0163e	75 4f		 jne	 SHORT $LN227@Convert

; 760  : 			{
; 761  : 				this->m_Defense = 2 * this->m_Level + 10;

  01640	8b 45 fc	 mov	 eax, DWORD PTR _this$[ebp]
  01643	0f bf 48 08	 movsx	 ecx, WORD PTR [eax+8]
  01647	8d 54 09 0a	 lea	 edx, DWORD PTR [ecx+ecx+10]
  0164b	8b 45 fc	 mov	 eax, DWORD PTR _this$[ebp]
  0164e	66 89 50 16	 mov	 WORD PTR [eax+22], dx

; 762  : 				if ( this->m_Level >= 10 )

  01652	8b 45 fc	 mov	 eax, DWORD PTR _this$[ebp]
  01655	0f bf 48 08	 movsx	 ecx, WORD PTR [eax+8]
  01659	83 f9 0a	 cmp	 ecx, 10			; 0000000aH
  0165c	7c 2c		 jl	 SHORT $LN226@Convert

; 763  : 				{
; 764  : 					this->m_Defense += (this->m_Level - 8) * (this->m_Level - 9) / 2;

  0165e	8b 45 fc	 mov	 eax, DWORD PTR _this$[ebp]
  01661	0f bf 40 08	 movsx	 eax, WORD PTR [eax+8]
  01665	83 e8 08	 sub	 eax, 8
  01668	8b 4d fc	 mov	 ecx, DWORD PTR _this$[ebp]
  0166b	0f bf 51 08	 movsx	 edx, WORD PTR [ecx+8]
  0166f	83 ea 09	 sub	 edx, 9
  01672	0f af c2	 imul	 eax, edx
  01675	99		 cdq
  01676	2b c2		 sub	 eax, edx
  01678	d1 f8		 sar	 eax, 1
  0167a	8b 4d fc	 mov	 ecx, DWORD PTR _this$[ebp]
  0167d	0f b7 51 16	 movzx	 edx, WORD PTR [ecx+22]
  01681	03 d0		 add	 edx, eax
  01683	8b 45 fc	 mov	 eax, DWORD PTR _this$[ebp]
  01686	66 89 50 16	 mov	 WORD PTR [eax+22], dx
$LN226@Convert:

; 765  : 				}
; 766  : 			}

  0168a	e9 f9 01 00 00	 jmp	 $LN209@Convert
$LN227@Convert:

; 767  : #ifdef NEWWINGS_4
; 768  : 			else if ( IS_NEWWINGS_4(_type) )	//Custom Wings4

  0168f	81 7d f8 b4 18
	00 00		 cmp	 DWORD PTR __type$[ebp], 6324 ; 000018b4H
  01696	7d 09		 jge	 SHORT $LN411@Convert
  01698	c7 45 8c 00 00
	00 00		 mov	 DWORD PTR tv1151[ebp], 0
  0169f	eb 0f		 jmp	 SHORT $LN412@Convert
$LN411@Convert:
  016a1	33 c0		 xor	 eax, eax
  016a3	81 7d f8 b9 18
	00 00		 cmp	 DWORD PTR __type$[ebp], 6329 ; 000018b9H
  016aa	0f 9e c0	 setle	 al
  016ad	89 45 8c	 mov	 DWORD PTR tv1151[ebp], eax
$LN412@Convert:
  016b0	83 7d 8c 00	 cmp	 DWORD PTR tv1151[ebp], 0
  016b4	74 42		 je	 SHORT $LN224@Convert

; 769  : 			{
; 770  : 				this->m_Defense += this->m_Level * 4;

  016b6	8b 45 fc	 mov	 eax, DWORD PTR _this$[ebp]
  016b9	0f bf 48 08	 movsx	 ecx, WORD PTR [eax+8]
  016bd	8b 55 fc	 mov	 edx, DWORD PTR _this$[ebp]
  016c0	0f b7 42 16	 movzx	 eax, WORD PTR [edx+22]
  016c4	8d 0c 88	 lea	 ecx, DWORD PTR [eax+ecx*4]
  016c7	8b 55 fc	 mov	 edx, DWORD PTR _this$[ebp]
  016ca	66 89 4a 16	 mov	 WORD PTR [edx+22], cx

; 771  : 
; 772  : 				if ( this->m_Level >= 10 )

  016ce	8b 45 fc	 mov	 eax, DWORD PTR _this$[ebp]
  016d1	0f bf 48 08	 movsx	 ecx, WORD PTR [eax+8]
  016d5	83 f9 0a	 cmp	 ecx, 10			; 0000000aH
  016d8	7c 19		 jl	 SHORT $LN223@Convert

; 773  : 				{
; 774  : 					this->m_Defense += (this->m_Level - 9);

  016da	8b 45 fc	 mov	 eax, DWORD PTR _this$[ebp]
  016dd	0f bf 48 08	 movsx	 ecx, WORD PTR [eax+8]
  016e1	8b 55 fc	 mov	 edx, DWORD PTR _this$[ebp]
  016e4	0f b7 42 16	 movzx	 eax, WORD PTR [edx+22]
  016e8	8d 4c 08 f7	 lea	 ecx, DWORD PTR [eax+ecx-9]
  016ec	8b 55 fc	 mov	 edx, DWORD PTR _this$[ebp]
  016ef	66 89 4a 16	 mov	 WORD PTR [edx+22], cx
$LN223@Convert:

; 775  : 				}
; 776  : 			}

  016f3	e9 90 01 00 00	 jmp	 $LN209@Convert
$LN224@Convert:

; 777  : #endif
; 778  : #ifdef NEWWINGS_2_5
; 779  : 			else if ( IS_NEWWINGS_2_5(_type) )	//Custom Wings4

  016f8	81 7d f8 ba 18
	00 00		 cmp	 DWORD PTR __type$[ebp], 6330 ; 000018baH
  016ff	7d 09		 jge	 SHORT $LN413@Convert
  01701	c7 45 8c 00 00
	00 00		 mov	 DWORD PTR tv1175[ebp], 0
  01708	eb 0f		 jmp	 SHORT $LN414@Convert
$LN413@Convert:
  0170a	33 c0		 xor	 eax, eax
  0170c	81 7d f8 bc 18
	00 00		 cmp	 DWORD PTR __type$[ebp], 6332 ; 000018bcH
  01713	0f 9e c0	 setle	 al
  01716	89 45 8c	 mov	 DWORD PTR tv1175[ebp], eax
$LN414@Convert:
  01719	83 7d 8c 00	 cmp	 DWORD PTR tv1175[ebp], 0
  0171d	74 42		 je	 SHORT $LN221@Convert

; 780  : 			{
; 781  : 				this->m_Defense += this->m_Level * 4;

  0171f	8b 45 fc	 mov	 eax, DWORD PTR _this$[ebp]
  01722	0f bf 48 08	 movsx	 ecx, WORD PTR [eax+8]
  01726	8b 55 fc	 mov	 edx, DWORD PTR _this$[ebp]
  01729	0f b7 42 16	 movzx	 eax, WORD PTR [edx+22]
  0172d	8d 0c 88	 lea	 ecx, DWORD PTR [eax+ecx*4]
  01730	8b 55 fc	 mov	 edx, DWORD PTR _this$[ebp]
  01733	66 89 4a 16	 mov	 WORD PTR [edx+22], cx

; 782  : 
; 783  : 				if ( this->m_Level >= 10 )

  01737	8b 45 fc	 mov	 eax, DWORD PTR _this$[ebp]
  0173a	0f bf 48 08	 movsx	 ecx, WORD PTR [eax+8]
  0173e	83 f9 0a	 cmp	 ecx, 10			; 0000000aH
  01741	7c 19		 jl	 SHORT $LN220@Convert

; 784  : 				{
; 785  : 					this->m_Defense += (this->m_Level - 9);

  01743	8b 45 fc	 mov	 eax, DWORD PTR _this$[ebp]
  01746	0f bf 48 08	 movsx	 ecx, WORD PTR [eax+8]
  0174a	8b 55 fc	 mov	 edx, DWORD PTR _this$[ebp]
  0174d	0f b7 42 16	 movzx	 eax, WORD PTR [edx+22]
  01751	8d 4c 08 f7	 lea	 ecx, DWORD PTR [eax+ecx-9]
  01755	8b 55 fc	 mov	 edx, DWORD PTR _this$[ebp]
  01758	66 89 4a 16	 mov	 WORD PTR [edx+22], cx
$LN220@Convert:

; 786  : 				}
; 787  : 			}

  0175c	e9 27 01 00 00	 jmp	 $LN209@Convert
$LN221@Convert:

; 788  : #endif
; 789  : #ifdef NEWWINGS_5
; 790  : 			else if ( IS_NEWWINGS_5(_type) )

  01761	81 7d f8 bd 18
	00 00		 cmp	 DWORD PTR __type$[ebp], 6333 ; 000018bdH
  01768	7d 09		 jge	 SHORT $LN415@Convert
  0176a	c7 45 8c 00 00
	00 00		 mov	 DWORD PTR tv1199[ebp], 0
  01771	eb 0f		 jmp	 SHORT $LN416@Convert
$LN415@Convert:
  01773	33 c0		 xor	 eax, eax
  01775	81 7d f8 c2 18
	00 00		 cmp	 DWORD PTR __type$[ebp], 6338 ; 000018c2H
  0177c	0f 9e c0	 setle	 al
  0177f	89 45 8c	 mov	 DWORD PTR tv1199[ebp], eax
$LN416@Convert:
  01782	83 7d 8c 00	 cmp	 DWORD PTR tv1199[ebp], 0
  01786	74 42		 je	 SHORT $LN218@Convert

; 791  : 			{
; 792  : 				this->m_Defense += this->m_Level * 4;

  01788	8b 45 fc	 mov	 eax, DWORD PTR _this$[ebp]
  0178b	0f bf 48 08	 movsx	 ecx, WORD PTR [eax+8]
  0178f	8b 55 fc	 mov	 edx, DWORD PTR _this$[ebp]
  01792	0f b7 42 16	 movzx	 eax, WORD PTR [edx+22]
  01796	8d 0c 88	 lea	 ecx, DWORD PTR [eax+ecx*4]
  01799	8b 55 fc	 mov	 edx, DWORD PTR _this$[ebp]
  0179c	66 89 4a 16	 mov	 WORD PTR [edx+22], cx

; 793  : 
; 794  : 				if ( this->m_Level >= 10 )

  017a0	8b 45 fc	 mov	 eax, DWORD PTR _this$[ebp]
  017a3	0f bf 48 08	 movsx	 ecx, WORD PTR [eax+8]
  017a7	83 f9 0a	 cmp	 ecx, 10			; 0000000aH
  017aa	7c 19		 jl	 SHORT $LN217@Convert

; 795  : 				{
; 796  : 					this->m_Defense += (this->m_Level - 9);

  017ac	8b 45 fc	 mov	 eax, DWORD PTR _this$[ebp]
  017af	0f bf 48 08	 movsx	 ecx, WORD PTR [eax+8]
  017b3	8b 55 fc	 mov	 edx, DWORD PTR _this$[ebp]
  017b6	0f b7 42 16	 movzx	 eax, WORD PTR [edx+22]
  017ba	8d 4c 08 f7	 lea	 ecx, DWORD PTR [eax+ecx-9]
  017be	8b 55 fc	 mov	 edx, DWORD PTR _this$[ebp]
  017c1	66 89 4a 16	 mov	 WORD PTR [edx+22], cx
$LN217@Convert:

; 797  : 				}
; 798  : 			}

  017c5	e9 be 00 00 00	 jmp	 $LN209@Convert
$LN218@Convert:

; 799  : #endif
; 800  : #ifdef NEWWINGS_6
; 801  : 			else if ( IS_NEWWINGS_6(_type) )

  017ca	81 7d f8 c3 18
	00 00		 cmp	 DWORD PTR __type$[ebp], 6339 ; 000018c3H
  017d1	7d 09		 jge	 SHORT $LN417@Convert
  017d3	c7 45 8c 00 00
	00 00		 mov	 DWORD PTR tv1223[ebp], 0
  017da	eb 0f		 jmp	 SHORT $LN418@Convert
$LN417@Convert:
  017dc	33 c0		 xor	 eax, eax
  017de	81 7d f8 dc 18
	00 00		 cmp	 DWORD PTR __type$[ebp], 6364 ; 000018dcH
  017e5	0f 9e c0	 setle	 al
  017e8	89 45 8c	 mov	 DWORD PTR tv1223[ebp], eax
$LN418@Convert:
  017eb	83 7d 8c 00	 cmp	 DWORD PTR tv1223[ebp], 0
  017ef	74 3f		 je	 SHORT $LN215@Convert

; 802  : 			{
; 803  : 				this->m_Defense += this->m_Level * 4;

  017f1	8b 45 fc	 mov	 eax, DWORD PTR _this$[ebp]
  017f4	0f bf 48 08	 movsx	 ecx, WORD PTR [eax+8]
  017f8	8b 55 fc	 mov	 edx, DWORD PTR _this$[ebp]
  017fb	0f b7 42 16	 movzx	 eax, WORD PTR [edx+22]
  017ff	8d 0c 88	 lea	 ecx, DWORD PTR [eax+ecx*4]
  01802	8b 55 fc	 mov	 edx, DWORD PTR _this$[ebp]
  01805	66 89 4a 16	 mov	 WORD PTR [edx+22], cx

; 804  : 
; 805  : 				if ( this->m_Level >= 10 )

  01809	8b 45 fc	 mov	 eax, DWORD PTR _this$[ebp]
  0180c	0f bf 48 08	 movsx	 ecx, WORD PTR [eax+8]
  01810	83 f9 0a	 cmp	 ecx, 10			; 0000000aH
  01813	7c 19		 jl	 SHORT $LN214@Convert

; 806  : 				{
; 807  : 					this->m_Defense += (this->m_Level - 9);

  01815	8b 45 fc	 mov	 eax, DWORD PTR _this$[ebp]
  01818	0f bf 48 08	 movsx	 ecx, WORD PTR [eax+8]
  0181c	8b 55 fc	 mov	 edx, DWORD PTR _this$[ebp]
  0181f	0f b7 42 16	 movzx	 eax, WORD PTR [edx+22]
  01823	8d 4c 08 f7	 lea	 ecx, DWORD PTR [eax+ecx-9]
  01827	8b 55 fc	 mov	 edx, DWORD PTR _this$[ebp]
  0182a	66 89 4a 16	 mov	 WORD PTR [edx+22], cx
$LN214@Convert:

; 808  : 				}
; 809  : 			}

  0182e	eb 58		 jmp	 SHORT $LN209@Convert
$LN215@Convert:

; 810  : #endif
; 811  : 			else if ( ( _type >= ITEMGET(12,3) && _type <= ITEMGET(12,6)) || _type == ITEMGET(13,30) || _type == ITEMGET(13,4) )

  01830	81 7d f8 03 18
	00 00		 cmp	 DWORD PTR __type$[ebp], 6147 ; 00001803H
  01837	7c 09		 jl	 SHORT $LN210@Convert
  01839	81 7d f8 06 18
	00 00		 cmp	 DWORD PTR __type$[ebp], 6150 ; 00001806H
  01840	7e 12		 jle	 SHORT $LN211@Convert
$LN210@Convert:
  01842	81 7d f8 1e 1a
	00 00		 cmp	 DWORD PTR __type$[ebp], 6686 ; 00001a1eH
  01849	74 09		 je	 SHORT $LN211@Convert
  0184b	81 7d f8 04 1a
	00 00		 cmp	 DWORD PTR __type$[ebp], 6660 ; 00001a04H
  01852	75 1a		 jne	 SHORT $LN212@Convert
$LN211@Convert:

; 812  : 			{
; 813  : 				this->m_Defense += this->m_Level * 2;

  01854	8b 45 fc	 mov	 eax, DWORD PTR _this$[ebp]
  01857	0f bf 48 08	 movsx	 ecx, WORD PTR [eax+8]
  0185b	8b 55 fc	 mov	 edx, DWORD PTR _this$[ebp]
  0185e	0f b7 42 16	 movzx	 eax, WORD PTR [edx+22]
  01862	8d 0c 48	 lea	 ecx, DWORD PTR [eax+ecx*2]
  01865	8b 55 fc	 mov	 edx, DWORD PTR _this$[ebp]
  01868	66 89 4a 16	 mov	 WORD PTR [edx+22], cx

; 814  : 			}
; 815  : 			else

  0186c	eb 1a		 jmp	 SHORT $LN209@Convert
$LN212@Convert:

; 816  : 			{
; 817  : 				this->m_Defense += this->m_Level * 3;

  0186e	8b 45 fc	 mov	 eax, DWORD PTR _this$[ebp]
  01871	0f bf 48 08	 movsx	 ecx, WORD PTR [eax+8]
  01875	6b c9 03	 imul	 ecx, 3
  01878	8b 55 fc	 mov	 edx, DWORD PTR _this$[ebp]
  0187b	0f b7 42 16	 movzx	 eax, WORD PTR [edx+22]
  0187f	03 c1		 add	 eax, ecx
  01881	8b 4d fc	 mov	 ecx, DWORD PTR _this$[ebp]
  01884	66 89 41 16	 mov	 WORD PTR [ecx+22], ax
$LN209@Convert:

; 818  : 			}
; 819  : 
; 820  : 			if ( this->m_Level >= 10 )

  01888	8b 45 fc	 mov	 eax, DWORD PTR _this$[ebp]
  0188b	0f bf 48 08	 movsx	 ecx, WORD PTR [eax+8]
  0188f	83 f9 0a	 cmp	 ecx, 10			; 0000000aH
  01892	7c 2c		 jl	 SHORT $LN208@Convert

; 821  : 			{
; 822  : 				this->m_Defense += (this->m_Level - 9) * (this->m_Level - 8) / 2;

  01894	8b 45 fc	 mov	 eax, DWORD PTR _this$[ebp]
  01897	0f bf 40 08	 movsx	 eax, WORD PTR [eax+8]
  0189b	83 e8 09	 sub	 eax, 9
  0189e	8b 4d fc	 mov	 ecx, DWORD PTR _this$[ebp]
  018a1	0f bf 51 08	 movsx	 edx, WORD PTR [ecx+8]
  018a5	83 ea 08	 sub	 edx, 8
  018a8	0f af c2	 imul	 eax, edx
  018ab	99		 cdq
  018ac	2b c2		 sub	 eax, edx
  018ae	d1 f8		 sar	 eax, 1
  018b0	8b 4d fc	 mov	 ecx, DWORD PTR _this$[ebp]
  018b3	0f b7 51 16	 movzx	 edx, WORD PTR [ecx+22]
  018b7	03 d0		 add	 edx, eax
  018b9	8b 45 fc	 mov	 eax, DWORD PTR _this$[ebp]
  018bc	66 89 50 16	 mov	 WORD PTR [eax+22], dx
$LN208@Convert:

; 823  : 			}
; 824  : 		}
; 825  : 	}
; 826  : 
; 827  : 	if ( _type == ITEMGET(13,30) )

  018c0	81 7d f8 1e 1a
	00 00		 cmp	 DWORD PTR __type$[ebp], 6686 ; 00001a1eH
  018c7	75 4a		 jne	 SHORT $LN206@Convert

; 828  : 	{
; 829  : 		this->m_Defense = this->m_Level*2 + 15;

  018c9	8b 45 fc	 mov	 eax, DWORD PTR _this$[ebp]
  018cc	0f bf 48 08	 movsx	 ecx, WORD PTR [eax+8]
  018d0	8d 54 09 0f	 lea	 edx, DWORD PTR [ecx+ecx+15]
  018d4	8b 45 fc	 mov	 eax, DWORD PTR _this$[ebp]
  018d7	66 89 50 16	 mov	 WORD PTR [eax+22], dx

; 830  : 
; 831  : 		if ( this->m_Level >= 10 )

  018db	8b 45 fc	 mov	 eax, DWORD PTR _this$[ebp]
  018de	0f bf 48 08	 movsx	 ecx, WORD PTR [eax+8]
  018e2	83 f9 0a	 cmp	 ecx, 10			; 0000000aH
  018e5	7c 2c		 jl	 SHORT $LN206@Convert

; 832  : 		{
; 833  : 			this->m_Defense += (this->m_Level - 9) * (this->m_Level - 8) / 2;

  018e7	8b 45 fc	 mov	 eax, DWORD PTR _this$[ebp]
  018ea	0f bf 40 08	 movsx	 eax, WORD PTR [eax+8]
  018ee	83 e8 09	 sub	 eax, 9
  018f1	8b 4d fc	 mov	 ecx, DWORD PTR _this$[ebp]
  018f4	0f bf 51 08	 movsx	 edx, WORD PTR [ecx+8]
  018f8	83 ea 08	 sub	 edx, 8
  018fb	0f af c2	 imul	 eax, edx
  018fe	99		 cdq
  018ff	2b c2		 sub	 eax, edx
  01901	d1 f8		 sar	 eax, 1
  01903	8b 4d fc	 mov	 ecx, DWORD PTR _this$[ebp]
  01906	0f b7 51 16	 movzx	 edx, WORD PTR [ecx+22]
  0190a	03 d0		 add	 edx, eax
  0190c	8b 45 fc	 mov	 eax, DWORD PTR _this$[ebp]
  0190f	66 89 50 16	 mov	 WORD PTR [eax+22], dx
$LN206@Convert:

; 834  : 		}
; 835  : 	}
; 836  : 
; 837  : 	//Summoner Wings
; 838  : 	if ( _type == ITEMGET(12,41) )

  01913	81 7d f8 29 18
	00 00		 cmp	 DWORD PTR __type$[ebp], 6185 ; 00001829H
  0191a	75 57		 jne	 SHORT $LN205@Convert

; 839  : 	{
; 840  : 		this->m_Defense += this->m_Level*3;

  0191c	8b 45 fc	 mov	 eax, DWORD PTR _this$[ebp]
  0191f	0f bf 48 08	 movsx	 ecx, WORD PTR [eax+8]
  01923	6b c9 03	 imul	 ecx, 3
  01926	8b 55 fc	 mov	 edx, DWORD PTR _this$[ebp]
  01929	0f b7 42 16	 movzx	 eax, WORD PTR [edx+22]
  0192d	03 c1		 add	 eax, ecx
  0192f	8b 4d fc	 mov	 ecx, DWORD PTR _this$[ebp]
  01932	66 89 41 16	 mov	 WORD PTR [ecx+22], ax

; 841  : 
; 842  : 		if ( this->m_Level >= 10 )

  01936	8b 45 fc	 mov	 eax, DWORD PTR _this$[ebp]
  01939	0f bf 48 08	 movsx	 ecx, WORD PTR [eax+8]
  0193d	83 f9 0a	 cmp	 ecx, 10			; 0000000aH
  01940	7c 2c		 jl	 SHORT $LN204@Convert

; 843  : 		{
; 844  : 			this->m_Defense += (this->m_Level - 9) * (this->m_Level - 8) / 2;

  01942	8b 45 fc	 mov	 eax, DWORD PTR _this$[ebp]
  01945	0f bf 40 08	 movsx	 eax, WORD PTR [eax+8]
  01949	83 e8 09	 sub	 eax, 9
  0194c	8b 4d fc	 mov	 ecx, DWORD PTR _this$[ebp]
  0194f	0f bf 51 08	 movsx	 edx, WORD PTR [ecx+8]
  01953	83 ea 08	 sub	 edx, 8
  01956	0f af c2	 imul	 eax, edx
  01959	99		 cdq
  0195a	2b c2		 sub	 eax, edx
  0195c	d1 f8		 sar	 eax, 1
  0195e	8b 4d fc	 mov	 ecx, DWORD PTR _this$[ebp]
  01961	0f b7 51 16	 movzx	 edx, WORD PTR [ecx+22]
  01965	03 d0		 add	 edx, eax
  01967	8b 45 fc	 mov	 eax, DWORD PTR _this$[ebp]
  0196a	66 89 50 16	 mov	 WORD PTR [eax+22], dx
$LN204@Convert:

; 845  : 		}
; 846  : 	}

  0196e	e9 a1 00 00 00	 jmp	 $LN198@Convert
$LN205@Convert:

; 847  : 	else if ( _type == ITEMGET(12,42) )

  01973	81 7d f8 2a 18
	00 00		 cmp	 DWORD PTR __type$[ebp], 6186 ; 0000182aH
  0197a	75 52		 jne	 SHORT $LN202@Convert

; 848  : 	{
; 849  : 		this->m_Defense += this->m_Level*2;

  0197c	8b 45 fc	 mov	 eax, DWORD PTR _this$[ebp]
  0197f	0f bf 48 08	 movsx	 ecx, WORD PTR [eax+8]
  01983	8b 55 fc	 mov	 edx, DWORD PTR _this$[ebp]
  01986	0f b7 42 16	 movzx	 eax, WORD PTR [edx+22]
  0198a	8d 0c 48	 lea	 ecx, DWORD PTR [eax+ecx*2]
  0198d	8b 55 fc	 mov	 edx, DWORD PTR _this$[ebp]
  01990	66 89 4a 16	 mov	 WORD PTR [edx+22], cx

; 850  : 
; 851  : 		if ( this->m_Level >= 10 )

  01994	8b 45 fc	 mov	 eax, DWORD PTR _this$[ebp]
  01997	0f bf 48 08	 movsx	 ecx, WORD PTR [eax+8]
  0199b	83 f9 0a	 cmp	 ecx, 10			; 0000000aH
  0199e	7c 2c		 jl	 SHORT $LN201@Convert

; 852  : 		{
; 853  : 			this->m_Defense += (this->m_Level - 9) * (this->m_Level - 8) / 2;

  019a0	8b 45 fc	 mov	 eax, DWORD PTR _this$[ebp]
  019a3	0f bf 40 08	 movsx	 eax, WORD PTR [eax+8]
  019a7	83 e8 09	 sub	 eax, 9
  019aa	8b 4d fc	 mov	 ecx, DWORD PTR _this$[ebp]
  019ad	0f bf 51 08	 movsx	 edx, WORD PTR [ecx+8]
  019b1	83 ea 08	 sub	 edx, 8
  019b4	0f af c2	 imul	 eax, edx
  019b7	99		 cdq
  019b8	2b c2		 sub	 eax, edx
  019ba	d1 f8		 sar	 eax, 1
  019bc	8b 4d fc	 mov	 ecx, DWORD PTR _this$[ebp]
  019bf	0f b7 51 16	 movzx	 edx, WORD PTR [ecx+22]
  019c3	03 d0		 add	 edx, eax
  019c5	8b 45 fc	 mov	 eax, DWORD PTR _this$[ebp]
  019c8	66 89 50 16	 mov	 WORD PTR [eax+22], dx
$LN201@Convert:

; 854  : 		}
; 855  : 	}

  019cc	eb 46		 jmp	 SHORT $LN198@Convert
$LN202@Convert:

; 856  : 	else if ( _type == ITEMGET(12,43) )

  019ce	81 7d f8 2b 18
	00 00		 cmp	 DWORD PTR __type$[ebp], 6187 ; 0000182bH
  019d5	75 3d		 jne	 SHORT $LN198@Convert

; 857  : 	{
; 858  : 		this->m_Defense += this->m_Level*4;

  019d7	8b 45 fc	 mov	 eax, DWORD PTR _this$[ebp]
  019da	0f bf 48 08	 movsx	 ecx, WORD PTR [eax+8]
  019de	8b 55 fc	 mov	 edx, DWORD PTR _this$[ebp]
  019e1	0f b7 42 16	 movzx	 eax, WORD PTR [edx+22]
  019e5	8d 0c 88	 lea	 ecx, DWORD PTR [eax+ecx*4]
  019e8	8b 55 fc	 mov	 edx, DWORD PTR _this$[ebp]
  019eb	66 89 4a 16	 mov	 WORD PTR [edx+22], cx

; 859  : 
; 860  : 		if ( this->m_Level >= 10 )

  019ef	8b 45 fc	 mov	 eax, DWORD PTR _this$[ebp]
  019f2	0f bf 48 08	 movsx	 ecx, WORD PTR [eax+8]
  019f6	83 f9 0a	 cmp	 ecx, 10			; 0000000aH
  019f9	7c 19		 jl	 SHORT $LN198@Convert

; 861  : 		{
; 862  : 			this->m_Defense += (this->m_Level - 9);

  019fb	8b 45 fc	 mov	 eax, DWORD PTR _this$[ebp]
  019fe	0f bf 48 08	 movsx	 ecx, WORD PTR [eax+8]
  01a02	8b 55 fc	 mov	 edx, DWORD PTR _this$[ebp]
  01a05	0f b7 42 16	 movzx	 eax, WORD PTR [edx+22]
  01a09	8d 4c 08 f7	 lea	 ecx, DWORD PTR [eax+ecx-9]
  01a0d	8b 55 fc	 mov	 edx, DWORD PTR _this$[ebp]
  01a10	66 89 4a 16	 mov	 WORD PTR [edx+22], cx
$LN198@Convert:

; 863  : 		}
; 864  : 	}
; 865  : 	//
; 866  : 
; 867  : 	if ( p->MagicDefense > 0 )

  01a14	8b 45 f0	 mov	 eax, DWORD PTR _p$[ebp]
  01a17	0f b6 48 2e	 movzx	 ecx, BYTE PTR [eax+46]
  01a1b	85 c9		 test	 ecx, ecx
  01a1d	7e 52		 jle	 SHORT $LN196@Convert

; 868  : 	{
; 869  : 		this->m_MagicDefense += this->m_Level * 3;

  01a1f	8b 45 fc	 mov	 eax, DWORD PTR _this$[ebp]
  01a22	0f bf 48 08	 movsx	 ecx, WORD PTR [eax+8]
  01a26	6b c9 03	 imul	 ecx, 3
  01a29	8b 55 fc	 mov	 edx, DWORD PTR _this$[ebp]
  01a2c	0f b7 42 18	 movzx	 eax, WORD PTR [edx+24]
  01a30	03 c1		 add	 eax, ecx
  01a32	8b 4d fc	 mov	 ecx, DWORD PTR _this$[ebp]
  01a35	66 89 41 18	 mov	 WORD PTR [ecx+24], ax

; 870  : 
; 871  : 		if ( this->m_Level >= 10 )

  01a39	8b 45 fc	 mov	 eax, DWORD PTR _this$[ebp]
  01a3c	0f bf 48 08	 movsx	 ecx, WORD PTR [eax+8]
  01a40	83 f9 0a	 cmp	 ecx, 10			; 0000000aH
  01a43	7c 2c		 jl	 SHORT $LN196@Convert

; 872  : 		{
; 873  : 			this->m_MagicDefense += (this->m_Level - 9) * (this->m_Level - 8) / 2;

  01a45	8b 45 fc	 mov	 eax, DWORD PTR _this$[ebp]
  01a48	0f bf 40 08	 movsx	 eax, WORD PTR [eax+8]
  01a4c	83 e8 09	 sub	 eax, 9
  01a4f	8b 4d fc	 mov	 ecx, DWORD PTR _this$[ebp]
  01a52	0f bf 51 08	 movsx	 edx, WORD PTR [ecx+8]
  01a56	83 ea 08	 sub	 edx, 8
  01a59	0f af c2	 imul	 eax, edx
  01a5c	99		 cdq
  01a5d	2b c2		 sub	 eax, edx
  01a5f	d1 f8		 sar	 eax, 1
  01a61	8b 4d fc	 mov	 ecx, DWORD PTR _this$[ebp]
  01a64	0f b7 51 18	 movzx	 edx, WORD PTR [ecx+24]
  01a68	03 d0		 add	 edx, eax
  01a6a	8b 45 fc	 mov	 eax, DWORD PTR _this$[ebp]
  01a6d	66 89 50 18	 mov	 WORD PTR [eax+24], dx
$LN196@Convert:

; 874  : 		}
; 875  : 	}
; 876  : 
; 877  : 	this->m_Level &= 15;

  01a71	8b 45 fc	 mov	 eax, DWORD PTR _this$[ebp]
  01a74	0f bf 48 08	 movsx	 ecx, WORD PTR [eax+8]
  01a78	83 e1 0f	 and	 ecx, 15			; 0000000fH
  01a7b	8b 55 fc	 mov	 edx, DWORD PTR _this$[ebp]
  01a7e	66 89 4a 08	 mov	 WORD PTR [edx+8], cx

; 878  : 
; 879  : 	memset(this->m_Special, 0, sizeof(this->m_Special));

  01a82	6a 10		 push	 16			; 00000010H
  01a84	6a 00		 push	 0
  01a86	8b 45 fc	 mov	 eax, DWORD PTR _this$[ebp]
  01a89	83 c0 32	 add	 eax, 50			; 00000032H
  01a8c	50		 push	 eax
  01a8d	e8 00 00 00 00	 call	 _memset
  01a92	83 c4 0c	 add	 esp, 12			; 0000000cH

; 880  : 	memset(this->m_SpecialValue, 0, sizeof(this->m_SpecialValue));

  01a95	6a 08		 push	 8
  01a97	6a 00		 push	 0
  01a99	8b 45 fc	 mov	 eax, DWORD PTR _this$[ebp]
  01a9c	83 c0 42	 add	 eax, 66			; 00000042H
  01a9f	50		 push	 eax
  01aa0	e8 00 00 00 00	 call	 _memset
  01aa5	83 c4 0c	 add	 esp, 12			; 0000000cH

; 881  : 	this->m_SpecialNum = 0;

  01aa8	8b 45 fc	 mov	 eax, DWORD PTR _this$[ebp]
  01aab	c6 40 30 00	 mov	 BYTE PTR [eax+48], 0

; 882  : 	this->m_Option1 = 0;

  01aaf	8b 45 fc	 mov	 eax, DWORD PTR _this$[ebp]
  01ab2	c6 80 94 00 00
	00 00		 mov	 BYTE PTR [eax+148], 0

; 883  : 	this->m_Option2 = 0;

  01ab9	8b 45 fc	 mov	 eax, DWORD PTR _this$[ebp]
  01abc	c6 80 95 00 00
	00 00		 mov	 BYTE PTR [eax+149], 0

; 884  : 	this->m_Option3 = 0;

  01ac3	8b 45 fc	 mov	 eax, DWORD PTR _this$[ebp]
  01ac6	c6 80 96 00 00
	00 00		 mov	 BYTE PTR [eax+150], 0

; 885  : 	this->m_SkillChange = FALSE;

  01acd	8b 45 fc	 mov	 eax, DWORD PTR _this$[ebp]
  01ad0	c6 80 ac 00 00
	00 00		 mov	 BYTE PTR [eax+172], 0

; 886  : 
; 887  : 	if ( Option1	!= 0 )

  01ad7	0f b6 45 0c	 movzx	 eax, BYTE PTR _Option1$[ebp]
  01adb	85 c0		 test	 eax, eax
  01add	74 59		 je	 SHORT $LN192@Convert

; 888  : 	{
; 889  : 		if ( p->SkillType != 0 )

  01adf	8b 45 f0	 mov	 eax, DWORD PTR _p$[ebp]
  01ae2	83 78 68 00	 cmp	 DWORD PTR [eax+104], 0
  01ae6	74 50		 je	 SHORT $LN192@Convert

; 890  : 		{
; 891  : 			if ( p->SkillType == 66 )

  01ae8	8b 45 f0	 mov	 eax, DWORD PTR _p$[ebp]
  01aeb	83 78 68 42	 cmp	 DWORD PTR [eax+104], 66	; 00000042H
  01aef	75 27		 jne	 SHORT $LN193@Convert

; 892  : 			{
; 893  : 				this->m_SkillChange = TRUE;

  01af1	8b 45 fc	 mov	 eax, DWORD PTR _this$[ebp]
  01af4	c6 80 ac 00 00
	00 01		 mov	 BYTE PTR [eax+172], 1

; 894  : 				this->m_Special[this->m_SpecialNum] = 0;

  01afb	8b 45 fc	 mov	 eax, DWORD PTR _this$[ebp]
  01afe	0f b6 48 30	 movzx	 ecx, BYTE PTR [eax+48]
  01b02	33 d2		 xor	 edx, edx
  01b04	8b 45 fc	 mov	 eax, DWORD PTR _this$[ebp]
  01b07	66 89 54 48 32	 mov	 WORD PTR [eax+ecx*2+50], dx

; 895  : 				this->m_Option1 = 1;

  01b0c	8b 45 fc	 mov	 eax, DWORD PTR _this$[ebp]
  01b0f	c6 80 94 00 00
	00 01		 mov	 BYTE PTR [eax+148], 1

; 896  : 			}
; 897  : 			else

  01b16	eb 20		 jmp	 SHORT $LN192@Convert
$LN193@Convert:

; 898  : 			{
; 899  : 				this->m_Special[this->m_SpecialNum] = p->SkillType;

  01b18	8b 45 fc	 mov	 eax, DWORD PTR _this$[ebp]
  01b1b	0f b6 48 30	 movzx	 ecx, BYTE PTR [eax+48]
  01b1f	8b 55 fc	 mov	 edx, DWORD PTR _this$[ebp]
  01b22	8b 45 f0	 mov	 eax, DWORD PTR _p$[ebp]
  01b25	66 8b 40 68	 mov	 ax, WORD PTR [eax+104]
  01b29	66 89 44 4a 32	 mov	 WORD PTR [edx+ecx*2+50], ax

; 900  : 				this->m_Option1 = 1;

  01b2e	8b 45 fc	 mov	 eax, DWORD PTR _this$[ebp]
  01b31	c6 80 94 00 00
	00 01		 mov	 BYTE PTR [eax+148], 1
$LN192@Convert:

; 901  : 			}
; 902  : 		}
; 903  : 	}
; 904  : 
; 905  : 	if ( this->m_Type == ITEMGET(13,3) )	// Dinorant

  01b38	8b 45 fc	 mov	 eax, DWORD PTR _this$[ebp]
  01b3b	0f bf 48 06	 movsx	 ecx, WORD PTR [eax+6]
  01b3f	81 f9 03 1a 00
	00		 cmp	 ecx, 6659		; 00001a03H
  01b45	75 1e		 jne	 SHORT $LN191@Convert

; 906  : 	{
; 907  : 		this->m_Option1 = TRUE;

  01b47	8b 45 fc	 mov	 eax, DWORD PTR _this$[ebp]
  01b4a	c6 80 94 00 00
	00 01		 mov	 BYTE PTR [eax+148], 1

; 908  : 		this->m_Special[this->m_SpecialNum] = 49;

  01b51	8b 45 fc	 mov	 eax, DWORD PTR _this$[ebp]
  01b54	0f b6 48 30	 movzx	 ecx, BYTE PTR [eax+48]
  01b58	ba 31 00 00 00	 mov	 edx, 49			; 00000031H
  01b5d	8b 45 fc	 mov	 eax, DWORD PTR _this$[ebp]
  01b60	66 89 54 48 32	 mov	 WORD PTR [eax+ecx*2+50], dx
$LN191@Convert:

; 909  : 	}
; 910  : 
; 911  : 	if ( this->m_Type == ITEMGET(13,4) )	//Dark Horse

  01b65	8b 45 fc	 mov	 eax, DWORD PTR _this$[ebp]
  01b68	0f bf 48 06	 movsx	 ecx, WORD PTR [eax+6]
  01b6c	81 f9 04 1a 00
	00		 cmp	 ecx, 6660		; 00001a04H
  01b72	75 1e		 jne	 SHORT $LN190@Convert

; 912  : 	{
; 913  : 		this->m_Option1 = TRUE;

  01b74	8b 45 fc	 mov	 eax, DWORD PTR _this$[ebp]
  01b77	c6 80 94 00 00
	00 01		 mov	 BYTE PTR [eax+148], 1

; 914  : 		this->m_Special[this->m_SpecialNum] = 62;

  01b7e	8b 45 fc	 mov	 eax, DWORD PTR _this$[ebp]
  01b81	0f b6 48 30	 movzx	 ecx, BYTE PTR [eax+48]
  01b85	ba 3e 00 00 00	 mov	 edx, 62			; 0000003eH
  01b8a	8b 45 fc	 mov	 eax, DWORD PTR _this$[ebp]
  01b8d	66 89 54 48 32	 mov	 WORD PTR [eax+ecx*2+50], dx
$LN190@Convert:

; 915  : 	}
; 916  : 
; 917  : 	if ( this->m_Type == ITEMGET(13,37) )

  01b92	8b 45 fc	 mov	 eax, DWORD PTR _this$[ebp]
  01b95	0f bf 48 06	 movsx	 ecx, WORD PTR [eax+6]
  01b99	81 f9 25 1a 00
	00		 cmp	 ecx, 6693		; 00001a25H
  01b9f	75 1e		 jne	 SHORT $LN189@Convert

; 918  : 	{
; 919  : 		this->m_Option1 = TRUE;

  01ba1	8b 45 fc	 mov	 eax, DWORD PTR _this$[ebp]
  01ba4	c6 80 94 00 00
	00 01		 mov	 BYTE PTR [eax+148], 1

; 920  : 		this->m_Special[this->m_SpecialNum] = 76;

  01bab	8b 45 fc	 mov	 eax, DWORD PTR _this$[ebp]
  01bae	0f b6 48 30	 movzx	 ecx, BYTE PTR [eax+48]
  01bb2	ba 4c 00 00 00	 mov	 edx, 76			; 0000004cH
  01bb7	8b 45 fc	 mov	 eax, DWORD PTR _this$[ebp]
  01bba	66 89 54 48 32	 mov	 WORD PTR [eax+ecx*2+50], dx
$LN189@Convert:

; 921  : 	}
; 922  : 
; 923  : 	this->m_SpecialNum++;

  01bbf	8b 45 fc	 mov	 eax, DWORD PTR _this$[ebp]
  01bc2	8a 48 30	 mov	 cl, BYTE PTR [eax+48]
  01bc5	80 c1 01	 add	 cl, 1
  01bc8	8b 55 fc	 mov	 edx, DWORD PTR _this$[ebp]
  01bcb	88 4a 30	 mov	 BYTE PTR [edx+48], cl

; 924  : 
; 925  : 	if ( Option2 != 0 )

  01bce	0f b6 45 10	 movzx	 eax, BYTE PTR _Option2$[ebp]
  01bd2	85 c0		 test	 eax, eax
  01bd4	0f 84 f8 01 00
	00		 je	 $LN179@Convert

; 926  : 	{
; 927  : 		if ( _type >= ITEMGET(0,0) && _type < ITEMGET(12,0) )

  01bda	83 7d f8 00	 cmp	 DWORD PTR __type$[ebp], 0
  01bde	7c 27		 jl	 SHORT $LN187@Convert
  01be0	81 7d f8 00 18
	00 00		 cmp	 DWORD PTR __type$[ebp], 6144 ; 00001800H
  01be7	7d 1e		 jge	 SHORT $LN187@Convert

; 928  : 		{
; 929  : 			this->m_Special[this->m_SpecialNum] = 84;

  01be9	8b 45 fc	 mov	 eax, DWORD PTR _this$[ebp]
  01bec	0f b6 48 30	 movzx	 ecx, BYTE PTR [eax+48]
  01bf0	ba 54 00 00 00	 mov	 edx, 84			; 00000054H
  01bf5	8b 45 fc	 mov	 eax, DWORD PTR _this$[ebp]
  01bf8	66 89 54 48 32	 mov	 WORD PTR [eax+ecx*2+50], dx

; 930  : 			this->m_Option2 = 1;

  01bfd	8b 45 fc	 mov	 eax, DWORD PTR _this$[ebp]
  01c00	c6 80 95 00 00
	00 01		 mov	 BYTE PTR [eax+149], 1
$LN187@Convert:

; 931  : 		}
; 932  : 
; 933  : 		if ( _type >= ITEMGET(12,0) && _type <= ITEMGET(12,6) )	// Wings

  01c07	81 7d f8 00 18
	00 00		 cmp	 DWORD PTR __type$[ebp], 6144 ; 00001800H
  01c0e	7c 27		 jl	 SHORT $LN186@Convert
  01c10	81 7d f8 06 18
	00 00		 cmp	 DWORD PTR __type$[ebp], 6150 ; 00001806H
  01c17	7f 1e		 jg	 SHORT $LN186@Convert

; 934  : 		{
; 935  : 			this->m_Special[this->m_SpecialNum] = 84;

  01c19	8b 45 fc	 mov	 eax, DWORD PTR _this$[ebp]
  01c1c	0f b6 48 30	 movzx	 ecx, BYTE PTR [eax+48]
  01c20	ba 54 00 00 00	 mov	 edx, 84			; 00000054H
  01c25	8b 45 fc	 mov	 eax, DWORD PTR _this$[ebp]
  01c28	66 89 54 48 32	 mov	 WORD PTR [eax+ecx*2+50], dx

; 936  : 			this->m_Option2 = 1;

  01c2d	8b 45 fc	 mov	 eax, DWORD PTR _this$[ebp]
  01c30	c6 80 95 00 00
	00 01		 mov	 BYTE PTR [eax+149], 1
$LN186@Convert:

; 937  : 		}
; 938  : 
; 939  : 		if ( _type == ITEMGET(13,30) )	// Cape of Lord

  01c37	81 7d f8 1e 1a
	00 00		 cmp	 DWORD PTR __type$[ebp], 6686 ; 00001a1eH
  01c3e	75 1e		 jne	 SHORT $LN185@Convert

; 940  : 		{
; 941  : 			this->m_Special[this->m_SpecialNum] = 84;

  01c40	8b 45 fc	 mov	 eax, DWORD PTR _this$[ebp]
  01c43	0f b6 48 30	 movzx	 ecx, BYTE PTR [eax+48]
  01c47	ba 54 00 00 00	 mov	 edx, 84			; 00000054H
  01c4c	8b 45 fc	 mov	 eax, DWORD PTR _this$[ebp]
  01c4f	66 89 54 48 32	 mov	 WORD PTR [eax+ecx*2+50], dx

; 942  : 			this->m_Option2 = 1;

  01c54	8b 45 fc	 mov	 eax, DWORD PTR _this$[ebp]
  01c57	c6 80 95 00 00
	00 01		 mov	 BYTE PTR [eax+149], 1
$LN185@Convert:

; 943  : 		}
; 944  : #ifdef NEWWINGS_6
; 945  : 		if ( IS_NEWWINGS_6(_type) )	//Custom Wings4

  01c5e	81 7d f8 c3 18
	00 00		 cmp	 DWORD PTR __type$[ebp], 6339 ; 000018c3H
  01c65	7d 09		 jge	 SHORT $LN419@Convert
  01c67	c7 45 8c 00 00
	00 00		 mov	 DWORD PTR tv1497[ebp], 0
  01c6e	eb 0f		 jmp	 SHORT $LN420@Convert
$LN419@Convert:
  01c70	33 c0		 xor	 eax, eax
  01c72	81 7d f8 dc 18
	00 00		 cmp	 DWORD PTR __type$[ebp], 6364 ; 000018dcH
  01c79	0f 9e c0	 setle	 al
  01c7c	89 45 8c	 mov	 DWORD PTR tv1497[ebp], eax
$LN420@Convert:
  01c7f	83 7d 8c 00	 cmp	 DWORD PTR tv1497[ebp], 0
  01c83	74 1e		 je	 SHORT $LN184@Convert

; 946  : 		{
; 947  : 			this->m_Special[this->m_SpecialNum] = 84;

  01c85	8b 45 fc	 mov	 eax, DWORD PTR _this$[ebp]
  01c88	0f b6 48 30	 movzx	 ecx, BYTE PTR [eax+48]
  01c8c	ba 54 00 00 00	 mov	 edx, 84			; 00000054H
  01c91	8b 45 fc	 mov	 eax, DWORD PTR _this$[ebp]
  01c94	66 89 54 48 32	 mov	 WORD PTR [eax+ecx*2+50], dx

; 948  : 			this->m_Option2 = 1;

  01c99	8b 45 fc	 mov	 eax, DWORD PTR _this$[ebp]
  01c9c	c6 80 95 00 00
	00 01		 mov	 BYTE PTR [eax+149], 1
$LN184@Convert:

; 949  : 		}
; 950  : #endif
; 951  : #ifdef NEWWINGS_5
; 952  : 		if ( IS_NEWWINGS_5(_type) )	//Custom Wings4

  01ca3	81 7d f8 bd 18
	00 00		 cmp	 DWORD PTR __type$[ebp], 6333 ; 000018bdH
  01caa	7d 09		 jge	 SHORT $LN421@Convert
  01cac	c7 45 8c 00 00
	00 00		 mov	 DWORD PTR tv1508[ebp], 0
  01cb3	eb 0f		 jmp	 SHORT $LN422@Convert
$LN421@Convert:
  01cb5	33 c0		 xor	 eax, eax
  01cb7	81 7d f8 c2 18
	00 00		 cmp	 DWORD PTR __type$[ebp], 6338 ; 000018c2H
  01cbe	0f 9e c0	 setle	 al
  01cc1	89 45 8c	 mov	 DWORD PTR tv1508[ebp], eax
$LN422@Convert:
  01cc4	83 7d 8c 00	 cmp	 DWORD PTR tv1508[ebp], 0
  01cc8	74 1e		 je	 SHORT $LN183@Convert

; 953  : 		{
; 954  : 			this->m_Special[this->m_SpecialNum] = 84;

  01cca	8b 45 fc	 mov	 eax, DWORD PTR _this$[ebp]
  01ccd	0f b6 48 30	 movzx	 ecx, BYTE PTR [eax+48]
  01cd1	ba 54 00 00 00	 mov	 edx, 84			; 00000054H
  01cd6	8b 45 fc	 mov	 eax, DWORD PTR _this$[ebp]
  01cd9	66 89 54 48 32	 mov	 WORD PTR [eax+ecx*2+50], dx

; 955  : 			this->m_Option2 = 1;

  01cde	8b 45 fc	 mov	 eax, DWORD PTR _this$[ebp]
  01ce1	c6 80 95 00 00
	00 01		 mov	 BYTE PTR [eax+149], 1
$LN183@Convert:

; 956  : 		}
; 957  : #endif
; 958  : #ifdef NEWWINGS_2_5
; 959  : 		if ( IS_NEWWINGS_2_5(_type) )	//Custom Wings4

  01ce8	81 7d f8 ba 18
	00 00		 cmp	 DWORD PTR __type$[ebp], 6330 ; 000018baH
  01cef	7d 09		 jge	 SHORT $LN423@Convert
  01cf1	c7 45 8c 00 00
	00 00		 mov	 DWORD PTR tv1519[ebp], 0
  01cf8	eb 0f		 jmp	 SHORT $LN424@Convert
$LN423@Convert:
  01cfa	33 c0		 xor	 eax, eax
  01cfc	81 7d f8 bc 18
	00 00		 cmp	 DWORD PTR __type$[ebp], 6332 ; 000018bcH
  01d03	0f 9e c0	 setle	 al
  01d06	89 45 8c	 mov	 DWORD PTR tv1519[ebp], eax
$LN424@Convert:
  01d09	83 7d 8c 00	 cmp	 DWORD PTR tv1519[ebp], 0
  01d0d	74 1e		 je	 SHORT $LN182@Convert

; 960  : 		{
; 961  : 			this->m_Special[this->m_SpecialNum] = 84;

  01d0f	8b 45 fc	 mov	 eax, DWORD PTR _this$[ebp]
  01d12	0f b6 48 30	 movzx	 ecx, BYTE PTR [eax+48]
  01d16	ba 54 00 00 00	 mov	 edx, 84			; 00000054H
  01d1b	8b 45 fc	 mov	 eax, DWORD PTR _this$[ebp]
  01d1e	66 89 54 48 32	 mov	 WORD PTR [eax+ecx*2+50], dx

; 962  : 			this->m_Option2 = 1;

  01d23	8b 45 fc	 mov	 eax, DWORD PTR _this$[ebp]
  01d26	c6 80 95 00 00
	00 01		 mov	 BYTE PTR [eax+149], 1
$LN182@Convert:

; 963  : 		}
; 964  : #endif
; 965  : #ifdef NEWWINGS_4
; 966  : 		if ( IS_NEWWINGS_4(_type) )	//Custom Wings4

  01d2d	81 7d f8 b4 18
	00 00		 cmp	 DWORD PTR __type$[ebp], 6324 ; 000018b4H
  01d34	7d 09		 jge	 SHORT $LN425@Convert
  01d36	c7 45 8c 00 00
	00 00		 mov	 DWORD PTR tv1530[ebp], 0
  01d3d	eb 0f		 jmp	 SHORT $LN426@Convert
$LN425@Convert:
  01d3f	33 c0		 xor	 eax, eax
  01d41	81 7d f8 b9 18
	00 00		 cmp	 DWORD PTR __type$[ebp], 6329 ; 000018b9H
  01d48	0f 9e c0	 setle	 al
  01d4b	89 45 8c	 mov	 DWORD PTR tv1530[ebp], eax
$LN426@Convert:
  01d4e	83 7d 8c 00	 cmp	 DWORD PTR tv1530[ebp], 0
  01d52	74 1e		 je	 SHORT $LN181@Convert

; 967  : 		{
; 968  : 			this->m_Special[this->m_SpecialNum] = 84;

  01d54	8b 45 fc	 mov	 eax, DWORD PTR _this$[ebp]
  01d57	0f b6 48 30	 movzx	 ecx, BYTE PTR [eax+48]
  01d5b	ba 54 00 00 00	 mov	 edx, 84			; 00000054H
  01d60	8b 45 fc	 mov	 eax, DWORD PTR _this$[ebp]
  01d63	66 89 54 48 32	 mov	 WORD PTR [eax+ecx*2+50], dx

; 969  : 			this->m_Option2 = 1;

  01d68	8b 45 fc	 mov	 eax, DWORD PTR _this$[ebp]
  01d6b	c6 80 95 00 00
	00 01		 mov	 BYTE PTR [eax+149], 1
$LN181@Convert:

; 970  : 		}
; 971  : #endif
; 972  : 
; 973  : 		if ( _type >= ITEMGET(12,36) && _type <= ITEMGET(12,43) )	//Season 3.5 Summoner Wings

  01d72	81 7d f8 24 18
	00 00		 cmp	 DWORD PTR __type$[ebp], 6180 ; 00001824H
  01d79	7c 27		 jl	 SHORT $LN180@Convert
  01d7b	81 7d f8 2b 18
	00 00		 cmp	 DWORD PTR __type$[ebp], 6187 ; 0000182bH
  01d82	7f 1e		 jg	 SHORT $LN180@Convert

; 974  : 		{
; 975  : 			this->m_Special[this->m_SpecialNum] = 84;

  01d84	8b 45 fc	 mov	 eax, DWORD PTR _this$[ebp]
  01d87	0f b6 48 30	 movzx	 ecx, BYTE PTR [eax+48]
  01d8b	ba 54 00 00 00	 mov	 edx, 84			; 00000054H
  01d90	8b 45 fc	 mov	 eax, DWORD PTR _this$[ebp]
  01d93	66 89 54 48 32	 mov	 WORD PTR [eax+ecx*2+50], dx

; 976  : 			this->m_Option2 = 1;

  01d98	8b 45 fc	 mov	 eax, DWORD PTR _this$[ebp]
  01d9b	c6 80 95 00 00
	00 01		 mov	 BYTE PTR [eax+149], 1
$LN180@Convert:

; 977  : 		}
; 978  : 
; 979  : 		if(_type == ITEMGET(12,49) || _type == ITEMGET(12,50))

  01da2	81 7d f8 31 18
	00 00		 cmp	 DWORD PTR __type$[ebp], 6193 ; 00001831H
  01da9	74 09		 je	 SHORT $LN178@Convert
  01dab	81 7d f8 32 18
	00 00		 cmp	 DWORD PTR __type$[ebp], 6194 ; 00001832H
  01db2	75 1e		 jne	 SHORT $LN179@Convert
$LN178@Convert:

; 980  : 		{
; 981  : 			this->m_Special[this->m_SpecialNum] = 84;

  01db4	8b 45 fc	 mov	 eax, DWORD PTR _this$[ebp]
  01db7	0f b6 48 30	 movzx	 ecx, BYTE PTR [eax+48]
  01dbb	ba 54 00 00 00	 mov	 edx, 84			; 00000054H
  01dc0	8b 45 fc	 mov	 eax, DWORD PTR _this$[ebp]
  01dc3	66 89 54 48 32	 mov	 WORD PTR [eax+ecx*2+50], dx

; 982  : 			this->m_Option2 = 1;

  01dc8	8b 45 fc	 mov	 eax, DWORD PTR _this$[ebp]
  01dcb	c6 80 95 00 00
	00 01		 mov	 BYTE PTR [eax+149], 1
$LN179@Convert:

; 983  : 		}
; 984  : 	}
; 985  : 
; 986  : 	this->m_SpecialNum++;

  01dd2	8b 45 fc	 mov	 eax, DWORD PTR _this$[ebp]
  01dd5	8a 48 30	 mov	 cl, BYTE PTR [eax+48]
  01dd8	80 c1 01	 add	 cl, 1
  01ddb	8b 55 fc	 mov	 edx, DWORD PTR _this$[ebp]
  01dde	88 4a 30	 mov	 BYTE PTR [edx+48], cl

; 987  : 
; 988  : 	if ( Option3 != 0 )

  01de1	0f b6 45 14	 movzx	 eax, BYTE PTR _Option3$[ebp]
  01de5	85 c0		 test	 eax, eax
  01de7	0f 84 7a 0b 00
	00		 je	 $LN72@Convert

; 989  : 	{
; 990  : 		if ( _type >= ITEMGET(0,0) && _type < ITEMGET(5,0) )

  01ded	83 7d f8 00	 cmp	 DWORD PTR __type$[ebp], 0
  01df1	7c 29		 jl	 SHORT $LN176@Convert
  01df3	81 7d f8 00 0a
	00 00		 cmp	 DWORD PTR __type$[ebp], 2560 ; 00000a00H
  01dfa	7d 20		 jge	 SHORT $LN176@Convert

; 991  : 		{
; 992  : 			this->m_Special[this->m_SpecialNum] = 80;

  01dfc	8b 45 fc	 mov	 eax, DWORD PTR _this$[ebp]
  01dff	0f b6 48 30	 movzx	 ecx, BYTE PTR [eax+48]
  01e03	ba 50 00 00 00	 mov	 edx, 80			; 00000050H
  01e08	8b 45 fc	 mov	 eax, DWORD PTR _this$[ebp]
  01e0b	66 89 54 48 32	 mov	 WORD PTR [eax+ecx*2+50], dx

; 993  : 			this->m_Option3 = Option3;

  01e10	8b 45 fc	 mov	 eax, DWORD PTR _this$[ebp]
  01e13	8a 4d 14	 mov	 cl, BYTE PTR _Option3$[ebp]
  01e16	88 88 96 00 00
	00		 mov	 BYTE PTR [eax+150], cl
$LN176@Convert:

; 994  : #if(FIX_REQSTR_ITEM==FALSE)
; 995  : 			this->m_RequireStrength +=  Option3 * 4;
; 996  : #endif
; 997  : 		}
; 998  : 
; 999  : 		if ( _type >= ITEMGET(5,0) && _type < ITEMGET(6,0) )

  01e1c	81 7d f8 00 0a
	00 00		 cmp	 DWORD PTR __type$[ebp], 2560 ; 00000a00H
  01e23	7c 48		 jl	 SHORT $LN175@Convert
  01e25	81 7d f8 00 0c
	00 00		 cmp	 DWORD PTR __type$[ebp], 3072 ; 00000c00H
  01e2c	7d 3f		 jge	 SHORT $LN175@Convert

; 1000 : 		{
; 1001 : 			if(p->ItemSlot == 1)

  01e2e	8b 45 f0	 mov	 eax, DWORD PTR _p$[ebp]
  01e31	83 78 64 01	 cmp	 DWORD PTR [eax+100], 1
  01e35	75 16		 jne	 SHORT $LN174@Convert

; 1002 : 			{
; 1003 : 				this->m_Special[this->m_SpecialNum] = 113;

  01e37	8b 45 fc	 mov	 eax, DWORD PTR _this$[ebp]
  01e3a	0f b6 48 30	 movzx	 ecx, BYTE PTR [eax+48]
  01e3e	ba 71 00 00 00	 mov	 edx, 113		; 00000071H
  01e43	8b 45 fc	 mov	 eax, DWORD PTR _this$[ebp]
  01e46	66 89 54 48 32	 mov	 WORD PTR [eax+ecx*2+50], dx

; 1004 : 			}
; 1005 : 			else

  01e4b	eb 14		 jmp	 SHORT $LN173@Convert
$LN174@Convert:

; 1006 : 			{
; 1007 : 				this->m_Special[this->m_SpecialNum] = 81;

  01e4d	8b 45 fc	 mov	 eax, DWORD PTR _this$[ebp]
  01e50	0f b6 48 30	 movzx	 ecx, BYTE PTR [eax+48]
  01e54	ba 51 00 00 00	 mov	 edx, 81			; 00000051H
  01e59	8b 45 fc	 mov	 eax, DWORD PTR _this$[ebp]
  01e5c	66 89 54 48 32	 mov	 WORD PTR [eax+ecx*2+50], dx
$LN173@Convert:

; 1008 : 			}
; 1009 : 			
; 1010 : 			this->m_Option3 = Option3;

  01e61	8b 45 fc	 mov	 eax, DWORD PTR _this$[ebp]
  01e64	8a 4d 14	 mov	 cl, BYTE PTR _Option3$[ebp]
  01e67	88 88 96 00 00
	00		 mov	 BYTE PTR [eax+150], cl
$LN175@Convert:

; 1011 : #if(FIX_REQSTR_ITEM==FALSE)
; 1012 : 			this->m_RequireStrength +=  Option3 * 4;
; 1013 : #endif
; 1014 : 		}
; 1015 : 		
; 1016 : 		if ( _type >= ITEMGET(6,0) && _type < ITEMGET(7,0) )

  01e6d	81 7d f8 00 0c
	00 00		 cmp	 DWORD PTR __type$[ebp], 3072 ; 00000c00H
  01e74	7c 29		 jl	 SHORT $LN172@Convert
  01e76	81 7d f8 00 0e
	00 00		 cmp	 DWORD PTR __type$[ebp], 3584 ; 00000e00H
  01e7d	7d 20		 jge	 SHORT $LN172@Convert

; 1017 : 		{
; 1018 : 			this->m_Special[this->m_SpecialNum] = 82;

  01e7f	8b 45 fc	 mov	 eax, DWORD PTR _this$[ebp]
  01e82	0f b6 48 30	 movzx	 ecx, BYTE PTR [eax+48]
  01e86	ba 52 00 00 00	 mov	 edx, 82			; 00000052H
  01e8b	8b 45 fc	 mov	 eax, DWORD PTR _this$[ebp]
  01e8e	66 89 54 48 32	 mov	 WORD PTR [eax+ecx*2+50], dx

; 1019 : 			this->m_Option3 = Option3;

  01e93	8b 45 fc	 mov	 eax, DWORD PTR _this$[ebp]
  01e96	8a 4d 14	 mov	 cl, BYTE PTR _Option3$[ebp]
  01e99	88 88 96 00 00
	00		 mov	 BYTE PTR [eax+150], cl
$LN172@Convert:

; 1020 : #if(FIX_REQSTR_ITEM==FALSE)
; 1021 : 			this->m_RequireStrength +=  Option3 * 4;
; 1022 : #endif
; 1023 : 		}
; 1024 : 
; 1025 : 		if ( _type >= ITEMGET(7,0) && _type < ITEMGET(12,0) )

  01e9f	81 7d f8 00 0e
	00 00		 cmp	 DWORD PTR __type$[ebp], 3584 ; 00000e00H
  01ea6	7c 29		 jl	 SHORT $LN171@Convert
  01ea8	81 7d f8 00 18
	00 00		 cmp	 DWORD PTR __type$[ebp], 6144 ; 00001800H
  01eaf	7d 20		 jge	 SHORT $LN171@Convert

; 1026 : 		{
; 1027 : 			this->m_Special[this->m_SpecialNum] = 83;

  01eb1	8b 45 fc	 mov	 eax, DWORD PTR _this$[ebp]
  01eb4	0f b6 48 30	 movzx	 ecx, BYTE PTR [eax+48]
  01eb8	ba 53 00 00 00	 mov	 edx, 83			; 00000053H
  01ebd	8b 45 fc	 mov	 eax, DWORD PTR _this$[ebp]
  01ec0	66 89 54 48 32	 mov	 WORD PTR [eax+ecx*2+50], dx

; 1028 : 			this->m_Option3 = Option3;

  01ec5	8b 45 fc	 mov	 eax, DWORD PTR _this$[ebp]
  01ec8	8a 4d 14	 mov	 cl, BYTE PTR _Option3$[ebp]
  01ecb	88 88 96 00 00
	00		 mov	 BYTE PTR [eax+150], cl
$LN171@Convert:

; 1029 : #if(FIX_REQSTR_ITEM==FALSE)
; 1030 : 			this->m_RequireStrength +=  Option3 * 4;
; 1031 : #endif
; 1032 : 		}
; 1033 : 
; 1034 : 		if ( (_type >= ITEMGET(13,8) && _type < ITEMGET(13,14)) || (_type >= ITEMGET(13,20) && _type <= ITEMGET(13,28)) )

  01ed1	81 7d f8 08 1a
	00 00		 cmp	 DWORD PTR __type$[ebp], 6664 ; 00001a08H
  01ed8	7c 09		 jl	 SHORT $LN168@Convert
  01eda	81 7d f8 0e 1a
	00 00		 cmp	 DWORD PTR __type$[ebp], 6670 ; 00001a0eH
  01ee1	7c 12		 jl	 SHORT $LN169@Convert
$LN168@Convert:
  01ee3	81 7d f8 14 1a
	00 00		 cmp	 DWORD PTR __type$[ebp], 6676 ; 00001a14H
  01eea	7c 7f		 jl	 SHORT $LN164@Convert
  01eec	81 7d f8 1c 1a
	00 00		 cmp	 DWORD PTR __type$[ebp], 6684 ; 00001a1cH
  01ef3	7f 76		 jg	 SHORT $LN164@Convert
$LN169@Convert:

; 1035 : 		{
; 1036 : 			if ( _type == ITEMGET(13,24) ) // Ring of MAgic

  01ef5	81 7d f8 18 1a
	00 00		 cmp	 DWORD PTR __type$[ebp], 6680 ; 00001a18H
  01efc	75 22		 jne	 SHORT $LN167@Convert

; 1037 : 			{
; 1038 : 				this->m_Special[this->m_SpecialNum] = 172;

  01efe	8b 45 fc	 mov	 eax, DWORD PTR _this$[ebp]
  01f01	0f b6 48 30	 movzx	 ecx, BYTE PTR [eax+48]
  01f05	ba ac 00 00 00	 mov	 edx, 172		; 000000acH
  01f0a	8b 45 fc	 mov	 eax, DWORD PTR _this$[ebp]
  01f0d	66 89 54 48 32	 mov	 WORD PTR [eax+ecx*2+50], dx

; 1039 : 				this->m_Option3 = Option3;

  01f12	8b 45 fc	 mov	 eax, DWORD PTR _this$[ebp]
  01f15	8a 4d 14	 mov	 cl, BYTE PTR _Option3$[ebp]
  01f18	88 88 96 00 00
	00		 mov	 BYTE PTR [eax+150], cl
  01f1e	eb 4b		 jmp	 SHORT $LN164@Convert
$LN167@Convert:

; 1040 : 			}
; 1041 : 			else if ( _type == ITEMGET(13,28) ) // Pendant of abilit

  01f20	81 7d f8 1c 1a
	00 00		 cmp	 DWORD PTR __type$[ebp], 6684 ; 00001a1cH
  01f27	75 22		 jne	 SHORT $LN165@Convert

; 1042 : 			{
; 1043 : 				this->m_Special[this->m_SpecialNum] = 173;

  01f29	8b 45 fc	 mov	 eax, DWORD PTR _this$[ebp]
  01f2c	0f b6 48 30	 movzx	 ecx, BYTE PTR [eax+48]
  01f30	ba ad 00 00 00	 mov	 edx, 173		; 000000adH
  01f35	8b 45 fc	 mov	 eax, DWORD PTR _this$[ebp]
  01f38	66 89 54 48 32	 mov	 WORD PTR [eax+ecx*2+50], dx

; 1044 : 				this->m_Option3 = Option3;

  01f3d	8b 45 fc	 mov	 eax, DWORD PTR _this$[ebp]
  01f40	8a 4d 14	 mov	 cl, BYTE PTR _Option3$[ebp]
  01f43	88 88 96 00 00
	00		 mov	 BYTE PTR [eax+150], cl

; 1045 : 			}
; 1046 : 			else  

  01f49	eb 20		 jmp	 SHORT $LN164@Convert
$LN165@Convert:

; 1047 : 			{
; 1048 : 				this->m_Special[this->m_SpecialNum] = 85;

  01f4b	8b 45 fc	 mov	 eax, DWORD PTR _this$[ebp]
  01f4e	0f b6 48 30	 movzx	 ecx, BYTE PTR [eax+48]
  01f52	ba 55 00 00 00	 mov	 edx, 85			; 00000055H
  01f57	8b 45 fc	 mov	 eax, DWORD PTR _this$[ebp]
  01f5a	66 89 54 48 32	 mov	 WORD PTR [eax+ecx*2+50], dx

; 1049 : 				this->m_Option3 = Option3;

  01f5f	8b 45 fc	 mov	 eax, DWORD PTR _this$[ebp]
  01f62	8a 4d 14	 mov	 cl, BYTE PTR _Option3$[ebp]
  01f65	88 88 96 00 00
	00		 mov	 BYTE PTR [eax+150], cl
$LN164@Convert:

; 1050 : 			}
; 1051 : 		}
; 1052 : 		
; 1053 : 		if ( _type == ITEMGET(13,30) ) // Cape of lord 

  01f6b	81 7d f8 1e 1a
	00 00		 cmp	 DWORD PTR __type$[ebp], 6686 ; 00001a1eH
  01f72	75 20		 jne	 SHORT $LN163@Convert

; 1054 : 		{
; 1055 : 			this->m_Special[this->m_SpecialNum] = 80;

  01f74	8b 45 fc	 mov	 eax, DWORD PTR _this$[ebp]
  01f77	0f b6 48 30	 movzx	 ecx, BYTE PTR [eax+48]
  01f7b	ba 50 00 00 00	 mov	 edx, 80			; 00000050H
  01f80	8b 45 fc	 mov	 eax, DWORD PTR _this$[ebp]
  01f83	66 89 54 48 32	 mov	 WORD PTR [eax+ecx*2+50], dx

; 1056 : 			this->m_Option3 = Option3;

  01f88	8b 45 fc	 mov	 eax, DWORD PTR _this$[ebp]
  01f8b	8a 4d 14	 mov	 cl, BYTE PTR _Option3$[ebp]
  01f8e	88 88 96 00 00
	00		 mov	 BYTE PTR [eax+150], cl
$LN163@Convert:

; 1057 : #if(FIX_REQSTR_ITEM==FALSE)
; 1058 : 			this->m_RequireStrength +=  Option3 * 4;
; 1059 : #endif
; 1060 : 		}
; 1061 : 
; 1062 : 		if ( _type == ITEMGET(12,0) )	// Wing elf

  01f94	81 7d f8 00 18
	00 00		 cmp	 DWORD PTR __type$[ebp], 6144 ; 00001800H
  01f9b	75 25		 jne	 SHORT $LN162@Convert

; 1063 : 		{
; 1064 : 			this->m_Special[this->m_SpecialNum] = 85;

  01f9d	8b 45 fc	 mov	 eax, DWORD PTR _this$[ebp]
  01fa0	0f b6 48 30	 movzx	 ecx, BYTE PTR [eax+48]
  01fa4	ba 55 00 00 00	 mov	 edx, 85			; 00000055H
  01fa9	8b 45 fc	 mov	 eax, DWORD PTR _this$[ebp]
  01fac	66 89 54 48 32	 mov	 WORD PTR [eax+ecx*2+50], dx

; 1065 : 			this->m_Option3 = Option3;

  01fb1	8b 45 fc	 mov	 eax, DWORD PTR _this$[ebp]
  01fb4	8a 4d 14	 mov	 cl, BYTE PTR _Option3$[ebp]
  01fb7	88 88 96 00 00
	00		 mov	 BYTE PTR [eax+150], cl
  01fbd	e9 6c 02 00 00	 jmp	 $LN137@Convert
$LN162@Convert:

; 1066 : 		}
; 1067 : 		else if ( _type == ITEMGET(12,1) ) // winf Heaven

  01fc2	81 7d f8 01 18
	00 00		 cmp	 DWORD PTR __type$[ebp], 6145 ; 00001801H
  01fc9	75 25		 jne	 SHORT $LN160@Convert

; 1068 : 		{
; 1069 : 			this->m_Special[this->m_SpecialNum] = 81;

  01fcb	8b 45 fc	 mov	 eax, DWORD PTR _this$[ebp]
  01fce	0f b6 48 30	 movzx	 ecx, BYTE PTR [eax+48]
  01fd2	ba 51 00 00 00	 mov	 edx, 81			; 00000051H
  01fd7	8b 45 fc	 mov	 eax, DWORD PTR _this$[ebp]
  01fda	66 89 54 48 32	 mov	 WORD PTR [eax+ecx*2+50], dx

; 1070 : 			this->m_Option3 = Option3;

  01fdf	8b 45 fc	 mov	 eax, DWORD PTR _this$[ebp]
  01fe2	8a 4d 14	 mov	 cl, BYTE PTR _Option3$[ebp]
  01fe5	88 88 96 00 00
	00		 mov	 BYTE PTR [eax+150], cl
  01feb	e9 3e 02 00 00	 jmp	 $LN137@Convert
$LN160@Convert:

; 1071 : #if(FIX_REQSTR_ITEM==FALSE)
; 1072 : 			this->m_RequireStrength +=  Option3 * 4;
; 1073 : #endif
; 1074 : 		}
; 1075 : 		else if ( _type == ITEMGET(12,2) ) // wing devil

  01ff0	81 7d f8 02 18
	00 00		 cmp	 DWORD PTR __type$[ebp], 6146 ; 00001802H
  01ff7	75 25		 jne	 SHORT $LN158@Convert

; 1076 : 		{
; 1077 : 			this->m_Special[this->m_SpecialNum] = 80;

  01ff9	8b 45 fc	 mov	 eax, DWORD PTR _this$[ebp]
  01ffc	0f b6 48 30	 movzx	 ecx, BYTE PTR [eax+48]
  02000	ba 50 00 00 00	 mov	 edx, 80			; 00000050H
  02005	8b 45 fc	 mov	 eax, DWORD PTR _this$[ebp]
  02008	66 89 54 48 32	 mov	 WORD PTR [eax+ecx*2+50], dx

; 1078 : 			this->m_Option3 = Option3;

  0200d	8b 45 fc	 mov	 eax, DWORD PTR _this$[ebp]
  02010	8a 4d 14	 mov	 cl, BYTE PTR _Option3$[ebp]
  02013	88 88 96 00 00
	00		 mov	 BYTE PTR [eax+150], cl
  02019	e9 10 02 00 00	 jmp	 $LN137@Convert
$LN158@Convert:

; 1079 : #if(FIX_REQSTR_ITEM==FALSE)
; 1080 : 			this->m_RequireStrength +=  Option3 * 4;
; 1081 : #endif
; 1082 : 		}
; 1083 : 		else if ( _type == ITEMGET(12,3) ) // wing spitits

  0201e	81 7d f8 03 18
	00 00		 cmp	 DWORD PTR __type$[ebp], 6147 ; 00001803H
  02025	75 5e		 jne	 SHORT $LN156@Convert

; 1084 : 		{
; 1085 : 			this->m_Special[this->m_SpecialNum] = 80;

  02027	8b 45 fc	 mov	 eax, DWORD PTR _this$[ebp]
  0202a	0f b6 48 30	 movzx	 ecx, BYTE PTR [eax+48]
  0202e	ba 50 00 00 00	 mov	 edx, 80			; 00000050H
  02033	8b 45 fc	 mov	 eax, DWORD PTR _this$[ebp]
  02036	66 89 54 48 32	 mov	 WORD PTR [eax+ecx*2+50], dx

; 1086 : 			this->m_Option3 = Option3;

  0203b	8b 45 fc	 mov	 eax, DWORD PTR _this$[ebp]
  0203e	8a 4d 14	 mov	 cl, BYTE PTR _Option3$[ebp]
  02041	88 88 96 00 00
	00		 mov	 BYTE PTR [eax+150], cl

; 1087 : #if(FIX_REQSTR_ITEM==FALSE)
; 1088 : 			this->m_RequireStrength +=  Option3 * 4;
; 1089 : #endif
; 1090 : 
; 1091 : 			if ( (this->m_NewOption&0x20) != 0 )

  02047	8b 45 fc	 mov	 eax, DWORD PTR _this$[ebp]
  0204a	0f b6 88 97 00
	00 00		 movzx	 ecx, BYTE PTR [eax+151]
  02051	83 e1 20	 and	 ecx, 32			; 00000020H
  02054	74 16		 je	 SHORT $LN155@Convert

; 1092 : 			{
; 1093 : 				this->m_Special[this->m_SpecialNum] = 85;

  02056	8b 45 fc	 mov	 eax, DWORD PTR _this$[ebp]
  02059	0f b6 48 30	 movzx	 ecx, BYTE PTR [eax+48]
  0205d	ba 55 00 00 00	 mov	 edx, 85			; 00000055H
  02062	8b 45 fc	 mov	 eax, DWORD PTR _this$[ebp]
  02065	66 89 54 48 32	 mov	 WORD PTR [eax+ecx*2+50], dx

; 1094 : 			}
; 1095 : 			else

  0206a	eb 14		 jmp	 SHORT $LN154@Convert
$LN155@Convert:

; 1096 : 			{
; 1097 : 				this->m_Special[this->m_SpecialNum] = 80;

  0206c	8b 45 fc	 mov	 eax, DWORD PTR _this$[ebp]
  0206f	0f b6 48 30	 movzx	 ecx, BYTE PTR [eax+48]
  02073	ba 50 00 00 00	 mov	 edx, 80			; 00000050H
  02078	8b 45 fc	 mov	 eax, DWORD PTR _this$[ebp]
  0207b	66 89 54 48 32	 mov	 WORD PTR [eax+ecx*2+50], dx
$LN154@Convert:

; 1098 : 			}

  02080	e9 a9 01 00 00	 jmp	 $LN137@Convert
$LN156@Convert:

; 1099 : 
; 1100 : 		}
; 1101 : 		else if ( _type == ITEMGET(12,4) ) // wing soul

  02085	81 7d f8 04 18
	00 00		 cmp	 DWORD PTR __type$[ebp], 6148 ; 00001804H
  0208c	75 4a		 jne	 SHORT $LN152@Convert

; 1102 : 		{
; 1103 : 			this->m_Option3 = Option3;

  0208e	8b 45 fc	 mov	 eax, DWORD PTR _this$[ebp]
  02091	8a 4d 14	 mov	 cl, BYTE PTR _Option3$[ebp]
  02094	88 88 96 00 00
	00		 mov	 BYTE PTR [eax+150], cl

; 1104 : #if(FIX_REQSTR_ITEM==FALSE)
; 1105 : 			this->m_RequireStrength +=  Option3 * 4;
; 1106 : #endif
; 1107 : 
; 1108 : 			if ( (this->m_NewOption&0x20) != 0 )

  0209a	8b 45 fc	 mov	 eax, DWORD PTR _this$[ebp]
  0209d	0f b6 88 97 00
	00 00		 movzx	 ecx, BYTE PTR [eax+151]
  020a4	83 e1 20	 and	 ecx, 32			; 00000020H
  020a7	74 16		 je	 SHORT $LN151@Convert

; 1109 : 			{
; 1110 : 				this->m_Special[this->m_SpecialNum] = 81;

  020a9	8b 45 fc	 mov	 eax, DWORD PTR _this$[ebp]
  020ac	0f b6 48 30	 movzx	 ecx, BYTE PTR [eax+48]
  020b0	ba 51 00 00 00	 mov	 edx, 81			; 00000051H
  020b5	8b 45 fc	 mov	 eax, DWORD PTR _this$[ebp]
  020b8	66 89 54 48 32	 mov	 WORD PTR [eax+ecx*2+50], dx

; 1111 : 			}
; 1112 : 			else

  020bd	eb 14		 jmp	 SHORT $LN150@Convert
$LN151@Convert:

; 1113 : 			{
; 1114 : 				this->m_Special[this->m_SpecialNum] = 85;

  020bf	8b 45 fc	 mov	 eax, DWORD PTR _this$[ebp]
  020c2	0f b6 48 30	 movzx	 ecx, BYTE PTR [eax+48]
  020c6	ba 55 00 00 00	 mov	 edx, 85			; 00000055H
  020cb	8b 45 fc	 mov	 eax, DWORD PTR _this$[ebp]
  020ce	66 89 54 48 32	 mov	 WORD PTR [eax+ecx*2+50], dx
$LN150@Convert:

; 1115 : 			}

  020d3	e9 56 01 00 00	 jmp	 $LN137@Convert
$LN152@Convert:

; 1116 : 
; 1117 : 		}
; 1118 : 		else if ( _type == ITEMGET(12,5) ) // wing dragon

  020d8	81 7d f8 05 18
	00 00		 cmp	 DWORD PTR __type$[ebp], 6149 ; 00001805H
  020df	75 4a		 jne	 SHORT $LN148@Convert

; 1119 : 		{
; 1120 : 			this->m_Option3 = Option3;

  020e1	8b 45 fc	 mov	 eax, DWORD PTR _this$[ebp]
  020e4	8a 4d 14	 mov	 cl, BYTE PTR _Option3$[ebp]
  020e7	88 88 96 00 00
	00		 mov	 BYTE PTR [eax+150], cl

; 1121 : #if(FIX_REQSTR_ITEM==FALSE)
; 1122 : 			this->m_RequireStrength +=  Option3 * 4;
; 1123 : #endif
; 1124 : 
; 1125 : 			if ( (this->m_NewOption&0x20) != 0 )

  020ed	8b 45 fc	 mov	 eax, DWORD PTR _this$[ebp]
  020f0	0f b6 88 97 00
	00 00		 movzx	 ecx, BYTE PTR [eax+151]
  020f7	83 e1 20	 and	 ecx, 32			; 00000020H
  020fa	74 16		 je	 SHORT $LN147@Convert

; 1126 : 			{
; 1127 : 				this->m_Special[this->m_SpecialNum] = 80;

  020fc	8b 45 fc	 mov	 eax, DWORD PTR _this$[ebp]
  020ff	0f b6 48 30	 movzx	 ecx, BYTE PTR [eax+48]
  02103	ba 50 00 00 00	 mov	 edx, 80			; 00000050H
  02108	8b 45 fc	 mov	 eax, DWORD PTR _this$[ebp]
  0210b	66 89 54 48 32	 mov	 WORD PTR [eax+ecx*2+50], dx

; 1128 : 			}
; 1129 : 			else

  02110	eb 14		 jmp	 SHORT $LN146@Convert
$LN147@Convert:

; 1130 : 			{
; 1131 : 				this->m_Special[this->m_SpecialNum] = 85;

  02112	8b 45 fc	 mov	 eax, DWORD PTR _this$[ebp]
  02115	0f b6 48 30	 movzx	 ecx, BYTE PTR [eax+48]
  02119	ba 55 00 00 00	 mov	 edx, 85			; 00000055H
  0211e	8b 45 fc	 mov	 eax, DWORD PTR _this$[ebp]
  02121	66 89 54 48 32	 mov	 WORD PTR [eax+ecx*2+50], dx
$LN146@Convert:

; 1132 : 			}

  02126	e9 03 01 00 00	 jmp	 $LN137@Convert
$LN148@Convert:

; 1133 : 
; 1134 : 		}			
; 1135 : 		else if ( _type == ITEMGET(12,6) ) // wing darkness

  0212b	81 7d f8 06 18
	00 00		 cmp	 DWORD PTR __type$[ebp], 6150 ; 00001806H
  02132	75 4a		 jne	 SHORT $LN144@Convert

; 1136 : 		{
; 1137 : 			this->m_Option3 = Option3;

  02134	8b 45 fc	 mov	 eax, DWORD PTR _this$[ebp]
  02137	8a 4d 14	 mov	 cl, BYTE PTR _Option3$[ebp]
  0213a	88 88 96 00 00
	00		 mov	 BYTE PTR [eax+150], cl

; 1138 : #if(FIX_REQSTR_ITEM==FALSE)
; 1139 : 			this->m_RequireStrength +=  Option3 * 4;
; 1140 : #endif
; 1141 : 
; 1142 : 			if ( (this->m_NewOption&0x20) != 0 )

  02140	8b 45 fc	 mov	 eax, DWORD PTR _this$[ebp]
  02143	0f b6 88 97 00
	00 00		 movzx	 ecx, BYTE PTR [eax+151]
  0214a	83 e1 20	 and	 ecx, 32			; 00000020H
  0214d	74 16		 je	 SHORT $LN143@Convert

; 1143 : 			{
; 1144 : 				this->m_Special[this->m_SpecialNum] = 80;

  0214f	8b 45 fc	 mov	 eax, DWORD PTR _this$[ebp]
  02152	0f b6 48 30	 movzx	 ecx, BYTE PTR [eax+48]
  02156	ba 50 00 00 00	 mov	 edx, 80			; 00000050H
  0215b	8b 45 fc	 mov	 eax, DWORD PTR _this$[ebp]
  0215e	66 89 54 48 32	 mov	 WORD PTR [eax+ecx*2+50], dx

; 1145 : 			}
; 1146 : 			else

  02163	eb 14		 jmp	 SHORT $LN142@Convert
$LN143@Convert:

; 1147 : 			{
; 1148 : 				this->m_Special[this->m_SpecialNum] = 81;

  02165	8b 45 fc	 mov	 eax, DWORD PTR _this$[ebp]
  02168	0f b6 48 30	 movzx	 ecx, BYTE PTR [eax+48]
  0216c	ba 51 00 00 00	 mov	 edx, 81			; 00000051H
  02171	8b 45 fc	 mov	 eax, DWORD PTR _this$[ebp]
  02174	66 89 54 48 32	 mov	 WORD PTR [eax+ecx*2+50], dx
$LN142@Convert:

; 1149 : 			}

  02179	e9 b0 00 00 00	 jmp	 $LN137@Convert
$LN144@Convert:

; 1150 : 
; 1151 : 		}
; 1152 : 		else if ( _type == ITEMGET(13,3) ) // dinorant

  0217e	81 7d f8 03 1a
	00 00		 cmp	 DWORD PTR __type$[ebp], 6659 ; 00001a03H
  02185	0f 85 a3 00 00
	00		 jne	 $LN137@Convert

; 1153 : 		{
; 1154 : 			this->m_Option3 = Option3;

  0218b	8b 45 fc	 mov	 eax, DWORD PTR _this$[ebp]
  0218e	8a 4d 14	 mov	 cl, BYTE PTR _Option3$[ebp]
  02191	88 88 96 00 00
	00		 mov	 BYTE PTR [eax+150], cl

; 1155 : 	
; 1156 : 			if ( (this->m_Option3&0x02) != 0 )

  02197	8b 45 fc	 mov	 eax, DWORD PTR _this$[ebp]
  0219a	0f b6 88 96 00
	00 00		 movzx	 ecx, BYTE PTR [eax+150]
  021a1	83 e1 02	 and	 ecx, 2
  021a4	74 23		 je	 SHORT $LN139@Convert

; 1157 : 			{
; 1158 : 				this->m_Special[this->m_SpecialNum] = 0x67;

  021a6	8b 45 fc	 mov	 eax, DWORD PTR _this$[ebp]
  021a9	0f b6 48 30	 movzx	 ecx, BYTE PTR [eax+48]
  021ad	ba 67 00 00 00	 mov	 edx, 103		; 00000067H
  021b2	8b 45 fc	 mov	 eax, DWORD PTR _this$[ebp]
  021b5	66 89 54 48 32	 mov	 WORD PTR [eax+ecx*2+50], dx

; 1159 : 				this->m_SpecialNum++;

  021ba	8b 45 fc	 mov	 eax, DWORD PTR _this$[ebp]
  021bd	8a 48 30	 mov	 cl, BYTE PTR [eax+48]
  021c0	80 c1 01	 add	 cl, 1
  021c3	8b 55 fc	 mov	 edx, DWORD PTR _this$[ebp]
  021c6	88 4a 30	 mov	 BYTE PTR [edx+48], cl
$LN139@Convert:

; 1160 : 			}
; 1161 : 		
; 1162 : 			if ( (this->m_Option3&0x04) != 0 )

  021c9	8b 45 fc	 mov	 eax, DWORD PTR _this$[ebp]
  021cc	0f b6 88 96 00
	00 00		 movzx	 ecx, BYTE PTR [eax+150]
  021d3	83 e1 04	 and	 ecx, 4
  021d6	74 33		 je	 SHORT $LN138@Convert

; 1163 : 			{
; 1164 : 				this->m_Special[this->m_SpecialNum] = 0x61;

  021d8	8b 45 fc	 mov	 eax, DWORD PTR _this$[ebp]
  021db	0f b6 48 30	 movzx	 ecx, BYTE PTR [eax+48]
  021df	ba 61 00 00 00	 mov	 edx, 97			; 00000061H
  021e4	8b 45 fc	 mov	 eax, DWORD PTR _this$[ebp]
  021e7	66 89 54 48 32	 mov	 WORD PTR [eax+ecx*2+50], dx

; 1165 : 				this->m_SpecialNum++;

  021ec	8b 45 fc	 mov	 eax, DWORD PTR _this$[ebp]
  021ef	8a 48 30	 mov	 cl, BYTE PTR [eax+48]
  021f2	80 c1 01	 add	 cl, 1
  021f5	8b 55 fc	 mov	 edx, DWORD PTR _this$[ebp]
  021f8	88 4a 30	 mov	 BYTE PTR [edx+48], cl

; 1166 : 				this->m_AttackSpeed+=5;

  021fb	8b 45 fc	 mov	 eax, DWORD PTR _this$[ebp]
  021fe	0f b6 48 0d	 movzx	 ecx, BYTE PTR [eax+13]
  02202	83 c1 05	 add	 ecx, 5
  02205	8b 55 fc	 mov	 edx, DWORD PTR _this$[ebp]
  02208	88 4a 0d	 mov	 BYTE PTR [edx+13], cl
$LN138@Convert:

; 1167 : 			}
; 1168 : 		
; 1169 : 			if ( (this->m_Option3&0x01) != 0 )

  0220b	8b 45 fc	 mov	 eax, DWORD PTR _this$[ebp]
  0220e	0f b6 88 96 00
	00 00		 movzx	 ecx, BYTE PTR [eax+150]
  02215	83 e1 01	 and	 ecx, 1
  02218	74 14		 je	 SHORT $LN137@Convert

; 1170 : 			{
; 1171 : 				this->m_Special[this->m_SpecialNum] = 0x68;

  0221a	8b 45 fc	 mov	 eax, DWORD PTR _this$[ebp]
  0221d	0f b6 48 30	 movzx	 ecx, BYTE PTR [eax+48]
  02221	ba 68 00 00 00	 mov	 edx, 104		; 00000068H
  02226	8b 45 fc	 mov	 eax, DWORD PTR _this$[ebp]
  02229	66 89 54 48 32	 mov	 WORD PTR [eax+ecx*2+50], dx
$LN137@Convert:

; 1172 : 			}
; 1173 : 		}
; 1174 : 
; 1175 : 		if ( _type == ITEMGET(13,30) ) // Cape ofLord

  0222e	81 7d f8 1e 1a
	00 00		 cmp	 DWORD PTR __type$[ebp], 6686 ; 00001a1eH
  02235	75 20		 jne	 SHORT $LN136@Convert

; 1176 : 		{
; 1177 : 			this->m_Option3 = Option3;

  02237	8b 45 fc	 mov	 eax, DWORD PTR _this$[ebp]
  0223a	8a 4d 14	 mov	 cl, BYTE PTR _Option3$[ebp]
  0223d	88 88 96 00 00
	00		 mov	 BYTE PTR [eax+150], cl

; 1178 : #if(FIX_REQSTR_ITEM==FALSE)
; 1179 : 			this->m_RequireStrength +=  Option3 * 4;
; 1180 : #endif
; 1181 : 			this->m_Special[this->m_SpecialNum] = 0x50;

  02243	8b 45 fc	 mov	 eax, DWORD PTR _this$[ebp]
  02246	0f b6 48 30	 movzx	 ecx, BYTE PTR [eax+48]
  0224a	ba 50 00 00 00	 mov	 edx, 80			; 00000050H
  0224f	8b 45 fc	 mov	 eax, DWORD PTR _this$[ebp]
  02252	66 89 54 48 32	 mov	 WORD PTR [eax+ecx*2+50], dx
$LN136@Convert:

; 1182 : 		}
; 1183 : 
; 1184 : 		//Season 2.5 add-on (Third Wings)
; 1185 : 		if ( _type == ITEMGET(12,36) ) // Wing of Storm

  02257	81 7d f8 24 18
	00 00		 cmp	 DWORD PTR __type$[ebp], 6180 ; 00001824H
  0225e	75 68		 jne	 SHORT $LN132@Convert

; 1186 : 		{
; 1187 : 			this->m_Option3 = Option3;

  02260	8b 45 fc	 mov	 eax, DWORD PTR _this$[ebp]
  02263	8a 4d 14	 mov	 cl, BYTE PTR _Option3$[ebp]
  02266	88 88 96 00 00
	00		 mov	 BYTE PTR [eax+150], cl

; 1188 : 			this->m_Special[this->m_SpecialNum] = 0x55;

  0226c	8b 45 fc	 mov	 eax, DWORD PTR _this$[ebp]
  0226f	0f b6 48 30	 movzx	 ecx, BYTE PTR [eax+48]
  02273	ba 55 00 00 00	 mov	 edx, 85			; 00000055H
  02278	8b 45 fc	 mov	 eax, DWORD PTR _this$[ebp]
  0227b	66 89 54 48 32	 mov	 WORD PTR [eax+ecx*2+50], dx

; 1189 : 
; 1190 : 			if( (this->m_NewOption & 0x10) != FALSE )

  02280	8b 45 fc	 mov	 eax, DWORD PTR _this$[ebp]
  02283	0f b6 88 97 00
	00 00		 movzx	 ecx, BYTE PTR [eax+151]
  0228a	83 e1 10	 and	 ecx, 16			; 00000010H
  0228d	74 16		 je	 SHORT $LN134@Convert

; 1191 : 			{
; 1192 : 				this->m_Special[this->m_SpecialNum] = 0x50;

  0228f	8b 45 fc	 mov	 eax, DWORD PTR _this$[ebp]
  02292	0f b6 48 30	 movzx	 ecx, BYTE PTR [eax+48]
  02296	ba 50 00 00 00	 mov	 edx, 80			; 00000050H
  0229b	8b 45 fc	 mov	 eax, DWORD PTR _this$[ebp]
  0229e	66 89 54 48 32	 mov	 WORD PTR [eax+ecx*2+50], dx
  022a3	eb 23		 jmp	 SHORT $LN132@Convert
$LN134@Convert:

; 1193 : 			}
; 1194 : 			else if( (this->m_NewOption & 0x20) != FALSE )

  022a5	8b 45 fc	 mov	 eax, DWORD PTR _this$[ebp]
  022a8	0f b6 88 97 00
	00 00		 movzx	 ecx, BYTE PTR [eax+151]
  022af	83 e1 20	 and	 ecx, 32			; 00000020H
  022b2	74 14		 je	 SHORT $LN132@Convert

; 1195 : 			{
; 1196 : 				this->m_Special[this->m_SpecialNum] = 0x53;

  022b4	8b 45 fc	 mov	 eax, DWORD PTR _this$[ebp]
  022b7	0f b6 48 30	 movzx	 ecx, BYTE PTR [eax+48]
  022bb	ba 53 00 00 00	 mov	 edx, 83			; 00000053H
  022c0	8b 45 fc	 mov	 eax, DWORD PTR _this$[ebp]
  022c3	66 89 54 48 32	 mov	 WORD PTR [eax+ecx*2+50], dx
$LN132@Convert:

; 1197 : 			}
; 1198 : 		}
; 1199 : 
; 1200 : 		if ( _type == MuItem::miCAPE_FIGTHER )

  022c8	81 7d f8 31 18
	00 00		 cmp	 DWORD PTR __type$[ebp], 6193 ; 00001831H
  022cf	75 45		 jne	 SHORT $LN129@Convert

; 1201 : 		{
; 1202 : 			this->m_Option3 = Option3;

  022d1	8b 45 fc	 mov	 eax, DWORD PTR _this$[ebp]
  022d4	8a 4d 14	 mov	 cl, BYTE PTR _Option3$[ebp]
  022d7	88 88 96 00 00
	00		 mov	 BYTE PTR [eax+150], cl

; 1203 : #if(FIX_REQSTR_ITEM==FALSE)
; 1204 : 			this->m_RequireStrength +=  Option3 * 4;
; 1205 : #endif
; 1206 : 			if ( this->m_NewOption & 0x20 )

  022dd	8b 45 fc	 mov	 eax, DWORD PTR _this$[ebp]
  022e0	0f b6 88 97 00
	00 00		 movzx	 ecx, BYTE PTR [eax+151]
  022e7	83 e1 20	 and	 ecx, 32			; 00000020H
  022ea	74 16		 je	 SHORT $LN130@Convert

; 1207 : 				this->m_Special[this->m_SpecialNum] = 80;

  022ec	8b 45 fc	 mov	 eax, DWORD PTR _this$[ebp]
  022ef	0f b6 48 30	 movzx	 ecx, BYTE PTR [eax+48]
  022f3	ba 50 00 00 00	 mov	 edx, 80			; 00000050H
  022f8	8b 45 fc	 mov	 eax, DWORD PTR _this$[ebp]
  022fb	66 89 54 48 32	 mov	 WORD PTR [eax+ecx*2+50], dx

; 1208 : 			else

  02300	eb 14		 jmp	 SHORT $LN129@Convert
$LN130@Convert:

; 1209 : 				this->m_Special[this->m_SpecialNum] = 85;

  02302	8b 45 fc	 mov	 eax, DWORD PTR _this$[ebp]
  02305	0f b6 48 30	 movzx	 ecx, BYTE PTR [eax+48]
  02309	ba 55 00 00 00	 mov	 edx, 85			; 00000055H
  0230e	8b 45 fc	 mov	 eax, DWORD PTR _this$[ebp]
  02311	66 89 54 48 32	 mov	 WORD PTR [eax+ecx*2+50], dx
$LN129@Convert:

; 1210 : 		}
; 1211 : 
; 1212 : 
; 1213 : 		if ( _type == MuItem::miCAPE_OVERRULE )

  02316	81 7d f8 32 18
	00 00		 cmp	 DWORD PTR __type$[ebp], 6194 ; 00001832H
  0231d	75 68		 jne	 SHORT $LN125@Convert

; 1214 : 		{
; 1215 : 			this->m_Option3 = Option3;

  0231f	8b 45 fc	 mov	 eax, DWORD PTR _this$[ebp]
  02322	8a 4d 14	 mov	 cl, BYTE PTR _Option3$[ebp]
  02325	88 88 96 00 00
	00		 mov	 BYTE PTR [eax+150], cl

; 1216 : 			this->m_Special[this->m_SpecialNum] = 85;

  0232b	8b 45 fc	 mov	 eax, DWORD PTR _this$[ebp]
  0232e	0f b6 48 30	 movzx	 ecx, BYTE PTR [eax+48]
  02332	ba 55 00 00 00	 mov	 edx, 85			; 00000055H
  02337	8b 45 fc	 mov	 eax, DWORD PTR _this$[ebp]
  0233a	66 89 54 48 32	 mov	 WORD PTR [eax+ecx*2+50], dx

; 1217 : 
; 1218 : 			if ( this->m_NewOption & 0x10 )

  0233f	8b 45 fc	 mov	 eax, DWORD PTR _this$[ebp]
  02342	0f b6 88 97 00
	00 00		 movzx	 ecx, BYTE PTR [eax+151]
  02349	83 e1 10	 and	 ecx, 16			; 00000010H
  0234c	74 16		 je	 SHORT $LN127@Convert

; 1219 : 			{
; 1220 : 				this->m_Special[this->m_SpecialNum] = 80;

  0234e	8b 45 fc	 mov	 eax, DWORD PTR _this$[ebp]
  02351	0f b6 48 30	 movzx	 ecx, BYTE PTR [eax+48]
  02355	ba 50 00 00 00	 mov	 edx, 80			; 00000050H
  0235a	8b 45 fc	 mov	 eax, DWORD PTR _this$[ebp]
  0235d	66 89 54 48 32	 mov	 WORD PTR [eax+ecx*2+50], dx
  02362	eb 23		 jmp	 SHORT $LN125@Convert
$LN127@Convert:

; 1221 : 			}
; 1222 : 			else if ( this->m_NewOption & 0x20 )

  02364	8b 45 fc	 mov	 eax, DWORD PTR _this$[ebp]
  02367	0f b6 88 97 00
	00 00		 movzx	 ecx, BYTE PTR [eax+151]
  0236e	83 e1 20	 and	 ecx, 32			; 00000020H
  02371	74 14		 je	 SHORT $LN125@Convert

; 1223 : 			{
; 1224 : 					this->m_Special[this->m_SpecialNum] = 83;

  02373	8b 45 fc	 mov	 eax, DWORD PTR _this$[ebp]
  02376	0f b6 48 30	 movzx	 ecx, BYTE PTR [eax+48]
  0237a	ba 53 00 00 00	 mov	 edx, 83			; 00000053H
  0237f	8b 45 fc	 mov	 eax, DWORD PTR _this$[ebp]
  02382	66 89 54 48 32	 mov	 WORD PTR [eax+ecx*2+50], dx
$LN125@Convert:

; 1225 : 			}
; 1226 : 		}
; 1227 : 
; 1228 : #ifdef NEWWINGS_4
; 1229 : 		if ( IS_NEWWINGS_4(_type) )

  02387	81 7d f8 b4 18
	00 00		 cmp	 DWORD PTR __type$[ebp], 6324 ; 000018b4H
  0238e	7d 09		 jge	 SHORT $LN427@Convert
  02390	c7 45 8c 00 00
	00 00		 mov	 DWORD PTR tv1838[ebp], 0
  02397	eb 0f		 jmp	 SHORT $LN428@Convert
$LN427@Convert:
  02399	33 c0		 xor	 eax, eax
  0239b	81 7d f8 b9 18
	00 00		 cmp	 DWORD PTR __type$[ebp], 6329 ; 000018b9H
  023a2	0f 9e c0	 setle	 al
  023a5	89 45 8c	 mov	 DWORD PTR tv1838[ebp], eax
$LN428@Convert:
  023a8	83 7d 8c 00	 cmp	 DWORD PTR tv1838[ebp], 0
  023ac	74 68		 je	 SHORT $LN121@Convert

; 1230 : 		{
; 1231 : 			this->m_Option3 = Option3;

  023ae	8b 45 fc	 mov	 eax, DWORD PTR _this$[ebp]
  023b1	8a 4d 14	 mov	 cl, BYTE PTR _Option3$[ebp]
  023b4	88 88 96 00 00
	00		 mov	 BYTE PTR [eax+150], cl

; 1232 : 			this->m_Special[this->m_SpecialNum] = 0x55;

  023ba	8b 45 fc	 mov	 eax, DWORD PTR _this$[ebp]
  023bd	0f b6 48 30	 movzx	 ecx, BYTE PTR [eax+48]
  023c1	ba 55 00 00 00	 mov	 edx, 85			; 00000055H
  023c6	8b 45 fc	 mov	 eax, DWORD PTR _this$[ebp]
  023c9	66 89 54 48 32	 mov	 WORD PTR [eax+ecx*2+50], dx

; 1233 : 
; 1234 : 			if( (this->m_NewOption & 0x10) != FALSE )

  023ce	8b 45 fc	 mov	 eax, DWORD PTR _this$[ebp]
  023d1	0f b6 88 97 00
	00 00		 movzx	 ecx, BYTE PTR [eax+151]
  023d8	83 e1 10	 and	 ecx, 16			; 00000010H
  023db	74 16		 je	 SHORT $LN123@Convert

; 1235 : 			{
; 1236 : 				this->m_Special[this->m_SpecialNum] = 0x50;

  023dd	8b 45 fc	 mov	 eax, DWORD PTR _this$[ebp]
  023e0	0f b6 48 30	 movzx	 ecx, BYTE PTR [eax+48]
  023e4	ba 50 00 00 00	 mov	 edx, 80			; 00000050H
  023e9	8b 45 fc	 mov	 eax, DWORD PTR _this$[ebp]
  023ec	66 89 54 48 32	 mov	 WORD PTR [eax+ecx*2+50], dx
  023f1	eb 23		 jmp	 SHORT $LN121@Convert
$LN123@Convert:

; 1237 : 			}
; 1238 : 			else if( (this->m_NewOption & 0x20) != FALSE )

  023f3	8b 45 fc	 mov	 eax, DWORD PTR _this$[ebp]
  023f6	0f b6 88 97 00
	00 00		 movzx	 ecx, BYTE PTR [eax+151]
  023fd	83 e1 20	 and	 ecx, 32			; 00000020H
  02400	74 14		 je	 SHORT $LN121@Convert

; 1239 : 			{
; 1240 : 				this->m_Special[this->m_SpecialNum] = 0x53;

  02402	8b 45 fc	 mov	 eax, DWORD PTR _this$[ebp]
  02405	0f b6 48 30	 movzx	 ecx, BYTE PTR [eax+48]
  02409	ba 53 00 00 00	 mov	 edx, 83			; 00000053H
  0240e	8b 45 fc	 mov	 eax, DWORD PTR _this$[ebp]
  02411	66 89 54 48 32	 mov	 WORD PTR [eax+ecx*2+50], dx
$LN121@Convert:

; 1241 : 			}
; 1242 : 		}
; 1243 : #endif
; 1244 : 
; 1245 : #ifdef NEWWINGS_2_5
; 1246 : 		if ( IS_NEWWINGS_2_5(_type) )

  02416	81 7d f8 ba 18
	00 00		 cmp	 DWORD PTR __type$[ebp], 6330 ; 000018baH
  0241d	7d 09		 jge	 SHORT $LN429@Convert
  0241f	c7 45 8c 00 00
	00 00		 mov	 DWORD PTR tv1867[ebp], 0
  02426	eb 0f		 jmp	 SHORT $LN430@Convert
$LN429@Convert:
  02428	33 c0		 xor	 eax, eax
  0242a	81 7d f8 bc 18
	00 00		 cmp	 DWORD PTR __type$[ebp], 6332 ; 000018bcH
  02431	0f 9e c0	 setle	 al
  02434	89 45 8c	 mov	 DWORD PTR tv1867[ebp], eax
$LN430@Convert:
  02437	83 7d 8c 00	 cmp	 DWORD PTR tv1867[ebp], 0
  0243b	74 68		 je	 SHORT $LN117@Convert

; 1247 : 		{
; 1248 : 			this->m_Option3 = Option3;

  0243d	8b 45 fc	 mov	 eax, DWORD PTR _this$[ebp]
  02440	8a 4d 14	 mov	 cl, BYTE PTR _Option3$[ebp]
  02443	88 88 96 00 00
	00		 mov	 BYTE PTR [eax+150], cl

; 1249 : 			this->m_Special[this->m_SpecialNum] = 0x55;

  02449	8b 45 fc	 mov	 eax, DWORD PTR _this$[ebp]
  0244c	0f b6 48 30	 movzx	 ecx, BYTE PTR [eax+48]
  02450	ba 55 00 00 00	 mov	 edx, 85			; 00000055H
  02455	8b 45 fc	 mov	 eax, DWORD PTR _this$[ebp]
  02458	66 89 54 48 32	 mov	 WORD PTR [eax+ecx*2+50], dx

; 1250 : 
; 1251 : 			if( (this->m_NewOption & 0x10) != FALSE )

  0245d	8b 45 fc	 mov	 eax, DWORD PTR _this$[ebp]
  02460	0f b6 88 97 00
	00 00		 movzx	 ecx, BYTE PTR [eax+151]
  02467	83 e1 10	 and	 ecx, 16			; 00000010H
  0246a	74 16		 je	 SHORT $LN119@Convert

; 1252 : 			{
; 1253 : 				this->m_Special[this->m_SpecialNum] = 0x50;

  0246c	8b 45 fc	 mov	 eax, DWORD PTR _this$[ebp]
  0246f	0f b6 48 30	 movzx	 ecx, BYTE PTR [eax+48]
  02473	ba 50 00 00 00	 mov	 edx, 80			; 00000050H
  02478	8b 45 fc	 mov	 eax, DWORD PTR _this$[ebp]
  0247b	66 89 54 48 32	 mov	 WORD PTR [eax+ecx*2+50], dx
  02480	eb 23		 jmp	 SHORT $LN117@Convert
$LN119@Convert:

; 1254 : 			}
; 1255 : 			else if( (this->m_NewOption & 0x20) != FALSE )

  02482	8b 45 fc	 mov	 eax, DWORD PTR _this$[ebp]
  02485	0f b6 88 97 00
	00 00		 movzx	 ecx, BYTE PTR [eax+151]
  0248c	83 e1 20	 and	 ecx, 32			; 00000020H
  0248f	74 14		 je	 SHORT $LN117@Convert

; 1256 : 			{
; 1257 : 				this->m_Special[this->m_SpecialNum] = 0x53;

  02491	8b 45 fc	 mov	 eax, DWORD PTR _this$[ebp]
  02494	0f b6 48 30	 movzx	 ecx, BYTE PTR [eax+48]
  02498	ba 53 00 00 00	 mov	 edx, 83			; 00000053H
  0249d	8b 45 fc	 mov	 eax, DWORD PTR _this$[ebp]
  024a0	66 89 54 48 32	 mov	 WORD PTR [eax+ecx*2+50], dx
$LN117@Convert:

; 1258 : 			}
; 1259 : 		}
; 1260 : #endif
; 1261 : 
; 1262 : #ifdef NEWWINGS_5
; 1263 : 		if ( IS_NEWWINGS_5(_type) )

  024a5	81 7d f8 bd 18
	00 00		 cmp	 DWORD PTR __type$[ebp], 6333 ; 000018bdH
  024ac	7d 09		 jge	 SHORT $LN431@Convert
  024ae	c7 45 8c 00 00
	00 00		 mov	 DWORD PTR tv1896[ebp], 0
  024b5	eb 0f		 jmp	 SHORT $LN432@Convert
$LN431@Convert:
  024b7	33 c0		 xor	 eax, eax
  024b9	81 7d f8 c2 18
	00 00		 cmp	 DWORD PTR __type$[ebp], 6338 ; 000018c2H
  024c0	0f 9e c0	 setle	 al
  024c3	89 45 8c	 mov	 DWORD PTR tv1896[ebp], eax
$LN432@Convert:
  024c6	83 7d 8c 00	 cmp	 DWORD PTR tv1896[ebp], 0
  024ca	74 68		 je	 SHORT $LN113@Convert

; 1264 : 		{
; 1265 : 			this->m_Option3 = Option3;

  024cc	8b 45 fc	 mov	 eax, DWORD PTR _this$[ebp]
  024cf	8a 4d 14	 mov	 cl, BYTE PTR _Option3$[ebp]
  024d2	88 88 96 00 00
	00		 mov	 BYTE PTR [eax+150], cl

; 1266 : 			this->m_Special[this->m_SpecialNum] = 0x55;

  024d8	8b 45 fc	 mov	 eax, DWORD PTR _this$[ebp]
  024db	0f b6 48 30	 movzx	 ecx, BYTE PTR [eax+48]
  024df	ba 55 00 00 00	 mov	 edx, 85			; 00000055H
  024e4	8b 45 fc	 mov	 eax, DWORD PTR _this$[ebp]
  024e7	66 89 54 48 32	 mov	 WORD PTR [eax+ecx*2+50], dx

; 1267 : 
; 1268 : 			if( (this->m_NewOption & 0x10) != FALSE )

  024ec	8b 45 fc	 mov	 eax, DWORD PTR _this$[ebp]
  024ef	0f b6 88 97 00
	00 00		 movzx	 ecx, BYTE PTR [eax+151]
  024f6	83 e1 10	 and	 ecx, 16			; 00000010H
  024f9	74 16		 je	 SHORT $LN115@Convert

; 1269 : 			{
; 1270 : 				this->m_Special[this->m_SpecialNum] = 0x50;

  024fb	8b 45 fc	 mov	 eax, DWORD PTR _this$[ebp]
  024fe	0f b6 48 30	 movzx	 ecx, BYTE PTR [eax+48]
  02502	ba 50 00 00 00	 mov	 edx, 80			; 00000050H
  02507	8b 45 fc	 mov	 eax, DWORD PTR _this$[ebp]
  0250a	66 89 54 48 32	 mov	 WORD PTR [eax+ecx*2+50], dx
  0250f	eb 23		 jmp	 SHORT $LN113@Convert
$LN115@Convert:

; 1271 : 			}
; 1272 : 			else if( (this->m_NewOption & 0x20) != FALSE )

  02511	8b 45 fc	 mov	 eax, DWORD PTR _this$[ebp]
  02514	0f b6 88 97 00
	00 00		 movzx	 ecx, BYTE PTR [eax+151]
  0251b	83 e1 20	 and	 ecx, 32			; 00000020H
  0251e	74 14		 je	 SHORT $LN113@Convert

; 1273 : 			{
; 1274 : 				this->m_Special[this->m_SpecialNum] = 0x53;

  02520	8b 45 fc	 mov	 eax, DWORD PTR _this$[ebp]
  02523	0f b6 48 30	 movzx	 ecx, BYTE PTR [eax+48]
  02527	ba 53 00 00 00	 mov	 edx, 83			; 00000053H
  0252c	8b 45 fc	 mov	 eax, DWORD PTR _this$[ebp]
  0252f	66 89 54 48 32	 mov	 WORD PTR [eax+ecx*2+50], dx
$LN113@Convert:

; 1275 : 			}
; 1276 : 		}
; 1277 : #endif
; 1278 : #ifdef NEWWINGS_6
; 1279 : 		if ( IS_NEWWINGS_6(_type) )

  02534	81 7d f8 c3 18
	00 00		 cmp	 DWORD PTR __type$[ebp], 6339 ; 000018c3H
  0253b	7d 09		 jge	 SHORT $LN433@Convert
  0253d	c7 45 8c 00 00
	00 00		 mov	 DWORD PTR tv1925[ebp], 0
  02544	eb 0f		 jmp	 SHORT $LN434@Convert
$LN433@Convert:
  02546	33 c0		 xor	 eax, eax
  02548	81 7d f8 dc 18
	00 00		 cmp	 DWORD PTR __type$[ebp], 6364 ; 000018dcH
  0254f	0f 9e c0	 setle	 al
  02552	89 45 8c	 mov	 DWORD PTR tv1925[ebp], eax
$LN434@Convert:
  02555	83 7d 8c 00	 cmp	 DWORD PTR tv1925[ebp], 0
  02559	74 68		 je	 SHORT $LN109@Convert

; 1280 : 		{
; 1281 : 			this->m_Option3 = Option3;

  0255b	8b 45 fc	 mov	 eax, DWORD PTR _this$[ebp]
  0255e	8a 4d 14	 mov	 cl, BYTE PTR _Option3$[ebp]
  02561	88 88 96 00 00
	00		 mov	 BYTE PTR [eax+150], cl

; 1282 : 			this->m_Special[this->m_SpecialNum] = 0x55;

  02567	8b 45 fc	 mov	 eax, DWORD PTR _this$[ebp]
  0256a	0f b6 48 30	 movzx	 ecx, BYTE PTR [eax+48]
  0256e	ba 55 00 00 00	 mov	 edx, 85			; 00000055H
  02573	8b 45 fc	 mov	 eax, DWORD PTR _this$[ebp]
  02576	66 89 54 48 32	 mov	 WORD PTR [eax+ecx*2+50], dx

; 1283 : 
; 1284 : 			if( (this->m_NewOption & 0x10) != FALSE )

  0257b	8b 45 fc	 mov	 eax, DWORD PTR _this$[ebp]
  0257e	0f b6 88 97 00
	00 00		 movzx	 ecx, BYTE PTR [eax+151]
  02585	83 e1 10	 and	 ecx, 16			; 00000010H
  02588	74 16		 je	 SHORT $LN111@Convert

; 1285 : 			{
; 1286 : 				this->m_Special[this->m_SpecialNum] = 0x50;

  0258a	8b 45 fc	 mov	 eax, DWORD PTR _this$[ebp]
  0258d	0f b6 48 30	 movzx	 ecx, BYTE PTR [eax+48]
  02591	ba 50 00 00 00	 mov	 edx, 80			; 00000050H
  02596	8b 45 fc	 mov	 eax, DWORD PTR _this$[ebp]
  02599	66 89 54 48 32	 mov	 WORD PTR [eax+ecx*2+50], dx
  0259e	eb 23		 jmp	 SHORT $LN109@Convert
$LN111@Convert:

; 1287 : 			}
; 1288 : 			else if( (this->m_NewOption & 0x20) != FALSE )

  025a0	8b 45 fc	 mov	 eax, DWORD PTR _this$[ebp]
  025a3	0f b6 88 97 00
	00 00		 movzx	 ecx, BYTE PTR [eax+151]
  025aa	83 e1 20	 and	 ecx, 32			; 00000020H
  025ad	74 14		 je	 SHORT $LN109@Convert

; 1289 : 			{
; 1290 : 				this->m_Special[this->m_SpecialNum] = 0x53;

  025af	8b 45 fc	 mov	 eax, DWORD PTR _this$[ebp]
  025b2	0f b6 48 30	 movzx	 ecx, BYTE PTR [eax+48]
  025b6	ba 53 00 00 00	 mov	 edx, 83			; 00000053H
  025bb	8b 45 fc	 mov	 eax, DWORD PTR _this$[ebp]
  025be	66 89 54 48 32	 mov	 WORD PTR [eax+ecx*2+50], dx
$LN109@Convert:

; 1291 : 			}
; 1292 : 		}
; 1293 : #endif
; 1294 : 
; 1295 : 		if ( _type == ITEMGET(12,37) ) // Wing of Eternal

  025c3	81 7d f8 25 18
	00 00		 cmp	 DWORD PTR __type$[ebp], 6181 ; 00001825H
  025ca	75 68		 jne	 SHORT $LN105@Convert

; 1296 : 		{
; 1297 : 			this->m_Option3 = Option3;

  025cc	8b 45 fc	 mov	 eax, DWORD PTR _this$[ebp]
  025cf	8a 4d 14	 mov	 cl, BYTE PTR _Option3$[ebp]
  025d2	88 88 96 00 00
	00		 mov	 BYTE PTR [eax+150], cl

; 1298 : 			this->m_Special[this->m_SpecialNum] = 0x55;

  025d8	8b 45 fc	 mov	 eax, DWORD PTR _this$[ebp]
  025db	0f b6 48 30	 movzx	 ecx, BYTE PTR [eax+48]
  025df	ba 55 00 00 00	 mov	 edx, 85			; 00000055H
  025e4	8b 45 fc	 mov	 eax, DWORD PTR _this$[ebp]
  025e7	66 89 54 48 32	 mov	 WORD PTR [eax+ecx*2+50], dx

; 1299 : 
; 1300 : 			if( (this->m_NewOption & 0x10) != FALSE )

  025ec	8b 45 fc	 mov	 eax, DWORD PTR _this$[ebp]
  025ef	0f b6 88 97 00
	00 00		 movzx	 ecx, BYTE PTR [eax+151]
  025f6	83 e1 10	 and	 ecx, 16			; 00000010H
  025f9	74 16		 je	 SHORT $LN107@Convert

; 1301 : 			{
; 1302 : 				this->m_Special[this->m_SpecialNum] = 0x51;

  025fb	8b 45 fc	 mov	 eax, DWORD PTR _this$[ebp]
  025fe	0f b6 48 30	 movzx	 ecx, BYTE PTR [eax+48]
  02602	ba 51 00 00 00	 mov	 edx, 81			; 00000051H
  02607	8b 45 fc	 mov	 eax, DWORD PTR _this$[ebp]
  0260a	66 89 54 48 32	 mov	 WORD PTR [eax+ecx*2+50], dx
  0260f	eb 23		 jmp	 SHORT $LN105@Convert
$LN107@Convert:

; 1303 : 			}
; 1304 : 			else if( (this->m_NewOption & 0x20) != FALSE )

  02611	8b 45 fc	 mov	 eax, DWORD PTR _this$[ebp]
  02614	0f b6 88 97 00
	00 00		 movzx	 ecx, BYTE PTR [eax+151]
  0261b	83 e1 20	 and	 ecx, 32			; 00000020H
  0261e	74 14		 je	 SHORT $LN105@Convert

; 1305 : 			{
; 1306 : 				this->m_Special[this->m_SpecialNum] = 0x53;

  02620	8b 45 fc	 mov	 eax, DWORD PTR _this$[ebp]
  02623	0f b6 48 30	 movzx	 ecx, BYTE PTR [eax+48]
  02627	ba 53 00 00 00	 mov	 edx, 83			; 00000053H
  0262c	8b 45 fc	 mov	 eax, DWORD PTR _this$[ebp]
  0262f	66 89 54 48 32	 mov	 WORD PTR [eax+ecx*2+50], dx
$LN105@Convert:

; 1307 : 			}
; 1308 : 		}
; 1309 : 
; 1310 : 		if ( _type == ITEMGET(12,38) ) // Wing of Illusion

  02634	81 7d f8 26 18
	00 00		 cmp	 DWORD PTR __type$[ebp], 6182 ; 00001826H
  0263b	75 68		 jne	 SHORT $LN101@Convert

; 1311 : 		{
; 1312 : 			this->m_Option3 = Option3;

  0263d	8b 45 fc	 mov	 eax, DWORD PTR _this$[ebp]
  02640	8a 4d 14	 mov	 cl, BYTE PTR _Option3$[ebp]
  02643	88 88 96 00 00
	00		 mov	 BYTE PTR [eax+150], cl

; 1313 : 			this->m_Special[this->m_SpecialNum] = 0x55;

  02649	8b 45 fc	 mov	 eax, DWORD PTR _this$[ebp]
  0264c	0f b6 48 30	 movzx	 ecx, BYTE PTR [eax+48]
  02650	ba 55 00 00 00	 mov	 edx, 85			; 00000055H
  02655	8b 45 fc	 mov	 eax, DWORD PTR _this$[ebp]
  02658	66 89 54 48 32	 mov	 WORD PTR [eax+ecx*2+50], dx

; 1314 : 
; 1315 : 			if( (this->m_NewOption & 0x10) != FALSE )

  0265d	8b 45 fc	 mov	 eax, DWORD PTR _this$[ebp]
  02660	0f b6 88 97 00
	00 00		 movzx	 ecx, BYTE PTR [eax+151]
  02667	83 e1 10	 and	 ecx, 16			; 00000010H
  0266a	74 16		 je	 SHORT $LN103@Convert

; 1316 : 			{
; 1317 : 				this->m_Special[this->m_SpecialNum] = 0x50;

  0266c	8b 45 fc	 mov	 eax, DWORD PTR _this$[ebp]
  0266f	0f b6 48 30	 movzx	 ecx, BYTE PTR [eax+48]
  02673	ba 50 00 00 00	 mov	 edx, 80			; 00000050H
  02678	8b 45 fc	 mov	 eax, DWORD PTR _this$[ebp]
  0267b	66 89 54 48 32	 mov	 WORD PTR [eax+ecx*2+50], dx
  02680	eb 23		 jmp	 SHORT $LN101@Convert
$LN103@Convert:

; 1318 : 			}
; 1319 : 			else if( (this->m_NewOption & 0x20) != FALSE )

  02682	8b 45 fc	 mov	 eax, DWORD PTR _this$[ebp]
  02685	0f b6 88 97 00
	00 00		 movzx	 ecx, BYTE PTR [eax+151]
  0268c	83 e1 20	 and	 ecx, 32			; 00000020H
  0268f	74 14		 je	 SHORT $LN101@Convert

; 1320 : 			{
; 1321 : 				this->m_Special[this->m_SpecialNum] = 0x53;

  02691	8b 45 fc	 mov	 eax, DWORD PTR _this$[ebp]
  02694	0f b6 48 30	 movzx	 ecx, BYTE PTR [eax+48]
  02698	ba 53 00 00 00	 mov	 edx, 83			; 00000053H
  0269d	8b 45 fc	 mov	 eax, DWORD PTR _this$[ebp]
  026a0	66 89 54 48 32	 mov	 WORD PTR [eax+ecx*2+50], dx
$LN101@Convert:

; 1322 : 			}
; 1323 : 		}
; 1324 : 
; 1325 : 		if ( _type == ITEMGET(12,39) ) // Wing of Ruin

  026a5	81 7d f8 27 18
	00 00		 cmp	 DWORD PTR __type$[ebp], 6183 ; 00001827H
  026ac	75 68		 jne	 SHORT $LN97@Convert

; 1326 : 		{
; 1327 : 			this->m_Option3 = Option3;

  026ae	8b 45 fc	 mov	 eax, DWORD PTR _this$[ebp]
  026b1	8a 4d 14	 mov	 cl, BYTE PTR _Option3$[ebp]
  026b4	88 88 96 00 00
	00		 mov	 BYTE PTR [eax+150], cl

; 1328 : 			this->m_Special[this->m_SpecialNum] = 0x55;

  026ba	8b 45 fc	 mov	 eax, DWORD PTR _this$[ebp]
  026bd	0f b6 48 30	 movzx	 ecx, BYTE PTR [eax+48]
  026c1	ba 55 00 00 00	 mov	 edx, 85			; 00000055H
  026c6	8b 45 fc	 mov	 eax, DWORD PTR _this$[ebp]
  026c9	66 89 54 48 32	 mov	 WORD PTR [eax+ecx*2+50], dx

; 1329 : 
; 1330 : 			if( (this->m_NewOption & 0x10) != FALSE )

  026ce	8b 45 fc	 mov	 eax, DWORD PTR _this$[ebp]
  026d1	0f b6 88 97 00
	00 00		 movzx	 ecx, BYTE PTR [eax+151]
  026d8	83 e1 10	 and	 ecx, 16			; 00000010H
  026db	74 16		 je	 SHORT $LN99@Convert

; 1331 : 			{
; 1332 : 				this->m_Special[this->m_SpecialNum] = 0x50;

  026dd	8b 45 fc	 mov	 eax, DWORD PTR _this$[ebp]
  026e0	0f b6 48 30	 movzx	 ecx, BYTE PTR [eax+48]
  026e4	ba 50 00 00 00	 mov	 edx, 80			; 00000050H
  026e9	8b 45 fc	 mov	 eax, DWORD PTR _this$[ebp]
  026ec	66 89 54 48 32	 mov	 WORD PTR [eax+ecx*2+50], dx
  026f1	eb 23		 jmp	 SHORT $LN97@Convert
$LN99@Convert:

; 1333 : 			}
; 1334 : 			else if( (this->m_NewOption & 0x20) != FALSE )

  026f3	8b 45 fc	 mov	 eax, DWORD PTR _this$[ebp]
  026f6	0f b6 88 97 00
	00 00		 movzx	 ecx, BYTE PTR [eax+151]
  026fd	83 e1 20	 and	 ecx, 32			; 00000020H
  02700	74 14		 je	 SHORT $LN97@Convert

; 1335 : 			{
; 1336 : 				this->m_Special[this->m_SpecialNum] = 0x51;

  02702	8b 45 fc	 mov	 eax, DWORD PTR _this$[ebp]
  02705	0f b6 48 30	 movzx	 ecx, BYTE PTR [eax+48]
  02709	ba 51 00 00 00	 mov	 edx, 81			; 00000051H
  0270e	8b 45 fc	 mov	 eax, DWORD PTR _this$[ebp]
  02711	66 89 54 48 32	 mov	 WORD PTR [eax+ecx*2+50], dx
$LN97@Convert:

; 1337 : 			}
; 1338 : 		}
; 1339 : 
; 1340 : 		if ( _type == ITEMGET(12,40) ) // Cape of Emperor

  02716	81 7d f8 28 18
	00 00		 cmp	 DWORD PTR __type$[ebp], 6184 ; 00001828H
  0271d	75 6d		 jne	 SHORT $LN96@Convert

; 1341 : 		{
; 1342 : 			this->m_Option3 = Option3;

  0271f	8b 45 fc	 mov	 eax, DWORD PTR _this$[ebp]
  02722	8a 4d 14	 mov	 cl, BYTE PTR _Option3$[ebp]
  02725	88 88 96 00 00
	00		 mov	 BYTE PTR [eax+150], cl

; 1343 : 			this->m_Special[this->m_SpecialNum] = 0x55;

  0272b	8b 45 fc	 mov	 eax, DWORD PTR _this$[ebp]
  0272e	0f b6 48 30	 movzx	 ecx, BYTE PTR [eax+48]
  02732	ba 55 00 00 00	 mov	 edx, 85			; 00000055H
  02737	8b 45 fc	 mov	 eax, DWORD PTR _this$[ebp]
  0273a	66 89 54 48 32	 mov	 WORD PTR [eax+ecx*2+50], dx

; 1344 : 
; 1345 : 			if( (this->m_NewOption & 0x10) != FALSE )

  0273f	8b 45 fc	 mov	 eax, DWORD PTR _this$[ebp]
  02742	0f b6 88 97 00
	00 00		 movzx	 ecx, BYTE PTR [eax+151]
  02749	83 e1 10	 and	 ecx, 16			; 00000010H
  0274c	74 16		 je	 SHORT $LN95@Convert

; 1346 : 			{
; 1347 : 				this->m_Special[this->m_SpecialNum] = 0x50;

  0274e	8b 45 fc	 mov	 eax, DWORD PTR _this$[ebp]
  02751	0f b6 48 30	 movzx	 ecx, BYTE PTR [eax+48]
  02755	ba 50 00 00 00	 mov	 edx, 80			; 00000050H
  0275a	8b 45 fc	 mov	 eax, DWORD PTR _this$[ebp]
  0275d	66 89 54 48 32	 mov	 WORD PTR [eax+ecx*2+50], dx
  02762	eb 23		 jmp	 SHORT $LN93@Convert
$LN95@Convert:

; 1348 : 			}
; 1349 : 			else if( (this->m_NewOption & 0x20) != FALSE )

  02764	8b 45 fc	 mov	 eax, DWORD PTR _this$[ebp]
  02767	0f b6 88 97 00
	00 00		 movzx	 ecx, BYTE PTR [eax+151]
  0276e	83 e1 20	 and	 ecx, 32			; 00000020H
  02771	74 14		 je	 SHORT $LN93@Convert

; 1350 : 			{
; 1351 : 				this->m_Special[this->m_SpecialNum] = 0x53;

  02773	8b 45 fc	 mov	 eax, DWORD PTR _this$[ebp]
  02776	0f b6 48 30	 movzx	 ecx, BYTE PTR [eax+48]
  0277a	ba 53 00 00 00	 mov	 edx, 83			; 00000053H
  0277f	8b 45 fc	 mov	 eax, DWORD PTR _this$[ebp]
  02782	66 89 54 48 32	 mov	 WORD PTR [eax+ecx*2+50], dx
$LN93@Convert:

; 1352 : 			}
; 1353 : 		}

  02787	e9 db 01 00 00	 jmp	 $LN72@Convert
$LN96@Convert:

; 1354 : 		else if ( _type == ITEMGET(12,41) ) // Wing of Curse

  0278c	81 7d f8 29 18
	00 00		 cmp	 DWORD PTR __type$[ebp], 6185 ; 00001829H
  02793	75 25		 jne	 SHORT $LN91@Convert

; 1355 : 		{
; 1356 : 			this->m_Special[this->m_SpecialNum] = 81;

  02795	8b 45 fc	 mov	 eax, DWORD PTR _this$[ebp]
  02798	0f b6 48 30	 movzx	 ecx, BYTE PTR [eax+48]
  0279c	ba 51 00 00 00	 mov	 edx, 81			; 00000051H
  027a1	8b 45 fc	 mov	 eax, DWORD PTR _this$[ebp]
  027a4	66 89 54 48 32	 mov	 WORD PTR [eax+ecx*2+50], dx

; 1357 : 			this->m_Option3 = Option3;

  027a9	8b 45 fc	 mov	 eax, DWORD PTR _this$[ebp]
  027ac	8a 4d 14	 mov	 cl, BYTE PTR _Option3$[ebp]
  027af	88 88 96 00 00
	00		 mov	 BYTE PTR [eax+150], cl
  027b5	e9 ad 01 00 00	 jmp	 $LN72@Convert
$LN91@Convert:

; 1358 : #if(FIX_REQSTR_ITEM==FALSE)
; 1359 : 			this->m_RequireStrength +=  Option3 * 4;
; 1360 : #endif
; 1361 : 		}
; 1362 : 		else if ( _type == ITEMGET(12,42) ) // Wing of Despair

  027ba	81 7d f8 2a 18
	00 00		 cmp	 DWORD PTR __type$[ebp], 6186 ; 0000182aH
  027c1	75 4a		 jne	 SHORT $LN89@Convert

; 1363 : 		{
; 1364 : 			this->m_Option3 = Option3;

  027c3	8b 45 fc	 mov	 eax, DWORD PTR _this$[ebp]
  027c6	8a 4d 14	 mov	 cl, BYTE PTR _Option3$[ebp]
  027c9	88 88 96 00 00
	00		 mov	 BYTE PTR [eax+150], cl

; 1365 : #if(FIX_REQSTR_ITEM==FALSE)
; 1366 : 			this->m_RequireStrength +=  Option3 * 4;
; 1367 : #endif
; 1368 : 
; 1369 : 			if ( (this->m_NewOption&0x20) != 0 )

  027cf	8b 45 fc	 mov	 eax, DWORD PTR _this$[ebp]
  027d2	0f b6 88 97 00
	00 00		 movzx	 ecx, BYTE PTR [eax+151]
  027d9	83 e1 20	 and	 ecx, 32			; 00000020H
  027dc	74 16		 je	 SHORT $LN88@Convert

; 1370 : 			{
; 1371 : 				this->m_Special[this->m_SpecialNum] = 81;

  027de	8b 45 fc	 mov	 eax, DWORD PTR _this$[ebp]
  027e1	0f b6 48 30	 movzx	 ecx, BYTE PTR [eax+48]
  027e5	ba 51 00 00 00	 mov	 edx, 81			; 00000051H
  027ea	8b 45 fc	 mov	 eax, DWORD PTR _this$[ebp]
  027ed	66 89 54 48 32	 mov	 WORD PTR [eax+ecx*2+50], dx

; 1372 : 			}
; 1373 : 			else

  027f2	eb 14		 jmp	 SHORT $LN87@Convert
$LN88@Convert:

; 1374 : 			{
; 1375 : 				this->m_Special[this->m_SpecialNum] = 113;

  027f4	8b 45 fc	 mov	 eax, DWORD PTR _this$[ebp]
  027f7	0f b6 48 30	 movzx	 ecx, BYTE PTR [eax+48]
  027fb	ba 71 00 00 00	 mov	 edx, 113		; 00000071H
  02800	8b 45 fc	 mov	 eax, DWORD PTR _this$[ebp]
  02803	66 89 54 48 32	 mov	 WORD PTR [eax+ecx*2+50], dx
$LN87@Convert:

; 1376 : 			}

  02808	e9 5a 01 00 00	 jmp	 $LN72@Convert
$LN89@Convert:

; 1377 : 		}
; 1378 : 		else if ( _type == ITEMGET(12,43) ) // Wing of Dimension

  0280d	81 7d f8 2b 18
	00 00		 cmp	 DWORD PTR __type$[ebp], 6187 ; 0000182bH
  02814	75 6d		 jne	 SHORT $LN85@Convert

; 1379 : 		{
; 1380 : 			this->m_Option3 = Option3;

  02816	8b 45 fc	 mov	 eax, DWORD PTR _this$[ebp]
  02819	8a 4d 14	 mov	 cl, BYTE PTR _Option3$[ebp]
  0281c	88 88 96 00 00
	00		 mov	 BYTE PTR [eax+150], cl

; 1381 : 			this->m_Special[this->m_SpecialNum] = 0x55;

  02822	8b 45 fc	 mov	 eax, DWORD PTR _this$[ebp]
  02825	0f b6 48 30	 movzx	 ecx, BYTE PTR [eax+48]
  02829	ba 55 00 00 00	 mov	 edx, 85			; 00000055H
  0282e	8b 45 fc	 mov	 eax, DWORD PTR _this$[ebp]
  02831	66 89 54 48 32	 mov	 WORD PTR [eax+ecx*2+50], dx

; 1382 : 
; 1383 : 			if( (this->m_NewOption & 0x10) != FALSE )

  02836	8b 45 fc	 mov	 eax, DWORD PTR _this$[ebp]
  02839	0f b6 88 97 00
	00 00		 movzx	 ecx, BYTE PTR [eax+151]
  02840	83 e1 10	 and	 ecx, 16			; 00000010H
  02843	74 16		 je	 SHORT $LN84@Convert

; 1384 : 			{
; 1385 : 				this->m_Special[this->m_SpecialNum] = 81;

  02845	8b 45 fc	 mov	 eax, DWORD PTR _this$[ebp]
  02848	0f b6 48 30	 movzx	 ecx, BYTE PTR [eax+48]
  0284c	ba 51 00 00 00	 mov	 edx, 81			; 00000051H
  02851	8b 45 fc	 mov	 eax, DWORD PTR _this$[ebp]
  02854	66 89 54 48 32	 mov	 WORD PTR [eax+ecx*2+50], dx
  02859	eb 23		 jmp	 SHORT $LN82@Convert
$LN84@Convert:

; 1386 : 			}
; 1387 : 			else if( (this->m_NewOption & 0x20) != FALSE )

  0285b	8b 45 fc	 mov	 eax, DWORD PTR _this$[ebp]
  0285e	0f b6 88 97 00
	00 00		 movzx	 ecx, BYTE PTR [eax+151]
  02865	83 e1 20	 and	 ecx, 32			; 00000020H
  02868	74 14		 je	 SHORT $LN82@Convert

; 1388 : 			{
; 1389 : 				this->m_Special[this->m_SpecialNum] = 113;

  0286a	8b 45 fc	 mov	 eax, DWORD PTR _this$[ebp]
  0286d	0f b6 48 30	 movzx	 ecx, BYTE PTR [eax+48]
  02871	ba 71 00 00 00	 mov	 edx, 113		; 00000071H
  02876	8b 45 fc	 mov	 eax, DWORD PTR _this$[ebp]
  02879	66 89 54 48 32	 mov	 WORD PTR [eax+ecx*2+50], dx
$LN82@Convert:

; 1390 : 			}
; 1391 : 		}

  0287e	e9 e4 00 00 00	 jmp	 $LN72@Convert
$LN85@Convert:

; 1392 : 		else if ( _type == ITEMGET(12,49) ) // Wing of Dimension

  02883	81 7d f8 31 18
	00 00		 cmp	 DWORD PTR __type$[ebp], 6193 ; 00001831H
  0288a	75 6a		 jne	 SHORT $LN80@Convert

; 1393 : 		{
; 1394 : 			this->m_Option3 = Option3;

  0288c	8b 45 fc	 mov	 eax, DWORD PTR _this$[ebp]
  0288f	8a 4d 14	 mov	 cl, BYTE PTR _Option3$[ebp]
  02892	88 88 96 00 00
	00		 mov	 BYTE PTR [eax+150], cl

; 1395 : 			this->m_Special[this->m_SpecialNum] = 0x55;

  02898	8b 45 fc	 mov	 eax, DWORD PTR _this$[ebp]
  0289b	0f b6 48 30	 movzx	 ecx, BYTE PTR [eax+48]
  0289f	ba 55 00 00 00	 mov	 edx, 85			; 00000055H
  028a4	8b 45 fc	 mov	 eax, DWORD PTR _this$[ebp]
  028a7	66 89 54 48 32	 mov	 WORD PTR [eax+ecx*2+50], dx

; 1396 : 
; 1397 : 			if( (this->m_NewOption & 0x10) != FALSE )

  028ac	8b 45 fc	 mov	 eax, DWORD PTR _this$[ebp]
  028af	0f b6 88 97 00
	00 00		 movzx	 ecx, BYTE PTR [eax+151]
  028b6	83 e1 10	 and	 ecx, 16			; 00000010H
  028b9	74 16		 je	 SHORT $LN79@Convert

; 1398 : 			{
; 1399 : 				this->m_Special[this->m_SpecialNum] = 81;

  028bb	8b 45 fc	 mov	 eax, DWORD PTR _this$[ebp]
  028be	0f b6 48 30	 movzx	 ecx, BYTE PTR [eax+48]
  028c2	ba 51 00 00 00	 mov	 edx, 81			; 00000051H
  028c7	8b 45 fc	 mov	 eax, DWORD PTR _this$[ebp]
  028ca	66 89 54 48 32	 mov	 WORD PTR [eax+ecx*2+50], dx
  028cf	eb 23		 jmp	 SHORT $LN77@Convert
$LN79@Convert:

; 1400 : 			}
; 1401 : 			else if( (this->m_NewOption & 0x20) != FALSE )

  028d1	8b 45 fc	 mov	 eax, DWORD PTR _this$[ebp]
  028d4	0f b6 88 97 00
	00 00		 movzx	 ecx, BYTE PTR [eax+151]
  028db	83 e1 20	 and	 ecx, 32			; 00000020H
  028de	74 14		 je	 SHORT $LN77@Convert

; 1402 : 			{
; 1403 : 				this->m_Special[this->m_SpecialNum] = 113;

  028e0	8b 45 fc	 mov	 eax, DWORD PTR _this$[ebp]
  028e3	0f b6 48 30	 movzx	 ecx, BYTE PTR [eax+48]
  028e7	ba 71 00 00 00	 mov	 edx, 113		; 00000071H
  028ec	8b 45 fc	 mov	 eax, DWORD PTR _this$[ebp]
  028ef	66 89 54 48 32	 mov	 WORD PTR [eax+ecx*2+50], dx
$LN77@Convert:

; 1404 : 			}
; 1405 : 		}

  028f4	eb 71		 jmp	 SHORT $LN72@Convert
$LN80@Convert:

; 1406 : 		else if ( _type == ITEMGET(12,50) ) // Wing of Dimension

  028f6	81 7d f8 32 18
	00 00		 cmp	 DWORD PTR __type$[ebp], 6194 ; 00001832H
  028fd	75 68		 jne	 SHORT $LN72@Convert

; 1407 : 		{
; 1408 : 			this->m_Option3 = Option3;

  028ff	8b 45 fc	 mov	 eax, DWORD PTR _this$[ebp]
  02902	8a 4d 14	 mov	 cl, BYTE PTR _Option3$[ebp]
  02905	88 88 96 00 00
	00		 mov	 BYTE PTR [eax+150], cl

; 1409 : 			this->m_Special[this->m_SpecialNum] = 0x55;

  0290b	8b 45 fc	 mov	 eax, DWORD PTR _this$[ebp]
  0290e	0f b6 48 30	 movzx	 ecx, BYTE PTR [eax+48]
  02912	ba 55 00 00 00	 mov	 edx, 85			; 00000055H
  02917	8b 45 fc	 mov	 eax, DWORD PTR _this$[ebp]
  0291a	66 89 54 48 32	 mov	 WORD PTR [eax+ecx*2+50], dx

; 1410 : 
; 1411 : 			if( (this->m_NewOption & 0x10) != FALSE )

  0291f	8b 45 fc	 mov	 eax, DWORD PTR _this$[ebp]
  02922	0f b6 88 97 00
	00 00		 movzx	 ecx, BYTE PTR [eax+151]
  02929	83 e1 10	 and	 ecx, 16			; 00000010H
  0292c	74 16		 je	 SHORT $LN74@Convert

; 1412 : 			{
; 1413 : 				this->m_Special[this->m_SpecialNum] = 81;

  0292e	8b 45 fc	 mov	 eax, DWORD PTR _this$[ebp]
  02931	0f b6 48 30	 movzx	 ecx, BYTE PTR [eax+48]
  02935	ba 51 00 00 00	 mov	 edx, 81			; 00000051H
  0293a	8b 45 fc	 mov	 eax, DWORD PTR _this$[ebp]
  0293d	66 89 54 48 32	 mov	 WORD PTR [eax+ecx*2+50], dx
  02942	eb 23		 jmp	 SHORT $LN72@Convert
$LN74@Convert:

; 1414 : 			}
; 1415 : 			else if( (this->m_NewOption & 0x20) != FALSE )

  02944	8b 45 fc	 mov	 eax, DWORD PTR _this$[ebp]
  02947	0f b6 88 97 00
	00 00		 movzx	 ecx, BYTE PTR [eax+151]
  0294e	83 e1 20	 and	 ecx, 32			; 00000020H
  02951	74 14		 je	 SHORT $LN72@Convert

; 1416 : 			{
; 1417 : 				this->m_Special[this->m_SpecialNum] = 113;

  02953	8b 45 fc	 mov	 eax, DWORD PTR _this$[ebp]
  02956	0f b6 48 30	 movzx	 ecx, BYTE PTR [eax+48]
  0295a	ba 71 00 00 00	 mov	 edx, 113		; 00000071H
  0295f	8b 45 fc	 mov	 eax, DWORD PTR _this$[ebp]
  02962	66 89 54 48 32	 mov	 WORD PTR [eax+ecx*2+50], dx
$LN72@Convert:

; 1418 : 			}
; 1419 : 		}
; 1420 : 	}
; 1421 : 
; 1422 : 	this->m_SpecialNum++;

  02967	8b 45 fc	 mov	 eax, DWORD PTR _this$[ebp]
  0296a	8a 48 30	 mov	 cl, BYTE PTR [eax+48]
  0296d	80 c1 01	 add	 cl, 1
  02970	8b 55 fc	 mov	 edx, DWORD PTR _this$[ebp]
  02973	88 4a 30	 mov	 BYTE PTR [edx+48], cl

; 1423 : 
; 1424 : 	if ( (_type >=ITEMGET(6,0) && _type <ITEMGET(12,0) ) || ( _type >=ITEMGET(13,8) && _type <= ITEMGET(13,9)) || (_type>=ITEMGET(13,21) && _type <= ITEMGET(13,24) ) )

  02976	81 7d f8 00 0c
	00 00		 cmp	 DWORD PTR __type$[ebp], 3072 ; 00000c00H
  0297d	7c 09		 jl	 SHORT $LN69@Convert
  0297f	81 7d f8 00 18
	00 00		 cmp	 DWORD PTR __type$[ebp], 6144 ; 00001800H
  02986	7c 2c		 jl	 SHORT $LN70@Convert
$LN69@Convert:
  02988	81 7d f8 08 1a
	00 00		 cmp	 DWORD PTR __type$[ebp], 6664 ; 00001a08H
  0298f	7c 09		 jl	 SHORT $LN68@Convert
  02991	81 7d f8 09 1a
	00 00		 cmp	 DWORD PTR __type$[ebp], 6665 ; 00001a09H
  02998	7e 1a		 jle	 SHORT $LN70@Convert
$LN68@Convert:
  0299a	81 7d f8 15 1a
	00 00		 cmp	 DWORD PTR __type$[ebp], 6677 ; 00001a15H
  029a1	0f 8c 47 01 00
	00		 jl	 $LN62@Convert
  029a7	81 7d f8 18 1a
	00 00		 cmp	 DWORD PTR __type$[ebp], 6680 ; 00001a18H
  029ae	0f 8f 3a 01 00
	00		 jg	 $LN62@Convert
$LN70@Convert:

; 1425 : 	{
; 1426 : 		if ( ((this->m_NewOption>>5)&1) != 0 )

  029b4	8b 45 fc	 mov	 eax, DWORD PTR _this$[ebp]
  029b7	0f b6 88 97 00
	00 00		 movzx	 ecx, BYTE PTR [eax+151]
  029be	c1 f9 05	 sar	 ecx, 5
  029c1	83 e1 01	 and	 ecx, 1
  029c4	74 23		 je	 SHORT $LN67@Convert

; 1427 : 		{
; 1428 : 			this->m_Special[this->m_SpecialNum] = 0x56;

  029c6	8b 45 fc	 mov	 eax, DWORD PTR _this$[ebp]
  029c9	0f b6 48 30	 movzx	 ecx, BYTE PTR [eax+48]
  029cd	ba 56 00 00 00	 mov	 edx, 86			; 00000056H
  029d2	8b 45 fc	 mov	 eax, DWORD PTR _this$[ebp]
  029d5	66 89 54 48 32	 mov	 WORD PTR [eax+ecx*2+50], dx

; 1429 : 			this->m_SpecialNum++;

  029da	8b 45 fc	 mov	 eax, DWORD PTR _this$[ebp]
  029dd	8a 48 30	 mov	 cl, BYTE PTR [eax+48]
  029e0	80 c1 01	 add	 cl, 1
  029e3	8b 55 fc	 mov	 edx, DWORD PTR _this$[ebp]
  029e6	88 4a 30	 mov	 BYTE PTR [edx+48], cl
$LN67@Convert:

; 1430 : 		}
; 1431 : 
; 1432 : 		if ( ((this->m_NewOption>>4)&1) != 0 )

  029e9	8b 45 fc	 mov	 eax, DWORD PTR _this$[ebp]
  029ec	0f b6 88 97 00
	00 00		 movzx	 ecx, BYTE PTR [eax+151]
  029f3	c1 f9 04	 sar	 ecx, 4
  029f6	83 e1 01	 and	 ecx, 1
  029f9	74 23		 je	 SHORT $LN66@Convert

; 1433 : 		{
; 1434 : 			this->m_Special[this->m_SpecialNum] = 0x57;

  029fb	8b 45 fc	 mov	 eax, DWORD PTR _this$[ebp]
  029fe	0f b6 48 30	 movzx	 ecx, BYTE PTR [eax+48]
  02a02	ba 57 00 00 00	 mov	 edx, 87			; 00000057H
  02a07	8b 45 fc	 mov	 eax, DWORD PTR _this$[ebp]
  02a0a	66 89 54 48 32	 mov	 WORD PTR [eax+ecx*2+50], dx

; 1435 : 			this->m_SpecialNum++;

  02a0f	8b 45 fc	 mov	 eax, DWORD PTR _this$[ebp]
  02a12	8a 48 30	 mov	 cl, BYTE PTR [eax+48]
  02a15	80 c1 01	 add	 cl, 1
  02a18	8b 55 fc	 mov	 edx, DWORD PTR _this$[ebp]
  02a1b	88 4a 30	 mov	 BYTE PTR [edx+48], cl
$LN66@Convert:

; 1436 : 		}
; 1437 : 
; 1438 : 		if ( ((this->m_NewOption>>3)&1) != 0 )

  02a1e	8b 45 fc	 mov	 eax, DWORD PTR _this$[ebp]
  02a21	0f b6 88 97 00
	00 00		 movzx	 ecx, BYTE PTR [eax+151]
  02a28	c1 f9 03	 sar	 ecx, 3
  02a2b	83 e1 01	 and	 ecx, 1
  02a2e	74 23		 je	 SHORT $LN65@Convert

; 1439 : 		{
; 1440 : 			this->m_Special[this->m_SpecialNum] = 0x58;

  02a30	8b 45 fc	 mov	 eax, DWORD PTR _this$[ebp]
  02a33	0f b6 48 30	 movzx	 ecx, BYTE PTR [eax+48]
  02a37	ba 58 00 00 00	 mov	 edx, 88			; 00000058H
  02a3c	8b 45 fc	 mov	 eax, DWORD PTR _this$[ebp]
  02a3f	66 89 54 48 32	 mov	 WORD PTR [eax+ecx*2+50], dx

; 1441 : 			this->m_SpecialNum++;

  02a44	8b 45 fc	 mov	 eax, DWORD PTR _this$[ebp]
  02a47	8a 48 30	 mov	 cl, BYTE PTR [eax+48]
  02a4a	80 c1 01	 add	 cl, 1
  02a4d	8b 55 fc	 mov	 edx, DWORD PTR _this$[ebp]
  02a50	88 4a 30	 mov	 BYTE PTR [edx+48], cl
$LN65@Convert:

; 1442 : 		}
; 1443 : 
; 1444 : 		if ( ((this->m_NewOption>>2)&1) != 0 )

  02a53	8b 45 fc	 mov	 eax, DWORD PTR _this$[ebp]
  02a56	0f b6 88 97 00
	00 00		 movzx	 ecx, BYTE PTR [eax+151]
  02a5d	c1 f9 02	 sar	 ecx, 2
  02a60	83 e1 01	 and	 ecx, 1
  02a63	74 23		 je	 SHORT $LN64@Convert

; 1445 : 		{
; 1446 : 			this->m_Special[this->m_SpecialNum] = 0x59;

  02a65	8b 45 fc	 mov	 eax, DWORD PTR _this$[ebp]
  02a68	0f b6 48 30	 movzx	 ecx, BYTE PTR [eax+48]
  02a6c	ba 59 00 00 00	 mov	 edx, 89			; 00000059H
  02a71	8b 45 fc	 mov	 eax, DWORD PTR _this$[ebp]
  02a74	66 89 54 48 32	 mov	 WORD PTR [eax+ecx*2+50], dx

; 1447 : 			this->m_SpecialNum++;

  02a79	8b 45 fc	 mov	 eax, DWORD PTR _this$[ebp]
  02a7c	8a 48 30	 mov	 cl, BYTE PTR [eax+48]
  02a7f	80 c1 01	 add	 cl, 1
  02a82	8b 55 fc	 mov	 edx, DWORD PTR _this$[ebp]
  02a85	88 4a 30	 mov	 BYTE PTR [edx+48], cl
$LN64@Convert:

; 1448 : 		}
; 1449 : 
; 1450 : 		if ( ((this->m_NewOption>>1)&1) != 0 )

  02a88	8b 45 fc	 mov	 eax, DWORD PTR _this$[ebp]
  02a8b	0f b6 88 97 00
	00 00		 movzx	 ecx, BYTE PTR [eax+151]
  02a92	d1 f9		 sar	 ecx, 1
  02a94	83 e1 01	 and	 ecx, 1
  02a97	74 23		 je	 SHORT $LN63@Convert

; 1451 : 		{
; 1452 : 			this->m_Special[this->m_SpecialNum] = 0x5A;

  02a99	8b 45 fc	 mov	 eax, DWORD PTR _this$[ebp]
  02a9c	0f b6 48 30	 movzx	 ecx, BYTE PTR [eax+48]
  02aa0	ba 5a 00 00 00	 mov	 edx, 90			; 0000005aH
  02aa5	8b 45 fc	 mov	 eax, DWORD PTR _this$[ebp]
  02aa8	66 89 54 48 32	 mov	 WORD PTR [eax+ecx*2+50], dx

; 1453 : 			this->m_SpecialNum++;

  02aad	8b 45 fc	 mov	 eax, DWORD PTR _this$[ebp]
  02ab0	8a 48 30	 mov	 cl, BYTE PTR [eax+48]
  02ab3	80 c1 01	 add	 cl, 1
  02ab6	8b 55 fc	 mov	 edx, DWORD PTR _this$[ebp]
  02ab9	88 4a 30	 mov	 BYTE PTR [edx+48], cl
$LN63@Convert:

; 1454 : 		}
; 1455 : 
; 1456 : 		if ( ((this->m_NewOption)&1) != 0 )

  02abc	8b 45 fc	 mov	 eax, DWORD PTR _this$[ebp]
  02abf	0f b6 88 97 00
	00 00		 movzx	 ecx, BYTE PTR [eax+151]
  02ac6	83 e1 01	 and	 ecx, 1
  02ac9	74 23		 je	 SHORT $LN62@Convert

; 1457 : 		{
; 1458 : 			this->m_Special[this->m_SpecialNum] = 0x5B;

  02acb	8b 45 fc	 mov	 eax, DWORD PTR _this$[ebp]
  02ace	0f b6 48 30	 movzx	 ecx, BYTE PTR [eax+48]
  02ad2	ba 5b 00 00 00	 mov	 edx, 91			; 0000005bH
  02ad7	8b 45 fc	 mov	 eax, DWORD PTR _this$[ebp]
  02ada	66 89 54 48 32	 mov	 WORD PTR [eax+ecx*2+50], dx

; 1459 : 			this->m_SpecialNum++;

  02adf	8b 45 fc	 mov	 eax, DWORD PTR _this$[ebp]
  02ae2	8a 48 30	 mov	 cl, BYTE PTR [eax+48]
  02ae5	80 c1 01	 add	 cl, 1
  02ae8	8b 55 fc	 mov	 edx, DWORD PTR _this$[ebp]
  02aeb	88 4a 30	 mov	 BYTE PTR [edx+48], cl
$LN62@Convert:

; 1460 : 		}
; 1461 : 	}
; 1462 : 
; 1463 : 	if ( (_type >=ITEMGET(0,0) && _type <ITEMGET(6,0) ) || ( _type >=ITEMGET(13,12) && _type <= ITEMGET(13,13)) || (_type>=ITEMGET(13,25) && _type <= ITEMGET(13,28) ) )

  02aee	83 7d f8 00	 cmp	 DWORD PTR __type$[ebp], 0
  02af2	7c 09		 jl	 SHORT $LN59@Convert
  02af4	81 7d f8 00 0c
	00 00		 cmp	 DWORD PTR __type$[ebp], 3072 ; 00000c00H
  02afb	7c 2c		 jl	 SHORT $LN60@Convert
$LN59@Convert:
  02afd	81 7d f8 0c 1a
	00 00		 cmp	 DWORD PTR __type$[ebp], 6668 ; 00001a0cH
  02b04	7c 09		 jl	 SHORT $LN58@Convert
  02b06	81 7d f8 0d 1a
	00 00		 cmp	 DWORD PTR __type$[ebp], 6669 ; 00001a0dH
  02b0d	7e 1a		 jle	 SHORT $LN60@Convert
$LN58@Convert:
  02b0f	81 7d f8 19 1a
	00 00		 cmp	 DWORD PTR __type$[ebp], 6681 ; 00001a19H
  02b16	0f 8c f0 01 00
	00		 jl	 $LN46@Convert
  02b1c	81 7d f8 1c 1a
	00 00		 cmp	 DWORD PTR __type$[ebp], 6684 ; 00001a1cH
  02b23	0f 8f e3 01 00
	00		 jg	 $LN46@Convert
$LN60@Convert:

; 1464 : 	{
; 1465 : 		if ( ((this->m_NewOption>>5)&1) != 0 )

  02b29	8b 45 fc	 mov	 eax, DWORD PTR _this$[ebp]
  02b2c	0f b6 88 97 00
	00 00		 movzx	 ecx, BYTE PTR [eax+151]
  02b33	c1 f9 05	 sar	 ecx, 5
  02b36	83 e1 01	 and	 ecx, 1
  02b39	74 23		 je	 SHORT $LN57@Convert

; 1466 : 		{
; 1467 : 			this->m_Special[this->m_SpecialNum] = 0x5C;

  02b3b	8b 45 fc	 mov	 eax, DWORD PTR _this$[ebp]
  02b3e	0f b6 48 30	 movzx	 ecx, BYTE PTR [eax+48]
  02b42	ba 5c 00 00 00	 mov	 edx, 92			; 0000005cH
  02b47	8b 45 fc	 mov	 eax, DWORD PTR _this$[ebp]
  02b4a	66 89 54 48 32	 mov	 WORD PTR [eax+ecx*2+50], dx

; 1468 : 			this->m_SpecialNum++;

  02b4f	8b 45 fc	 mov	 eax, DWORD PTR _this$[ebp]
  02b52	8a 48 30	 mov	 cl, BYTE PTR [eax+48]
  02b55	80 c1 01	 add	 cl, 1
  02b58	8b 55 fc	 mov	 edx, DWORD PTR _this$[ebp]
  02b5b	88 4a 30	 mov	 BYTE PTR [edx+48], cl
$LN57@Convert:

; 1469 : 		}
; 1470 : 
; 1471 : 		if ( (_type >=ITEMGET(5,0) && _type <ITEMGET(6,0) ) || (_type ==ITEMGET(13,12) ) || (_type == ITEMGET(13,25)) || (_type == ITEMGET(13,27) ) )

  02b5e	81 7d f8 00 0a
	00 00		 cmp	 DWORD PTR __type$[ebp], 2560 ; 00000a00H
  02b65	7c 09		 jl	 SHORT $LN54@Convert
  02b67	81 7d f8 00 0c
	00 00		 cmp	 DWORD PTR __type$[ebp], 3072 ; 00000c00H
  02b6e	7c 1b		 jl	 SHORT $LN55@Convert
$LN54@Convert:
  02b70	81 7d f8 0c 1a
	00 00		 cmp	 DWORD PTR __type$[ebp], 6668 ; 00001a0cH
  02b77	74 12		 je	 SHORT $LN55@Convert
  02b79	81 7d f8 19 1a
	00 00		 cmp	 DWORD PTR __type$[ebp], 6681 ; 00001a19H
  02b80	74 09		 je	 SHORT $LN55@Convert
  02b82	81 7d f8 1b 1a
	00 00		 cmp	 DWORD PTR __type$[ebp], 6683 ; 00001a1bH
  02b89	75 6c		 jne	 SHORT $LN56@Convert
$LN55@Convert:

; 1472 : 		{
; 1473 : 			if ( ((this->m_NewOption>>4)&1) != 0 )

  02b8b	8b 45 fc	 mov	 eax, DWORD PTR _this$[ebp]
  02b8e	0f b6 88 97 00
	00 00		 movzx	 ecx, BYTE PTR [eax+151]
  02b95	c1 f9 04	 sar	 ecx, 4
  02b98	83 e1 01	 and	 ecx, 1
  02b9b	74 23		 je	 SHORT $LN53@Convert

; 1474 : 			{
; 1475 : 				this->m_Special[this->m_SpecialNum] = 0x5F;

  02b9d	8b 45 fc	 mov	 eax, DWORD PTR _this$[ebp]
  02ba0	0f b6 48 30	 movzx	 ecx, BYTE PTR [eax+48]
  02ba4	ba 5f 00 00 00	 mov	 edx, 95			; 0000005fH
  02ba9	8b 45 fc	 mov	 eax, DWORD PTR _this$[ebp]
  02bac	66 89 54 48 32	 mov	 WORD PTR [eax+ecx*2+50], dx

; 1476 : 				this->m_SpecialNum++;

  02bb1	8b 45 fc	 mov	 eax, DWORD PTR _this$[ebp]
  02bb4	8a 48 30	 mov	 cl, BYTE PTR [eax+48]
  02bb7	80 c1 01	 add	 cl, 1
  02bba	8b 55 fc	 mov	 edx, DWORD PTR _this$[ebp]
  02bbd	88 4a 30	 mov	 BYTE PTR [edx+48], cl
$LN53@Convert:

; 1477 : 			}
; 1478 : 			if ( ((this->m_NewOption>>3)&1) != 0 )

  02bc0	8b 45 fc	 mov	 eax, DWORD PTR _this$[ebp]
  02bc3	0f b6 88 97 00
	00 00		 movzx	 ecx, BYTE PTR [eax+151]
  02bca	c1 f9 03	 sar	 ecx, 3
  02bcd	83 e1 01	 and	 ecx, 1
  02bd0	74 23		 je	 SHORT $LN52@Convert

; 1479 : 			{
; 1480 : 				this->m_Special[this->m_SpecialNum] = 0x60;

  02bd2	8b 45 fc	 mov	 eax, DWORD PTR _this$[ebp]
  02bd5	0f b6 48 30	 movzx	 ecx, BYTE PTR [eax+48]
  02bd9	ba 60 00 00 00	 mov	 edx, 96			; 00000060H
  02bde	8b 45 fc	 mov	 eax, DWORD PTR _this$[ebp]
  02be1	66 89 54 48 32	 mov	 WORD PTR [eax+ecx*2+50], dx

; 1481 : 				this->m_SpecialNum++;

  02be6	8b 45 fc	 mov	 eax, DWORD PTR _this$[ebp]
  02be9	8a 48 30	 mov	 cl, BYTE PTR [eax+48]
  02bec	80 c1 01	 add	 cl, 1
  02bef	8b 55 fc	 mov	 edx, DWORD PTR _this$[ebp]
  02bf2	88 4a 30	 mov	 BYTE PTR [edx+48], cl
$LN52@Convert:

; 1482 : 			}
; 1483 : 		}
; 1484 : 		else

  02bf5	eb 6a		 jmp	 SHORT $LN49@Convert
$LN56@Convert:

; 1485 : 		{
; 1486 : 			if ( ((this->m_NewOption>>4)&1) != 0 )

  02bf7	8b 45 fc	 mov	 eax, DWORD PTR _this$[ebp]
  02bfa	0f b6 88 97 00
	00 00		 movzx	 ecx, BYTE PTR [eax+151]
  02c01	c1 f9 04	 sar	 ecx, 4
  02c04	83 e1 01	 and	 ecx, 1
  02c07	74 23		 je	 SHORT $LN50@Convert

; 1487 : 			{
; 1488 : 				this->m_Special[this->m_SpecialNum] = 0x5D;

  02c09	8b 45 fc	 mov	 eax, DWORD PTR _this$[ebp]
  02c0c	0f b6 48 30	 movzx	 ecx, BYTE PTR [eax+48]
  02c10	ba 5d 00 00 00	 mov	 edx, 93			; 0000005dH
  02c15	8b 45 fc	 mov	 eax, DWORD PTR _this$[ebp]
  02c18	66 89 54 48 32	 mov	 WORD PTR [eax+ecx*2+50], dx

; 1489 : 				this->m_SpecialNum++;

  02c1d	8b 45 fc	 mov	 eax, DWORD PTR _this$[ebp]
  02c20	8a 48 30	 mov	 cl, BYTE PTR [eax+48]
  02c23	80 c1 01	 add	 cl, 1
  02c26	8b 55 fc	 mov	 edx, DWORD PTR _this$[ebp]
  02c29	88 4a 30	 mov	 BYTE PTR [edx+48], cl
$LN50@Convert:

; 1490 : 			}
; 1491 : 			if ( ((this->m_NewOption>>3)&1) != 0 )

  02c2c	8b 45 fc	 mov	 eax, DWORD PTR _this$[ebp]
  02c2f	0f b6 88 97 00
	00 00		 movzx	 ecx, BYTE PTR [eax+151]
  02c36	c1 f9 03	 sar	 ecx, 3
  02c39	83 e1 01	 and	 ecx, 1
  02c3c	74 23		 je	 SHORT $LN49@Convert

; 1492 : 			{
; 1493 : 				this->m_Special[this->m_SpecialNum] = 0x5E;

  02c3e	8b 45 fc	 mov	 eax, DWORD PTR _this$[ebp]
  02c41	0f b6 48 30	 movzx	 ecx, BYTE PTR [eax+48]
  02c45	ba 5e 00 00 00	 mov	 edx, 94			; 0000005eH
  02c4a	8b 45 fc	 mov	 eax, DWORD PTR _this$[ebp]
  02c4d	66 89 54 48 32	 mov	 WORD PTR [eax+ecx*2+50], dx

; 1494 : 				this->m_SpecialNum++;

  02c52	8b 45 fc	 mov	 eax, DWORD PTR _this$[ebp]
  02c55	8a 48 30	 mov	 cl, BYTE PTR [eax+48]
  02c58	80 c1 01	 add	 cl, 1
  02c5b	8b 55 fc	 mov	 edx, DWORD PTR _this$[ebp]
  02c5e	88 4a 30	 mov	 BYTE PTR [edx+48], cl
$LN49@Convert:

; 1495 : 			}
; 1496 : 		}
; 1497 : 
; 1498 : 		if ( ((this->m_NewOption>>2)&1) != 0 )

  02c61	8b 45 fc	 mov	 eax, DWORD PTR _this$[ebp]
  02c64	0f b6 88 97 00
	00 00		 movzx	 ecx, BYTE PTR [eax+151]
  02c6b	c1 f9 02	 sar	 ecx, 2
  02c6e	83 e1 01	 and	 ecx, 1
  02c71	74 33		 je	 SHORT $LN48@Convert

; 1499 : 		{
; 1500 : 			this->m_Special[this->m_SpecialNum] = 0x61;

  02c73	8b 45 fc	 mov	 eax, DWORD PTR _this$[ebp]
  02c76	0f b6 48 30	 movzx	 ecx, BYTE PTR [eax+48]
  02c7a	ba 61 00 00 00	 mov	 edx, 97			; 00000061H
  02c7f	8b 45 fc	 mov	 eax, DWORD PTR _this$[ebp]
  02c82	66 89 54 48 32	 mov	 WORD PTR [eax+ecx*2+50], dx

; 1501 : 			this->m_SpecialNum++;

  02c87	8b 45 fc	 mov	 eax, DWORD PTR _this$[ebp]
  02c8a	8a 48 30	 mov	 cl, BYTE PTR [eax+48]
  02c8d	80 c1 01	 add	 cl, 1
  02c90	8b 55 fc	 mov	 edx, DWORD PTR _this$[ebp]
  02c93	88 4a 30	 mov	 BYTE PTR [edx+48], cl

; 1502 : 			this->m_AttackSpeed += 7;

  02c96	8b 45 fc	 mov	 eax, DWORD PTR _this$[ebp]
  02c99	0f b6 48 0d	 movzx	 ecx, BYTE PTR [eax+13]
  02c9d	83 c1 07	 add	 ecx, 7
  02ca0	8b 55 fc	 mov	 edx, DWORD PTR _this$[ebp]
  02ca3	88 4a 0d	 mov	 BYTE PTR [edx+13], cl
$LN48@Convert:

; 1503 : 		}
; 1504 : 
; 1505 : 		if ( ((this->m_NewOption>>1)&1) != 0 )

  02ca6	8b 45 fc	 mov	 eax, DWORD PTR _this$[ebp]
  02ca9	0f b6 88 97 00
	00 00		 movzx	 ecx, BYTE PTR [eax+151]
  02cb0	d1 f9		 sar	 ecx, 1
  02cb2	83 e1 01	 and	 ecx, 1
  02cb5	74 23		 je	 SHORT $LN47@Convert

; 1506 : 		{
; 1507 : 			this->m_Special[this->m_SpecialNum] = 0x62;

  02cb7	8b 45 fc	 mov	 eax, DWORD PTR _this$[ebp]
  02cba	0f b6 48 30	 movzx	 ecx, BYTE PTR [eax+48]
  02cbe	ba 62 00 00 00	 mov	 edx, 98			; 00000062H
  02cc3	8b 45 fc	 mov	 eax, DWORD PTR _this$[ebp]
  02cc6	66 89 54 48 32	 mov	 WORD PTR [eax+ecx*2+50], dx

; 1508 : 			this->m_SpecialNum++;

  02ccb	8b 45 fc	 mov	 eax, DWORD PTR _this$[ebp]
  02cce	8a 48 30	 mov	 cl, BYTE PTR [eax+48]
  02cd1	80 c1 01	 add	 cl, 1
  02cd4	8b 55 fc	 mov	 edx, DWORD PTR _this$[ebp]
  02cd7	88 4a 30	 mov	 BYTE PTR [edx+48], cl
$LN47@Convert:

; 1509 : 		}
; 1510 : 
; 1511 : 		if ( ((this->m_NewOption)&1) != 0 )

  02cda	8b 45 fc	 mov	 eax, DWORD PTR _this$[ebp]
  02cdd	0f b6 88 97 00
	00 00		 movzx	 ecx, BYTE PTR [eax+151]
  02ce4	83 e1 01	 and	 ecx, 1
  02ce7	74 23		 je	 SHORT $LN46@Convert

; 1512 : 		{
; 1513 : 			this->m_Special[this->m_SpecialNum] = 0x63;

  02ce9	8b 45 fc	 mov	 eax, DWORD PTR _this$[ebp]
  02cec	0f b6 48 30	 movzx	 ecx, BYTE PTR [eax+48]
  02cf0	ba 63 00 00 00	 mov	 edx, 99			; 00000063H
  02cf5	8b 45 fc	 mov	 eax, DWORD PTR _this$[ebp]
  02cf8	66 89 54 48 32	 mov	 WORD PTR [eax+ecx*2+50], dx

; 1514 : 			this->m_SpecialNum++;

  02cfd	8b 45 fc	 mov	 eax, DWORD PTR _this$[ebp]
  02d00	8a 48 30	 mov	 cl, BYTE PTR [eax+48]
  02d03	80 c1 01	 add	 cl, 1
  02d06	8b 55 fc	 mov	 edx, DWORD PTR _this$[ebp]
  02d09	88 4a 30	 mov	 BYTE PTR [edx+48], cl
$LN46@Convert:

; 1515 : 		}
; 1516 : 	}
; 1517 : 
; 1518 : 	if ( ((_type >= ITEMGET(12,3)) && (_type <= ITEMGET(12,6))) || (_type ==ITEMGET(12,42)) || (_type ==ITEMGET(13,30)) )

  02d0c	81 7d f8 03 18
	00 00		 cmp	 DWORD PTR __type$[ebp], 6147 ; 00001803H
  02d13	7c 09		 jl	 SHORT $LN43@Convert
  02d15	81 7d f8 06 18
	00 00		 cmp	 DWORD PTR __type$[ebp], 6150 ; 00001806H
  02d1c	7e 16		 jle	 SHORT $LN44@Convert
$LN43@Convert:
  02d1e	81 7d f8 2a 18
	00 00		 cmp	 DWORD PTR __type$[ebp], 6186 ; 0000182aH
  02d25	74 0d		 je	 SHORT $LN44@Convert
  02d27	81 7d f8 1e 1a
	00 00		 cmp	 DWORD PTR __type$[ebp], 6686 ; 00001a1eH
  02d2e	0f 85 c8 00 00
	00		 jne	 $LN39@Convert
$LN44@Convert:

; 1519 : 	{
; 1520 : 		if ( ((this->m_NewOption)&1) != 0 )

  02d34	8b 45 fc	 mov	 eax, DWORD PTR _this$[ebp]
  02d37	0f b6 88 97 00
	00 00		 movzx	 ecx, BYTE PTR [eax+151]
  02d3e	83 e1 01	 and	 ecx, 1
  02d41	74 23		 je	 SHORT $LN42@Convert

; 1521 : 		{
; 1522 : 			this->m_Special[this->m_SpecialNum] = 0x64;

  02d43	8b 45 fc	 mov	 eax, DWORD PTR _this$[ebp]
  02d46	0f b6 48 30	 movzx	 ecx, BYTE PTR [eax+48]
  02d4a	ba 64 00 00 00	 mov	 edx, 100		; 00000064H
  02d4f	8b 45 fc	 mov	 eax, DWORD PTR _this$[ebp]
  02d52	66 89 54 48 32	 mov	 WORD PTR [eax+ecx*2+50], dx

; 1523 : 			this->m_SpecialNum++;

  02d57	8b 45 fc	 mov	 eax, DWORD PTR _this$[ebp]
  02d5a	8a 48 30	 mov	 cl, BYTE PTR [eax+48]
  02d5d	80 c1 01	 add	 cl, 1
  02d60	8b 55 fc	 mov	 edx, DWORD PTR _this$[ebp]
  02d63	88 4a 30	 mov	 BYTE PTR [edx+48], cl
$LN42@Convert:

; 1524 : 		}
; 1525 : 
; 1526 : 		if ( ((this->m_NewOption)&2) != 0 )

  02d66	8b 45 fc	 mov	 eax, DWORD PTR _this$[ebp]
  02d69	0f b6 88 97 00
	00 00		 movzx	 ecx, BYTE PTR [eax+151]
  02d70	83 e1 02	 and	 ecx, 2
  02d73	74 23		 je	 SHORT $LN41@Convert

; 1527 : 		{
; 1528 : 			this->m_Special[this->m_SpecialNum] = 0x65;

  02d75	8b 45 fc	 mov	 eax, DWORD PTR _this$[ebp]
  02d78	0f b6 48 30	 movzx	 ecx, BYTE PTR [eax+48]
  02d7c	ba 65 00 00 00	 mov	 edx, 101		; 00000065H
  02d81	8b 45 fc	 mov	 eax, DWORD PTR _this$[ebp]
  02d84	66 89 54 48 32	 mov	 WORD PTR [eax+ecx*2+50], dx

; 1529 : 			this->m_SpecialNum++;

  02d89	8b 45 fc	 mov	 eax, DWORD PTR _this$[ebp]
  02d8c	8a 48 30	 mov	 cl, BYTE PTR [eax+48]
  02d8f	80 c1 01	 add	 cl, 1
  02d92	8b 55 fc	 mov	 edx, DWORD PTR _this$[ebp]
  02d95	88 4a 30	 mov	 BYTE PTR [edx+48], cl
$LN41@Convert:

; 1530 : 		}
; 1531 : 
; 1532 : 		if ( ((this->m_NewOption)&4) != 0 )

  02d98	8b 45 fc	 mov	 eax, DWORD PTR _this$[ebp]
  02d9b	0f b6 88 97 00
	00 00		 movzx	 ecx, BYTE PTR [eax+151]
  02da2	83 e1 04	 and	 ecx, 4
  02da5	74 23		 je	 SHORT $LN40@Convert

; 1533 : 		{
; 1534 : 			this->m_Special[this->m_SpecialNum] = 0x66;

  02da7	8b 45 fc	 mov	 eax, DWORD PTR _this$[ebp]
  02daa	0f b6 48 30	 movzx	 ecx, BYTE PTR [eax+48]
  02dae	ba 66 00 00 00	 mov	 edx, 102		; 00000066H
  02db3	8b 45 fc	 mov	 eax, DWORD PTR _this$[ebp]
  02db6	66 89 54 48 32	 mov	 WORD PTR [eax+ecx*2+50], dx

; 1535 : 			this->m_SpecialNum++;

  02dbb	8b 45 fc	 mov	 eax, DWORD PTR _this$[ebp]
  02dbe	8a 48 30	 mov	 cl, BYTE PTR [eax+48]
  02dc1	80 c1 01	 add	 cl, 1
  02dc4	8b 55 fc	 mov	 edx, DWORD PTR _this$[ebp]
  02dc7	88 4a 30	 mov	 BYTE PTR [edx+48], cl
$LN40@Convert:

; 1536 : 		}
; 1537 : 
; 1538 : 		if ( ((this->m_NewOption)&8) != 0 )

  02dca	8b 45 fc	 mov	 eax, DWORD PTR _this$[ebp]
  02dcd	0f b6 88 97 00
	00 00		 movzx	 ecx, BYTE PTR [eax+151]
  02dd4	83 e1 08	 and	 ecx, 8
  02dd7	74 23		 je	 SHORT $LN39@Convert

; 1539 : 		{
; 1540 : 			this->m_Special[this->m_SpecialNum] = 0x69;

  02dd9	8b 45 fc	 mov	 eax, DWORD PTR _this$[ebp]
  02ddc	0f b6 48 30	 movzx	 ecx, BYTE PTR [eax+48]
  02de0	ba 69 00 00 00	 mov	 edx, 105		; 00000069H
  02de5	8b 45 fc	 mov	 eax, DWORD PTR _this$[ebp]
  02de8	66 89 54 48 32	 mov	 WORD PTR [eax+ecx*2+50], dx

; 1541 : 			this->m_SpecialNum++;

  02ded	8b 45 fc	 mov	 eax, DWORD PTR _this$[ebp]
  02df0	8a 48 30	 mov	 cl, BYTE PTR [eax+48]
  02df3	80 c1 01	 add	 cl, 1
  02df6	8b 55 fc	 mov	 edx, DWORD PTR _this$[ebp]
  02df9	88 4a 30	 mov	 BYTE PTR [edx+48], cl
$LN39@Convert:

; 1542 : 		}
; 1543 : 	}
; 1544 : 
; 1545 : 	if ( _type == ITEMGET(13,37) )

  02dfc	81 7d f8 25 1a
	00 00		 cmp	 DWORD PTR __type$[ebp], 6693 ; 00001a25H
  02e03	0f 85 9a 00 00
	00		 jne	 $LN33@Convert

; 1546 : 	{
; 1547 : 		if ( (this->m_NewOption &1) )

  02e09	8b 45 fc	 mov	 eax, DWORD PTR _this$[ebp]
  02e0c	0f b6 88 97 00
	00 00		 movzx	 ecx, BYTE PTR [eax+151]
  02e13	83 e1 01	 and	 ecx, 1
  02e16	74 25		 je	 SHORT $LN37@Convert

; 1548 : 		{
; 1549 : 			this->m_Special[this->m_SpecialNum] = 0x6A;

  02e18	8b 45 fc	 mov	 eax, DWORD PTR _this$[ebp]
  02e1b	0f b6 48 30	 movzx	 ecx, BYTE PTR [eax+48]
  02e1f	ba 6a 00 00 00	 mov	 edx, 106		; 0000006aH
  02e24	8b 45 fc	 mov	 eax, DWORD PTR _this$[ebp]
  02e27	66 89 54 48 32	 mov	 WORD PTR [eax+ecx*2+50], dx

; 1550 : 			this->m_SpecialNum++;

  02e2c	8b 45 fc	 mov	 eax, DWORD PTR _this$[ebp]
  02e2f	8a 48 30	 mov	 cl, BYTE PTR [eax+48]
  02e32	80 c1 01	 add	 cl, 1
  02e35	8b 55 fc	 mov	 edx, DWORD PTR _this$[ebp]
  02e38	88 4a 30	 mov	 BYTE PTR [edx+48], cl
  02e3b	eb 66		 jmp	 SHORT $LN33@Convert
$LN37@Convert:

; 1551 : 		}
; 1552 : 		else if ( (this->m_NewOption &2) )

  02e3d	8b 45 fc	 mov	 eax, DWORD PTR _this$[ebp]
  02e40	0f b6 88 97 00
	00 00		 movzx	 ecx, BYTE PTR [eax+151]
  02e47	83 e1 02	 and	 ecx, 2
  02e4a	74 25		 je	 SHORT $LN35@Convert

; 1553 : 		{
; 1554 : 			this->m_Special[this->m_SpecialNum] = 0x6B;

  02e4c	8b 45 fc	 mov	 eax, DWORD PTR _this$[ebp]
  02e4f	0f b6 48 30	 movzx	 ecx, BYTE PTR [eax+48]
  02e53	ba 6b 00 00 00	 mov	 edx, 107		; 0000006bH
  02e58	8b 45 fc	 mov	 eax, DWORD PTR _this$[ebp]
  02e5b	66 89 54 48 32	 mov	 WORD PTR [eax+ecx*2+50], dx

; 1555 : 			this->m_SpecialNum++;

  02e60	8b 45 fc	 mov	 eax, DWORD PTR _this$[ebp]
  02e63	8a 48 30	 mov	 cl, BYTE PTR [eax+48]
  02e66	80 c1 01	 add	 cl, 1
  02e69	8b 55 fc	 mov	 edx, DWORD PTR _this$[ebp]
  02e6c	88 4a 30	 mov	 BYTE PTR [edx+48], cl
  02e6f	eb 32		 jmp	 SHORT $LN33@Convert
$LN35@Convert:

; 1556 : 		}
; 1557 : 		else if ( (this->m_NewOption &4) ) //Season 2.5 Golden Fenrir

  02e71	8b 45 fc	 mov	 eax, DWORD PTR _this$[ebp]
  02e74	0f b6 88 97 00
	00 00		 movzx	 ecx, BYTE PTR [eax+151]
  02e7b	83 e1 04	 and	 ecx, 4
  02e7e	74 23		 je	 SHORT $LN33@Convert

; 1558 : 		{
; 1559 : 			this->m_Special[this->m_SpecialNum] = 0x70;

  02e80	8b 45 fc	 mov	 eax, DWORD PTR _this$[ebp]
  02e83	0f b6 48 30	 movzx	 ecx, BYTE PTR [eax+48]
  02e87	ba 70 00 00 00	 mov	 edx, 112		; 00000070H
  02e8c	8b 45 fc	 mov	 eax, DWORD PTR _this$[ebp]
  02e8f	66 89 54 48 32	 mov	 WORD PTR [eax+ecx*2+50], dx

; 1560 : 			this->m_SpecialNum++;

  02e94	8b 45 fc	 mov	 eax, DWORD PTR _this$[ebp]
  02e97	8a 48 30	 mov	 cl, BYTE PTR [eax+48]
  02e9a	80 c1 01	 add	 cl, 1
  02e9d	8b 55 fc	 mov	 edx, DWORD PTR _this$[ebp]
  02ea0	88 4a 30	 mov	 BYTE PTR [edx+48], cl
$LN33@Convert:

; 1561 : 		}
; 1562 : 	}
; 1563 : 
; 1564 : 	//Season 2.5 Third Wings
; 1565 : 	if ( _type >= ITEMGET(12,36) && _type <= ITEMGET(12,40) || _type == ITEMGET(12,43))

  02ea3	81 7d f8 24 18
	00 00		 cmp	 DWORD PTR __type$[ebp], 6180 ; 00001824H
  02eaa	7c 09		 jl	 SHORT $LN30@Convert
  02eac	81 7d f8 28 18
	00 00		 cmp	 DWORD PTR __type$[ebp], 6184 ; 00001828H
  02eb3	7e 0d		 jle	 SHORT $LN31@Convert
$LN30@Convert:
  02eb5	81 7d f8 2b 18
	00 00		 cmp	 DWORD PTR __type$[ebp], 6187 ; 0000182bH
  02ebc	0f 85 c8 00 00
	00		 jne	 $LN26@Convert
$LN31@Convert:

; 1566 : 	{
; 1567 : 		if ( (this->m_NewOption &1) )

  02ec2	8b 45 fc	 mov	 eax, DWORD PTR _this$[ebp]
  02ec5	0f b6 88 97 00
	00 00		 movzx	 ecx, BYTE PTR [eax+151]
  02ecc	83 e1 01	 and	 ecx, 1
  02ecf	74 23		 je	 SHORT $LN29@Convert

; 1568 : 		{
; 1569 : 			this->m_Special[this->m_SpecialNum] = 0x6C;

  02ed1	8b 45 fc	 mov	 eax, DWORD PTR _this$[ebp]
  02ed4	0f b6 48 30	 movzx	 ecx, BYTE PTR [eax+48]
  02ed8	ba 6c 00 00 00	 mov	 edx, 108		; 0000006cH
  02edd	8b 45 fc	 mov	 eax, DWORD PTR _this$[ebp]
  02ee0	66 89 54 48 32	 mov	 WORD PTR [eax+ecx*2+50], dx

; 1570 : 			this->m_SpecialNum++;

  02ee5	8b 45 fc	 mov	 eax, DWORD PTR _this$[ebp]
  02ee8	8a 48 30	 mov	 cl, BYTE PTR [eax+48]
  02eeb	80 c1 01	 add	 cl, 1
  02eee	8b 55 fc	 mov	 edx, DWORD PTR _this$[ebp]
  02ef1	88 4a 30	 mov	 BYTE PTR [edx+48], cl
$LN29@Convert:

; 1571 : 		}
; 1572 : 		if ( (this->m_NewOption &2) )

  02ef4	8b 45 fc	 mov	 eax, DWORD PTR _this$[ebp]
  02ef7	0f b6 88 97 00
	00 00		 movzx	 ecx, BYTE PTR [eax+151]
  02efe	83 e1 02	 and	 ecx, 2
  02f01	74 23		 je	 SHORT $LN28@Convert

; 1573 : 		{
; 1574 : 			this->m_Special[this->m_SpecialNum] = 0x6D;

  02f03	8b 45 fc	 mov	 eax, DWORD PTR _this$[ebp]
  02f06	0f b6 48 30	 movzx	 ecx, BYTE PTR [eax+48]
  02f0a	ba 6d 00 00 00	 mov	 edx, 109		; 0000006dH
  02f0f	8b 45 fc	 mov	 eax, DWORD PTR _this$[ebp]
  02f12	66 89 54 48 32	 mov	 WORD PTR [eax+ecx*2+50], dx

; 1575 : 			this->m_SpecialNum++;

  02f17	8b 45 fc	 mov	 eax, DWORD PTR _this$[ebp]
  02f1a	8a 48 30	 mov	 cl, BYTE PTR [eax+48]
  02f1d	80 c1 01	 add	 cl, 1
  02f20	8b 55 fc	 mov	 edx, DWORD PTR _this$[ebp]
  02f23	88 4a 30	 mov	 BYTE PTR [edx+48], cl
$LN28@Convert:

; 1576 : 		}
; 1577 : 		if ( (this->m_NewOption &4) )

  02f26	8b 45 fc	 mov	 eax, DWORD PTR _this$[ebp]
  02f29	0f b6 88 97 00
	00 00		 movzx	 ecx, BYTE PTR [eax+151]
  02f30	83 e1 04	 and	 ecx, 4
  02f33	74 23		 je	 SHORT $LN27@Convert

; 1578 : 		{
; 1579 : 			this->m_Special[this->m_SpecialNum] = 0x6E;

  02f35	8b 45 fc	 mov	 eax, DWORD PTR _this$[ebp]
  02f38	0f b6 48 30	 movzx	 ecx, BYTE PTR [eax+48]
  02f3c	ba 6e 00 00 00	 mov	 edx, 110		; 0000006eH
  02f41	8b 45 fc	 mov	 eax, DWORD PTR _this$[ebp]
  02f44	66 89 54 48 32	 mov	 WORD PTR [eax+ecx*2+50], dx

; 1580 : 			this->m_SpecialNum++;

  02f49	8b 45 fc	 mov	 eax, DWORD PTR _this$[ebp]
  02f4c	8a 48 30	 mov	 cl, BYTE PTR [eax+48]
  02f4f	80 c1 01	 add	 cl, 1
  02f52	8b 55 fc	 mov	 edx, DWORD PTR _this$[ebp]
  02f55	88 4a 30	 mov	 BYTE PTR [edx+48], cl
$LN27@Convert:

; 1581 : 		}
; 1582 : 		if ( (this->m_NewOption &8) )

  02f58	8b 45 fc	 mov	 eax, DWORD PTR _this$[ebp]
  02f5b	0f b6 88 97 00
	00 00		 movzx	 ecx, BYTE PTR [eax+151]
  02f62	83 e1 08	 and	 ecx, 8
  02f65	74 23		 je	 SHORT $LN26@Convert

; 1583 : 		{
; 1584 : 			this->m_Special[this->m_SpecialNum] = 0x6F;

  02f67	8b 45 fc	 mov	 eax, DWORD PTR _this$[ebp]
  02f6a	0f b6 48 30	 movzx	 ecx, BYTE PTR [eax+48]
  02f6e	ba 6f 00 00 00	 mov	 edx, 111		; 0000006fH
  02f73	8b 45 fc	 mov	 eax, DWORD PTR _this$[ebp]
  02f76	66 89 54 48 32	 mov	 WORD PTR [eax+ecx*2+50], dx

; 1585 : 			this->m_SpecialNum++;

  02f7b	8b 45 fc	 mov	 eax, DWORD PTR _this$[ebp]
  02f7e	8a 48 30	 mov	 cl, BYTE PTR [eax+48]
  02f81	80 c1 01	 add	 cl, 1
  02f84	8b 55 fc	 mov	 edx, DWORD PTR _this$[ebp]
  02f87	88 4a 30	 mov	 BYTE PTR [edx+48], cl
$LN26@Convert:

; 1586 : 		}
; 1587 : 	}
; 1588 : 
; 1589 : 	//Custom Wings4
; 1590 : #ifdef NEWWINGS_2_5
; 1591 : 	if ( IS_NEWWINGS_2_5(_type) )

  02f8a	81 7d f8 ba 18
	00 00		 cmp	 DWORD PTR __type$[ebp], 6330 ; 000018baH
  02f91	7d 09		 jge	 SHORT $LN435@Convert
  02f93	c7 45 8c 00 00
	00 00		 mov	 DWORD PTR tv2523[ebp], 0
  02f9a	eb 0f		 jmp	 SHORT $LN436@Convert
$LN435@Convert:
  02f9c	33 c0		 xor	 eax, eax
  02f9e	81 7d f8 bc 18
	00 00		 cmp	 DWORD PTR __type$[ebp], 6332 ; 000018bcH
  02fa5	0f 9e c0	 setle	 al
  02fa8	89 45 8c	 mov	 DWORD PTR tv2523[ebp], eax
$LN436@Convert:
  02fab	83 7d 8c 00	 cmp	 DWORD PTR tv2523[ebp], 0
  02faf	0f 84 c8 00 00
	00		 je	 $LN21@Convert

; 1592 : 	{
; 1593 : 		if ( (this->m_NewOption &1) )

  02fb5	8b 45 fc	 mov	 eax, DWORD PTR _this$[ebp]
  02fb8	0f b6 88 97 00
	00 00		 movzx	 ecx, BYTE PTR [eax+151]
  02fbf	83 e1 01	 and	 ecx, 1
  02fc2	74 23		 je	 SHORT $LN24@Convert

; 1594 : 		{
; 1595 : 			this->m_Special[this->m_SpecialNum] = 0x6C;

  02fc4	8b 45 fc	 mov	 eax, DWORD PTR _this$[ebp]
  02fc7	0f b6 48 30	 movzx	 ecx, BYTE PTR [eax+48]
  02fcb	ba 6c 00 00 00	 mov	 edx, 108		; 0000006cH
  02fd0	8b 45 fc	 mov	 eax, DWORD PTR _this$[ebp]
  02fd3	66 89 54 48 32	 mov	 WORD PTR [eax+ecx*2+50], dx

; 1596 : 			this->m_SpecialNum++;

  02fd8	8b 45 fc	 mov	 eax, DWORD PTR _this$[ebp]
  02fdb	8a 48 30	 mov	 cl, BYTE PTR [eax+48]
  02fde	80 c1 01	 add	 cl, 1
  02fe1	8b 55 fc	 mov	 edx, DWORD PTR _this$[ebp]
  02fe4	88 4a 30	 mov	 BYTE PTR [edx+48], cl
$LN24@Convert:

; 1597 : 		}
; 1598 : 		if ( (this->m_NewOption &2) )

  02fe7	8b 45 fc	 mov	 eax, DWORD PTR _this$[ebp]
  02fea	0f b6 88 97 00
	00 00		 movzx	 ecx, BYTE PTR [eax+151]
  02ff1	83 e1 02	 and	 ecx, 2
  02ff4	74 23		 je	 SHORT $LN23@Convert

; 1599 : 		{
; 1600 : 			this->m_Special[this->m_SpecialNum] = 0x6D;

  02ff6	8b 45 fc	 mov	 eax, DWORD PTR _this$[ebp]
  02ff9	0f b6 48 30	 movzx	 ecx, BYTE PTR [eax+48]
  02ffd	ba 6d 00 00 00	 mov	 edx, 109		; 0000006dH
  03002	8b 45 fc	 mov	 eax, DWORD PTR _this$[ebp]
  03005	66 89 54 48 32	 mov	 WORD PTR [eax+ecx*2+50], dx

; 1601 : 			this->m_SpecialNum++;

  0300a	8b 45 fc	 mov	 eax, DWORD PTR _this$[ebp]
  0300d	8a 48 30	 mov	 cl, BYTE PTR [eax+48]
  03010	80 c1 01	 add	 cl, 1
  03013	8b 55 fc	 mov	 edx, DWORD PTR _this$[ebp]
  03016	88 4a 30	 mov	 BYTE PTR [edx+48], cl
$LN23@Convert:

; 1602 : 		}
; 1603 : 		if ( (this->m_NewOption &4) )

  03019	8b 45 fc	 mov	 eax, DWORD PTR _this$[ebp]
  0301c	0f b6 88 97 00
	00 00		 movzx	 ecx, BYTE PTR [eax+151]
  03023	83 e1 04	 and	 ecx, 4
  03026	74 23		 je	 SHORT $LN22@Convert

; 1604 : 		{
; 1605 : 			this->m_Special[this->m_SpecialNum] = 0x6E;

  03028	8b 45 fc	 mov	 eax, DWORD PTR _this$[ebp]
  0302b	0f b6 48 30	 movzx	 ecx, BYTE PTR [eax+48]
  0302f	ba 6e 00 00 00	 mov	 edx, 110		; 0000006eH
  03034	8b 45 fc	 mov	 eax, DWORD PTR _this$[ebp]
  03037	66 89 54 48 32	 mov	 WORD PTR [eax+ecx*2+50], dx

; 1606 : 			this->m_SpecialNum++;

  0303c	8b 45 fc	 mov	 eax, DWORD PTR _this$[ebp]
  0303f	8a 48 30	 mov	 cl, BYTE PTR [eax+48]
  03042	80 c1 01	 add	 cl, 1
  03045	8b 55 fc	 mov	 edx, DWORD PTR _this$[ebp]
  03048	88 4a 30	 mov	 BYTE PTR [edx+48], cl
$LN22@Convert:

; 1607 : 		}
; 1608 : 		if ( (this->m_NewOption &8) )

  0304b	8b 45 fc	 mov	 eax, DWORD PTR _this$[ebp]
  0304e	0f b6 88 97 00
	00 00		 movzx	 ecx, BYTE PTR [eax+151]
  03055	83 e1 08	 and	 ecx, 8
  03058	74 23		 je	 SHORT $LN21@Convert

; 1609 : 		{
; 1610 : 			this->m_Special[this->m_SpecialNum] = 0x6F;

  0305a	8b 45 fc	 mov	 eax, DWORD PTR _this$[ebp]
  0305d	0f b6 48 30	 movzx	 ecx, BYTE PTR [eax+48]
  03061	ba 6f 00 00 00	 mov	 edx, 111		; 0000006fH
  03066	8b 45 fc	 mov	 eax, DWORD PTR _this$[ebp]
  03069	66 89 54 48 32	 mov	 WORD PTR [eax+ecx*2+50], dx

; 1611 : 			this->m_SpecialNum++;

  0306e	8b 45 fc	 mov	 eax, DWORD PTR _this$[ebp]
  03071	8a 48 30	 mov	 cl, BYTE PTR [eax+48]
  03074	80 c1 01	 add	 cl, 1
  03077	8b 55 fc	 mov	 edx, DWORD PTR _this$[ebp]
  0307a	88 4a 30	 mov	 BYTE PTR [edx+48], cl
$LN21@Convert:

; 1612 : 		}
; 1613 : 	}
; 1614 : #endif
; 1615 : 
; 1616 : #ifdef NEWWINGS_4
; 1617 : 	if ( IS_NEWWINGS_4(_type) )

  0307d	81 7d f8 b4 18
	00 00		 cmp	 DWORD PTR __type$[ebp], 6324 ; 000018b4H
  03084	7d 09		 jge	 SHORT $LN437@Convert
  03086	c7 45 8c 00 00
	00 00		 mov	 DWORD PTR tv2580[ebp], 0
  0308d	eb 0f		 jmp	 SHORT $LN438@Convert
$LN437@Convert:
  0308f	33 c0		 xor	 eax, eax
  03091	81 7d f8 b9 18
	00 00		 cmp	 DWORD PTR __type$[ebp], 6329 ; 000018b9H
  03098	0f 9e c0	 setle	 al
  0309b	89 45 8c	 mov	 DWORD PTR tv2580[ebp], eax
$LN438@Convert:
  0309e	83 7d 8c 00	 cmp	 DWORD PTR tv2580[ebp], 0
  030a2	0f 84 c8 00 00
	00		 je	 $LN16@Convert

; 1618 : 	{
; 1619 : 		if ( (this->m_NewOption &1) )

  030a8	8b 45 fc	 mov	 eax, DWORD PTR _this$[ebp]
  030ab	0f b6 88 97 00
	00 00		 movzx	 ecx, BYTE PTR [eax+151]
  030b2	83 e1 01	 and	 ecx, 1
  030b5	74 23		 je	 SHORT $LN19@Convert

; 1620 : 		{
; 1621 : 			this->m_Special[this->m_SpecialNum] = 0x6C;

  030b7	8b 45 fc	 mov	 eax, DWORD PTR _this$[ebp]
  030ba	0f b6 48 30	 movzx	 ecx, BYTE PTR [eax+48]
  030be	ba 6c 00 00 00	 mov	 edx, 108		; 0000006cH
  030c3	8b 45 fc	 mov	 eax, DWORD PTR _this$[ebp]
  030c6	66 89 54 48 32	 mov	 WORD PTR [eax+ecx*2+50], dx

; 1622 : 			this->m_SpecialNum++;

  030cb	8b 45 fc	 mov	 eax, DWORD PTR _this$[ebp]
  030ce	8a 48 30	 mov	 cl, BYTE PTR [eax+48]
  030d1	80 c1 01	 add	 cl, 1
  030d4	8b 55 fc	 mov	 edx, DWORD PTR _this$[ebp]
  030d7	88 4a 30	 mov	 BYTE PTR [edx+48], cl
$LN19@Convert:

; 1623 : 		}
; 1624 : 		if ( (this->m_NewOption &2) )

  030da	8b 45 fc	 mov	 eax, DWORD PTR _this$[ebp]
  030dd	0f b6 88 97 00
	00 00		 movzx	 ecx, BYTE PTR [eax+151]
  030e4	83 e1 02	 and	 ecx, 2
  030e7	74 23		 je	 SHORT $LN18@Convert

; 1625 : 		{
; 1626 : 			this->m_Special[this->m_SpecialNum] = 0x6D;

  030e9	8b 45 fc	 mov	 eax, DWORD PTR _this$[ebp]
  030ec	0f b6 48 30	 movzx	 ecx, BYTE PTR [eax+48]
  030f0	ba 6d 00 00 00	 mov	 edx, 109		; 0000006dH
  030f5	8b 45 fc	 mov	 eax, DWORD PTR _this$[ebp]
  030f8	66 89 54 48 32	 mov	 WORD PTR [eax+ecx*2+50], dx

; 1627 : 			this->m_SpecialNum++;

  030fd	8b 45 fc	 mov	 eax, DWORD PTR _this$[ebp]
  03100	8a 48 30	 mov	 cl, BYTE PTR [eax+48]
  03103	80 c1 01	 add	 cl, 1
  03106	8b 55 fc	 mov	 edx, DWORD PTR _this$[ebp]
  03109	88 4a 30	 mov	 BYTE PTR [edx+48], cl
$LN18@Convert:

; 1628 : 		}
; 1629 : 		if ( (this->m_NewOption &4) )

  0310c	8b 45 fc	 mov	 eax, DWORD PTR _this$[ebp]
  0310f	0f b6 88 97 00
	00 00		 movzx	 ecx, BYTE PTR [eax+151]
  03116	83 e1 04	 and	 ecx, 4
  03119	74 23		 je	 SHORT $LN17@Convert

; 1630 : 		{
; 1631 : 			this->m_Special[this->m_SpecialNum] = 0x6E;

  0311b	8b 45 fc	 mov	 eax, DWORD PTR _this$[ebp]
  0311e	0f b6 48 30	 movzx	 ecx, BYTE PTR [eax+48]
  03122	ba 6e 00 00 00	 mov	 edx, 110		; 0000006eH
  03127	8b 45 fc	 mov	 eax, DWORD PTR _this$[ebp]
  0312a	66 89 54 48 32	 mov	 WORD PTR [eax+ecx*2+50], dx

; 1632 : 			this->m_SpecialNum++;

  0312f	8b 45 fc	 mov	 eax, DWORD PTR _this$[ebp]
  03132	8a 48 30	 mov	 cl, BYTE PTR [eax+48]
  03135	80 c1 01	 add	 cl, 1
  03138	8b 55 fc	 mov	 edx, DWORD PTR _this$[ebp]
  0313b	88 4a 30	 mov	 BYTE PTR [edx+48], cl
$LN17@Convert:

; 1633 : 		}
; 1634 : 		if ( (this->m_NewOption &8) )

  0313e	8b 45 fc	 mov	 eax, DWORD PTR _this$[ebp]
  03141	0f b6 88 97 00
	00 00		 movzx	 ecx, BYTE PTR [eax+151]
  03148	83 e1 08	 and	 ecx, 8
  0314b	74 23		 je	 SHORT $LN16@Convert

; 1635 : 		{
; 1636 : 			this->m_Special[this->m_SpecialNum] = 0x6F;

  0314d	8b 45 fc	 mov	 eax, DWORD PTR _this$[ebp]
  03150	0f b6 48 30	 movzx	 ecx, BYTE PTR [eax+48]
  03154	ba 6f 00 00 00	 mov	 edx, 111		; 0000006fH
  03159	8b 45 fc	 mov	 eax, DWORD PTR _this$[ebp]
  0315c	66 89 54 48 32	 mov	 WORD PTR [eax+ecx*2+50], dx

; 1637 : 			this->m_SpecialNum++;

  03161	8b 45 fc	 mov	 eax, DWORD PTR _this$[ebp]
  03164	8a 48 30	 mov	 cl, BYTE PTR [eax+48]
  03167	80 c1 01	 add	 cl, 1
  0316a	8b 55 fc	 mov	 edx, DWORD PTR _this$[ebp]
  0316d	88 4a 30	 mov	 BYTE PTR [edx+48], cl
$LN16@Convert:

; 1638 : 		}
; 1639 : 	}
; 1640 : #endif
; 1641 : 
; 1642 : #ifdef NEWWINGS_5
; 1643 : 	if ( IS_NEWWINGS_5(_type) )

  03170	81 7d f8 bd 18
	00 00		 cmp	 DWORD PTR __type$[ebp], 6333 ; 000018bdH
  03177	7d 09		 jge	 SHORT $LN439@Convert
  03179	c7 45 8c 00 00
	00 00		 mov	 DWORD PTR tv2637[ebp], 0
  03180	eb 0f		 jmp	 SHORT $LN440@Convert
$LN439@Convert:
  03182	33 c0		 xor	 eax, eax
  03184	81 7d f8 c2 18
	00 00		 cmp	 DWORD PTR __type$[ebp], 6338 ; 000018c2H
  0318b	0f 9e c0	 setle	 al
  0318e	89 45 8c	 mov	 DWORD PTR tv2637[ebp], eax
$LN440@Convert:
  03191	83 7d 8c 00	 cmp	 DWORD PTR tv2637[ebp], 0
  03195	0f 84 c8 00 00
	00		 je	 $LN11@Convert

; 1644 : 	{
; 1645 : 		if ( (this->m_NewOption &1) )

  0319b	8b 45 fc	 mov	 eax, DWORD PTR _this$[ebp]
  0319e	0f b6 88 97 00
	00 00		 movzx	 ecx, BYTE PTR [eax+151]
  031a5	83 e1 01	 and	 ecx, 1
  031a8	74 23		 je	 SHORT $LN14@Convert

; 1646 : 		{
; 1647 : 			this->m_Special[this->m_SpecialNum] = 0x6C;

  031aa	8b 45 fc	 mov	 eax, DWORD PTR _this$[ebp]
  031ad	0f b6 48 30	 movzx	 ecx, BYTE PTR [eax+48]
  031b1	ba 6c 00 00 00	 mov	 edx, 108		; 0000006cH
  031b6	8b 45 fc	 mov	 eax, DWORD PTR _this$[ebp]
  031b9	66 89 54 48 32	 mov	 WORD PTR [eax+ecx*2+50], dx

; 1648 : 			this->m_SpecialNum++;

  031be	8b 45 fc	 mov	 eax, DWORD PTR _this$[ebp]
  031c1	8a 48 30	 mov	 cl, BYTE PTR [eax+48]
  031c4	80 c1 01	 add	 cl, 1
  031c7	8b 55 fc	 mov	 edx, DWORD PTR _this$[ebp]
  031ca	88 4a 30	 mov	 BYTE PTR [edx+48], cl
$LN14@Convert:

; 1649 : 		}
; 1650 : 		if ( (this->m_NewOption &2) )

  031cd	8b 45 fc	 mov	 eax, DWORD PTR _this$[ebp]
  031d0	0f b6 88 97 00
	00 00		 movzx	 ecx, BYTE PTR [eax+151]
  031d7	83 e1 02	 and	 ecx, 2
  031da	74 23		 je	 SHORT $LN13@Convert

; 1651 : 		{
; 1652 : 			this->m_Special[this->m_SpecialNum] = 0x6D;

  031dc	8b 45 fc	 mov	 eax, DWORD PTR _this$[ebp]
  031df	0f b6 48 30	 movzx	 ecx, BYTE PTR [eax+48]
  031e3	ba 6d 00 00 00	 mov	 edx, 109		; 0000006dH
  031e8	8b 45 fc	 mov	 eax, DWORD PTR _this$[ebp]
  031eb	66 89 54 48 32	 mov	 WORD PTR [eax+ecx*2+50], dx

; 1653 : 			this->m_SpecialNum++;

  031f0	8b 45 fc	 mov	 eax, DWORD PTR _this$[ebp]
  031f3	8a 48 30	 mov	 cl, BYTE PTR [eax+48]
  031f6	80 c1 01	 add	 cl, 1
  031f9	8b 55 fc	 mov	 edx, DWORD PTR _this$[ebp]
  031fc	88 4a 30	 mov	 BYTE PTR [edx+48], cl
$LN13@Convert:

; 1654 : 		}
; 1655 : 		if ( (this->m_NewOption &4) )

  031ff	8b 45 fc	 mov	 eax, DWORD PTR _this$[ebp]
  03202	0f b6 88 97 00
	00 00		 movzx	 ecx, BYTE PTR [eax+151]
  03209	83 e1 04	 and	 ecx, 4
  0320c	74 23		 je	 SHORT $LN12@Convert

; 1656 : 		{
; 1657 : 			this->m_Special[this->m_SpecialNum] = 0x6E;

  0320e	8b 45 fc	 mov	 eax, DWORD PTR _this$[ebp]
  03211	0f b6 48 30	 movzx	 ecx, BYTE PTR [eax+48]
  03215	ba 6e 00 00 00	 mov	 edx, 110		; 0000006eH
  0321a	8b 45 fc	 mov	 eax, DWORD PTR _this$[ebp]
  0321d	66 89 54 48 32	 mov	 WORD PTR [eax+ecx*2+50], dx

; 1658 : 			this->m_SpecialNum++;

  03222	8b 45 fc	 mov	 eax, DWORD PTR _this$[ebp]
  03225	8a 48 30	 mov	 cl, BYTE PTR [eax+48]
  03228	80 c1 01	 add	 cl, 1
  0322b	8b 55 fc	 mov	 edx, DWORD PTR _this$[ebp]
  0322e	88 4a 30	 mov	 BYTE PTR [edx+48], cl
$LN12@Convert:

; 1659 : 		}
; 1660 : 		if ( (this->m_NewOption &8) )

  03231	8b 45 fc	 mov	 eax, DWORD PTR _this$[ebp]
  03234	0f b6 88 97 00
	00 00		 movzx	 ecx, BYTE PTR [eax+151]
  0323b	83 e1 08	 and	 ecx, 8
  0323e	74 23		 je	 SHORT $LN11@Convert

; 1661 : 		{
; 1662 : 			this->m_Special[this->m_SpecialNum] = 0x6F;

  03240	8b 45 fc	 mov	 eax, DWORD PTR _this$[ebp]
  03243	0f b6 48 30	 movzx	 ecx, BYTE PTR [eax+48]
  03247	ba 6f 00 00 00	 mov	 edx, 111		; 0000006fH
  0324c	8b 45 fc	 mov	 eax, DWORD PTR _this$[ebp]
  0324f	66 89 54 48 32	 mov	 WORD PTR [eax+ecx*2+50], dx

; 1663 : 			this->m_SpecialNum++;

  03254	8b 45 fc	 mov	 eax, DWORD PTR _this$[ebp]
  03257	8a 48 30	 mov	 cl, BYTE PTR [eax+48]
  0325a	80 c1 01	 add	 cl, 1
  0325d	8b 55 fc	 mov	 edx, DWORD PTR _this$[ebp]
  03260	88 4a 30	 mov	 BYTE PTR [edx+48], cl
$LN11@Convert:

; 1664 : 		}
; 1665 : 	}
; 1666 : #endif
; 1667 : 
; 1668 : #ifdef NEWWINGS_6
; 1669 : 	if ( IS_NEWWINGS_6(_type) )

  03263	81 7d f8 c3 18
	00 00		 cmp	 DWORD PTR __type$[ebp], 6339 ; 000018c3H
  0326a	7d 09		 jge	 SHORT $LN441@Convert
  0326c	c7 45 8c 00 00
	00 00		 mov	 DWORD PTR tv2694[ebp], 0
  03273	eb 0f		 jmp	 SHORT $LN442@Convert
$LN441@Convert:
  03275	33 c0		 xor	 eax, eax
  03277	81 7d f8 dc 18
	00 00		 cmp	 DWORD PTR __type$[ebp], 6364 ; 000018dcH
  0327e	0f 9e c0	 setle	 al
  03281	89 45 8c	 mov	 DWORD PTR tv2694[ebp], eax
$LN442@Convert:
  03284	83 7d 8c 00	 cmp	 DWORD PTR tv2694[ebp], 0
  03288	0f 84 c8 00 00
	00		 je	 $LN6@Convert

; 1670 : 	{
; 1671 : 		if ( (this->m_NewOption &1) )

  0328e	8b 45 fc	 mov	 eax, DWORD PTR _this$[ebp]
  03291	0f b6 88 97 00
	00 00		 movzx	 ecx, BYTE PTR [eax+151]
  03298	83 e1 01	 and	 ecx, 1
  0329b	74 23		 je	 SHORT $LN9@Convert

; 1672 : 		{
; 1673 : 			this->m_Special[this->m_SpecialNum] = 0x6C;

  0329d	8b 45 fc	 mov	 eax, DWORD PTR _this$[ebp]
  032a0	0f b6 48 30	 movzx	 ecx, BYTE PTR [eax+48]
  032a4	ba 6c 00 00 00	 mov	 edx, 108		; 0000006cH
  032a9	8b 45 fc	 mov	 eax, DWORD PTR _this$[ebp]
  032ac	66 89 54 48 32	 mov	 WORD PTR [eax+ecx*2+50], dx

; 1674 : 			this->m_SpecialNum++;

  032b1	8b 45 fc	 mov	 eax, DWORD PTR _this$[ebp]
  032b4	8a 48 30	 mov	 cl, BYTE PTR [eax+48]
  032b7	80 c1 01	 add	 cl, 1
  032ba	8b 55 fc	 mov	 edx, DWORD PTR _this$[ebp]
  032bd	88 4a 30	 mov	 BYTE PTR [edx+48], cl
$LN9@Convert:

; 1675 : 		}
; 1676 : 		if ( (this->m_NewOption &2) )

  032c0	8b 45 fc	 mov	 eax, DWORD PTR _this$[ebp]
  032c3	0f b6 88 97 00
	00 00		 movzx	 ecx, BYTE PTR [eax+151]
  032ca	83 e1 02	 and	 ecx, 2
  032cd	74 23		 je	 SHORT $LN8@Convert

; 1677 : 		{
; 1678 : 			this->m_Special[this->m_SpecialNum] = 0x6D;

  032cf	8b 45 fc	 mov	 eax, DWORD PTR _this$[ebp]
  032d2	0f b6 48 30	 movzx	 ecx, BYTE PTR [eax+48]
  032d6	ba 6d 00 00 00	 mov	 edx, 109		; 0000006dH
  032db	8b 45 fc	 mov	 eax, DWORD PTR _this$[ebp]
  032de	66 89 54 48 32	 mov	 WORD PTR [eax+ecx*2+50], dx

; 1679 : 			this->m_SpecialNum++;

  032e3	8b 45 fc	 mov	 eax, DWORD PTR _this$[ebp]
  032e6	8a 48 30	 mov	 cl, BYTE PTR [eax+48]
  032e9	80 c1 01	 add	 cl, 1
  032ec	8b 55 fc	 mov	 edx, DWORD PTR _this$[ebp]
  032ef	88 4a 30	 mov	 BYTE PTR [edx+48], cl
$LN8@Convert:

; 1680 : 		}
; 1681 : 		if ( (this->m_NewOption &4) )

  032f2	8b 45 fc	 mov	 eax, DWORD PTR _this$[ebp]
  032f5	0f b6 88 97 00
	00 00		 movzx	 ecx, BYTE PTR [eax+151]
  032fc	83 e1 04	 and	 ecx, 4
  032ff	74 23		 je	 SHORT $LN7@Convert

; 1682 : 		{
; 1683 : 			this->m_Special[this->m_SpecialNum] = 0x6E;

  03301	8b 45 fc	 mov	 eax, DWORD PTR _this$[ebp]
  03304	0f b6 48 30	 movzx	 ecx, BYTE PTR [eax+48]
  03308	ba 6e 00 00 00	 mov	 edx, 110		; 0000006eH
  0330d	8b 45 fc	 mov	 eax, DWORD PTR _this$[ebp]
  03310	66 89 54 48 32	 mov	 WORD PTR [eax+ecx*2+50], dx

; 1684 : 			this->m_SpecialNum++;

  03315	8b 45 fc	 mov	 eax, DWORD PTR _this$[ebp]
  03318	8a 48 30	 mov	 cl, BYTE PTR [eax+48]
  0331b	80 c1 01	 add	 cl, 1
  0331e	8b 55 fc	 mov	 edx, DWORD PTR _this$[ebp]
  03321	88 4a 30	 mov	 BYTE PTR [edx+48], cl
$LN7@Convert:

; 1685 : 		}
; 1686 : 		if ( (this->m_NewOption &8) )

  03324	8b 45 fc	 mov	 eax, DWORD PTR _this$[ebp]
  03327	0f b6 88 97 00
	00 00		 movzx	 ecx, BYTE PTR [eax+151]
  0332e	83 e1 08	 and	 ecx, 8
  03331	74 23		 je	 SHORT $LN6@Convert

; 1687 : 		{
; 1688 : 			this->m_Special[this->m_SpecialNum] = 0x6F;

  03333	8b 45 fc	 mov	 eax, DWORD PTR _this$[ebp]
  03336	0f b6 48 30	 movzx	 ecx, BYTE PTR [eax+48]
  0333a	ba 6f 00 00 00	 mov	 edx, 111		; 0000006fH
  0333f	8b 45 fc	 mov	 eax, DWORD PTR _this$[ebp]
  03342	66 89 54 48 32	 mov	 WORD PTR [eax+ecx*2+50], dx

; 1689 : 			this->m_SpecialNum++;

  03347	8b 45 fc	 mov	 eax, DWORD PTR _this$[ebp]
  0334a	8a 48 30	 mov	 cl, BYTE PTR [eax+48]
  0334d	80 c1 01	 add	 cl, 1
  03350	8b 55 fc	 mov	 edx, DWORD PTR _this$[ebp]
  03353	88 4a 30	 mov	 BYTE PTR [edx+48], cl
$LN6@Convert:

; 1690 : 		}
; 1691 : 	}
; 1692 : #endif
; 1693 : 	if ( SOptionStatValue != 0 )

  03356	83 7d e8 00	 cmp	 DWORD PTR _SOptionStatValue$[ebp], 0
  0335a	74 45		 je	 SHORT $LN4@Convert

; 1694 : 	{
; 1695 : 		if (p->SetAttr != 0 )

  0335c	8b 45 f0	 mov	 eax, DWORD PTR _p$[ebp]
  0335f	0f b6 48 61	 movzx	 ecx, BYTE PTR [eax+97]
  03363	85 c9		 test	 ecx, ecx
  03365	74 3a		 je	 SHORT $LN4@Convert

; 1696 : 		{
; 1697 : 			this->m_Special[this->m_SpecialNum] = p->SetAttr + 0xC3;

  03367	8b 45 f0	 mov	 eax, DWORD PTR _p$[ebp]
  0336a	0f b6 48 61	 movzx	 ecx, BYTE PTR [eax+97]
  0336e	81 c1 c3 00 00
	00		 add	 ecx, 195		; 000000c3H
  03374	8b 55 fc	 mov	 edx, DWORD PTR _this$[ebp]
  03377	0f b6 42 30	 movzx	 eax, BYTE PTR [edx+48]
  0337b	8b 55 fc	 mov	 edx, DWORD PTR _this$[ebp]
  0337e	66 89 4c 42 32	 mov	 WORD PTR [edx+eax*2+50], cx

; 1698 : 			this->m_SetAddStat = SOptionStatValue * 5;

  03383	8b 45 e8	 mov	 eax, DWORD PTR _SOptionStatValue$[ebp]
  03386	6b c0 05	 imul	 eax, 5
  03389	8b 4d fc	 mov	 ecx, DWORD PTR _this$[ebp]
  0338c	88 81 af 00 00
	00		 mov	 BYTE PTR [ecx+175], al

; 1699 : 			this->m_SpecialNum++;

  03392	8b 45 fc	 mov	 eax, DWORD PTR _this$[ebp]
  03395	8a 48 30	 mov	 cl, BYTE PTR [eax+48]
  03398	80 c1 01	 add	 cl, 1
  0339b	8b 55 fc	 mov	 edx, DWORD PTR _this$[ebp]
  0339e	88 4a 30	 mov	 BYTE PTR [edx+48], cl
$LN4@Convert:

; 1700 : 		}
; 1701 : 	}
; 1702 : 
; 1703 : 	this->m_Part = p->ItemSlot;

  033a1	8b 45 fc	 mov	 eax, DWORD PTR _this$[ebp]
  033a4	8b 4d f0	 mov	 ecx, DWORD PTR _p$[ebp]
  033a7	8a 51 64	 mov	 dl, BYTE PTR [ecx+100]
  033aa	88 50 0a	 mov	 BYTE PTR [eax+10], dl

; 1704 : 	this->Value();

  033ad	8b 4d fc	 mov	 ecx, DWORD PTR _this$[ebp]
  033b0	e8 00 00 00 00	 call	 ?Value@CItem@@QAEXXZ	; CItem::Value

; 1705 : 
; 1706 : 	if ( this->m_Type != ITEMGET(4,7) && this->m_Type != ITEMGET(4,15) ) // arrow and bolts

  033b5	8b 45 fc	 mov	 eax, DWORD PTR _this$[ebp]
  033b8	0f bf 48 06	 movsx	 ecx, WORD PTR [eax+6]
  033bc	81 f9 07 08 00
	00		 cmp	 ecx, 2055		; 00000807H
  033c2	0f 84 f4 00 00
	00		 je	 $LN2@Convert
  033c8	8b 45 fc	 mov	 eax, DWORD PTR _this$[ebp]
  033cb	0f bf 48 06	 movsx	 ecx, WORD PTR [eax+6]
  033cf	81 f9 0f 08 00
	00		 cmp	 ecx, 2063		; 0000080fH
  033d5	0f 84 e1 00 00
	00		 je	 $LN2@Convert

; 1707 : 	{
; 1708 : 		this->m_DamageMinOrigin = this->m_DamageMin;

  033db	8b 45 fc	 mov	 eax, DWORD PTR _this$[ebp]
  033de	8b 4d fc	 mov	 ecx, DWORD PTR _this$[ebp]
  033e1	66 8b 51 10	 mov	 dx, WORD PTR [ecx+16]
  033e5	66 89 50 1c	 mov	 WORD PTR [eax+28], dx

; 1709 : 		this->m_DefenseOrigin = this->m_Defense;

  033e9	8b 45 fc	 mov	 eax, DWORD PTR _this$[ebp]
  033ec	8b 4d fc	 mov	 ecx, DWORD PTR _this$[ebp]
  033ef	66 8b 51 16	 mov	 dx, WORD PTR [ecx+22]
  033f3	66 89 50 1e	 mov	 WORD PTR [eax+30], dx

; 1710 : 		this->m_DamageMin -= (int)(this->m_DamageMin * this->m_CurrentDurabilityState);

  033f7	8b 45 fc	 mov	 eax, DWORD PTR _this$[ebp]
  033fa	0f b7 48 10	 movzx	 ecx, WORD PTR [eax+16]
  033fe	89 4d 8c	 mov	 DWORD PTR tv4452[ebp], ecx
  03401	db 45 8c	 fild	 DWORD PTR tv4452[ebp]
  03404	8b 55 fc	 mov	 edx, DWORD PTR _this$[ebp]
  03407	d8 8a a8 00 00
	00		 fmul	 DWORD PTR [edx+168]
  0340d	e8 00 00 00 00	 call	 __ftol2_sse
  03412	8b 4d fc	 mov	 ecx, DWORD PTR _this$[ebp]
  03415	0f b7 51 10	 movzx	 edx, WORD PTR [ecx+16]
  03419	2b d0		 sub	 edx, eax
  0341b	8b 45 fc	 mov	 eax, DWORD PTR _this$[ebp]
  0341e	66 89 50 10	 mov	 WORD PTR [eax+16], dx

; 1711 : 		this->m_DamageMax -= (int)(this->m_DamageMax * this->m_CurrentDurabilityState);

  03422	8b 45 fc	 mov	 eax, DWORD PTR _this$[ebp]
  03425	0f b7 48 12	 movzx	 ecx, WORD PTR [eax+18]
  03429	89 4d 8c	 mov	 DWORD PTR tv4461[ebp], ecx
  0342c	db 45 8c	 fild	 DWORD PTR tv4461[ebp]
  0342f	8b 55 fc	 mov	 edx, DWORD PTR _this$[ebp]
  03432	d8 8a a8 00 00
	00		 fmul	 DWORD PTR [edx+168]
  03438	e8 00 00 00 00	 call	 __ftol2_sse
  0343d	8b 4d fc	 mov	 ecx, DWORD PTR _this$[ebp]
  03440	0f b7 51 12	 movzx	 edx, WORD PTR [ecx+18]
  03444	2b d0		 sub	 edx, eax
  03446	8b 45 fc	 mov	 eax, DWORD PTR _this$[ebp]
  03449	66 89 50 12	 mov	 WORD PTR [eax+18], dx

; 1712 : 		this->m_Defense -= (int)(this->m_Defense * this->m_CurrentDurabilityState);

  0344d	8b 45 fc	 mov	 eax, DWORD PTR _this$[ebp]
  03450	0f b7 48 16	 movzx	 ecx, WORD PTR [eax+22]
  03454	89 4d 8c	 mov	 DWORD PTR tv4470[ebp], ecx
  03457	db 45 8c	 fild	 DWORD PTR tv4470[ebp]
  0345a	8b 55 fc	 mov	 edx, DWORD PTR _this$[ebp]
  0345d	d8 8a a8 00 00
	00		 fmul	 DWORD PTR [edx+168]
  03463	e8 00 00 00 00	 call	 __ftol2_sse
  03468	8b 4d fc	 mov	 ecx, DWORD PTR _this$[ebp]
  0346b	0f b7 51 16	 movzx	 edx, WORD PTR [ecx+22]
  0346f	2b d0		 sub	 edx, eax
  03471	8b 45 fc	 mov	 eax, DWORD PTR _this$[ebp]
  03474	66 89 50 16	 mov	 WORD PTR [eax+22], dx

; 1713 : 		this->m_SuccessfulBlocking -= (int)(this->m_SuccessfulBlocking * this->m_CurrentDurabilityState);

  03478	8b 45 fc	 mov	 eax, DWORD PTR _this$[ebp]
  0347b	0f b6 48 14	 movzx	 ecx, BYTE PTR [eax+20]
  0347f	89 4d 8c	 mov	 DWORD PTR tv4479[ebp], ecx
  03482	db 45 8c	 fild	 DWORD PTR tv4479[ebp]
  03485	8b 55 fc	 mov	 edx, DWORD PTR _this$[ebp]
  03488	d8 8a a8 00 00
	00		 fmul	 DWORD PTR [edx+168]
  0348e	e8 00 00 00 00	 call	 __ftol2_sse
  03493	8b 4d fc	 mov	 ecx, DWORD PTR _this$[ebp]
  03496	0f b6 51 14	 movzx	 edx, BYTE PTR [ecx+20]
  0349a	2b d0		 sub	 edx, eax
  0349c	8b 45 fc	 mov	 eax, DWORD PTR _this$[ebp]
  0349f	88 50 14	 mov	 BYTE PTR [eax+20], dl

; 1714 : 
; 1715 : 		if ( this->m_Durability < 1.0f )

  034a2	8b 45 fc	 mov	 eax, DWORD PTR _this$[ebp]
  034a5	d9 40 24	 fld	 DWORD PTR [eax+36]
  034a8	dc 1d 00 00 00
	00		 fcomp	 QWORD PTR __real@3ff0000000000000
  034ae	df e0		 fnstsw	 ax
  034b0	f6 c4 05	 test	 ah, 5
  034b3	7a 07		 jp	 SHORT $LN2@Convert

; 1716 : 		{
; 1717 : 			this->m_AttackSpeed = 0;

  034b5	8b 45 fc	 mov	 eax, DWORD PTR _this$[ebp]
  034b8	c6 40 0d 00	 mov	 BYTE PTR [eax+13], 0
$LN2@Convert:

; 1718 : 		}
; 1719 : 	}
; 1720 : 	
; 1721 : 	if ( this->m_Durability == 0.0f )

  034bc	8b 45 fc	 mov	 eax, DWORD PTR _this$[ebp]
  034bf	d9 40 24	 fld	 DWORD PTR [eax+36]
  034c2	d9 ee		 fldz
  034c4	da e9		 fucompp
  034c6	df e0		 fnstsw	 ax
  034c8	f6 c4 44	 test	 ah, 68			; 00000044H
  034cb	7a 13		 jp	 SHORT $LN1@Convert

; 1722 : 	{
; 1723 : 		memset(this->m_Resistance , 0, sizeof(this->m_Resistance));

  034cd	6a 07		 push	 7
  034cf	6a 00		 push	 0
  034d1	8b 45 fc	 mov	 eax, DWORD PTR _this$[ebp]
  034d4	83 c0 5f	 add	 eax, 95			; 0000005fH
  034d7	50		 push	 eax
  034d8	e8 00 00 00 00	 call	 _memset
  034dd	83 c4 0c	 add	 esp, 12			; 0000000cH
$LN1@Convert:

; 1724 : 	}
; 1725 : }

  034e0	5f		 pop	 edi
  034e1	5e		 pop	 esi
  034e2	5b		 pop	 ebx
  034e3	8b e5		 mov	 esp, ebp
  034e5	5d		 pop	 ebp
  034e6	c2 2c 00	 ret	 44			; 0000002cH
?Convert@CItem@@QAEXHEEEEEEPAEEEE@Z ENDP		; CItem::Convert
_TEXT	ENDS
PUBLIC	?GetLevel@CItem@@QAEHXZ				; CItem::GetLevel
; Function compile flags: /Odtp /ZI
_TEXT	SEGMENT
_this$ = -4						; size = 4
?GetLevel@CItem@@QAEHXZ PROC				; CItem::GetLevel
; _this$ = ecx

; 1728 : {

  034f0	55		 push	 ebp
  034f1	8b ec		 mov	 ebp, esp
  034f3	83 ec 44	 sub	 esp, 68			; 00000044H
  034f6	53		 push	 ebx
  034f7	56		 push	 esi
  034f8	57		 push	 edi
  034f9	89 4d fc	 mov	 DWORD PTR _this$[ebp], ecx

; 1729 : 	return ItemAttribute[this->m_Type].Level;

  034fc	8b 45 fc	 mov	 eax, DWORD PTR _this$[ebp]
  034ff	0f bf 48 06	 movsx	 ecx, WORD PTR [eax+6]
  03503	6b c9 70	 imul	 ecx, 112		; 00000070H
  03506	0f b6 81 22 00
	00 00		 movzx	 eax, BYTE PTR ?ItemAttribute@@3PAUITEM_ATTRIBUTE@@A[ecx+34]

; 1730 : }

  0350d	5f		 pop	 edi
  0350e	5e		 pop	 esi
  0350f	5b		 pop	 ebx
  03510	8b e5		 mov	 esp, ebp
  03512	5d		 pop	 ebp
  03513	c3		 ret	 0
?GetLevel@CItem@@QAEHXZ ENDP				; CItem::GetLevel
_TEXT	ENDS
PUBLIC	?GetNumber@CItem@@QAEKXZ			; CItem::GetNumber
; Function compile flags: /Odtp /ZI
_TEXT	SEGMENT
_this$ = -4						; size = 4
?GetNumber@CItem@@QAEKXZ PROC				; CItem::GetNumber
; _this$ = ecx

; 1733 : {

  03520	55		 push	 ebp
  03521	8b ec		 mov	 ebp, esp
  03523	83 ec 44	 sub	 esp, 68			; 00000044H
  03526	53		 push	 ebx
  03527	56		 push	 esi
  03528	57		 push	 edi
  03529	89 4d fc	 mov	 DWORD PTR _this$[ebp], ecx

; 1734 : 	return this->m_Number;

  0352c	8b 45 fc	 mov	 eax, DWORD PTR _this$[ebp]
  0352f	8b 00		 mov	 eax, DWORD PTR [eax]

; 1735 : }

  03531	5f		 pop	 edi
  03532	5e		 pop	 esi
  03533	5b		 pop	 ebx
  03534	8b e5		 mov	 esp, ebp
  03536	5d		 pop	 ebp
  03537	c3		 ret	 0
?GetNumber@CItem@@QAEKXZ ENDP				; CItem::GetNumber
_TEXT	ENDS
PUBLIC	__real@3fe3333333333333
PUBLIC	__real@4030000000000000
PUBLIC	__real@4059000000000000
PUBLIC	__real@4039000000000000
PUBLIC	__real@404c000000000000
PUBLIC	__real@403c000000000000
PUBLIC	__real@402c000000000000
PUBLIC	__real@4018000000000000
PUBLIC	__real@3ff8000000000000
PUBLIC	?pow@@YAMMH@Z					; pow
PUBLIC	__real@40000000
PUBLIC	__real@4049000000000000
PUBLIC	__real@4008000000000000
PUBLIC	__real@40c3880000000000
EXTRN	?GetValue@CSocketOption@@QAEHE@Z:PROC		; CSocketOption::GetValue
EXTRN	?Is380OptionItem@CItemSystemFor380@@QAEHPBVCItem@@@Z:PROC ; CItemSystemFor380::Is380OptionItem
EXTRN	?g_kItemSystemFor380@@3VCItemSystemFor380@@A:BYTE ; g_kItemSystemFor380
EXTRN	_sqrt:PROC
EXTRN	__alldiv:PROC
EXTRN	__allmul:PROC
EXTRN	__ftol2:PROC
;	COMDAT __real@3fe3333333333333
CONST	SEGMENT
__real@3fe3333333333333 DQ 03fe3333333333333r	; 0.6
CONST	ENDS
;	COMDAT __real@4030000000000000
CONST	SEGMENT
__real@4030000000000000 DQ 04030000000000000r	; 16
CONST	ENDS
;	COMDAT __real@4059000000000000
CONST	SEGMENT
__real@4059000000000000 DQ 04059000000000000r	; 100
CONST	ENDS
;	COMDAT __real@4039000000000000
CONST	SEGMENT
__real@4039000000000000 DQ 04039000000000000r	; 25
CONST	ENDS
;	COMDAT __real@404c000000000000
CONST	SEGMENT
__real@404c000000000000 DQ 0404c000000000000r	; 56
CONST	ENDS
;	COMDAT __real@403c000000000000
CONST	SEGMENT
__real@403c000000000000 DQ 0403c000000000000r	; 28
CONST	ENDS
;	COMDAT __real@402c000000000000
CONST	SEGMENT
__real@402c000000000000 DQ 0402c000000000000r	; 14
CONST	ENDS
;	COMDAT __real@4018000000000000
CONST	SEGMENT
__real@4018000000000000 DQ 04018000000000000r	; 6
CONST	ENDS
;	COMDAT __real@3ff8000000000000
CONST	SEGMENT
__real@3ff8000000000000 DQ 03ff8000000000000r	; 1.5
CONST	ENDS
;	COMDAT __real@40000000
CONST	SEGMENT
__real@40000000 DD 040000000r			; 2
CONST	ENDS
;	COMDAT __real@4049000000000000
CONST	SEGMENT
__real@4049000000000000 DQ 04049000000000000r	; 50
CONST	ENDS
;	COMDAT __real@4008000000000000
CONST	SEGMENT
__real@4008000000000000 DQ 04008000000000000r	; 3
CONST	ENDS
;	COMDAT __real@40c3880000000000
CONST	SEGMENT
__real@40c3880000000000 DQ 040c3880000000000r	; 10000
; Function compile flags: /Odtp /ZI
CONST	ENDS
_TEXT	SEGMENT
tv1962 = -164						; size = 8
tv1960 = -156						; size = 4
tv2021 = -152						; size = 8
tv1473 = -152						; size = 8
tv1452 = -152						; size = 8
tv1957 = -150						; size = 2
tv1952 = -148						; size = 4
tv1168 = -148						; size = 4
tv1148 = -148						; size = 4
tv1115 = -148						; size = 4
tv842 = -148						; size = 4
tv813 = -148						; size = 4
tv805 = -148						; size = 4
tv710 = -148						; size = 4
tv682 = -148						; size = 4
tv571 = -148						; size = 4
tv546 = -148						; size = 4
tv476 = -148						; size = 4
tv469 = -148						; size = 4
tv458 = -148						; size = 4
tv447 = -148						; size = 4
tv413 = -148						; size = 4
tv402 = -148						; size = 4
tv394 = -148						; size = 4
tv386 = -148						; size = 4
tv160 = -148						; size = 4
_lc16$231357 = -80					; size = 4
_lc15$231356 = -76					; size = 4
_loc18$231341 = -72					; size = 4
_loc17$231340 = -68					; size = 4
_loc16$231339 = -64					; size = 4
_loc15$231338 = -60					; size = 4
_g$231294 = -56						; size = 4
_u$231253 = -52						; size = 4
_k$231079 = -48						; size = 4
_lc11$230999 = -44					; size = 4
_lc10$230989 = -40					; size = 4
_i$230978 = -36						; size = 4
_excellent$ = -32					; size = 4
_Level2$ = -28						; size = 4
_Type$ = -24						; size = 4
_Gold$ = -20						; size = 8
_Level$ = -12						; size = 4
_p$ = -8						; size = 4
_this$ = -4						; size = 4
?Value@CItem@@QAEXXZ PROC				; CItem::Value
; _this$ = ecx

; 1738 : {

  03540	55		 push	 ebp
  03541	8b ec		 mov	 ebp, esp
  03543	81 ec a4 00 00
	00		 sub	 esp, 164		; 000000a4H
  03549	53		 push	 ebx
  0354a	56		 push	 esi
  0354b	57		 push	 edi
  0354c	89 4d fc	 mov	 DWORD PTR _this$[ebp], ecx

; 1739 : 	if ( this->m_Type == -1 )

  0354f	8b 45 fc	 mov	 eax, DWORD PTR _this$[ebp]
  03552	0f bf 48 06	 movsx	 ecx, WORD PTR [eax+6]
  03556	83 f9 ff	 cmp	 ecx, -1
  03559	75 05		 jne	 SHORT $LN310@Value

; 1740 : 	{
; 1741 : 		return;

  0355b	e9 de 1c 00 00	 jmp	 $LN311@Value
$LN310@Value:

; 1742 : 	}
; 1743 : 
; 1744 : 	LPITEM_ATTRIBUTE p = &ItemAttribute[this->m_Type];

  03560	8b 45 fc	 mov	 eax, DWORD PTR _this$[ebp]
  03563	0f bf 48 06	 movsx	 ecx, WORD PTR [eax+6]
  03567	6b c9 70	 imul	 ecx, 112		; 00000070H
  0356a	81 c1 00 00 00
	00		 add	 ecx, OFFSET ?ItemAttribute@@3PAUITEM_ATTRIBUTE@@A ; ItemAttribute
  03570	89 4d f8	 mov	 DWORD PTR _p$[ebp], ecx

; 1745 : 
; 1746 : 	if ( p->BuyMoney != 0 )

  03573	8b 45 f8	 mov	 eax, DWORD PTR _p$[ebp]
  03576	83 78 50 00	 cmp	 DWORD PTR [eax+80], 0
  0357a	0f 84 c0 00 00
	00		 je	 $LN309@Value

; 1747 : 	{
; 1748 : 		this->m_SellMoney = p->BuyMoney;

  03580	8b 45 fc	 mov	 eax, DWORD PTR _this$[ebp]
  03583	8b 4d f8	 mov	 ecx, DWORD PTR _p$[ebp]
  03586	8b 51 50	 mov	 edx, DWORD PTR [ecx+80]
  03589	89 50 6c	 mov	 DWORD PTR [eax+108], edx

; 1749 : 		this->m_BuyMoney = p->BuyMoney;

  0358c	8b 45 fc	 mov	 eax, DWORD PTR _this$[ebp]
  0358f	8b 4d f8	 mov	 ecx, DWORD PTR _p$[ebp]
  03592	8b 51 50	 mov	 edx, DWORD PTR [ecx+80]
  03595	89 50 70	 mov	 DWORD PTR [eax+112], edx

; 1750 : 		this->m_SellMoney /= 3;

  03598	8b 45 fc	 mov	 eax, DWORD PTR _this$[ebp]
  0359b	8b 40 6c	 mov	 eax, DWORD PTR [eax+108]
  0359e	33 d2		 xor	 edx, edx
  035a0	b9 03 00 00 00	 mov	 ecx, 3
  035a5	f7 f1		 div	 ecx
  035a7	8b 55 fc	 mov	 edx, DWORD PTR _this$[ebp]
  035aa	89 42 6c	 mov	 DWORD PTR [edx+108], eax

; 1751 : 		
; 1752 : 		if ( this->m_SellMoney >= 1000 )

  035ad	8b 45 fc	 mov	 eax, DWORD PTR _this$[ebp]
  035b0	81 78 6c e8 03
	00 00		 cmp	 DWORD PTR [eax+108], 1000 ; 000003e8H
  035b7	72 1a		 jb	 SHORT $LN308@Value

; 1753 : 		{
; 1754 : 			this->m_SellMoney = this->m_SellMoney/100*100;

  035b9	8b 45 fc	 mov	 eax, DWORD PTR _this$[ebp]
  035bc	8b 40 6c	 mov	 eax, DWORD PTR [eax+108]
  035bf	33 d2		 xor	 edx, edx
  035c1	b9 64 00 00 00	 mov	 ecx, 100		; 00000064H
  035c6	f7 f1		 div	 ecx
  035c8	6b c0 64	 imul	 eax, 100		; 00000064H
  035cb	8b 55 fc	 mov	 edx, DWORD PTR _this$[ebp]
  035ce	89 42 6c	 mov	 DWORD PTR [edx+108], eax
  035d1	eb 21		 jmp	 SHORT $LN306@Value
$LN308@Value:

; 1755 : 		}
; 1756 : 		else if ( this->m_SellMoney >= 100 )

  035d3	8b 45 fc	 mov	 eax, DWORD PTR _this$[ebp]
  035d6	83 78 6c 64	 cmp	 DWORD PTR [eax+108], 100 ; 00000064H
  035da	72 18		 jb	 SHORT $LN306@Value

; 1757 : 		{
; 1758 : 			this->m_SellMoney = this->m_SellMoney/10*10;

  035dc	8b 45 fc	 mov	 eax, DWORD PTR _this$[ebp]
  035df	8b 40 6c	 mov	 eax, DWORD PTR [eax+108]
  035e2	33 d2		 xor	 edx, edx
  035e4	b9 0a 00 00 00	 mov	 ecx, 10			; 0000000aH
  035e9	f7 f1		 div	 ecx
  035eb	6b c0 0a	 imul	 eax, 10			; 0000000aH
  035ee	8b 55 fc	 mov	 edx, DWORD PTR _this$[ebp]
  035f1	89 42 6c	 mov	 DWORD PTR [edx+108], eax
$LN306@Value:

; 1759 : 		}
; 1760 : 
; 1761 : 		if ( this->m_BuyMoney >= 1000 )

  035f4	8b 45 fc	 mov	 eax, DWORD PTR _this$[ebp]
  035f7	81 78 70 e8 03
	00 00		 cmp	 DWORD PTR [eax+112], 1000 ; 000003e8H
  035fe	72 1a		 jb	 SHORT $LN305@Value

; 1762 : 		{
; 1763 : 			this->m_BuyMoney = this->m_BuyMoney/100*100;

  03600	8b 45 fc	 mov	 eax, DWORD PTR _this$[ebp]
  03603	8b 40 70	 mov	 eax, DWORD PTR [eax+112]
  03606	33 d2		 xor	 edx, edx
  03608	b9 64 00 00 00	 mov	 ecx, 100		; 00000064H
  0360d	f7 f1		 div	 ecx
  0360f	6b c0 64	 imul	 eax, 100		; 00000064H
  03612	8b 55 fc	 mov	 edx, DWORD PTR _this$[ebp]
  03615	89 42 70	 mov	 DWORD PTR [edx+112], eax
  03618	eb 21		 jmp	 SHORT $LN303@Value
$LN305@Value:

; 1764 : 		}
; 1765 : 		else if ( this->m_BuyMoney >= 100 )

  0361a	8b 45 fc	 mov	 eax, DWORD PTR _this$[ebp]
  0361d	83 78 70 64	 cmp	 DWORD PTR [eax+112], 100 ; 00000064H
  03621	72 18		 jb	 SHORT $LN303@Value

; 1766 : 		{
; 1767 : 			this->m_BuyMoney = this->m_BuyMoney/10*10;

  03623	8b 45 fc	 mov	 eax, DWORD PTR _this$[ebp]
  03626	8b 40 70	 mov	 eax, DWORD PTR [eax+112]
  03629	33 d2		 xor	 edx, edx
  0362b	b9 0a 00 00 00	 mov	 ecx, 10			; 0000000aH
  03630	f7 f1		 div	 ecx
  03632	6b c0 0a	 imul	 eax, 10			; 0000000aH
  03635	8b 55 fc	 mov	 edx, DWORD PTR _this$[ebp]
  03638	89 42 70	 mov	 DWORD PTR [edx+112], eax
$LN303@Value:

; 1768 : 		}
; 1769 : 
; 1770 : 		return;

  0363b	e9 fe 1b 00 00	 jmp	 $LN311@Value
$LN309@Value:

; 1771 : 	}
; 1772 : 
; 1773 : 	int Level = (int)(sqrt((double)this->m_Level));

  03640	8b 45 fc	 mov	 eax, DWORD PTR _this$[ebp]
  03643	0f bf 48 08	 movsx	 ecx, WORD PTR [eax+8]
  03647	89 8d 6c ff ff
	ff		 mov	 DWORD PTR tv1115[ebp], ecx
  0364d	db 85 6c ff ff
	ff		 fild	 DWORD PTR tv1115[ebp]
  03653	83 ec 08	 sub	 esp, 8
  03656	dd 1c 24	 fstp	 QWORD PTR [esp]
  03659	e8 00 00 00 00	 call	 _sqrt
  0365e	83 c4 08	 add	 esp, 8
  03661	e8 00 00 00 00	 call	 __ftol2_sse
  03666	89 45 f4	 mov	 DWORD PTR _Level$[ebp], eax

; 1774 : 	__int64 Gold = 0;

  03669	c7 45 ec 00 00
	00 00		 mov	 DWORD PTR _Gold$[ebp], 0
  03670	c7 45 f0 00 00
	00 00		 mov	 DWORD PTR _Gold$[ebp+4], 0

; 1775 : 	int Type = (this->m_Type)/MAX_SUBTYPE_ITEMS;

  03677	8b 45 fc	 mov	 eax, DWORD PTR _this$[ebp]
  0367a	0f bf 40 06	 movsx	 eax, WORD PTR [eax+6]
  0367e	99		 cdq
  0367f	81 e2 ff 01 00
	00		 and	 edx, 511		; 000001ffH
  03685	03 c2		 add	 eax, edx
  03687	c1 f8 09	 sar	 eax, 9
  0368a	89 45 e8	 mov	 DWORD PTR _Type$[ebp], eax

; 1776 : 	int Level2 = p->Level + this->m_Level*3;

  0368d	8b 45 f8	 mov	 eax, DWORD PTR _p$[ebp]
  03690	0f b6 48 22	 movzx	 ecx, BYTE PTR [eax+34]
  03694	8b 55 fc	 mov	 edx, DWORD PTR _this$[ebp]
  03697	0f bf 42 08	 movsx	 eax, WORD PTR [edx+8]
  0369b	6b c0 03	 imul	 eax, 3
  0369e	03 c8		 add	 ecx, eax
  036a0	89 4d e4	 mov	 DWORD PTR _Level2$[ebp], ecx

; 1777 : 	int excellent = 0;

  036a3	c7 45 e0 00 00
	00 00		 mov	 DWORD PTR _excellent$[ebp], 0

; 1778 : 
; 1779 : 	for (int i=0;i<this->m_SpecialNum;i++)

  036aa	c7 45 dc 00 00
	00 00		 mov	 DWORD PTR _i$230978[ebp], 0
  036b1	eb 09		 jmp	 SHORT $LN302@Value
$LN301@Value:
  036b3	8b 45 dc	 mov	 eax, DWORD PTR _i$230978[ebp]
  036b6	83 c0 01	 add	 eax, 1
  036b9	89 45 dc	 mov	 DWORD PTR _i$230978[ebp], eax
$LN302@Value:
  036bc	8b 45 fc	 mov	 eax, DWORD PTR _this$[ebp]
  036bf	0f b6 48 30	 movzx	 ecx, BYTE PTR [eax+48]
  036c3	39 4d dc	 cmp	 DWORD PTR _i$230978[ebp], ecx
  036c6	7d 2e		 jge	 SHORT $LN300@Value

; 1780 : 	{
; 1781 : 		switch ( this->m_Special[i] )

  036c8	8b 45 dc	 mov	 eax, DWORD PTR _i$230978[ebp]
  036cb	8b 4d fc	 mov	 ecx, DWORD PTR _this$[ebp]
  036ce	0f b7 54 41 32	 movzx	 edx, WORD PTR [ecx+eax*2+50]
  036d3	89 95 6c ff ff
	ff		 mov	 DWORD PTR tv160[ebp], edx
  036d9	83 bd 6c ff ff
	ff 56		 cmp	 DWORD PTR tv160[ebp], 86 ; 00000056H
  036e0	7c 12		 jl	 SHORT $LN298@Value
  036e2	83 bd 6c ff ff
	ff 63		 cmp	 DWORD PTR tv160[ebp], 99 ; 00000063H
  036e9	7e 02		 jle	 SHORT $LN297@Value
  036eb	eb 07		 jmp	 SHORT $LN298@Value
$LN297@Value:

; 1782 : 		{
; 1783 : 			case 0x56:	// 86.
; 1784 : 			case 0x57:
; 1785 : 			case 0x58:
; 1786 : 			case 0x59:
; 1787 : 			case 0x5A:
; 1788 : 			case 0x5B:
; 1789 : 			case 0x5C:
; 1790 : 			case 0x5D:
; 1791 : 			case 0x5E:
; 1792 : 			case 0x5F:
; 1793 : 			case 0x60:
; 1794 : 			case 0x61:
; 1795 : 			case 0x62:
; 1796 : 			case 0x63:	// 99.
; 1797 : 				excellent = 1;

  036ed	c7 45 e0 01 00
	00 00		 mov	 DWORD PTR _excellent$[ebp], 1
$LN298@Value:

; 1798 : 		}
; 1799 : 	}

  036f4	eb bd		 jmp	 SHORT $LN301@Value
$LN300@Value:

; 1800 : 
; 1801 : 	if ( excellent != 0 )

  036f6	83 7d e0 00	 cmp	 DWORD PTR _excellent$[ebp], 0
  036fa	74 09		 je	 SHORT $LN296@Value

; 1802 : 	{
; 1803 : 		Level2 += 25;

  036fc	8b 45 e4	 mov	 eax, DWORD PTR _Level2$[ebp]
  036ff	83 c0 19	 add	 eax, 25			; 00000019H
  03702	89 45 e4	 mov	 DWORD PTR _Level2$[ebp], eax
$LN296@Value:

; 1804 : 	}
; 1805 : 
; 1806 : 	if ( this->m_Type == ITEMGET(4,15) ) // Arrow

  03705	8b 45 fc	 mov	 eax, DWORD PTR _this$[ebp]
  03708	0f bf 48 06	 movsx	 ecx, WORD PTR [eax+6]
  0370c	81 f9 0f 08 00
	00		 cmp	 ecx, 2063		; 0000080fH
  03712	0f 85 83 00 00
	00		 jne	 $LN295@Value

; 1807 : 	{
; 1808 : 		int lc10 = 70;

  03718	c7 45 d8 46 00
	00 00		 mov	 DWORD PTR _lc10$230989[ebp], 70 ; 00000046H

; 1809 : 
; 1810 : 		if ( this->m_Level == 1 )

  0371f	8b 45 fc	 mov	 eax, DWORD PTR _this$[ebp]
  03722	0f bf 48 08	 movsx	 ecx, WORD PTR [eax+8]
  03726	83 f9 01	 cmp	 ecx, 1
  03729	75 09		 jne	 SHORT $LN294@Value

; 1811 : 		{
; 1812 : 			lc10 = 1200;

  0372b	c7 45 d8 b0 04
	00 00		 mov	 DWORD PTR _lc10$230989[ebp], 1200 ; 000004b0H
  03732	eb 28		 jmp	 SHORT $LN290@Value
$LN294@Value:

; 1813 : 		}
; 1814 : 		else if ( this->m_Level == 2 )

  03734	8b 45 fc	 mov	 eax, DWORD PTR _this$[ebp]
  03737	0f bf 48 08	 movsx	 ecx, WORD PTR [eax+8]
  0373b	83 f9 02	 cmp	 ecx, 2
  0373e	75 09		 jne	 SHORT $LN292@Value

; 1815 : 		{
; 1816 : 			lc10 = 2000;

  03740	c7 45 d8 d0 07
	00 00		 mov	 DWORD PTR _lc10$230989[ebp], 2000 ; 000007d0H
  03747	eb 13		 jmp	 SHORT $LN290@Value
$LN292@Value:

; 1817 : 		}
; 1818 : 		else if ( this->m_Level == 3 ) //season 4 add-on

  03749	8b 45 fc	 mov	 eax, DWORD PTR _this$[ebp]
  0374c	0f bf 48 08	 movsx	 ecx, WORD PTR [eax+8]
  03750	83 f9 03	 cmp	 ecx, 3
  03753	75 07		 jne	 SHORT $LN290@Value

; 1819 : 		{
; 1820 : 			lc10 = 2800;

  03755	c7 45 d8 f0 0a
	00 00		 mov	 DWORD PTR _lc10$230989[ebp], 2800 ; 00000af0H
$LN290@Value:

; 1821 : 		}
; 1822 : 
; 1823 : 		if ( this->m_Durability > 0.0f )

  0375c	8b 45 fc	 mov	 eax, DWORD PTR _this$[ebp]
  0375f	d9 40 24	 fld	 DWORD PTR [eax+36]
  03762	dc 1d 00 00 00
	00		 fcomp	 QWORD PTR __real@0000000000000000
  03768	df e0		 fnstsw	 ax
  0376a	f6 c4 41	 test	 ah, 65			; 00000041H
  0376d	75 27		 jne	 SHORT $LN289@Value

; 1824 : 		{
; 1825 : 			Gold = (__int64)(lc10 * this->m_Durability/p->Durability);

  0376f	db 45 d8	 fild	 DWORD PTR _lc10$230989[ebp]
  03772	8b 45 fc	 mov	 eax, DWORD PTR _this$[ebp]
  03775	d8 48 24	 fmul	 DWORD PTR [eax+36]
  03778	8b 4d f8	 mov	 ecx, DWORD PTR _p$[ebp]
  0377b	0f b6 51 30	 movzx	 edx, BYTE PTR [ecx+48]
  0377f	89 95 6c ff ff
	ff		 mov	 DWORD PTR tv1148[ebp], edx
  03785	da b5 6c ff ff
	ff		 fidiv	 DWORD PTR tv1148[ebp]
  0378b	e8 00 00 00 00	 call	 __ftol2
  03790	89 45 ec	 mov	 DWORD PTR _Gold$[ebp], eax
  03793	89 55 f0	 mov	 DWORD PTR _Gold$[ebp+4], edx
$LN289@Value:

; 1826 : 		}
; 1827 : 	}

  03796	e9 23 16 00 00	 jmp	 $LN37@Value
$LN295@Value:

; 1828 : 	else if ( this->m_Type == ITEMGET(4,7) ) // Arrow of Crossbow

  0379b	8b 45 fc	 mov	 eax, DWORD PTR _this$[ebp]
  0379e	0f bf 48 06	 movsx	 ecx, WORD PTR [eax+6]
  037a2	81 f9 07 08 00
	00		 cmp	 ecx, 2055		; 00000807H
  037a8	0f 85 83 00 00
	00		 jne	 $LN287@Value

; 1829 : 	{
; 1830 : 		int lc11;
; 1831 : 
; 1832 : 		if ( this->m_Durability > 0.0f )

  037ae	8b 45 fc	 mov	 eax, DWORD PTR _this$[ebp]
  037b1	d9 40 24	 fld	 DWORD PTR [eax+36]
  037b4	dc 1d 00 00 00
	00		 fcomp	 QWORD PTR __real@0000000000000000
  037ba	df e0		 fnstsw	 ax
  037bc	f6 c4 41	 test	 ah, 65			; 00000041H
  037bf	75 6b		 jne	 SHORT $LN286@Value

; 1833 : 		{
; 1834 : 			lc11 = 100;

  037c1	c7 45 d4 64 00
	00 00		 mov	 DWORD PTR _lc11$230999[ebp], 100 ; 00000064H

; 1835 : 
; 1836 : 			if ( this->m_Level == 1 )

  037c8	8b 45 fc	 mov	 eax, DWORD PTR _this$[ebp]
  037cb	0f bf 48 08	 movsx	 ecx, WORD PTR [eax+8]
  037cf	83 f9 01	 cmp	 ecx, 1
  037d2	75 09		 jne	 SHORT $LN285@Value

; 1837 : 			{
; 1838 : 				lc11 = 1400;

  037d4	c7 45 d4 78 05
	00 00		 mov	 DWORD PTR _lc11$230999[ebp], 1400 ; 00000578H
  037db	eb 28		 jmp	 SHORT $LN281@Value
$LN285@Value:

; 1839 : 			}
; 1840 : 			else if ( this->m_Level == 2 )

  037dd	8b 45 fc	 mov	 eax, DWORD PTR _this$[ebp]
  037e0	0f bf 48 08	 movsx	 ecx, WORD PTR [eax+8]
  037e4	83 f9 02	 cmp	 ecx, 2
  037e7	75 09		 jne	 SHORT $LN283@Value

; 1841 : 			{
; 1842 : 				lc11 = 2200;

  037e9	c7 45 d4 98 08
	00 00		 mov	 DWORD PTR _lc11$230999[ebp], 2200 ; 00000898H
  037f0	eb 13		 jmp	 SHORT $LN281@Value
$LN283@Value:

; 1843 : 			}
; 1844 : 			else if ( this->m_Level == 3 ) //season4 add-on

  037f2	8b 45 fc	 mov	 eax, DWORD PTR _this$[ebp]
  037f5	0f bf 48 08	 movsx	 ecx, WORD PTR [eax+8]
  037f9	83 f9 03	 cmp	 ecx, 3
  037fc	75 07		 jne	 SHORT $LN281@Value

; 1845 : 			{
; 1846 : 				lc11 = 3000;

  037fe	c7 45 d4 b8 0b
	00 00		 mov	 DWORD PTR _lc11$230999[ebp], 3000 ; 00000bb8H
$LN281@Value:

; 1847 : 			}
; 1848 : 		
; 1849 : 			Gold = (__int64)(lc11 * this->m_Durability/p->Durability);

  03805	db 45 d4	 fild	 DWORD PTR _lc11$230999[ebp]
  03808	8b 45 fc	 mov	 eax, DWORD PTR _this$[ebp]
  0380b	d8 48 24	 fmul	 DWORD PTR [eax+36]
  0380e	8b 4d f8	 mov	 ecx, DWORD PTR _p$[ebp]
  03811	0f b6 51 30	 movzx	 edx, BYTE PTR [ecx+48]
  03815	89 95 6c ff ff
	ff		 mov	 DWORD PTR tv1168[ebp], edx
  0381b	da b5 6c ff ff
	ff		 fidiv	 DWORD PTR tv1168[ebp]
  03821	e8 00 00 00 00	 call	 __ftol2
  03826	89 45 ec	 mov	 DWORD PTR _Gold$[ebp], eax
  03829	89 55 f0	 mov	 DWORD PTR _Gold$[ebp+4], edx
$LN286@Value:

; 1850 : 		}
; 1851 : 	}

  0382c	e9 8d 15 00 00	 jmp	 $LN37@Value
$LN287@Value:

; 1852 : 	else if ( this->m_Type == ITEMGET(14,13) ) // Bless

  03831	8b 45 fc	 mov	 eax, DWORD PTR _this$[ebp]
  03834	0f bf 48 06	 movsx	 ecx, WORD PTR [eax+6]
  03838	81 f9 0d 1c 00
	00		 cmp	 ecx, 7181		; 00001c0dH
  0383e	75 13		 jne	 SHORT $LN279@Value

; 1853 : 	{
; 1854 : 		Gold = 9000000;

  03840	c7 45 ec 40 54
	89 00		 mov	 DWORD PTR _Gold$[ebp], 9000000 ; 00895440H
  03847	c7 45 f0 00 00
	00 00		 mov	 DWORD PTR _Gold$[ebp+4], 0
  0384e	e9 6b 15 00 00	 jmp	 $LN37@Value
$LN279@Value:

; 1855 : 	}
; 1856 : 	else if ( this->m_Type == ITEMGET(14,14) ) // soul

  03853	8b 45 fc	 mov	 eax, DWORD PTR _this$[ebp]
  03856	0f bf 48 06	 movsx	 ecx, WORD PTR [eax+6]
  0385a	81 f9 0e 1c 00
	00		 cmp	 ecx, 7182		; 00001c0eH
  03860	75 13		 jne	 SHORT $LN277@Value

; 1857 : 	{
; 1858 : 		Gold = 6000000;

  03862	c7 45 ec 80 8d
	5b 00		 mov	 DWORD PTR _Gold$[ebp], 6000000 ; 005b8d80H
  03869	c7 45 f0 00 00
	00 00		 mov	 DWORD PTR _Gold$[ebp+4], 0
  03870	e9 49 15 00 00	 jmp	 $LN37@Value
$LN277@Value:

; 1859 : 	}
; 1860 : 	else if ( this->m_Type == ITEMGET(12,15) ) // chaos

  03875	8b 45 fc	 mov	 eax, DWORD PTR _this$[ebp]
  03878	0f bf 48 06	 movsx	 ecx, WORD PTR [eax+6]
  0387c	81 f9 0f 18 00
	00		 cmp	 ecx, 6159		; 0000180fH
  03882	75 13		 jne	 SHORT $LN275@Value

; 1861 : 	{
; 1862 : 		Gold = 810000;

  03884	c7 45 ec 10 5c
	0c 00		 mov	 DWORD PTR _Gold$[ebp], 810000 ; 000c5c10H
  0388b	c7 45 f0 00 00
	00 00		 mov	 DWORD PTR _Gold$[ebp+4], 0
  03892	e9 27 15 00 00	 jmp	 $LN37@Value
$LN275@Value:

; 1863 : 	}
; 1864 : 	else if ( this->m_Type == ITEMGET(14,16) ) // Life

  03897	8b 45 fc	 mov	 eax, DWORD PTR _this$[ebp]
  0389a	0f bf 48 06	 movsx	 ecx, WORD PTR [eax+6]
  0389e	81 f9 10 1c 00
	00		 cmp	 ecx, 7184		; 00001c10H
  038a4	75 13		 jne	 SHORT $LN273@Value

; 1865 : 	{
; 1866 : 		Gold = 45000000;

  038a6	c7 45 ec 40 a5
	ae 02		 mov	 DWORD PTR _Gold$[ebp], 45000000 ; 02aea540H
  038ad	c7 45 f0 00 00
	00 00		 mov	 DWORD PTR _Gold$[ebp+4], 0
  038b4	e9 05 15 00 00	 jmp	 $LN37@Value
$LN273@Value:

; 1867 : 	}
; 1868 : 	else if ( this->m_Type == ITEMGET(14,22) ) // Creation

  038b9	8b 45 fc	 mov	 eax, DWORD PTR _this$[ebp]
  038bc	0f bf 48 06	 movsx	 ecx, WORD PTR [eax+6]
  038c0	81 f9 16 1c 00
	00		 cmp	 ecx, 7190		; 00001c16H
  038c6	75 13		 jne	 SHORT $LN271@Value

; 1869 : 	{
; 1870 : 		Gold = 36000000;

  038c8	c7 45 ec 00 51
	25 02		 mov	 DWORD PTR _Gold$[ebp], 36000000 ; 02255100H
  038cf	c7 45 f0 00 00
	00 00		 mov	 DWORD PTR _Gold$[ebp+4], 0
  038d6	e9 e3 14 00 00	 jmp	 $LN37@Value
$LN271@Value:

; 1871 : 	}
; 1872 : 	else if ( this->m_Type == ITEMGET(12,30) ) //Pack Of Bless

  038db	8b 45 fc	 mov	 eax, DWORD PTR _this$[ebp]
  038de	0f bf 48 06	 movsx	 ecx, WORD PTR [eax+6]
  038e2	81 f9 1e 18 00
	00		 cmp	 ecx, 6174		; 0000181eH
  038e8	75 1f		 jne	 SHORT $LN269@Value

; 1873 : 	{
; 1874 : 		Gold = (this->m_Level+1)*9000000*10;

  038ea	8b 45 fc	 mov	 eax, DWORD PTR _this$[ebp]
  038ed	0f bf 40 08	 movsx	 eax, WORD PTR [eax+8]
  038f1	83 c0 01	 add	 eax, 1
  038f4	69 c0 40 54 89
	00		 imul	 eax, 9000000		; 00895440H
  038fa	6b c0 0a	 imul	 eax, 10			; 0000000aH
  038fd	99		 cdq
  038fe	89 45 ec	 mov	 DWORD PTR _Gold$[ebp], eax
  03901	89 55 f0	 mov	 DWORD PTR _Gold$[ebp+4], edx
  03904	e9 b5 14 00 00	 jmp	 $LN37@Value
$LN269@Value:

; 1875 : 	}
; 1876 : 	else if ( this->m_Type == ITEMGET(12,31) ) //Pack Of Soul

  03909	8b 45 fc	 mov	 eax, DWORD PTR _this$[ebp]
  0390c	0f bf 48 06	 movsx	 ecx, WORD PTR [eax+6]
  03910	81 f9 1f 18 00
	00		 cmp	 ecx, 6175		; 0000181fH
  03916	75 1f		 jne	 SHORT $LN267@Value

; 1877 : 	{
; 1878 : 		Gold = (this->m_Level+1)*6000000*10;

  03918	8b 45 fc	 mov	 eax, DWORD PTR _this$[ebp]
  0391b	0f bf 40 08	 movsx	 eax, WORD PTR [eax+8]
  0391f	83 c0 01	 add	 eax, 1
  03922	69 c0 80 8d 5b
	00		 imul	 eax, 6000000		; 005b8d80H
  03928	6b c0 0a	 imul	 eax, 10			; 0000000aH
  0392b	99		 cdq
  0392c	89 45 ec	 mov	 DWORD PTR _Gold$[ebp], eax
  0392f	89 55 f0	 mov	 DWORD PTR _Gold$[ebp+4], edx
  03932	e9 87 14 00 00	 jmp	 $LN37@Value
$LN267@Value:

; 1879 : 	}
; 1880 : 	else if ( this->m_Type == ITEMGET(13,15) ) //Fruits

  03937	8b 45 fc	 mov	 eax, DWORD PTR _this$[ebp]
  0393a	0f bf 48 06	 movsx	 ecx, WORD PTR [eax+6]
  0393e	81 f9 0f 1a 00
	00		 cmp	 ecx, 6671		; 00001a0fH
  03944	75 13		 jne	 SHORT $LN265@Value

; 1881 : 	{
; 1882 : 		Gold = 33000000;

  03946	c7 45 ec 40 8a
	f7 01		 mov	 DWORD PTR _Gold$[ebp], 33000000 ; 01f78a40H
  0394d	c7 45 f0 00 00
	00 00		 mov	 DWORD PTR _Gold$[ebp+4], 0
  03954	e9 65 14 00 00	 jmp	 $LN37@Value
$LN265@Value:

; 1883 : 	}
; 1884 : 	else if ( this->m_Type == ITEMGET(13,14) ) //Loch Feather

  03959	8b 45 fc	 mov	 eax, DWORD PTR _this$[ebp]
  0395c	0f bf 48 06	 movsx	 ecx, WORD PTR [eax+6]
  03960	81 f9 0e 1a 00
	00		 cmp	 ecx, 6670		; 00001a0eH
  03966	75 2f		 jne	 SHORT $LN263@Value

; 1885 : 	{
; 1886 : 		if ( this->m_Level == 1 )

  03968	8b 45 fc	 mov	 eax, DWORD PTR _this$[ebp]
  0396b	0f bf 48 08	 movsx	 ecx, WORD PTR [eax+8]
  0396f	83 f9 01	 cmp	 ecx, 1
  03972	75 10		 jne	 SHORT $LN262@Value

; 1887 : 		{
; 1888 : 			Gold = 7500000;	// Crest ofMonarch

  03974	c7 45 ec e0 70
	72 00		 mov	 DWORD PTR _Gold$[ebp], 7500000 ; 007270e0H
  0397b	c7 45 f0 00 00
	00 00		 mov	 DWORD PTR _Gold$[ebp+4], 0

; 1889 : 		}
; 1890 : 		else

  03982	eb 0e		 jmp	 SHORT $LN261@Value
$LN262@Value:

; 1891 : 		{
; 1892 : 			Gold = 180000;	// Blue Feather

  03984	c7 45 ec 20 bf
	02 00		 mov	 DWORD PTR _Gold$[ebp], 180000 ; 0002bf20H
  0398b	c7 45 f0 00 00
	00 00		 mov	 DWORD PTR _Gold$[ebp+4], 0
$LN261@Value:

; 1893 : 		}

  03992	e9 27 14 00 00	 jmp	 $LN37@Value
$LN263@Value:

; 1894 : 	}
; 1895 : 	else if ( this->m_Type == ITEMGET(14,31) ) // Jewel of Guardian

  03997	8b 45 fc	 mov	 eax, DWORD PTR _this$[ebp]
  0399a	0f bf 48 06	 movsx	 ecx, WORD PTR [eax+6]
  0399e	81 f9 1f 1c 00
	00		 cmp	 ecx, 7199		; 00001c1fH
  039a4	75 13		 jne	 SHORT $LN259@Value

; 1896 : 	{
; 1897 : 		Gold = 60000000;

  039a6	c7 45 ec 00 87
	93 03		 mov	 DWORD PTR _Gold$[ebp], 60000000 ; 03938700H
  039ad	c7 45 f0 00 00
	00 00		 mov	 DWORD PTR _Gold$[ebp+4], 0
  039b4	e9 05 14 00 00	 jmp	 $LN37@Value
$LN259@Value:

; 1898 : 	}
; 1899 : 	else if ( this->m_Type == ITEMGET(14,7) ) // Siege Potion

  039b9	8b 45 fc	 mov	 eax, DWORD PTR _this$[ebp]
  039bc	0f bf 48 06	 movsx	 ecx, WORD PTR [eax+6]
  039c0	81 f9 07 1c 00
	00		 cmp	 ecx, 7175		; 00001c07H
  039c6	75 4e		 jne	 SHORT $LN257@Value

; 1900 : 	{
; 1901 : 		if ( this->m_Level == 0 )

  039c8	8b 45 fc	 mov	 eax, DWORD PTR _this$[ebp]
  039cb	0f bf 48 08	 movsx	 ecx, WORD PTR [eax+8]
  039cf	85 c9		 test	 ecx, ecx
  039d1	75 1a		 jne	 SHORT $LN256@Value

; 1902 : 		{
; 1903 : 			Gold = (int)(this->m_Durability) * 900000;

  039d3	8b 45 fc	 mov	 eax, DWORD PTR _this$[ebp]
  039d6	d9 40 24	 fld	 DWORD PTR [eax+36]
  039d9	e8 00 00 00 00	 call	 __ftol2_sse
  039de	69 c0 a0 bb 0d
	00		 imul	 eax, 900000		; 000dbba0H
  039e4	99		 cdq
  039e5	89 45 ec	 mov	 DWORD PTR _Gold$[ebp], eax
  039e8	89 55 f0	 mov	 DWORD PTR _Gold$[ebp+4], edx
  039eb	eb 24		 jmp	 SHORT $LN254@Value
$LN256@Value:

; 1904 : 		}
; 1905 : 		else if ( this->m_Level == 1 )

  039ed	8b 45 fc	 mov	 eax, DWORD PTR _this$[ebp]
  039f0	0f bf 48 08	 movsx	 ecx, WORD PTR [eax+8]
  039f4	83 f9 01	 cmp	 ecx, 1
  039f7	75 18		 jne	 SHORT $LN254@Value

; 1906 : 		{
; 1907 : 			Gold = (int)(this->m_Durability) * 450000;

  039f9	8b 45 fc	 mov	 eax, DWORD PTR _this$[ebp]
  039fc	d9 40 24	 fld	 DWORD PTR [eax+36]
  039ff	e8 00 00 00 00	 call	 __ftol2_sse
  03a04	69 c0 d0 dd 06
	00		 imul	 eax, 450000		; 0006ddd0H
  03a0a	99		 cdq
  03a0b	89 45 ec	 mov	 DWORD PTR _Gold$[ebp], eax
  03a0e	89 55 f0	 mov	 DWORD PTR _Gold$[ebp+4], edx
$LN254@Value:

; 1908 : 		}
; 1909 : 	}

  03a11	e9 a8 13 00 00	 jmp	 $LN37@Value
$LN257@Value:

; 1910 : 	else if ( this->m_Type == ITEMGET(13,11) ) // Order(Guardian/Life Stone)

  03a16	8b 45 fc	 mov	 eax, DWORD PTR _this$[ebp]
  03a19	0f bf 48 06	 movsx	 ecx, WORD PTR [eax+6]
  03a1d	81 f9 0b 1a 00
	00		 cmp	 ecx, 6667		; 00001a0bH
  03a23	75 1f		 jne	 SHORT $LN252@Value

; 1911 : 	{
; 1912 : 		if ( this->m_Level == 1 )

  03a25	8b 45 fc	 mov	 eax, DWORD PTR _this$[ebp]
  03a28	0f bf 48 08	 movsx	 ecx, WORD PTR [eax+8]
  03a2c	83 f9 01	 cmp	 ecx, 1
  03a2f	75 0e		 jne	 SHORT $LN251@Value

; 1913 : 		{
; 1914 : 			Gold = 2400000;

  03a31	c7 45 ec 00 9f
	24 00		 mov	 DWORD PTR _Gold$[ebp], 2400000 ; 00249f00H
  03a38	c7 45 f0 00 00
	00 00		 mov	 DWORD PTR _Gold$[ebp+4], 0
$LN251@Value:

; 1915 : 		}
; 1916 : 	}

  03a3f	e9 7a 13 00 00	 jmp	 $LN37@Value
$LN252@Value:

; 1917 : 	else if ( this->m_Type == ITEMGET(13,7) ) // Contract(Summon)

  03a44	8b 45 fc	 mov	 eax, DWORD PTR _this$[ebp]
  03a47	0f bf 48 06	 movsx	 ecx, WORD PTR [eax+6]
  03a4b	81 f9 07 1a 00
	00		 cmp	 ecx, 6663		; 00001a07H
  03a51	75 3a		 jne	 SHORT $LN249@Value

; 1918 : 	{
; 1919 : 		if ( this->m_Level == 0 )

  03a53	8b 45 fc	 mov	 eax, DWORD PTR _this$[ebp]
  03a56	0f bf 48 08	 movsx	 ecx, WORD PTR [eax+8]
  03a5a	85 c9		 test	 ecx, ecx
  03a5c	75 10		 jne	 SHORT $LN248@Value

; 1920 : 		{
; 1921 : 			Gold = 1500000;

  03a5e	c7 45 ec 60 e3
	16 00		 mov	 DWORD PTR _Gold$[ebp], 1500000 ; 0016e360H
  03a65	c7 45 f0 00 00
	00 00		 mov	 DWORD PTR _Gold$[ebp+4], 0
  03a6c	eb 1a		 jmp	 SHORT $LN246@Value
$LN248@Value:

; 1922 : 		}
; 1923 : 		else if ( this->m_Level == 1 )

  03a6e	8b 45 fc	 mov	 eax, DWORD PTR _this$[ebp]
  03a71	0f bf 48 08	 movsx	 ecx, WORD PTR [eax+8]
  03a75	83 f9 01	 cmp	 ecx, 1
  03a78	75 0e		 jne	 SHORT $LN246@Value

; 1924 : 		{
; 1925 : 			Gold = 1200000;

  03a7a	c7 45 ec 80 4f
	12 00		 mov	 DWORD PTR _Gold$[ebp], 1200000 ; 00124f80H
  03a81	c7 45 f0 00 00
	00 00		 mov	 DWORD PTR _Gold$[ebp+4], 0
$LN246@Value:

; 1926 : 		}
; 1927 : 	}

  03a88	e9 31 13 00 00	 jmp	 $LN37@Value
$LN249@Value:

; 1928 : 	else if ( this->m_Type == ITEMGET(13,32) ) 

  03a8d	8b 45 fc	 mov	 eax, DWORD PTR _this$[ebp]
  03a90	0f bf 48 06	 movsx	 ecx, WORD PTR [eax+6]
  03a94	81 f9 20 1a 00
	00		 cmp	 ecx, 6688		; 00001a20H
  03a9a	75 1d		 jne	 SHORT $LN244@Value

; 1929 : 	{
; 1930 : 		Gold = (int)this->m_Durability * 150;

  03a9c	8b 45 fc	 mov	 eax, DWORD PTR _this$[ebp]
  03a9f	d9 40 24	 fld	 DWORD PTR [eax+36]
  03aa2	e8 00 00 00 00	 call	 __ftol2_sse
  03aa7	69 c0 96 00 00
	00		 imul	 eax, 150		; 00000096H
  03aad	99		 cdq
  03aae	89 45 ec	 mov	 DWORD PTR _Gold$[ebp], eax
  03ab1	89 55 f0	 mov	 DWORD PTR _Gold$[ebp+4], edx
  03ab4	e9 05 13 00 00	 jmp	 $LN37@Value
$LN244@Value:

; 1931 : 	}
; 1932 : 	else if ( this->m_Type == ITEMGET(13,33) ) 

  03ab9	8b 45 fc	 mov	 eax, DWORD PTR _this$[ebp]
  03abc	0f bf 48 06	 movsx	 ecx, WORD PTR [eax+6]
  03ac0	81 f9 21 1a 00
	00		 cmp	 ecx, 6689		; 00001a21H
  03ac6	75 1d		 jne	 SHORT $LN242@Value

; 1933 : 	{
; 1934 : 		Gold = (int)this->m_Durability * 300;

  03ac8	8b 45 fc	 mov	 eax, DWORD PTR _this$[ebp]
  03acb	d9 40 24	 fld	 DWORD PTR [eax+36]
  03ace	e8 00 00 00 00	 call	 __ftol2_sse
  03ad3	69 c0 2c 01 00
	00		 imul	 eax, 300		; 0000012cH
  03ad9	99		 cdq
  03ada	89 45 ec	 mov	 DWORD PTR _Gold$[ebp], eax
  03add	89 55 f0	 mov	 DWORD PTR _Gold$[ebp+4], edx
  03ae0	e9 d9 12 00 00	 jmp	 $LN37@Value
$LN242@Value:

; 1935 : 	}
; 1936 : 	else if ( this->m_Type == ITEMGET(13,34) ) 

  03ae5	8b 45 fc	 mov	 eax, DWORD PTR _this$[ebp]
  03ae8	0f bf 48 06	 movsx	 ecx, WORD PTR [eax+6]
  03aec	81 f9 22 1a 00
	00		 cmp	 ecx, 6690		; 00001a22H
  03af2	75 1d		 jne	 SHORT $LN240@Value

; 1937 : 	{
; 1938 : 		Gold = (int)this->m_Durability * 3000;

  03af4	8b 45 fc	 mov	 eax, DWORD PTR _this$[ebp]
  03af7	d9 40 24	 fld	 DWORD PTR [eax+36]
  03afa	e8 00 00 00 00	 call	 __ftol2_sse
  03aff	69 c0 b8 0b 00
	00		 imul	 eax, 3000		; 00000bb8H
  03b05	99		 cdq
  03b06	89 45 ec	 mov	 DWORD PTR _Gold$[ebp], eax
  03b09	89 55 f0	 mov	 DWORD PTR _Gold$[ebp+4], edx
  03b0c	e9 ad 12 00 00	 jmp	 $LN37@Value
$LN240@Value:

; 1939 : 	}
; 1940 : 	else if ( this->m_Type == ITEMGET(13,35) ) 

  03b11	8b 45 fc	 mov	 eax, DWORD PTR _this$[ebp]
  03b14	0f bf 48 06	 movsx	 ecx, WORD PTR [eax+6]
  03b18	81 f9 23 1a 00
	00		 cmp	 ecx, 6691		; 00001a23H
  03b1e	75 13		 jne	 SHORT $LN238@Value

; 1941 : 	{
; 1942 : 		Gold = 30000;

  03b20	c7 45 ec 30 75
	00 00		 mov	 DWORD PTR _Gold$[ebp], 30000 ; 00007530H
  03b27	c7 45 f0 00 00
	00 00		 mov	 DWORD PTR _Gold$[ebp+4], 0
  03b2e	e9 8b 12 00 00	 jmp	 $LN37@Value
$LN238@Value:

; 1943 : 	}
; 1944 : 	else if ( this->m_Type == ITEMGET(13,36) ) 

  03b33	8b 45 fc	 mov	 eax, DWORD PTR _this$[ebp]
  03b36	0f bf 48 06	 movsx	 ecx, WORD PTR [eax+6]
  03b3a	81 f9 24 1a 00
	00		 cmp	 ecx, 6692		; 00001a24H
  03b40	75 13		 jne	 SHORT $LN236@Value

; 1945 : 	{
; 1946 : 		Gold = 90000;

  03b42	c7 45 ec 90 5f
	01 00		 mov	 DWORD PTR _Gold$[ebp], 90000 ; 00015f90H
  03b49	c7 45 f0 00 00
	00 00		 mov	 DWORD PTR _Gold$[ebp+4], 0
  03b50	e9 69 12 00 00	 jmp	 $LN37@Value
$LN236@Value:

; 1947 : 	}
; 1948 : 	else if ( this->m_Type == ITEMGET(13,37) ) 

  03b55	8b 45 fc	 mov	 eax, DWORD PTR _this$[ebp]
  03b58	0f bf 48 06	 movsx	 ecx, WORD PTR [eax+6]
  03b5c	81 f9 25 1a 00
	00		 cmp	 ecx, 6693		; 00001a25H
  03b62	75 13		 jne	 SHORT $LN234@Value

; 1949 : 	{
; 1950 : 		Gold = 150000;

  03b64	c7 45 ec f0 49
	02 00		 mov	 DWORD PTR _Gold$[ebp], 150000 ; 000249f0H
  03b6b	c7 45 f0 00 00
	00 00		 mov	 DWORD PTR _Gold$[ebp+4], 0
  03b72	e9 47 12 00 00	 jmp	 $LN37@Value
$LN234@Value:

; 1951 : 	}
; 1952 : 	else if ( this->m_Type == ITEMGET(14,35) ) 

  03b77	8b 45 fc	 mov	 eax, DWORD PTR _this$[ebp]
  03b7a	0f bf 48 06	 movsx	 ecx, WORD PTR [eax+6]
  03b7e	81 f9 23 1c 00
	00		 cmp	 ecx, 7203		; 00001c23H
  03b84	75 1d		 jne	 SHORT $LN232@Value

; 1953 : 	{
; 1954 : 		Gold = (int)this->m_Durability * 2000;

  03b86	8b 45 fc	 mov	 eax, DWORD PTR _this$[ebp]
  03b89	d9 40 24	 fld	 DWORD PTR [eax+36]
  03b8c	e8 00 00 00 00	 call	 __ftol2_sse
  03b91	69 c0 d0 07 00
	00		 imul	 eax, 2000		; 000007d0H
  03b97	99		 cdq
  03b98	89 45 ec	 mov	 DWORD PTR _Gold$[ebp], eax
  03b9b	89 55 f0	 mov	 DWORD PTR _Gold$[ebp+4], edx
  03b9e	e9 1b 12 00 00	 jmp	 $LN37@Value
$LN232@Value:

; 1955 : 	}
; 1956 : 	else if ( this->m_Type == ITEMGET(14,36) ) 

  03ba3	8b 45 fc	 mov	 eax, DWORD PTR _this$[ebp]
  03ba6	0f bf 48 06	 movsx	 ecx, WORD PTR [eax+6]
  03baa	81 f9 24 1c 00
	00		 cmp	 ecx, 7204		; 00001c24H
  03bb0	75 1d		 jne	 SHORT $LN230@Value

; 1957 : 	{
; 1958 : 		Gold = (int)this->m_Durability * 4000;

  03bb2	8b 45 fc	 mov	 eax, DWORD PTR _this$[ebp]
  03bb5	d9 40 24	 fld	 DWORD PTR [eax+36]
  03bb8	e8 00 00 00 00	 call	 __ftol2_sse
  03bbd	69 c0 a0 0f 00
	00		 imul	 eax, 4000		; 00000fa0H
  03bc3	99		 cdq
  03bc4	89 45 ec	 mov	 DWORD PTR _Gold$[ebp], eax
  03bc7	89 55 f0	 mov	 DWORD PTR _Gold$[ebp+4], edx
  03bca	e9 ef 11 00 00	 jmp	 $LN37@Value
$LN230@Value:

; 1959 : 	}
; 1960 : 	else if ( this->m_Type == ITEMGET(14,37) ) 

  03bcf	8b 45 fc	 mov	 eax, DWORD PTR _this$[ebp]
  03bd2	0f bf 48 06	 movsx	 ecx, WORD PTR [eax+6]
  03bd6	81 f9 25 1c 00
	00		 cmp	 ecx, 7205		; 00001c25H
  03bdc	75 1d		 jne	 SHORT $LN228@Value

; 1961 : 	{
; 1962 : 		Gold = (int)this->m_Durability * 6000;

  03bde	8b 45 fc	 mov	 eax, DWORD PTR _this$[ebp]
  03be1	d9 40 24	 fld	 DWORD PTR [eax+36]
  03be4	e8 00 00 00 00	 call	 __ftol2_sse
  03be9	69 c0 70 17 00
	00		 imul	 eax, 6000		; 00001770H
  03bef	99		 cdq
  03bf0	89 45 ec	 mov	 DWORD PTR _Gold$[ebp], eax
  03bf3	89 55 f0	 mov	 DWORD PTR _Gold$[ebp+4], edx
  03bf6	e9 c3 11 00 00	 jmp	 $LN37@Value
$LN228@Value:

; 1963 : 	}
; 1964 : 	else if ( this->m_Type == ITEMGET(14,38) ) 

  03bfb	8b 45 fc	 mov	 eax, DWORD PTR _this$[ebp]
  03bfe	0f bf 48 06	 movsx	 ecx, WORD PTR [eax+6]
  03c02	81 f9 26 1c 00
	00		 cmp	 ecx, 7206		; 00001c26H
  03c08	75 1d		 jne	 SHORT $LN226@Value

; 1965 : 	{
; 1966 : 		Gold = (int)this->m_Durability * 2500;

  03c0a	8b 45 fc	 mov	 eax, DWORD PTR _this$[ebp]
  03c0d	d9 40 24	 fld	 DWORD PTR [eax+36]
  03c10	e8 00 00 00 00	 call	 __ftol2_sse
  03c15	69 c0 c4 09 00
	00		 imul	 eax, 2500		; 000009c4H
  03c1b	99		 cdq
  03c1c	89 45 ec	 mov	 DWORD PTR _Gold$[ebp], eax
  03c1f	89 55 f0	 mov	 DWORD PTR _Gold$[ebp+4], edx
  03c22	e9 97 11 00 00	 jmp	 $LN37@Value
$LN226@Value:

; 1967 : 	}
; 1968 : 	else if ( this->m_Type == ITEMGET(14,39) ) 

  03c27	8b 45 fc	 mov	 eax, DWORD PTR _this$[ebp]
  03c2a	0f bf 48 06	 movsx	 ecx, WORD PTR [eax+6]
  03c2e	81 f9 27 1c 00
	00		 cmp	 ecx, 7207		; 00001c27H
  03c34	75 1d		 jne	 SHORT $LN224@Value

; 1969 : 	{
; 1970 : 		Gold = (int)this->m_Durability * 5000;

  03c36	8b 45 fc	 mov	 eax, DWORD PTR _this$[ebp]
  03c39	d9 40 24	 fld	 DWORD PTR [eax+36]
  03c3c	e8 00 00 00 00	 call	 __ftol2_sse
  03c41	69 c0 88 13 00
	00		 imul	 eax, 5000		; 00001388H
  03c47	99		 cdq
  03c48	89 45 ec	 mov	 DWORD PTR _Gold$[ebp], eax
  03c4b	89 55 f0	 mov	 DWORD PTR _Gold$[ebp+4], edx
  03c4e	e9 6b 11 00 00	 jmp	 $LN37@Value
$LN224@Value:

; 1971 : 	}
; 1972 : 	else if ( this->m_Type == ITEMGET(14,40) ) 

  03c53	8b 45 fc	 mov	 eax, DWORD PTR _this$[ebp]
  03c56	0f bf 48 06	 movsx	 ecx, WORD PTR [eax+6]
  03c5a	81 f9 28 1c 00
	00		 cmp	 ecx, 7208		; 00001c28H
  03c60	75 1d		 jne	 SHORT $LN222@Value

; 1973 : 	{
; 1974 : 		Gold = (int)this->m_Durability * 7500;

  03c62	8b 45 fc	 mov	 eax, DWORD PTR _this$[ebp]
  03c65	d9 40 24	 fld	 DWORD PTR [eax+36]
  03c68	e8 00 00 00 00	 call	 __ftol2_sse
  03c6d	69 c0 4c 1d 00
	00		 imul	 eax, 7500		; 00001d4cH
  03c73	99		 cdq
  03c74	89 45 ec	 mov	 DWORD PTR _Gold$[ebp], eax
  03c77	89 55 f0	 mov	 DWORD PTR _Gold$[ebp+4], edx
  03c7a	e9 3f 11 00 00	 jmp	 $LN37@Value
$LN222@Value:

; 1975 : 	}
; 1976 : 	else if ( this->m_Type == ITEMGET(13,3) ) // Dinorant

  03c7f	8b 45 fc	 mov	 eax, DWORD PTR _this$[ebp]
  03c82	0f bf 48 06	 movsx	 ecx, WORD PTR [eax+6]
  03c86	81 f9 03 1a 00
	00		 cmp	 ecx, 6659		; 00001a03H
  03c8c	75 59		 jne	 SHORT $LN220@Value

; 1977 : 	{
; 1978 : 		Gold = 960000;

  03c8e	c7 45 ec 00 a6
	0e 00		 mov	 DWORD PTR _Gold$[ebp], 960000 ; 000ea600H
  03c95	c7 45 f0 00 00
	00 00		 mov	 DWORD PTR _Gold$[ebp+4], 0

; 1979 : 
; 1980 : 		for ( int k=0;k<3;k++)

  03c9c	c7 45 d0 00 00
	00 00		 mov	 DWORD PTR _k$231079[ebp], 0
  03ca3	eb 09		 jmp	 SHORT $LN219@Value
$LN218@Value:
  03ca5	8b 45 d0	 mov	 eax, DWORD PTR _k$231079[ebp]
  03ca8	83 c0 01	 add	 eax, 1
  03cab	89 45 d0	 mov	 DWORD PTR _k$231079[ebp], eax
$LN219@Value:
  03cae	83 7d d0 03	 cmp	 DWORD PTR _k$231079[ebp], 3
  03cb2	7d 2e		 jge	 SHORT $LN217@Value

; 1981 : 		{
; 1982 : 			if ( (this->m_Option3 & (1<<k)) != 0 )

  03cb4	8b 45 fc	 mov	 eax, DWORD PTR _this$[ebp]
  03cb7	0f b6 90 96 00
	00 00		 movzx	 edx, BYTE PTR [eax+150]
  03cbe	b8 01 00 00 00	 mov	 eax, 1
  03cc3	8b 4d d0	 mov	 ecx, DWORD PTR _k$231079[ebp]
  03cc6	d3 e0		 shl	 eax, cl
  03cc8	23 d0		 and	 edx, eax
  03cca	74 14		 je	 SHORT $LN216@Value

; 1983 : 			{
; 1984 : 				Gold += 300000;

  03ccc	8b 45 ec	 mov	 eax, DWORD PTR _Gold$[ebp]
  03ccf	05 e0 93 04 00	 add	 eax, 300000		; 000493e0H
  03cd4	8b 4d f0	 mov	 ecx, DWORD PTR _Gold$[ebp+4]
  03cd7	83 d1 00	 adc	 ecx, 0
  03cda	89 45 ec	 mov	 DWORD PTR _Gold$[ebp], eax
  03cdd	89 4d f0	 mov	 DWORD PTR _Gold$[ebp+4], ecx
$LN216@Value:

; 1985 : 			}
; 1986 : 		}

  03ce0	eb c3		 jmp	 SHORT $LN218@Value
$LN217@Value:

; 1987 : 	}
; 1988 : 	else if ( this->m_Type == ITEMGET(14,17) ) // Devil Eye

  03ce2	e9 d7 10 00 00	 jmp	 $LN37@Value
$LN220@Value:
  03ce7	8b 45 fc	 mov	 eax, DWORD PTR _this$[ebp]
  03cea	0f bf 48 06	 movsx	 ecx, WORD PTR [eax+6]
  03cee	81 f9 11 1c 00
	00		 cmp	 ecx, 7185		; 00001c11H
  03cf4	0f 85 b5 00 00
	00		 jne	 $LN214@Value

; 1989 : 	{
; 1990 : 		switch ( this->m_Level )

  03cfa	8b 45 fc	 mov	 eax, DWORD PTR _this$[ebp]
  03cfd	0f bf 48 08	 movsx	 ecx, WORD PTR [eax+8]
  03d01	89 8d 6c ff ff
	ff		 mov	 DWORD PTR tv386[ebp], ecx
  03d07	8b 95 6c ff ff
	ff		 mov	 edx, DWORD PTR tv386[ebp]
  03d0d	83 ea 01	 sub	 edx, 1
  03d10	89 95 6c ff ff
	ff		 mov	 DWORD PTR tv386[ebp], edx
  03d16	83 bd 6c ff ff
	ff 06		 cmp	 DWORD PTR tv386[ebp], 6
  03d1d	77 7d		 ja	 SHORT $LN204@Value
  03d1f	8b 85 6c ff ff
	ff		 mov	 eax, DWORD PTR tv386[ebp]
  03d25	ff 24 85 00 00
	00 00		 jmp	 DWORD PTR $LN315@Value[eax*4]
$LN211@Value:

; 1991 : 		{
; 1992 : 			case 1:
; 1993 : 				Gold = 10000;

  03d2c	c7 45 ec 10 27
	00 00		 mov	 DWORD PTR _Gold$[ebp], 10000 ; 00002710H
  03d33	c7 45 f0 00 00
	00 00		 mov	 DWORD PTR _Gold$[ebp+4], 0

; 1994 : 				break;

  03d3a	eb 6e		 jmp	 SHORT $LN212@Value
$LN210@Value:

; 1995 : 			case 2:
; 1996 : 				Gold = 50000;

  03d3c	c7 45 ec 50 c3
	00 00		 mov	 DWORD PTR _Gold$[ebp], 50000 ; 0000c350H
  03d43	c7 45 f0 00 00
	00 00		 mov	 DWORD PTR _Gold$[ebp+4], 0

; 1997 : 				break;

  03d4a	eb 5e		 jmp	 SHORT $LN212@Value
$LN209@Value:

; 1998 : 			case 3:
; 1999 : 				Gold = 100000;

  03d4c	c7 45 ec a0 86
	01 00		 mov	 DWORD PTR _Gold$[ebp], 100000 ; 000186a0H
  03d53	c7 45 f0 00 00
	00 00		 mov	 DWORD PTR _Gold$[ebp+4], 0

; 2000 : 				break;

  03d5a	eb 4e		 jmp	 SHORT $LN212@Value
$LN208@Value:

; 2001 : 			case 4:
; 2002 : 				Gold = 300000;

  03d5c	c7 45 ec e0 93
	04 00		 mov	 DWORD PTR _Gold$[ebp], 300000 ; 000493e0H
  03d63	c7 45 f0 00 00
	00 00		 mov	 DWORD PTR _Gold$[ebp+4], 0

; 2003 : 				break;

  03d6a	eb 3e		 jmp	 SHORT $LN212@Value
$LN207@Value:

; 2004 : 			case 5:
; 2005 : 				Gold = 500000;

  03d6c	c7 45 ec 20 a1
	07 00		 mov	 DWORD PTR _Gold$[ebp], 500000 ; 0007a120H
  03d73	c7 45 f0 00 00
	00 00		 mov	 DWORD PTR _Gold$[ebp+4], 0

; 2006 : 				break;

  03d7a	eb 2e		 jmp	 SHORT $LN212@Value
$LN206@Value:

; 2007 : 			case 6:
; 2008 : 				Gold = 800000;

  03d7c	c7 45 ec 00 35
	0c 00		 mov	 DWORD PTR _Gold$[ebp], 800000 ; 000c3500H
  03d83	c7 45 f0 00 00
	00 00		 mov	 DWORD PTR _Gold$[ebp+4], 0

; 2009 : 				break;

  03d8a	eb 1e		 jmp	 SHORT $LN212@Value
$LN205@Value:

; 2010 : 			case 7:
; 2011 : 				Gold = 1000000;

  03d8c	c7 45 ec 40 42
	0f 00		 mov	 DWORD PTR _Gold$[ebp], 1000000 ; 000f4240H
  03d93	c7 45 f0 00 00
	00 00		 mov	 DWORD PTR _Gold$[ebp+4], 0

; 2012 : 				break;

  03d9a	eb 0e		 jmp	 SHORT $LN212@Value
$LN204@Value:

; 2013 : 			default:
; 2014 : 				Gold = 30000;

  03d9c	c7 45 ec 30 75
	00 00		 mov	 DWORD PTR _Gold$[ebp], 30000 ; 00007530H
  03da3	c7 45 f0 00 00
	00 00		 mov	 DWORD PTR _Gold$[ebp+4], 0
$LN212@Value:

; 2015 : 				break;
; 2016 : 		}
; 2017 : 	}
; 2018 : 	else if ( this->m_Type == ITEMGET(14,18) ) // Devil Key

  03daa	e9 0f 10 00 00	 jmp	 $LN37@Value
$LN214@Value:
  03daf	8b 45 fc	 mov	 eax, DWORD PTR _this$[ebp]
  03db2	0f bf 48 06	 movsx	 ecx, WORD PTR [eax+6]
  03db6	81 f9 12 1c 00
	00		 cmp	 ecx, 7186		; 00001c12H
  03dbc	0f 85 b5 00 00
	00		 jne	 $LN202@Value

; 2019 : 	{
; 2020 : 		switch ( this->m_Level )

  03dc2	8b 45 fc	 mov	 eax, DWORD PTR _this$[ebp]
  03dc5	0f bf 48 08	 movsx	 ecx, WORD PTR [eax+8]
  03dc9	89 8d 6c ff ff
	ff		 mov	 DWORD PTR tv394[ebp], ecx
  03dcf	8b 95 6c ff ff
	ff		 mov	 edx, DWORD PTR tv394[ebp]
  03dd5	83 ea 01	 sub	 edx, 1
  03dd8	89 95 6c ff ff
	ff		 mov	 DWORD PTR tv394[ebp], edx
  03dde	83 bd 6c ff ff
	ff 06		 cmp	 DWORD PTR tv394[ebp], 6
  03de5	77 7d		 ja	 SHORT $LN192@Value
  03de7	8b 85 6c ff ff
	ff		 mov	 eax, DWORD PTR tv394[ebp]
  03ded	ff 24 85 00 00
	00 00		 jmp	 DWORD PTR $LN316@Value[eax*4]
$LN199@Value:

; 2021 : 		{
; 2022 : 			case 1:
; 2023 : 				Gold = 15000;

  03df4	c7 45 ec 98 3a
	00 00		 mov	 DWORD PTR _Gold$[ebp], 15000 ; 00003a98H
  03dfb	c7 45 f0 00 00
	00 00		 mov	 DWORD PTR _Gold$[ebp+4], 0

; 2024 : 				break;

  03e02	eb 6e		 jmp	 SHORT $LN200@Value
$LN198@Value:

; 2025 : 			case 2:
; 2026 : 				Gold = 75000;

  03e04	c7 45 ec f8 24
	01 00		 mov	 DWORD PTR _Gold$[ebp], 75000 ; 000124f8H
  03e0b	c7 45 f0 00 00
	00 00		 mov	 DWORD PTR _Gold$[ebp+4], 0

; 2027 : 				break;

  03e12	eb 5e		 jmp	 SHORT $LN200@Value
$LN197@Value:

; 2028 : 			case 3:
; 2029 : 				Gold = 150000;

  03e14	c7 45 ec f0 49
	02 00		 mov	 DWORD PTR _Gold$[ebp], 150000 ; 000249f0H
  03e1b	c7 45 f0 00 00
	00 00		 mov	 DWORD PTR _Gold$[ebp+4], 0

; 2030 : 				break;

  03e22	eb 4e		 jmp	 SHORT $LN200@Value
$LN196@Value:

; 2031 : 			case 4:
; 2032 : 				Gold = 450000;

  03e24	c7 45 ec d0 dd
	06 00		 mov	 DWORD PTR _Gold$[ebp], 450000 ; 0006ddd0H
  03e2b	c7 45 f0 00 00
	00 00		 mov	 DWORD PTR _Gold$[ebp+4], 0

; 2033 : 				break;

  03e32	eb 3e		 jmp	 SHORT $LN200@Value
$LN195@Value:

; 2034 : 			case 5:
; 2035 : 				Gold = 750000;

  03e34	c7 45 ec b0 71
	0b 00		 mov	 DWORD PTR _Gold$[ebp], 750000 ; 000b71b0H
  03e3b	c7 45 f0 00 00
	00 00		 mov	 DWORD PTR _Gold$[ebp+4], 0

; 2036 : 				break;

  03e42	eb 2e		 jmp	 SHORT $LN200@Value
$LN194@Value:

; 2037 : 			case 6:
; 2038 : 				Gold = 1200000;

  03e44	c7 45 ec 80 4f
	12 00		 mov	 DWORD PTR _Gold$[ebp], 1200000 ; 00124f80H
  03e4b	c7 45 f0 00 00
	00 00		 mov	 DWORD PTR _Gold$[ebp+4], 0

; 2039 : 				break;

  03e52	eb 1e		 jmp	 SHORT $LN200@Value
$LN193@Value:

; 2040 : 			case 7:
; 2041 : 				Gold = 1500000;

  03e54	c7 45 ec 60 e3
	16 00		 mov	 DWORD PTR _Gold$[ebp], 1500000 ; 0016e360H
  03e5b	c7 45 f0 00 00
	00 00		 mov	 DWORD PTR _Gold$[ebp+4], 0

; 2042 : 				break;

  03e62	eb 0e		 jmp	 SHORT $LN200@Value
$LN192@Value:

; 2043 : 			default:
; 2044 : 				Gold = 30000;

  03e64	c7 45 ec 30 75
	00 00		 mov	 DWORD PTR _Gold$[ebp], 30000 ; 00007530H
  03e6b	c7 45 f0 00 00
	00 00		 mov	 DWORD PTR _Gold$[ebp+4], 0
$LN200@Value:

; 2045 : 				break;
; 2046 : 		}
; 2047 : 	}
; 2048 : 	else if ( this->m_Type == ITEMGET(14,19) ) // Devil's Invitation

  03e72	e9 47 0f 00 00	 jmp	 $LN37@Value
$LN202@Value:
  03e77	8b 45 fc	 mov	 eax, DWORD PTR _this$[ebp]
  03e7a	0f bf 48 06	 movsx	 ecx, WORD PTR [eax+6]
  03e7e	81 f9 13 1c 00
	00		 cmp	 ecx, 7187		; 00001c13H
  03e84	0f 85 b5 00 00
	00		 jne	 $LN190@Value

; 2049 : 	{
; 2050 : 		switch ( this->m_Level )

  03e8a	8b 45 fc	 mov	 eax, DWORD PTR _this$[ebp]
  03e8d	0f bf 48 08	 movsx	 ecx, WORD PTR [eax+8]
  03e91	89 8d 6c ff ff
	ff		 mov	 DWORD PTR tv402[ebp], ecx
  03e97	8b 95 6c ff ff
	ff		 mov	 edx, DWORD PTR tv402[ebp]
  03e9d	83 ea 01	 sub	 edx, 1
  03ea0	89 95 6c ff ff
	ff		 mov	 DWORD PTR tv402[ebp], edx
  03ea6	83 bd 6c ff ff
	ff 06		 cmp	 DWORD PTR tv402[ebp], 6
  03ead	77 7d		 ja	 SHORT $LN180@Value
  03eaf	8b 85 6c ff ff
	ff		 mov	 eax, DWORD PTR tv402[ebp]
  03eb5	ff 24 85 00 00
	00 00		 jmp	 DWORD PTR $LN317@Value[eax*4]
$LN187@Value:

; 2051 : 		{
; 2052 : 			case 1:
; 2053 : 				Gold = 60000;

  03ebc	c7 45 ec 60 ea
	00 00		 mov	 DWORD PTR _Gold$[ebp], 60000 ; 0000ea60H
  03ec3	c7 45 f0 00 00
	00 00		 mov	 DWORD PTR _Gold$[ebp+4], 0

; 2054 : 				break;

  03eca	eb 6e		 jmp	 SHORT $LN188@Value
$LN186@Value:

; 2055 : 			case 2:
; 2056 : 				Gold = 84000;

  03ecc	c7 45 ec 20 48
	01 00		 mov	 DWORD PTR _Gold$[ebp], 84000 ; 00014820H
  03ed3	c7 45 f0 00 00
	00 00		 mov	 DWORD PTR _Gold$[ebp+4], 0

; 2057 : 				break;

  03eda	eb 5e		 jmp	 SHORT $LN188@Value
$LN185@Value:

; 2058 : 			case 3:
; 2059 : 				Gold = 120000;

  03edc	c7 45 ec c0 d4
	01 00		 mov	 DWORD PTR _Gold$[ebp], 120000 ; 0001d4c0H
  03ee3	c7 45 f0 00 00
	00 00		 mov	 DWORD PTR _Gold$[ebp+4], 0

; 2060 : 				break;

  03eea	eb 4e		 jmp	 SHORT $LN188@Value
$LN184@Value:

; 2061 : 			case 4:
; 2062 : 				Gold = 180000;

  03eec	c7 45 ec 20 bf
	02 00		 mov	 DWORD PTR _Gold$[ebp], 180000 ; 0002bf20H
  03ef3	c7 45 f0 00 00
	00 00		 mov	 DWORD PTR _Gold$[ebp+4], 0

; 2063 : 				break;

  03efa	eb 3e		 jmp	 SHORT $LN188@Value
$LN183@Value:

; 2064 : 			case 5:
; 2065 : 				Gold = 240000;

  03efc	c7 45 ec 80 a9
	03 00		 mov	 DWORD PTR _Gold$[ebp], 240000 ; 0003a980H
  03f03	c7 45 f0 00 00
	00 00		 mov	 DWORD PTR _Gold$[ebp+4], 0

; 2066 : 				break;

  03f0a	eb 2e		 jmp	 SHORT $LN188@Value
$LN182@Value:

; 2067 : 			case 6:
; 2068 : 				Gold = 300000;

  03f0c	c7 45 ec e0 93
	04 00		 mov	 DWORD PTR _Gold$[ebp], 300000 ; 000493e0H
  03f13	c7 45 f0 00 00
	00 00		 mov	 DWORD PTR _Gold$[ebp+4], 0

; 2069 : 				break;

  03f1a	eb 1e		 jmp	 SHORT $LN188@Value
$LN181@Value:

; 2070 : 			case 7:
; 2071 : 				Gold = 180000;

  03f1c	c7 45 ec 20 bf
	02 00		 mov	 DWORD PTR _Gold$[ebp], 180000 ; 0002bf20H
  03f23	c7 45 f0 00 00
	00 00		 mov	 DWORD PTR _Gold$[ebp+4], 0

; 2072 : 				break;

  03f2a	eb 0e		 jmp	 SHORT $LN188@Value
$LN180@Value:

; 2073 : 			default:
; 2074 : 				Gold = 120000;

  03f2c	c7 45 ec c0 d4
	01 00		 mov	 DWORD PTR _Gold$[ebp], 120000 ; 0001d4c0H
  03f33	c7 45 f0 00 00
	00 00		 mov	 DWORD PTR _Gold$[ebp+4], 0
$LN188@Value:

; 2075 : 				break;
; 2076 : 		}
; 2077 : 	}
; 2078 : 	else if ( this->m_Type == ITEMGET(14,20) ) // Remedy Of Love

  03f3a	e9 7f 0e 00 00	 jmp	 $LN37@Value
$LN190@Value:
  03f3f	8b 45 fc	 mov	 eax, DWORD PTR _this$[ebp]
  03f42	0f bf 48 06	 movsx	 ecx, WORD PTR [eax+6]
  03f46	81 f9 14 1c 00
	00		 cmp	 ecx, 7188		; 00001c14H
  03f4c	75 13		 jne	 SHORT $LN178@Value

; 2079 : 	{
; 2080 : 		Gold = 900;

  03f4e	c7 45 ec 84 03
	00 00		 mov	 DWORD PTR _Gold$[ebp], 900 ; 00000384H
  03f55	c7 45 f0 00 00
	00 00		 mov	 DWORD PTR _Gold$[ebp+4], 0
  03f5c	e9 5d 0e 00 00	 jmp	 $LN37@Value
$LN178@Value:

; 2081 : 	}
; 2082 : 	else if ( this->m_Type == ITEMGET(14,21) ) // Rena

  03f61	8b 45 fc	 mov	 eax, DWORD PTR _this$[ebp]
  03f64	0f bf 48 06	 movsx	 ecx, WORD PTR [eax+6]
  03f68	81 f9 15 1c 00
	00		 cmp	 ecx, 7189		; 00001c15H
  03f6e	0f 85 99 00 00
	00		 jne	 $LN176@Value

; 2083 : 	{
; 2084 : 		switch ( this->m_Level )

  03f74	8b 45 fc	 mov	 eax, DWORD PTR _this$[ebp]
  03f77	0f bf 48 08	 movsx	 ecx, WORD PTR [eax+8]
  03f7b	89 8d 6c ff ff
	ff		 mov	 DWORD PTR tv413[ebp], ecx
  03f81	83 bd 6c ff ff
	ff 00		 cmp	 DWORD PTR tv413[ebp], 0
  03f88	74 14		 je	 SHORT $LN173@Value
  03f8a	83 bd 6c ff ff
	ff 01		 cmp	 DWORD PTR tv413[ebp], 1
  03f91	74 25		 je	 SHORT $LN172@Value
  03f93	83 bd 6c ff ff
	ff 03		 cmp	 DWORD PTR tv413[ebp], 3
  03f9a	74 38		 je	 SHORT $LN171@Value
  03f9c	eb 50		 jmp	 SHORT $LN170@Value
$LN173@Value:

; 2085 : 		{
; 2086 : 			case 0:	// Rena
; 2087 : 				Gold = 9000;

  03f9e	c7 45 ec 28 23
	00 00		 mov	 DWORD PTR _Gold$[ebp], 9000 ; 00002328H
  03fa5	c7 45 f0 00 00
	00 00		 mov	 DWORD PTR _Gold$[ebp+4], 0

; 2088 : 				this->m_Durability = this->m_BaseDurability;

  03fac	8b 45 fc	 mov	 eax, DWORD PTR _this$[ebp]
  03faf	8b 4d fc	 mov	 ecx, DWORD PTR _this$[ebp]
  03fb2	d9 41 2c	 fld	 DWORD PTR [ecx+44]
  03fb5	d9 58 24	 fstp	 DWORD PTR [eax+36]
$LN172@Value:

; 2089 : 			case 1:	// Stone
; 2090 : 				Gold = 9000;

  03fb8	c7 45 ec 28 23
	00 00		 mov	 DWORD PTR _Gold$[ebp], 9000 ; 00002328H
  03fbf	c7 45 f0 00 00
	00 00		 mov	 DWORD PTR _Gold$[ebp+4], 0

; 2091 : 				this->m_Durability = this->m_BaseDurability;

  03fc6	8b 45 fc	 mov	 eax, DWORD PTR _this$[ebp]
  03fc9	8b 4d fc	 mov	 ecx, DWORD PTR _this$[ebp]
  03fcc	d9 41 2c	 fld	 DWORD PTR [ecx+44]
  03fcf	d9 58 24	 fstp	 DWORD PTR [eax+36]

; 2092 : 				break;

  03fd2	eb 34		 jmp	 SHORT $LN174@Value
$LN171@Value:

; 2093 : 			case 3:	// Mark of Lord
; 2094 : 				Gold = (int)(this->m_Durability) * 3900;

  03fd4	8b 45 fc	 mov	 eax, DWORD PTR _this$[ebp]
  03fd7	d9 40 24	 fld	 DWORD PTR [eax+36]
  03fda	e8 00 00 00 00	 call	 __ftol2_sse
  03fdf	69 c0 3c 0f 00
	00		 imul	 eax, 3900		; 00000f3cH
  03fe5	99		 cdq
  03fe6	89 45 ec	 mov	 DWORD PTR _Gold$[ebp], eax
  03fe9	89 55 f0	 mov	 DWORD PTR _Gold$[ebp+4], edx

; 2095 : 				break;

  03fec	eb 1a		 jmp	 SHORT $LN174@Value
$LN170@Value:

; 2096 : 			default:
; 2097 : 				Gold = 9000;

  03fee	c7 45 ec 28 23
	00 00		 mov	 DWORD PTR _Gold$[ebp], 9000 ; 00002328H
  03ff5	c7 45 f0 00 00
	00 00		 mov	 DWORD PTR _Gold$[ebp+4], 0

; 2098 : 				this->m_Durability = this->m_BaseDurability;

  03ffc	8b 45 fc	 mov	 eax, DWORD PTR _this$[ebp]
  03fff	8b 4d fc	 mov	 ecx, DWORD PTR _this$[ebp]
  04002	d9 41 2c	 fld	 DWORD PTR [ecx+44]
  04005	d9 58 24	 fstp	 DWORD PTR [eax+36]
$LN174@Value:

; 2099 : 		}
; 2100 : 	}
; 2101 : 	else if ( this->m_Type == ITEMGET(14,100)) // Lucky Coin season 4.5

  04008	e9 b1 0d 00 00	 jmp	 $LN37@Value
$LN176@Value:
  0400d	8b 45 fc	 mov	 eax, DWORD PTR _this$[ebp]
  04010	0f bf 48 06	 movsx	 ecx, WORD PTR [eax+6]
  04014	81 f9 64 1c 00
	00		 cmp	 ecx, 7268		; 00001c64H
  0401a	75 1d		 jne	 SHORT $LN168@Value

; 2102 : 	{
; 2103 : 		Gold = (int)(this->m_Durability) * 300;

  0401c	8b 45 fc	 mov	 eax, DWORD PTR _this$[ebp]
  0401f	d9 40 24	 fld	 DWORD PTR [eax+36]
  04022	e8 00 00 00 00	 call	 __ftol2_sse
  04027	69 c0 2c 01 00
	00		 imul	 eax, 300		; 0000012cH
  0402d	99		 cdq
  0402e	89 45 ec	 mov	 DWORD PTR _Gold$[ebp], eax
  04031	89 55 f0	 mov	 DWORD PTR _Gold$[ebp+4], edx
  04034	e9 85 0d 00 00	 jmp	 $LN37@Value
$LN168@Value:

; 2104 : 	}
; 2105 : 	else if ( this->m_Type == ITEMGET(14,9) && this->m_Level == 1) // Ale

  04039	8b 45 fc	 mov	 eax, DWORD PTR _this$[ebp]
  0403c	0f bf 48 06	 movsx	 ecx, WORD PTR [eax+6]
  04040	81 f9 09 1c 00
	00		 cmp	 ecx, 7177		; 00001c09H
  04046	75 1f		 jne	 SHORT $LN166@Value
  04048	8b 45 fc	 mov	 eax, DWORD PTR _this$[ebp]
  0404b	0f bf 48 08	 movsx	 ecx, WORD PTR [eax+8]
  0404f	83 f9 01	 cmp	 ecx, 1
  04052	75 13		 jne	 SHORT $LN166@Value

; 2106 : 	{
; 2107 : 		Gold = 1000;

  04054	c7 45 ec e8 03
	00 00		 mov	 DWORD PTR _Gold$[ebp], 1000 ; 000003e8H
  0405b	c7 45 f0 00 00
	00 00		 mov	 DWORD PTR _Gold$[ebp+4], 0
  04062	e9 57 0d 00 00	 jmp	 $LN37@Value
$LN166@Value:

; 2108 : 	}
; 2109 : 	else if ( this->m_Type == ITEMGET(13,18) ) // Invisibility Cloak

  04067	8b 45 fc	 mov	 eax, DWORD PTR _this$[ebp]
  0406a	0f bf 48 06	 movsx	 ecx, WORD PTR [eax+6]
  0406e	81 f9 12 1a 00
	00		 cmp	 ecx, 6674		; 00001a12H
  04074	0f 85 c9 00 00
	00		 jne	 $LN164@Value

; 2110 : 	{
; 2111 : 		switch ( this->m_Level )

  0407a	8b 45 fc	 mov	 eax, DWORD PTR _this$[ebp]
  0407d	0f bf 48 08	 movsx	 ecx, WORD PTR [eax+8]
  04081	89 8d 6c ff ff
	ff		 mov	 DWORD PTR tv447[ebp], ecx
  04087	8b 95 6c ff ff
	ff		 mov	 edx, DWORD PTR tv447[ebp]
  0408d	83 ea 01	 sub	 edx, 1
  04090	89 95 6c ff ff
	ff		 mov	 DWORD PTR tv447[ebp], edx
  04096	83 bd 6c ff ff
	ff 07		 cmp	 DWORD PTR tv447[ebp], 7
  0409d	0f 87 8d 00 00
	00		 ja	 $LN153@Value
  040a3	8b 85 6c ff ff
	ff		 mov	 eax, DWORD PTR tv447[ebp]
  040a9	ff 24 85 00 00
	00 00		 jmp	 DWORD PTR $LN318@Value[eax*4]
$LN161@Value:

; 2112 : 		{
; 2113 : 			case 1:
; 2114 : 				Gold = 150000;

  040b0	c7 45 ec f0 49
	02 00		 mov	 DWORD PTR _Gold$[ebp], 150000 ; 000249f0H
  040b7	c7 45 f0 00 00
	00 00		 mov	 DWORD PTR _Gold$[ebp+4], 0

; 2115 : 				break;

  040be	eb 7e		 jmp	 SHORT $LN162@Value
$LN160@Value:

; 2116 : 			case 2:
; 2117 : 				Gold = 660000;

  040c0	c7 45 ec 20 12
	0a 00		 mov	 DWORD PTR _Gold$[ebp], 660000 ; 000a1220H
  040c7	c7 45 f0 00 00
	00 00		 mov	 DWORD PTR _Gold$[ebp+4], 0

; 2118 : 				break;

  040ce	eb 6e		 jmp	 SHORT $LN162@Value
$LN159@Value:

; 2119 : 			case 3:
; 2120 : 				Gold = 720000;

  040d0	c7 45 ec 80 fc
	0a 00		 mov	 DWORD PTR _Gold$[ebp], 720000 ; 000afc80H
  040d7	c7 45 f0 00 00
	00 00		 mov	 DWORD PTR _Gold$[ebp+4], 0

; 2121 : 				break;

  040de	eb 5e		 jmp	 SHORT $LN162@Value
$LN158@Value:

; 2122 : 			case 4:
; 2123 : 				Gold = 780000;

  040e0	c7 45 ec e0 e6
	0b 00		 mov	 DWORD PTR _Gold$[ebp], 780000 ; 000be6e0H
  040e7	c7 45 f0 00 00
	00 00		 mov	 DWORD PTR _Gold$[ebp+4], 0

; 2124 : 				break;

  040ee	eb 4e		 jmp	 SHORT $LN162@Value
$LN157@Value:

; 2125 : 			case 5:
; 2126 : 				Gold = 840000;

  040f0	c7 45 ec 40 d1
	0c 00		 mov	 DWORD PTR _Gold$[ebp], 840000 ; 000cd140H
  040f7	c7 45 f0 00 00
	00 00		 mov	 DWORD PTR _Gold$[ebp+4], 0

; 2127 : 				break;

  040fe	eb 3e		 jmp	 SHORT $LN162@Value
$LN156@Value:

; 2128 : 			case 6:
; 2129 : 				Gold = 900000;

  04100	c7 45 ec a0 bb
	0d 00		 mov	 DWORD PTR _Gold$[ebp], 900000 ; 000dbba0H
  04107	c7 45 f0 00 00
	00 00		 mov	 DWORD PTR _Gold$[ebp+4], 0

; 2130 : 				break;

  0410e	eb 2e		 jmp	 SHORT $LN162@Value
$LN155@Value:

; 2131 : 			case 7:
; 2132 : 				Gold = 960000;

  04110	c7 45 ec 00 a6
	0e 00		 mov	 DWORD PTR _Gold$[ebp], 960000 ; 000ea600H
  04117	c7 45 f0 00 00
	00 00		 mov	 DWORD PTR _Gold$[ebp+4], 0

; 2133 : 				break;

  0411e	eb 1e		 jmp	 SHORT $LN162@Value
$LN154@Value:

; 2134 : 			case 8:
; 2135 : 				Gold = 1020000;

  04120	c7 45 ec 60 90
	0f 00		 mov	 DWORD PTR _Gold$[ebp], 1020000 ; 000f9060H
  04127	c7 45 f0 00 00
	00 00		 mov	 DWORD PTR _Gold$[ebp+4], 0

; 2136 : 				break;

  0412e	eb 0e		 jmp	 SHORT $LN162@Value
$LN153@Value:

; 2137 : 			default:
; 2138 : 				Gold = 600000;

  04130	c7 45 ec c0 27
	09 00		 mov	 DWORD PTR _Gold$[ebp], 600000 ; 000927c0H
  04137	c7 45 f0 00 00
	00 00		 mov	 DWORD PTR _Gold$[ebp+4], 0
$LN162@Value:

; 2139 : 				break;
; 2140 : 		}
; 2141 : 	}
; 2142 : 	else if ( this->m_Type == ITEMGET(13,16) || this->m_Type == ITEMGET(13,17) ) // Blood and Paper of BloodCastle

  0413e	e9 7b 0c 00 00	 jmp	 $LN37@Value
$LN164@Value:
  04143	8b 45 fc	 mov	 eax, DWORD PTR _this$[ebp]
  04146	0f bf 48 06	 movsx	 ecx, WORD PTR [eax+6]
  0414a	81 f9 10 1a 00
	00		 cmp	 ecx, 6672		; 00001a10H
  04150	74 13		 je	 SHORT $LN150@Value
  04152	8b 45 fc	 mov	 eax, DWORD PTR _this$[ebp]
  04155	0f bf 48 06	 movsx	 ecx, WORD PTR [eax+6]
  04159	81 f9 11 1a 00
	00		 cmp	 ecx, 6673		; 00001a11H
  0415f	0f 85 c9 00 00
	00		 jne	 $LN151@Value
$LN150@Value:

; 2143 : 	{
; 2144 : 		switch ( this->m_Level )

  04165	8b 45 fc	 mov	 eax, DWORD PTR _this$[ebp]
  04168	0f bf 48 08	 movsx	 ecx, WORD PTR [eax+8]
  0416c	89 8d 6c ff ff
	ff		 mov	 DWORD PTR tv458[ebp], ecx
  04172	8b 95 6c ff ff
	ff		 mov	 edx, DWORD PTR tv458[ebp]
  04178	83 ea 01	 sub	 edx, 1
  0417b	89 95 6c ff ff
	ff		 mov	 DWORD PTR tv458[ebp], edx
  04181	83 bd 6c ff ff
	ff 07		 cmp	 DWORD PTR tv458[ebp], 7
  04188	0f 87 8d 00 00
	00		 ja	 $LN139@Value
  0418e	8b 85 6c ff ff
	ff		 mov	 eax, DWORD PTR tv458[ebp]
  04194	ff 24 85 00 00
	00 00		 jmp	 DWORD PTR $LN319@Value[eax*4]
$LN147@Value:

; 2145 : 		{
; 2146 : 			case 1:
; 2147 : 				Gold = 10000;

  0419b	c7 45 ec 10 27
	00 00		 mov	 DWORD PTR _Gold$[ebp], 10000 ; 00002710H
  041a2	c7 45 f0 00 00
	00 00		 mov	 DWORD PTR _Gold$[ebp+4], 0

; 2148 : 				break;

  041a9	eb 7e		 jmp	 SHORT $LN148@Value
$LN146@Value:

; 2149 : 			case 2:
; 2150 : 				Gold = 50000;

  041ab	c7 45 ec 50 c3
	00 00		 mov	 DWORD PTR _Gold$[ebp], 50000 ; 0000c350H
  041b2	c7 45 f0 00 00
	00 00		 mov	 DWORD PTR _Gold$[ebp+4], 0

; 2151 : 				break;

  041b9	eb 6e		 jmp	 SHORT $LN148@Value
$LN145@Value:

; 2152 : 			case 3:
; 2153 : 				Gold = 100000;

  041bb	c7 45 ec a0 86
	01 00		 mov	 DWORD PTR _Gold$[ebp], 100000 ; 000186a0H
  041c2	c7 45 f0 00 00
	00 00		 mov	 DWORD PTR _Gold$[ebp+4], 0

; 2154 : 				break;

  041c9	eb 5e		 jmp	 SHORT $LN148@Value
$LN144@Value:

; 2155 : 			case 4:
; 2156 : 				Gold = 300000;

  041cb	c7 45 ec e0 93
	04 00		 mov	 DWORD PTR _Gold$[ebp], 300000 ; 000493e0H
  041d2	c7 45 f0 00 00
	00 00		 mov	 DWORD PTR _Gold$[ebp+4], 0

; 2157 : 				break;

  041d9	eb 4e		 jmp	 SHORT $LN148@Value
$LN143@Value:

; 2158 : 			case 5:
; 2159 : 				Gold = 500000;

  041db	c7 45 ec 20 a1
	07 00		 mov	 DWORD PTR _Gold$[ebp], 500000 ; 0007a120H
  041e2	c7 45 f0 00 00
	00 00		 mov	 DWORD PTR _Gold$[ebp+4], 0

; 2160 : 				break;

  041e9	eb 3e		 jmp	 SHORT $LN148@Value
$LN142@Value:

; 2161 : 			case 6:
; 2162 : 				Gold = 800000;

  041eb	c7 45 ec 00 35
	0c 00		 mov	 DWORD PTR _Gold$[ebp], 800000 ; 000c3500H
  041f2	c7 45 f0 00 00
	00 00		 mov	 DWORD PTR _Gold$[ebp+4], 0

; 2163 : 				break;

  041f9	eb 2e		 jmp	 SHORT $LN148@Value
$LN141@Value:

; 2164 : 			case 7:
; 2165 : 				Gold = 1000000;

  041fb	c7 45 ec 40 42
	0f 00		 mov	 DWORD PTR _Gold$[ebp], 1000000 ; 000f4240H
  04202	c7 45 f0 00 00
	00 00		 mov	 DWORD PTR _Gold$[ebp+4], 0

; 2166 : 				break;

  04209	eb 1e		 jmp	 SHORT $LN148@Value
$LN140@Value:

; 2167 : 			case 8:
; 2168 : 				Gold = 1200000;

  0420b	c7 45 ec 80 4f
	12 00		 mov	 DWORD PTR _Gold$[ebp], 1200000 ; 00124f80H
  04212	c7 45 f0 00 00
	00 00		 mov	 DWORD PTR _Gold$[ebp+4], 0

; 2169 : 				break;

  04219	eb 0e		 jmp	 SHORT $LN148@Value
$LN139@Value:

; 2170 : 			default:
; 2171 : 				Gold = 15000;

  0421b	c7 45 ec 98 3a
	00 00		 mov	 DWORD PTR _Gold$[ebp], 15000 ; 00003a98H
  04222	c7 45 f0 00 00
	00 00		 mov	 DWORD PTR _Gold$[ebp+4], 0
$LN148@Value:

; 2172 : 				break;
; 2173 : 		}
; 2174 : 	}
; 2175 : 	else if ( this->m_Type == ITEMGET(13,29) ) // Armor of Guardman

  04229	e9 90 0b 00 00	 jmp	 $LN37@Value
$LN151@Value:
  0422e	8b 45 fc	 mov	 eax, DWORD PTR _this$[ebp]
  04231	0f bf 48 06	 movsx	 ecx, WORD PTR [eax+6]
  04235	81 f9 1d 1a 00
	00		 cmp	 ecx, 6685		; 00001a1dH
  0423b	75 13		 jne	 SHORT $LN137@Value

; 2176 : 	{
; 2177 : 		Gold = 5000;

  0423d	c7 45 ec 88 13
	00 00		 mov	 DWORD PTR _Gold$[ebp], 5000 ; 00001388H
  04244	c7 45 f0 00 00
	00 00		 mov	 DWORD PTR _Gold$[ebp+4], 0
  0424b	e9 6e 0b 00 00	 jmp	 $LN37@Value
$LN137@Value:

; 2178 : 	}
; 2179 : 	else if ( this->m_Type == ITEMGET(13,20) ) // Wizards Ring

  04250	8b 45 fc	 mov	 eax, DWORD PTR _this$[ebp]
  04253	0f bf 48 06	 movsx	 ecx, WORD PTR [eax+6]
  04257	81 f9 14 1a 00
	00		 cmp	 ecx, 6676		; 00001a14H
  0425d	75 3b		 jne	 SHORT $LN135@Value

; 2180 : 	{
; 2181 : 		switch ( this->m_Level )

  0425f	8b 45 fc	 mov	 eax, DWORD PTR _this$[ebp]
  04262	0f bf 48 08	 movsx	 ecx, WORD PTR [eax+8]
  04266	89 8d 6c ff ff
	ff		 mov	 DWORD PTR tv469[ebp], ecx
  0426c	83 bd 6c ff ff
	ff 00		 cmp	 DWORD PTR tv469[ebp], 0
  04273	74 02		 je	 SHORT $LN132@Value
  04275	eb 10		 jmp	 SHORT $LN131@Value
$LN132@Value:

; 2182 : 		{
; 2183 : 			case 0:
; 2184 : 				Gold =30000;

  04277	c7 45 ec 30 75
	00 00		 mov	 DWORD PTR _Gold$[ebp], 30000 ; 00007530H
  0427e	c7 45 f0 00 00
	00 00		 mov	 DWORD PTR _Gold$[ebp+4], 0

; 2185 : 				break;

  04285	eb 0e		 jmp	 SHORT $LN133@Value
$LN131@Value:

; 2186 : 
; 2187 : 			default:
; 2188 : 				Gold = 0;

  04287	c7 45 ec 00 00
	00 00		 mov	 DWORD PTR _Gold$[ebp], 0
  0428e	c7 45 f0 00 00
	00 00		 mov	 DWORD PTR _Gold$[ebp+4], 0
$LN133@Value:

; 2189 : 		}
; 2190 : 	}
; 2191 : 	else if ( this->m_Type == ITEMGET(13,31) ) // Spirit

  04295	e9 24 0b 00 00	 jmp	 $LN37@Value
$LN135@Value:
  0429a	8b 45 fc	 mov	 eax, DWORD PTR _this$[ebp]
  0429d	0f bf 48 06	 movsx	 ecx, WORD PTR [eax+6]
  042a1	81 f9 1f 1a 00
	00		 cmp	 ecx, 6687		; 00001a1fH
  042a7	75 44		 jne	 SHORT $LN129@Value

; 2192 : 	{
; 2193 : 		switch ( this->m_Level )

  042a9	8b 45 fc	 mov	 eax, DWORD PTR _this$[ebp]
  042ac	0f bf 48 08	 movsx	 ecx, WORD PTR [eax+8]
  042b0	89 8d 6c ff ff
	ff		 mov	 DWORD PTR tv476[ebp], ecx
  042b6	83 bd 6c ff ff
	ff 00		 cmp	 DWORD PTR tv476[ebp], 0
  042bd	74 0b		 je	 SHORT $LN126@Value
  042bf	83 bd 6c ff ff
	ff 01		 cmp	 DWORD PTR tv476[ebp], 1
  042c6	74 12		 je	 SHORT $LN125@Value
  042c8	eb 1e		 jmp	 SHORT $LN127@Value
$LN126@Value:

; 2194 : 		{
; 2195 : 			case 0:
; 2196 : 				Gold = 30000000;

  042ca	c7 45 ec 80 c3
	c9 01		 mov	 DWORD PTR _Gold$[ebp], 30000000 ; 01c9c380H
  042d1	c7 45 f0 00 00
	00 00		 mov	 DWORD PTR _Gold$[ebp+4], 0

; 2197 : 				break;

  042d8	eb 0e		 jmp	 SHORT $LN127@Value
$LN125@Value:

; 2198 : 
; 2199 : 			case 1:
; 2200 : 				Gold = 15000000;

  042da	c7 45 ec c0 e1
	e4 00		 mov	 DWORD PTR _Gold$[ebp], 15000000 ; 00e4e1c0H
  042e1	c7 45 f0 00 00
	00 00		 mov	 DWORD PTR _Gold$[ebp+4], 0
$LN127@Value:

; 2201 : 		}
; 2202 : 	}
; 2203 : 	else if ( this->m_Type == ITEMGET(14,28) ) // Lost Map

  042e8	e9 d1 0a 00 00	 jmp	 $LN37@Value
$LN129@Value:
  042ed	8b 45 fc	 mov	 eax, DWORD PTR _this$[ebp]
  042f0	0f bf 48 06	 movsx	 ecx, WORD PTR [eax+6]
  042f4	81 f9 1c 1c 00
	00		 cmp	 ecx, 7196		; 00001c1cH
  042fa	75 13		 jne	 SHORT $LN123@Value

; 2204 : 	{
; 2205 : 		Gold = 600000;

  042fc	c7 45 ec c0 27
	09 00		 mov	 DWORD PTR _Gold$[ebp], 600000 ; 000927c0H
  04303	c7 45 f0 00 00
	00 00		 mov	 DWORD PTR _Gold$[ebp+4], 0
  0430a	e9 af 0a 00 00	 jmp	 $LN37@Value
$LN123@Value:

; 2206 : 	}
; 2207 : 	else if ( this->m_Type == ITEMGET(14,29) ) // Symbol of Kundun

  0430f	8b 45 fc	 mov	 eax, DWORD PTR _this$[ebp]
  04312	0f bf 48 06	 movsx	 ecx, WORD PTR [eax+6]
  04316	81 f9 1d 1c 00
	00		 cmp	 ecx, 7197		; 00001c1dH
  0431c	75 22		 jne	 SHORT $LN121@Value

; 2208 : 	{
; 2209 : 		Gold = (__int64)(((10000.0f) * this->m_Durability) * 3.0f);

  0431e	8b 45 fc	 mov	 eax, DWORD PTR _this$[ebp]
  04321	d9 40 24	 fld	 DWORD PTR [eax+36]
  04324	dc 0d 00 00 00
	00		 fmul	 QWORD PTR __real@40c3880000000000
  0432a	dc 0d 00 00 00
	00		 fmul	 QWORD PTR __real@4008000000000000
  04330	e8 00 00 00 00	 call	 __ftol2
  04335	89 45 ec	 mov	 DWORD PTR _Gold$[ebp], eax
  04338	89 55 f0	 mov	 DWORD PTR _Gold$[ebp+4], edx
  0433b	e9 7e 0a 00 00	 jmp	 $LN37@Value
$LN121@Value:

; 2210 : 	}
; 2211 : 	else if ( this->m_Type == ITEMGET(14,110) ) //Season 5 DoppelGanger

  04340	8b 45 fc	 mov	 eax, DWORD PTR _this$[ebp]
  04343	0f bf 48 06	 movsx	 ecx, WORD PTR [eax+6]
  04347	81 f9 6e 1c 00
	00		 cmp	 ecx, 7278		; 00001c6eH
  0434d	75 39		 jne	 SHORT $LN119@Value

; 2212 : 	{
; 2213 : 		Gold = (__int64)((10000.0f) * this->m_Durability) * 3.0f;

  0434f	8b 45 fc	 mov	 eax, DWORD PTR _this$[ebp]
  04352	d9 40 24	 fld	 DWORD PTR [eax+36]
  04355	dc 0d 00 00 00
	00		 fmul	 QWORD PTR __real@40c3880000000000
  0435b	e8 00 00 00 00	 call	 __ftol2
  04360	89 85 68 ff ff
	ff		 mov	 DWORD PTR tv1452[ebp], eax
  04366	89 95 6c ff ff
	ff		 mov	 DWORD PTR tv1452[ebp+4], edx
  0436c	df ad 68 ff ff
	ff		 fild	 QWORD PTR tv1452[ebp]
  04372	dc 0d 00 00 00
	00		 fmul	 QWORD PTR __real@4008000000000000
  04378	e8 00 00 00 00	 call	 __ftol2
  0437d	89 45 ec	 mov	 DWORD PTR _Gold$[ebp], eax
  04380	89 55 f0	 mov	 DWORD PTR _Gold$[ebp+4], edx
  04383	e9 36 0a 00 00	 jmp	 $LN37@Value
$LN119@Value:

; 2214 : 	}
; 2215 : 	else if ( this->m_Type == ITEMGET(14,101) ) //Season 5 ImperialFort

  04388	8b 45 fc	 mov	 eax, DWORD PTR _this$[ebp]
  0438b	0f bf 48 06	 movsx	 ecx, WORD PTR [eax+6]
  0438f	81 f9 65 1c 00
	00		 cmp	 ecx, 7269		; 00001c65H
  04395	75 39		 jne	 SHORT $LN117@Value

; 2216 : 	{
; 2217 : 		Gold = (__int64)((10000.0f) * this->m_Durability) * 3.0f;

  04397	8b 45 fc	 mov	 eax, DWORD PTR _this$[ebp]
  0439a	d9 40 24	 fld	 DWORD PTR [eax+36]
  0439d	dc 0d 00 00 00
	00		 fmul	 QWORD PTR __real@40c3880000000000
  043a3	e8 00 00 00 00	 call	 __ftol2
  043a8	89 85 68 ff ff
	ff		 mov	 DWORD PTR tv1473[ebp], eax
  043ae	89 95 6c ff ff
	ff		 mov	 DWORD PTR tv1473[ebp+4], edx
  043b4	df ad 68 ff ff
	ff		 fild	 QWORD PTR tv1473[ebp]
  043ba	dc 0d 00 00 00
	00		 fmul	 QWORD PTR __real@4008000000000000
  043c0	e8 00 00 00 00	 call	 __ftol2
  043c5	89 45 ec	 mov	 DWORD PTR _Gold$[ebp], eax
  043c8	89 55 f0	 mov	 DWORD PTR _Gold$[ebp+4], edx

; 2218 : 	}
; 2219 : 	else if ( this->m_Type == ITEMGET(14,45) ||

  043cb	e9 ee 09 00 00	 jmp	 $LN37@Value
$LN117@Value:

; 2220 : 		      this->m_Type == ITEMGET(14,46) ||
; 2221 : 			  this->m_Type == ITEMGET(14,47) ||
; 2222 : 			  this->m_Type == ITEMGET(14,48) ||
; 2223 : 			  this->m_Type == ITEMGET(14,49) ||
; 2224 : 			  this->m_Type == ITEMGET(14,50) )

  043d0	8b 45 fc	 mov	 eax, DWORD PTR _this$[ebp]
  043d3	0f bf 48 06	 movsx	 ecx, WORD PTR [eax+6]
  043d7	81 f9 2d 1c 00
	00		 cmp	 ecx, 7213		; 00001c2dH
  043dd	74 4b		 je	 SHORT $LN114@Value
  043df	8b 45 fc	 mov	 eax, DWORD PTR _this$[ebp]
  043e2	0f bf 48 06	 movsx	 ecx, WORD PTR [eax+6]
  043e6	81 f9 2e 1c 00
	00		 cmp	 ecx, 7214		; 00001c2eH
  043ec	74 3c		 je	 SHORT $LN114@Value
  043ee	8b 45 fc	 mov	 eax, DWORD PTR _this$[ebp]
  043f1	0f bf 48 06	 movsx	 ecx, WORD PTR [eax+6]
  043f5	81 f9 2f 1c 00
	00		 cmp	 ecx, 7215		; 00001c2fH
  043fb	74 2d		 je	 SHORT $LN114@Value
  043fd	8b 45 fc	 mov	 eax, DWORD PTR _this$[ebp]
  04400	0f bf 48 06	 movsx	 ecx, WORD PTR [eax+6]
  04404	81 f9 30 1c 00
	00		 cmp	 ecx, 7216		; 00001c30H
  0440a	74 1e		 je	 SHORT $LN114@Value
  0440c	8b 45 fc	 mov	 eax, DWORD PTR _this$[ebp]
  0440f	0f bf 48 06	 movsx	 ecx, WORD PTR [eax+6]
  04413	81 f9 31 1c 00
	00		 cmp	 ecx, 7217		; 00001c31H
  04419	74 0f		 je	 SHORT $LN114@Value
  0441b	8b 45 fc	 mov	 eax, DWORD PTR _this$[ebp]
  0441e	0f bf 48 06	 movsx	 ecx, WORD PTR [eax+6]
  04422	81 f9 32 1c 00
	00		 cmp	 ecx, 7218		; 00001c32H
  04428	75 22		 jne	 SHORT $LN115@Value
$LN114@Value:

; 2225 : 	{
; 2226 : 		Gold = (__int64)(((50.0f) * this->m_Durability) * 3.0f);

  0442a	8b 45 fc	 mov	 eax, DWORD PTR _this$[ebp]
  0442d	d9 40 24	 fld	 DWORD PTR [eax+36]
  04430	dc 0d 00 00 00
	00		 fmul	 QWORD PTR __real@4049000000000000
  04436	dc 0d 00 00 00
	00		 fmul	 QWORD PTR __real@4008000000000000
  0443c	e8 00 00 00 00	 call	 __ftol2
  04441	89 45 ec	 mov	 DWORD PTR _Gold$[ebp], eax
  04444	89 55 f0	 mov	 DWORD PTR _Gold$[ebp+4], edx
  04447	e9 72 09 00 00	 jmp	 $LN37@Value
$LN115@Value:

; 2227 : 	}
; 2228 : 	else if ( this->m_Type == ITEMGET(12,26) )

  0444c	8b 45 fc	 mov	 eax, DWORD PTR _this$[ebp]
  0444f	0f bf 48 06	 movsx	 ecx, WORD PTR [eax+6]
  04453	81 f9 1a 18 00
	00		 cmp	 ecx, 6170		; 0000181aH
  04459	75 2b		 jne	 SHORT $LN112@Value

; 2229 : 	{
; 2230 : 		switch ( this->m_Level )

  0445b	8b 45 fc	 mov	 eax, DWORD PTR _this$[ebp]
  0445e	0f bf 48 08	 movsx	 ecx, WORD PTR [eax+8]
  04462	89 8d 6c ff ff
	ff		 mov	 DWORD PTR tv546[ebp], ecx
  04468	83 bd 6c ff ff
	ff 00		 cmp	 DWORD PTR tv546[ebp], 0
  0446f	74 02		 je	 SHORT $LN109@Value
  04471	eb 0e		 jmp	 SHORT $LN110@Value
$LN109@Value:

; 2231 : 		{
; 2232 : 			case 0:
; 2233 : 				Gold = 60000;

  04473	c7 45 ec 60 ea
	00 00		 mov	 DWORD PTR _Gold$[ebp], 60000 ; 0000ea60H
  0447a	c7 45 f0 00 00
	00 00		 mov	 DWORD PTR _Gold$[ebp+4], 0
$LN110@Value:

; 2234 : 				break;
; 2235 : 		}
; 2236 : 	}
; 2237 : 	//
; 2238 : 	else if ( this->m_Type == ITEMGET(14,51) ) //Star

  04481	e9 38 09 00 00	 jmp	 $LN37@Value
$LN112@Value:
  04486	8b 45 fc	 mov	 eax, DWORD PTR _this$[ebp]
  04489	0f bf 48 06	 movsx	 ecx, WORD PTR [eax+6]
  0448d	81 f9 33 1c 00
	00		 cmp	 ecx, 7219		; 00001c33H
  04493	75 13		 jne	 SHORT $LN107@Value

; 2239 : 	{
; 2240 : 		Gold = 200000;

  04495	c7 45 ec 40 0d
	03 00		 mov	 DWORD PTR _Gold$[ebp], 200000 ; 00030d40H
  0449c	c7 45 f0 00 00
	00 00		 mov	 DWORD PTR _Gold$[ebp+4], 0

; 2241 : 	}
; 2242 : 	else if ( this->m_Type == ITEMGET(14,55) || //Green Chaos Box (Season 4.5)

  044a3	e9 16 09 00 00	 jmp	 $LN37@Value
$LN107@Value:

; 2243 : 			  this->m_Type == ITEMGET(14,56) || //Red Chaos Box (Season 4.5)
; 2244 : 			  this->m_Type == ITEMGET(14,57) )  //Purple Chaos Box (Season 4.5)

  044a8	8b 45 fc	 mov	 eax, DWORD PTR _this$[ebp]
  044ab	0f bf 48 06	 movsx	 ecx, WORD PTR [eax+6]
  044af	81 f9 37 1c 00
	00		 cmp	 ecx, 7223		; 00001c37H
  044b5	74 1e		 je	 SHORT $LN104@Value
  044b7	8b 45 fc	 mov	 eax, DWORD PTR _this$[ebp]
  044ba	0f bf 48 06	 movsx	 ecx, WORD PTR [eax+6]
  044be	81 f9 38 1c 00
	00		 cmp	 ecx, 7224		; 00001c38H
  044c4	74 0f		 je	 SHORT $LN104@Value
  044c6	8b 45 fc	 mov	 eax, DWORD PTR _this$[ebp]
  044c9	0f bf 48 06	 movsx	 ecx, WORD PTR [eax+6]
  044cd	81 f9 39 1c 00
	00		 cmp	 ecx, 7225		; 00001c39H
  044d3	75 13		 jne	 SHORT $LN105@Value
$LN104@Value:

; 2245 : 	{
; 2246 : 		Gold = 9000;

  044d5	c7 45 ec 28 23
	00 00		 mov	 DWORD PTR _Gold$[ebp], 9000 ; 00002328H
  044dc	c7 45 f0 00 00
	00 00		 mov	 DWORD PTR _Gold$[ebp+4], 0

; 2247 : 	}
; 2248 : 	else if ( this->m_Type == ITEMGET(13,49) || //Illusion Temple Items -> (Old Scroll, Covenant and Scroll of Blood)

  044e3	e9 d6 08 00 00	 jmp	 $LN37@Value
$LN105@Value:

; 2249 : 			  this->m_Type == ITEMGET(13,50) ||
; 2250 : 			  this->m_Type == ITEMGET(13,51) )

  044e8	8b 45 fc	 mov	 eax, DWORD PTR _this$[ebp]
  044eb	0f bf 48 06	 movsx	 ecx, WORD PTR [eax+6]
  044ef	81 f9 31 1a 00
	00		 cmp	 ecx, 6705		; 00001a31H
  044f5	74 22		 je	 SHORT $LN101@Value
  044f7	8b 45 fc	 mov	 eax, DWORD PTR _this$[ebp]
  044fa	0f bf 48 06	 movsx	 ecx, WORD PTR [eax+6]
  044fe	81 f9 32 1a 00
	00		 cmp	 ecx, 6706		; 00001a32H
  04504	74 13		 je	 SHORT $LN101@Value
  04506	8b 45 fc	 mov	 eax, DWORD PTR _this$[ebp]
  04509	0f bf 48 06	 movsx	 ecx, WORD PTR [eax+6]
  0450d	81 f9 33 1a 00
	00		 cmp	 ecx, 6707		; 00001a33H
  04513	0f 85 a5 00 00
	00		 jne	 $LN102@Value
$LN101@Value:

; 2251 : 	{
; 2252 : 		switch ( this->m_Level )

  04519	8b 45 fc	 mov	 eax, DWORD PTR _this$[ebp]
  0451c	0f bf 48 08	 movsx	 ecx, WORD PTR [eax+8]
  04520	89 8d 6c ff ff
	ff		 mov	 DWORD PTR tv571[ebp], ecx
  04526	8b 95 6c ff ff
	ff		 mov	 edx, DWORD PTR tv571[ebp]
  0452c	83 ea 01	 sub	 edx, 1
  0452f	89 95 6c ff ff
	ff		 mov	 DWORD PTR tv571[ebp], edx
  04535	83 bd 6c ff ff
	ff 05		 cmp	 DWORD PTR tv571[ebp], 5
  0453c	77 6d		 ja	 SHORT $LN92@Value
  0453e	8b 85 6c ff ff
	ff		 mov	 eax, DWORD PTR tv571[ebp]
  04544	ff 24 85 00 00
	00 00		 jmp	 DWORD PTR $LN320@Value[eax*4]
$LN98@Value:

; 2253 : 		{
; 2254 : 			case 1:
; 2255 : 				Gold = 500000;

  0454b	c7 45 ec 20 a1
	07 00		 mov	 DWORD PTR _Gold$[ebp], 500000 ; 0007a120H
  04552	c7 45 f0 00 00
	00 00		 mov	 DWORD PTR _Gold$[ebp+4], 0

; 2256 : 				break;

  04559	eb 5e		 jmp	 SHORT $LN99@Value
$LN97@Value:

; 2257 : 				//season 4 add-on
; 2258 : 			case 2:
; 2259 : 				Gold = 600000;

  0455b	c7 45 ec c0 27
	09 00		 mov	 DWORD PTR _Gold$[ebp], 600000 ; 000927c0H
  04562	c7 45 f0 00 00
	00 00		 mov	 DWORD PTR _Gold$[ebp+4], 0

; 2260 : 				break;

  04569	eb 4e		 jmp	 SHORT $LN99@Value
$LN96@Value:

; 2261 : 			case 3:
; 2262 : 				Gold = 800000;

  0456b	c7 45 ec 00 35
	0c 00		 mov	 DWORD PTR _Gold$[ebp], 800000 ; 000c3500H
  04572	c7 45 f0 00 00
	00 00		 mov	 DWORD PTR _Gold$[ebp+4], 0

; 2263 : 				break;

  04579	eb 3e		 jmp	 SHORT $LN99@Value
$LN95@Value:

; 2264 : 			case 4:
; 2265 : 				Gold = 1000000;

  0457b	c7 45 ec 40 42
	0f 00		 mov	 DWORD PTR _Gold$[ebp], 1000000 ; 000f4240H
  04582	c7 45 f0 00 00
	00 00		 mov	 DWORD PTR _Gold$[ebp+4], 0

; 2266 : 				break;

  04589	eb 2e		 jmp	 SHORT $LN99@Value
$LN94@Value:

; 2267 : 			case 5:
; 2268 : 				Gold = 1200000;

  0458b	c7 45 ec 80 4f
	12 00		 mov	 DWORD PTR _Gold$[ebp], 1200000 ; 00124f80H
  04592	c7 45 f0 00 00
	00 00		 mov	 DWORD PTR _Gold$[ebp+4], 0

; 2269 : 				break;

  04599	eb 1e		 jmp	 SHORT $LN99@Value
$LN93@Value:

; 2270 : 			case 6:
; 2271 : 				Gold = 1400000;

  0459b	c7 45 ec c0 5c
	15 00		 mov	 DWORD PTR _Gold$[ebp], 1400000 ; 00155cc0H
  045a2	c7 45 f0 00 00
	00 00		 mov	 DWORD PTR _Gold$[ebp+4], 0

; 2272 : 				break;

  045a9	eb 0e		 jmp	 SHORT $LN99@Value
$LN92@Value:

; 2273 : 			default:
; 2274 : 				Gold = 9000;

  045ab	c7 45 ec 28 23
	00 00		 mov	 DWORD PTR _Gold$[ebp], 9000 ; 00002328H
  045b2	c7 45 f0 00 00
	00 00		 mov	 DWORD PTR _Gold$[ebp+4], 0
$LN99@Value:

; 2275 : 				break;
; 2276 : 		}
; 2277 : 	}
; 2278 : 	else if ( this->m_Type == ITEMGET(13,52) || //Condor Flame and Condor Feather

  045b9	e9 00 08 00 00	 jmp	 $LN37@Value
$LN102@Value:

; 2279 : 			  this->m_Type == ITEMGET(13,53) )

  045be	8b 45 fc	 mov	 eax, DWORD PTR _this$[ebp]
  045c1	0f bf 48 06	 movsx	 ecx, WORD PTR [eax+6]
  045c5	81 f9 34 1a 00
	00		 cmp	 ecx, 6708		; 00001a34H
  045cb	74 0f		 je	 SHORT $LN89@Value
  045cd	8b 45 fc	 mov	 eax, DWORD PTR _this$[ebp]
  045d0	0f bf 48 06	 movsx	 ecx, WORD PTR [eax+6]
  045d4	81 f9 35 1a 00
	00		 cmp	 ecx, 6709		; 00001a35H
  045da	75 13		 jne	 SHORT $LN90@Value
$LN89@Value:

; 2280 : 	{
; 2281 : 		Gold = 3000000;

  045dc	c7 45 ec c0 c6
	2d 00		 mov	 DWORD PTR _Gold$[ebp], 3000000 ; 002dc6c0H
  045e3	c7 45 f0 00 00
	00 00		 mov	 DWORD PTR _Gold$[ebp+4], 0

; 2282 : 	}
; 2283 : 	else if ( this->m_Type == ITEMGET(14,23) || //Quest Items since Second Evolution

  045ea	e9 cf 07 00 00	 jmp	 $LN37@Value
$LN90@Value:

; 2284 : 			  this->m_Type == ITEMGET(14,24) ||
; 2285 : 			  this->m_Type == ITEMGET(14,25) ||
; 2286 : 			  this->m_Type == ITEMGET(14,26) ||
; 2287 : 			  this->m_Type == ITEMGET(14,65) ||
; 2288 : 			  this->m_Type == ITEMGET(14,66) ||
; 2289 : 			  this->m_Type == ITEMGET(14,67) ||
; 2290 : 			  this->m_Type == ITEMGET(14,68))

  045ef	8b 45 fc	 mov	 eax, DWORD PTR _this$[ebp]
  045f2	0f bf 48 06	 movsx	 ecx, WORD PTR [eax+6]
  045f6	81 f9 17 1c 00
	00		 cmp	 ecx, 7191		; 00001c17H
  045fc	74 69		 je	 SHORT $LN86@Value
  045fe	8b 45 fc	 mov	 eax, DWORD PTR _this$[ebp]
  04601	0f bf 48 06	 movsx	 ecx, WORD PTR [eax+6]
  04605	81 f9 18 1c 00
	00		 cmp	 ecx, 7192		; 00001c18H
  0460b	74 5a		 je	 SHORT $LN86@Value
  0460d	8b 45 fc	 mov	 eax, DWORD PTR _this$[ebp]
  04610	0f bf 48 06	 movsx	 ecx, WORD PTR [eax+6]
  04614	81 f9 19 1c 00
	00		 cmp	 ecx, 7193		; 00001c19H
  0461a	74 4b		 je	 SHORT $LN86@Value
  0461c	8b 45 fc	 mov	 eax, DWORD PTR _this$[ebp]
  0461f	0f bf 48 06	 movsx	 ecx, WORD PTR [eax+6]
  04623	81 f9 1a 1c 00
	00		 cmp	 ecx, 7194		; 00001c1aH
  04629	74 3c		 je	 SHORT $LN86@Value
  0462b	8b 45 fc	 mov	 eax, DWORD PTR _this$[ebp]
  0462e	0f bf 48 06	 movsx	 ecx, WORD PTR [eax+6]
  04632	81 f9 41 1c 00
	00		 cmp	 ecx, 7233		; 00001c41H
  04638	74 2d		 je	 SHORT $LN86@Value
  0463a	8b 45 fc	 mov	 eax, DWORD PTR _this$[ebp]
  0463d	0f bf 48 06	 movsx	 ecx, WORD PTR [eax+6]
  04641	81 f9 42 1c 00
	00		 cmp	 ecx, 7234		; 00001c42H
  04647	74 1e		 je	 SHORT $LN86@Value
  04649	8b 45 fc	 mov	 eax, DWORD PTR _this$[ebp]
  0464c	0f bf 48 06	 movsx	 ecx, WORD PTR [eax+6]
  04650	81 f9 43 1c 00
	00		 cmp	 ecx, 7235		; 00001c43H
  04656	74 0f		 je	 SHORT $LN86@Value
  04658	8b 45 fc	 mov	 eax, DWORD PTR _this$[ebp]
  0465b	0f bf 48 06	 movsx	 ecx, WORD PTR [eax+6]
  0465f	81 f9 44 1c 00
	00		 cmp	 ecx, 7236		; 00001c44H
  04665	75 13		 jne	 SHORT $LN87@Value
$LN86@Value:

; 2291 : 	{
; 2292 : 		Gold = 9000;

  04667	c7 45 ec 28 23
	00 00		 mov	 DWORD PTR _Gold$[ebp], 9000 ; 00002328H
  0466e	c7 45 f0 00 00
	00 00		 mov	 DWORD PTR _Gold$[ebp+4], 0
  04675	e9 44 07 00 00	 jmp	 $LN37@Value
$LN87@Value:

; 2293 : 	}
; 2294 : 	//
; 2295 : 	else if ( p->Value > 0 )

  0467a	8b 45 f8	 mov	 eax, DWORD PTR _p$[ebp]
  0467d	0f b7 48 3c	 movzx	 ecx, WORD PTR [eax+60]
  04681	85 c9		 test	 ecx, ecx
  04683	0f 8e 43 01 00
	00		 jle	 $LN84@Value

; 2296 : 	{
; 2297 : 		Gold += (p->Value * p->Value * 10)/12;

  04689	8b 45 f8	 mov	 eax, DWORD PTR _p$[ebp]
  0468c	0f b7 40 3c	 movzx	 eax, WORD PTR [eax+60]
  04690	8b 4d f8	 mov	 ecx, DWORD PTR _p$[ebp]
  04693	0f b7 51 3c	 movzx	 edx, WORD PTR [ecx+60]
  04697	0f af c2	 imul	 eax, edx
  0469a	6b c0 0a	 imul	 eax, 10			; 0000000aH
  0469d	99		 cdq
  0469e	b9 0c 00 00 00	 mov	 ecx, 12			; 0000000cH
  046a3	f7 f9		 idiv	 ecx
  046a5	99		 cdq
  046a6	03 45 ec	 add	 eax, DWORD PTR _Gold$[ebp]
  046a9	13 55 f0	 adc	 edx, DWORD PTR _Gold$[ebp+4]
  046ac	89 45 ec	 mov	 DWORD PTR _Gold$[ebp], eax
  046af	89 55 f0	 mov	 DWORD PTR _Gold$[ebp+4], edx

; 2298 : 
; 2299 : 		if ( this->m_Type >= ITEMGET(14,0) && this->m_Type <= ITEMGET(14,8) )	// Potions + Antidote

  046b2	8b 45 fc	 mov	 eax, DWORD PTR _this$[ebp]
  046b5	0f bf 48 06	 movsx	 ecx, WORD PTR [eax+6]
  046b9	81 f9 00 1c 00
	00		 cmp	 ecx, 7168		; 00001c00H
  046bf	0f 8c 02 01 00
	00		 jl	 $LN83@Value
  046c5	8b 45 fc	 mov	 eax, DWORD PTR _this$[ebp]
  046c8	0f bf 48 06	 movsx	 ecx, WORD PTR [eax+6]
  046cc	81 f9 08 1c 00
	00		 cmp	 ecx, 7176		; 00001c08H
  046d2	0f 8f ef 00 00
	00		 jg	 $LN83@Value

; 2300 : 		{
; 2301 : 			if( this->m_Type == ITEMGET(14,3) || this->m_Type == ITEMGET(14,6) ) //season4 add-on

  046d8	8b 45 fc	 mov	 eax, DWORD PTR _this$[ebp]
  046db	0f bf 48 06	 movsx	 ecx, WORD PTR [eax+6]
  046df	81 f9 03 1c 00
	00		 cmp	 ecx, 7171		; 00001c03H
  046e5	74 0f		 je	 SHORT $LN81@Value
  046e7	8b 45 fc	 mov	 eax, DWORD PTR _this$[ebp]
  046ea	0f bf 48 06	 movsx	 ecx, WORD PTR [eax+6]
  046ee	81 f9 06 1c 00
	00		 cmp	 ecx, 7174		; 00001c06H
  046f4	75 17		 jne	 SHORT $LN82@Value
$LN81@Value:

; 2302 : 			{
; 2303 : 				Gold *= 2; 

  046f6	6a 00		 push	 0
  046f8	6a 02		 push	 2
  046fa	8b 45 f0	 mov	 eax, DWORD PTR _Gold$[ebp+4]
  046fd	50		 push	 eax
  046fe	8b 4d ec	 mov	 ecx, DWORD PTR _Gold$[ebp]
  04701	51		 push	 ecx
  04702	e8 00 00 00 00	 call	 __allmul
  04707	89 45 ec	 mov	 DWORD PTR _Gold$[ebp], eax
  0470a	89 55 f0	 mov	 DWORD PTR _Gold$[ebp+4], edx
$LN82@Value:

; 2304 : 			}
; 2305 : 
; 2306 : 			if ( this->m_Level > 0 )

  0470d	8b 45 fc	 mov	 eax, DWORD PTR _this$[ebp]
  04710	0f bf 48 08	 movsx	 ecx, WORD PTR [eax+8]
  04714	85 c9		 test	 ecx, ecx
  04716	7e 30		 jle	 SHORT $LN80@Value

; 2307 : 			{
; 2308 : 				Gold *= (__int64)(pow(2.0f, Level)) ;

  04718	8b 45 f4	 mov	 eax, DWORD PTR _Level$[ebp]
  0471b	50		 push	 eax
  0471c	51		 push	 ecx
  0471d	d9 05 00 00 00
	00		 fld	 DWORD PTR __real@40000000
  04723	d9 1c 24	 fstp	 DWORD PTR [esp]
  04726	e8 00 00 00 00	 call	 ?pow@@YAMMH@Z		; pow
  0472b	83 c4 08	 add	 esp, 8
  0472e	e8 00 00 00 00	 call	 __ftol2
  04733	52		 push	 edx
  04734	50		 push	 eax
  04735	8b 4d f0	 mov	 ecx, DWORD PTR _Gold$[ebp+4]
  04738	51		 push	 ecx
  04739	8b 55 ec	 mov	 edx, DWORD PTR _Gold$[ebp]
  0473c	52		 push	 edx
  0473d	e8 00 00 00 00	 call	 __allmul
  04742	89 45 ec	 mov	 DWORD PTR _Gold$[ebp], eax
  04745	89 55 f0	 mov	 DWORD PTR _Gold$[ebp+4], edx
$LN80@Value:

; 2309 : 			}
; 2310 : 
; 2311 : 			Gold = Gold/10*10;

  04748	6a 00		 push	 0
  0474a	6a 0a		 push	 10			; 0000000aH
  0474c	8b 45 f0	 mov	 eax, DWORD PTR _Gold$[ebp+4]
  0474f	50		 push	 eax
  04750	8b 4d ec	 mov	 ecx, DWORD PTR _Gold$[ebp]
  04753	51		 push	 ecx
  04754	e8 00 00 00 00	 call	 __alldiv
  04759	6a 00		 push	 0
  0475b	6a 0a		 push	 10			; 0000000aH
  0475d	52		 push	 edx
  0475e	50		 push	 eax
  0475f	e8 00 00 00 00	 call	 __allmul
  04764	89 45 ec	 mov	 DWORD PTR _Gold$[ebp], eax
  04767	89 55 f0	 mov	 DWORD PTR _Gold$[ebp+4], edx

; 2312 : 			Gold *= (__int64)this->m_Durability;

  0476a	8b 45 fc	 mov	 eax, DWORD PTR _this$[ebp]
  0476d	d9 40 24	 fld	 DWORD PTR [eax+36]
  04770	e8 00 00 00 00	 call	 __ftol2
  04775	52		 push	 edx
  04776	50		 push	 eax
  04777	8b 4d f0	 mov	 ecx, DWORD PTR _Gold$[ebp+4]
  0477a	51		 push	 ecx
  0477b	8b 55 ec	 mov	 edx, DWORD PTR _Gold$[ebp]
  0477e	52		 push	 edx
  0477f	e8 00 00 00 00	 call	 __allmul
  04784	89 45 ec	 mov	 DWORD PTR _Gold$[ebp], eax
  04787	89 55 f0	 mov	 DWORD PTR _Gold$[ebp+4], edx

; 2313 : 			this->m_BuyMoney = Gold;

  0478a	8b 45 ec	 mov	 eax, DWORD PTR _Gold$[ebp]
  0478d	8b 4d fc	 mov	 ecx, DWORD PTR _this$[ebp]
  04790	89 41 70	 mov	 DWORD PTR [ecx+112], eax

; 2314 : 			this->m_SellMoney = Gold/3;

  04793	6a 00		 push	 0
  04795	6a 03		 push	 3
  04797	8b 45 f0	 mov	 eax, DWORD PTR _Gold$[ebp+4]
  0479a	50		 push	 eax
  0479b	8b 4d ec	 mov	 ecx, DWORD PTR _Gold$[ebp]
  0479e	51		 push	 ecx
  0479f	e8 00 00 00 00	 call	 __alldiv
  047a4	8b 55 fc	 mov	 edx, DWORD PTR _this$[ebp]
  047a7	89 42 6c	 mov	 DWORD PTR [edx+108], eax

; 2315 : 			this->m_SellMoney = this->m_SellMoney/10*10;

  047aa	8b 45 fc	 mov	 eax, DWORD PTR _this$[ebp]
  047ad	8b 40 6c	 mov	 eax, DWORD PTR [eax+108]
  047b0	33 d2		 xor	 edx, edx
  047b2	b9 0a 00 00 00	 mov	 ecx, 10			; 0000000aH
  047b7	f7 f1		 div	 ecx
  047b9	6b c0 0a	 imul	 eax, 10			; 0000000aH
  047bc	8b 55 fc	 mov	 edx, DWORD PTR _this$[ebp]
  047bf	89 42 6c	 mov	 DWORD PTR [edx+108], eax

; 2316 : 			return;

  047c2	e9 77 0a 00 00	 jmp	 $LN311@Value
$LN83@Value:

; 2317 : 		}
; 2318 : 	}

  047c7	e9 f2 05 00 00	 jmp	 $LN37@Value
$LN84@Value:

; 2319 : #ifdef NEWWINGS_6
; 2320 : 	else if ( (Type == 12 && this->m_Type > ITEMGET(12,6) && (this->m_Type < ITEMGET(12,36) && this->m_Type > ITEMGET(12,43)) && (this->m_Type < ITEMGET(12,180) && this->m_Type > ITEMGET(12,220)) ) || Type == 13 || Type == 15 )	//196

  047cc	83 7d e8 0c	 cmp	 DWORD PTR _Type$[ebp], 12 ; 0000000cH
  047d0	75 4b		 jne	 SHORT $LN75@Value
  047d2	8b 45 fc	 mov	 eax, DWORD PTR _this$[ebp]
  047d5	0f bf 48 06	 movsx	 ecx, WORD PTR [eax+6]
  047d9	81 f9 06 18 00
	00		 cmp	 ecx, 6150		; 00001806H
  047df	7e 3c		 jle	 SHORT $LN75@Value
  047e1	8b 45 fc	 mov	 eax, DWORD PTR _this$[ebp]
  047e4	0f bf 48 06	 movsx	 ecx, WORD PTR [eax+6]
  047e8	81 f9 24 18 00
	00		 cmp	 ecx, 6180		; 00001824H
  047ee	7d 2d		 jge	 SHORT $LN75@Value
  047f0	8b 45 fc	 mov	 eax, DWORD PTR _this$[ebp]
  047f3	0f bf 48 06	 movsx	 ecx, WORD PTR [eax+6]
  047f7	81 f9 2b 18 00
	00		 cmp	 ecx, 6187		; 0000182bH
  047fd	7e 1e		 jle	 SHORT $LN75@Value
  047ff	8b 45 fc	 mov	 eax, DWORD PTR _this$[ebp]
  04802	0f bf 48 06	 movsx	 ecx, WORD PTR [eax+6]
  04806	81 f9 b4 18 00
	00		 cmp	 ecx, 6324		; 000018b4H
  0480c	7d 0f		 jge	 SHORT $LN75@Value
  0480e	8b 45 fc	 mov	 eax, DWORD PTR _this$[ebp]
  04811	0f bf 48 06	 movsx	 ecx, WORD PTR [eax+6]
  04815	81 f9 dc 18 00
	00		 cmp	 ecx, 6364		; 000018dcH
  0481b	7f 0c		 jg	 SHORT $LN77@Value
$LN75@Value:
  0481d	83 7d e8 0d	 cmp	 DWORD PTR _Type$[ebp], 13 ; 0000000dH
  04821	74 06		 je	 SHORT $LN77@Value
  04823	83 7d e8 0f	 cmp	 DWORD PTR _Type$[ebp], 15 ; 0000000fH
  04827	75 7c		 jne	 SHORT $LN78@Value
$LN77@Value:

; 2321 : #else
; 2322 : 	else if ( (Type == 12 && this->m_Type > ITEMGET(12,6) && (this->m_Type < ITEMGET(12,36) && this->m_Type > ITEMGET(12,43)) && (this->m_Type < ITEMGET(12,180) && this->m_Type > ITEMGET(12,194)) ) || Type == 13 || Type == 15 )
; 2323 : #endif
; 2324 : 	{
; 2325 : 		Gold = Level2*Level2*Level2+100;

  04829	8b 45 e4	 mov	 eax, DWORD PTR _Level2$[ebp]
  0482c	0f af 45 e4	 imul	 eax, DWORD PTR _Level2$[ebp]
  04830	0f af 45 e4	 imul	 eax, DWORD PTR _Level2$[ebp]
  04834	83 c0 64	 add	 eax, 100		; 00000064H
  04837	99		 cdq
  04838	89 45 ec	 mov	 DWORD PTR _Gold$[ebp], eax
  0483b	89 55 f0	 mov	 DWORD PTR _Gold$[ebp+4], edx

; 2326 : 
; 2327 : 		for (int u=0;u<this->m_SpecialNum;u++)

  0483e	c7 45 cc 00 00
	00 00		 mov	 DWORD PTR _u$231253[ebp], 0
  04845	eb 09		 jmp	 SHORT $LN74@Value
$LN73@Value:
  04847	8b 45 cc	 mov	 eax, DWORD PTR _u$231253[ebp]
  0484a	83 c0 01	 add	 eax, 1
  0484d	89 45 cc	 mov	 DWORD PTR _u$231253[ebp], eax
$LN74@Value:
  04850	8b 45 fc	 mov	 eax, DWORD PTR _this$[ebp]
  04853	0f b6 48 30	 movzx	 ecx, BYTE PTR [eax+48]
  04857	39 4d cc	 cmp	 DWORD PTR _u$231253[ebp], ecx
  0485a	7d 44		 jge	 SHORT $LN72@Value

; 2328 : 		{
; 2329 : 			switch ( this->m_Special[u] )

  0485c	8b 45 cc	 mov	 eax, DWORD PTR _u$231253[ebp]
  0485f	8b 4d fc	 mov	 ecx, DWORD PTR _this$[ebp]
  04862	0f b7 54 41 32	 movzx	 edx, WORD PTR [ecx+eax*2+50]
  04867	89 95 6c ff ff
	ff		 mov	 DWORD PTR tv682[ebp], edx
  0486d	83 bd 6c ff ff
	ff 55		 cmp	 DWORD PTR tv682[ebp], 85 ; 00000055H
  04874	74 02		 je	 SHORT $LN69@Value
  04876	eb 26		 jmp	 SHORT $LN70@Value
$LN69@Value:

; 2330 : 			{
; 2331 : 				case 0x55:
; 2332 : 					Gold += Gold*this->m_Option3;

  04878	8b 45 fc	 mov	 eax, DWORD PTR _this$[ebp]
  0487b	0f b6 80 96 00
	00 00		 movzx	 eax, BYTE PTR [eax+150]
  04882	99		 cdq
  04883	52		 push	 edx
  04884	50		 push	 eax
  04885	8b 4d f0	 mov	 ecx, DWORD PTR _Gold$[ebp+4]
  04888	51		 push	 ecx
  04889	8b 55 ec	 mov	 edx, DWORD PTR _Gold$[ebp]
  0488c	52		 push	 edx
  0488d	e8 00 00 00 00	 call	 __allmul
  04892	03 45 ec	 add	 eax, DWORD PTR _Gold$[ebp]
  04895	13 55 f0	 adc	 edx, DWORD PTR _Gold$[ebp+4]
  04898	89 45 ec	 mov	 DWORD PTR _Gold$[ebp], eax
  0489b	89 55 f0	 mov	 DWORD PTR _Gold$[ebp+4], edx
$LN70@Value:

; 2333 : 			}
; 2334 : 		}

  0489e	eb a7		 jmp	 SHORT $LN73@Value
$LN72@Value:

; 2335 : 	}
; 2336 : 	//
; 2337 : 	else if ( this->m_Type == ITEMGET(14,63) ) //Season 2.5 Firecreacker (from Natasha Seller)

  048a0	e9 19 05 00 00	 jmp	 $LN37@Value
$LN78@Value:
  048a5	8b 45 fc	 mov	 eax, DWORD PTR _this$[ebp]
  048a8	0f bf 48 06	 movsx	 ecx, WORD PTR [eax+6]
  048ac	81 f9 3f 1c 00
	00		 cmp	 ecx, 7231		; 00001c3fH
  048b2	75 13		 jne	 SHORT $LN67@Value

; 2338 : 	{
; 2339 : 		Gold = 200000;

  048b4	c7 45 ec 40 0d
	03 00		 mov	 DWORD PTR _Gold$[ebp], 200000 ; 00030d40H
  048bb	c7 45 f0 00 00
	00 00		 mov	 DWORD PTR _Gold$[ebp+4], 0

; 2340 : 	}
; 2341 : 	//
; 2342 : 	else if ( this->m_Type == ITEMGET(14,85) || //Season 4 fix

  048c2	e9 f7 04 00 00	 jmp	 $LN37@Value
$LN67@Value:

; 2343 : 			  this->m_Type == ITEMGET(14,86) ||
; 2344 : 			  this->m_Type == ITEMGET(14,87) ||
; 2345 : 			  this->m_Type == ITEMGET(14,90)) 

  048c7	8b 45 fc	 mov	 eax, DWORD PTR _this$[ebp]
  048ca	0f bf 48 06	 movsx	 ecx, WORD PTR [eax+6]
  048ce	81 f9 55 1c 00
	00		 cmp	 ecx, 7253		; 00001c55H
  048d4	74 2d		 je	 SHORT $LN64@Value
  048d6	8b 45 fc	 mov	 eax, DWORD PTR _this$[ebp]
  048d9	0f bf 48 06	 movsx	 ecx, WORD PTR [eax+6]
  048dd	81 f9 56 1c 00
	00		 cmp	 ecx, 7254		; 00001c56H
  048e3	74 1e		 je	 SHORT $LN64@Value
  048e5	8b 45 fc	 mov	 eax, DWORD PTR _this$[ebp]
  048e8	0f bf 48 06	 movsx	 ecx, WORD PTR [eax+6]
  048ec	81 f9 57 1c 00
	00		 cmp	 ecx, 7255		; 00001c57H
  048f2	74 0f		 je	 SHORT $LN64@Value
  048f4	8b 45 fc	 mov	 eax, DWORD PTR _this$[ebp]
  048f7	0f bf 48 06	 movsx	 ecx, WORD PTR [eax+6]
  048fb	81 f9 5a 1c 00
	00		 cmp	 ecx, 7258		; 00001c5aH
  04901	75 1d		 jne	 SHORT $LN65@Value
$LN64@Value:

; 2346 : 	{
; 2347 : 		Gold = (int)this->m_Durability * 300;

  04903	8b 45 fc	 mov	 eax, DWORD PTR _this$[ebp]
  04906	d9 40 24	 fld	 DWORD PTR [eax+36]
  04909	e8 00 00 00 00	 call	 __ftol2_sse
  0490e	69 c0 2c 01 00
	00		 imul	 eax, 300		; 0000012cH
  04914	99		 cdq
  04915	89 45 ec	 mov	 DWORD PTR _Gold$[ebp], eax
  04918	89 55 f0	 mov	 DWORD PTR _Gold$[ebp+4], edx

; 2348 : 	}
; 2349 : 	else

  0491b	e9 9e 04 00 00	 jmp	 $LN37@Value
$LN65@Value:

; 2350 : 	{
; 2351 : 		switch ( this->m_Level )

  04920	8b 45 fc	 mov	 eax, DWORD PTR _this$[ebp]
  04923	0f bf 48 08	 movsx	 ecx, WORD PTR [eax+8]
  04927	89 8d 6c ff ff
	ff		 mov	 DWORD PTR tv710[ebp], ecx
  0492d	8b 95 6c ff ff
	ff		 mov	 edx, DWORD PTR tv710[ebp]
  04933	83 ea 05	 sub	 edx, 5
  04936	89 95 6c ff ff
	ff		 mov	 DWORD PTR tv710[ebp], edx
  0493c	83 bd 6c ff ff
	ff 08		 cmp	 DWORD PTR tv710[ebp], 8
  04943	77 74		 ja	 SHORT $LN61@Value
  04945	8b 85 6c ff ff
	ff		 mov	 eax, DWORD PTR tv710[ebp]
  0494b	ff 24 85 00 00
	00 00		 jmp	 DWORD PTR $LN321@Value[eax*4]
$LN60@Value:

; 2352 : 		{
; 2353 : 			case  5:	Level2 +=   4;	break;

  04952	8b 45 e4	 mov	 eax, DWORD PTR _Level2$[ebp]
  04955	83 c0 04	 add	 eax, 4
  04958	89 45 e4	 mov	 DWORD PTR _Level2$[ebp], eax
  0495b	eb 5c		 jmp	 SHORT $LN61@Value
$LN59@Value:

; 2354 : 			case  6:	Level2 +=  10;	break;

  0495d	8b 45 e4	 mov	 eax, DWORD PTR _Level2$[ebp]
  04960	83 c0 0a	 add	 eax, 10			; 0000000aH
  04963	89 45 e4	 mov	 DWORD PTR _Level2$[ebp], eax
  04966	eb 51		 jmp	 SHORT $LN61@Value
$LN58@Value:

; 2355 : 			case  7:	Level2 +=  25;	break;

  04968	8b 45 e4	 mov	 eax, DWORD PTR _Level2$[ebp]
  0496b	83 c0 19	 add	 eax, 25			; 00000019H
  0496e	89 45 e4	 mov	 DWORD PTR _Level2$[ebp], eax
  04971	eb 46		 jmp	 SHORT $LN61@Value
$LN57@Value:

; 2356 : 			case  8:	Level2 +=  45;	break;

  04973	8b 45 e4	 mov	 eax, DWORD PTR _Level2$[ebp]
  04976	83 c0 2d	 add	 eax, 45			; 0000002dH
  04979	89 45 e4	 mov	 DWORD PTR _Level2$[ebp], eax
  0497c	eb 3b		 jmp	 SHORT $LN61@Value
$LN56@Value:

; 2357 : 			case  9:	Level2 +=  65;	break;

  0497e	8b 45 e4	 mov	 eax, DWORD PTR _Level2$[ebp]
  04981	83 c0 41	 add	 eax, 65			; 00000041H
  04984	89 45 e4	 mov	 DWORD PTR _Level2$[ebp], eax
  04987	eb 30		 jmp	 SHORT $LN61@Value
$LN55@Value:

; 2358 : 			case 10:	Level2 +=  95;	break;

  04989	8b 45 e4	 mov	 eax, DWORD PTR _Level2$[ebp]
  0498c	83 c0 5f	 add	 eax, 95			; 0000005fH
  0498f	89 45 e4	 mov	 DWORD PTR _Level2$[ebp], eax
  04992	eb 25		 jmp	 SHORT $LN61@Value
$LN54@Value:

; 2359 : 			case 11:	Level2 += 135;	break;

  04994	8b 45 e4	 mov	 eax, DWORD PTR _Level2$[ebp]
  04997	05 87 00 00 00	 add	 eax, 135		; 00000087H
  0499c	89 45 e4	 mov	 DWORD PTR _Level2$[ebp], eax
  0499f	eb 18		 jmp	 SHORT $LN61@Value
$LN53@Value:

; 2360 : 			case 12:	Level2 += 185;	break;

  049a1	8b 45 e4	 mov	 eax, DWORD PTR _Level2$[ebp]
  049a4	05 b9 00 00 00	 add	 eax, 185		; 000000b9H
  049a9	89 45 e4	 mov	 DWORD PTR _Level2$[ebp], eax
  049ac	eb 0b		 jmp	 SHORT $LN61@Value
$LN52@Value:

; 2361 : 			case 13:	Level2 += 245;	break;

  049ae	8b 45 e4	 mov	 eax, DWORD PTR _Level2$[ebp]
  049b1	05 f5 00 00 00	 add	 eax, 245		; 000000f5H
  049b6	89 45 e4	 mov	 DWORD PTR _Level2$[ebp], eax
$LN61@Value:

; 2362 : 		}
; 2363 : 
; 2364 : 		if ( Type == 12 && this->m_Type <= ITEMGET(12,6) )	// Wings

  049b9	83 7d e8 0c	 cmp	 DWORD PTR _Type$[ebp], 12 ; 0000000cH
  049bd	75 31		 jne	 SHORT $LN51@Value
  049bf	8b 45 fc	 mov	 eax, DWORD PTR _this$[ebp]
  049c2	0f bf 48 06	 movsx	 ecx, WORD PTR [eax+6]
  049c6	81 f9 06 18 00
	00		 cmp	 ecx, 6150		; 00001806H
  049cc	7f 22		 jg	 SHORT $LN51@Value

; 2365 : 		{
; 2366 : 			Gold = (Level2+40)*Level2*Level2*11+40000000;

  049ce	8b 45 e4	 mov	 eax, DWORD PTR _Level2$[ebp]
  049d1	83 c0 28	 add	 eax, 40			; 00000028H
  049d4	0f af 45 e4	 imul	 eax, DWORD PTR _Level2$[ebp]
  049d8	0f af 45 e4	 imul	 eax, DWORD PTR _Level2$[ebp]
  049dc	6b c0 0b	 imul	 eax, 11			; 0000000bH
  049df	05 00 5a 62 02	 add	 eax, 40000000		; 02625a00H
  049e4	99		 cdq
  049e5	89 45 ec	 mov	 DWORD PTR _Gold$[ebp], eax
  049e8	89 55 f0	 mov	 DWORD PTR _Gold$[ebp+4], edx
  049eb	e9 33 01 00 00	 jmp	 $LN42@Value
$LN51@Value:

; 2367 : 		}
; 2368 : 		else if( Type == 12 && (this->m_Type >= ITEMGET(12,36) && this->m_Type <= ITEMGET(12,40)) ) //Third Wings

  049f0	83 7d e8 0c	 cmp	 DWORD PTR _Type$[ebp], 12 ; 0000000cH
  049f4	75 40		 jne	 SHORT $LN49@Value
  049f6	8b 45 fc	 mov	 eax, DWORD PTR _this$[ebp]
  049f9	0f bf 48 06	 movsx	 ecx, WORD PTR [eax+6]
  049fd	81 f9 24 18 00
	00		 cmp	 ecx, 6180		; 00001824H
  04a03	7c 31		 jl	 SHORT $LN49@Value
  04a05	8b 45 fc	 mov	 eax, DWORD PTR _this$[ebp]
  04a08	0f bf 48 06	 movsx	 ecx, WORD PTR [eax+6]
  04a0c	81 f9 28 18 00
	00		 cmp	 ecx, 6184		; 00001828H
  04a12	7f 22		 jg	 SHORT $LN49@Value

; 2369 : 		{
; 2370 : 			Gold = (Level2+40)*Level2*Level2*11+40000000;

  04a14	8b 45 e4	 mov	 eax, DWORD PTR _Level2$[ebp]
  04a17	83 c0 28	 add	 eax, 40			; 00000028H
  04a1a	0f af 45 e4	 imul	 eax, DWORD PTR _Level2$[ebp]
  04a1e	0f af 45 e4	 imul	 eax, DWORD PTR _Level2$[ebp]
  04a22	6b c0 0b	 imul	 eax, 11			; 0000000bH
  04a25	05 00 5a 62 02	 add	 eax, 40000000		; 02625a00H
  04a2a	99		 cdq
  04a2b	89 45 ec	 mov	 DWORD PTR _Gold$[ebp], eax
  04a2e	89 55 f0	 mov	 DWORD PTR _Gold$[ebp+4], edx
  04a31	e9 ed 00 00 00	 jmp	 $LN42@Value
$LN49@Value:

; 2371 : 		}
; 2372 : 		else if( Type == 12 && (this->m_Type >= ITEMGET(12,41) && this->m_Type <= ITEMGET(12,43)) ) //Summoner Wings

  04a36	83 7d e8 0c	 cmp	 DWORD PTR _Type$[ebp], 12 ; 0000000cH
  04a3a	75 40		 jne	 SHORT $LN47@Value
  04a3c	8b 45 fc	 mov	 eax, DWORD PTR _this$[ebp]
  04a3f	0f bf 48 06	 movsx	 ecx, WORD PTR [eax+6]
  04a43	81 f9 29 18 00
	00		 cmp	 ecx, 6185		; 00001829H
  04a49	7c 31		 jl	 SHORT $LN47@Value
  04a4b	8b 45 fc	 mov	 eax, DWORD PTR _this$[ebp]
  04a4e	0f bf 48 06	 movsx	 ecx, WORD PTR [eax+6]
  04a52	81 f9 2b 18 00
	00		 cmp	 ecx, 6187		; 0000182bH
  04a58	7f 22		 jg	 SHORT $LN47@Value

; 2373 : 		{
; 2374 : 			Gold = (Level2+40)*Level2*Level2*11+40000000;

  04a5a	8b 45 e4	 mov	 eax, DWORD PTR _Level2$[ebp]
  04a5d	83 c0 28	 add	 eax, 40			; 00000028H
  04a60	0f af 45 e4	 imul	 eax, DWORD PTR _Level2$[ebp]
  04a64	0f af 45 e4	 imul	 eax, DWORD PTR _Level2$[ebp]
  04a68	6b c0 0b	 imul	 eax, 11			; 0000000bH
  04a6b	05 00 5a 62 02	 add	 eax, 40000000		; 02625a00H
  04a70	99		 cdq
  04a71	89 45 ec	 mov	 DWORD PTR _Gold$[ebp], eax
  04a74	89 55 f0	 mov	 DWORD PTR _Gold$[ebp+4], edx
  04a77	e9 a7 00 00 00	 jmp	 $LN42@Value
$LN47@Value:

; 2375 : 		}
; 2376 : 		else if( Type == 12 && (this->m_Type >= ITEMGET(12,180) && this->m_Type <= ITEMGET(12,188)) ) //Custom Wings4

  04a7c	83 7d e8 0c	 cmp	 DWORD PTR _Type$[ebp], 12 ; 0000000cH
  04a80	75 3d		 jne	 SHORT $LN45@Value
  04a82	8b 45 fc	 mov	 eax, DWORD PTR _this$[ebp]
  04a85	0f bf 48 06	 movsx	 ecx, WORD PTR [eax+6]
  04a89	81 f9 b4 18 00
	00		 cmp	 ecx, 6324		; 000018b4H
  04a8f	7c 2e		 jl	 SHORT $LN45@Value
  04a91	8b 45 fc	 mov	 eax, DWORD PTR _this$[ebp]
  04a94	0f bf 48 06	 movsx	 ecx, WORD PTR [eax+6]
  04a98	81 f9 bc 18 00
	00		 cmp	 ecx, 6332		; 000018bcH
  04a9e	7f 1f		 jg	 SHORT $LN45@Value

; 2377 : 		{
; 2378 : 			Gold = (Level2+40)*Level2*Level2*11+40000000;

  04aa0	8b 45 e4	 mov	 eax, DWORD PTR _Level2$[ebp]
  04aa3	83 c0 28	 add	 eax, 40			; 00000028H
  04aa6	0f af 45 e4	 imul	 eax, DWORD PTR _Level2$[ebp]
  04aaa	0f af 45 e4	 imul	 eax, DWORD PTR _Level2$[ebp]
  04aae	6b c0 0b	 imul	 eax, 11			; 0000000bH
  04ab1	05 00 5a 62 02	 add	 eax, 40000000		; 02625a00H
  04ab6	99		 cdq
  04ab7	89 45 ec	 mov	 DWORD PTR _Gold$[ebp], eax
  04aba	89 55 f0	 mov	 DWORD PTR _Gold$[ebp+4], edx
  04abd	eb 64		 jmp	 SHORT $LN42@Value
$LN45@Value:

; 2379 : 		}
; 2380 : #ifdef NEWWINGS_6
; 2381 : 		else if( Type == 12 && (this->m_Type >= ITEMGET(12,189) && this->m_Type <= ITEMGET(12,220)) )	//196

  04abf	83 7d e8 0c	 cmp	 DWORD PTR _Type$[ebp], 12 ; 0000000cH
  04ac3	75 3d		 jne	 SHORT $LN43@Value
  04ac5	8b 45 fc	 mov	 eax, DWORD PTR _this$[ebp]
  04ac8	0f bf 48 06	 movsx	 ecx, WORD PTR [eax+6]
  04acc	81 f9 bd 18 00
	00		 cmp	 ecx, 6333		; 000018bdH
  04ad2	7c 2e		 jl	 SHORT $LN43@Value
  04ad4	8b 45 fc	 mov	 eax, DWORD PTR _this$[ebp]
  04ad7	0f bf 48 06	 movsx	 ecx, WORD PTR [eax+6]
  04adb	81 f9 dc 18 00
	00		 cmp	 ecx, 6364		; 000018dcH
  04ae1	7f 1f		 jg	 SHORT $LN43@Value

; 2382 : #else
; 2383 : 		else if( Type == 12 && (this->m_Type >= ITEMGET(12,189) && this->m_Type <= ITEMGET(12,194)) )
; 2384 : #endif
; 2385 : 		{
; 2386 : 			Gold = (Level2+40)*Level2*Level2*11+40000000;

  04ae3	8b 45 e4	 mov	 eax, DWORD PTR _Level2$[ebp]
  04ae6	83 c0 28	 add	 eax, 40			; 00000028H
  04ae9	0f af 45 e4	 imul	 eax, DWORD PTR _Level2$[ebp]
  04aed	0f af 45 e4	 imul	 eax, DWORD PTR _Level2$[ebp]
  04af1	6b c0 0b	 imul	 eax, 11			; 0000000bH
  04af4	05 00 5a 62 02	 add	 eax, 40000000		; 02625a00H
  04af9	99		 cdq
  04afa	89 45 ec	 mov	 DWORD PTR _Gold$[ebp], eax
  04afd	89 55 f0	 mov	 DWORD PTR _Gold$[ebp+4], edx

; 2387 : 		}
; 2388 : 		else

  04b00	eb 21		 jmp	 SHORT $LN42@Value
$LN43@Value:

; 2389 : 		{
; 2390 : 			Gold = (Level2+40)*Level2*Level2/8+100;

  04b02	8b 45 e4	 mov	 eax, DWORD PTR _Level2$[ebp]
  04b05	83 c0 28	 add	 eax, 40			; 00000028H
  04b08	0f af 45 e4	 imul	 eax, DWORD PTR _Level2$[ebp]
  04b0c	0f af 45 e4	 imul	 eax, DWORD PTR _Level2$[ebp]
  04b10	99		 cdq
  04b11	83 e2 07	 and	 edx, 7
  04b14	03 c2		 add	 eax, edx
  04b16	c1 f8 03	 sar	 eax, 3
  04b19	83 c0 64	 add	 eax, 100		; 00000064H
  04b1c	99		 cdq
  04b1d	89 45 ec	 mov	 DWORD PTR _Gold$[ebp], eax
  04b20	89 55 f0	 mov	 DWORD PTR _Gold$[ebp+4], edx
$LN42@Value:

; 2391 : 		}
; 2392 : 
; 2393 : 		if ( Type >= 0 && Type <=  6 )

  04b23	83 7d e8 00	 cmp	 DWORD PTR _Type$[ebp], 0
  04b27	7c 33		 jl	 SHORT $LN40@Value
  04b29	83 7d e8 06	 cmp	 DWORD PTR _Type$[ebp], 6
  04b2d	7f 2d		 jg	 SHORT $LN40@Value

; 2394 : 		{
; 2395 : 			if ( p->TwoHand == 0 )

  04b2f	8b 45 f8	 mov	 eax, DWORD PTR _p$[ebp]
  04b32	0f b6 48 21	 movzx	 ecx, BYTE PTR [eax+33]
  04b36	85 c9		 test	 ecx, ecx
  04b38	75 22		 jne	 SHORT $LN40@Value

; 2396 : 			{
; 2397 : 				Gold = Gold*80/100;

  04b3a	6a 00		 push	 0
  04b3c	6a 50		 push	 80			; 00000050H
  04b3e	8b 45 f0	 mov	 eax, DWORD PTR _Gold$[ebp+4]
  04b41	50		 push	 eax
  04b42	8b 4d ec	 mov	 ecx, DWORD PTR _Gold$[ebp]
  04b45	51		 push	 ecx
  04b46	e8 00 00 00 00	 call	 __allmul
  04b4b	6a 00		 push	 0
  04b4d	6a 64		 push	 100			; 00000064H
  04b4f	52		 push	 edx
  04b50	50		 push	 eax
  04b51	e8 00 00 00 00	 call	 __alldiv
  04b56	89 45 ec	 mov	 DWORD PTR _Gold$[ebp], eax
  04b59	89 55 f0	 mov	 DWORD PTR _Gold$[ebp+4], edx
$LN40@Value:

; 2398 : 			}
; 2399 : 		}
; 2400 : 
; 2401 : 		for ( int g=0;g<this->m_SpecialNum;g++)

  04b5c	c7 45 c8 00 00
	00 00		 mov	 DWORD PTR _g$231294[ebp], 0
  04b63	eb 09		 jmp	 SHORT $LN39@Value
$LN38@Value:
  04b65	8b 45 c8	 mov	 eax, DWORD PTR _g$231294[ebp]
  04b68	83 c0 01	 add	 eax, 1
  04b6b	89 45 c8	 mov	 DWORD PTR _g$231294[ebp], eax
$LN39@Value:
  04b6e	8b 45 fc	 mov	 eax, DWORD PTR _this$[ebp]
  04b71	0f b6 48 30	 movzx	 ecx, BYTE PTR [eax+48]
  04b75	39 4d c8	 cmp	 DWORD PTR _g$231294[ebp], ecx
  04b78	0f 8d 40 02 00
	00		 jge	 $LN37@Value

; 2402 : 		{
; 2403 : 			switch ( this->m_Special[g] )

  04b7e	8b 45 c8	 mov	 eax, DWORD PTR _g$231294[ebp]
  04b81	8b 4d fc	 mov	 ecx, DWORD PTR _this$[ebp]
  04b84	0f b7 54 41 32	 movzx	 edx, WORD PTR [ecx+eax*2+50]
  04b89	89 95 6c ff ff
	ff		 mov	 DWORD PTR tv805[ebp], edx
  04b8f	8b 85 6c ff ff
	ff		 mov	 eax, DWORD PTR tv805[ebp]
  04b95	83 e8 12	 sub	 eax, 18			; 00000012H
  04b98	89 85 6c ff ff
	ff		 mov	 DWORD PTR tv805[ebp], eax
  04b9e	83 bd 6c ff ff
	ff 5f		 cmp	 DWORD PTR tv805[ebp], 95 ; 0000005fH
  04ba5	0f 87 0e 02 00
	00		 ja	 $LN35@Value
  04bab	8b 8d 6c ff ff
	ff		 mov	 ecx, DWORD PTR tv805[ebp]
  04bb1	0f b6 91 00 00
	00 00		 movzx	 edx, BYTE PTR $LN313@Value[ecx]
  04bb8	ff 24 95 00 00
	00 00		 jmp	 DWORD PTR $LN322@Value[edx*4]
$LN34@Value:

; 2404 : 			{
; 2405 : 				case 18:
; 2406 : 				case 19:
; 2407 : 				case 20:
; 2408 : 				case 21:
; 2409 : 				case 22:
; 2410 : 				case 23:
; 2411 : 				case 24:
; 2412 : 				case 56:
; 2413 : 					Gold += (__int64)(Gold * 1.5);

  04bbf	df 6d ec	 fild	 QWORD PTR _Gold$[ebp]
  04bc2	dc 0d 00 00 00
	00		 fmul	 QWORD PTR __real@3ff8000000000000
  04bc8	e8 00 00 00 00	 call	 __ftol2
  04bcd	03 45 ec	 add	 eax, DWORD PTR _Gold$[ebp]
  04bd0	13 55 f0	 adc	 edx, DWORD PTR _Gold$[ebp+4]
  04bd3	89 45 ec	 mov	 DWORD PTR _Gold$[ebp], eax
  04bd6	89 55 f0	 mov	 DWORD PTR _Gold$[ebp+4], edx

; 2414 : 					break;

  04bd9	e9 db 01 00 00	 jmp	 $LN35@Value
$LN33@Value:

; 2415 : 
; 2416 : 				case 80:
; 2417 : 				case 81:
; 2418 : 				case 83:
; 2419 : 				case 85:
; 2420 : 				case 113: //Summoner
; 2421 : 
; 2422 : 					switch ( this->m_Option3 )

  04bde	8b 45 fc	 mov	 eax, DWORD PTR _this$[ebp]
  04be1	0f b6 88 96 00
	00 00		 movzx	 ecx, BYTE PTR [eax+150]
  04be8	89 8d 6c ff ff
	ff		 mov	 DWORD PTR tv813[ebp], ecx
  04bee	8b 95 6c ff ff
	ff		 mov	 edx, DWORD PTR tv813[ebp]
  04bf4	83 ea 01	 sub	 edx, 1
  04bf7	89 95 6c ff ff
	ff		 mov	 DWORD PTR tv813[ebp], edx
  04bfd	83 bd 6c ff ff
	ff 03		 cmp	 DWORD PTR tv813[ebp], 3
  04c04	0f 87 93 00 00
	00		 ja	 $LN31@Value
  04c0a	8b 85 6c ff ff
	ff		 mov	 eax, DWORD PTR tv813[ebp]
  04c10	ff 24 85 00 00
	00 00		 jmp	 DWORD PTR $LN323@Value[eax*4]
$LN30@Value:

; 2423 : 					{
; 2424 : 						case 1:
; 2425 : 							Gold += (__int64)(Gold * 6.0 / 10.0);

  04c17	df 6d ec	 fild	 QWORD PTR _Gold$[ebp]
  04c1a	dc 0d 00 00 00
	00		 fmul	 QWORD PTR __real@4018000000000000
  04c20	dc 35 00 00 00
	00		 fdiv	 QWORD PTR __real@4024000000000000
  04c26	e8 00 00 00 00	 call	 __ftol2
  04c2b	03 45 ec	 add	 eax, DWORD PTR _Gold$[ebp]
  04c2e	13 55 f0	 adc	 edx, DWORD PTR _Gold$[ebp+4]
  04c31	89 45 ec	 mov	 DWORD PTR _Gold$[ebp], eax
  04c34	89 55 f0	 mov	 DWORD PTR _Gold$[ebp+4], edx

; 2426 : 							break;

  04c37	eb 64		 jmp	 SHORT $LN31@Value
$LN29@Value:

; 2427 : 
; 2428 : 						case 2:
; 2429 : 							Gold += (__int64)(Gold * 14.0 / 10.0);

  04c39	df 6d ec	 fild	 QWORD PTR _Gold$[ebp]
  04c3c	dc 0d 00 00 00
	00		 fmul	 QWORD PTR __real@402c000000000000
  04c42	dc 35 00 00 00
	00		 fdiv	 QWORD PTR __real@4024000000000000
  04c48	e8 00 00 00 00	 call	 __ftol2
  04c4d	03 45 ec	 add	 eax, DWORD PTR _Gold$[ebp]
  04c50	13 55 f0	 adc	 edx, DWORD PTR _Gold$[ebp+4]
  04c53	89 45 ec	 mov	 DWORD PTR _Gold$[ebp], eax
  04c56	89 55 f0	 mov	 DWORD PTR _Gold$[ebp+4], edx

; 2430 : 							break;

  04c59	eb 42		 jmp	 SHORT $LN31@Value
$LN28@Value:

; 2431 : 
; 2432 : 						case 3:
; 2433 : 							Gold += (__int64)(Gold * 28.0 / 10.0);

  04c5b	df 6d ec	 fild	 QWORD PTR _Gold$[ebp]
  04c5e	dc 0d 00 00 00
	00		 fmul	 QWORD PTR __real@403c000000000000
  04c64	dc 35 00 00 00
	00		 fdiv	 QWORD PTR __real@4024000000000000
  04c6a	e8 00 00 00 00	 call	 __ftol2
  04c6f	03 45 ec	 add	 eax, DWORD PTR _Gold$[ebp]
  04c72	13 55 f0	 adc	 edx, DWORD PTR _Gold$[ebp+4]
  04c75	89 45 ec	 mov	 DWORD PTR _Gold$[ebp], eax
  04c78	89 55 f0	 mov	 DWORD PTR _Gold$[ebp+4], edx

; 2434 : 							break;

  04c7b	eb 20		 jmp	 SHORT $LN31@Value
$LN27@Value:

; 2435 : 
; 2436 : 						case 4:
; 2437 : 							Gold += (__int64)(Gold * 56.0 / 10.0);

  04c7d	df 6d ec	 fild	 QWORD PTR _Gold$[ebp]
  04c80	dc 0d 00 00 00
	00		 fmul	 QWORD PTR __real@404c000000000000
  04c86	dc 35 00 00 00
	00		 fdiv	 QWORD PTR __real@4024000000000000
  04c8c	e8 00 00 00 00	 call	 __ftol2
  04c91	03 45 ec	 add	 eax, DWORD PTR _Gold$[ebp]
  04c94	13 55 f0	 adc	 edx, DWORD PTR _Gold$[ebp+4]
  04c97	89 45 ec	 mov	 DWORD PTR _Gold$[ebp], eax
  04c9a	89 55 f0	 mov	 DWORD PTR _Gold$[ebp+4], edx
$LN31@Value:

; 2438 : 							break;
; 2439 : 					}
; 2440 : 					break;

  04c9d	e9 17 01 00 00	 jmp	 $LN35@Value
$LN26@Value:

; 2441 : 
; 2442 : 				case 82:
; 2443 : 
; 2444 : 					switch ( this->m_Option3 )

  04ca2	8b 45 fc	 mov	 eax, DWORD PTR _this$[ebp]
  04ca5	0f b6 88 96 00
	00 00		 movzx	 ecx, BYTE PTR [eax+150]
  04cac	89 8d 6c ff ff
	ff		 mov	 DWORD PTR tv842[ebp], ecx
  04cb2	8b 95 6c ff ff
	ff		 mov	 edx, DWORD PTR tv842[ebp]
  04cb8	83 ea 01	 sub	 edx, 1
  04cbb	89 95 6c ff ff
	ff		 mov	 DWORD PTR tv842[ebp], edx
  04cc1	83 bd 6c ff ff
	ff 03		 cmp	 DWORD PTR tv842[ebp], 3
  04cc8	0f 87 93 00 00
	00		 ja	 $LN24@Value
  04cce	8b 85 6c ff ff
	ff		 mov	 eax, DWORD PTR tv842[ebp]
  04cd4	ff 24 85 00 00
	00 00		 jmp	 DWORD PTR $LN324@Value[eax*4]
$LN23@Value:

; 2445 : 					{
; 2446 : 					case 1:
; 2447 : 							Gold += (__int64)(Gold * 6.0 / 10.0);

  04cdb	df 6d ec	 fild	 QWORD PTR _Gold$[ebp]
  04cde	dc 0d 00 00 00
	00		 fmul	 QWORD PTR __real@4018000000000000
  04ce4	dc 35 00 00 00
	00		 fdiv	 QWORD PTR __real@4024000000000000
  04cea	e8 00 00 00 00	 call	 __ftol2
  04cef	03 45 ec	 add	 eax, DWORD PTR _Gold$[ebp]
  04cf2	13 55 f0	 adc	 edx, DWORD PTR _Gold$[ebp+4]
  04cf5	89 45 ec	 mov	 DWORD PTR _Gold$[ebp], eax
  04cf8	89 55 f0	 mov	 DWORD PTR _Gold$[ebp+4], edx

; 2448 : 							break;

  04cfb	eb 64		 jmp	 SHORT $LN24@Value
$LN22@Value:

; 2449 : 
; 2450 : 						case 2:
; 2451 : 							Gold += (__int64)(Gold * 14.0 / 10.0);

  04cfd	df 6d ec	 fild	 QWORD PTR _Gold$[ebp]
  04d00	dc 0d 00 00 00
	00		 fmul	 QWORD PTR __real@402c000000000000
  04d06	dc 35 00 00 00
	00		 fdiv	 QWORD PTR __real@4024000000000000
  04d0c	e8 00 00 00 00	 call	 __ftol2
  04d11	03 45 ec	 add	 eax, DWORD PTR _Gold$[ebp]
  04d14	13 55 f0	 adc	 edx, DWORD PTR _Gold$[ebp+4]
  04d17	89 45 ec	 mov	 DWORD PTR _Gold$[ebp], eax
  04d1a	89 55 f0	 mov	 DWORD PTR _Gold$[ebp+4], edx

; 2452 : 							break;

  04d1d	eb 42		 jmp	 SHORT $LN24@Value
$LN21@Value:

; 2453 : 
; 2454 : 						case 3:
; 2455 : 							Gold += (__int64)(Gold * 28.0 / 10.0);

  04d1f	df 6d ec	 fild	 QWORD PTR _Gold$[ebp]
  04d22	dc 0d 00 00 00
	00		 fmul	 QWORD PTR __real@403c000000000000
  04d28	dc 35 00 00 00
	00		 fdiv	 QWORD PTR __real@4024000000000000
  04d2e	e8 00 00 00 00	 call	 __ftol2
  04d33	03 45 ec	 add	 eax, DWORD PTR _Gold$[ebp]
  04d36	13 55 f0	 adc	 edx, DWORD PTR _Gold$[ebp+4]
  04d39	89 45 ec	 mov	 DWORD PTR _Gold$[ebp], eax
  04d3c	89 55 f0	 mov	 DWORD PTR _Gold$[ebp+4], edx

; 2456 : 							break;

  04d3f	eb 20		 jmp	 SHORT $LN24@Value
$LN20@Value:

; 2457 : 
; 2458 : 						case 4:
; 2459 : 							Gold += (__int64)(Gold * 56.0 / 10.0);

  04d41	df 6d ec	 fild	 QWORD PTR _Gold$[ebp]
  04d44	dc 0d 00 00 00
	00		 fmul	 QWORD PTR __real@404c000000000000
  04d4a	dc 35 00 00 00
	00		 fdiv	 QWORD PTR __real@4024000000000000
  04d50	e8 00 00 00 00	 call	 __ftol2
  04d55	03 45 ec	 add	 eax, DWORD PTR _Gold$[ebp]
  04d58	13 55 f0	 adc	 edx, DWORD PTR _Gold$[ebp+4]
  04d5b	89 45 ec	 mov	 DWORD PTR _Gold$[ebp], eax
  04d5e	89 55 f0	 mov	 DWORD PTR _Gold$[ebp+4], edx
$LN24@Value:

; 2460 : 							break;
; 2461 : 					}
; 2462 : 					break;

  04d61	eb 56		 jmp	 SHORT $LN35@Value
$LN19@Value:

; 2463 : 
; 2464 : 				case 84:
; 2465 : 					Gold += (__int64)(Gold * 25.0 / 100.0);

  04d63	df 6d ec	 fild	 QWORD PTR _Gold$[ebp]
  04d66	dc 0d 00 00 00
	00		 fmul	 QWORD PTR __real@4039000000000000
  04d6c	dc 35 00 00 00
	00		 fdiv	 QWORD PTR __real@4059000000000000
  04d72	e8 00 00 00 00	 call	 __ftol2
  04d77	03 45 ec	 add	 eax, DWORD PTR _Gold$[ebp]
  04d7a	13 55 f0	 adc	 edx, DWORD PTR _Gold$[ebp+4]
  04d7d	89 45 ec	 mov	 DWORD PTR _Gold$[ebp], eax
  04d80	89 55 f0	 mov	 DWORD PTR _Gold$[ebp+4], edx

; 2466 : 					break;

  04d83	eb 34		 jmp	 SHORT $LN35@Value
$LN18@Value:

; 2467 : 
; 2468 : 				case 86:
; 2469 : 				case 87:
; 2470 : 				case 88:
; 2471 : 				case 89:
; 2472 : 				case 90:
; 2473 : 				case 91:
; 2474 : 				case 92:
; 2475 : 				case 93:
; 2476 : 				case 94:
; 2477 : 				case 95:
; 2478 : 				case 96:
; 2479 : 				case 97:
; 2480 : 				case 98:
; 2481 : 				case 99:
; 2482 : 					Gold += Gold;

  04d85	8b 45 ec	 mov	 eax, DWORD PTR _Gold$[ebp]
  04d88	03 45 ec	 add	 eax, DWORD PTR _Gold$[ebp]
  04d8b	8b 4d f0	 mov	 ecx, DWORD PTR _Gold$[ebp+4]
  04d8e	13 4d f0	 adc	 ecx, DWORD PTR _Gold$[ebp+4]
  04d91	89 45 ec	 mov	 DWORD PTR _Gold$[ebp], eax
  04d94	89 4d f0	 mov	 DWORD PTR _Gold$[ebp+4], ecx

; 2483 : 					break;

  04d97	eb 20		 jmp	 SHORT $LN35@Value
$LN17@Value:

; 2484 : 
; 2485 : 				case 100:
; 2486 : 				case 101:
; 2487 : 				case 102:
; 2488 : 				case 103:
; 2489 : 				case 104:
; 2490 : 					//Season 2.5 add-on third wing option
; 2491 : 				case 108:
; 2492 : 				case 109:
; 2493 : 				case 110:
; 2494 : 				case 111:
; 2495 : 					Gold += (__int64)(Gold * 25.0 / 100.0);

  04d99	df 6d ec	 fild	 QWORD PTR _Gold$[ebp]
  04d9c	dc 0d 00 00 00
	00		 fmul	 QWORD PTR __real@4039000000000000
  04da2	dc 35 00 00 00
	00		 fdiv	 QWORD PTR __real@4059000000000000
  04da8	e8 00 00 00 00	 call	 __ftol2
  04dad	03 45 ec	 add	 eax, DWORD PTR _Gold$[ebp]
  04db0	13 55 f0	 adc	 edx, DWORD PTR _Gold$[ebp+4]
  04db3	89 45 ec	 mov	 DWORD PTR _Gold$[ebp], eax
  04db6	89 55 f0	 mov	 DWORD PTR _Gold$[ebp+4], edx
$LN35@Value:

; 2496 : 					break;
; 2497 : 
; 2498 : 			}
; 2499 : 		}

  04db9	e9 a7 fd ff ff	 jmp	 $LN38@Value
$LN37@Value:

; 2500 : 	}
; 2501 : 
; 2502 : 	if ( g_kItemSystemFor380.Is380OptionItem(this) == TRUE )

  04dbe	8b 45 fc	 mov	 eax, DWORD PTR _this$[ebp]
  04dc1	50		 push	 eax
  04dc2	b9 00 00 00 00	 mov	 ecx, OFFSET ?g_kItemSystemFor380@@3VCItemSystemFor380@@A ; g_kItemSystemFor380
  04dc7	e8 00 00 00 00	 call	 ?Is380OptionItem@CItemSystemFor380@@QAEHPBVCItem@@@Z ; CItemSystemFor380::Is380OptionItem
  04dcc	83 f8 01	 cmp	 eax, 1
  04dcf	75 20		 jne	 SHORT $LN16@Value

; 2503 : 	{
; 2504 : 		Gold += (__int64)(Gold * 16.0 / 100.0);

  04dd1	df 6d ec	 fild	 QWORD PTR _Gold$[ebp]
  04dd4	dc 0d 00 00 00
	00		 fmul	 QWORD PTR __real@4030000000000000
  04dda	dc 35 00 00 00
	00		 fdiv	 QWORD PTR __real@4059000000000000
  04de0	e8 00 00 00 00	 call	 __ftol2
  04de5	03 45 ec	 add	 eax, DWORD PTR _Gold$[ebp]
  04de8	13 55 f0	 adc	 edx, DWORD PTR _Gold$[ebp+4]
  04deb	89 45 ec	 mov	 DWORD PTR _Gold$[ebp], eax
  04dee	89 55 f0	 mov	 DWORD PTR _Gold$[ebp+4], edx
$LN16@Value:

; 2505 : 	}
; 2506 : 
; 2507 : 	if ( g_SocketOption.IsSocketOption(this) == 1 ) //season 4 add-on

  04df1	8b 45 fc	 mov	 eax, DWORD PTR _this$[ebp]
  04df4	50		 push	 eax
  04df5	b9 00 00 00 00	 mov	 ecx, OFFSET ?g_SocketOption@@3VCSocketOption@@A ; g_SocketOption
  04dfa	e8 00 00 00 00	 call	 ?IsSocketOption@CSocketOption@@QAEEPAVCItem@@@Z ; CSocketOption::IsSocketOption
  04dff	0f b6 c8	 movzx	 ecx, al
  04e02	83 f9 01	 cmp	 ecx, 1
  04e05	0f 85 ea 00 00
	00		 jne	 $LN15@Value

; 2508 : 	{
; 2509 : 		int loc15 = 0;

  04e0b	c7 45 c4 00 00
	00 00		 mov	 DWORD PTR _loc15$231338[ebp], 0

; 2510 : 		int loc16 = 0;

  04e12	c7 45 c0 00 00
	00 00		 mov	 DWORD PTR _loc16$231339[ebp], 0

; 2511 : 		DWORD loc17 = 0; //17

  04e19	c7 45 bc 00 00
	00 00		 mov	 DWORD PTR _loc17$231340[ebp], 0

; 2512 : 
; 2513 : 		for(int loc18 = 0; loc18 < 5; loc18++)

  04e20	c7 45 b8 00 00
	00 00		 mov	 DWORD PTR _loc18$231341[ebp], 0
  04e27	eb 09		 jmp	 SHORT $LN14@Value
$LN13@Value:
  04e29	8b 45 b8	 mov	 eax, DWORD PTR _loc18$231341[ebp]
  04e2c	83 c0 01	 add	 eax, 1
  04e2f	89 45 b8	 mov	 DWORD PTR _loc18$231341[ebp], eax
$LN14@Value:
  04e32	83 7d b8 05	 cmp	 DWORD PTR _loc18$231341[ebp], 5
  04e36	7d 53		 jge	 SHORT $LN12@Value

; 2514 : 		{
; 2515 : 			if(this->m_SocketOption[loc18] != 0xFF)

  04e38	8b 45 fc	 mov	 eax, DWORD PTR _this$[ebp]
  04e3b	03 45 b8	 add	 eax, DWORD PTR _loc18$231341[ebp]
  04e3e	0f b6 88 cc 00
	00 00		 movzx	 ecx, BYTE PTR [eax+204]
  04e45	81 f9 ff 00 00
	00		 cmp	 ecx, 255		; 000000ffH
  04e4b	74 3c		 je	 SHORT $LN11@Value

; 2516 : 			{
; 2517 : 				if(this->m_SocketOption[loc18] != 0xFE)

  04e4d	8b 45 fc	 mov	 eax, DWORD PTR _this$[ebp]
  04e50	03 45 b8	 add	 eax, DWORD PTR _loc18$231341[ebp]
  04e53	0f b6 88 cc 00
	00 00		 movzx	 ecx, BYTE PTR [eax+204]
  04e5a	81 f9 fe 00 00
	00		 cmp	 ecx, 254		; 000000feH
  04e60	74 1e		 je	 SHORT $LN10@Value

; 2518 : 				{
; 2519 : 					loc17 += g_SocketOption.GetValue(this->m_SocketOption[loc18]);

  04e62	8b 45 fc	 mov	 eax, DWORD PTR _this$[ebp]
  04e65	03 45 b8	 add	 eax, DWORD PTR _loc18$231341[ebp]
  04e68	0f b6 88 cc 00
	00 00		 movzx	 ecx, BYTE PTR [eax+204]
  04e6f	51		 push	 ecx
  04e70	b9 00 00 00 00	 mov	 ecx, OFFSET ?g_SocketOption@@3VCSocketOption@@A ; g_SocketOption
  04e75	e8 00 00 00 00	 call	 ?GetValue@CSocketOption@@QAEHE@Z ; CSocketOption::GetValue
  04e7a	03 45 bc	 add	 eax, DWORD PTR _loc17$231340[ebp]
  04e7d	89 45 bc	 mov	 DWORD PTR _loc17$231340[ebp], eax
$LN10@Value:

; 2520 : 				}
; 2521 : 				loc15+=1;

  04e80	8b 45 c4	 mov	 eax, DWORD PTR _loc15$231338[ebp]
  04e83	83 c0 01	 add	 eax, 1
  04e86	89 45 c4	 mov	 DWORD PTR _loc15$231338[ebp], eax
$LN11@Value:

; 2522 : 			}
; 2523 : 		}

  04e89	eb 9e		 jmp	 SHORT $LN13@Value
$LN12@Value:

; 2524 : 
; 2525 : 		Gold += (DWORD)( (((float)(Gold) * (float)(loc15*8))) / 10.0f);

  04e8b	df 6d ec	 fild	 QWORD PTR _Gold$[ebp]
  04e8e	8b 45 c4	 mov	 eax, DWORD PTR _loc15$231338[ebp]
  04e91	c1 e0 03	 shl	 eax, 3
  04e94	89 85 6c ff ff
	ff		 mov	 DWORD PTR tv1952[ebp], eax
  04e9a	da 8d 6c ff ff
	ff		 fimul	 DWORD PTR tv1952[ebp]
  04ea0	dc 35 00 00 00
	00		 fdiv	 QWORD PTR __real@4024000000000000
  04ea6	d9 bd 6a ff ff
	ff		 fnstcw	 WORD PTR tv1957[ebp]
  04eac	0f b7 85 6a ff
	ff ff		 movzx	 eax, WORD PTR tv1957[ebp]
  04eb3	0d 00 0c 00 00	 or	 eax, 3072		; 00000c00H
  04eb8	89 85 64 ff ff
	ff		 mov	 DWORD PTR tv1960[ebp], eax
  04ebe	d9 ad 64 ff ff
	ff		 fldcw	 WORD PTR tv1960[ebp]
  04ec4	df bd 5c ff ff
	ff		 fistp	 QWORD PTR tv1962[ebp]
  04eca	d9 ad 6a ff ff
	ff		 fldcw	 WORD PTR tv1957[ebp]
  04ed0	8b 8d 5c ff ff
	ff		 mov	 ecx, DWORD PTR tv1962[ebp]
  04ed6	33 d2		 xor	 edx, edx
  04ed8	03 4d ec	 add	 ecx, DWORD PTR _Gold$[ebp]
  04edb	13 55 f0	 adc	 edx, DWORD PTR _Gold$[ebp+4]
  04ede	89 4d ec	 mov	 DWORD PTR _Gold$[ebp], ecx
  04ee1	89 55 f0	 mov	 DWORD PTR _Gold$[ebp+4], edx

; 2526 : 		Gold += (DWORD)loc17;

  04ee4	8b 45 bc	 mov	 eax, DWORD PTR _loc17$231340[ebp]
  04ee7	33 c9		 xor	 ecx, ecx
  04ee9	03 45 ec	 add	 eax, DWORD PTR _Gold$[ebp]
  04eec	13 4d f0	 adc	 ecx, DWORD PTR _Gold$[ebp+4]
  04eef	89 45 ec	 mov	 DWORD PTR _Gold$[ebp], eax
  04ef2	89 4d f0	 mov	 DWORD PTR _Gold$[ebp+4], ecx
$LN15@Value:

; 2527 : 	}
; 2528 : 
; 2529 : 	if ( Gold > 3000000000 )

  04ef5	83 7d f0 00	 cmp	 DWORD PTR _Gold$[ebp+4], 0
  04ef9	7c 19		 jl	 SHORT $LN9@Value
  04efb	7f 09		 jg	 SHORT $LN314@Value
  04efd	81 7d ec 00 5e
	d0 b2		 cmp	 DWORD PTR _Gold$[ebp], -1294967296 ; b2d05e00H
  04f04	76 0e		 jbe	 SHORT $LN9@Value
$LN314@Value:

; 2530 : 	{
; 2531 : 		Gold = 3000000000;

  04f06	c7 45 ec 00 5e
	d0 b2		 mov	 DWORD PTR _Gold$[ebp], -1294967296 ; b2d05e00H
  04f0d	c7 45 f0 00 00
	00 00		 mov	 DWORD PTR _Gold$[ebp+4], 0
$LN9@Value:

; 2532 : 	}
; 2533 : 
; 2534 : 	this->m_BuyMoney = (DWORD)Gold;

  04f14	8b 45 ec	 mov	 eax, DWORD PTR _Gold$[ebp]
  04f17	8b 4d fc	 mov	 ecx, DWORD PTR _this$[ebp]
  04f1a	89 41 70	 mov	 DWORD PTR [ecx+112], eax

; 2535 : 	this->m_SellMoney = (DWORD)Gold;

  04f1d	8b 45 ec	 mov	 eax, DWORD PTR _Gold$[ebp]
  04f20	8b 4d fc	 mov	 ecx, DWORD PTR _this$[ebp]
  04f23	89 41 6c	 mov	 DWORD PTR [ecx+108], eax

; 2536 : 	
; 2537 : 	this->m_SellMoney = this->m_SellMoney/3;

  04f26	8b 45 fc	 mov	 eax, DWORD PTR _this$[ebp]
  04f29	8b 40 6c	 mov	 eax, DWORD PTR [eax+108]
  04f2c	33 d2		 xor	 edx, edx
  04f2e	b9 03 00 00 00	 mov	 ecx, 3
  04f33	f7 f1		 div	 ecx
  04f35	8b 55 fc	 mov	 edx, DWORD PTR _this$[ebp]
  04f38	89 42 6c	 mov	 DWORD PTR [edx+108], eax

; 2538 : 
; 2539 : 	if ( (this->m_Type < ITEMGET(14,0) || this->m_Type >  ITEMGET(14,8)) &&
; 2540 : 		  this->m_Type != ITEMGET(13,20) &&
; 2541 : 		  this->m_Type != ITEMGET(14,28) &&
; 2542 : 		  this->m_Type != ITEMGET(14,29) &&
; 2543 : 		  this->m_Type != ITEMGET(14,21) &&
; 2544 : 		  this->m_Type != ITEMGET(13,15) &&
; 2545 : 		  this->m_Type != ITEMGET(13,16) &&
; 2546 : 		  this->m_Type != ITEMGET(13,17) &&
; 2547 : 		  this->m_Type != ITEMGET(13,18) &&
; 2548 : 		  this->m_Type != ITEMGET(13,11) &&
; 2549 : 		  this->m_Type != ITEMGET(13,7)  &&
; 2550 : 		  this->m_Type != ITEMGET(13,32) &&
; 2551 : 		  this->m_Type != ITEMGET(13,33) &&
; 2552 : 		  this->m_Type != ITEMGET(13,34) &&
; 2553 : 		  this->m_Type != ITEMGET(13,35) &&
; 2554 : 		  this->m_Type != ITEMGET(13,36) &&
; 2555 : 		  this->m_Type != ITEMGET(13,37) &&
; 2556 : 		  this->m_Type != ITEMGET(14,45) &&
; 2557 : 		  this->m_Type != ITEMGET(14,46) &&
; 2558 : 		  this->m_Type != ITEMGET(14,47) &&
; 2559 : 		  this->m_Type != ITEMGET(14,48) &&
; 2560 : 		  this->m_Type != ITEMGET(14,49) &&
; 2561 : 		  this->m_Type != ITEMGET(14,50) &&
; 2562 : 		  this->m_Type != ITEMGET(14,51) &&  //Season 2.5 Star of Christmas
; 2563 : 		  this->m_Type != ITEMGET(14,100) && //Season 4.5 Lucky Coin
; 2564 : 		  this->m_Type == ITEMGET(14,85) && //S4
; 2565 : 		  this->m_Type == ITEMGET(14,86) && //S4
; 2566 : 		  this->m_Type == ITEMGET(14,87) && //S4
; 2567 : 		  this->m_Type == ITEMGET(14,90) ) //S4

  04f3b	8b 45 fc	 mov	 eax, DWORD PTR _this$[ebp]
  04f3e	0f bf 48 06	 movsx	 ecx, WORD PTR [eax+6]
  04f42	81 f9 00 1c 00
	00		 cmp	 ecx, 7168		; 00001c00H
  04f48	7c 13		 jl	 SHORT $LN7@Value
  04f4a	8b 45 fc	 mov	 eax, DWORD PTR _this$[ebp]
  04f4d	0f bf 48 06	 movsx	 ecx, WORD PTR [eax+6]
  04f51	81 f9 08 1c 00
	00		 cmp	 ecx, 7176		; 00001c08H
  04f57	0f 8e 53 02 00
	00		 jle	 $LN8@Value
$LN7@Value:
  04f5d	8b 45 fc	 mov	 eax, DWORD PTR _this$[ebp]
  04f60	0f bf 48 06	 movsx	 ecx, WORD PTR [eax+6]
  04f64	81 f9 14 1a 00
	00		 cmp	 ecx, 6676		; 00001a14H
  04f6a	0f 84 40 02 00
	00		 je	 $LN8@Value
  04f70	8b 45 fc	 mov	 eax, DWORD PTR _this$[ebp]
  04f73	0f bf 48 06	 movsx	 ecx, WORD PTR [eax+6]
  04f77	81 f9 1c 1c 00
	00		 cmp	 ecx, 7196		; 00001c1cH
  04f7d	0f 84 2d 02 00
	00		 je	 $LN8@Value
  04f83	8b 45 fc	 mov	 eax, DWORD PTR _this$[ebp]
  04f86	0f bf 48 06	 movsx	 ecx, WORD PTR [eax+6]
  04f8a	81 f9 1d 1c 00
	00		 cmp	 ecx, 7197		; 00001c1dH
  04f90	0f 84 1a 02 00
	00		 je	 $LN8@Value
  04f96	8b 45 fc	 mov	 eax, DWORD PTR _this$[ebp]
  04f99	0f bf 48 06	 movsx	 ecx, WORD PTR [eax+6]
  04f9d	81 f9 15 1c 00
	00		 cmp	 ecx, 7189		; 00001c15H
  04fa3	0f 84 07 02 00
	00		 je	 $LN8@Value
  04fa9	8b 45 fc	 mov	 eax, DWORD PTR _this$[ebp]
  04fac	0f bf 48 06	 movsx	 ecx, WORD PTR [eax+6]
  04fb0	81 f9 0f 1a 00
	00		 cmp	 ecx, 6671		; 00001a0fH
  04fb6	0f 84 f4 01 00
	00		 je	 $LN8@Value
  04fbc	8b 45 fc	 mov	 eax, DWORD PTR _this$[ebp]
  04fbf	0f bf 48 06	 movsx	 ecx, WORD PTR [eax+6]
  04fc3	81 f9 10 1a 00
	00		 cmp	 ecx, 6672		; 00001a10H
  04fc9	0f 84 e1 01 00
	00		 je	 $LN8@Value
  04fcf	8b 45 fc	 mov	 eax, DWORD PTR _this$[ebp]
  04fd2	0f bf 48 06	 movsx	 ecx, WORD PTR [eax+6]
  04fd6	81 f9 11 1a 00
	00		 cmp	 ecx, 6673		; 00001a11H
  04fdc	0f 84 ce 01 00
	00		 je	 $LN8@Value
  04fe2	8b 45 fc	 mov	 eax, DWORD PTR _this$[ebp]
  04fe5	0f bf 48 06	 movsx	 ecx, WORD PTR [eax+6]
  04fe9	81 f9 12 1a 00
	00		 cmp	 ecx, 6674		; 00001a12H
  04fef	0f 84 bb 01 00
	00		 je	 $LN8@Value
  04ff5	8b 45 fc	 mov	 eax, DWORD PTR _this$[ebp]
  04ff8	0f bf 48 06	 movsx	 ecx, WORD PTR [eax+6]
  04ffc	81 f9 0b 1a 00
	00		 cmp	 ecx, 6667		; 00001a0bH
  05002	0f 84 a8 01 00
	00		 je	 $LN8@Value
  05008	8b 45 fc	 mov	 eax, DWORD PTR _this$[ebp]
  0500b	0f bf 48 06	 movsx	 ecx, WORD PTR [eax+6]
  0500f	81 f9 07 1a 00
	00		 cmp	 ecx, 6663		; 00001a07H
  05015	0f 84 95 01 00
	00		 je	 $LN8@Value
  0501b	8b 45 fc	 mov	 eax, DWORD PTR _this$[ebp]
  0501e	0f bf 48 06	 movsx	 ecx, WORD PTR [eax+6]
  05022	81 f9 20 1a 00
	00		 cmp	 ecx, 6688		; 00001a20H
  05028	0f 84 82 01 00
	00		 je	 $LN8@Value
  0502e	8b 45 fc	 mov	 eax, DWORD PTR _this$[ebp]
  05031	0f bf 48 06	 movsx	 ecx, WORD PTR [eax+6]
  05035	81 f9 21 1a 00
	00		 cmp	 ecx, 6689		; 00001a21H
  0503b	0f 84 6f 01 00
	00		 je	 $LN8@Value
  05041	8b 45 fc	 mov	 eax, DWORD PTR _this$[ebp]
  05044	0f bf 48 06	 movsx	 ecx, WORD PTR [eax+6]
  05048	81 f9 22 1a 00
	00		 cmp	 ecx, 6690		; 00001a22H
  0504e	0f 84 5c 01 00
	00		 je	 $LN8@Value
  05054	8b 45 fc	 mov	 eax, DWORD PTR _this$[ebp]
  05057	0f bf 48 06	 movsx	 ecx, WORD PTR [eax+6]
  0505b	81 f9 23 1a 00
	00		 cmp	 ecx, 6691		; 00001a23H
  05061	0f 84 49 01 00
	00		 je	 $LN8@Value
  05067	8b 45 fc	 mov	 eax, DWORD PTR _this$[ebp]
  0506a	0f bf 48 06	 movsx	 ecx, WORD PTR [eax+6]
  0506e	81 f9 24 1a 00
	00		 cmp	 ecx, 6692		; 00001a24H
  05074	0f 84 36 01 00
	00		 je	 $LN8@Value
  0507a	8b 45 fc	 mov	 eax, DWORD PTR _this$[ebp]
  0507d	0f bf 48 06	 movsx	 ecx, WORD PTR [eax+6]
  05081	81 f9 25 1a 00
	00		 cmp	 ecx, 6693		; 00001a25H
  05087	0f 84 23 01 00
	00		 je	 $LN8@Value
  0508d	8b 45 fc	 mov	 eax, DWORD PTR _this$[ebp]
  05090	0f bf 48 06	 movsx	 ecx, WORD PTR [eax+6]
  05094	81 f9 2d 1c 00
	00		 cmp	 ecx, 7213		; 00001c2dH
  0509a	0f 84 10 01 00
	00		 je	 $LN8@Value
  050a0	8b 45 fc	 mov	 eax, DWORD PTR _this$[ebp]
  050a3	0f bf 48 06	 movsx	 ecx, WORD PTR [eax+6]
  050a7	81 f9 2e 1c 00
	00		 cmp	 ecx, 7214		; 00001c2eH
  050ad	0f 84 fd 00 00
	00		 je	 $LN8@Value
  050b3	8b 45 fc	 mov	 eax, DWORD PTR _this$[ebp]
  050b6	0f bf 48 06	 movsx	 ecx, WORD PTR [eax+6]
  050ba	81 f9 2f 1c 00
	00		 cmp	 ecx, 7215		; 00001c2fH
  050c0	0f 84 ea 00 00
	00		 je	 $LN8@Value
  050c6	8b 45 fc	 mov	 eax, DWORD PTR _this$[ebp]
  050c9	0f bf 48 06	 movsx	 ecx, WORD PTR [eax+6]
  050cd	81 f9 30 1c 00
	00		 cmp	 ecx, 7216		; 00001c30H
  050d3	0f 84 d7 00 00
	00		 je	 $LN8@Value
  050d9	8b 45 fc	 mov	 eax, DWORD PTR _this$[ebp]
  050dc	0f bf 48 06	 movsx	 ecx, WORD PTR [eax+6]
  050e0	81 f9 31 1c 00
	00		 cmp	 ecx, 7217		; 00001c31H
  050e6	0f 84 c4 00 00
	00		 je	 $LN8@Value
  050ec	8b 45 fc	 mov	 eax, DWORD PTR _this$[ebp]
  050ef	0f bf 48 06	 movsx	 ecx, WORD PTR [eax+6]
  050f3	81 f9 32 1c 00
	00		 cmp	 ecx, 7218		; 00001c32H
  050f9	0f 84 b1 00 00
	00		 je	 $LN8@Value
  050ff	8b 45 fc	 mov	 eax, DWORD PTR _this$[ebp]
  05102	0f bf 48 06	 movsx	 ecx, WORD PTR [eax+6]
  05106	81 f9 33 1c 00
	00		 cmp	 ecx, 7219		; 00001c33H
  0510c	0f 84 9e 00 00
	00		 je	 $LN8@Value
  05112	8b 45 fc	 mov	 eax, DWORD PTR _this$[ebp]
  05115	0f bf 48 06	 movsx	 ecx, WORD PTR [eax+6]
  05119	81 f9 64 1c 00
	00		 cmp	 ecx, 7268		; 00001c64H
  0511f	0f 84 8b 00 00
	00		 je	 $LN8@Value
  05125	8b 45 fc	 mov	 eax, DWORD PTR _this$[ebp]
  05128	0f bf 48 06	 movsx	 ecx, WORD PTR [eax+6]
  0512c	81 f9 55 1c 00
	00		 cmp	 ecx, 7253		; 00001c55H
  05132	75 7c		 jne	 SHORT $LN8@Value
  05134	8b 45 fc	 mov	 eax, DWORD PTR _this$[ebp]
  05137	0f bf 48 06	 movsx	 ecx, WORD PTR [eax+6]
  0513b	81 f9 56 1c 00
	00		 cmp	 ecx, 7254		; 00001c56H
  05141	75 6d		 jne	 SHORT $LN8@Value
  05143	8b 45 fc	 mov	 eax, DWORD PTR _this$[ebp]
  05146	0f bf 48 06	 movsx	 ecx, WORD PTR [eax+6]
  0514a	81 f9 57 1c 00
	00		 cmp	 ecx, 7255		; 00001c57H
  05150	75 5e		 jne	 SHORT $LN8@Value
  05152	8b 45 fc	 mov	 eax, DWORD PTR _this$[ebp]
  05155	0f bf 48 06	 movsx	 ecx, WORD PTR [eax+6]
  05159	81 f9 5a 1c 00
	00		 cmp	 ecx, 7258		; 00001c5aH
  0515f	75 4f		 jne	 SHORT $LN8@Value

; 2568 : 	{
; 2569 : 		float lc15 = 1.0f-(this->m_Durability / this->m_BaseDurability);

  05161	8b 45 fc	 mov	 eax, DWORD PTR _this$[ebp]
  05164	d9 40 24	 fld	 DWORD PTR [eax+36]
  05167	8b 4d fc	 mov	 ecx, DWORD PTR _this$[ebp]
  0516a	d8 71 2c	 fdiv	 DWORD PTR [ecx+44]
  0516d	d9 e8		 fld1
  0516f	de e1		 fsubrp	 ST(1), ST(0)
  05171	d9 5d b4	 fstp	 DWORD PTR _lc15$231356[ebp]

; 2570 : 		int lc16 = (int)(this->m_SellMoney*0.6*lc15);

  05174	8b 45 fc	 mov	 eax, DWORD PTR _this$[ebp]
  05177	8b 48 6c	 mov	 ecx, DWORD PTR [eax+108]
  0517a	89 8d 68 ff ff
	ff		 mov	 DWORD PTR tv2021[ebp], ecx
  05180	c7 85 6c ff ff
	ff 00 00 00 00	 mov	 DWORD PTR tv2021[ebp+4], 0
  0518a	df ad 68 ff ff
	ff		 fild	 QWORD PTR tv2021[ebp]
  05190	dc 0d 00 00 00
	00		 fmul	 QWORD PTR __real@3fe3333333333333
  05196	d8 4d b4	 fmul	 DWORD PTR _lc15$231356[ebp]
  05199	e8 00 00 00 00	 call	 __ftol2_sse
  0519e	89 45 b0	 mov	 DWORD PTR _lc16$231357[ebp], eax

; 2571 : 		this->m_SellMoney -= lc16;

  051a1	8b 45 fc	 mov	 eax, DWORD PTR _this$[ebp]
  051a4	8b 48 6c	 mov	 ecx, DWORD PTR [eax+108]
  051a7	2b 4d b0	 sub	 ecx, DWORD PTR _lc16$231357[ebp]
  051aa	8b 55 fc	 mov	 edx, DWORD PTR _this$[ebp]
  051ad	89 4a 6c	 mov	 DWORD PTR [edx+108], ecx
$LN8@Value:

; 2572 : 	}
; 2573 : 
; 2574 : 	if ( this->m_SellMoney >= 1000 )

  051b0	8b 45 fc	 mov	 eax, DWORD PTR _this$[ebp]
  051b3	81 78 6c e8 03
	00 00		 cmp	 DWORD PTR [eax+108], 1000 ; 000003e8H
  051ba	72 1a		 jb	 SHORT $LN6@Value

; 2575 : 	{
; 2576 : 		this->m_SellMoney = this->m_SellMoney/100*100;

  051bc	8b 45 fc	 mov	 eax, DWORD PTR _this$[ebp]
  051bf	8b 40 6c	 mov	 eax, DWORD PTR [eax+108]
  051c2	33 d2		 xor	 edx, edx
  051c4	b9 64 00 00 00	 mov	 ecx, 100		; 00000064H
  051c9	f7 f1		 div	 ecx
  051cb	6b c0 64	 imul	 eax, 100		; 00000064H
  051ce	8b 55 fc	 mov	 edx, DWORD PTR _this$[ebp]
  051d1	89 42 6c	 mov	 DWORD PTR [edx+108], eax
  051d4	eb 21		 jmp	 SHORT $LN4@Value
$LN6@Value:

; 2577 : 	}
; 2578 : 	else if ( this->m_SellMoney >= 100 )

  051d6	8b 45 fc	 mov	 eax, DWORD PTR _this$[ebp]
  051d9	83 78 6c 64	 cmp	 DWORD PTR [eax+108], 100 ; 00000064H
  051dd	72 18		 jb	 SHORT $LN4@Value

; 2579 : 	{
; 2580 : 		this->m_SellMoney = this->m_SellMoney/10*10;

  051df	8b 45 fc	 mov	 eax, DWORD PTR _this$[ebp]
  051e2	8b 40 6c	 mov	 eax, DWORD PTR [eax+108]
  051e5	33 d2		 xor	 edx, edx
  051e7	b9 0a 00 00 00	 mov	 ecx, 10			; 0000000aH
  051ec	f7 f1		 div	 ecx
  051ee	6b c0 0a	 imul	 eax, 10			; 0000000aH
  051f1	8b 55 fc	 mov	 edx, DWORD PTR _this$[ebp]
  051f4	89 42 6c	 mov	 DWORD PTR [edx+108], eax
$LN4@Value:

; 2581 : 	}
; 2582 : 
; 2583 : 	if ( this->m_BuyMoney >= 1000 )

  051f7	8b 45 fc	 mov	 eax, DWORD PTR _this$[ebp]
  051fa	81 78 70 e8 03
	00 00		 cmp	 DWORD PTR [eax+112], 1000 ; 000003e8H
  05201	72 1a		 jb	 SHORT $LN3@Value

; 2584 : 	{
; 2585 : 		this->m_BuyMoney = this->m_BuyMoney/100*100;

  05203	8b 45 fc	 mov	 eax, DWORD PTR _this$[ebp]
  05206	8b 40 70	 mov	 eax, DWORD PTR [eax+112]
  05209	33 d2		 xor	 edx, edx
  0520b	b9 64 00 00 00	 mov	 ecx, 100		; 00000064H
  05210	f7 f1		 div	 ecx
  05212	6b c0 64	 imul	 eax, 100		; 00000064H
  05215	8b 55 fc	 mov	 edx, DWORD PTR _this$[ebp]
  05218	89 42 70	 mov	 DWORD PTR [edx+112], eax
  0521b	eb 21		 jmp	 SHORT $LN1@Value
$LN3@Value:

; 2586 : 	}
; 2587 : 	else if ( this->m_BuyMoney >= 100 )

  0521d	8b 45 fc	 mov	 eax, DWORD PTR _this$[ebp]
  05220	83 78 70 64	 cmp	 DWORD PTR [eax+112], 100 ; 00000064H
  05224	72 18		 jb	 SHORT $LN1@Value

; 2588 : 	{
; 2589 : 		this->m_BuyMoney = this->m_BuyMoney/10*10;

  05226	8b 45 fc	 mov	 eax, DWORD PTR _this$[ebp]
  05229	8b 40 70	 mov	 eax, DWORD PTR [eax+112]
  0522c	33 d2		 xor	 edx, edx
  0522e	b9 0a 00 00 00	 mov	 ecx, 10			; 0000000aH
  05233	f7 f1		 div	 ecx
  05235	6b c0 0a	 imul	 eax, 10			; 0000000aH
  05238	8b 55 fc	 mov	 edx, DWORD PTR _this$[ebp]
  0523b	89 42 70	 mov	 DWORD PTR [edx+112], eax
$LN1@Value:
$LN311@Value:

; 2590 : 	}
; 2591 : }

  0523e	5f		 pop	 edi
  0523f	5e		 pop	 esi
  05240	5b		 pop	 ebx
  05241	8b e5		 mov	 esp, ebp
  05243	5d		 pop	 ebp
  05244	c3		 ret	 0
  05245	8d 49 00	 npad	 3
$LN315@Value:
  05248	00 00 00 00	 DD	 $LN211@Value
  0524c	00 00 00 00	 DD	 $LN210@Value
  05250	00 00 00 00	 DD	 $LN209@Value
  05254	00 00 00 00	 DD	 $LN208@Value
  05258	00 00 00 00	 DD	 $LN207@Value
  0525c	00 00 00 00	 DD	 $LN206@Value
  05260	00 00 00 00	 DD	 $LN205@Value
$LN316@Value:
  05264	00 00 00 00	 DD	 $LN199@Value
  05268	00 00 00 00	 DD	 $LN198@Value
  0526c	00 00 00 00	 DD	 $LN197@Value
  05270	00 00 00 00	 DD	 $LN196@Value
  05274	00 00 00 00	 DD	 $LN195@Value
  05278	00 00 00 00	 DD	 $LN194@Value
  0527c	00 00 00 00	 DD	 $LN193@Value
$LN317@Value:
  05280	00 00 00 00	 DD	 $LN187@Value
  05284	00 00 00 00	 DD	 $LN186@Value
  05288	00 00 00 00	 DD	 $LN185@Value
  0528c	00 00 00 00	 DD	 $LN184@Value
  05290	00 00 00 00	 DD	 $LN183@Value
  05294	00 00 00 00	 DD	 $LN182@Value
  05298	00 00 00 00	 DD	 $LN181@Value
$LN318@Value:
  0529c	00 00 00 00	 DD	 $LN161@Value
  052a0	00 00 00 00	 DD	 $LN160@Value
  052a4	00 00 00 00	 DD	 $LN159@Value
  052a8	00 00 00 00	 DD	 $LN158@Value
  052ac	00 00 00 00	 DD	 $LN157@Value
  052b0	00 00 00 00	 DD	 $LN156@Value
  052b4	00 00 00 00	 DD	 $LN155@Value
  052b8	00 00 00 00	 DD	 $LN154@Value
$LN319@Value:
  052bc	00 00 00 00	 DD	 $LN147@Value
  052c0	00 00 00 00	 DD	 $LN146@Value
  052c4	00 00 00 00	 DD	 $LN145@Value
  052c8	00 00 00 00	 DD	 $LN144@Value
  052cc	00 00 00 00	 DD	 $LN143@Value
  052d0	00 00 00 00	 DD	 $LN142@Value
  052d4	00 00 00 00	 DD	 $LN141@Value
  052d8	00 00 00 00	 DD	 $LN140@Value
$LN320@Value:
  052dc	00 00 00 00	 DD	 $LN98@Value
  052e0	00 00 00 00	 DD	 $LN97@Value
  052e4	00 00 00 00	 DD	 $LN96@Value
  052e8	00 00 00 00	 DD	 $LN95@Value
  052ec	00 00 00 00	 DD	 $LN94@Value
  052f0	00 00 00 00	 DD	 $LN93@Value
$LN321@Value:
  052f4	00 00 00 00	 DD	 $LN60@Value
  052f8	00 00 00 00	 DD	 $LN59@Value
  052fc	00 00 00 00	 DD	 $LN58@Value
  05300	00 00 00 00	 DD	 $LN57@Value
  05304	00 00 00 00	 DD	 $LN56@Value
  05308	00 00 00 00	 DD	 $LN55@Value
  0530c	00 00 00 00	 DD	 $LN54@Value
  05310	00 00 00 00	 DD	 $LN53@Value
  05314	00 00 00 00	 DD	 $LN52@Value
$LN322@Value:
  05318	00 00 00 00	 DD	 $LN34@Value
  0531c	00 00 00 00	 DD	 $LN33@Value
  05320	00 00 00 00	 DD	 $LN26@Value
  05324	00 00 00 00	 DD	 $LN19@Value
  05328	00 00 00 00	 DD	 $LN18@Value
  0532c	00 00 00 00	 DD	 $LN17@Value
  05330	00 00 00 00	 DD	 $LN35@Value
$LN313@Value:
  05334	00		 DB	 0
  05335	00		 DB	 0
  05336	00		 DB	 0
  05337	00		 DB	 0
  05338	00		 DB	 0
  05339	00		 DB	 0
  0533a	00		 DB	 0
  0533b	06		 DB	 6
  0533c	06		 DB	 6
  0533d	06		 DB	 6
  0533e	06		 DB	 6
  0533f	06		 DB	 6
  05340	06		 DB	 6
  05341	06		 DB	 6
  05342	06		 DB	 6
  05343	06		 DB	 6
  05344	06		 DB	 6
  05345	06		 DB	 6
  05346	06		 DB	 6
  05347	06		 DB	 6
  05348	06		 DB	 6
  05349	06		 DB	 6
  0534a	06		 DB	 6
  0534b	06		 DB	 6
  0534c	06		 DB	 6
  0534d	06		 DB	 6
  0534e	06		 DB	 6
  0534f	06		 DB	 6
  05350	06		 DB	 6
  05351	06		 DB	 6
  05352	06		 DB	 6
  05353	06		 DB	 6
  05354	06		 DB	 6
  05355	06		 DB	 6
  05356	06		 DB	 6
  05357	06		 DB	 6
  05358	06		 DB	 6
  05359	06		 DB	 6
  0535a	00		 DB	 0
  0535b	06		 DB	 6
  0535c	06		 DB	 6
  0535d	06		 DB	 6
  0535e	06		 DB	 6
  0535f	06		 DB	 6
  05360	06		 DB	 6
  05361	06		 DB	 6
  05362	06		 DB	 6
  05363	06		 DB	 6
  05364	06		 DB	 6
  05365	06		 DB	 6
  05366	06		 DB	 6
  05367	06		 DB	 6
  05368	06		 DB	 6
  05369	06		 DB	 6
  0536a	06		 DB	 6
  0536b	06		 DB	 6
  0536c	06		 DB	 6
  0536d	06		 DB	 6
  0536e	06		 DB	 6
  0536f	06		 DB	 6
  05370	06		 DB	 6
  05371	06		 DB	 6
  05372	01		 DB	 1
  05373	01		 DB	 1
  05374	02		 DB	 2
  05375	01		 DB	 1
  05376	03		 DB	 3
  05377	01		 DB	 1
  05378	04		 DB	 4
  05379	04		 DB	 4
  0537a	04		 DB	 4
  0537b	04		 DB	 4
  0537c	04		 DB	 4
  0537d	04		 DB	 4
  0537e	04		 DB	 4
  0537f	04		 DB	 4
  05380	04		 DB	 4
  05381	04		 DB	 4
  05382	04		 DB	 4
  05383	04		 DB	 4
  05384	04		 DB	 4
  05385	04		 DB	 4
  05386	05		 DB	 5
  05387	05		 DB	 5
  05388	05		 DB	 5
  05389	05		 DB	 5
  0538a	05		 DB	 5
  0538b	06		 DB	 6
  0538c	06		 DB	 6
  0538d	06		 DB	 6
  0538e	05		 DB	 5
  0538f	05		 DB	 5
  05390	05		 DB	 5
  05391	05		 DB	 5
  05392	06		 DB	 6
  05393	01		 DB	 1
$LN323@Value:
  05394	00 00 00 00	 DD	 $LN30@Value
  05398	00 00 00 00	 DD	 $LN29@Value
  0539c	00 00 00 00	 DD	 $LN28@Value
  053a0	00 00 00 00	 DD	 $LN27@Value
$LN324@Value:
  053a4	00 00 00 00	 DD	 $LN23@Value
  053a8	00 00 00 00	 DD	 $LN22@Value
  053ac	00 00 00 00	 DD	 $LN21@Value
  053b0	00 00 00 00	 DD	 $LN20@Value
?Value@CItem@@QAEXXZ ENDP				; CItem::Value
_TEXT	ENDS
PUBLIC	?OldValue@CItem@@QAEXXZ				; CItem::OldValue
; Function compile flags: /Odtp /ZI
_TEXT	SEGMENT
_Gold$ = -8						; size = 4
_this$ = -4						; size = 4
?OldValue@CItem@@QAEXXZ PROC				; CItem::OldValue
; _this$ = ecx

; 2594 : {

  053c0	55		 push	 ebp
  053c1	8b ec		 mov	 ebp, esp
  053c3	83 ec 48	 sub	 esp, 72			; 00000048H
  053c6	53		 push	 ebx
  053c7	56		 push	 esi
  053c8	57		 push	 edi
  053c9	89 4d fc	 mov	 DWORD PTR _this$[ebp], ecx

; 2595 : 	if ( this->m_Type == -1 )

  053cc	8b 45 fc	 mov	 eax, DWORD PTR _this$[ebp]
  053cf	0f bf 48 06	 movsx	 ecx, WORD PTR [eax+6]
  053d3	83 f9 ff	 cmp	 ecx, -1
  053d6	75 05		 jne	 SHORT $LN14@OldValue

; 2596 : 	{
; 2597 : 		return;

  053d8	e9 f3 00 00 00	 jmp	 $LN15@OldValue
$LN14@OldValue:

; 2598 : 	}
; 2599 : 
; 2600 : 	int Gold = 0;

  053dd	c7 45 f8 00 00
	00 00		 mov	 DWORD PTR _Gold$[ebp], 0

; 2601 : 
; 2602 : 	if ( this->m_Type == ITEMGET(14,13) ) // Bless

  053e4	8b 45 fc	 mov	 eax, DWORD PTR _this$[ebp]
  053e7	0f bf 48 06	 movsx	 ecx, WORD PTR [eax+6]
  053eb	81 f9 0d 1c 00
	00		 cmp	 ecx, 7181		; 00001c0dH
  053f1	75 09		 jne	 SHORT $LN13@OldValue

; 2603 : 	{
; 2604 : 		Gold = 100000;

  053f3	c7 45 f8 a0 86
	01 00		 mov	 DWORD PTR _Gold$[ebp], 100000 ; 000186a0H
  053fa	eb 71		 jmp	 SHORT $LN12@OldValue
$LN13@OldValue:

; 2605 : 	}
; 2606 : 	else if ( this->m_Type == ITEMGET(14,14) ) // Soul

  053fc	8b 45 fc	 mov	 eax, DWORD PTR _this$[ebp]
  053ff	0f bf 48 06	 movsx	 ecx, WORD PTR [eax+6]
  05403	81 f9 0e 1c 00
	00		 cmp	 ecx, 7182		; 00001c0eH
  05409	75 09		 jne	 SHORT $LN11@OldValue

; 2607 : 	{
; 2608 : 		Gold = 70000;

  0540b	c7 45 f8 70 11
	01 00		 mov	 DWORD PTR _Gold$[ebp], 70000 ; 00011170H
  05412	eb 59		 jmp	 SHORT $LN12@OldValue
$LN11@OldValue:

; 2609 : 	}
; 2610 : 	else if ( this->m_Type == ITEMGET(12,15) ) // Chaos

  05414	8b 45 fc	 mov	 eax, DWORD PTR _this$[ebp]
  05417	0f bf 48 06	 movsx	 ecx, WORD PTR [eax+6]
  0541b	81 f9 0f 18 00
	00		 cmp	 ecx, 6159		; 0000180fH
  05421	75 09		 jne	 SHORT $LN9@OldValue

; 2611 : 	{
; 2612 : 		Gold = 40000;

  05423	c7 45 f8 40 9c
	00 00		 mov	 DWORD PTR _Gold$[ebp], 40000 ; 00009c40H
  0542a	eb 41		 jmp	 SHORT $LN12@OldValue
$LN9@OldValue:

; 2613 : 	}
; 2614 : 	else if ( this->m_Type == ITEMGET(14,22) ) // Creation

  0542c	8b 45 fc	 mov	 eax, DWORD PTR _this$[ebp]
  0542f	0f bf 48 06	 movsx	 ecx, WORD PTR [eax+6]
  05433	81 f9 16 1c 00
	00		 cmp	 ecx, 7190		; 00001c16H
  05439	75 09		 jne	 SHORT $LN7@OldValue

; 2615 : 	{
; 2616 : 		Gold = 450000;

  0543b	c7 45 f8 d0 dd
	06 00		 mov	 DWORD PTR _Gold$[ebp], 450000 ; 0006ddd0H
  05442	eb 29		 jmp	 SHORT $LN12@OldValue
$LN7@OldValue:

; 2617 : 	}
; 2618 : 	else if ( this->m_Type == ITEMGET(14,16) ) // Life

  05444	8b 45 fc	 mov	 eax, DWORD PTR _this$[ebp]
  05447	0f bf 48 06	 movsx	 ecx, WORD PTR [eax+6]
  0544b	81 f9 10 1c 00
	00		 cmp	 ecx, 7184		; 00001c10H
  05451	75 09		 jne	 SHORT $LN5@OldValue

; 2619 : 	{
; 2620 : 		Gold = 450000;

  05453	c7 45 f8 d0 dd
	06 00		 mov	 DWORD PTR _Gold$[ebp], 450000 ; 0006ddd0H

; 2621 : 	}
; 2622 : 	else

  0545a	eb 11		 jmp	 SHORT $LN12@OldValue
$LN5@OldValue:

; 2623 : 	{
; 2624 : 		this->m_OldBuyMoney = this->m_BuyMoney;

  0545c	8b 45 fc	 mov	 eax, DWORD PTR _this$[ebp]
  0545f	8b 4d fc	 mov	 ecx, DWORD PTR _this$[ebp]
  05462	8b 51 70	 mov	 edx, DWORD PTR [ecx+112]
  05465	89 90 90 00 00
	00		 mov	 DWORD PTR [eax+144], edx

; 2625 : 		return;

  0546b	eb 63		 jmp	 SHORT $LN15@OldValue
$LN12@OldValue:

; 2626 : 	}
; 2627 : 
; 2628 : 	this->m_OldBuyMoney = Gold;

  0546d	8b 45 fc	 mov	 eax, DWORD PTR _this$[ebp]
  05470	8b 4d f8	 mov	 ecx, DWORD PTR _Gold$[ebp]
  05473	89 88 90 00 00
	00		 mov	 DWORD PTR [eax+144], ecx

; 2629 : 
; 2630 : 	if ( this->m_OldBuyMoney >= 1000 )

  05479	8b 45 fc	 mov	 eax, DWORD PTR _this$[ebp]
  0547c	81 b8 90 00 00
	00 e8 03 00 00	 cmp	 DWORD PTR [eax+144], 1000 ; 000003e8H
  05486	7c 1f		 jl	 SHORT $LN3@OldValue

; 2631 : 	{
; 2632 : 		this->m_OldBuyMoney = this->m_OldBuyMoney /100*100;

  05488	8b 45 fc	 mov	 eax, DWORD PTR _this$[ebp]
  0548b	8b 80 90 00 00
	00		 mov	 eax, DWORD PTR [eax+144]
  05491	99		 cdq
  05492	b9 64 00 00 00	 mov	 ecx, 100		; 00000064H
  05497	f7 f9		 idiv	 ecx
  05499	6b c0 64	 imul	 eax, 100		; 00000064H
  0549c	8b 55 fc	 mov	 edx, DWORD PTR _this$[ebp]
  0549f	89 82 90 00 00
	00		 mov	 DWORD PTR [edx+144], eax
  054a5	eb 29		 jmp	 SHORT $LN15@OldValue
$LN3@OldValue:

; 2633 : 	}
; 2634 : 	else if ( this->m_OldBuyMoney >= 100 )

  054a7	8b 45 fc	 mov	 eax, DWORD PTR _this$[ebp]
  054aa	83 b8 90 00 00
	00 64		 cmp	 DWORD PTR [eax+144], 100 ; 00000064H
  054b1	7c 1d		 jl	 SHORT $LN15@OldValue

; 2635 : 	{
; 2636 : 		this->m_OldBuyMoney = this->m_OldBuyMoney / 10 * 10;

  054b3	8b 45 fc	 mov	 eax, DWORD PTR _this$[ebp]
  054b6	8b 80 90 00 00
	00		 mov	 eax, DWORD PTR [eax+144]
  054bc	99		 cdq
  054bd	b9 0a 00 00 00	 mov	 ecx, 10			; 0000000aH
  054c2	f7 f9		 idiv	 ecx
  054c4	6b c0 0a	 imul	 eax, 10			; 0000000aH
  054c7	8b 55 fc	 mov	 edx, DWORD PTR _this$[ebp]
  054ca	89 82 90 00 00
	00		 mov	 DWORD PTR [edx+144], eax
$LN15@OldValue:

; 2637 : 	}
; 2638 : }

  054d0	5f		 pop	 edi
  054d1	5e		 pop	 esi
  054d2	5b		 pop	 ebx
  054d3	8b e5		 mov	 esp, ebp
  054d5	5d		 pop	 ebp
  054d6	c3		 ret	 0
?OldValue@CItem@@QAEXXZ ENDP				; CItem::OldValue
_TEXT	ENDS
PUBLIC	??0CPetItemExp@@QAE@XZ				; CPetItemExp::CPetItemExp
; Function compile flags: /Odtp /ZI
_TEXT	SEGMENT
_i$231390 = -12						; size = 4
_i$231386 = -8						; size = 4
_this$ = -4						; size = 4
??0CPetItemExp@@QAE@XZ PROC				; CPetItemExp::CPetItemExp
; _this$ = ecx

; 2641 : {

  054e0	55		 push	 ebp
  054e1	8b ec		 mov	 ebp, esp
  054e3	83 ec 4c	 sub	 esp, 76			; 0000004cH
  054e6	53		 push	 ebx
  054e7	56		 push	 esi
  054e8	57		 push	 edi
  054e9	89 4d fc	 mov	 DWORD PTR _this$[ebp], ecx

; 2642 : 	this->m_DarkSpiritExpTable[0] = 0;

  054ec	8b 45 fc	 mov	 eax, DWORD PTR _this$[ebp]
  054ef	c7 00 00 00 00
	00		 mov	 DWORD PTR [eax], 0

; 2643 : 	this->m_DarkSpiritExpTable[1] = 0;

  054f5	8b 45 fc	 mov	 eax, DWORD PTR _this$[ebp]
  054f8	c7 40 04 00 00
	00 00		 mov	 DWORD PTR [eax+4], 0

; 2644 : 
; 2645 : 	for ( int i = 2 ; i < MAX_PET_LEVEL+2 ; i++ )

  054ff	c7 45 f8 02 00
	00 00		 mov	 DWORD PTR _i$231386[ebp], 2
  05506	eb 09		 jmp	 SHORT $LN6@CPetItemEx
$LN5@CPetItemEx:
  05508	8b 45 f8	 mov	 eax, DWORD PTR _i$231386[ebp]
  0550b	83 c0 01	 add	 eax, 1
  0550e	89 45 f8	 mov	 DWORD PTR _i$231386[ebp], eax
$LN6@CPetItemEx:
  05511	83 7d f8 34	 cmp	 DWORD PTR _i$231386[ebp], 52 ; 00000034H
  05515	7d 20		 jge	 SHORT $LN4@CPetItemEx

; 2646 : 	{
; 2647 : 		this->m_DarkSpiritExpTable[i] = (i+10) * i * i * i * 100;

  05517	8b 45 f8	 mov	 eax, DWORD PTR _i$231386[ebp]
  0551a	83 c0 0a	 add	 eax, 10			; 0000000aH
  0551d	0f af 45 f8	 imul	 eax, DWORD PTR _i$231386[ebp]
  05521	0f af 45 f8	 imul	 eax, DWORD PTR _i$231386[ebp]
  05525	0f af 45 f8	 imul	 eax, DWORD PTR _i$231386[ebp]
  05529	6b c0 64	 imul	 eax, 100		; 00000064H
  0552c	8b 4d f8	 mov	 ecx, DWORD PTR _i$231386[ebp]
  0552f	8b 55 fc	 mov	 edx, DWORD PTR _this$[ebp]
  05532	89 04 8a	 mov	 DWORD PTR [edx+ecx*4], eax

; 2648 : 	}

  05535	eb d1		 jmp	 SHORT $LN5@CPetItemEx
$LN4@CPetItemEx:

; 2649 : 
; 2650 : 	this->m_DarkHorseExpTable[0] = 0;

  05537	8b 45 fc	 mov	 eax, DWORD PTR _this$[ebp]
  0553a	c7 80 d0 00 00
	00 00 00 00 00	 mov	 DWORD PTR [eax+208], 0

; 2651 : 	this->m_DarkHorseExpTable[1] = 0;

  05544	8b 45 fc	 mov	 eax, DWORD PTR _this$[ebp]
  05547	c7 80 d4 00 00
	00 00 00 00 00	 mov	 DWORD PTR [eax+212], 0

; 2652 : 
; 2653 : 	for (int i = 2 ; i < MAX_PET_LEVEL+2 ; i++ )

  05551	c7 45 f4 02 00
	00 00		 mov	 DWORD PTR _i$231390[ebp], 2
  05558	eb 09		 jmp	 SHORT $LN3@CPetItemEx
$LN2@CPetItemEx:
  0555a	8b 45 f4	 mov	 eax, DWORD PTR _i$231390[ebp]
  0555d	83 c0 01	 add	 eax, 1
  05560	89 45 f4	 mov	 DWORD PTR _i$231390[ebp], eax
$LN3@CPetItemEx:
  05563	83 7d f4 34	 cmp	 DWORD PTR _i$231390[ebp], 52 ; 00000034H
  05567	7d 24		 jge	 SHORT $LN7@CPetItemEx

; 2654 : 	{
; 2655 : 		this->m_DarkHorseExpTable[i] = (i+10) * i * i * i * 100;

  05569	8b 45 f4	 mov	 eax, DWORD PTR _i$231390[ebp]
  0556c	83 c0 0a	 add	 eax, 10			; 0000000aH
  0556f	0f af 45 f4	 imul	 eax, DWORD PTR _i$231390[ebp]
  05573	0f af 45 f4	 imul	 eax, DWORD PTR _i$231390[ebp]
  05577	0f af 45 f4	 imul	 eax, DWORD PTR _i$231390[ebp]
  0557b	6b c0 64	 imul	 eax, 100		; 00000064H
  0557e	8b 4d f4	 mov	 ecx, DWORD PTR _i$231390[ebp]
  05581	8b 55 fc	 mov	 edx, DWORD PTR _this$[ebp]
  05584	89 84 8a d0 00
	00 00		 mov	 DWORD PTR [edx+ecx*4+208], eax

; 2656 : 	}

  0558b	eb cd		 jmp	 SHORT $LN2@CPetItemEx
$LN7@CPetItemEx:

; 2657 : }

  0558d	8b 45 fc	 mov	 eax, DWORD PTR _this$[ebp]
  05590	5f		 pop	 edi
  05591	5e		 pop	 esi
  05592	5b		 pop	 ebx
  05593	8b e5		 mov	 esp, ebp
  05595	5d		 pop	 ebp
  05596	c3		 ret	 0
??0CPetItemExp@@QAE@XZ ENDP				; CPetItemExp::CPetItemExp
_TEXT	ENDS
PUBLIC	?GetSize@CItem@@QAEHAAH0@Z			; CItem::GetSize
; Function compile flags: /Odtp /ZI
_TEXT	SEGMENT
_this$ = -4						; size = 4
_w$ = 8							; size = 4
_h$ = 12						; size = 4
?GetSize@CItem@@QAEHAAH0@Z PROC				; CItem::GetSize
; _this$ = ecx

; 2660 : {

  055a0	55		 push	 ebp
  055a1	8b ec		 mov	 ebp, esp
  055a3	83 ec 44	 sub	 esp, 68			; 00000044H
  055a6	53		 push	 ebx
  055a7	56		 push	 esi
  055a8	57		 push	 edi
  055a9	89 4d fc	 mov	 DWORD PTR _this$[ebp], ecx

; 2661 : 	w=ItemAttribute[this->m_Type].Width  ;

  055ac	8b 45 fc	 mov	 eax, DWORD PTR _this$[ebp]
  055af	0f bf 48 06	 movsx	 ecx, WORD PTR [eax+6]
  055b3	6b c9 70	 imul	 ecx, 112		; 00000070H
  055b6	0f b6 91 23 00
	00 00		 movzx	 edx, BYTE PTR ?ItemAttribute@@3PAUITEM_ATTRIBUTE@@A[ecx+35]
  055bd	8b 45 08	 mov	 eax, DWORD PTR _w$[ebp]
  055c0	89 10		 mov	 DWORD PTR [eax], edx

; 2662 : 	h=ItemAttribute[this->m_Type].Height  ;

  055c2	8b 45 fc	 mov	 eax, DWORD PTR _this$[ebp]
  055c5	0f bf 48 06	 movsx	 ecx, WORD PTR [eax+6]
  055c9	6b c9 70	 imul	 ecx, 112		; 00000070H
  055cc	0f b6 91 24 00
	00 00		 movzx	 edx, BYTE PTR ?ItemAttribute@@3PAUITEM_ATTRIBUTE@@A[ecx+36]
  055d3	8b 45 0c	 mov	 eax, DWORD PTR _h$[ebp]
  055d6	89 10		 mov	 DWORD PTR [eax], edx

; 2663 : 
; 2664 : 	return 1;

  055d8	b8 01 00 00 00	 mov	 eax, 1

; 2665 : }

  055dd	5f		 pop	 edi
  055de	5e		 pop	 esi
  055df	5b		 pop	 ebx
  055e0	8b e5		 mov	 esp, ebp
  055e2	5d		 pop	 ebp
  055e3	c2 08 00	 ret	 8
?GetSize@CItem@@QAEHAAH0@Z ENDP				; CItem::GetSize
_TEXT	ENDS
PUBLIC	?PlusSpecial@CItem@@QAEXPAHH@Z			; CItem::PlusSpecial
PUBLIC	?ItemDamageMin@CItem@@QAEHXZ			; CItem::ItemDamageMin
; Function compile flags: /Odtp /ZI
_TEXT	SEGMENT
_damagemin$ = -8					; size = 4
_this$ = -4						; size = 4
?ItemDamageMin@CItem@@QAEHXZ PROC			; CItem::ItemDamageMin
; _this$ = ecx

; 2668 : {

  055f0	55		 push	 ebp
  055f1	8b ec		 mov	 ebp, esp
  055f3	83 ec 48	 sub	 esp, 72			; 00000048H
  055f6	53		 push	 ebx
  055f7	56		 push	 esi
  055f8	57		 push	 edi
  055f9	89 4d fc	 mov	 DWORD PTR _this$[ebp], ecx

; 2669 : 	int damagemin;
; 2670 : 	
; 2671 : 	if (this->m_Type < 0)

  055fc	8b 45 fc	 mov	 eax, DWORD PTR _this$[ebp]
  055ff	0f bf 48 06	 movsx	 ecx, WORD PTR [eax+6]
  05603	85 c9		 test	 ecx, ecx
  05605	7d 06		 jge	 SHORT $LN2@ItemDamage

; 2672 : 	{
; 2673 : 		return 0;

  05607	33 c0		 xor	 eax, eax
  05609	eb 1d		 jmp	 SHORT $LN3@ItemDamage

; 2674 : 	}
; 2675 : 	else

  0560b	eb 1b		 jmp	 SHORT $LN3@ItemDamage
$LN2@ItemDamage:

; 2676 : 	{
; 2677 : 		damagemin=this->m_DamageMinOrigin;

  0560d	8b 45 fc	 mov	 eax, DWORD PTR _this$[ebp]
  05610	0f b7 48 1c	 movzx	 ecx, WORD PTR [eax+28]
  05614	89 4d f8	 mov	 DWORD PTR _damagemin$[ebp], ecx

; 2678 : 		this->PlusSpecial(&damagemin, 80);

  05617	6a 50		 push	 80			; 00000050H
  05619	8d 45 f8	 lea	 eax, DWORD PTR _damagemin$[ebp]
  0561c	50		 push	 eax
  0561d	8b 4d fc	 mov	 ecx, DWORD PTR _this$[ebp]
  05620	e8 00 00 00 00	 call	 ?PlusSpecial@CItem@@QAEXPAHH@Z ; CItem::PlusSpecial

; 2679 : 		return damagemin;

  05625	8b 45 f8	 mov	 eax, DWORD PTR _damagemin$[ebp]
$LN3@ItemDamage:

; 2680 : 	}
; 2681 : }

  05628	5f		 pop	 edi
  05629	5e		 pop	 esi
  0562a	5b		 pop	 ebx
  0562b	8b e5		 mov	 esp, ebp
  0562d	5d		 pop	 ebp
  0562e	c3		 ret	 0
?ItemDamageMin@CItem@@QAEHXZ ENDP			; CItem::ItemDamageMin
_TEXT	ENDS
PUBLIC	?ItemDefense@CItem@@QAEHXZ			; CItem::ItemDefense
; Function compile flags: /Odtp /ZI
_TEXT	SEGMENT
_Defense$ = -8						; size = 4
_this$ = -4						; size = 4
?ItemDefense@CItem@@QAEHXZ PROC				; CItem::ItemDefense
; _this$ = ecx

; 2684 : {

  05630	55		 push	 ebp
  05631	8b ec		 mov	 ebp, esp
  05633	83 ec 48	 sub	 esp, 72			; 00000048H
  05636	53		 push	 ebx
  05637	56		 push	 esi
  05638	57		 push	 edi
  05639	89 4d fc	 mov	 DWORD PTR _this$[ebp], ecx

; 2685 : 	int Defense;
; 2686 : 	
; 2687 : 	if (this->m_Type < 0)

  0563c	8b 45 fc	 mov	 eax, DWORD PTR _this$[ebp]
  0563f	0f bf 48 06	 movsx	 ecx, WORD PTR [eax+6]
  05643	85 c9		 test	 ecx, ecx
  05645	7d 06		 jge	 SHORT $LN4@ItemDefens

; 2688 : 	{
; 2689 : 		return 0;

  05647	33 c0		 xor	 eax, eax
  05649	eb 31		 jmp	 SHORT $LN5@ItemDefens

; 2690 : 	}
; 2691 : 	else

  0564b	eb 2f		 jmp	 SHORT $LN5@ItemDefens
$LN4@ItemDefens:

; 2692 : 	{
; 2693 : 		if (this->m_IsValidItem == false)

  0564d	8b 45 fc	 mov	 eax, DWORD PTR _this$[ebp]
  05650	0f b6 88 b0 00
	00 00		 movzx	 ecx, BYTE PTR [eax+176]
  05657	85 c9		 test	 ecx, ecx
  05659	75 06		 jne	 SHORT $LN2@ItemDefens

; 2694 : 		{
; 2695 : 			return 0;

  0565b	33 c0		 xor	 eax, eax
  0565d	eb 1d		 jmp	 SHORT $LN5@ItemDefens

; 2696 : 		}
; 2697 : 		else

  0565f	eb 1b		 jmp	 SHORT $LN5@ItemDefens
$LN2@ItemDefens:

; 2698 : 		{
; 2699 : 			Defense=this->m_Defense;

  05661	8b 45 fc	 mov	 eax, DWORD PTR _this$[ebp]
  05664	0f b7 48 16	 movzx	 ecx, WORD PTR [eax+22]
  05668	89 4d f8	 mov	 DWORD PTR _Defense$[ebp], ecx

; 2700 : 			this->PlusSpecial(&Defense, 83);

  0566b	6a 53		 push	 83			; 00000053H
  0566d	8d 45 f8	 lea	 eax, DWORD PTR _Defense$[ebp]
  05670	50		 push	 eax
  05671	8b 4d fc	 mov	 ecx, DWORD PTR _this$[ebp]
  05674	e8 00 00 00 00	 call	 ?PlusSpecial@CItem@@QAEXPAHH@Z ; CItem::PlusSpecial

; 2701 : 			return Defense;

  05679	8b 45 f8	 mov	 eax, DWORD PTR _Defense$[ebp]
$LN5@ItemDefens:

; 2702 : 		}
; 2703 : 	}
; 2704 : }

  0567c	5f		 pop	 edi
  0567d	5e		 pop	 esi
  0567e	5b		 pop	 ebx
  0567f	8b e5		 mov	 esp, ebp
  05681	5d		 pop	 ebp
  05682	c3		 ret	 0
?ItemDefense@CItem@@QAEHXZ ENDP				; CItem::ItemDefense
_TEXT	ENDS
PUBLIC	?BookSpellDmg@CItem@@QAEHXZ			; CItem::BookSpellDmg
; Function compile flags: /Odtp /ZI
_TEXT	SEGMENT
_Value$ = -8						; size = 4
_this$ = -4						; size = 4
?BookSpellDmg@CItem@@QAEHXZ PROC			; CItem::BookSpellDmg
; _this$ = ecx

; 2707 : {

  05690	55		 push	 ebp
  05691	8b ec		 mov	 ebp, esp
  05693	83 ec 48	 sub	 esp, 72			; 00000048H
  05696	53		 push	 ebx
  05697	56		 push	 esi
  05698	57		 push	 edi
  05699	89 4d fc	 mov	 DWORD PTR _this$[ebp], ecx

; 2708 : 	int Value;
; 2709 : 	
; 2710 : 	if (this->m_Type < 0)

  0569c	8b 45 fc	 mov	 eax, DWORD PTR _this$[ebp]
  0569f	0f bf 48 06	 movsx	 ecx, WORD PTR [eax+6]
  056a3	85 c9		 test	 ecx, ecx
  056a5	7d 04		 jge	 SHORT $LN2@BookSpellD

; 2711 : 	{
; 2712 : 		return 0;

  056a7	33 c0		 xor	 eax, eax
  056a9	eb 1f		 jmp	 SHORT $LN3@BookSpellD
$LN2@BookSpellD:

; 2713 : 	}
; 2714 : 
; 2715 : 	if(this->m_IsValidItem == false)

  056ab	8b 45 fc	 mov	 eax, DWORD PTR _this$[ebp]
  056ae	0f b6 88 b0 00
	00 00		 movzx	 ecx, BYTE PTR [eax+176]
  056b5	85 c9		 test	 ecx, ecx
  056b7	75 04		 jne	 SHORT $LN1@BookSpellD

; 2716 : 	{
; 2717 : 		return 0;

  056b9	33 c0		 xor	 eax, eax
  056bb	eb 0d		 jmp	 SHORT $LN3@BookSpellD
$LN1@BookSpellD:

; 2718 : 	}
; 2719 : 	
; 2720 : 	Value = this->m_BookSpell;

  056bd	8b 45 fc	 mov	 eax, DWORD PTR _this$[ebp]
  056c0	0f b7 48 22	 movzx	 ecx, WORD PTR [eax+34]
  056c4	89 4d f8	 mov	 DWORD PTR _Value$[ebp], ecx

; 2721 : 
; 2722 : 	return Value;

  056c7	8b 45 f8	 mov	 eax, DWORD PTR _Value$[ebp]
$LN3@BookSpellD:

; 2723 : }

  056ca	5f		 pop	 edi
  056cb	5e		 pop	 esi
  056cc	5b		 pop	 ebx
  056cd	8b e5		 mov	 esp, ebp
  056cf	5d		 pop	 ebp
  056d0	c3		 ret	 0
?BookSpellDmg@CItem@@QAEHXZ ENDP			; CItem::BookSpellDmg
_TEXT	ENDS
PUBLIC	??_C@_0BJ@IGGPIOPD@?E?$KM?$LH?$KB?$LN?$LK?5?$LP?$KB?$LH?$KP?5?3?5?$CFd?5?$CI?$CFs?5?$CFd?$CJ?$AA@ ; `string'
PUBLIC	??_C@_0DL@KBCBGEE@d?3?2projects?2exteam6?43?2source?2gam@ ; `string'
PUBLIC	?__LINE__Var@?1??IsClass@CItem@@QAEHDHH@Z@4JA	; `CItem::IsClass'::`2'::__LINE__Var
PUBLIC	?IsClass@CItem@@QAEHDHH@Z			; CItem::IsClass
EXTRN	?LogAdd@@3P6AXPADZZA:DWORD			; LogAdd
;	COMDAT ??_C@_0BJ@IGGPIOPD@?E?$KM?$LH?$KB?$LN?$LK?5?$LP?$KB?$LH?$KP?5?3?5?$CFd?5?$CI?$CFs?5?$CFd?$CJ?$AA@
CONST	SEGMENT
??_C@_0BJ@IGGPIOPD@?E?$KM?$LH?$KB?$LN?$LK?5?$LP?$KB?$LH?$KP?5?3?5?$CFd?5?$CI?$CFs?5?$CFd?$CJ?$AA@ DB 0c5H
	DB	0acH, 0b7H, 0a1H, 0bdH, 0baH, ' ', 0bfH, 0a1H, 0b7H, 0afH, ' :'
	DB	' %d (%s %d)', 00H				; `string'
CONST	ENDS
;	COMDAT ??_C@_0DL@KBCBGEE@d?3?2projects?2exteam6?43?2source?2gam@
CONST	SEGMENT
??_C@_0DL@KBCBGEE@d?3?2projects?2exteam6?43?2source?2gam@ DB 'd:\projects'
	DB	'\exteam6.3\source\gameserver\common\zzzitem.cpp', 00H ; `string'
CONST	ENDS
;	COMDAT ?__LINE__Var@?1??IsClass@CItem@@QAEHDHH@Z@4JA
_DATA	SEGMENT
?__LINE__Var@?1??IsClass@CItem@@QAEHDHH@Z@4JA DD 0aa6H	; `CItem::IsClass'::`2'::__LINE__Var
; Function compile flags: /Odtp /ZI
_DATA	ENDS
_TEXT	SEGMENT
_requireclass$ = -8					; size = 4
_this$ = -4						; size = 4
_aClass$ = 8						; size = 1
_ChangeUP$ = 12						; size = 4
_ChangeUP3rd$ = 16					; size = 4
?IsClass@CItem@@QAEHDHH@Z PROC				; CItem::IsClass
; _this$ = ecx

; 2726 : {

  056e0	55		 push	 ebp
  056e1	8b ec		 mov	 ebp, esp
  056e3	83 ec 48	 sub	 esp, 72			; 00000048H
  056e6	53		 push	 ebx
  056e7	56		 push	 esi
  056e8	57		 push	 edi
  056e9	89 4d fc	 mov	 DWORD PTR _this$[ebp], ecx

; 2727 : 	if ((aClass < 0) || (aClass >= MAX_TYPE_PLAYER ))

  056ec	0f be 45 08	 movsx	 eax, BYTE PTR _aClass$[ebp]
  056f0	85 c0		 test	 eax, eax
  056f2	7c 09		 jl	 SHORT $LN7@IsClass
  056f4	0f be 45 08	 movsx	 eax, BYTE PTR _aClass$[ebp]
  056f8	83 f8 07	 cmp	 eax, 7
  056fb	7c 25		 jl	 SHORT $LN8@IsClass
$LN7@IsClass:

; 2728 : 	{
; 2729 : 		LogAdd("  : %d (%s %d)", aClass, __FILE__, __LINE__);

  056fd	a1 00 00 00 00	 mov	 eax, DWORD PTR ?__LINE__Var@?1??IsClass@CItem@@QAEHDHH@Z@4JA
  05702	83 c0 03	 add	 eax, 3
  05705	50		 push	 eax
  05706	68 00 00 00 00	 push	 OFFSET ??_C@_0DL@KBCBGEE@d?3?2projects?2exteam6?43?2source?2gam@
  0570b	0f be 4d 08	 movsx	 ecx, BYTE PTR _aClass$[ebp]
  0570f	51		 push	 ecx
  05710	68 00 00 00 00	 push	 OFFSET ??_C@_0BJ@IGGPIOPD@?E?$KM?$LH?$KB?$LN?$LK?5?$LP?$KB?$LH?$KP?5?3?5?$CFd?5?$CI?$CFs?5?$CFd?$CJ?$AA@
  05715	ff 15 00 00 00
	00		 call	 DWORD PTR ?LogAdd@@3P6AXPADZZA ; LogAdd
  0571b	83 c4 10	 add	 esp, 16			; 00000010H

; 2730 : 		return 0;

  0571e	33 c0		 xor	 eax, eax
  05720	eb 4a		 jmp	 SHORT $LN9@IsClass
$LN8@IsClass:

; 2731 : 	}
; 2732 : 	
; 2733 : 	int requireclass=this->m_RequireClass[aClass];

  05722	0f be 45 08	 movsx	 eax, BYTE PTR _aClass$[ebp]
  05726	8b 4d fc	 mov	 ecx, DWORD PTR _this$[ebp]
  05729	0f b6 54 01 58	 movzx	 edx, BYTE PTR [ecx+eax+88]
  0572e	89 55 f8	 mov	 DWORD PTR _requireclass$[ebp], edx

; 2734 : 	if (requireclass == 0)

  05731	83 7d f8 00	 cmp	 DWORD PTR _requireclass$[ebp], 0
  05735	75 04		 jne	 SHORT $LN6@IsClass

; 2735 : 	{
; 2736 : 		return 0;

  05737	33 c0		 xor	 eax, eax
  05739	eb 31		 jmp	 SHORT $LN9@IsClass
$LN6@IsClass:

; 2737 : 	}
; 2738 : 	if (requireclass >= 3)

  0573b	83 7d f8 03	 cmp	 DWORD PTR _requireclass$[ebp], 3
  0573f	7c 11		 jl	 SHORT $LN5@IsClass

; 2739 : 	{
; 2740 : 		if (requireclass != (ChangeUP3rd+2))

  05741	8b 45 10	 mov	 eax, DWORD PTR _ChangeUP3rd$[ebp]
  05744	83 c0 02	 add	 eax, 2
  05747	39 45 f8	 cmp	 DWORD PTR _requireclass$[ebp], eax
  0574a	74 04		 je	 SHORT $LN4@IsClass

; 2741 : 		{
; 2742 : 			return 0;

  0574c	33 c0		 xor	 eax, eax
  0574e	eb 1c		 jmp	 SHORT $LN9@IsClass
$LN4@IsClass:

; 2743 : 		}
; 2744 : 	}
; 2745 : 	else

  05750	eb 15		 jmp	 SHORT $LN3@IsClass
$LN5@IsClass:

; 2746 : 	{
; 2747 : 		if (requireclass > 1)

  05752	83 7d f8 01	 cmp	 DWORD PTR _requireclass$[ebp], 1
  05756	7e 0f		 jle	 SHORT $LN3@IsClass

; 2748 : 		{
; 2749 : 			if ( requireclass  != (ChangeUP+1) )

  05758	8b 45 0c	 mov	 eax, DWORD PTR _ChangeUP$[ebp]
  0575b	83 c0 01	 add	 eax, 1
  0575e	39 45 f8	 cmp	 DWORD PTR _requireclass$[ebp], eax
  05761	74 04		 je	 SHORT $LN3@IsClass

; 2750 : 			{
; 2751 : 				return 0;

  05763	33 c0		 xor	 eax, eax
  05765	eb 05		 jmp	 SHORT $LN9@IsClass
$LN3@IsClass:

; 2752 : 			}
; 2753 : 		}
; 2754 : 	}
; 2755 : 	return 1;

  05767	b8 01 00 00 00	 mov	 eax, 1
$LN9@IsClass:

; 2756 : }

  0576c	5f		 pop	 edi
  0576d	5e		 pop	 esi
  0576e	5b		 pop	 ebx
  0576f	8b e5		 mov	 esp, ebp
  05771	5d		 pop	 ebp
  05772	c2 0c 00	 ret	 12			; 0000000cH
?IsClass@CItem@@QAEHDHH@Z ENDP				; CItem::IsClass
_TEXT	ENDS
PUBLIC	?GetName@CItem@@QAEPADXZ			; CItem::GetName
; Function compile flags: /Odtp /ZI
_TEXT	SEGMENT
_this$ = -4						; size = 4
?GetName@CItem@@QAEPADXZ PROC				; CItem::GetName
; _this$ = ecx

; 2759 : {

  05780	55		 push	 ebp
  05781	8b ec		 mov	 ebp, esp
  05783	83 ec 44	 sub	 esp, 68			; 00000044H
  05786	53		 push	 ebx
  05787	56		 push	 esi
  05788	57		 push	 edi
  05789	89 4d fc	 mov	 DWORD PTR _this$[ebp], ecx

; 2760 : 	return &ItemAttribute[this->m_Type].Name[0];

  0578c	8b 45 fc	 mov	 eax, DWORD PTR _this$[ebp]
  0578f	0f bf 40 06	 movsx	 eax, WORD PTR [eax+6]
  05793	6b c0 70	 imul	 eax, 112		; 00000070H
  05796	05 00 00 00 00	 add	 eax, OFFSET ?ItemAttribute@@3PAUITEM_ATTRIBUTE@@A ; ItemAttribute

; 2761 : }

  0579b	5f		 pop	 edi
  0579c	5e		 pop	 esi
  0579d	5b		 pop	 ebx
  0579e	8b e5		 mov	 esp, ebp
  057a0	5d		 pop	 ebp
  057a1	c3		 ret	 0
?GetName@CItem@@QAEPADXZ ENDP				; CItem::GetName
_TEXT	ENDS
PUBLIC	?PlusSpecialSetRing@CItem@@QAEXPAE@Z		; CItem::PlusSpecialSetRing
; Function compile flags: /Odtp /ZI
_TEXT	SEGMENT
tv154 = -92						; size = 4
tv152 = -88						; size = 4
tv149 = -82						; size = 2
tv146 = -80						; size = 4
_iValue$ = -9						; size = 1
_p$ = -8						; size = 4
_this$ = -4						; size = 4
_Value$ = 8						; size = 4
?PlusSpecialSetRing@CItem@@QAEXPAE@Z PROC		; CItem::PlusSpecialSetRing
; _this$ = ecx

; 2764 : {

  057b0	55		 push	 ebp
  057b1	8b ec		 mov	 ebp, esp
  057b3	83 ec 5c	 sub	 esp, 92			; 0000005cH
  057b6	53		 push	 ebx
  057b7	56		 push	 esi
  057b8	57		 push	 edi
  057b9	89 4d fc	 mov	 DWORD PTR _this$[ebp], ecx

; 2765 : 	if ( this->m_Type < 0 )

  057bc	8b 45 fc	 mov	 eax, DWORD PTR _this$[ebp]
  057bf	0f bf 48 06	 movsx	 ecx, WORD PTR [eax+6]
  057c3	85 c9		 test	 ecx, ecx
  057c5	7d 05		 jge	 SHORT $LN5@PlusSpecia

; 2766 : 	{
; 2767 : 		return;

  057c7	e9 ae 00 00 00	 jmp	 $LN6@PlusSpecia
$LN5@PlusSpecia:

; 2768 : 	}
; 2769 : 
; 2770 : 	if ( this->IsSetItem() == FALSE )

  057cc	8b 4d fc	 mov	 ecx, DWORD PTR _this$[ebp]
  057cf	e8 00 00 00 00	 call	 ?IsSetItem@CItem@@QAEHXZ ; CItem::IsSetItem
  057d4	85 c0		 test	 eax, eax
  057d6	75 05		 jne	 SHORT $LN4@PlusSpecia

; 2771 : 	{
; 2772 : 		return;

  057d8	e9 9d 00 00 00	 jmp	 $LN6@PlusSpecia
$LN4@PlusSpecia:

; 2773 : 	}
; 2774 : 
; 2775 : 	if ( this->m_Durability == 0.0f)

  057dd	8b 45 fc	 mov	 eax, DWORD PTR _this$[ebp]
  057e0	d9 40 24	 fld	 DWORD PTR [eax+36]
  057e3	d9 ee		 fldz
  057e5	da e9		 fucompp
  057e7	df e0		 fnstsw	 ax
  057e9	f6 c4 44	 test	 ah, 68			; 00000044H
  057ec	7a 05		 jp	 SHORT $LN3@PlusSpecia

; 2776 : 	{
; 2777 : 		return;

  057ee	e9 87 00 00 00	 jmp	 $LN6@PlusSpecia
$LN3@PlusSpecia:

; 2778 : 	}
; 2779 : 
; 2780 : 	if ( this->m_IsValidItem == false )

  057f3	8b 45 fc	 mov	 eax, DWORD PTR _this$[ebp]
  057f6	0f b6 88 b0 00
	00 00		 movzx	 ecx, BYTE PTR [eax+176]
  057fd	85 c9		 test	 ecx, ecx
  057ff	75 02		 jne	 SHORT $LN2@PlusSpecia

; 2781 : 	{
; 2782 : 		return;

  05801	eb 77		 jmp	 SHORT $LN6@PlusSpecia
$LN2@PlusSpecia:

; 2783 : 	}
; 2784 : 
; 2785 : 	LPITEM_ATTRIBUTE p = &ItemAttribute[this->m_Type];

  05803	8b 45 fc	 mov	 eax, DWORD PTR _this$[ebp]
  05806	0f bf 48 06	 movsx	 ecx, WORD PTR [eax+6]
  0580a	6b c9 70	 imul	 ecx, 112		; 00000070H
  0580d	81 c1 00 00 00
	00		 add	 ecx, OFFSET ?ItemAttribute@@3PAUITEM_ATTRIBUTE@@A ; ItemAttribute
  05813	89 4d f8	 mov	 DWORD PTR _p$[ebp], ecx

; 2786 : 
; 2787 : 	if ( p->ResistanceType == -1 )

  05816	8b 45 f8	 mov	 eax, DWORD PTR _p$[ebp]
  05819	0f b6 48 62	 movzx	 ecx, BYTE PTR [eax+98]
  0581d	83 f9 ff	 cmp	 ecx, -1
  05820	75 02		 jne	 SHORT $LN1@PlusSpecia

; 2788 : 	{
; 2789 : 		return;

  05822	eb 56		 jmp	 SHORT $LN6@PlusSpecia
$LN1@PlusSpecia:

; 2790 : 	}
; 2791 : 
; 2792 : 	BYTE iValue = 5;

  05824	c6 45 f7 05	 mov	 BYTE PTR _iValue$[ebp], 5

; 2793 : 	Value[p->ResistanceType] += iValue - (BYTE)( iValue * this->m_CurrentDurabilityState);

  05828	8b 45 f8	 mov	 eax, DWORD PTR _p$[ebp]
  0582b	0f b6 48 62	 movzx	 ecx, BYTE PTR [eax+98]
  0582f	0f b6 55 f7	 movzx	 edx, BYTE PTR _iValue$[ebp]
  05833	0f b6 45 f7	 movzx	 eax, BYTE PTR _iValue$[ebp]
  05837	89 45 b0	 mov	 DWORD PTR tv146[ebp], eax
  0583a	db 45 b0	 fild	 DWORD PTR tv146[ebp]
  0583d	8b 45 fc	 mov	 eax, DWORD PTR _this$[ebp]
  05840	d8 88 a8 00 00
	00		 fmul	 DWORD PTR [eax+168]
  05846	d9 7d ae	 fnstcw	 WORD PTR tv149[ebp]
  05849	0f b7 45 ae	 movzx	 eax, WORD PTR tv149[ebp]
  0584d	0d 00 0c 00 00	 or	 eax, 3072		; 00000c00H
  05852	89 45 a8	 mov	 DWORD PTR tv152[ebp], eax
  05855	d9 6d a8	 fldcw	 WORD PTR tv152[ebp]
  05858	db 5d a4	 fistp	 DWORD PTR tv154[ebp]
  0585b	d9 6d ae	 fldcw	 WORD PTR tv149[ebp]
  0585e	0f b6 45 a4	 movzx	 eax, BYTE PTR tv154[ebp]
  05862	2b d0		 sub	 edx, eax
  05864	8b 45 08	 mov	 eax, DWORD PTR _Value$[ebp]
  05867	0f b6 0c 08	 movzx	 ecx, BYTE PTR [eax+ecx]
  0586b	03 ca		 add	 ecx, edx
  0586d	8b 55 f8	 mov	 edx, DWORD PTR _p$[ebp]
  05870	0f b6 42 62	 movzx	 eax, BYTE PTR [edx+98]
  05874	8b 55 08	 mov	 edx, DWORD PTR _Value$[ebp]
  05877	88 0c 02	 mov	 BYTE PTR [edx+eax], cl
$LN6@PlusSpecia:

; 2794 : }

  0587a	5f		 pop	 edi
  0587b	5e		 pop	 esi
  0587c	5b		 pop	 ebx
  0587d	8b e5		 mov	 esp, ebp
  0587f	5d		 pop	 ebp
  05880	c2 04 00	 ret	 4
?PlusSpecialSetRing@CItem@@QAEXPAE@Z ENDP		; CItem::PlusSpecialSetRing
; Function compile flags: /Odtp /ZI
tv82 = -84						; size = 4
_lc4$231474 = -16					; size = 4
_lc3$231470 = -12					; size = 4
_i$231460 = -8						; size = 4
_this$ = -4						; size = 4
_Value$ = 8						; size = 4
_Special$ = 12						; size = 4
?PlusSpecial@CItem@@QAEXPAHH@Z PROC			; CItem::PlusSpecial
; _this$ = ecx

; 2797 : {

  05890	55		 push	 ebp
  05891	8b ec		 mov	 ebp, esp
  05893	83 ec 54	 sub	 esp, 84			; 00000054H
  05896	53		 push	 ebx
  05897	56		 push	 esi
  05898	57		 push	 edi
  05899	89 4d fc	 mov	 DWORD PTR _this$[ebp], ecx

; 2798 : 	if ( this->m_Type < 0 )

  0589c	8b 45 fc	 mov	 eax, DWORD PTR _this$[ebp]
  0589f	0f bf 48 06	 movsx	 ecx, WORD PTR [eax+6]
  058a3	85 c9		 test	 ecx, ecx
  058a5	7d 05		 jge	 SHORT $LN16@PlusSpecia@2

; 2799 : 	{
; 2800 : 		return;

  058a7	e9 61 01 00 00	 jmp	 $LN17@PlusSpecia@2
$LN16@PlusSpecia@2:

; 2801 : 	}
; 2802 : 
; 2803 : 	if ( this->m_Durability == 0.0f)

  058ac	8b 45 fc	 mov	 eax, DWORD PTR _this$[ebp]
  058af	d9 40 24	 fld	 DWORD PTR [eax+36]
  058b2	d9 ee		 fldz
  058b4	da e9		 fucompp
  058b6	df e0		 fnstsw	 ax
  058b8	f6 c4 44	 test	 ah, 68			; 00000044H
  058bb	7a 05		 jp	 SHORT $LN15@PlusSpecia@2

; 2804 : 	{
; 2805 : 		return;

  058bd	e9 4b 01 00 00	 jmp	 $LN17@PlusSpecia@2
$LN15@PlusSpecia@2:

; 2806 : 	}
; 2807 : 
; 2808 : 	if ( this->m_IsValidItem == false )

  058c2	8b 45 fc	 mov	 eax, DWORD PTR _this$[ebp]
  058c5	0f b6 88 b0 00
	00 00		 movzx	 ecx, BYTE PTR [eax+176]
  058cc	85 c9		 test	 ecx, ecx
  058ce	75 05		 jne	 SHORT $LN14@PlusSpecia@2

; 2809 : 	{
; 2810 : 		return;

  058d0	e9 38 01 00 00	 jmp	 $LN17@PlusSpecia@2
$LN14@PlusSpecia@2:

; 2811 : 	}
; 2812 : 
; 2813 : 	for (int i =0;i<this->m_SpecialNum;i++)

  058d5	c7 45 f8 00 00
	00 00		 mov	 DWORD PTR _i$231460[ebp], 0
  058dc	eb 09		 jmp	 SHORT $LN13@PlusSpecia@2
$LN12@PlusSpecia@2:
  058de	8b 45 f8	 mov	 eax, DWORD PTR _i$231460[ebp]
  058e1	83 c0 01	 add	 eax, 1
  058e4	89 45 f8	 mov	 DWORD PTR _i$231460[ebp], eax
$LN13@PlusSpecia@2:
  058e7	8b 45 fc	 mov	 eax, DWORD PTR _this$[ebp]
  058ea	0f b6 48 30	 movzx	 ecx, BYTE PTR [eax+48]
  058ee	39 4d f8	 cmp	 DWORD PTR _i$231460[ebp], ecx
  058f1	0f 8d 16 01 00
	00		 jge	 $LN11@PlusSpecia@2

; 2814 : 	{
; 2815 : 		if ( this->m_Special[i] == Special )

  058f7	8b 45 f8	 mov	 eax, DWORD PTR _i$231460[ebp]
  058fa	8b 4d fc	 mov	 ecx, DWORD PTR _this$[ebp]
  058fd	0f b7 54 41 32	 movzx	 edx, WORD PTR [ecx+eax*2+50]
  05902	3b 55 0c	 cmp	 edx, DWORD PTR _Special$[ebp]
  05905	0f 85 fd 00 00
	00		 jne	 $LN8@PlusSpecia@2

; 2816 : 		{
; 2817 : 			switch ( Special )

  0590b	8b 45 0c	 mov	 eax, DWORD PTR _Special$[ebp]
  0590e	89 45 ac	 mov	 DWORD PTR tv82[ebp], eax
  05911	8b 4d ac	 mov	 ecx, DWORD PTR tv82[ebp]
  05914	83 e9 50	 sub	 ecx, 80			; 00000050H
  05917	89 4d ac	 mov	 DWORD PTR tv82[ebp], ecx
  0591a	83 7d ac 21	 cmp	 DWORD PTR tv82[ebp], 33	; 00000021H
  0591e	0f 87 cd 00 00
	00		 ja	 $LN1@PlusSpecia@2
  05924	8b 55 ac	 mov	 edx, DWORD PTR tv82[ebp]
  05927	0f b6 82 00 00
	00 00		 movzx	 eax, BYTE PTR $LN19@PlusSpecia@2[edx]
  0592e	ff 24 85 00 00
	00 00		 jmp	 DWORD PTR $LN20@PlusSpecia@2[eax*4]
$LN7@PlusSpecia@2:

; 2818 : 			{
; 2819 : 				case 82:
; 2820 : 					{
; 2821 : 						int lc3 = this->m_Option3*5;

  05935	8b 45 fc	 mov	 eax, DWORD PTR _this$[ebp]
  05938	0f b6 88 96 00
	00 00		 movzx	 ecx, BYTE PTR [eax+150]
  0593f	6b c9 05	 imul	 ecx, 5
  05942	89 4d f4	 mov	 DWORD PTR _lc3$231470[ebp], ecx

; 2822 : 						*Value += lc3 - (int)( lc3 * this->m_CurrentDurabilityState );

  05945	db 45 f4	 fild	 DWORD PTR _lc3$231470[ebp]
  05948	8b 45 fc	 mov	 eax, DWORD PTR _this$[ebp]
  0594b	d8 88 a8 00 00
	00		 fmul	 DWORD PTR [eax+168]
  05951	e8 00 00 00 00	 call	 __ftol2_sse
  05956	8b 4d f4	 mov	 ecx, DWORD PTR _lc3$231470[ebp]
  05959	2b c8		 sub	 ecx, eax
  0595b	8b 55 08	 mov	 edx, DWORD PTR _Value$[ebp]
  0595e	03 0a		 add	 ecx, DWORD PTR [edx]
  05960	8b 45 08	 mov	 eax, DWORD PTR _Value$[ebp]
  05963	89 08		 mov	 DWORD PTR [eax], ecx

; 2823 : 					}
; 2824 : 					break;

  05965	e9 9e 00 00 00	 jmp	 $LN8@PlusSpecia@2
$LN6@PlusSpecia@2:

; 2825 : 
; 2826 : 				case 84:
; 2827 : 					* Value += 4;

  0596a	8b 45 08	 mov	 eax, DWORD PTR _Value$[ebp]
  0596d	8b 08		 mov	 ecx, DWORD PTR [eax]
  0596f	83 c1 04	 add	 ecx, 4
  05972	8b 55 08	 mov	 edx, DWORD PTR _Value$[ebp]
  05975	89 0a		 mov	 DWORD PTR [edx], ecx

; 2828 : 					break;

  05977	e9 8c 00 00 00	 jmp	 $LN8@PlusSpecia@2
$LN5@PlusSpecia@2:

; 2829 : 
; 2830 : 				case 81:
; 2831 : 				case 80:
; 2832 : 				case 83:
; 2833 : 				case 113: //Summoner
; 2834 : 					{
; 2835 : 						int lc4 = this->m_Option3*4;

  0597c	8b 45 fc	 mov	 eax, DWORD PTR _this$[ebp]
  0597f	0f b6 88 96 00
	00 00		 movzx	 ecx, BYTE PTR [eax+150]
  05986	c1 e1 02	 shl	 ecx, 2
  05989	89 4d f0	 mov	 DWORD PTR _lc4$231474[ebp], ecx

; 2836 : 						*Value += lc4 - (int)( lc4 * this->m_CurrentDurabilityState );

  0598c	db 45 f0	 fild	 DWORD PTR _lc4$231474[ebp]
  0598f	8b 45 fc	 mov	 eax, DWORD PTR _this$[ebp]
  05992	d8 88 a8 00 00
	00		 fmul	 DWORD PTR [eax+168]
  05998	e8 00 00 00 00	 call	 __ftol2_sse
  0599d	8b 4d f0	 mov	 ecx, DWORD PTR _lc4$231474[ebp]
  059a0	2b c8		 sub	 ecx, eax
  059a2	8b 55 08	 mov	 edx, DWORD PTR _Value$[ebp]
  059a5	03 0a		 add	 ecx, DWORD PTR [edx]
  059a7	8b 45 08	 mov	 eax, DWORD PTR _Value$[ebp]
  059aa	89 08		 mov	 DWORD PTR [eax], ecx

; 2837 : 					}
; 2838 : 					break;

  059ac	eb 5a		 jmp	 SHORT $LN8@PlusSpecia@2
$LN4@PlusSpecia@2:

; 2839 : 
; 2840 : 				case 100:
; 2841 : 				case 101:
; 2842 : 					*Value =  *Value + this->m_Level * 5 + 50;

  059ae	8b 45 fc	 mov	 eax, DWORD PTR _this$[ebp]
  059b1	0f bf 48 08	 movsx	 ecx, WORD PTR [eax+8]
  059b5	6b c9 05	 imul	 ecx, 5
  059b8	8b 55 08	 mov	 edx, DWORD PTR _Value$[ebp]
  059bb	8b 02		 mov	 eax, DWORD PTR [edx]
  059bd	8d 4c 08 32	 lea	 ecx, DWORD PTR [eax+ecx+50]
  059c1	8b 55 08	 mov	 edx, DWORD PTR _Value$[ebp]
  059c4	89 0a		 mov	 DWORD PTR [edx], ecx

; 2843 : 					break;

  059c6	eb 40		 jmp	 SHORT $LN8@PlusSpecia@2
$LN3@PlusSpecia@2:

; 2844 : 
; 2845 : 				case 103:
; 2846 : 					*Value += 50;

  059c8	8b 45 08	 mov	 eax, DWORD PTR _Value$[ebp]
  059cb	8b 08		 mov	 ecx, DWORD PTR [eax]
  059cd	83 c1 32	 add	 ecx, 50			; 00000032H
  059d0	8b 55 08	 mov	 edx, DWORD PTR _Value$[ebp]
  059d3	89 0a		 mov	 DWORD PTR [edx], ecx

; 2847 : 					break;

  059d5	eb 31		 jmp	 SHORT $LN8@PlusSpecia@2
$LN2@PlusSpecia@2:

; 2848 : 
; 2849 : 				case 105:
; 2850 : 					*Value =  *Value + this->m_Level * 5 + 10;

  059d7	8b 45 fc	 mov	 eax, DWORD PTR _this$[ebp]
  059da	0f bf 48 08	 movsx	 ecx, WORD PTR [eax+8]
  059de	6b c9 05	 imul	 ecx, 5
  059e1	8b 55 08	 mov	 edx, DWORD PTR _Value$[ebp]
  059e4	8b 02		 mov	 eax, DWORD PTR [edx]
  059e6	8d 4c 08 0a	 lea	 ecx, DWORD PTR [eax+ecx+10]
  059ea	8b 55 08	 mov	 edx, DWORD PTR _Value$[ebp]
  059ed	89 0a		 mov	 DWORD PTR [edx], ecx

; 2851 : 
; 2852 : 					break;

  059ef	eb 17		 jmp	 SHORT $LN8@PlusSpecia@2
$LN1@PlusSpecia@2:

; 2853 : 
; 2854 : 				default:
; 2855 : 					*Value = *Value + (this->m_Option3*4);

  059f1	8b 45 fc	 mov	 eax, DWORD PTR _this$[ebp]
  059f4	0f b6 88 96 00
	00 00		 movzx	 ecx, BYTE PTR [eax+150]
  059fb	8b 55 08	 mov	 edx, DWORD PTR _Value$[ebp]
  059fe	8b 02		 mov	 eax, DWORD PTR [edx]
  05a00	8d 0c 88	 lea	 ecx, DWORD PTR [eax+ecx*4]
  05a03	8b 55 08	 mov	 edx, DWORD PTR _Value$[ebp]
  05a06	89 0a		 mov	 DWORD PTR [edx], ecx
$LN8@PlusSpecia@2:

; 2856 : 					break;
; 2857 : 			}
; 2858 : 		}
; 2859 : 	}

  05a08	e9 d1 fe ff ff	 jmp	 $LN12@PlusSpecia@2
$LN11@PlusSpecia@2:
$LN17@PlusSpecia@2:

; 2860 : }

  05a0d	5f		 pop	 edi
  05a0e	5e		 pop	 esi
  05a0f	5b		 pop	 ebx
  05a10	8b e5		 mov	 esp, ebp
  05a12	5d		 pop	 ebp
  05a13	c2 08 00	 ret	 8
  05a16	8b ff		 npad	 2
$LN20@PlusSpecia@2:
  05a18	00 00 00 00	 DD	 $LN5@PlusSpecia@2
  05a1c	00 00 00 00	 DD	 $LN7@PlusSpecia@2
  05a20	00 00 00 00	 DD	 $LN6@PlusSpecia@2
  05a24	00 00 00 00	 DD	 $LN4@PlusSpecia@2
  05a28	00 00 00 00	 DD	 $LN3@PlusSpecia@2
  05a2c	00 00 00 00	 DD	 $LN2@PlusSpecia@2
  05a30	00 00 00 00	 DD	 $LN1@PlusSpecia@2
$LN19@PlusSpecia@2:
  05a34	00		 DB	 0
  05a35	00		 DB	 0
  05a36	01		 DB	 1
  05a37	00		 DB	 0
  05a38	02		 DB	 2
  05a39	06		 DB	 6
  05a3a	06		 DB	 6
  05a3b	06		 DB	 6
  05a3c	06		 DB	 6
  05a3d	06		 DB	 6
  05a3e	06		 DB	 6
  05a3f	06		 DB	 6
  05a40	06		 DB	 6
  05a41	06		 DB	 6
  05a42	06		 DB	 6
  05a43	06		 DB	 6
  05a44	06		 DB	 6
  05a45	06		 DB	 6
  05a46	06		 DB	 6
  05a47	06		 DB	 6
  05a48	03		 DB	 3
  05a49	03		 DB	 3
  05a4a	06		 DB	 6
  05a4b	04		 DB	 4
  05a4c	06		 DB	 6
  05a4d	05		 DB	 5
  05a4e	06		 DB	 6
  05a4f	06		 DB	 6
  05a50	06		 DB	 6
  05a51	06		 DB	 6
  05a52	06		 DB	 6
  05a53	06		 DB	 6
  05a54	06		 DB	 6
  05a55	00		 DB	 0
?PlusSpecial@CItem@@QAEXPAHH@Z ENDP			; CItem::PlusSpecial
_TEXT	ENDS
PUBLIC	?PlusSpecialPercent@CItem@@QAEXPAHHG@Z		; CItem::PlusSpecialPercent
; Function compile flags: /Odtp /ZI
_TEXT	SEGMENT
_i$231487 = -8						; size = 4
_this$ = -4						; size = 4
_Value$ = 8						; size = 4
_Special$ = 12						; size = 4
_Percent$ = 16						; size = 2
?PlusSpecialPercent@CItem@@QAEXPAHHG@Z PROC		; CItem::PlusSpecialPercent
; _this$ = ecx

; 2863 : {

  05a60	55		 push	 ebp
  05a61	8b ec		 mov	 ebp, esp
  05a63	83 ec 48	 sub	 esp, 72			; 00000048H
  05a66	53		 push	 ebx
  05a67	56		 push	 esi
  05a68	57		 push	 edi
  05a69	89 4d fc	 mov	 DWORD PTR _this$[ebp], ecx

; 2864 : 	if ( this->m_Type < 0 )

  05a6c	8b 45 fc	 mov	 eax, DWORD PTR _this$[ebp]
  05a6f	0f bf 48 06	 movsx	 ecx, WORD PTR [eax+6]
  05a73	85 c9		 test	 ecx, ecx
  05a75	7d 02		 jge	 SHORT $LN5@PlusSpecia@3

; 2865 : 	{
; 2866 : 		return;

  05a77	eb 4c		 jmp	 SHORT $LN6@PlusSpecia@3
$LN5@PlusSpecia@3:

; 2867 : 	}
; 2868 : 
; 2869 : 	for (int i=0;i<this->m_SpecialNum;i++)

  05a79	c7 45 f8 00 00
	00 00		 mov	 DWORD PTR _i$231487[ebp], 0
  05a80	eb 09		 jmp	 SHORT $LN4@PlusSpecia@3
$LN3@PlusSpecia@3:
  05a82	8b 45 f8	 mov	 eax, DWORD PTR _i$231487[ebp]
  05a85	83 c0 01	 add	 eax, 1
  05a88	89 45 f8	 mov	 DWORD PTR _i$231487[ebp], eax
$LN4@PlusSpecia@3:
  05a8b	8b 45 fc	 mov	 eax, DWORD PTR _this$[ebp]
  05a8e	0f b6 48 30	 movzx	 ecx, BYTE PTR [eax+48]
  05a92	39 4d f8	 cmp	 DWORD PTR _i$231487[ebp], ecx
  05a95	7d 2e		 jge	 SHORT $LN6@PlusSpecia@3

; 2870 : 	{
; 2871 : 		if ( this->m_Special[i] == Special )

  05a97	8b 45 f8	 mov	 eax, DWORD PTR _i$231487[ebp]
  05a9a	8b 4d fc	 mov	 ecx, DWORD PTR _this$[ebp]
  05a9d	0f b7 54 41 32	 movzx	 edx, WORD PTR [ecx+eax*2+50]
  05aa2	3b 55 0c	 cmp	 edx, DWORD PTR _Special$[ebp]
  05aa5	75 1c		 jne	 SHORT $LN1@PlusSpecia@3

; 2872 : 		{
; 2873 : 			*Value += (*Value * Percent)/ 100;

  05aa7	0f b7 45 10	 movzx	 eax, WORD PTR _Percent$[ebp]
  05aab	8b 4d 08	 mov	 ecx, DWORD PTR _Value$[ebp]
  05aae	0f af 01	 imul	 eax, DWORD PTR [ecx]
  05ab1	99		 cdq
  05ab2	b9 64 00 00 00	 mov	 ecx, 100		; 00000064H
  05ab7	f7 f9		 idiv	 ecx
  05ab9	8b 55 08	 mov	 edx, DWORD PTR _Value$[ebp]
  05abc	03 02		 add	 eax, DWORD PTR [edx]
  05abe	8b 4d 08	 mov	 ecx, DWORD PTR _Value$[ebp]
  05ac1	89 01		 mov	 DWORD PTR [ecx], eax
$LN1@PlusSpecia@3:

; 2874 : 		}
; 2875 : 	}

  05ac3	eb bd		 jmp	 SHORT $LN3@PlusSpecia@3
$LN6@PlusSpecia@3:

; 2876 : }

  05ac5	5f		 pop	 edi
  05ac6	5e		 pop	 esi
  05ac7	5b		 pop	 ebx
  05ac8	8b e5		 mov	 esp, ebp
  05aca	5d		 pop	 ebp
  05acb	c2 0c 00	 ret	 12			; 0000000cH
?PlusSpecialPercent@CItem@@QAEXPAHHG@Z ENDP		; CItem::PlusSpecialPercent
_TEXT	ENDS
PUBLIC	?PlusSpecialPercentEx@CItem@@QAEXPAHHH@Z	; CItem::PlusSpecialPercentEx
; Function compile flags: /Odtp /ZI
_TEXT	SEGMENT
_lc3$231506 = -12					; size = 4
_i$231501 = -8						; size = 4
_this$ = -4						; size = 4
_Value$ = 8						; size = 4
_SourceValue$ = 12					; size = 4
_Special$ = 16						; size = 4
?PlusSpecialPercentEx@CItem@@QAEXPAHHH@Z PROC		; CItem::PlusSpecialPercentEx
; _this$ = ecx

; 2879 : {

  05ad0	55		 push	 ebp
  05ad1	8b ec		 mov	 ebp, esp
  05ad3	83 ec 4c	 sub	 esp, 76			; 0000004cH
  05ad6	53		 push	 ebx
  05ad7	56		 push	 esi
  05ad8	57		 push	 edi
  05ad9	89 4d fc	 mov	 DWORD PTR _this$[ebp], ecx

; 2880 : 	if ( this->m_Type < 0 )

  05adc	8b 45 fc	 mov	 eax, DWORD PTR _this$[ebp]
  05adf	0f bf 48 06	 movsx	 ecx, WORD PTR [eax+6]
  05ae3	85 c9		 test	 ecx, ecx
  05ae5	7d 05		 jge	 SHORT $LN7@PlusSpecia@4

; 2881 : 	{
; 2882 : 		return;

  05ae7	e9 8e 00 00 00	 jmp	 $LN8@PlusSpecia@4
$LN7@PlusSpecia@4:

; 2883 : 	}
; 2884 : 
; 2885 : 	if ( this->m_Durability == 0.0f )

  05aec	8b 45 fc	 mov	 eax, DWORD PTR _this$[ebp]
  05aef	d9 40 24	 fld	 DWORD PTR [eax+36]
  05af2	d9 ee		 fldz
  05af4	da e9		 fucompp
  05af6	df e0		 fnstsw	 ax
  05af8	f6 c4 44	 test	 ah, 68			; 00000044H
  05afb	7a 02		 jp	 SHORT $LN6@PlusSpecia@4

; 2886 : 	{
; 2887 : 		return;

  05afd	eb 7b		 jmp	 SHORT $LN8@PlusSpecia@4
$LN6@PlusSpecia@4:

; 2888 : 	}
; 2889 : 
; 2890 : 	if ( this->m_IsValidItem == false  )

  05aff	8b 45 fc	 mov	 eax, DWORD PTR _this$[ebp]
  05b02	0f b6 88 b0 00
	00 00		 movzx	 ecx, BYTE PTR [eax+176]
  05b09	85 c9		 test	 ecx, ecx
  05b0b	75 02		 jne	 SHORT $LN5@PlusSpecia@4

; 2891 : 	{
; 2892 : 		return;

  05b0d	eb 6b		 jmp	 SHORT $LN8@PlusSpecia@4
$LN5@PlusSpecia@4:

; 2893 : 	}
; 2894 : 
; 2895 : 	for ( int i =0;i<this->m_SpecialNum;i++)

  05b0f	c7 45 f8 00 00
	00 00		 mov	 DWORD PTR _i$231501[ebp], 0
  05b16	eb 09		 jmp	 SHORT $LN4@PlusSpecia@4
$LN3@PlusSpecia@4:
  05b18	8b 45 f8	 mov	 eax, DWORD PTR _i$231501[ebp]
  05b1b	83 c0 01	 add	 eax, 1
  05b1e	89 45 f8	 mov	 DWORD PTR _i$231501[ebp], eax
$LN4@PlusSpecia@4:
  05b21	8b 45 fc	 mov	 eax, DWORD PTR _this$[ebp]
  05b24	0f b6 48 30	 movzx	 ecx, BYTE PTR [eax+48]
  05b28	39 4d f8	 cmp	 DWORD PTR _i$231501[ebp], ecx
  05b2b	7d 4d		 jge	 SHORT $LN2@PlusSpecia@4

; 2896 : 	{
; 2897 : 		if ( this->m_Special[i] == Special )

  05b2d	8b 45 f8	 mov	 eax, DWORD PTR _i$231501[ebp]
  05b30	8b 4d fc	 mov	 ecx, DWORD PTR _this$[ebp]
  05b33	0f b7 54 41 32	 movzx	 edx, WORD PTR [ecx+eax*2+50]
  05b38	3b 55 10	 cmp	 edx, DWORD PTR _Special$[ebp]
  05b3b	75 3b		 jne	 SHORT $LN1@PlusSpecia@4

; 2898 : 		{
; 2899 : 			int lc3 = SourceValue * this->m_Option3/100;

  05b3d	8b 45 fc	 mov	 eax, DWORD PTR _this$[ebp]
  05b40	0f b6 88 96 00
	00 00		 movzx	 ecx, BYTE PTR [eax+150]
  05b47	8b c1		 mov	 eax, ecx
  05b49	0f af 45 0c	 imul	 eax, DWORD PTR _SourceValue$[ebp]
  05b4d	99		 cdq
  05b4e	b9 64 00 00 00	 mov	 ecx, 100		; 00000064H
  05b53	f7 f9		 idiv	 ecx
  05b55	89 45 f4	 mov	 DWORD PTR _lc3$231506[ebp], eax

; 2900 : 			*Value += lc3 - (int)(lc3 * this->m_CurrentDurabilityState );

  05b58	db 45 f4	 fild	 DWORD PTR _lc3$231506[ebp]
  05b5b	8b 45 fc	 mov	 eax, DWORD PTR _this$[ebp]
  05b5e	d8 88 a8 00 00
	00		 fmul	 DWORD PTR [eax+168]
  05b64	e8 00 00 00 00	 call	 __ftol2_sse
  05b69	8b 4d f4	 mov	 ecx, DWORD PTR _lc3$231506[ebp]
  05b6c	2b c8		 sub	 ecx, eax
  05b6e	8b 55 08	 mov	 edx, DWORD PTR _Value$[ebp]
  05b71	03 0a		 add	 ecx, DWORD PTR [edx]
  05b73	8b 45 08	 mov	 eax, DWORD PTR _Value$[ebp]
  05b76	89 08		 mov	 DWORD PTR [eax], ecx
$LN1@PlusSpecia@4:

; 2901 : 		}
; 2902 : 	}

  05b78	eb 9e		 jmp	 SHORT $LN3@PlusSpecia@4
$LN2@PlusSpecia@4:
$LN8@PlusSpecia@4:

; 2903 : }

  05b7a	5f		 pop	 edi
  05b7b	5e		 pop	 esi
  05b7c	5b		 pop	 ebx
  05b7d	8b e5		 mov	 esp, ebp
  05b7f	5d		 pop	 ebp
  05b80	c2 0c 00	 ret	 12			; 0000000cH
?PlusSpecialPercentEx@CItem@@QAEXPAHHH@Z ENDP		; CItem::PlusSpecialPercentEx
_TEXT	ENDS
PUBLIC	?SetItemPlusSpecialStat@CItem@@QAEXPAFH@Z	; CItem::SetItemPlusSpecialStat
; Function compile flags: /Odtp /ZI
_TEXT	SEGMENT
tv79 = -80						; size = 4
_lc3$231525 = -12					; size = 4
_i$231515 = -8						; size = 4
_this$ = -4						; size = 4
_Value$ = 8						; size = 4
_Special$ = 12						; size = 4
?SetItemPlusSpecialStat@CItem@@QAEXPAFH@Z PROC		; CItem::SetItemPlusSpecialStat
; _this$ = ecx

; 2906 : {

  05b90	55		 push	 ebp
  05b91	8b ec		 mov	 ebp, esp
  05b93	83 ec 50	 sub	 esp, 80			; 00000050H
  05b96	53		 push	 ebx
  05b97	56		 push	 esi
  05b98	57		 push	 edi
  05b99	89 4d fc	 mov	 DWORD PTR _this$[ebp], ecx

; 2907 : 	if ( this->m_Type < 0 )

  05b9c	8b 45 fc	 mov	 eax, DWORD PTR _this$[ebp]
  05b9f	0f bf 48 06	 movsx	 ecx, WORD PTR [eax+6]
  05ba3	85 c9		 test	 ecx, ecx
  05ba5	7d 05		 jge	 SHORT $LN10@SetItemPlu

; 2908 : 	{
; 2909 : 		return;

  05ba7	e9 b1 00 00 00	 jmp	 $LN11@SetItemPlu
$LN10@SetItemPlu:

; 2910 : 	}
; 2911 : 
; 2912 : 	if ( this->m_Durability == 0.0f )

  05bac	8b 45 fc	 mov	 eax, DWORD PTR _this$[ebp]
  05baf	d9 40 24	 fld	 DWORD PTR [eax+36]
  05bb2	d9 ee		 fldz
  05bb4	da e9		 fucompp
  05bb6	df e0		 fnstsw	 ax
  05bb8	f6 c4 44	 test	 ah, 68			; 00000044H
  05bbb	7a 05		 jp	 SHORT $LN9@SetItemPlu

; 2913 : 	{
; 2914 : 		return;

  05bbd	e9 9b 00 00 00	 jmp	 $LN11@SetItemPlu
$LN9@SetItemPlu:

; 2915 : 	}
; 2916 : 
; 2917 : 	for ( int i =0;i<this->m_SpecialNum;i++)

  05bc2	c7 45 f8 00 00
	00 00		 mov	 DWORD PTR _i$231515[ebp], 0
  05bc9	eb 09		 jmp	 SHORT $LN8@SetItemPlu
$LN7@SetItemPlu:
  05bcb	8b 45 f8	 mov	 eax, DWORD PTR _i$231515[ebp]
  05bce	83 c0 01	 add	 eax, 1
  05bd1	89 45 f8	 mov	 DWORD PTR _i$231515[ebp], eax
$LN8@SetItemPlu:
  05bd4	8b 45 fc	 mov	 eax, DWORD PTR _this$[ebp]
  05bd7	0f b6 48 30	 movzx	 ecx, BYTE PTR [eax+48]
  05bdb	39 4d f8	 cmp	 DWORD PTR _i$231515[ebp], ecx
  05bde	7d 7d		 jge	 SHORT $LN6@SetItemPlu

; 2918 : 	{
; 2919 : 		if ( this->m_Special[i] == Special )

  05be0	8b 45 f8	 mov	 eax, DWORD PTR _i$231515[ebp]
  05be3	8b 4d fc	 mov	 ecx, DWORD PTR _this$[ebp]
  05be6	0f b7 54 41 32	 movzx	 edx, WORD PTR [ecx+eax*2+50]
  05beb	3b 55 0c	 cmp	 edx, DWORD PTR _Special$[ebp]
  05bee	75 68		 jne	 SHORT $LN3@SetItemPlu

; 2920 : 		{
; 2921 : 			switch ( Special )

  05bf0	8b 45 0c	 mov	 eax, DWORD PTR _Special$[ebp]
  05bf3	89 45 b0	 mov	 DWORD PTR tv79[ebp], eax
  05bf6	81 7d b0 c4 00
	00 00		 cmp	 DWORD PTR tv79[ebp], 196 ; 000000c4H
  05bfd	7c 3e		 jl	 SHORT $LN1@SetItemPlu
  05bff	81 7d b0 c7 00
	00 00		 cmp	 DWORD PTR tv79[ebp], 199 ; 000000c7H
  05c06	7e 02		 jle	 SHORT $LN2@SetItemPlu
  05c08	eb 33		 jmp	 SHORT $LN1@SetItemPlu
$LN2@SetItemPlu:

; 2922 : 			{
; 2923 : 				case 0xC4:
; 2924 : 				case 0xC5:
; 2925 : 				case 0xC6:
; 2926 : 				case 0xC7:
; 2927 : 					{
; 2928 : 						int lc3 = this->m_SetAddStat;

  05c0a	8b 45 fc	 mov	 eax, DWORD PTR _this$[ebp]
  05c0d	0f b6 88 af 00
	00 00		 movzx	 ecx, BYTE PTR [eax+175]
  05c14	89 4d f4	 mov	 DWORD PTR _lc3$231525[ebp], ecx

; 2929 : 						*Value += lc3 - (int)(lc3 * this->m_CurrentDurabilityState);

  05c17	db 45 f4	 fild	 DWORD PTR _lc3$231525[ebp]
  05c1a	8b 45 fc	 mov	 eax, DWORD PTR _this$[ebp]
  05c1d	d8 88 a8 00 00
	00		 fmul	 DWORD PTR [eax+168]
  05c23	e8 00 00 00 00	 call	 __ftol2_sse
  05c28	8b 4d f4	 mov	 ecx, DWORD PTR _lc3$231525[ebp]
  05c2b	2b c8		 sub	 ecx, eax
  05c2d	8b 55 08	 mov	 edx, DWORD PTR _Value$[ebp]
  05c30	0f bf 02	 movsx	 eax, WORD PTR [edx]
  05c33	03 c1		 add	 eax, ecx
  05c35	8b 4d 08	 mov	 ecx, DWORD PTR _Value$[ebp]
  05c38	66 89 01	 mov	 WORD PTR [ecx], ax

; 2930 : 					}
; 2931 : 					break;

  05c3b	eb 1b		 jmp	 SHORT $LN3@SetItemPlu
$LN1@SetItemPlu:

; 2932 : 
; 2933 : 				default:
; 2934 : 					*Value += this->m_Option3*3;

  05c3d	8b 45 fc	 mov	 eax, DWORD PTR _this$[ebp]
  05c40	0f b6 88 96 00
	00 00		 movzx	 ecx, BYTE PTR [eax+150]
  05c47	6b c9 03	 imul	 ecx, 3
  05c4a	8b 55 08	 mov	 edx, DWORD PTR _Value$[ebp]
  05c4d	0f bf 02	 movsx	 eax, WORD PTR [edx]
  05c50	03 c1		 add	 eax, ecx
  05c52	8b 4d 08	 mov	 ecx, DWORD PTR _Value$[ebp]
  05c55	66 89 01	 mov	 WORD PTR [ecx], ax
$LN3@SetItemPlu:

; 2935 : 			}
; 2936 : 		}
; 2937 : 	}

  05c58	e9 6e ff ff ff	 jmp	 $LN7@SetItemPlu
$LN6@SetItemPlu:
$LN11@SetItemPlu:

; 2938 : }

  05c5d	5f		 pop	 edi
  05c5e	5e		 pop	 esi
  05c5f	5b		 pop	 ebx
  05c60	8b e5		 mov	 esp, ebp
  05c62	5d		 pop	 ebp
  05c63	c2 08 00	 ret	 8
?SetItemPlusSpecialStat@CItem@@QAEXPAFH@Z ENDP		; CItem::SetItemPlusSpecialStat
_TEXT	ENDS
PUBLIC	?GetAddStatType@CItem@@QAEHXZ			; CItem::GetAddStatType
; Function compile flags: /Odtp /ZI
_TEXT	SEGMENT
_p$ = -8						; size = 4
_this$ = -4						; size = 4
?GetAddStatType@CItem@@QAEHXZ PROC			; CItem::GetAddStatType
; _this$ = ecx

; 2941 : {

  05c70	55		 push	 ebp
  05c71	8b ec		 mov	 ebp, esp
  05c73	83 ec 48	 sub	 esp, 72			; 00000048H
  05c76	53		 push	 ebx
  05c77	56		 push	 esi
  05c78	57		 push	 edi
  05c79	89 4d fc	 mov	 DWORD PTR _this$[ebp], ecx

; 2942 : 	LPITEM_ATTRIBUTE p;
; 2943 : 	p = &ItemAttribute[this->m_Type];

  05c7c	8b 45 fc	 mov	 eax, DWORD PTR _this$[ebp]
  05c7f	0f bf 48 06	 movsx	 ecx, WORD PTR [eax+6]
  05c83	6b c9 70	 imul	 ecx, 112		; 00000070H
  05c86	81 c1 00 00 00
	00		 add	 ecx, OFFSET ?ItemAttribute@@3PAUITEM_ATTRIBUTE@@A ; ItemAttribute
  05c8c	89 4d f8	 mov	 DWORD PTR _p$[ebp], ecx

; 2944 : 	return p->SetAttr;

  05c8f	8b 45 f8	 mov	 eax, DWORD PTR _p$[ebp]
  05c92	0f b6 40 61	 movzx	 eax, BYTE PTR [eax+97]

; 2945 : }

  05c96	5f		 pop	 edi
  05c97	5e		 pop	 esi
  05c98	5b		 pop	 ebx
  05c99	8b e5		 mov	 esp, ebp
  05c9b	5d		 pop	 ebp
  05c9c	c3		 ret	 0
?GetAddStatType@CItem@@QAEHXZ ENDP			; CItem::GetAddStatType
_TEXT	ENDS
PUBLIC	?GetWeaponType@CItem@@QAEHXZ			; CItem::GetWeaponType
; Function compile flags: /Odtp /ZI
_TEXT	SEGMENT
_this$ = -4						; size = 4
?GetWeaponType@CItem@@QAEHXZ PROC			; CItem::GetWeaponType
; _this$ = ecx

; 2948 : {

  05ca0	55		 push	 ebp
  05ca1	8b ec		 mov	 ebp, esp
  05ca3	83 ec 44	 sub	 esp, 68			; 00000044H
  05ca6	53		 push	 ebx
  05ca7	56		 push	 esi
  05ca8	57		 push	 edi
  05ca9	89 4d fc	 mov	 DWORD PTR _this$[ebp], ecx

; 2949 : 	if ( this->m_Type <= ITEMGET(5,0) )

  05cac	8b 45 fc	 mov	 eax, DWORD PTR _this$[ebp]
  05caf	0f bf 48 06	 movsx	 ecx, WORD PTR [eax+6]
  05cb3	81 f9 00 0a 00
	00		 cmp	 ecx, 2560		; 00000a00H
  05cb9	7f 07		 jg	 SHORT $LN2@GetWeaponT

; 2950 : 	{
; 2951 : 		return 1;

  05cbb	b8 01 00 00 00	 mov	 eax, 1
  05cc0	eb 18		 jmp	 SHORT $LN3@GetWeaponT
$LN2@GetWeaponT:

; 2952 : 	}
; 2953 : 
; 2954 : 	if ( this->m_Type <= ITEMGET(6,0) )

  05cc2	8b 45 fc	 mov	 eax, DWORD PTR _this$[ebp]
  05cc5	0f bf 48 06	 movsx	 ecx, WORD PTR [eax+6]
  05cc9	81 f9 00 0c 00
	00		 cmp	 ecx, 3072		; 00000c00H
  05ccf	7f 07		 jg	 SHORT $LN1@GetWeaponT

; 2955 : 	{
; 2956 : 		return 2;

  05cd1	b8 02 00 00 00	 mov	 eax, 2
  05cd6	eb 02		 jmp	 SHORT $LN3@GetWeaponT
$LN1@GetWeaponT:

; 2957 : 	}
; 2958 : 	return 0;

  05cd8	33 c0		 xor	 eax, eax
$LN3@GetWeaponT:

; 2959 : }

  05cda	5f		 pop	 edi
  05cdb	5e		 pop	 esi
  05cdc	5b		 pop	 ebx
  05cdd	8b e5		 mov	 esp, ebp
  05cdf	5d		 pop	 ebp
  05ce0	c3		 ret	 0
?GetWeaponType@CItem@@QAEHXZ ENDP			; CItem::GetWeaponType
_TEXT	ENDS
PUBLIC	?GetDetailItemType@CItem@@QAEHXZ		; CItem::GetDetailItemType
; Function compile flags: /Odtp /ZI
_TEXT	SEGMENT
_p$ = -16						; size = 4
_nSum$ = -12						; size = 4
_i$ = -8						; size = 4
_this$ = -4						; size = 4
?GetDetailItemType@CItem@@QAEHXZ PROC			; CItem::GetDetailItemType
; _this$ = ecx

; 2963 : {

  05cf0	55		 push	 ebp
  05cf1	8b ec		 mov	 ebp, esp
  05cf3	83 ec 50	 sub	 esp, 80			; 00000050H
  05cf6	53		 push	 ebx
  05cf7	56		 push	 esi
  05cf8	57		 push	 edi
  05cf9	89 4d fc	 mov	 DWORD PTR _this$[ebp], ecx

; 2964 : 	signed int i; // [sp+4Ch] [bp-10h]@26
; 2965 : 	int nSum; // [sp+50h] [bp-Ch]@26
; 2966 : 	ITEM_ATTRIBUTE *p; // [sp+54h] [bp-8h]@1
; 2967 : 
; 2968 : 	p = &ItemAttribute[m_Type];

  05cfc	8b 45 fc	 mov	 eax, DWORD PTR _this$[ebp]
  05cff	0f bf 48 06	 movsx	 ecx, WORD PTR [eax+6]
  05d03	6b c9 70	 imul	 ecx, 112		; 00000070H
  05d06	81 c1 00 00 00
	00		 add	 ecx, OFFSET ?ItemAttribute@@3PAUITEM_ATTRIBUTE@@A ; ItemAttribute
  05d0c	89 4d f0	 mov	 DWORD PTR _p$[ebp], ecx

; 2969 : 
; 2970 : 	if ( this->m_Type < 0 )

  05d0f	8b 45 fc	 mov	 eax, DWORD PTR _this$[ebp]
  05d12	0f bf 48 06	 movsx	 ecx, WORD PTR [eax+6]
  05d16	85 c9		 test	 ecx, ecx
  05d18	7d 08		 jge	 SHORT $LN27@GetDetailI

; 2971 : 		return MuItemType::mitNONE;

  05d1a	83 c8 ff	 or	 eax, -1
  05d1d	e9 12 02 00 00	 jmp	 $LN28@GetDetailI
$LN27@GetDetailI:

; 2972 : 
; 2973 : 	if( this->m_Type >= MuItem::miGROUP_SWORD_START+32 && this->m_Type <= MuItem::miGROUP_SWORD_START+35 )

  05d22	8b 45 fc	 mov	 eax, DWORD PTR _this$[ebp]
  05d25	0f bf 48 06	 movsx	 ecx, WORD PTR [eax+6]
  05d29	83 f9 20	 cmp	 ecx, 32			; 00000020H
  05d2c	7c 16		 jl	 SHORT $LN26@GetDetailI
  05d2e	8b 45 fc	 mov	 eax, DWORD PTR _this$[ebp]
  05d31	0f bf 48 06	 movsx	 ecx, WORD PTR [eax+6]
  05d35	83 f9 23	 cmp	 ecx, 35			; 00000023H
  05d38	7f 0a		 jg	 SHORT $LN26@GetDetailI

; 2974 : 	{
; 2975 : 		return MuItemType::mitGloves;

  05d3a	b8 0c 00 00 00	 mov	 eax, 12			; 0000000cH
  05d3f	e9 f0 01 00 00	 jmp	 $LN28@GetDetailI
$LN26@GetDetailI:

; 2976 : 	}
; 2977 : 
; 2978 : 	if ( this->m_Type < MuItem::miGROUP_SWORD_END )

  05d44	8b 45 fc	 mov	 eax, DWORD PTR _this$[ebp]
  05d47	0f bf 48 06	 movsx	 ecx, WORD PTR [eax+6]
  05d4b	81 f9 ff 01 00
	00		 cmp	 ecx, 511		; 000001ffH
  05d51	7d 1f		 jge	 SHORT $LN25@GetDetailI

; 2979 : 	{
; 2980 : 		if(this->m_TwoHand != 1)

  05d53	8b 45 fc	 mov	 eax, DWORD PTR _this$[ebp]
  05d56	0f b6 48 0c	 movzx	 ecx, BYTE PTR [eax+12]
  05d5a	83 f9 01	 cmp	 ecx, 1
  05d5d	74 0c		 je	 SHORT $LN24@GetDetailI

; 2981 : 			return MuItemType::mitSWORD_ONE_HAND;

  05d5f	b8 01 00 00 00	 mov	 eax, 1
  05d64	e9 cb 01 00 00	 jmp	 $LN28@GetDetailI

; 2982 : 		else

  05d69	eb 07		 jmp	 SHORT $LN25@GetDetailI
$LN24@GetDetailI:

; 2983 : 			return MuItemType::mitSWORD_TWO_HAND;

  05d6b	33 c0		 xor	 eax, eax
  05d6d	e9 c2 01 00 00	 jmp	 $LN28@GetDetailI
$LN25@GetDetailI:

; 2984 : 	}
; 2985 : 
; 2986 : 	if(m_Type >= MuItem::miGROUP_MACE_SCEPTER_START && m_Type <= MuItem::miGROUP_MACE_SCEPTER_END)

  05d72	8b 45 fc	 mov	 eax, DWORD PTR _this$[ebp]
  05d75	0f bf 48 06	 movsx	 ecx, WORD PTR [eax+6]
  05d79	81 f9 00 04 00
	00		 cmp	 ecx, 1024		; 00000400H
  05d7f	7c 5b		 jl	 SHORT $LN22@GetDetailI
  05d81	8b 45 fc	 mov	 eax, DWORD PTR _this$[ebp]
  05d84	0f bf 48 06	 movsx	 ecx, WORD PTR [eax+6]
  05d88	81 f9 ff 05 00
	00		 cmp	 ecx, 1535		; 000005ffH
  05d8e	7f 4c		 jg	 SHORT $LN22@GetDetailI

; 2987 : 	{
; 2988 : 
; 2989 : 		if ( this->m_Type == MuItem::miSWORD_CRYSTAL )

  05d90	8b 45 fc	 mov	 eax, DWORD PTR _this$[ebp]
  05d93	0f bf 48 06	 movsx	 ecx, WORD PTR [eax+6]
  05d97	81 f9 05 04 00
	00		 cmp	 ecx, 1029		; 00000405H
  05d9d	75 07		 jne	 SHORT $LN21@GetDetailI

; 2990 : 			return MuItemType::mitSWORD_TWO_HAND;

  05d9f	33 c0		 xor	 eax, eax
  05da1	e9 8e 01 00 00	 jmp	 $LN28@GetDetailI
$LN21@GetDetailI:

; 2991 : 
; 2992 : 		if ( this->m_Type == MuItem::miCHAOS_WEAPON_AXE_DRAGON )

  05da6	8b 45 fc	 mov	 eax, DWORD PTR _this$[ebp]
  05da9	0f bf 48 06	 movsx	 ecx, WORD PTR [eax+6]
  05dad	81 f9 06 04 00
	00		 cmp	 ecx, 1030		; 00000406H
  05db3	75 08		 jne	 SHORT $LN20@GetDetailI

; 2993 : 			return MuItemType::mitNONE;

  05db5	83 c8 ff	 or	 eax, -1
  05db8	e9 77 01 00 00	 jmp	 $LN28@GetDetailI
$LN20@GetDetailI:

; 2994 : 
; 2995 : 		// force wave skill
; 2996 : 		if ( p->SkillType == 66 )

  05dbd	8b 45 f0	 mov	 eax, DWORD PTR _p$[ebp]
  05dc0	83 78 68 42	 cmp	 DWORD PTR [eax+104], 66	; 00000042H
  05dc4	75 0c		 jne	 SHORT $LN19@GetDetailI

; 2997 : 			return MuItemType::mitSCEPTER;

  05dc6	b8 0b 00 00 00	 mov	 eax, 11			; 0000000bH
  05dcb	e9 64 01 00 00	 jmp	 $LN28@GetDetailI

; 2998 : 		else

  05dd0	eb 0a		 jmp	 SHORT $LN22@GetDetailI
$LN19@GetDetailI:

; 2999 : 			return MuItemType::mitMACE;

  05dd2	b8 02 00 00 00	 mov	 eax, 2
  05dd7	e9 58 01 00 00	 jmp	 $LN28@GetDetailI
$LN22@GetDetailI:

; 3000 : 
; 3001 : 	}
; 3002 : 
; 3003 : 	if(m_Type >= MuItem::miGROUP_SPEAR_START && m_Type <= MuItem::miGROUP_SPEAR_END)

  05ddc	8b 45 fc	 mov	 eax, DWORD PTR _this$[ebp]
  05ddf	0f bf 48 06	 movsx	 ecx, WORD PTR [eax+6]
  05de3	81 f9 00 06 00
	00		 cmp	 ecx, 1536		; 00000600H
  05de9	7c 19		 jl	 SHORT $LN17@GetDetailI
  05deb	8b 45 fc	 mov	 eax, DWORD PTR _this$[ebp]
  05dee	0f bf 48 06	 movsx	 ecx, WORD PTR [eax+6]
  05df2	81 f9 ff 07 00
	00		 cmp	 ecx, 2047		; 000007ffH
  05df8	7f 0a		 jg	 SHORT $LN17@GetDetailI

; 3004 : 		return MuItemType::mitSPEAR;

  05dfa	b8 03 00 00 00	 mov	 eax, 3
  05dff	e9 30 01 00 00	 jmp	 $LN28@GetDetailI
$LN17@GetDetailI:

; 3005 : 
; 3006 : 
; 3007 : 	if(m_Type >= MuItem::miGROUP_BOW_CROSSBOW_START && m_Type <= MuItem::miGROUP_BOW_CROSSBOW_END)

  05e04	8b 45 fc	 mov	 eax, DWORD PTR _this$[ebp]
  05e07	0f bf 48 06	 movsx	 ecx, WORD PTR [eax+6]
  05e0b	81 f9 00 08 00
	00		 cmp	 ecx, 2048		; 00000800H
  05e11	7c 42		 jl	 SHORT $LN16@GetDetailI
  05e13	8b 45 fc	 mov	 eax, DWORD PTR _this$[ebp]
  05e16	0f bf 48 06	 movsx	 ecx, WORD PTR [eax+6]
  05e1a	81 f9 ff 09 00
	00		 cmp	 ecx, 2559		; 000009ffH
  05e20	7f 33		 jg	 SHORT $LN16@GetDetailI

; 3008 : 	{
; 3009 : 		if ( m_TwoHand != 1 )

  05e22	8b 45 fc	 mov	 eax, DWORD PTR _this$[ebp]
  05e25	0f b6 48 0c	 movzx	 ecx, BYTE PTR [eax+12]
  05e29	83 f9 01	 cmp	 ecx, 1
  05e2c	74 08		 je	 SHORT $LN15@GetDetailI

; 3010 : 			return MuItemType::mitNONE;

  05e2e	83 c8 ff	 or	 eax, -1
  05e31	e9 fe 00 00 00	 jmp	 $LN28@GetDetailI
$LN15@GetDetailI:

; 3011 : 
; 3012 : 		if ( p->ItemSlot == 1)

  05e36	8b 45 f0	 mov	 eax, DWORD PTR _p$[ebp]
  05e39	83 78 64 01	 cmp	 DWORD PTR [eax+100], 1
  05e3d	75 0c		 jne	 SHORT $LN14@GetDetailI

; 3013 : 			return MuItemType::mitBOW;

  05e3f	b8 07 00 00 00	 mov	 eax, 7
  05e44	e9 eb 00 00 00	 jmp	 $LN28@GetDetailI

; 3014 : 		else

  05e49	eb 0a		 jmp	 SHORT $LN16@GetDetailI
$LN14@GetDetailI:

; 3015 : 			return MuItemType::mitCROSSBOW;

  05e4b	b8 08 00 00 00	 mov	 eax, 8
  05e50	e9 df 00 00 00	 jmp	 $LN28@GetDetailI
$LN16@GetDetailI:

; 3016 : 	}
; 3017 : 
; 3018 : 	if (m_Type >= MuItem::miGROUP_SHIELD_START && m_Type <= MuItem::miGROUP_SHIELD_END)

  05e55	8b 45 fc	 mov	 eax, DWORD PTR _this$[ebp]
  05e58	0f bf 48 06	 movsx	 ecx, WORD PTR [eax+6]
  05e5c	81 f9 00 0c 00
	00		 cmp	 ecx, 3072		; 00000c00H
  05e62	7c 19		 jl	 SHORT $LN12@GetDetailI
  05e64	8b 45 fc	 mov	 eax, DWORD PTR _this$[ebp]
  05e67	0f bf 48 06	 movsx	 ecx, WORD PTR [eax+6]
  05e6b	81 f9 ff 0d 00
	00		 cmp	 ecx, 3583		; 00000dffH
  05e71	7f 0a		 jg	 SHORT $LN12@GetDetailI

; 3019 : 		return MuItemType::mitSHIELD;

  05e73	b8 06 00 00 00	 mov	 eax, 6
  05e78	e9 b7 00 00 00	 jmp	 $LN28@GetDetailI
$LN12@GetDetailI:

; 3020 : 
; 3021 : 
; 3022 : 	if ( m_Type >= MuItem::miGROUP_STAFF_STICK_START && m_Type <= MuItem::miGROUP_STAFF_STICK_END)

  05e7d	8b 45 fc	 mov	 eax, DWORD PTR _this$[ebp]
  05e80	0f bf 48 06	 movsx	 ecx, WORD PTR [eax+6]
  05e84	81 f9 00 0a 00
	00		 cmp	 ecx, 2560		; 00000a00H
  05e8a	0f 8c a1 00 00
	00		 jl	 $LN11@GetDetailI
  05e90	8b 45 fc	 mov	 eax, DWORD PTR _this$[ebp]
  05e93	0f bf 48 06	 movsx	 ecx, WORD PTR [eax+6]
  05e97	81 f9 ff 0b 00
	00		 cmp	 ecx, 3071		; 00000bffH
  05e9d	0f 8f 8e 00 00
	00		 jg	 $LN11@GetDetailI

; 3023 : 	{
; 3024 : 		nSum = 0;

  05ea3	c7 45 f4 00 00
	00 00		 mov	 DWORD PTR _nSum$[ebp], 0

; 3025 : 		for ( i = 0; i < MAX_TYPE_PLAYER; ++i )

  05eaa	c7 45 f8 00 00
	00 00		 mov	 DWORD PTR _i$[ebp], 0
  05eb1	eb 09		 jmp	 SHORT $LN10@GetDetailI
$LN9@GetDetailI:
  05eb3	8b 45 f8	 mov	 eax, DWORD PTR _i$[ebp]
  05eb6	83 c0 01	 add	 eax, 1
  05eb9	89 45 f8	 mov	 DWORD PTR _i$[ebp], eax
$LN10@GetDetailI:
  05ebc	83 7d f8 07	 cmp	 DWORD PTR _i$[ebp], 7
  05ec0	7d 19		 jge	 SHORT $LN8@GetDetailI

; 3026 : 		{
; 3027 : 			if ( this->m_RequireClass[i] > 0 )

  05ec2	8b 45 fc	 mov	 eax, DWORD PTR _this$[ebp]
  05ec5	03 45 f8	 add	 eax, DWORD PTR _i$[ebp]
  05ec8	0f b6 48 58	 movzx	 ecx, BYTE PTR [eax+88]
  05ecc	85 c9		 test	 ecx, ecx
  05ece	7e 09		 jle	 SHORT $LN7@GetDetailI

; 3028 : 				nSum += i;

  05ed0	8b 45 f4	 mov	 eax, DWORD PTR _nSum$[ebp]
  05ed3	03 45 f8	 add	 eax, DWORD PTR _i$[ebp]
  05ed6	89 45 f4	 mov	 DWORD PTR _nSum$[ebp], eax
$LN7@GetDetailI:

; 3029 : 		}

  05ed9	eb d8		 jmp	 SHORT $LN9@GetDetailI
$LN8@GetDetailI:

; 3030 : 
; 3031 : 		if ( nSum == 5 )

  05edb	83 7d f4 05	 cmp	 DWORD PTR _nSum$[ebp], 5
  05edf	75 34		 jne	 SHORT $LN6@GetDetailI

; 3032 : 		{
; 3033 : 			if ( this->m_Type != MuItem::miGROUP_STAFF_STICK_START )

  05ee1	8b 45 fc	 mov	 eax, DWORD PTR _this$[ebp]
  05ee4	0f bf 48 06	 movsx	 ecx, WORD PTR [eax+6]
  05ee8	81 f9 00 0a 00
	00		 cmp	 ecx, 2560		; 00000a00H
  05eee	74 20		 je	 SHORT $LN5@GetDetailI

; 3034 : 			{
; 3035 : 				if ( p->ItemSlot == 0 )

  05ef0	8b 45 f0	 mov	 eax, DWORD PTR _p$[ebp]
  05ef3	83 78 64 00	 cmp	 DWORD PTR [eax+100], 0
  05ef7	75 07		 jne	 SHORT $LN4@GetDetailI

; 3036 : 					return MuItemType::mitSTICK;

  05ef9	b8 09 00 00 00	 mov	 eax, 9
  05efe	eb 34		 jmp	 SHORT $LN28@GetDetailI
$LN4@GetDetailI:

; 3037 : 
; 3038 : 				if ( p->ItemSlot == 1 )

  05f00	8b 45 f0	 mov	 eax, DWORD PTR _p$[ebp]
  05f03	83 78 64 01	 cmp	 DWORD PTR [eax+100], 1
  05f07	75 07		 jne	 SHORT $LN5@GetDetailI

; 3039 : 					return MuItemType::mitBOOK;

  05f09	b8 0a 00 00 00	 mov	 eax, 10			; 0000000aH
  05f0e	eb 24		 jmp	 SHORT $LN28@GetDetailI
$LN5@GetDetailI:

; 3040 : 			}
; 3041 : 
; 3042 : 			return -1;

  05f10	83 c8 ff	 or	 eax, -1
  05f13	eb 1f		 jmp	 SHORT $LN28@GetDetailI
$LN6@GetDetailI:

; 3043 : 		}
; 3044 : 
; 3045 : 		if ( this->m_TwoHand == 1 )

  05f15	8b 45 fc	 mov	 eax, DWORD PTR _this$[ebp]
  05f18	0f b6 48 0c	 movzx	 ecx, BYTE PTR [eax+12]
  05f1c	83 f9 01	 cmp	 ecx, 1
  05f1f	75 09		 jne	 SHORT $LN2@GetDetailI

; 3046 : 			return MuItemType::mitSTAFF_TWO_HAND;

  05f21	b8 05 00 00 00	 mov	 eax, 5
  05f26	eb 0c		 jmp	 SHORT $LN28@GetDetailI

; 3047 : 		else

  05f28	eb 07		 jmp	 SHORT $LN11@GetDetailI
$LN2@GetDetailI:

; 3048 : 			return MuItemType::mitSTAFF_ONE_HAND;

  05f2a	b8 04 00 00 00	 mov	 eax, 4
  05f2f	eb 03		 jmp	 SHORT $LN28@GetDetailI
$LN11@GetDetailI:

; 3049 : 	}
; 3050 : 
; 3051 : 	return MuItemType::mitNONE;

  05f31	83 c8 ff	 or	 eax, -1
$LN28@GetDetailI:

; 3052 : }

  05f34	5f		 pop	 edi
  05f35	5e		 pop	 esi
  05f36	5b		 pop	 ebx
  05f37	8b e5		 mov	 esp, ebp
  05f39	5d		 pop	 ebp
  05f3a	c3		 ret	 0
?GetDetailItemType@CItem@@QAEHXZ ENDP			; CItem::GetDetailItemType
_TEXT	ENDS
PUBLIC	?PetValue@CItem@@QAEXXZ				; CItem::PetValue
PUBLIC	?SetPetItemInfo@CItem@@QAEXHH@Z			; CItem::SetPetItemInfo
; Function compile flags: /Odtp /ZI
_TEXT	SEGMENT
_this$ = -4						; size = 4
_petlevel$ = 8						; size = 4
_petexp$ = 12						; size = 4
?SetPetItemInfo@CItem@@QAEXHH@Z PROC			; CItem::SetPetItemInfo
; _this$ = ecx

; 3055 : {

  05f40	55		 push	 ebp
  05f41	8b ec		 mov	 ebp, esp
  05f43	83 ec 44	 sub	 esp, 68			; 00000044H
  05f46	53		 push	 ebx
  05f47	56		 push	 esi
  05f48	57		 push	 edi
  05f49	89 4d fc	 mov	 DWORD PTR _this$[ebp], ecx

; 3056 : 	if ( this->m_Type == ITEMGET(13,4) )

  05f4c	8b 45 fc	 mov	 eax, DWORD PTR _this$[ebp]
  05f4f	0f bf 48 06	 movsx	 ecx, WORD PTR [eax+6]
  05f53	81 f9 04 1a 00
	00		 cmp	 ecx, 6660		; 00001a04H
  05f59	0f 85 de 00 00
	00		 jne	 $LN7@SetPetItem

; 3057 : 	{
; 3058 : 		this->m_PetItem_Level = petlevel;

  05f5f	8b 45 fc	 mov	 eax, DWORD PTR _this$[ebp]
  05f62	8b 4d 08	 mov	 ecx, DWORD PTR _petlevel$[ebp]
  05f65	89 88 bc 00 00
	00		 mov	 DWORD PTR [eax+188], ecx

; 3059 : 		this->m_PetItem_Exp = petexp;

  05f6b	8b 45 fc	 mov	 eax, DWORD PTR _this$[ebp]
  05f6e	8b 4d 0c	 mov	 ecx, DWORD PTR _petexp$[ebp]
  05f71	89 88 c0 00 00
	00		 mov	 DWORD PTR [eax+192], ecx

; 3060 : 
; 3061 : 		if ( this->m_PetItem_Exp < gPetItemExp.m_DarkHorseExpTable[this->m_PetItem_Level] || this->m_PetItem_Exp >= gPetItemExp.m_DarkHorseExpTable[1+this->m_PetItem_Level] )

  05f77	8b 45 fc	 mov	 eax, DWORD PTR _this$[ebp]
  05f7a	8b 88 bc 00 00
	00		 mov	 ecx, DWORD PTR [eax+188]
  05f80	8b 55 fc	 mov	 edx, DWORD PTR _this$[ebp]
  05f83	8b 82 c0 00 00
	00		 mov	 eax, DWORD PTR [edx+192]
  05f89	3b 04 8d d0 00
	00 00		 cmp	 eax, DWORD PTR ?gPetItemExp@@3VCPetItemExp@@A[ecx*4+208]
  05f90	7c 1b		 jl	 SHORT $LN5@SetPetItem
  05f92	8b 45 fc	 mov	 eax, DWORD PTR _this$[ebp]
  05f95	8b 88 bc 00 00
	00		 mov	 ecx, DWORD PTR [eax+188]
  05f9b	8b 55 fc	 mov	 edx, DWORD PTR _this$[ebp]
  05f9e	8b 82 c0 00 00
	00		 mov	 eax, DWORD PTR [edx+192]
  05fa4	3b 04 8d d4 00
	00 00		 cmp	 eax, DWORD PTR ?gPetItemExp@@3VCPetItemExp@@A[ecx*4+212]
  05fab	7c 19		 jl	 SHORT $LN6@SetPetItem
$LN5@SetPetItem:

; 3062 : 		{
; 3063 : 			this->m_PetItem_Exp = gPetItemExp.m_DarkHorseExpTable[this->m_PetItem_Level];

  05fad	8b 45 fc	 mov	 eax, DWORD PTR _this$[ebp]
  05fb0	8b 88 bc 00 00
	00		 mov	 ecx, DWORD PTR [eax+188]
  05fb6	8b 55 fc	 mov	 edx, DWORD PTR _this$[ebp]
  05fb9	8b 04 8d d0 00
	00 00		 mov	 eax, DWORD PTR ?gPetItemExp@@3VCPetItemExp@@A[ecx*4+208]
  05fc0	89 82 c0 00 00
	00		 mov	 DWORD PTR [edx+192], eax
$LN6@SetPetItem:

; 3064 : 		}
; 3065 : 
; 3066 : 		this->Convert(this->m_Type, this->m_Option1, this->m_Option2,
; 3067 : 			this->m_Option3, this->m_NewOption, this->m_SetOption, this->m_ItemOptionEx, NULL, 0xFF, 0, CURRENT_DB_VERSION);

  05fc6	6a 03		 push	 3
  05fc8	6a 00		 push	 0
  05fca	68 ff 00 00 00	 push	 255			; 000000ffH
  05fcf	6a 00		 push	 0
  05fd1	8b 45 fc	 mov	 eax, DWORD PTR _this$[ebp]
  05fd4	0f b6 88 ca 00
	00 00		 movzx	 ecx, BYTE PTR [eax+202]
  05fdb	51		 push	 ecx
  05fdc	8b 55 fc	 mov	 edx, DWORD PTR _this$[ebp]
  05fdf	0f b6 82 ae 00
	00 00		 movzx	 eax, BYTE PTR [edx+174]
  05fe6	50		 push	 eax
  05fe7	8b 4d fc	 mov	 ecx, DWORD PTR _this$[ebp]
  05fea	0f b6 91 97 00
	00 00		 movzx	 edx, BYTE PTR [ecx+151]
  05ff1	52		 push	 edx
  05ff2	8b 45 fc	 mov	 eax, DWORD PTR _this$[ebp]
  05ff5	0f b6 88 96 00
	00 00		 movzx	 ecx, BYTE PTR [eax+150]
  05ffc	51		 push	 ecx
  05ffd	8b 55 fc	 mov	 edx, DWORD PTR _this$[ebp]
  06000	0f b6 82 95 00
	00 00		 movzx	 eax, BYTE PTR [edx+149]
  06007	50		 push	 eax
  06008	8b 4d fc	 mov	 ecx, DWORD PTR _this$[ebp]
  0600b	0f b6 91 94 00
	00 00		 movzx	 edx, BYTE PTR [ecx+148]
  06012	52		 push	 edx
  06013	8b 45 fc	 mov	 eax, DWORD PTR _this$[ebp]
  06016	0f bf 48 06	 movsx	 ecx, WORD PTR [eax+6]
  0601a	51		 push	 ecx
  0601b	8b 4d fc	 mov	 ecx, DWORD PTR _this$[ebp]
  0601e	e8 00 00 00 00	 call	 ?Convert@CItem@@QAEXHEEEEEEPAEEEE@Z ; CItem::Convert

; 3068 : 		this->PetValue();

  06023	8b 4d fc	 mov	 ecx, DWORD PTR _this$[ebp]
  06026	e8 00 00 00 00	 call	 ?PetValue@CItem@@QAEXXZ	; CItem::PetValue

; 3069 : 		this->m_IsLoadPetItemInfo = 1;

  0602b	8b 45 fc	 mov	 eax, DWORD PTR _this$[ebp]
  0602e	c7 80 b8 00 00
	00 01 00 00 00	 mov	 DWORD PTR [eax+184], 1
  06038	e9 ec 00 00 00	 jmp	 $LN8@SetPetItem
$LN7@SetPetItem:

; 3070 : 	}
; 3071 : 	else if ( this->m_Type == ITEMGET(13,5) )

  0603d	8b 45 fc	 mov	 eax, DWORD PTR _this$[ebp]
  06040	0f bf 48 06	 movsx	 ecx, WORD PTR [eax+6]
  06044	81 f9 05 1a 00
	00		 cmp	 ecx, 6661		; 00001a05H
  0604a	0f 85 d9 00 00
	00		 jne	 $LN8@SetPetItem

; 3072 : 	{
; 3073 : 		this->m_PetItem_Level = petlevel;

  06050	8b 45 fc	 mov	 eax, DWORD PTR _this$[ebp]
  06053	8b 4d 08	 mov	 ecx, DWORD PTR _petlevel$[ebp]
  06056	89 88 bc 00 00
	00		 mov	 DWORD PTR [eax+188], ecx

; 3074 : 		this->m_PetItem_Exp = petexp;

  0605c	8b 45 fc	 mov	 eax, DWORD PTR _this$[ebp]
  0605f	8b 4d 0c	 mov	 ecx, DWORD PTR _petexp$[ebp]
  06062	89 88 c0 00 00
	00		 mov	 DWORD PTR [eax+192], ecx

; 3075 : 
; 3076 : 		if ( this->m_PetItem_Exp < gPetItemExp.m_DarkSpiritExpTable[this->m_PetItem_Level] || this->m_PetItem_Exp >= gPetItemExp.m_DarkSpiritExpTable[1+this->m_PetItem_Level] )

  06068	8b 45 fc	 mov	 eax, DWORD PTR _this$[ebp]
  0606b	8b 88 bc 00 00
	00		 mov	 ecx, DWORD PTR [eax+188]
  06071	8b 55 fc	 mov	 edx, DWORD PTR _this$[ebp]
  06074	8b 82 c0 00 00
	00		 mov	 eax, DWORD PTR [edx+192]
  0607a	3b 04 8d 00 00
	00 00		 cmp	 eax, DWORD PTR ?gPetItemExp@@3VCPetItemExp@@A[ecx*4]
  06081	7c 1b		 jl	 SHORT $LN1@SetPetItem
  06083	8b 45 fc	 mov	 eax, DWORD PTR _this$[ebp]
  06086	8b 88 bc 00 00
	00		 mov	 ecx, DWORD PTR [eax+188]
  0608c	8b 55 fc	 mov	 edx, DWORD PTR _this$[ebp]
  0608f	8b 82 c0 00 00
	00		 mov	 eax, DWORD PTR [edx+192]
  06095	3b 04 8d 04 00
	00 00		 cmp	 eax, DWORD PTR ?gPetItemExp@@3VCPetItemExp@@A[ecx*4+4]
  0609c	7c 19		 jl	 SHORT $LN2@SetPetItem
$LN1@SetPetItem:

; 3077 : 		{
; 3078 : 			this->m_PetItem_Exp = gPetItemExp.m_DarkSpiritExpTable[this->m_PetItem_Level];

  0609e	8b 45 fc	 mov	 eax, DWORD PTR _this$[ebp]
  060a1	8b 88 bc 00 00
	00		 mov	 ecx, DWORD PTR [eax+188]
  060a7	8b 55 fc	 mov	 edx, DWORD PTR _this$[ebp]
  060aa	8b 04 8d 00 00
	00 00		 mov	 eax, DWORD PTR ?gPetItemExp@@3VCPetItemExp@@A[ecx*4]
  060b1	89 82 c0 00 00
	00		 mov	 DWORD PTR [edx+192], eax
$LN2@SetPetItem:

; 3079 : 		}
; 3080 : 
; 3081 : 		this->Convert(this->m_Type, this->m_Option1, this->m_Option2,
; 3082 : 			this->m_Option3, this->m_NewOption, this->m_SetOption, this->m_ItemOptionEx, NULL, 0xFF, 0, CURRENT_DB_VERSION);

  060b7	6a 03		 push	 3
  060b9	6a 00		 push	 0
  060bb	68 ff 00 00 00	 push	 255			; 000000ffH
  060c0	6a 00		 push	 0
  060c2	8b 45 fc	 mov	 eax, DWORD PTR _this$[ebp]
  060c5	0f b6 88 ca 00
	00 00		 movzx	 ecx, BYTE PTR [eax+202]
  060cc	51		 push	 ecx
  060cd	8b 55 fc	 mov	 edx, DWORD PTR _this$[ebp]
  060d0	0f b6 82 ae 00
	00 00		 movzx	 eax, BYTE PTR [edx+174]
  060d7	50		 push	 eax
  060d8	8b 4d fc	 mov	 ecx, DWORD PTR _this$[ebp]
  060db	0f b6 91 97 00
	00 00		 movzx	 edx, BYTE PTR [ecx+151]
  060e2	52		 push	 edx
  060e3	8b 45 fc	 mov	 eax, DWORD PTR _this$[ebp]
  060e6	0f b6 88 96 00
	00 00		 movzx	 ecx, BYTE PTR [eax+150]
  060ed	51		 push	 ecx
  060ee	8b 55 fc	 mov	 edx, DWORD PTR _this$[ebp]
  060f1	0f b6 82 95 00
	00 00		 movzx	 eax, BYTE PTR [edx+149]
  060f8	50		 push	 eax
  060f9	8b 4d fc	 mov	 ecx, DWORD PTR _this$[ebp]
  060fc	0f b6 91 94 00
	00 00		 movzx	 edx, BYTE PTR [ecx+148]
  06103	52		 push	 edx
  06104	8b 45 fc	 mov	 eax, DWORD PTR _this$[ebp]
  06107	0f bf 48 06	 movsx	 ecx, WORD PTR [eax+6]
  0610b	51		 push	 ecx
  0610c	8b 4d fc	 mov	 ecx, DWORD PTR _this$[ebp]
  0610f	e8 00 00 00 00	 call	 ?Convert@CItem@@QAEXHEEEEEEPAEEEE@Z ; CItem::Convert

; 3083 : 
; 3084 : 		this->PetValue();

  06114	8b 4d fc	 mov	 ecx, DWORD PTR _this$[ebp]
  06117	e8 00 00 00 00	 call	 ?PetValue@CItem@@QAEXXZ	; CItem::PetValue

; 3085 : 		this->m_IsLoadPetItemInfo = 1;

  0611c	8b 45 fc	 mov	 eax, DWORD PTR _this$[ebp]
  0611f	c7 80 b8 00 00
	00 01 00 00 00	 mov	 DWORD PTR [eax+184], 1
$LN8@SetPetItem:

; 3086 : 	}
; 3087 : }

  06129	5f		 pop	 edi
  0612a	5e		 pop	 esi
  0612b	5b		 pop	 ebx
  0612c	8b e5		 mov	 esp, ebp
  0612e	5d		 pop	 ebp
  0612f	c2 08 00	 ret	 8
?SetPetItemInfo@CItem@@QAEXHH@Z ENDP			; CItem::SetPetItemInfo
_TEXT	ENDS
PUBLIC	?AddPetItemExp@CItem@@QAEHH@Z			; CItem::AddPetItemExp
; Function compile flags: /Odtp /ZI
_TEXT	SEGMENT
_maxexp$231617 = -20					; size = 4
_ret$231616 = -16					; size = 4
_maxexp$231608 = -12					; size = 4
_ret$231607 = -8					; size = 4
_this$ = -4						; size = 4
_petexp$ = 8						; size = 4
?AddPetItemExp@CItem@@QAEHH@Z PROC			; CItem::AddPetItemExp
; _this$ = ecx

; 3090 : {

  06140	55		 push	 ebp
  06141	8b ec		 mov	 ebp, esp
  06143	83 ec 54	 sub	 esp, 84			; 00000054H
  06146	53		 push	 ebx
  06147	56		 push	 esi
  06148	57		 push	 edi
  06149	89 4d fc	 mov	 DWORD PTR _this$[ebp], ecx

; 3091 : 	if ( this->m_Durability <= 0.0f )

  0614c	8b 45 fc	 mov	 eax, DWORD PTR _this$[ebp]
  0614f	d9 40 24	 fld	 DWORD PTR [eax+36]
  06152	dc 1d 00 00 00
	00		 fcomp	 QWORD PTR __real@0000000000000000
  06158	df e0		 fnstsw	 ax
  0615a	f6 c4 41	 test	 ah, 65			; 00000041H
  0615d	7a 07		 jp	 SHORT $LN14@AddPetItem

; 3092 : 	{
; 3093 : 		return FALSE;

  0615f	33 c0		 xor	 eax, eax
  06161	e9 bf 02 00 00	 jmp	 $LN15@AddPetItem
$LN14@AddPetItem:

; 3094 : 	}
; 3095 : 
; 3096 : 	if ( this->m_IsLoadPetItemInfo == 0 )

  06166	8b 45 fc	 mov	 eax, DWORD PTR _this$[ebp]
  06169	83 b8 b8 00 00
	00 00		 cmp	 DWORD PTR [eax+184], 0
  06170	75 07		 jne	 SHORT $LN13@AddPetItem

; 3097 : 	{
; 3098 : 		return FALSE;

  06172	33 c0		 xor	 eax, eax
  06174	e9 ac 02 00 00	 jmp	 $LN15@AddPetItem
$LN13@AddPetItem:

; 3099 : 	}
; 3100 : 
; 3101 : 	if ( this->m_PetItem_Level < 1 )

  06179	8b 45 fc	 mov	 eax, DWORD PTR _this$[ebp]
  0617c	83 b8 bc 00 00
	00 01		 cmp	 DWORD PTR [eax+188], 1
  06183	0f 8d 86 00 00
	00		 jge	 $LN12@AddPetItem

; 3102 : 	{
; 3103 : 		this->m_PetItem_Level = 1;

  06189	8b 45 fc	 mov	 eax, DWORD PTR _this$[ebp]
  0618c	c7 80 bc 00 00
	00 01 00 00 00	 mov	 DWORD PTR [eax+188], 1

; 3104 : 		this->m_PetItem_Exp = 0;

  06196	8b 45 fc	 mov	 eax, DWORD PTR _this$[ebp]
  06199	c7 80 c0 00 00
	00 00 00 00 00	 mov	 DWORD PTR [eax+192], 0

; 3105 : 		this->Convert(this->m_Type, this->m_Option1, this->m_Option2,
; 3106 : 			this->m_Option3, this->m_NewOption, this->m_SetOption, this->m_ItemOptionEx, NULL, 0xFF, 0, CURRENT_DB_VERSION);

  061a3	6a 03		 push	 3
  061a5	6a 00		 push	 0
  061a7	68 ff 00 00 00	 push	 255			; 000000ffH
  061ac	6a 00		 push	 0
  061ae	8b 45 fc	 mov	 eax, DWORD PTR _this$[ebp]
  061b1	0f b6 88 ca 00
	00 00		 movzx	 ecx, BYTE PTR [eax+202]
  061b8	51		 push	 ecx
  061b9	8b 55 fc	 mov	 edx, DWORD PTR _this$[ebp]
  061bc	0f b6 82 ae 00
	00 00		 movzx	 eax, BYTE PTR [edx+174]
  061c3	50		 push	 eax
  061c4	8b 4d fc	 mov	 ecx, DWORD PTR _this$[ebp]
  061c7	0f b6 91 97 00
	00 00		 movzx	 edx, BYTE PTR [ecx+151]
  061ce	52		 push	 edx
  061cf	8b 45 fc	 mov	 eax, DWORD PTR _this$[ebp]
  061d2	0f b6 88 96 00
	00 00		 movzx	 ecx, BYTE PTR [eax+150]
  061d9	51		 push	 ecx
  061da	8b 55 fc	 mov	 edx, DWORD PTR _this$[ebp]
  061dd	0f b6 82 95 00
	00 00		 movzx	 eax, BYTE PTR [edx+149]
  061e4	50		 push	 eax
  061e5	8b 4d fc	 mov	 ecx, DWORD PTR _this$[ebp]
  061e8	0f b6 91 94 00
	00 00		 movzx	 edx, BYTE PTR [ecx+148]
  061ef	52		 push	 edx
  061f0	8b 45 fc	 mov	 eax, DWORD PTR _this$[ebp]
  061f3	0f bf 48 06	 movsx	 ecx, WORD PTR [eax+6]
  061f7	51		 push	 ecx
  061f8	8b 4d fc	 mov	 ecx, DWORD PTR _this$[ebp]
  061fb	e8 00 00 00 00	 call	 ?Convert@CItem@@QAEXHEEEEEEPAEEEE@Z ; CItem::Convert

; 3107 : 		this->PetValue();

  06200	8b 4d fc	 mov	 ecx, DWORD PTR _this$[ebp]
  06203	e8 00 00 00 00	 call	 ?PetValue@CItem@@QAEXXZ	; CItem::PetValue

; 3108 : 
; 3109 : 		return FALSE;

  06208	33 c0		 xor	 eax, eax
  0620a	e9 16 02 00 00	 jmp	 $LN15@AddPetItem
$LN12@AddPetItem:

; 3110 : 	}
; 3111 : 
; 3112 : 	if ( this->m_Type == ITEMGET(13,4) )

  0620f	8b 45 fc	 mov	 eax, DWORD PTR _this$[ebp]
  06212	0f bf 48 06	 movsx	 ecx, WORD PTR [eax+6]
  06216	81 f9 04 1a 00
	00		 cmp	 ecx, 6660		; 00001a04H
  0621c	0f 85 fb 00 00
	00		 jne	 $LN11@AddPetItem

; 3113 : 	{
; 3114 : 		if ( this->m_PetItem_Level >= MAX_PET_LEVEL )

  06222	8b 45 fc	 mov	 eax, DWORD PTR _this$[ebp]
  06225	83 b8 bc 00 00
	00 32		 cmp	 DWORD PTR [eax+188], 50	; 00000032H
  0622c	7c 07		 jl	 SHORT $LN10@AddPetItem

; 3115 : 		{
; 3116 : 			return FALSE;

  0622e	33 c0		 xor	 eax, eax
  06230	e9 f0 01 00 00	 jmp	 $LN15@AddPetItem
$LN10@AddPetItem:

; 3117 : 		}
; 3118 : 
; 3119 : 		BOOL ret = FALSE;

  06235	c7 45 f8 00 00
	00 00		 mov	 DWORD PTR _ret$231607[ebp], 0

; 3120 : 		int maxexp = gPetItemExp.m_DarkHorseExpTable[1+this->m_PetItem_Level];

  0623c	8b 45 fc	 mov	 eax, DWORD PTR _this$[ebp]
  0623f	8b 88 bc 00 00
	00		 mov	 ecx, DWORD PTR [eax+188]
  06245	8b 14 8d d4 00
	00 00		 mov	 edx, DWORD PTR ?gPetItemExp@@3VCPetItemExp@@A[ecx*4+212]
  0624c	89 55 f4	 mov	 DWORD PTR _maxexp$231608[ebp], edx

; 3121 : 		this->m_PetItem_Exp += petexp;

  0624f	8b 45 fc	 mov	 eax, DWORD PTR _this$[ebp]
  06252	8b 88 c0 00 00
	00		 mov	 ecx, DWORD PTR [eax+192]
  06258	03 4d 08	 add	 ecx, DWORD PTR _petexp$[ebp]
  0625b	8b 55 fc	 mov	 edx, DWORD PTR _this$[ebp]
  0625e	89 8a c0 00 00
	00		 mov	 DWORD PTR [edx+192], ecx
$LN9@AddPetItem:

; 3122 : 
; 3123 : 		while ( this->m_PetItem_Exp >= maxexp )

  06264	8b 45 fc	 mov	 eax, DWORD PTR _this$[ebp]
  06267	8b 88 c0 00 00
	00		 mov	 ecx, DWORD PTR [eax+192]
  0626d	3b 4d f4	 cmp	 ecx, DWORD PTR _maxexp$231608[ebp]
  06270	7c 31		 jl	 SHORT $LN8@AddPetItem

; 3124 : 		{
; 3125 : 			this->m_PetItem_Level++;

  06272	8b 45 fc	 mov	 eax, DWORD PTR _this$[ebp]
  06275	8b 88 bc 00 00
	00		 mov	 ecx, DWORD PTR [eax+188]
  0627b	83 c1 01	 add	 ecx, 1
  0627e	8b 55 fc	 mov	 edx, DWORD PTR _this$[ebp]
  06281	89 8a bc 00 00
	00		 mov	 DWORD PTR [edx+188], ecx

; 3126 : 			maxexp = gPetItemExp.m_DarkHorseExpTable[1+this->m_PetItem_Level];

  06287	8b 45 fc	 mov	 eax, DWORD PTR _this$[ebp]
  0628a	8b 88 bc 00 00
	00		 mov	 ecx, DWORD PTR [eax+188]
  06290	8b 14 8d d4 00
	00 00		 mov	 edx, DWORD PTR ?gPetItemExp@@3VCPetItemExp@@A[ecx*4+212]
  06297	89 55 f4	 mov	 DWORD PTR _maxexp$231608[ebp], edx

; 3127 : 			ret = TRUE;

  0629a	c7 45 f8 01 00
	00 00		 mov	 DWORD PTR _ret$231607[ebp], 1

; 3128 : 		}

  062a1	eb c1		 jmp	 SHORT $LN9@AddPetItem
$LN8@AddPetItem:

; 3129 : 
; 3130 : 		if ( ret != FALSE )

  062a3	83 7d f8 00	 cmp	 DWORD PTR _ret$231607[ebp], 0
  062a7	74 6f		 je	 SHORT $LN7@AddPetItem

; 3131 : 		{
; 3132 : 		this->Convert(this->m_Type, this->m_Option1, this->m_Option2,
; 3133 : 			this->m_Option3, this->m_NewOption, this->m_SetOption, this->m_ItemOptionEx, NULL, 0xFF, 0, CURRENT_DB_VERSION);

  062a9	6a 03		 push	 3
  062ab	6a 00		 push	 0
  062ad	68 ff 00 00 00	 push	 255			; 000000ffH
  062b2	6a 00		 push	 0
  062b4	8b 45 fc	 mov	 eax, DWORD PTR _this$[ebp]
  062b7	0f b6 88 ca 00
	00 00		 movzx	 ecx, BYTE PTR [eax+202]
  062be	51		 push	 ecx
  062bf	8b 55 fc	 mov	 edx, DWORD PTR _this$[ebp]
  062c2	0f b6 82 ae 00
	00 00		 movzx	 eax, BYTE PTR [edx+174]
  062c9	50		 push	 eax
  062ca	8b 4d fc	 mov	 ecx, DWORD PTR _this$[ebp]
  062cd	0f b6 91 97 00
	00 00		 movzx	 edx, BYTE PTR [ecx+151]
  062d4	52		 push	 edx
  062d5	8b 45 fc	 mov	 eax, DWORD PTR _this$[ebp]
  062d8	0f b6 88 96 00
	00 00		 movzx	 ecx, BYTE PTR [eax+150]
  062df	51		 push	 ecx
  062e0	8b 55 fc	 mov	 edx, DWORD PTR _this$[ebp]
  062e3	0f b6 82 95 00
	00 00		 movzx	 eax, BYTE PTR [edx+149]
  062ea	50		 push	 eax
  062eb	8b 4d fc	 mov	 ecx, DWORD PTR _this$[ebp]
  062ee	0f b6 91 94 00
	00 00		 movzx	 edx, BYTE PTR [ecx+148]
  062f5	52		 push	 edx
  062f6	8b 45 fc	 mov	 eax, DWORD PTR _this$[ebp]
  062f9	0f bf 48 06	 movsx	 ecx, WORD PTR [eax+6]
  062fd	51		 push	 ecx
  062fe	8b 4d fc	 mov	 ecx, DWORD PTR _this$[ebp]
  06301	e8 00 00 00 00	 call	 ?Convert@CItem@@QAEXHEEEEEEPAEEEE@Z ; CItem::Convert

; 3134 : 		this->PetValue();

  06306	8b 4d fc	 mov	 ecx, DWORD PTR _this$[ebp]
  06309	e8 00 00 00 00	 call	 ?PetValue@CItem@@QAEXXZ	; CItem::PetValue

; 3135 : 
; 3136 : 		return TRUE;

  0630e	b8 01 00 00 00	 mov	 eax, 1
  06313	e9 0d 01 00 00	 jmp	 $LN15@AddPetItem
$LN7@AddPetItem:

; 3137 : 		}
; 3138 : 	}

  06318	e9 06 01 00 00	 jmp	 $LN1@AddPetItem
$LN11@AddPetItem:

; 3139 : 	else if ( this->m_Type == ITEMGET(13,5) )

  0631d	8b 45 fc	 mov	 eax, DWORD PTR _this$[ebp]
  06320	0f bf 48 06	 movsx	 ecx, WORD PTR [eax+6]
  06324	81 f9 05 1a 00
	00		 cmp	 ecx, 6661		; 00001a05H
  0632a	0f 85 f3 00 00
	00		 jne	 $LN1@AddPetItem

; 3140 : 	{
; 3141 : 		if ( this->m_PetItem_Level >= MAX_PET_LEVEL )

  06330	8b 45 fc	 mov	 eax, DWORD PTR _this$[ebp]
  06333	83 b8 bc 00 00
	00 32		 cmp	 DWORD PTR [eax+188], 50	; 00000032H
  0633a	7c 07		 jl	 SHORT $LN4@AddPetItem

; 3142 : 		{
; 3143 : 			return FALSE;

  0633c	33 c0		 xor	 eax, eax
  0633e	e9 e2 00 00 00	 jmp	 $LN15@AddPetItem
$LN4@AddPetItem:

; 3144 : 		}
; 3145 : 
; 3146 : 		BOOL ret = FALSE;

  06343	c7 45 f0 00 00
	00 00		 mov	 DWORD PTR _ret$231616[ebp], 0

; 3147 : 		int maxexp = gPetItemExp.m_DarkSpiritExpTable[1+this->m_PetItem_Level];

  0634a	8b 45 fc	 mov	 eax, DWORD PTR _this$[ebp]
  0634d	8b 88 bc 00 00
	00		 mov	 ecx, DWORD PTR [eax+188]
  06353	8b 14 8d 04 00
	00 00		 mov	 edx, DWORD PTR ?gPetItemExp@@3VCPetItemExp@@A[ecx*4+4]
  0635a	89 55 ec	 mov	 DWORD PTR _maxexp$231617[ebp], edx

; 3148 : 		this->m_PetItem_Exp += petexp;

  0635d	8b 45 fc	 mov	 eax, DWORD PTR _this$[ebp]
  06360	8b 88 c0 00 00
	00		 mov	 ecx, DWORD PTR [eax+192]
  06366	03 4d 08	 add	 ecx, DWORD PTR _petexp$[ebp]
  06369	8b 55 fc	 mov	 edx, DWORD PTR _this$[ebp]
  0636c	89 8a c0 00 00
	00		 mov	 DWORD PTR [edx+192], ecx
$LN3@AddPetItem:

; 3149 : 
; 3150 : 		while ( this->m_PetItem_Exp >= maxexp )

  06372	8b 45 fc	 mov	 eax, DWORD PTR _this$[ebp]
  06375	8b 88 c0 00 00
	00		 mov	 ecx, DWORD PTR [eax+192]
  0637b	3b 4d ec	 cmp	 ecx, DWORD PTR _maxexp$231617[ebp]
  0637e	7c 31		 jl	 SHORT $LN2@AddPetItem

; 3151 : 		{
; 3152 : 			this->m_PetItem_Level++;

  06380	8b 45 fc	 mov	 eax, DWORD PTR _this$[ebp]
  06383	8b 88 bc 00 00
	00		 mov	 ecx, DWORD PTR [eax+188]
  06389	83 c1 01	 add	 ecx, 1
  0638c	8b 55 fc	 mov	 edx, DWORD PTR _this$[ebp]
  0638f	89 8a bc 00 00
	00		 mov	 DWORD PTR [edx+188], ecx

; 3153 : 			maxexp = gPetItemExp.m_DarkSpiritExpTable[1+this->m_PetItem_Level];

  06395	8b 45 fc	 mov	 eax, DWORD PTR _this$[ebp]
  06398	8b 88 bc 00 00
	00		 mov	 ecx, DWORD PTR [eax+188]
  0639e	8b 14 8d 04 00
	00 00		 mov	 edx, DWORD PTR ?gPetItemExp@@3VCPetItemExp@@A[ecx*4+4]
  063a5	89 55 ec	 mov	 DWORD PTR _maxexp$231617[ebp], edx

; 3154 : 			ret = TRUE;

  063a8	c7 45 f0 01 00
	00 00		 mov	 DWORD PTR _ret$231616[ebp], 1

; 3155 : 		}

  063af	eb c1		 jmp	 SHORT $LN3@AddPetItem
$LN2@AddPetItem:

; 3156 : 
; 3157 : 		if ( ret != FALSE )

  063b1	83 7d f0 00	 cmp	 DWORD PTR _ret$231616[ebp], 0
  063b5	74 6c		 je	 SHORT $LN1@AddPetItem

; 3158 : 		{
; 3159 : 		this->Convert(this->m_Type, this->m_Option1, this->m_Option2,
; 3160 : 			this->m_Option3, this->m_NewOption, this->m_SetOption, this->m_ItemOptionEx, NULL, 0xFF, 0, CURRENT_DB_VERSION);

  063b7	6a 03		 push	 3
  063b9	6a 00		 push	 0
  063bb	68 ff 00 00 00	 push	 255			; 000000ffH
  063c0	6a 00		 push	 0
  063c2	8b 45 fc	 mov	 eax, DWORD PTR _this$[ebp]
  063c5	0f b6 88 ca 00
	00 00		 movzx	 ecx, BYTE PTR [eax+202]
  063cc	51		 push	 ecx
  063cd	8b 55 fc	 mov	 edx, DWORD PTR _this$[ebp]
  063d0	0f b6 82 ae 00
	00 00		 movzx	 eax, BYTE PTR [edx+174]
  063d7	50		 push	 eax
  063d8	8b 4d fc	 mov	 ecx, DWORD PTR _this$[ebp]
  063db	0f b6 91 97 00
	00 00		 movzx	 edx, BYTE PTR [ecx+151]
  063e2	52		 push	 edx
  063e3	8b 45 fc	 mov	 eax, DWORD PTR _this$[ebp]
  063e6	0f b6 88 96 00
	00 00		 movzx	 ecx, BYTE PTR [eax+150]
  063ed	51		 push	 ecx
  063ee	8b 55 fc	 mov	 edx, DWORD PTR _this$[ebp]
  063f1	0f b6 82 95 00
	00 00		 movzx	 eax, BYTE PTR [edx+149]
  063f8	50		 push	 eax
  063f9	8b 4d fc	 mov	 ecx, DWORD PTR _this$[ebp]
  063fc	0f b6 91 94 00
	00 00		 movzx	 edx, BYTE PTR [ecx+148]
  06403	52		 push	 edx
  06404	8b 45 fc	 mov	 eax, DWORD PTR _this$[ebp]
  06407	0f bf 48 06	 movsx	 ecx, WORD PTR [eax+6]
  0640b	51		 push	 ecx
  0640c	8b 4d fc	 mov	 ecx, DWORD PTR _this$[ebp]
  0640f	e8 00 00 00 00	 call	 ?Convert@CItem@@QAEXHEEEEEEPAEEEE@Z ; CItem::Convert

; 3161 : 		this->PetValue();

  06414	8b 4d fc	 mov	 ecx, DWORD PTR _this$[ebp]
  06417	e8 00 00 00 00	 call	 ?PetValue@CItem@@QAEXXZ	; CItem::PetValue

; 3162 : 
; 3163 : 		return TRUE;

  0641c	b8 01 00 00 00	 mov	 eax, 1
  06421	eb 02		 jmp	 SHORT $LN15@AddPetItem
$LN1@AddPetItem:

; 3164 : 		}
; 3165 : 	}
; 3166 : 
; 3167 : 	return FALSE;

  06423	33 c0		 xor	 eax, eax
$LN15@AddPetItem:

; 3168 : }

  06425	5f		 pop	 edi
  06426	5e		 pop	 esi
  06427	5b		 pop	 ebx
  06428	8b e5		 mov	 esp, ebp
  0642a	5d		 pop	 ebp
  0642b	c2 04 00	 ret	 4
?AddPetItemExp@CItem@@QAEHH@Z ENDP			; CItem::AddPetItemExp
_TEXT	ENDS
PUBLIC	?DecPetItemExp@CItem@@QAEHH@Z			; CItem::DecPetItemExp
; Function compile flags: /Odtp /ZI
_TEXT	SEGMENT
_exp$231635 = -12					; size = 4
_exp$231629 = -8					; size = 4
_this$ = -4						; size = 4
_percent$ = 8						; size = 4
?DecPetItemExp@CItem@@QAEHH@Z PROC			; CItem::DecPetItemExp
; _this$ = ecx

; 3171 : {

  06430	55		 push	 ebp
  06431	8b ec		 mov	 ebp, esp
  06433	83 ec 4c	 sub	 esp, 76			; 0000004cH
  06436	53		 push	 ebx
  06437	56		 push	 esi
  06438	57		 push	 edi
  06439	89 4d fc	 mov	 DWORD PTR _this$[ebp], ecx

; 3172 : 	if ( this->m_IsLoadPetItemInfo == 0 )

  0643c	8b 45 fc	 mov	 eax, DWORD PTR _this$[ebp]
  0643f	83 b8 b8 00 00
	00 00		 cmp	 DWORD PTR [eax+184], 0
  06446	75 07		 jne	 SHORT $LN11@DecPetItem

; 3173 : 	{
; 3174 : 		return FALSE;

  06448	33 c0		 xor	 eax, eax
  0644a	e9 c2 03 00 00	 jmp	 $LN12@DecPetItem
$LN11@DecPetItem:

; 3175 : 	}
; 3176 : 
; 3177 : 	if ( this->m_PetItem_Level < 1 )

  0644f	8b 45 fc	 mov	 eax, DWORD PTR _this$[ebp]
  06452	83 b8 bc 00 00
	00 01		 cmp	 DWORD PTR [eax+188], 1
  06459	0f 8d 86 00 00
	00		 jge	 $LN10@DecPetItem

; 3178 : 	{
; 3179 : 		this->m_PetItem_Level = 1;

  0645f	8b 45 fc	 mov	 eax, DWORD PTR _this$[ebp]
  06462	c7 80 bc 00 00
	00 01 00 00 00	 mov	 DWORD PTR [eax+188], 1

; 3180 : 		this->m_PetItem_Exp = 0;

  0646c	8b 45 fc	 mov	 eax, DWORD PTR _this$[ebp]
  0646f	c7 80 c0 00 00
	00 00 00 00 00	 mov	 DWORD PTR [eax+192], 0

; 3181 : 		this->Convert(this->m_Type, this->m_Option1, this->m_Option2,
; 3182 : 			this->m_Option3, this->m_NewOption, this->m_SetOption, this->m_ItemOptionEx, NULL, 0xFF, 0, CURRENT_DB_VERSION);

  06479	6a 03		 push	 3
  0647b	6a 00		 push	 0
  0647d	68 ff 00 00 00	 push	 255			; 000000ffH
  06482	6a 00		 push	 0
  06484	8b 45 fc	 mov	 eax, DWORD PTR _this$[ebp]
  06487	0f b6 88 ca 00
	00 00		 movzx	 ecx, BYTE PTR [eax+202]
  0648e	51		 push	 ecx
  0648f	8b 55 fc	 mov	 edx, DWORD PTR _this$[ebp]
  06492	0f b6 82 ae 00
	00 00		 movzx	 eax, BYTE PTR [edx+174]
  06499	50		 push	 eax
  0649a	8b 4d fc	 mov	 ecx, DWORD PTR _this$[ebp]
  0649d	0f b6 91 97 00
	00 00		 movzx	 edx, BYTE PTR [ecx+151]
  064a4	52		 push	 edx
  064a5	8b 45 fc	 mov	 eax, DWORD PTR _this$[ebp]
  064a8	0f b6 88 96 00
	00 00		 movzx	 ecx, BYTE PTR [eax+150]
  064af	51		 push	 ecx
  064b0	8b 55 fc	 mov	 edx, DWORD PTR _this$[ebp]
  064b3	0f b6 82 95 00
	00 00		 movzx	 eax, BYTE PTR [edx+149]
  064ba	50		 push	 eax
  064bb	8b 4d fc	 mov	 ecx, DWORD PTR _this$[ebp]
  064be	0f b6 91 94 00
	00 00		 movzx	 edx, BYTE PTR [ecx+148]
  064c5	52		 push	 edx
  064c6	8b 45 fc	 mov	 eax, DWORD PTR _this$[ebp]
  064c9	0f bf 48 06	 movsx	 ecx, WORD PTR [eax+6]
  064cd	51		 push	 ecx
  064ce	8b 4d fc	 mov	 ecx, DWORD PTR _this$[ebp]
  064d1	e8 00 00 00 00	 call	 ?Convert@CItem@@QAEXHEEEEEEPAEEEE@Z ; CItem::Convert

; 3183 : 		this->PetValue();

  064d6	8b 4d fc	 mov	 ecx, DWORD PTR _this$[ebp]
  064d9	e8 00 00 00 00	 call	 ?PetValue@CItem@@QAEXXZ	; CItem::PetValue

; 3184 : 
; 3185 : 		return FALSE;

  064de	33 c0		 xor	 eax, eax
  064e0	e9 2c 03 00 00	 jmp	 $LN12@DecPetItem
$LN10@DecPetItem:

; 3186 : 	}
; 3187 : 
; 3188 : 	if ( this->m_Type == ITEMGET(13,4) )

  064e5	8b 45 fc	 mov	 eax, DWORD PTR _this$[ebp]
  064e8	0f bf 48 06	 movsx	 ecx, WORD PTR [eax+6]
  064ec	81 f9 04 1a 00
	00		 cmp	 ecx, 6660		; 00001a04H
  064f2	0f 85 86 01 00
	00		 jne	 $LN9@DecPetItem

; 3189 : 	{
; 3190 : 		int exp = gPetItemExp.m_DarkHorseExpTable[1+this->m_PetItem_Level] - gPetItemExp.m_DarkHorseExpTable[this->m_PetItem_Level];

  064f8	8b 45 fc	 mov	 eax, DWORD PTR _this$[ebp]
  064fb	8b 88 bc 00 00
	00		 mov	 ecx, DWORD PTR [eax+188]
  06501	8b 55 fc	 mov	 edx, DWORD PTR _this$[ebp]
  06504	8b 82 bc 00 00
	00		 mov	 eax, DWORD PTR [edx+188]
  0650a	8b 0c 8d d4 00
	00 00		 mov	 ecx, DWORD PTR ?gPetItemExp@@3VCPetItemExp@@A[ecx*4+212]
  06511	2b 0c 85 d0 00
	00 00		 sub	 ecx, DWORD PTR ?gPetItemExp@@3VCPetItemExp@@A[eax*4+208]
  06518	89 4d f8	 mov	 DWORD PTR _exp$231629[ebp], ecx

; 3191 : 		exp = exp * percent/100;

  0651b	8b 45 f8	 mov	 eax, DWORD PTR _exp$231629[ebp]
  0651e	0f af 45 08	 imul	 eax, DWORD PTR _percent$[ebp]
  06522	99		 cdq
  06523	b9 64 00 00 00	 mov	 ecx, 100		; 00000064H
  06528	f7 f9		 idiv	 ecx
  0652a	89 45 f8	 mov	 DWORD PTR _exp$231629[ebp], eax

; 3192 : 		this->m_PetItem_Exp -= exp;

  0652d	8b 45 fc	 mov	 eax, DWORD PTR _this$[ebp]
  06530	8b 88 c0 00 00
	00		 mov	 ecx, DWORD PTR [eax+192]
  06536	2b 4d f8	 sub	 ecx, DWORD PTR _exp$231629[ebp]
  06539	8b 55 fc	 mov	 edx, DWORD PTR _this$[ebp]
  0653c	89 8a c0 00 00
	00		 mov	 DWORD PTR [edx+192], ecx

; 3193 : 
; 3194 : 		if ( this->m_PetItem_Exp < 0 )

  06542	8b 45 fc	 mov	 eax, DWORD PTR _this$[ebp]
  06545	83 b8 c0 00 00
	00 00		 cmp	 DWORD PTR [eax+192], 0
  0654c	0f 8d 84 00 00
	00		 jge	 $LN8@DecPetItem

; 3195 : 		{
; 3196 : 			this->m_PetItem_Level = 1;

  06552	8b 45 fc	 mov	 eax, DWORD PTR _this$[ebp]
  06555	c7 80 bc 00 00
	00 01 00 00 00	 mov	 DWORD PTR [eax+188], 1

; 3197 : 			this->m_PetItem_Exp = 0;

  0655f	8b 45 fc	 mov	 eax, DWORD PTR _this$[ebp]
  06562	c7 80 c0 00 00
	00 00 00 00 00	 mov	 DWORD PTR [eax+192], 0

; 3198 : 			this->Convert(this->m_Type, this->m_Option1, this->m_Option2,
; 3199 : 				this->m_Option3, this->m_NewOption, this->m_SetOption, this->m_ItemOptionEx, NULL, 0xFF, 0, CURRENT_DB_VERSION);

  0656c	6a 03		 push	 3
  0656e	6a 00		 push	 0
  06570	68 ff 00 00 00	 push	 255			; 000000ffH
  06575	6a 00		 push	 0
  06577	8b 45 fc	 mov	 eax, DWORD PTR _this$[ebp]
  0657a	0f b6 88 ca 00
	00 00		 movzx	 ecx, BYTE PTR [eax+202]
  06581	51		 push	 ecx
  06582	8b 55 fc	 mov	 edx, DWORD PTR _this$[ebp]
  06585	0f b6 82 ae 00
	00 00		 movzx	 eax, BYTE PTR [edx+174]
  0658c	50		 push	 eax
  0658d	8b 4d fc	 mov	 ecx, DWORD PTR _this$[ebp]
  06590	0f b6 91 97 00
	00 00		 movzx	 edx, BYTE PTR [ecx+151]
  06597	52		 push	 edx
  06598	8b 45 fc	 mov	 eax, DWORD PTR _this$[ebp]
  0659b	0f b6 88 96 00
	00 00		 movzx	 ecx, BYTE PTR [eax+150]
  065a2	51		 push	 ecx
  065a3	8b 55 fc	 mov	 edx, DWORD PTR _this$[ebp]
  065a6	0f b6 82 95 00
	00 00		 movzx	 eax, BYTE PTR [edx+149]
  065ad	50		 push	 eax
  065ae	8b 4d fc	 mov	 ecx, DWORD PTR _this$[ebp]
  065b1	0f b6 91 94 00
	00 00		 movzx	 edx, BYTE PTR [ecx+148]
  065b8	52		 push	 edx
  065b9	8b 45 fc	 mov	 eax, DWORD PTR _this$[ebp]
  065bc	0f bf 48 06	 movsx	 ecx, WORD PTR [eax+6]
  065c0	51		 push	 ecx
  065c1	8b 4d fc	 mov	 ecx, DWORD PTR _this$[ebp]
  065c4	e8 00 00 00 00	 call	 ?Convert@CItem@@QAEXHEEEEEEPAEEEE@Z ; CItem::Convert

; 3200 : 			this->PetValue();

  065c9	8b 4d fc	 mov	 ecx, DWORD PTR _this$[ebp]
  065cc	e8 00 00 00 00	 call	 ?PetValue@CItem@@QAEXXZ	; CItem::PetValue
  065d1	e9 a3 00 00 00	 jmp	 $LN7@DecPetItem
$LN8@DecPetItem:

; 3201 : 		}
; 3202 : 		else if ( this->m_PetItem_Exp < gPetItemExp.m_DarkHorseExpTable[this->m_PetItem_Level] )

  065d6	8b 45 fc	 mov	 eax, DWORD PTR _this$[ebp]
  065d9	8b 88 bc 00 00
	00		 mov	 ecx, DWORD PTR [eax+188]
  065df	8b 55 fc	 mov	 edx, DWORD PTR _this$[ebp]
  065e2	8b 82 c0 00 00
	00		 mov	 eax, DWORD PTR [edx+192]
  065e8	3b 04 8d d0 00
	00 00		 cmp	 eax, DWORD PTR ?gPetItemExp@@3VCPetItemExp@@A[ecx*4+208]
  065ef	0f 8d 84 00 00
	00		 jge	 $LN7@DecPetItem

; 3203 : 		{
; 3204 : 			this->m_PetItem_Level--;

  065f5	8b 45 fc	 mov	 eax, DWORD PTR _this$[ebp]
  065f8	8b 88 bc 00 00
	00		 mov	 ecx, DWORD PTR [eax+188]
  065fe	83 e9 01	 sub	 ecx, 1
  06601	8b 55 fc	 mov	 edx, DWORD PTR _this$[ebp]
  06604	89 8a bc 00 00
	00		 mov	 DWORD PTR [edx+188], ecx

; 3205 : 			this->Convert(this->m_Type, this->m_Option1, this->m_Option2,
; 3206 : 				this->m_Option3, this->m_NewOption, this->m_SetOption, this->m_ItemOptionEx, NULL, 0xFF, 0, CURRENT_DB_VERSION);

  0660a	6a 03		 push	 3
  0660c	6a 00		 push	 0
  0660e	68 ff 00 00 00	 push	 255			; 000000ffH
  06613	6a 00		 push	 0
  06615	8b 45 fc	 mov	 eax, DWORD PTR _this$[ebp]
  06618	0f b6 88 ca 00
	00 00		 movzx	 ecx, BYTE PTR [eax+202]
  0661f	51		 push	 ecx
  06620	8b 55 fc	 mov	 edx, DWORD PTR _this$[ebp]
  06623	0f b6 82 ae 00
	00 00		 movzx	 eax, BYTE PTR [edx+174]
  0662a	50		 push	 eax
  0662b	8b 4d fc	 mov	 ecx, DWORD PTR _this$[ebp]
  0662e	0f b6 91 97 00
	00 00		 movzx	 edx, BYTE PTR [ecx+151]
  06635	52		 push	 edx
  06636	8b 45 fc	 mov	 eax, DWORD PTR _this$[ebp]
  06639	0f b6 88 96 00
	00 00		 movzx	 ecx, BYTE PTR [eax+150]
  06640	51		 push	 ecx
  06641	8b 55 fc	 mov	 edx, DWORD PTR _this$[ebp]
  06644	0f b6 82 95 00
	00 00		 movzx	 eax, BYTE PTR [edx+149]
  0664b	50		 push	 eax
  0664c	8b 4d fc	 mov	 ecx, DWORD PTR _this$[ebp]
  0664f	0f b6 91 94 00
	00 00		 movzx	 edx, BYTE PTR [ecx+148]
  06656	52		 push	 edx
  06657	8b 45 fc	 mov	 eax, DWORD PTR _this$[ebp]
  0665a	0f bf 48 06	 movsx	 ecx, WORD PTR [eax+6]
  0665e	51		 push	 ecx
  0665f	8b 4d fc	 mov	 ecx, DWORD PTR _this$[ebp]
  06662	e8 00 00 00 00	 call	 ?Convert@CItem@@QAEXHEEEEEEPAEEEE@Z ; CItem::Convert

; 3207 : 			this->PetValue();

  06667	8b 4d fc	 mov	 ecx, DWORD PTR _this$[ebp]
  0666a	e8 00 00 00 00	 call	 ?PetValue@CItem@@QAEXXZ	; CItem::PetValue

; 3208 : 			
; 3209 : 			return TRUE;

  0666f	b8 01 00 00 00	 mov	 eax, 1
  06674	e9 98 01 00 00	 jmp	 $LN12@DecPetItem
$LN7@DecPetItem:

; 3210 : 		}
; 3211 : 	}

  06679	e9 91 01 00 00	 jmp	 $LN5@DecPetItem
$LN9@DecPetItem:

; 3212 : 	else if ( this->m_Type == ITEMGET(13,5) )

  0667e	8b 45 fc	 mov	 eax, DWORD PTR _this$[ebp]
  06681	0f bf 48 06	 movsx	 ecx, WORD PTR [eax+6]
  06685	81 f9 05 1a 00
	00		 cmp	 ecx, 6661		; 00001a05H
  0668b	0f 85 7e 01 00
	00		 jne	 $LN5@DecPetItem

; 3213 : 	{
; 3214 : 		int exp = gPetItemExp.m_DarkSpiritExpTable[1+this->m_PetItem_Level] - gPetItemExp.m_DarkSpiritExpTable[this->m_PetItem_Level];

  06691	8b 45 fc	 mov	 eax, DWORD PTR _this$[ebp]
  06694	8b 88 bc 00 00
	00		 mov	 ecx, DWORD PTR [eax+188]
  0669a	8b 55 fc	 mov	 edx, DWORD PTR _this$[ebp]
  0669d	8b 82 bc 00 00
	00		 mov	 eax, DWORD PTR [edx+188]
  066a3	8b 0c 8d 04 00
	00 00		 mov	 ecx, DWORD PTR ?gPetItemExp@@3VCPetItemExp@@A[ecx*4+4]
  066aa	2b 0c 85 00 00
	00 00		 sub	 ecx, DWORD PTR ?gPetItemExp@@3VCPetItemExp@@A[eax*4]
  066b1	89 4d f4	 mov	 DWORD PTR _exp$231635[ebp], ecx

; 3215 : 		exp = exp * percent/100;

  066b4	8b 45 f4	 mov	 eax, DWORD PTR _exp$231635[ebp]
  066b7	0f af 45 08	 imul	 eax, DWORD PTR _percent$[ebp]
  066bb	99		 cdq
  066bc	b9 64 00 00 00	 mov	 ecx, 100		; 00000064H
  066c1	f7 f9		 idiv	 ecx
  066c3	89 45 f4	 mov	 DWORD PTR _exp$231635[ebp], eax

; 3216 : 		this->m_PetItem_Exp -= exp;

  066c6	8b 45 fc	 mov	 eax, DWORD PTR _this$[ebp]
  066c9	8b 88 c0 00 00
	00		 mov	 ecx, DWORD PTR [eax+192]
  066cf	2b 4d f4	 sub	 ecx, DWORD PTR _exp$231635[ebp]
  066d2	8b 55 fc	 mov	 edx, DWORD PTR _this$[ebp]
  066d5	89 8a c0 00 00
	00		 mov	 DWORD PTR [edx+192], ecx

; 3217 : 
; 3218 : 		if ( this->m_PetItem_Exp < 0 )

  066db	8b 45 fc	 mov	 eax, DWORD PTR _this$[ebp]
  066de	83 b8 c0 00 00
	00 00		 cmp	 DWORD PTR [eax+192], 0
  066e5	0f 8d 84 00 00
	00		 jge	 $LN3@DecPetItem

; 3219 : 		{
; 3220 : 			this->m_PetItem_Level = 1;

  066eb	8b 45 fc	 mov	 eax, DWORD PTR _this$[ebp]
  066ee	c7 80 bc 00 00
	00 01 00 00 00	 mov	 DWORD PTR [eax+188], 1

; 3221 : 			this->m_PetItem_Exp = 0;

  066f8	8b 45 fc	 mov	 eax, DWORD PTR _this$[ebp]
  066fb	c7 80 c0 00 00
	00 00 00 00 00	 mov	 DWORD PTR [eax+192], 0

; 3222 : 			this->Convert(this->m_Type, this->m_Option1, this->m_Option2,
; 3223 : 				this->m_Option3, this->m_NewOption, this->m_SetOption, this->m_ItemOptionEx, NULL, 0xFF, 0, CURRENT_DB_VERSION);

  06705	6a 03		 push	 3
  06707	6a 00		 push	 0
  06709	68 ff 00 00 00	 push	 255			; 000000ffH
  0670e	6a 00		 push	 0
  06710	8b 45 fc	 mov	 eax, DWORD PTR _this$[ebp]
  06713	0f b6 88 ca 00
	00 00		 movzx	 ecx, BYTE PTR [eax+202]
  0671a	51		 push	 ecx
  0671b	8b 55 fc	 mov	 edx, DWORD PTR _this$[ebp]
  0671e	0f b6 82 ae 00
	00 00		 movzx	 eax, BYTE PTR [edx+174]
  06725	50		 push	 eax
  06726	8b 4d fc	 mov	 ecx, DWORD PTR _this$[ebp]
  06729	0f b6 91 97 00
	00 00		 movzx	 edx, BYTE PTR [ecx+151]
  06730	52		 push	 edx
  06731	8b 45 fc	 mov	 eax, DWORD PTR _this$[ebp]
  06734	0f b6 88 96 00
	00 00		 movzx	 ecx, BYTE PTR [eax+150]
  0673b	51		 push	 ecx
  0673c	8b 55 fc	 mov	 edx, DWORD PTR _this$[ebp]
  0673f	0f b6 82 95 00
	00 00		 movzx	 eax, BYTE PTR [edx+149]
  06746	50		 push	 eax
  06747	8b 4d fc	 mov	 ecx, DWORD PTR _this$[ebp]
  0674a	0f b6 91 94 00
	00 00		 movzx	 edx, BYTE PTR [ecx+148]
  06751	52		 push	 edx
  06752	8b 45 fc	 mov	 eax, DWORD PTR _this$[ebp]
  06755	0f bf 48 06	 movsx	 ecx, WORD PTR [eax+6]
  06759	51		 push	 ecx
  0675a	8b 4d fc	 mov	 ecx, DWORD PTR _this$[ebp]
  0675d	e8 00 00 00 00	 call	 ?Convert@CItem@@QAEXHEEEEEEPAEEEE@Z ; CItem::Convert

; 3224 : 			this->PetValue();

  06762	8b 4d fc	 mov	 ecx, DWORD PTR _this$[ebp]
  06765	e8 00 00 00 00	 call	 ?PetValue@CItem@@QAEXXZ	; CItem::PetValue
  0676a	e9 a0 00 00 00	 jmp	 $LN5@DecPetItem
$LN3@DecPetItem:

; 3225 : 		}
; 3226 : 		else if ( this->m_PetItem_Exp < gPetItemExp.m_DarkSpiritExpTable[this->m_PetItem_Level] )

  0676f	8b 45 fc	 mov	 eax, DWORD PTR _this$[ebp]
  06772	8b 88 bc 00 00
	00		 mov	 ecx, DWORD PTR [eax+188]
  06778	8b 55 fc	 mov	 edx, DWORD PTR _this$[ebp]
  0677b	8b 82 c0 00 00
	00		 mov	 eax, DWORD PTR [edx+192]
  06781	3b 04 8d 00 00
	00 00		 cmp	 eax, DWORD PTR ?gPetItemExp@@3VCPetItemExp@@A[ecx*4]
  06788	0f 8d 81 00 00
	00		 jge	 $LN5@DecPetItem

; 3227 : 		{
; 3228 : 			this->m_PetItem_Level--;

  0678e	8b 45 fc	 mov	 eax, DWORD PTR _this$[ebp]
  06791	8b 88 bc 00 00
	00		 mov	 ecx, DWORD PTR [eax+188]
  06797	83 e9 01	 sub	 ecx, 1
  0679a	8b 55 fc	 mov	 edx, DWORD PTR _this$[ebp]
  0679d	89 8a bc 00 00
	00		 mov	 DWORD PTR [edx+188], ecx

; 3229 : 			this->Convert(this->m_Type, this->m_Option1, this->m_Option2,
; 3230 : 				this->m_Option3, this->m_NewOption, this->m_SetOption, this->m_ItemOptionEx, NULL, 0xFF, 0, CURRENT_DB_VERSION);

  067a3	6a 03		 push	 3
  067a5	6a 00		 push	 0
  067a7	68 ff 00 00 00	 push	 255			; 000000ffH
  067ac	6a 00		 push	 0
  067ae	8b 45 fc	 mov	 eax, DWORD PTR _this$[ebp]
  067b1	0f b6 88 ca 00
	00 00		 movzx	 ecx, BYTE PTR [eax+202]
  067b8	51		 push	 ecx
  067b9	8b 55 fc	 mov	 edx, DWORD PTR _this$[ebp]
  067bc	0f b6 82 ae 00
	00 00		 movzx	 eax, BYTE PTR [edx+174]
  067c3	50		 push	 eax
  067c4	8b 4d fc	 mov	 ecx, DWORD PTR _this$[ebp]
  067c7	0f b6 91 97 00
	00 00		 movzx	 edx, BYTE PTR [ecx+151]
  067ce	52		 push	 edx
  067cf	8b 45 fc	 mov	 eax, DWORD PTR _this$[ebp]
  067d2	0f b6 88 96 00
	00 00		 movzx	 ecx, BYTE PTR [eax+150]
  067d9	51		 push	 ecx
  067da	8b 55 fc	 mov	 edx, DWORD PTR _this$[ebp]
  067dd	0f b6 82 95 00
	00 00		 movzx	 eax, BYTE PTR [edx+149]
  067e4	50		 push	 eax
  067e5	8b 4d fc	 mov	 ecx, DWORD PTR _this$[ebp]
  067e8	0f b6 91 94 00
	00 00		 movzx	 edx, BYTE PTR [ecx+148]
  067ef	52		 push	 edx
  067f0	8b 45 fc	 mov	 eax, DWORD PTR _this$[ebp]
  067f3	0f bf 48 06	 movsx	 ecx, WORD PTR [eax+6]
  067f7	51		 push	 ecx
  067f8	8b 4d fc	 mov	 ecx, DWORD PTR _this$[ebp]
  067fb	e8 00 00 00 00	 call	 ?Convert@CItem@@QAEXHEEEEEEPAEEEE@Z ; CItem::Convert

; 3231 : 			this->PetValue();

  06800	8b 4d fc	 mov	 ecx, DWORD PTR _this$[ebp]
  06803	e8 00 00 00 00	 call	 ?PetValue@CItem@@QAEXXZ	; CItem::PetValue

; 3232 : 			
; 3233 : 			return TRUE;

  06808	b8 01 00 00 00	 mov	 eax, 1
  0680d	eb 02		 jmp	 SHORT $LN12@DecPetItem
$LN5@DecPetItem:

; 3234 : 		}
; 3235 : 	}
; 3236 : 
; 3237 : 	return FALSE;

  0680f	33 c0		 xor	 eax, eax
$LN12@DecPetItem:

; 3238 : }

  06811	5f		 pop	 edi
  06812	5e		 pop	 esi
  06813	5b		 pop	 ebx
  06814	8b e5		 mov	 esp, ebp
  06816	5d		 pop	 ebp
  06817	c2 04 00	 ret	 4
?DecPetItemExp@CItem@@QAEHH@Z ENDP			; CItem::DecPetItemExp
_TEXT	ENDS
PUBLIC	?PetItemLevelDown@CItem@@QAEHH@Z		; CItem::PetItemLevelDown
; Function compile flags: /Odtp /ZI
_TEXT	SEGMENT
_petexp$231655 = -20					; size = 4
_petlevel$231654 = -16					; size = 4
_petexp$231647 = -12					; size = 4
_petlevel$231646 = -8					; size = 4
_this$ = -4						; size = 4
_exp$ = 8						; size = 4
?PetItemLevelDown@CItem@@QAEHH@Z PROC			; CItem::PetItemLevelDown
; _this$ = ecx

; 3241 : {

  06820	55		 push	 ebp
  06821	8b ec		 mov	 ebp, esp
  06823	83 ec 54	 sub	 esp, 84			; 00000054H
  06826	53		 push	 ebx
  06827	56		 push	 esi
  06828	57		 push	 edi
  06829	89 4d fc	 mov	 DWORD PTR _this$[ebp], ecx

; 3242 : 	if ( this->m_IsLoadPetItemInfo == FALSE )

  0682c	8b 45 fc	 mov	 eax, DWORD PTR _this$[ebp]
  0682f	83 b8 b8 00 00
	00 00		 cmp	 DWORD PTR [eax+184], 0
  06836	75 07		 jne	 SHORT $LN11@PetItemLev

; 3243 : 	{
; 3244 : 		return FALSE;

  06838	33 c0		 xor	 eax, eax
  0683a	e9 6d 01 00 00	 jmp	 $LN12@PetItemLev
$LN11@PetItemLev:

; 3245 : 	}
; 3246 : 
; 3247 : 	if ( this->m_PetItem_Level < 2 )

  0683f	8b 45 fc	 mov	 eax, DWORD PTR _this$[ebp]
  06842	83 b8 bc 00 00
	00 02		 cmp	 DWORD PTR [eax+188], 2
  06849	7d 07		 jge	 SHORT $LN10@PetItemLev

; 3248 : 	{
; 3249 : 		return FALSE;

  0684b	33 c0		 xor	 eax, eax
  0684d	e9 5a 01 00 00	 jmp	 $LN12@PetItemLev
$LN10@PetItemLev:

; 3250 : 	}
; 3251 : 
; 3252 : 	this->m_PetItem_Exp -= exp;

  06852	8b 45 fc	 mov	 eax, DWORD PTR _this$[ebp]
  06855	8b 88 c0 00 00
	00		 mov	 ecx, DWORD PTR [eax+192]
  0685b	2b 4d 08	 sub	 ecx, DWORD PTR _exp$[ebp]
  0685e	8b 55 fc	 mov	 edx, DWORD PTR _this$[ebp]
  06861	89 8a c0 00 00
	00		 mov	 DWORD PTR [edx+192], ecx

; 3253 : 	this->m_PetItem_Level--;

  06867	8b 45 fc	 mov	 eax, DWORD PTR _this$[ebp]
  0686a	8b 88 bc 00 00
	00		 mov	 ecx, DWORD PTR [eax+188]
  06870	83 e9 01	 sub	 ecx, 1
  06873	8b 55 fc	 mov	 edx, DWORD PTR _this$[ebp]
  06876	89 8a bc 00 00
	00		 mov	 DWORD PTR [edx+188], ecx

; 3254 : 
; 3255 : 	if ( this->m_Type == ITEMGET(13,4) )

  0687c	8b 45 fc	 mov	 eax, DWORD PTR _this$[ebp]
  0687f	0f bf 48 06	 movsx	 ecx, WORD PTR [eax+6]
  06883	81 f9 04 1a 00
	00		 cmp	 ecx, 6660		; 00001a04H
  06889	75 55		 jne	 SHORT $LN9@PetItemLev

; 3256 : 	{
; 3257 : 		int petlevel = this->m_PetItem_Level;

  0688b	8b 45 fc	 mov	 eax, DWORD PTR _this$[ebp]
  0688e	8b 88 bc 00 00
	00		 mov	 ecx, DWORD PTR [eax+188]
  06894	89 4d f8	 mov	 DWORD PTR _petlevel$231646[ebp], ecx

; 3258 : 		int petexp = gPetItemExp.m_DarkHorseExpTable[petlevel];

  06897	8b 45 f8	 mov	 eax, DWORD PTR _petlevel$231646[ebp]
  0689a	8b 0c 85 d0 00
	00 00		 mov	 ecx, DWORD PTR ?gPetItemExp@@3VCPetItemExp@@A[eax*4+208]
  068a1	89 4d f4	 mov	 DWORD PTR _petexp$231647[ebp], ecx
$LN8@PetItemLev:

; 3259 : 
; 3260 : 		while ( this->m_PetItem_Exp <= petexp )

  068a4	8b 45 fc	 mov	 eax, DWORD PTR _this$[ebp]
  068a7	8b 88 c0 00 00
	00		 mov	 ecx, DWORD PTR [eax+192]
  068ad	3b 4d f4	 cmp	 ecx, DWORD PTR _petexp$231647[ebp]
  068b0	7f 20		 jg	 SHORT $LN7@PetItemLev

; 3261 : 		{
; 3262 : 			if ( petlevel <= 1 )

  068b2	83 7d f8 01	 cmp	 DWORD PTR _petlevel$231646[ebp], 1
  068b6	7f 02		 jg	 SHORT $LN6@PetItemLev

; 3263 : 			{
; 3264 : 				break;

  068b8	eb 18		 jmp	 SHORT $LN7@PetItemLev
$LN6@PetItemLev:

; 3265 : 			}
; 3266 : 
; 3267 : 			petlevel--;

  068ba	8b 45 f8	 mov	 eax, DWORD PTR _petlevel$231646[ebp]
  068bd	83 e8 01	 sub	 eax, 1
  068c0	89 45 f8	 mov	 DWORD PTR _petlevel$231646[ebp], eax

; 3268 : 			petexp = gPetItemExp.m_DarkHorseExpTable[petlevel];

  068c3	8b 45 f8	 mov	 eax, DWORD PTR _petlevel$231646[ebp]
  068c6	8b 0c 85 d0 00
	00 00		 mov	 ecx, DWORD PTR ?gPetItemExp@@3VCPetItemExp@@A[eax*4+208]
  068cd	89 4d f4	 mov	 DWORD PTR _petexp$231647[ebp], ecx

; 3269 : 		}

  068d0	eb d2		 jmp	 SHORT $LN8@PetItemLev
$LN7@PetItemLev:

; 3270 : 
; 3271 : 		this->m_PetItem_Level = petlevel;

  068d2	8b 45 fc	 mov	 eax, DWORD PTR _this$[ebp]
  068d5	8b 4d f8	 mov	 ecx, DWORD PTR _petlevel$231646[ebp]
  068d8	89 88 bc 00 00
	00		 mov	 DWORD PTR [eax+188], ecx
  068de	eb 62		 jmp	 SHORT $LN5@PetItemLev
$LN9@PetItemLev:

; 3272 : 	}
; 3273 : 	else if ( this->m_Type == ITEMGET(13,5) )

  068e0	8b 45 fc	 mov	 eax, DWORD PTR _this$[ebp]
  068e3	0f bf 48 06	 movsx	 ecx, WORD PTR [eax+6]
  068e7	81 f9 05 1a 00
	00		 cmp	 ecx, 6661		; 00001a05H
  068ed	75 53		 jne	 SHORT $LN5@PetItemLev

; 3274 : 	{
; 3275 : 		int petlevel = this->m_PetItem_Level;

  068ef	8b 45 fc	 mov	 eax, DWORD PTR _this$[ebp]
  068f2	8b 88 bc 00 00
	00		 mov	 ecx, DWORD PTR [eax+188]
  068f8	89 4d f0	 mov	 DWORD PTR _petlevel$231654[ebp], ecx

; 3276 : 		int petexp = gPetItemExp.m_DarkSpiritExpTable[petlevel];

  068fb	8b 45 f0	 mov	 eax, DWORD PTR _petlevel$231654[ebp]
  068fe	8b 0c 85 00 00
	00 00		 mov	 ecx, DWORD PTR ?gPetItemExp@@3VCPetItemExp@@A[eax*4]
  06905	89 4d ec	 mov	 DWORD PTR _petexp$231655[ebp], ecx
$LN3@PetItemLev:

; 3277 : 
; 3278 : 		while ( this->m_PetItem_Exp <= petexp )

  06908	8b 45 fc	 mov	 eax, DWORD PTR _this$[ebp]
  0690b	8b 88 c0 00 00
	00		 mov	 ecx, DWORD PTR [eax+192]
  06911	3b 4d ec	 cmp	 ecx, DWORD PTR _petexp$231655[ebp]
  06914	7f 20		 jg	 SHORT $LN2@PetItemLev

; 3279 : 		{
; 3280 : 			if ( petlevel <= 1 )

  06916	83 7d f0 01	 cmp	 DWORD PTR _petlevel$231654[ebp], 1
  0691a	7f 02		 jg	 SHORT $LN1@PetItemLev

; 3281 : 			{
; 3282 : 				break;

  0691c	eb 18		 jmp	 SHORT $LN2@PetItemLev
$LN1@PetItemLev:

; 3283 : 			}
; 3284 : 
; 3285 : 			petlevel--;

  0691e	8b 45 f0	 mov	 eax, DWORD PTR _petlevel$231654[ebp]
  06921	83 e8 01	 sub	 eax, 1
  06924	89 45 f0	 mov	 DWORD PTR _petlevel$231654[ebp], eax

; 3286 : 			petexp = gPetItemExp.m_DarkSpiritExpTable[petlevel];

  06927	8b 45 f0	 mov	 eax, DWORD PTR _petlevel$231654[ebp]
  0692a	8b 0c 85 00 00
	00 00		 mov	 ecx, DWORD PTR ?gPetItemExp@@3VCPetItemExp@@A[eax*4]
  06931	89 4d ec	 mov	 DWORD PTR _petexp$231655[ebp], ecx

; 3287 : 		}

  06934	eb d2		 jmp	 SHORT $LN3@PetItemLev
$LN2@PetItemLev:

; 3288 : 
; 3289 : 		this->m_PetItem_Level = petlevel;

  06936	8b 45 fc	 mov	 eax, DWORD PTR _this$[ebp]
  06939	8b 4d f0	 mov	 ecx, DWORD PTR _petlevel$231654[ebp]
  0693c	89 88 bc 00 00
	00		 mov	 DWORD PTR [eax+188], ecx
$LN5@PetItemLev:

; 3290 : 	}
; 3291 : 
; 3292 : 	this->Convert(this->m_Type, this->m_Option1, this->m_Option2,
; 3293 : 		this->m_Option3, this->m_NewOption, this->m_SetOption, this->m_ItemOptionEx, NULL, 0xFF, 0, CURRENT_DB_VERSION);

  06942	6a 03		 push	 3
  06944	6a 00		 push	 0
  06946	68 ff 00 00 00	 push	 255			; 000000ffH
  0694b	6a 00		 push	 0
  0694d	8b 45 fc	 mov	 eax, DWORD PTR _this$[ebp]
  06950	0f b6 88 ca 00
	00 00		 movzx	 ecx, BYTE PTR [eax+202]
  06957	51		 push	 ecx
  06958	8b 55 fc	 mov	 edx, DWORD PTR _this$[ebp]
  0695b	0f b6 82 ae 00
	00 00		 movzx	 eax, BYTE PTR [edx+174]
  06962	50		 push	 eax
  06963	8b 4d fc	 mov	 ecx, DWORD PTR _this$[ebp]
  06966	0f b6 91 97 00
	00 00		 movzx	 edx, BYTE PTR [ecx+151]
  0696d	52		 push	 edx
  0696e	8b 45 fc	 mov	 eax, DWORD PTR _this$[ebp]
  06971	0f b6 88 96 00
	00 00		 movzx	 ecx, BYTE PTR [eax+150]
  06978	51		 push	 ecx
  06979	8b 55 fc	 mov	 edx, DWORD PTR _this$[ebp]
  0697c	0f b6 82 95 00
	00 00		 movzx	 eax, BYTE PTR [edx+149]
  06983	50		 push	 eax
  06984	8b 4d fc	 mov	 ecx, DWORD PTR _this$[ebp]
  06987	0f b6 91 94 00
	00 00		 movzx	 edx, BYTE PTR [ecx+148]
  0698e	52		 push	 edx
  0698f	8b 45 fc	 mov	 eax, DWORD PTR _this$[ebp]
  06992	0f bf 48 06	 movsx	 ecx, WORD PTR [eax+6]
  06996	51		 push	 ecx
  06997	8b 4d fc	 mov	 ecx, DWORD PTR _this$[ebp]
  0699a	e8 00 00 00 00	 call	 ?Convert@CItem@@QAEXHEEEEEEPAEEEE@Z ; CItem::Convert

; 3294 : 	this->PetValue();

  0699f	8b 4d fc	 mov	 ecx, DWORD PTR _this$[ebp]
  069a2	e8 00 00 00 00	 call	 ?PetValue@CItem@@QAEXXZ	; CItem::PetValue

; 3295 : 
; 3296 : 	return TRUE;

  069a7	b8 01 00 00 00	 mov	 eax, 1
$LN12@PetItemLev:

; 3297 : }

  069ac	5f		 pop	 edi
  069ad	5e		 pop	 esi
  069ae	5b		 pop	 ebx
  069af	8b e5		 mov	 esp, ebp
  069b1	5d		 pop	 ebp
  069b2	c2 04 00	 ret	 4
?PetItemLevelDown@CItem@@QAEHH@Z ENDP			; CItem::PetItemLevelDown
; Function compile flags: /Odtp /ZI
_this$ = -4						; size = 4
?PetValue@CItem@@QAEXXZ PROC				; CItem::PetValue
; _this$ = ecx

; 3300 : {

  069c0	55		 push	 ebp
  069c1	8b ec		 mov	 ebp, esp
  069c3	83 ec 44	 sub	 esp, 68			; 00000044H
  069c6	53		 push	 ebx
  069c7	56		 push	 esi
  069c8	57		 push	 edi
  069c9	89 4d fc	 mov	 DWORD PTR _this$[ebp], ecx

; 3301 : 	if ( this->m_Type == ITEMGET(13,4) )

  069cc	8b 45 fc	 mov	 eax, DWORD PTR _this$[ebp]
  069cf	0f bf 48 06	 movsx	 ecx, WORD PTR [eax+6]
  069d3	81 f9 04 1a 00
	00		 cmp	 ecx, 6660		; 00001a04H
  069d9	75 17		 jne	 SHORT $LN9@PetValue

; 3302 : 	{
; 3303 : 		this->m_SellMoney = this->m_PetItem_Level * 2000000;

  069db	8b 45 fc	 mov	 eax, DWORD PTR _this$[ebp]
  069de	8b 88 bc 00 00
	00		 mov	 ecx, DWORD PTR [eax+188]
  069e4	69 c9 80 84 1e
	00		 imul	 ecx, 2000000		; 001e8480H
  069ea	8b 55 fc	 mov	 edx, DWORD PTR _this$[ebp]
  069ed	89 4a 6c	 mov	 DWORD PTR [edx+108], ecx
  069f0	eb 24		 jmp	 SHORT $LN8@PetValue
$LN9@PetValue:

; 3304 : 	}
; 3305 : 	else if ( this->m_Type == ITEMGET(13,5) )

  069f2	8b 45 fc	 mov	 eax, DWORD PTR _this$[ebp]
  069f5	0f bf 48 06	 movsx	 ecx, WORD PTR [eax+6]
  069f9	81 f9 05 1a 00
	00		 cmp	 ecx, 6661		; 00001a05H
  069ff	75 15		 jne	 SHORT $LN8@PetValue

; 3306 : 	{
; 3307 : 		this->m_SellMoney = this->m_PetItem_Level * 1000000;

  06a01	8b 45 fc	 mov	 eax, DWORD PTR _this$[ebp]
  06a04	8b 88 bc 00 00
	00		 mov	 ecx, DWORD PTR [eax+188]
  06a0a	69 c9 40 42 0f
	00		 imul	 ecx, 1000000		; 000f4240H
  06a10	8b 55 fc	 mov	 edx, DWORD PTR _this$[ebp]
  06a13	89 4a 6c	 mov	 DWORD PTR [edx+108], ecx
$LN8@PetValue:

; 3308 : 	}	
; 3309 : 
; 3310 : 	this->m_BuyMoney = this->m_SellMoney;

  06a16	8b 45 fc	 mov	 eax, DWORD PTR _this$[ebp]
  06a19	8b 4d fc	 mov	 ecx, DWORD PTR _this$[ebp]
  06a1c	8b 51 6c	 mov	 edx, DWORD PTR [ecx+108]
  06a1f	89 50 70	 mov	 DWORD PTR [eax+112], edx

; 3311 : 	this->m_SellMoney /= 3;

  06a22	8b 45 fc	 mov	 eax, DWORD PTR _this$[ebp]
  06a25	8b 40 6c	 mov	 eax, DWORD PTR [eax+108]
  06a28	33 d2		 xor	 edx, edx
  06a2a	b9 03 00 00 00	 mov	 ecx, 3
  06a2f	f7 f1		 div	 ecx
  06a31	8b 55 fc	 mov	 edx, DWORD PTR _this$[ebp]
  06a34	89 42 6c	 mov	 DWORD PTR [edx+108], eax

; 3312 : 
; 3313 : 	if ( this->m_SellMoney >= 1000 )

  06a37	8b 45 fc	 mov	 eax, DWORD PTR _this$[ebp]
  06a3a	81 78 6c e8 03
	00 00		 cmp	 DWORD PTR [eax+108], 1000 ; 000003e8H
  06a41	72 1a		 jb	 SHORT $LN6@PetValue

; 3314 : 	{
; 3315 : 		this->m_SellMoney = this->m_SellMoney / 100 * 100;

  06a43	8b 45 fc	 mov	 eax, DWORD PTR _this$[ebp]
  06a46	8b 40 6c	 mov	 eax, DWORD PTR [eax+108]
  06a49	33 d2		 xor	 edx, edx
  06a4b	b9 64 00 00 00	 mov	 ecx, 100		; 00000064H
  06a50	f7 f1		 div	 ecx
  06a52	6b c0 64	 imul	 eax, 100		; 00000064H
  06a55	8b 55 fc	 mov	 edx, DWORD PTR _this$[ebp]
  06a58	89 42 6c	 mov	 DWORD PTR [edx+108], eax
  06a5b	eb 21		 jmp	 SHORT $LN5@PetValue
$LN6@PetValue:

; 3316 : 	}
; 3317 : 	else if ( this->m_SellMoney >= 100 )

  06a5d	8b 45 fc	 mov	 eax, DWORD PTR _this$[ebp]
  06a60	83 78 6c 64	 cmp	 DWORD PTR [eax+108], 100 ; 00000064H
  06a64	72 18		 jb	 SHORT $LN5@PetValue

; 3318 : 	{
; 3319 : 		this->m_SellMoney = this->m_SellMoney / 10 * 10;

  06a66	8b 45 fc	 mov	 eax, DWORD PTR _this$[ebp]
  06a69	8b 40 6c	 mov	 eax, DWORD PTR [eax+108]
  06a6c	33 d2		 xor	 edx, edx
  06a6e	b9 0a 00 00 00	 mov	 ecx, 10			; 0000000aH
  06a73	f7 f1		 div	 ecx
  06a75	6b c0 0a	 imul	 eax, 10			; 0000000aH
  06a78	8b 55 fc	 mov	 edx, DWORD PTR _this$[ebp]
  06a7b	89 42 6c	 mov	 DWORD PTR [edx+108], eax
$LN5@PetValue:

; 3320 : 	}
; 3321 : 
; 3322 : 	if ( this->m_BuyMoney >= 1000 )

  06a7e	8b 45 fc	 mov	 eax, DWORD PTR _this$[ebp]
  06a81	81 78 70 e8 03
	00 00		 cmp	 DWORD PTR [eax+112], 1000 ; 000003e8H
  06a88	72 1a		 jb	 SHORT $LN3@PetValue

; 3323 : 	{
; 3324 : 		this->m_BuyMoney = this->m_BuyMoney / 100 * 100;

  06a8a	8b 45 fc	 mov	 eax, DWORD PTR _this$[ebp]
  06a8d	8b 40 70	 mov	 eax, DWORD PTR [eax+112]
  06a90	33 d2		 xor	 edx, edx
  06a92	b9 64 00 00 00	 mov	 ecx, 100		; 00000064H
  06a97	f7 f1		 div	 ecx
  06a99	6b c0 64	 imul	 eax, 100		; 00000064H
  06a9c	8b 55 fc	 mov	 edx, DWORD PTR _this$[ebp]
  06a9f	89 42 70	 mov	 DWORD PTR [edx+112], eax
  06aa2	eb 21		 jmp	 SHORT $LN10@PetValue
$LN3@PetValue:

; 3325 : 	}
; 3326 : 	else if ( this->m_BuyMoney >= 100 )

  06aa4	8b 45 fc	 mov	 eax, DWORD PTR _this$[ebp]
  06aa7	83 78 70 64	 cmp	 DWORD PTR [eax+112], 100 ; 00000064H
  06aab	72 18		 jb	 SHORT $LN10@PetValue

; 3327 : 	{
; 3328 : 		this->m_BuyMoney = this->m_BuyMoney / 10 * 10;

  06aad	8b 45 fc	 mov	 eax, DWORD PTR _this$[ebp]
  06ab0	8b 40 70	 mov	 eax, DWORD PTR [eax+112]
  06ab3	33 d2		 xor	 edx, edx
  06ab5	b9 0a 00 00 00	 mov	 ecx, 10			; 0000000aH
  06aba	f7 f1		 div	 ecx
  06abc	6b c0 0a	 imul	 eax, 10			; 0000000aH
  06abf	8b 55 fc	 mov	 edx, DWORD PTR _this$[ebp]
  06ac2	89 42 70	 mov	 DWORD PTR [edx+112], eax
$LN10@PetValue:

; 3329 : 	}
; 3330 : }

  06ac5	5f		 pop	 edi
  06ac6	5e		 pop	 esi
  06ac7	5b		 pop	 ebx
  06ac8	8b e5		 mov	 esp, ebp
  06aca	5d		 pop	 ebp
  06acb	c3		 ret	 0
?PetValue@CItem@@QAEXXZ ENDP				; CItem::PetValue
_TEXT	ENDS
PUBLIC	?IsExtItem@CItem@@QAEHXZ			; CItem::IsExtItem
; Function compile flags: /Odtp /ZI
_TEXT	SEGMENT
_this$ = -4						; size = 4
?IsExtItem@CItem@@QAEHXZ PROC				; CItem::IsExtItem
; _this$ = ecx

; 3333 : {

  06ad0	55		 push	 ebp
  06ad1	8b ec		 mov	 ebp, esp
  06ad3	83 ec 44	 sub	 esp, 68			; 00000044H
  06ad6	53		 push	 ebx
  06ad7	56		 push	 esi
  06ad8	57		 push	 edi
  06ad9	89 4d fc	 mov	 DWORD PTR _this$[ebp], ecx

; 3334 : 	if ( this->m_Type == ITEMGET(13,37) )

  06adc	8b 45 fc	 mov	 eax, DWORD PTR _this$[ebp]
  06adf	0f bf 48 06	 movsx	 ecx, WORD PTR [eax+6]
  06ae3	81 f9 25 1a 00
	00		 cmp	 ecx, 6693		; 00001a25H
  06ae9	75 04		 jne	 SHORT $LN2@IsExtItem

; 3335 : 	{
; 3336 : 		return FALSE;

  06aeb	33 c0		 xor	 eax, eax
  06aed	eb 18		 jmp	 SHORT $LN3@IsExtItem
$LN2@IsExtItem:

; 3337 : 	}
; 3338 : 
; 3339 : 	if ( (this->m_NewOption & 0x7F)!= 0 )

  06aef	8b 45 fc	 mov	 eax, DWORD PTR _this$[ebp]
  06af2	0f b6 88 97 00
	00 00		 movzx	 ecx, BYTE PTR [eax+151]
  06af9	83 e1 7f	 and	 ecx, 127		; 0000007fH
  06afc	74 07		 je	 SHORT $LN1@IsExtItem

; 3340 : 	{
; 3341 : 		return TRUE;

  06afe	b8 01 00 00 00	 mov	 eax, 1
  06b03	eb 02		 jmp	 SHORT $LN3@IsExtItem
$LN1@IsExtItem:

; 3342 : 	}
; 3343 : 
; 3344 : 	return FALSE;

  06b05	33 c0		 xor	 eax, eax
$LN3@IsExtItem:

; 3345 : }

  06b07	5f		 pop	 edi
  06b08	5e		 pop	 esi
  06b09	5b		 pop	 ebx
  06b0a	8b e5		 mov	 esp, ebp
  06b0c	5d		 pop	 ebp
  06b0d	c3		 ret	 0
?IsExtItem@CItem@@QAEHXZ ENDP				; CItem::IsExtItem
_TEXT	ENDS
PUBLIC	?IsExtLifeAdd@CItem@@QAEHXZ			; CItem::IsExtLifeAdd
EXTRN	?GetRankValueOption@ItemRank@@QAEHHE@Z:PROC	; ItemRank::GetRankValueOption
EXTRN	?IsRankItem@ItemRank@@QAEHGE@Z:PROC		; ItemRank::IsRankItem
EXTRN	?g_ItemRank@@3VItemRank@@A:BYTE			; g_ItemRank
; Function compile flags: /Odtp /ZI
_TEXT	SEGMENT
_iRankValue$231683 = -12				; size = 4
_iRankID$231681 = -8					; size = 4
_this$ = -4						; size = 4
?IsExtLifeAdd@CItem@@QAEHXZ PROC			; CItem::IsExtLifeAdd
; _this$ = ecx

; 3348 : {

  06b10	55		 push	 ebp
  06b11	8b ec		 mov	 ebp, esp
  06b13	83 ec 4c	 sub	 esp, 76			; 0000004cH
  06b16	53		 push	 ebx
  06b17	56		 push	 esi
  06b18	57		 push	 edi
  06b19	89 4d fc	 mov	 DWORD PTR _this$[ebp], ecx

; 3349 : 	if ( (this->m_NewOption & 0x20) == 32 )

  06b1c	8b 45 fc	 mov	 eax, DWORD PTR _this$[ebp]
  06b1f	0f b6 88 97 00
	00 00		 movzx	 ecx, BYTE PTR [eax+151]
  06b26	83 e1 20	 and	 ecx, 32			; 00000020H
  06b29	74 48		 je	 SHORT $LN3@IsExtLifeA

; 3350 : 	{
; 3351 : #if(CUSTOM_ITEM_RANK==TRUE)
; 3352 : 		int iRankID = g_ItemRank.IsRankItem(this->m_Type, this->m_Level);

  06b2b	8b 45 fc	 mov	 eax, DWORD PTR _this$[ebp]
  06b2e	0f b6 48 08	 movzx	 ecx, BYTE PTR [eax+8]
  06b32	51		 push	 ecx
  06b33	8b 55 fc	 mov	 edx, DWORD PTR _this$[ebp]
  06b36	0f b7 42 06	 movzx	 eax, WORD PTR [edx+6]
  06b3a	50		 push	 eax
  06b3b	b9 00 00 00 00	 mov	 ecx, OFFSET ?g_ItemRank@@3VItemRank@@A ; g_ItemRank
  06b40	e8 00 00 00 00	 call	 ?IsRankItem@ItemRank@@QAEHGE@Z ; ItemRank::IsRankItem
  06b45	89 45 f8	 mov	 DWORD PTR _iRankID$231681[ebp], eax

; 3353 : 		if(iRankID >= 0)

  06b48	83 7d f8 00	 cmp	 DWORD PTR _iRankID$231681[ebp], 0
  06b4c	7c 1e		 jl	 SHORT $LN2@IsExtLifeA

; 3354 : 		{
; 3355 : 			int iRankValue = g_ItemRank.GetRankValueOption(iRankID, 0);

  06b4e	6a 00		 push	 0
  06b50	8b 45 f8	 mov	 eax, DWORD PTR _iRankID$231681[ebp]
  06b53	50		 push	 eax
  06b54	b9 00 00 00 00	 mov	 ecx, OFFSET ?g_ItemRank@@3VItemRank@@A ; g_ItemRank
  06b59	e8 00 00 00 00	 call	 ?GetRankValueOption@ItemRank@@QAEHHE@Z ; ItemRank::GetRankValueOption
  06b5e	89 45 f4	 mov	 DWORD PTR _iRankValue$231683[ebp], eax

; 3356 : 			if(iRankValue != -1)

  06b61	83 7d f4 ff	 cmp	 DWORD PTR _iRankValue$231683[ebp], -1
  06b65	74 05		 je	 SHORT $LN2@IsExtLifeA

; 3357 : 			{
; 3358 : 				return iRankValue;

  06b67	8b 45 f4	 mov	 eax, DWORD PTR _iRankValue$231683[ebp]
  06b6a	eb 09		 jmp	 SHORT $LN4@IsExtLifeA
$LN2@IsExtLifeA:

; 3359 : 			}
; 3360 : 		}
; 3361 : #endif
; 3362 : 		return 4;

  06b6c	b8 04 00 00 00	 mov	 eax, 4
  06b71	eb 02		 jmp	 SHORT $LN4@IsExtLifeA
$LN3@IsExtLifeA:

; 3363 : 	}
; 3364 : 
; 3365 : 	return 0;

  06b73	33 c0		 xor	 eax, eax
$LN4@IsExtLifeA:

; 3366 : }

  06b75	5f		 pop	 edi
  06b76	5e		 pop	 esi
  06b77	5b		 pop	 ebx
  06b78	8b e5		 mov	 esp, ebp
  06b7a	5d		 pop	 ebp
  06b7b	c3		 ret	 0
?IsExtLifeAdd@CItem@@QAEHXZ ENDP			; CItem::IsExtLifeAdd
_TEXT	ENDS
PUBLIC	?IsExtManaAdd@CItem@@QAEHXZ			; CItem::IsExtManaAdd
; Function compile flags: /Odtp /ZI
_TEXT	SEGMENT
_iRankValue$231691 = -12				; size = 4
_iRankID$231689 = -8					; size = 4
_this$ = -4						; size = 4
?IsExtManaAdd@CItem@@QAEHXZ PROC			; CItem::IsExtManaAdd
; _this$ = ecx

; 3369 : {

  06b80	55		 push	 ebp
  06b81	8b ec		 mov	 ebp, esp
  06b83	83 ec 4c	 sub	 esp, 76			; 0000004cH
  06b86	53		 push	 ebx
  06b87	56		 push	 esi
  06b88	57		 push	 edi
  06b89	89 4d fc	 mov	 DWORD PTR _this$[ebp], ecx

; 3370 : 	if ( (this->m_NewOption & 0x10) == 16 )

  06b8c	8b 45 fc	 mov	 eax, DWORD PTR _this$[ebp]
  06b8f	0f b6 88 97 00
	00 00		 movzx	 ecx, BYTE PTR [eax+151]
  06b96	83 e1 10	 and	 ecx, 16			; 00000010H
  06b99	74 48		 je	 SHORT $LN3@IsExtManaA

; 3371 : 	{
; 3372 : #if(CUSTOM_ITEM_RANK==TRUE)
; 3373 : 		int iRankID = g_ItemRank.IsRankItem(this->m_Type, this->m_Level);

  06b9b	8b 45 fc	 mov	 eax, DWORD PTR _this$[ebp]
  06b9e	0f b6 48 08	 movzx	 ecx, BYTE PTR [eax+8]
  06ba2	51		 push	 ecx
  06ba3	8b 55 fc	 mov	 edx, DWORD PTR _this$[ebp]
  06ba6	0f b7 42 06	 movzx	 eax, WORD PTR [edx+6]
  06baa	50		 push	 eax
  06bab	b9 00 00 00 00	 mov	 ecx, OFFSET ?g_ItemRank@@3VItemRank@@A ; g_ItemRank
  06bb0	e8 00 00 00 00	 call	 ?IsRankItem@ItemRank@@QAEHGE@Z ; ItemRank::IsRankItem
  06bb5	89 45 f8	 mov	 DWORD PTR _iRankID$231689[ebp], eax

; 3374 : 		if(iRankID >= 0)

  06bb8	83 7d f8 00	 cmp	 DWORD PTR _iRankID$231689[ebp], 0
  06bbc	7c 1e		 jl	 SHORT $LN2@IsExtManaA

; 3375 : 		{
; 3376 : 			int iRankValue = g_ItemRank.GetRankValueOption(iRankID, 1);

  06bbe	6a 01		 push	 1
  06bc0	8b 45 f8	 mov	 eax, DWORD PTR _iRankID$231689[ebp]
  06bc3	50		 push	 eax
  06bc4	b9 00 00 00 00	 mov	 ecx, OFFSET ?g_ItemRank@@3VItemRank@@A ; g_ItemRank
  06bc9	e8 00 00 00 00	 call	 ?GetRankValueOption@ItemRank@@QAEHHE@Z ; ItemRank::GetRankValueOption
  06bce	89 45 f4	 mov	 DWORD PTR _iRankValue$231691[ebp], eax

; 3377 : 			if(iRankValue != -1)

  06bd1	83 7d f4 ff	 cmp	 DWORD PTR _iRankValue$231691[ebp], -1
  06bd5	74 05		 je	 SHORT $LN2@IsExtManaA

; 3378 : 			{
; 3379 : 				return iRankValue;

  06bd7	8b 45 f4	 mov	 eax, DWORD PTR _iRankValue$231691[ebp]
  06bda	eb 09		 jmp	 SHORT $LN4@IsExtManaA
$LN2@IsExtManaA:

; 3380 : 			}
; 3381 : 		}
; 3382 : #endif
; 3383 : 		return 4;

  06bdc	b8 04 00 00 00	 mov	 eax, 4
  06be1	eb 02		 jmp	 SHORT $LN4@IsExtManaA
$LN3@IsExtManaA:

; 3384 : 	}
; 3385 : 
; 3386 : 	return 0;

  06be3	33 c0		 xor	 eax, eax
$LN4@IsExtManaA:

; 3387 : }

  06be5	5f		 pop	 edi
  06be6	5e		 pop	 esi
  06be7	5b		 pop	 ebx
  06be8	8b e5		 mov	 esp, ebp
  06bea	5d		 pop	 ebp
  06beb	c3		 ret	 0
?IsExtManaAdd@CItem@@QAEHXZ ENDP			; CItem::IsExtManaAdd
_TEXT	ENDS
PUBLIC	?IsExtDamageMinus@CItem@@QAEHXZ			; CItem::IsExtDamageMinus
; Function compile flags: /Odtp /ZI
_TEXT	SEGMENT
_iRankValue$231699 = -12				; size = 4
_iRankID$231697 = -8					; size = 4
_this$ = -4						; size = 4
?IsExtDamageMinus@CItem@@QAEHXZ PROC			; CItem::IsExtDamageMinus
; _this$ = ecx

; 3390 : {

  06bf0	55		 push	 ebp
  06bf1	8b ec		 mov	 ebp, esp
  06bf3	83 ec 4c	 sub	 esp, 76			; 0000004cH
  06bf6	53		 push	 ebx
  06bf7	56		 push	 esi
  06bf8	57		 push	 edi
  06bf9	89 4d fc	 mov	 DWORD PTR _this$[ebp], ecx

; 3391 : 	if ( (this->m_NewOption & 8) == 8 )

  06bfc	8b 45 fc	 mov	 eax, DWORD PTR _this$[ebp]
  06bff	0f b6 88 97 00
	00 00		 movzx	 ecx, BYTE PTR [eax+151]
  06c06	83 e1 08	 and	 ecx, 8
  06c09	74 48		 je	 SHORT $LN3@IsExtDamag

; 3392 : 	{
; 3393 : #if(CUSTOM_ITEM_RANK==TRUE)
; 3394 : 		int iRankID = g_ItemRank.IsRankItem(this->m_Type, this->m_Level);

  06c0b	8b 45 fc	 mov	 eax, DWORD PTR _this$[ebp]
  06c0e	0f b6 48 08	 movzx	 ecx, BYTE PTR [eax+8]
  06c12	51		 push	 ecx
  06c13	8b 55 fc	 mov	 edx, DWORD PTR _this$[ebp]
  06c16	0f b7 42 06	 movzx	 eax, WORD PTR [edx+6]
  06c1a	50		 push	 eax
  06c1b	b9 00 00 00 00	 mov	 ecx, OFFSET ?g_ItemRank@@3VItemRank@@A ; g_ItemRank
  06c20	e8 00 00 00 00	 call	 ?IsRankItem@ItemRank@@QAEHGE@Z ; ItemRank::IsRankItem
  06c25	89 45 f8	 mov	 DWORD PTR _iRankID$231697[ebp], eax

; 3395 : 		if(iRankID >= 0)

  06c28	83 7d f8 00	 cmp	 DWORD PTR _iRankID$231697[ebp], 0
  06c2c	7c 1e		 jl	 SHORT $LN2@IsExtDamag

; 3396 : 		{
; 3397 : 			int iRankValue = g_ItemRank.GetRankValueOption(iRankID, 2);

  06c2e	6a 02		 push	 2
  06c30	8b 45 f8	 mov	 eax, DWORD PTR _iRankID$231697[ebp]
  06c33	50		 push	 eax
  06c34	b9 00 00 00 00	 mov	 ecx, OFFSET ?g_ItemRank@@3VItemRank@@A ; g_ItemRank
  06c39	e8 00 00 00 00	 call	 ?GetRankValueOption@ItemRank@@QAEHHE@Z ; ItemRank::GetRankValueOption
  06c3e	89 45 f4	 mov	 DWORD PTR _iRankValue$231699[ebp], eax

; 3398 : 			if(iRankValue != -1)

  06c41	83 7d f4 ff	 cmp	 DWORD PTR _iRankValue$231699[ebp], -1
  06c45	74 05		 je	 SHORT $LN2@IsExtDamag

; 3399 : 			{
; 3400 : 				return iRankValue;

  06c47	8b 45 f4	 mov	 eax, DWORD PTR _iRankValue$231699[ebp]
  06c4a	eb 09		 jmp	 SHORT $LN4@IsExtDamag
$LN2@IsExtDamag:

; 3401 : 			}
; 3402 : 		}
; 3403 : #endif
; 3404 : 		return 4;

  06c4c	b8 04 00 00 00	 mov	 eax, 4
  06c51	eb 02		 jmp	 SHORT $LN4@IsExtDamag
$LN3@IsExtDamag:

; 3405 : 	}
; 3406 : 
; 3407 : 	return 0;

  06c53	33 c0		 xor	 eax, eax
$LN4@IsExtDamag:

; 3408 : }

  06c55	5f		 pop	 edi
  06c56	5e		 pop	 esi
  06c57	5b		 pop	 ebx
  06c58	8b e5		 mov	 esp, ebp
  06c5a	5d		 pop	 ebp
  06c5b	c3		 ret	 0
?IsExtDamageMinus@CItem@@QAEHXZ ENDP			; CItem::IsExtDamageMinus
_TEXT	ENDS
PUBLIC	?IsExtDamageReflect@CItem@@QAEHXZ		; CItem::IsExtDamageReflect
; Function compile flags: /Odtp /ZI
_TEXT	SEGMENT
_iRankValue$231707 = -12				; size = 4
_iRankID$231705 = -8					; size = 4
_this$ = -4						; size = 4
?IsExtDamageReflect@CItem@@QAEHXZ PROC			; CItem::IsExtDamageReflect
; _this$ = ecx

; 3411 : {

  06c60	55		 push	 ebp
  06c61	8b ec		 mov	 ebp, esp
  06c63	83 ec 4c	 sub	 esp, 76			; 0000004cH
  06c66	53		 push	 ebx
  06c67	56		 push	 esi
  06c68	57		 push	 edi
  06c69	89 4d fc	 mov	 DWORD PTR _this$[ebp], ecx

; 3412 : 	if ( (this->m_NewOption & 4) == 4 )

  06c6c	8b 45 fc	 mov	 eax, DWORD PTR _this$[ebp]
  06c6f	0f b6 88 97 00
	00 00		 movzx	 ecx, BYTE PTR [eax+151]
  06c76	83 e1 04	 and	 ecx, 4
  06c79	74 48		 je	 SHORT $LN3@IsExtDamag@2

; 3413 : 	{
; 3414 : #if(CUSTOM_ITEM_RANK==TRUE)
; 3415 : 		int iRankID = g_ItemRank.IsRankItem(this->m_Type, this->m_Level);

  06c7b	8b 45 fc	 mov	 eax, DWORD PTR _this$[ebp]
  06c7e	0f b6 48 08	 movzx	 ecx, BYTE PTR [eax+8]
  06c82	51		 push	 ecx
  06c83	8b 55 fc	 mov	 edx, DWORD PTR _this$[ebp]
  06c86	0f b7 42 06	 movzx	 eax, WORD PTR [edx+6]
  06c8a	50		 push	 eax
  06c8b	b9 00 00 00 00	 mov	 ecx, OFFSET ?g_ItemRank@@3VItemRank@@A ; g_ItemRank
  06c90	e8 00 00 00 00	 call	 ?IsRankItem@ItemRank@@QAEHGE@Z ; ItemRank::IsRankItem
  06c95	89 45 f8	 mov	 DWORD PTR _iRankID$231705[ebp], eax

; 3416 : 		if(iRankID >= 0)

  06c98	83 7d f8 00	 cmp	 DWORD PTR _iRankID$231705[ebp], 0
  06c9c	7c 1e		 jl	 SHORT $LN2@IsExtDamag@2

; 3417 : 		{
; 3418 : 			int iRankValue = g_ItemRank.GetRankValueOption(iRankID, 3);

  06c9e	6a 03		 push	 3
  06ca0	8b 45 f8	 mov	 eax, DWORD PTR _iRankID$231705[ebp]
  06ca3	50		 push	 eax
  06ca4	b9 00 00 00 00	 mov	 ecx, OFFSET ?g_ItemRank@@3VItemRank@@A ; g_ItemRank
  06ca9	e8 00 00 00 00	 call	 ?GetRankValueOption@ItemRank@@QAEHHE@Z ; ItemRank::GetRankValueOption
  06cae	89 45 f4	 mov	 DWORD PTR _iRankValue$231707[ebp], eax

; 3419 : 			if(iRankValue != -1)

  06cb1	83 7d f4 ff	 cmp	 DWORD PTR _iRankValue$231707[ebp], -1
  06cb5	74 05		 je	 SHORT $LN2@IsExtDamag@2

; 3420 : 			{
; 3421 : 				return iRankValue;

  06cb7	8b 45 f4	 mov	 eax, DWORD PTR _iRankValue$231707[ebp]
  06cba	eb 09		 jmp	 SHORT $LN4@IsExtDamag@2
$LN2@IsExtDamag@2:

; 3422 : 			}
; 3423 : 		}
; 3424 : #endif
; 3425 : 		return 5;

  06cbc	b8 05 00 00 00	 mov	 eax, 5
  06cc1	eb 02		 jmp	 SHORT $LN4@IsExtDamag@2
$LN3@IsExtDamag@2:

; 3426 : 	}
; 3427 : 
; 3428 : 	return 0;

  06cc3	33 c0		 xor	 eax, eax
$LN4@IsExtDamag@2:

; 3429 : }

  06cc5	5f		 pop	 edi
  06cc6	5e		 pop	 esi
  06cc7	5b		 pop	 ebx
  06cc8	8b e5		 mov	 esp, ebp
  06cca	5d		 pop	 ebp
  06ccb	c3		 ret	 0
?IsExtDamageReflect@CItem@@QAEHXZ ENDP			; CItem::IsExtDamageReflect
_TEXT	ENDS
PUBLIC	?IsExtDefenseSuccessfull@CItem@@QAEHXZ		; CItem::IsExtDefenseSuccessfull
; Function compile flags: /Odtp /ZI
_TEXT	SEGMENT
_iRankValue$231715 = -12				; size = 4
_iRankID$231713 = -8					; size = 4
_this$ = -4						; size = 4
?IsExtDefenseSuccessfull@CItem@@QAEHXZ PROC		; CItem::IsExtDefenseSuccessfull
; _this$ = ecx

; 3433 : {

  06cd0	55		 push	 ebp
  06cd1	8b ec		 mov	 ebp, esp
  06cd3	83 ec 4c	 sub	 esp, 76			; 0000004cH
  06cd6	53		 push	 ebx
  06cd7	56		 push	 esi
  06cd8	57		 push	 edi
  06cd9	89 4d fc	 mov	 DWORD PTR _this$[ebp], ecx

; 3434 : 	if ( (this->m_NewOption & 2) == 2 )

  06cdc	8b 45 fc	 mov	 eax, DWORD PTR _this$[ebp]
  06cdf	0f b6 88 97 00
	00 00		 movzx	 ecx, BYTE PTR [eax+151]
  06ce6	83 e1 02	 and	 ecx, 2
  06ce9	74 48		 je	 SHORT $LN3@IsExtDefen

; 3435 : 	{
; 3436 : #if(CUSTOM_ITEM_RANK==TRUE)
; 3437 : 		int iRankID = g_ItemRank.IsRankItem(this->m_Type, this->m_Level);

  06ceb	8b 45 fc	 mov	 eax, DWORD PTR _this$[ebp]
  06cee	0f b6 48 08	 movzx	 ecx, BYTE PTR [eax+8]
  06cf2	51		 push	 ecx
  06cf3	8b 55 fc	 mov	 edx, DWORD PTR _this$[ebp]
  06cf6	0f b7 42 06	 movzx	 eax, WORD PTR [edx+6]
  06cfa	50		 push	 eax
  06cfb	b9 00 00 00 00	 mov	 ecx, OFFSET ?g_ItemRank@@3VItemRank@@A ; g_ItemRank
  06d00	e8 00 00 00 00	 call	 ?IsRankItem@ItemRank@@QAEHGE@Z ; ItemRank::IsRankItem
  06d05	89 45 f8	 mov	 DWORD PTR _iRankID$231713[ebp], eax

; 3438 : 		if(iRankID >= 0)

  06d08	83 7d f8 00	 cmp	 DWORD PTR _iRankID$231713[ebp], 0
  06d0c	7c 1e		 jl	 SHORT $LN2@IsExtDefen

; 3439 : 		{
; 3440 : 			int iRankValue = g_ItemRank.GetRankValueOption(iRankID, 4);

  06d0e	6a 04		 push	 4
  06d10	8b 45 f8	 mov	 eax, DWORD PTR _iRankID$231713[ebp]
  06d13	50		 push	 eax
  06d14	b9 00 00 00 00	 mov	 ecx, OFFSET ?g_ItemRank@@3VItemRank@@A ; g_ItemRank
  06d19	e8 00 00 00 00	 call	 ?GetRankValueOption@ItemRank@@QAEHHE@Z ; ItemRank::GetRankValueOption
  06d1e	89 45 f4	 mov	 DWORD PTR _iRankValue$231715[ebp], eax

; 3441 : 			if(iRankValue != -1)

  06d21	83 7d f4 ff	 cmp	 DWORD PTR _iRankValue$231715[ebp], -1
  06d25	74 05		 je	 SHORT $LN2@IsExtDefen

; 3442 : 			{
; 3443 : 				return iRankValue;

  06d27	8b 45 f4	 mov	 eax, DWORD PTR _iRankValue$231715[ebp]
  06d2a	eb 09		 jmp	 SHORT $LN4@IsExtDefen
$LN2@IsExtDefen:

; 3444 : 			}
; 3445 : 		}
; 3446 : #endif
; 3447 : 		return 10;

  06d2c	b8 0a 00 00 00	 mov	 eax, 10			; 0000000aH
  06d31	eb 02		 jmp	 SHORT $LN4@IsExtDefen
$LN3@IsExtDefen:

; 3448 : 	}
; 3449 : 
; 3450 : 	return 0;

  06d33	33 c0		 xor	 eax, eax
$LN4@IsExtDefen:

; 3451 : }

  06d35	5f		 pop	 edi
  06d36	5e		 pop	 esi
  06d37	5b		 pop	 ebx
  06d38	8b e5		 mov	 esp, ebp
  06d3a	5d		 pop	 ebp
  06d3b	c3		 ret	 0
?IsExtDefenseSuccessfull@CItem@@QAEHXZ ENDP		; CItem::IsExtDefenseSuccessfull
_TEXT	ENDS
PUBLIC	?IsExtMonsterMoney@CItem@@QAEHXZ		; CItem::IsExtMonsterMoney
; Function compile flags: /Odtp /ZI
_TEXT	SEGMENT
_iRankValue$231723 = -12				; size = 4
_iRankID$231721 = -8					; size = 4
_this$ = -4						; size = 4
?IsExtMonsterMoney@CItem@@QAEHXZ PROC			; CItem::IsExtMonsterMoney
; _this$ = ecx

; 3454 : {

  06d40	55		 push	 ebp
  06d41	8b ec		 mov	 ebp, esp
  06d43	83 ec 4c	 sub	 esp, 76			; 0000004cH
  06d46	53		 push	 ebx
  06d47	56		 push	 esi
  06d48	57		 push	 edi
  06d49	89 4d fc	 mov	 DWORD PTR _this$[ebp], ecx

; 3455 : 	if ( (this->m_NewOption & 1) == 1 )

  06d4c	8b 45 fc	 mov	 eax, DWORD PTR _this$[ebp]
  06d4f	0f b6 88 97 00
	00 00		 movzx	 ecx, BYTE PTR [eax+151]
  06d56	83 e1 01	 and	 ecx, 1
  06d59	74 48		 je	 SHORT $LN3@IsExtMonst

; 3456 : 	{
; 3457 : #if(CUSTOM_ITEM_RANK==TRUE)
; 3458 : 		int iRankID = g_ItemRank.IsRankItem(this->m_Type, this->m_Level);

  06d5b	8b 45 fc	 mov	 eax, DWORD PTR _this$[ebp]
  06d5e	0f b6 48 08	 movzx	 ecx, BYTE PTR [eax+8]
  06d62	51		 push	 ecx
  06d63	8b 55 fc	 mov	 edx, DWORD PTR _this$[ebp]
  06d66	0f b7 42 06	 movzx	 eax, WORD PTR [edx+6]
  06d6a	50		 push	 eax
  06d6b	b9 00 00 00 00	 mov	 ecx, OFFSET ?g_ItemRank@@3VItemRank@@A ; g_ItemRank
  06d70	e8 00 00 00 00	 call	 ?IsRankItem@ItemRank@@QAEHGE@Z ; ItemRank::IsRankItem
  06d75	89 45 f8	 mov	 DWORD PTR _iRankID$231721[ebp], eax

; 3459 : 		if(iRankID >= 0)

  06d78	83 7d f8 00	 cmp	 DWORD PTR _iRankID$231721[ebp], 0
  06d7c	7c 1e		 jl	 SHORT $LN2@IsExtMonst

; 3460 : 		{
; 3461 : 			int iRankValue = g_ItemRank.GetRankValueOption(iRankID, 5);

  06d7e	6a 05		 push	 5
  06d80	8b 45 f8	 mov	 eax, DWORD PTR _iRankID$231721[ebp]
  06d83	50		 push	 eax
  06d84	b9 00 00 00 00	 mov	 ecx, OFFSET ?g_ItemRank@@3VItemRank@@A ; g_ItemRank
  06d89	e8 00 00 00 00	 call	 ?GetRankValueOption@ItemRank@@QAEHHE@Z ; ItemRank::GetRankValueOption
  06d8e	89 45 f4	 mov	 DWORD PTR _iRankValue$231723[ebp], eax

; 3462 : 			if(iRankValue != -1)

  06d91	83 7d f4 ff	 cmp	 DWORD PTR _iRankValue$231723[ebp], -1
  06d95	74 05		 je	 SHORT $LN2@IsExtMonst

; 3463 : 			{
; 3464 : 				return iRankValue;

  06d97	8b 45 f4	 mov	 eax, DWORD PTR _iRankValue$231723[ebp]
  06d9a	eb 09		 jmp	 SHORT $LN4@IsExtMonst
$LN2@IsExtMonst:

; 3465 : 			}
; 3466 : 		}
; 3467 : #endif
; 3468 : 		return 30; //season4 changed

  06d9c	b8 1e 00 00 00	 mov	 eax, 30			; 0000001eH
  06da1	eb 02		 jmp	 SHORT $LN4@IsExtMonst
$LN3@IsExtMonst:

; 3469 : 	}
; 3470 : 
; 3471 : 	return 0;

  06da3	33 c0		 xor	 eax, eax
$LN4@IsExtMonst:

; 3472 : }

  06da5	5f		 pop	 edi
  06da6	5e		 pop	 esi
  06da7	5b		 pop	 ebx
  06da8	8b e5		 mov	 esp, ebp
  06daa	5d		 pop	 ebp
  06dab	c3		 ret	 0
?IsExtMonsterMoney@CItem@@QAEHXZ ENDP			; CItem::IsExtMonsterMoney
_TEXT	ENDS
PUBLIC	?IsExtExcellentDamage@CItem@@QAEHXZ		; CItem::IsExtExcellentDamage
; Function compile flags: /Odtp /ZI
_TEXT	SEGMENT
_iRankValue$231732 = -12				; size = 4
_iRankID$231730 = -8					; size = 4
_this$ = -4						; size = 4
?IsExtExcellentDamage@CItem@@QAEHXZ PROC		; CItem::IsExtExcellentDamage
; _this$ = ecx

; 3475 : {

  06db0	55		 push	 ebp
  06db1	8b ec		 mov	 ebp, esp
  06db3	83 ec 4c	 sub	 esp, 76			; 0000004cH
  06db6	53		 push	 ebx
  06db7	56		 push	 esi
  06db8	57		 push	 edi
  06db9	89 4d fc	 mov	 DWORD PTR _this$[ebp], ecx

; 3476 : 	if ( (this->m_Type >= ITEMGET(6,0) ) && (this->m_Type < ITEMGET(7,0) ) )

  06dbc	8b 45 fc	 mov	 eax, DWORD PTR _this$[ebp]
  06dbf	0f bf 48 06	 movsx	 ecx, WORD PTR [eax+6]
  06dc3	81 f9 00 0c 00
	00		 cmp	 ecx, 3072		; 00000c00H
  06dc9	7c 13		 jl	 SHORT $LN4@IsExtExcel
  06dcb	8b 45 fc	 mov	 eax, DWORD PTR _this$[ebp]
  06dce	0f bf 48 06	 movsx	 ecx, WORD PTR [eax+6]
  06dd2	81 f9 00 0e 00
	00		 cmp	 ecx, 3584		; 00000e00H
  06dd8	7d 04		 jge	 SHORT $LN4@IsExtExcel

; 3477 : 	{
; 3478 : 		return 0;

  06dda	33 c0		 xor	 eax, eax
  06ddc	eb 59		 jmp	 SHORT $LN5@IsExtExcel
$LN4@IsExtExcel:

; 3479 : 	}
; 3480 : 
; 3481 : 	if ( ( this->m_NewOption & 0x20 ) == 0x20 )

  06dde	8b 45 fc	 mov	 eax, DWORD PTR _this$[ebp]
  06de1	0f b6 88 97 00
	00 00		 movzx	 ecx, BYTE PTR [eax+151]
  06de8	83 e1 20	 and	 ecx, 32			; 00000020H
  06deb	74 48		 je	 SHORT $LN3@IsExtExcel

; 3482 : 	{
; 3483 : #if(CUSTOM_ITEM_RANK==TRUE)
; 3484 : 		int iRankID = g_ItemRank.IsRankItem(this->m_Type, this->m_Level);

  06ded	8b 45 fc	 mov	 eax, DWORD PTR _this$[ebp]
  06df0	0f b6 48 08	 movzx	 ecx, BYTE PTR [eax+8]
  06df4	51		 push	 ecx
  06df5	8b 55 fc	 mov	 edx, DWORD PTR _this$[ebp]
  06df8	0f b7 42 06	 movzx	 eax, WORD PTR [edx+6]
  06dfc	50		 push	 eax
  06dfd	b9 00 00 00 00	 mov	 ecx, OFFSET ?g_ItemRank@@3VItemRank@@A ; g_ItemRank
  06e02	e8 00 00 00 00	 call	 ?IsRankItem@ItemRank@@QAEHGE@Z ; ItemRank::IsRankItem
  06e07	89 45 f8	 mov	 DWORD PTR _iRankID$231730[ebp], eax

; 3485 : 		if(iRankID >= 0)

  06e0a	83 7d f8 00	 cmp	 DWORD PTR _iRankID$231730[ebp], 0
  06e0e	7c 1e		 jl	 SHORT $LN2@IsExtExcel

; 3486 : 		{
; 3487 : 			int iRankValue = g_ItemRank.GetRankValueOption(iRankID, 0);

  06e10	6a 00		 push	 0
  06e12	8b 45 f8	 mov	 eax, DWORD PTR _iRankID$231730[ebp]
  06e15	50		 push	 eax
  06e16	b9 00 00 00 00	 mov	 ecx, OFFSET ?g_ItemRank@@3VItemRank@@A ; g_ItemRank
  06e1b	e8 00 00 00 00	 call	 ?GetRankValueOption@ItemRank@@QAEHHE@Z ; ItemRank::GetRankValueOption
  06e20	89 45 f4	 mov	 DWORD PTR _iRankValue$231732[ebp], eax

; 3488 : 			if(iRankValue != -1)

  06e23	83 7d f4 ff	 cmp	 DWORD PTR _iRankValue$231732[ebp], -1
  06e27	74 05		 je	 SHORT $LN2@IsExtExcel

; 3489 : 			{
; 3490 : 				return iRankValue;

  06e29	8b 45 f4	 mov	 eax, DWORD PTR _iRankValue$231732[ebp]
  06e2c	eb 09		 jmp	 SHORT $LN5@IsExtExcel
$LN2@IsExtExcel:

; 3491 : 			}
; 3492 : 		}
; 3493 : #endif
; 3494 : 		return 10;

  06e2e	b8 0a 00 00 00	 mov	 eax, 10			; 0000000aH
  06e33	eb 02		 jmp	 SHORT $LN5@IsExtExcel
$LN3@IsExtExcel:

; 3495 : 	}
; 3496 : 	return 0;

  06e35	33 c0		 xor	 eax, eax
$LN5@IsExtExcel:

; 3497 : }

  06e37	5f		 pop	 edi
  06e38	5e		 pop	 esi
  06e39	5b		 pop	 ebx
  06e3a	8b e5		 mov	 esp, ebp
  06e3c	5d		 pop	 ebp
  06e3d	c3		 ret	 0
?IsExtExcellentDamage@CItem@@QAEHXZ ENDP		; CItem::IsExtExcellentDamage
_TEXT	ENDS
PUBLIC	?IsExtAttackRate@CItem@@QAEHXZ			; CItem::IsExtAttackRate
; Function compile flags: /Odtp /ZI
_TEXT	SEGMENT
_iRankValue$231740 = -12				; size = 4
_iRankID$231738 = -8					; size = 4
_this$ = -4						; size = 4
?IsExtAttackRate@CItem@@QAEHXZ PROC			; CItem::IsExtAttackRate
; _this$ = ecx

; 3500 : {

  06e40	55		 push	 ebp
  06e41	8b ec		 mov	 ebp, esp
  06e43	83 ec 4c	 sub	 esp, 76			; 0000004cH
  06e46	53		 push	 ebx
  06e47	56		 push	 esi
  06e48	57		 push	 edi
  06e49	89 4d fc	 mov	 DWORD PTR _this$[ebp], ecx

; 3501 : 	if ( (this->m_NewOption & 0x10) == 16 )

  06e4c	8b 45 fc	 mov	 eax, DWORD PTR _this$[ebp]
  06e4f	0f b6 88 97 00
	00 00		 movzx	 ecx, BYTE PTR [eax+151]
  06e56	83 e1 10	 and	 ecx, 16			; 00000010H
  06e59	74 48		 je	 SHORT $LN3@IsExtAttac

; 3502 : 	{
; 3503 : #if(CUSTOM_ITEM_RANK==TRUE)
; 3504 : 		int iRankID = g_ItemRank.IsRankItem(this->m_Type, this->m_Level);

  06e5b	8b 45 fc	 mov	 eax, DWORD PTR _this$[ebp]
  06e5e	0f b6 48 08	 movzx	 ecx, BYTE PTR [eax+8]
  06e62	51		 push	 ecx
  06e63	8b 55 fc	 mov	 edx, DWORD PTR _this$[ebp]
  06e66	0f b7 42 06	 movzx	 eax, WORD PTR [edx+6]
  06e6a	50		 push	 eax
  06e6b	b9 00 00 00 00	 mov	 ecx, OFFSET ?g_ItemRank@@3VItemRank@@A ; g_ItemRank
  06e70	e8 00 00 00 00	 call	 ?IsRankItem@ItemRank@@QAEHGE@Z ; ItemRank::IsRankItem
  06e75	89 45 f8	 mov	 DWORD PTR _iRankID$231738[ebp], eax

; 3505 : 		if(iRankID >= 0)

  06e78	83 7d f8 00	 cmp	 DWORD PTR _iRankID$231738[ebp], 0
  06e7c	7c 1e		 jl	 SHORT $LN2@IsExtAttac

; 3506 : 		{
; 3507 : 			int iRankValue = g_ItemRank.GetRankValueOption(iRankID, 1);

  06e7e	6a 01		 push	 1
  06e80	8b 45 f8	 mov	 eax, DWORD PTR _iRankID$231738[ebp]
  06e83	50		 push	 eax
  06e84	b9 00 00 00 00	 mov	 ecx, OFFSET ?g_ItemRank@@3VItemRank@@A ; g_ItemRank
  06e89	e8 00 00 00 00	 call	 ?GetRankValueOption@ItemRank@@QAEHHE@Z ; ItemRank::GetRankValueOption
  06e8e	89 45 f4	 mov	 DWORD PTR _iRankValue$231740[ebp], eax

; 3508 : 			if(iRankValue != -1)

  06e91	83 7d f4 ff	 cmp	 DWORD PTR _iRankValue$231740[ebp], -1
  06e95	74 05		 je	 SHORT $LN2@IsExtAttac

; 3509 : 			{
; 3510 : 				return iRankValue;

  06e97	8b 45 f4	 mov	 eax, DWORD PTR _iRankValue$231740[ebp]
  06e9a	eb 09		 jmp	 SHORT $LN4@IsExtAttac
$LN2@IsExtAttac:

; 3511 : 			}
; 3512 : 		}
; 3513 : #endif
; 3514 : 		//return 1;
; 3515 : 		return 20;

  06e9c	b8 14 00 00 00	 mov	 eax, 20			; 00000014H
  06ea1	eb 02		 jmp	 SHORT $LN4@IsExtAttac
$LN3@IsExtAttac:

; 3516 : 	}
; 3517 : 
; 3518 : 	return 0;

  06ea3	33 c0		 xor	 eax, eax
$LN4@IsExtAttac:

; 3519 : }

  06ea5	5f		 pop	 edi
  06ea6	5e		 pop	 esi
  06ea7	5b		 pop	 ebx
  06ea8	8b e5		 mov	 esp, ebp
  06eaa	5d		 pop	 ebp
  06eab	c3		 ret	 0
?IsExtAttackRate@CItem@@QAEHXZ ENDP			; CItem::IsExtAttackRate
_TEXT	ENDS
PUBLIC	?IsExtAttackRate2@CItem@@QAEHXZ			; CItem::IsExtAttackRate2
; Function compile flags: /Odtp /ZI
_TEXT	SEGMENT
_iRankValue$231748 = -12				; size = 4
_iRankID$231746 = -8					; size = 4
_this$ = -4						; size = 4
?IsExtAttackRate2@CItem@@QAEHXZ PROC			; CItem::IsExtAttackRate2
; _this$ = ecx

; 3522 : {

  06eb0	55		 push	 ebp
  06eb1	8b ec		 mov	 ebp, esp
  06eb3	83 ec 4c	 sub	 esp, 76			; 0000004cH
  06eb6	53		 push	 ebx
  06eb7	56		 push	 esi
  06eb8	57		 push	 edi
  06eb9	89 4d fc	 mov	 DWORD PTR _this$[ebp], ecx

; 3523 : 	if ( (this->m_NewOption & 8) == 8 )

  06ebc	8b 45 fc	 mov	 eax, DWORD PTR _this$[ebp]
  06ebf	0f b6 88 97 00
	00 00		 movzx	 ecx, BYTE PTR [eax+151]
  06ec6	83 e1 08	 and	 ecx, 8
  06ec9	74 48		 je	 SHORT $LN3@IsExtAttac@2

; 3524 : 	{
; 3525 : #if(CUSTOM_ITEM_RANK==TRUE)
; 3526 : 		int iRankID = g_ItemRank.IsRankItem(this->m_Type, this->m_Level);

  06ecb	8b 45 fc	 mov	 eax, DWORD PTR _this$[ebp]
  06ece	0f b6 48 08	 movzx	 ecx, BYTE PTR [eax+8]
  06ed2	51		 push	 ecx
  06ed3	8b 55 fc	 mov	 edx, DWORD PTR _this$[ebp]
  06ed6	0f b7 42 06	 movzx	 eax, WORD PTR [edx+6]
  06eda	50		 push	 eax
  06edb	b9 00 00 00 00	 mov	 ecx, OFFSET ?g_ItemRank@@3VItemRank@@A ; g_ItemRank
  06ee0	e8 00 00 00 00	 call	 ?IsRankItem@ItemRank@@QAEHGE@Z ; ItemRank::IsRankItem
  06ee5	89 45 f8	 mov	 DWORD PTR _iRankID$231746[ebp], eax

; 3527 : 		if(iRankID >= 0)

  06ee8	83 7d f8 00	 cmp	 DWORD PTR _iRankID$231746[ebp], 0
  06eec	7c 1e		 jl	 SHORT $LN2@IsExtAttac@2

; 3528 : 		{
; 3529 : 			int iRankValue = g_ItemRank.GetRankValueOption(iRankID, 2);

  06eee	6a 02		 push	 2
  06ef0	8b 45 f8	 mov	 eax, DWORD PTR _iRankID$231746[ebp]
  06ef3	50		 push	 eax
  06ef4	b9 00 00 00 00	 mov	 ecx, OFFSET ?g_ItemRank@@3VItemRank@@A ; g_ItemRank
  06ef9	e8 00 00 00 00	 call	 ?GetRankValueOption@ItemRank@@QAEHHE@Z ; ItemRank::GetRankValueOption
  06efe	89 45 f4	 mov	 DWORD PTR _iRankValue$231748[ebp], eax

; 3530 : 			if(iRankValue != -1)

  06f01	83 7d f4 ff	 cmp	 DWORD PTR _iRankValue$231748[ebp], -1
  06f05	74 05		 je	 SHORT $LN2@IsExtAttac@2

; 3531 : 			{
; 3532 : 				return iRankValue;

  06f07	8b 45 f4	 mov	 eax, DWORD PTR _iRankValue$231748[ebp]
  06f0a	eb 09		 jmp	 SHORT $LN4@IsExtAttac@2
$LN2@IsExtAttac@2:

; 3533 : 			}
; 3534 : 		}
; 3535 : #endif
; 3536 : 		return 2;

  06f0c	b8 02 00 00 00	 mov	 eax, 2
  06f11	eb 02		 jmp	 SHORT $LN4@IsExtAttac@2
$LN3@IsExtAttac@2:

; 3537 : 	}
; 3538 : 
; 3539 : 	return 0;

  06f13	33 c0		 xor	 eax, eax
$LN4@IsExtAttac@2:

; 3540 : }

  06f15	5f		 pop	 edi
  06f16	5e		 pop	 esi
  06f17	5b		 pop	 ebx
  06f18	8b e5		 mov	 esp, ebp
  06f1a	5d		 pop	 ebp
  06f1b	c3		 ret	 0
?IsExtAttackRate2@CItem@@QAEHXZ ENDP			; CItem::IsExtAttackRate2
_TEXT	ENDS
PUBLIC	?IsExtAttackSpeed@CItem@@QAEHXZ			; CItem::IsExtAttackSpeed
; Function compile flags: /Odtp /ZI
_TEXT	SEGMENT
_iRankValue$231756 = -12				; size = 4
_iRankID$231754 = -8					; size = 4
_this$ = -4						; size = 4
?IsExtAttackSpeed@CItem@@QAEHXZ PROC			; CItem::IsExtAttackSpeed
; _this$ = ecx

; 3543 : {

  06f20	55		 push	 ebp
  06f21	8b ec		 mov	 ebp, esp
  06f23	83 ec 4c	 sub	 esp, 76			; 0000004cH
  06f26	53		 push	 ebx
  06f27	56		 push	 esi
  06f28	57		 push	 edi
  06f29	89 4d fc	 mov	 DWORD PTR _this$[ebp], ecx

; 3544 : 	if ( (this->m_NewOption & 4) == 4 )

  06f2c	8b 45 fc	 mov	 eax, DWORD PTR _this$[ebp]
  06f2f	0f b6 88 97 00
	00 00		 movzx	 ecx, BYTE PTR [eax+151]
  06f36	83 e1 04	 and	 ecx, 4
  06f39	74 48		 je	 SHORT $LN3@IsExtAttac@3

; 3545 : 	{
; 3546 : #if(CUSTOM_ITEM_RANK==TRUE)
; 3547 : 		int iRankID = g_ItemRank.IsRankItem(this->m_Type, this->m_Level);

  06f3b	8b 45 fc	 mov	 eax, DWORD PTR _this$[ebp]
  06f3e	0f b6 48 08	 movzx	 ecx, BYTE PTR [eax+8]
  06f42	51		 push	 ecx
  06f43	8b 55 fc	 mov	 edx, DWORD PTR _this$[ebp]
  06f46	0f b7 42 06	 movzx	 eax, WORD PTR [edx+6]
  06f4a	50		 push	 eax
  06f4b	b9 00 00 00 00	 mov	 ecx, OFFSET ?g_ItemRank@@3VItemRank@@A ; g_ItemRank
  06f50	e8 00 00 00 00	 call	 ?IsRankItem@ItemRank@@QAEHGE@Z ; ItemRank::IsRankItem
  06f55	89 45 f8	 mov	 DWORD PTR _iRankID$231754[ebp], eax

; 3548 : 		if(iRankID >= 0)

  06f58	83 7d f8 00	 cmp	 DWORD PTR _iRankID$231754[ebp], 0
  06f5c	7c 1e		 jl	 SHORT $LN2@IsExtAttac@3

; 3549 : 		{
; 3550 : 			int iRankValue = g_ItemRank.GetRankValueOption(iRankID, 3);

  06f5e	6a 03		 push	 3
  06f60	8b 45 f8	 mov	 eax, DWORD PTR _iRankID$231754[ebp]
  06f63	50		 push	 eax
  06f64	b9 00 00 00 00	 mov	 ecx, OFFSET ?g_ItemRank@@3VItemRank@@A ; g_ItemRank
  06f69	e8 00 00 00 00	 call	 ?GetRankValueOption@ItemRank@@QAEHHE@Z ; ItemRank::GetRankValueOption
  06f6e	89 45 f4	 mov	 DWORD PTR _iRankValue$231756[ebp], eax

; 3551 : 			if(iRankValue != -1)

  06f71	83 7d f4 ff	 cmp	 DWORD PTR _iRankValue$231756[ebp], -1
  06f75	74 05		 je	 SHORT $LN2@IsExtAttac@3

; 3552 : 			{
; 3553 : 				return iRankValue;

  06f77	8b 45 f4	 mov	 eax, DWORD PTR _iRankValue$231756[ebp]
  06f7a	eb 09		 jmp	 SHORT $LN4@IsExtAttac@3
$LN2@IsExtAttac@3:

; 3554 : 			}
; 3555 : 		}
; 3556 : #endif
; 3557 : 		return 7;

  06f7c	b8 07 00 00 00	 mov	 eax, 7
  06f81	eb 02		 jmp	 SHORT $LN4@IsExtAttac@3
$LN3@IsExtAttac@3:

; 3558 : 	}
; 3559 : 
; 3560 : 	return 0;

  06f83	33 c0		 xor	 eax, eax
$LN4@IsExtAttac@3:

; 3561 : }

  06f85	5f		 pop	 edi
  06f86	5e		 pop	 esi
  06f87	5b		 pop	 ebx
  06f88	8b e5		 mov	 esp, ebp
  06f8a	5d		 pop	 ebp
  06f8b	c3		 ret	 0
?IsExtAttackSpeed@CItem@@QAEHXZ ENDP			; CItem::IsExtAttackSpeed
_TEXT	ENDS
PUBLIC	?IsExtMonsterDieLife@CItem@@QAEHXZ		; CItem::IsExtMonsterDieLife
; Function compile flags: /Odtp /ZI
_TEXT	SEGMENT
_iRankValue$231764 = -12				; size = 4
_iRankID$231762 = -8					; size = 4
_this$ = -4						; size = 4
?IsExtMonsterDieLife@CItem@@QAEHXZ PROC			; CItem::IsExtMonsterDieLife
; _this$ = ecx

; 3565 : {

  06f90	55		 push	 ebp
  06f91	8b ec		 mov	 ebp, esp
  06f93	83 ec 4c	 sub	 esp, 76			; 0000004cH
  06f96	53		 push	 ebx
  06f97	56		 push	 esi
  06f98	57		 push	 edi
  06f99	89 4d fc	 mov	 DWORD PTR _this$[ebp], ecx

; 3566 : 	if ( (this->m_NewOption & 2) == 2 )

  06f9c	8b 45 fc	 mov	 eax, DWORD PTR _this$[ebp]
  06f9f	0f b6 88 97 00
	00 00		 movzx	 ecx, BYTE PTR [eax+151]
  06fa6	83 e1 02	 and	 ecx, 2
  06fa9	74 48		 je	 SHORT $LN3@IsExtMonst@2

; 3567 : 	{
; 3568 : #if(CUSTOM_ITEM_RANK==TRUE)
; 3569 : 		int iRankID = g_ItemRank.IsRankItem(this->m_Type, this->m_Level);

  06fab	8b 45 fc	 mov	 eax, DWORD PTR _this$[ebp]
  06fae	0f b6 48 08	 movzx	 ecx, BYTE PTR [eax+8]
  06fb2	51		 push	 ecx
  06fb3	8b 55 fc	 mov	 edx, DWORD PTR _this$[ebp]
  06fb6	0f b7 42 06	 movzx	 eax, WORD PTR [edx+6]
  06fba	50		 push	 eax
  06fbb	b9 00 00 00 00	 mov	 ecx, OFFSET ?g_ItemRank@@3VItemRank@@A ; g_ItemRank
  06fc0	e8 00 00 00 00	 call	 ?IsRankItem@ItemRank@@QAEHGE@Z ; ItemRank::IsRankItem
  06fc5	89 45 f8	 mov	 DWORD PTR _iRankID$231762[ebp], eax

; 3570 : 		if(iRankID >= 0)

  06fc8	83 7d f8 00	 cmp	 DWORD PTR _iRankID$231762[ebp], 0
  06fcc	7c 1e		 jl	 SHORT $LN2@IsExtMonst@2

; 3571 : 		{
; 3572 : 			int iRankValue = g_ItemRank.GetRankValueOption(iRankID, 4);

  06fce	6a 04		 push	 4
  06fd0	8b 45 f8	 mov	 eax, DWORD PTR _iRankID$231762[ebp]
  06fd3	50		 push	 eax
  06fd4	b9 00 00 00 00	 mov	 ecx, OFFSET ?g_ItemRank@@3VItemRank@@A ; g_ItemRank
  06fd9	e8 00 00 00 00	 call	 ?GetRankValueOption@ItemRank@@QAEHHE@Z ; ItemRank::GetRankValueOption
  06fde	89 45 f4	 mov	 DWORD PTR _iRankValue$231764[ebp], eax

; 3573 : 			if(iRankValue != -1)

  06fe1	83 7d f4 ff	 cmp	 DWORD PTR _iRankValue$231764[ebp], -1
  06fe5	74 05		 je	 SHORT $LN2@IsExtMonst@2

; 3574 : 			{
; 3575 : 				return iRankValue;

  06fe7	8b 45 f4	 mov	 eax, DWORD PTR _iRankValue$231764[ebp]
  06fea	eb 09		 jmp	 SHORT $LN4@IsExtMonst@2
$LN2@IsExtMonst@2:

; 3576 : 			}
; 3577 : 		}
; 3578 : #endif
; 3579 : 		//return 1;
; 3580 : 		return 8;

  06fec	b8 08 00 00 00	 mov	 eax, 8
  06ff1	eb 02		 jmp	 SHORT $LN4@IsExtMonst@2
$LN3@IsExtMonst@2:

; 3581 : 	}
; 3582 : 
; 3583 : 	return 0;

  06ff3	33 c0		 xor	 eax, eax
$LN4@IsExtMonst@2:

; 3584 : }

  06ff5	5f		 pop	 edi
  06ff6	5e		 pop	 esi
  06ff7	5b		 pop	 ebx
  06ff8	8b e5		 mov	 esp, ebp
  06ffa	5d		 pop	 ebp
  06ffb	c3		 ret	 0
?IsExtMonsterDieLife@CItem@@QAEHXZ ENDP			; CItem::IsExtMonsterDieLife
_TEXT	ENDS
PUBLIC	?IsExtMonsterDieMana@CItem@@QAEHXZ		; CItem::IsExtMonsterDieMana
; Function compile flags: /Odtp /ZI
_TEXT	SEGMENT
_iRankValue$231773 = -12				; size = 4
_iRankID$231771 = -8					; size = 4
_this$ = -4						; size = 4
?IsExtMonsterDieMana@CItem@@QAEHXZ PROC			; CItem::IsExtMonsterDieMana
; _this$ = ecx

; 3588 : {

  07000	55		 push	 ebp
  07001	8b ec		 mov	 ebp, esp
  07003	83 ec 4c	 sub	 esp, 76			; 0000004cH
  07006	53		 push	 ebx
  07007	56		 push	 esi
  07008	57		 push	 edi
  07009	89 4d fc	 mov	 DWORD PTR _this$[ebp], ecx

; 3589 : 	if ( this->m_Type >= ITEMGET(6,0) && this->m_Type < ITEMGET(7,0) )

  0700c	8b 45 fc	 mov	 eax, DWORD PTR _this$[ebp]
  0700f	0f bf 48 06	 movsx	 ecx, WORD PTR [eax+6]
  07013	81 f9 00 0c 00
	00		 cmp	 ecx, 3072		; 00000c00H
  07019	7c 13		 jl	 SHORT $LN4@IsExtMonst@3
  0701b	8b 45 fc	 mov	 eax, DWORD PTR _this$[ebp]
  0701e	0f bf 48 06	 movsx	 ecx, WORD PTR [eax+6]
  07022	81 f9 00 0e 00
	00		 cmp	 ecx, 3584		; 00000e00H
  07028	7d 04		 jge	 SHORT $LN4@IsExtMonst@3

; 3590 : 	{
; 3591 : 		return 0;

  0702a	33 c0		 xor	 eax, eax
  0702c	eb 59		 jmp	 SHORT $LN5@IsExtMonst@3
$LN4@IsExtMonst@3:

; 3592 : 	}
; 3593 : 
; 3594 : 	if ( (this->m_NewOption & 1) == 1 )

  0702e	8b 45 fc	 mov	 eax, DWORD PTR _this$[ebp]
  07031	0f b6 88 97 00
	00 00		 movzx	 ecx, BYTE PTR [eax+151]
  07038	83 e1 01	 and	 ecx, 1
  0703b	74 48		 je	 SHORT $LN3@IsExtMonst@3

; 3595 : 	{
; 3596 : #if(CUSTOM_ITEM_RANK==TRUE)
; 3597 : 		int iRankID = g_ItemRank.IsRankItem(this->m_Type, this->m_Level);

  0703d	8b 45 fc	 mov	 eax, DWORD PTR _this$[ebp]
  07040	0f b6 48 08	 movzx	 ecx, BYTE PTR [eax+8]
  07044	51		 push	 ecx
  07045	8b 55 fc	 mov	 edx, DWORD PTR _this$[ebp]
  07048	0f b7 42 06	 movzx	 eax, WORD PTR [edx+6]
  0704c	50		 push	 eax
  0704d	b9 00 00 00 00	 mov	 ecx, OFFSET ?g_ItemRank@@3VItemRank@@A ; g_ItemRank
  07052	e8 00 00 00 00	 call	 ?IsRankItem@ItemRank@@QAEHGE@Z ; ItemRank::IsRankItem
  07057	89 45 f8	 mov	 DWORD PTR _iRankID$231771[ebp], eax

; 3598 : 		if(iRankID >= 0)

  0705a	83 7d f8 00	 cmp	 DWORD PTR _iRankID$231771[ebp], 0
  0705e	7c 1e		 jl	 SHORT $LN2@IsExtMonst@3

; 3599 : 		{
; 3600 : 			int iRankValue = g_ItemRank.GetRankValueOption(iRankID, 5);

  07060	6a 05		 push	 5
  07062	8b 45 f8	 mov	 eax, DWORD PTR _iRankID$231771[ebp]
  07065	50		 push	 eax
  07066	b9 00 00 00 00	 mov	 ecx, OFFSET ?g_ItemRank@@3VItemRank@@A ; g_ItemRank
  0706b	e8 00 00 00 00	 call	 ?GetRankValueOption@ItemRank@@QAEHHE@Z ; ItemRank::GetRankValueOption
  07070	89 45 f4	 mov	 DWORD PTR _iRankValue$231773[ebp], eax

; 3601 : 			if(iRankValue != -1)

  07073	83 7d f4 ff	 cmp	 DWORD PTR _iRankValue$231773[ebp], -1
  07077	74 05		 je	 SHORT $LN2@IsExtMonst@3

; 3602 : 			{
; 3603 : 				return iRankValue;

  07079	8b 45 f4	 mov	 eax, DWORD PTR _iRankValue$231773[ebp]
  0707c	eb 09		 jmp	 SHORT $LN5@IsExtMonst@3
$LN2@IsExtMonst@3:

; 3604 : 			}
; 3605 : 		}
; 3606 : #endif
; 3607 : 		//return 1;
; 3608 : 		return 8;

  0707e	b8 08 00 00 00	 mov	 eax, 8
  07083	eb 02		 jmp	 SHORT $LN5@IsExtMonst@3
$LN3@IsExtMonst@3:

; 3609 : 	}
; 3610 : 	return 0;

  07085	33 c0		 xor	 eax, eax
$LN5@IsExtMonst@3:

; 3611 : }

  07087	5f		 pop	 edi
  07088	5e		 pop	 esi
  07089	5b		 pop	 ebx
  0708a	8b e5		 mov	 esp, ebp
  0708c	5d		 pop	 ebp
  0708d	c3		 ret	 0
?IsExtMonsterDieMana@CItem@@QAEHXZ ENDP			; CItem::IsExtMonsterDieMana
_TEXT	ENDS
PUBLIC	?IsWingOpGetOnePercentDamage@CItem@@QAEHXZ	; CItem::IsWingOpGetOnePercentDamage
; Function compile flags: /Odtp /ZI
_TEXT	SEGMENT
_this$ = -4						; size = 4
?IsWingOpGetOnePercentDamage@CItem@@QAEHXZ PROC		; CItem::IsWingOpGetOnePercentDamage
; _this$ = ecx

; 3614 : {

  07090	55		 push	 ebp
  07091	8b ec		 mov	 ebp, esp
  07093	83 ec 44	 sub	 esp, 68			; 00000044H
  07096	53		 push	 ebx
  07097	56		 push	 esi
  07098	57		 push	 edi
  07099	89 4d fc	 mov	 DWORD PTR _this$[ebp], ecx

; 3615 : 	if ( this->m_Durability  < 1.0f )

  0709c	8b 45 fc	 mov	 eax, DWORD PTR _this$[ebp]
  0709f	d9 40 24	 fld	 DWORD PTR [eax+36]
  070a2	dc 1d 00 00 00
	00		 fcomp	 QWORD PTR __real@3ff0000000000000
  070a8	df e0		 fnstsw	 ax
  070aa	f6 c4 05	 test	 ah, 5
  070ad	7a 04		 jp	 SHORT $LN5@IsWingOpGe

; 3616 : 	{
; 3617 : 		return 0;

  070af	33 c0		 xor	 eax, eax
  070b1	eb 54		 jmp	 SHORT $LN6@IsWingOpGe
$LN5@IsWingOpGe:

; 3618 : 	}
; 3619 : 
; 3620 : 	if ( this->m_Type >= ITEMGET(12,3) && this->m_Type <= ITEMGET(12,6) || this->m_Type == ITEMGET(13,30) || this->m_Type == ITEMGET(12,42) )

  070b3	8b 45 fc	 mov	 eax, DWORD PTR _this$[ebp]
  070b6	0f bf 48 06	 movsx	 ecx, WORD PTR [eax+6]
  070ba	81 f9 03 18 00
	00		 cmp	 ecx, 6147		; 00001803H
  070c0	7c 0f		 jl	 SHORT $LN2@IsWingOpGe
  070c2	8b 45 fc	 mov	 eax, DWORD PTR _this$[ebp]
  070c5	0f bf 48 06	 movsx	 ecx, WORD PTR [eax+6]
  070c9	81 f9 06 18 00
	00		 cmp	 ecx, 6150		; 00001806H
  070cf	7e 1e		 jle	 SHORT $LN3@IsWingOpGe
$LN2@IsWingOpGe:
  070d1	8b 45 fc	 mov	 eax, DWORD PTR _this$[ebp]
  070d4	0f bf 48 06	 movsx	 ecx, WORD PTR [eax+6]
  070d8	81 f9 1e 1a 00
	00		 cmp	 ecx, 6686		; 00001a1eH
  070de	74 0f		 je	 SHORT $LN3@IsWingOpGe
  070e0	8b 45 fc	 mov	 eax, DWORD PTR _this$[ebp]
  070e3	0f bf 48 06	 movsx	 ecx, WORD PTR [eax+6]
  070e7	81 f9 2a 18 00
	00		 cmp	 ecx, 6186		; 0000182aH
  070ed	75 16		 jne	 SHORT $LN1@IsWingOpGe
$LN3@IsWingOpGe:

; 3621 : 	{
; 3622 : 		if ( (this->m_NewOption & 4)!= 0 )

  070ef	8b 45 fc	 mov	 eax, DWORD PTR _this$[ebp]
  070f2	0f b6 88 97 00
	00 00		 movzx	 ecx, BYTE PTR [eax+151]
  070f9	83 e1 04	 and	 ecx, 4
  070fc	74 07		 je	 SHORT $LN1@IsWingOpGe

; 3623 : 		{
; 3624 : 			return 3;

  070fe	b8 03 00 00 00	 mov	 eax, 3
  07103	eb 02		 jmp	 SHORT $LN6@IsWingOpGe
$LN1@IsWingOpGe:

; 3625 : 		}
; 3626 : 	}
; 3627 : 	return 0;

  07105	33 c0		 xor	 eax, eax
$LN6@IsWingOpGe:

; 3628 : }

  07107	5f		 pop	 edi
  07108	5e		 pop	 esi
  07109	5b		 pop	 ebx
  0710a	8b e5		 mov	 esp, ebp
  0710c	5d		 pop	 ebp
  0710d	c3		 ret	 0
?IsWingOpGetOnePercentDamage@CItem@@QAEHXZ ENDP		; CItem::IsWingOpGetOnePercentDamage
_TEXT	ENDS
PUBLIC	?IsWingOpGetManaToMoster@CItem@@QAEHXZ		; CItem::IsWingOpGetManaToMoster
; Function compile flags: /Odtp /ZI
_TEXT	SEGMENT
_this$ = -4						; size = 4
?IsWingOpGetManaToMoster@CItem@@QAEHXZ PROC		; CItem::IsWingOpGetManaToMoster
; _this$ = ecx

; 3631 : {

  07110	55		 push	 ebp
  07111	8b ec		 mov	 ebp, esp
  07113	83 ec 44	 sub	 esp, 68			; 00000044H
  07116	53		 push	 ebx
  07117	56		 push	 esi
  07118	57		 push	 edi
  07119	89 4d fc	 mov	 DWORD PTR _this$[ebp], ecx

; 3632 : 	if ( this->m_Durability < 1.0f )

  0711c	8b 45 fc	 mov	 eax, DWORD PTR _this$[ebp]
  0711f	d9 40 24	 fld	 DWORD PTR [eax+36]
  07122	dc 1d 00 00 00
	00		 fcomp	 QWORD PTR __real@3ff0000000000000
  07128	df e0		 fnstsw	 ax
  0712a	f6 c4 05	 test	 ah, 5
  0712d	7a 04		 jp	 SHORT $LN5@IsWingOpGe@2

; 3633 : 	{
; 3634 : 		return 0;

  0712f	33 c0		 xor	 eax, eax
  07131	eb 57		 jmp	 SHORT $LN6@IsWingOpGe@2
$LN5@IsWingOpGe@2:

; 3635 : 	}
; 3636 : 
; 3637 : 	if ( this->m_Type >= ITEMGET(12,3) && this->m_Type <= ITEMGET(12,6) || this->m_Type == ITEMGET(13,30) || this->m_Type == ITEMGET(12,42) )

  07133	8b 45 fc	 mov	 eax, DWORD PTR _this$[ebp]
  07136	0f bf 48 06	 movsx	 ecx, WORD PTR [eax+6]
  0713a	81 f9 03 18 00
	00		 cmp	 ecx, 6147		; 00001803H
  07140	7c 0f		 jl	 SHORT $LN2@IsWingOpGe@2
  07142	8b 45 fc	 mov	 eax, DWORD PTR _this$[ebp]
  07145	0f bf 48 06	 movsx	 ecx, WORD PTR [eax+6]
  07149	81 f9 06 18 00
	00		 cmp	 ecx, 6150		; 00001806H
  0714f	7e 1e		 jle	 SHORT $LN3@IsWingOpGe@2
$LN2@IsWingOpGe@2:
  07151	8b 45 fc	 mov	 eax, DWORD PTR _this$[ebp]
  07154	0f bf 48 06	 movsx	 ecx, WORD PTR [eax+6]
  07158	81 f9 1e 1a 00
	00		 cmp	 ecx, 6686		; 00001a1eH
  0715e	74 0f		 je	 SHORT $LN3@IsWingOpGe@2
  07160	8b 45 fc	 mov	 eax, DWORD PTR _this$[ebp]
  07163	0f bf 48 06	 movsx	 ecx, WORD PTR [eax+6]
  07167	81 f9 2a 18 00
	00		 cmp	 ecx, 6186		; 0000182aH
  0716d	75 19		 jne	 SHORT $LN1@IsWingOpGe@2
$LN3@IsWingOpGe@2:

; 3638 : 	{
; 3639 : 		if ( (this->m_NewOption & 16 ) == 1 )

  0716f	8b 45 fc	 mov	 eax, DWORD PTR _this$[ebp]
  07172	0f b6 88 97 00
	00 00		 movzx	 ecx, BYTE PTR [eax+151]
  07179	83 e1 10	 and	 ecx, 16			; 00000010H
  0717c	83 f9 01	 cmp	 ecx, 1
  0717f	75 07		 jne	 SHORT $LN1@IsWingOpGe@2

; 3640 : 		{
; 3641 : 			return 10;

  07181	b8 0a 00 00 00	 mov	 eax, 10			; 0000000aH
  07186	eb 02		 jmp	 SHORT $LN6@IsWingOpGe@2
$LN1@IsWingOpGe@2:

; 3642 : 		}
; 3643 : 	}
; 3644 : 	return 0;

  07188	33 c0		 xor	 eax, eax
$LN6@IsWingOpGe@2:

; 3645 : }

  0718a	5f		 pop	 edi
  0718b	5e		 pop	 esi
  0718c	5b		 pop	 ebx
  0718d	8b e5		 mov	 esp, ebp
  0718f	5d		 pop	 ebp
  07190	c3		 ret	 0
?IsWingOpGetManaToMoster@CItem@@QAEHXZ ENDP		; CItem::IsWingOpGetManaToMoster
_TEXT	ENDS
PUBLIC	?IsDinorantReduceAttackDamaege@CItem@@QAEHXZ	; CItem::IsDinorantReduceAttackDamaege
; Function compile flags: /Odtp /ZI
_TEXT	SEGMENT
_this$ = -4						; size = 4
?IsDinorantReduceAttackDamaege@CItem@@QAEHXZ PROC	; CItem::IsDinorantReduceAttackDamaege
; _this$ = ecx

; 3648 : {

  071a0	55		 push	 ebp
  071a1	8b ec		 mov	 ebp, esp
  071a3	83 ec 44	 sub	 esp, 68			; 00000044H
  071a6	53		 push	 ebx
  071a7	56		 push	 esi
  071a8	57		 push	 edi
  071a9	89 4d fc	 mov	 DWORD PTR _this$[ebp], ecx

; 3649 : 	if ( this->m_Durability  < 1.0f )

  071ac	8b 45 fc	 mov	 eax, DWORD PTR _this$[ebp]
  071af	d9 40 24	 fld	 DWORD PTR [eax+36]
  071b2	dc 1d 00 00 00
	00		 fcomp	 QWORD PTR __real@3ff0000000000000
  071b8	df e0		 fnstsw	 ax
  071ba	f6 c4 05	 test	 ah, 5
  071bd	7a 04		 jp	 SHORT $LN2@IsDinorant

; 3650 : 	{
; 3651 : 		return 0;

  071bf	33 c0		 xor	 eax, eax
  071c1	eb 18		 jmp	 SHORT $LN3@IsDinorant
$LN2@IsDinorant:

; 3652 : 	}
; 3653 : 
; 3654 : 	if ( (this->m_NewOption & 1 ) == 1 )

  071c3	8b 45 fc	 mov	 eax, DWORD PTR _this$[ebp]
  071c6	0f b6 88 97 00
	00 00		 movzx	 ecx, BYTE PTR [eax+151]
  071cd	83 e1 01	 and	 ecx, 1
  071d0	74 07		 je	 SHORT $LN1@IsDinorant

; 3655 : 	{
; 3656 : 		return 5;

  071d2	b8 05 00 00 00	 mov	 eax, 5
  071d7	eb 02		 jmp	 SHORT $LN3@IsDinorant
$LN1@IsDinorant:

; 3657 : 	}
; 3658 : 	return 0;

  071d9	33 c0		 xor	 eax, eax
$LN3@IsDinorant:

; 3659 : }

  071db	5f		 pop	 edi
  071dc	5e		 pop	 esi
  071dd	5b		 pop	 ebx
  071de	8b e5		 mov	 esp, ebp
  071e0	5d		 pop	 ebp
  071e1	c3		 ret	 0
?IsDinorantReduceAttackDamaege@CItem@@QAEHXZ ENDP	; CItem::IsDinorantReduceAttackDamaege
_TEXT	ENDS
PUBLIC	?IsFenrirIncLastAttackDamage@CItem@@QAEHXZ	; CItem::IsFenrirIncLastAttackDamage
; Function compile flags: /Odtp /ZI
_TEXT	SEGMENT
_this$ = -4						; size = 4
?IsFenrirIncLastAttackDamage@CItem@@QAEHXZ PROC		; CItem::IsFenrirIncLastAttackDamage
; _this$ = ecx

; 3663 : {

  071f0	55		 push	 ebp
  071f1	8b ec		 mov	 ebp, esp
  071f3	83 ec 44	 sub	 esp, 68			; 00000044H
  071f6	53		 push	 ebx
  071f7	56		 push	 esi
  071f8	57		 push	 edi
  071f9	89 4d fc	 mov	 DWORD PTR _this$[ebp], ecx

; 3664 : 	if ( this->m_Durability < 1.0f )

  071fc	8b 45 fc	 mov	 eax, DWORD PTR _this$[ebp]
  071ff	d9 40 24	 fld	 DWORD PTR [eax+36]
  07202	dc 1d 00 00 00
	00		 fcomp	 QWORD PTR __real@3ff0000000000000
  07208	df e0		 fnstsw	 ax
  0720a	f6 c4 05	 test	 ah, 5
  0720d	7a 04		 jp	 SHORT $LN2@IsFenrirIn

; 3665 : 	{
; 3666 : 		return 0;

  0720f	33 c0		 xor	 eax, eax
  07211	eb 18		 jmp	 SHORT $LN3@IsFenrirIn
$LN2@IsFenrirIn:

; 3667 : 	}
; 3668 : 
; 3669 : 	if ( (this->m_NewOption&1) == 1 )

  07213	8b 45 fc	 mov	 eax, DWORD PTR _this$[ebp]
  07216	0f b6 88 97 00
	00 00		 movzx	 ecx, BYTE PTR [eax+151]
  0721d	83 e1 01	 and	 ecx, 1
  07220	74 07		 je	 SHORT $LN1@IsFenrirIn

; 3670 : 	{
; 3671 : 		return 10;

  07222	b8 0a 00 00 00	 mov	 eax, 10			; 0000000aH
  07227	eb 02		 jmp	 SHORT $LN3@IsFenrirIn
$LN1@IsFenrirIn:

; 3672 : 	}
; 3673 : 
; 3674 : 	return 0;

  07229	33 c0		 xor	 eax, eax
$LN3@IsFenrirIn:

; 3675 : }

  0722b	5f		 pop	 edi
  0722c	5e		 pop	 esi
  0722d	5b		 pop	 ebx
  0722e	8b e5		 mov	 esp, ebp
  07230	5d		 pop	 ebp
  07231	c3		 ret	 0
?IsFenrirIncLastAttackDamage@CItem@@QAEHXZ ENDP		; CItem::IsFenrirIncLastAttackDamage
_TEXT	ENDS
PUBLIC	?IsFenrirDecLastAttackDamage@CItem@@QAEHXZ	; CItem::IsFenrirDecLastAttackDamage
; Function compile flags: /Odtp /ZI
_TEXT	SEGMENT
_this$ = -4						; size = 4
?IsFenrirDecLastAttackDamage@CItem@@QAEHXZ PROC		; CItem::IsFenrirDecLastAttackDamage
; _this$ = ecx

; 3678 : {

  07240	55		 push	 ebp
  07241	8b ec		 mov	 ebp, esp
  07243	83 ec 44	 sub	 esp, 68			; 00000044H
  07246	53		 push	 ebx
  07247	56		 push	 esi
  07248	57		 push	 edi
  07249	89 4d fc	 mov	 DWORD PTR _this$[ebp], ecx

; 3679 : 	if ( this->m_Durability < 1.0f )

  0724c	8b 45 fc	 mov	 eax, DWORD PTR _this$[ebp]
  0724f	d9 40 24	 fld	 DWORD PTR [eax+36]
  07252	dc 1d 00 00 00
	00		 fcomp	 QWORD PTR __real@3ff0000000000000
  07258	df e0		 fnstsw	 ax
  0725a	f6 c4 05	 test	 ah, 5
  0725d	7a 04		 jp	 SHORT $LN2@IsFenrirDe

; 3680 : 	{
; 3681 : 		return 0;

  0725f	33 c0		 xor	 eax, eax
  07261	eb 18		 jmp	 SHORT $LN3@IsFenrirDe
$LN2@IsFenrirDe:

; 3682 : 	}
; 3683 : 
; 3684 : 	if ( (this->m_NewOption&2) == 2 )

  07263	8b 45 fc	 mov	 eax, DWORD PTR _this$[ebp]
  07266	0f b6 88 97 00
	00 00		 movzx	 ecx, BYTE PTR [eax+151]
  0726d	83 e1 02	 and	 ecx, 2
  07270	74 07		 je	 SHORT $LN1@IsFenrirDe

; 3685 : 	{
; 3686 : 		return 10;

  07272	b8 0a 00 00 00	 mov	 eax, 10			; 0000000aH
  07277	eb 02		 jmp	 SHORT $LN3@IsFenrirDe
$LN1@IsFenrirDe:

; 3687 : 	}
; 3688 : 
; 3689 : 	return 0;

  07279	33 c0		 xor	 eax, eax
$LN3@IsFenrirDe:

; 3690 : }

  0727b	5f		 pop	 edi
  0727c	5e		 pop	 esi
  0727d	5b		 pop	 ebx
  0727e	8b e5		 mov	 esp, ebp
  07280	5d		 pop	 ebp
  07281	c3		 ret	 0
?IsFenrirDecLastAttackDamage@CItem@@QAEHXZ ENDP		; CItem::IsFenrirDecLastAttackDamage
_TEXT	ENDS
PUBLIC	?IsFenrirSpecial@CItem@@QAEHXZ			; CItem::IsFenrirSpecial
; Function compile flags: /Odtp /ZI
_TEXT	SEGMENT
_this$ = -4						; size = 4
?IsFenrirSpecial@CItem@@QAEHXZ PROC			; CItem::IsFenrirSpecial
; _this$ = ecx

; 3693 : {

  07290	55		 push	 ebp
  07291	8b ec		 mov	 ebp, esp
  07293	83 ec 44	 sub	 esp, 68			; 00000044H
  07296	53		 push	 ebx
  07297	56		 push	 esi
  07298	57		 push	 edi
  07299	89 4d fc	 mov	 DWORD PTR _this$[ebp], ecx

; 3694 : 	if ( this->m_Durability < 1.0f )

  0729c	8b 45 fc	 mov	 eax, DWORD PTR _this$[ebp]
  0729f	d9 40 24	 fld	 DWORD PTR [eax+36]
  072a2	dc 1d 00 00 00
	00		 fcomp	 QWORD PTR __real@3ff0000000000000
  072a8	df e0		 fnstsw	 ax
  072aa	f6 c4 05	 test	 ah, 5
  072ad	7a 04		 jp	 SHORT $LN2@IsFenrirSp

; 3695 : 	{
; 3696 : 		return 0;

  072af	33 c0		 xor	 eax, eax
  072b1	eb 18		 jmp	 SHORT $LN3@IsFenrirSp
$LN2@IsFenrirSp:

; 3697 : 	}
; 3698 : 
; 3699 : 	if ( (this->m_NewOption&4) == 4 )

  072b3	8b 45 fc	 mov	 eax, DWORD PTR _this$[ebp]
  072b6	0f b6 88 97 00
	00 00		 movzx	 ecx, BYTE PTR [eax+151]
  072bd	83 e1 04	 and	 ecx, 4
  072c0	74 07		 je	 SHORT $LN1@IsFenrirSp

; 3700 : 	{
; 3701 : 		return 1;

  072c2	b8 01 00 00 00	 mov	 eax, 1
  072c7	eb 02		 jmp	 SHORT $LN3@IsFenrirSp
$LN1@IsFenrirSp:

; 3702 : 	}
; 3703 : 
; 3704 : 	return 0;

  072c9	33 c0		 xor	 eax, eax
$LN3@IsFenrirSp:

; 3705 : }

  072cb	5f		 pop	 edi
  072cc	5e		 pop	 esi
  072cd	5b		 pop	 ebx
  072ce	8b e5		 mov	 esp, ebp
  072d0	5d		 pop	 ebp
  072d1	c3		 ret	 0
?IsFenrirSpecial@CItem@@QAEHXZ ENDP			; CItem::IsFenrirSpecial
_TEXT	ENDS
PUBLIC	?IsWhiteTiger@CItem@@QAEHXZ			; CItem::IsWhiteTiger
; Function compile flags: /Odtp /ZI
_TEXT	SEGMENT
_this$ = -4						; size = 4
?IsWhiteTiger@CItem@@QAEHXZ PROC			; CItem::IsWhiteTiger
; _this$ = ecx

; 3709 : {

  072e0	55		 push	 ebp
  072e1	8b ec		 mov	 ebp, esp
  072e3	83 ec 44	 sub	 esp, 68			; 00000044H
  072e6	53		 push	 ebx
  072e7	56		 push	 esi
  072e8	57		 push	 edi
  072e9	89 4d fc	 mov	 DWORD PTR _this$[ebp], ecx

; 3710 : 	if (this->m_Durability < 1.0f) {

  072ec	8b 45 fc	 mov	 eax, DWORD PTR _this$[ebp]
  072ef	d9 40 24	 fld	 DWORD PTR [eax+36]
  072f2	dc 1d 00 00 00
	00		 fcomp	 QWORD PTR __real@3ff0000000000000
  072f8	df e0		 fnstsw	 ax
  072fa	f6 c4 05	 test	 ah, 5
  072fd	7a 04		 jp	 SHORT $LN2@IsWhiteTig

; 3711 : 		return 0;

  072ff	33 c0		 xor	 eax, eax
  07301	eb 18		 jmp	 SHORT $LN3@IsWhiteTig
$LN2@IsWhiteTig:

; 3712 : 	}
; 3713 : 
; 3714 : 	if ((this->m_NewOption & 8) == 8) {

  07303	8b 45 fc	 mov	 eax, DWORD PTR _this$[ebp]
  07306	0f b6 88 97 00
	00 00		 movzx	 ecx, BYTE PTR [eax+151]
  0730d	83 e1 08	 and	 ecx, 8
  07310	74 07		 je	 SHORT $LN1@IsWhiteTig

; 3715 : 		return 20;//LeeHenry.Fenrir_DecDamagePercent;

  07312	b8 14 00 00 00	 mov	 eax, 20			; 00000014H
  07317	eb 02		 jmp	 SHORT $LN3@IsWhiteTig
$LN1@IsWhiteTig:

; 3716 : 	}
; 3717 : 	/*else if ((this->m_NewOption & 4) == 4) {
; 3718 : 		if (LeeHenry.Fenrir_FixGold != 0) {
; 3719 : 			return LeeHenry.Fenrir_DecDamagePercent;
; 3720 : 		}
; 3721 : 	}*/
; 3722 : 
; 3723 : 	return 0;

  07319	33 c0		 xor	 eax, eax
$LN3@IsWhiteTig:

; 3724 : }

  0731b	5f		 pop	 edi
  0731c	5e		 pop	 esi
  0731d	5b		 pop	 ebx
  0731e	8b e5		 mov	 esp, ebp
  07320	5d		 pop	 ebp
  07321	c3		 ret	 0
?IsWhiteTiger@CItem@@QAEHXZ ENDP			; CItem::IsWhiteTiger
_TEXT	ENDS
PUBLIC	?IsHullWolf@CItem@@QAEHXZ			; CItem::IsHullWolf
; Function compile flags: /Odtp /ZI
_TEXT	SEGMENT
_this$ = -4						; size = 4
?IsHullWolf@CItem@@QAEHXZ PROC				; CItem::IsHullWolf
; _this$ = ecx

; 3727 : {

  07330	55		 push	 ebp
  07331	8b ec		 mov	 ebp, esp
  07333	83 ec 44	 sub	 esp, 68			; 00000044H
  07336	53		 push	 ebx
  07337	56		 push	 esi
  07338	57		 push	 edi
  07339	89 4d fc	 mov	 DWORD PTR _this$[ebp], ecx

; 3728 : 	if (this->m_Durability < 1.0f) {

  0733c	8b 45 fc	 mov	 eax, DWORD PTR _this$[ebp]
  0733f	d9 40 24	 fld	 DWORD PTR [eax+36]
  07342	dc 1d 00 00 00
	00		 fcomp	 QWORD PTR __real@3ff0000000000000
  07348	df e0		 fnstsw	 ax
  0734a	f6 c4 05	 test	 ah, 5
  0734d	7a 04		 jp	 SHORT $LN2@IsHullWolf

; 3729 : 		return 0;

  0734f	33 c0		 xor	 eax, eax
  07351	eb 18		 jmp	 SHORT $LN3@IsHullWolf
$LN2@IsHullWolf:

; 3730 : 	}
; 3731 : 
; 3732 : 	if ((this->m_NewOption & 16) == 16) {

  07353	8b 45 fc	 mov	 eax, DWORD PTR _this$[ebp]
  07356	0f b6 88 97 00
	00 00		 movzx	 ecx, BYTE PTR [eax+151]
  0735d	83 e1 10	 and	 ecx, 16			; 00000010H
  07360	74 07		 je	 SHORT $LN1@IsHullWolf

; 3733 : 		return 20;//LeeHenry.Fenrir_DecDamagePercent;

  07362	b8 14 00 00 00	 mov	 eax, 20			; 00000014H
  07367	eb 02		 jmp	 SHORT $LN3@IsHullWolf
$LN1@IsHullWolf:

; 3734 : 	}
; 3735 : 	/*else if ((this->m_NewOption & 4) == 4) {
; 3736 : 		if (LeeHenry.Fenrir_FixGold != 0) {
; 3737 : 			return LeeHenry.Fenrir_DecDamagePercent;
; 3738 : 		}
; 3739 : 	}*/
; 3740 : 
; 3741 : 	return 0;

  07369	33 c0		 xor	 eax, eax
$LN3@IsHullWolf:

; 3742 : }

  0736b	5f		 pop	 edi
  0736c	5e		 pop	 esi
  0736d	5b		 pop	 ebx
  0736e	8b e5		 mov	 esp, ebp
  07370	5d		 pop	 ebp
  07371	c3		 ret	 0
?IsHullWolf@CItem@@QAEHXZ ENDP				; CItem::IsHullWolf
_TEXT	ENDS
PUBLIC	?IsBeast@CItem@@QAEHXZ				; CItem::IsBeast
; Function compile flags: /Odtp /ZI
_TEXT	SEGMENT
_this$ = -4						; size = 4
?IsBeast@CItem@@QAEHXZ PROC				; CItem::IsBeast
; _this$ = ecx

; 3745 : {

  07380	55		 push	 ebp
  07381	8b ec		 mov	 ebp, esp
  07383	83 ec 44	 sub	 esp, 68			; 00000044H
  07386	53		 push	 ebx
  07387	56		 push	 esi
  07388	57		 push	 edi
  07389	89 4d fc	 mov	 DWORD PTR _this$[ebp], ecx

; 3746 : 	if (this->m_Durability < 1.0f) {

  0738c	8b 45 fc	 mov	 eax, DWORD PTR _this$[ebp]
  0738f	d9 40 24	 fld	 DWORD PTR [eax+36]
  07392	dc 1d 00 00 00
	00		 fcomp	 QWORD PTR __real@3ff0000000000000
  07398	df e0		 fnstsw	 ax
  0739a	f6 c4 05	 test	 ah, 5
  0739d	7a 04		 jp	 SHORT $LN2@IsBeast

; 3747 : 		return 0;

  0739f	33 c0		 xor	 eax, eax
  073a1	eb 18		 jmp	 SHORT $LN3@IsBeast
$LN2@IsBeast:

; 3748 : 	}
; 3749 : 
; 3750 : 	if ((this->m_NewOption & 32) == 32) {

  073a3	8b 45 fc	 mov	 eax, DWORD PTR _this$[ebp]
  073a6	0f b6 88 97 00
	00 00		 movzx	 ecx, BYTE PTR [eax+151]
  073ad	83 e1 20	 and	 ecx, 32			; 00000020H
  073b0	74 07		 je	 SHORT $LN1@IsBeast

; 3751 : 		return 20;//LeeHenry.Fenrir_DecDamagePercent;

  073b2	b8 14 00 00 00	 mov	 eax, 20			; 00000014H
  073b7	eb 02		 jmp	 SHORT $LN3@IsBeast
$LN1@IsBeast:

; 3752 : 	}
; 3753 : 	/*else if ((this->m_NewOption & 4) == 4) {
; 3754 : 		if (LeeHenry.Fenrir_FixGold != 0) {
; 3755 : 			return LeeHenry.Fenrir_DecDamagePercent;
; 3756 : 		}
; 3757 : 	}*/
; 3758 : 
; 3759 : 	return 0;

  073b9	33 c0		 xor	 eax, eax
$LN3@IsBeast:

; 3760 : }

  073bb	5f		 pop	 edi
  073bc	5e		 pop	 esi
  073bd	5b		 pop	 ebx
  073be	8b e5		 mov	 esp, ebp
  073c0	5d		 pop	 ebp
  073c1	c3		 ret	 0
?IsBeast@CItem@@QAEHXZ ENDP				; CItem::IsBeast
_TEXT	ENDS
PUBLIC	?IsThirdWingOpGetOnePercentDamage@CItem@@QAEHXZ	; CItem::IsThirdWingOpGetOnePercentDamage
; Function compile flags: /Odtp /ZI
_TEXT	SEGMENT
tv136 = -72						; size = 4
tv95 = -72						; size = 4
tv86 = -72						; size = 4
tv77 = -72						; size = 4
_this$ = -4						; size = 4
?IsThirdWingOpGetOnePercentDamage@CItem@@QAEHXZ PROC	; CItem::IsThirdWingOpGetOnePercentDamage
; _this$ = ecx

; 3764 : {

  073d0	55		 push	 ebp
  073d1	8b ec		 mov	 ebp, esp
  073d3	83 ec 48	 sub	 esp, 72			; 00000048H
  073d6	53		 push	 ebx
  073d7	56		 push	 esi
  073d8	57		 push	 edi
  073d9	89 4d fc	 mov	 DWORD PTR _this$[ebp], ecx

; 3765 : 
; 3766 : 	if ( this->m_Type >= ITEMGET(12,36) && this->m_Type <= ITEMGET(12,40) ||
; 3767 : #ifdef NEWWINGS_2_5
; 3768 : 		IS_NEWWINGS_2_5(this->m_Type) ||
; 3769 : #endif
; 3770 : #ifdef NEWWINGS_4
; 3771 : 		IS_NEWWINGS_4(this->m_Type) ||
; 3772 : #endif
; 3773 : #ifdef NEWWINGS_5
; 3774 : 		IS_NEWWINGS_5(this->m_Type) ||
; 3775 : #endif
; 3776 : #ifdef NEWWINGS_6
; 3777 : 		IS_NEWWINGS_6(this->m_Type) ||
; 3778 : #endif
; 3779 : 		this->m_Type == ITEMGET(12,43))	//Custom Wings4

  073dc	8b 45 fc	 mov	 eax, DWORD PTR _this$[ebp]
  073df	0f bf 48 06	 movsx	 ecx, WORD PTR [eax+6]
  073e3	81 f9 24 18 00
	00		 cmp	 ecx, 6180		; 00001824H
  073e9	7c 13		 jl	 SHORT $LN4@IsThirdWin
  073eb	8b 45 fc	 mov	 eax, DWORD PTR _this$[ebp]
  073ee	0f bf 48 06	 movsx	 ecx, WORD PTR [eax+6]
  073f2	81 f9 28 18 00
	00		 cmp	 ecx, 6184		; 00001828H
  073f8	0f 8e db 00 00
	00		 jle	 $LN5@IsThirdWin
$LN4@IsThirdWin:
  073fe	8b 45 fc	 mov	 eax, DWORD PTR _this$[ebp]
  07401	0f bf 48 06	 movsx	 ecx, WORD PTR [eax+6]
  07405	81 f9 ba 18 00
	00		 cmp	 ecx, 6330		; 000018baH
  0740b	7d 09		 jge	 SHORT $LN9@IsThirdWin
  0740d	c7 45 b8 00 00
	00 00		 mov	 DWORD PTR tv77[ebp], 0
  07414	eb 14		 jmp	 SHORT $LN10@IsThirdWin
$LN9@IsThirdWin:
  07416	8b 55 fc	 mov	 edx, DWORD PTR _this$[ebp]
  07419	0f bf 42 06	 movsx	 eax, WORD PTR [edx+6]
  0741d	33 c9		 xor	 ecx, ecx
  0741f	3d bc 18 00 00	 cmp	 eax, 6332		; 000018bcH
  07424	0f 9e c1	 setle	 cl
  07427	89 4d b8	 mov	 DWORD PTR tv77[ebp], ecx
$LN10@IsThirdWin:
  0742a	83 7d b8 00	 cmp	 DWORD PTR tv77[ebp], 0
  0742e	0f 85 a5 00 00
	00		 jne	 $LN5@IsThirdWin
  07434	8b 45 fc	 mov	 eax, DWORD PTR _this$[ebp]
  07437	0f bf 48 06	 movsx	 ecx, WORD PTR [eax+6]
  0743b	81 f9 b4 18 00
	00		 cmp	 ecx, 6324		; 000018b4H
  07441	7d 09		 jge	 SHORT $LN11@IsThirdWin
  07443	c7 45 b8 00 00
	00 00		 mov	 DWORD PTR tv86[ebp], 0
  0744a	eb 14		 jmp	 SHORT $LN12@IsThirdWin
$LN11@IsThirdWin:
  0744c	8b 55 fc	 mov	 edx, DWORD PTR _this$[ebp]
  0744f	0f bf 42 06	 movsx	 eax, WORD PTR [edx+6]
  07453	33 c9		 xor	 ecx, ecx
  07455	3d b9 18 00 00	 cmp	 eax, 6329		; 000018b9H
  0745a	0f 9e c1	 setle	 cl
  0745d	89 4d b8	 mov	 DWORD PTR tv86[ebp], ecx
$LN12@IsThirdWin:
  07460	83 7d b8 00	 cmp	 DWORD PTR tv86[ebp], 0
  07464	75 73		 jne	 SHORT $LN5@IsThirdWin
  07466	8b 45 fc	 mov	 eax, DWORD PTR _this$[ebp]
  07469	0f bf 48 06	 movsx	 ecx, WORD PTR [eax+6]
  0746d	81 f9 bd 18 00
	00		 cmp	 ecx, 6333		; 000018bdH
  07473	7d 09		 jge	 SHORT $LN13@IsThirdWin
  07475	c7 45 b8 00 00
	00 00		 mov	 DWORD PTR tv95[ebp], 0
  0747c	eb 14		 jmp	 SHORT $LN14@IsThirdWin
$LN13@IsThirdWin:
  0747e	8b 55 fc	 mov	 edx, DWORD PTR _this$[ebp]
  07481	0f bf 42 06	 movsx	 eax, WORD PTR [edx+6]
  07485	33 c9		 xor	 ecx, ecx
  07487	3d c2 18 00 00	 cmp	 eax, 6338		; 000018c2H
  0748c	0f 9e c1	 setle	 cl
  0748f	89 4d b8	 mov	 DWORD PTR tv95[ebp], ecx
$LN14@IsThirdWin:
  07492	83 7d b8 00	 cmp	 DWORD PTR tv95[ebp], 0
  07496	75 41		 jne	 SHORT $LN5@IsThirdWin
  07498	8b 45 fc	 mov	 eax, DWORD PTR _this$[ebp]
  0749b	0f bf 48 06	 movsx	 ecx, WORD PTR [eax+6]
  0749f	81 f9 c3 18 00
	00		 cmp	 ecx, 6339		; 000018c3H
  074a5	7d 09		 jge	 SHORT $LN15@IsThirdWin
  074a7	c7 45 b8 00 00
	00 00		 mov	 DWORD PTR tv136[ebp], 0
  074ae	eb 14		 jmp	 SHORT $LN16@IsThirdWin
$LN15@IsThirdWin:
  074b0	8b 55 fc	 mov	 edx, DWORD PTR _this$[ebp]
  074b3	0f bf 42 06	 movsx	 eax, WORD PTR [edx+6]
  074b7	33 c9		 xor	 ecx, ecx
  074b9	3d dc 18 00 00	 cmp	 eax, 6364		; 000018dcH
  074be	0f 9e c1	 setle	 cl
  074c1	89 4d b8	 mov	 DWORD PTR tv136[ebp], ecx
$LN16@IsThirdWin:
  074c4	83 7d b8 00	 cmp	 DWORD PTR tv136[ebp], 0
  074c8	75 0f		 jne	 SHORT $LN5@IsThirdWin
  074ca	8b 45 fc	 mov	 eax, DWORD PTR _this$[ebp]
  074cd	0f bf 48 06	 movsx	 ecx, WORD PTR [eax+6]
  074d1	81 f9 2b 18 00
	00		 cmp	 ecx, 6187		; 0000182bH
  074d7	75 2f		 jne	 SHORT $LN1@IsThirdWin
$LN5@IsThirdWin:

; 3780 : 	
; 3781 : 	{
; 3782 : 		if ( this->m_Durability < 1.0f )

  074d9	8b 45 fc	 mov	 eax, DWORD PTR _this$[ebp]
  074dc	d9 40 24	 fld	 DWORD PTR [eax+36]
  074df	dc 1d 00 00 00
	00		 fcomp	 QWORD PTR __real@3ff0000000000000
  074e5	df e0		 fnstsw	 ax
  074e7	f6 c4 05	 test	 ah, 5
  074ea	7a 06		 jp	 SHORT $LN3@IsThirdWin

; 3783 : 		{
; 3784 : 			return 0;

  074ec	33 c0		 xor	 eax, eax
  074ee	eb 1a		 jmp	 SHORT $LN7@IsThirdWin
  074f0	eb 16		 jmp	 SHORT $LN1@IsThirdWin
$LN3@IsThirdWin:

; 3785 : 		}
; 3786 : 		else if ( (this->m_NewOption&1) == 1 )

  074f2	8b 45 fc	 mov	 eax, DWORD PTR _this$[ebp]
  074f5	0f b6 88 97 00
	00 00		 movzx	 ecx, BYTE PTR [eax+151]
  074fc	83 e1 01	 and	 ecx, 1
  074ff	74 07		 je	 SHORT $LN1@IsThirdWin

; 3787 : 		{
; 3788 : 			return 5;

  07501	b8 05 00 00 00	 mov	 eax, 5
  07506	eb 02		 jmp	 SHORT $LN7@IsThirdWin
$LN1@IsThirdWin:

; 3789 : 		}
; 3790 : 	}
; 3791 : 
; 3792 : 	return 0;

  07508	33 c0		 xor	 eax, eax
$LN7@IsThirdWin:

; 3793 : }

  0750a	5f		 pop	 edi
  0750b	5e		 pop	 esi
  0750c	5b		 pop	 ebx
  0750d	8b e5		 mov	 esp, ebp
  0750f	5d		 pop	 ebp
  07510	c3		 ret	 0
?IsThirdWingOpGetOnePercentDamage@CItem@@QAEHXZ ENDP	; CItem::IsThirdWingOpGetOnePercentDamage
_TEXT	ENDS
PUBLIC	?CheckDurabilityState@CItem@@QAEHXZ		; CItem::CheckDurabilityState
PUBLIC	?SimpleDurabilityDown@CItem@@QAEHH@Z		; CItem::SimpleDurabilityDown
; Function compile flags: /Odtp /ZI
_TEXT	SEGMENT
_this$ = -4						; size = 4
_iDecValue$ = 8						; size = 4
?SimpleDurabilityDown@CItem@@QAEHH@Z PROC		; CItem::SimpleDurabilityDown
; _this$ = ecx

; 3796 : {

  07520	55		 push	 ebp
  07521	8b ec		 mov	 ebp, esp
  07523	83 ec 44	 sub	 esp, 68			; 00000044H
  07526	53		 push	 ebx
  07527	56		 push	 esi
  07528	57		 push	 edi
  07529	89 4d fc	 mov	 DWORD PTR _this$[ebp], ecx

; 3797 : 	this->m_Durability -= 1.0f ;

  0752c	8b 45 fc	 mov	 eax, DWORD PTR _this$[ebp]
  0752f	d9 40 24	 fld	 DWORD PTR [eax+36]
  07532	dc 25 00 00 00
	00		 fsub	 QWORD PTR __real@3ff0000000000000
  07538	8b 4d fc	 mov	 ecx, DWORD PTR _this$[ebp]
  0753b	d9 59 24	 fstp	 DWORD PTR [ecx+36]

; 3798 : 
; 3799 : 	if ( this->m_Durability < 0 )

  0753e	8b 45 fc	 mov	 eax, DWORD PTR _this$[ebp]
  07541	d9 40 24	 fld	 DWORD PTR [eax+36]
  07544	dc 1d 00 00 00
	00		 fcomp	 QWORD PTR __real@0000000000000000
  0754a	df e0		 fnstsw	 ax
  0754c	f6 c4 05	 test	 ah, 5
  0754f	7a 0c		 jp	 SHORT $LN2@SimpleDura

; 3800 : 	{
; 3801 : 		this->m_Durability = 0.0f;

  07551	8b 45 fc	 mov	 eax, DWORD PTR _this$[ebp]
  07554	d9 ee		 fldz
  07556	d9 58 24	 fstp	 DWORD PTR [eax+36]

; 3802 : 		return 0;

  07559	33 c0		 xor	 eax, eax
  0755b	eb 1e		 jmp	 SHORT $LN3@SimpleDura
$LN2@SimpleDura:

; 3803 : 	}
; 3804 : 
; 3805 : 	if ( this->CheckDurabilityState() != 0 )

  0755d	8b 4d fc	 mov	 ecx, DWORD PTR _this$[ebp]
  07560	e8 00 00 00 00	 call	 ?CheckDurabilityState@CItem@@QAEHXZ ; CItem::CheckDurabilityState
  07565	85 c0		 test	 eax, eax
  07567	74 07		 je	 SHORT $LN1@SimpleDura

; 3806 : 	{
; 3807 : 		return 2;

  07569	b8 02 00 00 00	 mov	 eax, 2
  0756e	eb 0b		 jmp	 SHORT $LN3@SimpleDura
$LN1@SimpleDura:

; 3808 : 	}
; 3809 : 
; 3810 : 	return (int)this->m_Durability;

  07570	8b 45 fc	 mov	 eax, DWORD PTR _this$[ebp]
  07573	d9 40 24	 fld	 DWORD PTR [eax+36]
  07576	e8 00 00 00 00	 call	 __ftol2_sse
$LN3@SimpleDura:

; 3811 : }

  0757b	5f		 pop	 edi
  0757c	5e		 pop	 esi
  0757d	5b		 pop	 ebx
  0757e	8b e5		 mov	 esp, ebp
  07580	5d		 pop	 ebp
  07581	c2 04 00	 ret	 4
?SimpleDurabilityDown@CItem@@QAEHH@Z ENDP		; CItem::SimpleDurabilityDown
_TEXT	ENDS
PUBLIC	?DurabilityDown@CItem@@QAEHHH@Z			; CItem::DurabilityDown
EXTRN	?CheckUser@CExLicense@@QAE_NH@Z:PROC		; CExLicense::CheckUser
EXTRN	?g_ExLicense@@3VCExLicense@@A:BYTE		; g_ExLicense
EXTRN	?gObj@@3PAUOBJECTSTRUCT@@A:DWORD		; gObj
; Function compile flags: /Odtp /ZI
_TEXT	SEGMENT
_DurabilitySmall$ = -8					; size = 4
_this$ = -4						; size = 4
_dur$ = 8						; size = 4
_iDecValue$ = 12					; size = 4
?DurabilityDown@CItem@@QAEHHH@Z PROC			; CItem::DurabilityDown
; _this$ = ecx

; 3814 : {

  07590	55		 push	 ebp
  07591	8b ec		 mov	 ebp, esp
  07593	83 ec 48	 sub	 esp, 72			; 00000048H
  07596	53		 push	 ebx
  07597	56		 push	 esi
  07598	57		 push	 edi
  07599	89 4d fc	 mov	 DWORD PTR _this$[ebp], ecx

; 3815 : 	if ( this->m_Durability <= 0 )

  0759c	8b 45 fc	 mov	 eax, DWORD PTR _this$[ebp]
  0759f	d9 40 24	 fld	 DWORD PTR [eax+36]
  075a2	dc 1d 00 00 00
	00		 fcomp	 QWORD PTR __real@0000000000000000
  075a8	df e0		 fnstsw	 ax
  075aa	f6 c4 41	 test	 ah, 65			; 00000041H
  075ad	7a 07		 jp	 SHORT $LN7@Durability

; 3816 : 	{
; 3817 : 		return 0;

  075af	33 c0		 xor	 eax, eax
  075b1	e9 34 01 00 00	 jmp	 $LN8@Durability
$LN7@Durability:

; 3818 : 	}
; 3819 : 
; 3820 : 	this->m_DurabilitySmall += dur;

  075b6	8b 45 fc	 mov	 eax, DWORD PTR _this$[ebp]
  075b9	0f b7 48 28	 movzx	 ecx, WORD PTR [eax+40]
  075bd	03 4d 08	 add	 ecx, DWORD PTR _dur$[ebp]
  075c0	8b 55 fc	 mov	 edx, DWORD PTR _this$[ebp]
  075c3	66 89 4a 28	 mov	 WORD PTR [edx+40], cx

; 3821 : 
; 3822 : 	int DurabilitySmall = 564;

  075c7	c7 45 f8 34 02
	00 00		 mov	 DWORD PTR _DurabilitySmall$[ebp], 564 ; 00000234H

; 3823 : 
; 3824 : 	if(gObj[iDecValue].m_MPSkillOpt.MpsDownDur2 > 0)

  075ce	8b 45 0c	 mov	 eax, DWORD PTR _iDecValue$[ebp]
  075d1	69 c0 38 2b 00
	00		 imul	 eax, 11064		; 00002b38H
  075d7	8b 0d 00 00 00
	00		 mov	 ecx, DWORD PTR ?gObj@@3PAUOBJECTSTRUCT@@A ; gObj
  075dd	d9 84 01 4c 26
	00 00		 fld	 DWORD PTR [ecx+eax+9804]
  075e4	dc 1d 00 00 00
	00		 fcomp	 QWORD PTR __real@0000000000000000
  075ea	df e0		 fnstsw	 ax
  075ec	f6 c4 41	 test	 ah, 65			; 00000041H
  075ef	75 2a		 jne	 SHORT $LN6@Durability

; 3825 : 	{
; 3826 : 		DurabilitySmall += DurabilitySmall * gObj[iDecValue].m_MPSkillOpt.MpsDownDur2 / 100;

  075f1	db 45 f8	 fild	 DWORD PTR _DurabilitySmall$[ebp]
  075f4	8b 45 0c	 mov	 eax, DWORD PTR _iDecValue$[ebp]
  075f7	69 c0 38 2b 00
	00		 imul	 eax, 11064		; 00002b38H
  075fd	8b 0d 00 00 00
	00		 mov	 ecx, DWORD PTR ?gObj@@3PAUOBJECTSTRUCT@@A ; gObj
  07603	d8 8c 01 4c 26
	00 00		 fmul	 DWORD PTR [ecx+eax+9804]
  0760a	dc 35 00 00 00
	00		 fdiv	 QWORD PTR __real@4059000000000000
  07610	da 45 f8	 fiadd	 DWORD PTR _DurabilitySmall$[ebp]
  07613	e8 00 00 00 00	 call	 __ftol2_sse
  07618	89 45 f8	 mov	 DWORD PTR _DurabilitySmall$[ebp], eax
$LN6@Durability:

; 3827 : 	}
; 3828 : 
; 3829 : 	if(g_ExLicense.CheckUser(eExUB::Artem) || g_ExLicense.CheckUser(eExUB::Artem2) || 
; 3830 : 		g_ExLicense.CheckUser(eExUB::Gredy) || g_ExLicense.CheckUser(eExUB::Gredy2) || g_ExLicense.CheckUser(eExUB::GredyLocal))

  0761b	6a 30		 push	 48			; 00000030H
  0761d	b9 00 00 00 00	 mov	 ecx, OFFSET ?g_ExLicense@@3VCExLicense@@A ; g_ExLicense
  07622	e8 00 00 00 00	 call	 ?CheckUser@CExLicense@@QAE_NH@Z ; CExLicense::CheckUser
  07627	0f b6 c0	 movzx	 eax, al
  0762a	85 c0		 test	 eax, eax
  0762c	75 4c		 jne	 SHORT $LN4@Durability
  0762e	6a 31		 push	 49			; 00000031H
  07630	b9 00 00 00 00	 mov	 ecx, OFFSET ?g_ExLicense@@3VCExLicense@@A ; g_ExLicense
  07635	e8 00 00 00 00	 call	 ?CheckUser@CExLicense@@QAE_NH@Z ; CExLicense::CheckUser
  0763a	0f b6 c0	 movzx	 eax, al
  0763d	85 c0		 test	 eax, eax
  0763f	75 39		 jne	 SHORT $LN4@Durability
  07641	6a 20		 push	 32			; 00000020H
  07643	b9 00 00 00 00	 mov	 ecx, OFFSET ?g_ExLicense@@3VCExLicense@@A ; g_ExLicense
  07648	e8 00 00 00 00	 call	 ?CheckUser@CExLicense@@QAE_NH@Z ; CExLicense::CheckUser
  0764d	0f b6 c0	 movzx	 eax, al
  07650	85 c0		 test	 eax, eax
  07652	75 26		 jne	 SHORT $LN4@Durability
  07654	6a 22		 push	 34			; 00000022H
  07656	b9 00 00 00 00	 mov	 ecx, OFFSET ?g_ExLicense@@3VCExLicense@@A ; g_ExLicense
  0765b	e8 00 00 00 00	 call	 ?CheckUser@CExLicense@@QAE_NH@Z ; CExLicense::CheckUser
  07660	0f b6 c0	 movzx	 eax, al
  07663	85 c0		 test	 eax, eax
  07665	75 13		 jne	 SHORT $LN4@Durability
  07667	6a 21		 push	 33			; 00000021H
  07669	b9 00 00 00 00	 mov	 ecx, OFFSET ?g_ExLicense@@3VCExLicense@@A ; g_ExLicense
  0766e	e8 00 00 00 00	 call	 ?CheckUser@CExLicense@@QAE_NH@Z ; CExLicense::CheckUser
  07673	0f b6 c0	 movzx	 eax, al
  07676	85 c0		 test	 eax, eax
  07678	74 09		 je	 SHORT $LN5@Durability
$LN4@Durability:

; 3831 : 	{
; 3832 : 		DurabilitySmall *= 3;

  0767a	8b 45 f8	 mov	 eax, DWORD PTR _DurabilitySmall$[ebp]
  0767d	6b c0 03	 imul	 eax, 3
  07680	89 45 f8	 mov	 DWORD PTR _DurabilitySmall$[ebp], eax
$LN5@Durability:

; 3833 : 	}
; 3834 : 
; 3835 : 	if ( this->m_DurabilitySmall > DurabilitySmall )

  07683	8b 45 fc	 mov	 eax, DWORD PTR _this$[ebp]
  07686	0f b7 48 28	 movzx	 ecx, WORD PTR [eax+40]
  0768a	3b 4d f8	 cmp	 ecx, DWORD PTR _DurabilitySmall$[ebp]
  0768d	7e 50		 jle	 SHORT $LN3@Durability

; 3836 : 	{
; 3837 : 		this->m_DurabilitySmall = 0;

  0768f	33 c0		 xor	 eax, eax
  07691	8b 4d fc	 mov	 ecx, DWORD PTR _this$[ebp]
  07694	66 89 41 28	 mov	 WORD PTR [ecx+40], ax

; 3838 : 		this->m_Durability -= 1.0f;

  07698	8b 45 fc	 mov	 eax, DWORD PTR _this$[ebp]
  0769b	d9 40 24	 fld	 DWORD PTR [eax+36]
  0769e	dc 25 00 00 00
	00		 fsub	 QWORD PTR __real@3ff0000000000000
  076a4	8b 4d fc	 mov	 ecx, DWORD PTR _this$[ebp]
  076a7	d9 59 24	 fstp	 DWORD PTR [ecx+36]

; 3839 : 
; 3840 : 		if ( this ->m_Durability < 0.0f )

  076aa	8b 45 fc	 mov	 eax, DWORD PTR _this$[ebp]
  076ad	d9 40 24	 fld	 DWORD PTR [eax+36]
  076b0	dc 1d 00 00 00
	00		 fcomp	 QWORD PTR __real@0000000000000000
  076b6	df e0		 fnstsw	 ax
  076b8	f6 c4 05	 test	 ah, 5
  076bb	7a 08		 jp	 SHORT $LN2@Durability

; 3841 : 		{
; 3842 : 			this->m_Durability = 0;

  076bd	8b 45 fc	 mov	 eax, DWORD PTR _this$[ebp]
  076c0	d9 ee		 fldz
  076c2	d9 58 24	 fstp	 DWORD PTR [eax+36]
$LN2@Durability:

; 3843 : 		}
; 3844 : 
; 3845 : 		if ( this->CheckDurabilityState() != FALSE )

  076c5	8b 4d fc	 mov	 ecx, DWORD PTR _this$[ebp]
  076c8	e8 00 00 00 00	 call	 ?CheckDurabilityState@CItem@@QAEHXZ ; CItem::CheckDurabilityState
  076cd	85 c0		 test	 eax, eax
  076cf	74 07		 je	 SHORT $LN1@Durability

; 3846 : 		{
; 3847 : 			return 2;

  076d1	b8 02 00 00 00	 mov	 eax, 2
  076d6	eb 12		 jmp	 SHORT $LN8@Durability
$LN1@Durability:

; 3848 : 		}
; 3849 : 		return 1;

  076d8	b8 01 00 00 00	 mov	 eax, 1
  076dd	eb 0b		 jmp	 SHORT $LN8@Durability
$LN3@Durability:

; 3850 : 	}
; 3851 : 	
; 3852 : 	return (int)this->m_Durability;

  076df	8b 45 fc	 mov	 eax, DWORD PTR _this$[ebp]
  076e2	d9 40 24	 fld	 DWORD PTR [eax+36]
  076e5	e8 00 00 00 00	 call	 __ftol2_sse
$LN8@Durability:

; 3853 : }

  076ea	5f		 pop	 edi
  076eb	5e		 pop	 esi
  076ec	5b		 pop	 ebx
  076ed	8b e5		 mov	 esp, ebp
  076ef	5d		 pop	 ebp
  076f0	c2 08 00	 ret	 8
?DurabilityDown@CItem@@QAEHHH@Z ENDP			; CItem::DurabilityDown
_TEXT	ENDS
PUBLIC	?DurabilityDown2@CItem@@QAEHHH@Z		; CItem::DurabilityDown2
; Function compile flags: /Odtp /ZI
_TEXT	SEGMENT
_DurabilitySmall$ = -8					; size = 4
_this$ = -4						; size = 4
_dur$ = 8						; size = 4
_iDecValue$ = 12					; size = 4
?DurabilityDown2@CItem@@QAEHHH@Z PROC			; CItem::DurabilityDown2
; _this$ = ecx

; 3856 : {

  07700	55		 push	 ebp
  07701	8b ec		 mov	 ebp, esp
  07703	83 ec 48	 sub	 esp, 72			; 00000048H
  07706	53		 push	 ebx
  07707	56		 push	 esi
  07708	57		 push	 edi
  07709	89 4d fc	 mov	 DWORD PTR _this$[ebp], ecx

; 3857 : 	if ( this->m_Durability <= 0 )

  0770c	8b 45 fc	 mov	 eax, DWORD PTR _this$[ebp]
  0770f	d9 40 24	 fld	 DWORD PTR [eax+36]
  07712	dc 1d 00 00 00
	00		 fcomp	 QWORD PTR __real@0000000000000000
  07718	df e0		 fnstsw	 ax
  0771a	f6 c4 41	 test	 ah, 65			; 00000041H
  0771d	7a 07		 jp	 SHORT $LN7@Durability@2

; 3858 : 	{
; 3859 : 		return 0;

  0771f	33 c0		 xor	 eax, eax
  07721	e9 2b 01 00 00	 jmp	 $LN8@Durability@2
$LN7@Durability@2:

; 3860 : 	}
; 3861 : 
; 3862 : 	this->m_DurabilitySmall += dur;

  07726	8b 45 fc	 mov	 eax, DWORD PTR _this$[ebp]
  07729	0f b7 48 28	 movzx	 ecx, WORD PTR [eax+40]
  0772d	03 4d 08	 add	 ecx, DWORD PTR _dur$[ebp]
  07730	8b 55 fc	 mov	 edx, DWORD PTR _this$[ebp]
  07733	66 89 4a 28	 mov	 WORD PTR [edx+40], cx

; 3863 : 
; 3864 : 	int DurabilitySmall = 1000;

  07737	c7 45 f8 e8 03
	00 00		 mov	 DWORD PTR _DurabilitySmall$[ebp], 1000 ; 000003e8H

; 3865 : 
; 3866 : 	if(gObj[iDecValue].m_MPSkillOpt.MpsDownDur1 > 0) //season3 add-on

  0773e	8b 45 0c	 mov	 eax, DWORD PTR _iDecValue$[ebp]
  07741	69 c0 38 2b 00
	00		 imul	 eax, 11064		; 00002b38H
  07747	8b 0d 00 00 00
	00		 mov	 ecx, DWORD PTR ?gObj@@3PAUOBJECTSTRUCT@@A ; gObj
  0774d	d9 84 01 44 26
	00 00		 fld	 DWORD PTR [ecx+eax+9796]
  07754	dc 1d 00 00 00
	00		 fcomp	 QWORD PTR __real@0000000000000000
  0775a	df e0		 fnstsw	 ax
  0775c	f6 c4 41	 test	 ah, 65			; 00000041H
  0775f	75 2a		 jne	 SHORT $LN6@Durability@2

; 3867 : 	{
; 3868 : 		DurabilitySmall += DurabilitySmall * gObj[iDecValue].m_MPSkillOpt.MpsDownDur1 / 100;

  07761	db 45 f8	 fild	 DWORD PTR _DurabilitySmall$[ebp]
  07764	8b 45 0c	 mov	 eax, DWORD PTR _iDecValue$[ebp]
  07767	69 c0 38 2b 00
	00		 imul	 eax, 11064		; 00002b38H
  0776d	8b 0d 00 00 00
	00		 mov	 ecx, DWORD PTR ?gObj@@3PAUOBJECTSTRUCT@@A ; gObj
  07773	d8 8c 01 44 26
	00 00		 fmul	 DWORD PTR [ecx+eax+9796]
  0777a	dc 35 00 00 00
	00		 fdiv	 QWORD PTR __real@4059000000000000
  07780	da 45 f8	 fiadd	 DWORD PTR _DurabilitySmall$[ebp]
  07783	e8 00 00 00 00	 call	 __ftol2_sse
  07788	89 45 f8	 mov	 DWORD PTR _DurabilitySmall$[ebp], eax
$LN6@Durability@2:

; 3869 : 	}
; 3870 : 
; 3871 : 	if(g_ExLicense.CheckUser(eExUB::Artem) || g_ExLicense.CheckUser(eExUB::Artem2) || 
; 3872 : 		g_ExLicense.CheckUser(eExUB::Gredy) || g_ExLicense.CheckUser(eExUB::Gredy2) || g_ExLicense.CheckUser(eExUB::GredyLocal))

  0778b	6a 30		 push	 48			; 00000030H
  0778d	b9 00 00 00 00	 mov	 ecx, OFFSET ?g_ExLicense@@3VCExLicense@@A ; g_ExLicense
  07792	e8 00 00 00 00	 call	 ?CheckUser@CExLicense@@QAE_NH@Z ; CExLicense::CheckUser
  07797	0f b6 c0	 movzx	 eax, al
  0779a	85 c0		 test	 eax, eax
  0779c	75 4c		 jne	 SHORT $LN4@Durability@2
  0779e	6a 31		 push	 49			; 00000031H
  077a0	b9 00 00 00 00	 mov	 ecx, OFFSET ?g_ExLicense@@3VCExLicense@@A ; g_ExLicense
  077a5	e8 00 00 00 00	 call	 ?CheckUser@CExLicense@@QAE_NH@Z ; CExLicense::CheckUser
  077aa	0f b6 c0	 movzx	 eax, al
  077ad	85 c0		 test	 eax, eax
  077af	75 39		 jne	 SHORT $LN4@Durability@2
  077b1	6a 20		 push	 32			; 00000020H
  077b3	b9 00 00 00 00	 mov	 ecx, OFFSET ?g_ExLicense@@3VCExLicense@@A ; g_ExLicense
  077b8	e8 00 00 00 00	 call	 ?CheckUser@CExLicense@@QAE_NH@Z ; CExLicense::CheckUser
  077bd	0f b6 c0	 movzx	 eax, al
  077c0	85 c0		 test	 eax, eax
  077c2	75 26		 jne	 SHORT $LN4@Durability@2
  077c4	6a 22		 push	 34			; 00000022H
  077c6	b9 00 00 00 00	 mov	 ecx, OFFSET ?g_ExLicense@@3VCExLicense@@A ; g_ExLicense
  077cb	e8 00 00 00 00	 call	 ?CheckUser@CExLicense@@QAE_NH@Z ; CExLicense::CheckUser
  077d0	0f b6 c0	 movzx	 eax, al
  077d3	85 c0		 test	 eax, eax
  077d5	75 13		 jne	 SHORT $LN4@Durability@2
  077d7	6a 21		 push	 33			; 00000021H
  077d9	b9 00 00 00 00	 mov	 ecx, OFFSET ?g_ExLicense@@3VCExLicense@@A ; g_ExLicense
  077de	e8 00 00 00 00	 call	 ?CheckUser@CExLicense@@QAE_NH@Z ; CExLicense::CheckUser
  077e3	0f b6 c0	 movzx	 eax, al
  077e6	85 c0		 test	 eax, eax
  077e8	74 09		 je	 SHORT $LN5@Durability@2
$LN4@Durability@2:

; 3873 : 	{
; 3874 : 		DurabilitySmall *= 3;

  077ea	8b 45 f8	 mov	 eax, DWORD PTR _DurabilitySmall$[ebp]
  077ed	6b c0 03	 imul	 eax, 3
  077f0	89 45 f8	 mov	 DWORD PTR _DurabilitySmall$[ebp], eax
$LN5@Durability@2:

; 3875 : 	}
; 3876 : 	
; 3877 : 	if ( this->m_DurabilitySmall > DurabilitySmall )

  077f3	8b 45 fc	 mov	 eax, DWORD PTR _this$[ebp]
  077f6	0f b7 48 28	 movzx	 ecx, WORD PTR [eax+40]
  077fa	3b 4d f8	 cmp	 ecx, DWORD PTR _DurabilitySmall$[ebp]
  077fd	7e 50		 jle	 SHORT $LN3@Durability@2

; 3878 : 	{
; 3879 : 		this->m_DurabilitySmall = 0;

  077ff	33 c0		 xor	 eax, eax
  07801	8b 4d fc	 mov	 ecx, DWORD PTR _this$[ebp]
  07804	66 89 41 28	 mov	 WORD PTR [ecx+40], ax

; 3880 : 		this->m_Durability -= 1.0f;

  07808	8b 45 fc	 mov	 eax, DWORD PTR _this$[ebp]
  0780b	d9 40 24	 fld	 DWORD PTR [eax+36]
  0780e	dc 25 00 00 00
	00		 fsub	 QWORD PTR __real@3ff0000000000000
  07814	8b 4d fc	 mov	 ecx, DWORD PTR _this$[ebp]
  07817	d9 59 24	 fstp	 DWORD PTR [ecx+36]

; 3881 : 
; 3882 : 		if ( this->m_Durability < 0.0f )

  0781a	8b 45 fc	 mov	 eax, DWORD PTR _this$[ebp]
  0781d	d9 40 24	 fld	 DWORD PTR [eax+36]
  07820	dc 1d 00 00 00
	00		 fcomp	 QWORD PTR __real@0000000000000000
  07826	df e0		 fnstsw	 ax
  07828	f6 c4 05	 test	 ah, 5
  0782b	7a 08		 jp	 SHORT $LN2@Durability@2

; 3883 : 		{
; 3884 : 			this->m_Durability = 0;

  0782d	8b 45 fc	 mov	 eax, DWORD PTR _this$[ebp]
  07830	d9 ee		 fldz
  07832	d9 58 24	 fstp	 DWORD PTR [eax+36]
$LN2@Durability@2:

; 3885 : 		}
; 3886 : 
; 3887 : 		if ( this->CheckDurabilityState() != FALSE )

  07835	8b 4d fc	 mov	 ecx, DWORD PTR _this$[ebp]
  07838	e8 00 00 00 00	 call	 ?CheckDurabilityState@CItem@@QAEHXZ ; CItem::CheckDurabilityState
  0783d	85 c0		 test	 eax, eax
  0783f	74 07		 je	 SHORT $LN1@Durability@2

; 3888 : 		{
; 3889 : 			return 2;

  07841	b8 02 00 00 00	 mov	 eax, 2
  07846	eb 09		 jmp	 SHORT $LN8@Durability@2
$LN1@Durability@2:

; 3890 : 		}
; 3891 : 		return 1;

  07848	b8 01 00 00 00	 mov	 eax, 1
  0784d	eb 02		 jmp	 SHORT $LN8@Durability@2
$LN3@Durability@2:

; 3892 : 	}
; 3893 : 	
; 3894 : 	return 0;

  0784f	33 c0		 xor	 eax, eax
$LN8@Durability@2:

; 3895 : }

  07851	5f		 pop	 edi
  07852	5e		 pop	 esi
  07853	5b		 pop	 ebx
  07854	8b e5		 mov	 esp, ebp
  07856	5d		 pop	 ebp
  07857	c2 08 00	 ret	 8
?DurabilityDown2@CItem@@QAEHHH@Z ENDP			; CItem::DurabilityDown2
_TEXT	ENDS
PUBLIC	??_C@_0BC@PKKGKBLO@damagemin?$MA?L?50?$MA?L?$LE?Y?$AA@ ; `string'
PUBLIC	?NormalWeaponDurabilityDown@CItem@@QAEHHH@Z	; CItem::NormalWeaponDurabilityDown
;	COMDAT ??_C@_0BC@PKKGKBLO@damagemin?$MA?L?50?$MA?L?$LE?Y?$AA@
CONST	SEGMENT
??_C@_0BC@PKKGKBLO@damagemin?$MA?L?50?$MA?L?$LE?Y?$AA@ DB 'damagemin', 0c0H
	DB	0ccH, ' 0', 0c0H, 0ccH, 0b4H, 0d9H, 00H	; `string'
; Function compile flags: /Odtp /ZI
CONST	ENDS
_TEXT	SEGMENT
_DurabilitySmall$ = -24					; size = 4
_DecreaseDur$ = -20					; size = 4
_div$ = -16						; size = 4
_plusdamage$ = -12					; size = 4
_damagemin$ = -8					; size = 4
_this$ = -4						; size = 4
_defense$ = 8						; size = 4
_aIndex$ = 12						; size = 4
?NormalWeaponDurabilityDown@CItem@@QAEHHH@Z PROC	; CItem::NormalWeaponDurabilityDown
; _this$ = ecx

; 3898 : {

  07860	55		 push	 ebp
  07861	8b ec		 mov	 ebp, esp
  07863	83 ec 58	 sub	 esp, 88			; 00000058H
  07866	53		 push	 ebx
  07867	56		 push	 esi
  07868	57		 push	 edi
  07869	89 4d fc	 mov	 DWORD PTR _this$[ebp], ecx

; 3899 : 	if ( this->m_Durability <= 0 )

  0786c	8b 45 fc	 mov	 eax, DWORD PTR _this$[ebp]
  0786f	d9 40 24	 fld	 DWORD PTR [eax+36]
  07872	dc 1d 00 00 00
	00		 fcomp	 QWORD PTR __real@0000000000000000
  07878	df e0		 fnstsw	 ax
  0787a	f6 c4 41	 test	 ah, 65			; 00000041H
  0787d	7a 07		 jp	 SHORT $LN9@NormalWeap

; 3900 : 	{
; 3901 : 		return 0;

  0787f	33 c0		 xor	 eax, eax
  07881	e9 ab 01 00 00	 jmp	 $LN10@NormalWeap
$LN9@NormalWeap:

; 3902 : 	}
; 3903 : 
; 3904 : 	int damagemin = this->m_DamageMinOrigin; //2

  07886	8b 45 fc	 mov	 eax, DWORD PTR _this$[ebp]
  07889	0f b7 48 1c	 movzx	 ecx, WORD PTR [eax+28]
  0788d	89 4d f8	 mov	 DWORD PTR _damagemin$[ebp], ecx

; 3905 : 	int plusdamage = 0; //3

  07890	c7 45 f4 00 00
	00 00		 mov	 DWORD PTR _plusdamage$[ebp], 0

; 3906 : 	this->PlusSpecial(&plusdamage, 80);

  07897	6a 50		 push	 80			; 00000050H
  07899	8d 45 f4	 lea	 eax, DWORD PTR _plusdamage$[ebp]
  0789c	50		 push	 eax
  0789d	8b 4d fc	 mov	 ecx, DWORD PTR _this$[ebp]
  078a0	e8 00 00 00 00	 call	 ?PlusSpecial@CItem@@QAEXPAHH@Z ; CItem::PlusSpecial

; 3907 : 
; 3908 : 	if ( damagemin == 0 )

  078a5	83 7d f8 00	 cmp	 DWORD PTR _damagemin$[ebp], 0
  078a9	75 15		 jne	 SHORT $LN8@NormalWeap

; 3909 : 	{
; 3910 : 		LogAdd("damagemin 0");

  078ab	68 00 00 00 00	 push	 OFFSET ??_C@_0BC@PKKGKBLO@damagemin?$MA?L?50?$MA?L?$LE?Y?$AA@
  078b0	ff 15 00 00 00
	00		 call	 DWORD PTR ?LogAdd@@3P6AXPADZZA ; LogAdd
  078b6	83 c4 04	 add	 esp, 4

; 3911 : 		return 0;

  078b9	33 c0		 xor	 eax, eax
  078bb	e9 71 01 00 00	 jmp	 $LN10@NormalWeap
$LN8@NormalWeap:

; 3912 : 	}
; 3913 : 
; 3914 : 	int div = damagemin + damagemin/2 + plusdamage; //4

  078c0	8b 45 f8	 mov	 eax, DWORD PTR _damagemin$[ebp]
  078c3	99		 cdq
  078c4	2b c2		 sub	 eax, edx
  078c6	d1 f8		 sar	 eax, 1
  078c8	03 45 f8	 add	 eax, DWORD PTR _damagemin$[ebp]
  078cb	03 45 f4	 add	 eax, DWORD PTR _plusdamage$[ebp]
  078ce	89 45 f0	 mov	 DWORD PTR _div$[ebp], eax

; 3915 : 
; 3916 : 	if ( div == 0 )

  078d1	75 07		 jne	 SHORT $LN7@NormalWeap

; 3917 : 	{
; 3918 : 		return 0;

  078d3	33 c0		 xor	 eax, eax
  078d5	e9 57 01 00 00	 jmp	 $LN10@NormalWeap
$LN7@NormalWeap:

; 3919 : 	}
; 3920 : 
; 3921 : 	int DecreaseDur = (defense*2)/div; //5

  078da	8b 45 08	 mov	 eax, DWORD PTR _defense$[ebp]
  078dd	d1 e0		 shl	 eax, 1
  078df	99		 cdq
  078e0	f7 7d f0	 idiv	 DWORD PTR _div$[ebp]
  078e3	89 45 ec	 mov	 DWORD PTR _DecreaseDur$[ebp], eax

; 3922 : 
; 3923 : 	DecreaseDur -= DecreaseDur*(int)this->m_SocketBonus/100; //season4 add-on

  078e6	8b 45 fc	 mov	 eax, DWORD PTR _this$[ebp]
  078e9	0f b6 88 d1 00
	00 00		 movzx	 ecx, BYTE PTR [eax+209]
  078f0	8b c1		 mov	 eax, ecx
  078f2	0f af 45 ec	 imul	 eax, DWORD PTR _DecreaseDur$[ebp]
  078f6	99		 cdq
  078f7	b9 64 00 00 00	 mov	 ecx, 100		; 00000064H
  078fc	f7 f9		 idiv	 ecx
  078fe	8b 55 ec	 mov	 edx, DWORD PTR _DecreaseDur$[ebp]
  07901	2b d0		 sub	 edx, eax
  07903	89 55 ec	 mov	 DWORD PTR _DecreaseDur$[ebp], edx

; 3924 : 
; 3925 : 	this->m_DurabilitySmall += DecreaseDur;

  07906	8b 45 fc	 mov	 eax, DWORD PTR _this$[ebp]
  07909	0f b7 48 28	 movzx	 ecx, WORD PTR [eax+40]
  0790d	03 4d ec	 add	 ecx, DWORD PTR _DecreaseDur$[ebp]
  07910	8b 55 fc	 mov	 edx, DWORD PTR _this$[ebp]
  07913	66 89 4a 28	 mov	 WORD PTR [edx+40], cx

; 3926 : 
; 3927 : 	int DurabilitySmall = 564;

  07917	c7 45 e8 34 02
	00 00		 mov	 DWORD PTR _DurabilitySmall$[ebp], 564 ; 00000234H

; 3928 : 
; 3929 : 
; 3930 : 	if(gObj[aIndex].m_MPSkillOpt.MpsDownDur1 > 0) //season3 add-on

  0791e	8b 45 0c	 mov	 eax, DWORD PTR _aIndex$[ebp]
  07921	69 c0 38 2b 00
	00		 imul	 eax, 11064		; 00002b38H
  07927	8b 0d 00 00 00
	00		 mov	 ecx, DWORD PTR ?gObj@@3PAUOBJECTSTRUCT@@A ; gObj
  0792d	d9 84 01 44 26
	00 00		 fld	 DWORD PTR [ecx+eax+9796]
  07934	dc 1d 00 00 00
	00		 fcomp	 QWORD PTR __real@0000000000000000
  0793a	df e0		 fnstsw	 ax
  0793c	f6 c4 41	 test	 ah, 65			; 00000041H
  0793f	75 2a		 jne	 SHORT $LN6@NormalWeap

; 3931 : 	{
; 3932 : 		DurabilitySmall += DurabilitySmall * gObj[aIndex].m_MPSkillOpt.MpsDownDur1 / 100;

  07941	db 45 e8	 fild	 DWORD PTR _DurabilitySmall$[ebp]
  07944	8b 45 0c	 mov	 eax, DWORD PTR _aIndex$[ebp]
  07947	69 c0 38 2b 00
	00		 imul	 eax, 11064		; 00002b38H
  0794d	8b 0d 00 00 00
	00		 mov	 ecx, DWORD PTR ?gObj@@3PAUOBJECTSTRUCT@@A ; gObj
  07953	d8 8c 01 44 26
	00 00		 fmul	 DWORD PTR [ecx+eax+9796]
  0795a	dc 35 00 00 00
	00		 fdiv	 QWORD PTR __real@4059000000000000
  07960	da 45 e8	 fiadd	 DWORD PTR _DurabilitySmall$[ebp]
  07963	e8 00 00 00 00	 call	 __ftol2_sse
  07968	89 45 e8	 mov	 DWORD PTR _DurabilitySmall$[ebp], eax
$LN6@NormalWeap:

; 3933 : 	}
; 3934 : 
; 3935 : 	if(g_ExLicense.CheckUser(eExUB::Artem) || g_ExLicense.CheckUser(eExUB::Artem2) || 
; 3936 : 		g_ExLicense.CheckUser(eExUB::Gredy) || g_ExLicense.CheckUser(eExUB::Gredy2) || g_ExLicense.CheckUser(eExUB::GredyLocal))

  0796b	6a 30		 push	 48			; 00000030H
  0796d	b9 00 00 00 00	 mov	 ecx, OFFSET ?g_ExLicense@@3VCExLicense@@A ; g_ExLicense
  07972	e8 00 00 00 00	 call	 ?CheckUser@CExLicense@@QAE_NH@Z ; CExLicense::CheckUser
  07977	0f b6 c0	 movzx	 eax, al
  0797a	85 c0		 test	 eax, eax
  0797c	75 4c		 jne	 SHORT $LN4@NormalWeap
  0797e	6a 31		 push	 49			; 00000031H
  07980	b9 00 00 00 00	 mov	 ecx, OFFSET ?g_ExLicense@@3VCExLicense@@A ; g_ExLicense
  07985	e8 00 00 00 00	 call	 ?CheckUser@CExLicense@@QAE_NH@Z ; CExLicense::CheckUser
  0798a	0f b6 c0	 movzx	 eax, al
  0798d	85 c0		 test	 eax, eax
  0798f	75 39		 jne	 SHORT $LN4@NormalWeap
  07991	6a 20		 push	 32			; 00000020H
  07993	b9 00 00 00 00	 mov	 ecx, OFFSET ?g_ExLicense@@3VCExLicense@@A ; g_ExLicense
  07998	e8 00 00 00 00	 call	 ?CheckUser@CExLicense@@QAE_NH@Z ; CExLicense::CheckUser
  0799d	0f b6 c0	 movzx	 eax, al
  079a0	85 c0		 test	 eax, eax
  079a2	75 26		 jne	 SHORT $LN4@NormalWeap
  079a4	6a 22		 push	 34			; 00000022H
  079a6	b9 00 00 00 00	 mov	 ecx, OFFSET ?g_ExLicense@@3VCExLicense@@A ; g_ExLicense
  079ab	e8 00 00 00 00	 call	 ?CheckUser@CExLicense@@QAE_NH@Z ; CExLicense::CheckUser
  079b0	0f b6 c0	 movzx	 eax, al
  079b3	85 c0		 test	 eax, eax
  079b5	75 13		 jne	 SHORT $LN4@NormalWeap
  079b7	6a 21		 push	 33			; 00000021H
  079b9	b9 00 00 00 00	 mov	 ecx, OFFSET ?g_ExLicense@@3VCExLicense@@A ; g_ExLicense
  079be	e8 00 00 00 00	 call	 ?CheckUser@CExLicense@@QAE_NH@Z ; CExLicense::CheckUser
  079c3	0f b6 c0	 movzx	 eax, al
  079c6	85 c0		 test	 eax, eax
  079c8	74 09		 je	 SHORT $LN5@NormalWeap
$LN4@NormalWeap:

; 3937 : 	{
; 3938 : 		DurabilitySmall *= 3;

  079ca	8b 45 e8	 mov	 eax, DWORD PTR _DurabilitySmall$[ebp]
  079cd	6b c0 03	 imul	 eax, 3
  079d0	89 45 e8	 mov	 DWORD PTR _DurabilitySmall$[ebp], eax
$LN5@NormalWeap:

; 3939 : 	}
; 3940 : 
; 3941 : 	if ( this->m_DurabilitySmall > DurabilitySmall )

  079d3	8b 45 fc	 mov	 eax, DWORD PTR _this$[ebp]
  079d6	0f b7 48 28	 movzx	 ecx, WORD PTR [eax+40]
  079da	3b 4d e8	 cmp	 ecx, DWORD PTR _DurabilitySmall$[ebp]
  079dd	7e 50		 jle	 SHORT $LN3@NormalWeap

; 3942 : 	{
; 3943 : 		this->m_DurabilitySmall = 0;

  079df	33 c0		 xor	 eax, eax
  079e1	8b 4d fc	 mov	 ecx, DWORD PTR _this$[ebp]
  079e4	66 89 41 28	 mov	 WORD PTR [ecx+40], ax

; 3944 : 		this->m_Durability -= 1.0f;

  079e8	8b 45 fc	 mov	 eax, DWORD PTR _this$[ebp]
  079eb	d9 40 24	 fld	 DWORD PTR [eax+36]
  079ee	dc 25 00 00 00
	00		 fsub	 QWORD PTR __real@3ff0000000000000
  079f4	8b 4d fc	 mov	 ecx, DWORD PTR _this$[ebp]
  079f7	d9 59 24	 fstp	 DWORD PTR [ecx+36]

; 3945 : 
; 3946 : 		if ( this->m_Durability < 0.0f )

  079fa	8b 45 fc	 mov	 eax, DWORD PTR _this$[ebp]
  079fd	d9 40 24	 fld	 DWORD PTR [eax+36]
  07a00	dc 1d 00 00 00
	00		 fcomp	 QWORD PTR __real@0000000000000000
  07a06	df e0		 fnstsw	 ax
  07a08	f6 c4 05	 test	 ah, 5
  07a0b	7a 08		 jp	 SHORT $LN2@NormalWeap

; 3947 : 		{
; 3948 : 			this->m_Durability = 0;

  07a0d	8b 45 fc	 mov	 eax, DWORD PTR _this$[ebp]
  07a10	d9 ee		 fldz
  07a12	d9 58 24	 fstp	 DWORD PTR [eax+36]
$LN2@NormalWeap:

; 3949 : 		}
; 3950 : 
; 3951 : 		if ( this->CheckDurabilityState() != 0 )

  07a15	8b 4d fc	 mov	 ecx, DWORD PTR _this$[ebp]
  07a18	e8 00 00 00 00	 call	 ?CheckDurabilityState@CItem@@QAEHXZ ; CItem::CheckDurabilityState
  07a1d	85 c0		 test	 eax, eax
  07a1f	74 07		 je	 SHORT $LN1@NormalWeap

; 3952 : 		{
; 3953 : 			return 2;

  07a21	b8 02 00 00 00	 mov	 eax, 2
  07a26	eb 09		 jmp	 SHORT $LN10@NormalWeap
$LN1@NormalWeap:

; 3954 : 		}
; 3955 : 		
; 3956 : 		return 1;

  07a28	b8 01 00 00 00	 mov	 eax, 1
  07a2d	eb 02		 jmp	 SHORT $LN10@NormalWeap
$LN3@NormalWeap:

; 3957 : 		
; 3958 : 	}
; 3959 : 	return 0;

  07a2f	33 c0		 xor	 eax, eax
$LN10@NormalWeap:

; 3960 : }

  07a31	5f		 pop	 edi
  07a32	5e		 pop	 esi
  07a33	5b		 pop	 ebx
  07a34	8b e5		 mov	 esp, ebp
  07a36	5d		 pop	 ebp
  07a37	c2 08 00	 ret	 8
?NormalWeaponDurabilityDown@CItem@@QAEHHH@Z ENDP	; CItem::NormalWeaponDurabilityDown
_TEXT	ENDS
PUBLIC	?BowWeaponDurabilityDown@CItem@@QAEHHH@Z	; CItem::BowWeaponDurabilityDown
; Function compile flags: /Odtp /ZI
_TEXT	SEGMENT
_DurabilitySmall$ = -24					; size = 4
_DecreaseDur$ = -20					; size = 4
_div$ = -16						; size = 4
_plusdamage$ = -12					; size = 4
_damagemin$ = -8					; size = 4
_this$ = -4						; size = 4
_defense$ = 8						; size = 4
_aIndex$ = 12						; size = 4
?BowWeaponDurabilityDown@CItem@@QAEHHH@Z PROC		; CItem::BowWeaponDurabilityDown
; _this$ = ecx

; 3963 : {

  07a40	55		 push	 ebp
  07a41	8b ec		 mov	 ebp, esp
  07a43	83 ec 58	 sub	 esp, 88			; 00000058H
  07a46	53		 push	 ebx
  07a47	56		 push	 esi
  07a48	57		 push	 edi
  07a49	89 4d fc	 mov	 DWORD PTR _this$[ebp], ecx

; 3964 : 	if ( this->m_Durability <= 0 )

  07a4c	8b 45 fc	 mov	 eax, DWORD PTR _this$[ebp]
  07a4f	d9 40 24	 fld	 DWORD PTR [eax+36]
  07a52	dc 1d 00 00 00
	00		 fcomp	 QWORD PTR __real@0000000000000000
  07a58	df e0		 fnstsw	 ax
  07a5a	f6 c4 41	 test	 ah, 65			; 00000041H
  07a5d	7a 07		 jp	 SHORT $LN8@BowWeaponD

; 3965 : 	{
; 3966 : 		return 0;

  07a5f	33 c0		 xor	 eax, eax
  07a61	e9 90 01 00 00	 jmp	 $LN9@BowWeaponD
$LN8@BowWeaponD:

; 3967 : 	}
; 3968 : 
; 3969 : 	int damagemin = this->m_DamageMinOrigin;

  07a66	8b 45 fc	 mov	 eax, DWORD PTR _this$[ebp]
  07a69	0f b7 48 1c	 movzx	 ecx, WORD PTR [eax+28]
  07a6d	89 4d f8	 mov	 DWORD PTR _damagemin$[ebp], ecx

; 3970 : 	int plusdamage = 0;

  07a70	c7 45 f4 00 00
	00 00		 mov	 DWORD PTR _plusdamage$[ebp], 0

; 3971 : 	this->PlusSpecial(&plusdamage, 80);

  07a77	6a 50		 push	 80			; 00000050H
  07a79	8d 45 f4	 lea	 eax, DWORD PTR _plusdamage$[ebp]
  07a7c	50		 push	 eax
  07a7d	8b 4d fc	 mov	 ecx, DWORD PTR _this$[ebp]
  07a80	e8 00 00 00 00	 call	 ?PlusSpecial@CItem@@QAEXPAHH@Z ; CItem::PlusSpecial

; 3972 : 	
; 3973 : 	int div = damagemin + damagemin/2 + plusdamage;

  07a85	8b 45 f8	 mov	 eax, DWORD PTR _damagemin$[ebp]
  07a88	99		 cdq
  07a89	2b c2		 sub	 eax, edx
  07a8b	d1 f8		 sar	 eax, 1
  07a8d	03 45 f8	 add	 eax, DWORD PTR _damagemin$[ebp]
  07a90	03 45 f4	 add	 eax, DWORD PTR _plusdamage$[ebp]
  07a93	89 45 f0	 mov	 DWORD PTR _div$[ebp], eax

; 3974 : 
; 3975 : 	if ( div == 0 )

  07a96	75 07		 jne	 SHORT $LN7@BowWeaponD

; 3976 : 	{
; 3977 : 		return 0;

  07a98	33 c0		 xor	 eax, eax
  07a9a	e9 57 01 00 00	 jmp	 $LN9@BowWeaponD
$LN7@BowWeaponD:

; 3978 : 	}
; 3979 : 
; 3980 : 	int DecreaseDur = (defense*2)/div;

  07a9f	8b 45 08	 mov	 eax, DWORD PTR _defense$[ebp]
  07aa2	d1 e0		 shl	 eax, 1
  07aa4	99		 cdq
  07aa5	f7 7d f0	 idiv	 DWORD PTR _div$[ebp]
  07aa8	89 45 ec	 mov	 DWORD PTR _DecreaseDur$[ebp], eax

; 3981 : 
; 3982 : 	DecreaseDur -= DecreaseDur*(int)this->m_SocketBonus/100; //season4 add-on

  07aab	8b 45 fc	 mov	 eax, DWORD PTR _this$[ebp]
  07aae	0f b6 88 d1 00
	00 00		 movzx	 ecx, BYTE PTR [eax+209]
  07ab5	8b c1		 mov	 eax, ecx
  07ab7	0f af 45 ec	 imul	 eax, DWORD PTR _DecreaseDur$[ebp]
  07abb	99		 cdq
  07abc	b9 64 00 00 00	 mov	 ecx, 100		; 00000064H
  07ac1	f7 f9		 idiv	 ecx
  07ac3	8b 55 ec	 mov	 edx, DWORD PTR _DecreaseDur$[ebp]
  07ac6	2b d0		 sub	 edx, eax
  07ac8	89 55 ec	 mov	 DWORD PTR _DecreaseDur$[ebp], edx

; 3983 : 
; 3984 : 	this->m_DurabilitySmall += DecreaseDur;

  07acb	8b 45 fc	 mov	 eax, DWORD PTR _this$[ebp]
  07ace	0f b7 48 28	 movzx	 ecx, WORD PTR [eax+40]
  07ad2	03 4d ec	 add	 ecx, DWORD PTR _DecreaseDur$[ebp]
  07ad5	8b 55 fc	 mov	 edx, DWORD PTR _this$[ebp]
  07ad8	66 89 4a 28	 mov	 WORD PTR [edx+40], cx

; 3985 : 
; 3986 : 	int DurabilitySmall = 780;

  07adc	c7 45 e8 0c 03
	00 00		 mov	 DWORD PTR _DurabilitySmall$[ebp], 780 ; 0000030cH

; 3987 : 
; 3988 : 	if(gObj[aIndex].m_MPSkillOpt.MpsDownDur1 > 0) //season3 add-on

  07ae3	8b 45 0c	 mov	 eax, DWORD PTR _aIndex$[ebp]
  07ae6	69 c0 38 2b 00
	00		 imul	 eax, 11064		; 00002b38H
  07aec	8b 0d 00 00 00
	00		 mov	 ecx, DWORD PTR ?gObj@@3PAUOBJECTSTRUCT@@A ; gObj
  07af2	d9 84 01 44 26
	00 00		 fld	 DWORD PTR [ecx+eax+9796]
  07af9	dc 1d 00 00 00
	00		 fcomp	 QWORD PTR __real@0000000000000000
  07aff	df e0		 fnstsw	 ax
  07b01	f6 c4 41	 test	 ah, 65			; 00000041H
  07b04	75 2a		 jne	 SHORT $LN6@BowWeaponD

; 3989 : 	{
; 3990 : 		DurabilitySmall += DurabilitySmall * gObj[aIndex].m_MPSkillOpt.MpsDownDur1 / 100;

  07b06	db 45 e8	 fild	 DWORD PTR _DurabilitySmall$[ebp]
  07b09	8b 45 0c	 mov	 eax, DWORD PTR _aIndex$[ebp]
  07b0c	69 c0 38 2b 00
	00		 imul	 eax, 11064		; 00002b38H
  07b12	8b 0d 00 00 00
	00		 mov	 ecx, DWORD PTR ?gObj@@3PAUOBJECTSTRUCT@@A ; gObj
  07b18	d8 8c 01 44 26
	00 00		 fmul	 DWORD PTR [ecx+eax+9796]
  07b1f	dc 35 00 00 00
	00		 fdiv	 QWORD PTR __real@4059000000000000
  07b25	da 45 e8	 fiadd	 DWORD PTR _DurabilitySmall$[ebp]
  07b28	e8 00 00 00 00	 call	 __ftol2_sse
  07b2d	89 45 e8	 mov	 DWORD PTR _DurabilitySmall$[ebp], eax
$LN6@BowWeaponD:

; 3991 : 	}
; 3992 : 
; 3993 : 	if(g_ExLicense.CheckUser(eExUB::Artem) || g_ExLicense.CheckUser(eExUB::Artem2) || 
; 3994 : 		g_ExLicense.CheckUser(eExUB::Gredy) || g_ExLicense.CheckUser(eExUB::Gredy2) || g_ExLicense.CheckUser(eExUB::GredyLocal))

  07b30	6a 30		 push	 48			; 00000030H
  07b32	b9 00 00 00 00	 mov	 ecx, OFFSET ?g_ExLicense@@3VCExLicense@@A ; g_ExLicense
  07b37	e8 00 00 00 00	 call	 ?CheckUser@CExLicense@@QAE_NH@Z ; CExLicense::CheckUser
  07b3c	0f b6 c0	 movzx	 eax, al
  07b3f	85 c0		 test	 eax, eax
  07b41	75 4c		 jne	 SHORT $LN4@BowWeaponD
  07b43	6a 31		 push	 49			; 00000031H
  07b45	b9 00 00 00 00	 mov	 ecx, OFFSET ?g_ExLicense@@3VCExLicense@@A ; g_ExLicense
  07b4a	e8 00 00 00 00	 call	 ?CheckUser@CExLicense@@QAE_NH@Z ; CExLicense::CheckUser
  07b4f	0f b6 c0	 movzx	 eax, al
  07b52	85 c0		 test	 eax, eax
  07b54	75 39		 jne	 SHORT $LN4@BowWeaponD
  07b56	6a 20		 push	 32			; 00000020H
  07b58	b9 00 00 00 00	 mov	 ecx, OFFSET ?g_ExLicense@@3VCExLicense@@A ; g_ExLicense
  07b5d	e8 00 00 00 00	 call	 ?CheckUser@CExLicense@@QAE_NH@Z ; CExLicense::CheckUser
  07b62	0f b6 c0	 movzx	 eax, al
  07b65	85 c0		 test	 eax, eax
  07b67	75 26		 jne	 SHORT $LN4@BowWeaponD
  07b69	6a 22		 push	 34			; 00000022H
  07b6b	b9 00 00 00 00	 mov	 ecx, OFFSET ?g_ExLicense@@3VCExLicense@@A ; g_ExLicense
  07b70	e8 00 00 00 00	 call	 ?CheckUser@CExLicense@@QAE_NH@Z ; CExLicense::CheckUser
  07b75	0f b6 c0	 movzx	 eax, al
  07b78	85 c0		 test	 eax, eax
  07b7a	75 13		 jne	 SHORT $LN4@BowWeaponD
  07b7c	6a 21		 push	 33			; 00000021H
  07b7e	b9 00 00 00 00	 mov	 ecx, OFFSET ?g_ExLicense@@3VCExLicense@@A ; g_ExLicense
  07b83	e8 00 00 00 00	 call	 ?CheckUser@CExLicense@@QAE_NH@Z ; CExLicense::CheckUser
  07b88	0f b6 c0	 movzx	 eax, al
  07b8b	85 c0		 test	 eax, eax
  07b8d	74 09		 je	 SHORT $LN5@BowWeaponD
$LN4@BowWeaponD:

; 3995 : 	{
; 3996 : 		DurabilitySmall *= 3;

  07b8f	8b 45 e8	 mov	 eax, DWORD PTR _DurabilitySmall$[ebp]
  07b92	6b c0 03	 imul	 eax, 3
  07b95	89 45 e8	 mov	 DWORD PTR _DurabilitySmall$[ebp], eax
$LN5@BowWeaponD:

; 3997 : 	}
; 3998 : 
; 3999 : 	if ( this->m_DurabilitySmall > DurabilitySmall )

  07b98	8b 45 fc	 mov	 eax, DWORD PTR _this$[ebp]
  07b9b	0f b7 48 28	 movzx	 ecx, WORD PTR [eax+40]
  07b9f	3b 4d e8	 cmp	 ecx, DWORD PTR _DurabilitySmall$[ebp]
  07ba2	7e 50		 jle	 SHORT $LN3@BowWeaponD

; 4000 : 	{
; 4001 : 		this->m_DurabilitySmall = 0;

  07ba4	33 c0		 xor	 eax, eax
  07ba6	8b 4d fc	 mov	 ecx, DWORD PTR _this$[ebp]
  07ba9	66 89 41 28	 mov	 WORD PTR [ecx+40], ax

; 4002 : 		this->m_Durability -= 1.0f;

  07bad	8b 45 fc	 mov	 eax, DWORD PTR _this$[ebp]
  07bb0	d9 40 24	 fld	 DWORD PTR [eax+36]
  07bb3	dc 25 00 00 00
	00		 fsub	 QWORD PTR __real@3ff0000000000000
  07bb9	8b 4d fc	 mov	 ecx, DWORD PTR _this$[ebp]
  07bbc	d9 59 24	 fstp	 DWORD PTR [ecx+36]

; 4003 : 
; 4004 : 		if ( this->m_Durability < 0.0f )

  07bbf	8b 45 fc	 mov	 eax, DWORD PTR _this$[ebp]
  07bc2	d9 40 24	 fld	 DWORD PTR [eax+36]
  07bc5	dc 1d 00 00 00
	00		 fcomp	 QWORD PTR __real@0000000000000000
  07bcb	df e0		 fnstsw	 ax
  07bcd	f6 c4 05	 test	 ah, 5
  07bd0	7a 08		 jp	 SHORT $LN2@BowWeaponD

; 4005 : 		{
; 4006 : 			this->m_Durability = 0;

  07bd2	8b 45 fc	 mov	 eax, DWORD PTR _this$[ebp]
  07bd5	d9 ee		 fldz
  07bd7	d9 58 24	 fstp	 DWORD PTR [eax+36]
$LN2@BowWeaponD:

; 4007 : 		}
; 4008 : 		
; 4009 : 		if ( this->CheckDurabilityState() != 0 )

  07bda	8b 4d fc	 mov	 ecx, DWORD PTR _this$[ebp]
  07bdd	e8 00 00 00 00	 call	 ?CheckDurabilityState@CItem@@QAEHXZ ; CItem::CheckDurabilityState
  07be2	85 c0		 test	 eax, eax
  07be4	74 07		 je	 SHORT $LN1@BowWeaponD

; 4010 : 		{
; 4011 : 			return 2;

  07be6	b8 02 00 00 00	 mov	 eax, 2
  07beb	eb 09		 jmp	 SHORT $LN9@BowWeaponD
$LN1@BowWeaponD:

; 4012 : 		}
; 4013 : 		
; 4014 : 		return 1;

  07bed	b8 01 00 00 00	 mov	 eax, 1
  07bf2	eb 02		 jmp	 SHORT $LN9@BowWeaponD
$LN3@BowWeaponD:

; 4015 : 		
; 4016 : 	}
; 4017 : 	return 0;

  07bf4	33 c0		 xor	 eax, eax
$LN9@BowWeaponD:

; 4018 : }

  07bf6	5f		 pop	 edi
  07bf7	5e		 pop	 esi
  07bf8	5b		 pop	 ebx
  07bf9	8b e5		 mov	 esp, ebp
  07bfb	5d		 pop	 ebp
  07bfc	c2 08 00	 ret	 8
?BowWeaponDurabilityDown@CItem@@QAEHHH@Z ENDP		; CItem::BowWeaponDurabilityDown
_TEXT	ENDS
PUBLIC	?StaffWeaponDurabilityDown@CItem@@QAEHHH@Z	; CItem::StaffWeaponDurabilityDown
; Function compile flags: /Odtp /ZI
_TEXT	SEGMENT
_DurabilitySmall$ = -24					; size = 4
_DecreaseDur$ = -20					; size = 4
_div$ = -16						; size = 4
_plusmagic$ = -12					; size = 4
_magic$ = -8						; size = 4
_this$ = -4						; size = 4
_defence$ = 8						; size = 4
_aIndex$ = 12						; size = 4
?StaffWeaponDurabilityDown@CItem@@QAEHHH@Z PROC		; CItem::StaffWeaponDurabilityDown
; _this$ = ecx

; 4021 : {

  07c00	55		 push	 ebp
  07c01	8b ec		 mov	 ebp, esp
  07c03	83 ec 58	 sub	 esp, 88			; 00000058H
  07c06	53		 push	 ebx
  07c07	56		 push	 esi
  07c08	57		 push	 edi
  07c09	89 4d fc	 mov	 DWORD PTR _this$[ebp], ecx

; 4022 : 	if ( this->m_Durability <= 0 )

  07c0c	8b 45 fc	 mov	 eax, DWORD PTR _this$[ebp]
  07c0f	d9 40 24	 fld	 DWORD PTR [eax+36]
  07c12	dc 1d 00 00 00
	00		 fcomp	 QWORD PTR __real@0000000000000000
  07c18	df e0		 fnstsw	 ax
  07c1a	f6 c4 41	 test	 ah, 65			; 00000041H
  07c1d	7a 07		 jp	 SHORT $LN8@StaffWeapo

; 4023 : 	{
; 4024 : 		return 0;

  07c1f	33 c0		 xor	 eax, eax
  07c21	e9 a0 01 00 00	 jmp	 $LN9@StaffWeapo
$LN8@StaffWeapo:

; 4025 : 	}
; 4026 : 
; 4027 : 	int magic = this->m_Magic/2 + this->m_Level*2;

  07c26	8b 45 fc	 mov	 eax, DWORD PTR _this$[ebp]
  07c29	0f b7 40 20	 movzx	 eax, WORD PTR [eax+32]
  07c2d	99		 cdq
  07c2e	2b c2		 sub	 eax, edx
  07c30	d1 f8		 sar	 eax, 1
  07c32	8b 4d fc	 mov	 ecx, DWORD PTR _this$[ebp]
  07c35	0f bf 51 08	 movsx	 edx, WORD PTR [ecx+8]
  07c39	8d 04 50	 lea	 eax, DWORD PTR [eax+edx*2]
  07c3c	89 45 f8	 mov	 DWORD PTR _magic$[ebp], eax

; 4028 : 	int plusmagic = 0;

  07c3f	c7 45 f4 00 00
	00 00		 mov	 DWORD PTR _plusmagic$[ebp], 0

; 4029 : 	this->PlusSpecial(&plusmagic, 81);

  07c46	6a 51		 push	 81			; 00000051H
  07c48	8d 45 f4	 lea	 eax, DWORD PTR _plusmagic$[ebp]
  07c4b	50		 push	 eax
  07c4c	8b 4d fc	 mov	 ecx, DWORD PTR _this$[ebp]
  07c4f	e8 00 00 00 00	 call	 ?PlusSpecial@CItem@@QAEXPAHH@Z ; CItem::PlusSpecial

; 4030 : 	int div = magic + magic/3 + plusmagic;

  07c54	8b 45 f8	 mov	 eax, DWORD PTR _magic$[ebp]
  07c57	99		 cdq
  07c58	b9 03 00 00 00	 mov	 ecx, 3
  07c5d	f7 f9		 idiv	 ecx
  07c5f	03 45 f8	 add	 eax, DWORD PTR _magic$[ebp]
  07c62	03 45 f4	 add	 eax, DWORD PTR _plusmagic$[ebp]
  07c65	89 45 f0	 mov	 DWORD PTR _div$[ebp], eax

; 4031 : 
; 4032 : 	if ( div == 0 )

  07c68	75 07		 jne	 SHORT $LN7@StaffWeapo

; 4033 : 	{
; 4034 : 		return 0;

  07c6a	33 c0		 xor	 eax, eax
  07c6c	e9 55 01 00 00	 jmp	 $LN9@StaffWeapo
$LN7@StaffWeapo:

; 4035 : 	}
; 4036 : 
; 4037 : 	int DecreaseDur = defence/div;

  07c71	8b 45 08	 mov	 eax, DWORD PTR _defence$[ebp]
  07c74	99		 cdq
  07c75	f7 7d f0	 idiv	 DWORD PTR _div$[ebp]
  07c78	89 45 ec	 mov	 DWORD PTR _DecreaseDur$[ebp], eax

; 4038 : 
; 4039 : 	DecreaseDur -= DecreaseDur*(int)this->m_SocketBonus/100; //season4 add-on

  07c7b	8b 45 fc	 mov	 eax, DWORD PTR _this$[ebp]
  07c7e	0f b6 88 d1 00
	00 00		 movzx	 ecx, BYTE PTR [eax+209]
  07c85	8b c1		 mov	 eax, ecx
  07c87	0f af 45 ec	 imul	 eax, DWORD PTR _DecreaseDur$[ebp]
  07c8b	99		 cdq
  07c8c	b9 64 00 00 00	 mov	 ecx, 100		; 00000064H
  07c91	f7 f9		 idiv	 ecx
  07c93	8b 55 ec	 mov	 edx, DWORD PTR _DecreaseDur$[ebp]
  07c96	2b d0		 sub	 edx, eax
  07c98	89 55 ec	 mov	 DWORD PTR _DecreaseDur$[ebp], edx

; 4040 : 
; 4041 : 	this->m_DurabilitySmall += DecreaseDur;

  07c9b	8b 45 fc	 mov	 eax, DWORD PTR _this$[ebp]
  07c9e	0f b7 48 28	 movzx	 ecx, WORD PTR [eax+40]
  07ca2	03 4d ec	 add	 ecx, DWORD PTR _DecreaseDur$[ebp]
  07ca5	8b 55 fc	 mov	 edx, DWORD PTR _this$[ebp]
  07ca8	66 89 4a 28	 mov	 WORD PTR [edx+40], cx

; 4042 : 
; 4043 : 	int DurabilitySmall = 1050;

  07cac	c7 45 e8 1a 04
	00 00		 mov	 DWORD PTR _DurabilitySmall$[ebp], 1050 ; 0000041aH

; 4044 : 
; 4045 : 	if(gObj[aIndex].m_MPSkillOpt.MpsDownDur1 > 0) //season3 add-on

  07cb3	8b 45 0c	 mov	 eax, DWORD PTR _aIndex$[ebp]
  07cb6	69 c0 38 2b 00
	00		 imul	 eax, 11064		; 00002b38H
  07cbc	8b 0d 00 00 00
	00		 mov	 ecx, DWORD PTR ?gObj@@3PAUOBJECTSTRUCT@@A ; gObj
  07cc2	d9 84 01 44 26
	00 00		 fld	 DWORD PTR [ecx+eax+9796]
  07cc9	dc 1d 00 00 00
	00		 fcomp	 QWORD PTR __real@0000000000000000
  07ccf	df e0		 fnstsw	 ax
  07cd1	f6 c4 41	 test	 ah, 65			; 00000041H
  07cd4	75 2a		 jne	 SHORT $LN6@StaffWeapo

; 4046 : 	{
; 4047 : 		DurabilitySmall += DurabilitySmall * gObj[aIndex].m_MPSkillOpt.MpsDownDur1 / 100;

  07cd6	db 45 e8	 fild	 DWORD PTR _DurabilitySmall$[ebp]
  07cd9	8b 45 0c	 mov	 eax, DWORD PTR _aIndex$[ebp]
  07cdc	69 c0 38 2b 00
	00		 imul	 eax, 11064		; 00002b38H
  07ce2	8b 0d 00 00 00
	00		 mov	 ecx, DWORD PTR ?gObj@@3PAUOBJECTSTRUCT@@A ; gObj
  07ce8	d8 8c 01 44 26
	00 00		 fmul	 DWORD PTR [ecx+eax+9796]
  07cef	dc 35 00 00 00
	00		 fdiv	 QWORD PTR __real@4059000000000000
  07cf5	da 45 e8	 fiadd	 DWORD PTR _DurabilitySmall$[ebp]
  07cf8	e8 00 00 00 00	 call	 __ftol2_sse
  07cfd	89 45 e8	 mov	 DWORD PTR _DurabilitySmall$[ebp], eax
$LN6@StaffWeapo:

; 4048 : 	}
; 4049 : 
; 4050 : 	if(g_ExLicense.CheckUser(eExUB::Artem) || g_ExLicense.CheckUser(eExUB::Artem2) || 
; 4051 : 		g_ExLicense.CheckUser(eExUB::Gredy) || g_ExLicense.CheckUser(eExUB::Gredy2) || g_ExLicense.CheckUser(eExUB::GredyLocal))

  07d00	6a 30		 push	 48			; 00000030H
  07d02	b9 00 00 00 00	 mov	 ecx, OFFSET ?g_ExLicense@@3VCExLicense@@A ; g_ExLicense
  07d07	e8 00 00 00 00	 call	 ?CheckUser@CExLicense@@QAE_NH@Z ; CExLicense::CheckUser
  07d0c	0f b6 c0	 movzx	 eax, al
  07d0f	85 c0		 test	 eax, eax
  07d11	75 4c		 jne	 SHORT $LN4@StaffWeapo
  07d13	6a 31		 push	 49			; 00000031H
  07d15	b9 00 00 00 00	 mov	 ecx, OFFSET ?g_ExLicense@@3VCExLicense@@A ; g_ExLicense
  07d1a	e8 00 00 00 00	 call	 ?CheckUser@CExLicense@@QAE_NH@Z ; CExLicense::CheckUser
  07d1f	0f b6 c0	 movzx	 eax, al
  07d22	85 c0		 test	 eax, eax
  07d24	75 39		 jne	 SHORT $LN4@StaffWeapo
  07d26	6a 20		 push	 32			; 00000020H
  07d28	b9 00 00 00 00	 mov	 ecx, OFFSET ?g_ExLicense@@3VCExLicense@@A ; g_ExLicense
  07d2d	e8 00 00 00 00	 call	 ?CheckUser@CExLicense@@QAE_NH@Z ; CExLicense::CheckUser
  07d32	0f b6 c0	 movzx	 eax, al
  07d35	85 c0		 test	 eax, eax
  07d37	75 26		 jne	 SHORT $LN4@StaffWeapo
  07d39	6a 22		 push	 34			; 00000022H
  07d3b	b9 00 00 00 00	 mov	 ecx, OFFSET ?g_ExLicense@@3VCExLicense@@A ; g_ExLicense
  07d40	e8 00 00 00 00	 call	 ?CheckUser@CExLicense@@QAE_NH@Z ; CExLicense::CheckUser
  07d45	0f b6 c0	 movzx	 eax, al
  07d48	85 c0		 test	 eax, eax
  07d4a	75 13		 jne	 SHORT $LN4@StaffWeapo
  07d4c	6a 21		 push	 33			; 00000021H
  07d4e	b9 00 00 00 00	 mov	 ecx, OFFSET ?g_ExLicense@@3VCExLicense@@A ; g_ExLicense
  07d53	e8 00 00 00 00	 call	 ?CheckUser@CExLicense@@QAE_NH@Z ; CExLicense::CheckUser
  07d58	0f b6 c0	 movzx	 eax, al
  07d5b	85 c0		 test	 eax, eax
  07d5d	74 09		 je	 SHORT $LN5@StaffWeapo
$LN4@StaffWeapo:

; 4052 : 	{
; 4053 : 		DurabilitySmall *= 3;

  07d5f	8b 45 e8	 mov	 eax, DWORD PTR _DurabilitySmall$[ebp]
  07d62	6b c0 03	 imul	 eax, 3
  07d65	89 45 e8	 mov	 DWORD PTR _DurabilitySmall$[ebp], eax
$LN5@StaffWeapo:

; 4054 : 	}
; 4055 : 
; 4056 : 	if ( this->m_DurabilitySmall > DurabilitySmall )

  07d68	8b 45 fc	 mov	 eax, DWORD PTR _this$[ebp]
  07d6b	0f b7 48 28	 movzx	 ecx, WORD PTR [eax+40]
  07d6f	3b 4d e8	 cmp	 ecx, DWORD PTR _DurabilitySmall$[ebp]
  07d72	7e 50		 jle	 SHORT $LN3@StaffWeapo

; 4057 : 	{
; 4058 : 		this->m_DurabilitySmall = 0;

  07d74	33 c0		 xor	 eax, eax
  07d76	8b 4d fc	 mov	 ecx, DWORD PTR _this$[ebp]
  07d79	66 89 41 28	 mov	 WORD PTR [ecx+40], ax

; 4059 : 		this->m_Durability -= 1.0f;

  07d7d	8b 45 fc	 mov	 eax, DWORD PTR _this$[ebp]
  07d80	d9 40 24	 fld	 DWORD PTR [eax+36]
  07d83	dc 25 00 00 00
	00		 fsub	 QWORD PTR __real@3ff0000000000000
  07d89	8b 4d fc	 mov	 ecx, DWORD PTR _this$[ebp]
  07d8c	d9 59 24	 fstp	 DWORD PTR [ecx+36]

; 4060 : 
; 4061 : 		if ( this->m_Durability < 0.0f )

  07d8f	8b 45 fc	 mov	 eax, DWORD PTR _this$[ebp]
  07d92	d9 40 24	 fld	 DWORD PTR [eax+36]
  07d95	dc 1d 00 00 00
	00		 fcomp	 QWORD PTR __real@0000000000000000
  07d9b	df e0		 fnstsw	 ax
  07d9d	f6 c4 05	 test	 ah, 5
  07da0	7a 08		 jp	 SHORT $LN2@StaffWeapo

; 4062 : 		{
; 4063 : 			this->m_Durability = 0;

  07da2	8b 45 fc	 mov	 eax, DWORD PTR _this$[ebp]
  07da5	d9 ee		 fldz
  07da7	d9 58 24	 fstp	 DWORD PTR [eax+36]
$LN2@StaffWeapo:

; 4064 : 		}
; 4065 : 		
; 4066 : 		if ( this->CheckDurabilityState() != 0 )

  07daa	8b 4d fc	 mov	 ecx, DWORD PTR _this$[ebp]
  07dad	e8 00 00 00 00	 call	 ?CheckDurabilityState@CItem@@QAEHXZ ; CItem::CheckDurabilityState
  07db2	85 c0		 test	 eax, eax
  07db4	74 07		 je	 SHORT $LN1@StaffWeapo

; 4067 : 		{
; 4068 : 			return 2;

  07db6	b8 02 00 00 00	 mov	 eax, 2
  07dbb	eb 09		 jmp	 SHORT $LN9@StaffWeapo
$LN1@StaffWeapo:

; 4069 : 		}
; 4070 : 		return 1;

  07dbd	b8 01 00 00 00	 mov	 eax, 1
  07dc2	eb 02		 jmp	 SHORT $LN9@StaffWeapo
$LN3@StaffWeapo:

; 4071 : 		
; 4072 : 	}
; 4073 : 	return 0;

  07dc4	33 c0		 xor	 eax, eax
$LN9@StaffWeapo:

; 4074 : }

  07dc6	5f		 pop	 edi
  07dc7	5e		 pop	 esi
  07dc8	5b		 pop	 ebx
  07dc9	8b e5		 mov	 esp, ebp
  07dcb	5d		 pop	 ebp
  07dcc	c2 08 00	 ret	 8
?StaffWeaponDurabilityDown@CItem@@QAEHHH@Z ENDP		; CItem::StaffWeaponDurabilityDown
_TEXT	ENDS
PUBLIC	??_C@_0M@ELCONOFE@def?$MA?L?50?$MA?L?$LE?Y?$AA@	; `string'
PUBLIC	?IsPeriodItem@CItem@@QAE_NXZ			; CItem::IsPeriodItem
PUBLIC	?ArmorDurabilityDown@CItem@@QAEHHH@Z		; CItem::ArmorDurabilityDown
EXTRN	?IsLuckyItemEquipment@LuckyItemManager@@QAEHH@Z:PROC ; LuckyItemManager::IsLuckyItemEquipment
EXTRN	?g_LuckyItemManager@@3ULuckyItemManager@@A:BYTE	; g_LuckyItemManager
;	COMDAT ??_C@_0M@ELCONOFE@def?$MA?L?50?$MA?L?$LE?Y?$AA@
CONST	SEGMENT
??_C@_0M@ELCONOFE@def?$MA?L?50?$MA?L?$LE?Y?$AA@ DB 'def', 0c0H, 0ccH, ' 0'
	DB	0c0H, 0ccH, 0b4H, 0d9H, 00H			; `string'
; Function compile flags: /Odtp /ZI
CONST	ENDS
_TEXT	SEGMENT
_DurabilitySmall$ = -20					; size = 4
_DecreaseDur$ = -16					; size = 4
_plusdef$ = -12						; size = 4
_def$ = -8						; size = 4
_this$ = -4						; size = 4
_damagemin$ = 8						; size = 4
_aIndex$ = 12						; size = 4
?ArmorDurabilityDown@CItem@@QAEHHH@Z PROC		; CItem::ArmorDurabilityDown
; _this$ = ecx

; 4077 : {

  07dd0	55		 push	 ebp
  07dd1	8b ec		 mov	 ebp, esp
  07dd3	83 ec 54	 sub	 esp, 84			; 00000054H
  07dd6	53		 push	 ebx
  07dd7	56		 push	 esi
  07dd8	57		 push	 edi
  07dd9	89 4d fc	 mov	 DWORD PTR _this$[ebp], ecx

; 4078 : 	if ( this->m_Durability <= 0 )

  07ddc	8b 45 fc	 mov	 eax, DWORD PTR _this$[ebp]
  07ddf	d9 40 24	 fld	 DWORD PTR [eax+36]
  07de2	dc 1d 00 00 00
	00		 fcomp	 QWORD PTR __real@0000000000000000
  07de8	df e0		 fnstsw	 ax
  07dea	f6 c4 41	 test	 ah, 65			; 00000041H
  07ded	7a 07		 jp	 SHORT $LN26@ArmorDurab

; 4079 : 	{
; 4080 : 		return 0;

  07def	33 c0		 xor	 eax, eax
  07df1	e9 37 03 00 00	 jmp	 $LN27@ArmorDurab
$LN26@ArmorDurab:

; 4081 : 	}
; 4082 : #ifdef PERIOD
; 4083 : 	if( IsPeriodItem() )

  07df6	8b 4d fc	 mov	 ecx, DWORD PTR _this$[ebp]
  07df9	e8 00 00 00 00	 call	 ?IsPeriodItem@CItem@@QAE_NXZ ; CItem::IsPeriodItem
  07dfe	0f b6 c0	 movzx	 eax, al
  07e01	85 c0		 test	 eax, eax
  07e03	74 10		 je	 SHORT $LN25@ArmorDurab

; 4084 : 		return m_Durability;

  07e05	8b 45 fc	 mov	 eax, DWORD PTR _this$[ebp]
  07e08	d9 40 24	 fld	 DWORD PTR [eax+36]
  07e0b	e8 00 00 00 00	 call	 __ftol2_sse
  07e10	e9 18 03 00 00	 jmp	 $LN27@ArmorDurab
$LN25@ArmorDurab:

; 4085 : #endif
; 4086 : 	if ( this->m_Type == -1 )

  07e15	8b 45 fc	 mov	 eax, DWORD PTR _this$[ebp]
  07e18	0f bf 48 06	 movsx	 ecx, WORD PTR [eax+6]
  07e1c	83 f9 ff	 cmp	 ecx, -1
  07e1f	75 07		 jne	 SHORT $LN24@ArmorDurab

; 4087 : 	{
; 4088 : 		return 0;

  07e21	33 c0		 xor	 eax, eax
  07e23	e9 05 03 00 00	 jmp	 $LN27@ArmorDurab
$LN24@ArmorDurab:

; 4089 : 	}
; 4090 : 
; 4091 : #ifdef LUCKYITEM
; 4092 :     if ( g_LuckyItemManager.IsLuckyItemEquipment(this->m_Type) )

  07e28	8b 45 fc	 mov	 eax, DWORD PTR _this$[ebp]
  07e2b	0f bf 48 06	 movsx	 ecx, WORD PTR [eax+6]
  07e2f	51		 push	 ecx
  07e30	b9 00 00 00 00	 mov	 ecx, OFFSET ?g_LuckyItemManager@@3ULuckyItemManager@@A ; g_LuckyItemManager
  07e35	e8 00 00 00 00	 call	 ?IsLuckyItemEquipment@LuckyItemManager@@QAEHH@Z ; LuckyItemManager::IsLuckyItemEquipment
  07e3a	85 c0		 test	 eax, eax
  07e3c	74 10		 je	 SHORT $LN23@ArmorDurab

; 4093 :     {
; 4094 :         return this->m_Durability;

  07e3e	8b 45 fc	 mov	 eax, DWORD PTR _this$[ebp]
  07e41	d9 40 24	 fld	 DWORD PTR [eax+36]
  07e44	e8 00 00 00 00	 call	 __ftol2_sse
  07e49	e9 df 02 00 00	 jmp	 $LN27@ArmorDurab
$LN23@ArmorDurab:

; 4095 :     }
; 4096 : #endif
; 4097 : 
; 4098 : 	int def = this->m_DefenseOrigin;

  07e4e	8b 45 fc	 mov	 eax, DWORD PTR _this$[ebp]
  07e51	0f b7 48 1e	 movzx	 ecx, WORD PTR [eax+30]
  07e55	89 4d f8	 mov	 DWORD PTR _def$[ebp], ecx

; 4099 : 	int plusdef = 0;

  07e58	c7 45 f4 00 00
	00 00		 mov	 DWORD PTR _plusdef$[ebp], 0

; 4100 : 	int DecreaseDur;
; 4101 : 
; 4102 : 	if ( def == 0 )

  07e5f	83 7d f8 00	 cmp	 DWORD PTR _def$[ebp], 0
  07e63	75 15		 jne	 SHORT $LN22@ArmorDurab

; 4103 : 	{
; 4104 : 		LogAdd("def 0");

  07e65	68 00 00 00 00	 push	 OFFSET ??_C@_0M@ELCONOFE@def?$MA?L?50?$MA?L?$LE?Y?$AA@
  07e6a	ff 15 00 00 00
	00		 call	 DWORD PTR ?LogAdd@@3P6AXPADZZA ; LogAdd
  07e70	83 c4 04	 add	 esp, 4

; 4105 : 		return 0;

  07e73	33 c0		 xor	 eax, eax
  07e75	e9 b3 02 00 00	 jmp	 $LN27@ArmorDurab
$LN22@ArmorDurab:

; 4106 : 	}
; 4107 : 
; 4108 : 	if ( this->m_Type >= ITEMGET(6,0) && this->m_Type < ITEMGET(7,0) )

  07e7a	8b 45 fc	 mov	 eax, DWORD PTR _this$[ebp]
  07e7d	0f bf 48 06	 movsx	 ecx, WORD PTR [eax+6]
  07e81	81 f9 00 0c 00
	00		 cmp	 ecx, 3072		; 00000c00H
  07e87	7c 34		 jl	 SHORT $LN21@ArmorDurab
  07e89	8b 45 fc	 mov	 eax, DWORD PTR _this$[ebp]
  07e8c	0f bf 48 06	 movsx	 ecx, WORD PTR [eax+6]
  07e90	81 f9 00 0e 00
	00		 cmp	 ecx, 3584		; 00000e00H
  07e96	7d 25		 jge	 SHORT $LN21@ArmorDurab

; 4109 : 	{
; 4110 : 		this->PlusSpecial(&plusdef, 82);

  07e98	6a 52		 push	 82			; 00000052H
  07e9a	8d 45 f4	 lea	 eax, DWORD PTR _plusdef$[ebp]
  07e9d	50		 push	 eax
  07e9e	8b 4d fc	 mov	 ecx, DWORD PTR _this$[ebp]
  07ea1	e8 00 00 00 00	 call	 ?PlusSpecial@CItem@@QAEXPAHH@Z ; CItem::PlusSpecial

; 4111 : 		DecreaseDur = damagemin/(def * 5+ plusdef);

  07ea6	8b 4d f8	 mov	 ecx, DWORD PTR _def$[ebp]
  07ea9	6b c9 05	 imul	 ecx, 5
  07eac	03 4d f4	 add	 ecx, DWORD PTR _plusdef$[ebp]
  07eaf	8b 45 08	 mov	 eax, DWORD PTR _damagemin$[ebp]
  07eb2	99		 cdq
  07eb3	f7 f9		 idiv	 ecx
  07eb5	89 45 f0	 mov	 DWORD PTR _DecreaseDur$[ebp], eax
  07eb8	e9 45 01 00 00	 jmp	 $LN7@ArmorDurab
$LN21@ArmorDurab:

; 4112 : 	}
; 4113 : 	else if ( this->m_RequireClass[0] != 0 )	// Dark Wize

  07ebd	8b 45 fc	 mov	 eax, DWORD PTR _this$[ebp]
  07ec0	0f b6 48 58	 movzx	 ecx, BYTE PTR [eax+88]
  07ec4	85 c9		 test	 ecx, ecx
  07ec6	74 25		 je	 SHORT $LN19@ArmorDurab

; 4114 : 	{
; 4115 : 		this->PlusSpecial(&plusdef, 83);

  07ec8	6a 53		 push	 83			; 00000053H
  07eca	8d 45 f4	 lea	 eax, DWORD PTR _plusdef$[ebp]
  07ecd	50		 push	 eax
  07ece	8b 4d fc	 mov	 ecx, DWORD PTR _this$[ebp]
  07ed1	e8 00 00 00 00	 call	 ?PlusSpecial@CItem@@QAEXPAHH@Z ; CItem::PlusSpecial

; 4116 : 		DecreaseDur = damagemin/(def * 3 + plusdef);

  07ed6	8b 4d f8	 mov	 ecx, DWORD PTR _def$[ebp]
  07ed9	6b c9 03	 imul	 ecx, 3
  07edc	03 4d f4	 add	 ecx, DWORD PTR _plusdef$[ebp]
  07edf	8b 45 08	 mov	 eax, DWORD PTR _damagemin$[ebp]
  07ee2	99		 cdq
  07ee3	f7 f9		 idiv	 ecx
  07ee5	89 45 f0	 mov	 DWORD PTR _DecreaseDur$[ebp], eax
  07ee8	e9 15 01 00 00	 jmp	 $LN7@ArmorDurab
$LN19@ArmorDurab:

; 4117 : 	}
; 4118 : 	else if ( this->m_RequireClass[1] != 0 )	// Dark Knight

  07eed	8b 45 fc	 mov	 eax, DWORD PTR _this$[ebp]
  07ef0	0f b6 48 59	 movzx	 ecx, BYTE PTR [eax+89]
  07ef4	85 c9		 test	 ecx, ecx
  07ef6	74 25		 je	 SHORT $LN17@ArmorDurab

; 4119 : 	{
; 4120 : 		this->PlusSpecial(&plusdef, 83);

  07ef8	6a 53		 push	 83			; 00000053H
  07efa	8d 45 f4	 lea	 eax, DWORD PTR _plusdef$[ebp]
  07efd	50		 push	 eax
  07efe	8b 4d fc	 mov	 ecx, DWORD PTR _this$[ebp]
  07f01	e8 00 00 00 00	 call	 ?PlusSpecial@CItem@@QAEXPAHH@Z ; CItem::PlusSpecial

; 4121 : 		DecreaseDur = damagemin/(def * 3 + plusdef);

  07f06	8b 4d f8	 mov	 ecx, DWORD PTR _def$[ebp]
  07f09	6b c9 03	 imul	 ecx, 3
  07f0c	03 4d f4	 add	 ecx, DWORD PTR _plusdef$[ebp]
  07f0f	8b 45 08	 mov	 eax, DWORD PTR _damagemin$[ebp]
  07f12	99		 cdq
  07f13	f7 f9		 idiv	 ecx
  07f15	89 45 f0	 mov	 DWORD PTR _DecreaseDur$[ebp], eax
  07f18	e9 e5 00 00 00	 jmp	 $LN7@ArmorDurab
$LN17@ArmorDurab:

; 4122 : 	}
; 4123 : 	else if ( this->m_RequireClass[2] != 0 )	// Elf

  07f1d	8b 45 fc	 mov	 eax, DWORD PTR _this$[ebp]
  07f20	0f b6 48 5a	 movzx	 ecx, BYTE PTR [eax+90]
  07f24	85 c9		 test	 ecx, ecx
  07f26	74 25		 je	 SHORT $LN15@ArmorDurab

; 4124 : 	{
; 4125 : 		this->PlusSpecial(&plusdef, 83);

  07f28	6a 53		 push	 83			; 00000053H
  07f2a	8d 45 f4	 lea	 eax, DWORD PTR _plusdef$[ebp]
  07f2d	50		 push	 eax
  07f2e	8b 4d fc	 mov	 ecx, DWORD PTR _this$[ebp]
  07f31	e8 00 00 00 00	 call	 ?PlusSpecial@CItem@@QAEXPAHH@Z ; CItem::PlusSpecial

; 4126 : 		DecreaseDur = damagemin/(def * 2 + plusdef);

  07f36	8b 45 f8	 mov	 eax, DWORD PTR _def$[ebp]
  07f39	8b 4d f4	 mov	 ecx, DWORD PTR _plusdef$[ebp]
  07f3c	8d 0c 41	 lea	 ecx, DWORD PTR [ecx+eax*2]
  07f3f	8b 45 08	 mov	 eax, DWORD PTR _damagemin$[ebp]
  07f42	99		 cdq
  07f43	f7 f9		 idiv	 ecx
  07f45	89 45 f0	 mov	 DWORD PTR _DecreaseDur$[ebp], eax
  07f48	e9 b5 00 00 00	 jmp	 $LN7@ArmorDurab
$LN15@ArmorDurab:

; 4127 : 	}
; 4128 : 	else if ( this->m_RequireClass[3] != 0 )	// MAgic Gladiator ( aka Magunsa )

  07f4d	8b 45 fc	 mov	 eax, DWORD PTR _this$[ebp]
  07f50	0f b6 48 5b	 movzx	 ecx, BYTE PTR [eax+91]
  07f54	85 c9		 test	 ecx, ecx
  07f56	74 25		 je	 SHORT $LN13@ArmorDurab

; 4129 : 	{
; 4130 : 		this->PlusSpecial(&plusdef, 83);

  07f58	6a 53		 push	 83			; 00000053H
  07f5a	8d 45 f4	 lea	 eax, DWORD PTR _plusdef$[ebp]
  07f5d	50		 push	 eax
  07f5e	8b 4d fc	 mov	 ecx, DWORD PTR _this$[ebp]
  07f61	e8 00 00 00 00	 call	 ?PlusSpecial@CItem@@QAEXPAHH@Z ; CItem::PlusSpecial

; 4131 : 		DecreaseDur = damagemin/(def * 7 + plusdef);

  07f66	8b 4d f8	 mov	 ecx, DWORD PTR _def$[ebp]
  07f69	6b c9 07	 imul	 ecx, 7
  07f6c	03 4d f4	 add	 ecx, DWORD PTR _plusdef$[ebp]
  07f6f	8b 45 08	 mov	 eax, DWORD PTR _damagemin$[ebp]
  07f72	99		 cdq
  07f73	f7 f9		 idiv	 ecx
  07f75	89 45 f0	 mov	 DWORD PTR _DecreaseDur$[ebp], eax
  07f78	e9 85 00 00 00	 jmp	 $LN7@ArmorDurab
$LN13@ArmorDurab:

; 4132 : 	}
; 4133 : 	else if ( this->m_RequireClass[4] != 0 )	// Dark Lord

  07f7d	8b 45 fc	 mov	 eax, DWORD PTR _this$[ebp]
  07f80	0f b6 48 5c	 movzx	 ecx, BYTE PTR [eax+92]
  07f84	85 c9		 test	 ecx, ecx
  07f86	74 22		 je	 SHORT $LN11@ArmorDurab

; 4134 : 	{
; 4135 : 		this->PlusSpecial(&plusdef, 83);

  07f88	6a 53		 push	 83			; 00000053H
  07f8a	8d 45 f4	 lea	 eax, DWORD PTR _plusdef$[ebp]
  07f8d	50		 push	 eax
  07f8e	8b 4d fc	 mov	 ecx, DWORD PTR _this$[ebp]
  07f91	e8 00 00 00 00	 call	 ?PlusSpecial@CItem@@QAEXPAHH@Z ; CItem::PlusSpecial

; 4136 : 		DecreaseDur = damagemin/(def * 6 + plusdef);

  07f96	8b 4d f8	 mov	 ecx, DWORD PTR _def$[ebp]
  07f99	6b c9 06	 imul	 ecx, 6
  07f9c	03 4d f4	 add	 ecx, DWORD PTR _plusdef$[ebp]
  07f9f	8b 45 08	 mov	 eax, DWORD PTR _damagemin$[ebp]
  07fa2	99		 cdq
  07fa3	f7 f9		 idiv	 ecx
  07fa5	89 45 f0	 mov	 DWORD PTR _DecreaseDur$[ebp], eax
  07fa8	eb 58		 jmp	 SHORT $LN7@ArmorDurab
$LN11@ArmorDurab:

; 4137 : 	}
; 4138 : 	else if ( this->m_RequireClass[5] != 0 )	// Summoner

  07faa	8b 45 fc	 mov	 eax, DWORD PTR _this$[ebp]
  07fad	0f b6 48 5d	 movzx	 ecx, BYTE PTR [eax+93]
  07fb1	85 c9		 test	 ecx, ecx
  07fb3	74 22		 je	 SHORT $LN9@ArmorDurab

; 4139 : 	{
; 4140 : 		this->PlusSpecial(&plusdef, 83);

  07fb5	6a 53		 push	 83			; 00000053H
  07fb7	8d 45 f4	 lea	 eax, DWORD PTR _plusdef$[ebp]
  07fba	50		 push	 eax
  07fbb	8b 4d fc	 mov	 ecx, DWORD PTR _this$[ebp]
  07fbe	e8 00 00 00 00	 call	 ?PlusSpecial@CItem@@QAEXPAHH@Z ; CItem::PlusSpecial

; 4141 : 		DecreaseDur = damagemin/(def * 3 + plusdef);

  07fc3	8b 4d f8	 mov	 ecx, DWORD PTR _def$[ebp]
  07fc6	6b c9 03	 imul	 ecx, 3
  07fc9	03 4d f4	 add	 ecx, DWORD PTR _plusdef$[ebp]
  07fcc	8b 45 08	 mov	 eax, DWORD PTR _damagemin$[ebp]
  07fcf	99		 cdq
  07fd0	f7 f9		 idiv	 ecx
  07fd2	89 45 f0	 mov	 DWORD PTR _DecreaseDur$[ebp], eax
  07fd5	eb 2b		 jmp	 SHORT $LN7@ArmorDurab
$LN9@ArmorDurab:

; 4142 : 	}
; 4143 : #ifdef MART_FIX
; 4144 : 	else if ( this->m_RequireClass[6] != 0 )	// Rage Fight

  07fd7	8b 45 fc	 mov	 eax, DWORD PTR _this$[ebp]
  07fda	0f b6 48 5e	 movzx	 ecx, BYTE PTR [eax+94]
  07fde	85 c9		 test	 ecx, ecx
  07fe0	74 20		 je	 SHORT $LN7@ArmorDurab

; 4145 : 	{
; 4146 : 		this->PlusSpecial(&plusdef, 83);

  07fe2	6a 53		 push	 83			; 00000053H
  07fe4	8d 45 f4	 lea	 eax, DWORD PTR _plusdef$[ebp]
  07fe7	50		 push	 eax
  07fe8	8b 4d fc	 mov	 ecx, DWORD PTR _this$[ebp]
  07feb	e8 00 00 00 00	 call	 ?PlusSpecial@CItem@@QAEXPAHH@Z ; CItem::PlusSpecial

; 4147 : 		DecreaseDur = damagemin/(def * 6 + plusdef);

  07ff0	8b 4d f8	 mov	 ecx, DWORD PTR _def$[ebp]
  07ff3	6b c9 06	 imul	 ecx, 6
  07ff6	03 4d f4	 add	 ecx, DWORD PTR _plusdef$[ebp]
  07ff9	8b 45 08	 mov	 eax, DWORD PTR _damagemin$[ebp]
  07ffc	99		 cdq
  07ffd	f7 f9		 idiv	 ecx
  07fff	89 45 f0	 mov	 DWORD PTR _DecreaseDur$[ebp], eax
$LN7@ArmorDurab:

; 4148 : 	}
; 4149 : #endif // MART_FIX
; 4150 : 
; 4151 : 
; 4152 : 	this->m_DurabilitySmall += DecreaseDur;

  08002	8b 45 fc	 mov	 eax, DWORD PTR _this$[ebp]
  08005	0f b7 48 28	 movzx	 ecx, WORD PTR [eax+40]
  08009	03 4d f0	 add	 ecx, DWORD PTR _DecreaseDur$[ebp]
  0800c	8b 55 fc	 mov	 edx, DWORD PTR _this$[ebp]
  0800f	66 89 4a 28	 mov	 WORD PTR [edx+40], cx

; 4153 : 
; 4154 : 	int DurabilitySmall = 69;

  08013	c7 45 ec 45 00
	00 00		 mov	 DWORD PTR _DurabilitySmall$[ebp], 69 ; 00000045H

; 4155 : 
; 4156 : 	if(gObj[aIndex].m_MPSkillOpt.MpsDownDur1 > 0) //season3 add-on

  0801a	8b 45 0c	 mov	 eax, DWORD PTR _aIndex$[ebp]
  0801d	69 c0 38 2b 00
	00		 imul	 eax, 11064		; 00002b38H
  08023	8b 0d 00 00 00
	00		 mov	 ecx, DWORD PTR ?gObj@@3PAUOBJECTSTRUCT@@A ; gObj
  08029	d9 84 01 44 26
	00 00		 fld	 DWORD PTR [ecx+eax+9796]
  08030	dc 1d 00 00 00
	00		 fcomp	 QWORD PTR __real@0000000000000000
  08036	df e0		 fnstsw	 ax
  08038	f6 c4 41	 test	 ah, 65			; 00000041H
  0803b	75 2a		 jne	 SHORT $LN6@ArmorDurab

; 4157 : 	{
; 4158 : 		DurabilitySmall += DurabilitySmall * gObj[aIndex].m_MPSkillOpt.MpsDownDur1 / 100;

  0803d	db 45 ec	 fild	 DWORD PTR _DurabilitySmall$[ebp]
  08040	8b 45 0c	 mov	 eax, DWORD PTR _aIndex$[ebp]
  08043	69 c0 38 2b 00
	00		 imul	 eax, 11064		; 00002b38H
  08049	8b 0d 00 00 00
	00		 mov	 ecx, DWORD PTR ?gObj@@3PAUOBJECTSTRUCT@@A ; gObj
  0804f	d8 8c 01 44 26
	00 00		 fmul	 DWORD PTR [ecx+eax+9796]
  08056	dc 35 00 00 00
	00		 fdiv	 QWORD PTR __real@4059000000000000
  0805c	da 45 ec	 fiadd	 DWORD PTR _DurabilitySmall$[ebp]
  0805f	e8 00 00 00 00	 call	 __ftol2_sse
  08064	89 45 ec	 mov	 DWORD PTR _DurabilitySmall$[ebp], eax
$LN6@ArmorDurab:

; 4159 : 	}
; 4160 : 
; 4161 : 	if(g_ExLicense.CheckUser(eExUB::Artem) || g_ExLicense.CheckUser(eExUB::Artem2) || 
; 4162 : 		g_ExLicense.CheckUser(eExUB::Gredy) || g_ExLicense.CheckUser(eExUB::Gredy2) || g_ExLicense.CheckUser(eExUB::GredyLocal))

  08067	6a 30		 push	 48			; 00000030H
  08069	b9 00 00 00 00	 mov	 ecx, OFFSET ?g_ExLicense@@3VCExLicense@@A ; g_ExLicense
  0806e	e8 00 00 00 00	 call	 ?CheckUser@CExLicense@@QAE_NH@Z ; CExLicense::CheckUser
  08073	0f b6 c0	 movzx	 eax, al
  08076	85 c0		 test	 eax, eax
  08078	75 4c		 jne	 SHORT $LN4@ArmorDurab
  0807a	6a 31		 push	 49			; 00000031H
  0807c	b9 00 00 00 00	 mov	 ecx, OFFSET ?g_ExLicense@@3VCExLicense@@A ; g_ExLicense
  08081	e8 00 00 00 00	 call	 ?CheckUser@CExLicense@@QAE_NH@Z ; CExLicense::CheckUser
  08086	0f b6 c0	 movzx	 eax, al
  08089	85 c0		 test	 eax, eax
  0808b	75 39		 jne	 SHORT $LN4@ArmorDurab
  0808d	6a 20		 push	 32			; 00000020H
  0808f	b9 00 00 00 00	 mov	 ecx, OFFSET ?g_ExLicense@@3VCExLicense@@A ; g_ExLicense
  08094	e8 00 00 00 00	 call	 ?CheckUser@CExLicense@@QAE_NH@Z ; CExLicense::CheckUser
  08099	0f b6 c0	 movzx	 eax, al
  0809c	85 c0		 test	 eax, eax
  0809e	75 26		 jne	 SHORT $LN4@ArmorDurab
  080a0	6a 22		 push	 34			; 00000022H
  080a2	b9 00 00 00 00	 mov	 ecx, OFFSET ?g_ExLicense@@3VCExLicense@@A ; g_ExLicense
  080a7	e8 00 00 00 00	 call	 ?CheckUser@CExLicense@@QAE_NH@Z ; CExLicense::CheckUser
  080ac	0f b6 c0	 movzx	 eax, al
  080af	85 c0		 test	 eax, eax
  080b1	75 13		 jne	 SHORT $LN4@ArmorDurab
  080b3	6a 21		 push	 33			; 00000021H
  080b5	b9 00 00 00 00	 mov	 ecx, OFFSET ?g_ExLicense@@3VCExLicense@@A ; g_ExLicense
  080ba	e8 00 00 00 00	 call	 ?CheckUser@CExLicense@@QAE_NH@Z ; CExLicense::CheckUser
  080bf	0f b6 c0	 movzx	 eax, al
  080c2	85 c0		 test	 eax, eax
  080c4	74 09		 je	 SHORT $LN5@ArmorDurab
$LN4@ArmorDurab:

; 4163 : 	{
; 4164 : 		DurabilitySmall *= 3;

  080c6	8b 45 ec	 mov	 eax, DWORD PTR _DurabilitySmall$[ebp]
  080c9	6b c0 03	 imul	 eax, 3
  080cc	89 45 ec	 mov	 DWORD PTR _DurabilitySmall$[ebp], eax
$LN5@ArmorDurab:

; 4165 : 	}
; 4166 : 
; 4167 : 	if ( this->m_DurabilitySmall > DurabilitySmall )

  080cf	8b 45 fc	 mov	 eax, DWORD PTR _this$[ebp]
  080d2	0f b7 48 28	 movzx	 ecx, WORD PTR [eax+40]
  080d6	3b 4d ec	 cmp	 ecx, DWORD PTR _DurabilitySmall$[ebp]
  080d9	7e 50		 jle	 SHORT $LN3@ArmorDurab

; 4168 : 	{
; 4169 : 		this->m_DurabilitySmall = 0;

  080db	33 c0		 xor	 eax, eax
  080dd	8b 4d fc	 mov	 ecx, DWORD PTR _this$[ebp]
  080e0	66 89 41 28	 mov	 WORD PTR [ecx+40], ax

; 4170 : 		this->m_Durability -= 1.0f;

  080e4	8b 45 fc	 mov	 eax, DWORD PTR _this$[ebp]
  080e7	d9 40 24	 fld	 DWORD PTR [eax+36]
  080ea	dc 25 00 00 00
	00		 fsub	 QWORD PTR __real@3ff0000000000000
  080f0	8b 4d fc	 mov	 ecx, DWORD PTR _this$[ebp]
  080f3	d9 59 24	 fstp	 DWORD PTR [ecx+36]

; 4171 : 
; 4172 : 		if ( this->m_Durability < 0.0f )

  080f6	8b 45 fc	 mov	 eax, DWORD PTR _this$[ebp]
  080f9	d9 40 24	 fld	 DWORD PTR [eax+36]
  080fc	dc 1d 00 00 00
	00		 fcomp	 QWORD PTR __real@0000000000000000
  08102	df e0		 fnstsw	 ax
  08104	f6 c4 05	 test	 ah, 5
  08107	7a 08		 jp	 SHORT $LN2@ArmorDurab

; 4173 : 		{
; 4174 : 			this->m_Durability = 0;

  08109	8b 45 fc	 mov	 eax, DWORD PTR _this$[ebp]
  0810c	d9 ee		 fldz
  0810e	d9 58 24	 fstp	 DWORD PTR [eax+36]
$LN2@ArmorDurab:

; 4175 : 		}
; 4176 : 		
; 4177 : 		if ( this->CheckDurabilityState() != 0 )

  08111	8b 4d fc	 mov	 ecx, DWORD PTR _this$[ebp]
  08114	e8 00 00 00 00	 call	 ?CheckDurabilityState@CItem@@QAEHXZ ; CItem::CheckDurabilityState
  08119	85 c0		 test	 eax, eax
  0811b	74 07		 je	 SHORT $LN1@ArmorDurab

; 4178 : 		{
; 4179 : 			return 2;

  0811d	b8 02 00 00 00	 mov	 eax, 2
  08122	eb 09		 jmp	 SHORT $LN27@ArmorDurab
$LN1@ArmorDurab:

; 4180 : 		}
; 4181 : 		
; 4182 : 		return 1;

  08124	b8 01 00 00 00	 mov	 eax, 1
  08129	eb 02		 jmp	 SHORT $LN27@ArmorDurab
$LN3@ArmorDurab:

; 4183 : 		
; 4184 : 	}
; 4185 : 	return 0;

  0812b	33 c0		 xor	 eax, eax
$LN27@ArmorDurab:

; 4186 : }

  0812d	5f		 pop	 edi
  0812e	5e		 pop	 esi
  0812f	5b		 pop	 ebx
  08130	8b e5		 mov	 esp, ebp
  08132	5d		 pop	 ebp
  08133	c2 08 00	 ret	 8
?ArmorDurabilityDown@CItem@@QAEHHH@Z ENDP		; CItem::ArmorDurabilityDown
; Function compile flags: /Odtp /ZI
_this$ = -4						; size = 4
?CheckDurabilityState@CItem@@QAEHXZ PROC		; CItem::CheckDurabilityState
; _this$ = ecx

; 4189 : {

  08140	55		 push	 ebp
  08141	8b ec		 mov	 ebp, esp
  08143	83 ec 44	 sub	 esp, 68			; 00000044H
  08146	53		 push	 ebx
  08147	56		 push	 esi
  08148	57		 push	 edi
  08149	89 4d fc	 mov	 DWORD PTR _this$[ebp], ecx

; 4190 : 	if ( this->m_Durability == 0.0f )

  0814c	8b 45 fc	 mov	 eax, DWORD PTR _this$[ebp]
  0814f	d9 40 24	 fld	 DWORD PTR [eax+36]
  08152	d9 ee		 fldz
  08154	da e9		 fucompp
  08156	df e0		 fnstsw	 ax
  08158	f6 c4 44	 test	 ah, 68			; 00000044H
  0815b	0f 8a 8b 00 00
	00		 jp	 $LN13@CheckDurab@3

; 4191 : 	{
; 4192 : 		if ( this->m_CurrentDurabilityState != 1.0f )

  08161	8b 45 fc	 mov	 eax, DWORD PTR _this$[ebp]
  08164	d9 80 a8 00 00
	00		 fld	 DWORD PTR [eax+168]
  0816a	d9 e8		 fld1
  0816c	da e9		 fucompp
  0816e	df e0		 fnstsw	 ax
  08170	f6 c4 44	 test	 ah, 68			; 00000044H
  08173	7b 72		 jnp	 SHORT $LN12@CheckDurab@3

; 4193 : 		{
; 4194 : 			this->m_CurrentDurabilityState = 1.0f;

  08175	8b 45 fc	 mov	 eax, DWORD PTR _this$[ebp]
  08178	d9 e8		 fld1
  0817a	d9 98 a8 00 00
	00		 fstp	 DWORD PTR [eax+168]

; 4195 : 			this->Convert(this->m_Type, this->m_Option1, this->m_Option2, this->m_Option3, this->m_NewOption,
; 4196 : 				this->m_SetOption, this->m_ItemOptionEx, NULL, 0xFF, 0, CURRENT_DB_VERSION);

  08180	6a 03		 push	 3
  08182	6a 00		 push	 0
  08184	68 ff 00 00 00	 push	 255			; 000000ffH
  08189	6a 00		 push	 0
  0818b	8b 45 fc	 mov	 eax, DWORD PTR _this$[ebp]
  0818e	0f b6 88 ca 00
	00 00		 movzx	 ecx, BYTE PTR [eax+202]
  08195	51		 push	 ecx
  08196	8b 55 fc	 mov	 edx, DWORD PTR _this$[ebp]
  08199	0f b6 82 ae 00
	00 00		 movzx	 eax, BYTE PTR [edx+174]
  081a0	50		 push	 eax
  081a1	8b 4d fc	 mov	 ecx, DWORD PTR _this$[ebp]
  081a4	0f b6 91 97 00
	00 00		 movzx	 edx, BYTE PTR [ecx+151]
  081ab	52		 push	 edx
  081ac	8b 45 fc	 mov	 eax, DWORD PTR _this$[ebp]
  081af	0f b6 88 96 00
	00 00		 movzx	 ecx, BYTE PTR [eax+150]
  081b6	51		 push	 ecx
  081b7	8b 55 fc	 mov	 edx, DWORD PTR _this$[ebp]
  081ba	0f b6 82 95 00
	00 00		 movzx	 eax, BYTE PTR [edx+149]
  081c1	50		 push	 eax
  081c2	8b 4d fc	 mov	 ecx, DWORD PTR _this$[ebp]
  081c5	0f b6 91 94 00
	00 00		 movzx	 edx, BYTE PTR [ecx+148]
  081cc	52		 push	 edx
  081cd	8b 45 fc	 mov	 eax, DWORD PTR _this$[ebp]
  081d0	0f bf 48 06	 movsx	 ecx, WORD PTR [eax+6]
  081d4	51		 push	 ecx
  081d5	8b 4d fc	 mov	 ecx, DWORD PTR _this$[ebp]
  081d8	e8 00 00 00 00	 call	 ?Convert@CItem@@QAEXHEEEEEEPAEEEE@Z ; CItem::Convert

; 4197 : 			return true;

  081dd	b8 01 00 00 00	 mov	 eax, 1
  081e2	e9 97 02 00 00	 jmp	 $LN14@CheckDurab@3
$LN12@CheckDurab@3:

; 4198 : 		}
; 4199 : 	}

  081e7	e9 90 02 00 00	 jmp	 $LN1@CheckDurab@3
$LN13@CheckDurab@3:

; 4200 : 	else if ( this->m_Durability < this->m_DurabilityState[2] )

  081ec	8b 45 fc	 mov	 eax, DWORD PTR _this$[ebp]
  081ef	d9 40 24	 fld	 DWORD PTR [eax+36]
  081f2	8b 4d fc	 mov	 ecx, DWORD PTR _this$[ebp]
  081f5	d9 81 a0 00 00
	00		 fld	 DWORD PTR [ecx+160]
  081fb	de d9		 fcompp
  081fd	df e0		 fnstsw	 ax
  081ff	f6 c4 41	 test	 ah, 65			; 00000041H
  08202	0f 85 93 00 00
	00		 jne	 $LN10@CheckDurab@3

; 4201 : 	{
; 4202 : 		if ( this->m_CurrentDurabilityState != 0.5f )

  08208	8b 45 fc	 mov	 eax, DWORD PTR _this$[ebp]
  0820b	d9 80 a8 00 00
	00		 fld	 DWORD PTR [eax+168]
  08211	dd 05 00 00 00
	00		 fld	 QWORD PTR __real@3fe0000000000000
  08217	da e9		 fucompp
  08219	df e0		 fnstsw	 ax
  0821b	f6 c4 44	 test	 ah, 68			; 00000044H
  0821e	7b 76		 jnp	 SHORT $LN9@CheckDurab@3

; 4203 : 		{
; 4204 : 			this->m_CurrentDurabilityState = 0.5f;

  08220	8b 45 fc	 mov	 eax, DWORD PTR _this$[ebp]
  08223	d9 05 00 00 00
	00		 fld	 DWORD PTR __real@3f000000
  08229	d9 98 a8 00 00
	00		 fstp	 DWORD PTR [eax+168]

; 4205 : 			this->Convert(this->m_Type, this->m_Option1, this->m_Option2, this->m_Option3, this->m_NewOption,
; 4206 : 				this->m_SetOption,this->m_ItemOptionEx, NULL, 0xFF, 0, CURRENT_DB_VERSION);

  0822f	6a 03		 push	 3
  08231	6a 00		 push	 0
  08233	68 ff 00 00 00	 push	 255			; 000000ffH
  08238	6a 00		 push	 0
  0823a	8b 45 fc	 mov	 eax, DWORD PTR _this$[ebp]
  0823d	0f b6 88 ca 00
	00 00		 movzx	 ecx, BYTE PTR [eax+202]
  08244	51		 push	 ecx
  08245	8b 55 fc	 mov	 edx, DWORD PTR _this$[ebp]
  08248	0f b6 82 ae 00
	00 00		 movzx	 eax, BYTE PTR [edx+174]
  0824f	50		 push	 eax
  08250	8b 4d fc	 mov	 ecx, DWORD PTR _this$[ebp]
  08253	0f b6 91 97 00
	00 00		 movzx	 edx, BYTE PTR [ecx+151]
  0825a	52		 push	 edx
  0825b	8b 45 fc	 mov	 eax, DWORD PTR _this$[ebp]
  0825e	0f b6 88 96 00
	00 00		 movzx	 ecx, BYTE PTR [eax+150]
  08265	51		 push	 ecx
  08266	8b 55 fc	 mov	 edx, DWORD PTR _this$[ebp]
  08269	0f b6 82 95 00
	00 00		 movzx	 eax, BYTE PTR [edx+149]
  08270	50		 push	 eax
  08271	8b 4d fc	 mov	 ecx, DWORD PTR _this$[ebp]
  08274	0f b6 91 94 00
	00 00		 movzx	 edx, BYTE PTR [ecx+148]
  0827b	52		 push	 edx
  0827c	8b 45 fc	 mov	 eax, DWORD PTR _this$[ebp]
  0827f	0f bf 48 06	 movsx	 ecx, WORD PTR [eax+6]
  08283	51		 push	 ecx
  08284	8b 4d fc	 mov	 ecx, DWORD PTR _this$[ebp]
  08287	e8 00 00 00 00	 call	 ?Convert@CItem@@QAEXHEEEEEEPAEEEE@Z ; CItem::Convert

; 4207 : 			return true;

  0828c	b8 01 00 00 00	 mov	 eax, 1
  08291	e9 e8 01 00 00	 jmp	 $LN14@CheckDurab@3
$LN9@CheckDurab@3:

; 4208 : 		}
; 4209 : 	}

  08296	e9 e1 01 00 00	 jmp	 $LN1@CheckDurab@3
$LN10@CheckDurab@3:

; 4210 : 	else if ( this->m_Durability < this->m_DurabilityState[1] )

  0829b	8b 45 fc	 mov	 eax, DWORD PTR _this$[ebp]
  0829e	d9 40 24	 fld	 DWORD PTR [eax+36]
  082a1	8b 4d fc	 mov	 ecx, DWORD PTR _this$[ebp]
  082a4	d9 81 9c 00 00
	00		 fld	 DWORD PTR [ecx+156]
  082aa	de d9		 fcompp
  082ac	df e0		 fnstsw	 ax
  082ae	f6 c4 41	 test	 ah, 65			; 00000041H
  082b1	0f 85 93 00 00
	00		 jne	 $LN7@CheckDurab@3

; 4211 : 	{
; 4212 : 		if ( this->m_CurrentDurabilityState != 0.3f )

  082b7	8b 45 fc	 mov	 eax, DWORD PTR _this$[ebp]
  082ba	d9 80 a8 00 00
	00		 fld	 DWORD PTR [eax+168]
  082c0	dd 05 00 00 00
	00		 fld	 QWORD PTR __real@3fd3333340000000
  082c6	da e9		 fucompp
  082c8	df e0		 fnstsw	 ax
  082ca	f6 c4 44	 test	 ah, 68			; 00000044H
  082cd	7b 76		 jnp	 SHORT $LN6@CheckDurab@3

; 4213 : 		{
; 4214 : 			this->m_CurrentDurabilityState = 0.3f;

  082cf	8b 45 fc	 mov	 eax, DWORD PTR _this$[ebp]
  082d2	d9 05 00 00 00
	00		 fld	 DWORD PTR __real@3e99999a
  082d8	d9 98 a8 00 00
	00		 fstp	 DWORD PTR [eax+168]

; 4215 : 			this->Convert(this->m_Type, this->m_Option1, this->m_Option2, this->m_Option3, this->m_NewOption,
; 4216 : 				this->m_SetOption,this->m_ItemOptionEx, NULL, 0xFF, 0, CURRENT_DB_VERSION);

  082de	6a 03		 push	 3
  082e0	6a 00		 push	 0
  082e2	68 ff 00 00 00	 push	 255			; 000000ffH
  082e7	6a 00		 push	 0
  082e9	8b 45 fc	 mov	 eax, DWORD PTR _this$[ebp]
  082ec	0f b6 88 ca 00
	00 00		 movzx	 ecx, BYTE PTR [eax+202]
  082f3	51		 push	 ecx
  082f4	8b 55 fc	 mov	 edx, DWORD PTR _this$[ebp]
  082f7	0f b6 82 ae 00
	00 00		 movzx	 eax, BYTE PTR [edx+174]
  082fe	50		 push	 eax
  082ff	8b 4d fc	 mov	 ecx, DWORD PTR _this$[ebp]
  08302	0f b6 91 97 00
	00 00		 movzx	 edx, BYTE PTR [ecx+151]
  08309	52		 push	 edx
  0830a	8b 45 fc	 mov	 eax, DWORD PTR _this$[ebp]
  0830d	0f b6 88 96 00
	00 00		 movzx	 ecx, BYTE PTR [eax+150]
  08314	51		 push	 ecx
  08315	8b 55 fc	 mov	 edx, DWORD PTR _this$[ebp]
  08318	0f b6 82 95 00
	00 00		 movzx	 eax, BYTE PTR [edx+149]
  0831f	50		 push	 eax
  08320	8b 4d fc	 mov	 ecx, DWORD PTR _this$[ebp]
  08323	0f b6 91 94 00
	00 00		 movzx	 edx, BYTE PTR [ecx+148]
  0832a	52		 push	 edx
  0832b	8b 45 fc	 mov	 eax, DWORD PTR _this$[ebp]
  0832e	0f bf 48 06	 movsx	 ecx, WORD PTR [eax+6]
  08332	51		 push	 ecx
  08333	8b 4d fc	 mov	 ecx, DWORD PTR _this$[ebp]
  08336	e8 00 00 00 00	 call	 ?Convert@CItem@@QAEXHEEEEEEPAEEEE@Z ; CItem::Convert

; 4217 : 			return true;

  0833b	b8 01 00 00 00	 mov	 eax, 1
  08340	e9 39 01 00 00	 jmp	 $LN14@CheckDurab@3
$LN6@CheckDurab@3:

; 4218 : 		}
; 4219 : 	}

  08345	e9 32 01 00 00	 jmp	 $LN1@CheckDurab@3
$LN7@CheckDurab@3:

; 4220 : 	else if ( this->m_Durability < this->m_DurabilityState[0] )

  0834a	8b 45 fc	 mov	 eax, DWORD PTR _this$[ebp]
  0834d	d9 40 24	 fld	 DWORD PTR [eax+36]
  08350	8b 4d fc	 mov	 ecx, DWORD PTR _this$[ebp]
  08353	d9 81 98 00 00
	00		 fld	 DWORD PTR [ecx+152]
  08359	de d9		 fcompp
  0835b	df e0		 fnstsw	 ax
  0835d	f6 c4 41	 test	 ah, 65			; 00000041H
  08360	0f 85 93 00 00
	00		 jne	 $LN4@CheckDurab@3

; 4221 : 	{
; 4222 : 		if ( this->m_CurrentDurabilityState != 0.2f )

  08366	8b 45 fc	 mov	 eax, DWORD PTR _this$[ebp]
  08369	d9 80 a8 00 00
	00		 fld	 DWORD PTR [eax+168]
  0836f	dd 05 00 00 00
	00		 fld	 QWORD PTR __real@3fc99999a0000000
  08375	da e9		 fucompp
  08377	df e0		 fnstsw	 ax
  08379	f6 c4 44	 test	 ah, 68			; 00000044H
  0837c	7b 76		 jnp	 SHORT $LN3@CheckDurab@3

; 4223 : 		{
; 4224 : 			this->m_CurrentDurabilityState = 0.2f;

  0837e	8b 45 fc	 mov	 eax, DWORD PTR _this$[ebp]
  08381	d9 05 00 00 00
	00		 fld	 DWORD PTR __real@3e4ccccd
  08387	d9 98 a8 00 00
	00		 fstp	 DWORD PTR [eax+168]

; 4225 : 			this->Convert(this->m_Type, this->m_Option1, this->m_Option2, this->m_Option3, this->m_NewOption,
; 4226 : 				this->m_SetOption,this->m_ItemOptionEx, NULL, 0xFF, 0, CURRENT_DB_VERSION);

  0838d	6a 03		 push	 3
  0838f	6a 00		 push	 0
  08391	68 ff 00 00 00	 push	 255			; 000000ffH
  08396	6a 00		 push	 0
  08398	8b 45 fc	 mov	 eax, DWORD PTR _this$[ebp]
  0839b	0f b6 88 ca 00
	00 00		 movzx	 ecx, BYTE PTR [eax+202]
  083a2	51		 push	 ecx
  083a3	8b 55 fc	 mov	 edx, DWORD PTR _this$[ebp]
  083a6	0f b6 82 ae 00
	00 00		 movzx	 eax, BYTE PTR [edx+174]
  083ad	50		 push	 eax
  083ae	8b 4d fc	 mov	 ecx, DWORD PTR _this$[ebp]
  083b1	0f b6 91 97 00
	00 00		 movzx	 edx, BYTE PTR [ecx+151]
  083b8	52		 push	 edx
  083b9	8b 45 fc	 mov	 eax, DWORD PTR _this$[ebp]
  083bc	0f b6 88 96 00
	00 00		 movzx	 ecx, BYTE PTR [eax+150]
  083c3	51		 push	 ecx
  083c4	8b 55 fc	 mov	 edx, DWORD PTR _this$[ebp]
  083c7	0f b6 82 95 00
	00 00		 movzx	 eax, BYTE PTR [edx+149]
  083ce	50		 push	 eax
  083cf	8b 4d fc	 mov	 ecx, DWORD PTR _this$[ebp]
  083d2	0f b6 91 94 00
	00 00		 movzx	 edx, BYTE PTR [ecx+148]
  083d9	52		 push	 edx
  083da	8b 45 fc	 mov	 eax, DWORD PTR _this$[ebp]
  083dd	0f bf 48 06	 movsx	 ecx, WORD PTR [eax+6]
  083e1	51		 push	 ecx
  083e2	8b 4d fc	 mov	 ecx, DWORD PTR _this$[ebp]
  083e5	e8 00 00 00 00	 call	 ?Convert@CItem@@QAEXHEEEEEEPAEEEE@Z ; CItem::Convert

; 4227 : 			return true;

  083ea	b8 01 00 00 00	 mov	 eax, 1
  083ef	e9 8a 00 00 00	 jmp	 $LN14@CheckDurab@3
$LN3@CheckDurab@3:

; 4228 : 		}
; 4229 : 	}

  083f4	e9 83 00 00 00	 jmp	 $LN1@CheckDurab@3
$LN4@CheckDurab@3:

; 4230 : 	else if ( this->m_CurrentDurabilityState != 0.0f )

  083f9	8b 45 fc	 mov	 eax, DWORD PTR _this$[ebp]
  083fc	d9 80 a8 00 00
	00		 fld	 DWORD PTR [eax+168]
  08402	d9 ee		 fldz
  08404	da e9		 fucompp
  08406	df e0		 fnstsw	 ax
  08408	f6 c4 44	 test	 ah, 68			; 00000044H
  0840b	7b 6f		 jnp	 SHORT $LN1@CheckDurab@3

; 4231 : 	{
; 4232 : 		this->m_CurrentDurabilityState = 0;

  0840d	8b 45 fc	 mov	 eax, DWORD PTR _this$[ebp]
  08410	d9 ee		 fldz
  08412	d9 98 a8 00 00
	00		 fstp	 DWORD PTR [eax+168]

; 4233 : 		this->Convert(this->m_Type, this->m_Option1, this->m_Option2, this->m_Option3, this->m_NewOption,
; 4234 : 			this->m_SetOption,this->m_ItemOptionEx, NULL, 0xFF, 0, CURRENT_DB_VERSION);

  08418	6a 03		 push	 3
  0841a	6a 00		 push	 0
  0841c	68 ff 00 00 00	 push	 255			; 000000ffH
  08421	6a 00		 push	 0
  08423	8b 45 fc	 mov	 eax, DWORD PTR _this$[ebp]
  08426	0f b6 88 ca 00
	00 00		 movzx	 ecx, BYTE PTR [eax+202]
  0842d	51		 push	 ecx
  0842e	8b 55 fc	 mov	 edx, DWORD PTR _this$[ebp]
  08431	0f b6 82 ae 00
	00 00		 movzx	 eax, BYTE PTR [edx+174]
  08438	50		 push	 eax
  08439	8b 4d fc	 mov	 ecx, DWORD PTR _this$[ebp]
  0843c	0f b6 91 97 00
	00 00		 movzx	 edx, BYTE PTR [ecx+151]
  08443	52		 push	 edx
  08444	8b 45 fc	 mov	 eax, DWORD PTR _this$[ebp]
  08447	0f b6 88 96 00
	00 00		 movzx	 ecx, BYTE PTR [eax+150]
  0844e	51		 push	 ecx
  0844f	8b 55 fc	 mov	 edx, DWORD PTR _this$[ebp]
  08452	0f b6 82 95 00
	00 00		 movzx	 eax, BYTE PTR [edx+149]
  08459	50		 push	 eax
  0845a	8b 4d fc	 mov	 ecx, DWORD PTR _this$[ebp]
  0845d	0f b6 91 94 00
	00 00		 movzx	 edx, BYTE PTR [ecx+148]
  08464	52		 push	 edx
  08465	8b 45 fc	 mov	 eax, DWORD PTR _this$[ebp]
  08468	0f bf 48 06	 movsx	 ecx, WORD PTR [eax+6]
  0846c	51		 push	 ecx
  0846d	8b 4d fc	 mov	 ecx, DWORD PTR _this$[ebp]
  08470	e8 00 00 00 00	 call	 ?Convert@CItem@@QAEXHEEEEEEPAEEEE@Z ; CItem::Convert

; 4235 : 		return true;

  08475	b8 01 00 00 00	 mov	 eax, 1
  0847a	eb 02		 jmp	 SHORT $LN14@CheckDurab@3
$LN1@CheckDurab@3:

; 4236 : 	}
; 4237 : 
; 4238 : 	return false;

  0847c	33 c0		 xor	 eax, eax
$LN14@CheckDurab@3:

; 4239 : }

  0847e	5f		 pop	 edi
  0847f	5e		 pop	 esi
  08480	5b		 pop	 ebx
  08481	8b e5		 mov	 esp, ebp
  08483	5d		 pop	 ebp
  08484	c3		 ret	 0
?CheckDurabilityState@CItem@@QAEHXZ ENDP		; CItem::CheckDurabilityState
_TEXT	ENDS
PUBLIC	?SearchEmptySocketSlot@CItem@@QAEEXZ		; CItem::SearchEmptySocketSlot
; Function compile flags: /Odtp /ZI
_TEXT	SEGMENT
_i$231983 = -8						; size = 4
_this$ = -4						; size = 4
?SearchEmptySocketSlot@CItem@@QAEEXZ PROC		; CItem::SearchEmptySocketSlot
; _this$ = ecx

; 4243 : {

  08490	55		 push	 ebp
  08491	8b ec		 mov	 ebp, esp
  08493	83 ec 48	 sub	 esp, 72			; 00000048H
  08496	53		 push	 ebx
  08497	56		 push	 esi
  08498	57		 push	 edi
  08499	89 4d fc	 mov	 DWORD PTR _this$[ebp], ecx

; 4244 : 	for (int i = 0; i < 5; i++)

  0849c	c7 45 f8 00 00
	00 00		 mov	 DWORD PTR _i$231983[ebp], 0
  084a3	eb 09		 jmp	 SHORT $LN4@SearchEmpt
$LN3@SearchEmpt:
  084a5	8b 45 f8	 mov	 eax, DWORD PTR _i$231983[ebp]
  084a8	83 c0 01	 add	 eax, 1
  084ab	89 45 f8	 mov	 DWORD PTR _i$231983[ebp], eax
$LN4@SearchEmpt:
  084ae	83 7d f8 05	 cmp	 DWORD PTR _i$231983[ebp], 5
  084b2	7d 1b		 jge	 SHORT $LN2@SearchEmpt

; 4245 : 	{
; 4246 : 		if(this->m_SocketOption[i] == 0xFE)

  084b4	8b 45 fc	 mov	 eax, DWORD PTR _this$[ebp]
  084b7	03 45 f8	 add	 eax, DWORD PTR _i$231983[ebp]
  084ba	0f b6 88 cc 00
	00 00		 movzx	 ecx, BYTE PTR [eax+204]
  084c1	81 f9 fe 00 00
	00		 cmp	 ecx, 254		; 000000feH
  084c7	75 04		 jne	 SHORT $LN1@SearchEmpt

; 4247 : 		{
; 4248 : 			return 1;

  084c9	b0 01		 mov	 al, 1
  084cb	eb 04		 jmp	 SHORT $LN5@SearchEmpt
$LN1@SearchEmpt:

; 4249 : 		}
; 4250 : 	}

  084cd	eb d6		 jmp	 SHORT $LN3@SearchEmpt
$LN2@SearchEmpt:

; 4251 : 	return 0;

  084cf	32 c0		 xor	 al, al
$LN5@SearchEmpt:

; 4252 : }

  084d1	5f		 pop	 edi
  084d2	5e		 pop	 esi
  084d3	5b		 pop	 ebx
  084d4	8b e5		 mov	 esp, ebp
  084d6	5d		 pop	 ebp
  084d7	c3		 ret	 0
?SearchEmptySocketSlot@CItem@@QAEEXZ ENDP		; CItem::SearchEmptySocketSlot
_TEXT	ENDS
PUBLIC	?SetSocketOptionSlot@CItem@@QAEEEEE@Z		; CItem::SetSocketOptionSlot
; Function compile flags: /Odtp /ZI
_TEXT	SEGMENT
_loc2$ = -5						; size = 1
_this$ = -4						; size = 4
_SocketSlot$ = 8					; size = 1
_arg2$ = 12						; size = 1
_arg3$ = 16						; size = 1
?SetSocketOptionSlot@CItem@@QAEEEEE@Z PROC		; CItem::SetSocketOptionSlot
; _this$ = ecx

; 4256 : {

  084e0	55		 push	 ebp
  084e1	8b ec		 mov	 ebp, esp
  084e3	83 ec 48	 sub	 esp, 72			; 00000048H
  084e6	53		 push	 ebx
  084e7	56		 push	 esi
  084e8	57		 push	 edi
  084e9	89 4d fc	 mov	 DWORD PTR _this$[ebp], ecx

; 4257 : 	BYTE loc2 = 0;

  084ec	c6 45 fb 00	 mov	 BYTE PTR _loc2$[ebp], 0

; 4258 : 
; 4259 : 	if( SocketSlot < 0 || SocketSlot >= 5)

  084f0	0f b6 45 08	 movzx	 eax, BYTE PTR _SocketSlot$[ebp]
  084f4	85 c0		 test	 eax, eax
  084f6	7c 09		 jl	 SHORT $LN2@SetSocketO
  084f8	0f b6 45 08	 movzx	 eax, BYTE PTR _SocketSlot$[ebp]
  084fc	83 f8 05	 cmp	 eax, 5
  084ff	7c 04		 jl	 SHORT $LN3@SetSocketO
$LN2@SetSocketO:

; 4260 : 	{
; 4261 : 		return 0;

  08501	32 c0		 xor	 al, al
  08503	eb 55		 jmp	 SHORT $LN4@SetSocketO
$LN3@SetSocketO:

; 4262 : 	}
; 4263 : 
; 4264 : 	loc2 = arg3 * 50 + arg2;

  08505	0f b6 45 10	 movzx	 eax, BYTE PTR _arg3$[ebp]
  08509	6b c0 32	 imul	 eax, 50			; 00000032H
  0850c	0f b6 4d 0c	 movzx	 ecx, BYTE PTR _arg2$[ebp]
  08510	03 c1		 add	 eax, ecx
  08512	88 45 fb	 mov	 BYTE PTR _loc2$[ebp], al

; 4265 : 
; 4266 : 	if( this->m_SocketOption[SocketSlot] != 0xFF &&
; 4267 : 		this->m_SocketOption[SocketSlot] == 0xFE)

  08515	0f b6 45 08	 movzx	 eax, BYTE PTR _SocketSlot$[ebp]
  08519	8b 4d fc	 mov	 ecx, DWORD PTR _this$[ebp]
  0851c	0f b6 94 01 cc
	00 00 00	 movzx	 edx, BYTE PTR [ecx+eax+204]
  08524	81 fa ff 00 00
	00		 cmp	 edx, 255		; 000000ffH
  0852a	74 2c		 je	 SHORT $LN1@SetSocketO
  0852c	0f b6 45 08	 movzx	 eax, BYTE PTR _SocketSlot$[ebp]
  08530	8b 4d fc	 mov	 ecx, DWORD PTR _this$[ebp]
  08533	0f b6 94 01 cc
	00 00 00	 movzx	 edx, BYTE PTR [ecx+eax+204]
  0853b	81 fa fe 00 00
	00		 cmp	 edx, 254		; 000000feH
  08541	75 15		 jne	 SHORT $LN1@SetSocketO

; 4268 : 	{
; 4269 : 		this->m_SocketOption[SocketSlot] = loc2;

  08543	0f b6 45 08	 movzx	 eax, BYTE PTR _SocketSlot$[ebp]
  08547	8b 4d fc	 mov	 ecx, DWORD PTR _this$[ebp]
  0854a	8a 55 fb	 mov	 dl, BYTE PTR _loc2$[ebp]
  0854d	88 94 01 cc 00
	00 00		 mov	 BYTE PTR [ecx+eax+204], dl

; 4270 : 		return 1;

  08554	b0 01		 mov	 al, 1
  08556	eb 02		 jmp	 SHORT $LN4@SetSocketO
$LN1@SetSocketO:

; 4271 : 	}
; 4272 : 
; 4273 : 	return 0;

  08558	32 c0		 xor	 al, al
$LN4@SetSocketO:

; 4274 : }

  0855a	5f		 pop	 edi
  0855b	5e		 pop	 esi
  0855c	5b		 pop	 ebx
  0855d	8b e5		 mov	 esp, ebp
  0855f	5d		 pop	 ebp
  08560	c2 0c 00	 ret	 12			; 0000000cH
?SetSocketOptionSlot@CItem@@QAEEEEE@Z ENDP		; CItem::SetSocketOptionSlot
_TEXT	ENDS
PUBLIC	?DeleteSocketOptionSlot@CItem@@QAEEE@Z		; CItem::DeleteSocketOptionSlot
; Function compile flags: /Odtp /ZI
_TEXT	SEGMENT
_this$ = -4						; size = 4
_SocketSlot$ = 8					; size = 1
?DeleteSocketOptionSlot@CItem@@QAEEE@Z PROC		; CItem::DeleteSocketOptionSlot
; _this$ = ecx

; 4278 : {

  08570	55		 push	 ebp
  08571	8b ec		 mov	 ebp, esp
  08573	83 ec 44	 sub	 esp, 68			; 00000044H
  08576	53		 push	 ebx
  08577	56		 push	 esi
  08578	57		 push	 edi
  08579	89 4d fc	 mov	 DWORD PTR _this$[ebp], ecx

; 4279 : 	if( SocketSlot <= 0 || SocketSlot >= 5)

  0857c	0f b6 45 08	 movzx	 eax, BYTE PTR _SocketSlot$[ebp]
  08580	85 c0		 test	 eax, eax
  08582	7e 09		 jle	 SHORT $LN2@DeleteSock
  08584	0f b6 45 08	 movzx	 eax, BYTE PTR _SocketSlot$[ebp]
  08588	83 f8 05	 cmp	 eax, 5
  0858b	7c 04		 jl	 SHORT $LN3@DeleteSock
$LN2@DeleteSock:

; 4280 : 	{
; 4281 : 		return 0;

  0858d	32 c0		 xor	 al, al
  0858f	eb 43		 jmp	 SHORT $LN4@DeleteSock
$LN3@DeleteSock:

; 4282 : 	}
; 4283 : 
; 4284 : 	if( this->m_SocketOption[SocketSlot] != 0xFF &&
; 4285 : 		this->m_SocketOption[SocketSlot] != 0xFE)

  08591	0f b6 45 08	 movzx	 eax, BYTE PTR _SocketSlot$[ebp]
  08595	8b 4d fc	 mov	 ecx, DWORD PTR _this$[ebp]
  08598	0f b6 94 01 cc
	00 00 00	 movzx	 edx, BYTE PTR [ecx+eax+204]
  085a0	81 fa ff 00 00
	00		 cmp	 edx, 255		; 000000ffH
  085a6	74 2a		 je	 SHORT $LN1@DeleteSock
  085a8	0f b6 45 08	 movzx	 eax, BYTE PTR _SocketSlot$[ebp]
  085ac	8b 4d fc	 mov	 ecx, DWORD PTR _this$[ebp]
  085af	0f b6 94 01 cc
	00 00 00	 movzx	 edx, BYTE PTR [ecx+eax+204]
  085b7	81 fa fe 00 00
	00		 cmp	 edx, 254		; 000000feH
  085bd	74 13		 je	 SHORT $LN1@DeleteSock

; 4286 : 	{
; 4287 : 		this->m_SocketOption[SocketSlot] = 0xFE;

  085bf	0f b6 45 08	 movzx	 eax, BYTE PTR _SocketSlot$[ebp]
  085c3	8b 4d fc	 mov	 ecx, DWORD PTR _this$[ebp]
  085c6	c6 84 01 cc 00
	00 00 fe	 mov	 BYTE PTR [ecx+eax+204], 254 ; 000000feH

; 4288 : 		return 1;

  085ce	b0 01		 mov	 al, 1
  085d0	eb 02		 jmp	 SHORT $LN4@DeleteSock
$LN1@DeleteSock:

; 4289 : 	}
; 4290 : 
; 4291 : 	return 0;

  085d2	32 c0		 xor	 al, al
$LN4@DeleteSock:

; 4292 : }

  085d4	5f		 pop	 edi
  085d5	5e		 pop	 esi
  085d6	5b		 pop	 ebx
  085d7	8b e5		 mov	 esp, ebp
  085d9	5d		 pop	 ebp
  085da	c2 04 00	 ret	 4
?DeleteSocketOptionSlot@CItem@@QAEEE@Z ENDP		; CItem::DeleteSocketOptionSlot
_TEXT	ENDS
PUBLIC	?ClearSocketOption@CItem@@QAEXE@Z		; CItem::ClearSocketOption
; Function compile flags: /Odtp /ZI
_TEXT	SEGMENT
_i$232010 = -8						; size = 4
_this$ = -4						; size = 4
_btSocketSlotCount$ = 8					; size = 1
?ClearSocketOption@CItem@@QAEXE@Z PROC			; CItem::ClearSocketOption
; _this$ = ecx

; 4296 : {

  085e0	55		 push	 ebp
  085e1	8b ec		 mov	 ebp, esp
  085e3	83 ec 48	 sub	 esp, 72			; 00000048H
  085e6	53		 push	 ebx
  085e7	56		 push	 esi
  085e8	57		 push	 edi
  085e9	89 4d fc	 mov	 DWORD PTR _this$[ebp], ecx

; 4297 : 	if(g_SocketOption.IsActive(this) == FALSE)

  085ec	8b 45 fc	 mov	 eax, DWORD PTR _this$[ebp]
  085ef	50		 push	 eax
  085f0	b9 00 00 00 00	 mov	 ecx, OFFSET ?g_SocketOption@@3VCSocketOption@@A ; g_SocketOption
  085f5	e8 00 00 00 00	 call	 ?IsActive@CSocketOption@@QAEEPAVCItem@@@Z ; CSocketOption::IsActive
  085fa	0f b6 c8	 movzx	 ecx, al
  085fd	85 c9		 test	 ecx, ecx
  085ff	75 02		 jne	 SHORT $LN4@ClearSocke

; 4298 : 	{
; 4299 : 		return;

  08601	eb 34		 jmp	 SHORT $LN5@ClearSocke
$LN4@ClearSocke:

; 4300 : 	}
; 4301 : 
; 4302 : 	for(int i = 0;i< btSocketSlotCount;i++)

  08603	c7 45 f8 00 00
	00 00		 mov	 DWORD PTR _i$232010[ebp], 0
  0860a	eb 09		 jmp	 SHORT $LN3@ClearSocke
$LN2@ClearSocke:
  0860c	8b 45 f8	 mov	 eax, DWORD PTR _i$232010[ebp]
  0860f	83 c0 01	 add	 eax, 1
  08612	89 45 f8	 mov	 DWORD PTR _i$232010[ebp], eax
$LN3@ClearSocke:
  08615	0f b6 45 08	 movzx	 eax, BYTE PTR _btSocketSlotCount$[ebp]
  08619	39 45 f8	 cmp	 DWORD PTR _i$232010[ebp], eax
  0861c	7d 0f		 jge	 SHORT $LN1@ClearSocke

; 4303 : 	{
; 4304 : 		this->m_SocketOption[i] = 0xFE;

  0861e	8b 45 fc	 mov	 eax, DWORD PTR _this$[ebp]
  08621	03 45 f8	 add	 eax, DWORD PTR _i$232010[ebp]
  08624	c6 80 cc 00 00
	00 fe		 mov	 BYTE PTR [eax+204], 254	; 000000feH

; 4305 : 	}

  0862b	eb df		 jmp	 SHORT $LN2@ClearSocke
$LN1@ClearSocke:

; 4306 : 
; 4307 : 	this->m_SocketOptionIndex = 0xFF;

  0862d	8b 45 fc	 mov	 eax, DWORD PTR _this$[ebp]
  08630	c6 80 cb 00 00
	00 ff		 mov	 BYTE PTR [eax+203], 255	; 000000ffH
$LN5@ClearSocke:

; 4308 : }

  08637	5f		 pop	 edi
  08638	5e		 pop	 esi
  08639	5b		 pop	 ebx
  0863a	8b e5		 mov	 esp, ebp
  0863c	5d		 pop	 ebp
  0863d	c2 04 00	 ret	 4
?ClearSocketOption@CItem@@QAEXE@Z ENDP			; CItem::ClearSocketOption
; Function compile flags: /Odtp /ZI
_this$ = -4						; size = 4
?IsPeriodItem@CItem@@QAE_NXZ PROC			; CItem::IsPeriodItem
; _this$ = ecx

; 4312 : {

  08640	55		 push	 ebp
  08641	8b ec		 mov	 ebp, esp
  08643	83 ec 44	 sub	 esp, 68			; 00000044H
  08646	53		 push	 ebx
  08647	56		 push	 esi
  08648	57		 push	 edi
  08649	89 4d fc	 mov	 DWORD PTR _this$[ebp], ecx

; 4313 : #ifdef DEBUG_CODE
; 4314 : 	LogAddC(2,"m_PeriodItemOption: %d",m_PeriodItemOption);
; 4315 : #endif
; 4316 : 	return ((this->m_PeriodItemOption & 1) == 1);

  0864c	8b 45 fc	 mov	 eax, DWORD PTR _this$[ebp]
  0864f	0f b6 80 d2 00
	00 00		 movzx	 eax, BYTE PTR [eax+210]
  08656	83 e0 01	 and	 eax, 1
  08659	83 e8 01	 sub	 eax, 1
  0865c	f7 d8		 neg	 eax
  0865e	1b c0		 sbb	 eax, eax
  08660	83 c0 01	 add	 eax, 1

; 4317 : }

  08663	5f		 pop	 edi
  08664	5e		 pop	 esi
  08665	5b		 pop	 ebx
  08666	8b e5		 mov	 esp, ebp
  08668	5d		 pop	 ebp
  08669	c3		 ret	 0
?IsPeriodItem@CItem@@QAE_NXZ ENDP			; CItem::IsPeriodItem
_TEXT	ENDS
PUBLIC	?IsPeriodItemExpire@CItem@@QAE_NXZ		; CItem::IsPeriodItemExpire
; Function compile flags: /Odtp /ZI
_TEXT	SEGMENT
_this$ = -4						; size = 4
?IsPeriodItemExpire@CItem@@QAE_NXZ PROC			; CItem::IsPeriodItemExpire
; _this$ = ecx

; 4321 : {

  08670	55		 push	 ebp
  08671	8b ec		 mov	 ebp, esp
  08673	83 ec 44	 sub	 esp, 68			; 00000044H
  08676	53		 push	 ebx
  08677	56		 push	 esi
  08678	57		 push	 edi
  08679	89 4d fc	 mov	 DWORD PTR _this$[ebp], ecx

; 4322 : 	return ((this->m_PeriodItemOption & 2) == 2);

  0867c	8b 45 fc	 mov	 eax, DWORD PTR _this$[ebp]
  0867f	0f b6 88 d2 00
	00 00		 movzx	 ecx, BYTE PTR [eax+210]
  08686	83 e1 02	 and	 ecx, 2
  08689	33 c0		 xor	 eax, eax
  0868b	83 f9 02	 cmp	 ecx, 2
  0868e	0f 94 c0	 sete	 al

; 4323 : }

  08691	5f		 pop	 edi
  08692	5e		 pop	 esi
  08693	5b		 pop	 ebx
  08694	8b e5		 mov	 esp, ebp
  08696	5d		 pop	 ebp
  08697	c3		 ret	 0
?IsPeriodItemExpire@CItem@@QAE_NXZ ENDP			; CItem::IsPeriodItemExpire
_TEXT	ENDS
PUBLIC	?SetPeriodItem@CItem@@QAEXXZ			; CItem::SetPeriodItem
; Function compile flags: /Odtp /ZI
_TEXT	SEGMENT
_this$ = -4						; size = 4
?SetPeriodItem@CItem@@QAEXXZ PROC			; CItem::SetPeriodItem
; _this$ = ecx

; 4327 : {

  086a0	55		 push	 ebp
  086a1	8b ec		 mov	 ebp, esp
  086a3	83 ec 44	 sub	 esp, 68			; 00000044H
  086a6	53		 push	 ebx
  086a7	56		 push	 esi
  086a8	57		 push	 edi
  086a9	89 4d fc	 mov	 DWORD PTR _this$[ebp], ecx

; 4328 : 	this->m_PeriodItemOption = 1;

  086ac	8b 45 fc	 mov	 eax, DWORD PTR _this$[ebp]
  086af	c6 80 d2 00 00
	00 01		 mov	 BYTE PTR [eax+210], 1

; 4329 : }

  086b6	5f		 pop	 edi
  086b7	5e		 pop	 esi
  086b8	5b		 pop	 ebx
  086b9	8b e5		 mov	 esp, ebp
  086bb	5d		 pop	 ebp
  086bc	c3		 ret	 0
?SetPeriodItem@CItem@@QAEXXZ ENDP			; CItem::SetPeriodItem
_TEXT	ENDS
PUBLIC	?SetPeriodItemExpire@CItem@@QAEXXZ		; CItem::SetPeriodItemExpire
; Function compile flags: /Odtp /ZI
_TEXT	SEGMENT
_this$ = -4						; size = 4
?SetPeriodItemExpire@CItem@@QAEXXZ PROC			; CItem::SetPeriodItemExpire
; _this$ = ecx

; 4333 : {

  086c0	55		 push	 ebp
  086c1	8b ec		 mov	 ebp, esp
  086c3	83 ec 44	 sub	 esp, 68			; 00000044H
  086c6	53		 push	 ebx
  086c7	56		 push	 esi
  086c8	57		 push	 edi
  086c9	89 4d fc	 mov	 DWORD PTR _this$[ebp], ecx

; 4334 : 	this->m_PeriodItemOption |= 2;

  086cc	8b 45 fc	 mov	 eax, DWORD PTR _this$[ebp]
  086cf	0f b6 88 d2 00
	00 00		 movzx	 ecx, BYTE PTR [eax+210]
  086d6	83 c9 02	 or	 ecx, 2
  086d9	8b 55 fc	 mov	 edx, DWORD PTR _this$[ebp]
  086dc	88 8a d2 00 00
	00		 mov	 BYTE PTR [edx+210], cl

; 4335 : 	this->m_Durability = 0;

  086e2	8b 45 fc	 mov	 eax, DWORD PTR _this$[ebp]
  086e5	d9 ee		 fldz
  086e7	d9 58 24	 fstp	 DWORD PTR [eax+36]

; 4336 : }

  086ea	5f		 pop	 edi
  086eb	5e		 pop	 esi
  086ec	5b		 pop	 ebx
  086ed	8b e5		 mov	 esp, ebp
  086ef	5d		 pop	 ebp
  086f0	c3		 ret	 0
?SetPeriodItemExpire@CItem@@QAEXXZ ENDP			; CItem::SetPeriodItemExpire
_TEXT	ENDS
PUBLIC	??_C@_0EG@OACKBCBJ@?$FLLuckyItem?$FN?5Durability?5Down?5?$FL?$CFs?$FN@ ; `string'
PUBLIC	??_C@_0M@CMHGAAPM@defL?$KG?50L?$KG?$CL?9?$AA@	; `string'
PUBLIC	?LuckyItemArmorDurabilityDown@CItem@@QAEHHH@Z	; CItem::LuckyItemArmorDurabilityDown
EXTRN	?GDReqLuckyItemDelete@LuckyItemManager@@QAEXFJH@Z:PROC ; LuckyItemManager::GDReqLuckyItemDelete
EXTRN	?GetLuckyItemDurabilityTime@LuckyItemManager@@QAEHXZ:PROC ; LuckyItemManager::GetLuckyItemDurabilityTime
EXTRN	?LogAddTD@@3P6AXPADZZA:DWORD			; LogAddTD
;	COMDAT ??_C@_0EG@OACKBCBJ@?$FLLuckyItem?$FN?5Durability?5Down?5?$FL?$CFs?$FN@
CONST	SEGMENT
??_C@_0EG@OACKBCBJ@?$FLLuckyItem?$FN?5Durability?5Down?5?$FL?$CFs?$FN@ DB '['
	DB	'LuckyItem] Durability Down [%s][%s] [%d][%s] Serial:[%u] Dur:'
	DB	'[%d/%d]', 00H				; `string'
CONST	ENDS
;	COMDAT ??_C@_0M@CMHGAAPM@defL?$KG?50L?$KG?$CL?9?$AA@
CONST	SEGMENT
??_C@_0M@CMHGAAPM@defL?$KG?50L?$KG?$CL?9?$AA@ DB 'defL', 0a6H, ' 0L', 0a6H
	DB	'+-', 00H					; `string'
; Function compile flags: /Odtp /ZI
CONST	ENDS
_TEXT	SEGMENT
_this$ = -4						; size = 4
_damagemin$ = 8						; size = 4
_aIndex$ = 12						; size = 4
?LuckyItemArmorDurabilityDown@CItem@@QAEHHH@Z PROC	; CItem::LuckyItemArmorDurabilityDown
; _this$ = ecx

; 4339 : {

  08700	55		 push	 ebp
  08701	8b ec		 mov	 ebp, esp
  08703	83 ec 44	 sub	 esp, 68			; 00000044H
  08706	53		 push	 ebx
  08707	56		 push	 esi
  08708	57		 push	 edi
  08709	89 4d fc	 mov	 DWORD PTR _this$[ebp], ecx

; 4340 : 	if( this->m_Durability <= 0.0f )

  0870c	8b 45 fc	 mov	 eax, DWORD PTR _this$[ebp]
  0870f	d9 40 24	 fld	 DWORD PTR [eax+36]
  08712	dc 1d 00 00 00
	00		 fcomp	 QWORD PTR __real@0000000000000000
  08718	df e0		 fnstsw	 ax
  0871a	f6 c4 41	 test	 ah, 65			; 00000041H
  0871d	7a 07		 jp	 SHORT $LN7@LuckyItemA

; 4341 : 	{
; 4342 : 		return 0;

  0871f	33 c0		 xor	 eax, eax
  08721	e9 31 01 00 00	 jmp	 $LN1@LuckyItemA
$LN7@LuckyItemA:

; 4343 : 	}
; 4344 : 
; 4345 : 	if( this->m_Type == -1 )

  08726	8b 45 fc	 mov	 eax, DWORD PTR _this$[ebp]
  08729	0f bf 48 06	 movsx	 ecx, WORD PTR [eax+6]
  0872d	83 f9 ff	 cmp	 ecx, -1
  08730	75 07		 jne	 SHORT $LN6@LuckyItemA

; 4346 : 	{
; 4347 : 		return 0;

  08732	33 c0		 xor	 eax, eax
  08734	e9 1e 01 00 00	 jmp	 $LN1@LuckyItemA
$LN6@LuckyItemA:

; 4348 : 	}
; 4349 : 
; 4350 : 	if( this->m_DefenseOrigin == 0 )

  08739	8b 45 fc	 mov	 eax, DWORD PTR _this$[ebp]
  0873c	0f b7 48 1e	 movzx	 ecx, WORD PTR [eax+30]
  08740	85 c9		 test	 ecx, ecx
  08742	75 15		 jne	 SHORT $LN5@LuckyItemA

; 4351 : 	{
; 4352 :         LogAddTD("defL 0L+-");

  08744	68 00 00 00 00	 push	 OFFSET ??_C@_0M@CMHGAAPM@defL?$KG?50L?$KG?$CL?9?$AA@
  08749	ff 15 00 00 00
	00		 call	 DWORD PTR ?LogAddTD@@3P6AXPADZZA ; LogAddTD
  0874f	83 c4 04	 add	 esp, 4

; 4353 : 		return 0;

  08752	33 c0		 xor	 eax, eax
  08754	e9 fe 00 00 00	 jmp	 $LN1@LuckyItemA
$LN5@LuckyItemA:

; 4354 : 	}
; 4355 : 	
; 4356 : 	this->m_DurabilitySmall += damagemin;

  08759	8b 45 fc	 mov	 eax, DWORD PTR _this$[ebp]
  0875c	0f b7 48 28	 movzx	 ecx, WORD PTR [eax+40]
  08760	03 4d 08	 add	 ecx, DWORD PTR _damagemin$[ebp]
  08763	8b 55 fc	 mov	 edx, DWORD PTR _this$[ebp]
  08766	66 89 4a 28	 mov	 WORD PTR [edx+40], cx

; 4357 : 
; 4358 : #ifdef DEBUG_CODE
; 4359 : 	LogAddC(5,"this->m_DurabilitySmall: %d | g_LuckyItemManager.GetLuckyItemDurabilityTime(): %d",this->m_DurabilitySmall,g_LuckyItemManager.GetLuckyItemDurabilityTime());
; 4360 : #endif
; 4361 : 
; 4362 : 	if( this->m_DurabilitySmall < g_LuckyItemManager.GetLuckyItemDurabilityTime() )

  0876a	8b 45 fc	 mov	 eax, DWORD PTR _this$[ebp]
  0876d	0f b7 70 28	 movzx	 esi, WORD PTR [eax+40]
  08771	b9 00 00 00 00	 mov	 ecx, OFFSET ?g_LuckyItemManager@@3ULuckyItemManager@@A ; g_LuckyItemManager
  08776	e8 00 00 00 00	 call	 ?GetLuckyItemDurabilityTime@LuckyItemManager@@QAEHXZ ; LuckyItemManager::GetLuckyItemDurabilityTime
  0877b	3b f0		 cmp	 esi, eax
  0877d	7d 07		 jge	 SHORT $LN4@LuckyItemA

; 4363 : 	{
; 4364 : 		return 0;

  0877f	33 c0		 xor	 eax, eax
  08781	e9 d1 00 00 00	 jmp	 $LN1@LuckyItemA
$LN4@LuckyItemA:

; 4365 : 	}
; 4366 : 
; 4367 : 	this->m_DurabilitySmall = 0;

  08786	33 c0		 xor	 eax, eax
  08788	8b 4d fc	 mov	 ecx, DWORD PTR _this$[ebp]
  0878b	66 89 41 28	 mov	 WORD PTR [ecx+40], ax

; 4368 : 	this->m_Durability		-= 1.0;

  0878f	8b 45 fc	 mov	 eax, DWORD PTR _this$[ebp]
  08792	d9 40 24	 fld	 DWORD PTR [eax+36]
  08795	dc 25 00 00 00
	00		 fsub	 QWORD PTR __real@3ff0000000000000
  0879b	8b 4d fc	 mov	 ecx, DWORD PTR _this$[ebp]
  0879e	d9 59 24	 fstp	 DWORD PTR [ecx+36]

; 4369 : 
; 4370 : 	if( this->m_Durability < 0.0 )

  087a1	8b 45 fc	 mov	 eax, DWORD PTR _this$[ebp]
  087a4	d9 40 24	 fld	 DWORD PTR [eax+36]
  087a7	dc 1d 00 00 00
	00		 fcomp	 QWORD PTR __real@0000000000000000
  087ad	df e0		 fnstsw	 ax
  087af	f6 c4 05	 test	 ah, 5
  087b2	7a 08		 jp	 SHORT $LN3@LuckyItemA

; 4371 : 	{
; 4372 : 		this->m_Durability = 0;

  087b4	8b 45 fc	 mov	 eax, DWORD PTR _this$[ebp]
  087b7	d9 ee		 fldz
  087b9	d9 58 24	 fstp	 DWORD PTR [eax+36]
$LN3@LuckyItemA:

; 4373 : 	}
; 4374 : 
; 4375 : 	LogAddTD("[LuckyItem] Durability Down [%s][%s] [%d][%s] Serial:[%u] Dur:[%d/%d]",
; 4376 : 		gObj[aIndex].AccountID, gObj[aIndex].Name, this->m_Type,
; 4377 : 		this->GetName(), this->m_Number, (int)this->m_Durability, (int)this->m_BaseDurability);

  087bc	8b 45 fc	 mov	 eax, DWORD PTR _this$[ebp]
  087bf	d9 40 2c	 fld	 DWORD PTR [eax+44]
  087c2	e8 00 00 00 00	 call	 __ftol2_sse
  087c7	50		 push	 eax
  087c8	8b 4d fc	 mov	 ecx, DWORD PTR _this$[ebp]
  087cb	d9 41 24	 fld	 DWORD PTR [ecx+36]
  087ce	e8 00 00 00 00	 call	 __ftol2_sse
  087d3	50		 push	 eax
  087d4	8b 55 fc	 mov	 edx, DWORD PTR _this$[ebp]
  087d7	8b 02		 mov	 eax, DWORD PTR [edx]
  087d9	50		 push	 eax
  087da	8b 4d fc	 mov	 ecx, DWORD PTR _this$[ebp]
  087dd	e8 00 00 00 00	 call	 ?GetName@CItem@@QAEPADXZ ; CItem::GetName
  087e2	50		 push	 eax
  087e3	8b 4d fc	 mov	 ecx, DWORD PTR _this$[ebp]
  087e6	0f bf 51 06	 movsx	 edx, WORD PTR [ecx+6]
  087ea	52		 push	 edx
  087eb	8b 45 0c	 mov	 eax, DWORD PTR _aIndex$[ebp]
  087ee	69 c0 38 2b 00
	00		 imul	 eax, 11064		; 00002b38H
  087f4	8b 0d 00 00 00
	00		 mov	 ecx, DWORD PTR ?gObj@@3PAUOBJECTSTRUCT@@A ; gObj
  087fa	8d 54 01 77	 lea	 edx, DWORD PTR [ecx+eax+119]
  087fe	52		 push	 edx
  087ff	8b 45 0c	 mov	 eax, DWORD PTR _aIndex$[ebp]
  08802	69 c0 38 2b 00
	00		 imul	 eax, 11064		; 00002b38H
  08808	8b 0d 00 00 00
	00		 mov	 ecx, DWORD PTR ?gObj@@3PAUOBJECTSTRUCT@@A ; gObj
  0880e	8d 54 01 6c	 lea	 edx, DWORD PTR [ecx+eax+108]
  08812	52		 push	 edx
  08813	68 00 00 00 00	 push	 OFFSET ??_C@_0EG@OACKBCBJ@?$FLLuckyItem?$FN?5Durability?5Down?5?$FL?$CFs?$FN@
  08818	ff 15 00 00 00
	00		 call	 DWORD PTR ?LogAddTD@@3P6AXPADZZA ; LogAddTD
  0881e	83 c4 20	 add	 esp, 32			; 00000020H

; 4378 : 
; 4379 : 	if( CheckDurabilityState() )

  08821	8b 4d fc	 mov	 ecx, DWORD PTR _this$[ebp]
  08824	e8 00 00 00 00	 call	 ?CheckDurabilityState@CItem@@QAEHXZ ; CItem::CheckDurabilityState
  08829	85 c0		 test	 eax, eax
  0882b	74 25		 je	 SHORT $LN2@LuckyItemA

; 4380 : 	{
; 4381 : 		g_LuckyItemManager.GDReqLuckyItemDelete(this->m_Type, this->m_Number, aIndex);

  0882d	8b 45 0c	 mov	 eax, DWORD PTR _aIndex$[ebp]
  08830	50		 push	 eax
  08831	8b 4d fc	 mov	 ecx, DWORD PTR _this$[ebp]
  08834	8b 11		 mov	 edx, DWORD PTR [ecx]
  08836	52		 push	 edx
  08837	8b 45 fc	 mov	 eax, DWORD PTR _this$[ebp]
  0883a	0f b7 48 06	 movzx	 ecx, WORD PTR [eax+6]
  0883e	51		 push	 ecx
  0883f	b9 00 00 00 00	 mov	 ecx, OFFSET ?g_LuckyItemManager@@3ULuckyItemManager@@A ; g_LuckyItemManager
  08844	e8 00 00 00 00	 call	 ?GDReqLuckyItemDelete@LuckyItemManager@@QAEXFJH@Z ; LuckyItemManager::GDReqLuckyItemDelete

; 4382 : 		return 2;

  08849	b8 02 00 00 00	 mov	 eax, 2
  0884e	eb 07		 jmp	 SHORT $LN1@LuckyItemA

; 4383 : 	}
; 4384 : 	else

  08850	eb 05		 jmp	 SHORT $LN1@LuckyItemA
$LN2@LuckyItemA:

; 4385 : 	{
; 4386 : 		return 1;

  08852	b8 01 00 00 00	 mov	 eax, 1
$LN1@LuckyItemA:

; 4387 : 	}
; 4388 : 
; 4389 : }

  08857	5f		 pop	 edi
  08858	5e		 pop	 esi
  08859	5b		 pop	 ebx
  0885a	8b e5		 mov	 esp, ebp
  0885c	5d		 pop	 ebp
  0885d	c2 08 00	 ret	 8
?LuckyItemArmorDurabilityDown@CItem@@QAEHHH@Z ENDP	; CItem::LuckyItemArmorDurabilityDown
_TEXT	ENDS
PUBLIC	?BufferItemtoConvert3@@YAXPAEAAHAAE2222@Z	; BufferItemtoConvert3
; Function compile flags: /Odtp /ZI
_TEXT	SEGMENT
_buf$ = 8						; size = 4
_type$ = 12						; size = 4
_level$ = 16						; size = 4
_op1$ = 20						; size = 4
_op2$ = 24						; size = 4
_op3$ = 28						; size = 4
_dur$ = 32						; size = 4
?BufferItemtoConvert3@@YAXPAEAAHAAE2222@Z PROC		; BufferItemtoConvert3

; 4393 : {

  08860	55		 push	 ebp
  08861	8b ec		 mov	 ebp, esp
  08863	83 ec 40	 sub	 esp, 64			; 00000040H
  08866	53		 push	 ebx
  08867	56		 push	 esi
  08868	57		 push	 edi

; 4394 : 	type = buf[0] + ((buf[3]&0x80)*2)+((buf[5]&0xF0)<<5);

  08869	8b 45 08	 mov	 eax, DWORD PTR _buf$[ebp]
  0886c	0f b6 08	 movzx	 ecx, BYTE PTR [eax]
  0886f	8b 55 08	 mov	 edx, DWORD PTR _buf$[ebp]
  08872	0f b6 42 03	 movzx	 eax, BYTE PTR [edx+3]
  08876	25 80 00 00 00	 and	 eax, 128		; 00000080H
  0887b	8d 0c 41	 lea	 ecx, DWORD PTR [ecx+eax*2]
  0887e	8b 55 08	 mov	 edx, DWORD PTR _buf$[ebp]
  08881	0f b6 42 05	 movzx	 eax, BYTE PTR [edx+5]
  08885	25 f0 00 00 00	 and	 eax, 240		; 000000f0H
  0888a	c1 e0 05	 shl	 eax, 5
  0888d	03 c8		 add	 ecx, eax
  0888f	8b 55 0c	 mov	 edx, DWORD PTR _type$[ebp]
  08892	89 0a		 mov	 DWORD PTR [edx], ecx

; 4395 : 	level = (buf[1]>>3) & 15;

  08894	8b 45 08	 mov	 eax, DWORD PTR _buf$[ebp]
  08897	0f b6 48 01	 movzx	 ecx, BYTE PTR [eax+1]
  0889b	c1 f9 03	 sar	 ecx, 3
  0889e	83 e1 0f	 and	 ecx, 15			; 0000000fH
  088a1	8b 55 10	 mov	 edx, DWORD PTR _level$[ebp]
  088a4	88 0a		 mov	 BYTE PTR [edx], cl

; 4396 : 	op1 = (buf[1]>>7) & 1;

  088a6	8b 45 08	 mov	 eax, DWORD PTR _buf$[ebp]
  088a9	0f b6 48 01	 movzx	 ecx, BYTE PTR [eax+1]
  088ad	c1 f9 07	 sar	 ecx, 7
  088b0	83 e1 01	 and	 ecx, 1
  088b3	8b 55 14	 mov	 edx, DWORD PTR _op1$[ebp]
  088b6	88 0a		 mov	 BYTE PTR [edx], cl

; 4397 : 	op2 = (buf[1]>>2) & 1;

  088b8	8b 45 08	 mov	 eax, DWORD PTR _buf$[ebp]
  088bb	0f b6 48 01	 movzx	 ecx, BYTE PTR [eax+1]
  088bf	c1 f9 02	 sar	 ecx, 2
  088c2	83 e1 01	 and	 ecx, 1
  088c5	8b 55 18	 mov	 edx, DWORD PTR _op2$[ebp]
  088c8	88 0a		 mov	 BYTE PTR [edx], cl

; 4398 : 	op3 = (buf[1] & 3 );

  088ca	8b 45 08	 mov	 eax, DWORD PTR _buf$[ebp]
  088cd	0f b6 48 01	 movzx	 ecx, BYTE PTR [eax+1]
  088d1	83 e1 03	 and	 ecx, 3
  088d4	8b 55 1c	 mov	 edx, DWORD PTR _op3$[ebp]
  088d7	88 0a		 mov	 BYTE PTR [edx], cl

; 4399 : 	dur = buf[2];

  088d9	8b 45 20	 mov	 eax, DWORD PTR _dur$[ebp]
  088dc	8b 4d 08	 mov	 ecx, DWORD PTR _buf$[ebp]
  088df	8a 51 02	 mov	 dl, BYTE PTR [ecx+2]
  088e2	88 10		 mov	 BYTE PTR [eax], dl

; 4400 : 
; 4401 : 	//if ( type == ITEMGET(13, 3) ) // Dinorant
; 4402 : 	//{
; 4403 : 		op3 |= (buf[3] & 0x40) >> 4;

  088e4	8b 45 08	 mov	 eax, DWORD PTR _buf$[ebp]
  088e7	0f b6 48 03	 movzx	 ecx, BYTE PTR [eax+3]
  088eb	83 e1 40	 and	 ecx, 64			; 00000040H
  088ee	c1 f9 04	 sar	 ecx, 4
  088f1	8b 55 1c	 mov	 edx, DWORD PTR _op3$[ebp]
  088f4	0f b6 02	 movzx	 eax, BYTE PTR [edx]
  088f7	0b c1		 or	 eax, ecx
  088f9	8b 4d 1c	 mov	 ecx, DWORD PTR _op3$[ebp]
  088fc	88 01		 mov	 BYTE PTR [ecx], al

; 4404 : 	//}
; 4405 : 	//else
; 4406 : 	//{
; 4407 : 	//	if ( (buf[3] & 0x40) == 0x40 )
; 4408 : 	//	{
; 4409 : 	//		op3 = 4;
; 4410 : 	//	}
; 4411 : 	//}
; 4412 : }

  088fe	5f		 pop	 edi
  088ff	5e		 pop	 esi
  08900	5b		 pop	 ebx
  08901	8b e5		 mov	 esp, ebp
  08903	5d		 pop	 ebp
  08904	c3		 ret	 0
?BufferItemtoConvert3@@YAXPAEAAHAAE2222@Z ENDP		; BufferItemtoConvert3
_TEXT	ENDS
PUBLIC	?ItemByteConvert7@@YAXPAEQAVCItem@@H@Z		; ItemByteConvert7
; Function compile flags: /Odtp /ZI
_TEXT	SEGMENT
tv211 = -92						; size = 4
tv209 = -88						; size = 4
tv206 = -82						; size = 2
_index$232059 = -16					; size = 4
_loWord$ = -12						; size = 2
_hiWord$ = -8						; size = 2
_n$ = -4						; size = 4
_buf$ = 8						; size = 4
_item$ = 12						; size = 4
_maxitem$ = 16						; size = 4
?ItemByteConvert7@@YAXPAEQAVCItem@@H@Z PROC		; ItemByteConvert7

; 4415 : {

  08910	55		 push	 ebp
  08911	8b ec		 mov	 ebp, esp
  08913	83 ec 5c	 sub	 esp, 92			; 0000005cH
  08916	53		 push	 ebx
  08917	56		 push	 esi
  08918	57		 push	 edi

; 4416 : 	int n = 0;

  08919	c7 45 fc 00 00
	00 00		 mov	 DWORD PTR _n$[ebp], 0

; 4417 : 	WORD hiWord;
; 4418 : 	WORD loWord;
; 4419 : 
; 4420 : 	for ( int index = 0; index < maxitem ; index++ )

  08920	c7 45 f0 00 00
	00 00		 mov	 DWORD PTR _index$232059[ebp], 0
  08927	eb 09		 jmp	 SHORT $LN3@ItemByteCo
$LN2@ItemByteCo:
  08929	8b 45 f0	 mov	 eax, DWORD PTR _index$232059[ebp]
  0892c	83 c0 01	 add	 eax, 1
  0892f	89 45 f0	 mov	 DWORD PTR _index$232059[ebp], eax
$LN3@ItemByteCo:
  08932	8b 45 f0	 mov	 eax, DWORD PTR _index$232059[ebp]
  08935	3b 45 10	 cmp	 eax, DWORD PTR _maxitem$[ebp]
  08938	0f 8d a9 01 00
	00		 jge	 $LN1@ItemByteCo

; 4421 : 	{
; 4422 : 		buf[n] = item[index].m_Type;

  0893e	8b 45 f0	 mov	 eax, DWORD PTR _index$232059[ebp]
  08941	69 c0 d4 00 00
	00		 imul	 eax, 212		; 000000d4H
  08947	8b 4d 08	 mov	 ecx, DWORD PTR _buf$[ebp]
  0894a	03 4d fc	 add	 ecx, DWORD PTR _n$[ebp]
  0894d	8b 55 0c	 mov	 edx, DWORD PTR _item$[ebp]
  08950	8a 44 02 06	 mov	 al, BYTE PTR [edx+eax+6]
  08954	88 01		 mov	 BYTE PTR [ecx], al

; 4423 : 		n++;

  08956	8b 45 fc	 mov	 eax, DWORD PTR _n$[ebp]
  08959	83 c0 01	 add	 eax, 1
  0895c	89 45 fc	 mov	 DWORD PTR _n$[ebp], eax

; 4424 : 		buf[n] = 0;

  0895f	8b 45 08	 mov	 eax, DWORD PTR _buf$[ebp]
  08962	03 45 fc	 add	 eax, DWORD PTR _n$[ebp]
  08965	c6 00 00	 mov	 BYTE PTR [eax], 0

; 4425 : 		buf[n] |= item[index].m_Level * 8;

  08968	8b 45 f0	 mov	 eax, DWORD PTR _index$232059[ebp]
  0896b	69 c0 d4 00 00
	00		 imul	 eax, 212		; 000000d4H
  08971	8b 4d 0c	 mov	 ecx, DWORD PTR _item$[ebp]
  08974	0f bf 54 01 08	 movsx	 edx, WORD PTR [ecx+eax+8]
  08979	c1 e2 03	 shl	 edx, 3
  0897c	8b 45 08	 mov	 eax, DWORD PTR _buf$[ebp]
  0897f	03 45 fc	 add	 eax, DWORD PTR _n$[ebp]
  08982	0f b6 08	 movzx	 ecx, BYTE PTR [eax]
  08985	0b ca		 or	 ecx, edx
  08987	8b 55 08	 mov	 edx, DWORD PTR _buf$[ebp]
  0898a	03 55 fc	 add	 edx, DWORD PTR _n$[ebp]
  0898d	88 0a		 mov	 BYTE PTR [edx], cl

; 4426 : 		buf[n] |= item[index].m_Option1 * 128;

  0898f	8b 45 f0	 mov	 eax, DWORD PTR _index$232059[ebp]
  08992	69 c0 d4 00 00
	00		 imul	 eax, 212		; 000000d4H
  08998	8b 4d 0c	 mov	 ecx, DWORD PTR _item$[ebp]
  0899b	0f b6 94 01 94
	00 00 00	 movzx	 edx, BYTE PTR [ecx+eax+148]
  089a3	c1 e2 07	 shl	 edx, 7
  089a6	8b 45 08	 mov	 eax, DWORD PTR _buf$[ebp]
  089a9	03 45 fc	 add	 eax, DWORD PTR _n$[ebp]
  089ac	0f b6 08	 movzx	 ecx, BYTE PTR [eax]
  089af	0b ca		 or	 ecx, edx
  089b1	8b 55 08	 mov	 edx, DWORD PTR _buf$[ebp]
  089b4	03 55 fc	 add	 edx, DWORD PTR _n$[ebp]
  089b7	88 0a		 mov	 BYTE PTR [edx], cl

; 4427 : 		buf[n] |= item[index].m_Option2 * 4;

  089b9	8b 45 f0	 mov	 eax, DWORD PTR _index$232059[ebp]
  089bc	69 c0 d4 00 00
	00		 imul	 eax, 212		; 000000d4H
  089c2	8b 4d 0c	 mov	 ecx, DWORD PTR _item$[ebp]
  089c5	0f b6 94 01 95
	00 00 00	 movzx	 edx, BYTE PTR [ecx+eax+149]
  089cd	c1 e2 02	 shl	 edx, 2
  089d0	8b 45 08	 mov	 eax, DWORD PTR _buf$[ebp]
  089d3	03 45 fc	 add	 eax, DWORD PTR _n$[ebp]
  089d6	0f b6 08	 movzx	 ecx, BYTE PTR [eax]
  089d9	0b ca		 or	 ecx, edx
  089db	8b 55 08	 mov	 edx, DWORD PTR _buf$[ebp]
  089de	03 55 fc	 add	 edx, DWORD PTR _n$[ebp]
  089e1	88 0a		 mov	 BYTE PTR [edx], cl

; 4428 : 		buf[n] |= item[index].m_Option3;

  089e3	8b 45 f0	 mov	 eax, DWORD PTR _index$232059[ebp]
  089e6	69 c0 d4 00 00
	00		 imul	 eax, 212		; 000000d4H
  089ec	8b 4d 0c	 mov	 ecx, DWORD PTR _item$[ebp]
  089ef	0f b6 94 01 96
	00 00 00	 movzx	 edx, BYTE PTR [ecx+eax+150]
  089f7	8b 45 08	 mov	 eax, DWORD PTR _buf$[ebp]
  089fa	03 45 fc	 add	 eax, DWORD PTR _n$[ebp]
  089fd	0f b6 08	 movzx	 ecx, BYTE PTR [eax]
  08a00	0b ca		 or	 ecx, edx
  08a02	8b 55 08	 mov	 edx, DWORD PTR _buf$[ebp]
  08a05	03 55 fc	 add	 edx, DWORD PTR _n$[ebp]
  08a08	88 0a		 mov	 BYTE PTR [edx], cl

; 4429 : 		n++;

  08a0a	8b 45 fc	 mov	 eax, DWORD PTR _n$[ebp]
  08a0d	83 c0 01	 add	 eax, 1
  08a10	89 45 fc	 mov	 DWORD PTR _n$[ebp], eax

; 4430 : 		buf[n] = (BYTE)item[index].m_Durability;

  08a13	8b 45 f0	 mov	 eax, DWORD PTR _index$232059[ebp]
  08a16	69 c0 d4 00 00
	00		 imul	 eax, 212		; 000000d4H
  08a1c	8b 4d 0c	 mov	 ecx, DWORD PTR _item$[ebp]
  08a1f	d9 44 01 24	 fld	 DWORD PTR [ecx+eax+36]
  08a23	d9 7d ae	 fnstcw	 WORD PTR tv206[ebp]
  08a26	0f b7 45 ae	 movzx	 eax, WORD PTR tv206[ebp]
  08a2a	0d 00 0c 00 00	 or	 eax, 3072		; 00000c00H
  08a2f	89 45 a8	 mov	 DWORD PTR tv209[ebp], eax
  08a32	d9 6d a8	 fldcw	 WORD PTR tv209[ebp]
  08a35	db 5d a4	 fistp	 DWORD PTR tv211[ebp]
  08a38	d9 6d ae	 fldcw	 WORD PTR tv206[ebp]
  08a3b	8a 55 a4	 mov	 dl, BYTE PTR tv211[ebp]
  08a3e	8b 45 08	 mov	 eax, DWORD PTR _buf$[ebp]
  08a41	03 45 fc	 add	 eax, DWORD PTR _n$[ebp]
  08a44	88 10		 mov	 BYTE PTR [eax], dl

; 4431 : 		n++;

  08a46	8b 45 fc	 mov	 eax, DWORD PTR _n$[ebp]
  08a49	83 c0 01	 add	 eax, 1
  08a4c	89 45 fc	 mov	 DWORD PTR _n$[ebp], eax

; 4432 : 		hiWord = item[index].m_Number >> 16;

  08a4f	8b 45 f0	 mov	 eax, DWORD PTR _index$232059[ebp]
  08a52	69 c0 d4 00 00
	00		 imul	 eax, 212		; 000000d4H
  08a58	8b 4d 0c	 mov	 ecx, DWORD PTR _item$[ebp]
  08a5b	8b 14 01	 mov	 edx, DWORD PTR [ecx+eax]
  08a5e	c1 ea 10	 shr	 edx, 16			; 00000010H
  08a61	66 89 55 f8	 mov	 WORD PTR _hiWord$[ebp], dx

; 4433 : 		loWord = item[index].m_Number & 0xFFFF;

  08a65	8b 45 f0	 mov	 eax, DWORD PTR _index$232059[ebp]
  08a68	69 c0 d4 00 00
	00		 imul	 eax, 212		; 000000d4H
  08a6e	8b 4d 0c	 mov	 ecx, DWORD PTR _item$[ebp]
  08a71	8b 14 01	 mov	 edx, DWORD PTR [ecx+eax]
  08a74	81 e2 ff ff 00
	00		 and	 edx, 65535		; 0000ffffH
  08a7a	66 89 55 f4	 mov	 WORD PTR _loWord$[ebp], dx

; 4434 : 		buf[n] = SET_NUMBERH(hiWord);

  08a7e	0f b7 45 f8	 movzx	 eax, WORD PTR _hiWord$[ebp]
  08a82	c1 e8 08	 shr	 eax, 8
  08a85	8b 4d 08	 mov	 ecx, DWORD PTR _buf$[ebp]
  08a88	03 4d fc	 add	 ecx, DWORD PTR _n$[ebp]
  08a8b	88 01		 mov	 BYTE PTR [ecx], al

; 4435 : 		n++;

  08a8d	8b 45 fc	 mov	 eax, DWORD PTR _n$[ebp]
  08a90	83 c0 01	 add	 eax, 1
  08a93	89 45 fc	 mov	 DWORD PTR _n$[ebp], eax

; 4436 : 		buf[n] = SET_NUMBERL(hiWord);

  08a96	0f b7 45 f8	 movzx	 eax, WORD PTR _hiWord$[ebp]
  08a9a	25 ff 00 00 00	 and	 eax, 255		; 000000ffH
  08a9f	8b 4d 08	 mov	 ecx, DWORD PTR _buf$[ebp]
  08aa2	03 4d fc	 add	 ecx, DWORD PTR _n$[ebp]
  08aa5	88 01		 mov	 BYTE PTR [ecx], al

; 4437 : 		n++;

  08aa7	8b 45 fc	 mov	 eax, DWORD PTR _n$[ebp]
  08aaa	83 c0 01	 add	 eax, 1
  08aad	89 45 fc	 mov	 DWORD PTR _n$[ebp], eax

; 4438 : 		buf[n] = SET_NUMBERH(loWord);

  08ab0	0f b7 45 f4	 movzx	 eax, WORD PTR _loWord$[ebp]
  08ab4	c1 e8 08	 shr	 eax, 8
  08ab7	8b 4d 08	 mov	 ecx, DWORD PTR _buf$[ebp]
  08aba	03 4d fc	 add	 ecx, DWORD PTR _n$[ebp]
  08abd	88 01		 mov	 BYTE PTR [ecx], al

; 4439 : 		n++;

  08abf	8b 45 fc	 mov	 eax, DWORD PTR _n$[ebp]
  08ac2	83 c0 01	 add	 eax, 1
  08ac5	89 45 fc	 mov	 DWORD PTR _n$[ebp], eax

; 4440 : 		buf[n] = SET_NUMBERL(loWord);

  08ac8	0f b7 45 f4	 movzx	 eax, WORD PTR _loWord$[ebp]
  08acc	25 ff 00 00 00	 and	 eax, 255		; 000000ffH
  08ad1	8b 4d 08	 mov	 ecx, DWORD PTR _buf$[ebp]
  08ad4	03 4d fc	 add	 ecx, DWORD PTR _n$[ebp]
  08ad7	88 01		 mov	 BYTE PTR [ecx], al

; 4441 : 		n++;

  08ad9	8b 45 fc	 mov	 eax, DWORD PTR _n$[ebp]
  08adc	83 c0 01	 add	 eax, 1
  08adf	89 45 fc	 mov	 DWORD PTR _n$[ebp], eax

; 4442 : 	}

  08ae2	e9 42 fe ff ff	 jmp	 $LN2@ItemByteCo
$LN1@ItemByteCo:

; 4443 : }

  08ae7	5f		 pop	 edi
  08ae8	5e		 pop	 esi
  08ae9	5b		 pop	 ebx
  08aea	8b e5		 mov	 esp, ebp
  08aec	5d		 pop	 ebp
  08aed	c3		 ret	 0
?ItemByteConvert7@@YAXPAEQAVCItem@@H@Z ENDP		; ItemByteConvert7
_TEXT	ENDS
PUBLIC	?ItemByteConvert10@@YAXPAEQAVCItem@@H@Z		; ItemByteConvert10
; Function compile flags: /Odtp /ZI
_TEXT	SEGMENT
tv343 = -92						; size = 4
tv341 = -88						; size = 4
tv82 = -84						; size = 4
tv338 = -82						; size = 2
_index$ = -16						; size = 4
_loWord$ = -12						; size = 2
_hiWord$ = -8						; size = 2
_n$ = -4						; size = 4
_buf$ = 8						; size = 4
_item$ = 12						; size = 4
_maxitem$ = 16						; size = 4
?ItemByteConvert10@@YAXPAEQAVCItem@@H@Z PROC		; ItemByteConvert10

; 4446 : {

  08af0	55		 push	 ebp
  08af1	8b ec		 mov	 ebp, esp
  08af3	83 ec 5c	 sub	 esp, 92			; 0000005cH
  08af6	53		 push	 ebx
  08af7	56		 push	 esi
  08af8	57		 push	 edi

; 4447 : 	int n = 0;

  08af9	c7 45 fc 00 00
	00 00		 mov	 DWORD PTR _n$[ebp], 0

; 4448 : 	WORD hiWord;
; 4449 : 	WORD loWord;
; 4450 : 	int index;
; 4451 : 
; 4452 : 	for (index = 0; index < maxitem ; index++ )

  08b00	c7 45 f0 00 00
	00 00		 mov	 DWORD PTR _index$[ebp], 0
  08b07	eb 09		 jmp	 SHORT $LN9@ItemByteCo@2
$LN8@ItemByteCo@2:
  08b09	8b 45 f0	 mov	 eax, DWORD PTR _index$[ebp]
  08b0c	83 c0 01	 add	 eax, 1
  08b0f	89 45 f0	 mov	 DWORD PTR _index$[ebp], eax
$LN9@ItemByteCo@2:
  08b12	8b 45 f0	 mov	 eax, DWORD PTR _index$[ebp]
  08b15	3b 45 10	 cmp	 eax, DWORD PTR _maxitem$[ebp]
  08b18	0f 8d c6 03 00
	00		 jge	 $LN7@ItemByteCo@2

; 4453 : 	{
; 4454 : 		if ( item[index].m_Type == ITEMGET(13,19) )

  08b1e	8b 45 f0	 mov	 eax, DWORD PTR _index$[ebp]
  08b21	69 c0 d4 00 00
	00		 imul	 eax, 212		; 000000d4H
  08b27	8b 4d 0c	 mov	 ecx, DWORD PTR _item$[ebp]
  08b2a	0f bf 54 01 06	 movsx	 edx, WORD PTR [ecx+eax+6]
  08b2f	81 fa 13 1a 00
	00		 cmp	 edx, 6675		; 00001a13H
  08b35	0f 85 b1 00 00
	00		 jne	 $LN5@ItemByteCo@2

; 4455 : 		{
; 4456 : 			if ( (item[index].m_Level < 0)? FALSE : ( item[index].m_Level > 2)? FALSE : TRUE  )

  08b3b	8b 45 f0	 mov	 eax, DWORD PTR _index$[ebp]
  08b3e	69 c0 d4 00 00
	00		 imul	 eax, 212		; 000000d4H
  08b44	8b 4d 0c	 mov	 ecx, DWORD PTR _item$[ebp]
  08b47	0f bf 54 01 08	 movsx	 edx, WORD PTR [ecx+eax+8]
  08b4c	85 d2		 test	 edx, edx
  08b4e	7d 09		 jge	 SHORT $LN12@ItemByteCo@2
  08b50	c7 45 ac 00 00
	00 00		 mov	 DWORD PTR tv82[ebp], 0
  08b57	eb 1c		 jmp	 SHORT $LN13@ItemByteCo@2
$LN12@ItemByteCo@2:
  08b59	8b 45 f0	 mov	 eax, DWORD PTR _index$[ebp]
  08b5c	69 c0 d4 00 00
	00		 imul	 eax, 212		; 000000d4H
  08b62	8b 4d 0c	 mov	 ecx, DWORD PTR _item$[ebp]
  08b65	0f bf 54 01 08	 movsx	 edx, WORD PTR [ecx+eax+8]
  08b6a	33 c0		 xor	 eax, eax
  08b6c	83 fa 02	 cmp	 edx, 2
  08b6f	0f 9e c0	 setle	 al
  08b72	89 45 ac	 mov	 DWORD PTR tv82[ebp], eax
$LN13@ItemByteCo@2:
  08b75	83 7d ac 00	 cmp	 DWORD PTR tv82[ebp], 0
  08b79	74 71		 je	 SHORT $LN5@ItemByteCo@2

; 4457 : 			{
; 4458 : 				buf[n] = -1;

  08b7b	8b 45 08	 mov	 eax, DWORD PTR _buf$[ebp]
  08b7e	03 45 fc	 add	 eax, DWORD PTR _n$[ebp]
  08b81	c6 00 ff	 mov	 BYTE PTR [eax], 255	; 000000ffH

; 4459 : 				buf[n+1] = -1;

  08b84	8b 45 08	 mov	 eax, DWORD PTR _buf$[ebp]
  08b87	03 45 fc	 add	 eax, DWORD PTR _n$[ebp]
  08b8a	c6 40 01 ff	 mov	 BYTE PTR [eax+1], 255	; 000000ffH

; 4460 : 				buf[n+2] = -1;

  08b8e	8b 45 08	 mov	 eax, DWORD PTR _buf$[ebp]
  08b91	03 45 fc	 add	 eax, DWORD PTR _n$[ebp]
  08b94	c6 40 02 ff	 mov	 BYTE PTR [eax+2], 255	; 000000ffH

; 4461 : 				buf[n+3] = -1;

  08b98	8b 45 08	 mov	 eax, DWORD PTR _buf$[ebp]
  08b9b	03 45 fc	 add	 eax, DWORD PTR _n$[ebp]
  08b9e	c6 40 03 ff	 mov	 BYTE PTR [eax+3], 255	; 000000ffH

; 4462 : 				buf[n+4] = -1;

  08ba2	8b 45 08	 mov	 eax, DWORD PTR _buf$[ebp]
  08ba5	03 45 fc	 add	 eax, DWORD PTR _n$[ebp]
  08ba8	c6 40 04 ff	 mov	 BYTE PTR [eax+4], 255	; 000000ffH

; 4463 : 				buf[n+5] = -1;

  08bac	8b 45 08	 mov	 eax, DWORD PTR _buf$[ebp]
  08baf	03 45 fc	 add	 eax, DWORD PTR _n$[ebp]
  08bb2	c6 40 05 ff	 mov	 BYTE PTR [eax+5], 255	; 000000ffH

; 4464 : 				buf[n+6] = -1;

  08bb6	8b 45 08	 mov	 eax, DWORD PTR _buf$[ebp]
  08bb9	03 45 fc	 add	 eax, DWORD PTR _n$[ebp]
  08bbc	c6 40 06 ff	 mov	 BYTE PTR [eax+6], 255	; 000000ffH

; 4465 : 				buf[n+7] = -1;

  08bc0	8b 45 08	 mov	 eax, DWORD PTR _buf$[ebp]
  08bc3	03 45 fc	 add	 eax, DWORD PTR _n$[ebp]
  08bc6	c6 40 07 ff	 mov	 BYTE PTR [eax+7], 255	; 000000ffH

; 4466 : 				buf[n+8] = -1;

  08bca	8b 45 08	 mov	 eax, DWORD PTR _buf$[ebp]
  08bcd	03 45 fc	 add	 eax, DWORD PTR _n$[ebp]
  08bd0	c6 40 08 ff	 mov	 BYTE PTR [eax+8], 255	; 000000ffH

; 4467 : 				buf[n+9] = -1;

  08bd4	8b 45 08	 mov	 eax, DWORD PTR _buf$[ebp]
  08bd7	03 45 fc	 add	 eax, DWORD PTR _n$[ebp]
  08bda	c6 40 09 ff	 mov	 BYTE PTR [eax+9], 255	; 000000ffH

; 4468 : 				n += 16;

  08bde	8b 45 fc	 mov	 eax, DWORD PTR _n$[ebp]
  08be1	83 c0 10	 add	 eax, 16			; 00000010H
  08be4	89 45 fc	 mov	 DWORD PTR _n$[ebp], eax

; 4469 : 				continue;

  08be7	e9 1d ff ff ff	 jmp	 $LN8@ItemByteCo@2
$LN5@ItemByteCo@2:

; 4470 : 			}
; 4471 : 		}
; 4472 : 		
; 4473 : 		if ( item[index].m_Type <  0 )

  08bec	8b 45 f0	 mov	 eax, DWORD PTR _index$[ebp]
  08bef	69 c0 d4 00 00
	00		 imul	 eax, 212		; 000000d4H
  08bf5	8b 4d 0c	 mov	 ecx, DWORD PTR _item$[ebp]
  08bf8	0f bf 54 01 06	 movsx	 edx, WORD PTR [ecx+eax+6]
  08bfd	85 d2		 test	 edx, edx
  08bff	7d 71		 jge	 SHORT $LN4@ItemByteCo@2

; 4474 : 		{
; 4475 : 			buf[n] = -1;

  08c01	8b 45 08	 mov	 eax, DWORD PTR _buf$[ebp]
  08c04	03 45 fc	 add	 eax, DWORD PTR _n$[ebp]
  08c07	c6 00 ff	 mov	 BYTE PTR [eax], 255	; 000000ffH

; 4476 : 			buf[n+1] = -1;

  08c0a	8b 45 08	 mov	 eax, DWORD PTR _buf$[ebp]
  08c0d	03 45 fc	 add	 eax, DWORD PTR _n$[ebp]
  08c10	c6 40 01 ff	 mov	 BYTE PTR [eax+1], 255	; 000000ffH

; 4477 : 			buf[n+2] = -1;

  08c14	8b 45 08	 mov	 eax, DWORD PTR _buf$[ebp]
  08c17	03 45 fc	 add	 eax, DWORD PTR _n$[ebp]
  08c1a	c6 40 02 ff	 mov	 BYTE PTR [eax+2], 255	; 000000ffH

; 4478 : 			buf[n+3] = -1;

  08c1e	8b 45 08	 mov	 eax, DWORD PTR _buf$[ebp]
  08c21	03 45 fc	 add	 eax, DWORD PTR _n$[ebp]
  08c24	c6 40 03 ff	 mov	 BYTE PTR [eax+3], 255	; 000000ffH

; 4479 : 			buf[n+4] = -1;

  08c28	8b 45 08	 mov	 eax, DWORD PTR _buf$[ebp]
  08c2b	03 45 fc	 add	 eax, DWORD PTR _n$[ebp]
  08c2e	c6 40 04 ff	 mov	 BYTE PTR [eax+4], 255	; 000000ffH

; 4480 : 			buf[n+5] = -1;

  08c32	8b 45 08	 mov	 eax, DWORD PTR _buf$[ebp]
  08c35	03 45 fc	 add	 eax, DWORD PTR _n$[ebp]
  08c38	c6 40 05 ff	 mov	 BYTE PTR [eax+5], 255	; 000000ffH

; 4481 : 			buf[n+6] = -1;

  08c3c	8b 45 08	 mov	 eax, DWORD PTR _buf$[ebp]
  08c3f	03 45 fc	 add	 eax, DWORD PTR _n$[ebp]
  08c42	c6 40 06 ff	 mov	 BYTE PTR [eax+6], 255	; 000000ffH

; 4482 : 			buf[n+7] = -1;

  08c46	8b 45 08	 mov	 eax, DWORD PTR _buf$[ebp]
  08c49	03 45 fc	 add	 eax, DWORD PTR _n$[ebp]
  08c4c	c6 40 07 ff	 mov	 BYTE PTR [eax+7], 255	; 000000ffH

; 4483 : 			buf[n+8] = -1;

  08c50	8b 45 08	 mov	 eax, DWORD PTR _buf$[ebp]
  08c53	03 45 fc	 add	 eax, DWORD PTR _n$[ebp]
  08c56	c6 40 08 ff	 mov	 BYTE PTR [eax+8], 255	; 000000ffH

; 4484 : 			buf[n+9] = -1;

  08c5a	8b 45 08	 mov	 eax, DWORD PTR _buf$[ebp]
  08c5d	03 45 fc	 add	 eax, DWORD PTR _n$[ebp]
  08c60	c6 40 09 ff	 mov	 BYTE PTR [eax+9], 255	; 000000ffH

; 4485 : 			n += 16;

  08c64	8b 45 fc	 mov	 eax, DWORD PTR _n$[ebp]
  08c67	83 c0 10	 add	 eax, 16			; 00000010H
  08c6a	89 45 fc	 mov	 DWORD PTR _n$[ebp], eax

; 4486 : 		}
; 4487 : 		else

  08c6d	e9 6d 02 00 00	 jmp	 $LN3@ItemByteCo@2
$LN4@ItemByteCo@2:

; 4488 : 		{
; 4489 : 			buf[n] = (BYTE)item[index].m_Type % 256 ;

  08c72	8b 45 f0	 mov	 eax, DWORD PTR _index$[ebp]
  08c75	69 c0 d4 00 00
	00		 imul	 eax, 212		; 000000d4H
  08c7b	8b 4d 0c	 mov	 ecx, DWORD PTR _item$[ebp]
  08c7e	0f b6 54 01 06	 movzx	 edx, BYTE PTR [ecx+eax+6]
  08c83	81 e2 ff 00 00
	80		 and	 edx, -2147483393	; 800000ffH
  08c89	79 08		 jns	 SHORT $LN14@ItemByteCo@2
  08c8b	4a		 dec	 edx
  08c8c	81 ca 00 ff ff
	ff		 or	 edx, -256		; ffffff00H
  08c92	42		 inc	 edx
$LN14@ItemByteCo@2:
  08c93	8b 45 08	 mov	 eax, DWORD PTR _buf$[ebp]
  08c96	03 45 fc	 add	 eax, DWORD PTR _n$[ebp]
  08c99	88 10		 mov	 BYTE PTR [eax], dl

; 4490 : 			n++;

  08c9b	8b 45 fc	 mov	 eax, DWORD PTR _n$[ebp]
  08c9e	83 c0 01	 add	 eax, 1
  08ca1	89 45 fc	 mov	 DWORD PTR _n$[ebp], eax

; 4491 : 			buf[n] = 0;

  08ca4	8b 45 08	 mov	 eax, DWORD PTR _buf$[ebp]
  08ca7	03 45 fc	 add	 eax, DWORD PTR _n$[ebp]
  08caa	c6 00 00	 mov	 BYTE PTR [eax], 0

; 4492 : 			buf[n] |= item[index].m_Level * 8;

  08cad	8b 45 f0	 mov	 eax, DWORD PTR _index$[ebp]
  08cb0	69 c0 d4 00 00
	00		 imul	 eax, 212		; 000000d4H
  08cb6	8b 4d 0c	 mov	 ecx, DWORD PTR _item$[ebp]
  08cb9	0f bf 54 01 08	 movsx	 edx, WORD PTR [ecx+eax+8]
  08cbe	c1 e2 03	 shl	 edx, 3
  08cc1	8b 45 08	 mov	 eax, DWORD PTR _buf$[ebp]
  08cc4	03 45 fc	 add	 eax, DWORD PTR _n$[ebp]
  08cc7	0f b6 08	 movzx	 ecx, BYTE PTR [eax]
  08cca	0b ca		 or	 ecx, edx
  08ccc	8b 55 08	 mov	 edx, DWORD PTR _buf$[ebp]
  08ccf	03 55 fc	 add	 edx, DWORD PTR _n$[ebp]
  08cd2	88 0a		 mov	 BYTE PTR [edx], cl

; 4493 : 			buf[n] |= item[index].m_Option1 * 128;

  08cd4	8b 45 f0	 mov	 eax, DWORD PTR _index$[ebp]
  08cd7	69 c0 d4 00 00
	00		 imul	 eax, 212		; 000000d4H
  08cdd	8b 4d 0c	 mov	 ecx, DWORD PTR _item$[ebp]
  08ce0	0f b6 94 01 94
	00 00 00	 movzx	 edx, BYTE PTR [ecx+eax+148]
  08ce8	c1 e2 07	 shl	 edx, 7
  08ceb	8b 45 08	 mov	 eax, DWORD PTR _buf$[ebp]
  08cee	03 45 fc	 add	 eax, DWORD PTR _n$[ebp]
  08cf1	0f b6 08	 movzx	 ecx, BYTE PTR [eax]
  08cf4	0b ca		 or	 ecx, edx
  08cf6	8b 55 08	 mov	 edx, DWORD PTR _buf$[ebp]
  08cf9	03 55 fc	 add	 edx, DWORD PTR _n$[ebp]
  08cfc	88 0a		 mov	 BYTE PTR [edx], cl

; 4494 : 			buf[n] |= item[index].m_Option2 * 4;

  08cfe	8b 45 f0	 mov	 eax, DWORD PTR _index$[ebp]
  08d01	69 c0 d4 00 00
	00		 imul	 eax, 212		; 000000d4H
  08d07	8b 4d 0c	 mov	 ecx, DWORD PTR _item$[ebp]
  08d0a	0f b6 94 01 95
	00 00 00	 movzx	 edx, BYTE PTR [ecx+eax+149]
  08d12	c1 e2 02	 shl	 edx, 2
  08d15	8b 45 08	 mov	 eax, DWORD PTR _buf$[ebp]
  08d18	03 45 fc	 add	 eax, DWORD PTR _n$[ebp]
  08d1b	0f b6 08	 movzx	 ecx, BYTE PTR [eax]
  08d1e	0b ca		 or	 ecx, edx
  08d20	8b 55 08	 mov	 edx, DWORD PTR _buf$[ebp]
  08d23	03 55 fc	 add	 edx, DWORD PTR _n$[ebp]
  08d26	88 0a		 mov	 BYTE PTR [edx], cl

; 4495 : 			buf[n] |= item[index].m_Option3 & 3;

  08d28	8b 45 f0	 mov	 eax, DWORD PTR _index$[ebp]
  08d2b	69 c0 d4 00 00
	00		 imul	 eax, 212		; 000000d4H
  08d31	8b 4d 0c	 mov	 ecx, DWORD PTR _item$[ebp]
  08d34	0f b6 94 01 96
	00 00 00	 movzx	 edx, BYTE PTR [ecx+eax+150]
  08d3c	83 e2 03	 and	 edx, 3
  08d3f	8b 45 08	 mov	 eax, DWORD PTR _buf$[ebp]
  08d42	03 45 fc	 add	 eax, DWORD PTR _n$[ebp]
  08d45	0f b6 08	 movzx	 ecx, BYTE PTR [eax]
  08d48	0b ca		 or	 ecx, edx
  08d4a	8b 55 08	 mov	 edx, DWORD PTR _buf$[ebp]
  08d4d	03 55 fc	 add	 edx, DWORD PTR _n$[ebp]
  08d50	88 0a		 mov	 BYTE PTR [edx], cl

; 4496 : 			n++;

  08d52	8b 45 fc	 mov	 eax, DWORD PTR _n$[ebp]
  08d55	83 c0 01	 add	 eax, 1
  08d58	89 45 fc	 mov	 DWORD PTR _n$[ebp], eax

; 4497 : 			buf[n] = (BYTE)item[index].m_Durability;

  08d5b	8b 45 f0	 mov	 eax, DWORD PTR _index$[ebp]
  08d5e	69 c0 d4 00 00
	00		 imul	 eax, 212		; 000000d4H
  08d64	8b 4d 0c	 mov	 ecx, DWORD PTR _item$[ebp]
  08d67	d9 44 01 24	 fld	 DWORD PTR [ecx+eax+36]
  08d6b	d9 7d ae	 fnstcw	 WORD PTR tv338[ebp]
  08d6e	0f b7 45 ae	 movzx	 eax, WORD PTR tv338[ebp]
  08d72	0d 00 0c 00 00	 or	 eax, 3072		; 00000c00H
  08d77	89 45 a8	 mov	 DWORD PTR tv341[ebp], eax
  08d7a	d9 6d a8	 fldcw	 WORD PTR tv341[ebp]
  08d7d	db 5d a4	 fistp	 DWORD PTR tv343[ebp]
  08d80	d9 6d ae	 fldcw	 WORD PTR tv338[ebp]
  08d83	8a 55 a4	 mov	 dl, BYTE PTR tv343[ebp]
  08d86	8b 45 08	 mov	 eax, DWORD PTR _buf$[ebp]
  08d89	03 45 fc	 add	 eax, DWORD PTR _n$[ebp]
  08d8c	88 10		 mov	 BYTE PTR [eax], dl

; 4498 : 			n++;

  08d8e	8b 45 fc	 mov	 eax, DWORD PTR _n$[ebp]
  08d91	83 c0 01	 add	 eax, 1
  08d94	89 45 fc	 mov	 DWORD PTR _n$[ebp], eax

; 4499 : 			hiWord = item[index].m_Number >> 16;

  08d97	8b 45 f0	 mov	 eax, DWORD PTR _index$[ebp]
  08d9a	69 c0 d4 00 00
	00		 imul	 eax, 212		; 000000d4H
  08da0	8b 4d 0c	 mov	 ecx, DWORD PTR _item$[ebp]
  08da3	8b 14 01	 mov	 edx, DWORD PTR [ecx+eax]
  08da6	c1 ea 10	 shr	 edx, 16			; 00000010H
  08da9	66 89 55 f8	 mov	 WORD PTR _hiWord$[ebp], dx

; 4500 : 			loWord = item[index].m_Number  & 0xFFFF;

  08dad	8b 45 f0	 mov	 eax, DWORD PTR _index$[ebp]
  08db0	69 c0 d4 00 00
	00		 imul	 eax, 212		; 000000d4H
  08db6	8b 4d 0c	 mov	 ecx, DWORD PTR _item$[ebp]
  08db9	8b 14 01	 mov	 edx, DWORD PTR [ecx+eax]
  08dbc	81 e2 ff ff 00
	00		 and	 edx, 65535		; 0000ffffH
  08dc2	66 89 55 f4	 mov	 WORD PTR _loWord$[ebp], dx

; 4501 : 			buf[n] = SET_NUMBERH(hiWord);

  08dc6	0f b7 45 f8	 movzx	 eax, WORD PTR _hiWord$[ebp]
  08dca	c1 e8 08	 shr	 eax, 8
  08dcd	8b 4d 08	 mov	 ecx, DWORD PTR _buf$[ebp]
  08dd0	03 4d fc	 add	 ecx, DWORD PTR _n$[ebp]
  08dd3	88 01		 mov	 BYTE PTR [ecx], al

; 4502 : 			n++;

  08dd5	8b 45 fc	 mov	 eax, DWORD PTR _n$[ebp]
  08dd8	83 c0 01	 add	 eax, 1
  08ddb	89 45 fc	 mov	 DWORD PTR _n$[ebp], eax

; 4503 : 			buf[n] = SET_NUMBERL(hiWord);

  08dde	0f b7 45 f8	 movzx	 eax, WORD PTR _hiWord$[ebp]
  08de2	25 ff 00 00 00	 and	 eax, 255		; 000000ffH
  08de7	8b 4d 08	 mov	 ecx, DWORD PTR _buf$[ebp]
  08dea	03 4d fc	 add	 ecx, DWORD PTR _n$[ebp]
  08ded	88 01		 mov	 BYTE PTR [ecx], al

; 4504 : 			n++;

  08def	8b 45 fc	 mov	 eax, DWORD PTR _n$[ebp]
  08df2	83 c0 01	 add	 eax, 1
  08df5	89 45 fc	 mov	 DWORD PTR _n$[ebp], eax

; 4505 : 			buf[n] = SET_NUMBERH(loWord);

  08df8	0f b7 45 f4	 movzx	 eax, WORD PTR _loWord$[ebp]
  08dfc	c1 e8 08	 shr	 eax, 8
  08dff	8b 4d 08	 mov	 ecx, DWORD PTR _buf$[ebp]
  08e02	03 4d fc	 add	 ecx, DWORD PTR _n$[ebp]
  08e05	88 01		 mov	 BYTE PTR [ecx], al

; 4506 : 			n++;

  08e07	8b 45 fc	 mov	 eax, DWORD PTR _n$[ebp]
  08e0a	83 c0 01	 add	 eax, 1
  08e0d	89 45 fc	 mov	 DWORD PTR _n$[ebp], eax

; 4507 : 			buf[n] = SET_NUMBERL(loWord);

  08e10	0f b7 45 f4	 movzx	 eax, WORD PTR _loWord$[ebp]
  08e14	25 ff 00 00 00	 and	 eax, 255		; 000000ffH
  08e19	8b 4d 08	 mov	 ecx, DWORD PTR _buf$[ebp]
  08e1c	03 4d fc	 add	 ecx, DWORD PTR _n$[ebp]
  08e1f	88 01		 mov	 BYTE PTR [ecx], al

; 4508 : 			n++;

  08e21	8b 45 fc	 mov	 eax, DWORD PTR _n$[ebp]
  08e24	83 c0 01	 add	 eax, 1
  08e27	89 45 fc	 mov	 DWORD PTR _n$[ebp], eax

; 4509 : 			buf[n] = 0;

  08e2a	8b 45 08	 mov	 eax, DWORD PTR _buf$[ebp]
  08e2d	03 45 fc	 add	 eax, DWORD PTR _n$[ebp]
  08e30	c6 00 00	 mov	 BYTE PTR [eax], 0

; 4510 : 
; 4511 : 			if ( item[index].m_Type > 255 )

  08e33	8b 45 f0	 mov	 eax, DWORD PTR _index$[ebp]
  08e36	69 c0 d4 00 00
	00		 imul	 eax, 212		; 000000d4H
  08e3c	8b 4d 0c	 mov	 ecx, DWORD PTR _item$[ebp]
  08e3f	0f bf 54 01 06	 movsx	 edx, WORD PTR [ecx+eax+6]
  08e44	81 fa ff 00 00
	00		 cmp	 edx, 255		; 000000ffH
  08e4a	7e 09		 jle	 SHORT $LN2@ItemByteCo@2

; 4512 : 			{
; 4513 : 				buf[n] = 0x80;	// Second Type of Item

  08e4c	8b 45 08	 mov	 eax, DWORD PTR _buf$[ebp]
  08e4f	03 45 fc	 add	 eax, DWORD PTR _n$[ebp]
  08e52	c6 00 80	 mov	 BYTE PTR [eax], 128	; 00000080H
$LN2@ItemByteCo@2:

; 4514 : 			}
; 4515 : 
; 4516 : 			if ( item[index].m_Option3 > 3 )

  08e55	8b 45 f0	 mov	 eax, DWORD PTR _index$[ebp]
  08e58	69 c0 d4 00 00
	00		 imul	 eax, 212		; 000000d4H
  08e5e	8b 4d 0c	 mov	 ecx, DWORD PTR _item$[ebp]
  08e61	0f b6 94 01 96
	00 00 00	 movzx	 edx, BYTE PTR [ecx+eax+150]
  08e69	83 fa 03	 cmp	 edx, 3
  08e6c	7e 14		 jle	 SHORT $LN1@ItemByteCo@2

; 4517 : 			{
; 4518 : 				buf[n] |= 0x40;	// Duration ???

  08e6e	8b 45 08	 mov	 eax, DWORD PTR _buf$[ebp]
  08e71	03 45 fc	 add	 eax, DWORD PTR _n$[ebp]
  08e74	0f b6 08	 movzx	 ecx, BYTE PTR [eax]
  08e77	83 c9 40	 or	 ecx, 64			; 00000040H
  08e7a	8b 55 08	 mov	 edx, DWORD PTR _buf$[ebp]
  08e7d	03 55 fc	 add	 edx, DWORD PTR _n$[ebp]
  08e80	88 0a		 mov	 BYTE PTR [edx], cl
$LN1@ItemByteCo@2:

; 4519 : 			}
; 4520 : 
; 4521 : 			buf[n] |= item[index].m_NewOption;

  08e82	8b 45 f0	 mov	 eax, DWORD PTR _index$[ebp]
  08e85	69 c0 d4 00 00
	00		 imul	 eax, 212		; 000000d4H
  08e8b	8b 4d 0c	 mov	 ecx, DWORD PTR _item$[ebp]
  08e8e	0f b6 94 01 97
	00 00 00	 movzx	 edx, BYTE PTR [ecx+eax+151]
  08e96	8b 45 08	 mov	 eax, DWORD PTR _buf$[ebp]
  08e99	03 45 fc	 add	 eax, DWORD PTR _n$[ebp]
  08e9c	0f b6 08	 movzx	 ecx, BYTE PTR [eax]
  08e9f	0b ca		 or	 ecx, edx
  08ea1	8b 55 08	 mov	 edx, DWORD PTR _buf$[ebp]
  08ea4	03 55 fc	 add	 edx, DWORD PTR _n$[ebp]
  08ea7	88 0a		 mov	 BYTE PTR [edx], cl

; 4522 : 			n++;

  08ea9	8b 45 fc	 mov	 eax, DWORD PTR _n$[ebp]
  08eac	83 c0 01	 add	 eax, 1
  08eaf	89 45 fc	 mov	 DWORD PTR _n$[ebp], eax

; 4523 : 			buf[n] = item[index].m_SetOption;

  08eb2	8b 45 f0	 mov	 eax, DWORD PTR _index$[ebp]
  08eb5	69 c0 d4 00 00
	00		 imul	 eax, 212		; 000000d4H
  08ebb	8b 4d 08	 mov	 ecx, DWORD PTR _buf$[ebp]
  08ebe	03 4d fc	 add	 ecx, DWORD PTR _n$[ebp]
  08ec1	8b 55 0c	 mov	 edx, DWORD PTR _item$[ebp]
  08ec4	8a 84 02 ae 00
	00 00		 mov	 al, BYTE PTR [edx+eax+174]
  08ecb	88 01		 mov	 BYTE PTR [ecx], al

; 4524 : 			n++;

  08ecd	8b 45 fc	 mov	 eax, DWORD PTR _n$[ebp]
  08ed0	83 c0 01	 add	 eax, 1
  08ed3	89 45 fc	 mov	 DWORD PTR _n$[ebp], eax

; 4525 : 			n++;

  08ed6	8b 45 fc	 mov	 eax, DWORD PTR _n$[ebp]
  08ed9	83 c0 01	 add	 eax, 1
  08edc	89 45 fc	 mov	 DWORD PTR _n$[ebp], eax
$LN3@ItemByteCo@2:

; 4526 : 		}
; 4527 : 	}

  08edf	e9 25 fc ff ff	 jmp	 $LN8@ItemByteCo@2
$LN7@ItemByteCo@2:

; 4528 : }

  08ee4	5f		 pop	 edi
  08ee5	5e		 pop	 esi
  08ee6	5b		 pop	 ebx
  08ee7	8b e5		 mov	 esp, ebp
  08ee9	5d		 pop	 ebp
  08eea	c3		 ret	 0
?ItemByteConvert10@@YAXPAEQAVCItem@@H@Z ENDP		; ItemByteConvert10
_TEXT	ENDS
PUBLIC	?ItemByteConvert@@YAXPAEVCItem@@@Z		; ItemByteConvert
; Function compile flags: /Odtp /ZI
_TEXT	SEGMENT
tv262 = -88						; size = 4
tv260 = -84						; size = 4
tv257 = -78						; size = 2
_btPartialyChargeOption$ = -6				; size = 1
_btItemEffectFor380$ = -5				; size = 1
_n$ = -4						; size = 4
_buf$ = 8						; size = 4
_item$ = 12						; size = 212
?ItemByteConvert@@YAXPAEVCItem@@@Z PROC			; ItemByteConvert

; 4531 : {

  08ef0	55		 push	 ebp
  08ef1	8b ec		 mov	 ebp, esp
  08ef3	83 ec 58	 sub	 esp, 88			; 00000058H
  08ef6	53		 push	 ebx
  08ef7	56		 push	 esi
  08ef8	57		 push	 edi

; 4532 : 	int n=0;

  08ef9	c7 45 fc 00 00
	00 00		 mov	 DWORD PTR _n$[ebp], 0

; 4533 : 
; 4534 : 	memset(buf, 0, MAX_ITEM_INFO);

  08f00	6a 0c		 push	 12			; 0000000cH
  08f02	6a 00		 push	 0
  08f04	8b 45 08	 mov	 eax, DWORD PTR _buf$[ebp]
  08f07	50		 push	 eax
  08f08	e8 00 00 00 00	 call	 _memset
  08f0d	83 c4 0c	 add	 esp, 12			; 0000000cH

; 4535 : 	buf[n] = item.m_Type & 0xFF;

  08f10	0f bf 45 12	 movsx	 eax, WORD PTR _item$[ebp+6]
  08f14	25 ff 00 00 00	 and	 eax, 255		; 000000ffH
  08f19	8b 4d 08	 mov	 ecx, DWORD PTR _buf$[ebp]
  08f1c	03 4d fc	 add	 ecx, DWORD PTR _n$[ebp]
  08f1f	88 01		 mov	 BYTE PTR [ecx], al

; 4536 : 	n++;	//1

  08f21	8b 45 fc	 mov	 eax, DWORD PTR _n$[ebp]
  08f24	83 c0 01	 add	 eax, 1
  08f27	89 45 fc	 mov	 DWORD PTR _n$[ebp], eax

; 4537 : 	buf[n] = 0;

  08f2a	8b 45 08	 mov	 eax, DWORD PTR _buf$[ebp]
  08f2d	03 45 fc	 add	 eax, DWORD PTR _n$[ebp]
  08f30	c6 00 00	 mov	 BYTE PTR [eax], 0

; 4538 : 	buf[n] |= item.m_Level * 8;

  08f33	0f bf 45 14	 movsx	 eax, WORD PTR _item$[ebp+8]
  08f37	c1 e0 03	 shl	 eax, 3
  08f3a	8b 4d 08	 mov	 ecx, DWORD PTR _buf$[ebp]
  08f3d	03 4d fc	 add	 ecx, DWORD PTR _n$[ebp]
  08f40	0f b6 11	 movzx	 edx, BYTE PTR [ecx]
  08f43	0b d0		 or	 edx, eax
  08f45	8b 45 08	 mov	 eax, DWORD PTR _buf$[ebp]
  08f48	03 45 fc	 add	 eax, DWORD PTR _n$[ebp]
  08f4b	88 10		 mov	 BYTE PTR [eax], dl

; 4539 : 	buf[n] |= item.m_Option1 * 128;

  08f4d	0f b6 85 a0 00
	00 00		 movzx	 eax, BYTE PTR _item$[ebp+148]
  08f54	c1 e0 07	 shl	 eax, 7
  08f57	8b 4d 08	 mov	 ecx, DWORD PTR _buf$[ebp]
  08f5a	03 4d fc	 add	 ecx, DWORD PTR _n$[ebp]
  08f5d	0f b6 11	 movzx	 edx, BYTE PTR [ecx]
  08f60	0b d0		 or	 edx, eax
  08f62	8b 45 08	 mov	 eax, DWORD PTR _buf$[ebp]
  08f65	03 45 fc	 add	 eax, DWORD PTR _n$[ebp]
  08f68	88 10		 mov	 BYTE PTR [eax], dl

; 4540 : 	buf[n] |= item.m_Option2 * 4;

  08f6a	0f b6 85 a1 00
	00 00		 movzx	 eax, BYTE PTR _item$[ebp+149]
  08f71	c1 e0 02	 shl	 eax, 2
  08f74	8b 4d 08	 mov	 ecx, DWORD PTR _buf$[ebp]
  08f77	03 4d fc	 add	 ecx, DWORD PTR _n$[ebp]
  08f7a	0f b6 11	 movzx	 edx, BYTE PTR [ecx]
  08f7d	0b d0		 or	 edx, eax
  08f7f	8b 45 08	 mov	 eax, DWORD PTR _buf$[ebp]
  08f82	03 45 fc	 add	 eax, DWORD PTR _n$[ebp]
  08f85	88 10		 mov	 BYTE PTR [eax], dl

; 4541 : 	buf[n] |= item.m_Option3 & 3;

  08f87	0f b6 85 a2 00
	00 00		 movzx	 eax, BYTE PTR _item$[ebp+150]
  08f8e	83 e0 03	 and	 eax, 3
  08f91	8b 4d 08	 mov	 ecx, DWORD PTR _buf$[ebp]
  08f94	03 4d fc	 add	 ecx, DWORD PTR _n$[ebp]
  08f97	0f b6 11	 movzx	 edx, BYTE PTR [ecx]
  08f9a	0b d0		 or	 edx, eax
  08f9c	8b 45 08	 mov	 eax, DWORD PTR _buf$[ebp]
  08f9f	03 45 fc	 add	 eax, DWORD PTR _n$[ebp]
  08fa2	88 10		 mov	 BYTE PTR [eax], dl

; 4542 : 	n++;	//2

  08fa4	8b 45 fc	 mov	 eax, DWORD PTR _n$[ebp]
  08fa7	83 c0 01	 add	 eax, 1
  08faa	89 45 fc	 mov	 DWORD PTR _n$[ebp], eax

; 4543 : 	buf[n] = (BYTE)item.m_Durability;

  08fad	d9 45 30	 fld	 DWORD PTR _item$[ebp+36]
  08fb0	d9 7d b2	 fnstcw	 WORD PTR tv257[ebp]
  08fb3	0f b7 45 b2	 movzx	 eax, WORD PTR tv257[ebp]
  08fb7	0d 00 0c 00 00	 or	 eax, 3072		; 00000c00H
  08fbc	89 45 ac	 mov	 DWORD PTR tv260[ebp], eax
  08fbf	d9 6d ac	 fldcw	 WORD PTR tv260[ebp]
  08fc2	db 5d a8	 fistp	 DWORD PTR tv262[ebp]
  08fc5	d9 6d b2	 fldcw	 WORD PTR tv257[ebp]
  08fc8	8a 45 a8	 mov	 al, BYTE PTR tv262[ebp]
  08fcb	8b 4d 08	 mov	 ecx, DWORD PTR _buf$[ebp]
  08fce	03 4d fc	 add	 ecx, DWORD PTR _n$[ebp]
  08fd1	88 01		 mov	 BYTE PTR [ecx], al

; 4544 : 	n++;	//3

  08fd3	8b 45 fc	 mov	 eax, DWORD PTR _n$[ebp]
  08fd6	83 c0 01	 add	 eax, 1
  08fd9	89 45 fc	 mov	 DWORD PTR _n$[ebp], eax

; 4545 : 	buf[n] = 0;

  08fdc	8b 45 08	 mov	 eax, DWORD PTR _buf$[ebp]
  08fdf	03 45 fc	 add	 eax, DWORD PTR _n$[ebp]
  08fe2	c6 00 00	 mov	 BYTE PTR [eax], 0

; 4546 : 	buf[n] |= ((item.m_Type & 0x100) >> 1);

  08fe5	0f bf 45 12	 movsx	 eax, WORD PTR _item$[ebp+6]
  08fe9	25 00 01 00 00	 and	 eax, 256		; 00000100H
  08fee	d1 f8		 sar	 eax, 1
  08ff0	8b 4d 08	 mov	 ecx, DWORD PTR _buf$[ebp]
  08ff3	03 4d fc	 add	 ecx, DWORD PTR _n$[ebp]
  08ff6	0f b6 11	 movzx	 edx, BYTE PTR [ecx]
  08ff9	0b d0		 or	 edx, eax
  08ffb	8b 45 08	 mov	 eax, DWORD PTR _buf$[ebp]
  08ffe	03 45 fc	 add	 eax, DWORD PTR _n$[ebp]
  09001	88 10		 mov	 BYTE PTR [eax], dl

; 4547 : 
; 4548 : 	if ( item.m_Option3 > 3 )

  09003	0f b6 85 a2 00
	00 00		 movzx	 eax, BYTE PTR _item$[ebp+150]
  0900a	83 f8 03	 cmp	 eax, 3
  0900d	7e 14		 jle	 SHORT $LN2@ItemByteCo@3

; 4549 : 	{
; 4550 : 		buf[n] |= 0x40; // item +16 option

  0900f	8b 45 08	 mov	 eax, DWORD PTR _buf$[ebp]
  09012	03 45 fc	 add	 eax, DWORD PTR _n$[ebp]
  09015	0f b6 08	 movzx	 ecx, BYTE PTR [eax]
  09018	83 c9 40	 or	 ecx, 64			; 00000040H
  0901b	8b 55 08	 mov	 edx, DWORD PTR _buf$[ebp]
  0901e	03 55 fc	 add	 edx, DWORD PTR _n$[ebp]
  09021	88 0a		 mov	 BYTE PTR [edx], cl
$LN2@ItemByteCo@3:

; 4551 : 	}
; 4552 : 
; 4553 : 	buf[n] |= item.m_NewOption;

  09023	0f b6 85 a3 00
	00 00		 movzx	 eax, BYTE PTR _item$[ebp+151]
  0902a	8b 4d 08	 mov	 ecx, DWORD PTR _buf$[ebp]
  0902d	03 4d fc	 add	 ecx, DWORD PTR _n$[ebp]
  09030	0f b6 11	 movzx	 edx, BYTE PTR [ecx]
  09033	0b d0		 or	 edx, eax
  09035	8b 45 08	 mov	 eax, DWORD PTR _buf$[ebp]
  09038	03 45 fc	 add	 eax, DWORD PTR _n$[ebp]
  0903b	88 10		 mov	 BYTE PTR [eax], dl

; 4554 : 	n++;	//4

  0903d	8b 45 fc	 mov	 eax, DWORD PTR _n$[ebp]
  09040	83 c0 01	 add	 eax, 1
  09043	89 45 fc	 mov	 DWORD PTR _n$[ebp], eax

; 4555 : 	buf[n] = item.m_SetOption;

  09046	8b 45 08	 mov	 eax, DWORD PTR _buf$[ebp]
  09049	03 45 fc	 add	 eax, DWORD PTR _n$[ebp]
  0904c	8a 8d ba 00 00
	00		 mov	 cl, BYTE PTR _item$[ebp+174]
  09052	88 08		 mov	 BYTE PTR [eax], cl

; 4556 : 	n++;	//5

  09054	8b 45 fc	 mov	 eax, DWORD PTR _n$[ebp]
  09057	83 c0 01	 add	 eax, 1
  0905a	89 45 fc	 mov	 DWORD PTR _n$[ebp], eax

; 4557 : 	buf[n] |= (item.m_Type & 0x1E00 ) >> 5;

  0905d	0f bf 45 12	 movsx	 eax, WORD PTR _item$[ebp+6]
  09061	25 00 1e 00 00	 and	 eax, 7680		; 00001e00H
  09066	c1 f8 05	 sar	 eax, 5
  09069	8b 4d 08	 mov	 ecx, DWORD PTR _buf$[ebp]
  0906c	03 4d fc	 add	 ecx, DWORD PTR _n$[ebp]
  0906f	0f b6 11	 movzx	 edx, BYTE PTR [ecx]
  09072	0b d0		 or	 edx, eax
  09074	8b 45 08	 mov	 eax, DWORD PTR _buf$[ebp]
  09077	03 45 fc	 add	 eax, DWORD PTR _n$[ebp]
  0907a	88 10		 mov	 BYTE PTR [eax], dl

; 4558 : 
; 4559 : 	BYTE btItemEffectFor380 = 0;

  0907c	c6 45 fb 00	 mov	 BYTE PTR _btItemEffectFor380$[ebp], 0

; 4560 : 	btItemEffectFor380 = (item.m_ItemOptionEx & 0x80 ) >> 4;

  09080	0f b6 85 d6 00
	00 00		 movzx	 eax, BYTE PTR _item$[ebp+202]
  09087	25 80 00 00 00	 and	 eax, 128		; 00000080H
  0908c	c1 f8 04	 sar	 eax, 4
  0908f	88 45 fb	 mov	 BYTE PTR _btItemEffectFor380$[ebp], al

; 4561 : 	buf[n] |= btItemEffectFor380;

  09092	0f b6 45 fb	 movzx	 eax, BYTE PTR _btItemEffectFor380$[ebp]
  09096	8b 4d 08	 mov	 ecx, DWORD PTR _buf$[ebp]
  09099	03 4d fc	 add	 ecx, DWORD PTR _n$[ebp]
  0909c	0f b6 11	 movzx	 edx, BYTE PTR [ecx]
  0909f	0b d0		 or	 edx, eax
  090a1	8b 45 08	 mov	 eax, DWORD PTR _buf$[ebp]
  090a4	03 45 fc	 add	 eax, DWORD PTR _n$[ebp]
  090a7	88 10		 mov	 BYTE PTR [eax], dl

; 4562 : 	
; 4563 : #ifdef PERIOD
; 4564 : 	BYTE btPartialyChargeOption = 0;

  090a9	c6 45 fa 00	 mov	 BYTE PTR _btPartialyChargeOption$[ebp], 0

; 4565 : 	btPartialyChargeOption = item.m_PeriodItemOption << 1;

  090ad	0f b6 85 de 00
	00 00		 movzx	 eax, BYTE PTR _item$[ebp+210]
  090b4	d1 e0		 shl	 eax, 1
  090b6	88 45 fa	 mov	 BYTE PTR _btPartialyChargeOption$[ebp], al

; 4566 : 	buf[n] |= btPartialyChargeOption;

  090b9	0f b6 45 fa	 movzx	 eax, BYTE PTR _btPartialyChargeOption$[ebp]
  090bd	8b 4d 08	 mov	 ecx, DWORD PTR _buf$[ebp]
  090c0	03 4d fc	 add	 ecx, DWORD PTR _n$[ebp]
  090c3	0f b6 11	 movzx	 edx, BYTE PTR [ecx]
  090c6	0b d0		 or	 edx, eax
  090c8	8b 45 08	 mov	 eax, DWORD PTR _buf$[ebp]
  090cb	03 45 fc	 add	 eax, DWORD PTR _n$[ebp]
  090ce	88 10		 mov	 BYTE PTR [eax], dl

; 4567 : #endif
; 4568 : 	n++; //6

  090d0	8b 45 fc	 mov	 eax, DWORD PTR _n$[ebp]
  090d3	83 c0 01	 add	 eax, 1
  090d6	89 45 fc	 mov	 DWORD PTR _n$[ebp], eax

; 4569 : 	buf[n] = item.m_JewelOfHarmonyOption;

  090d9	8b 45 08	 mov	 eax, DWORD PTR _buf$[ebp]
  090dc	03 45 fc	 add	 eax, DWORD PTR _n$[ebp]
  090df	8a 8d d0 00 00
	00		 mov	 cl, BYTE PTR _item$[ebp+196]
  090e5	88 08		 mov	 BYTE PTR [eax], cl

; 4570 : 
; 4571 : 	//Season4 Socket add-on
; 4572 : 	if(g_SocketOption.IsSocketOption(&item) == 1){buf[n] = item.m_SocketOptionIndex;}

  090e7	8d 45 0c	 lea	 eax, DWORD PTR _item$[ebp]
  090ea	50		 push	 eax
  090eb	b9 00 00 00 00	 mov	 ecx, OFFSET ?g_SocketOption@@3VCSocketOption@@A ; g_SocketOption
  090f0	e8 00 00 00 00	 call	 ?IsSocketOption@CSocketOption@@QAEEPAVCItem@@@Z ; CSocketOption::IsSocketOption
  090f5	0f b6 c8	 movzx	 ecx, al
  090f8	83 f9 01	 cmp	 ecx, 1
  090fb	75 0e		 jne	 SHORT $LN1@ItemByteCo@3
  090fd	8b 45 08	 mov	 eax, DWORD PTR _buf$[ebp]
  09100	03 45 fc	 add	 eax, DWORD PTR _n$[ebp]
  09103	8a 8d d7 00 00
	00		 mov	 cl, BYTE PTR _item$[ebp+203]
  09109	88 08		 mov	 BYTE PTR [eax], cl
$LN1@ItemByteCo@3:

; 4573 : 	n++;	//7

  0910b	8b 45 fc	 mov	 eax, DWORD PTR _n$[ebp]
  0910e	83 c0 01	 add	 eax, 1
  09111	89 45 fc	 mov	 DWORD PTR _n$[ebp], eax

; 4574 : 
; 4575 : 	buf[n] = item.m_SocketOption[0];

  09114	8b 45 08	 mov	 eax, DWORD PTR _buf$[ebp]
  09117	03 45 fc	 add	 eax, DWORD PTR _n$[ebp]
  0911a	8a 8d d8 00 00
	00		 mov	 cl, BYTE PTR _item$[ebp+204]
  09120	88 08		 mov	 BYTE PTR [eax], cl

; 4576 : 	n++;

  09122	8b 45 fc	 mov	 eax, DWORD PTR _n$[ebp]
  09125	83 c0 01	 add	 eax, 1
  09128	89 45 fc	 mov	 DWORD PTR _n$[ebp], eax

; 4577 : 
; 4578 : 	buf[n] = item.m_SocketOption[1];

  0912b	8b 45 08	 mov	 eax, DWORD PTR _buf$[ebp]
  0912e	03 45 fc	 add	 eax, DWORD PTR _n$[ebp]
  09131	8a 8d d9 00 00
	00		 mov	 cl, BYTE PTR _item$[ebp+205]
  09137	88 08		 mov	 BYTE PTR [eax], cl

; 4579 : 	n++;

  09139	8b 45 fc	 mov	 eax, DWORD PTR _n$[ebp]
  0913c	83 c0 01	 add	 eax, 1
  0913f	89 45 fc	 mov	 DWORD PTR _n$[ebp], eax

; 4580 : 
; 4581 : 	buf[n] = item.m_SocketOption[2];

  09142	8b 45 08	 mov	 eax, DWORD PTR _buf$[ebp]
  09145	03 45 fc	 add	 eax, DWORD PTR _n$[ebp]
  09148	8a 8d da 00 00
	00		 mov	 cl, BYTE PTR _item$[ebp+206]
  0914e	88 08		 mov	 BYTE PTR [eax], cl

; 4582 : 	n++;

  09150	8b 45 fc	 mov	 eax, DWORD PTR _n$[ebp]
  09153	83 c0 01	 add	 eax, 1
  09156	89 45 fc	 mov	 DWORD PTR _n$[ebp], eax

; 4583 : 
; 4584 : 	buf[n] = item.m_SocketOption[3];

  09159	8b 45 08	 mov	 eax, DWORD PTR _buf$[ebp]
  0915c	03 45 fc	 add	 eax, DWORD PTR _n$[ebp]
  0915f	8a 8d db 00 00
	00		 mov	 cl, BYTE PTR _item$[ebp+207]
  09165	88 08		 mov	 BYTE PTR [eax], cl

; 4585 : 	n++;

  09167	8b 45 fc	 mov	 eax, DWORD PTR _n$[ebp]
  0916a	83 c0 01	 add	 eax, 1
  0916d	89 45 fc	 mov	 DWORD PTR _n$[ebp], eax

; 4586 : 
; 4587 : 	buf[n] = item.m_SocketOption[4];

  09170	8b 45 08	 mov	 eax, DWORD PTR _buf$[ebp]
  09173	03 45 fc	 add	 eax, DWORD PTR _n$[ebp]
  09176	8a 8d dc 00 00
	00		 mov	 cl, BYTE PTR _item$[ebp+208]
  0917c	88 08		 mov	 BYTE PTR [eax], cl

; 4588 : }

  0917e	5f		 pop	 edi
  0917f	5e		 pop	 esi
  09180	5b		 pop	 ebx
  09181	8b e5		 mov	 esp, ebp
  09183	5d		 pop	 ebp
  09184	c3		 ret	 0
?ItemByteConvert@@YAXPAEVCItem@@@Z ENDP			; ItemByteConvert
_TEXT	ENDS
PUBLIC	?ItemByteConvertEx@@YAXPAEVCItem@@@Z		; ItemByteConvertEx
; Function compile flags: /Odtp /ZI
_TEXT	SEGMENT
tv262 = -88						; size = 4
tv260 = -84						; size = 4
tv257 = -78						; size = 2
_btPartialyChargeOption$ = -6				; size = 1
_btItemEffectFor380$ = -5				; size = 1
_n$ = -4						; size = 4
_buf$ = 8						; size = 4
_item$ = 12						; size = 212
?ItemByteConvertEx@@YAXPAEVCItem@@@Z PROC		; ItemByteConvertEx

; 4591 : {

  09190	55		 push	 ebp
  09191	8b ec		 mov	 ebp, esp
  09193	83 ec 58	 sub	 esp, 88			; 00000058H
  09196	53		 push	 ebx
  09197	56		 push	 esi
  09198	57		 push	 edi

; 4592 : 	int n=0;

  09199	c7 45 fc 00 00
	00 00		 mov	 DWORD PTR _n$[ebp], 0

; 4593 : 
; 4594 : 	memset(buf, 0, MAX_ITEM_INFO);

  091a0	6a 0c		 push	 12			; 0000000cH
  091a2	6a 00		 push	 0
  091a4	8b 45 08	 mov	 eax, DWORD PTR _buf$[ebp]
  091a7	50		 push	 eax
  091a8	e8 00 00 00 00	 call	 _memset
  091ad	83 c4 0c	 add	 esp, 12			; 0000000cH

; 4595 : 	buf[n] = item.m_Type & 0xFF;

  091b0	0f bf 45 12	 movsx	 eax, WORD PTR _item$[ebp+6]
  091b4	25 ff 00 00 00	 and	 eax, 255		; 000000ffH
  091b9	8b 4d 08	 mov	 ecx, DWORD PTR _buf$[ebp]
  091bc	03 4d fc	 add	 ecx, DWORD PTR _n$[ebp]
  091bf	88 01		 mov	 BYTE PTR [ecx], al

; 4596 : 	n++;	//1

  091c1	8b 45 fc	 mov	 eax, DWORD PTR _n$[ebp]
  091c4	83 c0 01	 add	 eax, 1
  091c7	89 45 fc	 mov	 DWORD PTR _n$[ebp], eax

; 4597 : 	buf[n] = 0;

  091ca	8b 45 08	 mov	 eax, DWORD PTR _buf$[ebp]
  091cd	03 45 fc	 add	 eax, DWORD PTR _n$[ebp]
  091d0	c6 00 00	 mov	 BYTE PTR [eax], 0

; 4598 : 	buf[n] |= item.m_Level * 8;

  091d3	0f bf 45 14	 movsx	 eax, WORD PTR _item$[ebp+8]
  091d7	c1 e0 03	 shl	 eax, 3
  091da	8b 4d 08	 mov	 ecx, DWORD PTR _buf$[ebp]
  091dd	03 4d fc	 add	 ecx, DWORD PTR _n$[ebp]
  091e0	0f b6 11	 movzx	 edx, BYTE PTR [ecx]
  091e3	0b d0		 or	 edx, eax
  091e5	8b 45 08	 mov	 eax, DWORD PTR _buf$[ebp]
  091e8	03 45 fc	 add	 eax, DWORD PTR _n$[ebp]
  091eb	88 10		 mov	 BYTE PTR [eax], dl

; 4599 : 	buf[n] |= item.m_Option1 * 128;

  091ed	0f b6 85 a0 00
	00 00		 movzx	 eax, BYTE PTR _item$[ebp+148]
  091f4	c1 e0 07	 shl	 eax, 7
  091f7	8b 4d 08	 mov	 ecx, DWORD PTR _buf$[ebp]
  091fa	03 4d fc	 add	 ecx, DWORD PTR _n$[ebp]
  091fd	0f b6 11	 movzx	 edx, BYTE PTR [ecx]
  09200	0b d0		 or	 edx, eax
  09202	8b 45 08	 mov	 eax, DWORD PTR _buf$[ebp]
  09205	03 45 fc	 add	 eax, DWORD PTR _n$[ebp]
  09208	88 10		 mov	 BYTE PTR [eax], dl

; 4600 : 	buf[n] |= item.m_Option2 * 4;

  0920a	0f b6 85 a1 00
	00 00		 movzx	 eax, BYTE PTR _item$[ebp+149]
  09211	c1 e0 02	 shl	 eax, 2
  09214	8b 4d 08	 mov	 ecx, DWORD PTR _buf$[ebp]
  09217	03 4d fc	 add	 ecx, DWORD PTR _n$[ebp]
  0921a	0f b6 11	 movzx	 edx, BYTE PTR [ecx]
  0921d	0b d0		 or	 edx, eax
  0921f	8b 45 08	 mov	 eax, DWORD PTR _buf$[ebp]
  09222	03 45 fc	 add	 eax, DWORD PTR _n$[ebp]
  09225	88 10		 mov	 BYTE PTR [eax], dl

; 4601 : 	buf[n] |= item.m_Option3 & 3;

  09227	0f b6 85 a2 00
	00 00		 movzx	 eax, BYTE PTR _item$[ebp+150]
  0922e	83 e0 03	 and	 eax, 3
  09231	8b 4d 08	 mov	 ecx, DWORD PTR _buf$[ebp]
  09234	03 4d fc	 add	 ecx, DWORD PTR _n$[ebp]
  09237	0f b6 11	 movzx	 edx, BYTE PTR [ecx]
  0923a	0b d0		 or	 edx, eax
  0923c	8b 45 08	 mov	 eax, DWORD PTR _buf$[ebp]
  0923f	03 45 fc	 add	 eax, DWORD PTR _n$[ebp]
  09242	88 10		 mov	 BYTE PTR [eax], dl

; 4602 : 	n++;	//2

  09244	8b 45 fc	 mov	 eax, DWORD PTR _n$[ebp]
  09247	83 c0 01	 add	 eax, 1
  0924a	89 45 fc	 mov	 DWORD PTR _n$[ebp], eax

; 4603 : 	buf[n] = (BYTE)item.m_Durability;

  0924d	d9 45 30	 fld	 DWORD PTR _item$[ebp+36]
  09250	d9 7d b2	 fnstcw	 WORD PTR tv257[ebp]
  09253	0f b7 45 b2	 movzx	 eax, WORD PTR tv257[ebp]
  09257	0d 00 0c 00 00	 or	 eax, 3072		; 00000c00H
  0925c	89 45 ac	 mov	 DWORD PTR tv260[ebp], eax
  0925f	d9 6d ac	 fldcw	 WORD PTR tv260[ebp]
  09262	db 5d a8	 fistp	 DWORD PTR tv262[ebp]
  09265	d9 6d b2	 fldcw	 WORD PTR tv257[ebp]
  09268	8a 45 a8	 mov	 al, BYTE PTR tv262[ebp]
  0926b	8b 4d 08	 mov	 ecx, DWORD PTR _buf$[ebp]
  0926e	03 4d fc	 add	 ecx, DWORD PTR _n$[ebp]
  09271	88 01		 mov	 BYTE PTR [ecx], al

; 4604 : 	n++;	//3

  09273	8b 45 fc	 mov	 eax, DWORD PTR _n$[ebp]
  09276	83 c0 01	 add	 eax, 1
  09279	89 45 fc	 mov	 DWORD PTR _n$[ebp], eax

; 4605 : 	buf[n] = 0;

  0927c	8b 45 08	 mov	 eax, DWORD PTR _buf$[ebp]
  0927f	03 45 fc	 add	 eax, DWORD PTR _n$[ebp]
  09282	c6 00 00	 mov	 BYTE PTR [eax], 0

; 4606 : 	buf[n] |= ((item.m_Type & 0x100) >> 1);

  09285	0f bf 45 12	 movsx	 eax, WORD PTR _item$[ebp+6]
  09289	25 00 01 00 00	 and	 eax, 256		; 00000100H
  0928e	d1 f8		 sar	 eax, 1
  09290	8b 4d 08	 mov	 ecx, DWORD PTR _buf$[ebp]
  09293	03 4d fc	 add	 ecx, DWORD PTR _n$[ebp]
  09296	0f b6 11	 movzx	 edx, BYTE PTR [ecx]
  09299	0b d0		 or	 edx, eax
  0929b	8b 45 08	 mov	 eax, DWORD PTR _buf$[ebp]
  0929e	03 45 fc	 add	 eax, DWORD PTR _n$[ebp]
  092a1	88 10		 mov	 BYTE PTR [eax], dl

; 4607 : 
; 4608 : 	if ( item.m_Option3 > 3 )

  092a3	0f b6 85 a2 00
	00 00		 movzx	 eax, BYTE PTR _item$[ebp+150]
  092aa	83 f8 03	 cmp	 eax, 3
  092ad	7e 14		 jle	 SHORT $LN2@ItemByteCo@4

; 4609 : 	{
; 4610 : 		buf[n] |= 0x40; // item +16 option

  092af	8b 45 08	 mov	 eax, DWORD PTR _buf$[ebp]
  092b2	03 45 fc	 add	 eax, DWORD PTR _n$[ebp]
  092b5	0f b6 08	 movzx	 ecx, BYTE PTR [eax]
  092b8	83 c9 40	 or	 ecx, 64			; 00000040H
  092bb	8b 55 08	 mov	 edx, DWORD PTR _buf$[ebp]
  092be	03 55 fc	 add	 edx, DWORD PTR _n$[ebp]
  092c1	88 0a		 mov	 BYTE PTR [edx], cl
$LN2@ItemByteCo@4:

; 4611 : 	}
; 4612 : 
; 4613 : 	buf[n] |= item.m_NewOption;

  092c3	0f b6 85 a3 00
	00 00		 movzx	 eax, BYTE PTR _item$[ebp+151]
  092ca	8b 4d 08	 mov	 ecx, DWORD PTR _buf$[ebp]
  092cd	03 4d fc	 add	 ecx, DWORD PTR _n$[ebp]
  092d0	0f b6 11	 movzx	 edx, BYTE PTR [ecx]
  092d3	0b d0		 or	 edx, eax
  092d5	8b 45 08	 mov	 eax, DWORD PTR _buf$[ebp]
  092d8	03 45 fc	 add	 eax, DWORD PTR _n$[ebp]
  092db	88 10		 mov	 BYTE PTR [eax], dl

; 4614 : 	n++;	//4

  092dd	8b 45 fc	 mov	 eax, DWORD PTR _n$[ebp]
  092e0	83 c0 01	 add	 eax, 1
  092e3	89 45 fc	 mov	 DWORD PTR _n$[ebp], eax

; 4615 : 	buf[n] = item.m_SetOption;

  092e6	8b 45 08	 mov	 eax, DWORD PTR _buf$[ebp]
  092e9	03 45 fc	 add	 eax, DWORD PTR _n$[ebp]
  092ec	8a 8d ba 00 00
	00		 mov	 cl, BYTE PTR _item$[ebp+174]
  092f2	88 08		 mov	 BYTE PTR [eax], cl

; 4616 : 	n++;	//5

  092f4	8b 45 fc	 mov	 eax, DWORD PTR _n$[ebp]
  092f7	83 c0 01	 add	 eax, 1
  092fa	89 45 fc	 mov	 DWORD PTR _n$[ebp], eax

; 4617 : 	buf[n] |= (item.m_Type & 0x1E00 ) >> 5;

  092fd	0f bf 45 12	 movsx	 eax, WORD PTR _item$[ebp+6]
  09301	25 00 1e 00 00	 and	 eax, 7680		; 00001e00H
  09306	c1 f8 05	 sar	 eax, 5
  09309	8b 4d 08	 mov	 ecx, DWORD PTR _buf$[ebp]
  0930c	03 4d fc	 add	 ecx, DWORD PTR _n$[ebp]
  0930f	0f b6 11	 movzx	 edx, BYTE PTR [ecx]
  09312	0b d0		 or	 edx, eax
  09314	8b 45 08	 mov	 eax, DWORD PTR _buf$[ebp]
  09317	03 45 fc	 add	 eax, DWORD PTR _n$[ebp]
  0931a	88 10		 mov	 BYTE PTR [eax], dl

; 4618 : 
; 4619 : 	BYTE btItemEffectFor380 = 0;

  0931c	c6 45 fb 00	 mov	 BYTE PTR _btItemEffectFor380$[ebp], 0

; 4620 : 	btItemEffectFor380 = (item.m_ItemOptionEx & 0x80 ) >> 4;

  09320	0f b6 85 d6 00
	00 00		 movzx	 eax, BYTE PTR _item$[ebp+202]
  09327	25 80 00 00 00	 and	 eax, 128		; 00000080H
  0932c	c1 f8 04	 sar	 eax, 4
  0932f	88 45 fb	 mov	 BYTE PTR _btItemEffectFor380$[ebp], al

; 4621 : 	buf[n] |= btItemEffectFor380;

  09332	0f b6 45 fb	 movzx	 eax, BYTE PTR _btItemEffectFor380$[ebp]
  09336	8b 4d 08	 mov	 ecx, DWORD PTR _buf$[ebp]
  09339	03 4d fc	 add	 ecx, DWORD PTR _n$[ebp]
  0933c	0f b6 11	 movzx	 edx, BYTE PTR [ecx]
  0933f	0b d0		 or	 edx, eax
  09341	8b 45 08	 mov	 eax, DWORD PTR _buf$[ebp]
  09344	03 45 fc	 add	 eax, DWORD PTR _n$[ebp]
  09347	88 10		 mov	 BYTE PTR [eax], dl

; 4622 : 	
; 4623 : #ifdef PERIOD
; 4624 : 	BYTE btPartialyChargeOption = 0;

  09349	c6 45 fa 00	 mov	 BYTE PTR _btPartialyChargeOption$[ebp], 0

; 4625 : 	btPartialyChargeOption = item.m_PeriodItemOption << 1;

  0934d	0f b6 85 de 00
	00 00		 movzx	 eax, BYTE PTR _item$[ebp+210]
  09354	d1 e0		 shl	 eax, 1
  09356	88 45 fa	 mov	 BYTE PTR _btPartialyChargeOption$[ebp], al

; 4626 : 	buf[n] |= btPartialyChargeOption;

  09359	0f b6 45 fa	 movzx	 eax, BYTE PTR _btPartialyChargeOption$[ebp]
  0935d	8b 4d 08	 mov	 ecx, DWORD PTR _buf$[ebp]
  09360	03 4d fc	 add	 ecx, DWORD PTR _n$[ebp]
  09363	0f b6 11	 movzx	 edx, BYTE PTR [ecx]
  09366	0b d0		 or	 edx, eax
  09368	8b 45 08	 mov	 eax, DWORD PTR _buf$[ebp]
  0936b	03 45 fc	 add	 eax, DWORD PTR _n$[ebp]
  0936e	88 10		 mov	 BYTE PTR [eax], dl

; 4627 : #endif
; 4628 : 	n++; //6

  09370	8b 45 fc	 mov	 eax, DWORD PTR _n$[ebp]
  09373	83 c0 01	 add	 eax, 1
  09376	89 45 fc	 mov	 DWORD PTR _n$[ebp], eax

; 4629 : 	buf[n] = item.m_JewelOfHarmonyOption;

  09379	8b 45 08	 mov	 eax, DWORD PTR _buf$[ebp]
  0937c	03 45 fc	 add	 eax, DWORD PTR _n$[ebp]
  0937f	8a 8d d0 00 00
	00		 mov	 cl, BYTE PTR _item$[ebp+196]
  09385	88 08		 mov	 BYTE PTR [eax], cl

; 4630 : 
; 4631 : 	//Season4 Socket add-on
; 4632 : 	if(g_SocketOption.IsSocketOption(&item) == 1){buf[n] = item.m_SocketOptionIndex;}

  09387	8d 45 0c	 lea	 eax, DWORD PTR _item$[ebp]
  0938a	50		 push	 eax
  0938b	b9 00 00 00 00	 mov	 ecx, OFFSET ?g_SocketOption@@3VCSocketOption@@A ; g_SocketOption
  09390	e8 00 00 00 00	 call	 ?IsSocketOption@CSocketOption@@QAEEPAVCItem@@@Z ; CSocketOption::IsSocketOption
  09395	0f b6 c8	 movzx	 ecx, al
  09398	83 f9 01	 cmp	 ecx, 1
  0939b	75 0e		 jne	 SHORT $LN1@ItemByteCo@4
  0939d	8b 45 08	 mov	 eax, DWORD PTR _buf$[ebp]
  093a0	03 45 fc	 add	 eax, DWORD PTR _n$[ebp]
  093a3	8a 8d d7 00 00
	00		 mov	 cl, BYTE PTR _item$[ebp+203]
  093a9	88 08		 mov	 BYTE PTR [eax], cl
$LN1@ItemByteCo@4:

; 4633 : 	n++;	//7

  093ab	8b 45 fc	 mov	 eax, DWORD PTR _n$[ebp]
  093ae	83 c0 01	 add	 eax, 1
  093b1	89 45 fc	 mov	 DWORD PTR _n$[ebp], eax

; 4634 : 
; 4635 : 	buf[n] = item.m_SocketOption[0];

  093b4	8b 45 08	 mov	 eax, DWORD PTR _buf$[ebp]
  093b7	03 45 fc	 add	 eax, DWORD PTR _n$[ebp]
  093ba	8a 8d d8 00 00
	00		 mov	 cl, BYTE PTR _item$[ebp+204]
  093c0	88 08		 mov	 BYTE PTR [eax], cl

; 4636 : 	n++;

  093c2	8b 45 fc	 mov	 eax, DWORD PTR _n$[ebp]
  093c5	83 c0 01	 add	 eax, 1
  093c8	89 45 fc	 mov	 DWORD PTR _n$[ebp], eax

; 4637 : 
; 4638 : 	buf[n] = item.m_SocketOption[1];

  093cb	8b 45 08	 mov	 eax, DWORD PTR _buf$[ebp]
  093ce	03 45 fc	 add	 eax, DWORD PTR _n$[ebp]
  093d1	8a 8d d9 00 00
	00		 mov	 cl, BYTE PTR _item$[ebp+205]
  093d7	88 08		 mov	 BYTE PTR [eax], cl

; 4639 : 	n++;

  093d9	8b 45 fc	 mov	 eax, DWORD PTR _n$[ebp]
  093dc	83 c0 01	 add	 eax, 1
  093df	89 45 fc	 mov	 DWORD PTR _n$[ebp], eax

; 4640 : 
; 4641 : 	buf[n] = item.m_SocketOption[2];

  093e2	8b 45 08	 mov	 eax, DWORD PTR _buf$[ebp]
  093e5	03 45 fc	 add	 eax, DWORD PTR _n$[ebp]
  093e8	8a 8d da 00 00
	00		 mov	 cl, BYTE PTR _item$[ebp+206]
  093ee	88 08		 mov	 BYTE PTR [eax], cl

; 4642 : 	n++;

  093f0	8b 45 fc	 mov	 eax, DWORD PTR _n$[ebp]
  093f3	83 c0 01	 add	 eax, 1
  093f6	89 45 fc	 mov	 DWORD PTR _n$[ebp], eax

; 4643 : 
; 4644 : 	buf[n] = item.m_SocketOption[3];

  093f9	8b 45 08	 mov	 eax, DWORD PTR _buf$[ebp]
  093fc	03 45 fc	 add	 eax, DWORD PTR _n$[ebp]
  093ff	8a 8d db 00 00
	00		 mov	 cl, BYTE PTR _item$[ebp+207]
  09405	88 08		 mov	 BYTE PTR [eax], cl

; 4645 : 	n++;

  09407	8b 45 fc	 mov	 eax, DWORD PTR _n$[ebp]
  0940a	83 c0 01	 add	 eax, 1
  0940d	89 45 fc	 mov	 DWORD PTR _n$[ebp], eax

; 4646 : 
; 4647 : 	buf[n] = item.m_SocketOption[4];

  09410	8b 45 08	 mov	 eax, DWORD PTR _buf$[ebp]
  09413	03 45 fc	 add	 eax, DWORD PTR _n$[ebp]
  09416	8a 8d dc 00 00
	00		 mov	 cl, BYTE PTR _item$[ebp+208]
  0941c	88 08		 mov	 BYTE PTR [eax], cl

; 4648 : }

  0941e	5f		 pop	 edi
  0941f	5e		 pop	 esi
  09420	5b		 pop	 ebx
  09421	8b e5		 mov	 esp, ebp
  09423	5d		 pop	 ebp
  09424	c3		 ret	 0
?ItemByteConvertEx@@YAXPAEVCItem@@@Z ENDP		; ItemByteConvertEx
_TEXT	ENDS
PUBLIC	?ItemByteConvert@@YAXPAEHEEEEEEEEEQAEEE@Z	; ItemByteConvert
; Function compile flags: /Odtp /ZI
_TEXT	SEGMENT
_btPartialyChargeOption$ = -6				; size = 1
_btItemEffectFor380$ = -5				; size = 1
_n$ = -4						; size = 4
_buf$ = 8						; size = 4
_type$ = 12						; size = 4
_Option1$ = 16						; size = 1
_Option2$ = 20						; size = 1
_Option3$ = 24						; size = 1
_level$ = 28						; size = 1
_dur$ = 32						; size = 1
_Noption$ = 36						; size = 1
_SetOption$ = 40					; size = 1
_JewelOfHarmonyOption$ = 44				; size = 1
_ItemEffectEx$ = 48					; size = 1
_SocketOption$ = 52					; size = 4
_SocketIndex$ = 56					; size = 1
_PeriodItemOption$ = 60					; size = 1
?ItemByteConvert@@YAXPAEHEEEEEEEEEQAEEE@Z PROC		; ItemByteConvert

; 4651 : {

  09430	55		 push	 ebp
  09431	8b ec		 mov	 ebp, esp
  09433	83 ec 48	 sub	 esp, 72			; 00000048H
  09436	53		 push	 ebx
  09437	56		 push	 esi
  09438	57		 push	 edi

; 4652 : 	memset(buf, 0, MAX_ITEM_INFO);

  09439	6a 0c		 push	 12			; 0000000cH
  0943b	6a 00		 push	 0
  0943d	8b 45 08	 mov	 eax, DWORD PTR _buf$[ebp]
  09440	50		 push	 eax
  09441	e8 00 00 00 00	 call	 _memset
  09446	83 c4 0c	 add	 esp, 12			; 0000000cH

; 4653 : 	int n = 0;

  09449	c7 45 fc 00 00
	00 00		 mov	 DWORD PTR _n$[ebp], 0

; 4654 : 
; 4655 : 	buf[n] = type & 0xFF;

  09450	8b 45 0c	 mov	 eax, DWORD PTR _type$[ebp]
  09453	25 ff 00 00 00	 and	 eax, 255		; 000000ffH
  09458	8b 4d 08	 mov	 ecx, DWORD PTR _buf$[ebp]
  0945b	03 4d fc	 add	 ecx, DWORD PTR _n$[ebp]
  0945e	88 01		 mov	 BYTE PTR [ecx], al

; 4656 : 	n++;

  09460	8b 45 fc	 mov	 eax, DWORD PTR _n$[ebp]
  09463	83 c0 01	 add	 eax, 1
  09466	89 45 fc	 mov	 DWORD PTR _n$[ebp], eax

; 4657 : 	buf[n] = 0;

  09469	8b 45 08	 mov	 eax, DWORD PTR _buf$[ebp]
  0946c	03 45 fc	 add	 eax, DWORD PTR _n$[ebp]
  0946f	c6 00 00	 mov	 BYTE PTR [eax], 0

; 4658 : 	buf[n] |= level * 8;

  09472	0f b6 45 1c	 movzx	 eax, BYTE PTR _level$[ebp]
  09476	c1 e0 03	 shl	 eax, 3
  09479	8b 4d 08	 mov	 ecx, DWORD PTR _buf$[ebp]
  0947c	03 4d fc	 add	 ecx, DWORD PTR _n$[ebp]
  0947f	0f b6 11	 movzx	 edx, BYTE PTR [ecx]
  09482	0b d0		 or	 edx, eax
  09484	8b 45 08	 mov	 eax, DWORD PTR _buf$[ebp]
  09487	03 45 fc	 add	 eax, DWORD PTR _n$[ebp]
  0948a	88 10		 mov	 BYTE PTR [eax], dl

; 4659 : 	buf[n] |= Option1 * 128;

  0948c	0f b6 45 10	 movzx	 eax, BYTE PTR _Option1$[ebp]
  09490	c1 e0 07	 shl	 eax, 7
  09493	8b 4d 08	 mov	 ecx, DWORD PTR _buf$[ebp]
  09496	03 4d fc	 add	 ecx, DWORD PTR _n$[ebp]
  09499	0f b6 11	 movzx	 edx, BYTE PTR [ecx]
  0949c	0b d0		 or	 edx, eax
  0949e	8b 45 08	 mov	 eax, DWORD PTR _buf$[ebp]
  094a1	03 45 fc	 add	 eax, DWORD PTR _n$[ebp]
  094a4	88 10		 mov	 BYTE PTR [eax], dl

; 4660 : 	buf[n] |= Option2 * 4;

  094a6	0f b6 45 14	 movzx	 eax, BYTE PTR _Option2$[ebp]
  094aa	c1 e0 02	 shl	 eax, 2
  094ad	8b 4d 08	 mov	 ecx, DWORD PTR _buf$[ebp]
  094b0	03 4d fc	 add	 ecx, DWORD PTR _n$[ebp]
  094b3	0f b6 11	 movzx	 edx, BYTE PTR [ecx]
  094b6	0b d0		 or	 edx, eax
  094b8	8b 45 08	 mov	 eax, DWORD PTR _buf$[ebp]
  094bb	03 45 fc	 add	 eax, DWORD PTR _n$[ebp]
  094be	88 10		 mov	 BYTE PTR [eax], dl

; 4661 : 	buf[n] |= Option3 & 3;

  094c0	0f b6 45 18	 movzx	 eax, BYTE PTR _Option3$[ebp]
  094c4	83 e0 03	 and	 eax, 3
  094c7	8b 4d 08	 mov	 ecx, DWORD PTR _buf$[ebp]
  094ca	03 4d fc	 add	 ecx, DWORD PTR _n$[ebp]
  094cd	0f b6 11	 movzx	 edx, BYTE PTR [ecx]
  094d0	0b d0		 or	 edx, eax
  094d2	8b 45 08	 mov	 eax, DWORD PTR _buf$[ebp]
  094d5	03 45 fc	 add	 eax, DWORD PTR _n$[ebp]
  094d8	88 10		 mov	 BYTE PTR [eax], dl

; 4662 : 	n++;

  094da	8b 45 fc	 mov	 eax, DWORD PTR _n$[ebp]
  094dd	83 c0 01	 add	 eax, 1
  094e0	89 45 fc	 mov	 DWORD PTR _n$[ebp], eax

; 4663 : 	buf[n] = dur;

  094e3	8b 45 08	 mov	 eax, DWORD PTR _buf$[ebp]
  094e6	03 45 fc	 add	 eax, DWORD PTR _n$[ebp]
  094e9	8a 4d 20	 mov	 cl, BYTE PTR _dur$[ebp]
  094ec	88 08		 mov	 BYTE PTR [eax], cl

; 4664 : 	n++;

  094ee	8b 45 fc	 mov	 eax, DWORD PTR _n$[ebp]
  094f1	83 c0 01	 add	 eax, 1
  094f4	89 45 fc	 mov	 DWORD PTR _n$[ebp], eax

; 4665 : 	buf[n] = 0;

  094f7	8b 45 08	 mov	 eax, DWORD PTR _buf$[ebp]
  094fa	03 45 fc	 add	 eax, DWORD PTR _n$[ebp]
  094fd	c6 00 00	 mov	 BYTE PTR [eax], 0

; 4666 : 	buf[n] |= ((type& 0x100) >> 1);

  09500	8b 45 0c	 mov	 eax, DWORD PTR _type$[ebp]
  09503	25 00 01 00 00	 and	 eax, 256		; 00000100H
  09508	d1 f8		 sar	 eax, 1
  0950a	8b 4d 08	 mov	 ecx, DWORD PTR _buf$[ebp]
  0950d	03 4d fc	 add	 ecx, DWORD PTR _n$[ebp]
  09510	0f b6 11	 movzx	 edx, BYTE PTR [ecx]
  09513	0b d0		 or	 edx, eax
  09515	8b 45 08	 mov	 eax, DWORD PTR _buf$[ebp]
  09518	03 45 fc	 add	 eax, DWORD PTR _n$[ebp]
  0951b	88 10		 mov	 BYTE PTR [eax], dl

; 4667 : 
; 4668 : 	if ( Option3 > 3 )

  0951d	0f b6 45 18	 movzx	 eax, BYTE PTR _Option3$[ebp]
  09521	83 f8 03	 cmp	 eax, 3
  09524	7e 14		 jle	 SHORT $LN3@ItemByteCo@5

; 4669 : 	{
; 4670 : 		buf[n] |= 0x40;

  09526	8b 45 08	 mov	 eax, DWORD PTR _buf$[ebp]
  09529	03 45 fc	 add	 eax, DWORD PTR _n$[ebp]
  0952c	0f b6 08	 movzx	 ecx, BYTE PTR [eax]
  0952f	83 c9 40	 or	 ecx, 64			; 00000040H
  09532	8b 55 08	 mov	 edx, DWORD PTR _buf$[ebp]
  09535	03 55 fc	 add	 edx, DWORD PTR _n$[ebp]
  09538	88 0a		 mov	 BYTE PTR [edx], cl
$LN3@ItemByteCo@5:

; 4671 : 	}
; 4672 : 
; 4673 : 	buf[n] |= Noption;

  0953a	0f b6 45 24	 movzx	 eax, BYTE PTR _Noption$[ebp]
  0953e	8b 4d 08	 mov	 ecx, DWORD PTR _buf$[ebp]
  09541	03 4d fc	 add	 ecx, DWORD PTR _n$[ebp]
  09544	0f b6 11	 movzx	 edx, BYTE PTR [ecx]
  09547	0b d0		 or	 edx, eax
  09549	8b 45 08	 mov	 eax, DWORD PTR _buf$[ebp]
  0954c	03 45 fc	 add	 eax, DWORD PTR _n$[ebp]
  0954f	88 10		 mov	 BYTE PTR [eax], dl

; 4674 : 	n++;

  09551	8b 45 fc	 mov	 eax, DWORD PTR _n$[ebp]
  09554	83 c0 01	 add	 eax, 1
  09557	89 45 fc	 mov	 DWORD PTR _n$[ebp], eax

; 4675 : 	buf[n] = SetOption;

  0955a	8b 45 08	 mov	 eax, DWORD PTR _buf$[ebp]
  0955d	03 45 fc	 add	 eax, DWORD PTR _n$[ebp]
  09560	8a 4d 28	 mov	 cl, BYTE PTR _SetOption$[ebp]
  09563	88 08		 mov	 BYTE PTR [eax], cl

; 4676 : 	n++;

  09565	8b 45 fc	 mov	 eax, DWORD PTR _n$[ebp]
  09568	83 c0 01	 add	 eax, 1
  0956b	89 45 fc	 mov	 DWORD PTR _n$[ebp], eax

; 4677 : 	buf[n] |= (type & 0x1E00 ) >> 5;

  0956e	8b 45 0c	 mov	 eax, DWORD PTR _type$[ebp]
  09571	25 00 1e 00 00	 and	 eax, 7680		; 00001e00H
  09576	c1 f8 05	 sar	 eax, 5
  09579	8b 4d 08	 mov	 ecx, DWORD PTR _buf$[ebp]
  0957c	03 4d fc	 add	 ecx, DWORD PTR _n$[ebp]
  0957f	0f b6 11	 movzx	 edx, BYTE PTR [ecx]
  09582	0b d0		 or	 edx, eax
  09584	8b 45 08	 mov	 eax, DWORD PTR _buf$[ebp]
  09587	03 45 fc	 add	 eax, DWORD PTR _n$[ebp]
  0958a	88 10		 mov	 BYTE PTR [eax], dl

; 4678 : 
; 4679 : 	BYTE btItemEffectFor380 = 0;

  0958c	c6 45 fb 00	 mov	 BYTE PTR _btItemEffectFor380$[ebp], 0

; 4680 : 	btItemEffectFor380 = (ItemEffectEx  & 0x80 ) >> 4;

  09590	0f b6 45 30	 movzx	 eax, BYTE PTR _ItemEffectEx$[ebp]
  09594	25 80 00 00 00	 and	 eax, 128		; 00000080H
  09599	c1 f8 04	 sar	 eax, 4
  0959c	88 45 fb	 mov	 BYTE PTR _btItemEffectFor380$[ebp], al

; 4681 : 	buf[n] |= btItemEffectFor380;

  0959f	0f b6 45 fb	 movzx	 eax, BYTE PTR _btItemEffectFor380$[ebp]
  095a3	8b 4d 08	 mov	 ecx, DWORD PTR _buf$[ebp]
  095a6	03 4d fc	 add	 ecx, DWORD PTR _n$[ebp]
  095a9	0f b6 11	 movzx	 edx, BYTE PTR [ecx]
  095ac	0b d0		 or	 edx, eax
  095ae	8b 45 08	 mov	 eax, DWORD PTR _buf$[ebp]
  095b1	03 45 fc	 add	 eax, DWORD PTR _n$[ebp]
  095b4	88 10		 mov	 BYTE PTR [eax], dl

; 4682 : #ifdef PERIOD
; 4683 : 	BYTE btPartialyChargeOption = 0;

  095b6	c6 45 fa 00	 mov	 BYTE PTR _btPartialyChargeOption$[ebp], 0

; 4684 : 	btPartialyChargeOption = PeriodItemOption << 1;

  095ba	0f b6 45 3c	 movzx	 eax, BYTE PTR _PeriodItemOption$[ebp]
  095be	d1 e0		 shl	 eax, 1
  095c0	88 45 fa	 mov	 BYTE PTR _btPartialyChargeOption$[ebp], al

; 4685 : 	buf[n] |= btPartialyChargeOption;

  095c3	0f b6 45 fa	 movzx	 eax, BYTE PTR _btPartialyChargeOption$[ebp]
  095c7	8b 4d 08	 mov	 ecx, DWORD PTR _buf$[ebp]
  095ca	03 4d fc	 add	 ecx, DWORD PTR _n$[ebp]
  095cd	0f b6 11	 movzx	 edx, BYTE PTR [ecx]
  095d0	0b d0		 or	 edx, eax
  095d2	8b 45 08	 mov	 eax, DWORD PTR _buf$[ebp]
  095d5	03 45 fc	 add	 eax, DWORD PTR _n$[ebp]
  095d8	88 10		 mov	 BYTE PTR [eax], dl

; 4686 : #endif
; 4687 : 	n++;

  095da	8b 45 fc	 mov	 eax, DWORD PTR _n$[ebp]
  095dd	83 c0 01	 add	 eax, 1
  095e0	89 45 fc	 mov	 DWORD PTR _n$[ebp], eax

; 4688 : 	buf[n] = JewelOfHarmonyOption;

  095e3	8b 45 08	 mov	 eax, DWORD PTR _buf$[ebp]
  095e6	03 45 fc	 add	 eax, DWORD PTR _n$[ebp]
  095e9	8a 4d 2c	 mov	 cl, BYTE PTR _JewelOfHarmonyOption$[ebp]
  095ec	88 08		 mov	 BYTE PTR [eax], cl

; 4689 : 
; 4690 : 	//Season4 add-on (wz bugged -.-)
; 4691 : 	if(SocketOption != NULL)

  095ee	83 7d 34 00	 cmp	 DWORD PTR _SocketOption$[ebp], 0
  095f2	74 7f		 je	 SHORT $LN2@ItemByteCo@5

; 4692 : 	{
; 4693 : 		buf[n] = SocketIndex;

  095f4	8b 45 08	 mov	 eax, DWORD PTR _buf$[ebp]
  095f7	03 45 fc	 add	 eax, DWORD PTR _n$[ebp]
  095fa	8a 4d 38	 mov	 cl, BYTE PTR _SocketIndex$[ebp]
  095fd	88 08		 mov	 BYTE PTR [eax], cl

; 4694 : 		n++;

  095ff	8b 45 fc	 mov	 eax, DWORD PTR _n$[ebp]
  09602	83 c0 01	 add	 eax, 1
  09605	89 45 fc	 mov	 DWORD PTR _n$[ebp], eax

; 4695 : 		buf[n] = SocketOption[0];

  09608	8b 45 08	 mov	 eax, DWORD PTR _buf$[ebp]
  0960b	03 45 fc	 add	 eax, DWORD PTR _n$[ebp]
  0960e	8b 4d 34	 mov	 ecx, DWORD PTR _SocketOption$[ebp]
  09611	8a 11		 mov	 dl, BYTE PTR [ecx]
  09613	88 10		 mov	 BYTE PTR [eax], dl

; 4696 : 		n++;

  09615	8b 45 fc	 mov	 eax, DWORD PTR _n$[ebp]
  09618	83 c0 01	 add	 eax, 1
  0961b	89 45 fc	 mov	 DWORD PTR _n$[ebp], eax

; 4697 : 		buf[n] = SocketOption[1];

  0961e	8b 45 08	 mov	 eax, DWORD PTR _buf$[ebp]
  09621	03 45 fc	 add	 eax, DWORD PTR _n$[ebp]
  09624	8b 4d 34	 mov	 ecx, DWORD PTR _SocketOption$[ebp]
  09627	8a 51 01	 mov	 dl, BYTE PTR [ecx+1]
  0962a	88 10		 mov	 BYTE PTR [eax], dl

; 4698 : 		n++;

  0962c	8b 45 fc	 mov	 eax, DWORD PTR _n$[ebp]
  0962f	83 c0 01	 add	 eax, 1
  09632	89 45 fc	 mov	 DWORD PTR _n$[ebp], eax

; 4699 : 		buf[n] = SocketOption[2];

  09635	8b 45 08	 mov	 eax, DWORD PTR _buf$[ebp]
  09638	03 45 fc	 add	 eax, DWORD PTR _n$[ebp]
  0963b	8b 4d 34	 mov	 ecx, DWORD PTR _SocketOption$[ebp]
  0963e	8a 51 02	 mov	 dl, BYTE PTR [ecx+2]
  09641	88 10		 mov	 BYTE PTR [eax], dl

; 4700 : 		n++;

  09643	8b 45 fc	 mov	 eax, DWORD PTR _n$[ebp]
  09646	83 c0 01	 add	 eax, 1
  09649	89 45 fc	 mov	 DWORD PTR _n$[ebp], eax

; 4701 : 		buf[n] = SocketOption[3];

  0964c	8b 45 08	 mov	 eax, DWORD PTR _buf$[ebp]
  0964f	03 45 fc	 add	 eax, DWORD PTR _n$[ebp]
  09652	8b 4d 34	 mov	 ecx, DWORD PTR _SocketOption$[ebp]
  09655	8a 51 03	 mov	 dl, BYTE PTR [ecx+3]
  09658	88 10		 mov	 BYTE PTR [eax], dl

; 4702 : 		n++;

  0965a	8b 45 fc	 mov	 eax, DWORD PTR _n$[ebp]
  0965d	83 c0 01	 add	 eax, 1
  09660	89 45 fc	 mov	 DWORD PTR _n$[ebp], eax

; 4703 : 		buf[n] = SocketOption[4];

  09663	8b 45 08	 mov	 eax, DWORD PTR _buf$[ebp]
  09666	03 45 fc	 add	 eax, DWORD PTR _n$[ebp]
  09669	8b 4d 34	 mov	 ecx, DWORD PTR _SocketOption$[ebp]
  0966c	8a 51 04	 mov	 dl, BYTE PTR [ecx+4]
  0966f	88 10		 mov	 BYTE PTR [eax], dl

; 4704 : 	}
; 4705 : 	else

  09671	eb 5a		 jmp	 SHORT $LN4@ItemByteCo@5
$LN2@ItemByteCo@5:

; 4706 : 	{
; 4707 : 		n++; //wz fixed here -.-

  09673	8b 45 fc	 mov	 eax, DWORD PTR _n$[ebp]
  09676	83 c0 01	 add	 eax, 1
  09679	89 45 fc	 mov	 DWORD PTR _n$[ebp], eax

; 4708 : 		buf[n] = 0xFF;

  0967c	8b 45 08	 mov	 eax, DWORD PTR _buf$[ebp]
  0967f	03 45 fc	 add	 eax, DWORD PTR _n$[ebp]
  09682	c6 00 ff	 mov	 BYTE PTR [eax], 255	; 000000ffH

; 4709 : 		n++;

  09685	8b 45 fc	 mov	 eax, DWORD PTR _n$[ebp]
  09688	83 c0 01	 add	 eax, 1
  0968b	89 45 fc	 mov	 DWORD PTR _n$[ebp], eax

; 4710 : 		buf[n] = 0xFF;

  0968e	8b 45 08	 mov	 eax, DWORD PTR _buf$[ebp]
  09691	03 45 fc	 add	 eax, DWORD PTR _n$[ebp]
  09694	c6 00 ff	 mov	 BYTE PTR [eax], 255	; 000000ffH

; 4711 : 		n++;

  09697	8b 45 fc	 mov	 eax, DWORD PTR _n$[ebp]
  0969a	83 c0 01	 add	 eax, 1
  0969d	89 45 fc	 mov	 DWORD PTR _n$[ebp], eax

; 4712 : 		buf[n] = 0xFF;

  096a0	8b 45 08	 mov	 eax, DWORD PTR _buf$[ebp]
  096a3	03 45 fc	 add	 eax, DWORD PTR _n$[ebp]
  096a6	c6 00 ff	 mov	 BYTE PTR [eax], 255	; 000000ffH

; 4713 : 		n++;

  096a9	8b 45 fc	 mov	 eax, DWORD PTR _n$[ebp]
  096ac	83 c0 01	 add	 eax, 1
  096af	89 45 fc	 mov	 DWORD PTR _n$[ebp], eax

; 4714 : 		buf[n] = 0xFF;

  096b2	8b 45 08	 mov	 eax, DWORD PTR _buf$[ebp]
  096b5	03 45 fc	 add	 eax, DWORD PTR _n$[ebp]
  096b8	c6 00 ff	 mov	 BYTE PTR [eax], 255	; 000000ffH

; 4715 : 		n++;

  096bb	8b 45 fc	 mov	 eax, DWORD PTR _n$[ebp]
  096be	83 c0 01	 add	 eax, 1
  096c1	89 45 fc	 mov	 DWORD PTR _n$[ebp], eax

; 4716 : 		buf[n] = 0xFF;

  096c4	8b 45 08	 mov	 eax, DWORD PTR _buf$[ebp]
  096c7	03 45 fc	 add	 eax, DWORD PTR _n$[ebp]
  096ca	c6 00 ff	 mov	 BYTE PTR [eax], 255	; 000000ffH
$LN4@ItemByteCo@5:

; 4717 : 	}
; 4718 : }

  096cd	5f		 pop	 edi
  096ce	5e		 pop	 esi
  096cf	5b		 pop	 ebx
  096d0	8b e5		 mov	 esp, ebp
  096d2	5d		 pop	 ebp
  096d3	c3		 ret	 0
?ItemByteConvert@@YAXPAEHEEEEEEEEEQAEEE@Z ENDP		; ItemByteConvert
_TEXT	ENDS
PUBLIC	?ItemByteConvert16@@YAXPAEQAVCItem@@H@Z		; ItemByteConvert16
; Function compile flags: /Odtp /ZI
_TEXT	SEGMENT
tv540 = -96						; size = 4
tv538 = -92						; size = 4
tv82 = -88						; size = 4
tv535 = -86						; size = 2
_btPartialyChargeOption$232178 = -19			; size = 1
_btItemEffectFor380$232177 = -18			; size = 1
_btItemType$232175 = -17				; size = 1
_index$232154 = -16					; size = 4
_loWord$ = -12						; size = 2
_hiWord$ = -8						; size = 2
_n$ = -4						; size = 4
_buf$ = 8						; size = 4
_item$ = 12						; size = 4
_maxitem$ = 16						; size = 4
?ItemByteConvert16@@YAXPAEQAVCItem@@H@Z PROC		; ItemByteConvert16

; 4721 : {

  096e0	55		 push	 ebp
  096e1	8b ec		 mov	 ebp, esp
  096e3	83 ec 60	 sub	 esp, 96			; 00000060H
  096e6	53		 push	 ebx
  096e7	56		 push	 esi
  096e8	57		 push	 edi

; 4722 : 	int n=0;

  096e9	c7 45 fc 00 00
	00 00		 mov	 DWORD PTR _n$[ebp], 0

; 4723 : 	WORD hiWord, loWord;
; 4724 : 
; 4725 : 	for (int index=0; index < maxitem ;index++)

  096f0	c7 45 f0 00 00
	00 00		 mov	 DWORD PTR _index$232154[ebp], 0
  096f7	eb 09		 jmp	 SHORT $LN11@ItemByteCo@6
$LN10@ItemByteCo@6:
  096f9	8b 45 f0	 mov	 eax, DWORD PTR _index$232154[ebp]
  096fc	83 c0 01	 add	 eax, 1
  096ff	89 45 f0	 mov	 DWORD PTR _index$232154[ebp], eax
$LN11@ItemByteCo@6:
  09702	8b 45 f0	 mov	 eax, DWORD PTR _index$232154[ebp]
  09705	3b 45 10	 cmp	 eax, DWORD PTR _maxitem$[ebp]
  09708	0f 8d 25 07 00
	00		 jge	 $LN9@ItemByteCo@6

; 4726 : 	{
; 4727 : 		if ( item[index].m_Type == ITEMGET(13,19) )

  0970e	8b 45 f0	 mov	 eax, DWORD PTR _index$232154[ebp]
  09711	69 c0 d4 00 00
	00		 imul	 eax, 212		; 000000d4H
  09717	8b 4d 0c	 mov	 ecx, DWORD PTR _item$[ebp]
  0971a	0f bf 54 01 06	 movsx	 edx, WORD PTR [ecx+eax+6]
  0971f	81 fa 13 1a 00
	00		 cmp	 edx, 6675		; 00001a13H
  09725	0f 85 f1 00 00
	00		 jne	 $LN7@ItemByteCo@6

; 4728 : 		{
; 4729 : 			if ( CHECK_LIMIT(item[index].m_Level, 3) != FALSE )

  0972b	8b 45 f0	 mov	 eax, DWORD PTR _index$232154[ebp]
  0972e	69 c0 d4 00 00
	00		 imul	 eax, 212		; 000000d4H
  09734	8b 4d 0c	 mov	 ecx, DWORD PTR _item$[ebp]
  09737	0f bf 54 01 08	 movsx	 edx, WORD PTR [ecx+eax+8]
  0973c	85 d2		 test	 edx, edx
  0973e	7d 09		 jge	 SHORT $LN14@ItemByteCo@6
  09740	c7 45 a8 00 00
	00 00		 mov	 DWORD PTR tv82[ebp], 0
  09747	eb 1c		 jmp	 SHORT $LN15@ItemByteCo@6
$LN14@ItemByteCo@6:
  09749	8b 45 f0	 mov	 eax, DWORD PTR _index$232154[ebp]
  0974c	69 c0 d4 00 00
	00		 imul	 eax, 212		; 000000d4H
  09752	8b 4d 0c	 mov	 ecx, DWORD PTR _item$[ebp]
  09755	0f bf 54 01 08	 movsx	 edx, WORD PTR [ecx+eax+8]
  0975a	33 c0		 xor	 eax, eax
  0975c	83 fa 02	 cmp	 edx, 2
  0975f	0f 9e c0	 setle	 al
  09762	89 45 a8	 mov	 DWORD PTR tv82[ebp], eax
$LN15@ItemByteCo@6:
  09765	83 7d a8 00	 cmp	 DWORD PTR tv82[ebp], 0
  09769	0f 84 ad 00 00
	00		 je	 $LN7@ItemByteCo@6

; 4730 : 			{
; 4731 : 				buf[n+0]=-1;

  0976f	8b 45 08	 mov	 eax, DWORD PTR _buf$[ebp]
  09772	03 45 fc	 add	 eax, DWORD PTR _n$[ebp]
  09775	c6 00 ff	 mov	 BYTE PTR [eax], 255	; 000000ffH

; 4732 : 				buf[n+1]=-1;

  09778	8b 45 08	 mov	 eax, DWORD PTR _buf$[ebp]
  0977b	03 45 fc	 add	 eax, DWORD PTR _n$[ebp]
  0977e	c6 40 01 ff	 mov	 BYTE PTR [eax+1], 255	; 000000ffH

; 4733 : 				buf[n+2]=-1;

  09782	8b 45 08	 mov	 eax, DWORD PTR _buf$[ebp]
  09785	03 45 fc	 add	 eax, DWORD PTR _n$[ebp]
  09788	c6 40 02 ff	 mov	 BYTE PTR [eax+2], 255	; 000000ffH

; 4734 : 				buf[n+3]=-1;

  0978c	8b 45 08	 mov	 eax, DWORD PTR _buf$[ebp]
  0978f	03 45 fc	 add	 eax, DWORD PTR _n$[ebp]
  09792	c6 40 03 ff	 mov	 BYTE PTR [eax+3], 255	; 000000ffH

; 4735 : 				buf[n+4]=-1;

  09796	8b 45 08	 mov	 eax, DWORD PTR _buf$[ebp]
  09799	03 45 fc	 add	 eax, DWORD PTR _n$[ebp]
  0979c	c6 40 04 ff	 mov	 BYTE PTR [eax+4], 255	; 000000ffH

; 4736 : 				buf[n+5]=-1;

  097a0	8b 45 08	 mov	 eax, DWORD PTR _buf$[ebp]
  097a3	03 45 fc	 add	 eax, DWORD PTR _n$[ebp]
  097a6	c6 40 05 ff	 mov	 BYTE PTR [eax+5], 255	; 000000ffH

; 4737 : 				buf[n+6]=-1;

  097aa	8b 45 08	 mov	 eax, DWORD PTR _buf$[ebp]
  097ad	03 45 fc	 add	 eax, DWORD PTR _n$[ebp]
  097b0	c6 40 06 ff	 mov	 BYTE PTR [eax+6], 255	; 000000ffH

; 4738 : 				buf[n+7]=-1;

  097b4	8b 45 08	 mov	 eax, DWORD PTR _buf$[ebp]
  097b7	03 45 fc	 add	 eax, DWORD PTR _n$[ebp]
  097ba	c6 40 07 ff	 mov	 BYTE PTR [eax+7], 255	; 000000ffH

; 4739 : 				buf[n+8]=-1;

  097be	8b 45 08	 mov	 eax, DWORD PTR _buf$[ebp]
  097c1	03 45 fc	 add	 eax, DWORD PTR _n$[ebp]
  097c4	c6 40 08 ff	 mov	 BYTE PTR [eax+8], 255	; 000000ffH

; 4740 : 				buf[n+9]=-1;

  097c8	8b 45 08	 mov	 eax, DWORD PTR _buf$[ebp]
  097cb	03 45 fc	 add	 eax, DWORD PTR _n$[ebp]
  097ce	c6 40 09 ff	 mov	 BYTE PTR [eax+9], 255	; 000000ffH

; 4741 : 				buf[n+10]=-1;

  097d2	8b 45 08	 mov	 eax, DWORD PTR _buf$[ebp]
  097d5	03 45 fc	 add	 eax, DWORD PTR _n$[ebp]
  097d8	c6 40 0a ff	 mov	 BYTE PTR [eax+10], 255	; 000000ffH

; 4742 : 				buf[n+11]=-1;

  097dc	8b 45 08	 mov	 eax, DWORD PTR _buf$[ebp]
  097df	03 45 fc	 add	 eax, DWORD PTR _n$[ebp]
  097e2	c6 40 0b ff	 mov	 BYTE PTR [eax+11], 255	; 000000ffH

; 4743 : 				buf[n+12]=-1;

  097e6	8b 45 08	 mov	 eax, DWORD PTR _buf$[ebp]
  097e9	03 45 fc	 add	 eax, DWORD PTR _n$[ebp]
  097ec	c6 40 0c ff	 mov	 BYTE PTR [eax+12], 255	; 000000ffH

; 4744 : 				buf[n+13]=-1;

  097f0	8b 45 08	 mov	 eax, DWORD PTR _buf$[ebp]
  097f3	03 45 fc	 add	 eax, DWORD PTR _n$[ebp]
  097f6	c6 40 0d ff	 mov	 BYTE PTR [eax+13], 255	; 000000ffH

; 4745 : 				buf[n+14]=-1;

  097fa	8b 45 08	 mov	 eax, DWORD PTR _buf$[ebp]
  097fd	03 45 fc	 add	 eax, DWORD PTR _n$[ebp]
  09800	c6 40 0e ff	 mov	 BYTE PTR [eax+14], 255	; 000000ffH

; 4746 : 				buf[n+15]=-1;

  09804	8b 45 08	 mov	 eax, DWORD PTR _buf$[ebp]
  09807	03 45 fc	 add	 eax, DWORD PTR _n$[ebp]
  0980a	c6 40 0f ff	 mov	 BYTE PTR [eax+15], 255	; 000000ffH

; 4747 : 				n+=16;

  0980e	8b 45 fc	 mov	 eax, DWORD PTR _n$[ebp]
  09811	83 c0 10	 add	 eax, 16			; 00000010H
  09814	89 45 fc	 mov	 DWORD PTR _n$[ebp], eax

; 4748 : 
; 4749 : 				continue;

  09817	e9 dd fe ff ff	 jmp	 $LN10@ItemByteCo@6
$LN7@ItemByteCo@6:

; 4750 : 			}
; 4751 : 		}
; 4752 : 
; 4753 : 		if ( item[index].m_Type == ITEMGET(14,64) ) //Season 2.5 Illusion Torch add-on

  0981c	8b 45 f0	 mov	 eax, DWORD PTR _index$232154[ebp]
  0981f	69 c0 d4 00 00
	00		 imul	 eax, 212		; 000000d4H
  09825	8b 4d 0c	 mov	 ecx, DWORD PTR _item$[ebp]
  09828	0f bf 54 01 06	 movsx	 edx, WORD PTR [ecx+eax+6]
  0982d	81 fa 40 1c 00
	00		 cmp	 edx, 7232		; 00001c40H
  09833	0f 85 ad 00 00
	00		 jne	 $LN6@ItemByteCo@6

; 4754 : 		{
; 4755 : 			buf[n] = -1;

  09839	8b 45 08	 mov	 eax, DWORD PTR _buf$[ebp]
  0983c	03 45 fc	 add	 eax, DWORD PTR _n$[ebp]
  0983f	c6 00 ff	 mov	 BYTE PTR [eax], 255	; 000000ffH

; 4756 : 			buf[n+1]= -1;

  09842	8b 45 08	 mov	 eax, DWORD PTR _buf$[ebp]
  09845	03 45 fc	 add	 eax, DWORD PTR _n$[ebp]
  09848	c6 40 01 ff	 mov	 BYTE PTR [eax+1], 255	; 000000ffH

; 4757 : 			buf[n+2]= -1;

  0984c	8b 45 08	 mov	 eax, DWORD PTR _buf$[ebp]
  0984f	03 45 fc	 add	 eax, DWORD PTR _n$[ebp]
  09852	c6 40 02 ff	 mov	 BYTE PTR [eax+2], 255	; 000000ffH

; 4758 : 			buf[n+3]= -1;

  09856	8b 45 08	 mov	 eax, DWORD PTR _buf$[ebp]
  09859	03 45 fc	 add	 eax, DWORD PTR _n$[ebp]
  0985c	c6 40 03 ff	 mov	 BYTE PTR [eax+3], 255	; 000000ffH

; 4759 : 			buf[n+4]= -1;

  09860	8b 45 08	 mov	 eax, DWORD PTR _buf$[ebp]
  09863	03 45 fc	 add	 eax, DWORD PTR _n$[ebp]
  09866	c6 40 04 ff	 mov	 BYTE PTR [eax+4], 255	; 000000ffH

; 4760 : 			buf[n+5]= -1;

  0986a	8b 45 08	 mov	 eax, DWORD PTR _buf$[ebp]
  0986d	03 45 fc	 add	 eax, DWORD PTR _n$[ebp]
  09870	c6 40 05 ff	 mov	 BYTE PTR [eax+5], 255	; 000000ffH

; 4761 : 			buf[n+6]= -1;

  09874	8b 45 08	 mov	 eax, DWORD PTR _buf$[ebp]
  09877	03 45 fc	 add	 eax, DWORD PTR _n$[ebp]
  0987a	c6 40 06 ff	 mov	 BYTE PTR [eax+6], 255	; 000000ffH

; 4762 : 			buf[n+7]= -1;

  0987e	8b 45 08	 mov	 eax, DWORD PTR _buf$[ebp]
  09881	03 45 fc	 add	 eax, DWORD PTR _n$[ebp]
  09884	c6 40 07 ff	 mov	 BYTE PTR [eax+7], 255	; 000000ffH

; 4763 : 			buf[n+8]= -1;

  09888	8b 45 08	 mov	 eax, DWORD PTR _buf$[ebp]
  0988b	03 45 fc	 add	 eax, DWORD PTR _n$[ebp]
  0988e	c6 40 08 ff	 mov	 BYTE PTR [eax+8], 255	; 000000ffH

; 4764 : 			buf[n+9]= -1;

  09892	8b 45 08	 mov	 eax, DWORD PTR _buf$[ebp]
  09895	03 45 fc	 add	 eax, DWORD PTR _n$[ebp]
  09898	c6 40 09 ff	 mov	 BYTE PTR [eax+9], 255	; 000000ffH

; 4765 : 			buf[n+10]=-1;

  0989c	8b 45 08	 mov	 eax, DWORD PTR _buf$[ebp]
  0989f	03 45 fc	 add	 eax, DWORD PTR _n$[ebp]
  098a2	c6 40 0a ff	 mov	 BYTE PTR [eax+10], 255	; 000000ffH

; 4766 : 			buf[n+11]=-1;

  098a6	8b 45 08	 mov	 eax, DWORD PTR _buf$[ebp]
  098a9	03 45 fc	 add	 eax, DWORD PTR _n$[ebp]
  098ac	c6 40 0b ff	 mov	 BYTE PTR [eax+11], 255	; 000000ffH

; 4767 : 			buf[n+12]=-1;

  098b0	8b 45 08	 mov	 eax, DWORD PTR _buf$[ebp]
  098b3	03 45 fc	 add	 eax, DWORD PTR _n$[ebp]
  098b6	c6 40 0c ff	 mov	 BYTE PTR [eax+12], 255	; 000000ffH

; 4768 : 			buf[n+13]=-1;

  098ba	8b 45 08	 mov	 eax, DWORD PTR _buf$[ebp]
  098bd	03 45 fc	 add	 eax, DWORD PTR _n$[ebp]
  098c0	c6 40 0d ff	 mov	 BYTE PTR [eax+13], 255	; 000000ffH

; 4769 : 			buf[n+14]=-1;

  098c4	8b 45 08	 mov	 eax, DWORD PTR _buf$[ebp]
  098c7	03 45 fc	 add	 eax, DWORD PTR _n$[ebp]
  098ca	c6 40 0e ff	 mov	 BYTE PTR [eax+14], 255	; 000000ffH

; 4770 : 			buf[n+15]=-1;

  098ce	8b 45 08	 mov	 eax, DWORD PTR _buf$[ebp]
  098d1	03 45 fc	 add	 eax, DWORD PTR _n$[ebp]
  098d4	c6 40 0f ff	 mov	 BYTE PTR [eax+15], 255	; 000000ffH

; 4771 : 			n += 16;

  098d8	8b 45 fc	 mov	 eax, DWORD PTR _n$[ebp]
  098db	83 c0 10	 add	 eax, 16			; 00000010H
  098de	89 45 fc	 mov	 DWORD PTR _n$[ebp], eax

; 4772 : 			continue;

  098e1	e9 13 fe ff ff	 jmp	 $LN10@ItemByteCo@6
$LN6@ItemByteCo@6:

; 4773 : 		}
; 4774 : 
; 4775 : 		if ( item[index].m_Type < ITEMGET(0,0) )

  098e6	8b 45 f0	 mov	 eax, DWORD PTR _index$232154[ebp]
  098e9	69 c0 d4 00 00
	00		 imul	 eax, 212		; 000000d4H
  098ef	8b 4d 0c	 mov	 ecx, DWORD PTR _item$[ebp]
  098f2	0f bf 54 01 06	 movsx	 edx, WORD PTR [ecx+eax+6]
  098f7	85 d2		 test	 edx, edx
  098f9	0f 8d ad 00 00
	00		 jge	 $LN5@ItemByteCo@6

; 4776 : 		{
; 4777 : 			buf[n+0]=-1;

  098ff	8b 45 08	 mov	 eax, DWORD PTR _buf$[ebp]
  09902	03 45 fc	 add	 eax, DWORD PTR _n$[ebp]
  09905	c6 00 ff	 mov	 BYTE PTR [eax], 255	; 000000ffH

; 4778 : 			buf[n+1]=-1;

  09908	8b 45 08	 mov	 eax, DWORD PTR _buf$[ebp]
  0990b	03 45 fc	 add	 eax, DWORD PTR _n$[ebp]
  0990e	c6 40 01 ff	 mov	 BYTE PTR [eax+1], 255	; 000000ffH

; 4779 : 			buf[n+2]=-1;

  09912	8b 45 08	 mov	 eax, DWORD PTR _buf$[ebp]
  09915	03 45 fc	 add	 eax, DWORD PTR _n$[ebp]
  09918	c6 40 02 ff	 mov	 BYTE PTR [eax+2], 255	; 000000ffH

; 4780 : 			buf[n+3]=-1;

  0991c	8b 45 08	 mov	 eax, DWORD PTR _buf$[ebp]
  0991f	03 45 fc	 add	 eax, DWORD PTR _n$[ebp]
  09922	c6 40 03 ff	 mov	 BYTE PTR [eax+3], 255	; 000000ffH

; 4781 : 			buf[n+4]=-1;

  09926	8b 45 08	 mov	 eax, DWORD PTR _buf$[ebp]
  09929	03 45 fc	 add	 eax, DWORD PTR _n$[ebp]
  0992c	c6 40 04 ff	 mov	 BYTE PTR [eax+4], 255	; 000000ffH

; 4782 : 			buf[n+5]=-1;

  09930	8b 45 08	 mov	 eax, DWORD PTR _buf$[ebp]
  09933	03 45 fc	 add	 eax, DWORD PTR _n$[ebp]
  09936	c6 40 05 ff	 mov	 BYTE PTR [eax+5], 255	; 000000ffH

; 4783 : 			buf[n+6]=-1;

  0993a	8b 45 08	 mov	 eax, DWORD PTR _buf$[ebp]
  0993d	03 45 fc	 add	 eax, DWORD PTR _n$[ebp]
  09940	c6 40 06 ff	 mov	 BYTE PTR [eax+6], 255	; 000000ffH

; 4784 : 			buf[n+7]=-1;

  09944	8b 45 08	 mov	 eax, DWORD PTR _buf$[ebp]
  09947	03 45 fc	 add	 eax, DWORD PTR _n$[ebp]
  0994a	c6 40 07 ff	 mov	 BYTE PTR [eax+7], 255	; 000000ffH

; 4785 : 			buf[n+8]=-1;

  0994e	8b 45 08	 mov	 eax, DWORD PTR _buf$[ebp]
  09951	03 45 fc	 add	 eax, DWORD PTR _n$[ebp]
  09954	c6 40 08 ff	 mov	 BYTE PTR [eax+8], 255	; 000000ffH

; 4786 : 			buf[n+9]=-1;

  09958	8b 45 08	 mov	 eax, DWORD PTR _buf$[ebp]
  0995b	03 45 fc	 add	 eax, DWORD PTR _n$[ebp]
  0995e	c6 40 09 ff	 mov	 BYTE PTR [eax+9], 255	; 000000ffH

; 4787 : 			buf[n+10]=-1;

  09962	8b 45 08	 mov	 eax, DWORD PTR _buf$[ebp]
  09965	03 45 fc	 add	 eax, DWORD PTR _n$[ebp]
  09968	c6 40 0a ff	 mov	 BYTE PTR [eax+10], 255	; 000000ffH

; 4788 : 			buf[n+11]=-1;

  0996c	8b 45 08	 mov	 eax, DWORD PTR _buf$[ebp]
  0996f	03 45 fc	 add	 eax, DWORD PTR _n$[ebp]
  09972	c6 40 0b ff	 mov	 BYTE PTR [eax+11], 255	; 000000ffH

; 4789 : 			buf[n+12]=-1;

  09976	8b 45 08	 mov	 eax, DWORD PTR _buf$[ebp]
  09979	03 45 fc	 add	 eax, DWORD PTR _n$[ebp]
  0997c	c6 40 0c ff	 mov	 BYTE PTR [eax+12], 255	; 000000ffH

; 4790 : 			buf[n+13]=-1;

  09980	8b 45 08	 mov	 eax, DWORD PTR _buf$[ebp]
  09983	03 45 fc	 add	 eax, DWORD PTR _n$[ebp]
  09986	c6 40 0d ff	 mov	 BYTE PTR [eax+13], 255	; 000000ffH

; 4791 : 			buf[n+14]=-1;

  0998a	8b 45 08	 mov	 eax, DWORD PTR _buf$[ebp]
  0998d	03 45 fc	 add	 eax, DWORD PTR _n$[ebp]
  09990	c6 40 0e ff	 mov	 BYTE PTR [eax+14], 255	; 000000ffH

; 4792 : 			buf[n+15]=-1;

  09994	8b 45 08	 mov	 eax, DWORD PTR _buf$[ebp]
  09997	03 45 fc	 add	 eax, DWORD PTR _n$[ebp]
  0999a	c6 40 0f ff	 mov	 BYTE PTR [eax+15], 255	; 000000ffH

; 4793 : 			n+=16;

  0999e	8b 45 fc	 mov	 eax, DWORD PTR _n$[ebp]
  099a1	83 c0 10	 add	 eax, 16			; 00000010H
  099a4	89 45 fc	 mov	 DWORD PTR _n$[ebp], eax

; 4794 : 		}
; 4795 : 		else

  099a7	e9 82 04 00 00	 jmp	 $LN4@ItemByteCo@6
$LN5@ItemByteCo@6:

; 4796 : 		{
; 4797 : 			memset(buf+n, 0, 16);

  099ac	6a 10		 push	 16			; 00000010H
  099ae	6a 00		 push	 0
  099b0	8b 45 08	 mov	 eax, DWORD PTR _buf$[ebp]
  099b3	03 45 fc	 add	 eax, DWORD PTR _n$[ebp]
  099b6	50		 push	 eax
  099b7	e8 00 00 00 00	 call	 _memset
  099bc	83 c4 0c	 add	 esp, 12			; 0000000cH

; 4798 : 
; 4799 : 			buf[n] = (BYTE)item[index].m_Type % 256;

  099bf	8b 45 f0	 mov	 eax, DWORD PTR _index$232154[ebp]
  099c2	69 c0 d4 00 00
	00		 imul	 eax, 212		; 000000d4H
  099c8	8b 4d 0c	 mov	 ecx, DWORD PTR _item$[ebp]
  099cb	0f b6 54 01 06	 movzx	 edx, BYTE PTR [ecx+eax+6]
  099d0	81 e2 ff 00 00
	80		 and	 edx, -2147483393	; 800000ffH
  099d6	79 08		 jns	 SHORT $LN16@ItemByteCo@6
  099d8	4a		 dec	 edx
  099d9	81 ca 00 ff ff
	ff		 or	 edx, -256		; ffffff00H
  099df	42		 inc	 edx
$LN16@ItemByteCo@6:
  099e0	8b 45 08	 mov	 eax, DWORD PTR _buf$[ebp]
  099e3	03 45 fc	 add	 eax, DWORD PTR _n$[ebp]
  099e6	88 10		 mov	 BYTE PTR [eax], dl

; 4800 : 			n++;

  099e8	8b 45 fc	 mov	 eax, DWORD PTR _n$[ebp]
  099eb	83 c0 01	 add	 eax, 1
  099ee	89 45 fc	 mov	 DWORD PTR _n$[ebp], eax

; 4801 : 			buf[n]=0;

  099f1	8b 45 08	 mov	 eax, DWORD PTR _buf$[ebp]
  099f4	03 45 fc	 add	 eax, DWORD PTR _n$[ebp]
  099f7	c6 00 00	 mov	 BYTE PTR [eax], 0

; 4802 : 			buf[n] |= item[index].m_Level * 8;

  099fa	8b 45 f0	 mov	 eax, DWORD PTR _index$232154[ebp]
  099fd	69 c0 d4 00 00
	00		 imul	 eax, 212		; 000000d4H
  09a03	8b 4d 0c	 mov	 ecx, DWORD PTR _item$[ebp]
  09a06	0f bf 54 01 08	 movsx	 edx, WORD PTR [ecx+eax+8]
  09a0b	c1 e2 03	 shl	 edx, 3
  09a0e	8b 45 08	 mov	 eax, DWORD PTR _buf$[ebp]
  09a11	03 45 fc	 add	 eax, DWORD PTR _n$[ebp]
  09a14	0f b6 08	 movzx	 ecx, BYTE PTR [eax]
  09a17	0b ca		 or	 ecx, edx
  09a19	8b 55 08	 mov	 edx, DWORD PTR _buf$[ebp]
  09a1c	03 55 fc	 add	 edx, DWORD PTR _n$[ebp]
  09a1f	88 0a		 mov	 BYTE PTR [edx], cl

; 4803 : 			buf[n] |= item[index].m_Option1 * 128;

  09a21	8b 45 f0	 mov	 eax, DWORD PTR _index$232154[ebp]
  09a24	69 c0 d4 00 00
	00		 imul	 eax, 212		; 000000d4H
  09a2a	8b 4d 0c	 mov	 ecx, DWORD PTR _item$[ebp]
  09a2d	0f b6 94 01 94
	00 00 00	 movzx	 edx, BYTE PTR [ecx+eax+148]
  09a35	c1 e2 07	 shl	 edx, 7
  09a38	8b 45 08	 mov	 eax, DWORD PTR _buf$[ebp]
  09a3b	03 45 fc	 add	 eax, DWORD PTR _n$[ebp]
  09a3e	0f b6 08	 movzx	 ecx, BYTE PTR [eax]
  09a41	0b ca		 or	 ecx, edx
  09a43	8b 55 08	 mov	 edx, DWORD PTR _buf$[ebp]
  09a46	03 55 fc	 add	 edx, DWORD PTR _n$[ebp]
  09a49	88 0a		 mov	 BYTE PTR [edx], cl

; 4804 : 			buf[n] |= item[index].m_Option2 * 4;

  09a4b	8b 45 f0	 mov	 eax, DWORD PTR _index$232154[ebp]
  09a4e	69 c0 d4 00 00
	00		 imul	 eax, 212		; 000000d4H
  09a54	8b 4d 0c	 mov	 ecx, DWORD PTR _item$[ebp]
  09a57	0f b6 94 01 95
	00 00 00	 movzx	 edx, BYTE PTR [ecx+eax+149]
  09a5f	c1 e2 02	 shl	 edx, 2
  09a62	8b 45 08	 mov	 eax, DWORD PTR _buf$[ebp]
  09a65	03 45 fc	 add	 eax, DWORD PTR _n$[ebp]
  09a68	0f b6 08	 movzx	 ecx, BYTE PTR [eax]
  09a6b	0b ca		 or	 ecx, edx
  09a6d	8b 55 08	 mov	 edx, DWORD PTR _buf$[ebp]
  09a70	03 55 fc	 add	 edx, DWORD PTR _n$[ebp]
  09a73	88 0a		 mov	 BYTE PTR [edx], cl

; 4805 : 			buf[n] |= item[index].m_Option3 & 3;

  09a75	8b 45 f0	 mov	 eax, DWORD PTR _index$232154[ebp]
  09a78	69 c0 d4 00 00
	00		 imul	 eax, 212		; 000000d4H
  09a7e	8b 4d 0c	 mov	 ecx, DWORD PTR _item$[ebp]
  09a81	0f b6 94 01 96
	00 00 00	 movzx	 edx, BYTE PTR [ecx+eax+150]
  09a89	83 e2 03	 and	 edx, 3
  09a8c	8b 45 08	 mov	 eax, DWORD PTR _buf$[ebp]
  09a8f	03 45 fc	 add	 eax, DWORD PTR _n$[ebp]
  09a92	0f b6 08	 movzx	 ecx, BYTE PTR [eax]
  09a95	0b ca		 or	 ecx, edx
  09a97	8b 55 08	 mov	 edx, DWORD PTR _buf$[ebp]
  09a9a	03 55 fc	 add	 edx, DWORD PTR _n$[ebp]
  09a9d	88 0a		 mov	 BYTE PTR [edx], cl

; 4806 : 			n++;

  09a9f	8b 45 fc	 mov	 eax, DWORD PTR _n$[ebp]
  09aa2	83 c0 01	 add	 eax, 1
  09aa5	89 45 fc	 mov	 DWORD PTR _n$[ebp], eax

; 4807 : 			buf[n] = (BYTE)item[index].m_Durability;

  09aa8	8b 45 f0	 mov	 eax, DWORD PTR _index$232154[ebp]
  09aab	69 c0 d4 00 00
	00		 imul	 eax, 212		; 000000d4H
  09ab1	8b 4d 0c	 mov	 ecx, DWORD PTR _item$[ebp]
  09ab4	d9 44 01 24	 fld	 DWORD PTR [ecx+eax+36]
  09ab8	d9 7d aa	 fnstcw	 WORD PTR tv535[ebp]
  09abb	0f b7 45 aa	 movzx	 eax, WORD PTR tv535[ebp]
  09abf	0d 00 0c 00 00	 or	 eax, 3072		; 00000c00H
  09ac4	89 45 a4	 mov	 DWORD PTR tv538[ebp], eax
  09ac7	d9 6d a4	 fldcw	 WORD PTR tv538[ebp]
  09aca	db 5d a0	 fistp	 DWORD PTR tv540[ebp]
  09acd	d9 6d aa	 fldcw	 WORD PTR tv535[ebp]
  09ad0	8a 55 a0	 mov	 dl, BYTE PTR tv540[ebp]
  09ad3	8b 45 08	 mov	 eax, DWORD PTR _buf$[ebp]
  09ad6	03 45 fc	 add	 eax, DWORD PTR _n$[ebp]
  09ad9	88 10		 mov	 BYTE PTR [eax], dl

; 4808 : 			n++;

  09adb	8b 45 fc	 mov	 eax, DWORD PTR _n$[ebp]
  09ade	83 c0 01	 add	 eax, 1
  09ae1	89 45 fc	 mov	 DWORD PTR _n$[ebp], eax

; 4809 : 			hiWord = item[index].m_Number >> 16;

  09ae4	8b 45 f0	 mov	 eax, DWORD PTR _index$232154[ebp]
  09ae7	69 c0 d4 00 00
	00		 imul	 eax, 212		; 000000d4H
  09aed	8b 4d 0c	 mov	 ecx, DWORD PTR _item$[ebp]
  09af0	8b 14 01	 mov	 edx, DWORD PTR [ecx+eax]
  09af3	c1 ea 10	 shr	 edx, 16			; 00000010H
  09af6	66 89 55 f8	 mov	 WORD PTR _hiWord$[ebp], dx

; 4810 : 			loWord = item[index].m_Number  & 0xFFFF;

  09afa	8b 45 f0	 mov	 eax, DWORD PTR _index$232154[ebp]
  09afd	69 c0 d4 00 00
	00		 imul	 eax, 212		; 000000d4H
  09b03	8b 4d 0c	 mov	 ecx, DWORD PTR _item$[ebp]
  09b06	8b 14 01	 mov	 edx, DWORD PTR [ecx+eax]
  09b09	81 e2 ff ff 00
	00		 and	 edx, 65535		; 0000ffffH
  09b0f	66 89 55 f4	 mov	 WORD PTR _loWord$[ebp], dx

; 4811 : 			buf[n] = SET_NUMBERH(hiWord);

  09b13	0f b7 45 f8	 movzx	 eax, WORD PTR _hiWord$[ebp]
  09b17	c1 e8 08	 shr	 eax, 8
  09b1a	8b 4d 08	 mov	 ecx, DWORD PTR _buf$[ebp]
  09b1d	03 4d fc	 add	 ecx, DWORD PTR _n$[ebp]
  09b20	88 01		 mov	 BYTE PTR [ecx], al

; 4812 : 			n++;

  09b22	8b 45 fc	 mov	 eax, DWORD PTR _n$[ebp]
  09b25	83 c0 01	 add	 eax, 1
  09b28	89 45 fc	 mov	 DWORD PTR _n$[ebp], eax

; 4813 : 			buf[n] = SET_NUMBERL(hiWord);

  09b2b	0f b7 45 f8	 movzx	 eax, WORD PTR _hiWord$[ebp]
  09b2f	25 ff 00 00 00	 and	 eax, 255		; 000000ffH
  09b34	8b 4d 08	 mov	 ecx, DWORD PTR _buf$[ebp]
  09b37	03 4d fc	 add	 ecx, DWORD PTR _n$[ebp]
  09b3a	88 01		 mov	 BYTE PTR [ecx], al

; 4814 : 			n++;

  09b3c	8b 45 fc	 mov	 eax, DWORD PTR _n$[ebp]
  09b3f	83 c0 01	 add	 eax, 1
  09b42	89 45 fc	 mov	 DWORD PTR _n$[ebp], eax

; 4815 : 			buf[n] = SET_NUMBERH(loWord);

  09b45	0f b7 45 f4	 movzx	 eax, WORD PTR _loWord$[ebp]
  09b49	c1 e8 08	 shr	 eax, 8
  09b4c	8b 4d 08	 mov	 ecx, DWORD PTR _buf$[ebp]
  09b4f	03 4d fc	 add	 ecx, DWORD PTR _n$[ebp]
  09b52	88 01		 mov	 BYTE PTR [ecx], al

; 4816 : 			n++;

  09b54	8b 45 fc	 mov	 eax, DWORD PTR _n$[ebp]
  09b57	83 c0 01	 add	 eax, 1
  09b5a	89 45 fc	 mov	 DWORD PTR _n$[ebp], eax

; 4817 : 			buf[n] = SET_NUMBERL(loWord);

  09b5d	0f b7 45 f4	 movzx	 eax, WORD PTR _loWord$[ebp]
  09b61	25 ff 00 00 00	 and	 eax, 255		; 000000ffH
  09b66	8b 4d 08	 mov	 ecx, DWORD PTR _buf$[ebp]
  09b69	03 4d fc	 add	 ecx, DWORD PTR _n$[ebp]
  09b6c	88 01		 mov	 BYTE PTR [ecx], al

; 4818 : 			n++;

  09b6e	8b 45 fc	 mov	 eax, DWORD PTR _n$[ebp]
  09b71	83 c0 01	 add	 eax, 1
  09b74	89 45 fc	 mov	 DWORD PTR _n$[ebp], eax

; 4819 : 			buf[n] = 0;

  09b77	8b 45 08	 mov	 eax, DWORD PTR _buf$[ebp]
  09b7a	03 45 fc	 add	 eax, DWORD PTR _n$[ebp]
  09b7d	c6 00 00	 mov	 BYTE PTR [eax], 0

; 4820 : 			BYTE btItemType=0;

  09b80	c6 45 ef 00	 mov	 BYTE PTR _btItemType$232175[ebp], 0

; 4821 : 			btItemType |= (item[index].m_Type & 0x1E00 ) >> 5;

  09b84	8b 45 f0	 mov	 eax, DWORD PTR _index$232154[ebp]
  09b87	69 c0 d4 00 00
	00		 imul	 eax, 212		; 000000d4H
  09b8d	8b 4d 0c	 mov	 ecx, DWORD PTR _item$[ebp]
  09b90	0f bf 54 01 06	 movsx	 edx, WORD PTR [ecx+eax+6]
  09b95	81 e2 00 1e 00
	00		 and	 edx, 7680		; 00001e00H
  09b9b	c1 fa 05	 sar	 edx, 5
  09b9e	0f b6 45 ef	 movzx	 eax, BYTE PTR _btItemType$232175[ebp]
  09ba2	0b c2		 or	 eax, edx
  09ba4	88 45 ef	 mov	 BYTE PTR _btItemType$232175[ebp], al

; 4822 : 			buf[n] |= ((item[index].m_Type & 0x100) >> 1);

  09ba7	8b 45 f0	 mov	 eax, DWORD PTR _index$232154[ebp]
  09baa	69 c0 d4 00 00
	00		 imul	 eax, 212		; 000000d4H
  09bb0	8b 4d 0c	 mov	 ecx, DWORD PTR _item$[ebp]
  09bb3	0f bf 54 01 06	 movsx	 edx, WORD PTR [ecx+eax+6]
  09bb8	81 e2 00 01 00
	00		 and	 edx, 256		; 00000100H
  09bbe	d1 fa		 sar	 edx, 1
  09bc0	8b 45 08	 mov	 eax, DWORD PTR _buf$[ebp]
  09bc3	03 45 fc	 add	 eax, DWORD PTR _n$[ebp]
  09bc6	0f b6 08	 movzx	 ecx, BYTE PTR [eax]
  09bc9	0b ca		 or	 ecx, edx
  09bcb	8b 55 08	 mov	 edx, DWORD PTR _buf$[ebp]
  09bce	03 55 fc	 add	 edx, DWORD PTR _n$[ebp]
  09bd1	88 0a		 mov	 BYTE PTR [edx], cl

; 4823 : 
; 4824 : 			if ( item[index].m_Option3 > 3 )

  09bd3	8b 45 f0	 mov	 eax, DWORD PTR _index$232154[ebp]
  09bd6	69 c0 d4 00 00
	00		 imul	 eax, 212		; 000000d4H
  09bdc	8b 4d 0c	 mov	 ecx, DWORD PTR _item$[ebp]
  09bdf	0f b6 94 01 96
	00 00 00	 movzx	 edx, BYTE PTR [ecx+eax+150]
  09be7	83 fa 03	 cmp	 edx, 3
  09bea	7e 14		 jle	 SHORT $LN3@ItemByteCo@6

; 4825 : 			{
; 4826 : 				buf[n] |= 0x40; // item +16 option

  09bec	8b 45 08	 mov	 eax, DWORD PTR _buf$[ebp]
  09bef	03 45 fc	 add	 eax, DWORD PTR _n$[ebp]
  09bf2	0f b6 08	 movzx	 ecx, BYTE PTR [eax]
  09bf5	83 c9 40	 or	 ecx, 64			; 00000040H
  09bf8	8b 55 08	 mov	 edx, DWORD PTR _buf$[ebp]
  09bfb	03 55 fc	 add	 edx, DWORD PTR _n$[ebp]
  09bfe	88 0a		 mov	 BYTE PTR [edx], cl
$LN3@ItemByteCo@6:

; 4827 : 			}
; 4828 : 
; 4829 : 			buf[n] |= item[index].m_NewOption;

  09c00	8b 45 f0	 mov	 eax, DWORD PTR _index$232154[ebp]
  09c03	69 c0 d4 00 00
	00		 imul	 eax, 212		; 000000d4H
  09c09	8b 4d 0c	 mov	 ecx, DWORD PTR _item$[ebp]
  09c0c	0f b6 94 01 97
	00 00 00	 movzx	 edx, BYTE PTR [ecx+eax+151]
  09c14	8b 45 08	 mov	 eax, DWORD PTR _buf$[ebp]
  09c17	03 45 fc	 add	 eax, DWORD PTR _n$[ebp]
  09c1a	0f b6 08	 movzx	 ecx, BYTE PTR [eax]
  09c1d	0b ca		 or	 ecx, edx
  09c1f	8b 55 08	 mov	 edx, DWORD PTR _buf$[ebp]
  09c22	03 55 fc	 add	 edx, DWORD PTR _n$[ebp]
  09c25	88 0a		 mov	 BYTE PTR [edx], cl

; 4830 : 			n++;

  09c27	8b 45 fc	 mov	 eax, DWORD PTR _n$[ebp]
  09c2a	83 c0 01	 add	 eax, 1
  09c2d	89 45 fc	 mov	 DWORD PTR _n$[ebp], eax

; 4831 : 			buf[n] = item[index].m_SetOption;

  09c30	8b 45 f0	 mov	 eax, DWORD PTR _index$232154[ebp]
  09c33	69 c0 d4 00 00
	00		 imul	 eax, 212		; 000000d4H
  09c39	8b 4d 08	 mov	 ecx, DWORD PTR _buf$[ebp]
  09c3c	03 4d fc	 add	 ecx, DWORD PTR _n$[ebp]
  09c3f	8b 55 0c	 mov	 edx, DWORD PTR _item$[ebp]
  09c42	8a 84 02 ae 00
	00 00		 mov	 al, BYTE PTR [edx+eax+174]
  09c49	88 01		 mov	 BYTE PTR [ecx], al

; 4832 : 			n++;

  09c4b	8b 45 fc	 mov	 eax, DWORD PTR _n$[ebp]
  09c4e	83 c0 01	 add	 eax, 1
  09c51	89 45 fc	 mov	 DWORD PTR _n$[ebp], eax

; 4833 : 			buf[n] = 0;

  09c54	8b 45 08	 mov	 eax, DWORD PTR _buf$[ebp]
  09c57	03 45 fc	 add	 eax, DWORD PTR _n$[ebp]
  09c5a	c6 00 00	 mov	 BYTE PTR [eax], 0

; 4834 : 			buf[n] |= btItemType;

  09c5d	0f b6 45 ef	 movzx	 eax, BYTE PTR _btItemType$232175[ebp]
  09c61	8b 4d 08	 mov	 ecx, DWORD PTR _buf$[ebp]
  09c64	03 4d fc	 add	 ecx, DWORD PTR _n$[ebp]
  09c67	0f b6 11	 movzx	 edx, BYTE PTR [ecx]
  09c6a	0b d0		 or	 edx, eax
  09c6c	8b 45 08	 mov	 eax, DWORD PTR _buf$[ebp]
  09c6f	03 45 fc	 add	 eax, DWORD PTR _n$[ebp]
  09c72	88 10		 mov	 BYTE PTR [eax], dl

; 4835 : 			BYTE btItemEffectFor380 = 0;

  09c74	c6 45 ee 00	 mov	 BYTE PTR _btItemEffectFor380$232177[ebp], 0

; 4836 : 			btItemEffectFor380 = (item[index].m_ItemOptionEx & 0x80 ) >> 4;

  09c78	8b 45 f0	 mov	 eax, DWORD PTR _index$232154[ebp]
  09c7b	69 c0 d4 00 00
	00		 imul	 eax, 212		; 000000d4H
  09c81	8b 4d 0c	 mov	 ecx, DWORD PTR _item$[ebp]
  09c84	0f b6 94 01 ca
	00 00 00	 movzx	 edx, BYTE PTR [ecx+eax+202]
  09c8c	81 e2 80 00 00
	00		 and	 edx, 128		; 00000080H
  09c92	c1 fa 04	 sar	 edx, 4
  09c95	88 55 ee	 mov	 BYTE PTR _btItemEffectFor380$232177[ebp], dl

; 4837 : 			buf[n] |= btItemEffectFor380;

  09c98	0f b6 45 ee	 movzx	 eax, BYTE PTR _btItemEffectFor380$232177[ebp]
  09c9c	8b 4d 08	 mov	 ecx, DWORD PTR _buf$[ebp]
  09c9f	03 4d fc	 add	 ecx, DWORD PTR _n$[ebp]
  09ca2	0f b6 11	 movzx	 edx, BYTE PTR [ecx]
  09ca5	0b d0		 or	 edx, eax
  09ca7	8b 45 08	 mov	 eax, DWORD PTR _buf$[ebp]
  09caa	03 45 fc	 add	 eax, DWORD PTR _n$[ebp]
  09cad	88 10		 mov	 BYTE PTR [eax], dl

; 4838 : 
; 4839 : #ifdef PERIOD
; 4840 : 			BYTE btPartialyChargeOption = 0;

  09caf	c6 45 ed 00	 mov	 BYTE PTR _btPartialyChargeOption$232178[ebp], 0

; 4841 : 			btPartialyChargeOption = item[index].m_PeriodItemOption << 1;

  09cb3	8b 45 f0	 mov	 eax, DWORD PTR _index$232154[ebp]
  09cb6	69 c0 d4 00 00
	00		 imul	 eax, 212		; 000000d4H
  09cbc	8b 4d 0c	 mov	 ecx, DWORD PTR _item$[ebp]
  09cbf	0f b6 94 01 d2
	00 00 00	 movzx	 edx, BYTE PTR [ecx+eax+210]
  09cc7	d1 e2		 shl	 edx, 1
  09cc9	88 55 ed	 mov	 BYTE PTR _btPartialyChargeOption$232178[ebp], dl

; 4842 : 			buf[n] |= btPartialyChargeOption;

  09ccc	0f b6 45 ed	 movzx	 eax, BYTE PTR _btPartialyChargeOption$232178[ebp]
  09cd0	8b 4d 08	 mov	 ecx, DWORD PTR _buf$[ebp]
  09cd3	03 4d fc	 add	 ecx, DWORD PTR _n$[ebp]
  09cd6	0f b6 11	 movzx	 edx, BYTE PTR [ecx]
  09cd9	0b d0		 or	 edx, eax
  09cdb	8b 45 08	 mov	 eax, DWORD PTR _buf$[ebp]
  09cde	03 45 fc	 add	 eax, DWORD PTR _n$[ebp]
  09ce1	88 10		 mov	 BYTE PTR [eax], dl

; 4843 : #endif
; 4844 : 
; 4845 : 			n++;

  09ce3	8b 45 fc	 mov	 eax, DWORD PTR _n$[ebp]
  09ce6	83 c0 01	 add	 eax, 1
  09ce9	89 45 fc	 mov	 DWORD PTR _n$[ebp], eax

; 4846 : 			
; 4847 : 			if ( item[index].m_JewelOfHarmonyOption == 0xFF )

  09cec	8b 45 f0	 mov	 eax, DWORD PTR _index$232154[ebp]
  09cef	69 c0 d4 00 00
	00		 imul	 eax, 212		; 000000d4H
  09cf5	8b 4d 0c	 mov	 ecx, DWORD PTR _item$[ebp]
  09cf8	0f b6 94 01 c4
	00 00 00	 movzx	 edx, BYTE PTR [ecx+eax+196]
  09d00	81 fa ff 00 00
	00		 cmp	 edx, 255		; 000000ffH
  09d06	75 14		 jne	 SHORT $LN2@ItemByteCo@6

; 4848 : 				item[index].m_JewelOfHarmonyOption = 0;

  09d08	8b 45 f0	 mov	 eax, DWORD PTR _index$232154[ebp]
  09d0b	69 c0 d4 00 00
	00		 imul	 eax, 212		; 000000d4H
  09d11	8b 4d 0c	 mov	 ecx, DWORD PTR _item$[ebp]
  09d14	c6 84 01 c4 00
	00 00 00	 mov	 BYTE PTR [ecx+eax+196], 0
$LN2@ItemByteCo@6:

; 4849 : 
; 4850 : 			buf[n] = item[index].m_JewelOfHarmonyOption;

  09d1c	8b 45 f0	 mov	 eax, DWORD PTR _index$232154[ebp]
  09d1f	69 c0 d4 00 00
	00		 imul	 eax, 212		; 000000d4H
  09d25	8b 4d 08	 mov	 ecx, DWORD PTR _buf$[ebp]
  09d28	03 4d fc	 add	 ecx, DWORD PTR _n$[ebp]
  09d2b	8b 55 0c	 mov	 edx, DWORD PTR _item$[ebp]
  09d2e	8a 84 02 c4 00
	00 00		 mov	 al, BYTE PTR [edx+eax+196]
  09d35	88 01		 mov	 BYTE PTR [ecx], al

; 4851 : 
; 4852 : 			//Season4 add-on
; 4853 : 			if(g_SocketOption.IsSocketOption(&item[index]) == 1){buf[n] = item[index].m_SocketOptionIndex;}

  09d37	8b 45 f0	 mov	 eax, DWORD PTR _index$232154[ebp]
  09d3a	69 c0 d4 00 00
	00		 imul	 eax, 212		; 000000d4H
  09d40	03 45 0c	 add	 eax, DWORD PTR _item$[ebp]
  09d43	50		 push	 eax
  09d44	b9 00 00 00 00	 mov	 ecx, OFFSET ?g_SocketOption@@3VCSocketOption@@A ; g_SocketOption
  09d49	e8 00 00 00 00	 call	 ?IsSocketOption@CSocketOption@@QAEEPAVCItem@@@Z ; CSocketOption::IsSocketOption
  09d4e	0f b6 c8	 movzx	 ecx, al
  09d51	83 f9 01	 cmp	 ecx, 1
  09d54	75 1b		 jne	 SHORT $LN1@ItemByteCo@6
  09d56	8b 45 f0	 mov	 eax, DWORD PTR _index$232154[ebp]
  09d59	69 c0 d4 00 00
	00		 imul	 eax, 212		; 000000d4H
  09d5f	8b 4d 08	 mov	 ecx, DWORD PTR _buf$[ebp]
  09d62	03 4d fc	 add	 ecx, DWORD PTR _n$[ebp]
  09d65	8b 55 0c	 mov	 edx, DWORD PTR _item$[ebp]
  09d68	8a 84 02 cb 00
	00 00		 mov	 al, BYTE PTR [edx+eax+203]
  09d6f	88 01		 mov	 BYTE PTR [ecx], al
$LN1@ItemByteCo@6:

; 4854 : 			n++;

  09d71	8b 45 fc	 mov	 eax, DWORD PTR _n$[ebp]
  09d74	83 c0 01	 add	 eax, 1
  09d77	89 45 fc	 mov	 DWORD PTR _n$[ebp], eax

; 4855 : 			buf[n] = item[index].m_SocketOption[0];

  09d7a	8b 45 f0	 mov	 eax, DWORD PTR _index$232154[ebp]
  09d7d	69 c0 d4 00 00
	00		 imul	 eax, 212		; 000000d4H
  09d83	8b 4d 08	 mov	 ecx, DWORD PTR _buf$[ebp]
  09d86	03 4d fc	 add	 ecx, DWORD PTR _n$[ebp]
  09d89	8b 55 0c	 mov	 edx, DWORD PTR _item$[ebp]
  09d8c	8a 84 02 cc 00
	00 00		 mov	 al, BYTE PTR [edx+eax+204]
  09d93	88 01		 mov	 BYTE PTR [ecx], al

; 4856 : 			n++;

  09d95	8b 45 fc	 mov	 eax, DWORD PTR _n$[ebp]
  09d98	83 c0 01	 add	 eax, 1
  09d9b	89 45 fc	 mov	 DWORD PTR _n$[ebp], eax

; 4857 : 			buf[n] = item[index].m_SocketOption[1];

  09d9e	8b 45 f0	 mov	 eax, DWORD PTR _index$232154[ebp]
  09da1	69 c0 d4 00 00
	00		 imul	 eax, 212		; 000000d4H
  09da7	8b 4d 08	 mov	 ecx, DWORD PTR _buf$[ebp]
  09daa	03 4d fc	 add	 ecx, DWORD PTR _n$[ebp]
  09dad	8b 55 0c	 mov	 edx, DWORD PTR _item$[ebp]
  09db0	8a 84 02 cd 00
	00 00		 mov	 al, BYTE PTR [edx+eax+205]
  09db7	88 01		 mov	 BYTE PTR [ecx], al

; 4858 : 			n++;

  09db9	8b 45 fc	 mov	 eax, DWORD PTR _n$[ebp]
  09dbc	83 c0 01	 add	 eax, 1
  09dbf	89 45 fc	 mov	 DWORD PTR _n$[ebp], eax

; 4859 : 			buf[n] = item[index].m_SocketOption[2];

  09dc2	8b 45 f0	 mov	 eax, DWORD PTR _index$232154[ebp]
  09dc5	69 c0 d4 00 00
	00		 imul	 eax, 212		; 000000d4H
  09dcb	8b 4d 08	 mov	 ecx, DWORD PTR _buf$[ebp]
  09dce	03 4d fc	 add	 ecx, DWORD PTR _n$[ebp]
  09dd1	8b 55 0c	 mov	 edx, DWORD PTR _item$[ebp]
  09dd4	8a 84 02 ce 00
	00 00		 mov	 al, BYTE PTR [edx+eax+206]
  09ddb	88 01		 mov	 BYTE PTR [ecx], al

; 4860 : 			n++;

  09ddd	8b 45 fc	 mov	 eax, DWORD PTR _n$[ebp]
  09de0	83 c0 01	 add	 eax, 1
  09de3	89 45 fc	 mov	 DWORD PTR _n$[ebp], eax

; 4861 : 			buf[n] = item[index].m_SocketOption[3];

  09de6	8b 45 f0	 mov	 eax, DWORD PTR _index$232154[ebp]
  09de9	69 c0 d4 00 00
	00		 imul	 eax, 212		; 000000d4H
  09def	8b 4d 08	 mov	 ecx, DWORD PTR _buf$[ebp]
  09df2	03 4d fc	 add	 ecx, DWORD PTR _n$[ebp]
  09df5	8b 55 0c	 mov	 edx, DWORD PTR _item$[ebp]
  09df8	8a 84 02 cf 00
	00 00		 mov	 al, BYTE PTR [edx+eax+207]
  09dff	88 01		 mov	 BYTE PTR [ecx], al

; 4862 : 			n++;

  09e01	8b 45 fc	 mov	 eax, DWORD PTR _n$[ebp]
  09e04	83 c0 01	 add	 eax, 1
  09e07	89 45 fc	 mov	 DWORD PTR _n$[ebp], eax

; 4863 : 			buf[n] = item[index].m_SocketOption[4];

  09e0a	8b 45 f0	 mov	 eax, DWORD PTR _index$232154[ebp]
  09e0d	69 c0 d4 00 00
	00		 imul	 eax, 212		; 000000d4H
  09e13	8b 4d 08	 mov	 ecx, DWORD PTR _buf$[ebp]
  09e16	03 4d fc	 add	 ecx, DWORD PTR _n$[ebp]
  09e19	8b 55 0c	 mov	 edx, DWORD PTR _item$[ebp]
  09e1c	8a 84 02 d0 00
	00 00		 mov	 al, BYTE PTR [edx+eax+208]
  09e23	88 01		 mov	 BYTE PTR [ecx], al

; 4864 : 			n++;

  09e25	8b 45 fc	 mov	 eax, DWORD PTR _n$[ebp]
  09e28	83 c0 01	 add	 eax, 1
  09e2b	89 45 fc	 mov	 DWORD PTR _n$[ebp], eax
$LN4@ItemByteCo@6:

; 4865 : 		}
; 4866 : 	}

  09e2e	e9 c6 f8 ff ff	 jmp	 $LN10@ItemByteCo@6
$LN9@ItemByteCo@6:

; 4867 : }

  09e33	5f		 pop	 edi
  09e34	5e		 pop	 esi
  09e35	5b		 pop	 ebx
  09e36	8b e5		 mov	 esp, ebp
  09e38	5d		 pop	 ebp
  09e39	c3		 ret	 0
?ItemByteConvert16@@YAXPAEQAVCItem@@H@Z ENDP		; ItemByteConvert16
_TEXT	ENDS
PUBLIC	?ItemGetNumberMake@@YAHHH@Z			; ItemGetNumberMake
; Function compile flags: /Odtp /ZI
_TEXT	SEGMENT
_make$ = -4						; size = 4
_type$ = 8						; size = 4
_index$ = 12						; size = 4
?ItemGetNumberMake@@YAHHH@Z PROC			; ItemGetNumberMake

; 4870 : {

  09e40	55		 push	 ebp
  09e41	8b ec		 mov	 ebp, esp
  09e43	83 ec 44	 sub	 esp, 68			; 00000044H
  09e46	53		 push	 ebx
  09e47	56		 push	 esi
  09e48	57		 push	 edi

; 4871 : 	int make;
; 4872 : 
; 4873 : 	make = type*MAX_SUBTYPE_ITEMS + index;

  09e49	8b 45 08	 mov	 eax, DWORD PTR _type$[ebp]
  09e4c	c1 e0 09	 shl	 eax, 9
  09e4f	03 45 0c	 add	 eax, DWORD PTR _index$[ebp]
  09e52	89 45 fc	 mov	 DWORD PTR _make$[ebp], eax

; 4874 : 
; 4875 : 	if (ItemAttribute[make].Width < 1 ||  ItemAttribute[make].Height < 1)

  09e55	8b 45 fc	 mov	 eax, DWORD PTR _make$[ebp]
  09e58	6b c0 70	 imul	 eax, 112		; 00000070H
  09e5b	0f b6 88 23 00
	00 00		 movzx	 ecx, BYTE PTR ?ItemAttribute@@3PAUITEM_ATTRIBUTE@@A[eax+35]
  09e62	83 f9 01	 cmp	 ecx, 1
  09e65	7c 12		 jl	 SHORT $LN1@ItemGetNum
  09e67	8b 45 fc	 mov	 eax, DWORD PTR _make$[ebp]
  09e6a	6b c0 70	 imul	 eax, 112		; 00000070H
  09e6d	0f b6 88 24 00
	00 00		 movzx	 ecx, BYTE PTR ?ItemAttribute@@3PAUITEM_ATTRIBUTE@@A[eax+36]
  09e74	83 f9 01	 cmp	 ecx, 1
  09e77	7d 05		 jge	 SHORT $LN2@ItemGetNum
$LN1@ItemGetNum:

; 4876 : 	{
; 4877 : 		return -1;

  09e79	83 c8 ff	 or	 eax, -1
  09e7c	eb 03		 jmp	 SHORT $LN3@ItemGetNum
$LN2@ItemGetNum:

; 4878 : 	}
; 4879 : 	return make;

  09e7e	8b 45 fc	 mov	 eax, DWORD PTR _make$[ebp]
$LN3@ItemGetNum:

; 4880 : }

  09e81	5f		 pop	 edi
  09e82	5e		 pop	 esi
  09e83	5b		 pop	 ebx
  09e84	8b e5		 mov	 esp, ebp
  09e86	5d		 pop	 ebp
  09e87	c3		 ret	 0
?ItemGetNumberMake@@YAHHH@Z ENDP			; ItemGetNumberMake
_TEXT	ENDS
PUBLIC	?ItemGetSize@@YAXHAAH0@Z			; ItemGetSize
; Function compile flags: /Odtp /ZI
_TEXT	SEGMENT
_index$ = 8						; size = 4
_width$ = 12						; size = 4
_height$ = 16						; size = 4
?ItemGetSize@@YAXHAAH0@Z PROC				; ItemGetSize

; 4883 : {

  09e90	55		 push	 ebp
  09e91	8b ec		 mov	 ebp, esp
  09e93	83 ec 40	 sub	 esp, 64			; 00000040H
  09e96	53		 push	 ebx
  09e97	56		 push	 esi
  09e98	57		 push	 edi

; 4884 : 	width = ItemAttribute[index].Width;

  09e99	8b 45 08	 mov	 eax, DWORD PTR _index$[ebp]
  09e9c	6b c0 70	 imul	 eax, 112		; 00000070H
  09e9f	0f b6 88 23 00
	00 00		 movzx	 ecx, BYTE PTR ?ItemAttribute@@3PAUITEM_ATTRIBUTE@@A[eax+35]
  09ea6	8b 55 0c	 mov	 edx, DWORD PTR _width$[ebp]
  09ea9	89 0a		 mov	 DWORD PTR [edx], ecx

; 4885 : 	height = ItemAttribute[index].Height;

  09eab	8b 45 08	 mov	 eax, DWORD PTR _index$[ebp]
  09eae	6b c0 70	 imul	 eax, 112		; 00000070H
  09eb1	0f b6 88 24 00
	00 00		 movzx	 ecx, BYTE PTR ?ItemAttribute@@3PAUITEM_ATTRIBUTE@@A[eax+36]
  09eb8	8b 55 10	 mov	 edx, DWORD PTR _height$[ebp]
  09ebb	89 0a		 mov	 DWORD PTR [edx], ecx

; 4886 : }

  09ebd	5f		 pop	 edi
  09ebe	5e		 pop	 esi
  09ebf	5b		 pop	 ebx
  09ec0	8b e5		 mov	 esp, ebp
  09ec2	5d		 pop	 ebp
  09ec3	c3		 ret	 0
?ItemGetSize@@YAXHAAH0@Z ENDP				; ItemGetSize
_TEXT	ENDS
PUBLIC	?HasItemDurability@@YAHH@Z			; HasItemDurability
; Function compile flags: /Odtp /ZI
_TEXT	SEGMENT
_index$ = 8						; size = 4
?HasItemDurability@@YAHH@Z PROC				; HasItemDurability

; 4889 : {

  09ed0	55		 push	 ebp
  09ed1	8b ec		 mov	 ebp, esp
  09ed3	83 ec 40	 sub	 esp, 64			; 00000040H
  09ed6	53		 push	 ebx
  09ed7	56		 push	 esi
  09ed8	57		 push	 edi

; 4890 : 	if ( ItemAttribute[index].Durability == 0 && ItemAttribute[index].MagicDurability == 0)

  09ed9	8b 45 08	 mov	 eax, DWORD PTR _index$[ebp]
  09edc	6b c0 70	 imul	 eax, 112		; 00000070H
  09edf	0f b6 88 30 00
	00 00		 movzx	 ecx, BYTE PTR ?ItemAttribute@@3PAUITEM_ATTRIBUTE@@A[eax+48]
  09ee6	85 c9		 test	 ecx, ecx
  09ee8	75 15		 jne	 SHORT $LN1@HasItemDur
  09eea	8b 45 08	 mov	 eax, DWORD PTR _index$[ebp]
  09eed	6b c0 70	 imul	 eax, 112		; 00000070H
  09ef0	0f b6 88 31 00
	00 00		 movzx	 ecx, BYTE PTR ?ItemAttribute@@3PAUITEM_ATTRIBUTE@@A[eax+49]
  09ef7	85 c9		 test	 ecx, ecx
  09ef9	75 04		 jne	 SHORT $LN1@HasItemDur

; 4891 : 	{
; 4892 : 		return FALSE; 

  09efb	33 c0		 xor	 eax, eax
  09efd	eb 05		 jmp	 SHORT $LN2@HasItemDur
$LN1@HasItemDur:

; 4893 : 	}
; 4894 : 	
; 4895 : 	return TRUE;

  09eff	b8 01 00 00 00	 mov	 eax, 1
$LN2@HasItemDur:

; 4896 : }

  09f04	5f		 pop	 edi
  09f05	5e		 pop	 esi
  09f06	5b		 pop	 ebx
  09f07	8b e5		 mov	 esp, ebp
  09f09	5d		 pop	 ebp
  09f0a	c3		 ret	 0
?HasItemDurability@@YAHH@Z ENDP				; HasItemDurability
; Function compile flags: /Odtp /ZI
tv192 = -72						; size = 4
tv187 = -72						; size = 4
tv182 = -72						; size = 4
tv177 = -72						; size = 4
_dur$ = -4						; size = 4
_index$ = 8						; size = 4
_itemLevel$ = 12					; size = 4
_ExcellentItem$ = 16					; size = 4
_SetItem$ = 20						; size = 4
?ItemGetDurability@@YAHHHHH@Z PROC			; ItemGetDurability

; 4899 : {

  09f10	55		 push	 ebp
  09f11	8b ec		 mov	 ebp, esp
  09f13	83 ec 48	 sub	 esp, 72			; 00000048H
  09f16	53		 push	 ebx
  09f17	56		 push	 esi
  09f18	57		 push	 edi

; 4900 : 
; 4901 : 	if ( index == ITEMGET(14,21) && itemLevel == 3 )	// Mark Lord

  09f19	81 7d 08 15 1c
	00 00		 cmp	 DWORD PTR _index$[ebp], 7189 ; 00001c15H
  09f20	75 0d		 jne	 SHORT $LN25@ItemGetDur
  09f22	83 7d 0c 03	 cmp	 DWORD PTR _itemLevel$[ebp], 3
  09f26	75 07		 jne	 SHORT $LN25@ItemGetDur

; 4902 : 		itemLevel=0;

  09f28	c7 45 0c 00 00
	00 00		 mov	 DWORD PTR _itemLevel$[ebp], 0
$LN25@ItemGetDur:

; 4903 : 	
; 4904 : 	if ( index == ITEMGET(14,29) )

  09f2f	81 7d 08 1d 1c
	00 00		 cmp	 DWORD PTR _index$[ebp], 7197 ; 00001c1dH
  09f36	75 0a		 jne	 SHORT $LN24@ItemGetDur

; 4905 : 		return 1;

  09f38	b8 01 00 00 00	 mov	 eax, 1
  09f3d	e9 b0 02 00 00	 jmp	 $LN26@ItemGetDur
$LN24@ItemGetDur:

; 4906 : 
; 4907 : 	if ( index == ITEMGET(14,100) ) //season 4.5 lucky coin add-on

  09f42	81 7d 08 64 1c
	00 00		 cmp	 DWORD PTR _index$[ebp], 7268 ; 00001c64H
  09f49	75 0a		 jne	 SHORT $LN23@ItemGetDur

; 4908 : 		return 1;

  09f4b	b8 01 00 00 00	 mov	 eax, 1
  09f50	e9 9d 02 00 00	 jmp	 $LN26@ItemGetDur
$LN23@ItemGetDur:

; 4909 : 
; 4910 : 	int dur=0;

  09f55	c7 45 fc 00 00
	00 00		 mov	 DWORD PTR _dur$[ebp], 0

; 4911 : 
; 4912 : 	if ( itemLevel < 5)

  09f5c	83 7d 0c 05	 cmp	 DWORD PTR _itemLevel$[ebp], 5
  09f60	7d 18		 jge	 SHORT $LN22@ItemGetDur

; 4913 : 	{
; 4914 : 		dur= ItemAttribute[index].Durability + itemLevel;

  09f62	8b 45 08	 mov	 eax, DWORD PTR _index$[ebp]
  09f65	6b c0 70	 imul	 eax, 112		; 00000070H
  09f68	0f b6 88 30 00
	00 00		 movzx	 ecx, BYTE PTR ?ItemAttribute@@3PAUITEM_ATTRIBUTE@@A[eax+48]
  09f6f	03 4d 0c	 add	 ecx, DWORD PTR _itemLevel$[ebp]
  09f72	89 4d fc	 mov	 DWORD PTR _dur$[ebp], ecx
  09f75	e9 d9 00 00 00	 jmp	 $LN21@ItemGetDur
$LN22@ItemGetDur:

; 4915 : 	}
; 4916 : 	else if ( itemLevel >= 5 )

  09f7a	83 7d 0c 05	 cmp	 DWORD PTR _itemLevel$[ebp], 5
  09f7e	0f 8c cf 00 00
	00		 jl	 $LN21@ItemGetDur

; 4917 : 	{
; 4918 : 		if ( itemLevel == 10 )

  09f84	83 7d 0c 0a	 cmp	 DWORD PTR _itemLevel$[ebp], 10 ; 0000000aH
  09f88	75 1c		 jne	 SHORT $LN19@ItemGetDur

; 4919 : 		{
; 4920 : 			dur=ItemAttribute[index].Durability + itemLevel*2-3;

  09f8a	8b 45 08	 mov	 eax, DWORD PTR _index$[ebp]
  09f8d	6b c0 70	 imul	 eax, 112		; 00000070H
  09f90	0f b6 88 30 00
	00 00		 movzx	 ecx, BYTE PTR ?ItemAttribute@@3PAUITEM_ATTRIBUTE@@A[eax+48]
  09f97	8b 55 0c	 mov	 edx, DWORD PTR _itemLevel$[ebp]
  09f9a	8d 44 51 fd	 lea	 eax, DWORD PTR [ecx+edx*2-3]
  09f9e	89 45 fc	 mov	 DWORD PTR _dur$[ebp], eax
  09fa1	e9 ad 00 00 00	 jmp	 $LN21@ItemGetDur
$LN19@ItemGetDur:

; 4921 : 		}
; 4922 : 		else if (itemLevel == 11 )

  09fa6	83 7d 0c 0b	 cmp	 DWORD PTR _itemLevel$[ebp], 11 ; 0000000bH
  09faa	75 1c		 jne	 SHORT $LN17@ItemGetDur

; 4923 : 		{
; 4924 : 			dur=ItemAttribute[index].Durability + itemLevel*2-1;

  09fac	8b 45 08	 mov	 eax, DWORD PTR _index$[ebp]
  09faf	6b c0 70	 imul	 eax, 112		; 00000070H
  09fb2	0f b6 88 30 00
	00 00		 movzx	 ecx, BYTE PTR ?ItemAttribute@@3PAUITEM_ATTRIBUTE@@A[eax+48]
  09fb9	8b 55 0c	 mov	 edx, DWORD PTR _itemLevel$[ebp]
  09fbc	8d 44 51 ff	 lea	 eax, DWORD PTR [ecx+edx*2-1]
  09fc0	89 45 fc	 mov	 DWORD PTR _dur$[ebp], eax
  09fc3	e9 8b 00 00 00	 jmp	 $LN21@ItemGetDur
$LN17@ItemGetDur:

; 4925 : 		}
; 4926 : 		else if (itemLevel == 12 )

  09fc8	83 7d 0c 0c	 cmp	 DWORD PTR _itemLevel$[ebp], 12 ; 0000000cH
  09fcc	75 19		 jne	 SHORT $LN15@ItemGetDur

; 4927 : 		{
; 4928 : 			dur=ItemAttribute[index].Durability + itemLevel*2+2;

  09fce	8b 45 08	 mov	 eax, DWORD PTR _index$[ebp]
  09fd1	6b c0 70	 imul	 eax, 112		; 00000070H
  09fd4	0f b6 88 30 00
	00 00		 movzx	 ecx, BYTE PTR ?ItemAttribute@@3PAUITEM_ATTRIBUTE@@A[eax+48]
  09fdb	8b 55 0c	 mov	 edx, DWORD PTR _itemLevel$[ebp]
  09fde	8d 44 51 02	 lea	 eax, DWORD PTR [ecx+edx*2+2]
  09fe2	89 45 fc	 mov	 DWORD PTR _dur$[ebp], eax
  09fe5	eb 6c		 jmp	 SHORT $LN21@ItemGetDur
$LN15@ItemGetDur:

; 4929 : 		}
; 4930 : 		else if (itemLevel == 13 )

  09fe7	83 7d 0c 0d	 cmp	 DWORD PTR _itemLevel$[ebp], 13 ; 0000000dH
  09feb	75 19		 jne	 SHORT $LN13@ItemGetDur

; 4931 : 		{
; 4932 : 			dur=ItemAttribute[index].Durability + itemLevel*2+6;

  09fed	8b 45 08	 mov	 eax, DWORD PTR _index$[ebp]
  09ff0	6b c0 70	 imul	 eax, 112		; 00000070H
  09ff3	0f b6 88 30 00
	00 00		 movzx	 ecx, BYTE PTR ?ItemAttribute@@3PAUITEM_ATTRIBUTE@@A[eax+48]
  09ffa	8b 55 0c	 mov	 edx, DWORD PTR _itemLevel$[ebp]
  09ffd	8d 44 51 06	 lea	 eax, DWORD PTR [ecx+edx*2+6]
  0a001	89 45 fc	 mov	 DWORD PTR _dur$[ebp], eax
  0a004	eb 4d		 jmp	 SHORT $LN21@ItemGetDur
$LN13@ItemGetDur:

; 4933 : 		}
; 4934 : 		else if (itemLevel == 14 )

  0a006	83 7d 0c 0e	 cmp	 DWORD PTR _itemLevel$[ebp], 14 ; 0000000eH
  0a00a	75 15		 jne	 SHORT $LN11@ItemGetDur

; 4935 : 		{
; 4936 : 			dur=ItemAttribute[index].Durability + 39;

  0a00c	8b 45 08	 mov	 eax, DWORD PTR _index$[ebp]
  0a00f	6b c0 70	 imul	 eax, 112		; 00000070H
  0a012	0f b6 88 30 00
	00 00		 movzx	 ecx, BYTE PTR ?ItemAttribute@@3PAUITEM_ATTRIBUTE@@A[eax+48]
  0a019	83 c1 27	 add	 ecx, 39			; 00000027H
  0a01c	89 4d fc	 mov	 DWORD PTR _dur$[ebp], ecx
  0a01f	eb 32		 jmp	 SHORT $LN21@ItemGetDur
$LN11@ItemGetDur:

; 4937 : 		}
; 4938 : 		else if (itemLevel == 15 )

  0a021	83 7d 0c 0f	 cmp	 DWORD PTR _itemLevel$[ebp], 15 ; 0000000fH
  0a025	75 15		 jne	 SHORT $LN9@ItemGetDur

; 4939 : 		{
; 4940 : 			dur=ItemAttribute[index].Durability + 47;

  0a027	8b 45 08	 mov	 eax, DWORD PTR _index$[ebp]
  0a02a	6b c0 70	 imul	 eax, 112		; 00000070H
  0a02d	0f b6 88 30 00
	00 00		 movzx	 ecx, BYTE PTR ?ItemAttribute@@3PAUITEM_ATTRIBUTE@@A[eax+48]
  0a034	83 c1 2f	 add	 ecx, 47			; 0000002fH
  0a037	89 4d fc	 mov	 DWORD PTR _dur$[ebp], ecx

; 4941 : 		}
; 4942 : 		else

  0a03a	eb 17		 jmp	 SHORT $LN21@ItemGetDur
$LN9@ItemGetDur:

; 4943 : 		{
; 4944 : 			dur=ItemAttribute[index].Durability + itemLevel*2-4;

  0a03c	8b 45 08	 mov	 eax, DWORD PTR _index$[ebp]
  0a03f	6b c0 70	 imul	 eax, 112		; 00000070H
  0a042	0f b6 88 30 00
	00 00		 movzx	 ecx, BYTE PTR ?ItemAttribute@@3PAUITEM_ATTRIBUTE@@A[eax+48]
  0a049	8b 55 0c	 mov	 edx, DWORD PTR _itemLevel$[ebp]
  0a04c	8d 44 51 fc	 lea	 eax, DWORD PTR [ecx+edx*2-4]
  0a050	89 45 fc	 mov	 DWORD PTR _dur$[ebp], eax
$LN21@ItemGetDur:

; 4945 : 		}
; 4946 : 	}
; 4947 : 	
; 4948 : 	if( index == ITEMGET(13,51) ) //Season 2.5 Illusion Temple Blood Scroll Ticket

  0a053	81 7d 08 33 1a
	00 00		 cmp	 DWORD PTR _index$[ebp], 6707 ; 00001a33H
  0a05a	75 07		 jne	 SHORT $LN7@ItemGetDur

; 4949 : 	{
; 4950 : 		dur = 1;

  0a05c	c7 45 fc 01 00
	00 00		 mov	 DWORD PTR _dur$[ebp], 1
$LN7@ItemGetDur:

; 4951 : 	}
; 4952 : 	
; 4953 : 	if ( (index < ITEMGET(12,3) || index > ITEMGET(12,6) ) &&
; 4954 : 		  index != ITEMGET(0,19) &&
; 4955 : 		  index != ITEMGET(4,18) &&
; 4956 : 		  index != ITEMGET(5,10) &&
; 4957 : 		  index != ITEMGET(2,13) &&
; 4958 : 		  index != ITEMGET(13,30) &&
; 4959 : 		  index != ITEMGET(12,36) &&
; 4960 : 		  index != ITEMGET(12,37) &&
; 4961 : 		  index != ITEMGET(12,38) &&
; 4962 : 		  index != ITEMGET(12,39) &&
; 4963 : 		  index != ITEMGET(12,40) &&
; 4964 : 		  index != ITEMGET(12,41) &&
; 4965 : 		  index != ITEMGET(12,42) &&
; 4966 : 		  index != ITEMGET(12,43)
; 4967 : #ifdef NEWWINGS_2_5
; 4968 : 		  && !IS_NEWWINGS_2_5(index)
; 4969 : #endif
; 4970 : #ifdef NEWWINGS_4
; 4971 : 		  && !IS_NEWWINGS_4(index)
; 4972 : #endif
; 4973 : #ifdef NEWWINGS_5
; 4974 : 		  && !IS_NEWWINGS_5(index)
; 4975 : #endif
; 4976 : #ifdef NEWWINGS_6
; 4977 : 		  && !IS_NEWWINGS_6(index)
; 4978 : #endif
; 4979 : 		  )

  0a063	81 7d 08 03 18
	00 00		 cmp	 DWORD PTR _index$[ebp], 6147 ; 00001803H
  0a06a	7c 0d		 jl	 SHORT $LN5@ItemGetDur
  0a06c	81 7d 08 06 18
	00 00		 cmp	 DWORD PTR _index$[ebp], 6150 ; 00001806H
  0a073	0f 8e 66 01 00
	00		 jle	 $LN6@ItemGetDur
$LN5@ItemGetDur:
  0a079	83 7d 08 13	 cmp	 DWORD PTR _index$[ebp], 19 ; 00000013H
  0a07d	0f 84 5c 01 00
	00		 je	 $LN6@ItemGetDur
  0a083	81 7d 08 12 08
	00 00		 cmp	 DWORD PTR _index$[ebp], 2066 ; 00000812H
  0a08a	0f 84 4f 01 00
	00		 je	 $LN6@ItemGetDur
  0a090	81 7d 08 0a 0a
	00 00		 cmp	 DWORD PTR _index$[ebp], 2570 ; 00000a0aH
  0a097	0f 84 42 01 00
	00		 je	 $LN6@ItemGetDur
  0a09d	81 7d 08 0d 04
	00 00		 cmp	 DWORD PTR _index$[ebp], 1037 ; 0000040dH
  0a0a4	0f 84 35 01 00
	00		 je	 $LN6@ItemGetDur
  0a0aa	81 7d 08 1e 1a
	00 00		 cmp	 DWORD PTR _index$[ebp], 6686 ; 00001a1eH
  0a0b1	0f 84 28 01 00
	00		 je	 $LN6@ItemGetDur
  0a0b7	81 7d 08 24 18
	00 00		 cmp	 DWORD PTR _index$[ebp], 6180 ; 00001824H
  0a0be	0f 84 1b 01 00
	00		 je	 $LN6@ItemGetDur
  0a0c4	81 7d 08 25 18
	00 00		 cmp	 DWORD PTR _index$[ebp], 6181 ; 00001825H
  0a0cb	0f 84 0e 01 00
	00		 je	 $LN6@ItemGetDur
  0a0d1	81 7d 08 26 18
	00 00		 cmp	 DWORD PTR _index$[ebp], 6182 ; 00001826H
  0a0d8	0f 84 01 01 00
	00		 je	 $LN6@ItemGetDur
  0a0de	81 7d 08 27 18
	00 00		 cmp	 DWORD PTR _index$[ebp], 6183 ; 00001827H
  0a0e5	0f 84 f4 00 00
	00		 je	 $LN6@ItemGetDur
  0a0eb	81 7d 08 28 18
	00 00		 cmp	 DWORD PTR _index$[ebp], 6184 ; 00001828H
  0a0f2	0f 84 e7 00 00
	00		 je	 $LN6@ItemGetDur
  0a0f8	81 7d 08 29 18
	00 00		 cmp	 DWORD PTR _index$[ebp], 6185 ; 00001829H
  0a0ff	0f 84 da 00 00
	00		 je	 $LN6@ItemGetDur
  0a105	81 7d 08 2a 18
	00 00		 cmp	 DWORD PTR _index$[ebp], 6186 ; 0000182aH
  0a10c	0f 84 cd 00 00
	00		 je	 $LN6@ItemGetDur
  0a112	81 7d 08 2b 18
	00 00		 cmp	 DWORD PTR _index$[ebp], 6187 ; 0000182bH
  0a119	0f 84 c0 00 00
	00		 je	 $LN6@ItemGetDur
  0a11f	81 7d 08 ba 18
	00 00		 cmp	 DWORD PTR _index$[ebp], 6330 ; 000018baH
  0a126	7d 09		 jge	 SHORT $LN28@ItemGetDur
  0a128	c7 45 b8 00 00
	00 00		 mov	 DWORD PTR tv177[ebp], 0
  0a12f	eb 0f		 jmp	 SHORT $LN29@ItemGetDur
$LN28@ItemGetDur:
  0a131	33 c0		 xor	 eax, eax
  0a133	81 7d 08 bc 18
	00 00		 cmp	 DWORD PTR _index$[ebp], 6332 ; 000018bcH
  0a13a	0f 9e c0	 setle	 al
  0a13d	89 45 b8	 mov	 DWORD PTR tv177[ebp], eax
$LN29@ItemGetDur:
  0a140	83 7d b8 00	 cmp	 DWORD PTR tv177[ebp], 0
  0a144	0f 85 95 00 00
	00		 jne	 $LN6@ItemGetDur
  0a14a	81 7d 08 b4 18
	00 00		 cmp	 DWORD PTR _index$[ebp], 6324 ; 000018b4H
  0a151	7d 09		 jge	 SHORT $LN30@ItemGetDur
  0a153	c7 45 b8 00 00
	00 00		 mov	 DWORD PTR tv182[ebp], 0
  0a15a	eb 0f		 jmp	 SHORT $LN31@ItemGetDur
$LN30@ItemGetDur:
  0a15c	33 c0		 xor	 eax, eax
  0a15e	81 7d 08 b9 18
	00 00		 cmp	 DWORD PTR _index$[ebp], 6329 ; 000018b9H
  0a165	0f 9e c0	 setle	 al
  0a168	89 45 b8	 mov	 DWORD PTR tv182[ebp], eax
$LN31@ItemGetDur:
  0a16b	83 7d b8 00	 cmp	 DWORD PTR tv182[ebp], 0
  0a16f	75 6e		 jne	 SHORT $LN6@ItemGetDur
  0a171	81 7d 08 bd 18
	00 00		 cmp	 DWORD PTR _index$[ebp], 6333 ; 000018bdH
  0a178	7d 09		 jge	 SHORT $LN32@ItemGetDur
  0a17a	c7 45 b8 00 00
	00 00		 mov	 DWORD PTR tv187[ebp], 0
  0a181	eb 0f		 jmp	 SHORT $LN33@ItemGetDur
$LN32@ItemGetDur:
  0a183	33 c0		 xor	 eax, eax
  0a185	81 7d 08 c2 18
	00 00		 cmp	 DWORD PTR _index$[ebp], 6338 ; 000018c2H
  0a18c	0f 9e c0	 setle	 al
  0a18f	89 45 b8	 mov	 DWORD PTR tv187[ebp], eax
$LN33@ItemGetDur:
  0a192	83 7d b8 00	 cmp	 DWORD PTR tv187[ebp], 0
  0a196	75 47		 jne	 SHORT $LN6@ItemGetDur
  0a198	81 7d 08 c3 18
	00 00		 cmp	 DWORD PTR _index$[ebp], 6339 ; 000018c3H
  0a19f	7d 09		 jge	 SHORT $LN34@ItemGetDur
  0a1a1	c7 45 b8 00 00
	00 00		 mov	 DWORD PTR tv192[ebp], 0
  0a1a8	eb 0f		 jmp	 SHORT $LN35@ItemGetDur
$LN34@ItemGetDur:
  0a1aa	33 c0		 xor	 eax, eax
  0a1ac	81 7d 08 dc 18
	00 00		 cmp	 DWORD PTR _index$[ebp], 6364 ; 000018dcH
  0a1b3	0f 9e c0	 setle	 al
  0a1b6	89 45 b8	 mov	 DWORD PTR tv192[ebp], eax
$LN35@ItemGetDur:
  0a1b9	83 7d b8 00	 cmp	 DWORD PTR tv192[ebp], 0
  0a1bd	75 20		 jne	 SHORT $LN6@ItemGetDur

; 4980 : 	{
; 4981 : 		if ( SetItem != 0 )

  0a1bf	83 7d 14 00	 cmp	 DWORD PTR _SetItem$[ebp], 0
  0a1c3	74 0b		 je	 SHORT $LN4@ItemGetDur

; 4982 : 			dur +=20;

  0a1c5	8b 45 fc	 mov	 eax, DWORD PTR _dur$[ebp]
  0a1c8	83 c0 14	 add	 eax, 20			; 00000014H
  0a1cb	89 45 fc	 mov	 DWORD PTR _dur$[ebp], eax
  0a1ce	eb 0f		 jmp	 SHORT $LN6@ItemGetDur
$LN4@ItemGetDur:

; 4983 : 		else if ( ExcellentItem != 0 ) // Prevent duple if items

  0a1d0	83 7d 10 00	 cmp	 DWORD PTR _ExcellentItem$[ebp], 0
  0a1d4	74 09		 je	 SHORT $LN6@ItemGetDur

; 4984 : 			dur +=15;

  0a1d6	8b 45 fc	 mov	 eax, DWORD PTR _dur$[ebp]
  0a1d9	83 c0 0f	 add	 eax, 15			; 0000000fH
  0a1dc	89 45 fc	 mov	 DWORD PTR _dur$[ebp], eax
$LN6@ItemGetDur:

; 4985 : 	}
; 4986 : 
; 4987 : 	//LogAddC(2,"Durability: %d, ExcellentItem: %d",dur, ExcellentItem);
; 4988 : 
; 4989 : 	if ( dur > 255 )

  0a1df	81 7d fc ff 00
	00 00		 cmp	 DWORD PTR _dur$[ebp], 255 ; 000000ffH
  0a1e6	7e 07		 jle	 SHORT $LN1@ItemGetDur

; 4990 : 		dur = 255;

  0a1e8	c7 45 fc ff 00
	00 00		 mov	 DWORD PTR _dur$[ebp], 255 ; 000000ffH
$LN1@ItemGetDur:

; 4991 : 
; 4992 : 	return dur;

  0a1ef	8b 45 fc	 mov	 eax, DWORD PTR _dur$[ebp]
$LN26@ItemGetDur:

; 4993 : }

  0a1f2	5f		 pop	 edi
  0a1f3	5e		 pop	 esi
  0a1f4	5b		 pop	 ebx
  0a1f5	8b e5		 mov	 esp, ebp
  0a1f7	5d		 pop	 ebp
  0a1f8	c3		 ret	 0
?ItemGetDurability@@YAHHHHH@Z ENDP			; ItemGetDurability
_TEXT	ENDS
PUBLIC	?ItemGetAttackDurability@@YAHH@Z		; ItemGetAttackDurability
; Function compile flags: /Odtp /ZI
_TEXT	SEGMENT
_index$ = 8						; size = 4
?ItemGetAttackDurability@@YAHH@Z PROC			; ItemGetAttackDurability

; 4996 : {

  0a200	55		 push	 ebp
  0a201	8b ec		 mov	 ebp, esp
  0a203	83 ec 40	 sub	 esp, 64			; 00000040H
  0a206	53		 push	 ebx
  0a207	56		 push	 esi
  0a208	57		 push	 edi

; 4997 : 	return ItemAttribute[index].AttackDur;

  0a209	8b 45 08	 mov	 eax, DWORD PTR _index$[ebp]
  0a20c	6b c0 70	 imul	 eax, 112		; 00000070H
  0a20f	0f b6 80 32 00
	00 00		 movzx	 eax, BYTE PTR ?ItemAttribute@@3PAUITEM_ATTRIBUTE@@A[eax+50]

; 4998 : }

  0a216	5f		 pop	 edi
  0a217	5e		 pop	 esi
  0a218	5b		 pop	 ebx
  0a219	8b e5		 mov	 esp, ebp
  0a21b	5d		 pop	 ebp
  0a21c	c3		 ret	 0
?ItemGetAttackDurability@@YAHH@Z ENDP			; ItemGetAttackDurability
_TEXT	ENDS
PUBLIC	?ItemGetDefenseDurability@@YAHH@Z		; ItemGetDefenseDurability
; Function compile flags: /Odtp /ZI
_TEXT	SEGMENT
_index$ = 8						; size = 4
?ItemGetDefenseDurability@@YAHH@Z PROC			; ItemGetDefenseDurability

; 5001 : {

  0a220	55		 push	 ebp
  0a221	8b ec		 mov	 ebp, esp
  0a223	83 ec 40	 sub	 esp, 64			; 00000040H
  0a226	53		 push	 ebx
  0a227	56		 push	 esi
  0a228	57		 push	 edi

; 5002 : 	return ItemAttribute[index].DefenceDur;

  0a229	8b 45 08	 mov	 eax, DWORD PTR _index$[ebp]
  0a22c	6b c0 70	 imul	 eax, 112		; 00000070H
  0a22f	0f b6 80 33 00
	00 00		 movzx	 eax, BYTE PTR ?ItemAttribute@@3PAUITEM_ATTRIBUTE@@A[eax+51]

; 5003 : }

  0a236	5f		 pop	 edi
  0a237	5e		 pop	 esi
  0a238	5b		 pop	 ebx
  0a239	8b e5		 mov	 esp, ebp
  0a23b	5d		 pop	 ebp
  0a23c	c3		 ret	 0
?ItemGetDefenseDurability@@YAHH@Z ENDP			; ItemGetDefenseDurability
_TEXT	ENDS
PUBLIC	?GetRepairItemRate@@YAMH@Z			; GetRepairItemRate
; Function compile flags: /Odtp /ZI
_TEXT	SEGMENT
_index$ = 8						; size = 4
?GetRepairItemRate@@YAMH@Z PROC				; GetRepairItemRate

; 5006 : {

  0a240	55		 push	 ebp
  0a241	8b ec		 mov	 ebp, esp
  0a243	83 ec 40	 sub	 esp, 64			; 00000040H
  0a246	53		 push	 ebx
  0a247	56		 push	 esi
  0a248	57		 push	 edi

; 5007 : 	return ItemAttribute[index].RepaireMoneyRate;

  0a249	8b 45 08	 mov	 eax, DWORD PTR _index$[ebp]
  0a24c	6b c0 70	 imul	 eax, 112		; 00000070H
  0a24f	d9 80 58 00 00
	00		 fld	 DWORD PTR ?ItemAttribute@@3PAUITEM_ATTRIBUTE@@A[eax+88]

; 5008 : }

  0a255	5f		 pop	 edi
  0a256	5e		 pop	 esi
  0a257	5b		 pop	 ebx
  0a258	8b e5		 mov	 esp, ebp
  0a25a	5d		 pop	 ebp
  0a25b	c3		 ret	 0
?GetRepairItemRate@@YAMH@Z ENDP				; GetRepairItemRate
_TEXT	ENDS
PUBLIC	?GetAllRepairItemRate@@YAMH@Z			; GetAllRepairItemRate
; Function compile flags: /Odtp /ZI
_TEXT	SEGMENT
_index$ = 8						; size = 4
?GetAllRepairItemRate@@YAMH@Z PROC			; GetAllRepairItemRate

; 5011 : {

  0a260	55		 push	 ebp
  0a261	8b ec		 mov	 ebp, esp
  0a263	83 ec 40	 sub	 esp, 64			; 00000040H
  0a266	53		 push	 ebx
  0a267	56		 push	 esi
  0a268	57		 push	 edi

; 5012 : 	return ItemAttribute[index].AllRepaireMoneyRate;

  0a269	8b 45 08	 mov	 eax, DWORD PTR _index$[ebp]
  0a26c	6b c0 70	 imul	 eax, 112		; 00000070H
  0a26f	d9 80 5c 00 00
	00		 fld	 DWORD PTR ?ItemAttribute@@3PAUITEM_ATTRIBUTE@@A[eax+92]

; 5013 : }

  0a275	5f		 pop	 edi
  0a276	5e		 pop	 esi
  0a277	5b		 pop	 ebx
  0a278	8b e5		 mov	 esp, ebp
  0a27a	5d		 pop	 ebp
  0a27b	c3		 ret	 0
?GetAllRepairItemRate@@YAMH@Z ENDP			; GetAllRepairItemRate
_TEXT	ENDS
PUBLIC	__real@3ecccccd
PUBLIC	__real@3dcccccd
PUBLIC	?CalRepairRate@@YAXHHPAUITEM_ATTRIBUTE@@@Z	; CalRepairRate
;	COMDAT __real@3ecccccd
CONST	SEGMENT
__real@3ecccccd DD 03ecccccdr			; 0.4
CONST	ENDS
;	COMDAT __real@3dcccccd
CONST	SEGMENT
__real@3dcccccd DD 03dcccccdr			; 0.1
; Function compile flags: /Odtp /ZI
CONST	ENDS
_TEXT	SEGMENT
_itemtype$ = 8						; size = 4
_itemsubtype$ = 12					; size = 4
_p$ = 16						; size = 4
?CalRepairRate@@YAXHHPAUITEM_ATTRIBUTE@@@Z PROC		; CalRepairRate

; 5016 : {

  0a280	55		 push	 ebp
  0a281	8b ec		 mov	 ebp, esp
  0a283	83 ec 40	 sub	 esp, 64			; 00000040H
  0a286	53		 push	 ebx
  0a287	56		 push	 esi
  0a288	57		 push	 edi

; 5017 : 	p->RepaireMoneyRate = (float)0.1;

  0a289	8b 45 10	 mov	 eax, DWORD PTR _p$[ebp]
  0a28c	d9 05 00 00 00
	00		 fld	 DWORD PTR __real@3dcccccd
  0a292	d9 58 58	 fstp	 DWORD PTR [eax+88]

; 5018 : 	p->AllRepaireMoneyRate = (float)0.4;

  0a295	8b 45 10	 mov	 eax, DWORD PTR _p$[ebp]
  0a298	d9 05 00 00 00
	00		 fld	 DWORD PTR __real@3ecccccd
  0a29e	d9 58 5c	 fstp	 DWORD PTR [eax+92]

; 5019 : }

  0a2a1	5f		 pop	 edi
  0a2a2	5e		 pop	 esi
  0a2a3	5b		 pop	 ebx
  0a2a4	8b e5		 mov	 esp, ebp
  0a2a6	5d		 pop	 ebp
  0a2a7	c3		 ret	 0
?CalRepairRate@@YAXHHPAUITEM_ATTRIBUTE@@@Z ENDP		; CalRepairRate
_TEXT	ENDS
PUBLIC	??_C@_0DN@NLHNDLLL@Error?5?3?5Item?5Data?5fail?4?5?$CILoopCou@ ; `string'
PUBLIC	??_C@_03JBJLGPFL@end?$AA@			; `string'
PUBLIC	??_C@_01KDCPPGHE@r?$AA@				; `string'
PUBLIC	?OpenItemScript@@YAHPAD@Z			; OpenItemScript
EXTRN	_fclose:PROC
EXTRN	?MsgBox@@YAXPADZZ:PROC				; MsgBox
EXTRN	_strcpy:PROC
EXTRN	_strcmp:PROC
EXTRN	_fopen:PROC
_BSS	SEGMENT
_TokenString DB	064H DUP (?)
_TokenNumber DD	01H DUP (?)
_SMDFile DD	01H DUP (?)
_BSS	ENDS
;	COMDAT ??_C@_0DN@NLHNDLLL@Error?5?3?5Item?5Data?5fail?4?5?$CILoopCou@
CONST	SEGMENT
??_C@_0DN@NLHNDLLL@Error?5?3?5Item?5Data?5fail?4?5?$CILoopCou@ DB 'Error '
	DB	': Item Data fail. (LoopCount:%d) Item Type:%d Index %d', 00H ; `string'
CONST	ENDS
;	COMDAT ??_C@_03JBJLGPFL@end?$AA@
CONST	SEGMENT
??_C@_03JBJLGPFL@end?$AA@ DB 'end', 00H			; `string'
CONST	ENDS
;	COMDAT ??_C@_01KDCPPGHE@r?$AA@
CONST	SEGMENT
??_C@_01KDCPPGHE@r?$AA@ DB 'r', 00H			; `string'
; Function compile flags: /Odtp /ZI
CONST	ENDS
_TEXT	SEGMENT
tv1126 = -104						; size = 4
tv1116 = -104						; size = 4
tv1106 = -104						; size = 4
tv1096 = -104						; size = 4
tv1086 = -104						; size = 4
tv1076 = -104						; size = 4
tv1066 = -104						; size = 4
tv1056 = -104						; size = 4
tv1028 = -104						; size = 4
tv1018 = -104						; size = 4
tv1008 = -104						; size = 4
tv984 = -104						; size = 4
tv974 = -104						; size = 4
tv964 = -104						; size = 4
tv954 = -104						; size = 4
tv944 = -104						; size = 4
tv934 = -104						; size = 4
tv924 = -104						; size = 4
tv913 = -104						; size = 4
tv903 = -104						; size = 4
tv886 = -104						; size = 4
tv876 = -104						; size = 4
tv866 = -104						; size = 4
tv856 = -104						; size = 4
tv846 = -104						; size = 4
tv836 = -104						; size = 4
tv826 = -104						; size = 4
tv816 = -104						; size = 4
tv806 = -104						; size = 4
tv789 = -104						; size = 4
tv779 = -104						; size = 4
tv769 = -104						; size = 4
tv759 = -104						; size = 4
tv749 = -104						; size = 4
tv739 = -104						; size = 4
tv729 = -104						; size = 4
tv719 = -104						; size = 4
tv709 = -104						; size = 4
tv699 = -104						; size = 4
tv689 = -104						; size = 4
tv679 = -104						; size = 4
tv669 = -104						; size = 4
tv659 = -104						; size = 4
tv649 = -104						; size = 4
tv627 = -104						; size = 4
tv617 = -104						; size = 4
tv607 = -104						; size = 4
tv597 = -104						; size = 4
tv587 = -104						; size = 4
tv570 = -104						; size = 4
tv560 = -104						; size = 4
tv550 = -104						; size = 4
tv540 = -104						; size = 4
tv530 = -104						; size = 4
tv520 = -104						; size = 4
tv508 = -104						; size = 4
tv498 = -104						; size = 4
tv481 = -104						; size = 4
tv471 = -104						; size = 4
tv1124 = -100						; size = 4
tv1114 = -100						; size = 4
tv1104 = -100						; size = 4
tv1094 = -100						; size = 4
tv1084 = -100						; size = 4
tv1074 = -100						; size = 4
tv1064 = -100						; size = 4
tv1054 = -100						; size = 4
tv1026 = -100						; size = 4
tv1016 = -100						; size = 4
tv1006 = -100						; size = 4
tv982 = -100						; size = 4
tv972 = -100						; size = 4
tv962 = -100						; size = 4
tv952 = -100						; size = 4
tv942 = -100						; size = 4
tv932 = -100						; size = 4
tv922 = -100						; size = 4
tv911 = -100						; size = 4
tv901 = -100						; size = 4
tv884 = -100						; size = 4
tv874 = -100						; size = 4
tv864 = -100						; size = 4
tv854 = -100						; size = 4
tv844 = -100						; size = 4
tv834 = -100						; size = 4
tv824 = -100						; size = 4
tv814 = -100						; size = 4
tv804 = -100						; size = 4
tv787 = -100						; size = 4
tv777 = -100						; size = 4
tv767 = -100						; size = 4
tv757 = -100						; size = 4
tv747 = -100						; size = 4
tv737 = -100						; size = 4
tv727 = -100						; size = 4
tv717 = -100						; size = 4
tv707 = -100						; size = 4
tv697 = -100						; size = 4
tv687 = -100						; size = 4
tv677 = -100						; size = 4
tv667 = -100						; size = 4
tv657 = -100						; size = 4
tv647 = -100						; size = 4
tv625 = -100						; size = 4
tv615 = -100						; size = 4
tv605 = -100						; size = 4
tv595 = -100						; size = 4
tv585 = -100						; size = 4
tv568 = -100						; size = 4
tv558 = -100						; size = 4
tv548 = -100						; size = 4
tv538 = -100						; size = 4
tv528 = -100						; size = 4
tv518 = -100						; size = 4
tv506 = -100						; size = 4
tv496 = -100						; size = 4
tv479 = -100						; size = 4
tv469 = -100						; size = 4
tv1121 = -94						; size = 2
tv1111 = -94						; size = 2
tv1101 = -94						; size = 2
tv1091 = -94						; size = 2
tv1081 = -94						; size = 2
tv1071 = -94						; size = 2
tv1061 = -94						; size = 2
tv1051 = -94						; size = 2
tv1023 = -94						; size = 2
tv1013 = -94						; size = 2
tv1003 = -94						; size = 2
tv979 = -94						; size = 2
tv969 = -94						; size = 2
tv959 = -94						; size = 2
tv949 = -94						; size = 2
tv939 = -94						; size = 2
tv929 = -94						; size = 2
tv919 = -94						; size = 2
tv908 = -94						; size = 2
tv898 = -94						; size = 2
tv881 = -94						; size = 2
tv871 = -94						; size = 2
tv861 = -94						; size = 2
tv851 = -94						; size = 2
tv841 = -94						; size = 2
tv831 = -94						; size = 2
tv821 = -94						; size = 2
tv811 = -94						; size = 2
tv801 = -94						; size = 2
tv784 = -94						; size = 2
tv774 = -94						; size = 2
tv764 = -94						; size = 2
tv754 = -94						; size = 2
tv744 = -94						; size = 2
tv734 = -94						; size = 2
tv724 = -94						; size = 2
tv714 = -94						; size = 2
tv704 = -94						; size = 2
tv694 = -94						; size = 2
tv684 = -94						; size = 2
tv674 = -94						; size = 2
tv664 = -94						; size = 2
tv654 = -94						; size = 2
tv644 = -94						; size = 2
tv622 = -94						; size = 2
tv612 = -94						; size = 2
tv602 = -94						; size = 2
tv592 = -94						; size = 2
tv582 = -94						; size = 2
tv565 = -94						; size = 2
tv555 = -94						; size = 2
tv545 = -94						; size = 2
tv535 = -94						; size = 2
tv525 = -94						; size = 2
tv515 = -94						; size = 2
tv503 = -94						; size = 2
tv493 = -94						; size = 2
tv476 = -94						; size = 2
tv466 = -94						; size = 2
_n$232335 = -28						; size = 4
_p$232270 = -24						; size = 4
_ItemSubType$232269 = -20				; size = 4
_ItemType$232264 = -16					; size = 4
_Token$ = -12						; size = 4
_n$ = -8						; size = 4
_loop_count$ = -4					; size = 4
_FileName$ = 8						; size = 4
?OpenItemScript@@YAHPAD@Z PROC				; OpenItemScript

; 5022 : {

  0a2b0	55		 push	 ebp
  0a2b1	8b ec		 mov	 ebp, esp
  0a2b3	83 ec 68	 sub	 esp, 104		; 00000068H
  0a2b6	53		 push	 ebx
  0a2b7	56		 push	 esi
  0a2b8	57		 push	 edi

; 5023 : 	int loop_count;
; 5024 : 	int n;
; 5025 : 	int Token;
; 5026 : 
; 5027 : 	SMDFile = fopen(FileName, "r");

  0a2b9	68 00 00 00 00	 push	 OFFSET ??_C@_01KDCPPGHE@r?$AA@
  0a2be	8b 45 08	 mov	 eax, DWORD PTR _FileName$[ebp]
  0a2c1	50		 push	 eax
  0a2c2	e8 00 00 00 00	 call	 _fopen
  0a2c7	83 c4 08	 add	 esp, 8
  0a2ca	a3 00 00 00 00	 mov	 DWORD PTR _SMDFile, eax

; 5028 : 
; 5029 : 	if ( SMDFile == 0 )

  0a2cf	83 3d 00 00 00
	00 00		 cmp	 DWORD PTR _SMDFile, 0
  0a2d6	75 07		 jne	 SHORT $LN38@OpenItemSc

; 5030 : 	{
; 5031 : 		return FALSE;

  0a2d8	33 c0		 xor	 eax, eax
  0a2da	e9 aa 0e 00 00	 jmp	 $LN39@OpenItemSc
$LN38@OpenItemSc:

; 5032 : 	}
; 5033 : 
; 5034 : 	memset ( ItemAttribute, 0, sizeof(ItemAttribute) );

  0a2df	68 00 00 0e 00	 push	 917504			; 000e0000H
  0a2e4	6a 00		 push	 0
  0a2e6	68 00 00 00 00	 push	 OFFSET ?ItemAttribute@@3PAUITEM_ATTRIBUTE@@A ; ItemAttribute
  0a2eb	e8 00 00 00 00	 call	 _memset
  0a2f0	83 c4 0c	 add	 esp, 12			; 0000000cH

; 5035 : 	
; 5036 : 	for ( n=0;n<MAX_ITEMS;n++)

  0a2f3	c7 45 f8 00 00
	00 00		 mov	 DWORD PTR _n$[ebp], 0
  0a2fa	eb 09		 jmp	 SHORT $LN37@OpenItemSc
$LN36@OpenItemSc:
  0a2fc	8b 45 f8	 mov	 eax, DWORD PTR _n$[ebp]
  0a2ff	83 c0 01	 add	 eax, 1
  0a302	89 45 f8	 mov	 DWORD PTR _n$[ebp], eax
$LN37@OpenItemSc:
  0a305	81 7d f8 00 20
	00 00		 cmp	 DWORD PTR _n$[ebp], 8192 ; 00002000H
  0a30c	7d 2b		 jge	 SHORT $LN35@OpenItemSc

; 5037 : 	{
; 5038 : 		ItemAttribute[n].Level = -1;

  0a30e	8b 45 f8	 mov	 eax, DWORD PTR _n$[ebp]
  0a311	6b c0 70	 imul	 eax, 112		; 00000070H
  0a314	c6 80 22 00 00
	00 ff		 mov	 BYTE PTR ?ItemAttribute@@3PAUITEM_ATTRIBUTE@@A[eax+34], 255 ; 000000ffH

; 5039 : 		ItemAttribute[n].RepaireMoneyRate  = 0;

  0a31b	8b 45 f8	 mov	 eax, DWORD PTR _n$[ebp]
  0a31e	6b c0 70	 imul	 eax, 112		; 00000070H
  0a321	d9 ee		 fldz
  0a323	d9 98 58 00 00
	00		 fstp	 DWORD PTR ?ItemAttribute@@3PAUITEM_ATTRIBUTE@@A[eax+88]

; 5040 : 		ItemAttribute[n].AllRepaireMoneyRate  = 0;

  0a329	8b 45 f8	 mov	 eax, DWORD PTR _n$[ebp]
  0a32c	6b c0 70	 imul	 eax, 112		; 00000070H
  0a32f	d9 ee		 fldz
  0a331	d9 98 5c 00 00
	00		 fstp	 DWORD PTR ?ItemAttribute@@3PAUITEM_ATTRIBUTE@@A[eax+92]

; 5041 : 	}

  0a337	eb c3		 jmp	 SHORT $LN36@OpenItemSc
$LN35@OpenItemSc:

; 5042 : 
; 5043 : 	
; 5044 : 	while ( true )

  0a339	b8 01 00 00 00	 mov	 eax, 1
  0a33e	85 c0		 test	 eax, eax
  0a340	0f 84 30 0e 00
	00		 je	 $LN33@OpenItemSc

; 5045 : 	{
; 5046 : 		Token = GetToken();

  0a346	e8 00 00 00 00	 call	 ?GetToken@@YA?AW4SMDToken@@XZ ; GetToken
  0a34b	89 45 f4	 mov	 DWORD PTR _Token$[ebp], eax

; 5047 : 
; 5048 : 		if ( Token == 2 )

  0a34e	83 7d f4 02	 cmp	 DWORD PTR _Token$[ebp], 2
  0a352	75 05		 jne	 SHORT $LN32@OpenItemSc

; 5049 : 		{
; 5050 : 			break;

  0a354	e9 1d 0e 00 00	 jmp	 $LN33@OpenItemSc
$LN32@OpenItemSc:

; 5051 : 		}
; 5052 : 		if ( Token == 1 )

  0a359	83 7d f4 01	 cmp	 DWORD PTR _Token$[ebp], 1
  0a35d	0f 85 0e 0e 00
	00		 jne	 $LN1@OpenItemSc

; 5053 : 		{
; 5054 : 			int ItemType;
; 5055 : 
; 5056 : 			ItemType = (int)TokenNumber;

  0a363	d9 05 00 00 00
	00		 fld	 DWORD PTR _TokenNumber
  0a369	e8 00 00 00 00	 call	 __ftol2_sse
  0a36e	89 45 f0	 mov	 DWORD PTR _ItemType$232264[ebp], eax

; 5057 : 			loop_count = 0;

  0a371	c7 45 fc 00 00
	00 00		 mov	 DWORD PTR _loop_count$[ebp], 0
$LN30@OpenItemSc:

; 5058 : 			while ( true )

  0a378	b8 01 00 00 00	 mov	 eax, 1
  0a37d	85 c0		 test	 eax, eax
  0a37f	0f 84 e1 0d 00
	00		 je	 $LN29@OpenItemSc

; 5059 : 			{
; 5060 : 				int ItemSubType;
; 5061 : 				LPITEM_ATTRIBUTE p;
; 5062 : 				
; 5063 : 				Token = GetToken();

  0a385	e8 00 00 00 00	 call	 ?GetToken@@YA?AW4SMDToken@@XZ ; GetToken
  0a38a	89 45 f4	 mov	 DWORD PTR _Token$[ebp], eax

; 5064 : 				ItemSubType = (int)TokenNumber;

  0a38d	d9 05 00 00 00
	00		 fld	 DWORD PTR _TokenNumber
  0a393	e8 00 00 00 00	 call	 __ftol2_sse
  0a398	89 45 ec	 mov	 DWORD PTR _ItemSubType$232269[ebp], eax

; 5065 : 
; 5066 : 				if ( ItemType >= 0 && ItemType < MAX_TYPE_ITEMS )

  0a39b	83 7d f0 00	 cmp	 DWORD PTR _ItemType$232264[ebp], 0
  0a39f	7c 22		 jl	 SHORT $LN27@OpenItemSc
  0a3a1	83 7d f0 10	 cmp	 DWORD PTR _ItemType$232264[ebp], 16 ; 00000010H
  0a3a5	7d 1c		 jge	 SHORT $LN27@OpenItemSc

; 5067 : 				{
; 5068 : 					if ( g_MaxItemIndexOfEachItemType[ItemType] <= ItemSubType )

  0a3a7	8b 45 f0	 mov	 eax, DWORD PTR _ItemType$232264[ebp]
  0a3aa	8b 0c 85 00 00
	00 00		 mov	 ecx, DWORD PTR ?g_MaxItemIndexOfEachItemType@@3PAHA[eax*4]
  0a3b1	3b 4d ec	 cmp	 ecx, DWORD PTR _ItemSubType$232269[ebp]
  0a3b4	7f 0d		 jg	 SHORT $LN27@OpenItemSc

; 5069 : 					{
; 5070 : 						g_MaxItemIndexOfEachItemType[ItemType] = ItemSubType;

  0a3b6	8b 45 f0	 mov	 eax, DWORD PTR _ItemType$232264[ebp]
  0a3b9	8b 4d ec	 mov	 ecx, DWORD PTR _ItemSubType$232269[ebp]
  0a3bc	89 0c 85 00 00
	00 00		 mov	 DWORD PTR ?g_MaxItemIndexOfEachItemType@@3PAHA[eax*4], ecx
$LN27@OpenItemSc:

; 5071 : 					}
; 5072 : 				}
; 5073 : 
; 5074 : 				
; 5075 : 				if ( Token == 0 )

  0a3c3	83 7d f4 00	 cmp	 DWORD PTR _Token$[ebp], 0
  0a3c7	75 1b		 jne	 SHORT $LN25@OpenItemSc

; 5076 : 				{
; 5077 : 					if ( strcmp("end", TokenString ) == 0 )

  0a3c9	68 00 00 00 00	 push	 OFFSET _TokenString
  0a3ce	68 00 00 00 00	 push	 OFFSET ??_C@_03JBJLGPFL@end?$AA@
  0a3d3	e8 00 00 00 00	 call	 _strcmp
  0a3d8	83 c4 08	 add	 esp, 8
  0a3db	85 c0		 test	 eax, eax
  0a3dd	75 05		 jne	 SHORT $LN25@OpenItemSc

; 5078 : 					{
; 5079 : 						break;

  0a3df	e9 82 0d 00 00	 jmp	 $LN29@OpenItemSc
$LN25@OpenItemSc:

; 5080 : 					}
; 5081 : 				}
; 5082 : 					
; 5083 : 				p = &ItemAttribute[ItemType*MAX_SUBTYPE_ITEMS + ItemSubType];

  0a3e4	8b 45 f0	 mov	 eax, DWORD PTR _ItemType$232264[ebp]
  0a3e7	c1 e0 09	 shl	 eax, 9
  0a3ea	03 45 ec	 add	 eax, DWORD PTR _ItemSubType$232269[ebp]
  0a3ed	6b c0 70	 imul	 eax, 112		; 00000070H
  0a3f0	05 00 00 00 00	 add	 eax, OFFSET ?ItemAttribute@@3PAUITEM_ATTRIBUTE@@A ; ItemAttribute
  0a3f5	89 45 e8	 mov	 DWORD PTR _p$232270[ebp], eax

; 5084 : 
; 5085 : 				Token = GetToken();

  0a3f8	e8 00 00 00 00	 call	 ?GetToken@@YA?AW4SMDToken@@XZ ; GetToken
  0a3fd	89 45 f4	 mov	 DWORD PTR _Token$[ebp], eax

; 5086 : 				p->ItemSlot = (int)TokenNumber;

  0a400	d9 05 00 00 00
	00		 fld	 DWORD PTR _TokenNumber
  0a406	e8 00 00 00 00	 call	 __ftol2_sse
  0a40b	8b 4d e8	 mov	 ecx, DWORD PTR _p$232270[ebp]
  0a40e	89 41 64	 mov	 DWORD PTR [ecx+100], eax

; 5087 : 
; 5088 : 				Token = GetToken();

  0a411	e8 00 00 00 00	 call	 ?GetToken@@YA?AW4SMDToken@@XZ ; GetToken
  0a416	89 45 f4	 mov	 DWORD PTR _Token$[ebp], eax

; 5089 : 				p->SkillType = (int)TokenNumber;

  0a419	d9 05 00 00 00
	00		 fld	 DWORD PTR _TokenNumber
  0a41f	e8 00 00 00 00	 call	 __ftol2_sse
  0a424	8b 4d e8	 mov	 ecx, DWORD PTR _p$232270[ebp]
  0a427	89 41 68	 mov	 DWORD PTR [ecx+104], eax

; 5090 : 
; 5091 : 				Token = GetToken();

  0a42a	e8 00 00 00 00	 call	 ?GetToken@@YA?AW4SMDToken@@XZ ; GetToken
  0a42f	89 45 f4	 mov	 DWORD PTR _Token$[ebp], eax

; 5092 : 				p->Width  = (BYTE)TokenNumber;

  0a432	d9 05 00 00 00
	00		 fld	 DWORD PTR _TokenNumber
  0a438	d9 7d a2	 fnstcw	 WORD PTR tv466[ebp]
  0a43b	0f b7 45 a2	 movzx	 eax, WORD PTR tv466[ebp]
  0a43f	0d 00 0c 00 00	 or	 eax, 3072		; 00000c00H
  0a444	89 45 9c	 mov	 DWORD PTR tv469[ebp], eax
  0a447	d9 6d 9c	 fldcw	 WORD PTR tv469[ebp]
  0a44a	db 5d 98	 fistp	 DWORD PTR tv471[ebp]
  0a44d	d9 6d a2	 fldcw	 WORD PTR tv466[ebp]
  0a450	8a 45 98	 mov	 al, BYTE PTR tv471[ebp]
  0a453	8b 4d e8	 mov	 ecx, DWORD PTR _p$232270[ebp]
  0a456	88 41 23	 mov	 BYTE PTR [ecx+35], al

; 5093 : 
; 5094 : 				Token = GetToken();

  0a459	e8 00 00 00 00	 call	 ?GetToken@@YA?AW4SMDToken@@XZ ; GetToken
  0a45e	89 45 f4	 mov	 DWORD PTR _Token$[ebp], eax

; 5095 : 				p->Height  = (BYTE)TokenNumber;

  0a461	d9 05 00 00 00
	00		 fld	 DWORD PTR _TokenNumber
  0a467	d9 7d a2	 fnstcw	 WORD PTR tv476[ebp]
  0a46a	0f b7 45 a2	 movzx	 eax, WORD PTR tv476[ebp]
  0a46e	0d 00 0c 00 00	 or	 eax, 3072		; 00000c00H
  0a473	89 45 9c	 mov	 DWORD PTR tv479[ebp], eax
  0a476	d9 6d 9c	 fldcw	 WORD PTR tv479[ebp]
  0a479	db 5d 98	 fistp	 DWORD PTR tv481[ebp]
  0a47c	d9 6d a2	 fldcw	 WORD PTR tv476[ebp]
  0a47f	8a 45 98	 mov	 al, BYTE PTR tv481[ebp]
  0a482	8b 4d e8	 mov	 ecx, DWORD PTR _p$232270[ebp]
  0a485	88 41 24	 mov	 BYTE PTR [ecx+36], al

; 5096 : 
; 5097 : 				Token = GetToken();

  0a488	e8 00 00 00 00	 call	 ?GetToken@@YA?AW4SMDToken@@XZ ; GetToken
  0a48d	89 45 f4	 mov	 DWORD PTR _Token$[ebp], eax

; 5098 : 				p->Serial = (char)TokenNumber;

  0a490	d9 05 00 00 00
	00		 fld	 DWORD PTR _TokenNumber
  0a496	e8 00 00 00 00	 call	 __ftol2_sse
  0a49b	8b 4d e8	 mov	 ecx, DWORD PTR _p$232270[ebp]
  0a49e	88 41 25	 mov	 BYTE PTR [ecx+37], al

; 5099 : 
; 5100 : 				Token = GetToken();

  0a4a1	e8 00 00 00 00	 call	 ?GetToken@@YA?AW4SMDToken@@XZ ; GetToken
  0a4a6	89 45 f4	 mov	 DWORD PTR _Token$[ebp], eax

; 5101 : 				p->OptionFlag = (BYTE)TokenNumber;

  0a4a9	d9 05 00 00 00
	00		 fld	 DWORD PTR _TokenNumber
  0a4af	d9 7d a2	 fnstcw	 WORD PTR tv493[ebp]
  0a4b2	0f b7 45 a2	 movzx	 eax, WORD PTR tv493[ebp]
  0a4b6	0d 00 0c 00 00	 or	 eax, 3072		; 00000c00H
  0a4bb	89 45 9c	 mov	 DWORD PTR tv496[ebp], eax
  0a4be	d9 6d 9c	 fldcw	 WORD PTR tv496[ebp]
  0a4c1	db 5d 98	 fistp	 DWORD PTR tv498[ebp]
  0a4c4	d9 6d a2	 fldcw	 WORD PTR tv493[ebp]
  0a4c7	8a 45 98	 mov	 al, BYTE PTR tv498[ebp]
  0a4ca	8b 4d e8	 mov	 ecx, DWORD PTR _p$232270[ebp]
  0a4cd	88 41 26	 mov	 BYTE PTR [ecx+38], al

; 5102 : 
; 5103 : 				Token = GetToken();

  0a4d0	e8 00 00 00 00	 call	 ?GetToken@@YA?AW4SMDToken@@XZ ; GetToken
  0a4d5	89 45 f4	 mov	 DWORD PTR _Token$[ebp], eax

; 5104 : 				p->MondownFlag = (BYTE)TokenNumber;

  0a4d8	d9 05 00 00 00
	00		 fld	 DWORD PTR _TokenNumber
  0a4de	d9 7d a2	 fnstcw	 WORD PTR tv503[ebp]
  0a4e1	0f b7 45 a2	 movzx	 eax, WORD PTR tv503[ebp]
  0a4e5	0d 00 0c 00 00	 or	 eax, 3072		; 00000c00H
  0a4ea	89 45 9c	 mov	 DWORD PTR tv506[ebp], eax
  0a4ed	d9 6d 9c	 fldcw	 WORD PTR tv506[ebp]
  0a4f0	db 5d 98	 fistp	 DWORD PTR tv508[ebp]
  0a4f3	d9 6d a2	 fldcw	 WORD PTR tv503[ebp]
  0a4f6	8a 45 98	 mov	 al, BYTE PTR tv508[ebp]
  0a4f9	8b 4d e8	 mov	 ecx, DWORD PTR _p$232270[ebp]
  0a4fc	88 41 27	 mov	 BYTE PTR [ecx+39], al

; 5105 : 
; 5106 : 				Token = GetToken();

  0a4ff	e8 00 00 00 00	 call	 ?GetToken@@YA?AW4SMDToken@@XZ ; GetToken
  0a504	89 45 f4	 mov	 DWORD PTR _Token$[ebp], eax

; 5107 : 				strcpy(&p->Name[0], TokenString );

  0a507	68 00 00 00 00	 push	 OFFSET _TokenString
  0a50c	8b 45 e8	 mov	 eax, DWORD PTR _p$232270[ebp]
  0a50f	50		 push	 eax
  0a510	e8 00 00 00 00	 call	 _strcpy
  0a515	83 c4 08	 add	 esp, 8

; 5108 : 
; 5109 : 				if ( ItemType >= 0 && ItemType <= 5 )

  0a518	83 7d f0 00	 cmp	 DWORD PTR _ItemType$232264[ebp], 0
  0a51c	0f 8c 74 02 00
	00		 jl	 $LN24@OpenItemSc
  0a522	83 7d f0 05	 cmp	 DWORD PTR _ItemType$232264[ebp], 5
  0a526	0f 8f 6a 02 00
	00		 jg	 $LN24@OpenItemSc

; 5110 : 				{
; 5111 : 					Token = GetToken();

  0a52c	e8 00 00 00 00	 call	 ?GetToken@@YA?AW4SMDToken@@XZ ; GetToken
  0a531	89 45 f4	 mov	 DWORD PTR _Token$[ebp], eax

; 5112 : 					p->Level = (BYTE)TokenNumber;

  0a534	d9 05 00 00 00
	00		 fld	 DWORD PTR _TokenNumber
  0a53a	d9 7d a2	 fnstcw	 WORD PTR tv515[ebp]
  0a53d	0f b7 45 a2	 movzx	 eax, WORD PTR tv515[ebp]
  0a541	0d 00 0c 00 00	 or	 eax, 3072		; 00000c00H
  0a546	89 45 9c	 mov	 DWORD PTR tv518[ebp], eax
  0a549	d9 6d 9c	 fldcw	 WORD PTR tv518[ebp]
  0a54c	db 5d 98	 fistp	 DWORD PTR tv520[ebp]
  0a54f	d9 6d a2	 fldcw	 WORD PTR tv515[ebp]
  0a552	8a 45 98	 mov	 al, BYTE PTR tv520[ebp]
  0a555	8b 4d e8	 mov	 ecx, DWORD PTR _p$232270[ebp]
  0a558	88 41 22	 mov	 BYTE PTR [ecx+34], al

; 5113 : 
; 5114 : 					Token = GetToken();

  0a55b	e8 00 00 00 00	 call	 ?GetToken@@YA?AW4SMDToken@@XZ ; GetToken
  0a560	89 45 f4	 mov	 DWORD PTR _Token$[ebp], eax

; 5115 : 					p->DamageMin = (BYTE)TokenNumber;

  0a563	d9 05 00 00 00
	00		 fld	 DWORD PTR _TokenNumber
  0a569	d9 7d a2	 fnstcw	 WORD PTR tv525[ebp]
  0a56c	0f b7 45 a2	 movzx	 eax, WORD PTR tv525[ebp]
  0a570	0d 00 0c 00 00	 or	 eax, 3072		; 00000c00H
  0a575	89 45 9c	 mov	 DWORD PTR tv528[ebp], eax
  0a578	d9 6d 9c	 fldcw	 WORD PTR tv528[ebp]
  0a57b	db 5d 98	 fistp	 DWORD PTR tv530[ebp]
  0a57e	d9 6d a2	 fldcw	 WORD PTR tv525[ebp]
  0a581	8a 45 98	 mov	 al, BYTE PTR tv530[ebp]
  0a584	8b 4d e8	 mov	 ecx, DWORD PTR _p$232270[ebp]
  0a587	88 41 2a	 mov	 BYTE PTR [ecx+42], al

; 5116 : 
; 5117 : 					Token = GetToken();

  0a58a	e8 00 00 00 00	 call	 ?GetToken@@YA?AW4SMDToken@@XZ ; GetToken
  0a58f	89 45 f4	 mov	 DWORD PTR _Token$[ebp], eax

; 5118 : 					p->DamageMax = (BYTE)TokenNumber;

  0a592	d9 05 00 00 00
	00		 fld	 DWORD PTR _TokenNumber
  0a598	d9 7d a2	 fnstcw	 WORD PTR tv535[ebp]
  0a59b	0f b7 45 a2	 movzx	 eax, WORD PTR tv535[ebp]
  0a59f	0d 00 0c 00 00	 or	 eax, 3072		; 00000c00H
  0a5a4	89 45 9c	 mov	 DWORD PTR tv538[ebp], eax
  0a5a7	d9 6d 9c	 fldcw	 WORD PTR tv538[ebp]
  0a5aa	db 5d 98	 fistp	 DWORD PTR tv540[ebp]
  0a5ad	d9 6d a2	 fldcw	 WORD PTR tv535[ebp]
  0a5b0	8a 45 98	 mov	 al, BYTE PTR tv540[ebp]
  0a5b3	8b 4d e8	 mov	 ecx, DWORD PTR _p$232270[ebp]
  0a5b6	88 41 2b	 mov	 BYTE PTR [ecx+43], al

; 5119 : 
; 5120 : 					Token = GetToken();

  0a5b9	e8 00 00 00 00	 call	 ?GetToken@@YA?AW4SMDToken@@XZ ; GetToken
  0a5be	89 45 f4	 mov	 DWORD PTR _Token$[ebp], eax

; 5121 : 					p->AttackSpeed = (BYTE)TokenNumber;

  0a5c1	d9 05 00 00 00
	00		 fld	 DWORD PTR _TokenNumber
  0a5c7	d9 7d a2	 fnstcw	 WORD PTR tv545[ebp]
  0a5ca	0f b7 45 a2	 movzx	 eax, WORD PTR tv545[ebp]
  0a5ce	0d 00 0c 00 00	 or	 eax, 3072		; 00000c00H
  0a5d3	89 45 9c	 mov	 DWORD PTR tv548[ebp], eax
  0a5d6	d9 6d 9c	 fldcw	 WORD PTR tv548[ebp]
  0a5d9	db 5d 98	 fistp	 DWORD PTR tv550[ebp]
  0a5dc	d9 6d a2	 fldcw	 WORD PTR tv545[ebp]
  0a5df	8a 45 98	 mov	 al, BYTE PTR tv550[ebp]
  0a5e2	8b 4d e8	 mov	 ecx, DWORD PTR _p$232270[ebp]
  0a5e5	88 41 28	 mov	 BYTE PTR [ecx+40], al

; 5122 : 
; 5123 : 					Token = GetToken();

  0a5e8	e8 00 00 00 00	 call	 ?GetToken@@YA?AW4SMDToken@@XZ ; GetToken
  0a5ed	89 45 f4	 mov	 DWORD PTR _Token$[ebp], eax

; 5124 : 					p->Durability = (BYTE)TokenNumber;

  0a5f0	d9 05 00 00 00
	00		 fld	 DWORD PTR _TokenNumber
  0a5f6	d9 7d a2	 fnstcw	 WORD PTR tv555[ebp]
  0a5f9	0f b7 45 a2	 movzx	 eax, WORD PTR tv555[ebp]
  0a5fd	0d 00 0c 00 00	 or	 eax, 3072		; 00000c00H
  0a602	89 45 9c	 mov	 DWORD PTR tv558[ebp], eax
  0a605	d9 6d 9c	 fldcw	 WORD PTR tv558[ebp]
  0a608	db 5d 98	 fistp	 DWORD PTR tv560[ebp]
  0a60b	d9 6d a2	 fldcw	 WORD PTR tv555[ebp]
  0a60e	8a 45 98	 mov	 al, BYTE PTR tv560[ebp]
  0a611	8b 4d e8	 mov	 ecx, DWORD PTR _p$232270[ebp]
  0a614	88 41 30	 mov	 BYTE PTR [ecx+48], al

; 5125 : 
; 5126 : 					Token = GetToken();

  0a617	e8 00 00 00 00	 call	 ?GetToken@@YA?AW4SMDToken@@XZ ; GetToken
  0a61c	89 45 f4	 mov	 DWORD PTR _Token$[ebp], eax

; 5127 : 					p->MagicDurability = (BYTE)TokenNumber;

  0a61f	d9 05 00 00 00
	00		 fld	 DWORD PTR _TokenNumber
  0a625	d9 7d a2	 fnstcw	 WORD PTR tv565[ebp]
  0a628	0f b7 45 a2	 movzx	 eax, WORD PTR tv565[ebp]
  0a62c	0d 00 0c 00 00	 or	 eax, 3072		; 00000c00H
  0a631	89 45 9c	 mov	 DWORD PTR tv568[ebp], eax
  0a634	d9 6d 9c	 fldcw	 WORD PTR tv568[ebp]
  0a637	db 5d 98	 fistp	 DWORD PTR tv570[ebp]
  0a63a	d9 6d a2	 fldcw	 WORD PTR tv565[ebp]
  0a63d	8a 45 98	 mov	 al, BYTE PTR tv570[ebp]
  0a640	8b 4d e8	 mov	 ecx, DWORD PTR _p$232270[ebp]
  0a643	88 41 31	 mov	 BYTE PTR [ecx+49], al

; 5128 : 
; 5129 : 					Token = GetToken();

  0a646	e8 00 00 00 00	 call	 ?GetToken@@YA?AW4SMDToken@@XZ ; GetToken
  0a64b	89 45 f4	 mov	 DWORD PTR _Token$[ebp], eax

; 5130 : 					p->MagicPW = (int)TokenNumber;

  0a64e	d9 05 00 00 00
	00		 fld	 DWORD PTR _TokenNumber
  0a654	e8 00 00 00 00	 call	 __ftol2_sse
  0a659	8b 4d e8	 mov	 ecx, DWORD PTR _p$232270[ebp]
  0a65c	89 41 54	 mov	 DWORD PTR [ecx+84], eax

; 5131 : 
; 5132 : 					Token = GetToken();

  0a65f	e8 00 00 00 00	 call	 ?GetToken@@YA?AW4SMDToken@@XZ ; GetToken
  0a664	89 45 f4	 mov	 DWORD PTR _Token$[ebp], eax

; 5133 : 					p->RequireLevel = (WORD)TokenNumber;

  0a667	d9 05 00 00 00
	00		 fld	 DWORD PTR _TokenNumber
  0a66d	d9 7d a2	 fnstcw	 WORD PTR tv582[ebp]
  0a670	0f b7 45 a2	 movzx	 eax, WORD PTR tv582[ebp]
  0a674	0d 00 0c 00 00	 or	 eax, 3072		; 00000c00H
  0a679	89 45 9c	 mov	 DWORD PTR tv585[ebp], eax
  0a67c	d9 6d 9c	 fldcw	 WORD PTR tv585[ebp]
  0a67f	db 5d 98	 fistp	 DWORD PTR tv587[ebp]
  0a682	d9 6d a2	 fldcw	 WORD PTR tv582[ebp]
  0a685	66 8b 45 98	 mov	 ax, WORD PTR tv587[ebp]
  0a689	8b 4d e8	 mov	 ecx, DWORD PTR _p$232270[ebp]
  0a68c	66 89 41 3a	 mov	 WORD PTR [ecx+58], ax

; 5134 : 
; 5135 : 					Token = GetToken();

  0a690	e8 00 00 00 00	 call	 ?GetToken@@YA?AW4SMDToken@@XZ ; GetToken
  0a695	89 45 f4	 mov	 DWORD PTR _Token$[ebp], eax

; 5136 : 					p->RequireStrength = (WORD)TokenNumber;

  0a698	d9 05 00 00 00
	00		 fld	 DWORD PTR _TokenNumber
  0a69e	d9 7d a2	 fnstcw	 WORD PTR tv592[ebp]
  0a6a1	0f b7 45 a2	 movzx	 eax, WORD PTR tv592[ebp]
  0a6a5	0d 00 0c 00 00	 or	 eax, 3072		; 00000c00H
  0a6aa	89 45 9c	 mov	 DWORD PTR tv595[ebp], eax
  0a6ad	d9 6d 9c	 fldcw	 WORD PTR tv595[ebp]
  0a6b0	db 5d 98	 fistp	 DWORD PTR tv597[ebp]
  0a6b3	d9 6d a2	 fldcw	 WORD PTR tv592[ebp]
  0a6b6	66 8b 45 98	 mov	 ax, WORD PTR tv597[ebp]
  0a6ba	8b 4d e8	 mov	 ecx, DWORD PTR _p$232270[ebp]
  0a6bd	66 89 41 34	 mov	 WORD PTR [ecx+52], ax

; 5137 : 
; 5138 : 					Token = GetToken();

  0a6c1	e8 00 00 00 00	 call	 ?GetToken@@YA?AW4SMDToken@@XZ ; GetToken
  0a6c6	89 45 f4	 mov	 DWORD PTR _Token$[ebp], eax

; 5139 : 					p->RequireDexterity = (WORD)TokenNumber;

  0a6c9	d9 05 00 00 00
	00		 fld	 DWORD PTR _TokenNumber
  0a6cf	d9 7d a2	 fnstcw	 WORD PTR tv602[ebp]
  0a6d2	0f b7 45 a2	 movzx	 eax, WORD PTR tv602[ebp]
  0a6d6	0d 00 0c 00 00	 or	 eax, 3072		; 00000c00H
  0a6db	89 45 9c	 mov	 DWORD PTR tv605[ebp], eax
  0a6de	d9 6d 9c	 fldcw	 WORD PTR tv605[ebp]
  0a6e1	db 5d 98	 fistp	 DWORD PTR tv607[ebp]
  0a6e4	d9 6d a2	 fldcw	 WORD PTR tv602[ebp]
  0a6e7	66 8b 45 98	 mov	 ax, WORD PTR tv607[ebp]
  0a6eb	8b 4d e8	 mov	 ecx, DWORD PTR _p$232270[ebp]
  0a6ee	66 89 41 36	 mov	 WORD PTR [ecx+54], ax

; 5140 : 
; 5141 : 					Token = GetToken();

  0a6f2	e8 00 00 00 00	 call	 ?GetToken@@YA?AW4SMDToken@@XZ ; GetToken
  0a6f7	89 45 f4	 mov	 DWORD PTR _Token$[ebp], eax

; 5142 : 					p->RequireEnergy = (WORD)TokenNumber;

  0a6fa	d9 05 00 00 00
	00		 fld	 DWORD PTR _TokenNumber
  0a700	d9 7d a2	 fnstcw	 WORD PTR tv612[ebp]
  0a703	0f b7 45 a2	 movzx	 eax, WORD PTR tv612[ebp]
  0a707	0d 00 0c 00 00	 or	 eax, 3072		; 00000c00H
  0a70c	89 45 9c	 mov	 DWORD PTR tv615[ebp], eax
  0a70f	d9 6d 9c	 fldcw	 WORD PTR tv615[ebp]
  0a712	db 5d 98	 fistp	 DWORD PTR tv617[ebp]
  0a715	d9 6d a2	 fldcw	 WORD PTR tv612[ebp]
  0a718	66 8b 45 98	 mov	 ax, WORD PTR tv617[ebp]
  0a71c	8b 4d e8	 mov	 ecx, DWORD PTR _p$232270[ebp]
  0a71f	66 89 41 38	 mov	 WORD PTR [ecx+56], ax

; 5143 : 
; 5144 : 					Token = GetToken();

  0a723	e8 00 00 00 00	 call	 ?GetToken@@YA?AW4SMDToken@@XZ ; GetToken
  0a728	89 45 f4	 mov	 DWORD PTR _Token$[ebp], eax

; 5145 : 					p->RequireVitality = (WORD)TokenNumber;

  0a72b	d9 05 00 00 00
	00		 fld	 DWORD PTR _TokenNumber
  0a731	d9 7d a2	 fnstcw	 WORD PTR tv622[ebp]
  0a734	0f b7 45 a2	 movzx	 eax, WORD PTR tv622[ebp]
  0a738	0d 00 0c 00 00	 or	 eax, 3072		; 00000c00H
  0a73d	89 45 9c	 mov	 DWORD PTR tv625[ebp], eax
  0a740	d9 6d 9c	 fldcw	 WORD PTR tv625[ebp]
  0a743	db 5d 98	 fistp	 DWORD PTR tv627[ebp]
  0a746	d9 6d a2	 fldcw	 WORD PTR tv622[ebp]
  0a749	66 8b 45 98	 mov	 ax, WORD PTR tv627[ebp]
  0a74d	8b 4d e8	 mov	 ecx, DWORD PTR _p$232270[ebp]
  0a750	66 89 41 4c	 mov	 WORD PTR [ecx+76], ax

; 5146 : 
; 5147 : 					Token = GetToken();

  0a754	e8 00 00 00 00	 call	 ?GetToken@@YA?AW4SMDToken@@XZ ; GetToken
  0a759	89 45 f4	 mov	 DWORD PTR _Token$[ebp], eax

; 5148 : 					p->RequireLeadership = (int)TokenNumber;

  0a75c	d9 05 00 00 00
	00		 fld	 DWORD PTR _TokenNumber
  0a762	e8 00 00 00 00	 call	 __ftol2_sse
  0a767	8b 4d e8	 mov	 ecx, DWORD PTR _p$232270[ebp]
  0a76a	89 41 6c	 mov	 DWORD PTR [ecx+108], eax

; 5149 : 
; 5150 : 					if ( p->Width  >= 2)

  0a76d	8b 45 e8	 mov	 eax, DWORD PTR _p$232270[ebp]
  0a770	0f b6 48 23	 movzx	 ecx, BYTE PTR [eax+35]
  0a774	83 f9 02	 cmp	 ecx, 2
  0a777	7c 07		 jl	 SHORT $LN23@OpenItemSc

; 5151 : 					{
; 5152 : 						p->TwoHand = TRUE;

  0a779	8b 45 e8	 mov	 eax, DWORD PTR _p$232270[ebp]
  0a77c	c6 40 21 01	 mov	 BYTE PTR [eax+33], 1
$LN23@OpenItemSc:

; 5153 : 					}
; 5154 : 
; 5155 : 					(BYTE)p->Durability += (BYTE)p->MagicDurability;

  0a780	8b 45 e8	 mov	 eax, DWORD PTR _p$232270[ebp]
  0a783	0f b6 48 31	 movzx	 ecx, BYTE PTR [eax+49]
  0a787	8b 55 e8	 mov	 edx, DWORD PTR _p$232270[ebp]
  0a78a	0f b6 42 30	 movzx	 eax, BYTE PTR [edx+48]
  0a78e	03 c1		 add	 eax, ecx
  0a790	8b 4d e8	 mov	 ecx, DWORD PTR _p$232270[ebp]
  0a793	88 41 30	 mov	 BYTE PTR [ecx+48], al
$LN24@OpenItemSc:

; 5156 : 				}
; 5157 : 
; 5158 : 				if ( ItemType >= 6 && ItemType <= 11 )

  0a796	83 7d f0 06	 cmp	 DWORD PTR _ItemType$232264[ebp], 6
  0a79a	0f 8c 18 03 00
	00		 jl	 $LN22@OpenItemSc
  0a7a0	83 7d f0 0b	 cmp	 DWORD PTR _ItemType$232264[ebp], 11 ; 0000000bH
  0a7a4	0f 8f 0e 03 00
	00		 jg	 $LN22@OpenItemSc

; 5159 : 				{
; 5160 : 					Token = GetToken();

  0a7aa	e8 00 00 00 00	 call	 ?GetToken@@YA?AW4SMDToken@@XZ ; GetToken
  0a7af	89 45 f4	 mov	 DWORD PTR _Token$[ebp], eax

; 5161 : 					p->Level = (BYTE)TokenNumber;

  0a7b2	d9 05 00 00 00
	00		 fld	 DWORD PTR _TokenNumber
  0a7b8	d9 7d a2	 fnstcw	 WORD PTR tv644[ebp]
  0a7bb	0f b7 45 a2	 movzx	 eax, WORD PTR tv644[ebp]
  0a7bf	0d 00 0c 00 00	 or	 eax, 3072		; 00000c00H
  0a7c4	89 45 9c	 mov	 DWORD PTR tv647[ebp], eax
  0a7c7	d9 6d 9c	 fldcw	 WORD PTR tv647[ebp]
  0a7ca	db 5d 98	 fistp	 DWORD PTR tv649[ebp]
  0a7cd	d9 6d a2	 fldcw	 WORD PTR tv644[ebp]
  0a7d0	8a 45 98	 mov	 al, BYTE PTR tv649[ebp]
  0a7d3	8b 4d e8	 mov	 ecx, DWORD PTR _p$232270[ebp]
  0a7d6	88 41 22	 mov	 BYTE PTR [ecx+34], al

; 5162 : 					
; 5163 : 					if ( ItemType == 6 )

  0a7d9	83 7d f0 06	 cmp	 DWORD PTR _ItemType$232264[ebp], 6
  0a7dd	75 63		 jne	 SHORT $LN21@OpenItemSc

; 5164 : 					{
; 5165 : 
; 5166 : 						Token = GetToken();

  0a7df	e8 00 00 00 00	 call	 ?GetToken@@YA?AW4SMDToken@@XZ ; GetToken
  0a7e4	89 45 f4	 mov	 DWORD PTR _Token$[ebp], eax

; 5167 : 						p->Defense = (BYTE)TokenNumber;

  0a7e7	d9 05 00 00 00
	00		 fld	 DWORD PTR _TokenNumber
  0a7ed	d9 7d a2	 fnstcw	 WORD PTR tv654[ebp]
  0a7f0	0f b7 45 a2	 movzx	 eax, WORD PTR tv654[ebp]
  0a7f4	0d 00 0c 00 00	 or	 eax, 3072		; 00000c00H
  0a7f9	89 45 9c	 mov	 DWORD PTR tv657[ebp], eax
  0a7fc	d9 6d 9c	 fldcw	 WORD PTR tv657[ebp]
  0a7ff	db 5d 98	 fistp	 DWORD PTR tv659[ebp]
  0a802	d9 6d a2	 fldcw	 WORD PTR tv654[ebp]
  0a805	8a 45 98	 mov	 al, BYTE PTR tv659[ebp]
  0a808	8b 4d e8	 mov	 ecx, DWORD PTR _p$232270[ebp]
  0a80b	88 41 2d	 mov	 BYTE PTR [ecx+45], al

; 5168 : 
; 5169 : 						Token = GetToken();

  0a80e	e8 00 00 00 00	 call	 ?GetToken@@YA?AW4SMDToken@@XZ ; GetToken
  0a813	89 45 f4	 mov	 DWORD PTR _Token$[ebp], eax

; 5170 : 						p->SuccessfulBlocking  = (BYTE)TokenNumber;

  0a816	d9 05 00 00 00
	00		 fld	 DWORD PTR _TokenNumber
  0a81c	d9 7d a2	 fnstcw	 WORD PTR tv664[ebp]
  0a81f	0f b7 45 a2	 movzx	 eax, WORD PTR tv664[ebp]
  0a823	0d 00 0c 00 00	 or	 eax, 3072		; 00000c00H
  0a828	89 45 9c	 mov	 DWORD PTR tv667[ebp], eax
  0a82b	d9 6d 9c	 fldcw	 WORD PTR tv667[ebp]
  0a82e	db 5d 98	 fistp	 DWORD PTR tv669[ebp]
  0a831	d9 6d a2	 fldcw	 WORD PTR tv664[ebp]
  0a834	8a 45 98	 mov	 al, BYTE PTR tv669[ebp]
  0a837	8b 4d e8	 mov	 ecx, DWORD PTR _p$232270[ebp]
  0a83a	88 41 2c	 mov	 BYTE PTR [ecx+44], al
  0a83d	e9 39 01 00 00	 jmp	 $LN15@OpenItemSc
$LN21@OpenItemSc:

; 5171 : 
; 5172 : 					}
; 5173 : 					else if ( ItemType >= 7 && ItemType <= 9 )

  0a842	83 7d f0 07	 cmp	 DWORD PTR _ItemType$232264[ebp], 7
  0a846	7c 69		 jl	 SHORT $LN19@OpenItemSc
  0a848	83 7d f0 09	 cmp	 DWORD PTR _ItemType$232264[ebp], 9
  0a84c	7f 63		 jg	 SHORT $LN19@OpenItemSc

; 5174 : 					{
; 5175 : 
; 5176 : 						Token = GetToken();

  0a84e	e8 00 00 00 00	 call	 ?GetToken@@YA?AW4SMDToken@@XZ ; GetToken
  0a853	89 45 f4	 mov	 DWORD PTR _Token$[ebp], eax

; 5177 : 						p->Defense  = (BYTE)TokenNumber;

  0a856	d9 05 00 00 00
	00		 fld	 DWORD PTR _TokenNumber
  0a85c	d9 7d a2	 fnstcw	 WORD PTR tv674[ebp]
  0a85f	0f b7 45 a2	 movzx	 eax, WORD PTR tv674[ebp]
  0a863	0d 00 0c 00 00	 or	 eax, 3072		; 00000c00H
  0a868	89 45 9c	 mov	 DWORD PTR tv677[ebp], eax
  0a86b	d9 6d 9c	 fldcw	 WORD PTR tv677[ebp]
  0a86e	db 5d 98	 fistp	 DWORD PTR tv679[ebp]
  0a871	d9 6d a2	 fldcw	 WORD PTR tv674[ebp]
  0a874	8a 45 98	 mov	 al, BYTE PTR tv679[ebp]
  0a877	8b 4d e8	 mov	 ecx, DWORD PTR _p$232270[ebp]
  0a87a	88 41 2d	 mov	 BYTE PTR [ecx+45], al

; 5178 : 
; 5179 : 						Token = GetToken();

  0a87d	e8 00 00 00 00	 call	 ?GetToken@@YA?AW4SMDToken@@XZ ; GetToken
  0a882	89 45 f4	 mov	 DWORD PTR _Token$[ebp], eax

; 5180 : 						p->MagicDefense = (BYTE)TokenNumber;

  0a885	d9 05 00 00 00
	00		 fld	 DWORD PTR _TokenNumber
  0a88b	d9 7d a2	 fnstcw	 WORD PTR tv684[ebp]
  0a88e	0f b7 45 a2	 movzx	 eax, WORD PTR tv684[ebp]
  0a892	0d 00 0c 00 00	 or	 eax, 3072		; 00000c00H
  0a897	89 45 9c	 mov	 DWORD PTR tv687[ebp], eax
  0a89a	d9 6d 9c	 fldcw	 WORD PTR tv687[ebp]
  0a89d	db 5d 98	 fistp	 DWORD PTR tv689[ebp]
  0a8a0	d9 6d a2	 fldcw	 WORD PTR tv684[ebp]
  0a8a3	8a 45 98	 mov	 al, BYTE PTR tv689[ebp]
  0a8a6	8b 4d e8	 mov	 ecx, DWORD PTR _p$232270[ebp]
  0a8a9	88 41 2e	 mov	 BYTE PTR [ecx+46], al
  0a8ac	e9 ca 00 00 00	 jmp	 $LN15@OpenItemSc
$LN19@OpenItemSc:

; 5181 : 					}
; 5182 : 					else if ( ItemType == 10 )

  0a8b1	83 7d f0 0a	 cmp	 DWORD PTR _ItemType$232264[ebp], 10 ; 0000000aH
  0a8b5	75 60		 jne	 SHORT $LN17@OpenItemSc

; 5183 : 					{
; 5184 : 						Token = GetToken();

  0a8b7	e8 00 00 00 00	 call	 ?GetToken@@YA?AW4SMDToken@@XZ ; GetToken
  0a8bc	89 45 f4	 mov	 DWORD PTR _Token$[ebp], eax

; 5185 : 						p->Defense = (BYTE)TokenNumber;

  0a8bf	d9 05 00 00 00
	00		 fld	 DWORD PTR _TokenNumber
  0a8c5	d9 7d a2	 fnstcw	 WORD PTR tv694[ebp]
  0a8c8	0f b7 45 a2	 movzx	 eax, WORD PTR tv694[ebp]
  0a8cc	0d 00 0c 00 00	 or	 eax, 3072		; 00000c00H
  0a8d1	89 45 9c	 mov	 DWORD PTR tv697[ebp], eax
  0a8d4	d9 6d 9c	 fldcw	 WORD PTR tv697[ebp]
  0a8d7	db 5d 98	 fistp	 DWORD PTR tv699[ebp]
  0a8da	d9 6d a2	 fldcw	 WORD PTR tv694[ebp]
  0a8dd	8a 45 98	 mov	 al, BYTE PTR tv699[ebp]
  0a8e0	8b 4d e8	 mov	 ecx, DWORD PTR _p$232270[ebp]
  0a8e3	88 41 2d	 mov	 BYTE PTR [ecx+45], al

; 5186 : 
; 5187 : 						Token = GetToken();

  0a8e6	e8 00 00 00 00	 call	 ?GetToken@@YA?AW4SMDToken@@XZ ; GetToken
  0a8eb	89 45 f4	 mov	 DWORD PTR _Token$[ebp], eax

; 5188 : 						p->AttackSpeed = (BYTE)TokenNumber;

  0a8ee	d9 05 00 00 00
	00		 fld	 DWORD PTR _TokenNumber
  0a8f4	d9 7d a2	 fnstcw	 WORD PTR tv704[ebp]
  0a8f7	0f b7 45 a2	 movzx	 eax, WORD PTR tv704[ebp]
  0a8fb	0d 00 0c 00 00	 or	 eax, 3072		; 00000c00H
  0a900	89 45 9c	 mov	 DWORD PTR tv707[ebp], eax
  0a903	d9 6d 9c	 fldcw	 WORD PTR tv707[ebp]
  0a906	db 5d 98	 fistp	 DWORD PTR tv709[ebp]
  0a909	d9 6d a2	 fldcw	 WORD PTR tv704[ebp]
  0a90c	8a 45 98	 mov	 al, BYTE PTR tv709[ebp]
  0a90f	8b 4d e8	 mov	 ecx, DWORD PTR _p$232270[ebp]
  0a912	88 41 28	 mov	 BYTE PTR [ecx+40], al
  0a915	eb 64		 jmp	 SHORT $LN15@OpenItemSc
$LN17@OpenItemSc:

; 5189 : 					}
; 5190 : 					else if ( ItemType == 11 )

  0a917	83 7d f0 0b	 cmp	 DWORD PTR _ItemType$232264[ebp], 11 ; 0000000bH
  0a91b	75 5e		 jne	 SHORT $LN15@OpenItemSc

; 5191 : 					{
; 5192 : 						Token = GetToken();

  0a91d	e8 00 00 00 00	 call	 ?GetToken@@YA?AW4SMDToken@@XZ ; GetToken
  0a922	89 45 f4	 mov	 DWORD PTR _Token$[ebp], eax

; 5193 : 						p->Defense  = (BYTE)TokenNumber;

  0a925	d9 05 00 00 00
	00		 fld	 DWORD PTR _TokenNumber
  0a92b	d9 7d a2	 fnstcw	 WORD PTR tv714[ebp]
  0a92e	0f b7 45 a2	 movzx	 eax, WORD PTR tv714[ebp]
  0a932	0d 00 0c 00 00	 or	 eax, 3072		; 00000c00H
  0a937	89 45 9c	 mov	 DWORD PTR tv717[ebp], eax
  0a93a	d9 6d 9c	 fldcw	 WORD PTR tv717[ebp]
  0a93d	db 5d 98	 fistp	 DWORD PTR tv719[ebp]
  0a940	d9 6d a2	 fldcw	 WORD PTR tv714[ebp]
  0a943	8a 45 98	 mov	 al, BYTE PTR tv719[ebp]
  0a946	8b 4d e8	 mov	 ecx, DWORD PTR _p$232270[ebp]
  0a949	88 41 2d	 mov	 BYTE PTR [ecx+45], al

; 5194 : 
; 5195 : 						Token = GetToken();

  0a94c	e8 00 00 00 00	 call	 ?GetToken@@YA?AW4SMDToken@@XZ ; GetToken
  0a951	89 45 f4	 mov	 DWORD PTR _Token$[ebp], eax

; 5196 : 						p->WalkSpeed = (BYTE)TokenNumber;

  0a954	d9 05 00 00 00
	00		 fld	 DWORD PTR _TokenNumber
  0a95a	d9 7d a2	 fnstcw	 WORD PTR tv724[ebp]
  0a95d	0f b7 45 a2	 movzx	 eax, WORD PTR tv724[ebp]
  0a961	0d 00 0c 00 00	 or	 eax, 3072		; 00000c00H
  0a966	89 45 9c	 mov	 DWORD PTR tv727[ebp], eax
  0a969	d9 6d 9c	 fldcw	 WORD PTR tv727[ebp]
  0a96c	db 5d 98	 fistp	 DWORD PTR tv729[ebp]
  0a96f	d9 6d a2	 fldcw	 WORD PTR tv724[ebp]
  0a972	8a 45 98	 mov	 al, BYTE PTR tv729[ebp]
  0a975	8b 4d e8	 mov	 ecx, DWORD PTR _p$232270[ebp]
  0a978	88 41 29	 mov	 BYTE PTR [ecx+41], al
$LN15@OpenItemSc:

; 5197 : 					}
; 5198 : 					
; 5199 : 					Token = GetToken();

  0a97b	e8 00 00 00 00	 call	 ?GetToken@@YA?AW4SMDToken@@XZ ; GetToken
  0a980	89 45 f4	 mov	 DWORD PTR _Token$[ebp], eax

; 5200 : 					p->Durability = (BYTE)TokenNumber;

  0a983	d9 05 00 00 00
	00		 fld	 DWORD PTR _TokenNumber
  0a989	d9 7d a2	 fnstcw	 WORD PTR tv734[ebp]
  0a98c	0f b7 45 a2	 movzx	 eax, WORD PTR tv734[ebp]
  0a990	0d 00 0c 00 00	 or	 eax, 3072		; 00000c00H
  0a995	89 45 9c	 mov	 DWORD PTR tv737[ebp], eax
  0a998	d9 6d 9c	 fldcw	 WORD PTR tv737[ebp]
  0a99b	db 5d 98	 fistp	 DWORD PTR tv739[ebp]
  0a99e	d9 6d a2	 fldcw	 WORD PTR tv734[ebp]
  0a9a1	8a 45 98	 mov	 al, BYTE PTR tv739[ebp]
  0a9a4	8b 4d e8	 mov	 ecx, DWORD PTR _p$232270[ebp]
  0a9a7	88 41 30	 mov	 BYTE PTR [ecx+48], al

; 5201 : 
; 5202 : 					Token = GetToken();

  0a9aa	e8 00 00 00 00	 call	 ?GetToken@@YA?AW4SMDToken@@XZ ; GetToken
  0a9af	89 45 f4	 mov	 DWORD PTR _Token$[ebp], eax

; 5203 : 					p->RequireLevel = (WORD)TokenNumber;

  0a9b2	d9 05 00 00 00
	00		 fld	 DWORD PTR _TokenNumber
  0a9b8	d9 7d a2	 fnstcw	 WORD PTR tv744[ebp]
  0a9bb	0f b7 45 a2	 movzx	 eax, WORD PTR tv744[ebp]
  0a9bf	0d 00 0c 00 00	 or	 eax, 3072		; 00000c00H
  0a9c4	89 45 9c	 mov	 DWORD PTR tv747[ebp], eax
  0a9c7	d9 6d 9c	 fldcw	 WORD PTR tv747[ebp]
  0a9ca	db 5d 98	 fistp	 DWORD PTR tv749[ebp]
  0a9cd	d9 6d a2	 fldcw	 WORD PTR tv744[ebp]
  0a9d0	66 8b 45 98	 mov	 ax, WORD PTR tv749[ebp]
  0a9d4	8b 4d e8	 mov	 ecx, DWORD PTR _p$232270[ebp]
  0a9d7	66 89 41 3a	 mov	 WORD PTR [ecx+58], ax

; 5204 : 
; 5205 : 					Token = GetToken();

  0a9db	e8 00 00 00 00	 call	 ?GetToken@@YA?AW4SMDToken@@XZ ; GetToken
  0a9e0	89 45 f4	 mov	 DWORD PTR _Token$[ebp], eax

; 5206 : 					p->RequireStrength = (WORD)TokenNumber;

  0a9e3	d9 05 00 00 00
	00		 fld	 DWORD PTR _TokenNumber
  0a9e9	d9 7d a2	 fnstcw	 WORD PTR tv754[ebp]
  0a9ec	0f b7 45 a2	 movzx	 eax, WORD PTR tv754[ebp]
  0a9f0	0d 00 0c 00 00	 or	 eax, 3072		; 00000c00H
  0a9f5	89 45 9c	 mov	 DWORD PTR tv757[ebp], eax
  0a9f8	d9 6d 9c	 fldcw	 WORD PTR tv757[ebp]
  0a9fb	db 5d 98	 fistp	 DWORD PTR tv759[ebp]
  0a9fe	d9 6d a2	 fldcw	 WORD PTR tv754[ebp]
  0aa01	66 8b 45 98	 mov	 ax, WORD PTR tv759[ebp]
  0aa05	8b 4d e8	 mov	 ecx, DWORD PTR _p$232270[ebp]
  0aa08	66 89 41 34	 mov	 WORD PTR [ecx+52], ax

; 5207 : 
; 5208 : 					Token = GetToken();

  0aa0c	e8 00 00 00 00	 call	 ?GetToken@@YA?AW4SMDToken@@XZ ; GetToken
  0aa11	89 45 f4	 mov	 DWORD PTR _Token$[ebp], eax

; 5209 : 					p->RequireDexterity = (WORD)TokenNumber;

  0aa14	d9 05 00 00 00
	00		 fld	 DWORD PTR _TokenNumber
  0aa1a	d9 7d a2	 fnstcw	 WORD PTR tv764[ebp]
  0aa1d	0f b7 45 a2	 movzx	 eax, WORD PTR tv764[ebp]
  0aa21	0d 00 0c 00 00	 or	 eax, 3072		; 00000c00H
  0aa26	89 45 9c	 mov	 DWORD PTR tv767[ebp], eax
  0aa29	d9 6d 9c	 fldcw	 WORD PTR tv767[ebp]
  0aa2c	db 5d 98	 fistp	 DWORD PTR tv769[ebp]
  0aa2f	d9 6d a2	 fldcw	 WORD PTR tv764[ebp]
  0aa32	66 8b 45 98	 mov	 ax, WORD PTR tv769[ebp]
  0aa36	8b 4d e8	 mov	 ecx, DWORD PTR _p$232270[ebp]
  0aa39	66 89 41 36	 mov	 WORD PTR [ecx+54], ax

; 5210 : 
; 5211 : 					Token = GetToken();

  0aa3d	e8 00 00 00 00	 call	 ?GetToken@@YA?AW4SMDToken@@XZ ; GetToken
  0aa42	89 45 f4	 mov	 DWORD PTR _Token$[ebp], eax

; 5212 : 					p->RequireEnergy = (WORD)TokenNumber;

  0aa45	d9 05 00 00 00
	00		 fld	 DWORD PTR _TokenNumber
  0aa4b	d9 7d a2	 fnstcw	 WORD PTR tv774[ebp]
  0aa4e	0f b7 45 a2	 movzx	 eax, WORD PTR tv774[ebp]
  0aa52	0d 00 0c 00 00	 or	 eax, 3072		; 00000c00H
  0aa57	89 45 9c	 mov	 DWORD PTR tv777[ebp], eax
  0aa5a	d9 6d 9c	 fldcw	 WORD PTR tv777[ebp]
  0aa5d	db 5d 98	 fistp	 DWORD PTR tv779[ebp]
  0aa60	d9 6d a2	 fldcw	 WORD PTR tv774[ebp]
  0aa63	66 8b 45 98	 mov	 ax, WORD PTR tv779[ebp]
  0aa67	8b 4d e8	 mov	 ecx, DWORD PTR _p$232270[ebp]
  0aa6a	66 89 41 38	 mov	 WORD PTR [ecx+56], ax

; 5213 : 
; 5214 : 					Token = GetToken();

  0aa6e	e8 00 00 00 00	 call	 ?GetToken@@YA?AW4SMDToken@@XZ ; GetToken
  0aa73	89 45 f4	 mov	 DWORD PTR _Token$[ebp], eax

; 5215 : 					p->RequireVitality = (WORD)TokenNumber;

  0aa76	d9 05 00 00 00
	00		 fld	 DWORD PTR _TokenNumber
  0aa7c	d9 7d a2	 fnstcw	 WORD PTR tv784[ebp]
  0aa7f	0f b7 45 a2	 movzx	 eax, WORD PTR tv784[ebp]
  0aa83	0d 00 0c 00 00	 or	 eax, 3072		; 00000c00H
  0aa88	89 45 9c	 mov	 DWORD PTR tv787[ebp], eax
  0aa8b	d9 6d 9c	 fldcw	 WORD PTR tv787[ebp]
  0aa8e	db 5d 98	 fistp	 DWORD PTR tv789[ebp]
  0aa91	d9 6d a2	 fldcw	 WORD PTR tv784[ebp]
  0aa94	66 8b 45 98	 mov	 ax, WORD PTR tv789[ebp]
  0aa98	8b 4d e8	 mov	 ecx, DWORD PTR _p$232270[ebp]
  0aa9b	66 89 41 4c	 mov	 WORD PTR [ecx+76], ax

; 5216 : 
; 5217 : 					Token = GetToken();

  0aa9f	e8 00 00 00 00	 call	 ?GetToken@@YA?AW4SMDToken@@XZ ; GetToken
  0aaa4	89 45 f4	 mov	 DWORD PTR _Token$[ebp], eax

; 5218 : 					p->RequireLeadership = (int)TokenNumber;

  0aaa7	d9 05 00 00 00
	00		 fld	 DWORD PTR _TokenNumber
  0aaad	e8 00 00 00 00	 call	 __ftol2_sse
  0aab2	8b 4d e8	 mov	 ecx, DWORD PTR _p$232270[ebp]
  0aab5	89 41 6c	 mov	 DWORD PTR [ecx+108], eax
$LN22@OpenItemSc:

; 5219 : 				}
; 5220 : 
; 5221 : 				if ( ItemType == 13 )

  0aab8	83 7d f0 0d	 cmp	 DWORD PTR _ItemType$232264[ebp], 13 ; 0000000dH
  0aabc	0f 85 ee 01 00
	00		 jne	 $LN14@OpenItemSc

; 5222 : 				{
; 5223 : 					Token = GetToken();

  0aac2	e8 00 00 00 00	 call	 ?GetToken@@YA?AW4SMDToken@@XZ ; GetToken
  0aac7	89 45 f4	 mov	 DWORD PTR _Token$[ebp], eax

; 5224 : 					p->Level = (BYTE)TokenNumber;

  0aaca	d9 05 00 00 00
	00		 fld	 DWORD PTR _TokenNumber
  0aad0	d9 7d a2	 fnstcw	 WORD PTR tv801[ebp]
  0aad3	0f b7 45 a2	 movzx	 eax, WORD PTR tv801[ebp]
  0aad7	0d 00 0c 00 00	 or	 eax, 3072		; 00000c00H
  0aadc	89 45 9c	 mov	 DWORD PTR tv804[ebp], eax
  0aadf	d9 6d 9c	 fldcw	 WORD PTR tv804[ebp]
  0aae2	db 5d 98	 fistp	 DWORD PTR tv806[ebp]
  0aae5	d9 6d a2	 fldcw	 WORD PTR tv801[ebp]
  0aae8	8a 45 98	 mov	 al, BYTE PTR tv806[ebp]
  0aaeb	8b 4d e8	 mov	 ecx, DWORD PTR _p$232270[ebp]
  0aaee	88 41 22	 mov	 BYTE PTR [ecx+34], al

; 5225 : 
; 5226 : 					Token = GetToken();

  0aaf1	e8 00 00 00 00	 call	 ?GetToken@@YA?AW4SMDToken@@XZ ; GetToken
  0aaf6	89 45 f4	 mov	 DWORD PTR _Token$[ebp], eax

; 5227 : 					p->Durability = (BYTE)TokenNumber;

  0aaf9	d9 05 00 00 00
	00		 fld	 DWORD PTR _TokenNumber
  0aaff	d9 7d a2	 fnstcw	 WORD PTR tv811[ebp]
  0ab02	0f b7 45 a2	 movzx	 eax, WORD PTR tv811[ebp]
  0ab06	0d 00 0c 00 00	 or	 eax, 3072		; 00000c00H
  0ab0b	89 45 9c	 mov	 DWORD PTR tv814[ebp], eax
  0ab0e	d9 6d 9c	 fldcw	 WORD PTR tv814[ebp]
  0ab11	db 5d 98	 fistp	 DWORD PTR tv816[ebp]
  0ab14	d9 6d a2	 fldcw	 WORD PTR tv811[ebp]
  0ab17	8a 45 98	 mov	 al, BYTE PTR tv816[ebp]
  0ab1a	8b 4d e8	 mov	 ecx, DWORD PTR _p$232270[ebp]
  0ab1d	88 41 30	 mov	 BYTE PTR [ecx+48], al

; 5228 : 
; 5229 : 					Token = GetToken();

  0ab20	e8 00 00 00 00	 call	 ?GetToken@@YA?AW4SMDToken@@XZ ; GetToken
  0ab25	89 45 f4	 mov	 DWORD PTR _Token$[ebp], eax

; 5230 : 					p->Resistance[0] = (BYTE)TokenNumber;

  0ab28	d9 05 00 00 00
	00		 fld	 DWORD PTR _TokenNumber
  0ab2e	d9 7d a2	 fnstcw	 WORD PTR tv821[ebp]
  0ab31	0f b7 45 a2	 movzx	 eax, WORD PTR tv821[ebp]
  0ab35	0d 00 0c 00 00	 or	 eax, 3072		; 00000c00H
  0ab3a	89 45 9c	 mov	 DWORD PTR tv824[ebp], eax
  0ab3d	d9 6d 9c	 fldcw	 WORD PTR tv824[ebp]
  0ab40	db 5d 98	 fistp	 DWORD PTR tv826[ebp]
  0ab43	d9 6d a2	 fldcw	 WORD PTR tv821[ebp]
  0ab46	8a 45 98	 mov	 al, BYTE PTR tv826[ebp]
  0ab49	8b 4d e8	 mov	 ecx, DWORD PTR _p$232270[ebp]
  0ab4c	88 41 45	 mov	 BYTE PTR [ecx+69], al

; 5231 : 
; 5232 : 					Token = GetToken();

  0ab4f	e8 00 00 00 00	 call	 ?GetToken@@YA?AW4SMDToken@@XZ ; GetToken
  0ab54	89 45 f4	 mov	 DWORD PTR _Token$[ebp], eax

; 5233 : 					p->Resistance[1] = (BYTE)TokenNumber;

  0ab57	d9 05 00 00 00
	00		 fld	 DWORD PTR _TokenNumber
  0ab5d	d9 7d a2	 fnstcw	 WORD PTR tv831[ebp]
  0ab60	0f b7 45 a2	 movzx	 eax, WORD PTR tv831[ebp]
  0ab64	0d 00 0c 00 00	 or	 eax, 3072		; 00000c00H
  0ab69	89 45 9c	 mov	 DWORD PTR tv834[ebp], eax
  0ab6c	d9 6d 9c	 fldcw	 WORD PTR tv834[ebp]
  0ab6f	db 5d 98	 fistp	 DWORD PTR tv836[ebp]
  0ab72	d9 6d a2	 fldcw	 WORD PTR tv831[ebp]
  0ab75	8a 45 98	 mov	 al, BYTE PTR tv836[ebp]
  0ab78	8b 4d e8	 mov	 ecx, DWORD PTR _p$232270[ebp]
  0ab7b	88 41 46	 mov	 BYTE PTR [ecx+70], al

; 5234 : 
; 5235 : 					Token = GetToken();

  0ab7e	e8 00 00 00 00	 call	 ?GetToken@@YA?AW4SMDToken@@XZ ; GetToken
  0ab83	89 45 f4	 mov	 DWORD PTR _Token$[ebp], eax

; 5236 : 					p->Resistance[2] = (BYTE)TokenNumber;

  0ab86	d9 05 00 00 00
	00		 fld	 DWORD PTR _TokenNumber
  0ab8c	d9 7d a2	 fnstcw	 WORD PTR tv841[ebp]
  0ab8f	0f b7 45 a2	 movzx	 eax, WORD PTR tv841[ebp]
  0ab93	0d 00 0c 00 00	 or	 eax, 3072		; 00000c00H
  0ab98	89 45 9c	 mov	 DWORD PTR tv844[ebp], eax
  0ab9b	d9 6d 9c	 fldcw	 WORD PTR tv844[ebp]
  0ab9e	db 5d 98	 fistp	 DWORD PTR tv846[ebp]
  0aba1	d9 6d a2	 fldcw	 WORD PTR tv841[ebp]
  0aba4	8a 45 98	 mov	 al, BYTE PTR tv846[ebp]
  0aba7	8b 4d e8	 mov	 ecx, DWORD PTR _p$232270[ebp]
  0abaa	88 41 47	 mov	 BYTE PTR [ecx+71], al

; 5237 : 
; 5238 : 					Token = GetToken();

  0abad	e8 00 00 00 00	 call	 ?GetToken@@YA?AW4SMDToken@@XZ ; GetToken
  0abb2	89 45 f4	 mov	 DWORD PTR _Token$[ebp], eax

; 5239 : 					p->Resistance[3] = (BYTE)TokenNumber;

  0abb5	d9 05 00 00 00
	00		 fld	 DWORD PTR _TokenNumber
  0abbb	d9 7d a2	 fnstcw	 WORD PTR tv851[ebp]
  0abbe	0f b7 45 a2	 movzx	 eax, WORD PTR tv851[ebp]
  0abc2	0d 00 0c 00 00	 or	 eax, 3072		; 00000c00H
  0abc7	89 45 9c	 mov	 DWORD PTR tv854[ebp], eax
  0abca	d9 6d 9c	 fldcw	 WORD PTR tv854[ebp]
  0abcd	db 5d 98	 fistp	 DWORD PTR tv856[ebp]
  0abd0	d9 6d a2	 fldcw	 WORD PTR tv851[ebp]
  0abd3	8a 45 98	 mov	 al, BYTE PTR tv856[ebp]
  0abd6	8b 4d e8	 mov	 ecx, DWORD PTR _p$232270[ebp]
  0abd9	88 41 48	 mov	 BYTE PTR [ecx+72], al

; 5240 : 
; 5241 : 					Token = GetToken();

  0abdc	e8 00 00 00 00	 call	 ?GetToken@@YA?AW4SMDToken@@XZ ; GetToken
  0abe1	89 45 f4	 mov	 DWORD PTR _Token$[ebp], eax

; 5242 : 					p->Resistance[4] = (BYTE)TokenNumber;

  0abe4	d9 05 00 00 00
	00		 fld	 DWORD PTR _TokenNumber
  0abea	d9 7d a2	 fnstcw	 WORD PTR tv861[ebp]
  0abed	0f b7 45 a2	 movzx	 eax, WORD PTR tv861[ebp]
  0abf1	0d 00 0c 00 00	 or	 eax, 3072		; 00000c00H
  0abf6	89 45 9c	 mov	 DWORD PTR tv864[ebp], eax
  0abf9	d9 6d 9c	 fldcw	 WORD PTR tv864[ebp]
  0abfc	db 5d 98	 fistp	 DWORD PTR tv866[ebp]
  0abff	d9 6d a2	 fldcw	 WORD PTR tv861[ebp]
  0ac02	8a 45 98	 mov	 al, BYTE PTR tv866[ebp]
  0ac05	8b 4d e8	 mov	 ecx, DWORD PTR _p$232270[ebp]
  0ac08	88 41 49	 mov	 BYTE PTR [ecx+73], al

; 5243 : 
; 5244 : 					Token = GetToken();

  0ac0b	e8 00 00 00 00	 call	 ?GetToken@@YA?AW4SMDToken@@XZ ; GetToken
  0ac10	89 45 f4	 mov	 DWORD PTR _Token$[ebp], eax

; 5245 : 					p->Resistance[5] = (BYTE)TokenNumber;

  0ac13	d9 05 00 00 00
	00		 fld	 DWORD PTR _TokenNumber
  0ac19	d9 7d a2	 fnstcw	 WORD PTR tv871[ebp]
  0ac1c	0f b7 45 a2	 movzx	 eax, WORD PTR tv871[ebp]
  0ac20	0d 00 0c 00 00	 or	 eax, 3072		; 00000c00H
  0ac25	89 45 9c	 mov	 DWORD PTR tv874[ebp], eax
  0ac28	d9 6d 9c	 fldcw	 WORD PTR tv874[ebp]
  0ac2b	db 5d 98	 fistp	 DWORD PTR tv876[ebp]
  0ac2e	d9 6d a2	 fldcw	 WORD PTR tv871[ebp]
  0ac31	8a 45 98	 mov	 al, BYTE PTR tv876[ebp]
  0ac34	8b 4d e8	 mov	 ecx, DWORD PTR _p$232270[ebp]
  0ac37	88 41 4a	 mov	 BYTE PTR [ecx+74], al

; 5246 : 
; 5247 : 					Token = GetToken();

  0ac3a	e8 00 00 00 00	 call	 ?GetToken@@YA?AW4SMDToken@@XZ ; GetToken
  0ac3f	89 45 f4	 mov	 DWORD PTR _Token$[ebp], eax

; 5248 : 					p->Resistance[6] = (BYTE)TokenNumber;

  0ac42	d9 05 00 00 00
	00		 fld	 DWORD PTR _TokenNumber
  0ac48	d9 7d a2	 fnstcw	 WORD PTR tv881[ebp]
  0ac4b	0f b7 45 a2	 movzx	 eax, WORD PTR tv881[ebp]
  0ac4f	0d 00 0c 00 00	 or	 eax, 3072		; 00000c00H
  0ac54	89 45 9c	 mov	 DWORD PTR tv884[ebp], eax
  0ac57	d9 6d 9c	 fldcw	 WORD PTR tv884[ebp]
  0ac5a	db 5d 98	 fistp	 DWORD PTR tv886[ebp]
  0ac5d	d9 6d a2	 fldcw	 WORD PTR tv881[ebp]
  0ac60	8a 45 98	 mov	 al, BYTE PTR tv886[ebp]
  0ac63	8b 4d e8	 mov	 ecx, DWORD PTR _p$232270[ebp]
  0ac66	88 41 4b	 mov	 BYTE PTR [ecx+75], al

; 5249 : 
; 5250 : 					p->ResistanceType = -1;

  0ac69	8b 45 e8	 mov	 eax, DWORD PTR _p$232270[ebp]
  0ac6c	c6 40 62 ff	 mov	 BYTE PTR [eax+98], 255	; 000000ffH

; 5251 : 					
; 5252 : 					int n;
; 5253 : 
; 5254 : 					for (n=0;n<MAX_ITEM_SPECIAL_ATTRIBUTE-1;n++)

  0ac70	c7 45 e4 00 00
	00 00		 mov	 DWORD PTR _n$232335[ebp], 0
  0ac77	eb 09		 jmp	 SHORT $LN13@OpenItemSc
$LN12@OpenItemSc:
  0ac79	8b 45 e4	 mov	 eax, DWORD PTR _n$232335[ebp]
  0ac7c	83 c0 01	 add	 eax, 1
  0ac7f	89 45 e4	 mov	 DWORD PTR _n$232335[ebp], eax
$LN13@OpenItemSc:
  0ac82	83 7d e4 06	 cmp	 DWORD PTR _n$232335[ebp], 6
  0ac86	7d 19		 jge	 SHORT $LN11@OpenItemSc

; 5255 : 					{
; 5256 : 						if ( (p->Resistance[n]) != 0 )

  0ac88	8b 45 e8	 mov	 eax, DWORD PTR _p$232270[ebp]
  0ac8b	03 45 e4	 add	 eax, DWORD PTR _n$232335[ebp]
  0ac8e	0f b6 48 45	 movzx	 ecx, BYTE PTR [eax+69]
  0ac92	85 c9		 test	 ecx, ecx
  0ac94	74 09		 je	 SHORT $LN10@OpenItemSc

; 5257 : 						{
; 5258 : 							p->ResistanceType=n;

  0ac96	8b 45 e8	 mov	 eax, DWORD PTR _p$232270[ebp]
  0ac99	8a 4d e4	 mov	 cl, BYTE PTR _n$232335[ebp]
  0ac9c	88 48 62	 mov	 BYTE PTR [eax+98], cl
$LN10@OpenItemSc:

; 5259 : 						}
; 5260 : 					}

  0ac9f	eb d8		 jmp	 SHORT $LN12@OpenItemSc
$LN11@OpenItemSc:

; 5261 : 
; 5262 : 					p->RequireLevel = p->Level ;

  0aca1	8b 45 e8	 mov	 eax, DWORD PTR _p$232270[ebp]
  0aca4	66 0f b6 48 22	 movzx	 cx, BYTE PTR [eax+34]
  0aca9	8b 55 e8	 mov	 edx, DWORD PTR _p$232270[ebp]
  0acac	66 89 4a 3a	 mov	 WORD PTR [edx+58], cx
$LN14@OpenItemSc:

; 5263 : 					
; 5264 : 				}
; 5265 : 
; 5266 : 				if ( ItemType == 14 )

  0acb0	83 7d f0 0e	 cmp	 DWORD PTR _ItemType$232264[ebp], 14 ; 0000000eH
  0acb4	75 67		 jne	 SHORT $LN9@OpenItemSc

; 5267 : 				{
; 5268 : 					Token = GetToken();

  0acb6	e8 00 00 00 00	 call	 ?GetToken@@YA?AW4SMDToken@@XZ ; GetToken
  0acbb	89 45 f4	 mov	 DWORD PTR _Token$[ebp], eax

; 5269 : 					p->Value = (WORD)TokenNumber;

  0acbe	d9 05 00 00 00
	00		 fld	 DWORD PTR _TokenNumber
  0acc4	d9 7d a2	 fnstcw	 WORD PTR tv898[ebp]
  0acc7	0f b7 45 a2	 movzx	 eax, WORD PTR tv898[ebp]
  0accb	0d 00 0c 00 00	 or	 eax, 3072		; 00000c00H
  0acd0	89 45 9c	 mov	 DWORD PTR tv901[ebp], eax
  0acd3	d9 6d 9c	 fldcw	 WORD PTR tv901[ebp]
  0acd6	db 5d 98	 fistp	 DWORD PTR tv903[ebp]
  0acd9	d9 6d a2	 fldcw	 WORD PTR tv898[ebp]
  0acdc	66 8b 45 98	 mov	 ax, WORD PTR tv903[ebp]
  0ace0	8b 4d e8	 mov	 ecx, DWORD PTR _p$232270[ebp]
  0ace3	66 89 41 3c	 mov	 WORD PTR [ecx+60], ax

; 5270 : 
; 5271 : 					Token = GetToken();

  0ace7	e8 00 00 00 00	 call	 ?GetToken@@YA?AW4SMDToken@@XZ ; GetToken
  0acec	89 45 f4	 mov	 DWORD PTR _Token$[ebp], eax

; 5272 : 					p->Level = (BYTE)TokenNumber;

  0acef	d9 05 00 00 00
	00		 fld	 DWORD PTR _TokenNumber
  0acf5	d9 7d a2	 fnstcw	 WORD PTR tv908[ebp]
  0acf8	0f b7 45 a2	 movzx	 eax, WORD PTR tv908[ebp]
  0acfc	0d 00 0c 00 00	 or	 eax, 3072		; 00000c00H
  0ad01	89 45 9c	 mov	 DWORD PTR tv911[ebp], eax
  0ad04	d9 6d 9c	 fldcw	 WORD PTR tv911[ebp]
  0ad07	db 5d 98	 fistp	 DWORD PTR tv913[ebp]
  0ad0a	d9 6d a2	 fldcw	 WORD PTR tv908[ebp]
  0ad0d	8a 45 98	 mov	 al, BYTE PTR tv913[ebp]
  0ad10	8b 4d e8	 mov	 ecx, DWORD PTR _p$232270[ebp]
  0ad13	88 41 22	 mov	 BYTE PTR [ecx+34], al

; 5273 : 
; 5274 : 					p->Durability = 1;

  0ad16	8b 45 e8	 mov	 eax, DWORD PTR _p$232270[ebp]
  0ad19	c6 40 30 01	 mov	 BYTE PTR [eax+48], 1
$LN9@OpenItemSc:

; 5275 : 				}
; 5276 : 
; 5277 : 				if ( ItemType == 12 )

  0ad1d	83 7d f0 0c	 cmp	 DWORD PTR _ItemType$232264[ebp], 12 ; 0000000cH
  0ad21	0f 85 83 01 00
	00		 jne	 $LN8@OpenItemSc

; 5278 : 				{
; 5279 : 					Token = GetToken();

  0ad27	e8 00 00 00 00	 call	 ?GetToken@@YA?AW4SMDToken@@XZ ; GetToken
  0ad2c	89 45 f4	 mov	 DWORD PTR _Token$[ebp], eax

; 5280 : 					p->Level = (BYTE)TokenNumber;

  0ad2f	d9 05 00 00 00
	00		 fld	 DWORD PTR _TokenNumber
  0ad35	d9 7d a2	 fnstcw	 WORD PTR tv919[ebp]
  0ad38	0f b7 45 a2	 movzx	 eax, WORD PTR tv919[ebp]
  0ad3c	0d 00 0c 00 00	 or	 eax, 3072		; 00000c00H
  0ad41	89 45 9c	 mov	 DWORD PTR tv922[ebp], eax
  0ad44	d9 6d 9c	 fldcw	 WORD PTR tv922[ebp]
  0ad47	db 5d 98	 fistp	 DWORD PTR tv924[ebp]
  0ad4a	d9 6d a2	 fldcw	 WORD PTR tv919[ebp]
  0ad4d	8a 45 98	 mov	 al, BYTE PTR tv924[ebp]
  0ad50	8b 4d e8	 mov	 ecx, DWORD PTR _p$232270[ebp]
  0ad53	88 41 22	 mov	 BYTE PTR [ecx+34], al

; 5281 : 
; 5282 : 					Token = GetToken();

  0ad56	e8 00 00 00 00	 call	 ?GetToken@@YA?AW4SMDToken@@XZ ; GetToken
  0ad5b	89 45 f4	 mov	 DWORD PTR _Token$[ebp], eax

; 5283 : 					p->Defense = (BYTE)TokenNumber;

  0ad5e	d9 05 00 00 00
	00		 fld	 DWORD PTR _TokenNumber
  0ad64	d9 7d a2	 fnstcw	 WORD PTR tv929[ebp]
  0ad67	0f b7 45 a2	 movzx	 eax, WORD PTR tv929[ebp]
  0ad6b	0d 00 0c 00 00	 or	 eax, 3072		; 00000c00H
  0ad70	89 45 9c	 mov	 DWORD PTR tv932[ebp], eax
  0ad73	d9 6d 9c	 fldcw	 WORD PTR tv932[ebp]
  0ad76	db 5d 98	 fistp	 DWORD PTR tv934[ebp]
  0ad79	d9 6d a2	 fldcw	 WORD PTR tv929[ebp]
  0ad7c	8a 45 98	 mov	 al, BYTE PTR tv934[ebp]
  0ad7f	8b 4d e8	 mov	 ecx, DWORD PTR _p$232270[ebp]
  0ad82	88 41 2d	 mov	 BYTE PTR [ecx+45], al

; 5284 : 
; 5285 : 					Token = GetToken();

  0ad85	e8 00 00 00 00	 call	 ?GetToken@@YA?AW4SMDToken@@XZ ; GetToken
  0ad8a	89 45 f4	 mov	 DWORD PTR _Token$[ebp], eax

; 5286 : 					p->Durability = (BYTE)TokenNumber;

  0ad8d	d9 05 00 00 00
	00		 fld	 DWORD PTR _TokenNumber
  0ad93	d9 7d a2	 fnstcw	 WORD PTR tv939[ebp]
  0ad96	0f b7 45 a2	 movzx	 eax, WORD PTR tv939[ebp]
  0ad9a	0d 00 0c 00 00	 or	 eax, 3072		; 00000c00H
  0ad9f	89 45 9c	 mov	 DWORD PTR tv942[ebp], eax
  0ada2	d9 6d 9c	 fldcw	 WORD PTR tv942[ebp]
  0ada5	db 5d 98	 fistp	 DWORD PTR tv944[ebp]
  0ada8	d9 6d a2	 fldcw	 WORD PTR tv939[ebp]
  0adab	8a 45 98	 mov	 al, BYTE PTR tv944[ebp]
  0adae	8b 4d e8	 mov	 ecx, DWORD PTR _p$232270[ebp]
  0adb1	88 41 30	 mov	 BYTE PTR [ecx+48], al

; 5287 : 
; 5288 : 					Token = GetToken();

  0adb4	e8 00 00 00 00	 call	 ?GetToken@@YA?AW4SMDToken@@XZ ; GetToken
  0adb9	89 45 f4	 mov	 DWORD PTR _Token$[ebp], eax

; 5289 : 					p->RequireLevel = (WORD)TokenNumber;

  0adbc	d9 05 00 00 00
	00		 fld	 DWORD PTR _TokenNumber
  0adc2	d9 7d a2	 fnstcw	 WORD PTR tv949[ebp]
  0adc5	0f b7 45 a2	 movzx	 eax, WORD PTR tv949[ebp]
  0adc9	0d 00 0c 00 00	 or	 eax, 3072		; 00000c00H
  0adce	89 45 9c	 mov	 DWORD PTR tv952[ebp], eax
  0add1	d9 6d 9c	 fldcw	 WORD PTR tv952[ebp]
  0add4	db 5d 98	 fistp	 DWORD PTR tv954[ebp]
  0add7	d9 6d a2	 fldcw	 WORD PTR tv949[ebp]
  0adda	66 8b 45 98	 mov	 ax, WORD PTR tv954[ebp]
  0adde	8b 4d e8	 mov	 ecx, DWORD PTR _p$232270[ebp]
  0ade1	66 89 41 3a	 mov	 WORD PTR [ecx+58], ax

; 5290 : 
; 5291 : 					Token = GetToken();

  0ade5	e8 00 00 00 00	 call	 ?GetToken@@YA?AW4SMDToken@@XZ ; GetToken
  0adea	89 45 f4	 mov	 DWORD PTR _Token$[ebp], eax

; 5292 : 					p->RequireEnergy = (WORD)TokenNumber;

  0aded	d9 05 00 00 00
	00		 fld	 DWORD PTR _TokenNumber
  0adf3	d9 7d a2	 fnstcw	 WORD PTR tv959[ebp]
  0adf6	0f b7 45 a2	 movzx	 eax, WORD PTR tv959[ebp]
  0adfa	0d 00 0c 00 00	 or	 eax, 3072		; 00000c00H
  0adff	89 45 9c	 mov	 DWORD PTR tv962[ebp], eax
  0ae02	d9 6d 9c	 fldcw	 WORD PTR tv962[ebp]
  0ae05	db 5d 98	 fistp	 DWORD PTR tv964[ebp]
  0ae08	d9 6d a2	 fldcw	 WORD PTR tv959[ebp]
  0ae0b	66 8b 45 98	 mov	 ax, WORD PTR tv964[ebp]
  0ae0f	8b 4d e8	 mov	 ecx, DWORD PTR _p$232270[ebp]
  0ae12	66 89 41 38	 mov	 WORD PTR [ecx+56], ax

; 5293 : 
; 5294 : 					Token = GetToken();

  0ae16	e8 00 00 00 00	 call	 ?GetToken@@YA?AW4SMDToken@@XZ ; GetToken
  0ae1b	89 45 f4	 mov	 DWORD PTR _Token$[ebp], eax

; 5295 : 					p->RequireStrength = (WORD)TokenNumber;

  0ae1e	d9 05 00 00 00
	00		 fld	 DWORD PTR _TokenNumber
  0ae24	d9 7d a2	 fnstcw	 WORD PTR tv969[ebp]
  0ae27	0f b7 45 a2	 movzx	 eax, WORD PTR tv969[ebp]
  0ae2b	0d 00 0c 00 00	 or	 eax, 3072		; 00000c00H
  0ae30	89 45 9c	 mov	 DWORD PTR tv972[ebp], eax
  0ae33	d9 6d 9c	 fldcw	 WORD PTR tv972[ebp]
  0ae36	db 5d 98	 fistp	 DWORD PTR tv974[ebp]
  0ae39	d9 6d a2	 fldcw	 WORD PTR tv969[ebp]
  0ae3c	66 8b 45 98	 mov	 ax, WORD PTR tv974[ebp]
  0ae40	8b 4d e8	 mov	 ecx, DWORD PTR _p$232270[ebp]
  0ae43	66 89 41 34	 mov	 WORD PTR [ecx+52], ax

; 5296 : 
; 5297 : 					Token = GetToken();

  0ae47	e8 00 00 00 00	 call	 ?GetToken@@YA?AW4SMDToken@@XZ ; GetToken
  0ae4c	89 45 f4	 mov	 DWORD PTR _Token$[ebp], eax

; 5298 : 					p->RequireDexterity = (WORD)TokenNumber;

  0ae4f	d9 05 00 00 00
	00		 fld	 DWORD PTR _TokenNumber
  0ae55	d9 7d a2	 fnstcw	 WORD PTR tv979[ebp]
  0ae58	0f b7 45 a2	 movzx	 eax, WORD PTR tv979[ebp]
  0ae5c	0d 00 0c 00 00	 or	 eax, 3072		; 00000c00H
  0ae61	89 45 9c	 mov	 DWORD PTR tv982[ebp], eax
  0ae64	d9 6d 9c	 fldcw	 WORD PTR tv982[ebp]
  0ae67	db 5d 98	 fistp	 DWORD PTR tv984[ebp]
  0ae6a	d9 6d a2	 fldcw	 WORD PTR tv979[ebp]
  0ae6d	66 8b 45 98	 mov	 ax, WORD PTR tv984[ebp]
  0ae71	8b 4d e8	 mov	 ecx, DWORD PTR _p$232270[ebp]
  0ae74	66 89 41 36	 mov	 WORD PTR [ecx+54], ax

; 5299 : 
; 5300 : 					Token = GetToken();

  0ae78	e8 00 00 00 00	 call	 ?GetToken@@YA?AW4SMDToken@@XZ ; GetToken
  0ae7d	89 45 f4	 mov	 DWORD PTR _Token$[ebp], eax

; 5301 : 					p->RequireLeadership = (int)TokenNumber;

  0ae80	d9 05 00 00 00
	00		 fld	 DWORD PTR _TokenNumber
  0ae86	e8 00 00 00 00	 call	 __ftol2_sse
  0ae8b	8b 4d e8	 mov	 ecx, DWORD PTR _p$232270[ebp]
  0ae8e	89 41 6c	 mov	 DWORD PTR [ecx+108], eax

; 5302 : 
; 5303 : 					Token = GetToken();

  0ae91	e8 00 00 00 00	 call	 ?GetToken@@YA?AW4SMDToken@@XZ ; GetToken
  0ae96	89 45 f4	 mov	 DWORD PTR _Token$[ebp], eax

; 5304 : 					p->BuyMoney = (int)TokenNumber;

  0ae99	d9 05 00 00 00
	00		 fld	 DWORD PTR _TokenNumber
  0ae9f	e8 00 00 00 00	 call	 __ftol2_sse
  0aea4	8b 4d e8	 mov	 ecx, DWORD PTR _p$232270[ebp]
  0aea7	89 41 50	 mov	 DWORD PTR [ecx+80], eax
$LN8@OpenItemSc:

; 5305 : 
; 5306 : 				}
; 5307 : 				
; 5308 : 				if ( ItemType == 15 )

  0aeaa	83 7d f0 0f	 cmp	 DWORD PTR _ItemType$232264[ebp], 15 ; 0000000fH
  0aeae	0f 85 d1 00 00
	00		 jne	 $LN7@OpenItemSc

; 5309 : 				{
; 5310 : 
; 5311 : 					Token = GetToken();

  0aeb4	e8 00 00 00 00	 call	 ?GetToken@@YA?AW4SMDToken@@XZ ; GetToken
  0aeb9	89 45 f4	 mov	 DWORD PTR _Token$[ebp], eax

; 5312 : 					p->Level = (BYTE)TokenNumber;

  0aebc	d9 05 00 00 00
	00		 fld	 DWORD PTR _TokenNumber
  0aec2	d9 7d a2	 fnstcw	 WORD PTR tv1003[ebp]
  0aec5	0f b7 45 a2	 movzx	 eax, WORD PTR tv1003[ebp]
  0aec9	0d 00 0c 00 00	 or	 eax, 3072		; 00000c00H
  0aece	89 45 9c	 mov	 DWORD PTR tv1006[ebp], eax
  0aed1	d9 6d 9c	 fldcw	 WORD PTR tv1006[ebp]
  0aed4	db 5d 98	 fistp	 DWORD PTR tv1008[ebp]
  0aed7	d9 6d a2	 fldcw	 WORD PTR tv1003[ebp]
  0aeda	8a 45 98	 mov	 al, BYTE PTR tv1008[ebp]
  0aedd	8b 4d e8	 mov	 ecx, DWORD PTR _p$232270[ebp]
  0aee0	88 41 22	 mov	 BYTE PTR [ecx+34], al

; 5313 : 
; 5314 : 					Token = GetToken();

  0aee3	e8 00 00 00 00	 call	 ?GetToken@@YA?AW4SMDToken@@XZ ; GetToken
  0aee8	89 45 f4	 mov	 DWORD PTR _Token$[ebp], eax

; 5315 : 					p->RequireLevel  = (WORD)TokenNumber;

  0aeeb	d9 05 00 00 00
	00		 fld	 DWORD PTR _TokenNumber
  0aef1	d9 7d a2	 fnstcw	 WORD PTR tv1013[ebp]
  0aef4	0f b7 45 a2	 movzx	 eax, WORD PTR tv1013[ebp]
  0aef8	0d 00 0c 00 00	 or	 eax, 3072		; 00000c00H
  0aefd	89 45 9c	 mov	 DWORD PTR tv1016[ebp], eax
  0af00	d9 6d 9c	 fldcw	 WORD PTR tv1016[ebp]
  0af03	db 5d 98	 fistp	 DWORD PTR tv1018[ebp]
  0af06	d9 6d a2	 fldcw	 WORD PTR tv1013[ebp]
  0af09	66 8b 45 98	 mov	 ax, WORD PTR tv1018[ebp]
  0af0d	8b 4d e8	 mov	 ecx, DWORD PTR _p$232270[ebp]
  0af10	66 89 41 3a	 mov	 WORD PTR [ecx+58], ax

; 5316 : 
; 5317 : 					Token = GetToken();

  0af14	e8 00 00 00 00	 call	 ?GetToken@@YA?AW4SMDToken@@XZ ; GetToken
  0af19	89 45 f4	 mov	 DWORD PTR _Token$[ebp], eax

; 5318 : 					p->RequireEnergy  = (WORD)TokenNumber;

  0af1c	d9 05 00 00 00
	00		 fld	 DWORD PTR _TokenNumber
  0af22	d9 7d a2	 fnstcw	 WORD PTR tv1023[ebp]
  0af25	0f b7 45 a2	 movzx	 eax, WORD PTR tv1023[ebp]
  0af29	0d 00 0c 00 00	 or	 eax, 3072		; 00000c00H
  0af2e	89 45 9c	 mov	 DWORD PTR tv1026[ebp], eax
  0af31	d9 6d 9c	 fldcw	 WORD PTR tv1026[ebp]
  0af34	db 5d 98	 fistp	 DWORD PTR tv1028[ebp]
  0af37	d9 6d a2	 fldcw	 WORD PTR tv1023[ebp]
  0af3a	66 8b 45 98	 mov	 ax, WORD PTR tv1028[ebp]
  0af3e	8b 4d e8	 mov	 ecx, DWORD PTR _p$232270[ebp]
  0af41	66 89 41 38	 mov	 WORD PTR [ecx+56], ax

; 5319 : 
; 5320 : 					Token = GetToken();

  0af45	e8 00 00 00 00	 call	 ?GetToken@@YA?AW4SMDToken@@XZ ; GetToken
  0af4a	89 45 f4	 mov	 DWORD PTR _Token$[ebp], eax

; 5321 : 					p->BuyMoney  = (int)TokenNumber;

  0af4d	d9 05 00 00 00
	00		 fld	 DWORD PTR _TokenNumber
  0af53	e8 00 00 00 00	 call	 __ftol2_sse
  0af58	8b 4d e8	 mov	 ecx, DWORD PTR _p$232270[ebp]
  0af5b	89 41 50	 mov	 DWORD PTR [ecx+80], eax

; 5322 : 
; 5323 : 					p->DamageMin = p->Level;

  0af5e	8b 45 e8	 mov	 eax, DWORD PTR _p$232270[ebp]
  0af61	8b 4d e8	 mov	 ecx, DWORD PTR _p$232270[ebp]
  0af64	8a 51 22	 mov	 dl, BYTE PTR [ecx+34]
  0af67	88 50 2a	 mov	 BYTE PTR [eax+42], dl

; 5324 : 					p->DamageMax = p->Level + p->Level/2; 

  0af6a	8b 45 e8	 mov	 eax, DWORD PTR _p$232270[ebp]
  0af6d	0f b6 48 22	 movzx	 ecx, BYTE PTR [eax+34]
  0af71	8b 55 e8	 mov	 edx, DWORD PTR _p$232270[ebp]
  0af74	0f b6 42 22	 movzx	 eax, BYTE PTR [edx+34]
  0af78	99		 cdq
  0af79	2b c2		 sub	 eax, edx
  0af7b	d1 f8		 sar	 eax, 1
  0af7d	03 c8		 add	 ecx, eax
  0af7f	8b 45 e8	 mov	 eax, DWORD PTR _p$232270[ebp]
  0af82	88 48 2b	 mov	 BYTE PTR [eax+43], cl
$LN7@OpenItemSc:

; 5325 : 				}
; 5326 : 
; 5327 : 				if ( ItemType <= 11 || ItemType == 13)

  0af85	83 7d f0 0b	 cmp	 DWORD PTR _ItemType$232264[ebp], 11 ; 0000000bH
  0af89	7e 06		 jle	 SHORT $LN5@OpenItemSc
  0af8b	83 7d f0 0d	 cmp	 DWORD PTR _ItemType$232264[ebp], 13 ; 0000000dH
  0af8f	75 08		 jne	 SHORT $LN6@OpenItemSc
$LN5@OpenItemSc:

; 5328 : 				{
; 5329 : 					Token = GetToken();

  0af91	e8 00 00 00 00	 call	 ?GetToken@@YA?AW4SMDToken@@XZ ; GetToken
  0af96	89 45 f4	 mov	 DWORD PTR _Token$[ebp], eax
$LN6@OpenItemSc:

; 5330 : 				}
; 5331 : 
; 5332 : 				p->SetAttr = (BYTE)TokenNumber;

  0af99	d9 05 00 00 00
	00		 fld	 DWORD PTR _TokenNumber
  0af9f	d9 7d a2	 fnstcw	 WORD PTR tv1051[ebp]
  0afa2	0f b7 45 a2	 movzx	 eax, WORD PTR tv1051[ebp]
  0afa6	0d 00 0c 00 00	 or	 eax, 3072		; 00000c00H
  0afab	89 45 9c	 mov	 DWORD PTR tv1054[ebp], eax
  0afae	d9 6d 9c	 fldcw	 WORD PTR tv1054[ebp]
  0afb1	db 5d 98	 fistp	 DWORD PTR tv1056[ebp]
  0afb4	d9 6d a2	 fldcw	 WORD PTR tv1051[ebp]
  0afb7	8a 45 98	 mov	 al, BYTE PTR tv1056[ebp]
  0afba	8b 4d e8	 mov	 ecx, DWORD PTR _p$232270[ebp]
  0afbd	88 41 61	 mov	 BYTE PTR [ecx+97], al

; 5333 : 
; 5334 : 				if ( ItemType <= 13 || ItemType == 15 )

  0afc0	83 7d f0 0d	 cmp	 DWORD PTR _ItemType$232264[ebp], 13 ; 0000000dH
  0afc4	7e 0a		 jle	 SHORT $LN3@OpenItemSc
  0afc6	83 7d f0 0f	 cmp	 DWORD PTR _ItemType$232264[ebp], 15 ; 0000000fH
  0afca	0f 85 49 01 00
	00		 jne	 $LN4@OpenItemSc
$LN3@OpenItemSc:

; 5335 : 				{
; 5336 : 
; 5337 : 					Token = GetToken();

  0afd0	e8 00 00 00 00	 call	 ?GetToken@@YA?AW4SMDToken@@XZ ; GetToken
  0afd5	89 45 f4	 mov	 DWORD PTR _Token$[ebp], eax

; 5338 : 					p->RequireClass[0]  = (BYTE)TokenNumber;

  0afd8	d9 05 00 00 00
	00		 fld	 DWORD PTR _TokenNumber
  0afde	d9 7d a2	 fnstcw	 WORD PTR tv1061[ebp]
  0afe1	0f b7 45 a2	 movzx	 eax, WORD PTR tv1061[ebp]
  0afe5	0d 00 0c 00 00	 or	 eax, 3072		; 00000c00H
  0afea	89 45 9c	 mov	 DWORD PTR tv1064[ebp], eax
  0afed	d9 6d 9c	 fldcw	 WORD PTR tv1064[ebp]
  0aff0	db 5d 98	 fistp	 DWORD PTR tv1066[ebp]
  0aff3	d9 6d a2	 fldcw	 WORD PTR tv1061[ebp]
  0aff6	8a 45 98	 mov	 al, BYTE PTR tv1066[ebp]
  0aff9	8b 4d e8	 mov	 ecx, DWORD PTR _p$232270[ebp]
  0affc	88 41 3e	 mov	 BYTE PTR [ecx+62], al

; 5339 : 
; 5340 : 					Token = GetToken();

  0afff	e8 00 00 00 00	 call	 ?GetToken@@YA?AW4SMDToken@@XZ ; GetToken
  0b004	89 45 f4	 mov	 DWORD PTR _Token$[ebp], eax

; 5341 : 					p->RequireClass[1]  = (BYTE)TokenNumber;

  0b007	d9 05 00 00 00
	00		 fld	 DWORD PTR _TokenNumber
  0b00d	d9 7d a2	 fnstcw	 WORD PTR tv1071[ebp]
  0b010	0f b7 45 a2	 movzx	 eax, WORD PTR tv1071[ebp]
  0b014	0d 00 0c 00 00	 or	 eax, 3072		; 00000c00H
  0b019	89 45 9c	 mov	 DWORD PTR tv1074[ebp], eax
  0b01c	d9 6d 9c	 fldcw	 WORD PTR tv1074[ebp]
  0b01f	db 5d 98	 fistp	 DWORD PTR tv1076[ebp]
  0b022	d9 6d a2	 fldcw	 WORD PTR tv1071[ebp]
  0b025	8a 45 98	 mov	 al, BYTE PTR tv1076[ebp]
  0b028	8b 4d e8	 mov	 ecx, DWORD PTR _p$232270[ebp]
  0b02b	88 41 3f	 mov	 BYTE PTR [ecx+63], al

; 5342 : 
; 5343 : 					Token = GetToken();

  0b02e	e8 00 00 00 00	 call	 ?GetToken@@YA?AW4SMDToken@@XZ ; GetToken
  0b033	89 45 f4	 mov	 DWORD PTR _Token$[ebp], eax

; 5344 : 					p->RequireClass[2]  = (BYTE)TokenNumber;

  0b036	d9 05 00 00 00
	00		 fld	 DWORD PTR _TokenNumber
  0b03c	d9 7d a2	 fnstcw	 WORD PTR tv1081[ebp]
  0b03f	0f b7 45 a2	 movzx	 eax, WORD PTR tv1081[ebp]
  0b043	0d 00 0c 00 00	 or	 eax, 3072		; 00000c00H
  0b048	89 45 9c	 mov	 DWORD PTR tv1084[ebp], eax
  0b04b	d9 6d 9c	 fldcw	 WORD PTR tv1084[ebp]
  0b04e	db 5d 98	 fistp	 DWORD PTR tv1086[ebp]
  0b051	d9 6d a2	 fldcw	 WORD PTR tv1081[ebp]
  0b054	8a 45 98	 mov	 al, BYTE PTR tv1086[ebp]
  0b057	8b 4d e8	 mov	 ecx, DWORD PTR _p$232270[ebp]
  0b05a	88 41 40	 mov	 BYTE PTR [ecx+64], al

; 5345 : 
; 5346 : 					Token = GetToken();

  0b05d	e8 00 00 00 00	 call	 ?GetToken@@YA?AW4SMDToken@@XZ ; GetToken
  0b062	89 45 f4	 mov	 DWORD PTR _Token$[ebp], eax

; 5347 : 					p->RequireClass[3]  = (BYTE)TokenNumber;

  0b065	d9 05 00 00 00
	00		 fld	 DWORD PTR _TokenNumber
  0b06b	d9 7d a2	 fnstcw	 WORD PTR tv1091[ebp]
  0b06e	0f b7 45 a2	 movzx	 eax, WORD PTR tv1091[ebp]
  0b072	0d 00 0c 00 00	 or	 eax, 3072		; 00000c00H
  0b077	89 45 9c	 mov	 DWORD PTR tv1094[ebp], eax
  0b07a	d9 6d 9c	 fldcw	 WORD PTR tv1094[ebp]
  0b07d	db 5d 98	 fistp	 DWORD PTR tv1096[ebp]
  0b080	d9 6d a2	 fldcw	 WORD PTR tv1091[ebp]
  0b083	8a 45 98	 mov	 al, BYTE PTR tv1096[ebp]
  0b086	8b 4d e8	 mov	 ecx, DWORD PTR _p$232270[ebp]
  0b089	88 41 41	 mov	 BYTE PTR [ecx+65], al

; 5348 : 
; 5349 : 					Token = GetToken();

  0b08c	e8 00 00 00 00	 call	 ?GetToken@@YA?AW4SMDToken@@XZ ; GetToken
  0b091	89 45 f4	 mov	 DWORD PTR _Token$[ebp], eax

; 5350 : 					p->RequireClass[4]  = (BYTE)TokenNumber;

  0b094	d9 05 00 00 00
	00		 fld	 DWORD PTR _TokenNumber
  0b09a	d9 7d a2	 fnstcw	 WORD PTR tv1101[ebp]
  0b09d	0f b7 45 a2	 movzx	 eax, WORD PTR tv1101[ebp]
  0b0a1	0d 00 0c 00 00	 or	 eax, 3072		; 00000c00H
  0b0a6	89 45 9c	 mov	 DWORD PTR tv1104[ebp], eax
  0b0a9	d9 6d 9c	 fldcw	 WORD PTR tv1104[ebp]
  0b0ac	db 5d 98	 fistp	 DWORD PTR tv1106[ebp]
  0b0af	d9 6d a2	 fldcw	 WORD PTR tv1101[ebp]
  0b0b2	8a 45 98	 mov	 al, BYTE PTR tv1106[ebp]
  0b0b5	8b 4d e8	 mov	 ecx, DWORD PTR _p$232270[ebp]
  0b0b8	88 41 42	 mov	 BYTE PTR [ecx+66], al

; 5351 : 
; 5352 : 					Token = GetToken();

  0b0bb	e8 00 00 00 00	 call	 ?GetToken@@YA?AW4SMDToken@@XZ ; GetToken
  0b0c0	89 45 f4	 mov	 DWORD PTR _Token$[ebp], eax

; 5353 : 					p->RequireClass[5]  = (BYTE)TokenNumber;

  0b0c3	d9 05 00 00 00
	00		 fld	 DWORD PTR _TokenNumber
  0b0c9	d9 7d a2	 fnstcw	 WORD PTR tv1111[ebp]
  0b0cc	0f b7 45 a2	 movzx	 eax, WORD PTR tv1111[ebp]
  0b0d0	0d 00 0c 00 00	 or	 eax, 3072		; 00000c00H
  0b0d5	89 45 9c	 mov	 DWORD PTR tv1114[ebp], eax
  0b0d8	d9 6d 9c	 fldcw	 WORD PTR tv1114[ebp]
  0b0db	db 5d 98	 fistp	 DWORD PTR tv1116[ebp]
  0b0de	d9 6d a2	 fldcw	 WORD PTR tv1111[ebp]
  0b0e1	8a 45 98	 mov	 al, BYTE PTR tv1116[ebp]
  0b0e4	8b 4d e8	 mov	 ecx, DWORD PTR _p$232270[ebp]
  0b0e7	88 41 43	 mov	 BYTE PTR [ecx+67], al

; 5354 : 
; 5355 : 					Token = GetToken();

  0b0ea	e8 00 00 00 00	 call	 ?GetToken@@YA?AW4SMDToken@@XZ ; GetToken
  0b0ef	89 45 f4	 mov	 DWORD PTR _Token$[ebp], eax

; 5356 : 					p->RequireClass[6]  = TokenNumber;

  0b0f2	d9 05 00 00 00
	00		 fld	 DWORD PTR _TokenNumber
  0b0f8	d9 7d a2	 fnstcw	 WORD PTR tv1121[ebp]
  0b0fb	0f b7 45 a2	 movzx	 eax, WORD PTR tv1121[ebp]
  0b0ff	0d 00 0c 00 00	 or	 eax, 3072		; 00000c00H
  0b104	89 45 9c	 mov	 DWORD PTR tv1124[ebp], eax
  0b107	d9 6d 9c	 fldcw	 WORD PTR tv1124[ebp]
  0b10a	db 5d 98	 fistp	 DWORD PTR tv1126[ebp]
  0b10d	d9 6d a2	 fldcw	 WORD PTR tv1121[ebp]
  0b110	8a 45 98	 mov	 al, BYTE PTR tv1126[ebp]
  0b113	8b 4d e8	 mov	 ecx, DWORD PTR _p$232270[ebp]
  0b116	88 41 44	 mov	 BYTE PTR [ecx+68], al
$LN4@OpenItemSc:

; 5357 : 				}
; 5358 : 
; 5359 : 				CalRepairRate(ItemType, ItemSubType, p);

  0b119	8b 45 e8	 mov	 eax, DWORD PTR _p$232270[ebp]
  0b11c	50		 push	 eax
  0b11d	8b 4d ec	 mov	 ecx, DWORD PTR _ItemSubType$232269[ebp]
  0b120	51		 push	 ecx
  0b121	8b 55 f0	 mov	 edx, DWORD PTR _ItemType$232264[ebp]
  0b124	52		 push	 edx
  0b125	e8 00 00 00 00	 call	 ?CalRepairRate@@YAXHHPAUITEM_ATTRIBUTE@@@Z ; CalRepairRate
  0b12a	83 c4 0c	 add	 esp, 12			; 0000000cH

; 5360 : 
; 5361 : 				p->HaveItemInfo = TRUE;

  0b12d	8b 45 e8	 mov	 eax, DWORD PTR _p$232270[ebp]
  0b130	c6 40 20 01	 mov	 BYTE PTR [eax+32], 1

; 5362 : 
; 5363 : 				loop_count++;

  0b134	8b 45 fc	 mov	 eax, DWORD PTR _loop_count$[ebp]
  0b137	83 c0 01	 add	 eax, 1
  0b13a	89 45 fc	 mov	 DWORD PTR _loop_count$[ebp], eax

; 5364 : 
; 5365 : 				if ( loop_count > MAX_SUBTYPE_ITEMS )

  0b13d	81 7d fc 00 02
	00 00		 cmp	 DWORD PTR _loop_count$[ebp], 512 ; 00000200H
  0b144	7e 1b		 jle	 SHORT $LN2@OpenItemSc

; 5366 : 				{
; 5367 : 					MsgBox("Error : Item Data fail. (LoopCount:%d) Item Type:%d Index %d", loop_count, ItemType, ItemSubType);

  0b146	8b 45 ec	 mov	 eax, DWORD PTR _ItemSubType$232269[ebp]
  0b149	50		 push	 eax
  0b14a	8b 4d f0	 mov	 ecx, DWORD PTR _ItemType$232264[ebp]
  0b14d	51		 push	 ecx
  0b14e	8b 55 fc	 mov	 edx, DWORD PTR _loop_count$[ebp]
  0b151	52		 push	 edx
  0b152	68 00 00 00 00	 push	 OFFSET ??_C@_0DN@NLHNDLLL@Error?5?3?5Item?5Data?5fail?4?5?$CILoopCou@
  0b157	e8 00 00 00 00	 call	 ?MsgBox@@YAXPADZZ	; MsgBox
  0b15c	83 c4 10	 add	 esp, 16			; 00000010H

; 5368 : 					break;

  0b15f	eb 05		 jmp	 SHORT $LN29@OpenItemSc
$LN2@OpenItemSc:

; 5369 : 				}
; 5370 : 			}

  0b161	e9 12 f2 ff ff	 jmp	 $LN30@OpenItemSc
$LN29@OpenItemSc:

; 5371 : 
; 5372 : 			if ( loop_count > MAX_SUBTYPE_ITEMS )

  0b166	81 7d fc 00 02
	00 00		 cmp	 DWORD PTR _loop_count$[ebp], 512 ; 00000200H
  0b16d	7e 02		 jle	 SHORT $LN1@OpenItemSc

; 5373 : 			{
; 5374 : 				break;

  0b16f	eb 05		 jmp	 SHORT $LN33@OpenItemSc
$LN1@OpenItemSc:

; 5375 : 			}
; 5376 : 			
; 5377 : 		}
; 5378 : 
; 5379 : 
; 5380 : 	}

  0b171	e9 c3 f1 ff ff	 jmp	 $LN35@OpenItemSc
$LN33@OpenItemSc:

; 5381 : 	
; 5382 : 	fclose(SMDFile);

  0b176	a1 00 00 00 00	 mov	 eax, DWORD PTR _SMDFile
  0b17b	50		 push	 eax
  0b17c	e8 00 00 00 00	 call	 _fclose
  0b181	83 c4 04	 add	 esp, 4

; 5383 : 	return TRUE;

  0b184	b8 01 00 00 00	 mov	 eax, 1
$LN39@OpenItemSc:

; 5384 : }

  0b189	5f		 pop	 edi
  0b18a	5e		 pop	 esi
  0b18b	5b		 pop	 ebx
  0b18c	8b e5		 mov	 esp, ebp
  0b18e	5d		 pop	 ebp
  0b18f	c3		 ret	 0
?OpenItemScript@@YAHPAD@Z ENDP				; OpenItemScript
_TEXT	ENDS
PUBLIC	__$ArrayPad$
EXTRN	_isalnum:PROC
EXTRN	_isalpha:PROC
EXTRN	_atof:PROC
EXTRN	_isdigit:PROC
EXTRN	_getc:PROC
EXTRN	_ungetc:PROC
EXTRN	_isspace:PROC
EXTRN	_fgetc:PROC
EXTRN	___security_cookie:DWORD
EXTRN	@__security_check_cookie@4:PROC
_BSS	SEGMENT
_CurrentToken DD 01H DUP (?)
; Function compile flags: /Odtp /ZI
; File d:\projects\exteam6.3\source\gameserver\include\readscript.h
_BSS	ENDS
_TEXT	SEGMENT
tv90 = -180						; size = 4
_TempString$ = -112					; size = 100
_p$ = -12						; size = 4
_ch$ = -5						; size = 1
__$ArrayPad$ = -4					; size = 4
?GetToken@@YA?AW4SMDToken@@XZ PROC			; GetToken

; 24   : {

  0b190	55		 push	 ebp
  0b191	8b ec		 mov	 ebp, esp
  0b193	81 ec b4 00 00
	00		 sub	 esp, 180		; 000000b4H
  0b199	a1 00 00 00 00	 mov	 eax, DWORD PTR ___security_cookie
  0b19e	33 c5		 xor	 eax, ebp
  0b1a0	89 45 fc	 mov	 DWORD PTR __$ArrayPad$[ebp], eax
  0b1a3	53		 push	 ebx
  0b1a4	56		 push	 esi
  0b1a5	57		 push	 edi

; 25   : 	char ch;
; 26   : 	char* p;
; 27   : 	char TempString[100];
; 28   : 
; 29   : 	TokenString[0]=0;

  0b1a6	c6 05 00 00 00
	00 00		 mov	 BYTE PTR _TokenString, 0
$LN31@GetToken:

; 30   : 
; 31   : 	do
; 32   : 	{
; 33   : 		if ((ch=fgetc(SMDFile)) == -1)

  0b1ad	a1 00 00 00 00	 mov	 eax, DWORD PTR _SMDFile
  0b1b2	50		 push	 eax
  0b1b3	e8 00 00 00 00	 call	 _fgetc
  0b1b8	83 c4 04	 add	 esp, 4
  0b1bb	88 45 fb	 mov	 BYTE PTR _ch$[ebp], al
  0b1be	0f be 4d fb	 movsx	 ecx, BYTE PTR _ch$[ebp]
  0b1c2	83 f9 ff	 cmp	 ecx, -1
  0b1c5	75 0c		 jne	 SHORT $LN28@GetToken

; 34   : 		{
; 35   : 			return END;	// End of FILE (EOF)

  0b1c7	b8 02 00 00 00	 mov	 eax, 2
  0b1cc	e9 f7 02 00 00	 jmp	 $LN32@GetToken

; 36   : 		}
; 37   : 		else

  0b1d1	eb 5b		 jmp	 SHORT $LN22@GetToken
$LN28@GetToken:

; 38   : 		{	
; 39   : 			if (ch=='/')		// this is /

  0b1d3	0f be 45 fb	 movsx	 eax, BYTE PTR _ch$[ebp]
  0b1d7	83 f8 2f	 cmp	 eax, 47			; 0000002fH
  0b1da	75 52		 jne	 SHORT $LN22@GetToken

; 40   : 			{
; 41   : 				if((ch=fgetc(SMDFile)) == '/')

  0b1dc	a1 00 00 00 00	 mov	 eax, DWORD PTR _SMDFile
  0b1e1	50		 push	 eax
  0b1e2	e8 00 00 00 00	 call	 _fgetc
  0b1e7	83 c4 04	 add	 esp, 4
  0b1ea	88 45 fb	 mov	 BYTE PTR _ch$[ebp], al
  0b1ed	0f be 4d fb	 movsx	 ecx, BYTE PTR _ch$[ebp]
  0b1f1	83 f9 2f	 cmp	 ecx, 47			; 0000002fH
  0b1f4	75 38		 jne	 SHORT $LN22@GetToken
$LN24@GetToken:

; 42   : 				{
; 43   : 					while ((ch != '\n') && (ch != -1))	// End of Line (EOL)

  0b1f6	0f be 45 fb	 movsx	 eax, BYTE PTR _ch$[ebp]
  0b1fa	83 f8 0a	 cmp	 eax, 10			; 0000000aH
  0b1fd	74 1c		 je	 SHORT $LN23@GetToken
  0b1ff	0f be 45 fb	 movsx	 eax, BYTE PTR _ch$[ebp]
  0b203	83 f8 ff	 cmp	 eax, -1
  0b206	74 13		 je	 SHORT $LN23@GetToken

; 44   : 					{
; 45   : 						ch=fgetc(SMDFile);

  0b208	a1 00 00 00 00	 mov	 eax, DWORD PTR _SMDFile
  0b20d	50		 push	 eax
  0b20e	e8 00 00 00 00	 call	 _fgetc
  0b213	83 c4 04	 add	 esp, 4
  0b216	88 45 fb	 mov	 BYTE PTR _ch$[ebp], al

; 46   : 					}

  0b219	eb db		 jmp	 SHORT $LN24@GetToken
$LN23@GetToken:

; 47   : 	
; 48   : 					if (ch == -1)

  0b21b	0f be 45 fb	 movsx	 eax, BYTE PTR _ch$[ebp]
  0b21f	83 f8 ff	 cmp	 eax, -1
  0b222	75 0a		 jne	 SHORT $LN22@GetToken

; 49   : 					{
; 50   : 						return END;	// End of FILE

  0b224	b8 02 00 00 00	 mov	 eax, 2
  0b229	e9 9a 02 00 00	 jmp	 $LN32@GetToken
$LN22@GetToken:

; 51   : 					}
; 52   : 				}
; 53   : 			}
; 54   : 		}
; 55   : 	}
; 56   : 	while (isspace(ch) != 0);

  0b22e	0f be 45 fb	 movsx	 eax, BYTE PTR _ch$[ebp]
  0b232	50		 push	 eax
  0b233	e8 00 00 00 00	 call	 _isspace
  0b238	83 c4 04	 add	 esp, 4
  0b23b	85 c0		 test	 eax, eax
  0b23d	0f 85 6a ff ff
	ff		 jne	 $LN31@GetToken

; 57   : 
; 58   : 	
; 59   : 	switch(ch)

  0b243	0f be 45 fb	 movsx	 eax, BYTE PTR _ch$[ebp]
  0b247	89 85 4c ff ff
	ff		 mov	 DWORD PTR tv90[ebp], eax
  0b24d	8b 8d 4c ff ff
	ff		 mov	 ecx, DWORD PTR tv90[ebp]
  0b253	83 e9 22	 sub	 ecx, 34			; 00000022H
  0b256	89 8d 4c ff ff
	ff		 mov	 DWORD PTR tv90[ebp], ecx
  0b25c	83 bd 4c ff ff
	ff 5b		 cmp	 DWORD PTR tv90[ebp], 91	; 0000005bH
  0b263	0f 87 a3 01 00
	00		 ja	 $LN6@GetToken
  0b269	8b 95 4c ff ff
	ff		 mov	 edx, DWORD PTR tv90[ebp]
  0b26f	0f b6 82 00 00
	00 00		 movzx	 eax, BYTE PTR $LN34@GetToken[edx]
  0b276	ff 24 85 00 00
	00 00		 jmp	 DWORD PTR $LN35@GetToken[eax*4]
$LN19@GetToken:

; 60   : 	{
; 61   : 
; 62   : 	case 0x23:	// #
; 63   : 		return CurrentToken=COMMAND;

  0b27d	c7 05 00 00 00
	00 23 00 00 00	 mov	 DWORD PTR _CurrentToken, 35 ; 00000023H
  0b287	a1 00 00 00 00	 mov	 eax, DWORD PTR _CurrentToken
  0b28c	e9 37 02 00 00	 jmp	 $LN32@GetToken

; 64   : 		break;

  0b291	e9 30 02 00 00	 jmp	 $LN20@GetToken
$LN18@GetToken:

; 65   : 	
; 66   : 	case 0x3B:	// ;
; 67   : 		return CurrentToken=SEMICOLON;

  0b296	c7 05 00 00 00
	00 3b 00 00 00	 mov	 DWORD PTR _CurrentToken, 59 ; 0000003bH
  0b2a0	a1 00 00 00 00	 mov	 eax, DWORD PTR _CurrentToken
  0b2a5	e9 1e 02 00 00	 jmp	 $LN32@GetToken

; 68   : 		break;

  0b2aa	e9 17 02 00 00	 jmp	 $LN20@GetToken
$LN17@GetToken:

; 69   : 	
; 70   : 	case 0x2C:	// ,
; 71   : 
; 72   : 		return CurrentToken=COMMA;

  0b2af	c7 05 00 00 00
	00 2c 00 00 00	 mov	 DWORD PTR _CurrentToken, 44 ; 0000002cH
  0b2b9	a1 00 00 00 00	 mov	 eax, DWORD PTR _CurrentToken
  0b2be	e9 05 02 00 00	 jmp	 $LN32@GetToken

; 73   : 		break;

  0b2c3	e9 fe 01 00 00	 jmp	 $LN20@GetToken
$LN16@GetToken:

; 74   : 	
; 75   : 	case 0x7B:	// {
; 76   : 		return CurrentToken = LP;

  0b2c8	c7 05 00 00 00
	00 7b 00 00 00	 mov	 DWORD PTR _CurrentToken, 123 ; 0000007bH
  0b2d2	a1 00 00 00 00	 mov	 eax, DWORD PTR _CurrentToken
  0b2d7	e9 ec 01 00 00	 jmp	 $LN32@GetToken

; 77   : 		break;

  0b2dc	e9 e5 01 00 00	 jmp	 $LN20@GetToken
$LN15@GetToken:

; 78   : 
; 79   : 	case 0x7D:	// }
; 80   : 		return CurrentToken = RP;

  0b2e1	c7 05 00 00 00
	00 7d 00 00 00	 mov	 DWORD PTR _CurrentToken, 125 ; 0000007dH
  0b2eb	a1 00 00 00 00	 mov	 eax, DWORD PTR _CurrentToken
  0b2f0	e9 d3 01 00 00	 jmp	 $LN32@GetToken

; 81   : 		break;

  0b2f5	e9 cc 01 00 00	 jmp	 $LN20@GetToken
$LN14@GetToken:

; 82   : 	// Nice Index Table :)	by Deathway
; 83   : 	// Numbers Case
; 84   : 	case 0x2D:	//-
; 85   : 	case 0x2E:	//.
; 86   : 	case '0':	//0
; 87   : 	case '1':	//1
; 88   : 	case '2':	//2
; 89   : 	case '3':	//3
; 90   : 	case '4':	//4		
; 91   : 	case '5':	//5
; 92   : 	case '6':	//6
; 93   : 	case '7':	//7
; 94   : 	case '8':	//8
; 95   : 	case '9':	//9
; 96   : 		ungetc(ch, SMDFile);

  0b2fa	a1 00 00 00 00	 mov	 eax, DWORD PTR _SMDFile
  0b2ff	50		 push	 eax
  0b300	0f be 4d fb	 movsx	 ecx, BYTE PTR _ch$[ebp]
  0b304	51		 push	 ecx
  0b305	e8 00 00 00 00	 call	 _ungetc
  0b30a	83 c4 08	 add	 esp, 8

; 97   : 		p = TempString;

  0b30d	8d 45 90	 lea	 eax, DWORD PTR _TempString$[ebp]
  0b310	89 45 f4	 mov	 DWORD PTR _p$[ebp], eax
$LN13@GetToken:

; 98   : 		
; 99   : 		while (((ch=getc(SMDFile)) != -1) && ((ch == 0x2E) || (isdigit(ch) != 0) || (ch == 0x2D)))  // 2e '.'  2D '-'

  0b313	a1 00 00 00 00	 mov	 eax, DWORD PTR _SMDFile
  0b318	50		 push	 eax
  0b319	e8 00 00 00 00	 call	 _getc
  0b31e	83 c4 04	 add	 esp, 4
  0b321	88 45 fb	 mov	 BYTE PTR _ch$[ebp], al
  0b324	0f be 4d fb	 movsx	 ecx, BYTE PTR _ch$[ebp]
  0b328	83 f9 ff	 cmp	 ecx, -1
  0b32b	74 36		 je	 SHORT $LN12@GetToken
  0b32d	0f be 45 fb	 movsx	 eax, BYTE PTR _ch$[ebp]
  0b331	83 f8 2e	 cmp	 eax, 46			; 0000002eH
  0b334	74 1a		 je	 SHORT $LN11@GetToken
  0b336	0f be 45 fb	 movsx	 eax, BYTE PTR _ch$[ebp]
  0b33a	50		 push	 eax
  0b33b	e8 00 00 00 00	 call	 _isdigit
  0b340	83 c4 04	 add	 esp, 4
  0b343	85 c0		 test	 eax, eax
  0b345	75 09		 jne	 SHORT $LN11@GetToken
  0b347	0f be 45 fb	 movsx	 eax, BYTE PTR _ch$[ebp]
  0b34b	83 f8 2d	 cmp	 eax, 45			; 0000002dH
  0b34e	75 13		 jne	 SHORT $LN12@GetToken
$LN11@GetToken:

; 100  : 		{
; 101  : 			*p = ch;	// Construct a String

  0b350	8b 45 f4	 mov	 eax, DWORD PTR _p$[ebp]
  0b353	8a 4d fb	 mov	 cl, BYTE PTR _ch$[ebp]
  0b356	88 08		 mov	 BYTE PTR [eax], cl

; 102  : 			p++;

  0b358	8b 45 f4	 mov	 eax, DWORD PTR _p$[ebp]
  0b35b	83 c0 01	 add	 eax, 1
  0b35e	89 45 f4	 mov	 DWORD PTR _p$[ebp], eax

; 103  : 		}		

  0b361	eb b0		 jmp	 SHORT $LN13@GetToken
$LN12@GetToken:

; 104  : 		*p = 0;

  0b363	8b 45 f4	 mov	 eax, DWORD PTR _p$[ebp]
  0b366	c6 00 00	 mov	 BYTE PTR [eax], 0

; 105  : 		TokenNumber = atof( TempString);	// Select the first Byte as Main ID

  0b369	8d 45 90	 lea	 eax, DWORD PTR _TempString$[ebp]
  0b36c	50		 push	 eax
  0b36d	e8 00 00 00 00	 call	 _atof
  0b372	83 c4 04	 add	 esp, 4
  0b375	d9 1d 00 00 00
	00		 fstp	 DWORD PTR _TokenNumber

; 106  : 		return CurrentToken  = NUMBER ;

  0b37b	c7 05 00 00 00
	00 01 00 00 00	 mov	 DWORD PTR _CurrentToken, 1
  0b385	a1 00 00 00 00	 mov	 eax, DWORD PTR _CurrentToken
  0b38a	e9 39 01 00 00	 jmp	 $LN32@GetToken

; 107  : 		break;

  0b38f	e9 32 01 00 00	 jmp	 $LN20@GetToken
$LN10@GetToken:

; 108  : 
; 109  : 	case '\"':	// "	String Case
; 110  : 		p=&TokenString[0];

  0b394	c7 45 f4 00 00
	00 00		 mov	 DWORD PTR _p$[ebp], OFFSET _TokenString
$LN9@GetToken:

; 111  : 		
; 112  : 		while (((ch=getc(SMDFile)) != -1 ) && (ch != 0x22))	// nice

  0b39b	a1 00 00 00 00	 mov	 eax, DWORD PTR _SMDFile
  0b3a0	50		 push	 eax
  0b3a1	e8 00 00 00 00	 call	 _getc
  0b3a6	83 c4 04	 add	 esp, 4
  0b3a9	88 45 fb	 mov	 BYTE PTR _ch$[ebp], al
  0b3ac	0f be 4d fb	 movsx	 ecx, BYTE PTR _ch$[ebp]
  0b3b0	83 f9 ff	 cmp	 ecx, -1
  0b3b3	74 1c		 je	 SHORT $LN8@GetToken
  0b3b5	0f be 45 fb	 movsx	 eax, BYTE PTR _ch$[ebp]
  0b3b9	83 f8 22	 cmp	 eax, 34			; 00000022H
  0b3bc	74 13		 je	 SHORT $LN8@GetToken

; 113  : 		{
; 114  : 			*p = ch;

  0b3be	8b 45 f4	 mov	 eax, DWORD PTR _p$[ebp]
  0b3c1	8a 4d fb	 mov	 cl, BYTE PTR _ch$[ebp]
  0b3c4	88 08		 mov	 BYTE PTR [eax], cl

; 115  : 			p++;

  0b3c6	8b 45 f4	 mov	 eax, DWORD PTR _p$[ebp]
  0b3c9	83 c0 01	 add	 eax, 1
  0b3cc	89 45 f4	 mov	 DWORD PTR _p$[ebp], eax

; 116  : 		}

  0b3cf	eb ca		 jmp	 SHORT $LN9@GetToken
$LN8@GetToken:

; 117  : 		if (ch != 0x22 )

  0b3d1	0f be 45 fb	 movsx	 eax, BYTE PTR _ch$[ebp]
  0b3d5	83 f8 22	 cmp	 eax, 34			; 00000022H
  0b3d8	74 13		 je	 SHORT $LN7@GetToken

; 118  : 		{
; 119  : 			ungetc(ch, SMDFile);

  0b3da	a1 00 00 00 00	 mov	 eax, DWORD PTR _SMDFile
  0b3df	50		 push	 eax
  0b3e0	0f be 4d fb	 movsx	 ecx, BYTE PTR _ch$[ebp]
  0b3e4	51		 push	 ecx
  0b3e5	e8 00 00 00 00	 call	 _ungetc
  0b3ea	83 c4 08	 add	 esp, 8
$LN7@GetToken:

; 120  : 		}
; 121  : 		*p = 0;

  0b3ed	8b 45 f4	 mov	 eax, DWORD PTR _p$[ebp]
  0b3f0	c6 00 00	 mov	 BYTE PTR [eax], 0

; 122  : 		return CurrentToken = NAME;

  0b3f3	c7 05 00 00 00
	00 00 00 00 00	 mov	 DWORD PTR _CurrentToken, 0
  0b3fd	a1 00 00 00 00	 mov	 eax, DWORD PTR _CurrentToken
  0b402	e9 c1 00 00 00	 jmp	 $LN32@GetToken

; 123  : 		break;

  0b407	e9 ba 00 00 00	 jmp	 $LN20@GetToken
$LN6@GetToken:

; 124  : 
; 125  : 	default:	// Others
; 126  : 		if (isalpha(ch))

  0b40c	0f be 45 fb	 movsx	 eax, BYTE PTR _ch$[ebp]
  0b410	50		 push	 eax
  0b411	e8 00 00 00 00	 call	 _isalpha
  0b416	83 c4 04	 add	 esp, 4
  0b419	85 c0		 test	 eax, eax
  0b41b	0f 84 94 00 00
	00		 je	 $LN5@GetToken

; 127  : 		{
; 128  : 			p=&TokenString[0];

  0b421	c7 45 f4 00 00
	00 00		 mov	 DWORD PTR _p$[ebp], OFFSET _TokenString

; 129  : 			*p=ch;

  0b428	8b 45 f4	 mov	 eax, DWORD PTR _p$[ebp]
  0b42b	8a 4d fb	 mov	 cl, BYTE PTR _ch$[ebp]
  0b42e	88 08		 mov	 BYTE PTR [eax], cl

; 130  : 			p++;

  0b430	8b 45 f4	 mov	 eax, DWORD PTR _p$[ebp]
  0b433	83 c0 01	 add	 eax, 1
  0b436	89 45 f4	 mov	 DWORD PTR _p$[ebp], eax
$LN4@GetToken:

; 131  : 
; 132  : 			while ( ((ch=getc(SMDFile)) != -1) && ( (ch == 0x2E) || (ch == 0x5F) || (isalnum(ch) != 0) ) )

  0b439	a1 00 00 00 00	 mov	 eax, DWORD PTR _SMDFile
  0b43e	50		 push	 eax
  0b43f	e8 00 00 00 00	 call	 _getc
  0b444	83 c4 04	 add	 esp, 4
  0b447	88 45 fb	 mov	 BYTE PTR _ch$[ebp], al
  0b44a	0f be 4d fb	 movsx	 ecx, BYTE PTR _ch$[ebp]
  0b44e	83 f9 ff	 cmp	 ecx, -1
  0b451	74 36		 je	 SHORT $LN3@GetToken
  0b453	0f be 45 fb	 movsx	 eax, BYTE PTR _ch$[ebp]
  0b457	83 f8 2e	 cmp	 eax, 46			; 0000002eH
  0b45a	74 1a		 je	 SHORT $LN2@GetToken
  0b45c	0f be 45 fb	 movsx	 eax, BYTE PTR _ch$[ebp]
  0b460	83 f8 5f	 cmp	 eax, 95			; 0000005fH
  0b463	74 11		 je	 SHORT $LN2@GetToken
  0b465	0f be 45 fb	 movsx	 eax, BYTE PTR _ch$[ebp]
  0b469	50		 push	 eax
  0b46a	e8 00 00 00 00	 call	 _isalnum
  0b46f	83 c4 04	 add	 esp, 4
  0b472	85 c0		 test	 eax, eax
  0b474	74 13		 je	 SHORT $LN3@GetToken
$LN2@GetToken:

; 133  : 			{
; 134  : 				*p=ch;

  0b476	8b 45 f4	 mov	 eax, DWORD PTR _p$[ebp]
  0b479	8a 4d fb	 mov	 cl, BYTE PTR _ch$[ebp]
  0b47c	88 08		 mov	 BYTE PTR [eax], cl

; 135  : 				p++;

  0b47e	8b 45 f4	 mov	 eax, DWORD PTR _p$[ebp]
  0b481	83 c0 01	 add	 eax, 1
  0b484	89 45 f4	 mov	 DWORD PTR _p$[ebp], eax

; 136  : 				
; 137  : 			}

  0b487	eb b0		 jmp	 SHORT $LN4@GetToken
$LN3@GetToken:

; 138  : 
; 139  : 			ungetc(ch, SMDFile);

  0b489	a1 00 00 00 00	 mov	 eax, DWORD PTR _SMDFile
  0b48e	50		 push	 eax
  0b48f	0f be 4d fb	 movsx	 ecx, BYTE PTR _ch$[ebp]
  0b493	51		 push	 ecx
  0b494	e8 00 00 00 00	 call	 _ungetc
  0b499	83 c4 08	 add	 esp, 8

; 140  : 			*p=0;

  0b49c	8b 45 f4	 mov	 eax, DWORD PTR _p$[ebp]
  0b49f	c6 00 00	 mov	 BYTE PTR [eax], 0

; 141  : 			CurrentToken=NAME;

  0b4a2	c7 05 00 00 00
	00 00 00 00 00	 mov	 DWORD PTR _CurrentToken, 0

; 142  : 			return CurrentToken;

  0b4ac	a1 00 00 00 00	 mov	 eax, DWORD PTR _CurrentToken
  0b4b1	eb 15		 jmp	 SHORT $LN32@GetToken

; 143  : 		}
; 144  : 		else

  0b4b3	eb 11		 jmp	 SHORT $LN1@GetToken
$LN5@GetToken:

; 145  : 		{
; 146  : 			return CurrentToken = SMD_ERROR; // '<'

  0b4b5	c7 05 00 00 00
	00 3c 00 00 00	 mov	 DWORD PTR _CurrentToken, 60 ; 0000003cH
  0b4bf	a1 00 00 00 00	 mov	 eax, DWORD PTR _CurrentToken
  0b4c4	eb 02		 jmp	 SHORT $LN32@GetToken
$LN1@GetToken:
$LN20@GetToken:

; 147  : 		}
; 148  : 		break;
; 149  : 
; 150  : 	}
; 151  : 
; 152  : 	return NAME;

  0b4c6	33 c0		 xor	 eax, eax
$LN32@GetToken:

; 153  : }

  0b4c8	5f		 pop	 edi
  0b4c9	5e		 pop	 esi
  0b4ca	5b		 pop	 ebx
  0b4cb	8b 4d fc	 mov	 ecx, DWORD PTR __$ArrayPad$[ebp]
  0b4ce	33 cd		 xor	 ecx, ebp
  0b4d0	e8 00 00 00 00	 call	 @__security_check_cookie@4
  0b4d5	8b e5		 mov	 esp, ebp
  0b4d7	5d		 pop	 ebp
  0b4d8	c3		 ret	 0
  0b4d9	8d 49 00	 npad	 3
$LN35@GetToken:
  0b4dc	00 00 00 00	 DD	 $LN10@GetToken
  0b4e0	00 00 00 00	 DD	 $LN19@GetToken
  0b4e4	00 00 00 00	 DD	 $LN17@GetToken
  0b4e8	00 00 00 00	 DD	 $LN14@GetToken
  0b4ec	00 00 00 00	 DD	 $LN18@GetToken
  0b4f0	00 00 00 00	 DD	 $LN16@GetToken
  0b4f4	00 00 00 00	 DD	 $LN15@GetToken
  0b4f8	00 00 00 00	 DD	 $LN6@GetToken
$LN34@GetToken:
  0b4fc	00		 DB	 0
  0b4fd	01		 DB	 1
  0b4fe	07		 DB	 7
  0b4ff	07		 DB	 7
  0b500	07		 DB	 7
  0b501	07		 DB	 7
  0b502	07		 DB	 7
  0b503	07		 DB	 7
  0b504	07		 DB	 7
  0b505	07		 DB	 7
  0b506	02		 DB	 2
  0b507	03		 DB	 3
  0b508	03		 DB	 3
  0b509	07		 DB	 7
  0b50a	03		 DB	 3
  0b50b	03		 DB	 3
  0b50c	03		 DB	 3
  0b50d	03		 DB	 3
  0b50e	03		 DB	 3
  0b50f	03		 DB	 3
  0b510	03		 DB	 3
  0b511	03		 DB	 3
  0b512	03		 DB	 3
  0b513	03		 DB	 3
  0b514	07		 DB	 7
  0b515	04		 DB	 4
  0b516	07		 DB	 7
  0b517	07		 DB	 7
  0b518	07		 DB	 7
  0b519	07		 DB	 7
  0b51a	07		 DB	 7
  0b51b	07		 DB	 7
  0b51c	07		 DB	 7
  0b51d	07		 DB	 7
  0b51e	07		 DB	 7
  0b51f	07		 DB	 7
  0b520	07		 DB	 7
  0b521	07		 DB	 7
  0b522	07		 DB	 7
  0b523	07		 DB	 7
  0b524	07		 DB	 7
  0b525	07		 DB	 7
  0b526	07		 DB	 7
  0b527	07		 DB	 7
  0b528	07		 DB	 7
  0b529	07		 DB	 7
  0b52a	07		 DB	 7
  0b52b	07		 DB	 7
  0b52c	07		 DB	 7
  0b52d	07		 DB	 7
  0b52e	07		 DB	 7
  0b52f	07		 DB	 7
  0b530	07		 DB	 7
  0b531	07		 DB	 7
  0b532	07		 DB	 7
  0b533	07		 DB	 7
  0b534	07		 DB	 7
  0b535	07		 DB	 7
  0b536	07		 DB	 7
  0b537	07		 DB	 7
  0b538	07		 DB	 7
  0b539	07		 DB	 7
  0b53a	07		 DB	 7
  0b53b	07		 DB	 7
  0b53c	07		 DB	 7
  0b53d	07		 DB	 7
  0b53e	07		 DB	 7
  0b53f	07		 DB	 7
  0b540	07		 DB	 7
  0b541	07		 DB	 7
  0b542	07		 DB	 7
  0b543	07		 DB	 7
  0b544	07		 DB	 7
  0b545	07		 DB	 7
  0b546	07		 DB	 7
  0b547	07		 DB	 7
  0b548	07		 DB	 7
  0b549	07		 DB	 7
  0b54a	07		 DB	 7
  0b54b	07		 DB	 7
  0b54c	07		 DB	 7
  0b54d	07		 DB	 7
  0b54e	07		 DB	 7
  0b54f	07		 DB	 7
  0b550	07		 DB	 7
  0b551	07		 DB	 7
  0b552	07		 DB	 7
  0b553	07		 DB	 7
  0b554	07		 DB	 7
  0b555	05		 DB	 5
  0b556	07		 DB	 7
  0b557	06		 DB	 6
?GetToken@@YA?AW4SMDToken@@XZ ENDP			; GetToken
_TEXT	ENDS
PUBLIC	?OpenItemNameScript@@YAHPAD@Z			; OpenItemNameScript
; Function compile flags: /Odtp /ZI
; File d:\projects\exteam6.3\source\gameserver\common\zzzitem.cpp
_TEXT	SEGMENT
_p$232388 = -16						; size = 4
_ItemSubType$232387 = -12				; size = 4
_ItemType$232382 = -8					; size = 4
_Token$ = -4						; size = 4
_FileName$ = 8						; size = 4
?OpenItemNameScript@@YAHPAD@Z PROC			; OpenItemNameScript

; 5387 : {

  0b560	55		 push	 ebp
  0b561	8b ec		 mov	 ebp, esp
  0b563	83 ec 50	 sub	 esp, 80			; 00000050H
  0b566	53		 push	 ebx
  0b567	56		 push	 esi
  0b568	57		 push	 edi

; 5388 : 	
; 5389 : 	int Token;
; 5390 : 
; 5391 : 	SMDFile = fopen(FileName, "r");

  0b569	68 00 00 00 00	 push	 OFFSET ??_C@_01KDCPPGHE@r?$AA@
  0b56e	8b 45 08	 mov	 eax, DWORD PTR _FileName$[ebp]
  0b571	50		 push	 eax
  0b572	e8 00 00 00 00	 call	 _fopen
  0b577	83 c4 08	 add	 esp, 8
  0b57a	a3 00 00 00 00	 mov	 DWORD PTR _SMDFile, eax

; 5392 : 
; 5393 : 	if (SMDFile == 0 )

  0b57f	83 3d 00 00 00
	00 00		 cmp	 DWORD PTR _SMDFile, 0
  0b586	75 07		 jne	 SHORT $LN9@OpenItemNa

; 5394 : 	{
; 5395 : 		return FALSE;

  0b588	33 c0		 xor	 eax, eax
  0b58a	e9 b8 00 00 00	 jmp	 $LN10@OpenItemNa
$LN9@OpenItemNa:

; 5396 : 	}
; 5397 : 
; 5398 : 	while ( true )

  0b58f	b8 01 00 00 00	 mov	 eax, 1
  0b594	85 c0		 test	 eax, eax
  0b596	0f 84 98 00 00
	00		 je	 $LN7@OpenItemNa

; 5399 : 	{
; 5400 : 		Token = GetToken();

  0b59c	e8 00 00 00 00	 call	 ?GetToken@@YA?AW4SMDToken@@XZ ; GetToken
  0b5a1	89 45 fc	 mov	 DWORD PTR _Token$[ebp], eax

; 5401 : 
; 5402 : 		if ( Token == 2 )

  0b5a4	83 7d fc 02	 cmp	 DWORD PTR _Token$[ebp], 2
  0b5a8	75 05		 jne	 SHORT $LN6@OpenItemNa

; 5403 : 		{
; 5404 : 			break;

  0b5aa	e9 85 00 00 00	 jmp	 $LN7@OpenItemNa
$LN6@OpenItemNa:

; 5405 : 		}
; 5406 : 		if ( Token == 1 )

  0b5af	83 7d fc 01	 cmp	 DWORD PTR _Token$[ebp], 1
  0b5b3	75 7a		 jne	 SHORT $LN3@OpenItemNa

; 5407 : 		{
; 5408 : 			int ItemType;
; 5409 : 
; 5410 : 			ItemType = (int)TokenNumber;

  0b5b5	d9 05 00 00 00
	00		 fld	 DWORD PTR _TokenNumber
  0b5bb	e8 00 00 00 00	 call	 __ftol2_sse
  0b5c0	89 45 f8	 mov	 DWORD PTR _ItemType$232382[ebp], eax
$LN4@OpenItemNa:

; 5411 : 
; 5412 : 			while ( true )

  0b5c3	b8 01 00 00 00	 mov	 eax, 1
  0b5c8	85 c0		 test	 eax, eax
  0b5ca	74 63		 je	 SHORT $LN3@OpenItemNa

; 5413 : 			{
; 5414 : 				int ItemSubType;
; 5415 : 				LPITEM_ATTRIBUTE p;
; 5416 : 
; 5417 : 				Token = GetToken();

  0b5cc	e8 00 00 00 00	 call	 ?GetToken@@YA?AW4SMDToken@@XZ ; GetToken
  0b5d1	89 45 fc	 mov	 DWORD PTR _Token$[ebp], eax

; 5418 : 				ItemSubType = (int)TokenNumber;

  0b5d4	d9 05 00 00 00
	00		 fld	 DWORD PTR _TokenNumber
  0b5da	e8 00 00 00 00	 call	 __ftol2_sse
  0b5df	89 45 f4	 mov	 DWORD PTR _ItemSubType$232387[ebp], eax

; 5419 : 
; 5420 : 				if ( Token == 0 )

  0b5e2	83 7d fc 00	 cmp	 DWORD PTR _Token$[ebp], 0
  0b5e6	75 18		 jne	 SHORT $LN1@OpenItemNa

; 5421 : 				{
; 5422 : 					if ( strcmp("end", TokenString ) == 0 )

  0b5e8	68 00 00 00 00	 push	 OFFSET _TokenString
  0b5ed	68 00 00 00 00	 push	 OFFSET ??_C@_03JBJLGPFL@end?$AA@
  0b5f2	e8 00 00 00 00	 call	 _strcmp
  0b5f7	83 c4 08	 add	 esp, 8
  0b5fa	85 c0		 test	 eax, eax
  0b5fc	75 02		 jne	 SHORT $LN1@OpenItemNa

; 5423 : 					{
; 5424 : 						break;

  0b5fe	eb 2f		 jmp	 SHORT $LN3@OpenItemNa
$LN1@OpenItemNa:

; 5425 : 					}
; 5426 : 				}
; 5427 : 					
; 5428 : 				p = &ItemAttribute[ItemType*MAX_SUBTYPE_ITEMS + ItemSubType];

  0b600	8b 45 f8	 mov	 eax, DWORD PTR _ItemType$232382[ebp]
  0b603	c1 e0 09	 shl	 eax, 9
  0b606	03 45 f4	 add	 eax, DWORD PTR _ItemSubType$232387[ebp]
  0b609	6b c0 70	 imul	 eax, 112		; 00000070H
  0b60c	05 00 00 00 00	 add	 eax, OFFSET ?ItemAttribute@@3PAUITEM_ATTRIBUTE@@A ; ItemAttribute
  0b611	89 45 f0	 mov	 DWORD PTR _p$232388[ebp], eax

; 5429 : 
; 5430 : 				Token = GetToken();

  0b614	e8 00 00 00 00	 call	 ?GetToken@@YA?AW4SMDToken@@XZ ; GetToken
  0b619	89 45 fc	 mov	 DWORD PTR _Token$[ebp], eax

; 5431 : 				strcpy(&p->Name[0], TokenString );

  0b61c	68 00 00 00 00	 push	 OFFSET _TokenString
  0b621	8b 45 f0	 mov	 eax, DWORD PTR _p$232388[ebp]
  0b624	50		 push	 eax
  0b625	e8 00 00 00 00	 call	 _strcpy
  0b62a	83 c4 08	 add	 esp, 8

; 5432 : 
; 5433 : 				
; 5434 : 			}

  0b62d	eb 94		 jmp	 SHORT $LN4@OpenItemNa
$LN3@OpenItemNa:

; 5435 : 		}
; 5436 : 	}

  0b62f	e9 5b ff ff ff	 jmp	 $LN9@OpenItemNa
$LN7@OpenItemNa:

; 5437 : 	fclose(SMDFile);

  0b634	a1 00 00 00 00	 mov	 eax, DWORD PTR _SMDFile
  0b639	50		 push	 eax
  0b63a	e8 00 00 00 00	 call	 _fclose
  0b63f	83 c4 04	 add	 esp, 4

; 5438 : 	return TRUE;

  0b642	b8 01 00 00 00	 mov	 eax, 1
$LN10@OpenItemNa:

; 5439 : }

  0b647	5f		 pop	 edi
  0b648	5e		 pop	 esi
  0b649	5b		 pop	 ebx
  0b64a	8b e5		 mov	 esp, ebp
  0b64c	5d		 pop	 ebp
  0b64d	c3		 ret	 0
?OpenItemNameScript@@YAHPAD@Z ENDP			; OpenItemNameScript
_TEXT	ENDS
PUBLIC	__$ArrayPad$
PUBLIC	?OpenItemScript@@YAHPADH@Z			; OpenItemScript
EXTRN	??1CWzMemScript@@UAE@XZ:PROC			; CWzMemScript::~CWzMemScript
EXTRN	?GetString@CWzMemScript@@QAEPADXZ:PROC		; CWzMemScript::GetString
EXTRN	?GetNumber@CWzMemScript@@QAEHXZ:PROC		; CWzMemScript::GetNumber
EXTRN	?GetToken@CWzMemScript@@QAE?AW4SMDToken@@XZ:PROC ; CWzMemScript::GetToken
EXTRN	?SetBuffer@CWzMemScript@@QAEHPADH@Z:PROC	; CWzMemScript::SetBuffer
EXTRN	??0CWzMemScript@@QAE@XZ:PROC			; CWzMemScript::CWzMemScript
EXTRN	___CxxFrameHandler3:PROC
xdata$x	SEGMENT
__unwindtable$?OpenItemScript@@YAHPADH@Z DD 0ffffffffH
	DD	FLAT:__unwindfunclet$?OpenItemScript@@YAHPADH@Z$0
__ehfuncinfo$?OpenItemScript@@YAHPADH@Z DD 019930522H
	DD	01H
	DD	FLAT:__unwindtable$?OpenItemScript@@YAHPADH@Z
	DD	2 DUP(00H)
	DD	2 DUP(00H)
	DD	00H
	DD	01H
; Function compile flags: /Odtp /ZI
xdata$x	ENDS
_TEXT	SEGMENT
$T232906 = -244						; size = 4
_n$232431 = -176					; size = 4
_p$232413 = -172					; size = 4
_ItemSubType$232412 = -168				; size = 4
_ItemType$232408 = -164					; size = 4
_Token$ = -160						; size = 4
_loop_count$ = -156					; size = 4
_n$ = -152						; size = 4
_WzMemScript$ = -148					; size = 132
__$ArrayPad$ = -16					; size = 4
__$EHRec$ = -12						; size = 12
_Buffer$ = 8						; size = 4
_iSize$ = 12						; size = 4
?OpenItemScript@@YAHPADH@Z PROC				; OpenItemScript

; 5442 : {

  0b650	55		 push	 ebp
  0b651	8b ec		 mov	 ebp, esp
  0b653	6a ff		 push	 -1
  0b655	68 00 00 00 00	 push	 __ehhandler$?OpenItemScript@@YAHPADH@Z
  0b65a	64 a1 00 00 00
	00		 mov	 eax, DWORD PTR fs:0
  0b660	50		 push	 eax
  0b661	81 ec e8 00 00
	00		 sub	 esp, 232		; 000000e8H
  0b667	a1 00 00 00 00	 mov	 eax, DWORD PTR ___security_cookie
  0b66c	33 c5		 xor	 eax, ebp
  0b66e	89 45 f0	 mov	 DWORD PTR __$ArrayPad$[ebp], eax
  0b671	53		 push	 ebx
  0b672	56		 push	 esi
  0b673	57		 push	 edi
  0b674	50		 push	 eax
  0b675	8d 45 f4	 lea	 eax, DWORD PTR __$EHRec$[ebp]
  0b678	64 a3 00 00 00
	00		 mov	 DWORD PTR fs:0, eax

; 5443 : 	CWzMemScript WzMemScript;

  0b67e	8d 8d 6c ff ff
	ff		 lea	 ecx, DWORD PTR _WzMemScript$[ebp]
  0b684	e8 00 00 00 00	 call	 ??0CWzMemScript@@QAE@XZ	; CWzMemScript::CWzMemScript
  0b689	c7 45 fc 00 00
	00 00		 mov	 DWORD PTR __$EHRec$[ebp+8], 0

; 5444 : 	int n;
; 5445 : 	int loop_count;
; 5446 : 
; 5447 : 	int Token;
; 5448 : 
; 5449 : 	WzMemScript.SetBuffer(Buffer, iSize);

  0b690	8b 45 0c	 mov	 eax, DWORD PTR _iSize$[ebp]
  0b693	50		 push	 eax
  0b694	8b 4d 08	 mov	 ecx, DWORD PTR _Buffer$[ebp]
  0b697	51		 push	 ecx
  0b698	8d 8d 6c ff ff
	ff		 lea	 ecx, DWORD PTR _WzMemScript$[ebp]
  0b69e	e8 00 00 00 00	 call	 ?SetBuffer@CWzMemScript@@QAEHPADH@Z ; CWzMemScript::SetBuffer

; 5450 : 
; 5451 : 	memset ( ItemAttribute, 0, sizeof(ItemAttribute) );

  0b6a3	68 00 00 0e 00	 push	 917504			; 000e0000H
  0b6a8	6a 00		 push	 0
  0b6aa	68 00 00 00 00	 push	 OFFSET ?ItemAttribute@@3PAUITEM_ATTRIBUTE@@A ; ItemAttribute
  0b6af	e8 00 00 00 00	 call	 _memset
  0b6b4	83 c4 0c	 add	 esp, 12			; 0000000cH

; 5452 : 	
; 5453 : 	for ( n=0;n<MAX_ITEMS;n++)

  0b6b7	c7 85 68 ff ff
	ff 00 00 00 00	 mov	 DWORD PTR _n$[ebp], 0
  0b6c1	eb 0f		 jmp	 SHORT $LN36@OpenItemSc@2
$LN35@OpenItemSc@2:
  0b6c3	8b 85 68 ff ff
	ff		 mov	 eax, DWORD PTR _n$[ebp]
  0b6c9	83 c0 01	 add	 eax, 1
  0b6cc	89 85 68 ff ff
	ff		 mov	 DWORD PTR _n$[ebp], eax
$LN36@OpenItemSc@2:
  0b6d2	81 bd 68 ff ff
	ff 00 20 00 00	 cmp	 DWORD PTR _n$[ebp], 8192 ; 00002000H
  0b6dc	7d 34		 jge	 SHORT $LN34@OpenItemSc@2

; 5454 : 	{
; 5455 : 		ItemAttribute[n].Level = -1;

  0b6de	8b 85 68 ff ff
	ff		 mov	 eax, DWORD PTR _n$[ebp]
  0b6e4	6b c0 70	 imul	 eax, 112		; 00000070H
  0b6e7	c6 80 22 00 00
	00 ff		 mov	 BYTE PTR ?ItemAttribute@@3PAUITEM_ATTRIBUTE@@A[eax+34], 255 ; 000000ffH

; 5456 : 		ItemAttribute[n].RepaireMoneyRate  = 0;

  0b6ee	8b 85 68 ff ff
	ff		 mov	 eax, DWORD PTR _n$[ebp]
  0b6f4	6b c0 70	 imul	 eax, 112		; 00000070H
  0b6f7	d9 ee		 fldz
  0b6f9	d9 98 58 00 00
	00		 fstp	 DWORD PTR ?ItemAttribute@@3PAUITEM_ATTRIBUTE@@A[eax+88]

; 5457 : 		ItemAttribute[n].AllRepaireMoneyRate  = 0;

  0b6ff	8b 85 68 ff ff
	ff		 mov	 eax, DWORD PTR _n$[ebp]
  0b705	6b c0 70	 imul	 eax, 112		; 00000070H
  0b708	d9 ee		 fldz
  0b70a	d9 98 5c 00 00
	00		 fstp	 DWORD PTR ?ItemAttribute@@3PAUITEM_ATTRIBUTE@@A[eax+92]

; 5458 : 	}

  0b710	eb b1		 jmp	 SHORT $LN35@OpenItemSc@2
$LN34@OpenItemSc@2:

; 5459 : 
; 5460 : 	while ( true )

  0b712	b8 01 00 00 00	 mov	 eax, 1
  0b717	85 c0		 test	 eax, eax
  0b719	0f 84 1e 0d 00
	00		 je	 $LN32@OpenItemSc@2

; 5461 : 	{
; 5462 : 		Token = WzMemScript.GetToken();

  0b71f	8d 8d 6c ff ff
	ff		 lea	 ecx, DWORD PTR _WzMemScript$[ebp]
  0b725	e8 00 00 00 00	 call	 ?GetToken@CWzMemScript@@QAE?AW4SMDToken@@XZ ; CWzMemScript::GetToken
  0b72a	89 85 60 ff ff
	ff		 mov	 DWORD PTR _Token$[ebp], eax

; 5463 : 
; 5464 : 		if ( Token == 2 )

  0b730	83 bd 60 ff ff
	ff 02		 cmp	 DWORD PTR _Token$[ebp], 2
  0b737	75 05		 jne	 SHORT $LN31@OpenItemSc@2

; 5465 : 		{
; 5466 : 			break;

  0b739	e9 ff 0c 00 00	 jmp	 $LN32@OpenItemSc@2
$LN31@OpenItemSc@2:

; 5467 : 		}
; 5468 : 		
; 5469 : 		if ( Token == 1 )

  0b73e	83 bd 60 ff ff
	ff 01		 cmp	 DWORD PTR _Token$[ebp], 1
  0b745	0f 85 ed 0c 00
	00		 jne	 $LN28@OpenItemSc@2

; 5470 : 		{
; 5471 : 			int ItemType;
; 5472 : 
; 5473 : 			ItemType = WzMemScript.GetNumber();

  0b74b	8d 8d 6c ff ff
	ff		 lea	 ecx, DWORD PTR _WzMemScript$[ebp]
  0b751	e8 00 00 00 00	 call	 ?GetNumber@CWzMemScript@@QAEHXZ ; CWzMemScript::GetNumber
  0b756	89 85 5c ff ff
	ff		 mov	 DWORD PTR _ItemType$232408[ebp], eax

; 5474 : 			loop_count = 0;

  0b75c	c7 85 64 ff ff
	ff 00 00 00 00	 mov	 DWORD PTR _loop_count$[ebp], 0
$LN29@OpenItemSc@2:

; 5475 : 			while ( true )

  0b766	b8 01 00 00 00	 mov	 eax, 1
  0b76b	85 c0		 test	 eax, eax
  0b76d	0f 84 c5 0c 00
	00		 je	 $LN28@OpenItemSc@2

; 5476 : 			{
; 5477 : 				int ItemSubType;
; 5478 : 				LPITEM_ATTRIBUTE p;
; 5479 : 
; 5480 : 				
; 5481 : 				Token = WzMemScript.GetToken();

  0b773	8d 8d 6c ff ff
	ff		 lea	 ecx, DWORD PTR _WzMemScript$[ebp]
  0b779	e8 00 00 00 00	 call	 ?GetToken@CWzMemScript@@QAE?AW4SMDToken@@XZ ; CWzMemScript::GetToken
  0b77e	89 85 60 ff ff
	ff		 mov	 DWORD PTR _Token$[ebp], eax

; 5482 : 				ItemSubType = WzMemScript.GetNumber();

  0b784	8d 8d 6c ff ff
	ff		 lea	 ecx, DWORD PTR _WzMemScript$[ebp]
  0b78a	e8 00 00 00 00	 call	 ?GetNumber@CWzMemScript@@QAEHXZ ; CWzMemScript::GetNumber
  0b78f	89 85 58 ff ff
	ff		 mov	 DWORD PTR _ItemSubType$232412[ebp], eax

; 5483 : 
; 5484 : 				if ( ItemType >= 0 && ItemType < MAX_TYPE_ITEMS )

  0b795	83 bd 5c ff ff
	ff 00		 cmp	 DWORD PTR _ItemType$232408[ebp], 0
  0b79c	7c 31		 jl	 SHORT $LN26@OpenItemSc@2
  0b79e	83 bd 5c ff ff
	ff 10		 cmp	 DWORD PTR _ItemType$232408[ebp], 16 ; 00000010H
  0b7a5	7d 28		 jge	 SHORT $LN26@OpenItemSc@2

; 5485 : 				{
; 5486 : 					if ( g_MaxItemIndexOfEachItemType[ItemType] <= ItemSubType )

  0b7a7	8b 85 5c ff ff
	ff		 mov	 eax, DWORD PTR _ItemType$232408[ebp]
  0b7ad	8b 0c 85 00 00
	00 00		 mov	 ecx, DWORD PTR ?g_MaxItemIndexOfEachItemType@@3PAHA[eax*4]
  0b7b4	3b 8d 58 ff ff
	ff		 cmp	 ecx, DWORD PTR _ItemSubType$232412[ebp]
  0b7ba	7f 13		 jg	 SHORT $LN26@OpenItemSc@2

; 5487 : 					{
; 5488 : 						g_MaxItemIndexOfEachItemType[ItemType] = ItemSubType;

  0b7bc	8b 85 5c ff ff
	ff		 mov	 eax, DWORD PTR _ItemType$232408[ebp]
  0b7c2	8b 8d 58 ff ff
	ff		 mov	 ecx, DWORD PTR _ItemSubType$232412[ebp]
  0b7c8	89 0c 85 00 00
	00 00		 mov	 DWORD PTR ?g_MaxItemIndexOfEachItemType@@3PAHA[eax*4], ecx
$LN26@OpenItemSc@2:

; 5489 : 					}
; 5490 : 				}
; 5491 : 				
; 5492 : 				if ( Token == 0 )

  0b7cf	83 bd 60 ff ff
	ff 00		 cmp	 DWORD PTR _Token$[ebp], 0
  0b7d6	75 22		 jne	 SHORT $LN24@OpenItemSc@2

; 5493 : 				{
; 5494 : 					if ( strcmp("end", WzMemScript.GetString() ) == 0 )

  0b7d8	8d 8d 6c ff ff
	ff		 lea	 ecx, DWORD PTR _WzMemScript$[ebp]
  0b7de	e8 00 00 00 00	 call	 ?GetString@CWzMemScript@@QAEPADXZ ; CWzMemScript::GetString
  0b7e3	50		 push	 eax
  0b7e4	68 00 00 00 00	 push	 OFFSET ??_C@_03JBJLGPFL@end?$AA@
  0b7e9	e8 00 00 00 00	 call	 _strcmp
  0b7ee	83 c4 08	 add	 esp, 8
  0b7f1	85 c0		 test	 eax, eax
  0b7f3	75 05		 jne	 SHORT $LN24@OpenItemSc@2

; 5495 : 					{
; 5496 : 						break;

  0b7f5	e9 3e 0c 00 00	 jmp	 $LN28@OpenItemSc@2
$LN24@OpenItemSc@2:

; 5497 : 					}
; 5498 : 				}
; 5499 : 					
; 5500 : 				p = &ItemAttribute[ItemType*MAX_SUBTYPE_ITEMS + ItemSubType];

  0b7fa	8b 85 5c ff ff
	ff		 mov	 eax, DWORD PTR _ItemType$232408[ebp]
  0b800	c1 e0 09	 shl	 eax, 9
  0b803	03 85 58 ff ff
	ff		 add	 eax, DWORD PTR _ItemSubType$232412[ebp]
  0b809	6b c0 70	 imul	 eax, 112		; 00000070H
  0b80c	05 00 00 00 00	 add	 eax, OFFSET ?ItemAttribute@@3PAUITEM_ATTRIBUTE@@A ; ItemAttribute
  0b811	89 85 54 ff ff
	ff		 mov	 DWORD PTR _p$232413[ebp], eax

; 5501 : 
; 5502 : 				Token = WzMemScript.GetToken();

  0b817	8d 8d 6c ff ff
	ff		 lea	 ecx, DWORD PTR _WzMemScript$[ebp]
  0b81d	e8 00 00 00 00	 call	 ?GetToken@CWzMemScript@@QAE?AW4SMDToken@@XZ ; CWzMemScript::GetToken
  0b822	89 85 60 ff ff
	ff		 mov	 DWORD PTR _Token$[ebp], eax

; 5503 : 				p->ItemSlot = WzMemScript.GetNumber();

  0b828	8d 8d 6c ff ff
	ff		 lea	 ecx, DWORD PTR _WzMemScript$[ebp]
  0b82e	e8 00 00 00 00	 call	 ?GetNumber@CWzMemScript@@QAEHXZ ; CWzMemScript::GetNumber
  0b833	8b 8d 54 ff ff
	ff		 mov	 ecx, DWORD PTR _p$232413[ebp]
  0b839	89 41 64	 mov	 DWORD PTR [ecx+100], eax

; 5504 : 
; 5505 : 				Token = WzMemScript.GetToken();

  0b83c	8d 8d 6c ff ff
	ff		 lea	 ecx, DWORD PTR _WzMemScript$[ebp]
  0b842	e8 00 00 00 00	 call	 ?GetToken@CWzMemScript@@QAE?AW4SMDToken@@XZ ; CWzMemScript::GetToken
  0b847	89 85 60 ff ff
	ff		 mov	 DWORD PTR _Token$[ebp], eax

; 5506 : 				p->SkillType = WzMemScript.GetNumber();

  0b84d	8d 8d 6c ff ff
	ff		 lea	 ecx, DWORD PTR _WzMemScript$[ebp]
  0b853	e8 00 00 00 00	 call	 ?GetNumber@CWzMemScript@@QAEHXZ ; CWzMemScript::GetNumber
  0b858	8b 8d 54 ff ff
	ff		 mov	 ecx, DWORD PTR _p$232413[ebp]
  0b85e	89 41 68	 mov	 DWORD PTR [ecx+104], eax

; 5507 : 
; 5508 : 				Token = WzMemScript.GetToken();

  0b861	8d 8d 6c ff ff
	ff		 lea	 ecx, DWORD PTR _WzMemScript$[ebp]
  0b867	e8 00 00 00 00	 call	 ?GetToken@CWzMemScript@@QAE?AW4SMDToken@@XZ ; CWzMemScript::GetToken
  0b86c	89 85 60 ff ff
	ff		 mov	 DWORD PTR _Token$[ebp], eax

; 5509 : 				p->Width  = WzMemScript.GetNumber();

  0b872	8d 8d 6c ff ff
	ff		 lea	 ecx, DWORD PTR _WzMemScript$[ebp]
  0b878	e8 00 00 00 00	 call	 ?GetNumber@CWzMemScript@@QAEHXZ ; CWzMemScript::GetNumber
  0b87d	8b 8d 54 ff ff
	ff		 mov	 ecx, DWORD PTR _p$232413[ebp]
  0b883	88 41 23	 mov	 BYTE PTR [ecx+35], al

; 5510 : 
; 5511 : 				Token = WzMemScript.GetToken();

  0b886	8d 8d 6c ff ff
	ff		 lea	 ecx, DWORD PTR _WzMemScript$[ebp]
  0b88c	e8 00 00 00 00	 call	 ?GetToken@CWzMemScript@@QAE?AW4SMDToken@@XZ ; CWzMemScript::GetToken
  0b891	89 85 60 ff ff
	ff		 mov	 DWORD PTR _Token$[ebp], eax

; 5512 : 				p->Height  = WzMemScript.GetNumber();

  0b897	8d 8d 6c ff ff
	ff		 lea	 ecx, DWORD PTR _WzMemScript$[ebp]
  0b89d	e8 00 00 00 00	 call	 ?GetNumber@CWzMemScript@@QAEHXZ ; CWzMemScript::GetNumber
  0b8a2	8b 8d 54 ff ff
	ff		 mov	 ecx, DWORD PTR _p$232413[ebp]
  0b8a8	88 41 24	 mov	 BYTE PTR [ecx+36], al

; 5513 : 
; 5514 : 				Token = WzMemScript.GetToken();

  0b8ab	8d 8d 6c ff ff
	ff		 lea	 ecx, DWORD PTR _WzMemScript$[ebp]
  0b8b1	e8 00 00 00 00	 call	 ?GetToken@CWzMemScript@@QAE?AW4SMDToken@@XZ ; CWzMemScript::GetToken
  0b8b6	89 85 60 ff ff
	ff		 mov	 DWORD PTR _Token$[ebp], eax

; 5515 : 				p->Serial = WzMemScript.GetNumber();

  0b8bc	8d 8d 6c ff ff
	ff		 lea	 ecx, DWORD PTR _WzMemScript$[ebp]
  0b8c2	e8 00 00 00 00	 call	 ?GetNumber@CWzMemScript@@QAEHXZ ; CWzMemScript::GetNumber
  0b8c7	8b 8d 54 ff ff
	ff		 mov	 ecx, DWORD PTR _p$232413[ebp]
  0b8cd	88 41 25	 mov	 BYTE PTR [ecx+37], al

; 5516 : 
; 5517 : 				Token = WzMemScript.GetToken();

  0b8d0	8d 8d 6c ff ff
	ff		 lea	 ecx, DWORD PTR _WzMemScript$[ebp]
  0b8d6	e8 00 00 00 00	 call	 ?GetToken@CWzMemScript@@QAE?AW4SMDToken@@XZ ; CWzMemScript::GetToken
  0b8db	89 85 60 ff ff
	ff		 mov	 DWORD PTR _Token$[ebp], eax

; 5518 : 				p->OptionFlag = WzMemScript.GetNumber();

  0b8e1	8d 8d 6c ff ff
	ff		 lea	 ecx, DWORD PTR _WzMemScript$[ebp]
  0b8e7	e8 00 00 00 00	 call	 ?GetNumber@CWzMemScript@@QAEHXZ ; CWzMemScript::GetNumber
  0b8ec	8b 8d 54 ff ff
	ff		 mov	 ecx, DWORD PTR _p$232413[ebp]
  0b8f2	88 41 26	 mov	 BYTE PTR [ecx+38], al

; 5519 : 
; 5520 : 				Token = WzMemScript.GetToken();

  0b8f5	8d 8d 6c ff ff
	ff		 lea	 ecx, DWORD PTR _WzMemScript$[ebp]
  0b8fb	e8 00 00 00 00	 call	 ?GetToken@CWzMemScript@@QAE?AW4SMDToken@@XZ ; CWzMemScript::GetToken
  0b900	89 85 60 ff ff
	ff		 mov	 DWORD PTR _Token$[ebp], eax

; 5521 : 				p->MondownFlag = WzMemScript.GetNumber();

  0b906	8d 8d 6c ff ff
	ff		 lea	 ecx, DWORD PTR _WzMemScript$[ebp]
  0b90c	e8 00 00 00 00	 call	 ?GetNumber@CWzMemScript@@QAEHXZ ; CWzMemScript::GetNumber
  0b911	8b 8d 54 ff ff
	ff		 mov	 ecx, DWORD PTR _p$232413[ebp]
  0b917	88 41 27	 mov	 BYTE PTR [ecx+39], al

; 5522 : 
; 5523 : 				Token = WzMemScript.GetToken();

  0b91a	8d 8d 6c ff ff
	ff		 lea	 ecx, DWORD PTR _WzMemScript$[ebp]
  0b920	e8 00 00 00 00	 call	 ?GetToken@CWzMemScript@@QAE?AW4SMDToken@@XZ ; CWzMemScript::GetToken
  0b925	89 85 60 ff ff
	ff		 mov	 DWORD PTR _Token$[ebp], eax

; 5524 : 				strcpy(&p->Name[0], WzMemScript.GetString() );

  0b92b	8d 8d 6c ff ff
	ff		 lea	 ecx, DWORD PTR _WzMemScript$[ebp]
  0b931	e8 00 00 00 00	 call	 ?GetString@CWzMemScript@@QAEPADXZ ; CWzMemScript::GetString
  0b936	50		 push	 eax
  0b937	8b 85 54 ff ff
	ff		 mov	 eax, DWORD PTR _p$232413[ebp]
  0b93d	50		 push	 eax
  0b93e	e8 00 00 00 00	 call	 _strcpy
  0b943	83 c4 08	 add	 esp, 8

; 5525 : 
; 5526 : 				if ( ItemType >= 0 && ItemType <= 5 )

  0b946	83 bd 5c ff ff
	ff 00		 cmp	 DWORD PTR _ItemType$232408[ebp], 0
  0b94d	0f 8c 2b 02 00
	00		 jl	 $LN23@OpenItemSc@2
  0b953	83 bd 5c ff ff
	ff 05		 cmp	 DWORD PTR _ItemType$232408[ebp], 5
  0b95a	0f 8f 1e 02 00
	00		 jg	 $LN23@OpenItemSc@2

; 5527 : 				{
; 5528 : 					Token = WzMemScript.GetToken();

  0b960	8d 8d 6c ff ff
	ff		 lea	 ecx, DWORD PTR _WzMemScript$[ebp]
  0b966	e8 00 00 00 00	 call	 ?GetToken@CWzMemScript@@QAE?AW4SMDToken@@XZ ; CWzMemScript::GetToken
  0b96b	89 85 60 ff ff
	ff		 mov	 DWORD PTR _Token$[ebp], eax

; 5529 : 					p->Level = WzMemScript.GetNumber();

  0b971	8d 8d 6c ff ff
	ff		 lea	 ecx, DWORD PTR _WzMemScript$[ebp]
  0b977	e8 00 00 00 00	 call	 ?GetNumber@CWzMemScript@@QAEHXZ ; CWzMemScript::GetNumber
  0b97c	8b 8d 54 ff ff
	ff		 mov	 ecx, DWORD PTR _p$232413[ebp]
  0b982	88 41 22	 mov	 BYTE PTR [ecx+34], al

; 5530 : 
; 5531 : 					Token = WzMemScript.GetToken();

  0b985	8d 8d 6c ff ff
	ff		 lea	 ecx, DWORD PTR _WzMemScript$[ebp]
  0b98b	e8 00 00 00 00	 call	 ?GetToken@CWzMemScript@@QAE?AW4SMDToken@@XZ ; CWzMemScript::GetToken
  0b990	89 85 60 ff ff
	ff		 mov	 DWORD PTR _Token$[ebp], eax

; 5532 : 					p->DamageMin = WzMemScript.GetNumber();

  0b996	8d 8d 6c ff ff
	ff		 lea	 ecx, DWORD PTR _WzMemScript$[ebp]
  0b99c	e8 00 00 00 00	 call	 ?GetNumber@CWzMemScript@@QAEHXZ ; CWzMemScript::GetNumber
  0b9a1	8b 8d 54 ff ff
	ff		 mov	 ecx, DWORD PTR _p$232413[ebp]
  0b9a7	88 41 2a	 mov	 BYTE PTR [ecx+42], al

; 5533 : 
; 5534 : 					Token = WzMemScript.GetToken();

  0b9aa	8d 8d 6c ff ff
	ff		 lea	 ecx, DWORD PTR _WzMemScript$[ebp]
  0b9b0	e8 00 00 00 00	 call	 ?GetToken@CWzMemScript@@QAE?AW4SMDToken@@XZ ; CWzMemScript::GetToken
  0b9b5	89 85 60 ff ff
	ff		 mov	 DWORD PTR _Token$[ebp], eax

; 5535 : 					p->DamageMax = WzMemScript.GetNumber();

  0b9bb	8d 8d 6c ff ff
	ff		 lea	 ecx, DWORD PTR _WzMemScript$[ebp]
  0b9c1	e8 00 00 00 00	 call	 ?GetNumber@CWzMemScript@@QAEHXZ ; CWzMemScript::GetNumber
  0b9c6	8b 8d 54 ff ff
	ff		 mov	 ecx, DWORD PTR _p$232413[ebp]
  0b9cc	88 41 2b	 mov	 BYTE PTR [ecx+43], al

; 5536 : 
; 5537 : 					Token = WzMemScript.GetToken();

  0b9cf	8d 8d 6c ff ff
	ff		 lea	 ecx, DWORD PTR _WzMemScript$[ebp]
  0b9d5	e8 00 00 00 00	 call	 ?GetToken@CWzMemScript@@QAE?AW4SMDToken@@XZ ; CWzMemScript::GetToken
  0b9da	89 85 60 ff ff
	ff		 mov	 DWORD PTR _Token$[ebp], eax

; 5538 : 					p->AttackSpeed = WzMemScript.GetNumber();

  0b9e0	8d 8d 6c ff ff
	ff		 lea	 ecx, DWORD PTR _WzMemScript$[ebp]
  0b9e6	e8 00 00 00 00	 call	 ?GetNumber@CWzMemScript@@QAEHXZ ; CWzMemScript::GetNumber
  0b9eb	8b 8d 54 ff ff
	ff		 mov	 ecx, DWORD PTR _p$232413[ebp]
  0b9f1	88 41 28	 mov	 BYTE PTR [ecx+40], al

; 5539 : 
; 5540 : 					Token = WzMemScript.GetToken();

  0b9f4	8d 8d 6c ff ff
	ff		 lea	 ecx, DWORD PTR _WzMemScript$[ebp]
  0b9fa	e8 00 00 00 00	 call	 ?GetToken@CWzMemScript@@QAE?AW4SMDToken@@XZ ; CWzMemScript::GetToken
  0b9ff	89 85 60 ff ff
	ff		 mov	 DWORD PTR _Token$[ebp], eax

; 5541 : 					p->Durability = WzMemScript.GetNumber();

  0ba05	8d 8d 6c ff ff
	ff		 lea	 ecx, DWORD PTR _WzMemScript$[ebp]
  0ba0b	e8 00 00 00 00	 call	 ?GetNumber@CWzMemScript@@QAEHXZ ; CWzMemScript::GetNumber
  0ba10	8b 8d 54 ff ff
	ff		 mov	 ecx, DWORD PTR _p$232413[ebp]
  0ba16	88 41 30	 mov	 BYTE PTR [ecx+48], al

; 5542 : 
; 5543 : 					Token = WzMemScript.GetToken();

  0ba19	8d 8d 6c ff ff
	ff		 lea	 ecx, DWORD PTR _WzMemScript$[ebp]
  0ba1f	e8 00 00 00 00	 call	 ?GetToken@CWzMemScript@@QAE?AW4SMDToken@@XZ ; CWzMemScript::GetToken
  0ba24	89 85 60 ff ff
	ff		 mov	 DWORD PTR _Token$[ebp], eax

; 5544 : 					p->MagicDurability = WzMemScript.GetNumber();

  0ba2a	8d 8d 6c ff ff
	ff		 lea	 ecx, DWORD PTR _WzMemScript$[ebp]
  0ba30	e8 00 00 00 00	 call	 ?GetNumber@CWzMemScript@@QAEHXZ ; CWzMemScript::GetNumber
  0ba35	8b 8d 54 ff ff
	ff		 mov	 ecx, DWORD PTR _p$232413[ebp]
  0ba3b	88 41 31	 mov	 BYTE PTR [ecx+49], al

; 5545 : 
; 5546 : 					Token = WzMemScript.GetToken();

  0ba3e	8d 8d 6c ff ff
	ff		 lea	 ecx, DWORD PTR _WzMemScript$[ebp]
  0ba44	e8 00 00 00 00	 call	 ?GetToken@CWzMemScript@@QAE?AW4SMDToken@@XZ ; CWzMemScript::GetToken
  0ba49	89 85 60 ff ff
	ff		 mov	 DWORD PTR _Token$[ebp], eax

; 5547 : 					p->MagicPW = WzMemScript.GetNumber();

  0ba4f	8d 8d 6c ff ff
	ff		 lea	 ecx, DWORD PTR _WzMemScript$[ebp]
  0ba55	e8 00 00 00 00	 call	 ?GetNumber@CWzMemScript@@QAEHXZ ; CWzMemScript::GetNumber
  0ba5a	8b 8d 54 ff ff
	ff		 mov	 ecx, DWORD PTR _p$232413[ebp]
  0ba60	89 41 54	 mov	 DWORD PTR [ecx+84], eax

; 5548 : 
; 5549 : 					Token = WzMemScript.GetToken();

  0ba63	8d 8d 6c ff ff
	ff		 lea	 ecx, DWORD PTR _WzMemScript$[ebp]
  0ba69	e8 00 00 00 00	 call	 ?GetToken@CWzMemScript@@QAE?AW4SMDToken@@XZ ; CWzMemScript::GetToken
  0ba6e	89 85 60 ff ff
	ff		 mov	 DWORD PTR _Token$[ebp], eax

; 5550 : 					p->RequireLevel = WzMemScript.GetNumber();

  0ba74	8d 8d 6c ff ff
	ff		 lea	 ecx, DWORD PTR _WzMemScript$[ebp]
  0ba7a	e8 00 00 00 00	 call	 ?GetNumber@CWzMemScript@@QAEHXZ ; CWzMemScript::GetNumber
  0ba7f	8b 8d 54 ff ff
	ff		 mov	 ecx, DWORD PTR _p$232413[ebp]
  0ba85	66 89 41 3a	 mov	 WORD PTR [ecx+58], ax

; 5551 : 
; 5552 : 					Token = WzMemScript.GetToken();

  0ba89	8d 8d 6c ff ff
	ff		 lea	 ecx, DWORD PTR _WzMemScript$[ebp]
  0ba8f	e8 00 00 00 00	 call	 ?GetToken@CWzMemScript@@QAE?AW4SMDToken@@XZ ; CWzMemScript::GetToken
  0ba94	89 85 60 ff ff
	ff		 mov	 DWORD PTR _Token$[ebp], eax

; 5553 : 					p->RequireStrength = WzMemScript.GetNumber();

  0ba9a	8d 8d 6c ff ff
	ff		 lea	 ecx, DWORD PTR _WzMemScript$[ebp]
  0baa0	e8 00 00 00 00	 call	 ?GetNumber@CWzMemScript@@QAEHXZ ; CWzMemScript::GetNumber
  0baa5	8b 8d 54 ff ff
	ff		 mov	 ecx, DWORD PTR _p$232413[ebp]
  0baab	66 89 41 34	 mov	 WORD PTR [ecx+52], ax

; 5554 : 
; 5555 : 					Token = WzMemScript.GetToken();

  0baaf	8d 8d 6c ff ff
	ff		 lea	 ecx, DWORD PTR _WzMemScript$[ebp]
  0bab5	e8 00 00 00 00	 call	 ?GetToken@CWzMemScript@@QAE?AW4SMDToken@@XZ ; CWzMemScript::GetToken
  0baba	89 85 60 ff ff
	ff		 mov	 DWORD PTR _Token$[ebp], eax

; 5556 : 					p->RequireDexterity = WzMemScript.GetNumber();

  0bac0	8d 8d 6c ff ff
	ff		 lea	 ecx, DWORD PTR _WzMemScript$[ebp]
  0bac6	e8 00 00 00 00	 call	 ?GetNumber@CWzMemScript@@QAEHXZ ; CWzMemScript::GetNumber
  0bacb	8b 8d 54 ff ff
	ff		 mov	 ecx, DWORD PTR _p$232413[ebp]
  0bad1	66 89 41 36	 mov	 WORD PTR [ecx+54], ax

; 5557 : 
; 5558 : 					Token = WzMemScript.GetToken();

  0bad5	8d 8d 6c ff ff
	ff		 lea	 ecx, DWORD PTR _WzMemScript$[ebp]
  0badb	e8 00 00 00 00	 call	 ?GetToken@CWzMemScript@@QAE?AW4SMDToken@@XZ ; CWzMemScript::GetToken
  0bae0	89 85 60 ff ff
	ff		 mov	 DWORD PTR _Token$[ebp], eax

; 5559 : 					p->RequireEnergy = WzMemScript.GetNumber();

  0bae6	8d 8d 6c ff ff
	ff		 lea	 ecx, DWORD PTR _WzMemScript$[ebp]
  0baec	e8 00 00 00 00	 call	 ?GetNumber@CWzMemScript@@QAEHXZ ; CWzMemScript::GetNumber
  0baf1	8b 8d 54 ff ff
	ff		 mov	 ecx, DWORD PTR _p$232413[ebp]
  0baf7	66 89 41 38	 mov	 WORD PTR [ecx+56], ax

; 5560 : 
; 5561 : 					Token = WzMemScript.GetToken();

  0bafb	8d 8d 6c ff ff
	ff		 lea	 ecx, DWORD PTR _WzMemScript$[ebp]
  0bb01	e8 00 00 00 00	 call	 ?GetToken@CWzMemScript@@QAE?AW4SMDToken@@XZ ; CWzMemScript::GetToken
  0bb06	89 85 60 ff ff
	ff		 mov	 DWORD PTR _Token$[ebp], eax

; 5562 : 					p->RequireVitality = WzMemScript.GetNumber();

  0bb0c	8d 8d 6c ff ff
	ff		 lea	 ecx, DWORD PTR _WzMemScript$[ebp]
  0bb12	e8 00 00 00 00	 call	 ?GetNumber@CWzMemScript@@QAEHXZ ; CWzMemScript::GetNumber
  0bb17	8b 8d 54 ff ff
	ff		 mov	 ecx, DWORD PTR _p$232413[ebp]
  0bb1d	66 89 41 4c	 mov	 WORD PTR [ecx+76], ax

; 5563 : 
; 5564 : 					Token = WzMemScript.GetToken();

  0bb21	8d 8d 6c ff ff
	ff		 lea	 ecx, DWORD PTR _WzMemScript$[ebp]
  0bb27	e8 00 00 00 00	 call	 ?GetToken@CWzMemScript@@QAE?AW4SMDToken@@XZ ; CWzMemScript::GetToken
  0bb2c	89 85 60 ff ff
	ff		 mov	 DWORD PTR _Token$[ebp], eax

; 5565 : 					p->RequireLeadership = WzMemScript.GetNumber();

  0bb32	8d 8d 6c ff ff
	ff		 lea	 ecx, DWORD PTR _WzMemScript$[ebp]
  0bb38	e8 00 00 00 00	 call	 ?GetNumber@CWzMemScript@@QAEHXZ ; CWzMemScript::GetNumber
  0bb3d	8b 8d 54 ff ff
	ff		 mov	 ecx, DWORD PTR _p$232413[ebp]
  0bb43	89 41 6c	 mov	 DWORD PTR [ecx+108], eax

; 5566 : 
; 5567 : 					if ( p->Width  >= 2)

  0bb46	8b 85 54 ff ff
	ff		 mov	 eax, DWORD PTR _p$232413[ebp]
  0bb4c	0f b6 48 23	 movzx	 ecx, BYTE PTR [eax+35]
  0bb50	83 f9 02	 cmp	 ecx, 2
  0bb53	7c 0a		 jl	 SHORT $LN22@OpenItemSc@2

; 5568 : 					{
; 5569 : 						p->TwoHand = TRUE;

  0bb55	8b 85 54 ff ff
	ff		 mov	 eax, DWORD PTR _p$232413[ebp]
  0bb5b	c6 40 21 01	 mov	 BYTE PTR [eax+33], 1
$LN22@OpenItemSc@2:

; 5570 : 					}
; 5571 : 
; 5572 : 					(BYTE)p->Durability += (BYTE)p->MagicDurability;

  0bb5f	8b 85 54 ff ff
	ff		 mov	 eax, DWORD PTR _p$232413[ebp]
  0bb65	0f b6 48 31	 movzx	 ecx, BYTE PTR [eax+49]
  0bb69	8b 95 54 ff ff
	ff		 mov	 edx, DWORD PTR _p$232413[ebp]
  0bb6f	0f b6 42 30	 movzx	 eax, BYTE PTR [edx+48]
  0bb73	03 c1		 add	 eax, ecx
  0bb75	8b 8d 54 ff ff
	ff		 mov	 ecx, DWORD PTR _p$232413[ebp]
  0bb7b	88 41 30	 mov	 BYTE PTR [ecx+48], al
$LN23@OpenItemSc@2:

; 5573 : 				}
; 5574 : 
; 5575 : 				if ( ItemType >= 6 && ItemType <= 11 )

  0bb7e	83 bd 5c ff ff
	ff 06		 cmp	 DWORD PTR _ItemType$232408[ebp], 6
  0bb85	0f 8c 9b 02 00
	00		 jl	 $LN21@OpenItemSc@2
  0bb8b	83 bd 5c ff ff
	ff 0b		 cmp	 DWORD PTR _ItemType$232408[ebp], 11 ; 0000000bH
  0bb92	0f 8f 8e 02 00
	00		 jg	 $LN21@OpenItemSc@2

; 5576 : 				{
; 5577 : 					Token = WzMemScript.GetToken();

  0bb98	8d 8d 6c ff ff
	ff		 lea	 ecx, DWORD PTR _WzMemScript$[ebp]
  0bb9e	e8 00 00 00 00	 call	 ?GetToken@CWzMemScript@@QAE?AW4SMDToken@@XZ ; CWzMemScript::GetToken
  0bba3	89 85 60 ff ff
	ff		 mov	 DWORD PTR _Token$[ebp], eax

; 5578 : 					p->Level = WzMemScript.GetNumber();

  0bba9	8d 8d 6c ff ff
	ff		 lea	 ecx, DWORD PTR _WzMemScript$[ebp]
  0bbaf	e8 00 00 00 00	 call	 ?GetNumber@CWzMemScript@@QAEHXZ ; CWzMemScript::GetNumber
  0bbb4	8b 8d 54 ff ff
	ff		 mov	 ecx, DWORD PTR _p$232413[ebp]
  0bbba	88 41 22	 mov	 BYTE PTR [ecx+34], al

; 5579 : 					
; 5580 : 					if ( ItemType == 6 )

  0bbbd	83 bd 5c ff ff
	ff 06		 cmp	 DWORD PTR _ItemType$232408[ebp], 6
  0bbc4	75 4f		 jne	 SHORT $LN20@OpenItemSc@2

; 5581 : 					{
; 5582 : 
; 5583 : 						Token = WzMemScript.GetToken();

  0bbc6	8d 8d 6c ff ff
	ff		 lea	 ecx, DWORD PTR _WzMemScript$[ebp]
  0bbcc	e8 00 00 00 00	 call	 ?GetToken@CWzMemScript@@QAE?AW4SMDToken@@XZ ; CWzMemScript::GetToken
  0bbd1	89 85 60 ff ff
	ff		 mov	 DWORD PTR _Token$[ebp], eax

; 5584 : 						p->Defense = WzMemScript.GetNumber();

  0bbd7	8d 8d 6c ff ff
	ff		 lea	 ecx, DWORD PTR _WzMemScript$[ebp]
  0bbdd	e8 00 00 00 00	 call	 ?GetNumber@CWzMemScript@@QAEHXZ ; CWzMemScript::GetNumber
  0bbe2	8b 8d 54 ff ff
	ff		 mov	 ecx, DWORD PTR _p$232413[ebp]
  0bbe8	88 41 2d	 mov	 BYTE PTR [ecx+45], al

; 5585 : 
; 5586 : 						Token = WzMemScript.GetToken();

  0bbeb	8d 8d 6c ff ff
	ff		 lea	 ecx, DWORD PTR _WzMemScript$[ebp]
  0bbf1	e8 00 00 00 00	 call	 ?GetToken@CWzMemScript@@QAE?AW4SMDToken@@XZ ; CWzMemScript::GetToken
  0bbf6	89 85 60 ff ff
	ff		 mov	 DWORD PTR _Token$[ebp], eax

; 5587 : 						p->SuccessfulBlocking  = WzMemScript.GetNumber();

  0bbfc	8d 8d 6c ff ff
	ff		 lea	 ecx, DWORD PTR _WzMemScript$[ebp]
  0bc02	e8 00 00 00 00	 call	 ?GetNumber@CWzMemScript@@QAEHXZ ; CWzMemScript::GetNumber
  0bc07	8b 8d 54 ff ff
	ff		 mov	 ecx, DWORD PTR _p$232413[ebp]
  0bc0d	88 41 2c	 mov	 BYTE PTR [ecx+44], al
  0bc10	e9 09 01 00 00	 jmp	 $LN14@OpenItemSc@2
$LN20@OpenItemSc@2:

; 5588 : 
; 5589 : 					}
; 5590 : 					else if ( ItemType >= 7 && ItemType <= 9 )

  0bc15	83 bd 5c ff ff
	ff 07		 cmp	 DWORD PTR _ItemType$232408[ebp], 7
  0bc1c	7c 58		 jl	 SHORT $LN18@OpenItemSc@2
  0bc1e	83 bd 5c ff ff
	ff 09		 cmp	 DWORD PTR _ItemType$232408[ebp], 9
  0bc25	7f 4f		 jg	 SHORT $LN18@OpenItemSc@2

; 5591 : 					{
; 5592 : 
; 5593 : 						Token = WzMemScript.GetToken();

  0bc27	8d 8d 6c ff ff
	ff		 lea	 ecx, DWORD PTR _WzMemScript$[ebp]
  0bc2d	e8 00 00 00 00	 call	 ?GetToken@CWzMemScript@@QAE?AW4SMDToken@@XZ ; CWzMemScript::GetToken
  0bc32	89 85 60 ff ff
	ff		 mov	 DWORD PTR _Token$[ebp], eax

; 5594 : 						p->Defense  = WzMemScript.GetNumber();

  0bc38	8d 8d 6c ff ff
	ff		 lea	 ecx, DWORD PTR _WzMemScript$[ebp]
  0bc3e	e8 00 00 00 00	 call	 ?GetNumber@CWzMemScript@@QAEHXZ ; CWzMemScript::GetNumber
  0bc43	8b 8d 54 ff ff
	ff		 mov	 ecx, DWORD PTR _p$232413[ebp]
  0bc49	88 41 2d	 mov	 BYTE PTR [ecx+45], al

; 5595 : 
; 5596 : 						Token = WzMemScript.GetToken();

  0bc4c	8d 8d 6c ff ff
	ff		 lea	 ecx, DWORD PTR _WzMemScript$[ebp]
  0bc52	e8 00 00 00 00	 call	 ?GetToken@CWzMemScript@@QAE?AW4SMDToken@@XZ ; CWzMemScript::GetToken
  0bc57	89 85 60 ff ff
	ff		 mov	 DWORD PTR _Token$[ebp], eax

; 5597 : 						p->MagicDefense = WzMemScript.GetNumber();

  0bc5d	8d 8d 6c ff ff
	ff		 lea	 ecx, DWORD PTR _WzMemScript$[ebp]
  0bc63	e8 00 00 00 00	 call	 ?GetNumber@CWzMemScript@@QAEHXZ ; CWzMemScript::GetNumber
  0bc68	8b 8d 54 ff ff
	ff		 mov	 ecx, DWORD PTR _p$232413[ebp]
  0bc6e	88 41 2e	 mov	 BYTE PTR [ecx+46], al
  0bc71	e9 a8 00 00 00	 jmp	 $LN14@OpenItemSc@2
$LN18@OpenItemSc@2:

; 5598 : 					}
; 5599 : 					else if ( ItemType == 10 )

  0bc76	83 bd 5c ff ff
	ff 0a		 cmp	 DWORD PTR _ItemType$232408[ebp], 10 ; 0000000aH
  0bc7d	75 4c		 jne	 SHORT $LN16@OpenItemSc@2

; 5600 : 					{
; 5601 : 						Token = WzMemScript.GetToken();

  0bc7f	8d 8d 6c ff ff
	ff		 lea	 ecx, DWORD PTR _WzMemScript$[ebp]
  0bc85	e8 00 00 00 00	 call	 ?GetToken@CWzMemScript@@QAE?AW4SMDToken@@XZ ; CWzMemScript::GetToken
  0bc8a	89 85 60 ff ff
	ff		 mov	 DWORD PTR _Token$[ebp], eax

; 5602 : 						p->Defense = WzMemScript.GetNumber();

  0bc90	8d 8d 6c ff ff
	ff		 lea	 ecx, DWORD PTR _WzMemScript$[ebp]
  0bc96	e8 00 00 00 00	 call	 ?GetNumber@CWzMemScript@@QAEHXZ ; CWzMemScript::GetNumber
  0bc9b	8b 8d 54 ff ff
	ff		 mov	 ecx, DWORD PTR _p$232413[ebp]
  0bca1	88 41 2d	 mov	 BYTE PTR [ecx+45], al

; 5603 : 
; 5604 : 						Token = WzMemScript.GetToken();

  0bca4	8d 8d 6c ff ff
	ff		 lea	 ecx, DWORD PTR _WzMemScript$[ebp]
  0bcaa	e8 00 00 00 00	 call	 ?GetToken@CWzMemScript@@QAE?AW4SMDToken@@XZ ; CWzMemScript::GetToken
  0bcaf	89 85 60 ff ff
	ff		 mov	 DWORD PTR _Token$[ebp], eax

; 5605 : 						p->AttackSpeed = WzMemScript.GetNumber();

  0bcb5	8d 8d 6c ff ff
	ff		 lea	 ecx, DWORD PTR _WzMemScript$[ebp]
  0bcbb	e8 00 00 00 00	 call	 ?GetNumber@CWzMemScript@@QAEHXZ ; CWzMemScript::GetNumber
  0bcc0	8b 8d 54 ff ff
	ff		 mov	 ecx, DWORD PTR _p$232413[ebp]
  0bcc6	88 41 28	 mov	 BYTE PTR [ecx+40], al
  0bcc9	eb 53		 jmp	 SHORT $LN14@OpenItemSc@2
$LN16@OpenItemSc@2:

; 5606 : 					}
; 5607 : 					else if ( ItemType == 11 )

  0bccb	83 bd 5c ff ff
	ff 0b		 cmp	 DWORD PTR _ItemType$232408[ebp], 11 ; 0000000bH
  0bcd2	75 4a		 jne	 SHORT $LN14@OpenItemSc@2

; 5608 : 					{
; 5609 : 						Token = WzMemScript.GetToken();

  0bcd4	8d 8d 6c ff ff
	ff		 lea	 ecx, DWORD PTR _WzMemScript$[ebp]
  0bcda	e8 00 00 00 00	 call	 ?GetToken@CWzMemScript@@QAE?AW4SMDToken@@XZ ; CWzMemScript::GetToken
  0bcdf	89 85 60 ff ff
	ff		 mov	 DWORD PTR _Token$[ebp], eax

; 5610 : 						p->Defense  = WzMemScript.GetNumber();

  0bce5	8d 8d 6c ff ff
	ff		 lea	 ecx, DWORD PTR _WzMemScript$[ebp]
  0bceb	e8 00 00 00 00	 call	 ?GetNumber@CWzMemScript@@QAEHXZ ; CWzMemScript::GetNumber
  0bcf0	8b 8d 54 ff ff
	ff		 mov	 ecx, DWORD PTR _p$232413[ebp]
  0bcf6	88 41 2d	 mov	 BYTE PTR [ecx+45], al

; 5611 : 
; 5612 : 						Token = WzMemScript.GetToken();

  0bcf9	8d 8d 6c ff ff
	ff		 lea	 ecx, DWORD PTR _WzMemScript$[ebp]
  0bcff	e8 00 00 00 00	 call	 ?GetToken@CWzMemScript@@QAE?AW4SMDToken@@XZ ; CWzMemScript::GetToken
  0bd04	89 85 60 ff ff
	ff		 mov	 DWORD PTR _Token$[ebp], eax

; 5613 : 						p->WalkSpeed = WzMemScript.GetNumber();

  0bd0a	8d 8d 6c ff ff
	ff		 lea	 ecx, DWORD PTR _WzMemScript$[ebp]
  0bd10	e8 00 00 00 00	 call	 ?GetNumber@CWzMemScript@@QAEHXZ ; CWzMemScript::GetNumber
  0bd15	8b 8d 54 ff ff
	ff		 mov	 ecx, DWORD PTR _p$232413[ebp]
  0bd1b	88 41 29	 mov	 BYTE PTR [ecx+41], al
$LN14@OpenItemSc@2:

; 5614 : 					}
; 5615 : 					
; 5616 : 					Token = WzMemScript.GetToken();

  0bd1e	8d 8d 6c ff ff
	ff		 lea	 ecx, DWORD PTR _WzMemScript$[ebp]
  0bd24	e8 00 00 00 00	 call	 ?GetToken@CWzMemScript@@QAE?AW4SMDToken@@XZ ; CWzMemScript::GetToken
  0bd29	89 85 60 ff ff
	ff		 mov	 DWORD PTR _Token$[ebp], eax

; 5617 : 					p->Durability = WzMemScript.GetNumber();

  0bd2f	8d 8d 6c ff ff
	ff		 lea	 ecx, DWORD PTR _WzMemScript$[ebp]
  0bd35	e8 00 00 00 00	 call	 ?GetNumber@CWzMemScript@@QAEHXZ ; CWzMemScript::GetNumber
  0bd3a	8b 8d 54 ff ff
	ff		 mov	 ecx, DWORD PTR _p$232413[ebp]
  0bd40	88 41 30	 mov	 BYTE PTR [ecx+48], al

; 5618 : 
; 5619 : 					Token = WzMemScript.GetToken();

  0bd43	8d 8d 6c ff ff
	ff		 lea	 ecx, DWORD PTR _WzMemScript$[ebp]
  0bd49	e8 00 00 00 00	 call	 ?GetToken@CWzMemScript@@QAE?AW4SMDToken@@XZ ; CWzMemScript::GetToken
  0bd4e	89 85 60 ff ff
	ff		 mov	 DWORD PTR _Token$[ebp], eax

; 5620 : 					p->RequireLevel = WzMemScript.GetNumber();

  0bd54	8d 8d 6c ff ff
	ff		 lea	 ecx, DWORD PTR _WzMemScript$[ebp]
  0bd5a	e8 00 00 00 00	 call	 ?GetNumber@CWzMemScript@@QAEHXZ ; CWzMemScript::GetNumber
  0bd5f	8b 8d 54 ff ff
	ff		 mov	 ecx, DWORD PTR _p$232413[ebp]
  0bd65	66 89 41 3a	 mov	 WORD PTR [ecx+58], ax

; 5621 : 
; 5622 : 					Token = WzMemScript.GetToken();

  0bd69	8d 8d 6c ff ff
	ff		 lea	 ecx, DWORD PTR _WzMemScript$[ebp]
  0bd6f	e8 00 00 00 00	 call	 ?GetToken@CWzMemScript@@QAE?AW4SMDToken@@XZ ; CWzMemScript::GetToken
  0bd74	89 85 60 ff ff
	ff		 mov	 DWORD PTR _Token$[ebp], eax

; 5623 : 					p->RequireStrength = WzMemScript.GetNumber();

  0bd7a	8d 8d 6c ff ff
	ff		 lea	 ecx, DWORD PTR _WzMemScript$[ebp]
  0bd80	e8 00 00 00 00	 call	 ?GetNumber@CWzMemScript@@QAEHXZ ; CWzMemScript::GetNumber
  0bd85	8b 8d 54 ff ff
	ff		 mov	 ecx, DWORD PTR _p$232413[ebp]
  0bd8b	66 89 41 34	 mov	 WORD PTR [ecx+52], ax

; 5624 : 
; 5625 : 					Token = WzMemScript.GetToken();

  0bd8f	8d 8d 6c ff ff
	ff		 lea	 ecx, DWORD PTR _WzMemScript$[ebp]
  0bd95	e8 00 00 00 00	 call	 ?GetToken@CWzMemScript@@QAE?AW4SMDToken@@XZ ; CWzMemScript::GetToken
  0bd9a	89 85 60 ff ff
	ff		 mov	 DWORD PTR _Token$[ebp], eax

; 5626 : 					p->RequireDexterity = WzMemScript.GetNumber();

  0bda0	8d 8d 6c ff ff
	ff		 lea	 ecx, DWORD PTR _WzMemScript$[ebp]
  0bda6	e8 00 00 00 00	 call	 ?GetNumber@CWzMemScript@@QAEHXZ ; CWzMemScript::GetNumber
  0bdab	8b 8d 54 ff ff
	ff		 mov	 ecx, DWORD PTR _p$232413[ebp]
  0bdb1	66 89 41 36	 mov	 WORD PTR [ecx+54], ax

; 5627 : 
; 5628 : 					Token = WzMemScript.GetToken();

  0bdb5	8d 8d 6c ff ff
	ff		 lea	 ecx, DWORD PTR _WzMemScript$[ebp]
  0bdbb	e8 00 00 00 00	 call	 ?GetToken@CWzMemScript@@QAE?AW4SMDToken@@XZ ; CWzMemScript::GetToken
  0bdc0	89 85 60 ff ff
	ff		 mov	 DWORD PTR _Token$[ebp], eax

; 5629 : 					p->RequireEnergy = WzMemScript.GetNumber();

  0bdc6	8d 8d 6c ff ff
	ff		 lea	 ecx, DWORD PTR _WzMemScript$[ebp]
  0bdcc	e8 00 00 00 00	 call	 ?GetNumber@CWzMemScript@@QAEHXZ ; CWzMemScript::GetNumber
  0bdd1	8b 8d 54 ff ff
	ff		 mov	 ecx, DWORD PTR _p$232413[ebp]
  0bdd7	66 89 41 38	 mov	 WORD PTR [ecx+56], ax

; 5630 : 
; 5631 : 					Token = WzMemScript.GetToken();

  0bddb	8d 8d 6c ff ff
	ff		 lea	 ecx, DWORD PTR _WzMemScript$[ebp]
  0bde1	e8 00 00 00 00	 call	 ?GetToken@CWzMemScript@@QAE?AW4SMDToken@@XZ ; CWzMemScript::GetToken
  0bde6	89 85 60 ff ff
	ff		 mov	 DWORD PTR _Token$[ebp], eax

; 5632 : 					p->RequireVitality = WzMemScript.GetNumber();

  0bdec	8d 8d 6c ff ff
	ff		 lea	 ecx, DWORD PTR _WzMemScript$[ebp]
  0bdf2	e8 00 00 00 00	 call	 ?GetNumber@CWzMemScript@@QAEHXZ ; CWzMemScript::GetNumber
  0bdf7	8b 8d 54 ff ff
	ff		 mov	 ecx, DWORD PTR _p$232413[ebp]
  0bdfd	66 89 41 4c	 mov	 WORD PTR [ecx+76], ax

; 5633 : 
; 5634 : 					Token = WzMemScript.GetToken();

  0be01	8d 8d 6c ff ff
	ff		 lea	 ecx, DWORD PTR _WzMemScript$[ebp]
  0be07	e8 00 00 00 00	 call	 ?GetToken@CWzMemScript@@QAE?AW4SMDToken@@XZ ; CWzMemScript::GetToken
  0be0c	89 85 60 ff ff
	ff		 mov	 DWORD PTR _Token$[ebp], eax

; 5635 : 					p->RequireLeadership = WzMemScript.GetNumber();

  0be12	8d 8d 6c ff ff
	ff		 lea	 ecx, DWORD PTR _WzMemScript$[ebp]
  0be18	e8 00 00 00 00	 call	 ?GetNumber@CWzMemScript@@QAEHXZ ; CWzMemScript::GetNumber
  0be1d	8b 8d 54 ff ff
	ff		 mov	 ecx, DWORD PTR _p$232413[ebp]
  0be23	89 41 6c	 mov	 DWORD PTR [ecx+108], eax
$LN21@OpenItemSc@2:

; 5636 : 				}
; 5637 : 
; 5638 : 				if ( ItemType == 13 )

  0be26	83 bd 5c ff ff
	ff 0d		 cmp	 DWORD PTR _ItemType$232408[ebp], 13 ; 0000000dH
  0be2d	0f 85 b5 01 00
	00		 jne	 $LN13@OpenItemSc@2

; 5639 : 				{
; 5640 : 					Token = WzMemScript.GetToken();

  0be33	8d 8d 6c ff ff
	ff		 lea	 ecx, DWORD PTR _WzMemScript$[ebp]
  0be39	e8 00 00 00 00	 call	 ?GetToken@CWzMemScript@@QAE?AW4SMDToken@@XZ ; CWzMemScript::GetToken
  0be3e	89 85 60 ff ff
	ff		 mov	 DWORD PTR _Token$[ebp], eax

; 5641 : 					p->Level = WzMemScript.GetNumber();

  0be44	8d 8d 6c ff ff
	ff		 lea	 ecx, DWORD PTR _WzMemScript$[ebp]
  0be4a	e8 00 00 00 00	 call	 ?GetNumber@CWzMemScript@@QAEHXZ ; CWzMemScript::GetNumber
  0be4f	8b 8d 54 ff ff
	ff		 mov	 ecx, DWORD PTR _p$232413[ebp]
  0be55	88 41 22	 mov	 BYTE PTR [ecx+34], al

; 5642 : 
; 5643 : 					Token = WzMemScript.GetToken();

  0be58	8d 8d 6c ff ff
	ff		 lea	 ecx, DWORD PTR _WzMemScript$[ebp]
  0be5e	e8 00 00 00 00	 call	 ?GetToken@CWzMemScript@@QAE?AW4SMDToken@@XZ ; CWzMemScript::GetToken
  0be63	89 85 60 ff ff
	ff		 mov	 DWORD PTR _Token$[ebp], eax

; 5644 : 					p->Durability = WzMemScript.GetNumber();

  0be69	8d 8d 6c ff ff
	ff		 lea	 ecx, DWORD PTR _WzMemScript$[ebp]
  0be6f	e8 00 00 00 00	 call	 ?GetNumber@CWzMemScript@@QAEHXZ ; CWzMemScript::GetNumber
  0be74	8b 8d 54 ff ff
	ff		 mov	 ecx, DWORD PTR _p$232413[ebp]
  0be7a	88 41 30	 mov	 BYTE PTR [ecx+48], al

; 5645 : 
; 5646 : 					Token = WzMemScript.GetToken();

  0be7d	8d 8d 6c ff ff
	ff		 lea	 ecx, DWORD PTR _WzMemScript$[ebp]
  0be83	e8 00 00 00 00	 call	 ?GetToken@CWzMemScript@@QAE?AW4SMDToken@@XZ ; CWzMemScript::GetToken
  0be88	89 85 60 ff ff
	ff		 mov	 DWORD PTR _Token$[ebp], eax

; 5647 : 					p->Resistance[0] = WzMemScript.GetNumber();

  0be8e	8d 8d 6c ff ff
	ff		 lea	 ecx, DWORD PTR _WzMemScript$[ebp]
  0be94	e8 00 00 00 00	 call	 ?GetNumber@CWzMemScript@@QAEHXZ ; CWzMemScript::GetNumber
  0be99	8b 8d 54 ff ff
	ff		 mov	 ecx, DWORD PTR _p$232413[ebp]
  0be9f	88 41 45	 mov	 BYTE PTR [ecx+69], al

; 5648 : 
; 5649 : 					Token = WzMemScript.GetToken();

  0bea2	8d 8d 6c ff ff
	ff		 lea	 ecx, DWORD PTR _WzMemScript$[ebp]
  0bea8	e8 00 00 00 00	 call	 ?GetToken@CWzMemScript@@QAE?AW4SMDToken@@XZ ; CWzMemScript::GetToken
  0bead	89 85 60 ff ff
	ff		 mov	 DWORD PTR _Token$[ebp], eax

; 5650 : 					p->Resistance[1] = WzMemScript.GetNumber();

  0beb3	8d 8d 6c ff ff
	ff		 lea	 ecx, DWORD PTR _WzMemScript$[ebp]
  0beb9	e8 00 00 00 00	 call	 ?GetNumber@CWzMemScript@@QAEHXZ ; CWzMemScript::GetNumber
  0bebe	8b 8d 54 ff ff
	ff		 mov	 ecx, DWORD PTR _p$232413[ebp]
  0bec4	88 41 46	 mov	 BYTE PTR [ecx+70], al

; 5651 : 
; 5652 : 					Token = WzMemScript.GetToken();

  0bec7	8d 8d 6c ff ff
	ff		 lea	 ecx, DWORD PTR _WzMemScript$[ebp]
  0becd	e8 00 00 00 00	 call	 ?GetToken@CWzMemScript@@QAE?AW4SMDToken@@XZ ; CWzMemScript::GetToken
  0bed2	89 85 60 ff ff
	ff		 mov	 DWORD PTR _Token$[ebp], eax

; 5653 : 					p->Resistance[2] = WzMemScript.GetNumber();

  0bed8	8d 8d 6c ff ff
	ff		 lea	 ecx, DWORD PTR _WzMemScript$[ebp]
  0bede	e8 00 00 00 00	 call	 ?GetNumber@CWzMemScript@@QAEHXZ ; CWzMemScript::GetNumber
  0bee3	8b 8d 54 ff ff
	ff		 mov	 ecx, DWORD PTR _p$232413[ebp]
  0bee9	88 41 47	 mov	 BYTE PTR [ecx+71], al

; 5654 : 
; 5655 : 					Token = WzMemScript.GetToken();

  0beec	8d 8d 6c ff ff
	ff		 lea	 ecx, DWORD PTR _WzMemScript$[ebp]
  0bef2	e8 00 00 00 00	 call	 ?GetToken@CWzMemScript@@QAE?AW4SMDToken@@XZ ; CWzMemScript::GetToken
  0bef7	89 85 60 ff ff
	ff		 mov	 DWORD PTR _Token$[ebp], eax

; 5656 : 					p->Resistance[3] = WzMemScript.GetNumber();

  0befd	8d 8d 6c ff ff
	ff		 lea	 ecx, DWORD PTR _WzMemScript$[ebp]
  0bf03	e8 00 00 00 00	 call	 ?GetNumber@CWzMemScript@@QAEHXZ ; CWzMemScript::GetNumber
  0bf08	8b 8d 54 ff ff
	ff		 mov	 ecx, DWORD PTR _p$232413[ebp]
  0bf0e	88 41 48	 mov	 BYTE PTR [ecx+72], al

; 5657 : 
; 5658 : 					Token = WzMemScript.GetToken();

  0bf11	8d 8d 6c ff ff
	ff		 lea	 ecx, DWORD PTR _WzMemScript$[ebp]
  0bf17	e8 00 00 00 00	 call	 ?GetToken@CWzMemScript@@QAE?AW4SMDToken@@XZ ; CWzMemScript::GetToken
  0bf1c	89 85 60 ff ff
	ff		 mov	 DWORD PTR _Token$[ebp], eax

; 5659 : 					p->Resistance[4] = WzMemScript.GetNumber();

  0bf22	8d 8d 6c ff ff
	ff		 lea	 ecx, DWORD PTR _WzMemScript$[ebp]
  0bf28	e8 00 00 00 00	 call	 ?GetNumber@CWzMemScript@@QAEHXZ ; CWzMemScript::GetNumber
  0bf2d	8b 8d 54 ff ff
	ff		 mov	 ecx, DWORD PTR _p$232413[ebp]
  0bf33	88 41 49	 mov	 BYTE PTR [ecx+73], al

; 5660 : 
; 5661 : 					Token = WzMemScript.GetToken();

  0bf36	8d 8d 6c ff ff
	ff		 lea	 ecx, DWORD PTR _WzMemScript$[ebp]
  0bf3c	e8 00 00 00 00	 call	 ?GetToken@CWzMemScript@@QAE?AW4SMDToken@@XZ ; CWzMemScript::GetToken
  0bf41	89 85 60 ff ff
	ff		 mov	 DWORD PTR _Token$[ebp], eax

; 5662 : 					p->Resistance[5] = WzMemScript.GetNumber();

  0bf47	8d 8d 6c ff ff
	ff		 lea	 ecx, DWORD PTR _WzMemScript$[ebp]
  0bf4d	e8 00 00 00 00	 call	 ?GetNumber@CWzMemScript@@QAEHXZ ; CWzMemScript::GetNumber
  0bf52	8b 8d 54 ff ff
	ff		 mov	 ecx, DWORD PTR _p$232413[ebp]
  0bf58	88 41 4a	 mov	 BYTE PTR [ecx+74], al

; 5663 : 
; 5664 : 					Token = WzMemScript.GetToken();

  0bf5b	8d 8d 6c ff ff
	ff		 lea	 ecx, DWORD PTR _WzMemScript$[ebp]
  0bf61	e8 00 00 00 00	 call	 ?GetToken@CWzMemScript@@QAE?AW4SMDToken@@XZ ; CWzMemScript::GetToken
  0bf66	89 85 60 ff ff
	ff		 mov	 DWORD PTR _Token$[ebp], eax

; 5665 : 					p->Resistance[6] = WzMemScript.GetNumber();

  0bf6c	8d 8d 6c ff ff
	ff		 lea	 ecx, DWORD PTR _WzMemScript$[ebp]
  0bf72	e8 00 00 00 00	 call	 ?GetNumber@CWzMemScript@@QAEHXZ ; CWzMemScript::GetNumber
  0bf77	8b 8d 54 ff ff
	ff		 mov	 ecx, DWORD PTR _p$232413[ebp]
  0bf7d	88 41 4b	 mov	 BYTE PTR [ecx+75], al

; 5666 : 
; 5667 : 					p->ResistanceType = -1;

  0bf80	8b 85 54 ff ff
	ff		 mov	 eax, DWORD PTR _p$232413[ebp]
  0bf86	c6 40 62 ff	 mov	 BYTE PTR [eax+98], 255	; 000000ffH

; 5668 : 					
; 5669 : 					int n;
; 5670 : 
; 5671 : 					for (n=0;n<MAX_ITEM_SPECIAL_ATTRIBUTE-1;n++)

  0bf8a	c7 85 50 ff ff
	ff 00 00 00 00	 mov	 DWORD PTR _n$232431[ebp], 0
  0bf94	eb 0f		 jmp	 SHORT $LN12@OpenItemSc@2
$LN11@OpenItemSc@2:
  0bf96	8b 85 50 ff ff
	ff		 mov	 eax, DWORD PTR _n$232431[ebp]
  0bf9c	83 c0 01	 add	 eax, 1
  0bf9f	89 85 50 ff ff
	ff		 mov	 DWORD PTR _n$232431[ebp], eax
$LN12@OpenItemSc@2:
  0bfa5	83 bd 50 ff ff
	ff 06		 cmp	 DWORD PTR _n$232431[ebp], 6
  0bfac	7d 25		 jge	 SHORT $LN10@OpenItemSc@2

; 5672 : 					{
; 5673 : 						if ( (p->Resistance[n]) != 0 )

  0bfae	8b 85 54 ff ff
	ff		 mov	 eax, DWORD PTR _p$232413[ebp]
  0bfb4	03 85 50 ff ff
	ff		 add	 eax, DWORD PTR _n$232431[ebp]
  0bfba	0f b6 48 45	 movzx	 ecx, BYTE PTR [eax+69]
  0bfbe	85 c9		 test	 ecx, ecx
  0bfc0	74 0f		 je	 SHORT $LN9@OpenItemSc@2

; 5674 : 						{
; 5675 : 							p->ResistanceType=n;

  0bfc2	8b 85 54 ff ff
	ff		 mov	 eax, DWORD PTR _p$232413[ebp]
  0bfc8	8a 8d 50 ff ff
	ff		 mov	 cl, BYTE PTR _n$232431[ebp]
  0bfce	88 48 62	 mov	 BYTE PTR [eax+98], cl
$LN9@OpenItemSc@2:

; 5676 : 						}
; 5677 : 					}

  0bfd1	eb c3		 jmp	 SHORT $LN11@OpenItemSc@2
$LN10@OpenItemSc@2:

; 5678 : 
; 5679 : 					p->RequireLevel = p->Level ;

  0bfd3	8b 85 54 ff ff
	ff		 mov	 eax, DWORD PTR _p$232413[ebp]
  0bfd9	66 0f b6 48 22	 movzx	 cx, BYTE PTR [eax+34]
  0bfde	8b 95 54 ff ff
	ff		 mov	 edx, DWORD PTR _p$232413[ebp]
  0bfe4	66 89 4a 3a	 mov	 WORD PTR [edx+58], cx
$LN13@OpenItemSc@2:

; 5680 : 					
; 5681 : 				}
; 5682 : 
; 5683 : 				if ( ItemType == 14 )

  0bfe8	83 bd 5c ff ff
	ff 0e		 cmp	 DWORD PTR _ItemType$232408[ebp], 14 ; 0000000eH
  0bfef	75 55		 jne	 SHORT $LN8@OpenItemSc@2

; 5684 : 				{
; 5685 : 					Token = WzMemScript.GetToken();

  0bff1	8d 8d 6c ff ff
	ff		 lea	 ecx, DWORD PTR _WzMemScript$[ebp]
  0bff7	e8 00 00 00 00	 call	 ?GetToken@CWzMemScript@@QAE?AW4SMDToken@@XZ ; CWzMemScript::GetToken
  0bffc	89 85 60 ff ff
	ff		 mov	 DWORD PTR _Token$[ebp], eax

; 5686 : 					p->Value = WzMemScript.GetNumber();

  0c002	8d 8d 6c ff ff
	ff		 lea	 ecx, DWORD PTR _WzMemScript$[ebp]
  0c008	e8 00 00 00 00	 call	 ?GetNumber@CWzMemScript@@QAEHXZ ; CWzMemScript::GetNumber
  0c00d	8b 8d 54 ff ff
	ff		 mov	 ecx, DWORD PTR _p$232413[ebp]
  0c013	66 89 41 3c	 mov	 WORD PTR [ecx+60], ax

; 5687 : 
; 5688 : 					Token = WzMemScript.GetToken();

  0c017	8d 8d 6c ff ff
	ff		 lea	 ecx, DWORD PTR _WzMemScript$[ebp]
  0c01d	e8 00 00 00 00	 call	 ?GetToken@CWzMemScript@@QAE?AW4SMDToken@@XZ ; CWzMemScript::GetToken
  0c022	89 85 60 ff ff
	ff		 mov	 DWORD PTR _Token$[ebp], eax

; 5689 : 					p->Level = WzMemScript.GetNumber();

  0c028	8d 8d 6c ff ff
	ff		 lea	 ecx, DWORD PTR _WzMemScript$[ebp]
  0c02e	e8 00 00 00 00	 call	 ?GetNumber@CWzMemScript@@QAEHXZ ; CWzMemScript::GetNumber
  0c033	8b 8d 54 ff ff
	ff		 mov	 ecx, DWORD PTR _p$232413[ebp]
  0c039	88 41 22	 mov	 BYTE PTR [ecx+34], al

; 5690 : 
; 5691 : 					p->Durability = 1;

  0c03c	8b 85 54 ff ff
	ff		 mov	 eax, DWORD PTR _p$232413[ebp]
  0c042	c6 40 30 01	 mov	 BYTE PTR [eax+48], 1
$LN8@OpenItemSc@2:

; 5692 : 				}
; 5693 : 
; 5694 : 				if ( ItemType == 12 )

  0c046	83 bd 5c ff ff
	ff 0c		 cmp	 DWORD PTR _ItemType$232408[ebp], 12 ; 0000000cH
  0c04d	0f 85 51 01 00
	00		 jne	 $LN7@OpenItemSc@2

; 5695 : 				{
; 5696 : 					Token = WzMemScript.GetToken();

  0c053	8d 8d 6c ff ff
	ff		 lea	 ecx, DWORD PTR _WzMemScript$[ebp]
  0c059	e8 00 00 00 00	 call	 ?GetToken@CWzMemScript@@QAE?AW4SMDToken@@XZ ; CWzMemScript::GetToken
  0c05e	89 85 60 ff ff
	ff		 mov	 DWORD PTR _Token$[ebp], eax

; 5697 : 					p->Level = WzMemScript.GetNumber();

  0c064	8d 8d 6c ff ff
	ff		 lea	 ecx, DWORD PTR _WzMemScript$[ebp]
  0c06a	e8 00 00 00 00	 call	 ?GetNumber@CWzMemScript@@QAEHXZ ; CWzMemScript::GetNumber
  0c06f	8b 8d 54 ff ff
	ff		 mov	 ecx, DWORD PTR _p$232413[ebp]
  0c075	88 41 22	 mov	 BYTE PTR [ecx+34], al

; 5698 : 
; 5699 : 					Token = WzMemScript.GetToken();

  0c078	8d 8d 6c ff ff
	ff		 lea	 ecx, DWORD PTR _WzMemScript$[ebp]
  0c07e	e8 00 00 00 00	 call	 ?GetToken@CWzMemScript@@QAE?AW4SMDToken@@XZ ; CWzMemScript::GetToken
  0c083	89 85 60 ff ff
	ff		 mov	 DWORD PTR _Token$[ebp], eax

; 5700 : 					p->Defense = WzMemScript.GetNumber();

  0c089	8d 8d 6c ff ff
	ff		 lea	 ecx, DWORD PTR _WzMemScript$[ebp]
  0c08f	e8 00 00 00 00	 call	 ?GetNumber@CWzMemScript@@QAEHXZ ; CWzMemScript::GetNumber
  0c094	8b 8d 54 ff ff
	ff		 mov	 ecx, DWORD PTR _p$232413[ebp]
  0c09a	88 41 2d	 mov	 BYTE PTR [ecx+45], al

; 5701 : 
; 5702 : 					Token = WzMemScript.GetToken();

  0c09d	8d 8d 6c ff ff
	ff		 lea	 ecx, DWORD PTR _WzMemScript$[ebp]
  0c0a3	e8 00 00 00 00	 call	 ?GetToken@CWzMemScript@@QAE?AW4SMDToken@@XZ ; CWzMemScript::GetToken
  0c0a8	89 85 60 ff ff
	ff		 mov	 DWORD PTR _Token$[ebp], eax

; 5703 : 					p->Durability = WzMemScript.GetNumber();

  0c0ae	8d 8d 6c ff ff
	ff		 lea	 ecx, DWORD PTR _WzMemScript$[ebp]
  0c0b4	e8 00 00 00 00	 call	 ?GetNumber@CWzMemScript@@QAEHXZ ; CWzMemScript::GetNumber
  0c0b9	8b 8d 54 ff ff
	ff		 mov	 ecx, DWORD PTR _p$232413[ebp]
  0c0bf	88 41 30	 mov	 BYTE PTR [ecx+48], al

; 5704 : 
; 5705 : 					Token = WzMemScript.GetToken();

  0c0c2	8d 8d 6c ff ff
	ff		 lea	 ecx, DWORD PTR _WzMemScript$[ebp]
  0c0c8	e8 00 00 00 00	 call	 ?GetToken@CWzMemScript@@QAE?AW4SMDToken@@XZ ; CWzMemScript::GetToken
  0c0cd	89 85 60 ff ff
	ff		 mov	 DWORD PTR _Token$[ebp], eax

; 5706 : 					p->RequireLevel = WzMemScript.GetNumber();

  0c0d3	8d 8d 6c ff ff
	ff		 lea	 ecx, DWORD PTR _WzMemScript$[ebp]
  0c0d9	e8 00 00 00 00	 call	 ?GetNumber@CWzMemScript@@QAEHXZ ; CWzMemScript::GetNumber
  0c0de	8b 8d 54 ff ff
	ff		 mov	 ecx, DWORD PTR _p$232413[ebp]
  0c0e4	66 89 41 3a	 mov	 WORD PTR [ecx+58], ax

; 5707 : 
; 5708 : 					Token = WzMemScript.GetToken();

  0c0e8	8d 8d 6c ff ff
	ff		 lea	 ecx, DWORD PTR _WzMemScript$[ebp]
  0c0ee	e8 00 00 00 00	 call	 ?GetToken@CWzMemScript@@QAE?AW4SMDToken@@XZ ; CWzMemScript::GetToken
  0c0f3	89 85 60 ff ff
	ff		 mov	 DWORD PTR _Token$[ebp], eax

; 5709 : 					p->RequireEnergy = WzMemScript.GetNumber();

  0c0f9	8d 8d 6c ff ff
	ff		 lea	 ecx, DWORD PTR _WzMemScript$[ebp]
  0c0ff	e8 00 00 00 00	 call	 ?GetNumber@CWzMemScript@@QAEHXZ ; CWzMemScript::GetNumber
  0c104	8b 8d 54 ff ff
	ff		 mov	 ecx, DWORD PTR _p$232413[ebp]
  0c10a	66 89 41 38	 mov	 WORD PTR [ecx+56], ax

; 5710 : 
; 5711 : 					Token = WzMemScript.GetToken();

  0c10e	8d 8d 6c ff ff
	ff		 lea	 ecx, DWORD PTR _WzMemScript$[ebp]
  0c114	e8 00 00 00 00	 call	 ?GetToken@CWzMemScript@@QAE?AW4SMDToken@@XZ ; CWzMemScript::GetToken
  0c119	89 85 60 ff ff
	ff		 mov	 DWORD PTR _Token$[ebp], eax

; 5712 : 					p->RequireStrength = WzMemScript.GetNumber();

  0c11f	8d 8d 6c ff ff
	ff		 lea	 ecx, DWORD PTR _WzMemScript$[ebp]
  0c125	e8 00 00 00 00	 call	 ?GetNumber@CWzMemScript@@QAEHXZ ; CWzMemScript::GetNumber
  0c12a	8b 8d 54 ff ff
	ff		 mov	 ecx, DWORD PTR _p$232413[ebp]
  0c130	66 89 41 34	 mov	 WORD PTR [ecx+52], ax

; 5713 : 
; 5714 : 					Token = WzMemScript.GetToken();

  0c134	8d 8d 6c ff ff
	ff		 lea	 ecx, DWORD PTR _WzMemScript$[ebp]
  0c13a	e8 00 00 00 00	 call	 ?GetToken@CWzMemScript@@QAE?AW4SMDToken@@XZ ; CWzMemScript::GetToken
  0c13f	89 85 60 ff ff
	ff		 mov	 DWORD PTR _Token$[ebp], eax

; 5715 : 					p->RequireDexterity = WzMemScript.GetNumber();

  0c145	8d 8d 6c ff ff
	ff		 lea	 ecx, DWORD PTR _WzMemScript$[ebp]
  0c14b	e8 00 00 00 00	 call	 ?GetNumber@CWzMemScript@@QAEHXZ ; CWzMemScript::GetNumber
  0c150	8b 8d 54 ff ff
	ff		 mov	 ecx, DWORD PTR _p$232413[ebp]
  0c156	66 89 41 36	 mov	 WORD PTR [ecx+54], ax

; 5716 : 
; 5717 : 					Token = WzMemScript.GetToken();

  0c15a	8d 8d 6c ff ff
	ff		 lea	 ecx, DWORD PTR _WzMemScript$[ebp]
  0c160	e8 00 00 00 00	 call	 ?GetToken@CWzMemScript@@QAE?AW4SMDToken@@XZ ; CWzMemScript::GetToken
  0c165	89 85 60 ff ff
	ff		 mov	 DWORD PTR _Token$[ebp], eax

; 5718 : 					p->RequireLeadership = WzMemScript.GetNumber();

  0c16b	8d 8d 6c ff ff
	ff		 lea	 ecx, DWORD PTR _WzMemScript$[ebp]
  0c171	e8 00 00 00 00	 call	 ?GetNumber@CWzMemScript@@QAEHXZ ; CWzMemScript::GetNumber
  0c176	8b 8d 54 ff ff
	ff		 mov	 ecx, DWORD PTR _p$232413[ebp]
  0c17c	89 41 6c	 mov	 DWORD PTR [ecx+108], eax

; 5719 : 
; 5720 : 					Token = WzMemScript.GetToken();

  0c17f	8d 8d 6c ff ff
	ff		 lea	 ecx, DWORD PTR _WzMemScript$[ebp]
  0c185	e8 00 00 00 00	 call	 ?GetToken@CWzMemScript@@QAE?AW4SMDToken@@XZ ; CWzMemScript::GetToken
  0c18a	89 85 60 ff ff
	ff		 mov	 DWORD PTR _Token$[ebp], eax

; 5721 : 					p->BuyMoney = WzMemScript.GetNumber();

  0c190	8d 8d 6c ff ff
	ff		 lea	 ecx, DWORD PTR _WzMemScript$[ebp]
  0c196	e8 00 00 00 00	 call	 ?GetNumber@CWzMemScript@@QAEHXZ ; CWzMemScript::GetNumber
  0c19b	8b 8d 54 ff ff
	ff		 mov	 ecx, DWORD PTR _p$232413[ebp]
  0c1a1	89 41 50	 mov	 DWORD PTR [ecx+80], eax
$LN7@OpenItemSc@2:

; 5722 : 
; 5723 : 				}
; 5724 : 				
; 5725 : 				if ( ItemType == 15 )

  0c1a4	83 bd 5c ff ff
	ff 0f		 cmp	 DWORD PTR _ItemType$232408[ebp], 15 ; 0000000fH
  0c1ab	0f 85 cc 00 00
	00		 jne	 $LN6@OpenItemSc@2

; 5726 : 				{
; 5727 : 
; 5728 : 					Token = WzMemScript.GetToken();

  0c1b1	8d 8d 6c ff ff
	ff		 lea	 ecx, DWORD PTR _WzMemScript$[ebp]
  0c1b7	e8 00 00 00 00	 call	 ?GetToken@CWzMemScript@@QAE?AW4SMDToken@@XZ ; CWzMemScript::GetToken
  0c1bc	89 85 60 ff ff
	ff		 mov	 DWORD PTR _Token$[ebp], eax

; 5729 : 					p->Level = WzMemScript.GetNumber();

  0c1c2	8d 8d 6c ff ff
	ff		 lea	 ecx, DWORD PTR _WzMemScript$[ebp]
  0c1c8	e8 00 00 00 00	 call	 ?GetNumber@CWzMemScript@@QAEHXZ ; CWzMemScript::GetNumber
  0c1cd	8b 8d 54 ff ff
	ff		 mov	 ecx, DWORD PTR _p$232413[ebp]
  0c1d3	88 41 22	 mov	 BYTE PTR [ecx+34], al

; 5730 : 
; 5731 : 					Token = WzMemScript.GetToken();

  0c1d6	8d 8d 6c ff ff
	ff		 lea	 ecx, DWORD PTR _WzMemScript$[ebp]
  0c1dc	e8 00 00 00 00	 call	 ?GetToken@CWzMemScript@@QAE?AW4SMDToken@@XZ ; CWzMemScript::GetToken
  0c1e1	89 85 60 ff ff
	ff		 mov	 DWORD PTR _Token$[ebp], eax

; 5732 : 					p->RequireLevel  = WzMemScript.GetNumber();

  0c1e7	8d 8d 6c ff ff
	ff		 lea	 ecx, DWORD PTR _WzMemScript$[ebp]
  0c1ed	e8 00 00 00 00	 call	 ?GetNumber@CWzMemScript@@QAEHXZ ; CWzMemScript::GetNumber
  0c1f2	8b 8d 54 ff ff
	ff		 mov	 ecx, DWORD PTR _p$232413[ebp]
  0c1f8	66 89 41 3a	 mov	 WORD PTR [ecx+58], ax

; 5733 : 
; 5734 : 					Token = WzMemScript.GetToken();

  0c1fc	8d 8d 6c ff ff
	ff		 lea	 ecx, DWORD PTR _WzMemScript$[ebp]
  0c202	e8 00 00 00 00	 call	 ?GetToken@CWzMemScript@@QAE?AW4SMDToken@@XZ ; CWzMemScript::GetToken
  0c207	89 85 60 ff ff
	ff		 mov	 DWORD PTR _Token$[ebp], eax

; 5735 : 					p->RequireEnergy  = WzMemScript.GetNumber();

  0c20d	8d 8d 6c ff ff
	ff		 lea	 ecx, DWORD PTR _WzMemScript$[ebp]
  0c213	e8 00 00 00 00	 call	 ?GetNumber@CWzMemScript@@QAEHXZ ; CWzMemScript::GetNumber
  0c218	8b 8d 54 ff ff
	ff		 mov	 ecx, DWORD PTR _p$232413[ebp]
  0c21e	66 89 41 38	 mov	 WORD PTR [ecx+56], ax

; 5736 : 
; 5737 : 					Token = WzMemScript.GetToken();

  0c222	8d 8d 6c ff ff
	ff		 lea	 ecx, DWORD PTR _WzMemScript$[ebp]
  0c228	e8 00 00 00 00	 call	 ?GetToken@CWzMemScript@@QAE?AW4SMDToken@@XZ ; CWzMemScript::GetToken
  0c22d	89 85 60 ff ff
	ff		 mov	 DWORD PTR _Token$[ebp], eax

; 5738 : 					p->BuyMoney  = WzMemScript.GetNumber();

  0c233	8d 8d 6c ff ff
	ff		 lea	 ecx, DWORD PTR _WzMemScript$[ebp]
  0c239	e8 00 00 00 00	 call	 ?GetNumber@CWzMemScript@@QAEHXZ ; CWzMemScript::GetNumber
  0c23e	8b 8d 54 ff ff
	ff		 mov	 ecx, DWORD PTR _p$232413[ebp]
  0c244	89 41 50	 mov	 DWORD PTR [ecx+80], eax

; 5739 : 
; 5740 : 					p->DamageMin = p->Level;

  0c247	8b 85 54 ff ff
	ff		 mov	 eax, DWORD PTR _p$232413[ebp]
  0c24d	8b 8d 54 ff ff
	ff		 mov	 ecx, DWORD PTR _p$232413[ebp]
  0c253	8a 51 22	 mov	 dl, BYTE PTR [ecx+34]
  0c256	88 50 2a	 mov	 BYTE PTR [eax+42], dl

; 5741 : 					p->DamageMax = p->Level + p->Level/2; 

  0c259	8b 85 54 ff ff
	ff		 mov	 eax, DWORD PTR _p$232413[ebp]
  0c25f	0f b6 48 22	 movzx	 ecx, BYTE PTR [eax+34]
  0c263	8b 95 54 ff ff
	ff		 mov	 edx, DWORD PTR _p$232413[ebp]
  0c269	0f b6 42 22	 movzx	 eax, BYTE PTR [edx+34]
  0c26d	99		 cdq
  0c26e	2b c2		 sub	 eax, edx
  0c270	d1 f8		 sar	 eax, 1
  0c272	03 c8		 add	 ecx, eax
  0c274	8b 85 54 ff ff
	ff		 mov	 eax, DWORD PTR _p$232413[ebp]
  0c27a	88 48 2b	 mov	 BYTE PTR [eax+43], cl
$LN6@OpenItemSc@2:

; 5742 : 				}
; 5743 : 
; 5744 : 				if ( ItemType <= 11 || ItemType == 13)

  0c27d	83 bd 5c ff ff
	ff 0b		 cmp	 DWORD PTR _ItemType$232408[ebp], 11 ; 0000000bH
  0c284	7e 09		 jle	 SHORT $LN4@OpenItemSc@2
  0c286	83 bd 5c ff ff
	ff 0d		 cmp	 DWORD PTR _ItemType$232408[ebp], 13 ; 0000000dH
  0c28d	75 11		 jne	 SHORT $LN5@OpenItemSc@2
$LN4@OpenItemSc@2:

; 5745 : 				{
; 5746 : 					Token = WzMemScript.GetToken();

  0c28f	8d 8d 6c ff ff
	ff		 lea	 ecx, DWORD PTR _WzMemScript$[ebp]
  0c295	e8 00 00 00 00	 call	 ?GetToken@CWzMemScript@@QAE?AW4SMDToken@@XZ ; CWzMemScript::GetToken
  0c29a	89 85 60 ff ff
	ff		 mov	 DWORD PTR _Token$[ebp], eax
$LN5@OpenItemSc@2:

; 5747 : 				}
; 5748 : 
; 5749 : 				p->SetAttr = WzMemScript.GetNumber();

  0c2a0	8d 8d 6c ff ff
	ff		 lea	 ecx, DWORD PTR _WzMemScript$[ebp]
  0c2a6	e8 00 00 00 00	 call	 ?GetNumber@CWzMemScript@@QAEHXZ ; CWzMemScript::GetNumber
  0c2ab	8b 8d 54 ff ff
	ff		 mov	 ecx, DWORD PTR _p$232413[ebp]
  0c2b1	88 41 61	 mov	 BYTE PTR [ecx+97], al

; 5750 : 
; 5751 : 				if ( ItemType <= 13 || ItemType == 15 )

  0c2b4	83 bd 5c ff ff
	ff 0d		 cmp	 DWORD PTR _ItemType$232408[ebp], 13 ; 0000000dH
  0c2bb	7e 0d		 jle	 SHORT $LN2@OpenItemSc@2
  0c2bd	83 bd 5c ff ff
	ff 0f		 cmp	 DWORD PTR _ItemType$232408[ebp], 15 ; 0000000fH
  0c2c4	0f 85 03 01 00
	00		 jne	 $LN3@OpenItemSc@2
$LN2@OpenItemSc@2:

; 5752 : 				{
; 5753 : 
; 5754 : 					Token = WzMemScript.GetToken();

  0c2ca	8d 8d 6c ff ff
	ff		 lea	 ecx, DWORD PTR _WzMemScript$[ebp]
  0c2d0	e8 00 00 00 00	 call	 ?GetToken@CWzMemScript@@QAE?AW4SMDToken@@XZ ; CWzMemScript::GetToken
  0c2d5	89 85 60 ff ff
	ff		 mov	 DWORD PTR _Token$[ebp], eax

; 5755 : 					p->RequireClass[0]  = WzMemScript.GetNumber();

  0c2db	8d 8d 6c ff ff
	ff		 lea	 ecx, DWORD PTR _WzMemScript$[ebp]
  0c2e1	e8 00 00 00 00	 call	 ?GetNumber@CWzMemScript@@QAEHXZ ; CWzMemScript::GetNumber
  0c2e6	8b 8d 54 ff ff
	ff		 mov	 ecx, DWORD PTR _p$232413[ebp]
  0c2ec	88 41 3e	 mov	 BYTE PTR [ecx+62], al

; 5756 : 
; 5757 : 					Token = WzMemScript.GetToken();

  0c2ef	8d 8d 6c ff ff
	ff		 lea	 ecx, DWORD PTR _WzMemScript$[ebp]
  0c2f5	e8 00 00 00 00	 call	 ?GetToken@CWzMemScript@@QAE?AW4SMDToken@@XZ ; CWzMemScript::GetToken
  0c2fa	89 85 60 ff ff
	ff		 mov	 DWORD PTR _Token$[ebp], eax

; 5758 : 					p->RequireClass[1]  = WzMemScript.GetNumber();

  0c300	8d 8d 6c ff ff
	ff		 lea	 ecx, DWORD PTR _WzMemScript$[ebp]
  0c306	e8 00 00 00 00	 call	 ?GetNumber@CWzMemScript@@QAEHXZ ; CWzMemScript::GetNumber
  0c30b	8b 8d 54 ff ff
	ff		 mov	 ecx, DWORD PTR _p$232413[ebp]
  0c311	88 41 3f	 mov	 BYTE PTR [ecx+63], al

; 5759 : 
; 5760 : 					Token = WzMemScript.GetToken();

  0c314	8d 8d 6c ff ff
	ff		 lea	 ecx, DWORD PTR _WzMemScript$[ebp]
  0c31a	e8 00 00 00 00	 call	 ?GetToken@CWzMemScript@@QAE?AW4SMDToken@@XZ ; CWzMemScript::GetToken
  0c31f	89 85 60 ff ff
	ff		 mov	 DWORD PTR _Token$[ebp], eax

; 5761 : 					p->RequireClass[2]  = WzMemScript.GetNumber();

  0c325	8d 8d 6c ff ff
	ff		 lea	 ecx, DWORD PTR _WzMemScript$[ebp]
  0c32b	e8 00 00 00 00	 call	 ?GetNumber@CWzMemScript@@QAEHXZ ; CWzMemScript::GetNumber
  0c330	8b 8d 54 ff ff
	ff		 mov	 ecx, DWORD PTR _p$232413[ebp]
  0c336	88 41 40	 mov	 BYTE PTR [ecx+64], al

; 5762 : 
; 5763 : 					Token = WzMemScript.GetToken();

  0c339	8d 8d 6c ff ff
	ff		 lea	 ecx, DWORD PTR _WzMemScript$[ebp]
  0c33f	e8 00 00 00 00	 call	 ?GetToken@CWzMemScript@@QAE?AW4SMDToken@@XZ ; CWzMemScript::GetToken
  0c344	89 85 60 ff ff
	ff		 mov	 DWORD PTR _Token$[ebp], eax

; 5764 : 					p->RequireClass[3]  = WzMemScript.GetNumber();

  0c34a	8d 8d 6c ff ff
	ff		 lea	 ecx, DWORD PTR _WzMemScript$[ebp]
  0c350	e8 00 00 00 00	 call	 ?GetNumber@CWzMemScript@@QAEHXZ ; CWzMemScript::GetNumber
  0c355	8b 8d 54 ff ff
	ff		 mov	 ecx, DWORD PTR _p$232413[ebp]
  0c35b	88 41 41	 mov	 BYTE PTR [ecx+65], al

; 5765 : 
; 5766 : 					Token = WzMemScript.GetToken();

  0c35e	8d 8d 6c ff ff
	ff		 lea	 ecx, DWORD PTR _WzMemScript$[ebp]
  0c364	e8 00 00 00 00	 call	 ?GetToken@CWzMemScript@@QAE?AW4SMDToken@@XZ ; CWzMemScript::GetToken
  0c369	89 85 60 ff ff
	ff		 mov	 DWORD PTR _Token$[ebp], eax

; 5767 : 					p->RequireClass[4]  = WzMemScript.GetNumber();

  0c36f	8d 8d 6c ff ff
	ff		 lea	 ecx, DWORD PTR _WzMemScript$[ebp]
  0c375	e8 00 00 00 00	 call	 ?GetNumber@CWzMemScript@@QAEHXZ ; CWzMemScript::GetNumber
  0c37a	8b 8d 54 ff ff
	ff		 mov	 ecx, DWORD PTR _p$232413[ebp]
  0c380	88 41 42	 mov	 BYTE PTR [ecx+66], al

; 5768 : 
; 5769 : 					Token = WzMemScript.GetToken();

  0c383	8d 8d 6c ff ff
	ff		 lea	 ecx, DWORD PTR _WzMemScript$[ebp]
  0c389	e8 00 00 00 00	 call	 ?GetToken@CWzMemScript@@QAE?AW4SMDToken@@XZ ; CWzMemScript::GetToken
  0c38e	89 85 60 ff ff
	ff		 mov	 DWORD PTR _Token$[ebp], eax

; 5770 : 					p->RequireClass[5]  = WzMemScript.GetNumber();

  0c394	8d 8d 6c ff ff
	ff		 lea	 ecx, DWORD PTR _WzMemScript$[ebp]
  0c39a	e8 00 00 00 00	 call	 ?GetNumber@CWzMemScript@@QAEHXZ ; CWzMemScript::GetNumber
  0c39f	8b 8d 54 ff ff
	ff		 mov	 ecx, DWORD PTR _p$232413[ebp]
  0c3a5	88 41 43	 mov	 BYTE PTR [ecx+67], al

; 5771 : 
; 5772 : 					Token = WzMemScript.GetToken();

  0c3a8	8d 8d 6c ff ff
	ff		 lea	 ecx, DWORD PTR _WzMemScript$[ebp]
  0c3ae	e8 00 00 00 00	 call	 ?GetToken@CWzMemScript@@QAE?AW4SMDToken@@XZ ; CWzMemScript::GetToken
  0c3b3	89 85 60 ff ff
	ff		 mov	 DWORD PTR _Token$[ebp], eax

; 5773 : 					p->RequireClass[6]  = WzMemScript.GetNumber();

  0c3b9	8d 8d 6c ff ff
	ff		 lea	 ecx, DWORD PTR _WzMemScript$[ebp]
  0c3bf	e8 00 00 00 00	 call	 ?GetNumber@CWzMemScript@@QAEHXZ ; CWzMemScript::GetNumber
  0c3c4	8b 8d 54 ff ff
	ff		 mov	 ecx, DWORD PTR _p$232413[ebp]
  0c3ca	88 41 44	 mov	 BYTE PTR [ecx+68], al
$LN3@OpenItemSc@2:

; 5774 : 				}
; 5775 : 
; 5776 : 				CalRepairRate(ItemType, ItemSubType, p);

  0c3cd	8b 85 54 ff ff
	ff		 mov	 eax, DWORD PTR _p$232413[ebp]
  0c3d3	50		 push	 eax
  0c3d4	8b 8d 58 ff ff
	ff		 mov	 ecx, DWORD PTR _ItemSubType$232412[ebp]
  0c3da	51		 push	 ecx
  0c3db	8b 95 5c ff ff
	ff		 mov	 edx, DWORD PTR _ItemType$232408[ebp]
  0c3e1	52		 push	 edx
  0c3e2	e8 00 00 00 00	 call	 ?CalRepairRate@@YAXHHPAUITEM_ATTRIBUTE@@@Z ; CalRepairRate
  0c3e7	83 c4 0c	 add	 esp, 12			; 0000000cH

; 5777 : 
; 5778 : 				p->HaveItemInfo = TRUE;

  0c3ea	8b 85 54 ff ff
	ff		 mov	 eax, DWORD PTR _p$232413[ebp]
  0c3f0	c6 40 20 01	 mov	 BYTE PTR [eax+32], 1

; 5779 : 
; 5780 : 				loop_count++;

  0c3f4	8b 85 64 ff ff
	ff		 mov	 eax, DWORD PTR _loop_count$[ebp]
  0c3fa	83 c0 01	 add	 eax, 1
  0c3fd	89 85 64 ff ff
	ff		 mov	 DWORD PTR _loop_count$[ebp], eax

; 5781 : 
; 5782 : 				if ( loop_count > MAX_SUBTYPE_ITEMS )

  0c403	81 bd 64 ff ff
	ff 00 02 00 00	 cmp	 DWORD PTR _loop_count$[ebp], 512 ; 00000200H
  0c40d	7e 24		 jle	 SHORT $LN1@OpenItemSc@2

; 5783 : 				{
; 5784 : 					MsgBox("Error : Item Data fail. (LoopCount:%d) Item Type:%d Index %d", loop_count, ItemType, ItemSubType);

  0c40f	8b 85 58 ff ff
	ff		 mov	 eax, DWORD PTR _ItemSubType$232412[ebp]
  0c415	50		 push	 eax
  0c416	8b 8d 5c ff ff
	ff		 mov	 ecx, DWORD PTR _ItemType$232408[ebp]
  0c41c	51		 push	 ecx
  0c41d	8b 95 64 ff ff
	ff		 mov	 edx, DWORD PTR _loop_count$[ebp]
  0c423	52		 push	 edx
  0c424	68 00 00 00 00	 push	 OFFSET ??_C@_0DN@NLHNDLLL@Error?5?3?5Item?5Data?5fail?4?5?$CILoopCou@
  0c429	e8 00 00 00 00	 call	 ?MsgBox@@YAXPADZZ	; MsgBox
  0c42e	83 c4 10	 add	 esp, 16			; 00000010H

; 5785 : 					break;

  0c431	eb 05		 jmp	 SHORT $LN28@OpenItemSc@2
$LN1@OpenItemSc@2:

; 5786 : 				}
; 5787 : 			}

  0c433	e9 2e f3 ff ff	 jmp	 $LN29@OpenItemSc@2
$LN28@OpenItemSc@2:

; 5788 : 		}
; 5789 : 	}

  0c438	e9 d5 f2 ff ff	 jmp	 $LN34@OpenItemSc@2
$LN32@OpenItemSc@2:

; 5790 : 	
; 5791 : 	return TRUE;

  0c43d	c7 85 0c ff ff
	ff 01 00 00 00	 mov	 DWORD PTR $T232906[ebp], 1
  0c447	c7 45 fc ff ff
	ff ff		 mov	 DWORD PTR __$EHRec$[ebp+8], -1
  0c44e	8d 8d 6c ff ff
	ff		 lea	 ecx, DWORD PTR _WzMemScript$[ebp]
  0c454	e8 00 00 00 00	 call	 ??1CWzMemScript@@UAE@XZ	; CWzMemScript::~CWzMemScript
  0c459	8b 85 0c ff ff
	ff		 mov	 eax, DWORD PTR $T232906[ebp]

; 5792 : 
; 5793 : }

  0c45f	8b 4d f4	 mov	 ecx, DWORD PTR __$EHRec$[ebp]
  0c462	64 89 0d 00 00
	00 00		 mov	 DWORD PTR fs:0, ecx
  0c469	59		 pop	 ecx
  0c46a	5f		 pop	 edi
  0c46b	5e		 pop	 esi
  0c46c	5b		 pop	 ebx
  0c46d	8b 4d f0	 mov	 ecx, DWORD PTR __$ArrayPad$[ebp]
  0c470	33 cd		 xor	 ecx, ebp
  0c472	e8 00 00 00 00	 call	 @__security_check_cookie@4
  0c477	8b e5		 mov	 esp, ebp
  0c479	5d		 pop	 ebp
  0c47a	c3		 ret	 0
_TEXT	ENDS
text$x	SEGMENT
__unwindfunclet$?OpenItemScript@@YAHPADH@Z$0:
  00000	8d 8d 6c ff ff
	ff		 lea	 ecx, DWORD PTR _WzMemScript$[ebp]
  00006	e9 00 00 00 00	 jmp	 ??1CWzMemScript@@UAE@XZ	; CWzMemScript::~CWzMemScript
__ehhandler$?OpenItemScript@@YAHPADH@Z:
  0000b	8b 54 24 08	 mov	 edx, DWORD PTR [esp+8]
  0000f	8d 42 0c	 lea	 eax, DWORD PTR [edx+12]
  00012	8b 8a 08 ff ff
	ff		 mov	 ecx, DWORD PTR [edx-248]
  00018	33 c8		 xor	 ecx, eax
  0001a	e8 00 00 00 00	 call	 @__security_check_cookie@4
  0001f	8b 4a fc	 mov	 ecx, DWORD PTR [edx-4]
  00022	33 c8		 xor	 ecx, eax
  00024	e8 00 00 00 00	 call	 @__security_check_cookie@4
  00029	b8 00 00 00 00	 mov	 eax, OFFSET __ehfuncinfo$?OpenItemScript@@YAHPADH@Z
  0002e	e9 00 00 00 00	 jmp	 ___CxxFrameHandler3
text$x	ENDS
?OpenItemScript@@YAHPADH@Z ENDP				; OpenItemScript
PUBLIC	__$ArrayPad$
PUBLIC	?OpenItemNameScript@@YAHPADH@Z			; OpenItemNameScript
xdata$x	SEGMENT
__unwindtable$?OpenItemNameScript@@YAHPADH@Z DD 0ffffffffH
	DD	FLAT:__unwindfunclet$?OpenItemNameScript@@YAHPADH@Z$0
__ehfuncinfo$?OpenItemNameScript@@YAHPADH@Z DD 019930522H
	DD	01H
	DD	FLAT:__unwindtable$?OpenItemNameScript@@YAHPADH@Z
	DD	2 DUP(00H)
	DD	2 DUP(00H)
	DD	00H
	DD	01H
; Function compile flags: /Odtp /ZI
xdata$x	ENDS
_TEXT	SEGMENT
$T232917 = -232						; size = 4
_p$232461 = -164					; size = 4
_ItemSubType$232460 = -160				; size = 4
_ItemType$232456 = -156					; size = 4
_Token$ = -152						; size = 4
_WzMemScript$ = -148					; size = 132
__$ArrayPad$ = -16					; size = 4
__$EHRec$ = -12						; size = 12
_Buffer$ = 8						; size = 4
_iSize$ = 12						; size = 4
?OpenItemNameScript@@YAHPADH@Z PROC			; OpenItemNameScript

; 5796 : {

  0c480	55		 push	 ebp
  0c481	8b ec		 mov	 ebp, esp
  0c483	6a ff		 push	 -1
  0c485	68 00 00 00 00	 push	 __ehhandler$?OpenItemNameScript@@YAHPADH@Z
  0c48a	64 a1 00 00 00
	00		 mov	 eax, DWORD PTR fs:0
  0c490	50		 push	 eax
  0c491	81 ec dc 00 00
	00		 sub	 esp, 220		; 000000dcH
  0c497	a1 00 00 00 00	 mov	 eax, DWORD PTR ___security_cookie
  0c49c	33 c5		 xor	 eax, ebp
  0c49e	89 45 f0	 mov	 DWORD PTR __$ArrayPad$[ebp], eax
  0c4a1	53		 push	 ebx
  0c4a2	56		 push	 esi
  0c4a3	57		 push	 edi
  0c4a4	50		 push	 eax
  0c4a5	8d 45 f4	 lea	 eax, DWORD PTR __$EHRec$[ebp]
  0c4a8	64 a3 00 00 00
	00		 mov	 DWORD PTR fs:0, eax

; 5797 : 	CWzMemScript WzMemScript;

  0c4ae	8d 8d 6c ff ff
	ff		 lea	 ecx, DWORD PTR _WzMemScript$[ebp]
  0c4b4	e8 00 00 00 00	 call	 ??0CWzMemScript@@QAE@XZ	; CWzMemScript::CWzMemScript
  0c4b9	c7 45 fc 00 00
	00 00		 mov	 DWORD PTR __$EHRec$[ebp+8], 0

; 5798 : 	int Token;
; 5799 : 
; 5800 : 	WzMemScript.SetBuffer(Buffer, iSize);

  0c4c0	8b 45 0c	 mov	 eax, DWORD PTR _iSize$[ebp]
  0c4c3	50		 push	 eax
  0c4c4	8b 4d 08	 mov	 ecx, DWORD PTR _Buffer$[ebp]
  0c4c7	51		 push	 ecx
  0c4c8	8d 8d 6c ff ff
	ff		 lea	 ecx, DWORD PTR _WzMemScript$[ebp]
  0c4ce	e8 00 00 00 00	 call	 ?SetBuffer@CWzMemScript@@QAEHPADH@Z ; CWzMemScript::SetBuffer
$LN8@OpenItemNa@2:

; 5801 : 
; 5802 : 	while ( true )

  0c4d3	b8 01 00 00 00	 mov	 eax, 1
  0c4d8	85 c0		 test	 eax, eax
  0c4da	0f 84 e7 00 00
	00		 je	 $LN7@OpenItemNa@2

; 5803 : 	{
; 5804 : 		Token = WzMemScript.GetToken();

  0c4e0	8d 8d 6c ff ff
	ff		 lea	 ecx, DWORD PTR _WzMemScript$[ebp]
  0c4e6	e8 00 00 00 00	 call	 ?GetToken@CWzMemScript@@QAE?AW4SMDToken@@XZ ; CWzMemScript::GetToken
  0c4eb	89 85 68 ff ff
	ff		 mov	 DWORD PTR _Token$[ebp], eax

; 5805 : 
; 5806 : 		if ( Token == 2 )

  0c4f1	83 bd 68 ff ff
	ff 02		 cmp	 DWORD PTR _Token$[ebp], 2
  0c4f8	75 05		 jne	 SHORT $LN6@OpenItemNa@2

; 5807 : 		{
; 5808 : 			break;

  0c4fa	e9 c8 00 00 00	 jmp	 $LN7@OpenItemNa@2
$LN6@OpenItemNa@2:

; 5809 : 		}
; 5810 : 
; 5811 : 		if ( Token == 1 )

  0c4ff	83 bd 68 ff ff
	ff 01		 cmp	 DWORD PTR _Token$[ebp], 1
  0c506	0f 85 b6 00 00
	00		 jne	 $LN5@OpenItemNa@2

; 5812 : 		{
; 5813 : 			int ItemType;
; 5814 : 
; 5815 : 			ItemType = WzMemScript.GetNumber();

  0c50c	8d 8d 6c ff ff
	ff		 lea	 ecx, DWORD PTR _WzMemScript$[ebp]
  0c512	e8 00 00 00 00	 call	 ?GetNumber@CWzMemScript@@QAEHXZ ; CWzMemScript::GetNumber
  0c517	89 85 64 ff ff
	ff		 mov	 DWORD PTR _ItemType$232456[ebp], eax
$LN4@OpenItemNa@2:

; 5816 : 
; 5817 : 			while ( true )

  0c51d	b8 01 00 00 00	 mov	 eax, 1
  0c522	85 c0		 test	 eax, eax
  0c524	0f 84 98 00 00
	00		 je	 $LN5@OpenItemNa@2

; 5818 : 			{
; 5819 : 				int ItemSubType;
; 5820 : 				LPITEM_ATTRIBUTE p;
; 5821 : 
; 5822 : 				Token = WzMemScript.GetToken();

  0c52a	8d 8d 6c ff ff
	ff		 lea	 ecx, DWORD PTR _WzMemScript$[ebp]
  0c530	e8 00 00 00 00	 call	 ?GetToken@CWzMemScript@@QAE?AW4SMDToken@@XZ ; CWzMemScript::GetToken
  0c535	89 85 68 ff ff
	ff		 mov	 DWORD PTR _Token$[ebp], eax

; 5823 : 				ItemSubType = WzMemScript.GetNumber();

  0c53b	8d 8d 6c ff ff
	ff		 lea	 ecx, DWORD PTR _WzMemScript$[ebp]
  0c541	e8 00 00 00 00	 call	 ?GetNumber@CWzMemScript@@QAEHXZ ; CWzMemScript::GetNumber
  0c546	89 85 60 ff ff
	ff		 mov	 DWORD PTR _ItemSubType$232460[ebp], eax

; 5824 : 				
; 5825 : 				if ( Token == 0 )

  0c54c	83 bd 68 ff ff
	ff 00		 cmp	 DWORD PTR _Token$[ebp], 0
  0c553	75 1f		 jne	 SHORT $LN2@OpenItemNa@2

; 5826 : 				{
; 5827 : 					if ( strcmp("end", WzMemScript.GetString() ) == 0 )

  0c555	8d 8d 6c ff ff
	ff		 lea	 ecx, DWORD PTR _WzMemScript$[ebp]
  0c55b	e8 00 00 00 00	 call	 ?GetString@CWzMemScript@@QAEPADXZ ; CWzMemScript::GetString
  0c560	50		 push	 eax
  0c561	68 00 00 00 00	 push	 OFFSET ??_C@_03JBJLGPFL@end?$AA@
  0c566	e8 00 00 00 00	 call	 _strcmp
  0c56b	83 c4 08	 add	 esp, 8
  0c56e	85 c0		 test	 eax, eax
  0c570	75 02		 jne	 SHORT $LN2@OpenItemNa@2

; 5828 : 					{
; 5829 : 						break;

  0c572	eb 4e		 jmp	 SHORT $LN5@OpenItemNa@2
$LN2@OpenItemNa@2:

; 5830 : 					}
; 5831 : 				}
; 5832 : 					
; 5833 : 				p = &ItemAttribute[ItemType*MAX_SUBTYPE_ITEMS + ItemSubType];

  0c574	8b 85 64 ff ff
	ff		 mov	 eax, DWORD PTR _ItemType$232456[ebp]
  0c57a	c1 e0 09	 shl	 eax, 9
  0c57d	03 85 60 ff ff
	ff		 add	 eax, DWORD PTR _ItemSubType$232460[ebp]
  0c583	6b c0 70	 imul	 eax, 112		; 00000070H
  0c586	05 00 00 00 00	 add	 eax, OFFSET ?ItemAttribute@@3PAUITEM_ATTRIBUTE@@A ; ItemAttribute
  0c58b	89 85 5c ff ff
	ff		 mov	 DWORD PTR _p$232461[ebp], eax

; 5834 : 
; 5835 : 				Token = WzMemScript.GetToken();

  0c591	8d 8d 6c ff ff
	ff		 lea	 ecx, DWORD PTR _WzMemScript$[ebp]
  0c597	e8 00 00 00 00	 call	 ?GetToken@CWzMemScript@@QAE?AW4SMDToken@@XZ ; CWzMemScript::GetToken
  0c59c	89 85 68 ff ff
	ff		 mov	 DWORD PTR _Token$[ebp], eax

; 5836 : 				strcpy(&p->Name[0], WzMemScript.GetString() );

  0c5a2	8d 8d 6c ff ff
	ff		 lea	 ecx, DWORD PTR _WzMemScript$[ebp]
  0c5a8	e8 00 00 00 00	 call	 ?GetString@CWzMemScript@@QAEPADXZ ; CWzMemScript::GetString
  0c5ad	50		 push	 eax
  0c5ae	8b 85 5c ff ff
	ff		 mov	 eax, DWORD PTR _p$232461[ebp]
  0c5b4	50		 push	 eax
  0c5b5	e8 00 00 00 00	 call	 _strcpy
  0c5ba	83 c4 08	 add	 esp, 8

; 5837 : 
; 5838 : 				
; 5839 : 			}

  0c5bd	e9 5b ff ff ff	 jmp	 $LN4@OpenItemNa@2
$LN5@OpenItemNa@2:

; 5840 : 		}
; 5841 : 	}

  0c5c2	e9 0c ff ff ff	 jmp	 $LN8@OpenItemNa@2
$LN7@OpenItemNa@2:

; 5842 : 	return TRUE;

  0c5c7	c7 85 18 ff ff
	ff 01 00 00 00	 mov	 DWORD PTR $T232917[ebp], 1
  0c5d1	c7 45 fc ff ff
	ff ff		 mov	 DWORD PTR __$EHRec$[ebp+8], -1
  0c5d8	8d 8d 6c ff ff
	ff		 lea	 ecx, DWORD PTR _WzMemScript$[ebp]
  0c5de	e8 00 00 00 00	 call	 ??1CWzMemScript@@UAE@XZ	; CWzMemScript::~CWzMemScript
  0c5e3	8b 85 18 ff ff
	ff		 mov	 eax, DWORD PTR $T232917[ebp]

; 5843 : }

  0c5e9	8b 4d f4	 mov	 ecx, DWORD PTR __$EHRec$[ebp]
  0c5ec	64 89 0d 00 00
	00 00		 mov	 DWORD PTR fs:0, ecx
  0c5f3	59		 pop	 ecx
  0c5f4	5f		 pop	 edi
  0c5f5	5e		 pop	 esi
  0c5f6	5b		 pop	 ebx
  0c5f7	8b 4d f0	 mov	 ecx, DWORD PTR __$ArrayPad$[ebp]
  0c5fa	33 cd		 xor	 ecx, ebp
  0c5fc	e8 00 00 00 00	 call	 @__security_check_cookie@4
  0c601	8b e5		 mov	 esp, ebp
  0c603	5d		 pop	 ebp
  0c604	c3		 ret	 0
_TEXT	ENDS
text$x	SEGMENT
__unwindfunclet$?OpenItemNameScript@@YAHPADH@Z$0:
  00033	8d 8d 6c ff ff
	ff		 lea	 ecx, DWORD PTR _WzMemScript$[ebp]
  00039	e9 00 00 00 00	 jmp	 ??1CWzMemScript@@UAE@XZ	; CWzMemScript::~CWzMemScript
__ehhandler$?OpenItemNameScript@@YAHPADH@Z:
  0003e	8b 54 24 08	 mov	 edx, DWORD PTR [esp+8]
  00042	8d 42 0c	 lea	 eax, DWORD PTR [edx+12]
  00045	8b 8a 14 ff ff
	ff		 mov	 ecx, DWORD PTR [edx-236]
  0004b	33 c8		 xor	 ecx, eax
  0004d	e8 00 00 00 00	 call	 @__security_check_cookie@4
  00052	8b 4a fc	 mov	 ecx, DWORD PTR [edx-4]
  00055	33 c8		 xor	 ecx, eax
  00057	e8 00 00 00 00	 call	 @__security_check_cookie@4
  0005c	b8 00 00 00 00	 mov	 eax, OFFSET __ehfuncinfo$?OpenItemNameScript@@YAHPADH@Z
  00061	e9 00 00 00 00	 jmp	 ___CxxFrameHandler3
text$x	ENDS
?OpenItemNameScript@@YAHPADH@Z ENDP			; OpenItemNameScript
PUBLIC	?zzzItemLevel@@YAHHHH@Z				; zzzItemLevel
; Function compile flags: /Odtp /ZI
_TEXT	SEGMENT
_item_num$ = -4						; size = 4
_type$ = 8						; size = 4
_index$ = 12						; size = 4
_level$ = 16						; size = 4
?zzzItemLevel@@YAHHHH@Z PROC				; zzzItemLevel

; 5846 : {

  0c610	55		 push	 ebp
  0c611	8b ec		 mov	 ebp, esp
  0c613	83 ec 44	 sub	 esp, 68			; 00000044H
  0c616	53		 push	 ebx
  0c617	56		 push	 esi
  0c618	57		 push	 edi

; 5847 : 	int item_num = (type*MAX_SUBTYPE_ITEMS)+index ;

  0c619	8b 45 08	 mov	 eax, DWORD PTR _type$[ebp]
  0c61c	c1 e0 09	 shl	 eax, 9
  0c61f	03 45 0c	 add	 eax, DWORD PTR _index$[ebp]
  0c622	89 45 fc	 mov	 DWORD PTR _item_num$[ebp], eax

; 5848 : 
; 5849 : 	if (level < 0 )

  0c625	83 7d 10 00	 cmp	 DWORD PTR _level$[ebp], 0
  0c629	7d 07		 jge	 SHORT $LN4@zzzItemLev

; 5850 : 	{
; 5851 : 		level = 0;

  0c62b	c7 45 10 00 00
	00 00		 mov	 DWORD PTR _level$[ebp], 0
$LN4@zzzItemLev:

; 5852 : 	}
; 5853 : 	
; 5854 : 	if ( ItemAttribute[item_num].Level == (BYTE)-1 )

  0c632	8b 45 fc	 mov	 eax, DWORD PTR _item_num$[ebp]
  0c635	6b c0 70	 imul	 eax, 112		; 00000070H
  0c638	0f b6 88 22 00
	00 00		 movzx	 ecx, BYTE PTR ?ItemAttribute@@3PAUITEM_ATTRIBUTE@@A[eax+34]
  0c63f	81 f9 ff 00 00
	00		 cmp	 ecx, 255		; 000000ffH
  0c645	75 04		 jne	 SHORT $LN3@zzzItemLev

; 5855 : 	{
; 5856 : 		return 0;

  0c647	33 c0		 xor	 eax, eax
  0c649	eb 30		 jmp	 SHORT $LN5@zzzItemLev
$LN3@zzzItemLev:

; 5857 : 	}
; 5858 : 
; 5859 : 	if ( ItemAttribute[item_num].Level == 0 )

  0c64b	8b 45 fc	 mov	 eax, DWORD PTR _item_num$[ebp]
  0c64e	6b c0 70	 imul	 eax, 112		; 00000070H
  0c651	0f b6 88 22 00
	00 00		 movzx	 ecx, BYTE PTR ?ItemAttribute@@3PAUITEM_ATTRIBUTE@@A[eax+34]
  0c658	85 c9		 test	 ecx, ecx
  0c65a	75 04		 jne	 SHORT $LN2@zzzItemLev

; 5860 : 	{
; 5861 : 		return 0;

  0c65c	33 c0		 xor	 eax, eax
  0c65e	eb 1b		 jmp	 SHORT $LN5@zzzItemLev
$LN2@zzzItemLev:

; 5862 : 	}
; 5863 : 
; 5864 : 	if ( ItemAttribute[item_num].Level < level )

  0c660	8b 45 fc	 mov	 eax, DWORD PTR _item_num$[ebp]
  0c663	6b c0 70	 imul	 eax, 112		; 00000070H
  0c666	0f b6 88 22 00
	00 00		 movzx	 ecx, BYTE PTR ?ItemAttribute@@3PAUITEM_ATTRIBUTE@@A[eax+34]
  0c66d	3b 4d 10	 cmp	 ecx, DWORD PTR _level$[ebp]
  0c670	7d 07		 jge	 SHORT $LN1@zzzItemLev

; 5865 : 	{
; 5866 : 		return 1;

  0c672	b8 01 00 00 00	 mov	 eax, 1
  0c677	eb 02		 jmp	 SHORT $LN5@zzzItemLev
$LN1@zzzItemLev:

; 5867 : 	}
; 5868 : 
; 5869 : 	return 0;

  0c679	33 c0		 xor	 eax, eax
$LN5@zzzItemLev:

; 5870 : }

  0c67b	5f		 pop	 edi
  0c67c	5e		 pop	 esi
  0c67d	5b		 pop	 ebx
  0c67e	8b e5		 mov	 esp, ebp
  0c680	5d		 pop	 ebp
  0c681	c3		 ret	 0
?zzzItemLevel@@YAHHHH@Z ENDP				; zzzItemLevel
_TEXT	ENDS
PUBLIC	?GetLevelItem@@YAHHHH@Z				; GetLevelItem
EXTRN	_rand:PROC
; Function compile flags: /Odtp /ZI
_TEXT	SEGMENT
_ilevel$232498 = -16					; size = 4
_ilevel$232492 = -12					; size = 4
_itemlevel$ = -8					; size = 4
_item_num$ = -4						; size = 4
_type$ = 8						; size = 4
_index$ = 12						; size = 4
_level$ = 16						; size = 4
?GetLevelItem@@YAHHHH@Z PROC				; GetLevelItem

; 5873 : {

  0c690	55		 push	 ebp
  0c691	8b ec		 mov	 ebp, esp
  0c693	83 ec 50	 sub	 esp, 80			; 00000050H
  0c696	53		 push	 ebx
  0c697	56		 push	 esi
  0c698	57		 push	 edi

; 5874 : 	int item_num;
; 5875 : 	int itemlevel;
; 5876 : 
; 5877 : 	if ( level < 0 )

  0c699	83 7d 10 00	 cmp	 DWORD PTR _level$[ebp], 0
  0c69d	7d 07		 jge	 SHORT $LN24@GetLevelIt

; 5878 : 	{
; 5879 : 		level = 0;

  0c69f	c7 45 10 00 00
	00 00		 mov	 DWORD PTR _level$[ebp], 0
$LN24@GetLevelIt:

; 5880 : 	}
; 5881 : 
; 5882 : 	item_num = (type * MAX_SUBTYPE_ITEMS) + index;

  0c6a6	8b 45 08	 mov	 eax, DWORD PTR _type$[ebp]
  0c6a9	c1 e0 09	 shl	 eax, 9
  0c6ac	03 45 0c	 add	 eax, DWORD PTR _index$[ebp]
  0c6af	89 45 fc	 mov	 DWORD PTR _item_num$[ebp], eax

; 5883 : 
; 5884 : 	if (ItemAttribute[item_num].MondownFlag  == 0)

  0c6b2	8b 45 fc	 mov	 eax, DWORD PTR _item_num$[ebp]
  0c6b5	6b c0 70	 imul	 eax, 112		; 00000070H
  0c6b8	0f b6 88 27 00
	00 00		 movzx	 ecx, BYTE PTR ?ItemAttribute@@3PAUITEM_ATTRIBUTE@@A[eax+39]
  0c6bf	85 c9		 test	 ecx, ecx
  0c6c1	75 08		 jne	 SHORT $LN23@GetLevelIt

; 5885 : 	{
; 5886 : 		return -1;

  0c6c3	83 c8 ff	 or	 eax, -1
  0c6c6	e9 01 02 00 00	 jmp	 $LN25@GetLevelIt
$LN23@GetLevelIt:

; 5887 : 	}
; 5888 : 
; 5889 : 	if ( ItemAttribute[item_num].Level == 0xFF )

  0c6cb	8b 45 fc	 mov	 eax, DWORD PTR _item_num$[ebp]
  0c6ce	6b c0 70	 imul	 eax, 112		; 00000070H
  0c6d1	0f b6 88 22 00
	00 00		 movzx	 ecx, BYTE PTR ?ItemAttribute@@3PAUITEM_ATTRIBUTE@@A[eax+34]
  0c6d8	81 f9 ff 00 00
	00		 cmp	 ecx, 255		; 000000ffH
  0c6de	75 08		 jne	 SHORT $LN22@GetLevelIt

; 5890 : 	{
; 5891 : 		return -1;

  0c6e0	83 c8 ff	 or	 eax, -1
  0c6e3	e9 e4 01 00 00	 jmp	 $LN25@GetLevelIt
$LN22@GetLevelIt:

; 5892 : 	}
; 5893 : 
; 5894 : 	if ( ItemAttribute[item_num].Level == 0 )

  0c6e8	8b 45 fc	 mov	 eax, DWORD PTR _item_num$[ebp]
  0c6eb	6b c0 70	 imul	 eax, 112		; 00000070H
  0c6ee	0f b6 88 22 00
	00 00		 movzx	 ecx, BYTE PTR ?ItemAttribute@@3PAUITEM_ATTRIBUTE@@A[eax+34]
  0c6f5	85 c9		 test	 ecx, ecx
  0c6f7	75 08		 jne	 SHORT $LN21@GetLevelIt

; 5895 : 	{
; 5896 : 		return -1;

  0c6f9	83 c8 ff	 or	 eax, -1
  0c6fc	e9 cb 01 00 00	 jmp	 $LN25@GetLevelIt
$LN21@GetLevelIt:

; 5897 : 	}
; 5898 : 
; 5899 : 	if ( type == 14 )

  0c701	83 7d 08 0e	 cmp	 DWORD PTR _type$[ebp], 14 ; 0000000eH
  0c705	75 40		 jne	 SHORT $LN20@GetLevelIt

; 5900 : 	{
; 5901 : 		itemlevel = ItemAttribute[item_num].Level;

  0c707	8b 45 fc	 mov	 eax, DWORD PTR _item_num$[ebp]
  0c70a	6b c0 70	 imul	 eax, 112		; 00000070H
  0c70d	0f b6 88 22 00
	00 00		 movzx	 ecx, BYTE PTR ?ItemAttribute@@3PAUITEM_ATTRIBUTE@@A[eax+34]
  0c714	89 4d f8	 mov	 DWORD PTR _itemlevel$[ebp], ecx

; 5902 : 
; 5903 : 		if ( index == 15 )

  0c717	83 7d 0c 0f	 cmp	 DWORD PTR _index$[ebp], 15 ; 0000000fH
  0c71b	75 08		 jne	 SHORT $LN19@GetLevelIt

; 5904 : 		{
; 5905 : 			return -1;

  0c71d	83 c8 ff	 or	 eax, -1
  0c720	e9 a7 01 00 00	 jmp	 $LN25@GetLevelIt
$LN19@GetLevelIt:

; 5906 : 		}
; 5907 : 
; 5908 : 		if ( itemlevel >= (level-8) )

  0c725	8b 45 10	 mov	 eax, DWORD PTR _level$[ebp]
  0c728	83 e8 08	 sub	 eax, 8
  0c72b	39 45 f8	 cmp	 DWORD PTR _itemlevel$[ebp], eax
  0c72e	7c 0f		 jl	 SHORT $LN18@GetLevelIt

; 5909 : 		{
; 5910 : 			if ( itemlevel <= level )

  0c730	8b 45 f8	 mov	 eax, DWORD PTR _itemlevel$[ebp]
  0c733	3b 45 10	 cmp	 eax, DWORD PTR _level$[ebp]
  0c736	7f 07		 jg	 SHORT $LN18@GetLevelIt

; 5911 : 			{
; 5912 : 				return 0;

  0c738	33 c0		 xor	 eax, eax
  0c73a	e9 8d 01 00 00	 jmp	 $LN25@GetLevelIt
$LN18@GetLevelIt:

; 5913 : 			}
; 5914 : 		}
; 5915 : 
; 5916 : 		return -1;

  0c73f	83 c8 ff	 or	 eax, -1
  0c742	e9 85 01 00 00	 jmp	 $LN25@GetLevelIt
$LN20@GetLevelIt:

; 5917 : 	}
; 5918 : 
; 5919 : 	if ( type == 13 && index == 10  )

  0c747	83 7d 08 0d	 cmp	 DWORD PTR _type$[ebp], 13 ; 0000000dH
  0c74b	75 65		 jne	 SHORT $LN16@GetLevelIt
  0c74d	83 7d 0c 0a	 cmp	 DWORD PTR _index$[ebp], 10 ; 0000000aH
  0c751	75 5f		 jne	 SHORT $LN16@GetLevelIt

; 5920 : 	{
; 5921 : 		int ilevel;
; 5922 : 
; 5923 : 		if ( (rand()%10) == 0 )

  0c753	e8 00 00 00 00	 call	 _rand
  0c758	99		 cdq
  0c759	b9 0a 00 00 00	 mov	 ecx, 10			; 0000000aH
  0c75e	f7 f9		 idiv	 ecx
  0c760	85 d2		 test	 edx, edx
  0c762	75 46		 jne	 SHORT $LN15@GetLevelIt

; 5924 : 		{
; 5925 : 			ilevel = 0;

  0c764	c7 45 f4 00 00
	00 00		 mov	 DWORD PTR _ilevel$232492[ebp], 0

; 5926 : 
; 5927 : 			if ( level < 0 )

  0c76b	83 7d 10 00	 cmp	 DWORD PTR _level$[ebp], 0
  0c76f	7d 07		 jge	 SHORT $LN14@GetLevelIt

; 5928 : 			{
; 5929 : 				level = 0;

  0c771	c7 45 10 00 00
	00 00		 mov	 DWORD PTR _level$[ebp], 0
$LN14@GetLevelIt:

; 5930 : 			}
; 5931 : 
; 5932 : 			ilevel= level/10;

  0c778	8b 45 10	 mov	 eax, DWORD PTR _level$[ebp]
  0c77b	99		 cdq
  0c77c	b9 0a 00 00 00	 mov	 ecx, 10			; 0000000aH
  0c781	f7 f9		 idiv	 ecx
  0c783	89 45 f4	 mov	 DWORD PTR _ilevel$232492[ebp], eax

; 5933 : 
; 5934 : 			if ( ilevel > 0 )

  0c786	83 7d f4 00	 cmp	 DWORD PTR _ilevel$232492[ebp], 0
  0c78a	7e 09		 jle	 SHORT $LN13@GetLevelIt

; 5935 : 			{
; 5936 : 				ilevel--;

  0c78c	8b 45 f4	 mov	 eax, DWORD PTR _ilevel$232492[ebp]
  0c78f	83 e8 01	 sub	 eax, 1
  0c792	89 45 f4	 mov	 DWORD PTR _ilevel$232492[ebp], eax
$LN13@GetLevelIt:

; 5937 : 			}
; 5938 : 
; 5939 : 			if ( ilevel > 5)

  0c795	83 7d f4 05	 cmp	 DWORD PTR _ilevel$232492[ebp], 5
  0c799	7e 07		 jle	 SHORT $LN12@GetLevelIt

; 5940 : 			{
; 5941 : 				ilevel = 5;

  0c79b	c7 45 f4 05 00
	00 00		 mov	 DWORD PTR _ilevel$232492[ebp], 5
$LN12@GetLevelIt:

; 5942 : 			}
; 5943 : 
; 5944 : 			return ilevel;

  0c7a2	8b 45 f4	 mov	 eax, DWORD PTR _ilevel$232492[ebp]
  0c7a5	e9 22 01 00 00	 jmp	 $LN25@GetLevelIt
$LN15@GetLevelIt:

; 5945 : 		}
; 5946 : 
; 5947 : 		return -1;

  0c7aa	83 c8 ff	 or	 eax, -1
  0c7ad	e9 1a 01 00 00	 jmp	 $LN25@GetLevelIt
$LN16@GetLevelIt:

; 5948 : 	}
; 5949 : 
; 5950 : 	if ( type == 12 && index ==  11 )

  0c7b2	83 7d 08 0c	 cmp	 DWORD PTR _type$[ebp], 12 ; 0000000cH
  0c7b6	75 65		 jne	 SHORT $LN11@GetLevelIt
  0c7b8	83 7d 0c 0b	 cmp	 DWORD PTR _index$[ebp], 11 ; 0000000bH
  0c7bc	75 5f		 jne	 SHORT $LN11@GetLevelIt

; 5951 : 	{
; 5952 : 		int ilevel;
; 5953 : 
; 5954 : 		if ( (rand()%10) == 0 )

  0c7be	e8 00 00 00 00	 call	 _rand
  0c7c3	99		 cdq
  0c7c4	b9 0a 00 00 00	 mov	 ecx, 10			; 0000000aH
  0c7c9	f7 f9		 idiv	 ecx
  0c7cb	85 d2		 test	 edx, edx
  0c7cd	75 46		 jne	 SHORT $LN10@GetLevelIt

; 5955 : 		{
; 5956 : 			ilevel = 0;

  0c7cf	c7 45 f0 00 00
	00 00		 mov	 DWORD PTR _ilevel$232498[ebp], 0

; 5957 : 
; 5958 : 			if ( level < 0 )

  0c7d6	83 7d 10 00	 cmp	 DWORD PTR _level$[ebp], 0
  0c7da	7d 07		 jge	 SHORT $LN9@GetLevelIt

; 5959 : 			{
; 5960 : 				level = 0;

  0c7dc	c7 45 10 00 00
	00 00		 mov	 DWORD PTR _level$[ebp], 0
$LN9@GetLevelIt:

; 5961 : 			}
; 5962 : 
; 5963 : 			ilevel= level/10;

  0c7e3	8b 45 10	 mov	 eax, DWORD PTR _level$[ebp]
  0c7e6	99		 cdq
  0c7e7	b9 0a 00 00 00	 mov	 ecx, 10			; 0000000aH
  0c7ec	f7 f9		 idiv	 ecx
  0c7ee	89 45 f0	 mov	 DWORD PTR _ilevel$232498[ebp], eax

; 5964 : 
; 5965 : 			if ( ilevel > 0 )

  0c7f1	83 7d f0 00	 cmp	 DWORD PTR _ilevel$232498[ebp], 0
  0c7f5	7e 09		 jle	 SHORT $LN8@GetLevelIt

; 5966 : 			{
; 5967 : 				ilevel--;

  0c7f7	8b 45 f0	 mov	 eax, DWORD PTR _ilevel$232498[ebp]
  0c7fa	83 e8 01	 sub	 eax, 1
  0c7fd	89 45 f0	 mov	 DWORD PTR _ilevel$232498[ebp], eax
$LN8@GetLevelIt:

; 5968 : 			}
; 5969 : 
; 5970 : 			if ( ilevel > 6)

  0c800	83 7d f0 06	 cmp	 DWORD PTR _ilevel$232498[ebp], 6
  0c804	7e 07		 jle	 SHORT $LN7@GetLevelIt

; 5971 : 			{
; 5972 : 				ilevel = 6;

  0c806	c7 45 f0 06 00
	00 00		 mov	 DWORD PTR _ilevel$232498[ebp], 6
$LN7@GetLevelIt:

; 5973 : 			}
; 5974 : 
; 5975 : 			return ilevel;

  0c80d	8b 45 f0	 mov	 eax, DWORD PTR _ilevel$232498[ebp]
  0c810	e9 b7 00 00 00	 jmp	 $LN25@GetLevelIt
$LN10@GetLevelIt:

; 5976 : 		}
; 5977 : 
; 5978 : 		return -1;

  0c815	83 c8 ff	 or	 eax, -1
  0c818	e9 af 00 00 00	 jmp	 $LN25@GetLevelIt
$LN11@GetLevelIt:

; 5979 : 	}	
; 5980 : 
; 5981 : 	itemlevel = ItemAttribute[item_num].Level;

  0c81d	8b 45 fc	 mov	 eax, DWORD PTR _item_num$[ebp]
  0c820	6b c0 70	 imul	 eax, 112		; 00000070H
  0c823	0f b6 88 22 00
	00 00		 movzx	 ecx, BYTE PTR ?ItemAttribute@@3PAUITEM_ATTRIBUTE@@A[eax+34]
  0c82a	89 4d f8	 mov	 DWORD PTR _itemlevel$[ebp], ecx

; 5982 : 	
; 5983 : 	if ( itemlevel >= level - 18 && itemlevel <= level)

  0c82d	8b 45 10	 mov	 eax, DWORD PTR _level$[ebp]
  0c830	83 e8 12	 sub	 eax, 18			; 00000012H
  0c833	39 45 f8	 cmp	 DWORD PTR _itemlevel$[ebp], eax
  0c836	0f 8c 8d 00 00
	00		 jl	 $LN6@GetLevelIt
  0c83c	8b 45 f8	 mov	 eax, DWORD PTR _itemlevel$[ebp]
  0c83f	3b 45 10	 cmp	 eax, DWORD PTR _level$[ebp]
  0c842	0f 8f 81 00 00
	00		 jg	 $LN6@GetLevelIt

; 5984 : 	{
; 5985 : 		if ( type == 15 )

  0c848	83 7d 08 0f	 cmp	 DWORD PTR _type$[ebp], 15 ; 0000000fH
  0c84c	75 04		 jne	 SHORT $LN5@GetLevelIt

; 5986 : 		{
; 5987 : 			return 0;

  0c84e	33 c0		 xor	 eax, eax
  0c850	eb 7a		 jmp	 SHORT $LN25@GetLevelIt
$LN5@GetLevelIt:

; 5988 : 		}
; 5989 : 
; 5990 : 		itemlevel = (level - itemlevel)/3;

  0c852	8b 45 10	 mov	 eax, DWORD PTR _level$[ebp]
  0c855	2b 45 f8	 sub	 eax, DWORD PTR _itemlevel$[ebp]
  0c858	99		 cdq
  0c859	b9 03 00 00 00	 mov	 ecx, 3
  0c85e	f7 f9		 idiv	 ecx
  0c860	89 45 f8	 mov	 DWORD PTR _itemlevel$[ebp], eax

; 5991 : 
; 5992 : 		if ( type == 13 )

  0c863	83 7d 08 0d	 cmp	 DWORD PTR _type$[ebp], 13 ; 0000000dH
  0c867	75 5b		 jne	 SHORT $LN4@GetLevelIt

; 5993 : 		{
; 5994 : 			if ( index == 8 || index == 9 || index == 12 || index == 13 || index == 20 || index == 21 || index == 22 || index == 23 || index == 24 || index == 25 || index == 26 || index == 27 || index == 28 )

  0c869	83 7d 0c 08	 cmp	 DWORD PTR _index$[ebp], 8
  0c86d	74 48		 je	 SHORT $LN2@GetLevelIt
  0c86f	83 7d 0c 09	 cmp	 DWORD PTR _index$[ebp], 9
  0c873	74 42		 je	 SHORT $LN2@GetLevelIt
  0c875	83 7d 0c 0c	 cmp	 DWORD PTR _index$[ebp], 12 ; 0000000cH
  0c879	74 3c		 je	 SHORT $LN2@GetLevelIt
  0c87b	83 7d 0c 0d	 cmp	 DWORD PTR _index$[ebp], 13 ; 0000000dH
  0c87f	74 36		 je	 SHORT $LN2@GetLevelIt
  0c881	83 7d 0c 14	 cmp	 DWORD PTR _index$[ebp], 20 ; 00000014H
  0c885	74 30		 je	 SHORT $LN2@GetLevelIt
  0c887	83 7d 0c 15	 cmp	 DWORD PTR _index$[ebp], 21 ; 00000015H
  0c88b	74 2a		 je	 SHORT $LN2@GetLevelIt
  0c88d	83 7d 0c 16	 cmp	 DWORD PTR _index$[ebp], 22 ; 00000016H
  0c891	74 24		 je	 SHORT $LN2@GetLevelIt
  0c893	83 7d 0c 17	 cmp	 DWORD PTR _index$[ebp], 23 ; 00000017H
  0c897	74 1e		 je	 SHORT $LN2@GetLevelIt
  0c899	83 7d 0c 18	 cmp	 DWORD PTR _index$[ebp], 24 ; 00000018H
  0c89d	74 18		 je	 SHORT $LN2@GetLevelIt
  0c89f	83 7d 0c 19	 cmp	 DWORD PTR _index$[ebp], 25 ; 00000019H
  0c8a3	74 12		 je	 SHORT $LN2@GetLevelIt
  0c8a5	83 7d 0c 1a	 cmp	 DWORD PTR _index$[ebp], 26 ; 0000001aH
  0c8a9	74 0c		 je	 SHORT $LN2@GetLevelIt
  0c8ab	83 7d 0c 1b	 cmp	 DWORD PTR _index$[ebp], 27 ; 0000001bH
  0c8af	74 06		 je	 SHORT $LN2@GetLevelIt
  0c8b1	83 7d 0c 1c	 cmp	 DWORD PTR _index$[ebp], 28 ; 0000001cH
  0c8b5	75 0d		 jne	 SHORT $LN4@GetLevelIt
$LN2@GetLevelIt:

; 5995 : 			{
; 5996 : 				if ( itemlevel > 4 )

  0c8b7	83 7d f8 04	 cmp	 DWORD PTR _itemlevel$[ebp], 4
  0c8bb	7e 07		 jle	 SHORT $LN4@GetLevelIt

; 5997 : 				{
; 5998 : 					itemlevel=4;

  0c8bd	c7 45 f8 04 00
	00 00		 mov	 DWORD PTR _itemlevel$[ebp], 4
$LN4@GetLevelIt:

; 5999 : 				}
; 6000 : 			}
; 6001 : 		}
; 6002 : 
; 6003 : 		return itemlevel;

  0c8c4	8b 45 f8	 mov	 eax, DWORD PTR _itemlevel$[ebp]
  0c8c7	eb 03		 jmp	 SHORT $LN25@GetLevelIt
$LN6@GetLevelIt:

; 6004 : 		
; 6005 : 	}
; 6006 : 	return -1;

  0c8c9	83 c8 ff	 or	 eax, -1
$LN25@GetLevelIt:

; 6007 : }

  0c8cc	5f		 pop	 edi
  0c8cd	5e		 pop	 esi
  0c8ce	5b		 pop	 ebx
  0c8cf	8b e5		 mov	 esp, ebp
  0c8d1	5d		 pop	 ebp
  0c8d2	c3		 ret	 0
?GetLevelItem@@YAHHHH@Z ENDP				; GetLevelItem
_TEXT	ENDS
PUBLIC	?GetSerialItem@@YAHH@Z				; GetSerialItem
; Function compile flags: /Odtp /ZI
_TEXT	SEGMENT
_item_num$ = -4						; size = 4
_type$ = 8						; size = 4
?GetSerialItem@@YAHH@Z PROC				; GetSerialItem

; 6010 : {

  0c8e0	55		 push	 ebp
  0c8e1	8b ec		 mov	 ebp, esp
  0c8e3	83 ec 44	 sub	 esp, 68			; 00000044H
  0c8e6	53		 push	 ebx
  0c8e7	56		 push	 esi
  0c8e8	57		 push	 edi

; 6011 : 	int item_num = type;

  0c8e9	8b 45 08	 mov	 eax, DWORD PTR _type$[ebp]
  0c8ec	89 45 fc	 mov	 DWORD PTR _item_num$[ebp], eax

; 6012 : 
; 6013 : 	if ( ItemAttribute[item_num].Level == 0xFF )

  0c8ef	8b 45 fc	 mov	 eax, DWORD PTR _item_num$[ebp]
  0c8f2	6b c0 70	 imul	 eax, 112		; 00000070H
  0c8f5	0f b6 88 22 00
	00 00		 movzx	 ecx, BYTE PTR ?ItemAttribute@@3PAUITEM_ATTRIBUTE@@A[eax+34]
  0c8fc	81 f9 ff 00 00
	00		 cmp	 ecx, 255		; 000000ffH
  0c902	75 05		 jne	 SHORT $LN2@GetSerialI

; 6014 : 	{
; 6015 : 		return -1;

  0c904	83 c8 ff	 or	 eax, -1
  0c907	eb 1a		 jmp	 SHORT $LN3@GetSerialI
$LN2@GetSerialI:

; 6016 : 	}
; 6017 : 	if ( ItemAttribute[item_num].Serial  == 0 )

  0c909	8b 45 fc	 mov	 eax, DWORD PTR _item_num$[ebp]
  0c90c	6b c0 70	 imul	 eax, 112		; 00000070H
  0c90f	0f be 88 25 00
	00 00		 movsx	 ecx, BYTE PTR ?ItemAttribute@@3PAUITEM_ATTRIBUTE@@A[eax+37]
  0c916	85 c9		 test	 ecx, ecx
  0c918	75 04		 jne	 SHORT $LN1@GetSerialI

; 6018 : 	{
; 6019 : 		return 0;

  0c91a	33 c0		 xor	 eax, eax
  0c91c	eb 05		 jmp	 SHORT $LN3@GetSerialI
$LN1@GetSerialI:

; 6020 : 	}
; 6021 : 	return 1;

  0c91e	b8 01 00 00 00	 mov	 eax, 1
$LN3@GetSerialI:

; 6022 : }

  0c923	5f		 pop	 edi
  0c924	5e		 pop	 esi
  0c925	5b		 pop	 ebx
  0c926	8b e5		 mov	 esp, ebp
  0c928	5d		 pop	 ebp
  0c929	c3		 ret	 0
?GetSerialItem@@YAHH@Z ENDP				; GetSerialItem
_TEXT	ENDS
PUBLIC	?IsItem@@YAHH@Z					; IsItem
; Function compile flags: /Odtp /ZI
_TEXT	SEGMENT
_item_num$ = 8						; size = 4
?IsItem@@YAHH@Z PROC					; IsItem

; 6025 : {

  0c930	55		 push	 ebp
  0c931	8b ec		 mov	 ebp, esp
  0c933	83 ec 40	 sub	 esp, 64			; 00000040H
  0c936	53		 push	 ebx
  0c937	56		 push	 esi
  0c938	57		 push	 edi

; 6026 : 	if ( item_num < 0 || item_num >= MAX_ITEMS )

  0c939	83 7d 08 00	 cmp	 DWORD PTR _item_num$[ebp], 0
  0c93d	7c 09		 jl	 SHORT $LN1@IsItem@2
  0c93f	81 7d 08 00 20
	00 00		 cmp	 DWORD PTR _item_num$[ebp], 8192 ; 00002000H
  0c946	7c 04		 jl	 SHORT $LN2@IsItem@2
$LN1@IsItem@2:

; 6027 : 	{
; 6028 : 		return 0;

  0c948	33 c0		 xor	 eax, eax
  0c94a	eb 0d		 jmp	 SHORT $LN3@IsItem@2
$LN2@IsItem@2:

; 6029 : 	}
; 6030 : 
; 6031 : 	return ItemAttribute[item_num].HaveItemInfo;

  0c94c	8b 45 08	 mov	 eax, DWORD PTR _item_num$[ebp]
  0c94f	6b c0 70	 imul	 eax, 112		; 00000070H
  0c952	0f b6 80 20 00
	00 00		 movzx	 eax, BYTE PTR ?ItemAttribute@@3PAUITEM_ATTRIBUTE@@A[eax+32]
$LN3@IsItem@2:

; 6032 : }

  0c959	5f		 pop	 edi
  0c95a	5e		 pop	 esi
  0c95b	5b		 pop	 ebx
  0c95c	8b e5		 mov	 esp, ebp
  0c95e	5d		 pop	 ebp
  0c95f	c3		 ret	 0
?IsItem@@YAHH@Z ENDP					; IsItem
_TEXT	ENDS
PUBLIC	?GetItemAttr@@YAPAUITEM_ATTRIBUTE@@H@Z		; GetItemAttr
; Function compile flags: /Odtp /ZI
_TEXT	SEGMENT
_item_num$ = 8						; size = 4
?GetItemAttr@@YAPAUITEM_ATTRIBUTE@@H@Z PROC		; GetItemAttr

; 6035 : {

  0c960	55		 push	 ebp
  0c961	8b ec		 mov	 ebp, esp
  0c963	83 ec 40	 sub	 esp, 64			; 00000040H
  0c966	53		 push	 ebx
  0c967	56		 push	 esi
  0c968	57		 push	 edi

; 6036 : 	if ( item_num < 0 || item_num >= MAX_ITEMS )

  0c969	83 7d 08 00	 cmp	 DWORD PTR _item_num$[ebp], 0
  0c96d	7c 09		 jl	 SHORT $LN1@GetItemAtt
  0c96f	81 7d 08 00 20
	00 00		 cmp	 DWORD PTR _item_num$[ebp], 8192 ; 00002000H
  0c976	7c 04		 jl	 SHORT $LN2@GetItemAtt
$LN1@GetItemAtt:

; 6037 : 	{
; 6038 : 		return NULL;

  0c978	33 c0		 xor	 eax, eax
  0c97a	eb 0b		 jmp	 SHORT $LN3@GetItemAtt
$LN2@GetItemAtt:

; 6039 : 	}
; 6040 : 
; 6041 : 	return &ItemAttribute[item_num];

  0c97c	8b 45 08	 mov	 eax, DWORD PTR _item_num$[ebp]
  0c97f	6b c0 70	 imul	 eax, 112		; 00000070H
  0c982	05 00 00 00 00	 add	 eax, OFFSET ?ItemAttribute@@3PAUITEM_ATTRIBUTE@@A ; ItemAttribute
$LN3@GetItemAtt:

; 6042 : }

  0c987	5f		 pop	 edi
  0c988	5e		 pop	 esi
  0c989	5b		 pop	 ebx
  0c98a	8b e5		 mov	 esp, ebp
  0c98c	5d		 pop	 ebp
  0c98d	c3		 ret	 0
?GetItemAttr@@YAPAUITEM_ATTRIBUTE@@H@Z ENDP		; GetItemAttr
_TEXT	ENDS
PUBLIC	??$_Pow_int@M@@YAMMH@Z				; _Pow_int<float>
; Function compile flags: /Odtp /ZI
; File d:\microsoft visual studio 10.0\vc\include\math.h
;	COMDAT ?pow@@YAMMH@Z
_TEXT	SEGMENT
__X$ = 8						; size = 4
__Y$ = 12						; size = 4
?pow@@YAMMH@Z PROC					; pow, COMDAT

; 536  :         {return (_Pow_int(_X, _Y)); }

  00000	55		 push	 ebp
  00001	8b ec		 mov	 ebp, esp
  00003	83 ec 40	 sub	 esp, 64			; 00000040H
  00006	53		 push	 ebx
  00007	56		 push	 esi
  00008	57		 push	 edi
  00009	8b 45 0c	 mov	 eax, DWORD PTR __Y$[ebp]
  0000c	50		 push	 eax
  0000d	51		 push	 ecx
  0000e	d9 45 08	 fld	 DWORD PTR __X$[ebp]
  00011	d9 1c 24	 fstp	 DWORD PTR [esp]
  00014	e8 00 00 00 00	 call	 ??$_Pow_int@M@@YAMMH@Z	; _Pow_int<float>
  00019	83 c4 08	 add	 esp, 8
  0001c	5f		 pop	 edi
  0001d	5e		 pop	 esi
  0001e	5b		 pop	 ebx
  0001f	8b e5		 mov	 esp, ebp
  00021	5d		 pop	 ebp
  00022	c3		 ret	 0
?pow@@YAMMH@Z ENDP					; pow
; Function compile flags: /Odtp /ZI
_TEXT	ENDS
;	COMDAT ??$_Pow_int@M@@YAMMH@Z
_TEXT	SEGMENT
tv92 = -84						; size = 4
tv82 = -80						; size = 8
__Z$202915 = -8						; size = 4
__N$ = -4						; size = 4
__X$ = 8						; size = 4
__Y$ = 12						; size = 4
??$_Pow_int@M@@YAMMH@Z PROC				; _Pow_int<float>, COMDAT

; 484  :         {unsigned int _N;

  00000	55		 push	 ebp
  00001	8b ec		 mov	 ebp, esp
  00003	83 ec 54	 sub	 esp, 84			; 00000054H
  00006	53		 push	 ebx
  00007	56		 push	 esi
  00008	57		 push	 edi

; 485  :         if (_Y >= 0)

  00009	83 7d 0c 00	 cmp	 DWORD PTR __Y$[ebp], 0
  0000d	7c 08		 jl	 SHORT $LN7@Pow_int

; 486  :                 _N = (unsigned int)_Y;

  0000f	8b 45 0c	 mov	 eax, DWORD PTR __Y$[ebp]
  00012	89 45 fc	 mov	 DWORD PTR __N$[ebp], eax

; 487  :         else

  00015	eb 08		 jmp	 SHORT $LN6@Pow_int
$LN7@Pow_int:

; 488  :                 _N = (unsigned int)(-_Y);

  00017	8b 45 0c	 mov	 eax, DWORD PTR __Y$[ebp]
  0001a	f7 d8		 neg	 eax
  0001c	89 45 fc	 mov	 DWORD PTR __N$[ebp], eax
$LN6@Pow_int:

; 489  :         for (_Ty _Z = _Ty(1); ; _X *= _X)

  0001f	d9 e8		 fld1
  00021	d9 5d f8	 fstp	 DWORD PTR __Z$202915[ebp]
  00024	eb 09		 jmp	 SHORT $LN5@Pow_int
$LN4@Pow_int:
  00026	d9 45 08	 fld	 DWORD PTR __X$[ebp]
  00029	d8 4d 08	 fmul	 DWORD PTR __X$[ebp]
  0002c	d9 5d 08	 fstp	 DWORD PTR __X$[ebp]
$LN5@Pow_int:

; 490  :                 {if ((_N & 1) != 0)

  0002f	8b 45 fc	 mov	 eax, DWORD PTR __N$[ebp]
  00032	83 e0 01	 and	 eax, 1
  00035	74 09		 je	 SHORT $LN2@Pow_int

; 491  :                         _Z *= _X;

  00037	d9 45 f8	 fld	 DWORD PTR __Z$202915[ebp]
  0003a	d8 4d 08	 fmul	 DWORD PTR __X$[ebp]
  0003d	d9 5d f8	 fstp	 DWORD PTR __Z$202915[ebp]
$LN2@Pow_int:

; 492  :                 if ((_N >>= 1) == 0)

  00040	8b 45 fc	 mov	 eax, DWORD PTR __N$[ebp]
  00043	d1 e8		 shr	 eax, 1
  00045	89 45 fc	 mov	 DWORD PTR __N$[ebp], eax
  00048	75 23		 jne	 SHORT $LN1@Pow_int

; 493  :                         return (_Y < 0 ? _Ty(1) / _Z : _Z); }}

  0004a	83 7d 0c 00	 cmp	 DWORD PTR __Y$[ebp], 0
  0004e	7d 0c		 jge	 SHORT $LN10@Pow_int
  00050	d9 45 f8	 fld	 DWORD PTR __Z$202915[ebp]
  00053	d9 e8		 fld1
  00055	de f1		 fdivrp	 ST(1), ST(0)
  00057	dd 5d b0	 fstp	 QWORD PTR tv82[ebp]
  0005a	eb 06		 jmp	 SHORT $LN11@Pow_int
$LN10@Pow_int:
  0005c	d9 45 f8	 fld	 DWORD PTR __Z$202915[ebp]
  0005f	dd 5d b0	 fstp	 QWORD PTR tv82[ebp]
$LN11@Pow_int:
  00062	dd 45 b0	 fld	 QWORD PTR tv82[ebp]
  00065	d9 5d ac	 fstp	 DWORD PTR tv92[ebp]
  00068	d9 45 ac	 fld	 DWORD PTR tv92[ebp]
  0006b	eb 02		 jmp	 SHORT $LN3@Pow_int
$LN1@Pow_int:
  0006d	eb b7		 jmp	 SHORT $LN4@Pow_int
$LN3@Pow_int:
  0006f	5f		 pop	 edi
  00070	5e		 pop	 esi
  00071	5b		 pop	 ebx
  00072	8b e5		 mov	 esp, ebp
  00074	5d		 pop	 ebp
  00075	c3		 ret	 0
??$_Pow_int@M@@YAMMH@Z ENDP				; _Pow_int<float>
; Function compile flags: /Odtp /ZI
; File d:\projects\exteam6.3\source\gameserver\common\zzzitem.cpp
_TEXT	ENDS
;	COMDAT ??__EgPetItemExp@@YAXXZ
text$yc	SEGMENT
??__EgPetItemExp@@YAXXZ PROC				; `dynamic initializer for 'gPetItemExp'', COMDAT

; 22   : CPetItemExp gPetItemExp;

  00000	55		 push	 ebp
  00001	8b ec		 mov	 ebp, esp
  00003	83 ec 40	 sub	 esp, 64			; 00000040H
  00006	53		 push	 ebx
  00007	56		 push	 esi
  00008	57		 push	 edi
  00009	b9 00 00 00 00	 mov	 ecx, OFFSET ?gPetItemExp@@3VCPetItemExp@@A ; gPetItemExp
  0000e	e8 00 00 00 00	 call	 ??0CPetItemExp@@QAE@XZ	; CPetItemExp::CPetItemExp
  00013	5f		 pop	 edi
  00014	5e		 pop	 esi
  00015	5b		 pop	 ebx
  00016	8b e5		 mov	 esp, ebp
  00018	5d		 pop	 ebp
  00019	c3		 ret	 0
??__EgPetItemExp@@YAXXZ ENDP				; `dynamic initializer for 'gPetItemExp''
text$yc	ENDS
PUBLIC	?gPetItemExp@@3VCPetItemExp@@A			; gPetItemExp
_BSS	SEGMENT
?gPetItemExp@@3VCPetItemExp@@A DB 01a0H DUP (?)		; gPetItemExp
_BSS	ENDS
CRT$XCU	SEGMENT
_gPetItemExp$initializer$ DD FLAT:??__EgPetItemExp@@YAXXZ
CRT$XCU	ENDS
END
