; Listing generated by Microsoft (R) Optimizing Compiler Version 16.00.40219.01 

	TITLE	D:\Projects\ExTeam6.3\Source\GameServer\common\zzzitem.cpp
	.686P
	.XMM
	include listing.inc
	.model	flat

INCLUDELIB LIBCMT
INCLUDELIB OLDNAMES

PUBLIC	?ItemAttribute@@3PAUITEM_ATTRIBUTE@@A		; ItemAttribute
PUBLIC	?g_MaxItemIndexOfEachItemType@@3PAHA		; g_MaxItemIndexOfEachItemType
_BSS	SEGMENT
?ItemAttribute@@3PAUITEM_ATTRIBUTE@@A DB 0e0000H DUP (?) ; ItemAttribute
?g_MaxItemIndexOfEachItemType@@3PAHA DD 010H DUP (?)	; g_MaxItemIndexOfEachItemType
_BSS	ENDS
_DATA	SEGMENT
_g_iNpcUpDfLevel_CGATE DD 01H
	DD	02H
	DD	02dc6c0H
	DD	02H
	DD	03H
	DD	02dc6c0H
	DD	03H
	DD	04H
	DD	02dc6c0H
_g_iNpcUpDfLevel_CSTATUE DD 01H
	DD	03H
	DD	02dc6c0H
	DD	02H
	DD	05H
	DD	02dc6c0H
	DD	03H
	DD	07H
	DD	02dc6c0H
_g_iNpcUpMaxHP_CGATE DD 02625a0H
	DD	02H
	DD	0f4240H
	DD	03567e0H
	DD	03H
	DD	0f4240H
	DD	04f5880H
	DD	04H
	DD	0f4240H
_g_iNpcUpMaxHP_CSTATUE DD 02191c0H
	DD	03H
	DD	0f4240H
	DD	033e140H
	DD	05H
	DD	0f4240H
	DD	04c4b40H
	DD	07H
	DD	0f4240H
_g_iNpcUpRgLevel_CSTATUE DD 01H
	DD	03H
	DD	04c4b40H
	DD	02H
	DD	05H
	DD	04c4b40H
	DD	03H
	DD	07H
	DD	04c4b40H
_g_iCsUserReSpawnArea DD 023H
	DD	011H
	DD	090H
	DD	030H
	DD	04aH
	DD	090H
	DD	073H
	DD	09aH
	DD	023H
	DD	011H
	DD	090H
	DD	030H
_g_iNpcDefense_CGATE DD 064H
	DD	0b4H
	DD	012cH
	DD	0208H
_g_iNpcDefense_CSTATUE DD 050H
	DD	0b4H
	DD	0154H
	DD	0226H
_g_iCastleWallStepAxisY DD 071H
	DD	0a0H
	DD	0cbH
_DATA	ENDS
PUBLIC	??_H@YGXPAXIHP6EPAX0@Z@Z			; `vector constructor iterator'
; Function compile flags: /Odtp /ZI
;	COMDAT ??_H@YGXPAXIHP6EPAX0@Z@Z
_TEXT	SEGMENT
___t$ = 8						; size = 4
___s$ = 12						; size = 4
___n$ = 16						; size = 4
___f$ = 20						; size = 4
??_H@YGXPAXIHP6EPAX0@Z@Z PROC				; `vector constructor iterator', COMDAT
  00000	55		 push	 ebp
  00001	8b ec		 mov	 ebp, esp
  00003	83 ec 40	 sub	 esp, 64			; 00000040H
  00006	53		 push	 ebx
  00007	56		 push	 esi
  00008	57		 push	 edi
$LN2@vector:
  00009	8b 45 10	 mov	 eax, DWORD PTR ___n$[ebp]
  0000c	83 e8 01	 sub	 eax, 1
  0000f	89 45 10	 mov	 DWORD PTR ___n$[ebp], eax
  00012	78 11		 js	 SHORT $LN3@vector
  00014	8b 4d 08	 mov	 ecx, DWORD PTR ___t$[ebp]
  00017	ff 55 14	 call	 DWORD PTR ___f$[ebp]
  0001a	8b 45 08	 mov	 eax, DWORD PTR ___t$[ebp]
  0001d	03 45 0c	 add	 eax, DWORD PTR ___s$[ebp]
  00020	89 45 08	 mov	 DWORD PTR ___t$[ebp], eax
  00023	eb e4		 jmp	 SHORT $LN2@vector
$LN3@vector:
  00025	5f		 pop	 edi
  00026	5e		 pop	 esi
  00027	5b		 pop	 ebx
  00028	8b e5		 mov	 esp, ebp
  0002a	5d		 pop	 ebp
  0002b	c2 10 00	 ret	 16			; 00000010H
??_H@YGXPAXIHP6EPAX0@Z@Z ENDP				; `vector constructor iterator'
_TEXT	ENDS
PUBLIC	?Clear@CItem@@QAEXXZ				; CItem::Clear
PUBLIC	??0CItem@@QAE@XZ				; CItem::CItem
; Function compile flags: /Odtp /ZI
; File d:\projects\exteam6.3\source\gameserver\common\zzzitem.cpp
_TEXT	SEGMENT
_this$ = -4						; size = 4
??0CItem@@QAE@XZ PROC					; CItem::CItem
; _this$ = ecx

; 26   : {

  00000	55		 push	 ebp
  00001	8b ec		 mov	 ebp, esp
  00003	83 ec 44	 sub	 esp, 68			; 00000044H
  00006	53		 push	 ebx
  00007	56		 push	 esi
  00008	57		 push	 edi
  00009	89 4d fc	 mov	 DWORD PTR _this$[ebp], ecx

; 27   : 	this->Clear();

  0000c	8b 4d fc	 mov	 ecx, DWORD PTR _this$[ebp]
  0000f	e8 00 00 00 00	 call	 ?Clear@CItem@@QAEXXZ	; CItem::Clear

; 28   : }

  00014	8b 45 fc	 mov	 eax, DWORD PTR _this$[ebp]
  00017	5f		 pop	 edi
  00018	5e		 pop	 esi
  00019	5b		 pop	 ebx
  0001a	8b e5		 mov	 esp, ebp
  0001c	5d		 pop	 ebp
  0001d	c3		 ret	 0
??0CItem@@QAE@XZ ENDP					; CItem::CItem
_TEXT	ENDS
PUBLIC	__real@bf800000
PUBLIC	__real@00000000
EXTRN	_memset:PROC
EXTRN	__fltused:DWORD
;	COMDAT __real@bf800000
CONST	SEGMENT
__real@bf800000 DD 0bf800000r			; -1
CONST	ENDS
;	COMDAT __real@00000000
CONST	SEGMENT
__real@00000000 DD 000000000r			; 0
; Function compile flags: /Odtp /ZI
CONST	ENDS
_TEXT	SEGMENT
_this$ = -4						; size = 4
?Clear@CItem@@QAEXXZ PROC				; CItem::Clear
; _this$ = ecx

; 31   : {

  00020	55		 push	 ebp
  00021	8b ec		 mov	 ebp, esp
  00023	83 ec 44	 sub	 esp, 68			; 00000044H
  00026	53		 push	 ebx
  00027	56		 push	 esi
  00028	57		 push	 edi
  00029	89 4d fc	 mov	 DWORD PTR _this$[ebp], ecx

; 32   : 	this->m_Type =-1;

  0002c	83 c8 ff	 or	 eax, -1
  0002f	8b 4d fc	 mov	 ecx, DWORD PTR _this$[ebp]
  00032	66 89 41 06	 mov	 WORD PTR [ecx+6], ax

; 33   : 	this->m_Level =0;

  00036	33 c0		 xor	 eax, eax
  00038	8b 4d fc	 mov	 ecx, DWORD PTR _this$[ebp]
  0003b	66 89 41 08	 mov	 WORD PTR [ecx+8], ax

; 34   : 	this->m_Part=0;

  0003f	8b 45 fc	 mov	 eax, DWORD PTR _this$[ebp]
  00042	c6 40 0a 00	 mov	 BYTE PTR [eax+10], 0

; 35   : 	this->m_Class=0;

  00046	8b 45 fc	 mov	 eax, DWORD PTR _this$[ebp]
  00049	c6 40 0b 00	 mov	 BYTE PTR [eax+11], 0

; 36   : 	this->m_TwoHand=0;

  0004d	8b 45 fc	 mov	 eax, DWORD PTR _this$[ebp]
  00050	c6 40 0c 00	 mov	 BYTE PTR [eax+12], 0

; 37   : 	this->m_AttackSpeed=0;

  00054	8b 45 fc	 mov	 eax, DWORD PTR _this$[ebp]
  00057	c6 40 0d 00	 mov	 BYTE PTR [eax+13], 0

; 38   : 	this->m_DamageMin=0;

  0005b	33 c0		 xor	 eax, eax
  0005d	8b 4d fc	 mov	 ecx, DWORD PTR _this$[ebp]
  00060	66 89 41 10	 mov	 WORD PTR [ecx+16], ax

; 39   : 	this->m_DamageMax=0;

  00064	33 c0		 xor	 eax, eax
  00066	8b 4d fc	 mov	 ecx, DWORD PTR _this$[ebp]
  00069	66 89 41 12	 mov	 WORD PTR [ecx+18], ax

; 40   : 	this->m_SuccessfulBlocking=0;

  0006d	8b 45 fc	 mov	 eax, DWORD PTR _this$[ebp]
  00070	c6 40 14 00	 mov	 BYTE PTR [eax+20], 0

; 41   : 	this->m_Defense=0;

  00074	33 c0		 xor	 eax, eax
  00076	8b 4d fc	 mov	 ecx, DWORD PTR _this$[ebp]
  00079	66 89 41 16	 mov	 WORD PTR [ecx+22], ax

; 42   : 	this->m_MagicDefense =0;

  0007d	33 c0		 xor	 eax, eax
  0007f	8b 4d fc	 mov	 ecx, DWORD PTR _this$[ebp]
  00082	66 89 41 18	 mov	 WORD PTR [ecx+24], ax

; 43   : 	this->m_Durability=0;

  00086	8b 45 fc	 mov	 eax, DWORD PTR _this$[ebp]
  00089	d9 ee		 fldz
  0008b	d9 58 24	 fstp	 DWORD PTR [eax+36]

; 44   : 	this->m_SpecialNum=0;

  0008e	8b 45 fc	 mov	 eax, DWORD PTR _this$[ebp]
  00091	c6 40 30 00	 mov	 BYTE PTR [eax+48], 0

; 45   : 	this->m_Value=0;

  00095	8b 45 fc	 mov	 eax, DWORD PTR _this$[ebp]
  00098	c7 40 68 00 00
	00 00		 mov	 DWORD PTR [eax+104], 0

; 46   : 	this->m_Option1 =0;

  0009f	8b 45 fc	 mov	 eax, DWORD PTR _this$[ebp]
  000a2	c6 80 94 00 00
	00 00		 mov	 BYTE PTR [eax+148], 0

; 47   : 	this->m_Option2 =0;

  000a9	8b 45 fc	 mov	 eax, DWORD PTR _this$[ebp]
  000ac	c6 80 95 00 00
	00 00		 mov	 BYTE PTR [eax+149], 0

; 48   : 	this->m_Option3 =0;

  000b3	8b 45 fc	 mov	 eax, DWORD PTR _this$[ebp]
  000b6	c6 80 96 00 00
	00 00		 mov	 BYTE PTR [eax+150], 0

; 49   : 	this->m_NewOption =0;

  000bd	8b 45 fc	 mov	 eax, DWORD PTR _this$[ebp]
  000c0	c6 80 97 00 00
	00 00		 mov	 BYTE PTR [eax+151], 0

; 50   : 	this->m_Number =0;

  000c7	8b 45 fc	 mov	 eax, DWORD PTR _this$[ebp]
  000ca	c7 00 00 00 00
	00		 mov	 DWORD PTR [eax], 0

; 51   : 	this->m_DurabilitySmall =0;

  000d0	33 c0		 xor	 eax, eax
  000d2	8b 4d fc	 mov	 ecx, DWORD PTR _this$[ebp]
  000d5	66 89 41 28	 mov	 WORD PTR [ecx+40], ax

; 52   : 	this->m_iPShopValue=-1;

  000d9	8b 45 fc	 mov	 eax, DWORD PTR _this$[ebp]
  000dc	c7 40 74 ff ff
	ff ff		 mov	 DWORD PTR [eax+116], -1

; 53   : 
; 54   : #if(CUSTOM_PERSONAL_SHOP==TRUE)
; 55   : 	this->m_iPShopBonus=-1;

  000e3	8b 45 fc	 mov	 eax, DWORD PTR _this$[ebp]
  000e6	c7 40 78 ff ff
	ff ff		 mov	 DWORD PTR [eax+120], -1

; 56   : 	this->m_PShopBlessValue=-1;

  000ed	83 c8 ff	 or	 eax, -1
  000f0	8b 4d fc	 mov	 ecx, DWORD PTR _this$[ebp]
  000f3	66 89 41 7c	 mov	 WORD PTR [ecx+124], ax

; 57   : 	this->m_PShopSoulValue=-1;

  000f7	83 c8 ff	 or	 eax, -1
  000fa	8b 4d fc	 mov	 ecx, DWORD PTR _this$[ebp]
  000fd	66 89 41 7e	 mov	 WORD PTR [ecx+126], ax

; 58   : 	this->m_PShopChaosValue=-1;

  00101	83 c8 ff	 or	 eax, -1
  00104	8b 4d fc	 mov	 ecx, DWORD PTR _this$[ebp]
  00107	66 89 81 80 00
	00 00		 mov	 WORD PTR [ecx+128], ax

; 59   : 	this->m_PShopLifeValue=-1;

  0010e	83 c8 ff	 or	 eax, -1
  00111	8b 4d fc	 mov	 ecx, DWORD PTR _this$[ebp]
  00114	66 89 81 82 00
	00 00		 mov	 WORD PTR [ecx+130], ax

; 60   : 	//#if(DEV_PERSONAL_CREDIT)
; 61   : 	this->m_iPShopCredit=-1;

  0011b	8b 45 fc	 mov	 eax, DWORD PTR _this$[ebp]
  0011e	c7 80 84 00 00
	00 ff ff ff ff	 mov	 DWORD PTR [eax+132], -1

; 62   : 	//#endif
; 63   : #endif
; 64   : 
; 65   : 	this->m_bItemExist=true;

  00128	8b 45 fc	 mov	 eax, DWORD PTR _this$[ebp]
  0012b	c6 80 88 00 00
	00 01		 mov	 BYTE PTR [eax+136], 1

; 66   : 	this->m_CurrentDurabilityState=-1;

  00132	8b 45 fc	 mov	 eax, DWORD PTR _this$[ebp]
  00135	d9 05 00 00 00
	00		 fld	 DWORD PTR __real@bf800000
  0013b	d9 98 a8 00 00
	00		 fstp	 DWORD PTR [eax+168]

; 67   : 	this->m_SetOption=0;

  00141	8b 45 fc	 mov	 eax, DWORD PTR _this$[ebp]
  00144	c6 80 ae 00 00
	00 00		 mov	 BYTE PTR [eax+174], 0

; 68   : 	this->m_QuestItem=false;

  0014b	8b 45 fc	 mov	 eax, DWORD PTR _this$[ebp]
  0014e	c6 80 ad 00 00
	00 00		 mov	 BYTE PTR [eax+173], 0

; 69   : 
; 70   : 	memset(this->m_Special, 0, sizeof(this->m_Special));

  00155	6a 10		 push	 16			; 00000010H
  00157	6a 00		 push	 0
  00159	8b 45 fc	 mov	 eax, DWORD PTR _this$[ebp]
  0015c	83 c0 32	 add	 eax, 50			; 00000032H
  0015f	50		 push	 eax
  00160	e8 00 00 00 00	 call	 _memset
  00165	83 c4 0c	 add	 esp, 12			; 0000000cH

; 71   : 	memset(this->m_SpecialValue, 0, sizeof(this->m_SpecialValue));

  00168	6a 08		 push	 8
  0016a	6a 00		 push	 0
  0016c	8b 45 fc	 mov	 eax, DWORD PTR _this$[ebp]
  0016f	83 c0 42	 add	 eax, 66			; 00000042H
  00172	50		 push	 eax
  00173	e8 00 00 00 00	 call	 _memset
  00178	83 c4 0c	 add	 esp, 12			; 0000000cH

; 72   : 	memset(this->m_Resistance, 0, sizeof(this->m_Resistance));

  0017b	6a 07		 push	 7
  0017d	6a 00		 push	 0
  0017f	8b 45 fc	 mov	 eax, DWORD PTR _this$[ebp]
  00182	83 c0 5f	 add	 eax, 95			; 0000005fH
  00185	50		 push	 eax
  00186	e8 00 00 00 00	 call	 _memset
  0018b	83 c4 0c	 add	 esp, 12			; 0000000cH

; 73   : 
; 74   : 	this->m_IsLoadPetItemInfo=0;

  0018e	8b 45 fc	 mov	 eax, DWORD PTR _this$[ebp]
  00191	c7 80 b8 00 00
	00 00 00 00 00	 mov	 DWORD PTR [eax+184], 0

; 75   : 	this->m_PetItem_Level =1;

  0019b	8b 45 fc	 mov	 eax, DWORD PTR _this$[ebp]
  0019e	c7 80 bc 00 00
	00 01 00 00 00	 mov	 DWORD PTR [eax+188], 1

; 76   : 	this->m_PetItem_Exp =0;

  001a8	8b 45 fc	 mov	 eax, DWORD PTR _this$[ebp]
  001ab	c7 80 c0 00 00
	00 00 00 00 00	 mov	 DWORD PTR [eax+192], 0

; 77   : 	this->m_Leadership=0;

  001b5	33 c0		 xor	 eax, eax
  001b7	8b 4d fc	 mov	 ecx, DWORD PTR _this$[ebp]
  001ba	66 89 41 56	 mov	 WORD PTR [ecx+86], ax

; 78   : 	this->m_JewelOfHarmonyOption = 0;

  001be	8b 45 fc	 mov	 eax, DWORD PTR _this$[ebp]
  001c1	c6 80 c4 00 00
	00 00		 mov	 BYTE PTR [eax+196], 0

; 79   : 	this->m_ItemOptionEx = 0;

  001c8	8b 45 fc	 mov	 eax, DWORD PTR _this$[ebp]
  001cb	c6 80 ca 00 00
	00 00		 mov	 BYTE PTR [eax+202], 0

; 80   : #ifdef PERIOD
; 81   : 	m_PeriodItemOption = 0;

  001d2	8b 45 fc	 mov	 eax, DWORD PTR _this$[ebp]
  001d5	c6 80 d2 00 00
	00 00		 mov	 BYTE PTR [eax+210], 0

; 82   : #endif
; 83   : 	//Season 4 add-on
; 84   : 	this->m_SocketOptionIndex = 0xFF;

  001dc	8b 45 fc	 mov	 eax, DWORD PTR _this$[ebp]
  001df	c6 80 cb 00 00
	00 ff		 mov	 BYTE PTR [eax+203], 255	; 000000ffH

; 85   : 
; 86   : 	memset(this->m_SocketOption, 0xFF, sizeof(this->m_SocketOption));

  001e6	6a 05		 push	 5
  001e8	68 ff 00 00 00	 push	 255			; 000000ffH
  001ed	8b 45 fc	 mov	 eax, DWORD PTR _this$[ebp]
  001f0	05 cc 00 00 00	 add	 eax, 204		; 000000ccH
  001f5	50		 push	 eax
  001f6	e8 00 00 00 00	 call	 _memset
  001fb	83 c4 0c	 add	 esp, 12			; 0000000cH

; 87   : 
; 88   : 	this->m_SocketBonus = 0;

  001fe	8b 45 fc	 mov	 eax, DWORD PTR _this$[ebp]
  00201	c6 80 d1 00 00
	00 00		 mov	 BYTE PTR [eax+209], 0

; 89   : }

  00208	5f		 pop	 edi
  00209	5e		 pop	 esi
  0020a	5b		 pop	 ebx
  0020b	8b e5		 mov	 esp, ebp
  0020d	5d		 pop	 ebp
  0020e	c3		 ret	 0
?Clear@CItem@@QAEXXZ ENDP				; CItem::Clear
_TEXT	ENDS
PUBLIC	?IsItem@CItem@@QAEHXZ				; CItem::IsItem
; Function compile flags: /Odtp /ZI
_TEXT	SEGMENT
_this$ = -4						; size = 4
?IsItem@CItem@@QAEHXZ PROC				; CItem::IsItem
; _this$ = ecx

; 92   : {

  00210	55		 push	 ebp
  00211	8b ec		 mov	 ebp, esp
  00213	83 ec 44	 sub	 esp, 68			; 00000044H
  00216	53		 push	 ebx
  00217	56		 push	 esi
  00218	57		 push	 edi
  00219	89 4d fc	 mov	 DWORD PTR _this$[ebp], ecx

; 93   : 	if (this->m_Type < 0)

  0021c	8b 45 fc	 mov	 eax, DWORD PTR _this$[ebp]
  0021f	0f bf 48 06	 movsx	 ecx, WORD PTR [eax+6]
  00223	85 c9		 test	 ecx, ecx
  00225	7d 06		 jge	 SHORT $LN2@IsItem

; 94   : 	{
; 95   : 		return 0;

  00227	33 c0		 xor	 eax, eax
  00229	eb 07		 jmp	 SHORT $LN3@IsItem

; 96   : 	}
; 97   : 	else

  0022b	eb 05		 jmp	 SHORT $LN3@IsItem
$LN2@IsItem:

; 98   : 	{
; 99   : 		return 1;

  0022d	b8 01 00 00 00	 mov	 eax, 1
$LN3@IsItem:

; 100  : 	}
; 101  : }

  00232	5f		 pop	 edi
  00233	5e		 pop	 esi
  00234	5b		 pop	 ebx
  00235	8b e5		 mov	 esp, ebp
  00237	5d		 pop	 ebp
  00238	c3		 ret	 0
?IsItem@CItem@@QAEHXZ ENDP				; CItem::IsItem
_TEXT	ENDS
PUBLIC	?IsSetItem@CItem@@QAEHXZ			; CItem::IsSetItem
; Function compile flags: /Odtp /ZI
_TEXT	SEGMENT
_this$ = -4						; size = 4
?IsSetItem@CItem@@QAEHXZ PROC				; CItem::IsSetItem
; _this$ = ecx

; 104  : {

  00240	55		 push	 ebp
  00241	8b ec		 mov	 ebp, esp
  00243	83 ec 44	 sub	 esp, 68			; 00000044H
  00246	53		 push	 ebx
  00247	56		 push	 esi
  00248	57		 push	 edi
  00249	89 4d fc	 mov	 DWORD PTR _this$[ebp], ecx

; 105  : 	if (this->m_Type < 0)

  0024c	8b 45 fc	 mov	 eax, DWORD PTR _this$[ebp]
  0024f	0f bf 48 06	 movsx	 ecx, WORD PTR [eax+6]
  00253	85 c9		 test	 ecx, ecx
  00255	7d 06		 jge	 SHORT $LN2@IsSetItem

; 106  : 	{
; 107  : 		return 0;

  00257	33 c0		 xor	 eax, eax
  00259	eb 0f		 jmp	 SHORT $LN3@IsSetItem

; 108  : 	}
; 109  : 	else

  0025b	eb 0d		 jmp	 SHORT $LN3@IsSetItem
$LN2@IsSetItem:

; 110  : 	{
; 111  : 		return this->m_SetOption & 3;

  0025d	8b 45 fc	 mov	 eax, DWORD PTR _this$[ebp]
  00260	0f b6 80 ae 00
	00 00		 movzx	 eax, BYTE PTR [eax+174]
  00267	83 e0 03	 and	 eax, 3
$LN3@IsSetItem:

; 112  : 	}
; 113  : }	

  0026a	5f		 pop	 edi
  0026b	5e		 pop	 esi
  0026c	5b		 pop	 ebx
  0026d	8b e5		 mov	 esp, ebp
  0026f	5d		 pop	 ebp
  00270	c3		 ret	 0
?IsSetItem@CItem@@QAEHXZ ENDP				; CItem::IsSetItem
_TEXT	ENDS
PUBLIC	__real@3ff0000000000000
PUBLIC	?Value@CItem@@QAEXXZ				; CItem::Value
PUBLIC	__real@3e4ccccd
PUBLIC	__real@3e99999a
PUBLIC	__real@3f000000
PUBLIC	__real@3f800000
PUBLIC	__real@0000000000000000
PUBLIC	__real@4024000000000000
PUBLIC	__real@3fc99999a0000000
PUBLIC	__real@3fd3333340000000
PUBLIC	__real@3fe0000000000000
PUBLIC	?ItemGetDurability@@YAHHHHH@Z			; ItemGetDurability
PUBLIC	??_C@_0BO@NENAGJKH@error?9L1?5?3?5ItemIndex?5error?5?$CFd?$AA@ ; `string'
PUBLIC	?Convert@CItem@@QAEXHEEEEEEPAEEEE@Z		; CItem::Convert
EXTRN	?ApplySocketEffectforWeapons@CSocketOption@@QAEXPAVCItem@@@Z:PROC ; CSocketOption::ApplySocketEffectforWeapons
EXTRN	?GetItemEffectValue@CJewelOfHarmonySystem@@QAEHPAVCItem@@H@Z:PROC ; CJewelOfHarmonySystem::GetItemEffectValue
EXTRN	?_GetItemType@CJewelOfHarmonySystem@@QAEHPAVCItem@@@Z:PROC ; CJewelOfHarmonySystem::_GetItemType
EXTRN	?GetItemStrengthenOption@CJewelOfHarmonySystem@@QAEEPAVCItem@@@Z:PROC ; CJewelOfHarmonySystem::GetItemStrengthenOption
EXTRN	?IsActive@CJewelOfHarmonySystem@@QAEHPAVCItem@@@Z:PROC ; CJewelOfHarmonySystem::IsActive
EXTRN	?g_kJewelOfHarmonySystem@@3VCJewelOfHarmonySystem@@A:BYTE ; g_kJewelOfHarmonySystem
EXTRN	_memcpy:PROC
EXTRN	?ExExcellentSocket@@3HA:DWORD			; ExExcellentSocket
EXTRN	?ExAncientSocket@@3HA:DWORD			; ExAncientSocket
EXTRN	?IsSocketOption@CSocketOption@@QAEEPAVCItem@@@Z:PROC ; CSocketOption::IsSocketOption
EXTRN	?IsActive@CSocketOption@@QAEEPAVCItem@@@Z:PROC	; CSocketOption::IsActive
EXTRN	?g_SocketOption@@3VCSocketOption@@A:BYTE	; g_SocketOption
EXTRN	?ExExcellentAncient@@3HA:DWORD			; ExExcellentAncient
EXTRN	?IsSetItem@CSetItemOption@@QAEHH@Z:PROC		; CSetItemOption::IsSetItem
EXTRN	?gSetItemOption@@3VCSetItemOption@@A:BYTE	; gSetItemOption
EXTRN	?LogAddC@@3P6AXEPADZZA:DWORD			; LogAddC
EXTRN	__ftol2_sse:PROC
;	COMDAT __real@3ff0000000000000
CONST	SEGMENT
__real@3ff0000000000000 DQ 03ff0000000000000r	; 1
CONST	ENDS
;	COMDAT __real@3e4ccccd
CONST	SEGMENT
__real@3e4ccccd DD 03e4ccccdr			; 0.2
CONST	ENDS
;	COMDAT __real@3e99999a
CONST	SEGMENT
__real@3e99999a DD 03e99999ar			; 0.3
CONST	ENDS
;	COMDAT __real@3f000000
CONST	SEGMENT
__real@3f000000 DD 03f000000r			; 0.5
CONST	ENDS
;	COMDAT __real@3f800000
CONST	SEGMENT
__real@3f800000 DD 03f800000r			; 1
CONST	ENDS
;	COMDAT __real@0000000000000000
CONST	SEGMENT
__real@0000000000000000 DQ 00000000000000000r	; 0
CONST	ENDS
;	COMDAT __real@4024000000000000
CONST	SEGMENT
__real@4024000000000000 DQ 04024000000000000r	; 10
CONST	ENDS
;	COMDAT __real@3fc99999a0000000
CONST	SEGMENT
__real@3fc99999a0000000 DQ 03fc99999a0000000r	; 0.2
CONST	ENDS
;	COMDAT __real@3fd3333340000000
CONST	SEGMENT
__real@3fd3333340000000 DQ 03fd3333340000000r	; 0.3
CONST	ENDS
;	COMDAT __real@3fe0000000000000
CONST	SEGMENT
__real@3fe0000000000000 DQ 03fe0000000000000r	; 0.5
CONST	ENDS
;	COMDAT ??_C@_0BO@NENAGJKH@error?9L1?5?3?5ItemIndex?5error?5?$CFd?$AA@
CONST	SEGMENT
??_C@_0BO@NENAGJKH@error?9L1?5?3?5ItemIndex?5error?5?$CFd?$AA@ DB 'error-'
	DB	'L1 : ItemIndex error %d', 00H		; `string'
; Function compile flags: /Odtp /ZI
CONST	ENDS
_TEXT	SEGMENT
tv4479 = -116						; size = 4
tv4470 = -116						; size = 4
tv4461 = -116						; size = 4
tv4452 = -116						; size = 4
tv2923 = -116						; size = 4
tv2694 = -116						; size = 4
tv2637 = -116						; size = 4
tv2580 = -116						; size = 4
tv2523 = -116						; size = 4
tv1925 = -116						; size = 4
tv1896 = -116						; size = 4
tv1867 = -116						; size = 4
tv1838 = -116						; size = 4
tv1530 = -116						; size = 4
tv1519 = -116						; size = 4
tv1508 = -116						; size = 4
tv1497 = -116						; size = 4
tv1223 = -116						; size = 4
tv1199 = -116						; size = 4
tv1175 = -116						; size = 4
tv1151 = -116						; size = 4
tv584 = -116						; size = 4
tv577 = -116						; size = 4
tv570 = -116						; size = 4
tv563 = -116						; size = 4
tv155 = -116						; size = 4
tv150 = -116						; size = 4
tv145 = -116						; size = 4
tv140 = -116						; size = 4
_iItemType$230612 = -48					; size = 4
_btOption$230611 = -41					; size = 1
_i$230588 = -40						; size = 4
_iChaosItem$ = -36					; size = 4
_i$230558 = -32						; size = 4
_i$230549 = -28						; size = 4
_SOptionStatValue$ = -24				; size = 4
_SOption$ = -20						; size = 4
_p$ = -16						; size = 4
_ItemLevel$ = -12					; size = 4
__type$ = -8						; size = 4
_this$ = -4						; size = 4
_type$ = 8						; size = 4
_Option1$ = 12						; size = 1
_Option2$ = 16						; size = 1
_Option3$ = 20						; size = 1
_Attribute2$ = 24					; size = 1
_SetOption$ = 28					; size = 1
_ItemEffectEx$ = 32					; size = 1
_SocketOption$ = 36					; size = 4
_SocketIndex$ = 40					; size = 1
_PeriodItemOption$ = 44					; size = 1
_DbVersion$ = 48					; size = 1
?Convert@CItem@@QAEXHEEEEEEPAEEEE@Z PROC		; CItem::Convert
; _this$ = ecx

; 118  : {

  00280	55		 push	 ebp
  00281	8b ec		 mov	 ebp, esp
  00283	83 ec 74	 sub	 esp, 116		; 00000074H
  00286	53		 push	 ebx
  00287	56		 push	 esi
  00288	57		 push	 edi
  00289	89 4d fc	 mov	 DWORD PTR _this$[ebp], ecx

; 119  : 	int _type; //2
; 120  : 	int ItemLevel; //3
; 121  : 	LPITEM_ATTRIBUTE p; //4
; 122  : 	int SOption; //5
; 123  : 	int SOptionStatValue; //6
; 124  : 	
; 125  : 	_type = type;

  0028c	8b 45 08	 mov	 eax, DWORD PTR _type$[ebp]
  0028f	89 45 f8	 mov	 DWORD PTR __type$[ebp], eax

; 126  : 
; 127  : 	if ( (DbVersion ) == 0)

  00292	0f b6 45 30	 movzx	 eax, BYTE PTR _DbVersion$[ebp]
  00296	85 c0		 test	 eax, eax
  00298	75 26		 jne	 SHORT $LN392@Convert

; 128  : 	{
; 129  : 		_type=(type/MAX_TYPE_ITEMS*MAX_SUBTYPE_ITEMS)+(type % MAX_TYPE_ITEMS);

  0029a	8b 45 08	 mov	 eax, DWORD PTR _type$[ebp]
  0029d	99		 cdq
  0029e	83 e2 0f	 and	 edx, 15			; 0000000fH
  002a1	03 c2		 add	 eax, edx
  002a3	c1 f8 04	 sar	 eax, 4
  002a6	c1 e0 09	 shl	 eax, 9
  002a9	8b 4d 08	 mov	 ecx, DWORD PTR _type$[ebp]
  002ac	81 e1 0f 00 00
	80		 and	 ecx, -2147483633	; 8000000fH
  002b2	79 05		 jns	 SHORT $LN443@Convert
  002b4	49		 dec	 ecx
  002b5	83 c9 f0	 or	 ecx, -16		; fffffff0H
  002b8	41		 inc	 ecx
$LN443@Convert:
  002b9	03 c1		 add	 eax, ecx
  002bb	89 45 f8	 mov	 DWORD PTR __type$[ebp], eax
  002be	eb 2d		 jmp	 SHORT $LN390@Convert
$LN392@Convert:

; 130  : 
; 131  : 	}
; 132  : 	else if ( DbVersion <= 2 )

  002c0	0f b6 45 30	 movzx	 eax, BYTE PTR _DbVersion$[ebp]
  002c4	83 f8 02	 cmp	 eax, 2
  002c7	7f 24		 jg	 SHORT $LN390@Convert

; 133  : 	{
; 134  : 		_type = (type/32*MAX_SUBTYPE_ITEMS) + (type % 32 );

  002c9	8b 45 08	 mov	 eax, DWORD PTR _type$[ebp]
  002cc	99		 cdq
  002cd	83 e2 1f	 and	 edx, 31			; 0000001fH
  002d0	03 c2		 add	 eax, edx
  002d2	c1 f8 05	 sar	 eax, 5
  002d5	c1 e0 09	 shl	 eax, 9
  002d8	8b 4d 08	 mov	 ecx, DWORD PTR _type$[ebp]
  002db	81 e1 1f 00 00
	80		 and	 ecx, -2147483617	; 8000001fH
  002e1	79 05		 jns	 SHORT $LN444@Convert
  002e3	49		 dec	 ecx
  002e4	83 c9 e0	 or	 ecx, -32		; ffffffe0H
  002e7	41		 inc	 ecx
$LN444@Convert:
  002e8	03 c1		 add	 eax, ecx
  002ea	89 45 f8	 mov	 DWORD PTR __type$[ebp], eax
$LN390@Convert:

; 135  : 	}
; 136  : 	
; 137  : 	if ( _type >MAX_ITEMS-1)

  002ed	81 7d f8 ff 1f
	00 00		 cmp	 DWORD PTR __type$[ebp], 8191 ; 00001fffH
  002f4	7e 14		 jle	 SHORT $LN389@Convert

; 138  : 	{
; 139  : 		LogAddC(2, "error-L1 : ItemIndex error %d", _type);

  002f6	8b 45 f8	 mov	 eax, DWORD PTR __type$[ebp]
  002f9	50		 push	 eax
  002fa	68 00 00 00 00	 push	 OFFSET ??_C@_0BO@NENAGJKH@error?9L1?5?3?5ItemIndex?5error?5?$CFd?$AA@
  002ff	6a 02		 push	 2
  00301	ff 15 00 00 00
	00		 call	 DWORD PTR ?LogAddC@@3P6AXEPADZZA ; LogAddC
  00307	83 c4 0c	 add	 esp, 12			; 0000000cH
$LN389@Convert:

; 140  : 	}
; 141  : 	
; 142  : 	p=&ItemAttribute[_type];

  0030a	8b 45 f8	 mov	 eax, DWORD PTR __type$[ebp]
  0030d	6b c0 70	 imul	 eax, 112		; 00000070H
  00310	05 00 00 00 00	 add	 eax, OFFSET ?ItemAttribute@@3PAUITEM_ATTRIBUTE@@A ; ItemAttribute
  00315	89 45 f0	 mov	 DWORD PTR _p$[ebp], eax

; 143  : 	this->m_serial=ItemAttribute[_type].Serial ;

  00318	8b 45 f8	 mov	 eax, DWORD PTR __type$[ebp]
  0031b	6b c0 70	 imul	 eax, 112		; 00000070H
  0031e	8b 4d fc	 mov	 ecx, DWORD PTR _this$[ebp]
  00321	8a 90 25 00 00
	00		 mov	 dl, BYTE PTR ?ItemAttribute@@3PAUITEM_ATTRIBUTE@@A[eax+37]
  00327	88 51 04	 mov	 BYTE PTR [ecx+4], dl

; 144  : 	this->m_Type=type;

  0032a	8b 45 fc	 mov	 eax, DWORD PTR _this$[ebp]
  0032d	66 8b 4d 08	 mov	 cx, WORD PTR _type$[ebp]
  00331	66 89 48 06	 mov	 WORD PTR [eax+6], cx

; 145  : 	
; 146  : 	if ( (DbVersion ) <= 2)

  00335	0f b6 45 30	 movzx	 eax, BYTE PTR _DbVersion$[ebp]
  00339	83 f8 02	 cmp	 eax, 2
  0033c	7f 0b		 jg	 SHORT $LN388@Convert

; 147  : 	{
; 148  : 		this->m_Type=_type;

  0033e	8b 45 fc	 mov	 eax, DWORD PTR _this$[ebp]
  00341	66 8b 4d f8	 mov	 cx, WORD PTR __type$[ebp]
  00345	66 89 48 06	 mov	 WORD PTR [eax+6], cx
$LN388@Convert:

; 149  : 	}
; 150  : 
; 151  : 	this->m_NewOption =Attribute2;

  00349	8b 45 fc	 mov	 eax, DWORD PTR _this$[ebp]
  0034c	8a 4d 18	 mov	 cl, BYTE PTR _Attribute2$[ebp]
  0034f	88 88 97 00 00
	00		 mov	 BYTE PTR [eax+151], cl

; 152  : 	
; 153  : 	if (p->OptionFlag  == 0)

  00355	8b 45 f0	 mov	 eax, DWORD PTR _p$[ebp]
  00358	0f b6 48 26	 movzx	 ecx, BYTE PTR [eax+38]
  0035c	85 c9		 test	 ecx, ecx
  0035e	75 0a		 jne	 SHORT $LN387@Convert

; 154  : 	{
; 155  : 		this->m_NewOption=0;

  00360	8b 45 fc	 mov	 eax, DWORD PTR _this$[ebp]
  00363	c6 80 97 00 00
	00 00		 mov	 BYTE PTR [eax+151], 0
$LN387@Convert:

; 156  : 	}
; 157  : 	if ( (_type >= MuItem::miWINGS_SPIRIT && _type <= MuItem::miWINGS_DARKNESS)
; 158  : 			|| _type == MuItem::miCAPE_LORD || _type == MuItem::miWINGS_CURSE
; 159  : 			|| _type == MuItem::miWINGS_DESPAIR || _type == MuItem::miWINGS_DIMENSION
; 160  : 			|| _type == MuItem::miCAPE_FIGTHER || _type == MuItem::miCAPE_OVERRULE
; 161  : 			|| (_type >= MuItem::miWINGS_STORM && _type <= MuItem::miCAPE_EMPEROR)
; 162  : #ifdef NEWWINGS_2_5
; 163  : 			|| IS_NEWWINGS_2_5(_type) 
; 164  : #endif
; 165  : #ifdef NEWWINGS_4
; 166  : 			|| IS_NEWWINGS_4(_type) 
; 167  : #endif
; 168  : #ifdef NEWWINGS_5
; 169  : 			|| IS_NEWWINGS_5(_type) 
; 170  : #endif
; 171  : #ifdef NEWWINGS_6
; 172  : 			|| IS_NEWWINGS_6(_type) 
; 173  : #endif
; 174  : 			)

  0036a	81 7d f8 03 18
	00 00		 cmp	 DWORD PTR __type$[ebp], 6147 ; 00001803H
  00371	7c 0d		 jl	 SHORT $LN384@Convert
  00373	81 7d f8 06 18
	00 00		 cmp	 DWORD PTR __type$[ebp], 6150 ; 00001806H
  0037a	0f 8e 00 01 00
	00		 jle	 $LN385@Convert
$LN384@Convert:
  00380	81 7d f8 1e 1a
	00 00		 cmp	 DWORD PTR __type$[ebp], 6686 ; 00001a1eH
  00387	0f 84 f3 00 00
	00		 je	 $LN385@Convert
  0038d	81 7d f8 29 18
	00 00		 cmp	 DWORD PTR __type$[ebp], 6185 ; 00001829H
  00394	0f 84 e6 00 00
	00		 je	 $LN385@Convert
  0039a	81 7d f8 2a 18
	00 00		 cmp	 DWORD PTR __type$[ebp], 6186 ; 0000182aH
  003a1	0f 84 d9 00 00
	00		 je	 $LN385@Convert
  003a7	81 7d f8 2b 18
	00 00		 cmp	 DWORD PTR __type$[ebp], 6187 ; 0000182bH
  003ae	0f 84 cc 00 00
	00		 je	 $LN385@Convert
  003b4	81 7d f8 31 18
	00 00		 cmp	 DWORD PTR __type$[ebp], 6193 ; 00001831H
  003bb	0f 84 bf 00 00
	00		 je	 $LN385@Convert
  003c1	81 7d f8 32 18
	00 00		 cmp	 DWORD PTR __type$[ebp], 6194 ; 00001832H
  003c8	0f 84 b2 00 00
	00		 je	 $LN385@Convert
  003ce	81 7d f8 24 18
	00 00		 cmp	 DWORD PTR __type$[ebp], 6180 ; 00001824H
  003d5	7c 0d		 jl	 SHORT $LN383@Convert
  003d7	81 7d f8 28 18
	00 00		 cmp	 DWORD PTR __type$[ebp], 6184 ; 00001828H
  003de	0f 8e 9c 00 00
	00		 jle	 $LN385@Convert
$LN383@Convert:
  003e4	81 7d f8 ba 18
	00 00		 cmp	 DWORD PTR __type$[ebp], 6330 ; 000018baH
  003eb	7d 09		 jge	 SHORT $LN395@Convert
  003ed	c7 45 8c 00 00
	00 00		 mov	 DWORD PTR tv140[ebp], 0
  003f4	eb 0f		 jmp	 SHORT $LN396@Convert
$LN395@Convert:
  003f6	33 c0		 xor	 eax, eax
  003f8	81 7d f8 bc 18
	00 00		 cmp	 DWORD PTR __type$[ebp], 6332 ; 000018bcH
  003ff	0f 9e c0	 setle	 al
  00402	89 45 8c	 mov	 DWORD PTR tv140[ebp], eax
$LN396@Convert:
  00405	83 7d 8c 00	 cmp	 DWORD PTR tv140[ebp], 0
  00409	75 75		 jne	 SHORT $LN385@Convert
  0040b	81 7d f8 b4 18
	00 00		 cmp	 DWORD PTR __type$[ebp], 6324 ; 000018b4H
  00412	7d 09		 jge	 SHORT $LN397@Convert
  00414	c7 45 8c 00 00
	00 00		 mov	 DWORD PTR tv145[ebp], 0
  0041b	eb 0f		 jmp	 SHORT $LN398@Convert
$LN397@Convert:
  0041d	33 c0		 xor	 eax, eax
  0041f	81 7d f8 b9 18
	00 00		 cmp	 DWORD PTR __type$[ebp], 6329 ; 000018b9H
  00426	0f 9e c0	 setle	 al
  00429	89 45 8c	 mov	 DWORD PTR tv145[ebp], eax
$LN398@Convert:
  0042c	83 7d 8c 00	 cmp	 DWORD PTR tv145[ebp], 0
  00430	75 4e		 jne	 SHORT $LN385@Convert
  00432	81 7d f8 bd 18
	00 00		 cmp	 DWORD PTR __type$[ebp], 6333 ; 000018bdH
  00439	7d 09		 jge	 SHORT $LN399@Convert
  0043b	c7 45 8c 00 00
	00 00		 mov	 DWORD PTR tv150[ebp], 0
  00442	eb 0f		 jmp	 SHORT $LN400@Convert
$LN399@Convert:
  00444	33 c0		 xor	 eax, eax
  00446	81 7d f8 c2 18
	00 00		 cmp	 DWORD PTR __type$[ebp], 6338 ; 000018c2H
  0044d	0f 9e c0	 setle	 al
  00450	89 45 8c	 mov	 DWORD PTR tv150[ebp], eax
$LN400@Convert:
  00453	83 7d 8c 00	 cmp	 DWORD PTR tv150[ebp], 0
  00457	75 27		 jne	 SHORT $LN385@Convert
  00459	81 7d f8 c3 18
	00 00		 cmp	 DWORD PTR __type$[ebp], 6339 ; 000018c3H
  00460	7d 09		 jge	 SHORT $LN401@Convert
  00462	c7 45 8c 00 00
	00 00		 mov	 DWORD PTR tv155[ebp], 0
  00469	eb 0f		 jmp	 SHORT $LN402@Convert
$LN401@Convert:
  0046b	33 c0		 xor	 eax, eax
  0046d	81 7d f8 dc 18
	00 00		 cmp	 DWORD PTR __type$[ebp], 6364 ; 000018dcH
  00474	0f 9e c0	 setle	 al
  00477	89 45 8c	 mov	 DWORD PTR tv155[ebp], eax
$LN402@Convert:
  0047a	83 7d 8c 00	 cmp	 DWORD PTR tv155[ebp], 0
  0047e	74 04		 je	 SHORT $LN386@Convert
$LN385@Convert:

; 175  : 	{
; 176  : 		Attribute2=0;

  00480	c6 45 18 00	 mov	 BYTE PTR _Attribute2$[ebp], 0
$LN386@Convert:

; 177  : 	}
; 178  : 
; 179  : 	if ( _type == ITEMGET(13,37) )

  00484	81 7d f8 25 1a
	00 00		 cmp	 DWORD PTR __type$[ebp], 6693 ; 00001a25H
  0048b	75 04		 jne	 SHORT $LN382@Convert

; 180  : 	{
; 181  : 		Attribute2 = 0;

  0048d	c6 45 18 00	 mov	 BYTE PTR _Attribute2$[ebp], 0
$LN382@Convert:

; 182  : 	}
; 183  : 
; 184  : 	SetOption = SetOption & 15;

  00491	0f b6 45 1c	 movzx	 eax, BYTE PTR _SetOption$[ebp]
  00495	83 e0 0f	 and	 eax, 15			; 0000000fH
  00498	88 45 1c	 mov	 BYTE PTR _SetOption$[ebp], al

; 185  : 		
; 186  : 	SOption=SetOption & 3;

  0049b	0f b6 45 1c	 movzx	 eax, BYTE PTR _SetOption$[ebp]
  0049f	83 e0 03	 and	 eax, 3
  004a2	89 45 ec	 mov	 DWORD PTR _SOption$[ebp], eax

; 187  : 	SOptionStatValue=0;

  004a5	c7 45 e8 00 00
	00 00		 mov	 DWORD PTR _SOptionStatValue$[ebp], 0

; 188  : 
; 189  : 	if (SOption != 1 && SOption != 2)

  004ac	83 7d ec 01	 cmp	 DWORD PTR _SOption$[ebp], 1
  004b0	74 0d		 je	 SHORT $LN381@Convert
  004b2	83 7d ec 02	 cmp	 DWORD PTR _SOption$[ebp], 2
  004b6	74 07		 je	 SHORT $LN381@Convert

; 190  : 	{
; 191  : 		SOption=0;

  004b8	c7 45 ec 00 00
	00 00		 mov	 DWORD PTR _SOption$[ebp], 0
$LN381@Convert:

; 192  : 	}
; 193  : 
; 194  : 	if ( (( (SetOption>>2) & 3) != 1) && ( ((SetOption>>2) & 3) != 2) )

  004bf	0f b6 45 1c	 movzx	 eax, BYTE PTR _SetOption$[ebp]
  004c3	c1 f8 02	 sar	 eax, 2
  004c6	83 e0 03	 and	 eax, 3
  004c9	83 f8 01	 cmp	 eax, 1
  004cc	74 16		 je	 SHORT $LN380@Convert
  004ce	0f b6 45 1c	 movzx	 eax, BYTE PTR _SetOption$[ebp]
  004d2	c1 f8 02	 sar	 eax, 2
  004d5	83 e0 03	 and	 eax, 3
  004d8	83 f8 02	 cmp	 eax, 2
  004db	74 07		 je	 SHORT $LN380@Convert

; 195  : 	{
; 196  : 		SOption=0;

  004dd	c7 45 ec 00 00
	00 00		 mov	 DWORD PTR _SOption$[ebp], 0
$LN380@Convert:

; 197  : 	}
; 198  : 
; 199  : 	if ( gSetItemOption.IsSetItem(_type) != 0 && SetOption != 255 && SOption != 0)

  004e4	8b 45 f8	 mov	 eax, DWORD PTR __type$[ebp]
  004e7	50		 push	 eax
  004e8	b9 00 00 00 00	 mov	 ecx, OFFSET ?gSetItemOption@@3VCSetItemOption@@A ; gSetItemOption
  004ed	e8 00 00 00 00	 call	 ?IsSetItem@CSetItemOption@@QAEHH@Z ; CSetItemOption::IsSetItem
  004f2	85 c0		 test	 eax, eax
  004f4	74 51		 je	 SHORT $LN379@Convert
  004f6	0f b6 45 1c	 movzx	 eax, BYTE PTR _SetOption$[ebp]
  004fa	3d ff 00 00 00	 cmp	 eax, 255		; 000000ffH
  004ff	74 46		 je	 SHORT $LN379@Convert
  00501	83 7d ec 00	 cmp	 DWORD PTR _SOption$[ebp], 0
  00505	74 40		 je	 SHORT $LN379@Convert

; 200  : 	{
; 201  : 		this->m_SetOption = SetOption;

  00507	8b 45 fc	 mov	 eax, DWORD PTR _this$[ebp]
  0050a	8a 4d 1c	 mov	 cl, BYTE PTR _SetOption$[ebp]
  0050d	88 88 ae 00 00
	00		 mov	 BYTE PTR [eax+174], cl

; 202  : 		if ( this->m_SetOption != 0 )

  00513	8b 45 fc	 mov	 eax, DWORD PTR _this$[ebp]
  00516	0f b6 88 ae 00
	00 00		 movzx	 ecx, BYTE PTR [eax+174]
  0051d	85 c9		 test	 ecx, ecx
  0051f	74 24		 je	 SHORT $LN378@Convert

; 203  : 		{
; 204  : 			//int ExExcellentAncient = GetPrivateProfileInt("Items","ExcellentAncient",1,"..\\Data\\ExData\\CommonServer.ini");
; 205  : 			if(!ExExcellentAncient)

  00521	83 3d 00 00 00
	00 00		 cmp	 DWORD PTR ?ExExcellentAncient@@3HA, 0 ; ExExcellentAncient
  00528	75 0a		 jne	 SHORT $LN377@Convert

; 206  : 				this->m_NewOption = 0;

  0052a	8b 45 fc	 mov	 eax, DWORD PTR _this$[ebp]
  0052d	c6 80 97 00 00
	00 00		 mov	 BYTE PTR [eax+151], 0
$LN377@Convert:

; 207  : 			Attribute2 = 0;

  00534	c6 45 18 00	 mov	 BYTE PTR _Attribute2$[ebp], 0

; 208  : 			SOptionStatValue = (SetOption>>2)&3;

  00538	0f b6 45 1c	 movzx	 eax, BYTE PTR _SetOption$[ebp]
  0053c	c1 f8 02	 sar	 eax, 2
  0053f	83 e0 03	 and	 eax, 3
  00542	89 45 e8	 mov	 DWORD PTR _SOptionStatValue$[ebp], eax
$LN378@Convert:

; 209  : 		}
; 210  : 	}
; 211  : 	else

  00545	eb 0a		 jmp	 SHORT $LN376@Convert
$LN379@Convert:

; 212  : 	{
; 213  : 		this->m_SetOption = 0;

  00547	8b 45 fc	 mov	 eax, DWORD PTR _this$[ebp]
  0054a	c6 80 ae 00 00
	00 00		 mov	 BYTE PTR [eax+174], 0
$LN376@Convert:

; 214  : 	}
; 215  : 	
; 216  : 	this->m_ItemOptionEx = ItemEffectEx;

  00551	8b 45 fc	 mov	 eax, DWORD PTR _this$[ebp]
  00554	8a 4d 20	 mov	 cl, BYTE PTR _ItemEffectEx$[ebp]
  00557	88 88 ca 00 00
	00		 mov	 BYTE PTR [eax+202], cl

; 217  : 
; 218  : 	//Socket Season 4 OPTION #START!
; 219  : 	if(g_SocketOption.IsActive(this) == 1)

  0055d	8b 45 fc	 mov	 eax, DWORD PTR _this$[ebp]
  00560	50		 push	 eax
  00561	b9 00 00 00 00	 mov	 ecx, OFFSET ?g_SocketOption@@3VCSocketOption@@A ; g_SocketOption
  00566	e8 00 00 00 00	 call	 ?IsActive@CSocketOption@@QAEEPAVCItem@@@Z ; CSocketOption::IsActive
  0056b	0f b6 c8	 movzx	 ecx, al
  0056e	83 f9 01	 cmp	 ecx, 1
  00571	0f 85 98 00 00
	00		 jne	 $LN375@Convert

; 220  : 	{
; 221  : 		if(SocketOption != 0)

  00577	83 7d 24 00	 cmp	 DWORD PTR _SocketOption$[ebp], 0
  0057b	74 3a		 je	 SHORT $LN371@Convert

; 222  : 		{
; 223  : 			this->m_SocketOptionIndex = SocketIndex;

  0057d	8b 45 fc	 mov	 eax, DWORD PTR _this$[ebp]
  00580	8a 4d 28	 mov	 cl, BYTE PTR _SocketIndex$[ebp]
  00583	88 88 cb 00 00
	00		 mov	 BYTE PTR [eax+203], cl

; 224  : 
; 225  : 			for(int i = 0; i < 5; i++) //7

  00589	c7 45 e4 00 00
	00 00		 mov	 DWORD PTR _i$230549[ebp], 0
  00590	eb 09		 jmp	 SHORT $LN373@Convert
$LN372@Convert:
  00592	8b 45 e4	 mov	 eax, DWORD PTR _i$230549[ebp]
  00595	83 c0 01	 add	 eax, 1
  00598	89 45 e4	 mov	 DWORD PTR _i$230549[ebp], eax
$LN373@Convert:
  0059b	83 7d e4 05	 cmp	 DWORD PTR _i$230549[ebp], 5
  0059f	7d 16		 jge	 SHORT $LN371@Convert

; 226  : 			{
; 227  : 				this->m_SocketOption[i] = SocketOption[i];

  005a1	8b 45 fc	 mov	 eax, DWORD PTR _this$[ebp]
  005a4	03 45 e4	 add	 eax, DWORD PTR _i$230549[ebp]
  005a7	8b 4d 24	 mov	 ecx, DWORD PTR _SocketOption$[ebp]
  005aa	03 4d e4	 add	 ecx, DWORD PTR _i$230549[ebp]
  005ad	8a 11		 mov	 dl, BYTE PTR [ecx]
  005af	88 90 cc 00 00
	00		 mov	 BYTE PTR [eax+204], dl

; 228  : 			}

  005b5	eb db		 jmp	 SHORT $LN372@Convert
$LN371@Convert:

; 229  : 		}
; 230  : 
; 231  : 		if(g_SocketOption.IsSocketOption(this) == 1)

  005b7	8b 45 fc	 mov	 eax, DWORD PTR _this$[ebp]
  005ba	50		 push	 eax
  005bb	b9 00 00 00 00	 mov	 ecx, OFFSET ?g_SocketOption@@3VCSocketOption@@A ; g_SocketOption
  005c0	e8 00 00 00 00	 call	 ?IsSocketOption@CSocketOption@@QAEEPAVCItem@@@Z ; CSocketOption::IsSocketOption
  005c5	0f b6 c8	 movzx	 ecx, al
  005c8	83 f9 01	 cmp	 ecx, 1
  005cb	75 36		 jne	 SHORT $LN370@Convert

; 232  : 		{	//Zero SET
; 233  : 			//this->m_ItemOptionEx = 0;
; 234  : 			//int ExAncientSocket = GetPrivateProfileInt("Items","AncientSocket",1,"..\\Data\\ExData\\CommonServer.ini");
; 235  : 			if(!ExAncientSocket)

  005cd	83 3d 00 00 00
	00 00		 cmp	 DWORD PTR ?ExAncientSocket@@3HA, 0 ; ExAncientSocket
  005d4	75 0a		 jne	 SHORT $LN369@Convert

; 236  : 				this->m_SetOption = 0;

  005d6	8b 45 fc	 mov	 eax, DWORD PTR _this$[ebp]
  005d9	c6 80 ae 00 00
	00 00		 mov	 BYTE PTR [eax+174], 0
$LN369@Convert:

; 237  : 			
; 238  : 			//int ExExcellentSocket = GetPrivateProfileInt("Items","ExcellentSocket",1,"..\\Data\\ExData\\CommonServer.ini");
; 239  : 			if(!ExExcellentSocket)

  005e0	83 3d 00 00 00
	00 00		 cmp	 DWORD PTR ?ExExcellentSocket@@3HA, 0 ; ExExcellentSocket
  005e7	75 0e		 jne	 SHORT $LN368@Convert

; 240  : 			{
; 241  : 				Attribute2 = 0;

  005e9	c6 45 18 00	 mov	 BYTE PTR _Attribute2$[ebp], 0

; 242  : 				this->m_NewOption = 0;

  005ed	8b 45 fc	 mov	 eax, DWORD PTR _this$[ebp]
  005f0	c6 80 97 00 00
	00 00		 mov	 BYTE PTR [eax+151], 0
$LN368@Convert:

; 243  : 			}
; 244  : 				
; 245  : 			this->m_JewelOfHarmonyOption = 0;

  005f7	8b 45 fc	 mov	 eax, DWORD PTR _this$[ebp]
  005fa	c6 80 c4 00 00
	00 00		 mov	 BYTE PTR [eax+196], 0

; 246  : 		}
; 247  : 		else

  00601	eb 0a		 jmp	 SHORT $LN367@Convert
$LN370@Convert:

; 248  : 		{
; 249  : 			//Zero SET
; 250  : 			this->m_SocketOptionIndex = 0;

  00603	8b 45 fc	 mov	 eax, DWORD PTR _this$[ebp]
  00606	c6 80 cb 00 00
	00 00		 mov	 BYTE PTR [eax+203], 0
$LN367@Convert:

; 251  : 		}
; 252  : 	}
; 253  : 	else

  0060d	eb 31		 jmp	 SHORT $LN363@Convert
$LN375@Convert:

; 254  : 	{
; 255  : 		//Zero SET
; 256  : 		this->m_SocketOptionIndex = 0;

  0060f	8b 45 fc	 mov	 eax, DWORD PTR _this$[ebp]
  00612	c6 80 cb 00 00
	00 00		 mov	 BYTE PTR [eax+203], 0

; 257  : 
; 258  : 		for(int i = 0; i < 5; i++) //8

  00619	c7 45 e0 00 00
	00 00		 mov	 DWORD PTR _i$230558[ebp], 0
  00620	eb 09		 jmp	 SHORT $LN365@Convert
$LN364@Convert:
  00622	8b 45 e0	 mov	 eax, DWORD PTR _i$230558[ebp]
  00625	83 c0 01	 add	 eax, 1
  00628	89 45 e0	 mov	 DWORD PTR _i$230558[ebp], eax
$LN365@Convert:
  0062b	83 7d e0 05	 cmp	 DWORD PTR _i$230558[ebp], 5
  0062f	7d 0f		 jge	 SHORT $LN363@Convert

; 259  : 		{
; 260  : 			this->m_SocketOption[i] = 0xFF;

  00631	8b 45 fc	 mov	 eax, DWORD PTR _this$[ebp]
  00634	03 45 e0	 add	 eax, DWORD PTR _i$230558[ebp]
  00637	c6 80 cc 00 00
	00 ff		 mov	 BYTE PTR [eax+204], 255	; 000000ffH

; 261  : 		}

  0063e	eb e2		 jmp	 SHORT $LN364@Convert
$LN363@Convert:

; 262  : 	}
; 263  : #ifdef PERIOD
; 264  : 	this->m_PeriodItemOption = PeriodItemOption;

  00640	8b 45 fc	 mov	 eax, DWORD PTR _this$[ebp]
  00643	8a 4d 2c	 mov	 cl, BYTE PTR _PeriodItemOption$[ebp]
  00646	88 88 d2 00 00
	00		 mov	 BYTE PTR [eax+210], cl

; 265  : #endif
; 266  : 	memset( this->m_SkillResistance , 0, sizeof(this->m_SkillResistance) );

  0064c	6a 07		 push	 7
  0064e	6a 00		 push	 0
  00650	8b 45 fc	 mov	 eax, DWORD PTR _this$[ebp]
  00653	05 b1 00 00 00	 add	 eax, 177		; 000000b1H
  00658	50		 push	 eax
  00659	e8 00 00 00 00	 call	 _memset
  0065e	83 c4 0c	 add	 esp, 12			; 0000000cH

; 267  : 	
; 268  : 	if ( _type == ITEMGET(0,19) || _type == ITEMGET(4,18) || _type == ITEMGET(5,10) || _type == ITEMGET(2,13))

  00661	83 7d f8 13	 cmp	 DWORD PTR __type$[ebp], 19 ; 00000013H
  00665	74 1b		 je	 SHORT $LN361@Convert
  00667	81 7d f8 12 08
	00 00		 cmp	 DWORD PTR __type$[ebp], 2066 ; 00000812H
  0066e	74 12		 je	 SHORT $LN361@Convert
  00670	81 7d f8 0a 0a
	00 00		 cmp	 DWORD PTR __type$[ebp], 2570 ; 00000a0aH
  00677	74 09		 je	 SHORT $LN361@Convert
  00679	81 7d f8 0d 04
	00 00		 cmp	 DWORD PTR __type$[ebp], 1037 ; 0000040dH
  00680	75 04		 jne	 SHORT $LN362@Convert
$LN361@Convert:

; 269  : 	{
; 270  : 		Attribute2=0;

  00682	c6 45 18 00	 mov	 BYTE PTR _Attribute2$[ebp], 0
$LN362@Convert:

; 271  : 	}
; 272  : 
; 273  : 	int iChaosItem = 0;

  00686	c7 45 dc 00 00
	00 00		 mov	 DWORD PTR _iChaosItem$[ebp], 0

; 274  : 
; 275  : 	if ( this->m_Type == ITEMGET(2,6) )

  0068d	8b 45 fc	 mov	 eax, DWORD PTR _this$[ebp]
  00690	0f bf 48 06	 movsx	 ecx, WORD PTR [eax+6]
  00694	81 f9 06 04 00
	00		 cmp	 ecx, 1030		; 00000406H
  0069a	75 09		 jne	 SHORT $LN360@Convert

; 276  : 	{
; 277  : 		iChaosItem = 15;

  0069c	c7 45 dc 0f 00
	00 00		 mov	 DWORD PTR _iChaosItem$[ebp], 15 ; 0000000fH
  006a3	eb 2e		 jmp	 SHORT $LN356@Convert
$LN360@Convert:

; 278  : 	}
; 279  : 	else if ( this->m_Type == ITEMGET(5,7) )

  006a5	8b 45 fc	 mov	 eax, DWORD PTR _this$[ebp]
  006a8	0f bf 48 06	 movsx	 ecx, WORD PTR [eax+6]
  006ac	81 f9 07 0a 00
	00		 cmp	 ecx, 2567		; 00000a07H
  006b2	75 09		 jne	 SHORT $LN358@Convert

; 280  : 	{
; 281  : 		iChaosItem = 25;

  006b4	c7 45 dc 19 00
	00 00		 mov	 DWORD PTR _iChaosItem$[ebp], 25 ; 00000019H
  006bb	eb 16		 jmp	 SHORT $LN356@Convert
$LN358@Convert:

; 282  : 	}
; 283  : 	else if ( this->m_Type == ITEMGET(4,6) )

  006bd	8b 45 fc	 mov	 eax, DWORD PTR _this$[ebp]
  006c0	0f bf 48 06	 movsx	 ecx, WORD PTR [eax+6]
  006c4	81 f9 06 08 00
	00		 cmp	 ecx, 2054		; 00000806H
  006ca	75 07		 jne	 SHORT $LN356@Convert

; 284  : 	{
; 285  : 		iChaosItem = 30;

  006cc	c7 45 dc 1e 00
	00 00		 mov	 DWORD PTR _iChaosItem$[ebp], 30 ; 0000001eH
$LN356@Convert:

; 286  : 	}
; 287  : 
; 288  : 	if ( ItemGetDurability(this->m_Type, 0, 0, 0) != 0 )

  006d3	6a 00		 push	 0
  006d5	6a 00		 push	 0
  006d7	6a 00		 push	 0
  006d9	8b 45 fc	 mov	 eax, DWORD PTR _this$[ebp]
  006dc	0f bf 48 06	 movsx	 ecx, WORD PTR [eax+6]
  006e0	51		 push	 ecx
  006e1	e8 00 00 00 00	 call	 ?ItemGetDurability@@YAHHHHH@Z ; ItemGetDurability
  006e6	83 c4 10	 add	 esp, 16			; 00000010H
  006e9	85 c0		 test	 eax, eax
  006eb	74 39		 je	 SHORT $LN355@Convert

; 289  : 	{
; 290  : 		this->m_BaseDurability = (float)ItemGetDurability(this->m_Type, this->m_Level, Attribute2 & 0x7F, this->m_SetOption );

  006ed	8b 45 fc	 mov	 eax, DWORD PTR _this$[ebp]
  006f0	0f b6 88 ae 00
	00 00		 movzx	 ecx, BYTE PTR [eax+174]
  006f7	51		 push	 ecx
  006f8	0f b6 55 18	 movzx	 edx, BYTE PTR _Attribute2$[ebp]
  006fc	83 e2 7f	 and	 edx, 127		; 0000007fH
  006ff	52		 push	 edx
  00700	8b 45 fc	 mov	 eax, DWORD PTR _this$[ebp]
  00703	0f bf 48 08	 movsx	 ecx, WORD PTR [eax+8]
  00707	51		 push	 ecx
  00708	8b 55 fc	 mov	 edx, DWORD PTR _this$[ebp]
  0070b	0f bf 42 06	 movsx	 eax, WORD PTR [edx+6]
  0070f	50		 push	 eax
  00710	e8 00 00 00 00	 call	 ?ItemGetDurability@@YAHHHHH@Z ; ItemGetDurability
  00715	83 c4 10	 add	 esp, 16			; 00000010H
  00718	89 45 8c	 mov	 DWORD PTR tv2923[ebp], eax
  0071b	db 45 8c	 fild	 DWORD PTR tv2923[ebp]
  0071e	8b 4d fc	 mov	 ecx, DWORD PTR _this$[ebp]
  00721	d9 59 2c	 fstp	 DWORD PTR [ecx+44]

; 291  : 	}
; 292  : 	else

  00724	eb 08		 jmp	 SHORT $LN354@Convert
$LN355@Convert:

; 293  : 	{
; 294  : 		this->m_BaseDurability = 0;

  00726	8b 45 fc	 mov	 eax, DWORD PTR _this$[ebp]
  00729	d9 ee		 fldz
  0072b	d9 58 2c	 fstp	 DWORD PTR [eax+44]
$LN354@Convert:

; 295  : 	}
; 296  : 
; 297  : 	this->m_DurabilityState[0] = this->m_BaseDurability * 0.5f;

  0072e	8b 45 fc	 mov	 eax, DWORD PTR _this$[ebp]
  00731	d9 40 2c	 fld	 DWORD PTR [eax+44]
  00734	dc 0d 00 00 00
	00		 fmul	 QWORD PTR __real@3fe0000000000000
  0073a	8b 4d fc	 mov	 ecx, DWORD PTR _this$[ebp]
  0073d	d9 99 98 00 00
	00		 fstp	 DWORD PTR [ecx+152]

; 298  : 	this->m_DurabilityState[1] = this->m_BaseDurability * 0.3f;

  00743	8b 45 fc	 mov	 eax, DWORD PTR _this$[ebp]
  00746	d9 40 2c	 fld	 DWORD PTR [eax+44]
  00749	dc 0d 00 00 00
	00		 fmul	 QWORD PTR __real@3fd3333340000000
  0074f	8b 4d fc	 mov	 ecx, DWORD PTR _this$[ebp]
  00752	d9 99 9c 00 00
	00		 fstp	 DWORD PTR [ecx+156]

; 299  : 	this->m_DurabilityState[2] = this->m_BaseDurability * 0.2f;

  00758	8b 45 fc	 mov	 eax, DWORD PTR _this$[ebp]
  0075b	d9 40 2c	 fld	 DWORD PTR [eax+44]
  0075e	dc 0d 00 00 00
	00		 fmul	 QWORD PTR __real@3fc99999a0000000
  00764	8b 4d fc	 mov	 ecx, DWORD PTR _this$[ebp]
  00767	d9 99 a0 00 00
	00		 fstp	 DWORD PTR [ecx+160]

; 300  : 	this->m_Value = p->Value;

  0076d	8b 45 f0	 mov	 eax, DWORD PTR _p$[ebp]
  00770	0f b7 48 3c	 movzx	 ecx, WORD PTR [eax+60]
  00774	8b 55 fc	 mov	 edx, DWORD PTR _this$[ebp]
  00777	89 4a 68	 mov	 DWORD PTR [edx+104], ecx

; 301  : 	this->m_AttackSpeed = p->AttackSpeed;

  0077a	8b 45 fc	 mov	 eax, DWORD PTR _this$[ebp]
  0077d	8b 4d f0	 mov	 ecx, DWORD PTR _p$[ebp]
  00780	8a 51 28	 mov	 dl, BYTE PTR [ecx+40]
  00783	88 50 0d	 mov	 BYTE PTR [eax+13], dl

; 302  : 	this->m_TwoHand = p->TwoHand;

  00786	8b 45 fc	 mov	 eax, DWORD PTR _this$[ebp]
  00789	8b 4d f0	 mov	 ecx, DWORD PTR _p$[ebp]
  0078c	8a 51 21	 mov	 dl, BYTE PTR [ecx+33]
  0078f	88 50 0c	 mov	 BYTE PTR [eax+12], dl

; 303  : 	this->m_DamageMin = p->DamageMin;

  00792	8b 45 f0	 mov	 eax, DWORD PTR _p$[ebp]
  00795	66 0f b6 48 2a	 movzx	 cx, BYTE PTR [eax+42]
  0079a	8b 55 fc	 mov	 edx, DWORD PTR _this$[ebp]
  0079d	66 89 4a 10	 mov	 WORD PTR [edx+16], cx

; 304  : 	this->m_DamageMax = p->DamageMax;

  007a1	8b 45 f0	 mov	 eax, DWORD PTR _p$[ebp]
  007a4	66 0f b6 48 2b	 movzx	 cx, BYTE PTR [eax+43]
  007a9	8b 55 fc	 mov	 edx, DWORD PTR _this$[ebp]
  007ac	66 89 4a 12	 mov	 WORD PTR [edx+18], cx

; 305  : 	this->m_SuccessfulBlocking = p->SuccessfulBlocking;

  007b0	8b 45 fc	 mov	 eax, DWORD PTR _this$[ebp]
  007b3	8b 4d f0	 mov	 ecx, DWORD PTR _p$[ebp]
  007b6	8a 51 2c	 mov	 dl, BYTE PTR [ecx+44]
  007b9	88 50 14	 mov	 BYTE PTR [eax+20], dl

; 306  : 	this->m_Defense = p->Defense;

  007bc	8b 45 f0	 mov	 eax, DWORD PTR _p$[ebp]
  007bf	66 0f b6 48 2d	 movzx	 cx, BYTE PTR [eax+45]
  007c4	8b 55 fc	 mov	 edx, DWORD PTR _this$[ebp]
  007c7	66 89 4a 16	 mov	 WORD PTR [edx+22], cx

; 307  : 	this->m_MagicDefense = p->MagicDefense;

  007cb	8b 45 f0	 mov	 eax, DWORD PTR _p$[ebp]
  007ce	66 0f b6 48 2e	 movzx	 cx, BYTE PTR [eax+46]
  007d3	8b 55 fc	 mov	 edx, DWORD PTR _this$[ebp]
  007d6	66 89 4a 18	 mov	 WORD PTR [edx+24], cx

; 308  : 	this->m_WalkSpeed = p->WalkSpeed;

  007da	8b 45 fc	 mov	 eax, DWORD PTR _this$[ebp]
  007dd	8b 4d f0	 mov	 ecx, DWORD PTR _p$[ebp]
  007e0	8a 51 29	 mov	 dl, BYTE PTR [ecx+41]
  007e3	88 50 0e	 mov	 BYTE PTR [eax+14], dl

; 309  : 
; 310  : 	if((_type >> 9) == 5 && p->ItemSlot == 1) //Season3 add-on

  007e6	8b 45 f8	 mov	 eax, DWORD PTR __type$[ebp]
  007e9	c1 f8 09	 sar	 eax, 9
  007ec	83 f8 05	 cmp	 eax, 5
  007ef	75 22		 jne	 SHORT $LN353@Convert
  007f1	8b 45 f0	 mov	 eax, DWORD PTR _p$[ebp]
  007f4	83 78 64 01	 cmp	 DWORD PTR [eax+100], 1
  007f8	75 19		 jne	 SHORT $LN353@Convert

; 311  : 	{
; 312  : 		this->m_Magic = 0;

  007fa	33 c0		 xor	 eax, eax
  007fc	8b 4d fc	 mov	 ecx, DWORD PTR _this$[ebp]
  007ff	66 89 41 20	 mov	 WORD PTR [ecx+32], ax

; 313  : 		this->m_BookSpell = p->MagicPW;

  00803	8b 45 fc	 mov	 eax, DWORD PTR _this$[ebp]
  00806	8b 4d f0	 mov	 ecx, DWORD PTR _p$[ebp]
  00809	66 8b 51 54	 mov	 dx, WORD PTR [ecx+84]
  0080d	66 89 50 22	 mov	 WORD PTR [eax+34], dx

; 314  : 	}
; 315  : 	else

  00811	eb 17		 jmp	 SHORT $LN352@Convert
$LN353@Convert:

; 316  : 	{
; 317  : 		this->m_Magic = p->MagicPW;

  00813	8b 45 fc	 mov	 eax, DWORD PTR _this$[ebp]
  00816	8b 4d f0	 mov	 ecx, DWORD PTR _p$[ebp]
  00819	66 8b 51 54	 mov	 dx, WORD PTR [ecx+84]
  0081d	66 89 50 20	 mov	 WORD PTR [eax+32], dx

; 318  : 		this->m_BookSpell = 0;

  00821	33 c0		 xor	 eax, eax
  00823	8b 4d fc	 mov	 ecx, DWORD PTR _this$[ebp]
  00826	66 89 41 22	 mov	 WORD PTR [ecx+34], ax
$LN352@Convert:

; 319  : 	}
; 320  : 	
; 321  : 	this->m_serial = p->Serial;

  0082a	8b 45 fc	 mov	 eax, DWORD PTR _this$[ebp]
  0082d	8b 4d f0	 mov	 ecx, DWORD PTR _p$[ebp]
  00830	8a 51 25	 mov	 dl, BYTE PTR [ecx+37]
  00833	88 50 04	 mov	 BYTE PTR [eax+4], dl

; 322  : 	this->m_QuestItem = (bool)p->QuestItem;

  00836	8b 45 fc	 mov	 eax, DWORD PTR _this$[ebp]
  00839	8b 4d f0	 mov	 ecx, DWORD PTR _p$[ebp]
  0083c	8a 51 60	 mov	 dl, BYTE PTR [ecx+96]
  0083f	88 90 ad 00 00
	00		 mov	 BYTE PTR [eax+173], dl

; 323  : 	this->m_RequireLeaderShip = 0;

  00845	33 c0		 xor	 eax, eax
  00847	8b 4d fc	 mov	 ecx, DWORD PTR _this$[ebp]
  0084a	66 89 41 54	 mov	 WORD PTR [ecx+84], ax

; 324  : 
; 325  : 	/////////
; 326  : 	if ( this->m_BaseDurability > 10.0f && 
; 327  : 		_type != ITEMGET(13,20) &&
; 328  : 		_type != ITEMGET(13,38) &&
; 329  : 		this->m_Durability > this->m_BaseDurability) //season 4.5 add-on

  0084e	8b 45 fc	 mov	 eax, DWORD PTR _this$[ebp]
  00851	d9 40 2c	 fld	 DWORD PTR [eax+44]
  00854	dc 1d 00 00 00
	00		 fcomp	 QWORD PTR __real@4024000000000000
  0085a	df e0		 fnstsw	 ax
  0085c	f6 c4 41	 test	 ah, 65			; 00000041H
  0085f	75 33		 jne	 SHORT $LN351@Convert
  00861	81 7d f8 14 1a
	00 00		 cmp	 DWORD PTR __type$[ebp], 6676 ; 00001a14H
  00868	74 2a		 je	 SHORT $LN351@Convert
  0086a	81 7d f8 26 1a
	00 00		 cmp	 DWORD PTR __type$[ebp], 6694 ; 00001a26H
  00871	74 21		 je	 SHORT $LN351@Convert
  00873	8b 45 fc	 mov	 eax, DWORD PTR _this$[ebp]
  00876	d9 40 24	 fld	 DWORD PTR [eax+36]
  00879	8b 4d fc	 mov	 ecx, DWORD PTR _this$[ebp]
  0087c	d9 41 2c	 fld	 DWORD PTR [ecx+44]
  0087f	de d9		 fcompp
  00881	df e0		 fnstsw	 ax
  00883	f6 c4 05	 test	 ah, 5
  00886	7a 0c		 jp	 SHORT $LN351@Convert

; 330  : 	{
; 331  : 		this->m_Durability = this->m_BaseDurability;

  00888	8b 45 fc	 mov	 eax, DWORD PTR _this$[ebp]
  0088b	8b 4d fc	 mov	 ecx, DWORD PTR _this$[ebp]
  0088e	d9 41 2c	 fld	 DWORD PTR [ecx+44]
  00891	d9 58 24	 fstp	 DWORD PTR [eax+36]
$LN351@Convert:

; 332  : 	}
; 333  : 	////////
; 334  : 
; 335  : 	if ( this->m_Durability == 0 )

  00894	8b 45 fc	 mov	 eax, DWORD PTR _this$[ebp]
  00897	d9 40 24	 fld	 DWORD PTR [eax+36]
  0089a	d9 ee		 fldz
  0089c	da e9		 fucompp
  0089e	df e0		 fnstsw	 ax
  008a0	f6 c4 44	 test	 ah, 68			; 00000044H
  008a3	7a 10		 jp	 SHORT $LN350@Convert

; 336  : 	{
; 337  : 		this->m_CurrentDurabilityState = 1;

  008a5	8b 45 fc	 mov	 eax, DWORD PTR _this$[ebp]
  008a8	d9 e8		 fld1
  008aa	d9 98 a8 00 00
	00		 fstp	 DWORD PTR [eax+168]
  008b0	e9 86 00 00 00	 jmp	 $LN343@Convert
$LN350@Convert:

; 338  : 	}
; 339  : 	else if ( this->m_Durability < this->m_DurabilityState[2] )

  008b5	8b 45 fc	 mov	 eax, DWORD PTR _this$[ebp]
  008b8	d9 40 24	 fld	 DWORD PTR [eax+36]
  008bb	8b 4d fc	 mov	 ecx, DWORD PTR _this$[ebp]
  008be	d9 81 a0 00 00
	00		 fld	 DWORD PTR [ecx+160]
  008c4	de d9		 fcompp
  008c6	df e0		 fnstsw	 ax
  008c8	f6 c4 41	 test	 ah, 65			; 00000041H
  008cb	75 11		 jne	 SHORT $LN348@Convert

; 340  : 	{
; 341  : 		this->m_CurrentDurabilityState = (float)0.5;

  008cd	8b 45 fc	 mov	 eax, DWORD PTR _this$[ebp]
  008d0	d9 05 00 00 00
	00		 fld	 DWORD PTR __real@3f000000
  008d6	d9 98 a8 00 00
	00		 fstp	 DWORD PTR [eax+168]
  008dc	eb 5d		 jmp	 SHORT $LN343@Convert
$LN348@Convert:

; 342  : 	}
; 343  : 	else if ( this->m_Durability < this->m_DurabilityState[1] )

  008de	8b 45 fc	 mov	 eax, DWORD PTR _this$[ebp]
  008e1	d9 40 24	 fld	 DWORD PTR [eax+36]
  008e4	8b 4d fc	 mov	 ecx, DWORD PTR _this$[ebp]
  008e7	d9 81 9c 00 00
	00		 fld	 DWORD PTR [ecx+156]
  008ed	de d9		 fcompp
  008ef	df e0		 fnstsw	 ax
  008f1	f6 c4 41	 test	 ah, 65			; 00000041H
  008f4	75 11		 jne	 SHORT $LN346@Convert

; 344  : 	{
; 345  : 		this->m_CurrentDurabilityState = (float)0.3;

  008f6	8b 45 fc	 mov	 eax, DWORD PTR _this$[ebp]
  008f9	d9 05 00 00 00
	00		 fld	 DWORD PTR __real@3e99999a
  008ff	d9 98 a8 00 00
	00		 fstp	 DWORD PTR [eax+168]
  00905	eb 34		 jmp	 SHORT $LN343@Convert
$LN346@Convert:

; 346  : 	}
; 347  : 	else if ( this->m_Durability < this->m_DurabilityState[0] )

  00907	8b 45 fc	 mov	 eax, DWORD PTR _this$[ebp]
  0090a	d9 40 24	 fld	 DWORD PTR [eax+36]
  0090d	8b 4d fc	 mov	 ecx, DWORD PTR _this$[ebp]
  00910	d9 81 98 00 00
	00		 fld	 DWORD PTR [ecx+152]
  00916	de d9		 fcompp
  00918	df e0		 fnstsw	 ax
  0091a	f6 c4 41	 test	 ah, 65			; 00000041H
  0091d	75 11		 jne	 SHORT $LN344@Convert

; 348  : 	{
; 349  : 		this->m_CurrentDurabilityState = (float)0.2;

  0091f	8b 45 fc	 mov	 eax, DWORD PTR _this$[ebp]
  00922	d9 05 00 00 00
	00		 fld	 DWORD PTR __real@3e4ccccd
  00928	d9 98 a8 00 00
	00		 fstp	 DWORD PTR [eax+168]

; 350  : 	}
; 351  : 	else

  0092e	eb 0b		 jmp	 SHORT $LN343@Convert
$LN344@Convert:

; 352  : 	{
; 353  : 		this->m_CurrentDurabilityState = 0.0;

  00930	8b 45 fc	 mov	 eax, DWORD PTR _this$[ebp]
  00933	d9 ee		 fldz
  00935	d9 98 a8 00 00
	00		 fstp	 DWORD PTR [eax+168]
$LN343@Convert:

; 354  : 	}
; 355  : 
; 356  : 	memcpy(this->m_RequireClass, p->RequireClass , sizeof(this->m_RequireClass));

  0093b	6a 07		 push	 7
  0093d	8b 45 f0	 mov	 eax, DWORD PTR _p$[ebp]
  00940	83 c0 3e	 add	 eax, 62			; 0000003eH
  00943	50		 push	 eax
  00944	8b 4d fc	 mov	 ecx, DWORD PTR _this$[ebp]
  00947	83 c1 58	 add	 ecx, 88			; 00000058H
  0094a	51		 push	 ecx
  0094b	e8 00 00 00 00	 call	 _memcpy
  00950	83 c4 0c	 add	 esp, 12			; 0000000cH

; 357  : 
; 358  : 	for (int i = 0; i<MAX_ITEM_SPECIAL_ATTRIBUTE ; i++ ) //9

  00953	c7 45 d8 00 00
	00 00		 mov	 DWORD PTR _i$230588[ebp], 0
  0095a	eb 09		 jmp	 SHORT $LN342@Convert
$LN341@Convert:
  0095c	8b 45 d8	 mov	 eax, DWORD PTR _i$230588[ebp]
  0095f	83 c0 01	 add	 eax, 1
  00962	89 45 d8	 mov	 DWORD PTR _i$230588[ebp], eax
$LN342@Convert:
  00965	83 7d d8 07	 cmp	 DWORD PTR _i$230588[ebp], 7
  00969	7d 1f		 jge	 SHORT $LN340@Convert

; 359  : 	{
; 360  : 		this->m_Resistance[i] = p->Resistance[i] * this->m_Level;

  0096b	8b 45 f0	 mov	 eax, DWORD PTR _p$[ebp]
  0096e	03 45 d8	 add	 eax, DWORD PTR _i$230588[ebp]
  00971	0f b6 48 45	 movzx	 ecx, BYTE PTR [eax+69]
  00975	8b 55 fc	 mov	 edx, DWORD PTR _this$[ebp]
  00978	0f bf 42 08	 movsx	 eax, WORD PTR [edx+8]
  0097c	0f af c8	 imul	 ecx, eax
  0097f	8b 55 fc	 mov	 edx, DWORD PTR _this$[ebp]
  00982	03 55 d8	 add	 edx, DWORD PTR _i$230588[ebp]
  00985	88 4a 5f	 mov	 BYTE PTR [edx+95], cl

; 361  : 	}

  00988	eb d2		 jmp	 SHORT $LN341@Convert
$LN340@Convert:

; 362  : 
; 363  : 	ItemLevel = p->Level;

  0098a	8b 45 f0	 mov	 eax, DWORD PTR _p$[ebp]
  0098d	0f b6 48 22	 movzx	 ecx, BYTE PTR [eax+34]
  00991	89 4d f4	 mov	 DWORD PTR _ItemLevel$[ebp], ecx

; 364  : 
; 365  : 	if ( ( Attribute2 & 0x3F) > 0 )

  00994	0f b6 45 18	 movzx	 eax, BYTE PTR _Attribute2$[ebp]
  00998	83 e0 3f	 and	 eax, 63			; 0000003fH
  0099b	7e 0f		 jle	 SHORT $LN339@Convert

; 366  : 	{
; 367  : 		ItemLevel = p->Level + 25;

  0099d	8b 45 f0	 mov	 eax, DWORD PTR _p$[ebp]
  009a0	0f b6 48 22	 movzx	 ecx, BYTE PTR [eax+34]
  009a4	83 c1 19	 add	 ecx, 25			; 00000019H
  009a7	89 4d f4	 mov	 DWORD PTR _ItemLevel$[ebp], ecx

; 368  : 	}
; 369  : 	else

  009aa	eb 1b		 jmp	 SHORT $LN337@Convert
$LN339@Convert:

; 370  : 	{
; 371  : 		if (this->m_SetOption != 0 )

  009ac	8b 45 fc	 mov	 eax, DWORD PTR _this$[ebp]
  009af	0f b6 88 ae 00
	00 00		 movzx	 ecx, BYTE PTR [eax+174]
  009b6	85 c9		 test	 ecx, ecx
  009b8	74 0d		 je	 SHORT $LN337@Convert

; 372  : 		{
; 373  : 			ItemLevel = p->Level + 25;

  009ba	8b 45 f0	 mov	 eax, DWORD PTR _p$[ebp]
  009bd	0f b6 48 22	 movzx	 ecx, BYTE PTR [eax+34]
  009c1	83 c1 19	 add	 ecx, 25			; 00000019H
  009c4	89 4d f4	 mov	 DWORD PTR _ItemLevel$[ebp], ecx
$LN337@Convert:

; 374  : 		}
; 375  : 	}
; 376  : 
; 377  : 	if ( p->RequireStrength != 0 )

  009c7	8b 45 f0	 mov	 eax, DWORD PTR _p$[ebp]
  009ca	0f b7 48 34	 movzx	 ecx, WORD PTR [eax+52]
  009ce	85 c9		 test	 ecx, ecx
  009d0	74 2e		 je	 SHORT $LN336@Convert

; 378  : 	{
; 379  : 		this->m_RequireStrength = ((p->RequireStrength * (ItemLevel + this->m_Level * 3 ) ) * 3) / 100 + 20;

  009d2	8b 45 f0	 mov	 eax, DWORD PTR _p$[ebp]
  009d5	0f b7 40 34	 movzx	 eax, WORD PTR [eax+52]
  009d9	8b 4d fc	 mov	 ecx, DWORD PTR _this$[ebp]
  009dc	0f bf 51 08	 movsx	 edx, WORD PTR [ecx+8]
  009e0	6b d2 03	 imul	 edx, 3
  009e3	03 55 f4	 add	 edx, DWORD PTR _ItemLevel$[ebp]
  009e6	0f af c2	 imul	 eax, edx
  009e9	6b c0 03	 imul	 eax, 3
  009ec	99		 cdq
  009ed	b9 64 00 00 00	 mov	 ecx, 100		; 00000064H
  009f2	f7 f9		 idiv	 ecx
  009f4	83 c0 14	 add	 eax, 20			; 00000014H
  009f7	8b 55 fc	 mov	 edx, DWORD PTR _this$[ebp]
  009fa	66 89 42 4a	 mov	 WORD PTR [edx+74], ax

; 380  : 	}
; 381  : 	else

  009fe	eb 09		 jmp	 SHORT $LN335@Convert
$LN336@Convert:

; 382  : 	{
; 383  : 		this->m_RequireStrength = 0;

  00a00	33 c0		 xor	 eax, eax
  00a02	8b 4d fc	 mov	 ecx, DWORD PTR _this$[ebp]
  00a05	66 89 41 4a	 mov	 WORD PTR [ecx+74], ax
$LN335@Convert:

; 384  : 	}
; 385  : 
; 386  : 
; 387  : 	if ( p->RequireDexterity != 0 )

  00a09	8b 45 f0	 mov	 eax, DWORD PTR _p$[ebp]
  00a0c	0f b7 48 36	 movzx	 ecx, WORD PTR [eax+54]
  00a10	85 c9		 test	 ecx, ecx
  00a12	74 2e		 je	 SHORT $LN334@Convert

; 388  : 	{
; 389  : 		this->m_RequireDexterity = ((p->RequireDexterity * (ItemLevel + this->m_Level * 3 ) ) * 3) / 100 + 20;

  00a14	8b 45 f0	 mov	 eax, DWORD PTR _p$[ebp]
  00a17	0f b7 40 36	 movzx	 eax, WORD PTR [eax+54]
  00a1b	8b 4d fc	 mov	 ecx, DWORD PTR _this$[ebp]
  00a1e	0f bf 51 08	 movsx	 edx, WORD PTR [ecx+8]
  00a22	6b d2 03	 imul	 edx, 3
  00a25	03 55 f4	 add	 edx, DWORD PTR _ItemLevel$[ebp]
  00a28	0f af c2	 imul	 eax, edx
  00a2b	6b c0 03	 imul	 eax, 3
  00a2e	99		 cdq
  00a2f	b9 64 00 00 00	 mov	 ecx, 100		; 00000064H
  00a34	f7 f9		 idiv	 ecx
  00a36	83 c0 14	 add	 eax, 20			; 00000014H
  00a39	8b 55 fc	 mov	 edx, DWORD PTR _this$[ebp]
  00a3c	66 89 42 4c	 mov	 WORD PTR [edx+76], ax

; 390  : 	}
; 391  : 	else

  00a40	eb 09		 jmp	 SHORT $LN333@Convert
$LN334@Convert:

; 392  : 	{
; 393  : 		this->m_RequireDexterity  = 0;

  00a42	33 c0		 xor	 eax, eax
  00a44	8b 4d fc	 mov	 ecx, DWORD PTR _this$[ebp]
  00a47	66 89 41 4c	 mov	 WORD PTR [ecx+76], ax
$LN333@Convert:

; 394  : 	}
; 395  : 
; 396  : 	if ( p->RequireEnergy != 0 )

  00a4b	8b 45 f0	 mov	 eax, DWORD PTR _p$[ebp]
  00a4e	0f b7 48 38	 movzx	 ecx, WORD PTR [eax+56]
  00a52	85 c9		 test	 ecx, ecx
  00a54	74 2e		 je	 SHORT $LN332@Convert

; 397  : 	{
; 398  : 		this->m_RequireEnergy = ((p->RequireEnergy * (ItemLevel + this->m_Level * 3 ) ) * 4) / 100 + 20;

  00a56	8b 45 f0	 mov	 eax, DWORD PTR _p$[ebp]
  00a59	0f b7 40 38	 movzx	 eax, WORD PTR [eax+56]
  00a5d	8b 4d fc	 mov	 ecx, DWORD PTR _this$[ebp]
  00a60	0f bf 51 08	 movsx	 edx, WORD PTR [ecx+8]
  00a64	6b d2 03	 imul	 edx, 3
  00a67	03 55 f4	 add	 edx, DWORD PTR _ItemLevel$[ebp]
  00a6a	0f af c2	 imul	 eax, edx
  00a6d	c1 e0 02	 shl	 eax, 2
  00a70	99		 cdq
  00a71	b9 64 00 00 00	 mov	 ecx, 100		; 00000064H
  00a76	f7 f9		 idiv	 ecx
  00a78	83 c0 14	 add	 eax, 20			; 00000014H
  00a7b	8b 55 fc	 mov	 edx, DWORD PTR _this$[ebp]
  00a7e	66 89 42 4e	 mov	 WORD PTR [edx+78], ax

; 399  : 	}
; 400  : 	else

  00a82	eb 09		 jmp	 SHORT $LN331@Convert
$LN332@Convert:

; 401  : 	{
; 402  : 		this->m_RequireEnergy = 0;

  00a84	33 c0		 xor	 eax, eax
  00a86	8b 4d fc	 mov	 ecx, DWORD PTR _this$[ebp]
  00a89	66 89 41 4e	 mov	 WORD PTR [ecx+78], ax
$LN331@Convert:

; 403  : 	}
; 404  : 
; 405  : 	if(p->RequireEnergy != 0)

  00a8d	8b 45 f0	 mov	 eax, DWORD PTR _p$[ebp]
  00a90	0f b7 48 38	 movzx	 ecx, WORD PTR [eax+56]
  00a94	85 c9		 test	 ecx, ecx
  00a96	74 3f		 je	 SHORT $LN330@Convert

; 406  : 	{
; 407  : 		if((_type >> 9) == 5 && p->ItemSlot == 1) //Season3 add-on

  00a98	8b 45 f8	 mov	 eax, DWORD PTR __type$[ebp]
  00a9b	c1 f8 09	 sar	 eax, 9
  00a9e	83 f8 05	 cmp	 eax, 5
  00aa1	75 32		 jne	 SHORT $LN329@Convert
  00aa3	8b 45 f0	 mov	 eax, DWORD PTR _p$[ebp]
  00aa6	83 78 64 01	 cmp	 DWORD PTR [eax+100], 1
  00aaa	75 29		 jne	 SHORT $LN329@Convert

; 408  : 		{
; 409  : 			this->m_RequireEnergy = ((p->RequireEnergy * (ItemLevel + this->m_Level) ) * 3) / 100 + 20;

  00aac	8b 45 f0	 mov	 eax, DWORD PTR _p$[ebp]
  00aaf	0f b7 40 38	 movzx	 eax, WORD PTR [eax+56]
  00ab3	8b 4d fc	 mov	 ecx, DWORD PTR _this$[ebp]
  00ab6	0f bf 51 08	 movsx	 edx, WORD PTR [ecx+8]
  00aba	03 55 f4	 add	 edx, DWORD PTR _ItemLevel$[ebp]
  00abd	0f af c2	 imul	 eax, edx
  00ac0	6b c0 03	 imul	 eax, 3
  00ac3	99		 cdq
  00ac4	b9 64 00 00 00	 mov	 ecx, 100		; 00000064H
  00ac9	f7 f9		 idiv	 ecx
  00acb	83 c0 14	 add	 eax, 20			; 00000014H
  00ace	8b 55 fc	 mov	 edx, DWORD PTR _this$[ebp]
  00ad1	66 89 42 4e	 mov	 WORD PTR [edx+78], ax
$LN329@Convert:

; 410  : 		}
; 411  : 	}
; 412  : 	else

  00ad5	eb 09		 jmp	 SHORT $LN328@Convert
$LN330@Convert:

; 413  : 	{
; 414  : 		this->m_RequireEnergy = 0;

  00ad7	33 c0		 xor	 eax, eax
  00ad9	8b 4d fc	 mov	 ecx, DWORD PTR _this$[ebp]
  00adc	66 89 41 4e	 mov	 WORD PTR [ecx+78], ax
$LN328@Convert:

; 415  : 	}
; 416  : 
; 417  : 	if ( _type >= ITEMGET(0,0) && _type < ITEMGET(12,0) )

  00ae0	83 7d f8 00	 cmp	 DWORD PTR __type$[ebp], 0
  00ae4	0f 8c 8f 00 00
	00		 jl	 $LN323@Convert
  00aea	81 7d f8 00 18
	00 00		 cmp	 DWORD PTR __type$[ebp], 6144 ; 00001800H
  00af1	0f 8d 82 00 00
	00		 jge	 $LN323@Convert

; 418  : 	{
; 419  : 		if ( p->RequireVitality != 0 )

  00af7	8b 45 f0	 mov	 eax, DWORD PTR _p$[ebp]
  00afa	0f b7 48 4c	 movzx	 ecx, WORD PTR [eax+76]
  00afe	85 c9		 test	 ecx, ecx
  00b00	74 2e		 je	 SHORT $LN326@Convert

; 420  : 		{
; 421  : 			this->m_RequireVitality = ((p->RequireVitality * (ItemLevel + this->m_Level * 3 ) ) * 3) / 100 + 20;

  00b02	8b 45 f0	 mov	 eax, DWORD PTR _p$[ebp]
  00b05	0f b7 40 4c	 movzx	 eax, WORD PTR [eax+76]
  00b09	8b 4d fc	 mov	 ecx, DWORD PTR _this$[ebp]
  00b0c	0f bf 51 08	 movsx	 edx, WORD PTR [ecx+8]
  00b10	6b d2 03	 imul	 edx, 3
  00b13	03 55 f4	 add	 edx, DWORD PTR _ItemLevel$[ebp]
  00b16	0f af c2	 imul	 eax, edx
  00b19	6b c0 03	 imul	 eax, 3
  00b1c	99		 cdq
  00b1d	b9 64 00 00 00	 mov	 ecx, 100		; 00000064H
  00b22	f7 f9		 idiv	 ecx
  00b24	83 c0 14	 add	 eax, 20			; 00000014H
  00b27	8b 55 fc	 mov	 edx, DWORD PTR _this$[ebp]
  00b2a	66 89 42 52	 mov	 WORD PTR [edx+82], ax

; 422  : 		}
; 423  : 		else

  00b2e	eb 09		 jmp	 SHORT $LN325@Convert
$LN326@Convert:

; 424  : 		{
; 425  : 			this->m_RequireVitality = 0;

  00b30	33 c0		 xor	 eax, eax
  00b32	8b 4d fc	 mov	 ecx, DWORD PTR _this$[ebp]
  00b35	66 89 41 52	 mov	 WORD PTR [ecx+82], ax
$LN325@Convert:

; 426  : 		}
; 427  : 
; 428  : 		if ( p->RequireLeadership != 0 )

  00b39	8b 45 f0	 mov	 eax, DWORD PTR _p$[ebp]
  00b3c	83 78 6c 00	 cmp	 DWORD PTR [eax+108], 0
  00b40	74 2e		 je	 SHORT $LN324@Convert

; 429  : 		{
; 430  : 			this->m_RequireLeaderShip = ((p->RequireVitality * (ItemLevel + this->m_Level * 3 ) ) * 3) / 100 + 20;

  00b42	8b 45 f0	 mov	 eax, DWORD PTR _p$[ebp]
  00b45	0f b7 40 4c	 movzx	 eax, WORD PTR [eax+76]
  00b49	8b 4d fc	 mov	 ecx, DWORD PTR _this$[ebp]
  00b4c	0f bf 51 08	 movsx	 edx, WORD PTR [ecx+8]
  00b50	6b d2 03	 imul	 edx, 3
  00b53	03 55 f4	 add	 edx, DWORD PTR _ItemLevel$[ebp]
  00b56	0f af c2	 imul	 eax, edx
  00b59	6b c0 03	 imul	 eax, 3
  00b5c	99		 cdq
  00b5d	b9 64 00 00 00	 mov	 ecx, 100		; 00000064H
  00b62	f7 f9		 idiv	 ecx
  00b64	83 c0 14	 add	 eax, 20			; 00000014H
  00b67	8b 55 fc	 mov	 edx, DWORD PTR _this$[ebp]
  00b6a	66 89 42 54	 mov	 WORD PTR [edx+84], ax

; 431  : 		}
; 432  : 		else

  00b6e	eb 09		 jmp	 SHORT $LN323@Convert
$LN324@Convert:

; 433  : 		{
; 434  : 			this->m_RequireLeaderShip = 0;

  00b70	33 c0		 xor	 eax, eax
  00b72	8b 4d fc	 mov	 ecx, DWORD PTR _this$[ebp]
  00b75	66 89 41 54	 mov	 WORD PTR [ecx+84], ax
$LN323@Convert:

; 435  : 		}
; 436  : 	}
; 437  : 
; 438  : 	if ( _type == ITEMGET(13,5) )

  00b79	81 7d f8 05 1a
	00 00		 cmp	 DWORD PTR __type$[ebp], 6661 ; 00001a05H
  00b80	75 31		 jne	 SHORT $LN322@Convert

; 439  : 	{
; 440  : 		this->m_RequireLeaderShip = this->m_PetItem_Level * 15 + 185;

  00b82	8b 45 fc	 mov	 eax, DWORD PTR _this$[ebp]
  00b85	8b 88 bc 00 00
	00		 mov	 ecx, DWORD PTR [eax+188]
  00b8b	6b c9 0f	 imul	 ecx, 15			; 0000000fH
  00b8e	81 c1 b9 00 00
	00		 add	 ecx, 185		; 000000b9H
  00b94	8b 55 fc	 mov	 edx, DWORD PTR _this$[ebp]
  00b97	66 89 4a 54	 mov	 WORD PTR [edx+84], cx

; 441  : 		p->RequireLeadership = this->m_PetItem_Level * 15 + 185; //season4 add-on

  00b9b	8b 45 fc	 mov	 eax, DWORD PTR _this$[ebp]
  00b9e	8b 88 bc 00 00
	00		 mov	 ecx, DWORD PTR [eax+188]
  00ba4	6b c9 0f	 imul	 ecx, 15			; 0000000fH
  00ba7	81 c1 b9 00 00
	00		 add	 ecx, 185		; 000000b9H
  00bad	8b 55 f0	 mov	 edx, DWORD PTR _p$[ebp]
  00bb0	89 4a 6c	 mov	 DWORD PTR [edx+108], ecx
$LN322@Convert:

; 442  : 	}
; 443  : 
; 444  : 	if ( g_kJewelOfHarmonySystem.IsActive(this) == TRUE )

  00bb3	8b 45 fc	 mov	 eax, DWORD PTR _this$[ebp]
  00bb6	50		 push	 eax
  00bb7	b9 00 00 00 00	 mov	 ecx, OFFSET ?g_kJewelOfHarmonySystem@@3VCJewelOfHarmonySystem@@A ; g_kJewelOfHarmonySystem
  00bbc	e8 00 00 00 00	 call	 ?IsActive@CJewelOfHarmonySystem@@QAEHPAVCItem@@@Z ; CJewelOfHarmonySystem::IsActive
  00bc1	83 f8 01	 cmp	 eax, 1
  00bc4	0f 85 c2 00 00
	00		 jne	 $LN321@Convert

; 445  : 	{
; 446  : 		BYTE btOption = g_kJewelOfHarmonySystem.GetItemStrengthenOption(this);

  00bca	8b 45 fc	 mov	 eax, DWORD PTR _this$[ebp]
  00bcd	50		 push	 eax
  00bce	b9 00 00 00 00	 mov	 ecx, OFFSET ?g_kJewelOfHarmonySystem@@3VCJewelOfHarmonySystem@@A ; g_kJewelOfHarmonySystem
  00bd3	e8 00 00 00 00	 call	 ?GetItemStrengthenOption@CJewelOfHarmonySystem@@QAEEPAVCItem@@@Z ; CJewelOfHarmonySystem::GetItemStrengthenOption
  00bd8	88 45 d7	 mov	 BYTE PTR _btOption$230611[ebp], al

; 447  : 		int iItemType = g_kJewelOfHarmonySystem._GetItemType(this);

  00bdb	8b 45 fc	 mov	 eax, DWORD PTR _this$[ebp]
  00bde	50		 push	 eax
  00bdf	b9 00 00 00 00	 mov	 ecx, OFFSET ?g_kJewelOfHarmonySystem@@3VCJewelOfHarmonySystem@@A ; g_kJewelOfHarmonySystem
  00be4	e8 00 00 00 00	 call	 ?_GetItemType@CJewelOfHarmonySystem@@QAEHPAVCItem@@@Z ; CJewelOfHarmonySystem::_GetItemType
  00be9	89 45 d0	 mov	 DWORD PTR _iItemType$230612[ebp], eax

; 448  : 
; 449  : 		if(iItemType == 1)

  00bec	83 7d d0 01	 cmp	 DWORD PTR _iItemType$230612[ebp], 1
  00bf0	75 4a		 jne	 SHORT $LN320@Convert

; 450  : 		{
; 451  : 			if ( btOption == AT_JEWELOFHARMONY_WEAPON_DECREASE_REQUIRE_STR )

  00bf2	0f b6 45 d7	 movzx	 eax, BYTE PTR _btOption$230611[ebp]
  00bf6	83 f8 03	 cmp	 eax, 3
  00bf9	75 1c		 jne	 SHORT $LN319@Convert

; 452  : 			{
; 453  : 				this->m_HJOpStrength = g_kJewelOfHarmonySystem.GetItemEffectValue(this,	AT_JEWELOFHARMONY_WEAPON_DECREASE_REQUIRE_STR);

  00bfb	6a 03		 push	 3
  00bfd	8b 45 fc	 mov	 eax, DWORD PTR _this$[ebp]
  00c00	50		 push	 eax
  00c01	b9 00 00 00 00	 mov	 ecx, OFFSET ?g_kJewelOfHarmonySystem@@3VCJewelOfHarmonySystem@@A ; g_kJewelOfHarmonySystem
  00c06	e8 00 00 00 00	 call	 ?GetItemEffectValue@CJewelOfHarmonySystem@@QAEHPAVCItem@@H@Z ; CJewelOfHarmonySystem::GetItemEffectValue
  00c0b	8b 4d fc	 mov	 ecx, DWORD PTR _this$[ebp]
  00c0e	66 89 81 c6 00
	00 00		 mov	 WORD PTR [ecx+198], ax
  00c15	eb 23		 jmp	 SHORT $LN317@Convert
$LN319@Convert:

; 454  : 			}
; 455  : 			else if ( btOption == AT_JEWELOFHARMONY_WEAPON_DECREASE_REQUIRE_DEX )

  00c17	0f b6 45 d7	 movzx	 eax, BYTE PTR _btOption$230611[ebp]
  00c1b	83 f8 04	 cmp	 eax, 4
  00c1e	75 1a		 jne	 SHORT $LN317@Convert

; 456  : 			{
; 457  : 				this->m_HJOpDexterity = g_kJewelOfHarmonySystem.GetItemEffectValue(this, AT_JEWELOFHARMONY_WEAPON_DECREASE_REQUIRE_DEX);

  00c20	6a 04		 push	 4
  00c22	8b 45 fc	 mov	 eax, DWORD PTR _this$[ebp]
  00c25	50		 push	 eax
  00c26	b9 00 00 00 00	 mov	 ecx, OFFSET ?g_kJewelOfHarmonySystem@@3VCJewelOfHarmonySystem@@A ; g_kJewelOfHarmonySystem
  00c2b	e8 00 00 00 00	 call	 ?GetItemEffectValue@CJewelOfHarmonySystem@@QAEHPAVCItem@@H@Z ; CJewelOfHarmonySystem::GetItemEffectValue
  00c30	8b 4d fc	 mov	 ecx, DWORD PTR _this$[ebp]
  00c33	66 89 81 c8 00
	00 00		 mov	 WORD PTR [ecx+200], ax
$LN317@Convert:

; 458  : 			}
; 459  : 		}

  00c3a	eb 4e		 jmp	 SHORT $LN312@Convert
$LN320@Convert:

; 460  : 		else if(iItemType == 2)

  00c3c	83 7d d0 02	 cmp	 DWORD PTR _iItemType$230612[ebp], 2
  00c40	75 48		 jne	 SHORT $LN312@Convert

; 461  : 		{
; 462  : 			if ( btOption == AT_JEWELOFHARMONY_WEAPON_IMPROVE_MAXATTACKDAMAGE )

  00c42	0f b6 45 d7	 movzx	 eax, BYTE PTR _btOption$230611[ebp]
  00c46	83 f8 02	 cmp	 eax, 2
  00c49	75 1c		 jne	 SHORT $LN314@Convert

; 463  : 			{
; 464  : 				this->m_HJOpStrength = g_kJewelOfHarmonySystem.GetItemEffectValue(this,	AT_JEWELOFHARMONY_WEAPON_IMPROVE_MAXATTACKDAMAGE);

  00c4b	6a 02		 push	 2
  00c4d	8b 45 fc	 mov	 eax, DWORD PTR _this$[ebp]
  00c50	50		 push	 eax
  00c51	b9 00 00 00 00	 mov	 ecx, OFFSET ?g_kJewelOfHarmonySystem@@3VCJewelOfHarmonySystem@@A ; g_kJewelOfHarmonySystem
  00c56	e8 00 00 00 00	 call	 ?GetItemEffectValue@CJewelOfHarmonySystem@@QAEHPAVCItem@@H@Z ; CJewelOfHarmonySystem::GetItemEffectValue
  00c5b	8b 4d fc	 mov	 ecx, DWORD PTR _this$[ebp]
  00c5e	66 89 81 c6 00
	00 00		 mov	 WORD PTR [ecx+198], ax
  00c65	eb 23		 jmp	 SHORT $LN312@Convert
$LN314@Convert:

; 465  : 			}
; 466  : 			else if ( btOption == AT_JEWELOFHARMONY_WEAPON_DECREASE_REQUIRE_STR )

  00c67	0f b6 45 d7	 movzx	 eax, BYTE PTR _btOption$230611[ebp]
  00c6b	83 f8 03	 cmp	 eax, 3
  00c6e	75 1a		 jne	 SHORT $LN312@Convert

; 467  : 			{
; 468  : 				this->m_HJOpDexterity = g_kJewelOfHarmonySystem.GetItemEffectValue(this, AT_JEWELOFHARMONY_WEAPON_DECREASE_REQUIRE_STR);

  00c70	6a 03		 push	 3
  00c72	8b 45 fc	 mov	 eax, DWORD PTR _this$[ebp]
  00c75	50		 push	 eax
  00c76	b9 00 00 00 00	 mov	 ecx, OFFSET ?g_kJewelOfHarmonySystem@@3VCJewelOfHarmonySystem@@A ; g_kJewelOfHarmonySystem
  00c7b	e8 00 00 00 00	 call	 ?GetItemEffectValue@CJewelOfHarmonySystem@@QAEHPAVCItem@@H@Z ; CJewelOfHarmonySystem::GetItemEffectValue
  00c80	8b 4d fc	 mov	 ecx, DWORD PTR _this$[ebp]
  00c83	66 89 81 c8 00
	00 00		 mov	 WORD PTR [ecx+200], ax
$LN312@Convert:

; 469  : 			}
; 470  : 		}		
; 471  : 	}
; 472  : 	else //WZ Fix for Season3.0

  00c8a	eb 18		 jmp	 SHORT $LN311@Convert
$LN321@Convert:

; 473  : 	{
; 474  : 		this->m_HJOpStrength = 0;

  00c8c	33 c0		 xor	 eax, eax
  00c8e	8b 4d fc	 mov	 ecx, DWORD PTR _this$[ebp]
  00c91	66 89 81 c6 00
	00 00		 mov	 WORD PTR [ecx+198], ax

; 475  : 		this->m_HJOpDexterity = 0;

  00c98	33 c0		 xor	 eax, eax
  00c9a	8b 4d fc	 mov	 ecx, DWORD PTR _this$[ebp]
  00c9d	66 89 81 c8 00
	00 00		 mov	 WORD PTR [ecx+200], ax
$LN311@Convert:

; 476  : 	}
; 477  : 
; 478  : 	g_SocketOption.ApplySocketEffectforWeapons(this); //season 4 add-on

  00ca4	8b 45 fc	 mov	 eax, DWORD PTR _this$[ebp]
  00ca7	50		 push	 eax
  00ca8	b9 00 00 00 00	 mov	 ecx, OFFSET ?g_SocketOption@@3VCSocketOption@@A ; g_SocketOption
  00cad	e8 00 00 00 00	 call	 ?ApplySocketEffectforWeapons@CSocketOption@@QAEXPAVCItem@@@Z ; CSocketOption::ApplySocketEffectforWeapons

; 479  : 
; 480  : 	if ( p->RequireLevel != 0 )

  00cb2	8b 45 f0	 mov	 eax, DWORD PTR _p$[ebp]
  00cb5	0f b7 48 3a	 movzx	 ecx, WORD PTR [eax+58]
  00cb9	85 c9		 test	 ecx, ecx
  00cbb	0f 84 2c 02 00
	00		 je	 $LN310@Convert

; 481  : 	{
; 482  : 		if ( _type == ITEMGET(13,4) )	// DarkHorse

  00cc1	81 7d f8 04 1a
	00 00		 cmp	 DWORD PTR __type$[ebp], 6660 ; 00001a04H
  00cc8	75 1c		 jne	 SHORT $LN309@Convert

; 483  : 		{
; 484  : 			this->m_RequireLevel = this->m_PetItem_Level * 2 + 218;

  00cca	8b 45 fc	 mov	 eax, DWORD PTR _this$[ebp]
  00ccd	8b 88 bc 00 00
	00		 mov	 ecx, DWORD PTR [eax+188]
  00cd3	8d 94 09 da 00
	00 00		 lea	 edx, DWORD PTR [ecx+ecx+218]
  00cda	8b 45 fc	 mov	 eax, DWORD PTR _this$[ebp]
  00cdd	66 89 50 50	 mov	 WORD PTR [eax+80], dx
  00ce1	e9 05 02 00 00	 jmp	 $LN285@Convert
$LN309@Convert:

; 485  : 		}
; 486  : 		else if ( _type >= ITEMGET(12,36) && _type <= ITEMGET(12,40) )

  00ce6	81 7d f8 24 18
	00 00		 cmp	 DWORD PTR __type$[ebp], 6180 ; 00001824H
  00ced	7c 1c		 jl	 SHORT $LN307@Convert
  00cef	81 7d f8 28 18
	00 00		 cmp	 DWORD PTR __type$[ebp], 6184 ; 00001828H
  00cf6	7f 13		 jg	 SHORT $LN307@Convert

; 487  : 		{
; 488  : 			this->m_RequireLevel = p->RequireLevel;

  00cf8	8b 45 fc	 mov	 eax, DWORD PTR _this$[ebp]
  00cfb	8b 4d f0	 mov	 ecx, DWORD PTR _p$[ebp]
  00cfe	66 8b 51 3a	 mov	 dx, WORD PTR [ecx+58]
  00d02	66 89 50 50	 mov	 WORD PTR [eax+80], dx
  00d06	e9 e0 01 00 00	 jmp	 $LN285@Convert
$LN307@Convert:

; 489  : 		}
; 490  : 		else if ( _type >= ITEMGET(12,180) && _type <= ITEMGET(12,188) )	//Custom Wings4

  00d0b	81 7d f8 b4 18
	00 00		 cmp	 DWORD PTR __type$[ebp], 6324 ; 000018b4H
  00d12	7c 1c		 jl	 SHORT $LN305@Convert
  00d14	81 7d f8 bc 18
	00 00		 cmp	 DWORD PTR __type$[ebp], 6332 ; 000018bcH
  00d1b	7f 13		 jg	 SHORT $LN305@Convert

; 491  : 		{
; 492  : 			this->m_RequireLevel = p->RequireLevel;

  00d1d	8b 45 fc	 mov	 eax, DWORD PTR _this$[ebp]
  00d20	8b 4d f0	 mov	 ecx, DWORD PTR _p$[ebp]
  00d23	66 8b 51 3a	 mov	 dx, WORD PTR [ecx+58]
  00d27	66 89 50 50	 mov	 WORD PTR [eax+80], dx
  00d2b	e9 bb 01 00 00	 jmp	 $LN285@Convert
$LN305@Convert:

; 493  : 		}
; 494  : #ifdef NEWWINGS_2_5
; 495  : 		else if( IS_NEWWINGS_2_5(_type) )

  00d30	81 7d f8 ba 18
	00 00		 cmp	 DWORD PTR __type$[ebp], 6330 ; 000018baH
  00d37	7d 09		 jge	 SHORT $LN403@Convert
  00d39	c7 45 8c 00 00
	00 00		 mov	 DWORD PTR tv563[ebp], 0
  00d40	eb 0f		 jmp	 SHORT $LN404@Convert
$LN403@Convert:
  00d42	33 c0		 xor	 eax, eax
  00d44	81 7d f8 bc 18
	00 00		 cmp	 DWORD PTR __type$[ebp], 6332 ; 000018bcH
  00d4b	0f 9e c0	 setle	 al
  00d4e	89 45 8c	 mov	 DWORD PTR tv563[ebp], eax
$LN404@Convert:
  00d51	83 7d 8c 00	 cmp	 DWORD PTR tv563[ebp], 0
  00d55	74 13		 je	 SHORT $LN303@Convert

; 496  : 		{
; 497  : 			this->m_RequireLevel = p->RequireLevel;

  00d57	8b 45 fc	 mov	 eax, DWORD PTR _this$[ebp]
  00d5a	8b 4d f0	 mov	 ecx, DWORD PTR _p$[ebp]
  00d5d	66 8b 51 3a	 mov	 dx, WORD PTR [ecx+58]
  00d61	66 89 50 50	 mov	 WORD PTR [eax+80], dx
  00d65	e9 81 01 00 00	 jmp	 $LN285@Convert
$LN303@Convert:

; 498  : 		}
; 499  : #endif
; 500  : #ifdef NEWWINGS_4
; 501  : 		else if( IS_NEWWINGS_4(_type) )

  00d6a	81 7d f8 b4 18
	00 00		 cmp	 DWORD PTR __type$[ebp], 6324 ; 000018b4H
  00d71	7d 09		 jge	 SHORT $LN405@Convert
  00d73	c7 45 8c 00 00
	00 00		 mov	 DWORD PTR tv570[ebp], 0
  00d7a	eb 0f		 jmp	 SHORT $LN406@Convert
$LN405@Convert:
  00d7c	33 c0		 xor	 eax, eax
  00d7e	81 7d f8 b9 18
	00 00		 cmp	 DWORD PTR __type$[ebp], 6329 ; 000018b9H
  00d85	0f 9e c0	 setle	 al
  00d88	89 45 8c	 mov	 DWORD PTR tv570[ebp], eax
$LN406@Convert:
  00d8b	83 7d 8c 00	 cmp	 DWORD PTR tv570[ebp], 0
  00d8f	74 13		 je	 SHORT $LN301@Convert

; 502  : 		{
; 503  : 			this->m_RequireLevel = p->RequireLevel;

  00d91	8b 45 fc	 mov	 eax, DWORD PTR _this$[ebp]
  00d94	8b 4d f0	 mov	 ecx, DWORD PTR _p$[ebp]
  00d97	66 8b 51 3a	 mov	 dx, WORD PTR [ecx+58]
  00d9b	66 89 50 50	 mov	 WORD PTR [eax+80], dx
  00d9f	e9 47 01 00 00	 jmp	 $LN285@Convert
$LN301@Convert:

; 504  : 		}
; 505  : #endif
; 506  : #ifdef NEWWINGS_5
; 507  : 		else if( IS_NEWWINGS_5(_type) )

  00da4	81 7d f8 bd 18
	00 00		 cmp	 DWORD PTR __type$[ebp], 6333 ; 000018bdH
  00dab	7d 09		 jge	 SHORT $LN407@Convert
  00dad	c7 45 8c 00 00
	00 00		 mov	 DWORD PTR tv577[ebp], 0
  00db4	eb 0f		 jmp	 SHORT $LN408@Convert
$LN407@Convert:
  00db6	33 c0		 xor	 eax, eax
  00db8	81 7d f8 c2 18
	00 00		 cmp	 DWORD PTR __type$[ebp], 6338 ; 000018c2H
  00dbf	0f 9e c0	 setle	 al
  00dc2	89 45 8c	 mov	 DWORD PTR tv577[ebp], eax
$LN408@Convert:
  00dc5	83 7d 8c 00	 cmp	 DWORD PTR tv577[ebp], 0
  00dc9	74 13		 je	 SHORT $LN299@Convert

; 508  : 		{
; 509  : 			this->m_RequireLevel = p->RequireLevel;

  00dcb	8b 45 fc	 mov	 eax, DWORD PTR _this$[ebp]
  00dce	8b 4d f0	 mov	 ecx, DWORD PTR _p$[ebp]
  00dd1	66 8b 51 3a	 mov	 dx, WORD PTR [ecx+58]
  00dd5	66 89 50 50	 mov	 WORD PTR [eax+80], dx
  00dd9	e9 0d 01 00 00	 jmp	 $LN285@Convert
$LN299@Convert:

; 510  : 		}
; 511  : #endif
; 512  : #ifdef NEWWINGS_6
; 513  : 		else if( IS_NEWWINGS_6(_type) )

  00dde	81 7d f8 c3 18
	00 00		 cmp	 DWORD PTR __type$[ebp], 6339 ; 000018c3H
  00de5	7d 09		 jge	 SHORT $LN409@Convert
  00de7	c7 45 8c 00 00
	00 00		 mov	 DWORD PTR tv584[ebp], 0
  00dee	eb 0f		 jmp	 SHORT $LN410@Convert
$LN409@Convert:
  00df0	33 c0		 xor	 eax, eax
  00df2	81 7d f8 dc 18
	00 00		 cmp	 DWORD PTR __type$[ebp], 6364 ; 000018dcH
  00df9	0f 9e c0	 setle	 al
  00dfc	89 45 8c	 mov	 DWORD PTR tv584[ebp], eax
$LN410@Convert:
  00dff	83 7d 8c 00	 cmp	 DWORD PTR tv584[ebp], 0
  00e03	74 13		 je	 SHORT $LN297@Convert

; 514  : 		{
; 515  : 
; 516  : 			this->m_RequireLevel = p->RequireLevel;

  00e05	8b 45 fc	 mov	 eax, DWORD PTR _this$[ebp]
  00e08	8b 4d f0	 mov	 ecx, DWORD PTR _p$[ebp]
  00e0b	66 8b 51 3a	 mov	 dx, WORD PTR [ecx+58]
  00e0f	66 89 50 50	 mov	 WORD PTR [eax+80], dx
  00e13	e9 d3 00 00 00	 jmp	 $LN285@Convert
$LN297@Convert:

; 517  : 		}
; 518  : #endif
; 519  : 		else if ( _type >= ITEMGET(12,3) && _type <= ITEMGET(12,6) )

  00e18	81 7d f8 03 18
	00 00		 cmp	 DWORD PTR __type$[ebp], 6147 ; 00001803H
  00e1f	7c 28		 jl	 SHORT $LN295@Convert
  00e21	81 7d f8 06 18
	00 00		 cmp	 DWORD PTR __type$[ebp], 6150 ; 00001806H
  00e28	7f 1f		 jg	 SHORT $LN295@Convert

; 520  : 		{
; 521  : 			this->m_RequireLevel = p->RequireLevel + (this->m_Level * 5);

  00e2a	8b 45 f0	 mov	 eax, DWORD PTR _p$[ebp]
  00e2d	0f b7 48 3a	 movzx	 ecx, WORD PTR [eax+58]
  00e31	8b 55 fc	 mov	 edx, DWORD PTR _this$[ebp]
  00e34	0f bf 42 08	 movsx	 eax, WORD PTR [edx+8]
  00e38	6b c0 05	 imul	 eax, 5
  00e3b	03 c8		 add	 ecx, eax
  00e3d	8b 55 fc	 mov	 edx, DWORD PTR _this$[ebp]
  00e40	66 89 4a 50	 mov	 WORD PTR [edx+80], cx
  00e44	e9 a2 00 00 00	 jmp	 $LN285@Convert
$LN295@Convert:

; 522  : 		}
; 523  : 		else if ( _type == ITEMGET(12,42) ) //Season3

  00e49	81 7d f8 2a 18
	00 00		 cmp	 DWORD PTR __type$[ebp], 6186 ; 0000182aH
  00e50	75 1c		 jne	 SHORT $LN293@Convert

; 524  : 		{
; 525  : 			this->m_RequireLevel = p->RequireLevel + (this->m_Level * 5);

  00e52	8b 45 f0	 mov	 eax, DWORD PTR _p$[ebp]
  00e55	0f b7 48 3a	 movzx	 ecx, WORD PTR [eax+58]
  00e59	8b 55 fc	 mov	 edx, DWORD PTR _this$[ebp]
  00e5c	0f bf 42 08	 movsx	 eax, WORD PTR [edx+8]
  00e60	6b c0 05	 imul	 eax, 5
  00e63	03 c8		 add	 ecx, eax
  00e65	8b 55 fc	 mov	 edx, DWORD PTR _this$[ebp]
  00e68	66 89 4a 50	 mov	 WORD PTR [edx+80], cx
  00e6c	eb 7d		 jmp	 SHORT $LN285@Convert
$LN293@Convert:

; 526  : 		}
; 527  : 		else if ( _type == ITEMGET(12,43) ) //Season3

  00e6e	81 7d f8 2b 18
	00 00		 cmp	 DWORD PTR __type$[ebp], 6187 ; 0000182bH
  00e75	75 10		 jne	 SHORT $LN291@Convert

; 528  : 		{
; 529  : 			this->m_RequireLevel = p->RequireLevel;

  00e77	8b 45 fc	 mov	 eax, DWORD PTR _this$[ebp]
  00e7a	8b 4d f0	 mov	 ecx, DWORD PTR _p$[ebp]
  00e7d	66 8b 51 3a	 mov	 dx, WORD PTR [ecx+58]
  00e81	66 89 50 50	 mov	 WORD PTR [eax+80], dx
  00e85	eb 64		 jmp	 SHORT $LN285@Convert
$LN291@Convert:

; 530  : 		}
; 531  : 		else if ( _type >= ITEMGET(12,7) && _type <= ITEMGET(12,24) )

  00e87	81 7d f8 07 18
	00 00		 cmp	 DWORD PTR __type$[ebp], 6151 ; 00001807H
  00e8e	7c 19		 jl	 SHORT $LN289@Convert
  00e90	81 7d f8 18 18
	00 00		 cmp	 DWORD PTR __type$[ebp], 6168 ; 00001818H
  00e97	7f 10		 jg	 SHORT $LN289@Convert

; 532  : 		{
; 533  : 			this->m_RequireLevel = p->RequireLevel;

  00e99	8b 45 fc	 mov	 eax, DWORD PTR _this$[ebp]
  00e9c	8b 4d f0	 mov	 ecx, DWORD PTR _p$[ebp]
  00e9f	66 8b 51 3a	 mov	 dx, WORD PTR [ecx+58]
  00ea3	66 89 50 50	 mov	 WORD PTR [eax+80], dx
  00ea7	eb 42		 jmp	 SHORT $LN285@Convert
$LN289@Convert:

; 534  : 		}
; 535  : 		else if ( _type >= ITEMGET(0,0) && _type < ITEMGET(12,0) )

  00ea9	83 7d f8 00	 cmp	 DWORD PTR __type$[ebp], 0
  00ead	7c 24		 jl	 SHORT $LN287@Convert
  00eaf	81 7d f8 00 18
	00 00		 cmp	 DWORD PTR __type$[ebp], 6144 ; 00001800H
  00eb6	7d 1b		 jge	 SHORT $LN287@Convert

; 536  : 		{
; 537  : 			if ( p->RequireLevel )

  00eb8	8b 45 f0	 mov	 eax, DWORD PTR _p$[ebp]
  00ebb	0f b7 48 3a	 movzx	 ecx, WORD PTR [eax+58]
  00ebf	85 c9		 test	 ecx, ecx
  00ec1	74 0e		 je	 SHORT $LN286@Convert

; 538  : 				this->m_RequireLevel = p->RequireLevel;

  00ec3	8b 45 fc	 mov	 eax, DWORD PTR _this$[ebp]
  00ec6	8b 4d f0	 mov	 ecx, DWORD PTR _p$[ebp]
  00ec9	66 8b 51 3a	 mov	 dx, WORD PTR [ecx+58]
  00ecd	66 89 50 50	 mov	 WORD PTR [eax+80], dx
$LN286@Convert:

; 539  : 		}
; 540  : 		else

  00ed1	eb 18		 jmp	 SHORT $LN285@Convert
$LN287@Convert:

; 541  : 		{
; 542  : 			this->m_RequireLevel = p->RequireLevel + this->m_Level * 4;

  00ed3	8b 45 f0	 mov	 eax, DWORD PTR _p$[ebp]
  00ed6	0f b7 48 3a	 movzx	 ecx, WORD PTR [eax+58]
  00eda	8b 55 fc	 mov	 edx, DWORD PTR _this$[ebp]
  00edd	0f bf 42 08	 movsx	 eax, WORD PTR [edx+8]
  00ee1	8d 0c 81	 lea	 ecx, DWORD PTR [ecx+eax*4]
  00ee4	8b 55 fc	 mov	 edx, DWORD PTR _this$[ebp]
  00ee7	66 89 4a 50	 mov	 WORD PTR [edx+80], cx
$LN285@Convert:

; 543  : 		}
; 544  : 	}
; 545  : 	else

  00eeb	eb 09		 jmp	 SHORT $LN284@Convert
$LN310@Convert:

; 546  : 	{
; 547  : 		this->m_RequireLevel = 0;

  00eed	33 c0		 xor	 eax, eax
  00eef	8b 4d fc	 mov	 ecx, DWORD PTR _this$[ebp]
  00ef2	66 89 41 50	 mov	 WORD PTR [ecx+80], ax
$LN284@Convert:

; 548  : 	}
; 549  : 
; 550  : 	if ( this->m_Type == ITEMGET(13,10) )

  00ef6	8b 45 fc	 mov	 eax, DWORD PTR _this$[ebp]
  00ef9	0f bf 48 06	 movsx	 ecx, WORD PTR [eax+6]
  00efd	81 f9 0a 1a 00
	00		 cmp	 ecx, 6666		; 00001a0aH
  00f03	75 20		 jne	 SHORT $LN281@Convert

; 551  : 	{
; 552  : 		if ( ItemLevel <= 2 )

  00f05	83 7d f4 02	 cmp	 DWORD PTR _ItemLevel$[ebp], 2
  00f09	7f 0e		 jg	 SHORT $LN282@Convert

; 553  : 		{
; 554  : 			this->m_RequireLevel = 20;

  00f0b	b8 14 00 00 00	 mov	 eax, 20			; 00000014H
  00f10	8b 4d fc	 mov	 ecx, DWORD PTR _this$[ebp]
  00f13	66 89 41 50	 mov	 WORD PTR [ecx+80], ax

; 555  : 		}
; 556  : 		else

  00f17	eb 0c		 jmp	 SHORT $LN281@Convert
$LN282@Convert:

; 557  : 		{
; 558  : 			this->m_RequireLevel = 50;

  00f19	b8 32 00 00 00	 mov	 eax, 50			; 00000032H
  00f1e	8b 4d fc	 mov	 ecx, DWORD PTR _this$[ebp]
  00f21	66 89 41 50	 mov	 WORD PTR [ecx+80], ax
$LN281@Convert:

; 559  : 		}
; 560  : 	}
; 561  : 
; 562  : 	if ( (Attribute2 & 0x3F) > 0 )

  00f25	0f b6 45 18	 movzx	 eax, BYTE PTR _Attribute2$[ebp]
  00f29	83 e0 3f	 and	 eax, 63			; 0000003fH
  00f2c	7e 2b		 jle	 SHORT $LN278@Convert

; 563  : 	{
; 564  : 		if ( this->m_RequireLevel > 0 )

  00f2e	8b 45 fc	 mov	 eax, DWORD PTR _this$[ebp]
  00f31	0f b7 48 50	 movzx	 ecx, WORD PTR [eax+80]
  00f35	85 c9		 test	 ecx, ecx
  00f37	7e 20		 jle	 SHORT $LN278@Convert

; 565  : 		{
; 566  : 			if ( _type < ITEMGET(0,0) || _type >= ITEMGET(12,0) )

  00f39	83 7d f8 00	 cmp	 DWORD PTR __type$[ebp], 0
  00f3d	7c 09		 jl	 SHORT $LN277@Convert
  00f3f	81 7d f8 00 18
	00 00		 cmp	 DWORD PTR __type$[ebp], 6144 ; 00001800H
  00f46	7c 11		 jl	 SHORT $LN278@Convert
$LN277@Convert:

; 567  : 				this->m_RequireLevel += 20;

  00f48	8b 45 fc	 mov	 eax, DWORD PTR _this$[ebp]
  00f4b	0f b7 48 50	 movzx	 ecx, WORD PTR [eax+80]
  00f4f	83 c1 14	 add	 ecx, 20			; 00000014H
  00f52	8b 55 fc	 mov	 edx, DWORD PTR _this$[ebp]
  00f55	66 89 4a 50	 mov	 WORD PTR [edx+80], cx
$LN278@Convert:

; 568  : 		}
; 569  : 	}
; 570  : 
; 571  : 	if ( this->m_SetOption != 0 )

  00f59	8b 45 fc	 mov	 eax, DWORD PTR _this$[ebp]
  00f5c	0f b6 88 ae 00
	00 00		 movzx	 ecx, BYTE PTR [eax+174]
  00f63	85 c9		 test	 ecx, ecx
  00f65	74 0d		 je	 SHORT $LN276@Convert

; 572  : 	{
; 573  : 		ItemLevel = p->Level + 30;

  00f67	8b 45 f0	 mov	 eax, DWORD PTR _p$[ebp]
  00f6a	0f b6 48 22	 movzx	 ecx, BYTE PTR [eax+34]
  00f6e	83 c1 1e	 add	 ecx, 30			; 0000001eH
  00f71	89 4d f4	 mov	 DWORD PTR _ItemLevel$[ebp], ecx
$LN276@Convert:

; 574  : 	}
; 575  : 	
; 576  : 	this->m_Leadership = 0;

  00f74	33 c0		 xor	 eax, eax
  00f76	8b 4d fc	 mov	 ecx, DWORD PTR _this$[ebp]
  00f79	66 89 41 56	 mov	 WORD PTR [ecx+86], ax

; 577  : 
; 578  : 	if ( this->m_DamageMax > 0 )

  00f7d	8b 45 fc	 mov	 eax, DWORD PTR _this$[ebp]
  00f80	0f b7 48 12	 movzx	 ecx, WORD PTR [eax+18]
  00f84	85 c9		 test	 ecx, ecx
  00f86	0f 8e fe 00 00
	00		 jle	 $LN268@Convert

; 579  : 	{
; 580  : 		if ( this->m_SetOption != 0 && ItemLevel != 0 )

  00f8c	8b 45 fc	 mov	 eax, DWORD PTR _this$[ebp]
  00f8f	0f b6 88 ae 00
	00 00		 movzx	 ecx, BYTE PTR [eax+174]
  00f96	85 c9		 test	 ecx, ecx
  00f98	74 4b		 je	 SHORT $LN274@Convert
  00f9a	83 7d f4 00	 cmp	 DWORD PTR _ItemLevel$[ebp], 0
  00f9e	74 45		 je	 SHORT $LN274@Convert

; 581  : 		{
; 582  : 			this->m_DamageMax += (this->m_DamageMin * 25) / p->Level + 5;

  00fa0	8b 45 fc	 mov	 eax, DWORD PTR _this$[ebp]
  00fa3	0f b7 40 10	 movzx	 eax, WORD PTR [eax+16]
  00fa7	6b c0 19	 imul	 eax, 25			; 00000019H
  00faa	8b 4d f0	 mov	 ecx, DWORD PTR _p$[ebp]
  00fad	0f b6 49 22	 movzx	 ecx, BYTE PTR [ecx+34]
  00fb1	99		 cdq
  00fb2	f7 f9		 idiv	 ecx
  00fb4	8b 55 fc	 mov	 edx, DWORD PTR _this$[ebp]
  00fb7	0f b7 4a 12	 movzx	 ecx, WORD PTR [edx+18]
  00fbb	8d 54 01 05	 lea	 edx, DWORD PTR [ecx+eax+5]
  00fbf	8b 45 fc	 mov	 eax, DWORD PTR _this$[ebp]
  00fc2	66 89 50 12	 mov	 WORD PTR [eax+18], dx

; 583  : 			this->m_DamageMax += ItemLevel / 40 + 5;

  00fc6	8b 45 f4	 mov	 eax, DWORD PTR _ItemLevel$[ebp]
  00fc9	99		 cdq
  00fca	b9 28 00 00 00	 mov	 ecx, 40			; 00000028H
  00fcf	f7 f9		 idiv	 ecx
  00fd1	8b 55 fc	 mov	 edx, DWORD PTR _this$[ebp]
  00fd4	0f b7 4a 12	 movzx	 ecx, WORD PTR [edx+18]
  00fd8	8d 54 01 05	 lea	 edx, DWORD PTR [ecx+eax+5]
  00fdc	8b 45 fc	 mov	 eax, DWORD PTR _this$[ebp]
  00fdf	66 89 50 12	 mov	 WORD PTR [eax+18], dx

; 584  : 		}
; 585  : 		else

  00fe3	eb 53		 jmp	 SHORT $LN269@Convert
$LN274@Convert:

; 586  : 		{
; 587  : 			if ( (Attribute2 & 0x3F)  > 0 )

  00fe5	0f b6 45 18	 movzx	 eax, BYTE PTR _Attribute2$[ebp]
  00fe9	83 e0 3f	 and	 eax, 63			; 0000003fH
  00fec	7e 4a		 jle	 SHORT $LN269@Convert

; 588  : 			{
; 589  : 				if ( iChaosItem != 0 )

  00fee	83 7d dc 00	 cmp	 DWORD PTR _iChaosItem$[ebp], 0
  00ff2	74 13		 je	 SHORT $LN271@Convert

; 590  : 				{
; 591  : 					this->m_DamageMax += iChaosItem;

  00ff4	8b 45 fc	 mov	 eax, DWORD PTR _this$[ebp]
  00ff7	0f b7 48 12	 movzx	 ecx, WORD PTR [eax+18]
  00ffb	03 4d dc	 add	 ecx, DWORD PTR _iChaosItem$[ebp]
  00ffe	8b 55 fc	 mov	 edx, DWORD PTR _this$[ebp]
  01001	66 89 4a 12	 mov	 WORD PTR [edx+18], cx
  01005	eb 31		 jmp	 SHORT $LN269@Convert
$LN271@Convert:

; 592  : 				}
; 593  : 				else if ( p->Level != 0 )

  01007	8b 45 f0	 mov	 eax, DWORD PTR _p$[ebp]
  0100a	0f b6 48 22	 movzx	 ecx, BYTE PTR [eax+34]
  0100e	85 c9		 test	 ecx, ecx
  01010	74 26		 je	 SHORT $LN269@Convert

; 594  : 				{
; 595  : 					this->m_DamageMax += (this->m_DamageMin * 25) / p->Level + 5;

  01012	8b 45 fc	 mov	 eax, DWORD PTR _this$[ebp]
  01015	0f b7 40 10	 movzx	 eax, WORD PTR [eax+16]
  01019	6b c0 19	 imul	 eax, 25			; 00000019H
  0101c	8b 4d f0	 mov	 ecx, DWORD PTR _p$[ebp]
  0101f	0f b6 49 22	 movzx	 ecx, BYTE PTR [ecx+34]
  01023	99		 cdq
  01024	f7 f9		 idiv	 ecx
  01026	8b 55 fc	 mov	 edx, DWORD PTR _this$[ebp]
  01029	0f b7 4a 12	 movzx	 ecx, WORD PTR [edx+18]
  0102d	8d 54 01 05	 lea	 edx, DWORD PTR [ecx+eax+5]
  01031	8b 45 fc	 mov	 eax, DWORD PTR _this$[ebp]
  01034	66 89 50 12	 mov	 WORD PTR [eax+18], dx
$LN269@Convert:

; 596  : 				}
; 597  : 			}
; 598  : 		}
; 599  : 
; 600  : 		this->m_DamageMax += this->m_Level * 3;

  01038	8b 45 fc	 mov	 eax, DWORD PTR _this$[ebp]
  0103b	0f bf 48 08	 movsx	 ecx, WORD PTR [eax+8]
  0103f	6b c9 03	 imul	 ecx, 3
  01042	8b 55 fc	 mov	 edx, DWORD PTR _this$[ebp]
  01045	0f b7 42 12	 movzx	 eax, WORD PTR [edx+18]
  01049	03 c1		 add	 eax, ecx
  0104b	8b 4d fc	 mov	 ecx, DWORD PTR _this$[ebp]
  0104e	66 89 41 12	 mov	 WORD PTR [ecx+18], ax

; 601  : 
; 602  : 		if ( this->m_Level >= 10 )

  01052	8b 45 fc	 mov	 eax, DWORD PTR _this$[ebp]
  01055	0f bf 48 08	 movsx	 ecx, WORD PTR [eax+8]
  01059	83 f9 0a	 cmp	 ecx, 10			; 0000000aH
  0105c	7c 2c		 jl	 SHORT $LN268@Convert

; 603  : 		{
; 604  : 			this->m_DamageMax += (this->m_Level - 9) * (this->m_Level - 8) / 2;

  0105e	8b 45 fc	 mov	 eax, DWORD PTR _this$[ebp]
  01061	0f bf 40 08	 movsx	 eax, WORD PTR [eax+8]
  01065	83 e8 09	 sub	 eax, 9
  01068	8b 4d fc	 mov	 ecx, DWORD PTR _this$[ebp]
  0106b	0f bf 51 08	 movsx	 edx, WORD PTR [ecx+8]
  0106f	83 ea 08	 sub	 edx, 8
  01072	0f af c2	 imul	 eax, edx
  01075	99		 cdq
  01076	2b c2		 sub	 eax, edx
  01078	d1 f8		 sar	 eax, 1
  0107a	8b 4d fc	 mov	 ecx, DWORD PTR _this$[ebp]
  0107d	0f b7 51 12	 movzx	 edx, WORD PTR [ecx+18]
  01081	03 d0		 add	 edx, eax
  01083	8b 45 fc	 mov	 eax, DWORD PTR _this$[ebp]
  01086	66 89 50 12	 mov	 WORD PTR [eax+18], dx
$LN268@Convert:

; 605  : 		}
; 606  : 	}
; 607  : 
; 608  : 	if ( this->m_DamageMin > 0 )	

  0108a	8b 45 fc	 mov	 eax, DWORD PTR _this$[ebp]
  0108d	0f b7 48 10	 movzx	 ecx, WORD PTR [eax+16]
  01091	85 c9		 test	 ecx, ecx
  01093	0f 8e fe 00 00
	00		 jle	 $LN260@Convert

; 609  : 	{
; 610  : 		if ( this->m_SetOption != 0 && ItemLevel != 0 )

  01099	8b 45 fc	 mov	 eax, DWORD PTR _this$[ebp]
  0109c	0f b6 88 ae 00
	00 00		 movzx	 ecx, BYTE PTR [eax+174]
  010a3	85 c9		 test	 ecx, ecx
  010a5	74 4b		 je	 SHORT $LN266@Convert
  010a7	83 7d f4 00	 cmp	 DWORD PTR _ItemLevel$[ebp], 0
  010ab	74 45		 je	 SHORT $LN266@Convert

; 611  : 		{
; 612  : 			this->m_DamageMin += (this->m_DamageMin * 25) / p->Level + 5;

  010ad	8b 45 fc	 mov	 eax, DWORD PTR _this$[ebp]
  010b0	0f b7 40 10	 movzx	 eax, WORD PTR [eax+16]
  010b4	6b c0 19	 imul	 eax, 25			; 00000019H
  010b7	8b 4d f0	 mov	 ecx, DWORD PTR _p$[ebp]
  010ba	0f b6 49 22	 movzx	 ecx, BYTE PTR [ecx+34]
  010be	99		 cdq
  010bf	f7 f9		 idiv	 ecx
  010c1	8b 55 fc	 mov	 edx, DWORD PTR _this$[ebp]
  010c4	0f b7 4a 10	 movzx	 ecx, WORD PTR [edx+16]
  010c8	8d 54 01 05	 lea	 edx, DWORD PTR [ecx+eax+5]
  010cc	8b 45 fc	 mov	 eax, DWORD PTR _this$[ebp]
  010cf	66 89 50 10	 mov	 WORD PTR [eax+16], dx

; 613  : 			this->m_DamageMin += ItemLevel / 40 + 5;

  010d3	8b 45 f4	 mov	 eax, DWORD PTR _ItemLevel$[ebp]
  010d6	99		 cdq
  010d7	b9 28 00 00 00	 mov	 ecx, 40			; 00000028H
  010dc	f7 f9		 idiv	 ecx
  010de	8b 55 fc	 mov	 edx, DWORD PTR _this$[ebp]
  010e1	0f b7 4a 10	 movzx	 ecx, WORD PTR [edx+16]
  010e5	8d 54 01 05	 lea	 edx, DWORD PTR [ecx+eax+5]
  010e9	8b 45 fc	 mov	 eax, DWORD PTR _this$[ebp]
  010ec	66 89 50 10	 mov	 WORD PTR [eax+16], dx

; 614  : 		}
; 615  : 		else

  010f0	eb 53		 jmp	 SHORT $LN261@Convert
$LN266@Convert:

; 616  : 		{
; 617  : 			if ( (Attribute2 & 0x3F)  > 0 )

  010f2	0f b6 45 18	 movzx	 eax, BYTE PTR _Attribute2$[ebp]
  010f6	83 e0 3f	 and	 eax, 63			; 0000003fH
  010f9	7e 4a		 jle	 SHORT $LN261@Convert

; 618  : 			{
; 619  : 				if ( iChaosItem != 0 )

  010fb	83 7d dc 00	 cmp	 DWORD PTR _iChaosItem$[ebp], 0
  010ff	74 13		 je	 SHORT $LN263@Convert

; 620  : 				{
; 621  : 					this->m_DamageMin += iChaosItem;

  01101	8b 45 fc	 mov	 eax, DWORD PTR _this$[ebp]
  01104	0f b7 48 10	 movzx	 ecx, WORD PTR [eax+16]
  01108	03 4d dc	 add	 ecx, DWORD PTR _iChaosItem$[ebp]
  0110b	8b 55 fc	 mov	 edx, DWORD PTR _this$[ebp]
  0110e	66 89 4a 10	 mov	 WORD PTR [edx+16], cx
  01112	eb 31		 jmp	 SHORT $LN261@Convert
$LN263@Convert:

; 622  : 				}
; 623  : 				else if ( p->Level != 0 )

  01114	8b 45 f0	 mov	 eax, DWORD PTR _p$[ebp]
  01117	0f b6 48 22	 movzx	 ecx, BYTE PTR [eax+34]
  0111b	85 c9		 test	 ecx, ecx
  0111d	74 26		 je	 SHORT $LN261@Convert

; 624  : 				{
; 625  : 					this->m_DamageMin += (this->m_DamageMin * 25) / p->Level + 5;

  0111f	8b 45 fc	 mov	 eax, DWORD PTR _this$[ebp]
  01122	0f b7 40 10	 movzx	 eax, WORD PTR [eax+16]
  01126	6b c0 19	 imul	 eax, 25			; 00000019H
  01129	8b 4d f0	 mov	 ecx, DWORD PTR _p$[ebp]
  0112c	0f b6 49 22	 movzx	 ecx, BYTE PTR [ecx+34]
  01130	99		 cdq
  01131	f7 f9		 idiv	 ecx
  01133	8b 55 fc	 mov	 edx, DWORD PTR _this$[ebp]
  01136	0f b7 4a 10	 movzx	 ecx, WORD PTR [edx+16]
  0113a	8d 54 01 05	 lea	 edx, DWORD PTR [ecx+eax+5]
  0113e	8b 45 fc	 mov	 eax, DWORD PTR _this$[ebp]
  01141	66 89 50 10	 mov	 WORD PTR [eax+16], dx
$LN261@Convert:

; 626  : 				}
; 627  : 			}
; 628  : 		}
; 629  : 
; 630  : 		this->m_DamageMin += this->m_Level * 3;

  01145	8b 45 fc	 mov	 eax, DWORD PTR _this$[ebp]
  01148	0f bf 48 08	 movsx	 ecx, WORD PTR [eax+8]
  0114c	6b c9 03	 imul	 ecx, 3
  0114f	8b 55 fc	 mov	 edx, DWORD PTR _this$[ebp]
  01152	0f b7 42 10	 movzx	 eax, WORD PTR [edx+16]
  01156	03 c1		 add	 eax, ecx
  01158	8b 4d fc	 mov	 ecx, DWORD PTR _this$[ebp]
  0115b	66 89 41 10	 mov	 WORD PTR [ecx+16], ax

; 631  : 
; 632  : 		if ( this->m_Level >= 10 )

  0115f	8b 45 fc	 mov	 eax, DWORD PTR _this$[ebp]
  01162	0f bf 48 08	 movsx	 ecx, WORD PTR [eax+8]
  01166	83 f9 0a	 cmp	 ecx, 10			; 0000000aH
  01169	7c 2c		 jl	 SHORT $LN260@Convert

; 633  : 		{
; 634  : 			this->m_DamageMin += (this->m_Level - 9) * (this->m_Level - 8) / 2;

  0116b	8b 45 fc	 mov	 eax, DWORD PTR _this$[ebp]
  0116e	0f bf 40 08	 movsx	 eax, WORD PTR [eax+8]
  01172	83 e8 09	 sub	 eax, 9
  01175	8b 4d fc	 mov	 ecx, DWORD PTR _this$[ebp]
  01178	0f bf 51 08	 movsx	 edx, WORD PTR [ecx+8]
  0117c	83 ea 08	 sub	 edx, 8
  0117f	0f af c2	 imul	 eax, edx
  01182	99		 cdq
  01183	2b c2		 sub	 eax, edx
  01185	d1 f8		 sar	 eax, 1
  01187	8b 4d fc	 mov	 ecx, DWORD PTR _this$[ebp]
  0118a	0f b7 51 10	 movzx	 edx, WORD PTR [ecx+16]
  0118e	03 d0		 add	 edx, eax
  01190	8b 45 fc	 mov	 eax, DWORD PTR _this$[ebp]
  01193	66 89 50 10	 mov	 WORD PTR [eax+16], dx
$LN260@Convert:

; 635  : 		}
; 636  : 	}
; 637  : 
; 638  : 	if ( this->m_Magic > 0 )	

  01197	8b 45 fc	 mov	 eax, DWORD PTR _this$[ebp]
  0119a	0f b7 48 20	 movzx	 ecx, WORD PTR [eax+32]
  0119e	85 c9		 test	 ecx, ecx
  011a0	0f 8e fe 00 00
	00		 jle	 $LN252@Convert

; 639  : 	{
; 640  : 		if ( this->m_SetOption != 0 && ItemLevel != 0 )

  011a6	8b 45 fc	 mov	 eax, DWORD PTR _this$[ebp]
  011a9	0f b6 88 ae 00
	00 00		 movzx	 ecx, BYTE PTR [eax+174]
  011b0	85 c9		 test	 ecx, ecx
  011b2	74 4b		 je	 SHORT $LN258@Convert
  011b4	83 7d f4 00	 cmp	 DWORD PTR _ItemLevel$[ebp], 0
  011b8	74 45		 je	 SHORT $LN258@Convert

; 641  : 		{
; 642  : 			this->m_Magic += (this->m_Magic * 25) / p->Level + 5;

  011ba	8b 45 fc	 mov	 eax, DWORD PTR _this$[ebp]
  011bd	0f b7 40 20	 movzx	 eax, WORD PTR [eax+32]
  011c1	6b c0 19	 imul	 eax, 25			; 00000019H
  011c4	8b 4d f0	 mov	 ecx, DWORD PTR _p$[ebp]
  011c7	0f b6 49 22	 movzx	 ecx, BYTE PTR [ecx+34]
  011cb	99		 cdq
  011cc	f7 f9		 idiv	 ecx
  011ce	8b 55 fc	 mov	 edx, DWORD PTR _this$[ebp]
  011d1	0f b7 4a 20	 movzx	 ecx, WORD PTR [edx+32]
  011d5	8d 54 01 05	 lea	 edx, DWORD PTR [ecx+eax+5]
  011d9	8b 45 fc	 mov	 eax, DWORD PTR _this$[ebp]
  011dc	66 89 50 20	 mov	 WORD PTR [eax+32], dx

; 643  : 			this->m_Magic += ItemLevel / 60 + 2;

  011e0	8b 45 f4	 mov	 eax, DWORD PTR _ItemLevel$[ebp]
  011e3	99		 cdq
  011e4	b9 3c 00 00 00	 mov	 ecx, 60			; 0000003cH
  011e9	f7 f9		 idiv	 ecx
  011eb	8b 55 fc	 mov	 edx, DWORD PTR _this$[ebp]
  011ee	0f b7 4a 20	 movzx	 ecx, WORD PTR [edx+32]
  011f2	8d 54 01 02	 lea	 edx, DWORD PTR [ecx+eax+2]
  011f6	8b 45 fc	 mov	 eax, DWORD PTR _this$[ebp]
  011f9	66 89 50 20	 mov	 WORD PTR [eax+32], dx

; 644  : 		}
; 645  : 		else

  011fd	eb 53		 jmp	 SHORT $LN253@Convert
$LN258@Convert:

; 646  : 		{
; 647  : 			if ( (Attribute2 & 0x3F)  > 0 )

  011ff	0f b6 45 18	 movzx	 eax, BYTE PTR _Attribute2$[ebp]
  01203	83 e0 3f	 and	 eax, 63			; 0000003fH
  01206	7e 4a		 jle	 SHORT $LN253@Convert

; 648  : 			{
; 649  : 				if ( iChaosItem != 0 )

  01208	83 7d dc 00	 cmp	 DWORD PTR _iChaosItem$[ebp], 0
  0120c	74 13		 je	 SHORT $LN255@Convert

; 650  : 				{
; 651  : 					this->m_Magic += iChaosItem;

  0120e	8b 45 fc	 mov	 eax, DWORD PTR _this$[ebp]
  01211	0f b7 48 20	 movzx	 ecx, WORD PTR [eax+32]
  01215	03 4d dc	 add	 ecx, DWORD PTR _iChaosItem$[ebp]
  01218	8b 55 fc	 mov	 edx, DWORD PTR _this$[ebp]
  0121b	66 89 4a 20	 mov	 WORD PTR [edx+32], cx
  0121f	eb 31		 jmp	 SHORT $LN253@Convert
$LN255@Convert:

; 652  : 				}
; 653  : 				else if ( p->Level != 0 )

  01221	8b 45 f0	 mov	 eax, DWORD PTR _p$[ebp]
  01224	0f b6 48 22	 movzx	 ecx, BYTE PTR [eax+34]
  01228	85 c9		 test	 ecx, ecx
  0122a	74 26		 je	 SHORT $LN253@Convert

; 654  : 				{
; 655  : 					this->m_Magic += (this->m_Magic * 25) / p->Level + 5;

  0122c	8b 45 fc	 mov	 eax, DWORD PTR _this$[ebp]
  0122f	0f b7 40 20	 movzx	 eax, WORD PTR [eax+32]
  01233	6b c0 19	 imul	 eax, 25			; 00000019H
  01236	8b 4d f0	 mov	 ecx, DWORD PTR _p$[ebp]
  01239	0f b6 49 22	 movzx	 ecx, BYTE PTR [ecx+34]
  0123d	99		 cdq
  0123e	f7 f9		 idiv	 ecx
  01240	8b 55 fc	 mov	 edx, DWORD PTR _this$[ebp]
  01243	0f b7 4a 20	 movzx	 ecx, WORD PTR [edx+32]
  01247	8d 54 01 05	 lea	 edx, DWORD PTR [ecx+eax+5]
  0124b	8b 45 fc	 mov	 eax, DWORD PTR _this$[ebp]
  0124e	66 89 50 20	 mov	 WORD PTR [eax+32], dx
$LN253@Convert:

; 656  : 				}
; 657  : 			}
; 658  : 		}
; 659  : 
; 660  : 		this->m_Magic += this->m_Level * 3;

  01252	8b 45 fc	 mov	 eax, DWORD PTR _this$[ebp]
  01255	0f bf 48 08	 movsx	 ecx, WORD PTR [eax+8]
  01259	6b c9 03	 imul	 ecx, 3
  0125c	8b 55 fc	 mov	 edx, DWORD PTR _this$[ebp]
  0125f	0f b7 42 20	 movzx	 eax, WORD PTR [edx+32]
  01263	03 c1		 add	 eax, ecx
  01265	8b 4d fc	 mov	 ecx, DWORD PTR _this$[ebp]
  01268	66 89 41 20	 mov	 WORD PTR [ecx+32], ax

; 661  : 
; 662  : 		if ( this->m_Level >= 10 )

  0126c	8b 45 fc	 mov	 eax, DWORD PTR _this$[ebp]
  0126f	0f bf 48 08	 movsx	 ecx, WORD PTR [eax+8]
  01273	83 f9 0a	 cmp	 ecx, 10			; 0000000aH
  01276	7c 2c		 jl	 SHORT $LN252@Convert

; 663  : 		{
; 664  : 			this->m_Magic += (this->m_Level - 9) * (this->m_Level - 8) / 2;

  01278	8b 45 fc	 mov	 eax, DWORD PTR _this$[ebp]
  0127b	0f bf 40 08	 movsx	 eax, WORD PTR [eax+8]
  0127f	83 e8 09	 sub	 eax, 9
  01282	8b 4d fc	 mov	 ecx, DWORD PTR _this$[ebp]
  01285	0f bf 51 08	 movsx	 edx, WORD PTR [ecx+8]
  01289	83 ea 08	 sub	 edx, 8
  0128c	0f af c2	 imul	 eax, edx
  0128f	99		 cdq
  01290	2b c2		 sub	 eax, edx
  01292	d1 f8		 sar	 eax, 1
  01294	8b 4d fc	 mov	 ecx, DWORD PTR _this$[ebp]
  01297	0f b7 51 20	 movzx	 edx, WORD PTR [ecx+32]
  0129b	03 d0		 add	 edx, eax
  0129d	8b 45 fc	 mov	 eax, DWORD PTR _this$[ebp]
  012a0	66 89 50 20	 mov	 WORD PTR [eax+32], dx
$LN252@Convert:

; 665  : 		}
; 666  : 	}
; 667  : 
; 668  : 	if( this->m_BookSpell > 0) //Season3 Summoner

  012a4	8b 45 fc	 mov	 eax, DWORD PTR _this$[ebp]
  012a7	0f b7 48 22	 movzx	 ecx, WORD PTR [eax+34]
  012ab	85 c9		 test	 ecx, ecx
  012ad	0f 8e fe 00 00
	00		 jle	 $LN244@Convert

; 669  : 	{
; 670  : 		if ( this->m_SetOption != 0 && ItemLevel != 0 )

  012b3	8b 45 fc	 mov	 eax, DWORD PTR _this$[ebp]
  012b6	0f b6 88 ae 00
	00 00		 movzx	 ecx, BYTE PTR [eax+174]
  012bd	85 c9		 test	 ecx, ecx
  012bf	74 4b		 je	 SHORT $LN250@Convert
  012c1	83 7d f4 00	 cmp	 DWORD PTR _ItemLevel$[ebp], 0
  012c5	74 45		 je	 SHORT $LN250@Convert

; 671  : 		{
; 672  : 			this->m_BookSpell += (this->m_BookSpell * 25) / p->Level + 5;

  012c7	8b 45 fc	 mov	 eax, DWORD PTR _this$[ebp]
  012ca	0f b7 40 22	 movzx	 eax, WORD PTR [eax+34]
  012ce	6b c0 19	 imul	 eax, 25			; 00000019H
  012d1	8b 4d f0	 mov	 ecx, DWORD PTR _p$[ebp]
  012d4	0f b6 49 22	 movzx	 ecx, BYTE PTR [ecx+34]
  012d8	99		 cdq
  012d9	f7 f9		 idiv	 ecx
  012db	8b 55 fc	 mov	 edx, DWORD PTR _this$[ebp]
  012de	0f b7 4a 22	 movzx	 ecx, WORD PTR [edx+34]
  012e2	8d 54 01 05	 lea	 edx, DWORD PTR [ecx+eax+5]
  012e6	8b 45 fc	 mov	 eax, DWORD PTR _this$[ebp]
  012e9	66 89 50 22	 mov	 WORD PTR [eax+34], dx

; 673  : 			this->m_BookSpell += ItemLevel / 60 + 2;

  012ed	8b 45 f4	 mov	 eax, DWORD PTR _ItemLevel$[ebp]
  012f0	99		 cdq
  012f1	b9 3c 00 00 00	 mov	 ecx, 60			; 0000003cH
  012f6	f7 f9		 idiv	 ecx
  012f8	8b 55 fc	 mov	 edx, DWORD PTR _this$[ebp]
  012fb	0f b7 4a 22	 movzx	 ecx, WORD PTR [edx+34]
  012ff	8d 54 01 02	 lea	 edx, DWORD PTR [ecx+eax+2]
  01303	8b 45 fc	 mov	 eax, DWORD PTR _this$[ebp]
  01306	66 89 50 22	 mov	 WORD PTR [eax+34], dx

; 674  : 		}
; 675  : 		else

  0130a	eb 53		 jmp	 SHORT $LN245@Convert
$LN250@Convert:

; 676  : 		{
; 677  : 			if ( (Attribute2 & 0x3F)  > 0 )

  0130c	0f b6 45 18	 movzx	 eax, BYTE PTR _Attribute2$[ebp]
  01310	83 e0 3f	 and	 eax, 63			; 0000003fH
  01313	7e 4a		 jle	 SHORT $LN245@Convert

; 678  : 			{
; 679  : 				if ( iChaosItem != 0 ) //season4 changed

  01315	83 7d dc 00	 cmp	 DWORD PTR _iChaosItem$[ebp], 0
  01319	74 13		 je	 SHORT $LN247@Convert

; 680  : 				{
; 681  : 					this->m_BookSpell += iChaosItem; //season4 changed

  0131b	8b 45 fc	 mov	 eax, DWORD PTR _this$[ebp]
  0131e	0f b7 48 22	 movzx	 ecx, WORD PTR [eax+34]
  01322	03 4d dc	 add	 ecx, DWORD PTR _iChaosItem$[ebp]
  01325	8b 55 fc	 mov	 edx, DWORD PTR _this$[ebp]
  01328	66 89 4a 22	 mov	 WORD PTR [edx+34], cx
  0132c	eb 31		 jmp	 SHORT $LN245@Convert
$LN247@Convert:

; 682  : 				}
; 683  : 				else if ( p->Level != 0 )

  0132e	8b 45 f0	 mov	 eax, DWORD PTR _p$[ebp]
  01331	0f b6 48 22	 movzx	 ecx, BYTE PTR [eax+34]
  01335	85 c9		 test	 ecx, ecx
  01337	74 26		 je	 SHORT $LN245@Convert

; 684  : 				{
; 685  : 					this->m_BookSpell += (this->m_BookSpell * 25) / p->Level + 5;

  01339	8b 45 fc	 mov	 eax, DWORD PTR _this$[ebp]
  0133c	0f b7 40 22	 movzx	 eax, WORD PTR [eax+34]
  01340	6b c0 19	 imul	 eax, 25			; 00000019H
  01343	8b 4d f0	 mov	 ecx, DWORD PTR _p$[ebp]
  01346	0f b6 49 22	 movzx	 ecx, BYTE PTR [ecx+34]
  0134a	99		 cdq
  0134b	f7 f9		 idiv	 ecx
  0134d	8b 55 fc	 mov	 edx, DWORD PTR _this$[ebp]
  01350	0f b7 4a 22	 movzx	 ecx, WORD PTR [edx+34]
  01354	8d 54 01 05	 lea	 edx, DWORD PTR [ecx+eax+5]
  01358	8b 45 fc	 mov	 eax, DWORD PTR _this$[ebp]
  0135b	66 89 50 22	 mov	 WORD PTR [eax+34], dx
$LN245@Convert:

; 686  : 				}
; 687  : 			}
; 688  : 		}
; 689  : 
; 690  : 		this->m_BookSpell += this->m_Level * 3;

  0135f	8b 45 fc	 mov	 eax, DWORD PTR _this$[ebp]
  01362	0f bf 48 08	 movsx	 ecx, WORD PTR [eax+8]
  01366	6b c9 03	 imul	 ecx, 3
  01369	8b 55 fc	 mov	 edx, DWORD PTR _this$[ebp]
  0136c	0f b7 42 22	 movzx	 eax, WORD PTR [edx+34]
  01370	03 c1		 add	 eax, ecx
  01372	8b 4d fc	 mov	 ecx, DWORD PTR _this$[ebp]
  01375	66 89 41 22	 mov	 WORD PTR [ecx+34], ax

; 691  : 
; 692  : 		if ( this->m_Level >= 10 )

  01379	8b 45 fc	 mov	 eax, DWORD PTR _this$[ebp]
  0137c	0f bf 48 08	 movsx	 ecx, WORD PTR [eax+8]
  01380	83 f9 0a	 cmp	 ecx, 10			; 0000000aH
  01383	7c 2c		 jl	 SHORT $LN244@Convert

; 693  : 		{
; 694  : 			this->m_BookSpell += (this->m_Level - 9) * (this->m_Level - 8) / 2;

  01385	8b 45 fc	 mov	 eax, DWORD PTR _this$[ebp]
  01388	0f bf 40 08	 movsx	 eax, WORD PTR [eax+8]
  0138c	83 e8 09	 sub	 eax, 9
  0138f	8b 4d fc	 mov	 ecx, DWORD PTR _this$[ebp]
  01392	0f bf 51 08	 movsx	 edx, WORD PTR [ecx+8]
  01396	83 ea 08	 sub	 edx, 8
  01399	0f af c2	 imul	 eax, edx
  0139c	99		 cdq
  0139d	2b c2		 sub	 eax, edx
  0139f	d1 f8		 sar	 eax, 1
  013a1	8b 4d fc	 mov	 ecx, DWORD PTR _this$[ebp]
  013a4	0f b7 51 22	 movzx	 edx, WORD PTR [ecx+34]
  013a8	03 d0		 add	 edx, eax
  013aa	8b 45 fc	 mov	 eax, DWORD PTR _this$[ebp]
  013ad	66 89 50 22	 mov	 WORD PTR [eax+34], dx
$LN244@Convert:

; 695  : 		}
; 696  : 	}
; 697  : 
; 698  : 	if ( p->SuccessfulBlocking > 0 )	

  013b1	8b 45 f0	 mov	 eax, DWORD PTR _p$[ebp]
  013b4	0f b6 48 2c	 movzx	 ecx, BYTE PTR [eax+44]
  013b8	85 c9		 test	 ecx, ecx
  013ba	0f 8e e0 00 00
	00		 jle	 $LN238@Convert

; 699  : 	{
; 700  : 		if ( this->m_SetOption != 0 && ItemLevel != 0 )

  013c0	8b 45 fc	 mov	 eax, DWORD PTR _this$[ebp]
  013c3	0f b6 88 ae 00
	00 00		 movzx	 ecx, BYTE PTR [eax+174]
  013ca	85 c9		 test	 ecx, ecx
  013cc	74 49		 je	 SHORT $LN242@Convert
  013ce	83 7d f4 00	 cmp	 DWORD PTR _ItemLevel$[ebp], 0
  013d2	74 43		 je	 SHORT $LN242@Convert

; 701  : 		{
; 702  : 			this->m_SuccessfulBlocking += (this->m_SuccessfulBlocking * 25) / p->Level + 5;

  013d4	8b 45 fc	 mov	 eax, DWORD PTR _this$[ebp]
  013d7	0f b6 40 14	 movzx	 eax, BYTE PTR [eax+20]
  013db	6b c0 19	 imul	 eax, 25			; 00000019H
  013de	8b 4d f0	 mov	 ecx, DWORD PTR _p$[ebp]
  013e1	0f b6 49 22	 movzx	 ecx, BYTE PTR [ecx+34]
  013e5	99		 cdq
  013e6	f7 f9		 idiv	 ecx
  013e8	8b 55 fc	 mov	 edx, DWORD PTR _this$[ebp]
  013eb	0f b6 4a 14	 movzx	 ecx, BYTE PTR [edx+20]
  013ef	8d 54 01 05	 lea	 edx, DWORD PTR [ecx+eax+5]
  013f3	8b 45 fc	 mov	 eax, DWORD PTR _this$[ebp]
  013f6	88 50 14	 mov	 BYTE PTR [eax+20], dl

; 703  : 			this->m_SuccessfulBlocking += ItemLevel / 40 + 5;

  013f9	8b 45 f4	 mov	 eax, DWORD PTR _ItemLevel$[ebp]
  013fc	99		 cdq
  013fd	b9 28 00 00 00	 mov	 ecx, 40			; 00000028H
  01402	f7 f9		 idiv	 ecx
  01404	8b 55 fc	 mov	 edx, DWORD PTR _this$[ebp]
  01407	0f b6 4a 14	 movzx	 ecx, BYTE PTR [edx+20]
  0140b	8d 54 01 05	 lea	 edx, DWORD PTR [ecx+eax+5]
  0140f	8b 45 fc	 mov	 eax, DWORD PTR _this$[ebp]
  01412	88 50 14	 mov	 BYTE PTR [eax+20], dl

; 704  : 		}
; 705  : 		else

  01415	eb 39		 jmp	 SHORT $LN239@Convert
$LN242@Convert:

; 706  : 		{
; 707  : 			if ( (Attribute2 & 0x3F)  > 0 )

  01417	0f b6 45 18	 movzx	 eax, BYTE PTR _Attribute2$[ebp]
  0141b	83 e0 3f	 and	 eax, 63			; 0000003fH
  0141e	7e 30		 jle	 SHORT $LN239@Convert

; 708  : 			{
; 709  : 				if ( p->Level != 0 )

  01420	8b 45 f0	 mov	 eax, DWORD PTR _p$[ebp]
  01423	0f b6 48 22	 movzx	 ecx, BYTE PTR [eax+34]
  01427	85 c9		 test	 ecx, ecx
  01429	74 25		 je	 SHORT $LN239@Convert

; 710  : 				{
; 711  : 					this->m_SuccessfulBlocking += (this->m_SuccessfulBlocking * 25) / p->Level + 5;

  0142b	8b 45 fc	 mov	 eax, DWORD PTR _this$[ebp]
  0142e	0f b6 40 14	 movzx	 eax, BYTE PTR [eax+20]
  01432	6b c0 19	 imul	 eax, 25			; 00000019H
  01435	8b 4d f0	 mov	 ecx, DWORD PTR _p$[ebp]
  01438	0f b6 49 22	 movzx	 ecx, BYTE PTR [ecx+34]
  0143c	99		 cdq
  0143d	f7 f9		 idiv	 ecx
  0143f	8b 55 fc	 mov	 edx, DWORD PTR _this$[ebp]
  01442	0f b6 4a 14	 movzx	 ecx, BYTE PTR [edx+20]
  01446	8d 54 01 05	 lea	 edx, DWORD PTR [ecx+eax+5]
  0144a	8b 45 fc	 mov	 eax, DWORD PTR _this$[ebp]
  0144d	88 50 14	 mov	 BYTE PTR [eax+20], dl
$LN239@Convert:

; 712  : 				}
; 713  : 			}
; 714  : 		}
; 715  : 
; 716  : 		this->m_SuccessfulBlocking += this->m_Level * 3;

  01450	8b 45 fc	 mov	 eax, DWORD PTR _this$[ebp]
  01453	0f bf 48 08	 movsx	 ecx, WORD PTR [eax+8]
  01457	6b c9 03	 imul	 ecx, 3
  0145a	8b 55 fc	 mov	 edx, DWORD PTR _this$[ebp]
  0145d	0f b6 42 14	 movzx	 eax, BYTE PTR [edx+20]
  01461	03 c1		 add	 eax, ecx
  01463	8b 4d fc	 mov	 ecx, DWORD PTR _this$[ebp]
  01466	88 41 14	 mov	 BYTE PTR [ecx+20], al

; 717  : 
; 718  : 		if ( this->m_Level >= 10 )

  01469	8b 45 fc	 mov	 eax, DWORD PTR _this$[ebp]
  0146c	0f bf 48 08	 movsx	 ecx, WORD PTR [eax+8]
  01470	83 f9 0a	 cmp	 ecx, 10			; 0000000aH
  01473	7c 2b		 jl	 SHORT $LN238@Convert

; 719  : 		{
; 720  : 			this->m_SuccessfulBlocking += (this->m_Level - 9) * (this->m_Level - 8) / 2;

  01475	8b 45 fc	 mov	 eax, DWORD PTR _this$[ebp]
  01478	0f bf 40 08	 movsx	 eax, WORD PTR [eax+8]
  0147c	83 e8 09	 sub	 eax, 9
  0147f	8b 4d fc	 mov	 ecx, DWORD PTR _this$[ebp]
  01482	0f bf 51 08	 movsx	 edx, WORD PTR [ecx+8]
  01486	83 ea 08	 sub	 edx, 8
  01489	0f af c2	 imul	 eax, edx
  0148c	99		 cdq
  0148d	2b c2		 sub	 eax, edx
  0148f	d1 f8		 sar	 eax, 1
  01491	8b 4d fc	 mov	 ecx, DWORD PTR _this$[ebp]
  01494	0f b6 51 14	 movzx	 edx, BYTE PTR [ecx+20]
  01498	03 d0		 add	 edx, eax
  0149a	8b 45 fc	 mov	 eax, DWORD PTR _this$[ebp]
  0149d	88 50 14	 mov	 BYTE PTR [eax+20], dl
$LN238@Convert:

; 721  : 		}
; 722  : 	}
; 723  : 
; 724  : 	if ( p->Defense > 0 )	

  014a0	8b 45 f0	 mov	 eax, DWORD PTR _p$[ebp]
  014a3	0f b6 48 2d	 movzx	 ecx, BYTE PTR [eax+45]
  014a7	85 c9		 test	 ecx, ecx
  014a9	0f 8e 11 04 00
	00		 jle	 $LN208@Convert

; 725  : 	{
; 726  : 		if ( this->m_Type >= ITEMGET(6,0) && this->m_Type < ITEMGET(7,0) )

  014af	8b 45 fc	 mov	 eax, DWORD PTR _this$[ebp]
  014b2	0f bf 48 06	 movsx	 ecx, WORD PTR [eax+6]
  014b6	81 f9 00 0c 00
	00		 cmp	 ecx, 3072		; 00000c00H
  014bc	7c 5f		 jl	 SHORT $LN236@Convert
  014be	8b 45 fc	 mov	 eax, DWORD PTR _this$[ebp]
  014c1	0f bf 48 06	 movsx	 ecx, WORD PTR [eax+6]
  014c5	81 f9 00 0e 00
	00		 cmp	 ecx, 3584		; 00000e00H
  014cb	7d 50		 jge	 SHORT $LN236@Convert

; 727  : 		{
; 728  : 			this->m_Defense += this->m_Level;

  014cd	8b 45 fc	 mov	 eax, DWORD PTR _this$[ebp]
  014d0	0f bf 48 08	 movsx	 ecx, WORD PTR [eax+8]
  014d4	8b 55 fc	 mov	 edx, DWORD PTR _this$[ebp]
  014d7	0f b7 42 16	 movzx	 eax, WORD PTR [edx+22]
  014db	03 c1		 add	 eax, ecx
  014dd	8b 4d fc	 mov	 ecx, DWORD PTR _this$[ebp]
  014e0	66 89 41 16	 mov	 WORD PTR [ecx+22], ax

; 729  : 
; 730  : 			if ( this->m_SetOption != 0 && ItemLevel != 0 )

  014e4	8b 45 fc	 mov	 eax, DWORD PTR _this$[ebp]
  014e7	0f b6 88 ae 00
	00 00		 movzx	 ecx, BYTE PTR [eax+174]
  014ee	85 c9		 test	 ecx, ecx
  014f0	74 26		 je	 SHORT $LN235@Convert
  014f2	83 7d f4 00	 cmp	 DWORD PTR _ItemLevel$[ebp], 0
  014f6	74 20		 je	 SHORT $LN235@Convert

; 731  : 			{
; 732  : 				this->m_Defense += (this->m_Defense * 20) / ItemLevel + 2;

  014f8	8b 45 fc	 mov	 eax, DWORD PTR _this$[ebp]
  014fb	0f b7 40 16	 movzx	 eax, WORD PTR [eax+22]
  014ff	6b c0 14	 imul	 eax, 20			; 00000014H
  01502	99		 cdq
  01503	f7 7d f4	 idiv	 DWORD PTR _ItemLevel$[ebp]
  01506	8b 4d fc	 mov	 ecx, DWORD PTR _this$[ebp]
  01509	0f b7 51 16	 movzx	 edx, WORD PTR [ecx+22]
  0150d	8d 44 02 02	 lea	 eax, DWORD PTR [edx+eax+2]
  01511	8b 4d fc	 mov	 ecx, DWORD PTR _this$[ebp]
  01514	66 89 41 16	 mov	 WORD PTR [ecx+22], ax
$LN235@Convert:

; 733  : 			}
; 734  : 		}
; 735  : 		else 

  01518	e9 a3 03 00 00	 jmp	 $LN208@Convert
$LN236@Convert:

; 736  : 		{
; 737  : 			if ( this->m_SetOption != 0 && ItemLevel != 0 )

  0151d	8b 45 fc	 mov	 eax, DWORD PTR _this$[ebp]
  01520	0f b6 88 ae 00
	00 00		 movzx	 ecx, BYTE PTR [eax+174]
  01527	85 c9		 test	 ecx, ecx
  01529	74 70		 je	 SHORT $LN233@Convert
  0152b	83 7d f4 00	 cmp	 DWORD PTR _ItemLevel$[ebp], 0
  0152f	74 6a		 je	 SHORT $LN233@Convert

; 738  : 			{
; 739  : 				this->m_Defense += (this->m_Defense * 12) / p->Level + (p->Level / 5 ) + 4;

  01531	8b 45 fc	 mov	 eax, DWORD PTR _this$[ebp]
  01534	0f b7 40 16	 movzx	 eax, WORD PTR [eax+22]
  01538	6b c0 0c	 imul	 eax, 12			; 0000000cH
  0153b	8b 4d f0	 mov	 ecx, DWORD PTR _p$[ebp]
  0153e	0f b6 49 22	 movzx	 ecx, BYTE PTR [ecx+34]
  01542	99		 cdq
  01543	f7 f9		 idiv	 ecx
  01545	8b c8		 mov	 ecx, eax
  01547	8b 55 f0	 mov	 edx, DWORD PTR _p$[ebp]
  0154a	0f b6 42 22	 movzx	 eax, BYTE PTR [edx+34]
  0154e	99		 cdq
  0154f	be 05 00 00 00	 mov	 esi, 5
  01554	f7 fe		 idiv	 esi
  01556	03 c8		 add	 ecx, eax
  01558	8b 45 fc	 mov	 eax, DWORD PTR _this$[ebp]
  0155b	0f b7 50 16	 movzx	 edx, WORD PTR [eax+22]
  0155f	8d 44 0a 04	 lea	 eax, DWORD PTR [edx+ecx+4]
  01563	8b 4d fc	 mov	 ecx, DWORD PTR _this$[ebp]
  01566	66 89 41 16	 mov	 WORD PTR [ecx+22], ax

; 740  : 				this->m_Defense += (this->m_Defense * 3) / ItemLevel  + ( ItemLevel / 30 ) + 2;

  0156a	8b 45 fc	 mov	 eax, DWORD PTR _this$[ebp]
  0156d	0f b7 40 16	 movzx	 eax, WORD PTR [eax+22]
  01571	6b c0 03	 imul	 eax, 3
  01574	99		 cdq
  01575	f7 7d f4	 idiv	 DWORD PTR _ItemLevel$[ebp]
  01578	8b c8		 mov	 ecx, eax
  0157a	8b 45 f4	 mov	 eax, DWORD PTR _ItemLevel$[ebp]
  0157d	99		 cdq
  0157e	be 1e 00 00 00	 mov	 esi, 30			; 0000001eH
  01583	f7 fe		 idiv	 esi
  01585	03 c8		 add	 ecx, eax
  01587	8b 55 fc	 mov	 edx, DWORD PTR _this$[ebp]
  0158a	0f b7 42 16	 movzx	 eax, WORD PTR [edx+22]
  0158e	8d 4c 08 02	 lea	 ecx, DWORD PTR [eax+ecx+2]
  01592	8b 55 fc	 mov	 edx, DWORD PTR _this$[ebp]
  01595	66 89 4a 16	 mov	 WORD PTR [edx+22], cx
  01599	eb 4d		 jmp	 SHORT $LN230@Convert
$LN233@Convert:

; 741  : 			}
; 742  : 			else if ( (Attribute2 & 0x3F) > 0 )

  0159b	0f b6 45 18	 movzx	 eax, BYTE PTR _Attribute2$[ebp]
  0159f	83 e0 3f	 and	 eax, 63			; 0000003fH
  015a2	7e 44		 jle	 SHORT $LN230@Convert

; 743  : 			{
; 744  : 				if ( p->Level != 0 )

  015a4	8b 45 f0	 mov	 eax, DWORD PTR _p$[ebp]
  015a7	0f b6 48 22	 movzx	 ecx, BYTE PTR [eax+34]
  015ab	85 c9		 test	 ecx, ecx
  015ad	74 39		 je	 SHORT $LN230@Convert

; 745  : 				{
; 746  : 					this->m_Defense += (this->m_Defense * 12) / p->Level + (p->Level / 5 ) + 4;

  015af	8b 45 fc	 mov	 eax, DWORD PTR _this$[ebp]
  015b2	0f b7 40 16	 movzx	 eax, WORD PTR [eax+22]
  015b6	6b c0 0c	 imul	 eax, 12			; 0000000cH
  015b9	8b 4d f0	 mov	 ecx, DWORD PTR _p$[ebp]
  015bc	0f b6 49 22	 movzx	 ecx, BYTE PTR [ecx+34]
  015c0	99		 cdq
  015c1	f7 f9		 idiv	 ecx
  015c3	8b c8		 mov	 ecx, eax
  015c5	8b 55 f0	 mov	 edx, DWORD PTR _p$[ebp]
  015c8	0f b6 42 22	 movzx	 eax, BYTE PTR [edx+34]
  015cc	99		 cdq
  015cd	be 05 00 00 00	 mov	 esi, 5
  015d2	f7 fe		 idiv	 esi
  015d4	03 c8		 add	 ecx, eax
  015d6	8b 45 fc	 mov	 eax, DWORD PTR _this$[ebp]
  015d9	0f b7 50 16	 movzx	 edx, WORD PTR [eax+22]
  015dd	8d 44 0a 04	 lea	 eax, DWORD PTR [edx+ecx+4]
  015e1	8b 4d fc	 mov	 ecx, DWORD PTR _this$[ebp]
  015e4	66 89 41 16	 mov	 WORD PTR [ecx+22], ax
$LN230@Convert:

; 747  : 				}
; 748  : 			}
; 749  : 			
; 750  : 			if ( ( _type >= ITEMGET(12,36) && _type <= ITEMGET(12,40)) )

  015e8	81 7d f8 24 18
	00 00		 cmp	 DWORD PTR __type$[ebp], 6180 ; 00001824H
  015ef	7c 46		 jl	 SHORT $LN228@Convert
  015f1	81 7d f8 28 18
	00 00		 cmp	 DWORD PTR __type$[ebp], 6184 ; 00001828H
  015f8	7f 3d		 jg	 SHORT $LN228@Convert

; 751  : 			{
; 752  : 				this->m_Defense += this->m_Level * 4;

  015fa	8b 45 fc	 mov	 eax, DWORD PTR _this$[ebp]
  015fd	0f bf 48 08	 movsx	 ecx, WORD PTR [eax+8]
  01601	8b 55 fc	 mov	 edx, DWORD PTR _this$[ebp]
  01604	0f b7 42 16	 movzx	 eax, WORD PTR [edx+22]
  01608	8d 0c 88	 lea	 ecx, DWORD PTR [eax+ecx*4]
  0160b	8b 55 fc	 mov	 edx, DWORD PTR _this$[ebp]
  0160e	66 89 4a 16	 mov	 WORD PTR [edx+22], cx

; 753  : 
; 754  : 				if ( this->m_Level >= 10 )

  01612	8b 45 fc	 mov	 eax, DWORD PTR _this$[ebp]
  01615	0f bf 48 08	 movsx	 ecx, WORD PTR [eax+8]
  01619	83 f9 0a	 cmp	 ecx, 10			; 0000000aH
  0161c	7c 19		 jl	 SHORT $LN228@Convert

; 755  : 				{
; 756  : 					this->m_Defense += (this->m_Level - 9);

  0161e	8b 45 fc	 mov	 eax, DWORD PTR _this$[ebp]
  01621	0f bf 48 08	 movsx	 ecx, WORD PTR [eax+8]
  01625	8b 55 fc	 mov	 edx, DWORD PTR _this$[ebp]
  01628	0f b7 42 16	 movzx	 eax, WORD PTR [edx+22]
  0162c	8d 4c 08 f7	 lea	 ecx, DWORD PTR [eax+ecx-9]
  01630	8b 55 fc	 mov	 edx, DWORD PTR _this$[ebp]
  01633	66 89 4a 16	 mov	 WORD PTR [edx+22], cx
$LN228@Convert:

; 757  : 				}
; 758  : 			}
; 759  : 			if ( _type == MuItem::miCAPE_FIGTHER )

  01637	81 7d f8 31 18
	00 00		 cmp	 DWORD PTR __type$[ebp], 6193 ; 00001831H
  0163e	75 4f		 jne	 SHORT $LN227@Convert

; 760  : 			{
; 761  : 				this->m_Defense = 2 * this->m_Level + 10;

  01640	8b 45 fc	 mov	 eax, DWORD PTR _this$[ebp]
  01643	0f bf 48 08	 movsx	 ecx, WORD PTR [eax+8]
  01647	8d 54 09 0a	 lea	 edx, DWORD PTR [ecx+ecx+10]
  0164b	8b 45 fc	 mov	 eax, DWORD PTR _this$[ebp]
  0164e	66 89 50 16	 mov	 WORD PTR [eax+22], dx

; 762  : 				if ( this->m_Level >= 10 )

  01652	8b 45 fc	 mov	 eax, DWORD PTR _this$[ebp]
  01655	0f bf 48 08	 movsx	 ecx, WORD PTR [eax+8]
  01659	83 f9 0a	 cmp	 ecx, 10			; 0000000aH
  0165c	7c 2c		 jl	 SHORT $LN226@Convert

; 763  : 				{
; 764  : 					this->m_Defense += (this->m_Level - 8) * (this->m_Level - 9) / 2;

  0165e	8b 45 fc	 mov	 eax, DWORD PTR _this$[ebp]
  01661	0f bf 40 08	 movsx	 eax, WORD PTR [eax+8]
  01665	83 e8 08	 sub	 eax, 8
  01668	8b 4d fc	 mov	 ecx, DWORD PTR _this$[ebp]
  0166b	0f bf 51 08	 movsx	 edx, WORD PTR [ecx+8]
  0166f	83 ea 09	 sub	 edx, 9
  01672	0f af c2	 imul	 eax, edx
  01675	99		 cdq
  01676	2b c2		 sub	 eax, edx
  01678	d1 f8		 sar	 eax, 1
  0167a	8b 4d fc	 mov	 ecx, DWORD PTR _this$[ebp]
  0167d	0f b7 51 16	 movzx	 edx, WORD PTR [ecx+22]
  01681	03 d0		 add	 edx, eax
  01683	8b 45 fc	 mov	 eax, DWORD PTR _this$[ebp]
  01686	66 89 50 16	 mov	 WORD PTR [eax+22], dx
$LN226@Convert:

; 765  : 				}
; 766  : 			}

  0168a	e9 f9 01 00 00	 jmp	 $LN209@Convert
$LN227@Convert:

; 767  : #ifdef NEWWINGS_4
; 768  : 			else if ( IS_NEWWINGS_4(_type) )	//Custom Wings4

  0168f	81 7d f8 b4 18
	00 00		 cmp	 DWORD PTR __type$[ebp], 6324 ; 000018b4H
  01696	7d 09		 jge	 SHORT $LN411@Convert
  01698	c7 45 8c 00 00
	00 00		 mov	 DWORD PTR tv1151[ebp], 0
  0169f	eb 0f		 jmp	 SHORT $LN412@Convert
$LN411@Convert:
  016a1	33 c0		 xor	 eax, eax
  016a3	81 7d f8 b9 18
	00 00		 cmp	 DWORD PTR __type$[ebp], 6329 ; 000018b9H
  016aa	0f 9e c0	 setle	 al
  016ad	89 45 8c	 mov	 DWORD PTR tv1151[ebp], eax
$LN412@Convert:
  016b0	83 7d 8c 00	 cmp	 DWORD PTR tv1151[ebp], 0
  016b4	74 42		 je	 SHORT $LN224@Convert

; 769  : 			{
; 770  : 				this->m_Defense += this->m_Level * 4;

  016b6	8b 45 fc	 mov	 eax, DWORD PTR _this$[ebp]
  016b9	0f bf 48 08	 movsx	 ecx, WORD PTR [eax+8]
  016bd	8b 55 fc	 mov	 edx, DWORD PTR _this$[ebp]
  016c0	0f b7 42 16	 movzx	 eax, WORD PTR [edx+22]
  016c4	8d 0c 88	 lea	 ecx, DWORD PTR [eax+ecx*4]
  016c7	8b 55 fc	 mov	 edx, DWORD PTR _this$[ebp]
  016ca	66 89 4a 16	 mov	 WORD PTR [edx+22], cx

; 771  : 
; 772  : 				if ( this->m_Level >= 10 )

  016ce	8b 45 fc	 mov	 eax, DWORD PTR _this$[ebp]
  016d1	0f bf 48 08	 movsx	 ecx, WORD PTR [eax+8]
  016d5	83 f9 0a	 cmp	 ecx, 10			; 0000000aH
  016d8	7c 19		 jl	 SHORT $LN223@Convert

; 773  : 				{
; 774  : 					this->m_Defense += (this->m_Level - 9);

  016da	8b 45 fc	 mov	 eax, DWORD PTR _this$[ebp]
  016dd	0f bf 48 08	 movsx	 ecx, WORD PTR [eax+8]
  016e1	8b 55 fc	 mov	 edx, DWORD PTR _this$[ebp]
  016e4	0f b7 42 16	 movzx	 eax, WORD PTR [edx+22]
  016e8	8d 4c 08 f7	 lea	 ecx, DWORD PTR [eax+ecx-9]
  016ec	8b 55 fc	 mov	 edx, DWORD PTR _this$[ebp]
  016ef	66 89 4a 16	 mov	 WORD PTR [edx+22], cx
$LN223@Convert:

; 775  : 				}
; 776  : 			}

  016f3	e9 90 01 00 00	 jmp	 $LN209@Convert
$LN224@Convert:

; 777  : #endif
; 778  : #ifdef NEWWINGS_2_5
; 779  : 			else if ( IS_NEWWINGS_2_5(_type) )	//Custom Wings4

  016f8	81 7d f8 ba 18
	00 00		 cmp	 DWORD PTR __type$[ebp], 6330 ; 000018baH
  016ff	7d 09		 jge	 SHORT $LN413@Convert
  01701	c7 45 8c 00 00
	00 00		 mov	 DWORD PTR tv1175[ebp], 0
  01708	eb 0f		 jmp	 SHORT $LN414@Convert
$LN413@Convert:
  0170a	33 c0		 xor	 eax, eax
  0170c	81 7d f8 bc 18
	00 00		 cmp	 DWORD PTR __type$[ebp], 6332 ; 000018bcH
  01713	0f 9e c0	 setle	 al
  01716	89 45 8c	 mov	 DWORD PTR tv1175[ebp], eax
$LN414@Convert:
  01719	83 7d 8c 00	 cmp	 DWORD PTR tv1175[ebp], 0
  0171d	74 42		 je	 SHORT $LN221@Convert

; 780  : 			{
; 781  : 				this->m_Defense += this->m_Level * 4;

  0171f	8b 45 fc	 mov	 eax, DWORD PTR _this$[ebp]
  01722	0f bf 48 08	 movsx	 ecx, WORD PTR [eax+8]
  01726	8b 55 fc	 mov	 edx, DWORD PTR _this$[ebp]
  01729	0f b7 42 16	 movzx	 eax, WORD PTR [edx+22]
  0172d	8d 0c 88	 lea	 ecx, DWORD PTR [eax+ecx*4]
  01730	8b 55 fc	 mov	 edx, DWORD PTR _this$[ebp]
  01733	66 89 4a 16	 mov	 WORD PTR [edx+22], cx

; 782  : 
; 783  : 				if ( this->m_Level >= 10 )

  01737	8b 45 fc	 mov	 eax, DWORD PTR _this$[ebp]
  0173a	0f bf 48 08	 movsx	 ecx, WORD PTR [eax+8]
  0173e	83 f9 0a	 cmp	 ecx, 10			; 0000000aH
  01741	7c 19		 jl	 SHORT $LN220@Convert

; 784  : 				{
; 785  : 					this->m_Defense += (this->m_Level - 9);

  01743	8b 45 fc	 mov	 eax, DWORD PTR _this$[ebp]
  01746	0f bf 48 08	 movsx	 ecx, WORD PTR [eax+8]
  0174a	8b 55 fc	 mov	 edx, DWORD PTR _this$[ebp]
  0174d	0f b7 42 16	 movzx	 eax, WORD PTR [edx+22]
  01751	8d 4c 08 f7	 lea	 ecx, DWORD PTR [eax+ecx-9]
  01755	8b 55 fc	 mov	 edx, DWORD PTR _this$[ebp]
  01758	66 89 4a 16	 mov	 WORD PTR [edx+22], cx
$LN220@Convert:

; 786  : 				}
; 787  : 			}

  0175c	e9 27 01 00 00	 jmp	 $LN209@Convert
$LN221@Convert:

; 788  : #endif
; 789  : #ifdef NEWWINGS_5
; 790  : 			else if ( IS_NEWWINGS_5(_type) )

  01761	81 7d f8 bd 18
	00 00		 cmp	 DWORD PTR __type$[ebp], 6333 ; 000018bdH
  01768	7d 09		 jge	 SHORT $LN415@Convert
  0176a	c7 45 8c 00 00
	00 00		 mov	 DWORD PTR tv1199[ebp], 0
  01771	eb 0f		 jmp	 SHORT $LN416@Convert
$LN415@Convert:
  01773	33 c0		 xor	 eax, eax
  01775	81 7d f8 c2 18
	00 00		 cmp	 DWORD PTR __type$[ebp], 6338 ; 000018c2H
  0177c	0f 9e c0	 setle	 al
  0177f	89 45 8c	 mov	 DWORD PTR tv1199[ebp], eax
$LN416@Convert:
  01782	83 7d 8c 00	 cmp	 DWORD PTR tv1199[ebp], 0
  01786	74 42		 je	 SHORT $LN218@Convert

; 791  : 			{
; 792  : 				this->m_Defense += this->m_Level * 4;

  01788	8b 45 fc	 mov	 eax, DWORD PTR _this$[ebp]
  0178b	0f bf 48 08	 movsx	 ecx, WORD PTR [eax+8]
  0178f	8b 55 fc	 mov	 edx, DWORD PTR _this$[ebp]
  01792	0f b7 42 16	 movzx	 eax, WORD PTR [edx+22]
  01796	8d 0c 88	 lea	 ecx, DWORD PTR [eax+ecx*4]
  01799	8b 55 fc	 mov	 edx, DWORD PTR _this$[ebp]
  0179c	66 89 4a 16	 mov	 WORD PTR [edx+22], cx

; 793  : 
; 794  : 				if ( this->m_Level >= 10 )

  017a0	8b 45 fc	 mov	 eax, DWORD PTR _this$[ebp]
  017a3	0f bf 48 08	 movsx	 ecx, WORD PTR [eax+8]
  017a7	83 f9 0a	 cmp	 ecx, 10			; 0000000aH
  017aa	7c 19		 jl	 SHORT $LN217@Convert

; 795  : 				{
; 796  : 					this->m_Defense += (this->m_Level - 9);

  017ac	8b 45 fc	 mov	 eax, DWORD PTR _this$[ebp]
  017af	0f bf 48 08	 movsx	 ecx, WORD PTR [eax+8]
  017b3	8b 55 fc	 mov	 edx, DWORD PTR _this$[ebp]
  017b6	0f b7 42 16	 movzx	 eax, WORD PTR [edx+22]
  017ba	8d 4c 08 f7	 lea	 ecx, DWORD PTR [eax+ecx-9]
  017be	8b 55 fc	 mov	 edx, DWORD PTR _this$[ebp]
  017c1	66 89 4a 16	 mov	 WORD PTR [edx+22], cx
$LN217@Convert:

; 797  : 				}
; 798  : 			}

  017c5	e9 be 00 00 00	 jmp	 $LN209@Convert
$LN218@Convert:

; 799  : #endif
; 800  : #ifdef NEWWINGS_6
; 801  : 			else if ( IS_NEWWINGS_6(_type) )

  017ca	81 7d f8 c3 18
	00 00		 cmp	 DWORD PTR __type$[ebp], 6339 ; 000018c3H
  017d1	7d 09		 jge	 SHORT $LN417@Convert
  017d3	c7 45 8c 00 00
	00 00		 mov	 DWORD PTR tv1223[ebp], 0
  017da	eb 0f		 jmp	 SHORT $LN418@Convert
$LN417@Convert:
  017dc	33 c0		 xor	 eax, eax
  017de	81 7d f8 dc 18
	00 00		 cmp	 DWORD PTR __type$[ebp], 6364 ; 000018dcH
  017e5	0f 9e c0	 setle	 al
  017e8	89 45 8c	 mov	 DWORD PTR tv1223[ebp], eax
$LN418@Convert:
  017eb	83 7d 8c 00	 cmp	 DWORD PTR tv1223[ebp], 0
  017ef	74 3f		 je	 SHORT $LN215@Convert

; 802  : 			{
; 803  : 				this->m_Defense += this->m_Level * 4;

  017f1	8b 45 fc	 mov	 eax, DWORD PTR _this$[ebp]
  017f4	0f bf 48 08	 movsx	 ecx, WORD PTR [eax+8]
  017f8	8b 55 fc	 mov	 edx, DWORD PTR _this$[ebp]
  017fb	0f b7 42 16	 movzx	 eax, WORD PTR [edx+22]
  017ff	8d 0c 88	 lea	 ecx, DWORD PTR [eax+ecx*4]
  01802	8b 55 fc	 mov	 edx, DWORD PTR _this$[ebp]
  01805	66 89 4a 16	 mov	 WORD PTR [edx+22], cx

; 804  : 
; 805  : 				if ( this->m_Level >= 10 )

  01809	8b 45 fc	 mov	 eax, DWORD PTR _this$[ebp]
  0180c	0f bf 48 08	 movsx	 ecx, WORD PTR [eax+8]
  01810	83 f9 0a	 cmp	 ecx, 10			; 0000000aH
  01813	7c 19		 jl	 SHORT $LN214@Convert

; 806  : 				{
; 807  : 					this->m_Defense += (this->m_Level - 9);

  01815	8b 45 fc	 mov	 eax, DWORD PTR _this$[ebp]
  01818	0f bf 48 08	 movsx	 ecx, WORD PTR [eax+8]
  0181c	8b 55 fc	 mov	 edx, DWORD PTR _this$[ebp]
  0181f	0f b7 42 16	 movzx	 eax, WORD PTR [edx+22]
  01823	8d 4c 08 f7	 lea	 ecx, DWORD PTR [eax+ecx-9]
  01827	8b 55 fc	 mov	 edx, DWORD PTR _this$[ebp]
  0182a	66 89 4a 16	 mov	 WORD PTR [edx+22], cx
$LN214@Convert:

; 808  : 				}
; 809  : 			}

  0182e	eb 58		 jmp	 SHORT $LN209@Convert
$LN215@Convert:

; 810  : #endif
; 811  : 			else if ( ( _type >= ITEMGET(12,3) && _type <= ITEMGET(12,6)) || _type == ITEMGET(13,30) || _type == ITEMGET(13,4) )

  01830	81 7d f8 03 18
	00 00		 cmp	 DWORD PTR __type$[ebp], 6147 ; 00001803H
  01837	7c 09		 jl	 SHORT $LN210@Convert
  01839	81 7d f8 06 18
	00 00		 cmp	 DWORD PTR __type$[ebp], 6150 ; 00001806H
  01840	7e 12		 jle	 SHORT $LN211@Convert
$LN210@Convert:
  01842	81 7d f8 1e 1a
	00 00		 cmp	 DWORD PTR __type$[ebp], 6686 ; 00001a1eH
  01849	74 09		 je	 SHORT $LN211@Convert
  0184b	81 7d f8 04 1a
	00 00		 cmp	 DWORD PTR __type$[ebp], 6660 ; 00001a04H
  01852	75 1a		 jne	 SHORT $LN212@Convert
$LN211@Convert:

; 812  : 			{
; 813  : 				this->m_Defense += this->m_Level * 2;

  01854	8b 45 fc	 mov	 eax, DWORD PTR _this$[ebp]
  01857	0f bf 48 08	 movsx	 ecx, WORD PTR [eax+8]
  0185b	8b 55 fc	 mov	 edx, DWORD PTR _this$[ebp]
  0185e	0f b7 42 16	 movzx	 eax, WORD PTR [edx+22]
  01862	8d 0c 48	 lea	 ecx, DWORD PTR [eax+ecx*2]
  01865	8b 55 fc	 mov	 edx, DWORD PTR _this$[ebp]
  01868	66 89 4a 16	 mov	 WORD PTR [edx+22], cx

; 814  : 			}
; 815  : 			else

  0186c	eb 1a		 jmp	 SHORT $LN209@Convert
$LN212@Convert:

; 816  : 			{
; 817  : 				this->m_Defense += this->m_Level * 3;

  0186e	8b 45 fc	 mov	 eax, DWORD PTR _this$[ebp]
  01871	0f bf 48 08	 movsx	 ecx, WORD PTR [eax+8]
  01875	6b c9 03	 imul	 ecx, 3
  01878	8b 55 fc	 mov	 edx, DWORD PTR _this$[ebp]
  0187b	0f b7 42 16	 movzx	 eax, WORD PTR [edx+22]
  0187f	03 c1		 add	 eax, ecx
  01881	8b 4d fc	 mov	 ecx, DWORD PTR _this$[ebp]
  01884	66 89 41 16	 mov	 WORD PTR [ecx+22], ax
$LN209@Convert:

; 818  : 			}
; 819  : 
; 820  : 			if ( this->m_Level >= 10 )

  01888	8b 45 fc	 mov	 eax, DWORD PTR _this$[ebp]
  0188b	0f bf 48 08	 movsx	 ecx, WORD PTR [eax+8]
  0188f	83 f9 0a	 cmp	 ecx, 10			; 0000000aH
  01892	7c 2c		 jl	 SHORT $LN208@Convert

; 821  : 			{
; 822  : 				this->m_Defense += (this->m_Level - 9) * (this->m_Level - 8) / 2;

  01894	8b 45 fc	 mov	 eax, DWORD PTR _this$[ebp]
  01897	0f bf 40 08	 movsx	 eax, WORD PTR [eax+8]
  0189b	83 e8 09	 sub	 eax, 9
  0189e	8b 4d fc	 mov	 ecx, DWORD PTR _this$[ebp]
  018a1	0f bf 51 08	 movsx	 edx, WORD PTR [ecx+8]
  018a5	83 ea 08	 sub	 edx, 8
  018a8	0f af c2	 imul	 eax, edx
  018ab	99		 cdq
  018ac	2b c2		 sub	 eax, edx
  018ae	d1 f8		 sar	 eax, 1
  018b0	8b 4d fc	 mov	 ecx, DWORD PTR _this$[ebp]
  018b3	0f b7 51 16	 movzx	 edx, WORD PTR [ecx+22]
  018b7	03 d0		 add	 edx, eax
  018b9	8b 45 fc	 mov	 eax, DWORD PTR _this$[ebp]
  018bc	66 89 50 16	 mov	 WORD PTR [eax+22], dx
$LN208@Convert:

; 823  : 			}
; 824  : 		}
; 825  : 	}
; 826  : 
; 827  : 	if ( _type == ITEMGET(13,30) )

  018c0	81 7d f8 1e 1a
	00 00		 cmp	 DWORD PTR __type$[ebp], 6686 ; 00001a1eH
  018c7	75 4a		 jne	 SHORT $LN206@Convert

; 828  : 	{
; 829  : 		this->m_Defense = this->m_Level*2 + 15;

  018c9	8b 45 fc	 mov	 eax, DWORD PTR _this$[ebp]
  018cc	0f bf 48 08	 movsx	 ecx, WORD PTR [eax+8]
  018d0	8d 54 09 0f	 lea	 edx, DWORD PTR [ecx+ecx+15]
  018d4	8b 45 fc	 mov	 eax, DWORD PTR _this$[ebp]
  018d7	66 89 50 16	 mov	 WORD PTR [eax+22], dx

; 830  : 
; 831  : 		if ( this->m_Level >= 10 )

  018db	8b 45 fc	 mov	 eax, DWORD PTR _this$[ebp]
  018de	0f bf 48 08	 movsx	 ecx, WORD PTR [eax+8]
  018e2	83 f9 0a	 cmp	 ecx, 10			; 0000000aH
  018e5	7c 2c		 jl	 SHORT $LN206@Convert

; 832  : 		{
; 833  : 			this->m_Defense += (this->m_Level - 9) * (this->m_Level - 8) / 2;

  018e7	8b 45 fc	 mov	 eax, DWORD PTR _this$[ebp]
  018ea	0f bf 40 08	 movsx	 eax, WORD PTR [eax+8]
  018ee	83 e8 09	 sub	 eax, 9
  018f1	8b 4d fc	 mov	 ecx, DWORD PTR _this$[ebp]
  018f4	0f bf 51 08	 movsx	 edx, WORD PTR [ecx+8]
  018f8	83 ea 08	 sub	 edx, 8
  018fb	0f af c2	 imul	 eax, edx
  018fe	99		 cdq
  018ff	2b c2		 sub	 eax, edx
  01901	d1 f8		 sar	 eax, 1
  01903	8b 4d fc	 mov	 ecx, DWORD PTR _this$[ebp]
  01906	0f b7 51 16	 movzx	 edx, WORD PTR [ecx+22]
  0190a	03 d0		 add	 edx, eax
  0190c	8b 45 fc	 mov	 eax, DWORD PTR _this$[ebp]
  0190f	66 89 50 16	 mov	 WORD PTR [eax+22], dx
$LN206@Convert:

; 834  : 		}
; 835  : 	}
; 836  : 
; 837  : 	//Summoner Wings
; 838  : 	if ( _type == ITEMGET(12,41) )

  01913	81 7d f8 29 18
	00 00		 cmp	 DWORD PTR __type$[ebp], 6185 ; 00001829H
  0191a	75 57		 jne	 SHORT $LN205@Convert

; 839  : 	{
; 840  : 		this->m_Defense += this->m_Level*3;

  0191c	8b 45 fc	 mov	 eax, DWORD PTR _this$[ebp]
  0191f	0f bf 48 08	 movsx	 ecx, WORD PTR [eax+8]
  01923	6b c9 03	 imul	 ecx, 3
  01926	8b 55 fc	 mov	 edx, DWORD PTR _this$[ebp]
  01929	0f b7 42 16	 movzx	 eax, WORD PTR [edx+22]
  0192d	03 c1		 add	 eax, ecx
  0192f	8b 4d fc	 mov	 ecx, DWORD PTR _this$[ebp]
  01932	66 89 41 16	 mov	 WORD PTR [ecx+22], ax

; 841  : 
; 842  : 		if ( this->m_Level >= 10 )

  01936	8b 45 fc	 mov	 eax, DWORD PTR _this$[ebp]
  01939	0f bf 48 08	 movsx	 ecx, WORD PTR [eax+8]
  0193d	83 f9 0a	 cmp	 ecx, 10			; 0000000aH
  01940	7c 2c		 jl	 SHORT $LN204@Convert

; 843  : 		{
; 844  : 			this->m_Defense += (this->m_Level - 9) * (this->m_Level - 8) / 2;

  01942	8b 45 fc	 mov	 eax, DWORD PTR _this$[ebp]
  01945	0f bf 40 08	 movsx	 eax, WORD PTR [eax+8]
  01949	83 e8 09	 sub	 eax, 9
  0194c	8b 4d fc	 mov	 ecx, DWORD PTR _this$[ebp]
  0194f	0f bf 51 08	 movsx	 edx, WORD PTR [ecx+8]
  01953	83 ea 08	 sub	 edx, 8
  01956	0f af c2	 imul	 eax, edx
  01959	99		 cdq
  0195a	2b c2		 sub	 eax, edx
  0195c	d1 f8		 sar	 eax, 1
  0195e	8b 4d fc	 mov	 ecx, DWORD PTR _this$[ebp]
  01961	0f b7 51 16	 movzx	 edx, WORD PTR [ecx+22]
  01965	03 d0		 add	 edx, eax
  01967	8b 45 fc	 mov	 eax, DWORD PTR _this$[ebp]
  0196a	66 89 50 16	 mov	 WORD PTR [eax+22], dx
$LN204@Convert:

; 845  : 		}
; 846  : 	}

  0196e	e9 a1 00 00 00	 jmp	 $LN198@Convert
$LN205@Convert:

; 847  : 	else if ( _type == ITEMGET(12,42) )

  01973	81 7d f8 2a 18
	00 00		 cmp	 DWORD PTR __type$[ebp], 6186 ; 0000182aH
  0197a	75 52		 jne	 SHORT $LN202@Convert

; 848  : 	{
; 849  : 		this->m_Defense += this->m_Level*2;

  0197c	8b 45 fc	 mov	 eax, DWORD PTR _this$[ebp]
  0197f	0f bf 48 08	 movsx	 ecx, WORD PTR [eax+8]
  01983	8b 55 fc	 mov	 edx, DWORD PTR _this$[ebp]
  01986	0f b7 42 16	 movzx	 eax, WORD PTR [edx+22]
  0198a	8d 0c 48	 lea	 ecx, DWORD PTR [eax+ecx*2]
  0198d	8b 55 fc	 mov	 edx, DWORD PTR _this$[ebp]
  01990	66 89 4a 16	 mov	 WORD PTR [edx+22], cx

; 850  : 
; 851  : 		if ( this->m_Level >= 10 )

  01994	8b 45 fc	 mov	 eax, DWORD PTR _this$[ebp]
  01997	0f bf 48 08	 movsx	 ecx, WORD PTR [eax+8]
  0199b	83 f9 0a	 cmp	 ecx, 10			; 0000000aH
  0199e	7c 2c		 jl	 SHORT $LN201@Convert

; 852  : 		{
; 853  : 			this->m_Defense += (this->m_Level - 9) * (this->m_Level - 8) / 2;

  019a0	8b 45 fc	 mov	 eax, DWORD PTR _this$[ebp]
  019a3	0f bf 40 08	 movsx	 eax, WORD PTR [eax+8]
  019a7	83 e8 09	 sub	 eax, 9
  019aa	8b 4d fc	 mov	 ecx, DWORD PTR _this$[ebp]
  019ad	0f bf 51 08	 movsx	 edx, WORD PTR [ecx+8]
  019b1	83 ea 08	 sub	 edx, 8
  019b4	0f af c2	 imul	 eax, edx
  019b7	99		 cdq
  019b8	2b c2		 sub	 eax, edx
  019ba	d1 f8		 sar	 eax, 1
  019bc	8b 4d fc	 mov	 ecx, DWORD PTR _this$[ebp]
  019bf	0f b7 51 16	 movzx	 edx, WORD PTR [ecx+22]
  019c3	03 d0		 add	 edx, eax
  019c5	8b 45 fc	 mov	 eax, DWORD PTR _this$[ebp]
  019c8	66 89 50 16	 mov	 WORD PTR [eax+22], dx
$LN201@Convert:

; 854  : 		}
; 855  : 	}

  019cc	eb 46		 jmp	 SHORT $LN198@Convert
$LN202@Convert:

; 856  : 	else if ( _type == ITEMGET(12,43) )

  019ce	81 7d f8 2b 18
	00 00		 cmp	 DWORD PTR __type$[ebp], 6187 ; 0000182bH
  019d5	75 3d		 jne	 SHORT $LN198@Convert

; 857  : 	{
; 858  : 		this->m_Defense += this->m_Level*4;

  019d7	8b 45 fc	 mov	 eax, DWORD PTR _this$[ebp]
  019da	0f bf 48 08	 movsx	 ecx, WORD PTR [eax+8]
  019de	8b 55 fc	 mov	 edx, DWORD PTR _this$[ebp]
  019e1	0f b7 42 16	 movzx	 eax, WORD PTR [edx+22]
  019e5	8d 0c 88	 lea	 ecx, DWORD PTR [eax+ecx*4]
  019e8	8b 55 fc	 mov	 edx, DWORD PTR _this$[ebp]
  019eb	66 89 4a 16	 mov	 WORD PTR [edx+22], cx

; 859  : 
; 860  : 		if ( this->m_Level >= 10 )

  019ef	8b 45 fc	 mov	 eax, DWORD PTR _this$[ebp]
  019f2	0f bf 48 08	 movsx	 ecx, WORD PTR [eax+8]
  019f6	83 f9 0a	 cmp	 ecx, 10			; 0000000aH
  019f9	7c 19		 jl	 SHORT $LN198@Convert

; 861  : 		{
; 862  : 			this->m_Defense += (this->m_Level - 9);

  019fb	8b 45 fc	 mov	 eax, DWORD PTR _this$[ebp]
  019fe	0f bf 48 08	 movsx	 ecx, WORD PTR [eax+8]
  01a02	8b 55 fc	 mov	 edx, DWORD PTR _this$[ebp]
  01a05	0f b7 42 16	 movzx	 eax, WORD PTR [edx+22]
  01a09	8d 4c 08 f7	 lea	 ecx, DWORD PTR [eax+ecx-9]
  01a0d	8b 55 fc	 mov	 edx, DWORD PTR _this$[ebp]
  01a10	66 89 4a 16	 mov	 WORD PTR [edx+22], cx
$LN198@Convert:

; 863  : 		}
; 864  : 	}
; 865  : 	//
; 866  : 
; 867  : 	if ( p->MagicDefense > 0 )

  01a14	8b 45 f0	 mov	 eax, DWORD PTR _p$[ebp]
  01a17	0f b6 48 2e	 movzx	 ecx, BYTE PTR [eax+46]
  01a1b	85 c9		 test	 ecx, ecx
  01a1d	7e 52		 jle	 SHORT $LN196@Convert

; 868  : 	{
; 869  : 		this->m_MagicDefense += this->m_Level * 3;

  01a1f	8b 45 fc	 mov	 eax, DWORD PTR _this$[ebp]
  01a22	0f bf 48 08	 movsx	 ecx, WORD PTR [eax+8]
  01a26	6b c9 03	 imul	 ecx, 3
  01a29	8b 55 fc	 mov	 edx, DWORD PTR _this$[ebp]
  01a2c	0f b7 42 18	 movzx	 eax, WORD PTR [edx+24]
  01a30	03 c1		 add	 eax, ecx
  01a32	8b 4d fc	 mov	 ecx, DWORD PTR _this$[ebp]
  01a35	66 89 41 18	 mov	 WORD PTR [ecx+24], ax

; 870  : 
; 871  : 		if ( this->m_Level >= 10 )

  01a39	8b 45 fc	 mov	 eax, DWORD PTR _this$[ebp]
  01a3c	0f bf 48 08	 movsx	 ecx, WORD PTR [eax+8]
  01a40	83 f9 0a	 cmp	 ecx, 10			; 0000000aH
  01a43	7c 2c		 jl	 SHORT $LN196@Convert

; 872  : 		{
; 873  : 			this->m_MagicDefense += (this->m_Level - 9) * (this->m_Level - 8) / 2;

  01a45	8b 45 fc	 mov	 eax, DWORD PTR _this$[ebp]
  01a48	0f bf 40 08	 movsx	 eax, WORD PTR [eax+8]
  01a4c	83 e8 09	 sub	 eax, 9
  01a4f	8b 4d fc	 mov	 ecx, DWORD PTR _this$[ebp]
  01a52	0f bf 51 08	 movsx	 edx, WORD PTR [ecx+8]
  01a56	83 ea 08	 sub	 edx, 8
  01a59	0f af c2	 imul	 eax, edx
  01a5c	99		 cdq
  01a5d	2b c2		 sub	 eax, edx
  01a5f	d1 f8		 sar	 eax, 1
  01a61	8b 4d fc	 mov	 ecx, DWORD PTR _this$[ebp]
  01a64	0f b7 51 18	 movzx	 edx, WORD PTR [ecx+24]
  01a68	03 d0		 add	 edx, eax
  01a6a	8b 45 fc	 mov	 eax, DWORD PTR _this$[ebp]
  01a6d	66 89 50 18	 mov	 WORD PTR [eax+24], dx
$LN196@Convert:

; 874  : 		}
; 875  : 	}
; 876  : 
; 877  : 	this->m_Level &= 15;

  01a71	8b 45 fc	 mov	 eax, DWORD PTR _this$[ebp]
  01a74	0f bf 48 08	 movsx	 ecx, WORD PTR [eax+8]
  01a78	83 e1 0f	 and	 ecx, 15			; 0000000fH
  01a7b	8b 55 fc	 mov	 edx, DWORD PTR _this$[ebp]
  01a7e	66 89 4a 08	 mov	 WORD PTR [edx+8], cx

; 878  : 
; 879  : 	memset(this->m_Special, 0, sizeof(this->m_Special));

  01a82	6a 10		 push	 16			; 00000010H
  01a84	6a 00		 push	 0
  01a86	8b 45 fc	 mov	 eax, DWORD PTR _this$[ebp]
  01a89	83 c0 32	 add	 eax, 50			; 00000032H
  01a8c	50		 push	 eax
  01a8d	e8 00 00 00 00	 call	 _memset
  01a92	83 c4 0c	 add	 esp, 12			; 0000000cH

; 880  : 	memset(this->m_SpecialValue, 0, sizeof(this->m_SpecialValue));

  01a95	6a 08		 push	 8
  01a97	6a 00		 push	 0
  01a99	8b 45 fc	 mov	 eax, DWORD PTR _this$[ebp]
  01a9c	83 c0 42	 add	 eax, 66			; 00000042H
  01a9f	50		 push	 eax
  01aa0	e8 00 00 00 00	 call	 _memset
  01aa5	83 c4 0c	 add	 esp, 12			; 0000000cH

; 881  : 	this->m_SpecialNum = 0;

  01aa8	8b 45 fc	 mov	 eax, DWORD PTR _this$[ebp]
  01aab	c6 40 30 00	 mov	 BYTE PTR [eax+48], 0

; 882  : 	this->m_Option1 = 0;

  01aaf	8b 45 fc	 mov	 eax, DWORD PTR _this$[ebp]
  01ab2	c6 80 94 00 00
	00 00		 mov	 BYTE PTR [eax+148], 0

; 883  : 	this->m_Option2 = 0;

  01ab9	8b 45 fc	 mov	 eax, DWORD PTR _this$[ebp]
  01abc	c6 80 95 00 00
	00 00		 mov	 BYTE PTR [eax+149], 0

; 884  : 	this->m_Option3 = 0;

  01ac3	8b 45 fc	 mov	 eax, DWORD PTR _this$[ebp]
  01ac6	c6 80 96 00 00
	00 00		 mov	 BYTE PTR [eax+150], 0

; 885  : 	this->m_SkillChange = FALSE;

  01acd	8b 45 fc	 mov	 eax, DWORD PTR _this$[ebp]
  01ad0	c6 80 ac 00 00
	00 00		 mov	 BYTE PTR [eax+172], 0

; 886  : 
; 887  : 	if ( Option1	!= 0 )

  01ad7	0f b6 45 0c	 movzx	 eax, BYTE PTR _Option1$[ebp]
  01adb	85 c0		 test	 eax, eax
  01add	74 59		 je	 SHORT $LN192@Convert

; 888  : 	{
; 889  : 		if ( p->SkillType != 0 )

  01adf	8b 45 f0	 mov	 eax, DWORD PTR _p$[ebp]
  01ae2	83 78 68 00	 cmp	 DWORD PTR [eax+104], 0
  01ae6	74 50		 je	 SHORT $LN192@Convert

; 890  : 		{
; 891  : 			if ( p->SkillType == 66 )

  01ae8	8b 45 f0	 mov	 eax, DWORD PTR _p$[ebp]
  01aeb	83 78 68 42	 cmp	 DWORD PTR [eax+104], 66	; 00000042H
  01aef	75 27		 jne	 SHORT $LN193@Convert

; 892  : 			{
; 893  : 				this->m_SkillChange = TRUE;

  01af1	8b 45 fc	 mov	 eax, DWORD PTR _this$[ebp]
  01af4	c6 80 ac 00 00
	00 01		 mov	 BYTE PTR [eax+172], 1

; 894  : 				this->m_Special[this->m_SpecialNum] = 0;

  01afb	8b 45 fc	 mov	 eax, DWORD PTR _this$[ebp]
  01afe	0f b6 48 30	 movzx	 ecx, BYTE PTR [eax+48]
  01b02	33 d2		 xor	 edx, edx
  01b04	8b 45 fc	 mov	 eax, DWORD PTR _this$[ebp]
  01b07	66 89 54 48 32	 mov	 WORD PTR [eax+ecx*2+50], dx

; 895  : 				this->m_Option1 = 1;

  01b0c	8b 45 fc	 mov	 eax, DWORD PTR _this$[ebp]
  01b0f	c6 80 94 00 00
	00 01		 mov	 BYTE PTR [eax+148], 1

; 896  : 			}
; 897  : 			else

  01b16	eb 20		 jmp	 SHORT $LN192@Convert
$LN193@Convert:

; 898  : 			{
; 899  : 				this->m_Special[this->m_SpecialNum] = p->SkillType;

  01b18	8b 45 fc	 mov	 eax, DWORD PTR _this$[ebp]
  01b1b	0f b6 48 30	 movzx	 ecx, BYTE PTR [eax+48]
  01b1f	8b 55 fc	 mov	 edx, DWORD PTR _this$[ebp]
  01b22	8b 45 f0	 mov	 eax, DWORD PTR _p$[ebp]
  01b25	66 8b 40 68	 mov	 ax, WORD PTR [eax+104]
  01b29	66 89 44 4a 32	 mov	 WORD PTR [edx+ecx*2+50], ax

; 900  : 				this->m_Option1 = 1;

  01b2e	8b 45 fc	 mov	 eax, DWORD PTR _this$[ebp]
  01b31	c6 80 94 00 00
	00 01		 mov	 BYTE PTR [eax+148], 1
$LN192@Convert:

; 901  : 			}
; 902  : 		}
; 903  : 	}
; 904  : 
; 905  : 	if ( this->m_Type == ITEMGET(13,3) )	// Dinorant

  01b38	8b 45 fc	 mov	 eax, DWORD PTR _this$[ebp]
  01b3b	0f bf 48 06	 movsx	 ecx, WORD PTR [eax+6]
  01b3f	81 f9 03 1a 00
	00		 cmp	 ecx, 6659		; 00001a03H
  01b45	75 1e		 jne	 SHORT $LN191@Convert

; 906  : 	{
; 907  : 		this->m_Option1 = TRUE;

  01b47	8b 45 fc	 mov	 eax, DWORD PTR _this$[ebp]
  01b4a	c6 80 94 00 00
	00 01		 mov	 BYTE PTR [eax+148], 1

; 908  : 		this->m_Special[this->m_SpecialNum] = 49;

  01b51	8b 45 fc	 mov	 eax, DWORD PTR _this$[ebp]
  01b54	0f b6 48 30	 movzx	 ecx, BYTE PTR [eax+48]
  01b58	ba 31 00 00 00	 mov	 edx, 49			; 00000031H
  01b5d	8b 45 fc	 mov	 eax, DWORD PTR _this$[ebp]
  01b60	66 89 54 48 32	 mov	 WORD PTR [eax+ecx*2+50], dx
$LN191@Convert:

; 909  : 	}
; 910  : 
; 911  : 	if ( this->m_Type == ITEMGET(13,4) )	//Dark Horse

  01b65	8b 45 fc	 mov	 eax, DWORD PTR _this$[ebp]
  01b68	0f bf 48 06	 movsx	 ecx, WORD PTR [eax+6]
  01b6c	81 f9 04 1a 00
	00		 cmp	 ecx, 6660		; 00001a04H
  01b72	75 1e		 jne	 SHORT $LN190@Convert

; 912  : 	{
; 913  : 		this->m_Option1 = TRUE;

  01b74	8b 45 fc	 mov	 eax, DWORD PTR _this$[ebp]
  01b77	c6 80 94 00 00
	00 01		 mov	 BYTE PTR [eax+148], 1

; 914  : 		this->m_Special[this->m_SpecialNum] = 62;

  01b7e	8b 45 fc	 mov	 eax, DWORD PTR _this$[ebp]
  01b81	0f b6 48 30	 movzx	 ecx, BYTE PTR [eax+48]
  01b85	ba 3e 00 00 00	 mov	 edx, 62			; 0000003eH
  01b8a	8b 45 fc	 mov	 eax, DWORD PTR _this$[ebp]
  01b8d	66 89 54 48 32	 mov	 WORD PTR [eax+ecx*2+50], dx
$LN190@Convert:

; 915  : 	}
; 916  : 
; 917  : 	if ( this->m_Type == ITEMGET(13,37) )

  01b92	8b 45 fc	 mov	 eax, DWORD PTR _this$[ebp]
  01b95	0f bf 48 06	 movsx	 ecx, WORD PTR [eax+6]
  01b99	81 f9 25 1a 00
	00		 cmp	 ecx, 6693		; 00001a25H
  01b9f	75 1e		 jne	 SHORT $LN189@Convert

; 918  : 	{
; 919  : 		this->m_Option1 = TRUE;

  01ba1	8b 45 fc	 mov	 eax, DWORD PTR _this$[ebp]
  01ba4	c6 80 94 00 00
	00 01		 mov	 BYTE PTR [eax+148], 1

; 920  : 		this->m_Special[this->m_SpecialNum] = 76;

  01bab	8b 45 fc	 mov	 eax, DWORD PTR _this$[ebp]
  01bae	0f b6 48 30	 movzx	 ecx, BYTE PTR [eax+48]
  01bb2	ba 4c 00 00 00	 mov	 edx, 76			; 0000004cH
  01bb7	8b 45 fc	 mov	 eax, DWORD PTR _this$[ebp]
  01bba	66 89 54 48 32	 mov	 WORD PTR [eax+ecx*2+50], dx
$LN189@Convert:

; 921  : 	}
; 922  : 
; 923  : 	this->m_SpecialNum++;

  01bbf	8b 45 fc	 mov	 eax, DWORD PTR _this$[ebp]
  01bc2	8a 48 30	 mov	 cl, BYTE PTR [eax+48]
  01bc5	80 c1 01	 add	 cl, 1
  01bc8	8b 55 fc	 mov	 edx, DWORD PTR _this$[ebp]
  01bcb	88 4a 30	 mov	 BYTE PTR [edx+48], cl

; 924  : 
; 925  : 	if ( Option2 != 0 )

  01bce	0f b6 45 10	 movzx	 eax, BYTE PTR _Option2$[ebp]
  01bd2	85 c0		 test	 eax, eax
  01bd4	0f 84 f8 01 00
	00		 je	 $LN179@Convert

; 926  : 	{
; 927  : 		if ( _type >= ITEMGET(0,0) && _type < ITEMGET(12,0) )

  01bda	83 7d f8 00	 cmp	 DWORD PTR __type$[ebp], 0
  01bde	7c 27		 jl	 SHORT $LN187@Convert
  01be0	81 7d f8 00 18
	00 00		 cmp	 DWORD PTR __type$[ebp], 6144 ; 00001800H
  01be7	7d 1e		 jge	 SHORT $LN187@Convert

; 928  : 		{
; 929  : 			this->m_Special[this->m_SpecialNum] = 84;

  01be9	8b 45 fc	 mov	 eax, DWORD PTR _this$[ebp]
  01bec	0f b6 48 30	 movzx	 ecx, BYTE PTR [eax+48]
  01bf0	ba 54 00 00 00	 mov	 edx, 84			; 00000054H
  01bf5	8b 45 fc	 mov	 eax, DWORD PTR _this$[ebp]
  01bf8	66 89 54 48 32	 mov	 WORD PTR [eax+ecx*2+50], dx

; 930  : 			this->m_Option2 = 1;

  01bfd	8b 45 fc	 mov	 eax, DWORD PTR _this$[ebp]
  01c00	c6 80 95 00 00
	00 01		 mov	 BYTE PTR [eax+149], 1
$LN187@Convert:

; 931  : 		}
; 932  : 
; 933  : 		if ( _type >= ITEMGET(12,0) && _type <= ITEMGET(12,6) )	// Wings

  01c07	81 7d f8 00 18
	00 00		 cmp	 DWORD PTR __type$[ebp], 6144 ; 00001800H
  01c0e	7c 27		 jl	 SHORT $LN186@Convert
  01c10	81 7d f8 06 18
	00 00		 cmp	 DWORD PTR __type$[ebp], 6150 ; 00001806H
  01c17	7f 1e		 jg	 SHORT $LN186@Convert

; 934  : 		{
; 935  : 			this->m_Special[this->m_SpecialNum] = 84;

  01c19	8b 45 fc	 mov	 eax, DWORD PTR _this$[ebp]
  01c1c	0f b6 48 30	 movzx	 ecx, BYTE PTR [eax+48]
  01c20	ba 54 00 00 00	 mov	 edx, 84			; 00000054H
  01c25	8b 45 fc	 mov	 eax, DWORD PTR _this$[ebp]
  01c28	66 89 54 48 32	 mov	 WORD PTR [eax+ecx*2+50], dx

; 936  : 			this->m_Option2 = 1;

  01c2d	8b 45 fc	 mov	 eax, DWORD PTR _this$[ebp]
  01c30	c6 80 95 00 00
	00 01		 mov	 BYTE PTR [eax+149], 1
$LN186@Convert:

; 937  : 		}
; 938  : 
; 939  : 		if ( _type == ITEMGET(13,30) )	// Cape of Lord

  01c37	81 7d f8 1e 1a
	00 00		 cmp	 DWORD PTR __type$[ebp], 6686 ; 00001a1eH
  01c3e	75 1e		 jne	 SHORT $LN185@Convert

; 940  : 		{
; 941  : 			this->m_Special[this->m_SpecialNum] = 84;

  01c40	8b 45 fc	 mov	 eax, DWORD PTR _this$[ebp]
  01c43	0f b6 48 30	 movzx	 ecx, BYTE PTR [eax+48]
  01c47	ba 54 00 00 00	 mov	 edx, 84			; 00000054H
  01c4c	8b 45 fc	 mov	 eax, DWORD PTR _this$[ebp]
  01c4f	66 89 54 48 32	 mov	 WORD PTR [eax+ecx*2+50], dx

; 942  : 			this->m_Option2 = 1;

  01c54	8b 45 fc	 mov	 eax, DWORD PTR _this$[ebp]
  01c57	c6 80 95 00 00
	00 01		 mov	 BYTE PTR [eax+149], 1
$LN185@Convert:

; 943  : 		}
; 944  : #ifdef NEWWINGS_6
; 945  : 		if ( IS_NEWWINGS_6(_type) )	//Custom Wings4

  01c5e	81 7d f8 c3 18
	00 00		 cmp	 DWORD PTR __type$[ebp], 6339 ; 000018c3H
  01c65	7d 09		 jge	 SHORT $LN419@Convert
  01c67	c7 45 8c 00 00
	00 00		 mov	 DWORD PTR tv1497[ebp], 0
  01c6e	eb 0f		 jmp	 SHORT $LN420@Convert
$LN419@Convert:
  01c70	33 c0		 xor	 eax, eax
  01c72	81 7d f8 dc 18
	00 00		 cmp	 DWORD PTR __type$[ebp], 6364 ; 000018dcH
  01c79	0f 9e c0	 setle	 al
  01c7c	89 45 8c	 mov	 DWORD PTR tv1497[ebp], eax
$LN420@Convert:
  01c7f	83 7d 8c 00	 cmp	 DWORD PTR tv1497[ebp], 0
  01c83	74 1e		 je	 SHORT $LN184@Convert

; 946  : 		{
; 947  : 			this->m_Special[this->m_SpecialNum] = 84;

  01c85	8b 45 fc	 mov	 eax, DWORD PTR _this$[ebp]
  01c88	0f b6 48 30	 movzx	 ecx, BYTE PTR [eax+48]
  01c8c	ba 54 00 00 00	 mov	 edx, 84			; 00000054H
  01c91	8b 45 fc	 mov	 eax, DWORD PTR _this$[ebp]
  01c94	66 89 54 48 32	 mov	 WORD PTR [eax+ecx*2+50], dx

; 948  : 			this->m_Option2 = 1;

  01c99	8b 45 fc	 mov	 eax, DWORD PTR _this$[ebp]
  01c9c	c6 80 95 00 00
	00 01		 mov	 BYTE PTR [eax+149], 1
$LN184@Convert:

; 949  : 		}
; 950  : #endif
; 951  : #ifdef NEWWINGS_5
; 952  : 		if ( IS_NEWWINGS_5(_type) )	//Custom Wings4

  01ca3	81 7d f8 bd 18
	00 00		 cmp	 DWORD PTR __type$[ebp], 6333 ; 000018bdH
  01caa	7d 09		 jge	 SHORT $LN421@Convert
  01cac	c7 45 8c 00 00
	00 00		 mov	 DWORD PTR tv1508[ebp], 0
  01cb3	eb 0f		 jmp	 SHORT $LN422@Convert
$LN421@Convert:
  01cb5	33 c0		 xor	 eax, eax
  01cb7	81 7d f8 c2 18
	00 00		 cmp	 DWORD PTR __type$[ebp], 6338 ; 000018c2H
  01cbe	0f 9e c0	 setle	 al
  01cc1	89 45 8c	 mov	 DWORD PTR tv1508[ebp], eax
$LN422@Convert:
  01cc4	83 7d 8c 00	 cmp	 DWORD PTR tv1508[ebp], 0
  01cc8	74 1e		 je	 SHORT $LN183@Convert

; 953  : 		{
; 954  : 			this->m_Special[this->m_SpecialNum] = 84;

  01cca	8b 45 fc	 mov	 eax, DWORD PTR _this$[ebp]
  01ccd	0f b6 48 30	 movzx	 ecx, BYTE PTR [eax+48]
  01cd1	ba 54 00 00 00	 mov	 edx, 84			; 00000054H
  01cd6	8b 45 fc	 mov	 eax, DWORD PTR _this$[ebp]
  01cd9	66 89 54 48 32	 mov	 WORD PTR [eax+ecx*2+50], dx

; 955  : 			this->m_Option2 = 1;

  01cde	8b 45 fc	 mov	 eax, DWORD PTR _this$[ebp]
  01ce1	c6 80 95 00 00
	00 01		 mov	 BYTE PTR [eax+149], 1
$LN183@Convert:

; 956  : 		}
; 957  : #endif
; 958  : #ifdef NEWWINGS_2_5
; 959  : 		if ( IS_NEWWINGS_2_5(_type) )	//Custom Wings4

  01ce8	81 7d f8 ba 18
	00 00		 cmp	 DWORD PTR __type$[ebp], 6330 ; 000018baH
  01cef	7d 09		 jge	 SHORT $LN423@Convert
  01cf1	c7 45 8c 00 00
	00 00		 mov	 DWORD PTR tv1519[ebp], 0
  01cf8	eb 0f		 jmp	 SHORT $LN424@Convert
$LN423@Convert:
  01cfa	33 c0		 xor	 eax, eax
  01cfc	81 7d f8 bc 18
	00 00		 cmp	 DWORD PTR __type$[ebp], 6332 ; 000018bcH
  01d03	0f 9e c0	 setle	 al
  01d06	89 45 8c	 mov	 DWORD PTR tv1519[ebp], eax
$LN424@Convert:
  01d09	83 7d 8c 00	 cmp	 DWORD PTR tv1519[ebp], 0
  01d0d	74 1e		 je	 SHORT $LN182@Convert

; 960  : 		{
; 961  : 			this->m_Special[this->m_SpecialNum] = 84;

  01d0f	8b 45 fc	 mov	 eax, DWORD PTR _this$[ebp]
  01d12	0f b6 48 30	 movzx	 ecx, BYTE PTR [eax+48]
  01d16	ba 54 00 00 00	 mov	 edx, 84			; 00000054H
  01d1b	8b 45 fc	 mov	 eax, DWORD PTR _this$[ebp]
  01d1e	66 89 54 48 32	 mov	 WORD PTR [eax+ecx*2+50], dx

; 962  : 			this->m_Option2 = 1;

  01d23	8b 45 fc	 mov	 eax, DWORD PTR _this$[ebp]
  01d26	c6 80 95 00 00
	00 01		 mov	 BYTE PTR [eax+149], 1
$LN182@Convert:

; 963  : 		}
; 964  : #endif
; 965  : #ifdef NEWWINGS_4
; 966  : 		if ( IS_NEWWINGS_4(_type) )	//Custom Wings4

  01d2d	81 7d f8 b4 18
	00 00		 cmp	 DWORD PTR __type$[ebp], 6324 ; 000018b4H
  01d34	7d 09		 jge	 SHORT $LN425@Convert
  01d36	c7 45 8c 00 00
	00 00		 mov	 DWORD PTR tv1530[ebp], 0
  01d3d	eb 0f		 jmp	 SHORT $LN426@Convert
$LN425@Convert:
  01d3f	33 c0		 xor	 eax, eax
  01d41	81 7d f8 b9 18
	00 00		 cmp	 DWORD PTR __type$[ebp], 6329 ; 000018b9H
  01d48	0f 9e c0	 setle	 al
  01d4b	89 45 8c	 mov	 DWORD PTR tv1530[ebp], eax
$LN426@Convert:
  01d4e	83 7d 8c 00	 cmp	 DWORD PTR tv1530[ebp], 0
  01d52	74 1e		 je	 SHORT $LN181@Convert

; 967  : 		{
; 968  : 			this->m_Special[this->m_SpecialNum] = 84;

  01d54	8b 45 fc	 mov	 eax, DWORD PTR _this$[ebp]
  01d57	0f b6 48 30	 movzx	 ecx, BYTE PTR [eax+48]
  01d5b	ba 54 00 00 00	 mov	 edx, 84			; 00000054H
  01d60	8b 45 fc	 mov	 eax, DWORD PTR _this$[ebp]
  01d63	66 89 54 48 32	 mov	 WORD PTR [eax+ecx*2+50], dx

; 969  : 			this->m_Option2 = 1;

  01d68	8b 45 fc	 mov	 eax, DWORD PTR _this$[ebp]
  01d6b	c6 80 95 00 00
	00 01		 mov	 BYTE PTR [eax+149], 1
$LN181@Convert:

; 970  : 		}
; 971  : #endif
; 972  : 
; 973  : 		if ( _type >= ITEMGET(12,36) && _type <= ITEMGET(12,43) )	//Season 3.5 Summoner Wings

  01d72	81 7d f8 24 18
	00 00		 cmp	 DWORD PTR __type$[ebp], 6180 ; 00001824H
  01d79	7c 27		 jl	 SHORT $LN180@Convert
  01d7b	81 7d f8 2b 18
	00 00		 cmp	 DWORD PTR __type$[ebp], 6187 ; 0000182bH
  01d82	7f 1e		 jg	 SHORT $LN180@Convert

; 974  : 		{
; 975  : 			this->m_Special[this->m_SpecialNum] = 84;

  01d84	8b 45 fc	 mov	 eax, DWORD PTR _this$[ebp]
  01d87	0f b6 48 30	 movzx	 ecx, BYTE PTR [eax+48]
  01d8b	ba 54 00 00 00	 mov	 edx, 84			; 00000054H
  01d90	8b 45 fc	 mov	 eax, DWORD PTR _this$[ebp]
  01d93	66 89 54 48 32	 mov	 WORD PTR [eax+ecx*2+50], dx

; 976  : 			this->m_Option2 = 1;

  01d98	8b 45 fc	 mov	 eax, DWORD PTR _this$[ebp]
  01d9b	c6 80 95 00 00
	00 01		 mov	 BYTE PTR [eax+149], 1
$LN180@Convert:

; 977  : 		}
; 978  : 
; 979  : 		if(_type == ITEMGET(12,49) || _type == ITEMGET(12,50))

  01da2	81 7d f8 31 18
	00 00		 cmp	 DWORD PTR __type$[ebp], 6193 ; 00001831H
  01da9	74 09		 je	 SHORT $LN178@Convert
  01dab	81 7d f8 32 18
	00 00		 cmp	 DWORD PTR __type$[ebp], 6194 ; 00001832H
  01db2	75 1e		 jne	 SHORT $LN179@Convert
$LN178@Convert:

; 980  : 		{
; 981  : 			this->m_Special[this->m_SpecialNum] = 84;

  01db4	8b 45 fc	 mov	 eax, DWORD PTR _this$[ebp]
  01db7	0f b6 48 30	 movzx	 ecx, BYTE PTR [eax+48]
  01dbb	ba 54 00 00 00	 mov	 edx, 84			; 00000054H
  01dc0	8b 45 fc	 mov	 eax, DWORD PTR _this$[ebp]
  01dc3	66 89 54 48 32	 mov	 WORD PTR [eax+ecx*2+50], dx

; 982  : 			this->m_Option2 = 1;

  01dc8	8b 45 fc	 mov	 eax, DWORD PTR _this$[ebp]
  01dcb	c6 80 95 00 00
	00 01		 mov	 BYTE PTR [eax+149], 1
$LN179@Convert:

; 983  : 		}
; 984  : 	}
; 985  : 
; 986  : 	this->m_SpecialNum++;

  01dd2	8b 45 fc	 mov	 eax, DWORD PTR _this$[ebp]
  01dd5	8a 48 30	 mov	 cl, BYTE PTR [eax+48]
  01dd8	80 c1 01	 add	 cl, 1
  01ddb	8b 55 fc	 mov	 edx, DWORD PTR _this$[ebp]
  01dde	88 4a 30	 mov	 BYTE PTR [edx+48], cl

; 987  : 
; 988  : 	if ( Option3 != 0 )

  01de1	0f b6 45 14	 movzx	 eax, BYTE PTR _Option3$[ebp]
  01de5	85 c0		 test	 eax, eax
  01de7	0f 84 7a 0b 00
	00		 je	 $LN72@Convert

; 989  : 	{
; 990  : 		if ( _type >= ITEMGET(0,0) && _type < ITEMGET(5,0) )

  01ded	83 7d f8 00	 cmp	 DWORD PTR __type$[ebp], 0
  01df1	7c 29		 jl	 SHORT $LN176@Convert
  01df3	81 7d f8 00 0a
	00 00		 cmp	 DWORD PTR __type$[ebp], 2560 ; 00000a00H
  01dfa	7d 20		 jge	 SHORT $LN176@Convert

; 991  : 		{
; 992  : 			this->m_Special[this->m_SpecialNum] = 80;

  01dfc	8b 45 fc	 mov	 eax, DWORD PTR _this$[ebp]
  01dff	0f b6 48 30	 movzx	 ecx, BYTE PTR [eax+48]
  01e03	ba 50 00 00 00	 mov	 edx, 80			; 00000050H
  01e08	8b 45 fc	 mov	 eax, DWORD PTR _this$[ebp]
  01e0b	66 89 54 48 32	 mov	 WORD PTR [eax+ecx*2+50], dx

; 993  : 			this->m_Option3 = Option3;

  01e10	8b 45 fc	 mov	 eax, DWORD PTR _this$[ebp]
  01e13	8a 4d 14	 mov	 cl, BYTE PTR _Option3$[ebp]
  01e16	88 88 96 00 00
	00		 mov	 BYTE PTR [eax+150], cl
$LN176@Convert:

; 994  : #if(FIX_REQSTR_ITEM==FALSE)
; 995  : 			this->m_RequireStrength +=  Option3 * 4;
; 996  : #endif
; 997  : 		}
; 998  : 
; 999  : 		if ( _type >= ITEMGET(5,0) && _type < ITEMGET(6,0) )

  01e1c	81 7d f8 00 0a
	00 00		 cmp	 DWORD PTR __type$[ebp], 2560 ; 00000a00H
  01e23	7c 48		 jl	 SHORT $LN175@Convert
  01e25	81 7d f8 00 0c
	00 00		 cmp	 DWORD PTR __type$[ebp], 3072 ; 00000c00H
  01e2c	7d 3f		 jge	 SHORT $LN175@Convert

; 1000 : 		{
; 1001 : 			if(p->ItemSlot == 1)

  01e2e	8b 45 f0	 mov	 eax, DWORD PTR _p$[ebp]
  01e31	83 78 64 01	 cmp	 DWORD PTR [eax+100], 1
  01e35	75 16		 jne	 SHORT $LN174@Convert

; 1002 : 			{
; 1003 : 				this->m_Special[this->m_SpecialNum] = 113;

  01e37	8b 45 fc	 mov	 eax, DWORD PTR _this$[ebp]
  01e3a	0f b6 48 30	 movzx	 ecx, BYTE PTR [eax+48]
  01e3e	ba 71 00 00 00	 mov	 edx, 113		; 00000071H
  01e43	8b 45 fc	 mov	 eax, DWORD PTR _this$[ebp]
  01e46	66 89 54 48 32	 mov	 WORD PTR [eax+ecx*2+50], dx

; 1004 : 			}
; 1005 : 			else

  01e4b	eb 14		 jmp	 SHORT $LN173@Convert
$LN174@Convert:

; 1006 : 			{
; 1007 : 				this->m_Special[this->m_SpecialNum] = 81;

  01e4d	8b 45 fc	 mov	 eax, DWORD PTR _this$[ebp]
  01e50	0f b6 48 30	 movzx	 ecx, BYTE PTR [eax+48]
  01e54	ba 51 00 00 00	 mov	 edx, 81			; 00000051H
  01e59	8b 45 fc	 mov	 eax, DWORD PTR _this$[ebp]
  01e5c	66 89 54 48 32	 mov	 WORD PTR [eax+ecx*2+50], dx
$LN173@Convert:

; 1008 : 			}
; 1009 : 			
; 1010 : 			this->m_Option3 = Option3;

  01e61	8b 45 fc	 mov	 eax, DWORD PTR _this$[ebp]
  01e64	8a 4d 14	 mov	 cl, BYTE PTR _Option3$[ebp]
  01e67	88 88 96 00 00
	00		 mov	 BYTE PTR [eax+150], cl
$LN175@Convert:

; 1011 : #if(FIX_REQSTR_ITEM==FALSE)
; 1012 : 			this->m_RequireStrength +=  Option3 * 4;
; 1013 : #endif
; 1014 : 		}
; 1015 : 		
; 1016 : 		if ( _type >= ITEMGET(6,0) && _type < ITEMGET(7,0) )

  01e6d	81 7d f8 00 0c
	00 00		 cmp	 DWORD PTR __type$[ebp], 3072 ; 00000c00H
  01e74	7c 29		 jl	 SHORT $LN172@Convert
  01e76	81 7d f8 00 0e
	00 00		 cmp	 DWORD PTR __type$[ebp], 3584 ; 00000e00H
  01e7d	7d 20		 jge	 SHORT $LN172@Convert

; 1017 : 		{
; 1018 : 			this->m_Special[this->m_SpecialNum] = 82;

  01e7f	8b 45 fc	 mov	 eax, DWORD PTR _this$[ebp]
  01e82	0f b6 48 30	 movzx	 ecx, BYTE PTR [eax+48]
  01e86	ba 52 00 00 00	 mov	 edx, 82			; 00000052H
  01e8b	8b 45 fc	 mov	 eax, DWORD PTR _this$[ebp]
  01e8e	66 89 54 48 32	 mov	 WORD PTR [eax+ecx*2+50], dx

; 1019 : 			this->m_Option3 = Option3;

  01e93	8b 45 fc	 mov	 eax, DWORD PTR _this$[ebp]
  01e96	8a 4d 14	 mov	 cl, BYTE PTR _Option3$[ebp]
  01e99	88 88 96 00 00
	00		 mov	 BYTE PTR [eax+150], cl
$LN172@Convert:

; 1020 : #if(FIX_REQSTR_ITEM==FALSE)
; 1021 : 			this->m_RequireStrength +=  Option3 * 4;
; 1022 : #endif
; 1023 : 		}
; 1024 : 
; 1025 : 		if ( _type >= ITEMGET(7,0) && _type < ITEMGET(12,0) )

  01e9f	81 7d f8 00 0e
	00 00		 cmp	 DWORD PTR __type$[ebp], 3584 ; 00000e00H
  01ea6	7c 29		 jl	 SHORT $LN171@Convert
  01ea8	81 7d f8 00 18
	00 00		 cmp	 DWORD PTR __type$[ebp], 6144 ; 00001800H
  01eaf	7d 20		 jge	 SHORT $LN171@Convert

; 1026 : 		{
; 1027 : 			this->m_Special[this->m_SpecialNum] = 83;

  01eb1	8b 45 fc	 mov	 eax, DWORD PTR _this$[ebp]
  01eb4	0f b6 48 30	 movzx	 ecx, BYTE PTR [eax+48]
  01eb8	ba 53 00 00 00	 mov	 edx, 83			; 00000053H
  01ebd	8b 45 fc	 mov	 eax, DWORD PTR _this$[ebp]
  01ec0	66 89 54 48 32	 mov	 WORD PTR [eax+ecx*2+50], dx

; 1028 : 			this->m_Option3 = Option3;

  01ec5	8b 45 fc	 mov	 eax, DWORD PTR _this$[ebp]
  01ec8	8a 4d 14	 mov	 cl, BYTE PTR _Option3$[ebp]
  01ecb	88 88 96 00 00
	00		 mov	 BYTE PTR [eax+150], cl
$LN171@Convert:

; 1029 : #if(FIX_REQSTR_ITEM==FALSE)
; 1030 : 			this->m_RequireStrength +=  Option3 * 4;
; 1031 : #endif
; 1032 : 		}
; 1033 : 
; 1034 : 		if ( (_type >= ITEMGET(13,8) && _type < ITEMGET(13,14)) || (_type >= ITEMGET(13,20) && _type <= ITEMGET(13,28)) )

  01ed1	81 7d f8 08 1a
	00 00		 cmp	 DWORD PTR __type$[ebp], 6664 ; 00001a08H
  01ed8	7c 09		 jl	 SHORT $LN168@Convert
  01eda	81 7d f8 0e 1a
	00 00		 cmp	 DWORD PTR __type$[ebp], 6670 ; 00001a0eH
  01ee1	7c 12		 jl	 SHORT $LN169@Convert
$LN168@Convert:
  01ee3	81 7d f8 14 1a
	00 00		 cmp	 DWORD PTR __type$[ebp], 6676 ; 00001a14H
  01eea	7c 7f		 jl	 SHORT $LN164@Convert
  01eec	81 7d f8 1c 1a
	00 00		 cmp	 DWORD PTR __type$[ebp], 6684 ; 00001a1cH
  01ef3	7f 76		 jg	 SHORT $LN164@Convert
$LN169@Convert:

; 1035 : 		{
; 1036 : 			if ( _type == ITEMGET(13,24) ) // Ring of MAgic

  01ef5	81 7d f8 18 1a
	00 00		 cmp	 DWORD PTR __type$[ebp], 6680 ; 00001a18H
  01efc	75 22		 jne	 SHORT $LN167@Convert

; 1037 : 			{
; 1038 : 				this->m_Special[this->m_SpecialNum] = 172;

  01efe	8b 45 fc	 mov	 eax, DWORD PTR _this$[ebp]
  01f01	0f b6 48 30	 movzx	 ecx, BYTE PTR [eax+48]
  01f05	ba ac 00 00 00	 mov	 edx, 172		; 000000acH
  01f0a	8b 45 fc	 mov	 eax, DWORD PTR _this$[ebp]
  01f0d	66 89 54 48 32	 mov	 WORD PTR [eax+ecx*2+50], dx

; 1039 : 				this->m_Option3 = Option3;

  01f12	8b 45 fc	 mov	 eax, DWORD PTR _this$[ebp]
  01f15	8a 4d 14	 mov	 cl, BYTE PTR _Option3$[ebp]
  01f18	88 88 96 00 00
	00		 mov	 BYTE PTR [eax+150], cl
  01f1e	eb 4b		 jmp	 SHORT $LN164@Convert
$LN167@Convert:

; 1040 : 			}
; 1041 : 			else if ( _type == ITEMGET(13,28) ) // Pendant of abilit

  01f20	81 7d f8 1c 1a
	00 00		 cmp	 DWORD PTR __type$[ebp], 6684 ; 00001a1cH
  01f27	75 22		 jne	 SHORT $LN165@Convert

; 1042 : 			{
; 1043 : 				this->m_Special[this->m_SpecialNum] = 173;

  01f29	8b 45 fc	 mov	 eax, DWORD PTR _this$[ebp]
  01f2c	0f b6 48 30	 movzx	 ecx, BYTE PTR [eax+48]
  01f30	ba ad 00 00 00	 mov	 edx, 173		; 000000adH
  01f35	8b 45 fc	 mov	 eax, DWORD PTR _this$[ebp]
  01f38	66 89 54 48 32	 mov	 WORD PTR [eax+ecx*2+50], dx

; 1044 : 				this->m_Option3 = Option3;

  01f3d	8b 45 fc	 mov	 eax, DWORD PTR _this$[ebp]
  01f40	8a 4d 14	 mov	 cl, BYTE PTR _Option3$[ebp]
  01f43	88 88 96 00 00
	00		 mov	 BYTE PTR [eax+150], cl

; 1045 : 			}
; 1046 : 			else  

  01f49	eb 20		 jmp	 SHORT $LN164@Convert
$LN165@Convert:

; 1047 : 			{
; 1048 : 				this->m_Special[this->m_SpecialNum] = 85;

  01f4b	8b 45 fc	 mov	 eax, DWORD PTR _this$[ebp]
  01f4e	0f b6 48 30	 movzx	 ecx, BYTE PTR [eax+48]
  01f52	ba 55 00 00 00	 mov	 edx, 85			; 00000055H
  01f57	8b 45 fc	 mov	 eax, DWORD PTR _this$[ebp]
  01f5a	66 89 54 48 32	 mov	 WORD PTR [eax+ecx*2+50], dx

; 1049 : 				this->m_Option3 = Option3;

  01f5f	8b 45 fc	 mov	 eax, DWORD PTR _this$[ebp]
  01f62	8a 4d 14	 mov	 cl, BYTE PTR _Option3$[ebp]
  01f65	88 88 96 00 00
	00		 mov	 BYTE PTR [eax+150], cl
$LN164@Convert:

; 1050 : 			}
; 1051 : 		}
; 1052 : 		
; 1053 : 		if ( _type == ITEMGET(13,30) ) // Cape of lord 

  01f6b	81 7d f8 1e 1a
	00 00		 cmp	 DWORD PTR __type$[ebp], 6686 ; 00001a1eH
  01f72	75 20		 jne	 SHORT $LN163@Convert

; 1054 : 		{
; 1055 : 			this->m_Special[this->m_SpecialNum] = 80;

  01f74	8b 45 fc	 mov	 eax, DWORD PTR _this$[ebp]
  01f77	0f b6 48 30	 movzx	 ecx, BYTE PTR [eax+48]
  01f7b	ba 50 00 00 00	 mov	 edx, 80			; 00000050H
  01f80	8b 45 fc	 mov	 eax, DWORD PTR _this$[ebp]
  01f83	66 89 54 48 32	 mov	 WORD PTR [eax+ecx*2+50], dx

; 1056 : 			this->m_Option3 = Option3;

  01f88	8b 45 fc	 mov	 eax, DWORD PTR _this$[ebp]
  01f8b	8a 4d 14	 mov	 cl, BYTE PTR _Option3$[ebp]
  01f8e	88 88 96 00 00
	00		 mov	 BYTE PTR [eax+150], cl
$LN163@Convert:

; 1057 : #if(FIX_REQSTR_ITEM==FALSE)
; 1058 : 			this->m_RequireStrength +=  Option3 * 4;
; 1059 : #endif
; 1060 : 		}
; 1061 : 
; 1062 : 		if ( _type == ITEMGET(12,0) )	// Wing elf

  01f94	81 7d f8 00 18
	00 00		 cmp	 DWORD PTR __type$[ebp], 6144 ; 00001800H
  01f9b	75 25		 jne	 SHORT $LN162@Convert

; 1063 : 		{
; 1064 : 			this->m_Special[this->m_SpecialNum] = 85;

  01f9d	8b 45 fc	 mov	 eax, DWORD PTR _this$[ebp]
  01fa0	0f b6 48 30	 movzx	 ecx, BYTE PTR [eax+48]
  01fa4	ba 55 00 00 00	 mov	 edx, 85			; 00000055H
  01fa9	8b 45 fc	 mov	 eax, DWORD PTR _this$[ebp]
  01fac	66 89 54 48 32	 mov	 WORD PTR [eax+ecx*2+50], dx

; 1065 : 			this->m_Option3 = Option3;

  01fb1	8b 45 fc	 mov	 eax, DWORD PTR _this$[ebp]
  01fb4	8a 4d 14	 mov	 cl, BYTE PTR _Option3$[ebp]
  01fb7	88 88 96 00 00
	00		 mov	 BYTE PTR [eax+150], cl
  01fbd	e9 6c 02 00 00	 jmp	 $LN137@Convert
$LN162@Convert:

; 1066 : 		}
; 1067 : 		else if ( _type == ITEMGET(12,1) ) // winf Heaven

  01fc2	81 7d f8 01 18
	00 00		 cmp	 DWORD PTR __type$[ebp], 6145 ; 00001801H
  01fc9	75 25		 jne	 SHORT $LN160@Convert

; 1068 : 		{
; 1069 : 			this->m_Special[this->m_SpecialNum] = 81;

  01fcb	8b 45 fc	 mov	 eax, DWORD PTR _this$[ebp]
  01fce	0f b6 48 30	 movzx	 ecx, BYTE PTR [eax+48]
  01fd2	ba 51 00 00 00	 mov	 edx, 81			; 00000051H
  01fd7	8b 45 fc	 mov	 eax, DWORD PTR _this$[ebp]
  01fda	66 89 54 48 32	 mov	 WORD PTR [eax+ecx*2+50], dx

; 1070 : 			this->m_Option3 = Option3;

  01fdf	8b 45 fc	 mov	 eax, DWORD PTR _this$[ebp]
  01fe2	8a 4d 14	 mov	 cl, BYTE PTR _Option3$[ebp]
  01fe5	88 88 96 00 00
	00		 mov	 BYTE PTR [eax+150], cl
  01feb	e9 3e 02 00 00	 jmp	 $LN137@Convert
$LN160@Convert:

; 1071 : #if(FIX_REQSTR_ITEM==FALSE)
; 1072 : 			this->m_RequireStrength +=  Option3 * 4;
; 1073 : #endif
; 1074 : 		}
; 1075 : 		else if ( _type == ITEMGET(12,2) ) // wing devil

  01ff0	81 7d f8 02 18
	00 00		 cmp	 DWORD PTR __type$[ebp], 6146 ; 00001802H
  01ff7	75 25		 jne	 SHORT $LN158@Convert

; 1076 : 		{
; 1077 : 			this->m_Special[this->m_SpecialNum] = 80;

  01ff9	8b 45 fc	 mov	 eax, DWORD PTR _this$[ebp]
  01ffc	0f b6 48 30	 movzx	 ecx, BYTE PTR [eax+48]
  02000	ba 50 00 00 00	 mov	 edx, 80			; 00000050H
  02005	8b 45 fc	 mov	 eax, DWORD PTR _this$[ebp]
  02008	66 89 54 48 32	 mov	 WORD PTR [eax+ecx*2+50], dx

; 1078 : 			this->m_Option3 = Option3;

  0200d	8b 45 fc	 mov	 eax, DWORD PTR _this$[ebp]
  02010	8a 4d 14	 mov	 cl, BYTE PTR _Option3$[ebp]
  02013	88 88 96 00 00
	00		 mov	 BYTE PTR [eax+150], cl
  02019	e9 10 02 00 00	 jmp	 $LN137@Convert
$LN158@Convert:

; 1079 : #if(FIX_REQSTR_ITEM==FALSE)
; 1080 : 			this->m_RequireStrength +=  Option3 * 4;
; 1081 : #endif
; 1082 : 		}
; 1083 : 		else if ( _type == ITEMGET(12,3) ) // wing spitits

  0201e	81 7d f8 03 18
	00 00		 cmp	 DWORD PTR __type$[ebp], 6147 ; 00001803H
  02025	75 5e		 jne	 SHORT $LN156@Convert

; 1084 : 		{
; 1085 : 			this->m_Special[this->m_SpecialNum] = 80;

  02027	8b 45 fc	 mov	 eax, DWORD PTR _this$[ebp]
  0202a	0f b6 48 30	 movzx	 ecx, BYTE PTR [eax+48]
  0202e	ba 50 00 00 00	 mov	 edx, 80			; 00000050H
  02033	8b 45 fc	 mov	 eax, DWORD PTR _this$[ebp]
  02036	66 89 54 48 32	 mov	 WORD PTR [eax+ecx*2+50], dx

; 1086 : 			this->m_Option3 = Option3;

  0203b	8b 45 fc	 mov	 eax, DWORD PTR _this$[ebp]
  0203e	8a 4d 14	 mov	 cl, BYTE PTR _Option3$[ebp]
  02041	88 88 96 00 00
	00		 mov	 BYTE PTR [eax+150], cl

; 1087 : #if(FIX_REQSTR_ITEM==FALSE)
; 1088 : 			this->m_RequireStrength +=  Option3 * 4;
; 1089 : #endif
; 1090 : 
; 1091 : 			if ( (this->m_NewOption&0x20) != 0 )

  02047	8b 45 fc	 mov	 eax, DWORD PTR _this$[ebp]
  0204a	0f b6 88 97 00
	00 00		 movzx	 ecx, BYTE PTR [eax+151]
  02051	83 e1 20	 and	 ecx, 32			; 00000020H
  02054	74 16		 je	 SHORT $LN155@Convert

; 1092 : 			{
; 1093 : 				this->m_Special[this->m_SpecialNum] = 85;

  02056	8b 45 fc	 mov	 eax, DWORD PTR _this$[ebp]
  02059	0f b6 48 30	 movzx	 ecx, BYTE PTR [eax+48]
  0205d	ba 55 00 00 00	 mov	 edx, 85			; 00000055H
  02062	8b 45 fc	 mov	 eax, DWORD PTR _this$[ebp]
  02065	66 89 54 48 32	 mov	 WORD PTR [eax+ecx*2+50], dx

; 1094 : 			}
; 1095 : 			else

  0206a	eb 14		 jmp	 SHORT $LN154@Convert
$LN155@Convert:

; 1096 : 			{
; 1097 : 				this->m_Special[this->m_SpecialNum] = 80;

  0206c	8b 45 fc	 mov	 eax, DWORD PTR _this$[ebp]
  0206f	0f b6 48 30	 movzx	 ecx, BYTE PTR [eax+48]
  02073	ba 50 00 00 00	 mov	 edx, 80			; 00000050H
  02078	8b 45 fc	 mov	 eax, DWORD PTR _this$[ebp]
  0207b	66 89 54 48 32	 mov	 WORD PTR [eax+ecx*2+50], dx
$LN154@Convert:

; 1098 : 			}

  02080	e9 a9 01 00 00	 jmp	 $LN137@Convert
$LN156@Convert:

; 1099 : 
; 1100 : 		}
; 1101 : 		else if ( _type == ITEMGET(12,4) ) // wing soul

  02085	81 7d f8 04 18
	00 00		 cmp	 DWORD PTR __type$[ebp], 6148 ; 00001804H
  0208c	75 4a		 jne	 SHORT $LN152@Convert

; 1102 : 		{
; 1103 : 			this->m_Option3 = Option3;

  0208e	8b 45 fc	 mov	 eax, DWORD PTR _this$[ebp]
  02091	8a 4d 14	 mov	 cl, BYTE PTR _Option3$[ebp]
  02094	88 88 96 00 00
	00		 mov	 BYTE PTR [eax+150], cl

; 1104 : #if(FIX_REQSTR_ITEM==FALSE)
; 1105 : 			this->m_RequireStrength +=  Option3 * 4;
; 1106 : #endif
; 1107 : 
; 1108 : 			if ( (this->m_NewOption&0x20) != 0 )

  0209a	8b 45 fc	 mov	 eax, DWORD PTR _this$[ebp]
  0209d	0f b6 88 97 00
	00 00		 movzx	 ecx, BYTE PTR [eax+151]
  020a4	83 e1 20	 and	 ecx, 32			; 00000020H
  020a7	74 16		 je	 SHORT $LN151@Convert

; 1109 : 			{
; 1110 : 				this->m_Special[this->m_SpecialNum] = 81;

  020a9	8b 45 fc	 mov	 eax, DWORD PTR _this$[ebp]
  020ac	0f b6 48 30	 movzx	 ecx, BYTE PTR [eax+48]
  020b0	ba 51 00 00 00	 mov	 edx, 81			; 00000051H
  020b5	8b 45 fc	 mov	 eax, DWORD PTR _this$[ebp]
  020b8	66 89 54 48 32	 mov	 WORD PTR [eax+ecx*2+50], dx

; 1111 : 			}
; 1112 : 			else

  020bd	eb 14		 jmp	 SHORT $LN150@Convert
$LN151@Convert:

; 1113 : 			{
; 1114 : 				this->m_Special[this->m_SpecialNum] = 85;

  020bf	8b 45 fc	 mov	 eax, DWORD PTR _this$[ebp]
  020c2	0f b6 48 30	 movzx	 ecx, BYTE PTR [eax+48]
  020c6	ba 55 00 00 00	 mov	 edx, 85			; 00000055H
  020cb	8b 45 fc	 mov	 eax, DWORD PTR _this$[ebp]
  020ce	66 89 54 48 32	 mov	 WORD PTR [eax+ecx*2+50], dx
$LN150@Convert:

; 1115 : 			}

  020d3	e9 56 01 00 00	 jmp	 $LN137@Convert
$LN152@Convert:

; 1116 : 
; 1117 : 		}
; 1118 : 		else if ( _type == ITEMGET(12,5) ) // wing dragon

  020d8	81 7d f8 05 18
	00 00		 cmp	 DWORD PTR __type$[ebp], 6149 ; 00001805H
  020df	75 4a		 jne	 SHORT $LN148@Convert

; 1119 : 		{
; 1120 : 			this->m_Option3 = Option3;

  020e1	8b 45 fc	 mov	 eax, DWORD PTR _this$[ebp]
  020e4	8a 4d 14	 mov	 cl, BYTE PTR _Option3$[ebp]
  020e7	88 88 96 00 00
	00		 mov	 BYTE PTR [eax+150], cl

; 1121 : #if(FIX_REQSTR_ITEM==FALSE)
; 1122 : 			this->m_RequireStrength +=  Option3 * 4;
; 1123 : #endif
; 1124 : 
; 1125 : 			if ( (this->m_NewOption&0x20) != 0 )

  020ed	8b 45 fc	 mov	 eax, DWORD PTR _this$[ebp]
  020f0	0f b6 88 97 00
	00 00		 movzx	 ecx, BYTE PTR [eax+151]
  020f7	83 e1 20	 and	 ecx, 32			; 00000020H
  020fa	74 16		 je	 SHORT $LN147@Convert

; 1126 : 			{
; 1127 : 				this->m_Special[this->m_SpecialNum] = 80;

  020fc	8b 45 fc	 mov	 eax, DWORD PTR _this$[ebp]
  020ff	0f b6 48 30	 movzx	 ecx, BYTE PTR [eax+48]
  02103	ba 50 00 00 00	 mov	 edx, 80			; 00000050H
  02108	8b 45 fc	 mov	 eax, DWORD PTR _this$[ebp]
  0210b	66 89 54 48 32	 mov	 WORD PTR [eax+ecx*2+50], dx

; 1128 : 			}
; 1129 : 			else

  02110	eb 14		 jmp	 SHORT $LN146@Convert
$LN147@Convert:

; 1130 : 			{
; 1131 : 				this->m_Special[this->m_SpecialNum] = 85;

  02112	8b 45 fc	 mov	 eax, DWORD PTR _this$[ebp]
  02115	0f b6 48 30	 movzx	 ecx, BYTE PTR [eax+48]
  02119	ba 55 00 00 00	 mov	 edx, 85			; 00000055H
  0211e	8b 45 fc	 mov	 eax, DWORD PTR _this$[ebp]
  02121	66 89 54 48 32	 mov	 WORD PTR [eax+ecx*2+50], dx
$LN146@Convert:

; 1132 : 			}

  02126	e9 03 01 00 00	 jmp	 $LN137@Convert
$LN148@Convert:

; 1133 : 
; 1134 : 		}			
; 1135 : 		else if ( _type == ITEMGET(12,6) ) // wing darkness

  0212b	81 7d f8 06 18
	00 00		 cmp	 DWORD PTR __type$[ebp], 6150 ; 00001806H
  02132	75 4a		 jne	 SHORT $LN144@Convert

; 1136 : 		{
; 1137 : 			this->m_Option3 = Option3;

  02134	8b 45 fc	 mov	 eax, DWORD PTR _this$[ebp]
  02137	8a 4d 14	 mov	 cl, BYTE PTR _Option3$[ebp]
  0213a	88 88 96 00 00
	00		 mov	 BYTE PTR [eax+150], cl

; 1138 : #if(FIX_REQSTR_ITEM==FALSE)
; 1139 : 			this->m_RequireStrength +=  Option3 * 4;
; 1140 : #endif
; 1141 : 
; 1142 : 			if ( (this->m_NewOption&0x20) != 0 )

  02140	8b 45 fc	 mov	 eax, DWORD PTR _this$[ebp]
  02143	0f b6 88 97 00
	00 00		 movzx	 ecx, BYTE PTR [eax+151]
  0214a	83 e1 20	 and	 ecx, 32			; 00000020H
  0214d	74 16		 je	 SHORT $LN143@Convert

; 1143 : 			{
; 1144 : 				this->m_Special[this->m_SpecialNum] = 80;

  0214f	8b 45 fc	 mov	 eax, DWORD PTR _this$[ebp]
  02152	0f b6 48 30	 movzx	 ecx, BYTE PTR [eax+48]
  02156	ba 50 00 00 00	 mov	 edx, 80			; 00000050H
  0215b	8b 45 fc	 mov	 eax, DWORD PTR _this$[ebp]
  0215e	66 89 54 48 32	 mov	 WORD PTR [eax+ecx*2+50], dx

; 1145 : 			}
; 1146 : 			else

  02163	eb 14		 jmp	 SHORT $LN142@Convert
$LN143@Convert:

; 1147 : 			{
; 1148 : 				this->m_Special[this->m_SpecialNum] = 81;

  02165	8b 45 fc	 mov	 eax, DWORD PTR _this$[ebp]
  02168	0f b6 48 30	 movzx	 ecx, BYTE PTR [eax+48]
  0216c	ba 51 00 00 00	 mov	 edx, 81			; 00000051H
  02171	8b 45 fc	 mov	 eax, DWORD PTR _this$[ebp]
  02174	66 89 54 48 32	 mov	 WORD PTR [eax+ecx*2+50], dx
$LN142@Convert:

; 1149 : 			}

  02179	e9 b0 00 00 00	 jmp	 $LN137@Convert
$LN144@Convert:

; 1150 : 
; 1151 : 		}
; 1152 : 		else if ( _type == ITEMGET(13,3) ) // dinorant

  0217e	81 7d f8 03 1a
	00 00		 cmp	 DWORD PTR __type$[ebp], 6659 ; 00001a03H
  02185	0f 85 a3 00 00
	00		 jne	 $LN137@Convert

; 1153 : 		{
; 1154 : 			this->m_Option3 = Option3;

  0218b	8b 45 fc	 mov	 eax, DWORD PTR _this$[ebp]
  0218e	8a 4d 14	 mov	 cl, BYTE PTR _Option3$[ebp]
  02191	88 88 96 00 00
	00		 mov	 BYTE PTR [eax+150], cl

; 1155 : 	
; 1156 : 			if ( (this->m_Option3&0x02) != 0 )

  02197	8b 45 fc	 mov	 eax, DWORD PTR _this$[ebp]
  0219a	0f b6 88 96 00
	00 00		 movzx	 ecx, BYTE PTR [eax+150]
  021a1	83 e1 02	 and	 ecx, 2
  021a4	74 23		 je	 SHORT $LN139@Convert

; 1157 : 			{
; 1158 : 				this->m_Special[this->m_SpecialNum] = 0x67;

  021a6	8b 45 fc	 mov	 eax, DWORD PTR _this$[ebp]
  021a9	0f b6 48 30	 movzx	 ecx, BYTE PTR [eax+48]
  021ad	ba 67 00 00 00	 mov	 edx, 103		; 00000067H
  021b2	8b 45 fc	 mov	 eax, DWORD PTR _this$[ebp]
  021b5	66 89 54 48 32	 mov	 WORD PTR [eax+ecx*2+50], dx

; 1159 : 				this->m_SpecialNum++;

  021ba	8b 45 fc	 mov	 eax, DWORD PTR _this$[ebp]
  021bd	8a 48 30	 mov	 cl, BYTE PTR [eax+48]
  021c0	80 c1 01	 add	 cl, 1
  021c3	8b 55 fc	 mov	 edx, DWORD PTR _this$[ebp]
  021c6	88 4a 30	 mov	 BYTE PTR [edx+48], cl
$LN139@Convert:

; 1160 : 			}
; 1161 : 		
; 1162 : 			if ( (this->m_Option3&0x04) != 0 )

  021c9	8b 45 fc	 mov	 eax, DWORD PTR _this$[ebp]
  021cc	0f b6 88 96 00
	00 00		 movzx	 ecx, BYTE PTR [eax+150]
  021d3	83 e1 04	 and	 ecx, 4
  021d6	74 33		 je	 SHORT $LN138@Convert

; 1163 : 			{
; 1164 : 				this->m_Special[this->m_SpecialNum] = 0x61;

  021d8	8b 45 fc	 mov	 eax, DWORD PTR _this$[ebp]
  021db	0f b6 48 30	 movzx	 ecx, BYTE PTR [eax+48]
  021df	ba 61 00 00 00	 mov	 edx, 97			; 00000061H
  021e4	8b 45 fc	 mov	 eax, DWORD PTR _this$[ebp]
  021e7	66 89 54 48 32	 mov	 WORD PTR [eax+ecx*2+50], dx

; 1165 : 				this->m_SpecialNum++;

  021ec	8b 45 fc	 mov	 eax, DWORD PTR _this$[ebp]
  021ef	8a 48 30	 mov	 cl, BYTE PTR [eax+48]
  021f2	80 c1 01	 add	 cl, 1
  021f5	8b 55 fc	 mov	 edx, DWORD PTR _this$[ebp]
  021f8	88 4a 30	 mov	 BYTE PTR [edx+48], cl

; 1166 : 				this->m_AttackSpeed+=5;

  021fb	8b 45 fc	 mov	 eax, DWORD PTR _this$[ebp]
  021fe	0f b6 48 0d	 movzx	 ecx, BYTE PTR [eax+13]
  02202	83 c1 05	 add	 ecx, 5
  02205	8b 55 fc	 mov	 edx, DWORD PTR _this$[ebp]
  02208	88 4a 0d	 mov	 BYTE PTR [edx+13], cl
$LN138@Convert:

; 1167 : 			}
; 1168 : 		
; 1169 : 			if ( (this->m_Option3&0x01) != 0 )

  0220b	8b 45 fc	 mov	 eax, DWORD PTR _this$[ebp]
  0220e	0f b6 88 96 00
	00 00		 movzx	 ecx, BYTE PTR [eax+150]
  02215	83 e1 01	 and	 ecx, 1
  02218	74 14		 je	 SHORT $LN137@Convert

; 1170 : 			{
; 1171 : 				this->m_Special[this->m_SpecialNum] = 0x68;

  0221a	8b 45 fc	 mov	 eax, DWORD PTR _this$[ebp]
  0221d	0f b6 48 30	 movzx	 ecx, BYTE PTR [eax+48]
  02221	ba 68 00 00 00	 mov	 edx, 104		; 00000068H
  02226	8b 45 fc	 mov	 eax, DWORD PTR _this$[ebp]
  02229	66 89 54 48 32	 mov	 WORD PTR [eax+ecx*2+50], dx
$LN137@Convert:

; 1172 : 			}
; 1173 : 		}
; 1174 : 
; 1175 : 		if ( _type == ITEMGET(13,30) ) // Cape ofLord

  0222e	81 7d f8 1e 1a
	00 00		 cmp	 DWORD PTR __type$[ebp], 6686 ; 00001a1eH
  02235	75 20		 jne	 SHORT $LN136@Convert

; 1176 : 		{
; 1177 : 			this->m_Option3 = Option3;

  02237	8b 45 fc	 mov	 eax, DWORD PTR _this$[ebp]
  0223a	8a 4d 14	 mov	 cl, BYTE PTR _Option3$[ebp]
  0223d	88 88 96 00 00
	00		 mov	 BYTE PTR [eax+150], cl

; 1178 : #if(FIX_REQSTR_ITEM==FALSE)
; 1179 : 			this->m_RequireStrength +=  Option3 * 4;
; 1180 : #endif
; 1181 : 			this->m_Special[this->m_SpecialNum] = 0x50;

  02243	8b 45 fc	 mov	 eax, DWORD PTR _this$[ebp]
  02246	0f b6 48 30	 movzx	 ecx, BYTE PTR [eax+48]
  0224a	ba 50 00 00 00	 mov	 edx, 80			; 00000050H
  0224f	8b 45 fc	 mov	 eax, DWORD PTR _this$[ebp]
  02252	66 89 54 48 32	 mov	 WORD PTR [eax+ecx*2+50], dx
$LN136@Convert:

; 1182 : 		}
; 1183 : 
; 1184 : 		//Season 2.5 add-on (Third Wings)
; 1185 : 		if ( _type == ITEMGET(12,36) ) // Wing of Storm

  02257	81 7d f8 24 18
	00 00		 cmp	 DWORD PTR __type$[ebp], 6180 ; 00001824H
  0225e	75 68		 jne	 SHORT $LN132@Convert

; 1186 : 		{
; 1187 : 			this->m_Option3 = Option3;

  02260	8b 45 fc	 mov	 eax, DWORD PTR _this$[ebp]
  02263	8a 4d 14	 mov	 cl, BYTE PTR _Option3$[ebp]
  02266	88 88 96 00 00
	00		 mov	 BYTE PTR [eax+150], cl

; 1188 : 			this->m_Special[this->m_SpecialNum] = 0x55;

  0226c	8b 45 fc	 mov	 eax, DWORD PTR _this$[ebp]
  0226f	0f b6 48 30	 movzx	 ecx, BYTE PTR [eax+48]
  02273	ba 55 00 00 00	 mov	 edx, 85			; 00000055H
  02278	8b 45 fc	 mov	 eax, DWORD PTR _this$[ebp]
  0227b	66 89 54 48 32	 mov	 WORD PTR [eax+ecx*2+50], dx

; 1189 : 
; 1190 : 			if( (this->m_NewOption & 0x10) != FALSE )

  02280	8b 45 fc	 mov	 eax, DWORD PTR _this$[ebp]
  02283	0f b6 88 97 00
	00 00		 movzx	 ecx, BYTE PTR [eax+151]
  0228a	83 e1 10	 and	 ecx, 16			; 00000010H
  0228d	74 16		 je	 SHORT $LN134@Convert

; 1191 : 			{
; 1192 : 				this->m_Special[this->m_SpecialNum] = 0x50;

  0228f	8b 45 fc	 mov	 eax, DWORD PTR _this$[ebp]
  02292	0f b6 48 30	 movzx	 ecx, BYTE PTR [eax+48]
  02296	ba 50 00 00 00	 mov	 edx, 80			; 00000050H
  0229b	8b 45 fc	 mov	 eax, DWORD PTR _this$[ebp]
  0229e	66 89 54 48 32	 mov	 WORD PTR [eax+ecx*2+50], dx
  022a3	eb 23		 jmp	 SHORT $LN132@Convert
$LN134@Convert:

; 1193 : 			}
; 1194 : 			else if( (this->m_NewOption & 0x20) != FALSE )

  022a5	8b 45 fc	 mov	 eax, DWORD PTR _this$[ebp]
  022a8	0f b6 88 97 00
	00 00		 movzx	 ecx, BYTE PTR [eax+151]
  022af	83 e1 20	 and	 ecx, 32			; 00000020H
  022b2	74 14		 je	 SHORT $LN132@Convert

; 1195 : 			{
; 1196 : 				this->m_Special[this->m_SpecialNum] = 0x53;

  022b4	8b 45 fc	 mov	 eax, DWORD PTR _this$[ebp]
  022b7	0f b6 48 30	 movzx	 ecx, BYTE PTR [eax+48]
  022bb	ba 53 00 00 00	 mov	 edx, 83			; 00000053H
  022c0	8b 45 fc	 mov	 eax, DWORD PTR _this$[ebp]
  022c3	66 89 54 48 32	 mov	 WORD PTR [eax+ecx*2+50], dx
$LN132@Convert:

; 1197 : 			}
; 1198 : 		}
; 1199 : 
; 1200 : 		if ( _type == MuItem::miCAPE_FIGTHER )

  022c8	81 7d f8 31 18
	00 00		 cmp	 DWORD PTR __type$[ebp], 6193 ; 00001831H
  022cf	75 45		 jne	 SHORT $LN129@Convert

; 1201 : 		{
; 1202 : 			this->m_Option3 = Option3;

  022d1	8b 45 fc	 mov	 eax, DWORD PTR _this$[ebp]
  022d4	8a 4d 14	 mov	 cl, BYTE PTR _Option3$[ebp]
  022d7	88 88 96 00 00
	00		 mov	 BYTE PTR [eax+150], cl

; 1203 : #if(FIX_REQSTR_ITEM==FALSE)
; 1204 : 			this->m_RequireStrength +=  Option3 * 4;
; 1205 : #endif
; 1206 : 			if ( this->m_NewOption & 0x20 )

  022dd	8b 45 fc	 mov	 eax, DWORD PTR _this$[ebp]
  022e0	0f b6 88 97 00
	00 00		 movzx	 ecx, BYTE PTR [eax+151]
  022e7	83 e1 20	 and	 ecx, 32			; 00000020H
  022ea	74 16		 je	 SHORT $LN130@Convert

; 1207 : 				this->m_Special[this->m_SpecialNum] = 80;

  022ec	8b 45 fc	 mov	 eax, DWORD PTR _this$[ebp]
  022ef	0f b6 48 30	 movzx	 ecx, BYTE PTR [eax+48]
  022f3	ba 50 00 00 00	 mov	 edx, 80			; 00000050H
  022f8	8b 45 fc	 mov	 eax, DWORD PTR _this$[ebp]
  022fb	66 89 54 48 32	 mov	 WORD PTR [eax+ecx*2+50], dx

; 1208 : 			else

  02300	eb 14		 jmp	 SHORT $LN129@Convert
$LN130@Convert:

; 1209 : 				this->m_Special[this->m_SpecialNum] = 85;

  02302	8b 45 fc	 mov	 eax, DWORD PTR _this$[ebp]
  02305	0f b6 48 30	 movzx	 ecx, BYTE PTR [eax+48]
  02309	ba 55 00 00 00	 mov	 edx, 85			; 00000055H
  0230e	8b 45 fc	 mov	 eax, DWORD PTR _this$[ebp]
  02311	66 89 54 48 32	 mov	 WORD PTR [eax+ecx*2+50], dx
$LN129@Convert:

; 1210 : 		}
; 1211 : 
; 1212 : 
; 1213 : 		if ( _type == MuItem::miCAPE_OVERRULE )

  02316	81 7d f8 32 18
	00 00		 cmp	 DWORD PTR __type$[ebp], 6194 ; 00001832H
  0231d	75 68		 jne	 SHORT $LN125@Convert

; 1214 : 		{
; 1215 : 			this->m_Option3 = Option3;

  0231f	8b 45 fc	 mov	 eax, DWORD PTR _this$[ebp]
  02322	8a 4d 14	 mov	 cl, BYTE PTR _Option3$[ebp]
  02325	88 88 96 00 00
	00		 mov	 BYTE PTR [eax+150], cl

; 1216 : 			this->m_Special[this->m_SpecialNum] = 85;

  0232b	8b 45 fc	 mov	 eax, DWORD PTR _this$[ebp]
  0232e	0f b6 48 30	 movzx	 ecx, BYTE PTR [eax+48]
  02332	ba 55 00 00 00	 mov	 edx, 85			; 00000055H
  02337	8b 45 fc	 mov	 eax, DWORD PTR _this$[ebp]
  0233a	66 89 54 48 32	 mov	 WORD PTR [eax+ecx*2+50], dx

; 1217 : 
; 1218 : 			if ( this->m_NewOption & 0x10 )

  0233f	8b 45 fc	 mov	 eax, DWORD PTR _this$[ebp]
  02342	0f b6 88 97 00
	00 00		 movzx	 ecx, BYTE PTR [eax+151]
  02349	83 e1 10	 and	 ecx, 16			; 00000010H
  0234c	74 16		 je	 SHORT $LN127@Convert

; 1219 : 			{
; 1220 : 				this->m_Special[this->m_SpecialNum] = 80;

  0234e	8b 45 fc	 mov	 eax, DWORD PTR _this$[ebp]
  02351	0f b6 48 30	 movzx	 ecx, BYTE PTR [eax+48]
  02355	ba 50 00 00 00	 mov	 edx, 80			; 00000050H
  0235a	8b 45 fc	 mov	 eax, DWORD PTR _this$[ebp]
  0235d	66 89 54 48 32	 mov	 WORD PTR [eax+ecx*2+50], dx
  02362	eb 23		 jmp	 SHORT $LN125@Convert
$LN127@Convert:

; 1221 : 			}
; 1222 : 			else if ( this->m_NewOption & 0x20 )

  02364	8b 45 fc	 mov	 eax, DWORD PTR _this$[ebp]
  02367	0f b6 88 97 00
	00 00		 movzx	 ecx, BYTE PTR [eax+151]
  0236e	83 e1 20	 and	 ecx, 32			; 00000020H
  02371	74 14		 je	 SHORT $LN125@Convert

; 1223 : 			{
; 1224 : 					this->m_Special[this->m_SpecialNum] = 83;

  02373	8b 45 fc	 mov	 eax, DWORD PTR _this$[ebp]
  02376	0f b6 48 30	 movzx	 ecx, BYTE PTR [eax+48]
  0237a	ba 53 00 00 00	 mov	 edx, 83			; 00000053H
  0237f	8b 45 fc	 mov	 eax, DWORD PTR _this$[ebp]
  02382	66 89 54 48 32	 mov	 WORD PTR [eax+ecx*2+50], dx
$LN125@Convert:

; 1225 : 			}
; 1226 : 		}
; 1227 : 
; 1228 : #ifdef NEWWINGS_4
; 1229 : 		if ( IS_NEWWINGS_4(_type) )

  02387	81 7d f8 b4 18
	00 00		 cmp	 DWORD PTR __type$[ebp], 6324 ; 000018b4H
  0238e	7d 09		 jge	 SHORT $LN427@Convert
  02390	c7 45 8c 00 00
	00 00		 mov	 DWORD PTR tv1838[ebp], 0
  02397	eb 0f		 jmp	 SHORT $LN428@Convert
$LN427@Convert:
  02399	33 c0		 xor	 eax, eax
  0239b	81 7d f8 b9 18
	00 00		 cmp	 DWORD PTR __type$[ebp], 6329 ; 000018b9H
  023a2	0f 9e c0	 setle	 al
  023a5	89 45 8c	 mov	 DWORD PTR tv1838[ebp], eax
$LN428@Convert:
  023a8	83 7d 8c 00	 cmp	 DWORD PTR tv1838[ebp], 0
  023ac	74 68		 je	 SHORT $LN121@Convert

; 1230 : 		{
; 1231 : 			this->m_Option3 = Option3;

  023ae	8b 45 fc	 mov	 eax, DWORD PTR _this$[ebp]
  023b1	8a 4d 14	 mov	 cl, BYTE PTR _Option3$[ebp]
  023b4	88 88 96 00 00
	00		 mov	 BYTE PTR [eax+150], cl

; 1232 : 			this->m_Special[this->m_SpecialNum] = 0x55;

  023ba	8b 45 fc	 mov	 eax, DWORD PTR _this$[ebp]
  023bd	0f b6 48 30	 movzx	 ecx, BYTE PTR [eax+48]
  023c1	ba 55 00 00 00	 mov	 edx, 85			; 00000055H
  023c6	8b 45 fc	 mov	 eax, DWORD PTR _this$[ebp]
  023c9	66 89 54 48 32	 mov	 WORD PTR [eax+ecx*2+50], dx

; 1233 : 
; 1234 : 			if( (this->m_NewOption & 0x10) != FALSE )

  023ce	8b 45 fc	 mov	 eax, DWORD PTR _this$[ebp]
  023d1	0f b6 88 97 00
	00 00		 movzx	 ecx, BYTE PTR [eax+151]
  023d8	83 e1 10	 and	 ecx, 16			; 00000010H
  023db	74 16		 je	 SHORT $LN123@Convert

; 1235 : 			{
; 1236 : 				this->m_Special[this->m_SpecialNum] = 0x50;

  023dd	8b 45 fc	 mov	 eax, DWORD PTR _this$[ebp]
  023e0	0f b6 48 30	 movzx	 ecx, BYTE PTR [eax+48]
  023e4	ba 50 00 00 00	 mov	 edx, 80			; 00000050H
  023e9	8b 45 fc	 mov	 eax, DWORD PTR _this$[ebp]
  023ec	66 89 54 48 32	 mov	 WORD PTR [eax+ecx*2+50], dx
  023f1	eb 23		 jmp	 SHORT $LN121@Convert
$LN123@Convert:

; 1237 : 			}
; 1238 : 			else if( (this->m_NewOption & 0x20) != FALSE )

  023f3	8b 45 fc	 mov	 eax, DWORD PTR _this$[ebp]
  023f6	0f b6 88 97 00
	00 00		 movzx	 ecx, BYTE PTR [eax+151]
  023fd	83 e1 20	 and	 ecx, 32			; 00000020H
  02400	74 14		 je	 SHORT $LN121@Convert

; 1239 : 			{
; 1240 : 				this->m_Special[this->m_SpecialNum] = 0x53;

  02402	8b 45 fc	 mov	 eax, DWORD PTR _this$[ebp]
  02405	0f b6 48 30	 movzx	 ecx, BYTE PTR [eax+48]
  02409	ba 53 00 00 00	 mov	 edx, 83			; 00000053H
  0240e	8b 45 fc	 mov	 eax, DWORD PTR _this$[ebp]
  02411	66 89 54 48 32	 mov	 WORD PTR [eax+ecx*2+50], dx
$LN121@Convert:

; 1241 : 			}
; 1242 : 		}
; 1243 : #endif
; 1244 : 
; 1245 : #ifdef NEWWINGS_2_5
; 1246 : 		if ( IS_NEWWINGS_2_5(_type) )

  02416	81 7d f8 ba 18
	00 00		 cmp	 DWORD PTR __type$[ebp], 6330 ; 000018baH
  0241d	7d 09		 jge	 SHORT $LN429@Convert
  0241f	c7 45 8c 00 00
	00 00		 mov	 DWORD PTR tv1867[ebp], 0
  02426	eb 0f		 jmp	 SHORT $LN430@Convert
$LN429@Convert:
  02428	33 c0		 xor	 eax, eax
  0242a	81 7d f8 bc 18
	00 00		 cmp	 DWORD PTR __type$[ebp], 6332 ; 000018bcH
  02431	0f 9e c0	 setle	 al
  02434	89 45 8c	 mov	 DWORD PTR tv1867[ebp], eax
$LN430@Convert:
  02437	83 7d 8c 00	 cmp	 DWORD PTR tv1867[ebp], 0
  0243b	74 68		 je	 SHORT $LN117@Convert

; 1247 : 		{
; 1248 : 			this->m_Option3 = Option3;

  0243d	8b 45 fc	 mov	 eax, DWORD PTR _this$[ebp]
  02440	8a 4d 14	 mov	 cl, BYTE PTR _Option3$[ebp]
  02443	88 88 96 00 00
	00		 mov	 BYTE PTR [eax+150], cl

; 1249 : 			this->m_Special[this->m_SpecialNum] = 0x55;

  02449	8b 45 fc	 mov	 eax, DWORD PTR _this$[ebp]
  0244c	0f b6 48 30	 movzx	 ecx, BYTE PTR [eax+48]
  02450	ba 55 00 00 00	 mov	 edx, 85			; 00000055H
  02455	8b 45 fc	 mov	 eax, DWORD PTR _this$[ebp]
  02458	66 89 54 48 32	 mov	 WORD PTR [eax+ecx*2+50], dx

; 1250 : 
; 1251 : 			if( (this->m_NewOption & 0x10) != FALSE )

  0245d	8b 45 fc	 mov	 eax, DWORD PTR _this$[ebp]
  02460	0f b6 88 97 00
	00 00		 movzx	 ecx, BYTE PTR [eax+151]
  02467	83 e1 10	 and	 ecx, 16			; 00000010H
  0246a	74 16		 je	 SHORT $LN119@Convert

; 1252 : 			{
; 1253 : 				this->m_Special[this->m_SpecialNum] = 0x50;

  0246c	8b 45 fc	 mov	 eax, DWORD PTR _this$[ebp]
  0246f	0f b6 48 30	 movzx	 ecx, BYTE PTR [eax+48]
  02473	ba 50 00 00 00	 mov	 edx, 80			; 00000050H
  02478	8b 45 fc	 mov	 eax, DWORD PTR _this$[ebp]
  0247b	66 89 54 48 32	 mov	 WORD PTR [eax+ecx*2+50], dx
  02480	eb 23		 jmp	 SHORT $LN117@Convert
$LN119@Convert:

; 1254 : 			}
; 1255 : 			else if( (this->m_NewOption & 0x20) != FALSE )

  02482	8b 45 fc	 mov	 eax, DWORD PTR _this$[ebp]
  02485	0f b6 88 97 00
	00 00		 movzx	 ecx, BYTE PTR [eax+151]
  0248c	83 e1 20	 and	 ecx, 32			; 00000020H
  0248f	74 14		 je	 SHORT $LN117@Convert

; 1256 : 			{
; 1257 : 				this->m_Special[this->m_SpecialNum] = 0x53;

  02491	8b 45 fc	 mov	 eax, DWORD PTR _this$[ebp]
  02494	0f b6 48 30	 movzx	 ecx, BYTE PTR [eax+48]
  02498	ba 53 00 00 00	 mov	 edx, 83			; 00000053H
  0249d	8b 45 fc	 mov	 eax, DWORD PTR _this$[ebp]
  024a0	66 89 54 48 32	 mov	 WORD PTR [eax+ecx*2+50], dx
$LN117@Convert:

; 1258 : 			}
; 1259 : 		}
; 1260 : #endif
; 1261 : 
; 1262 : #ifdef NEWWINGS_5
; 1263 : 		if ( IS_NEWWINGS_5(_type) )

  024a5	81 7d f8 bd 18
	00 00		 cmp	 DWORD PTR __type$[ebp], 6333 ; 000018bdH
  024ac	7d 09		 jge	 SHORT $LN431@Convert
  024ae	c7 45 8c 00 00
	00 00		 mov	 DWORD PTR tv1896[ebp], 0
  024b5	eb 0f		 jmp	 SHORT $LN432@Convert
$LN431@Convert:
  024b7	33 c0		 xor	 eax, eax
  024b9	81 7d f8 c2 18
	00 00		 cmp	 DWORD PTR __type$[ebp], 6338 ; 000018c2H
  024c0	0f 9e c0	 setle	 al
  024c3	89 45 8c	 mov	 DWORD PTR tv1896[ebp], eax
$LN432@Convert:
  024c6	83 7d 8c 00	 cmp	 DWORD PTR tv1896[ebp], 0
  024ca	74 68		 je	 SHORT $LN113@Convert

; 1264 : 		{
; 1265 : 			this->m_Option3 = Option3;

  024cc	8b 45 fc	 mov	 eax, DWORD PTR _this$[ebp]
  024cf	8a 4d 14	 mov	 cl, BYTE PTR _Option3$[ebp]
  024d2	88 88 96 00 00
	00		 mov	 BYTE PTR [eax+150], cl

; 1266 : 			this->m_Special[this->m_SpecialNum] = 0x55;

  024d8	8b 45 fc	 mov	 eax, DWORD PTR _this$[ebp]
  024db	0f b6 48 30	 movzx	 ecx, BYTE PTR [eax+48]
  024df	ba 55 00 00 00	 mov	 edx, 85			; 00000055H
  024e4	8b 45 fc	 mov	 eax, DWORD PTR _this$[ebp]
  024e7	66 89 54 48 32	 mov	 WORD PTR [eax+ecx*2+50], dx

; 1267 : 
; 1268 : 			if( (this->m_NewOption & 0x10) != FALSE )

  024ec	8b 45 fc	 mov	 eax, DWORD PTR _this$[ebp]
  024ef	0f b6 88 97 00
	00 00		 movzx	 ecx, BYTE PTR [eax+151]
  024f6	83 e1 10	 and	 ecx, 16			; 00000010H
  024f9	74 16		 je	 SHORT $LN115@Convert

; 1269 : 			{
; 1270 : 				this->m_Special[this->m_SpecialNum] = 0x50;

  024fb	8b 45 fc	 mov	 eax, DWORD PTR _this$[ebp]
  024fe	0f b6 48 30	 movzx	 ecx, BYTE PTR [eax+48]
  02502	ba 50 00 00 00	 mov	 edx, 80			; 00000050H
  02507	8b 45 fc	 mov	 eax, DWORD PTR _this$[ebp]
  0250a	66 89 54 48 32	 mov	 WORD PTR [eax+ecx*2+50], dx
  0250f	eb 23		 jmp	 SHORT $LN113@Convert
$LN115@Convert:

; 1271 : 			}
; 1272 : 			else if( (this->m_NewOption & 0x20) != FALSE )

  02511	8b 45 fc	 mov	 eax, DWORD PTR _this$[ebp]
  02514	0f b6 88 97 00
	00 00		 movzx	 ecx, BYTE PTR [eax+151]
  0251b	83 e1 20	 and	 ecx, 32			; 00000020H
  0251e	74 14		 je	 SHORT $LN113@Convert

; 1273 : 			{
; 1274 : 				this->m_Special[this->m_SpecialNum] = 0x53;

  02520	8b 45 fc	 mov	 eax, DWORD PTR _this$[ebp]
  02523	0f b6 48 30	 movzx	 ecx, BYTE PTR [eax+48]
  02527	ba 53 00 00 00	 mov	 edx, 83			; 00000053H
  0252c	8b 45 fc	 mov	 eax, DWORD PTR _this$[ebp]
  0252f	66 89 54 48 32	 mov	 WORD PTR [eax+ecx*2+50], dx
$LN113@Convert:

; 1275 : 			}
; 1276 : 		}
; 1277 : #endif
; 1278 : #ifdef NEWWINGS_6
; 1279 : 		if ( IS_NEWWINGS_6(_type) )

  02534	81 7d f8 c3 18
	00 00		 cmp	 DWORD PTR __type$[ebp], 6339 ; 000018c3H
  0253b	7d 09		 jge	 SHORT $LN433@Convert
  0253d	c7 45 8c 00 00
	00 00		 mov	 DWORD PTR tv1925[ebp], 0
  02544	eb 0f		 jmp	 SHORT $LN434@Convert
$LN433@Convert:
  02546	33 c0		 xor	 eax, eax
  02548	81 7d f8 dc 18
	00 00		 cmp	 DWORD PTR __type$[ebp], 6364 ; 000018dcH
  0254f	0f 9e c0	 setle	 al
  02552	89 45 8c	 mov	 DWORD PTR tv1925[ebp], eax
$LN434@Convert:
  02555	83 7d 8c 00	 cmp	 DWORD PTR tv1925[ebp], 0
  02559	74 68		 je	 SHORT $LN109@Convert

; 1280 : 		{
; 1281 : 			this->m_Option3 = Option3;

  0255b	8b 45 fc	 mov	 eax, DWORD PTR _this$[ebp]
  0255e	8a 4d 14	 mov	 cl, BYTE PTR _Option3$[ebp]
  02561	88 88 96 00 00
	00		 mov	 BYTE PTR [eax+150], cl

; 1282 : 			this->m_Special[this->m_SpecialNum] = 0x55;

  02567	8b 45 fc	 mov	 eax, DWORD PTR _this$[ebp]
  0256a	0f b6 48 30	 movzx	 ecx, BYTE PTR [eax+48]
  0256e	ba 55 00 00 00	 mov	 edx, 85			; 00000055H
  02573	8b 45 fc	 mov	 eax, DWORD PTR _this$[ebp]
  02576	66 89 54 48 32	 mov	 WORD PTR [eax+ecx*2+50], dx

; 1283 : 
; 1284 : 			if( (this->m_NewOption & 0x10) != FALSE )

  0257b	8b 45 fc	 mov	 eax, DWORD PTR _this$[ebp]
  0257e	0f b6 88 97 00
	00 00		 movzx	 ecx, BYTE PTR [eax+151]
  02585	83 e1 10	 and	 ecx, 16			; 00000010H
  02588	74 16		 je	 SHORT $LN111@Convert

; 1285 : 			{
; 1286 : 				this->m_Special[this->m_SpecialNum] = 0x50;

  0258a	8b 45 fc	 mov	 eax, DWORD PTR _this$[ebp]
  0258d	0f b6 48 30	 movzx	 ecx, BYTE PTR [eax+48]
  02591	ba 50 00 00 00	 mov	 edx, 80			; 00000050H
  02596	8b 45 fc	 mov	 eax, DWORD PTR _this$[ebp]
  02599	66 89 54 48 32	 mov	 WORD PTR [eax+ecx*2+50], dx
  0259e	eb 23		 jmp	 SHORT $LN109@Convert
$LN111@Convert:

; 1287 : 			}
; 1288 : 			else if( (this->m_NewOption & 0x20) != FALSE )

  025a0	8b 45 fc	 mov	 eax, DWORD PTR _this$[ebp]
  025a3	0f b6 88 97 00
	00 00		 movzx	 ecx, BYTE PTR [eax+151]
  025aa	83 e1 20	 and	 ecx, 32			; 00000020H
  025ad	74 14		 je	 SHORT $LN109@Convert

; 1289 : 			{
; 1290 : 				this->m_Special[this->m_SpecialNum] = 0x53;

  025af	8b 45 fc	 mov	 eax, DWORD PTR _this$[ebp]
  025b2	0f b6 48 30	 movzx	 ecx, BYTE PTR [eax+48]
  025b6	ba 53 00 00 00	 mov	 edx, 83			; 00000053H
  025bb	8b 45 fc	 mov	 eax, DWORD PTR _this$[ebp]
  025be	66 89 54 48 32	 mov	 WORD PTR [eax+ecx*2+50], dx
$LN109@Convert:

; 1291 : 			}
; 1292 : 		}
; 1293 : #endif
; 1294 : 
; 1295 : 		if ( _type == ITEMGET(12,37) ) // Wing of Eternal

  025c3	81 7d f8 25 18
	00 00		 cmp	 DWORD PTR __type$[ebp], 6181 ; 00001825H
  025ca	75 68		 jne	 SHORT $LN105@Convert

; 1296 : 		{
; 1297 : 			this->m_Option3 = Option3;

  025cc	8b 45 fc	 mov	 eax, DWORD PTR _this$[ebp]
  025cf	8a 4d 14	 mov	 cl, BYTE PTR _Option3$[ebp]
  025d2	88 88 96 00 00
	00		 mov	 BYTE PTR [eax+150], cl

; 1298 : 			this->m_Special[this->m_SpecialNum] = 0x55;

  025d8	8b 45 fc	 mov	 eax, DWORD PTR _this$[ebp]
  025db	0f b6 48 30	 movzx	 ecx, BYTE PTR [eax+48]
  025df	ba 55 00 00 00	 mov	 edx, 85			; 00000055H
  025e4	8b 45 fc	 mov	 eax, DWORD PTR _this$[ebp]
  025e7	66 89 54 48 32	 mov	 WORD PTR [eax+ecx*2+50], dx

; 1299 : 
; 1300 : 			if( (this->m_NewOption & 0x10) != FALSE )

  025ec	8b 45 fc	 mov	 eax, DWORD PTR _this$[ebp]
  025ef	0f b6 88 97 00
	00 00		 movzx	 ecx, BYTE PTR [eax+151]
  025f6	83 e1 10	 and	 ecx, 16			; 00000010H
  025f9	74 16		 je	 SHORT $LN107@Convert

; 1301 : 			{
; 1302 : 				this->m_Special[this->m_SpecialNum] = 0x51;

  025fb	8b 45 fc	 mov	 eax, DWORD PTR _this$[ebp]
  025fe	0f b6 48 30	 movzx	 ecx, BYTE PTR [eax+48]
  02602	ba 51 00 00 00	 mov	 edx, 81			; 00000051H
  02607	8b 45 fc	 mov	 eax, DWORD PTR _this$[ebp]
  0260a	66 89 54 48 32	 mov	 WORD PTR [eax+ecx*2+50], dx
  0260f	eb 23		 jmp	 SHORT $LN105@Convert
$LN107@Convert:

; 1303 : 			}
; 1304 : 			else if( (this->m_NewOption & 0x20) != FALSE )

  02611	8b 45 fc	 mov	 eax, DWORD PTR _this$[ebp]
  02614	0f b6 88 97 00
	00 00		 movzx	 ecx, BYTE PTR [eax+151]
  0261b	83 e1 20	 and	 ecx, 32			; 00000020H
  0261e	74 14		 je	 SHORT $LN105@Convert

; 1305 : 			{
; 1306 : 				this->m_Special[this->m_SpecialNum] = 0x53;

  02620	8b 45 fc	 mov	 eax, DWORD PTR _this$[ebp]
  02623	0f b6 48 30	 movzx	 ecx, BYTE PTR [eax+48]
  02627	ba 53 00 00 00	 mov	 edx, 83			; 00000053H
  0262c	8b 45 fc	 mov	 eax, DWORD PTR _this$[ebp]
  0262f	66 89 54 48 32	 mov	 WORD PTR [eax+ecx*2+50], dx
$LN105@Convert:

; 1307 : 			}
; 1308 : 		}
; 1309 : 
; 1310 : 		if ( _type == ITEMGET(12,38) ) // Wing of Illusion

  02634	81 7d f8 26 18
	00 00		 cmp	 DWORD PTR __type$[ebp], 6182 ; 00001826H
  0263b	75 68		 jne	 SHORT $LN101@Convert

; 1311 : 		{
; 1312 : 			this->m_Option3 = Option3;

  0263d	8b 45 fc	 mov	 eax, DWORD PTR _this$[ebp]
  02640	8a 4d 14	 mov	 cl, BYTE PTR _Option3$[ebp]
  02643	88 88 96 00 00
	00		 mov	 BYTE PTR [eax+150], cl

; 1313 : 			this->m_Special[this->m_SpecialNum] = 0x55;

  02649	8b 45 fc	 mov	 eax, DWORD PTR _this$[ebp]
  0264c	0f b6 48 30	 movzx	 ecx, BYTE PTR [eax+48]
  02650	ba 55 00 00 00	 mov	 edx, 85			; 00000055H
  02655	8b 45 fc	 mov	 eax, DWORD PTR _this$[ebp]
  02658	66 89 54 48 32	 mov	 WORD PTR [eax+ecx*2+50], dx

; 1314 : 
; 1315 : 			if( (this->m_NewOption & 0x10) != FALSE )

  0265d	8b 45 fc	 mov	 eax, DWORD PTR _this$[ebp]
  02660	0f b6 88 97 00
	00 00		 movzx	 ecx, BYTE PTR [eax+151]
  02667	83 e1 10	 and	 ecx, 16			; 00000010H
  0266a	74 16		 je	 SHORT $LN103@Convert

; 1316 : 			{
; 1317 : 				this->m_Special[this->m_SpecialNum] = 0x50;

  0266c	8b 45 fc	 mov	 eax, DWORD PTR _this$[ebp]
  0266f	0f b6 48 30	 movzx	 ecx, BYTE PTR [eax+48]
  02673	ba 50 00 00 00	 mov	 edx, 80			; 00000050H
  02678	8b 45 fc	 mov	 eax, DWORD PTR _this$[ebp]
  0267b	66 89 54 48 32	 mov	 WORD PTR [eax+ecx*2+50], dx
  02680	eb 23		 jmp	 SHORT $LN101@Convert
$LN103@Convert:

; 1318 : 			}
; 1319 : 			else if( (this->m_NewOption & 0x20) != FALSE )

  02682	8b 45 fc	 mov	 eax, DWORD PTR _this$[ebp]
  02685	0f b6 88 97 00
	00 00		 movzx	 ecx, BYTE PTR [eax+151]
  0268c	83 e1 20	 and	 ecx, 32			; 00000020H
  0268f	74 14		 je	 SHORT $LN101@Convert

; 1320 : 			{
; 1321 : 				this->m_Special[this->m_SpecialNum] = 0x53;

  02691	8b 45 fc	 mov	 eax, DWORD PTR _this$[ebp]
  02694	0f b6 48 30	 movzx	 ecx, BYTE PTR [eax+48]
  02698	ba 53 00 00 00	 mov	 edx, 83			; 00000053H
  0269d	8b 45 fc	 mov	 eax, DWORD PTR _this$[ebp]
  026a0	66 89 54 48 32	 mov	 WORD PTR [eax+ecx*2+50], dx
$LN101@Convert:

; 1322 : 			}
; 1323 : 		}
; 1324 : 
; 1325 : 		if ( _type == ITEMGET(12,39) ) // Wing of Ruin

  026a5	81 7d f8 27 18
	00 00		 cmp	 DWORD PTR __type$[ebp], 6183 ; 00001827H
  026ac	75 68		 jne	 SHORT $LN97@Convert

; 1326 : 		{
; 1327 : 			this->m_Option3 = Option3;

  026ae	8b 45 fc	 mov	 eax, DWORD PTR _this$[ebp]
  026b1	8a 4d 14	 mov	 cl, BYTE PTR _Option3$[ebp]
  026b4	88 88 96 00 00
	00		 mov	 BYTE PTR [eax+150], cl

; 1328 : 			this->m_Special[this->m_SpecialNum] = 0x55;

  026ba	8b 45 fc	 mov	 eax, DWORD PTR _this$[ebp]
  026bd	0f b6 48 30	 movzx	 ecx, BYTE PTR [eax+48]
  026c1	ba 55 00 00 00	 mov	 edx, 85			; 00000055H
  026c6	8b 45 fc	 mov	 eax, DWORD PTR _this$[ebp]
  026c9	66 89 54 48 32	 mov	 WORD PTR [eax+ecx*2+50], dx

; 1329 : 
; 1330 : 			if( (this->m_NewOption & 0x10) != FALSE )

  026ce	8b 45 fc	 mov	 eax, DWORD PTR _this$[ebp]
  026d1	0f b6 88 97 00
	00 00		 movzx	 ecx, BYTE PTR [eax+151]
  026d8	83 e1 10	 and	 ecx, 16			; 00000010H
  026db	74 16		 je	 SHORT $LN99@Convert

; 1331 : 			{
; 1332 : 				this->m_Special[this->m_SpecialNum] = 0x50;

  026dd	8b 45 fc	 mov	 eax, DWORD PTR _this$[ebp]
  026e0	0f b6 48 30	 movzx	 ecx, BYTE PTR [eax+48]
  026e4	ba 50 00 00 00	 mov	 edx, 80			; 00000050H
  026e9	8b 45 fc	 mov	 eax, DWORD PTR _this$[ebp]
  026ec	66 89 54 48 32	 mov	 WORD PTR [eax+ecx*2+50], dx
  026f1	eb 23		 jmp	 SHORT $LN97@Convert
$LN99@Convert:

; 1333 : 			}
; 1334 : 			else if( (this->m_NewOption & 0x20) != FALSE )

  026f3	8b 45 fc	 mov	 eax, DWORD PTR _this$[ebp]
  026f6	0f b6 88 97 00
	00 00		 movzx	 ecx, BYTE PTR [eax+151]
  026fd	83 e1 20	 and	 ecx, 32			; 00000020H
  02700	74 14		 je	 SHORT $LN97@Convert

; 1335 : 			{
; 1336 : 				this->m_Special[this->m_SpecialNum] = 0x51;

  02702	8b 45 fc	 mov	 eax, DWORD PTR _this$[ebp]
  02705	0f b6 48 30	 movzx	 ecx, BYTE PTR [eax+48]
  02709	ba 51 00 00 00	 mov	 edx, 81			; 00000051H
  0270e	8b 45 fc	 mov	 eax, DWORD PTR _this$[ebp]
  02711	66 89 54 48 32	 mov	 WORD PTR [eax+ecx*2+50], dx
$LN97@Convert:

; 1337 : 			}
; 1338 : 		}
; 1339 : 
; 1340 : 		if ( _type == ITEMGET(12,40) ) // Cape of Emperor

  02716	81 7d f8 28 18
	00 00		 cmp	 DWORD PTR __type$[ebp], 6184 ; 00001828H
  0271d	75 6d		 jne	 SHORT $LN96@Convert

; 1341 : 		{
; 1342 : 			this->m_Option3 = Option3;

  0271f	8b 45 fc	 mov	 eax, DWORD PTR _this$[ebp]
  02722	8a 4d 14	 mov	 cl, BYTE PTR _Option3$[ebp]
  02725	88 88 96 00 00
	00		 mov	 BYTE PTR [eax+150], cl

; 1343 : 			this->m_Special[this->m_SpecialNum] = 0x55;

  0272b	8b 45 fc	 mov	 eax, DWORD PTR _this$[ebp]
  0272e	0f b6 48 30	 movzx	 ecx, BYTE PTR [eax+48]
  02732	ba 55 00 00 00	 mov	 edx, 85			; 00000055H
  02737	8b 45 fc	 mov	 eax, DWORD PTR _this$[ebp]
  0273a	66 89 54 48 32	 mov	 WORD PTR [eax+ecx*2+50], dx

; 1344 : 
; 1345 : 			if( (this->m_NewOption & 0x10) != FALSE )

  0273f	8b 45 fc	 mov	 eax, DWORD PTR _this$[ebp]
  02742	0f b6 88 97 00
	00 00		 movzx	 ecx, BYTE PTR [eax+151]
  02749	83 e1 10	 and	 ecx, 16			; 00000010H
  0274c	74 16		 je	 SHORT $LN95@Convert

; 1346 : 			{
; 1347 : 				this->m_Special[this->m_SpecialNum] = 0x50;

  0274e	8b 45 fc	 mov	 eax, DWORD PTR _this$[ebp]
  02751	0f b6 48 30	 movzx	 ecx, BYTE PTR [eax+48]
  02755	ba 50 00 00 00	 mov	 edx, 80			; 00000050H
  0275a	8b 45 fc	 mov	 eax, DWORD PTR _this$[ebp]
  0275d	66 89 54 48 32	 mov	 WORD PTR [eax+ecx*2+50], dx
  02762	eb 23		 jmp	 SHORT $LN93@Convert
$LN95@Convert:

; 1348 : 			}
; 1349 : 			else if( (this->m_NewOption & 0x20) != FALSE )

  02764	8b 45 fc	 mov	 eax, DWORD PTR _this$[ebp]
  02767	0f b6 88 97 00
	00 00		 movzx	 ecx, BYTE PTR [eax+151]
  0276e	83 e1 20	 and	 ecx, 32			; 00000020H
  02771	74 14		 je	 SHORT $LN93@Convert

; 1350 : 			{
; 1351 : 				this->m_Special[this->m_SpecialNum] = 0x53;

  02773	8b 45 fc	 mov	 eax, DWORD PTR _this$[ebp]
  02776	0f b6 48 30	 movzx	 ecx, BYTE PTR [eax+48]
  0277a	ba 53 00 00 00	 mov	 edx, 83			; 00000053H
  0277f	8b 45 fc	 mov	 eax, DWORD PTR _this$[ebp]
  02782	66 89 54 48 32	 mov	 WORD PTR [eax+ecx*2+50], dx
$LN93@Convert:

; 1352 : 			}
; 1353 : 		}

  02787	e9 db 01 00 00	 jmp	 $LN72@Convert
$LN96@Convert:

; 1354 : 		else if ( _type == ITEMGET(12,41) ) // Wing of Curse

  0278c	81 7d f8 29 18
	00 00		 cmp	 DWORD PTR __type$[ebp], 6185 ; 00001829H
  02793	75 25		 jne	 SHORT $LN91@Convert

; 1355 : 		{
; 1356 : 			this->m_Special[this->m_SpecialNum] = 81;

  02795	8b 45 fc	 mov	 eax, DWORD PTR _this$[ebp]
  02798	0f b6 48 30	 movzx	 ecx, BYTE PTR [eax+48]
  0279c	ba 51 00 00 00	 mov	 edx, 81			; 00000051H
  027a1	8b 45 fc	 mov	 eax, DWORD PTR _this$[ebp]
  027a4	66 89 54 48 32	 mov	 WORD PTR [eax+ecx*2+50], dx

; 1357 : 			this->m_Option3 = Option3;

  027a9	8b 45 fc	 mov	 eax, DWORD PTR _this$[ebp]
  027ac	8a 4d 14	 mov	 cl, BYTE PTR _Option3$[ebp]
  027af	88 88 96 00 00
	00		 mov	 BYTE PTR [eax+150], cl
  027b5	e9 ad 01 00 00	 jmp	 $LN72@Convert
$LN91@Convert:

; 1358 : #if(FIX_REQSTR_ITEM==FALSE)
; 1359 : 			this->m_RequireStrength +=  Option3 * 4;
; 1360 : #endif
; 1361 : 		}
; 1362 : 		else if ( _type == ITEMGET(12,42) ) // Wing of Despair

  027ba	81 7d f8 2a 18
	00 00		 cmp	 DWORD PTR __type$[ebp], 6186 ; 0000182aH
  027c1	75 4a		 jne	 SHORT $LN89@Convert

; 1363 : 		{
; 1364 : 			this->m_Option3 = Option3;

  027c3	8b 45 fc	 mov	 eax, DWORD PTR _this$[ebp]
  027c6	8a 4d 14	 mov	 cl, BYTE PTR _Option3$[ebp]
  027c9	88 88 96 00 00
	00		 mov	 BYTE PTR [eax+150], cl

; 1365 : #if(FIX_REQSTR_ITEM==FALSE)
; 1366 : 			this->m_RequireStrength +=  Option3 * 4;
; 1367 : #endif
; 1368 : 
; 1369 : 			if ( (this->m_NewOption&0x20) != 0 )

  027cf	8b 45 fc	 mov	 eax, DWORD PTR _this$[ebp]
  027d2	0f b6 88 97 00
	00 00		 movzx	 ecx, BYTE PTR [eax+151]
  027d9	83 e1 20	 and	 ecx, 32			; 00000020H
  027dc	74 16		 je	 SHORT $LN88@Convert

; 1370 : 			{
; 1371 : 				this->m_Special[this->m_SpecialNum] = 81;

  027de	8b 45 fc	 mov	 eax, DWORD PTR _this$[ebp]
  027e1	0f b6 48 30	 movzx	 ecx, BYTE PTR [eax+48]
  027e5	ba 51 00 00 00	 mov	 edx, 81			; 00000051H
  027ea	8b 45 fc	 mov	 eax, DWORD PTR _this$[ebp]
  027ed	66 89 54 48 32	 mov	 WORD PTR [eax+ecx*2+50], dx

; 1372 : 			}
; 1373 : 			else

  027f2	eb 14		 jmp	 SHORT $LN87@Convert
$LN88@Convert:

; 1374 : 			{
; 1375 : 				this->m_Special[this->m_SpecialNum] = 113;

  027f4	8b 45 fc	 mov	 eax, DWORD PTR _this$[ebp]
  027f7	0f b6 48 30	 movzx	 ecx, BYTE PTR [eax+48]
  027fb	ba 71 00 00 00	 mov	 edx, 113		; 00000071H
  02800	8b 45 fc	 mov	 eax, DWORD PTR _this$[ebp]
  02803	66 89 54 48 32	 mov	 WORD PTR [eax+ecx*2+50], dx
$LN87@Convert:

; 1376 : 			}

  02808	e9 5a 01 00 00	 jmp	 $LN72@Convert
$LN89@Convert:

; 1377 : 		}
; 1378 : 		else if ( _type == ITEMGET(12,43) ) // Wing of Dimension

  0280d	81 7d f8 2b 18
	00 00		 cmp	 DWORD PTR __type$[ebp], 6187 ; 0000182bH
  02814	75 6d		 jne	 SHORT $LN85@Convert

; 1379 : 		{
; 1380 : 			this->m_Option3 = Option3;

  02816	8b 45 fc	 mov	 eax, DWORD PTR _this$[ebp]
  02819	8a 4d 14	 mov	 cl, BYTE PTR _Option3$[ebp]
  0281c	88 88 96 00 00
	00		 mov	 BYTE PTR [eax+150], cl

; 1381 : 			this->m_Special[this->m_SpecialNum] = 0x55;

  02822	8b 45 fc	 mov	 eax, DWORD PTR _this$[ebp]
  02825	0f b6 48 30	 movzx	 ecx, BYTE PTR [eax+48]
  02829	ba 55 00 00 00	 mov	 edx, 85			; 00000055H
  0282e	8b 45 fc	 mov	 eax, DWORD PTR _this$[ebp]
  02831	66 89 54 48 32	 mov	 WORD PTR [eax+ecx*2+50], dx

; 1382 : 
; 1383 : 			if( (this->m_NewOption & 0x10) != FALSE )

  02836	8b 45 fc	 mov	 eax, DWORD PTR _this$[ebp]
  02839	0f b6 88 97 00
	00 00		 movzx	 ecx, BYTE PTR [eax+151]
  02840	83 e1 10	 and	 ecx, 16			; 00000010H
  02843	74 16		 je	 SHORT $LN84@Convert

; 1384 : 			{
; 1385 : 				this->m_Special[this->m_SpecialNum] = 81;

  02845	8b 45 fc	 mov	 eax, DWORD PTR _this$[ebp]
  02848	0f b6 48 30	 movzx	 ecx, BYTE PTR [eax+48]
  0284c	ba 51 00 00 00	 mov	 edx, 81			; 00000051H
  02851	8b 45 fc	 mov	 eax, DWORD PTR _this$[ebp]
  02854	66 89 54 48 32	 mov	 WORD PTR [eax+ecx*2+50], dx
  02859	eb 23		 jmp	 SHORT $LN82@Convert
$LN84@Convert:

; 1386 : 			}
; 1387 : 			else if( (this->m_NewOption & 0x20) != FALSE )

  0285b	8b 45 fc	 mov	 eax, DWORD PTR _this$[ebp]
  0285e	0f b6 88 97 00
	00 00		 movzx	 ecx, BYTE PTR [eax+151]
  02865	83 e1 20	 and	 ecx, 32			; 00000020H
  02868	74 14		 je	 SHORT $LN82@Convert

; 1388 : 			{
; 1389 : 				this->m_Special[this->m_SpecialNum] = 113;

  0286a	8b 45 fc	 mov	 eax, DWORD PTR _this$[ebp]
  0286d	0f b6 48 30	 movzx	 ecx, BYTE PTR [eax+48]
  02871	ba 71 00 00 00	 mov	 edx, 113		; 00000071H
  02876	8b 45 fc	 mov	 eax, DWORD PTR _this$[ebp]
  02879	66 89 54 48 32	 mov	 WORD PTR [eax+ecx*2+50], dx
$LN82@Convert:

; 1390 : 			}
; 1391 : 		}

  0287e	e9 e4 00 00 00	 jmp	 $LN72@Convert
$LN85@Convert:

; 1392 : 		else if ( _type == ITEMGET(12,49) ) // Wing of Dimension

  02883	81 7d f8 31 18
	00 00		 cmp	 DWORD PTR __type$[ebp], 6193 ; 00001831H
  0288a	75 6a		 jne	 SHORT $LN80@Convert

; 1393 : 		{
; 1394 : 			this->m_Option3 = Option3;

  0288c	8b 45 fc	 mov	 eax, DWORD PTR _this$[ebp]
  0288f	8a 4d 14	 mov	 cl, BYTE PTR _Option3$[ebp]
  02892	88 88 96 00 00
	00		 mov	 BYTE PTR [eax+150], cl

; 1395 : 			this->m_Special[this->m_SpecialNum] = 0x55;

  02898	8b 45 fc	 mov	 eax, DWORD PTR _this$[ebp]
  0289b	0f b6 48 30	 movzx	 ecx, BYTE PTR [eax+48]
  0289f	ba 55 00 00 00	 mov	 edx, 85			; 00000055H
  028a4	8b 45 fc	 mov	 eax, DWORD PTR _this$[ebp]
  028a7	66 89 54 48 32	 mov	 WORD PTR [eax+ecx*2+50], dx

; 1396 : 
; 1397 : 			if( (this->m_NewOption & 0x10) != FALSE )

  028ac	8b 45 fc	 mov	 eax, DWORD PTR _this$[ebp]
  028af	0f b6 88 97 00
	00 00		 movzx	 ecx, BYTE PTR [eax+151]
  028b6	83 e1 10	 and	 ecx, 16			; 00000010H
  028b9	74 16		 je	 SHORT $LN79@Convert

; 1398 : 			{
; 1399 : 				this->m_Special[this->m_SpecialNum] = 81;

  028bb	8b 45 fc	 mov	 eax, DWORD PTR _this$[ebp]
  028be	0f b6 48 30	 movzx	 ecx, BYTE PTR [eax+48]
  028c2	ba 51 00 00 00	 mov	 edx, 81			; 00000051H
  028c7	8b 45 fc	 mov	 eax, DWORD PTR _this$[ebp]
  028ca	66 89 54 48 32	 mov	 WORD PTR [eax+ecx*2+50], dx
  028cf	eb 23		 jmp	 SHORT $LN77@Convert
$LN79@Convert:

; 1400 : 			}
; 1401 : 			else if( (this->m_NewOption & 0x20) != FALSE )

  028d1	8b 45 fc	 mov	 eax, DWORD PTR _this$[ebp]
  028d4	0f b6 88 97 00
	00 00		 movzx	 ecx, BYTE PTR [eax+151]
  028db	83 e1 20	 and	 ecx, 32			; 00000020H
  028de	74 14		 je	 SHORT $LN77@Convert

; 1402 : 			{
; 1403 : 				this->m_Special[this->m_SpecialNum] = 113;

  028e0	8b 45 fc	 mov	 eax, DWORD PTR _this$[ebp]
  028e3	0f b6 48 30	 movzx	 ecx, BYTE PTR [eax+48]
  028e7	ba 71 00 00 00	 mov	 edx, 113		; 00000071H
  028ec	8b 45 fc	 mov	 eax, DWORD PTR _this$[ebp]
  028ef	66 89 54 48 32	 mov	 WORD PTR [eax+ecx*2+50], dx
$LN77@Convert:

; 1404 : 			}
; 1405 : 		}

  028f4	eb 71		 jmp	 SHORT $LN72@Convert
$LN80@Convert:

; 1406 : 		else if ( _type == ITEMGET(12,50) ) // Wing of Dimension

  028f6	81 7d f8 32 18
	00 00		 cmp	 DWORD PTR __type$[ebp], 6194 ; 00001832H
  028fd	75 68		 jne	 SHORT $LN72@Convert

; 1407 : 		{
; 1408 : 			this->m_Option3 = Option3;

  028ff	8b 45 fc	 mov	 eax, DWORD PTR _this$[ebp]
  02902	8a 4d 14	 mov	 cl, BYTE PTR _Option3$[ebp]
  02905	88 88 96 00 00
	00		 mov	 BYTE PTR [eax+150], cl

; 1409 : 			this->m_Special[this->m_SpecialNum] = 0x55;

  0290b	8b 45 fc	 mov	 eax, DWORD PTR _this$[ebp]
  0290e	0f b6 48 30	 movzx	 ecx, BYTE PTR [eax+48]
  02912	ba 55 00 00 00	 mov	 edx, 85			; 00000055H
  02917	8b 45 fc	 mov	 eax, DWORD PTR _this$[ebp]
  0291a	66 89 54 48 32	 mov	 WORD PTR [eax+ecx*2+50], dx

; 1410 : 
; 1411 : 			if( (this->m_NewOption & 0x10) != FALSE )

  0291f	8b 45 fc	 mov	 eax, DWORD PTR _this$[ebp]
  02922	0f b6 88 97 00
	00 00		 movzx	 ecx, BYTE PTR [eax+151]
  02929	83 e1 10	 and	 ecx, 16			; 00000010H
  0292c	74 16		 je	 SHORT $LN74@Convert

; 1412 : 			{
; 1413 : 				this->m_Special[this->m_SpecialNum] = 81;

  0292e	8b 45 fc	 mov	 eax, DWORD PTR _this$[ebp]
  02931	0f b6 48 30	 movzx	 ecx, BYTE PTR [eax+48]
  02935	ba 51 00 00 00	 mov	 edx, 81			; 00000051H
  0293a	8b 45 fc	 mov	 eax, DWORD PTR _this$[ebp]
  0293d	66 89 54 48 32	 mov	 WORD PTR [eax+ecx*2+50], dx
  02942	eb 23		 jmp	 SHORT $LN72@Convert
$LN74@Convert:

; 1414 : 			}
; 1415 : 			else if( (this->m_NewOption & 0x20) != FALSE )

  02944	8b 45 fc	 mov	 eax, DWORD PTR _this$[ebp]
  02947	0f b6 88 97 00
	00 00		 movzx	 ecx, BYTE PTR [eax+151]
  0294e	83 e1 20	 and	 ecx, 32			; 00000020H
  02951	74 14		 je	 SHORT $LN72@Convert

; 1416 : 			{
; 1417 : 				this->m_Special[this->m_SpecialNum] = 113;

  02953	8b 45 fc	 mov	 eax, DWORD PTR _this$[ebp]
  02956	0f b6 48 30	 movzx	 ecx, BYTE PTR [eax+48]
  0295a	ba 71 00 00 00	 mov	 edx, 113		; 00000071H
  0295f	8b 45 fc	 mov	 eax, DWORD PTR _this$[ebp]
  02962	66 89 54 48 32	 mov	 WORD PTR [eax+ecx*2+50], dx
$LN72@Convert:

; 1418 : 			}
; 1419 : 		}
; 1420 : 	}
; 1421 : 
; 1422 : 	this->m_SpecialNum++;

  02967	8b 45 fc	 mov	 eax, DWORD PTR _this$[ebp]
  0296a	8a 48 30	 mov	 cl, BYTE PTR [eax+48]
  0296d	80 c1 01	 add	 cl, 1
  02970	8b 55 fc	 mov	 edx, DWORD PTR _this$[ebp]
  02973	88 4a 30	 mov	 BYTE PTR [edx+48], cl

; 1423 : 
; 1424 : 	if ( (_type >=ITEMGET(6,0) && _type <ITEMGET(12,0) ) || ( _type >=ITEMGET(13,8) && _type <= ITEMGET(13,9)) || (_type>=ITEMGET(13,21) && _type <= ITEMGET(13,24) ) )

  02976	81 7d f8 00 0c
	00 00		 cmp	 DWORD PTR __type$[ebp], 3072 ; 00000c00H
  0297d	7c 09		 jl	 SHORT $LN69@Convert
  0297f	81 7d f8 00 18
	00 00		 cmp	 DWORD PTR __type$[ebp], 6144 ; 00001800H
  02986	7c 2c		 jl	 SHORT $LN70@Convert
$LN69@Convert:
  02988	81 7d f8 08 1a
	00 00		 cmp	 DWORD PTR __type$[ebp], 6664 ; 00001a08H
  0298f	7c 09		 jl	 SHORT $LN68@Convert
  02991	81 7d f8 09 1a
	00 00		 cmp	 DWORD PTR __type$[ebp], 6665 ; 00001a09H
  02998	7e 1a		 jle	 SHORT $LN70@Convert
$LN68@Convert:
  0299a	81 7d f8 15 1a
	00 00		 cmp	 DWORD PTR __type$[ebp], 6677 ; 00001a15H
  029a1	0f 8c 47 01 00
	00		 jl	 $LN62@Convert
  029a7	81 7d f8 18 1a
	00 00		 cmp	 DWORD PTR __type$[ebp], 6680 ; 00001a18H
  029ae	0f 8f 3a 01 00
	00		 jg	 $LN62@Convert
$LN70@Convert:

; 1425 : 	{
; 1426 : 		if ( ((this->m_NewOption>>5)&1) != 0 )

  029b4	8b 45 fc	 mov	 eax, DWORD PTR _this$[ebp]
  029b7	0f b6 88 97 00
	00 00		 movzx	 ecx, BYTE PTR [eax+151]
  029be	c1 f9 05	 sar	 ecx, 5
  029c1	83 e1 01	 and	 ecx, 1
  029c4	74 23		 je	 SHORT $LN67@Convert

; 1427 : 		{
; 1428 : 			this->m_Special[this->m_SpecialNum] = 0x56;

  029c6	8b 45 fc	 mov	 eax, DWORD PTR _this$[ebp]
  029c9	0f b6 48 30	 movzx	 ecx, BYTE PTR [eax+48]
  029cd	ba 56 00 00 00	 mov	 edx, 86			; 00000056H
  029d2	8b 45 fc	 mov	 eax, DWORD PTR _this$[ebp]
  029d5	66 89 54 48 32	 mov	 WORD PTR [eax+ecx*2+50], dx

; 1429 : 			this->m_SpecialNum++;

  029da	8b 45 fc	 mov	 eax, DWORD PTR _this$[ebp]
  029dd	8a 48 30	 mov	 cl, BYTE PTR [eax+48]
  029e0	80 c1 01	 add	 cl, 1
  029e3	8b 55 fc	 mov	 edx, DWORD PTR _this$[ebp]
  029e6	88 4a 30	 mov	 BYTE PTR [edx+48], cl
$LN67@Convert:

; 1430 : 		}
; 1431 : 
; 1432 : 		if ( ((this->m_NewOption>>4)&1) != 0 )

  029e9	8b 45 fc	 mov	 eax, DWORD PTR _this$[ebp]
  029ec	0f b6 88 97 00
	00 00		 movzx	 ecx, BYTE PTR [eax+151]
  029f3	c1 f9 04	 sar	 ecx, 4
  029f6	83 e1 01	 and	 ecx, 1
  029f9	74 23		 je	 SHORT $LN66@Convert

; 1433 : 		{
; 1434 : 			this->m_Special[this->m_SpecialNum] = 0x57;

  029fb	8b 45 fc	 mov	 eax, DWORD PTR _this$[ebp]
  029fe	0f b6 48 30	 movzx	 ecx, BYTE PTR [eax+48]
  02a02	ba 57 00 00 00	 mov	 edx, 87			; 00000057H
  02a07	8b 45 fc	 mov	 eax, DWORD PTR _this$[ebp]
  02a0a	66 89 54 48 32	 mov	 WORD PTR [eax+ecx*2+50], dx

; 1435 : 			this->m_SpecialNum++;

  02a0f	8b 45 fc	 mov	 eax, DWORD PTR _this$[ebp]
  02a12	8a 48 30	 mov	 cl, BYTE PTR [eax+48]
  02a15	80 c1 01	 add	 cl, 1
  02a18	8b 55 fc	 mov	 edx, DWORD PTR _this$[ebp]
  02a1b	88 4a 30	 mov	 BYTE PTR [edx+48], cl
$LN66@Convert:

; 1436 : 		}
; 1437 : 
; 1438 : 		if ( ((this->m_NewOption>>3)&1) != 0 )

  02a1e	8b 45 fc	 mov	 eax, DWORD PTR _this$[ebp]
  02a21	0f b6 88 97 00
	00 00		 movzx	 ecx, BYTE PTR [eax+151]
  02a28	c1 f9 03	 sar	 ecx, 3
  02a2b	83 e1 01	 and	 ecx, 1
  02a2e	74 23		 je	 SHORT $LN65@Convert

; 1439 : 		{
; 1440 : 			this->m_Special[this->m_SpecialNum] = 0x58;

  02a30	8b 45 fc	 mov	 eax, DWORD PTR _this$[ebp]
  02a33	0f b6 48 30	 movzx	 ecx, BYTE PTR [eax+48]
  02a37	ba 58 00 00 00	 mov	 edx, 88			; 00000058H
  02a3c	8b 45 fc	 mov	 eax, DWORD PTR _this$[ebp]
  02a3f	66 89 54 48 32	 mov	 WORD PTR [eax+ecx*2+50], dx

; 1441 : 			this->m_SpecialNum++;

  02a44	8b 45 fc	 mov	 eax, DWORD PTR _this$[ebp]
  02a47	8a 48 30	 mov	 cl, BYTE PTR [eax+48]
  02a4a	80 c1 01	 add	 cl, 1
  02a4d	8b 55 fc	 mov	 edx, DWORD PTR _this$[ebp]
  02a50	88 4a 30	 mov	 BYTE PTR [edx+48], cl
$LN65@Convert:

; 1442 : 		}
; 1443 : 
; 1444 : 		if ( ((this->m_NewOption>>2)&1) != 0 )

  02a53	8b 45 fc	 mov	 eax, DWORD PTR _this$[ebp]
  02a56	0f b6 88 97 00
	00 00		 movzx	 ecx, BYTE PTR [eax+151]
  02a5d	c1 f9 02	 sar	 ecx, 2
  02a60	83 e1 01	 and	 ecx, 1
  02a63	74 23		 je	 SHORT $LN64@Convert

; 1445 : 		{
; 1446 : 			this->m_Special[this->m_SpecialNum] = 0x59;

  02a65	8b 45 fc	 mov	 eax, DWORD PTR _this$[ebp]
  02a68	0f b6 48 30	 movzx	 ecx, BYTE PTR [eax+48]
  02a6c	ba 59 00 00 00	 mov	 edx, 89			; 00000059H
  02a71	8b 45 fc	 mov	 eax, DWORD PTR _this$[ebp]
  02a74	66 89 54 48 32	 mov	 WORD PTR [eax+ecx*2+50], dx

; 1447 : 			this->m_SpecialNum++;

  02a79	8b 45 fc	 mov	 eax, DWORD PTR _this$[ebp]
  02a7c	8a 48 30	 mov	 cl, BYTE PTR [eax+48]
  02a7f	80 c1 01	 add	 cl, 1
  02a82	8b 55 fc	 mov	 edx, DWORD PTR _this$[ebp]
  02a85	88 4a 30	 mov	 BYTE PTR [edx+48], cl
$LN64@Convert:

; 1448 : 		}
; 1449 : 
; 1450 : 		if ( ((this->m_NewOption>>1)&1) != 0 )

  02a88	8b 45 fc	 mov	 eax, DWORD PTR _this$[ebp]
  02a8b	0f b6 88 97 00
	00 00		 movzx	 ecx, BYTE PTR [eax+151]
  02a92	d1 f9		 sar	 ecx, 1
  02a94	83 e1 01	 and	 ecx, 1
  02a97	74 23		 je	 SHORT $LN63@Convert

; 1451 : 		{
; 1452 : 			this->m_Special[this->m_SpecialNum] = 0x5A;

  02a99	8b 45 fc	 mov	 eax, DWORD PTR _this$[ebp]
  02a9c	0f b6 48 30	 movzx	 ecx, BYTE PTR [eax+48]
  02aa0	ba 5a 00 00 00	 mov	 edx, 90			; 0000005aH
  02aa5	8b 45 fc	 mov	 eax, DWORD PTR _this$[ebp]
  02aa8	66 89 54 48 32	 mov	 WORD PTR [eax+ecx*2+50], dx

; 1453 : 			this->m_SpecialNum++;

  02aad	8b 45 fc	 mov	 eax, DWORD PTR _this$[ebp]
  02ab0	8a 48 30	 mov	 cl, BYTE PTR [eax+48]
  02ab3	80 c1 01	 add	 cl, 1
  02ab6	8b 55 fc	 mov	 edx, DWORD PTR _this$[ebp]
  02ab9	88 4a 30	 mov	 BYTE PTR [edx+48], cl
$LN63@Convert:

; 1454 : 		}
; 1455 : 
; 1456 : 		if ( ((this->m_NewOption)&1) != 0 )

  02abc	8b 45 fc	 mov	 eax, DWORD PTR _this$[ebp]
  02abf	0f b6 88 97 00
	00 00		 movzx	 ecx, BYTE PTR [eax+151]
  02ac6	83 e1 01	 and	 ecx, 1
  02ac9	74 23		 je	 SHORT $LN62@Convert

; 1457 : 		{
; 1458 : 			this->m_Special[this->m_SpecialNum] = 0x5B;

  02acb	8b 45 fc	 mov	 eax, DWORD PTR _this$[ebp]
  02ace	0f b6 48 30	 movzx	 ecx, BYTE PTR [eax+48]
  02ad2	ba 5b 00 00 00	 mov	 edx, 91			; 0000005bH
  02ad7	8b 45 fc	 mov	 eax, DWORD PTR _this$[ebp]
  02ada	66 89 54 48 32	 mov	 WORD PTR [eax+ecx*2+50], dx

; 1459 : 			this->m_SpecialNum++;

  02adf	8b 45 fc	 mov	 eax, DWORD PTR _this$[ebp]
  02ae2	8a 48 30	 mov	 cl, BYTE PTR [eax+48]
  02ae5	80 c1 01	 add	 cl, 1
  02ae8	8b 55 fc	 mov	 edx, DWORD PTR _this$[ebp]
  02aeb	88 4a 30	 mov	 BYTE PTR [edx+48], cl
$LN62@Convert:

; 1460 : 		}
; 1461 : 	}
; 1462 : 
; 1463 : 	if ( (_type >=ITEMGET(0,0) && _type <ITEMGET(6,0) ) || ( _type >=ITEMGET(13,12) && _type <= ITEMGET(13,13)) || (_type>=ITEMGET(13,25) && _type <= ITEMGET(13,28) ) )

  02aee	83 7d f8 00	 cmp	 DWORD PTR __type$[ebp], 0
  02af2	7c 09		 jl	 SHORT $LN59@Convert
  02af4	81 7d f8 00 0c
	00 00		 cmp	 DWORD PTR __type$[ebp], 3072 ; 00000c00H
  02afb	7c 2c		 jl	 SHORT $LN60@Convert
$LN59@Convert:
  02afd	81 7d f8 0c 1a
	00 00		 cmp	 DWORD PTR __type$[ebp], 6668 ; 00001a0cH
  02b04	7c 09		 jl	 SHORT $LN58@Convert
  02b06	81 7d f8 0d 1a
	00 00		 cmp	 DWORD PTR __type$[ebp], 6669 ; 00001a0dH
  02b0d	7e 1a		 jle	 SHORT $LN60@Convert
$LN58@Convert:
  02b0f	81 7d f8 19 1a
	00 00		 cmp	 DWORD PTR __type$[ebp], 6681 ; 00001a19H
  02b16	0f 8c f0 01 00
	00		 jl	 $LN46@Convert
  02b1c	81 7d f8 1c 1a
	00 00		 cmp	 DWORD PTR __type$[ebp], 6684 ; 00001a1cH
  02b23	0f 8f e3 01 00
	00		 jg	 $LN46@Convert
$LN60@Convert:

; 1464 : 	{
; 1465 : 		if ( ((this->m_NewOption>>5)&1) != 0 )

  02b29	8b 45 fc	 mov	 eax, DWORD PTR _this$[ebp]
  02b2c	0f b6 88 97 00
	00 00		 movzx	 ecx, BYTE PTR [eax+151]
  02b33	c1 f9 05	 sar	 ecx, 5
  02b36	83 e1 01	 and	 ecx, 1
  02b39	74 23		 je	 SHORT $LN57@Convert

; 1466 : 		{
; 1467 : 			this->m_Special[this->m_SpecialNum] = 0x5C;

  02b3b	8b 45 fc	 mov	 eax, DWORD PTR _this$[ebp]
  02b3e	0f b6 48 30	 movzx	 ecx, BYTE PTR [eax+48]
  02b42	ba 5c 00 00 00	 mov	 edx, 92			; 0000005cH
  02b47	8b 45 fc	 mov	 eax, DWORD PTR _this$[ebp]
  02b4a	66 89 54 48 32	 mov	 WORD PTR [eax+ecx*2+50], dx

; 1468 : 			this->m_SpecialNum++;

  02b4f	8b 45 fc	 mov	 eax, DWORD PTR _this$[ebp]
  02b52	8a 48 30	 mov	 cl, BYTE PTR [eax+48]
  02b55	80 c1 01	 add	 cl, 1
  02b58	8b 55 fc	 mov	 edx, DWORD PTR _this$[ebp]
  02b5b	88 4a 30	 mov	 BYTE PTR [edx+48], cl
$LN57@Convert:

; 1469 : 		}
; 1470 : 
; 1471 : 		if ( (_type >=ITEMGET(5,0) && _type <ITEMGET(6,0) ) || (_type ==ITEMGET(13,12) ) || (_type == ITEMGET(13,25)) || (_type == ITEMGET(13,27) ) )

  02b5e	81 7d f8 00 0a
	00 00		 cmp	 DWORD PTR __type$[ebp], 2560 ; 00000a00H
  02b65	7c 09		 jl	 SHORT $LN54@Convert
  02b67	81 7d f8 00 0c
	00 00		 cmp	 DWORD PTR __type$[ebp], 3072 ; 00000c00H
  02b6e	7c 1b		 jl	 SHORT $LN55@Convert
$LN54@Convert:
  02b70	81 7d f8 0c 1a
	00 00		 cmp	 DWORD PTR __type$[ebp], 6668 ; 00001a0cH
  02b77	74 12		 je	 SHORT $LN55@Convert
  02b79	81 7d f8 19 1a
	00 00		 cmp	 DWORD PTR __type$[ebp], 6681 ; 00001a19H
  02b80	74 09		 je	 SHORT $LN55@Convert
  02b82	81 7d f8 1b 1a
	00 00		 cmp	 DWORD PTR __type$[ebp], 6683 ; 00001a1bH
  02b89	75 6c		 jne	 SHORT $LN56@Convert
$LN55@Convert:

; 1472 : 		{
; 1473 : 			if ( ((this->m_NewOption>>4)&1) != 0 )

  02b8b	8b 45 fc	 mov	 eax, DWORD PTR _this$[ebp]
  02b8e	0f b6 88 97 00
	00 00		 movzx	 ecx, BYTE PTR [eax+151]
  02b95	c1 f9 04	 sar	 ecx, 4
  02b98	83 e1 01	 and	 ecx, 1
  02b9b	74 23		 je	 SHORT $LN53@Convert

; 1474 : 			{
; 1475 : 				this->m_Special[this->m_SpecialNum] = 0x5F;

  02b9d	8b 45 fc	 mov	 eax, DWORD PTR _this$[ebp]
  02ba0	0f b6 48 30	 movzx	 ecx, BYTE PTR [eax+48]
  02ba4	ba 5f 00 00 00	 mov	 edx, 95			; 0000005fH
  02ba9	8b 45 fc	 mov	 eax, DWORD PTR _this$[ebp]
  02bac	66 89 54 48 32	 mov	 WORD PTR [eax+ecx*2+50], dx

; 1476 : 				this->m_SpecialNum++;

  02bb1	8b 45 fc	 mov	 eax, DWORD PTR _this$[ebp]
  02bb4	8a 48 30	 mov	 cl, BYTE PTR [eax+48]
  02bb7	80 c1 01	 add	 cl, 1
  02bba	8b 55 fc	 mov	 edx, DWORD PTR _this$[ebp]
  02bbd	88 4a 30	 mov	 BYTE PTR [edx+48], cl
$LN53@Convert:

; 1477 : 			}
; 1478 : 			if ( ((this->m_NewOption>>3)&1) != 0 )

  02bc0	8b 45 fc	 mov	 eax, DWORD PTR _this$[ebp]
  02bc3	0f b6 88 97 00
	00 00		 movzx	 ecx, BYTE PTR [eax+151]
  02bca	c1 f9 03	 sar	 ecx, 3
  02bcd	83 e1 01	 and	 ecx, 1
  02bd0	74 23		 je	 SHORT $LN52@Convert

; 1479 : 			{
; 1480 : 				this->m_Special[this->m_SpecialNum] = 0x60;

  02bd2	8b 45 fc	 mov	 eax, DWORD PTR _this$[ebp]
  02bd5	0f b6 48 30	 movzx	 ecx, BYTE PTR [eax+48]
  02bd9	ba 60 00 00 00	 mov	 edx, 96			; 00000060H
  02bde	8b 45 fc	 mov	 eax, DWORD PTR _this$[ebp]
  02be1	66 89 54 48 32	 mov	 WORD PTR [eax+ecx*2+50], dx

; 1481 : 				this->m_SpecialNum++;

  02be6	8b 45 fc	 mov	 eax, DWORD PTR _this$[ebp]
  02be9	8a 48 30	 mov	 cl, BYTE PTR [eax+48]
  02bec	80 c1 01	 add	 cl, 1
  02bef	8b 55 fc	 mov	 edx, DWORD PTR _this$[ebp]
  02bf2	88 4a 30	 mov	 BYTE PTR [edx+48], cl
$LN52@Convert:

; 1482 : 			}
; 1483 : 		}
; 1484 : 		else

  02bf5	eb 6a		 jmp	 SHORT $LN49@Convert
$LN56@Convert:

; 1485 : 		{
; 1486 : 			if ( ((this->m_NewOption>>4)&1) != 0 )

  02bf7	8b 45 fc	 mov	 eax, DWORD PTR _this$[ebp]
  02bfa	0f b6 88 97 00
	00 00		 movzx	 ecx, BYTE PTR [eax+151]
  02c01	c1 f9 04	 sar	 ecx, 4
  02c04	83 e1 01	 and	 ecx, 1
  02c07	74 23		 je	 SHORT $LN50@Convert

; 1487 : 			{
; 1488 : 				this->m_Special[this->m_SpecialNum] = 0x5D;

  02c09	8b 45 fc	 mov	 eax, DWORD PTR _this$[ebp]
  02c0c	0f b6 48 30	 movzx	 ecx, BYTE PTR [eax+48]
  02c10	ba 5d 00 00 00	 mov	 edx, 93			; 0000005dH
  02c15	8b 45 fc	 mov	 eax, DWORD PTR _this$[ebp]
  02c18	66 89 54 48 32	 mov	 WORD PTR [eax+ecx*2+50], dx

; 1489 : 				this->m_SpecialNum++;

  02c1d	8b 45 fc	 mov	 eax, DWORD PTR _this$[ebp]
  02c20	8a 48 30	 mov	 cl, BYTE PTR [eax+48]
  02c23	80 c1 01	 add	 cl, 1
  02c26	8b 55 fc	 mov	 edx, DWORD PTR _this$[ebp]
  02c29	88 4a 30	 mov	 BYTE PTR [edx+48], cl
$LN50@Convert:

; 1490 : 			}
; 1491 : 			if ( ((this->m_NewOption>>3)&1) != 0 )

  02c2c	8b 45 fc	 mov	 eax, DWORD PTR _this$[ebp]
  02c2f	0f b6 88 97 00
	00 00		 movzx	 ecx, BYTE PTR [eax+151]
  02c36	c1 f9 03	 sar	 ecx, 3
  02c39	83 e1 01	 and	 ecx, 1
  02c3c	74 23		 je	 SHORT $LN49@Convert

; 1492 : 			{
; 1493 : 				this->m_Special[this->m_SpecialNum] = 0x5E;

  02c3e	8b 45 fc	 mov	 eax, DWORD PTR _this$[ebp]
  02c41	0f b6 48 30	 movzx	 ecx, BYTE PTR [eax+48]
  02c45	ba 5e 00 00 00	 mov	 edx, 94			; 0000005eH
  02c4a	8b 45 fc	 mov	 eax, DWORD PTR _this$[ebp]
  02c4d	66 89 54 48 32	 mov	 WORD PTR [eax+ecx*2+50], dx

; 1494 : 				this->m_SpecialNum++;

  02c52	8b 45 fc	 mov	 eax, DWORD PTR _this$[ebp]
  02c55	8a 48 30	 mov	 cl, BYTE PTR [eax+48]
  02c58	80 c1 01	 add	 cl, 1
  02c5b	8b 55 fc	 mov	 edx, DWORD PTR _this$[ebp]
  02c5e	88 4a 30	 mov	 BYTE PTR [edx+48], cl
$LN49@Convert:

; 1495 : 			}
; 1496 : 		}
; 1497 : 
; 1498 : 		if ( ((this->m_NewOption>>2)&1) != 0 )

  02c61	8b 45 fc	 mov	 eax, DWORD PTR _this$[ebp]
  02c64	0f b6 88 97 00
	00 00		 movzx	 ecx, BYTE PTR [eax+151]
  02c6b	c1 f9 02	 sar	 ecx, 2
  02c6e	83 e1 01	 and	 ecx, 1
  02c71	74 33		 je	 SHORT $LN48@Convert

; 1499 : 		{
; 1500 : 			this->m_Special[this->m_SpecialNum] = 0x61;

  02c73	8b 45 fc	 mov	 eax, DWORD PTR _this$[ebp]
  02c76	0f b6 48 30	 movzx	 ecx, BYTE PTR [eax+48]
  02c7a	ba 61 00 00 00	 mov	 edx, 97			; 00000061H
  02c7f	8b 45 fc	 mov	 eax, DWORD PTR _this$[ebp]
  02c82	66 89 54 48 32	 mov	 WORD PTR [eax+ecx*2+50], dx

; 1501 : 			this->m_SpecialNum++;

  02c87	8b 45 fc	 mov	 eax, DWORD PTR _this$[ebp]
  02c8a	8a 48 30	 mov	 cl, BYTE PTR [eax+48]
  02c8d	80 c1 01	 add	 cl, 1
  02c90	8b 55 fc	 mov	 edx, DWORD PTR _this$[ebp]
  02c93	88 4a 30	 mov	 BYTE PTR [edx+48], cl

; 1502 : 			this->m_AttackSpeed += 7;

  02c96	8b 45 fc	 mov	 eax, DWORD PTR _this$[ebp]
  02c99	0f b6 48 0d	 movzx	 ecx, BYTE PTR [eax+13]
  02c9d	83 c1 07	 add	 ecx, 7
  02ca0	8b 55 fc	 mov	 edx, DWORD PTR _this$[ebp]
  02ca3	88 4a 0d	 mov	 BYTE PTR [edx+13], cl
$LN48@Convert:

; 1503 : 		}
; 1504 : 
; 1505 : 		if ( ((this->m_NewOption>>1)&1) != 0 )

  02ca6	8b 45 fc	 mov	 eax, DWORD PTR _this$[ebp]
  02ca9	0f b6 88 97 00
	00 00		 movzx	 ecx, BYTE PTR [eax+151]
  02cb0	d1 f9		 sar	 ecx, 1
  02cb2	83 e1 01	 and	 ecx, 1
  02cb5	74 23		 je	 SHORT $LN47@Convert

; 1506 : 		{
; 1507 : 			this->m_Special[this->m_SpecialNum] = 0x62;

  02cb7	8b 45 fc	 mov	 eax, DWORD PTR _this$[ebp]
  02cba	0f b6 48 30	 movzx	 ecx, BYTE PTR [eax+48]
  02cbe	ba 62 00 00 00	 mov	 edx, 98			; 00000062H
  02cc3	8b 45 fc	 mov	 eax, DWORD PTR _this$[ebp]
  02cc6	66 89 54 48 32	 mov	 WORD PTR [eax+ecx*2+50], dx

; 1508 : 			this->m_SpecialNum++;

  02ccb	8b 45 fc	 mov	 eax, DWORD PTR _this$[ebp]
  02cce	8a 48 30	 mov	 cl, BYTE PTR [eax+48]
  02cd1	80 c1 01	 add	 cl, 1
  02cd4	8b 55 fc	 mov	 edx, DWORD PTR _this$[ebp]
  02cd7	88 4a 30	 mov	 BYTE PTR [edx+48], cl
$LN47@Convert:

; 1509 : 		}
; 1510 : 
; 1511 : 		if ( ((this->m_NewOption)&1) != 0 )

  02cda	8b 45 fc	 mov	 eax, DWORD PTR _this$[ebp]
  02cdd	0f b6 88 97 00
	00 00		 movzx	 ecx, BYTE PTR [eax+151]
  02ce4	83 e1 01	 and	 ecx, 1
  02ce7	74 23		 je	 SHORT $LN46@Convert

; 1512 : 		{
; 1513 : 			this->m_Special[this->m_SpecialNum] = 0x63;

  02ce9	8b 45 fc	 mov	 eax, DWORD PTR _this$[ebp]
  02cec	0f b6 48 30	 movzx	 ecx, BYTE PTR [eax+48]
  02cf0	ba 63 00 00 00	 mov	 edx, 99			; 00000063H
  02cf5	8b 45 fc	 mov	 eax, DWORD PTR _this$[ebp]
  02cf8	66 89 54 48 32	 mov	 WORD PTR [eax+ecx*2+50], dx

; 1514 : 			this->m_SpecialNum++;

  02cfd	8b 45 fc	 mov	 eax, DWORD PTR _this$[ebp]
  02d00	8a 48 30	 mov	 cl, BYTE PTR [eax+48]
  02d03	80 c1 01	 add	 cl, 1
  02d06	8b 55 fc	 mov	 edx, DWORD PTR _this$[ebp]
  02d09	88 4a 30	 mov	 BYTE PTR [edx+48], cl
$LN46@Convert:

; 1515 : 		}
; 1516 : 	}
; 1517 : 
; 1518 : 	if ( ((_type >= ITEMGET(12,3)) && (_type <= ITEMGET(12,6))) || (_type ==ITEMGET(12,42)) || (_type ==ITEMGET(13,30)) )

  02d0c	81 7d f8 03 18
	00 00		 cmp	 DWORD PTR __type$[ebp], 6147 ; 00001803H
  02d13	7c 09		 jl	 SHORT $LN43@Convert
  02d15	81 7d f8 06 18
	00 00		 cmp	 DWORD PTR __type$[ebp], 6150 ; 00001806H
  02d1c	7e 16		 jle	 SHORT $LN44@Convert
$LN43@Convert:
  02d1e	81 7d f8 2a 18
	00 00		 cmp	 DWORD PTR __type$[ebp], 6186 ; 0000182aH
  02d25	74 0d		 je	 SHORT $LN44@Convert
  02d27	81 7d f8 1e 1a
	00 00		 cmp	 DWORD PTR __type$[ebp], 6686 ; 00001a1eH
  02d2e	0f 85 c8 00 00
	00		 jne	 $LN39@Convert
$LN44@Convert:

; 1519 : 	{
; 1520 : 		if ( ((this->m_NewOption)&1) != 0 )

  02d34	8b 45 fc	 mov	 eax, DWORD PTR _this$[ebp]
  02d37	0f b6 88 97 00
	00 00		 movzx	 ecx, BYTE PTR [eax+151]
  02d3e	83 e1 01	 and	 ecx, 1
  02d41	74 23		 je	 SHORT $LN42@Convert

; 1521 : 		{
; 1522 : 			this->m_Special[this->m_SpecialNum] = 0x64;

  02d43	8b 45 fc	 mov	 eax, DWORD PTR _this$[ebp]
  02d46	0f b6 48 30	 movzx	 ecx, BYTE PTR [eax+48]
  02d4a	ba 64 00 00 00	 mov	 edx, 100		; 00000064H
  02d4f	8b 45 fc	 mov	 eax, DWORD PTR _this$[ebp]
  02d52	66 89 54 48 32	 mov	 WORD PTR [eax+ecx*2+50], dx

; 1523 : 			this->m_SpecialNum++;

  02d57	8b 45 fc	 mov	 eax, DWORD PTR _this$[ebp]
  02d5a	8a 48 30	 mov	 cl, BYTE PTR [eax+48]
  02d5d	80 c1 01	 add	 cl, 1
  02d60	8b 55 fc	 mov	 edx, DWORD PTR _this$[ebp]
  02d63	88 4a 30	 mov	 BYTE PTR [edx+48], cl
$LN42@Convert:

; 1524 : 		}
; 1525 : 
; 1526 : 		if ( ((this->m_NewOption)&2) != 0 )

  02d66	8b 45 fc	 mov	 eax, DWORD PTR _this$[ebp]
  02d69	0f b6 88 97 00
	00 00		 movzx	 ecx, BYTE PTR [eax+151]
  02d70	83 e1 02	 and	 ecx, 2
  02d73	74 23		 je	 SHORT $LN41@Convert

; 1527 : 		{
; 1528 : 			this->m_Special[this->m_SpecialNum] = 0x65;

  02d75	8b 45 fc	 mov	 eax, DWORD PTR _this$[ebp]
  02d78	0f b6 48 30	 movzx	 ecx, BYTE PTR [eax+48]
  02d7c	ba 65 00 00 00	 mov	 edx, 101		; 00000065H
  02d81	8b 45 fc	 mov	 eax, DWORD PTR _this$[ebp]
  02d84	66 89 54 48 32	 mov	 WORD PTR [eax+ecx*2+50], dx

; 1529 : 			this->m_SpecialNum++;

  02d89	8b 45 fc	 mov	 eax, DWORD PTR _this$[ebp]
  02d8c	8a 48 30	 mov	 cl, BYTE PTR [eax+48]
  02d8f	80 c1 01	 add	 cl, 1
  02d92	8b 55 fc	 mov	 edx, DWORD PTR _this$[ebp]
  02d95	88 4a 30	 mov	 BYTE PTR [edx+48], cl
$LN41@Convert:

; 1530 : 		}
; 1531 : 
; 1532 : 		if ( ((this->m_NewOption)&4) != 0 )

  02d98	8b 45 fc	 mov	 eax, DWORD PTR _this$[ebp]
  02d9b	0f b6 88 97 00
	00 00		 movzx	 ecx, BYTE PTR [eax+151]
  02da2	83 e1 04	 and	 ecx, 4
  02da5	74 23		 je	 SHORT $LN40@Convert

; 1533 : 		{
; 1534 : 			this->m_Special[this->m_SpecialNum] = 0x66;

  02da7	8b 45 fc	 mov	 eax, DWORD PTR _this$[ebp]
  02daa	0f b6 48 30	 movzx	 ecx, BYTE PTR [eax+48]
  02dae	ba 66 00 00 00	 mov	 edx, 102		; 00000066H
  02db3	8b 45 fc	 mov	 eax, DWORD PTR _this$[ebp]
  02db6	66 89 54 48 32	 mov	 WORD PTR [eax+ecx*2+50], dx

; 1535 : 			this->m_SpecialNum++;

  02dbb	8b 45 fc	 mov	 eax, DWORD PTR _this$[ebp]
  02dbe	8a 48 30	 mov	 cl, BYTE PTR [eax+48]
  02dc1	80 c1 01	 add	 cl, 1
  02dc4	8b 55 fc	 mov	 edx, DWORD PTR _this$[ebp]
  02dc7	88 4a 30	 mov	 BYTE PTR [edx+48], cl
$LN40@Convert:

; 1536 : 		}
; 1537 : 
; 1538 : 		if ( ((this->m_NewOption)&8) != 0 )

  02dca	8b 45 fc	 mov	 eax, DWORD PTR _this$[ebp]
  02dcd	0f b6 88 97 00
	00 00		 movzx	 ecx, BYTE PTR [eax+151]
  02dd4	83 e1 08	 and	 ecx, 8
  02dd7	74 23		 je	 SHORT $LN39@Convert

; 1539 : 		{
; 1540 : 			this->m_Special[this->m_SpecialNum] = 0x69;

  02dd9	8b 45 fc	 mov	 eax, DWORD PTR _this$[ebp]
  02ddc	0f b6 48 30	 movzx	 ecx, BYTE PTR [eax+48]
  02de0	ba 69 00 00 00	 mov	 edx, 105		; 00000069H
  02de5	8b 45 fc	 mov	 eax, DWORD PTR _this$[ebp]
  02de8	66 89 54 48 32	 mov	 WORD PTR [eax+ecx*2+50], dx

; 1541 : 			this->m_SpecialNum++;

  02ded	8b 45 fc	 mov	 eax, DWORD PTR _this$[ebp]
  02df0	8a 48 30	 mov	 cl, BYTE PTR [eax+48]
  02df3	80 c1 01	 add	 cl, 1
  02df6	8b 55 fc	 mov	 edx, DWORD PTR _this$[ebp]
  02df9	88 4a 30	 mov	 BYTE PTR [edx+48], cl
$LN39@Convert:

; 1542 : 		}
; 1543 : 	}
; 1544 : 
; 1545 : 	if ( _type == ITEMGET(13,37) )

  02dfc	81 7d f8 25 1a
	00 00		 cmp	 DWORD PTR __type$[ebp], 6693 ; 00001a25H
  02e03	0f 85 9a 00 00
	00		 jne	 $LN33@Convert

; 1546 : 	{
; 1547 : 		if ( (this->m_NewOption &1) )

  02e09	8b 45 fc	 mov	 eax, DWORD PTR _this$[ebp]
  02e0c	0f b6 88 97 00
	00 00		 movzx	 ecx, BYTE PTR [eax+151]
  02e13	83 e1 01	 and	 ecx, 1
  02e16	74 25		 je	 SHORT $LN37@Convert

; 1548 : 		{
; 1549 : 			this->m_Special[this->m_SpecialNum] = 0x6A;

  02e18	8b 45 fc	 mov	 eax, DWORD PTR _this$[ebp]
  02e1b	0f b6 48 30	 movzx	 ecx, BYTE PTR [eax+48]
  02e1f	ba 6a 00 00 00	 mov	 edx, 106		; 0000006aH
  02e24	8b 45 fc	 mov	 eax, DWORD PTR _this$[ebp]
  02e27	66 89 54 48 32	 mov	 WORD PTR [eax+ecx*2+50], dx

; 1550 : 			this->m_SpecialNum++;

  02e2c	8b 45 fc	 mov	 eax, DWORD PTR _this$[ebp]
  02e2f	8a 48 30	 mov	 cl, BYTE PTR [eax+48]
  02e32	80 c1 01	 add	 cl, 1
  02e35	8b 55 fc	 mov	 edx, DWORD PTR _this$[ebp]
  02e38	88 4a 30	 mov	 BYTE PTR [edx+48], cl
  02e3b	eb 66		 jmp	 SHORT $LN33@Convert
$LN37@Convert:

; 1551 : 		}
; 1552 : 		else if ( (this->m_NewOption &2) )

  02e3d	8b 45 fc	 mov	 eax, DWORD PTR _this$[ebp]
  02e40	0f b6 88 97 00
	00 00		 movzx	 ecx, BYTE PTR [eax+151]
  02e47	83 e1 02	 and	 ecx, 2
  02e4a	74 25		 je	 SHORT $LN35@Convert

; 1553 : 		{
; 1554 : 			this->m_Special[this->m_SpecialNum] = 0x6B;

  02e4c	8b 45 fc	 mov	 eax, DWORD PTR _this$[ebp]
  02e4f	0f b6 48 30	 movzx	 ecx, BYTE PTR [eax+48]
  02e53	ba 6b 00 00 00	 mov	 edx, 107		; 0000006bH
  02e58	8b 45 fc	 mov	 eax, DWORD PTR _this$[ebp]
  02e5b	66 89 54 48 32	 mov	 WORD PTR [eax+ecx*2+50], dx

; 1555 : 			this->m_SpecialNum++;

  02e60	8b 45 fc	 mov	 eax, DWORD PTR _this$[ebp]
  02e63	8a 48 30	 mov	 cl, BYTE PTR [eax+48]
  02e66	80 c1 01	 add	 cl, 1
  02e69	8b 55 fc	 mov	 edx, DWORD PTR _this$[ebp]
  02e6c	88 4a 30	 mov	 BYTE PTR [edx+48], cl
  02e6f	eb 32		 jmp	 SHORT $LN33@Convert
$LN35@Convert:

; 1556 : 		}
; 1557 : 		else if ( (this->m_NewOption &4) ) //Season 2.5 Golden Fenrir

  02e71	8b 45 fc	 mov	 eax, DWORD PTR _this$[ebp]
  02e74	0f b6 88 97 00
	00 00		 movzx	 ecx, BYTE PTR [eax+151]
  02e7b	83 e1 04	 and	 ecx, 4
  02e7e	74 23		 je	 SHORT $LN33@Convert

; 1558 : 		{
; 1559 : 			this->m_Special[this->m_SpecialNum] = 0x70;

  02e80	8b 45 fc	 mov	 eax, DWORD PTR _this$[ebp]
  02e83	0f b6 48 30	 movzx	 ecx, BYTE PTR [eax+48]
  02e87	ba 70 00 00 00	 mov	 edx, 112		; 00000070H
  02e8c	8b 45 fc	 mov	 eax, DWORD PTR _this$[ebp]
  02e8f	66 89 54 48 32	 mov	 WORD PTR [eax+ecx*2+50], dx

; 1560 : 			this->m_SpecialNum++;

  02e94	8b 45 fc	 mov	 eax, DWORD PTR _this$[ebp]
  02e97	8a 48 30	 mov	 cl, BYTE PTR [eax+48]
  02e9a	80 c1 01	 add	 cl, 1
  02e9d	8b 55 fc	 mov	 edx, DWORD PTR _this$[ebp]
  02ea0	88 4a 30	 mov	 BYTE PTR [edx+48], cl
$LN33@Convert:

; 1561 : 		}
; 1562 : 	}
; 1563 : 
; 1564 : 	//Season 2.5 Third Wings
; 1565 : 	if ( _type >= ITEMGET(12,36) && _type <= ITEMGET(12,40) || _type == ITEMGET(12,43))

  02ea3	81 7d f8 24 18
	00 00		 cmp	 DWORD PTR __type$[ebp], 6180 ; 00001824H
  02eaa	7c 09		 jl	 SHORT $LN30@Convert
  02eac	81 7d f8 28 18
	00 00		 cmp	 DWORD PTR __type$[ebp], 6184 ; 00001828H
  02eb3	7e 0d		 jle	 SHORT $LN31@Convert
$LN30@Convert:
  02eb5	81 7d f8 2b 18
	00 00		 cmp	 DWORD PTR __type$[ebp], 6187 ; 0000182bH
  02ebc	0f 85 c8 00 00
	00		 jne	 $LN26@Convert
$LN31@Convert:

; 1566 : 	{
; 1567 : 		if ( (this->m_NewOption &1) )

  02ec2	8b 45 fc	 mov	 eax, DWORD PTR _this$[ebp]
  02ec5	0f b6 88 97 00
	00 00		 movzx	 ecx, BYTE PTR [eax+151]
  02ecc	83 e1 01	 and	 ecx, 1
  02ecf	74 23		 je	 SHORT $LN29@Convert

; 1568 : 		{
; 1569 : 			this->m_Special[this->m_SpecialNum] = 0x6C;

  02ed1	8b 45 fc	 mov	 eax, DWORD PTR _this$[ebp]
  02ed4	0f b6 48 30	 movzx	 ecx, BYTE PTR [eax+48]
  02ed8	ba 6c 00 00 00	 mov	 edx, 108		; 0000006cH
  02edd	8b 45 fc	 mov	 eax, DWORD PTR _this$[ebp]
  02ee0	66 89 54 48 32	 mov	 WORD PTR [eax+ecx*2+50], dx

; 1570 : 			this->m_SpecialNum++;

  02ee5	8b 45 fc	 mov	 eax, DWORD PTR _this$[ebp]
  02ee8	8a 48 30	 mov	 cl, BYTE PTR [eax+48]
  02eeb	80 c1 01	 add	 cl, 1
  02eee	8b 55 fc	 mov	 edx, DWORD PTR _this$[ebp]
  02ef1	88 4a 30	 mov	 BYTE PTR [edx+48], cl
$LN29@Convert:

; 1571 : 		}
; 1572 : 		if ( (this->m_NewOption &2) )

  02ef4	8b 45 fc	 mov	 eax, DWORD PTR _this$[ebp]
  02ef7	0f b6 88 97 00
	00 00		 movzx	 ecx, BYTE PTR [eax+151]
  02efe	83 e1 02	 and	 ecx, 2
  02f01	74 23		 je	 SHORT $LN28@Convert

; 1573 : 		{
; 1574 : 			this->m_Special[this->m_SpecialNum] = 0x6D;

  02f03	8b 45 fc	 mov	 eax, DWORD PTR _this$[ebp]
  02f06	0f b6 48 30	 movzx	 ecx, BYTE PTR [eax+48]
  02f0a	ba 6d 00 00 00	 mov	 edx, 109		; 0000006dH
  02f0f	8b 45 fc	 mov	 eax, DWORD PTR _this$[ebp]
  02f12	66 89 54 48 32	 mov	 WORD PTR [eax+ecx*2+50], dx

; 1575 : 			this->m_SpecialNum++;

  02f17	8b 45 fc	 mov	 eax, DWORD PTR _this$[ebp]
  02f1a	8a 48 30	 mov	 cl, BYTE PTR [eax+48]
  02f1d	80 c1 01	 add	 cl, 1
  02f20	8b 55 fc	 mov	 edx, DWORD PTR _this$[ebp]
  02f23	88 4a 30	 mov	 BYTE PTR [edx+48], cl
$LN28@Convert:

; 1576 : 		}
; 1577 : 		if ( (this->m_NewOption &4) )

  02f26	8b 45 fc	 mov	 eax, DWORD PTR _this$[ebp]
  02f29	0f b6 88 97 00
	00 00		 movzx	 ecx, BYTE PTR [eax+151]
  02f30	83 e1 04	 and	 ecx, 4
  02f33	74 23		 je	 SHORT $LN27@Convert

; 1578 : 		{
; 1579 : 			this->m_Special[this->m_SpecialNum] = 0x6E;

  02f35	8b 45 fc	 mov	 eax, DWORD PTR _this$[ebp]
  02f38	0f b6 48 30	 movzx	 ecx, BYTE PTR [eax+48]
  02f3c	ba 6e 00 00 00	 mov	 edx, 110		; 0000006eH
  02f41	8b 45 fc	 mov	 eax, DWORD PTR _this$[ebp]
  02f44	66 89 54 48 32	 mov	 WORD PTR [eax+ecx*2+50], dx

; 1580 : 			this->m_SpecialNum++;

  02f49	8b 45 fc	 mov	 eax, DWORD PTR _this$[ebp]
  02f4c	8a 48 30	 mov	 cl, BYTE PTR [eax+48]
  02f4f	80 c1 01	 add	 cl, 1
  02f52	8b 55 fc	 mov	 edx, DWORD PTR _this$[ebp]
  02f55	88 4a 30	 mov	 BYTE PTR [edx+48], cl
$LN27@Convert:

; 1581 : 		}
; 1582 : 		if ( (this->m_NewOption &8) )

  02f58	8b 45 fc	 mov	 eax, DWORD PTR _this$[ebp]
  02f5b	0f b6 88 97 00
	00 00		 movzx	 ecx, BYTE PTR [eax+151]
  02f62	83 e1 08	 and	 ecx, 8
  02f65	74 23		 je	 SHORT $LN26@Convert

; 1583 : 		{
; 1584 : 			this->m_Special[this->m_SpecialNum] = 0x6F;

  02f67	8b 45 fc	 mov	 eax, DWORD PTR _this$[ebp]
  02f6a	0f b6 48 30	 movzx	 ecx, BYTE PTR [eax+48]
  02f6e	ba 6f 00 00 00	 mov	 edx, 111		; 0000006fH
  02f73	8b 45 fc	 mov	 eax, DWORD PTR _this$[ebp]
  02f76	66 89 54 48 32	 mov	 WORD PTR [eax+ecx*2+50], dx

; 1585 : 			this->m_SpecialNum++;

  02f7b	8b 45 fc	 mov	 eax, DWORD PTR _this$[ebp]
  02f7e	8a 48 30	 mov	 cl, BYTE PTR [eax+48]
  02f81	80 c1 01	 add	 cl, 1
  02f84	8b 55 fc	 mov	 edx, DWORD PTR _this$[ebp]
  02f87	88 4a 30	 mov	 BYTE PTR [edx+48], cl
$LN26@Convert:

; 1586 : 		}
; 1587 : 	}
; 1588 : 
; 1589 : 	//Custom Wings4
; 1590 : #ifdef NEWWINGS_2_5
; 1591 : 	if ( IS_NEWWINGS_2_5(_type) )

  02f8a	81 7d f8 ba 18
	00 00		 cmp	 DWORD PTR __type$[ebp], 6330 ; 000018baH
  02f91	7d 09		 jge	 SHORT $LN435@Convert
  02f93	c7 45 8c 00 00
	00 00		 mov	 DWORD PTR tv2523[ebp], 0
  02f9a	eb 0f		 jmp	 SHORT $LN436@Convert
$LN435@Convert:
  02f9c	33 c0		 xor	 eax, eax
  02f9e	81 7d f8 bc 18
	00 00		 cmp	 DWORD PTR __type$[ebp], 6332 ; 000018bcH
  02fa5	0f 9e c0	 setle	 al
  02fa8	89 45 8c	 mov	 DWORD PTR tv2523[ebp], eax
$LN436@Convert:
  02fab	83 7d 8c 00	 cmp	 DWORD PTR tv2523[ebp], 0
  02faf	0f 84 c8 00 00
	00		 je	 $LN21@Convert

; 1592 : 	{
; 1593 : 		if ( (this->m_NewOption &1) )

  02fb5	8b 45 fc	 mov	 eax, DWORD PTR _this$[ebp]
  02fb8	0f b6 88 97 00
	00 00		 movzx	 ecx, BYTE PTR [eax+151]
  02fbf	83 e1 01	 and	 ecx, 1
  02fc2	74 23		 je	 SHORT $LN24@Convert

; 1594 : 		{
; 1595 : 			this->m_Special[this->m_SpecialNum] = 0x6C;

  02fc4	8b 45 fc	 mov	 eax, DWORD PTR _this$[ebp]
  02fc7	0f b6 48 30	 movzx	 ecx, BYTE PTR [eax+48]
  02fcb	ba 6c 00 00 00	 mov	 edx, 108		; 0000006cH
  02fd0	8b 45 fc	 mov	 eax, DWORD PTR _this$[ebp]
  02fd3	66 89 54 48 32	 mov	 WORD PTR [eax+ecx*2+50], dx

; 1596 : 			this->m_SpecialNum++;

  02fd8	8b 45 fc	 mov	 eax, DWORD PTR _this$[ebp]
  02fdb	8a 48 30	 mov	 cl, BYTE PTR [eax+48]
  02fde	80 c1 01	 add	 cl, 1
  02fe1	8b 55 fc	 mov	 edx, DWORD PTR _this$[ebp]
  02fe4	88 4a 30	 mov	 BYTE PTR [edx+48], cl
$LN24@Convert:

; 1597 : 		}
; 1598 : 		if ( (this->m_NewOption &2) )

  02fe7	8b 45 fc	 mov	 eax, DWORD PTR _this$[ebp]
  02fea	0f b6 88 97 00
	00 00		 movzx	 ecx, BYTE PTR [eax+151]
  02ff1	83 e1 02	 and	 ecx, 2
  02ff4	74 23		 je	 SHORT $LN23@Convert

; 1599 : 		{
; 1600 : 			this->m_Special[this->m_SpecialNum] = 0x6D;

  02ff6	8b 45 fc	 mov	 eax, DWORD PTR _this$[ebp]
  02ff9	0f b6 48 30	 movzx	 ecx, BYTE PTR [eax+48]
  02ffd	ba 6d 00 00 00	 mov	 edx, 109		; 0000006dH
  03002	8b 45 fc	 mov	 eax, DWORD PTR _this$[ebp]
  03005	66 89 54 48 32	 mov	 WORD PTR [eax+ecx*2+50], dx

; 1601 : 			this->m_SpecialNum++;

  0300a	8b 45 fc	 mov	 eax, DWORD PTR _this$[ebp]
  0300d	8a 48 30	 mov	 cl, BYTE PTR [eax+48]
  03010	80 c1 01	 add	 cl, 1
  03013	8b 55 fc	 mov	 edx, DWORD PTR _this$[ebp]
  03016	88 4a 30	 mov	 BYTE PTR [edx+48], cl
$LN23@Convert:

; 1602 : 		}
; 1603 : 		if ( (this->m_NewOption &4) )

  03019	8b 45 fc	 mov	 eax, DWORD PTR _this$[ebp]
  0301c	0f b6 88 97 00
	00 00		 movzx	 ecx, BYTE PTR [eax+151]
  03023	83 e1 04	 and	 ecx, 4
  03026	74 23		 je	 SHORT $LN22@Convert

; 1604 : 		{
; 1605 : 			this->m_Special[this->m_SpecialNum] = 0x6E;

  03028	8b 45 fc	 mov	 eax, DWORD PTR _this$[ebp]
  0302b	0f b6 48 30	 movzx	 ecx, BYTE PTR [eax+48]
  0302f	ba 6e 00 00 00	 mov	 edx, 110		; 0000006eH
  03034	8b 45 fc	 mov	 eax, DWORD PTR _this$[ebp]
  03037	66 89 54 48 32	 mov	 WORD PTR [eax+ecx*2+50], dx

; 1606 : 			this->m_SpecialNum++;

  0303c	8b 45 fc	 mov	 eax, DWORD PTR _this$[ebp]
  0303f	8a 48 30	 mov	 cl, BYTE PTR [eax+48]
  03042	80 c1 01	 add	 cl, 1
  03045	8b 55 fc	 mov	 edx, DWORD PTR _this$[ebp]
  03048	88 4a 30	 mov	 BYTE PTR [edx+48], cl
$LN22@Convert:

; 1607 : 		}
; 1608 : 		if ( (this->m_NewOption &8) )

  0304b	8b 45 fc	 mov	 eax, DWORD PTR _this$[ebp]
  0304e	0f b6 88 97 00
	00 00		 movzx	 ecx, BYTE PTR [eax+151]
  03055	83 e1 08	 and	 ecx, 8
  03058	74 23		 je	 SHORT $LN21@Convert

; 1609 : 		{
; 1610 : 			this->m_Special[this->m_SpecialNum] = 0x6F;

  0305a	8b 45 fc	 mov	 eax, DWORD PTR _this$[ebp]
  0305d	0f b6 48 30	 movzx	 ecx, BYTE PTR [eax+48]
  03061	ba 6f 00 00 00	 mov	 edx, 111		; 0000006fH
  03066	8b 45 fc	 mov	 eax, DWORD PTR _this$[ebp]
  03069	66 89 54 48 32	 mov	 WORD PTR [eax+ecx*2+50], dx

; 1611 : 			this->m_SpecialNum++;

  0306e	8b 45 fc	 mov	 eax, DWORD PTR _this$[ebp]
  03071	8a 48 30	 mov	 cl, BYTE PTR [eax+48]
  03074	80 c1 01	 add	 cl, 1
  03077	8b 55 fc	 mov	 edx, DWORD PTR _this$[ebp]
  0307a	88 4a 30	 mov	 BYTE PTR [edx+48], cl
$LN21@Convert:

; 1612 : 		}
; 1613 : 	}
; 1614 : #endif
; 1615 : 
; 1616 : #ifdef NEWWINGS_4
; 1617 : 	if ( IS_NEWWINGS_4(_type) )

  0307d	81 7d f8 b4 18
	00 00		 cmp	 DWORD PTR __type$[ebp], 6324 ; 000018b4H
  03084	7d 09		 jge	 SHORT $LN437@Convert
  03086	c7 45 8c 00 00
	00 00		 mov	 DWORD PTR tv2580[ebp], 0
  0308d	eb 0f		 jmp	 SHORT $LN438@Convert
$LN437@Convert:
  0308f	33 c0		 xor	 eax, eax
  03091	81 7d f8 b9 18
	00 00		 cmp	 DWORD PTR __type$[ebp], 6329 ; 000018b9H
  03098	0f 9e c0	 setle	 al
  0309b	89 45 8c	 mov	 DWORD PTR tv2580[ebp], eax
$LN438@Convert:
  0309e	83 7d 8c 00	 cmp	 DWORD PTR tv2580[ebp], 0
  030a2	0f 84 c8 00 00
	00		 je	 $LN16@Convert

; 1618 : 	{
; 1619 : 		if ( (this->m_NewOption &1) )

  030a8	8b 45 fc	 mov	 eax, DWORD PTR _this$[ebp]
  030ab	0f b6 88 97 00
	00 00		 movzx	 ecx, BYTE PTR [eax+151]
  030b2	83 e1 01	 and	 ecx, 1
  030b5	74 23		 je	 SHORT $LN19@Convert

; 1620 : 		{
; 1621 : 			this->m_Special[this->m_SpecialNum] = 0x6C;

  030b7	8b 45 fc	 mov	 eax, DWORD PTR _this$[ebp]
  030ba	0f b6 48 30	 movzx	 ecx, BYTE PTR [eax+48]
  030be	ba 6c 00 00 00	 mov	 edx, 108		; 0000006cH
  030c3	8b 45 fc	 mov	 eax, DWORD PTR _this$[ebp]
  030c6	66 89 54 48 32	 mov	 WORD PTR [eax+ecx*2+50], dx

; 1622 : 			this->m_SpecialNum++;

  030cb	8b 45 fc	 mov	 eax, DWORD PTR _this$[ebp]
  030ce	8a 48 30	 mov	 cl, BYTE PTR [eax+48]
  030d1	80 c1 01	 add	 cl, 1
  030d4	8b 55 fc	 mov	 edx, DWORD PTR _this$[ebp]
  030d7	88 4a 30	 mov	 BYTE PTR [edx+48], cl
$LN19@Convert:

; 1623 : 		}
; 1624 : 		if ( (this->m_NewOption &2) )

  030da	8b 45 fc	 mov	 eax, DWORD PTR _this$[ebp]
  030dd	0f b6 88 97 00
	00 00		 movzx	 ecx, BYTE PTR [eax+151]
  030e4	83 e1 02	 and	 ecx, 2
  030e7	74 23		 je	 SHORT $LN18@Convert

; 1625 : 		{
; 1626 : 			this->m_Special[this->m_SpecialNum] = 0x6D;

  030e9	8b 45 fc	 mov	 eax, DWORD PTR _this$[ebp]
  030ec	0f b6 48 30	 movzx	 ecx, BYTE PTR [eax+48]
  030f0	ba 6d 00 00 00	 mov	 edx, 109		; 0000006dH
  030f5	8b 45 fc	 mov	 eax, DWORD PTR _this$[ebp]
  030f8	66 89 54 48 32	 mov	 WORD PTR [eax+ecx*2+50], dx

; 1627 : 			this->m_SpecialNum++;

  030fd	8b 45 fc	 mov	 eax, DWORD PTR _this$[ebp]
  03100	8a 48 30	 mov	 cl, BYTE PTR [eax+48]
  03103	80 c1 01	 add	 cl, 1
  03106	8b 55 fc	 mov	 edx, DWORD PTR _this$[ebp]
  03109	88 4a 30	 mov	 BYTE PTR [edx+48], cl
$LN18@Convert:

; 1628 : 		}
; 1629 : 		if ( (this->m_NewOption &4) )

  0310c	8b 45 fc	 mov	 eax, DWORD PTR _this$[ebp]
  0310f	0f b6 88 97 00
	00 00		 movzx	 ecx, BYTE PTR [eax+151]
  03116	83 e1 04	 and	 ecx, 4
  03119	74 23		 je	 SHORT $LN17@Convert

; 1630 : 		{
; 1631 : 			this->m_Special[this->m_SpecialNum] = 0x6E;

  0311b	8b 45 fc	 mov	 eax, DWORD PTR _this$[ebp]
  0311e	0f b6 48 30	 movzx	 ecx, BYTE PTR [eax+48]
  03122	ba 6e 00 00 00	 mov	 edx, 110		; 0000006eH
  03127	8b 45 fc	 mov	 eax, DWORD PTR _this$[ebp]
  0312a	66 89 54 48 32	 mov	 WORD PTR [eax+ecx*2+50], dx

; 1632 : 			this->m_SpecialNum++;

  0312f	8b 45 fc	 mov	 eax, DWORD PTR _this$[ebp]
  03132	8a 48 30	 mov	 cl, BYTE PTR [eax+48]
  03135	80 c1 01	 add	 cl, 1
  03138	8b 55 fc	 mov	 edx, DWORD PTR _this$[ebp]
  0313b	88 4a 30	 mov	 BYTE PTR [edx+48], cl
$LN17@Convert:

; 1633 : 		}
; 1634 : 		if ( (this->m_NewOption &8) )

  0313e	8b 45 fc	 mov	 eax, DWORD PTR _this$[ebp]
  03141	0f b6 88 97 00
	00 00		 movzx	 ecx, BYTE PTR [eax+151]
  03148	83 e1 08	 and	 ecx, 8
  0314b	74 23		 je	 SHORT $LN16@Convert

; 1635 : 		{
; 1636 : 			this->m_Special[this->m_SpecialNum] = 0x6F;

  0314d	8b 45 fc	 mov	 eax, DWORD PTR _this$[ebp]
  03150	0f b6 48 30	 movzx	 ecx, BYTE PTR [eax+48]
  03154	ba 6f 00 00 00	 mov	 edx, 111		; 0000006fH
  03159	8b 45 fc	 mov	 eax, DWORD PTR _this$[ebp]
  0315c	66 89 54 48 32	 mov	 WORD PTR [eax+ecx*2+50], dx

; 1637 : 			this->m_SpecialNum++;

  03161	8b 45 fc	 mov	 eax, DWORD PTR _this$[ebp]
  03164	8a 48 30	 mov	 cl, BYTE PTR [eax+48]
  03167	80 c1 01	 add	 cl, 1
  0316a	8b 55 fc	 mov	 edx, DWORD PTR _this$[ebp]
  0316d	88 4a 30	 mov	 BYTE PTR [edx+48], cl
$LN16@Convert:

; 1638 : 		}
; 1639 : 	}
; 1640 : #endif
; 1641 : 
; 1642 : #ifdef NEWWINGS_5
; 1643 : 	if ( IS_NEWWINGS_5(_type) )

  03170	81 7d f8 bd 18
	00 00		 cmp	 DWORD PTR __type$[ebp], 6333 ; 000018bdH
  03177	7d 09		 jge	 SHORT $LN439@Convert
  03179	c7 45 8c 00 00
	00 00		 mov	 DWORD PTR tv2637[ebp], 0
  03180	eb 0f		 jmp	 SHORT $LN440@Convert
$LN439@Convert:
  03182	33 c0		 xor	 eax, eax
  03184	81 7d f8 c2 18
	00 00		 cmp	 DWORD PTR __type$[ebp], 6338 ; 000018c2H
  0318b	0f 9e c0	 setle	 al
  0318e	89 45 8c	 mov	 DWORD PTR tv2637[ebp], eax
$LN440@Convert:
  03191	83 7d 8c 00	 cmp	 DWORD PTR tv2637[ebp], 0
  03195	0f 84 c8 00 00
	00		 je	 $LN11@Convert

; 1644 : 	{
; 1645 : 		if ( (this->m_NewOption &1) )

  0319b	8b 45 fc	 mov	 eax, DWORD PTR _this$[ebp]
  0319e	0f b6 88 97 00
	00 00		 movzx	 ecx, BYTE PTR [eax+151]
  031a5	83 e1 01	 and	 ecx, 1
  031a8	74 23		 je	 SHORT $LN14@Convert

; 1646 : 		{
; 1647 : 			this->m_Special[this->m_SpecialNum] = 0x6C;

  031aa	8b 45 fc	 mov	 eax, DWORD PTR _this$[ebp]
  031ad	0f b6 48 30	 movzx	 ecx, BYTE PTR [eax+48]
  031b1	ba 6c 00 00 00	 mov	 edx, 108		; 0000006cH
  031b6	8b 45 fc	 mov	 eax, DWORD PTR _this$[ebp]
  031b9	66 89 54 48 32	 mov	 WORD PTR [eax+ecx*2+50], dx

; 1648 : 			this->m_SpecialNum++;

  031be	8b 45 fc	 mov	 eax, DWORD PTR _this$[ebp]
  031c1	8a 48 30	 mov	 cl, BYTE PTR [eax+48]
  031c4	80 c1 01	 add	 cl, 1
  031c7	8b 55 fc	 mov	 edx, DWORD PTR _this$[ebp]
  031ca	88 4a 30	 mov	 BYTE PTR [edx+48], cl
$LN14@Convert:

; 1649 : 		}
; 1650 : 		if ( (this->m_NewOption &2) )

  031cd	8b 45 fc	 mov	 eax, DWORD PTR _this$[ebp]
  031d0	0f b6 88 97 00
	00 00		 movzx	 ecx, BYTE PTR [eax+151]
  031d7	83 e1 02	 and	 ecx, 2
  031da	74 23		 je	 SHORT $LN13@Convert

; 1651 : 		{
; 1652 : 			this->m_Special[this->m_SpecialNum] = 0x6D;

  031dc	8b 45 fc	 mov	 eax, DWORD PTR _this$[ebp]
  031df	0f b6 48 30	 movzx	 ecx, BYTE PTR [eax+48]
  031e3	ba 6d 00 00 00	 mov	 edx, 109		; 0000006dH
  031e8	8b 45 fc	 mov	 eax, DWORD PTR _this$[ebp]
  031eb	66 89 54 48 32	 mov	 WORD PTR [eax+ecx*2+50], dx

; 1653 : 			this->m_SpecialNum++;

  031f0	8b 45 fc	 mov	 eax, DWORD PTR _this$[ebp]
  031f3	8a 48 30	 mov	 cl, BYTE PTR [eax+48]
  031f6	80 c1 01	 add	 cl, 1
  031f9	8b 55 fc	 mov	 edx, DWORD PTR _this$[ebp]
  031fc	88 4a 30	 mov	 BYTE PTR [edx+48], cl
$LN13@Convert:

; 1654 : 		}
; 1655 : 		if ( (this->m_NewOption &4) )

  031ff	8b 45 fc	 mov	 eax, DWORD PTR _this$[ebp]
  03202	0f b6 88 97 00
	00 00		 movzx	 ecx, BYTE PTR [eax+151]
  03209	83 e1 04	 and	 ecx, 4
  0320c	74 23		 je	 SHORT $LN12@Convert

; 1656 : 		{
; 1657 : 			this->m_Special[this->m_SpecialNum] = 0x6E;

  0320e	8b 45 fc	 mov	 eax, DWORD PTR _this$[ebp]
  03211	0f b6 48 30	 movzx	 ecx, BYTE PTR [eax+48]
  03215	ba 6e 00 00 00	 mov	 edx, 110		; 0000006eH
  0321a	8b 45 fc	 mov	 eax, DWORD PTR _this$[ebp]
  0321d	66 89 54 48 32	 mov	 WORD PTR [eax+ecx*2+50], dx

; 1658 : 			this->m_SpecialNum++;

  03222	8b 45 fc	 mov	 eax, DWORD PTR _this$[ebp]
  03225	8a 48 30	 mov	 cl, BYTE PTR [eax+48]
  03228	80 c1 01	 add	 cl, 1
  0322b	8b 55 fc	 mov	 edx, DWORD PTR _this$[ebp]
  0322e	88 4a 30	 mov	 BYTE PTR [edx+48], cl
$LN12@Convert:

; 1659 : 		}
; 1660 : 		if ( (this->m_NewOption &8) )

  03231	8b 45 fc	 mov	 eax, DWORD PTR _this$[ebp]
  03234	0f b6 88 97 00
	00 00		 movzx	 ecx, BYTE PTR [eax+151]
  0323b	83 e1 08	 and	 ecx, 8
  0323e	74 23		 je	 SHORT $LN11@Convert

; 1661 : 		{
; 1662 : 			this->m_Special[this->m_SpecialNum] = 0x6F;

  03240	8b 45 fc	 mov	 eax, DWORD PTR _this$[ebp]
  03243	0f b6 48 30	 movzx	 ecx, BYTE PTR [eax+48]
  03247	ba 6f 00 00 00	 mov	 edx, 111		; 0000006fH
  0324c	8b 45 fc	 mov	 eax, DWORD PTR _this$[ebp]
  0324f	66 89 54 48 32	 mov	 WORD PTR [eax+ecx*2+50], dx

; 1663 : 			this->m_SpecialNum++;

  03254	8b 45 fc	 mov	 eax, DWORD PTR _this$[ebp]
  03257	8a 48 30	 mov	 cl, BYTE PTR [eax+48]
  0325a	80 c1 01	 add	 cl, 1
  0325d	8b 55 fc	 mov	 edx, DWORD PTR _this$[ebp]
  03260	88 4a 30	 mov	 BYTE PTR [edx+48], cl
$LN11@Convert:

; 1664 : 		}
; 1665 : 	}
; 1666 : #endif
; 1667 : 
; 1668 : #ifdef NEWWINGS_6
; 1669 : 	if ( IS_NEWWINGS_6(_type) )

  03263	81 7d f8 c3 18
	00 00		 cmp	 DWORD PTR __type$[ebp], 6339 ; 000018c3H
  0326a	7d 09		 jge	 SHORT $LN441@Convert
  0326c	c7 45 8c 00 00
	00 00		 mov	 DWORD PTR tv2694[ebp], 0
  03273	eb 0f		 jmp	 SHORT $LN442@Convert
$LN441@Convert:
  03275	33 c0		 xor	 eax, eax
  03277	81 7d f8 dc 18
	00 00		 cmp	 DWORD PTR __type$[ebp], 6364 ; 000018dcH
  0327e	0f 9e c0	 setle	 al
  03281	89 45 8c	 mov	 DWORD PTR tv2694[ebp], eax
$LN442@Convert:
  03284	83 7d 8c 00	 cmp	 DWORD PTR tv2694[ebp], 0
  03288	0f 84 c8 00 00
	00		 je	 $LN6@Convert

; 1670 : 	{
; 1671 : 		if ( (this->m_NewOption &1) )

  0328e	8b 45 fc	 mov	 eax, DWORD PTR _this$[ebp]
  03291	0f b6 88 97 00
	00 00		 movzx	 ecx, BYTE PTR [eax+151]
  03298	83 e1 01	 and	 ecx, 1
  0329b	74 23		 je	 SHORT $LN9@Convert

; 1672 : 		{
; 1673 : 			this->m_Special[this->m_SpecialNum] = 0x6C;

  0329d	8b 45 fc	 mov	 eax, DWORD PTR _this$[ebp]
  032a0	0f b6 48 30	 movzx	 ecx, BYTE PTR [eax+48]
  032a4	ba 6c 00 00 00	 mov	 edx, 108		; 0000006cH
  032a9	8b 45 fc	 mov	 eax, DWORD PTR _this$[ebp]
  032ac	66 89 54 48 32	 mov	 WORD PTR [eax+ecx*2+50], dx

; 1674 : 			this->m_SpecialNum++;

  032b1	8b 45 fc	 mov	 eax, DWORD PTR _this$[ebp]
  032b4	8a 48 30	 mov	 cl, BYTE PTR [eax+48]
  032b7	80 c1 01	 add	 cl, 1
  032ba	8b 55 fc	 mov	 edx, DWORD PTR _this$[ebp]
  032bd	88 4a 30	 mov	 BYTE PTR [edx+48], cl
$LN9@Convert:

; 1675 : 		}
; 1676 : 		if ( (this->m_NewOption &2) )

  032c0	8b 45 fc	 mov	 eax, DWORD PTR _this$[ebp]
  032c3	0f b6 88 97 00
	00 00		 movzx	 ecx, BYTE PTR [eax+151]
  032ca	83 e1 02	 and	 ecx, 2
  032cd	74 23		 je	 SHORT $LN8@Convert

; 1677 : 		{
; 1678 : 			this->m_Special[this->m_SpecialNum] = 0x6D;

  032cf	8b 45 fc	 mov	 eax, DWORD PTR _this$[ebp]
  032d2	0f b6 48 30	 movzx	 ecx, BYTE PTR [eax+48]
  032d6	ba 6d 00 00 00	 mov	 edx, 109		; 0000006dH
  032db	8b 45 fc	 mov	 eax, DWORD PTR _this$[ebp]
  032de	66 89 54 48 32	 mov	 WORD PTR [eax+ecx*2+50], dx

; 1679 : 			this->m_SpecialNum++;

  032e3	8b 45 fc	 mov	 eax, DWORD PTR _this$[ebp]
  032e6	8a 48 30	 mov	 cl, BYTE PTR [eax+48]
  032e9	80 c1 01	 add	 cl, 1
  032ec	8b 55 fc	 mov	 edx, DWORD PTR _this$[ebp]
  032ef	88 4a 30	 mov	 BYTE PTR [edx+48], cl
$LN8@Convert:

; 1680 : 		}
; 1681 : 		if ( (this->m_NewOption &4) )

  032f2	8b 45 fc	 mov	 eax, DWORD PTR _this$[ebp]
  032f5	0f b6 88 97 00
	00 00		 movzx	 ecx, BYTE PTR [eax+151]
  032fc	83 e1 04	 and	 ecx, 4
  032ff	74 23		 je	 SHORT $LN7@Convert

; 1682 : 		{
; 1683 : 			this->m_Special[this->m_SpecialNum] = 0x6E;

  03301	8b 45 fc	 mov	 eax, DWORD PTR _this$[ebp]
  03304	0f b6 48 30	 movzx	 ecx, BYTE PTR [eax+48]
  03308	ba 6e 00 00 00	 mov	 edx, 110		; 0000006eH
  0330d	8b 45 fc	 mov	 eax, DWORD PTR _this$[ebp]
  03310	66 89 54 48 32	 mov	 WORD PTR [eax+ecx*2+50], dx

; 1684 : 			this->m_SpecialNum++;

  03315	8b 45 fc	 mov	 eax, DWORD PTR _this$[ebp]
  03318	8a 48 30	 mov	 cl, BYTE PTR [eax+48]
  0331b	80 c1 01	 add	 cl, 1
  0331e	8b 55 fc	 mov	 edx, DWORD PTR _this$[ebp]
  03321	88 4a 30	 mov	 BYTE PTR [edx+48], cl
$LN7@Convert:

; 1685 : 		}
; 1686 : 		if ( (this->m_NewOption &8) )

  03324	8b 45 fc	 mov	 eax, DWORD PTR _this$[ebp]
  03327	0f b6 88 97 00
	00 00		 movzx	 ecx, BYTE PTR [eax+151]
  0332e	83 e1 08	 and	 ecx, 8
  03331	74 23		 je	 SHORT $LN6@Convert

; 1687 : 		{
; 1688 : 			this->m_Special[this->m_SpecialNum] = 0x6F;

  03333	8b 45 fc	 mov	 eax, DWORD PTR _this$[ebp]
  03336	0f b6 48 30	 movzx	 ecx, BYTE PTR [eax+48]
  0333a	ba 6f 00 00 00	 mov	 edx, 111		; 0000006fH
  0333f	8b 45 fc	 mov	 eax, DWORD PTR _this$[ebp]
  03342	66 89 54 48 32	 mov	 WORD PTR [eax+ecx*2+50], dx

; 1689 : 			this->m_SpecialNum++;

  03347	8b 45 fc	 mov	 eax, DWORD PTR _this$[ebp]
  0334a	8a 48 30	 mov	 cl, BYTE PTR [eax+48]
  0334d	80 c1 01	 add	 cl, 1
  03350	8b 55 fc	 mov	 edx, DWORD PTR _this$[ebp]
  03353	88 4a 30	 mov	 BYTE PTR [edx+48], cl
$LN6@Convert:

; 1690 : 		}
; 1691 : 	}
; 1692 : #endif
; 1693 : 	if ( SOptionStatValue != 0 )

  03356	83 7d e8 00	 cmp	 DWORD PTR _SOptionStatValue$[ebp], 0
  0335a	74 45		 je	 SHORT $LN4@Convert

; 1694 : 	{
; 1695 : 		if (p->SetAttr != 0 )

  0335c	8b 45 f0	 mov	 eax, DWORD PTR _p$[ebp]
  0335f	0f b6 48 61	 movzx	 ecx, BYTE PTR [eax+97]
  03363	85 c9		 test	 ecx, ecx
  03365	74 3a		 je	 SHORT $LN4@Convert

; 1696 : 		{
; 1697 : 			this->m_Special[this->m_SpecialNum] = p->SetAttr + 0xC3;

  03367	8b 45 f0	 mov	 eax, DWORD PTR _p$[ebp]
  0336a	0f b6 48 61	 movzx	 ecx, BYTE PTR [eax+97]
  0336e	81 c1 c3 00 00
	00		 add	 ecx, 195		; 000000c3H
  03374	8b 55 fc	 mov	 edx, DWORD PTR _this$[ebp]
  03377	0f b6 42 30	 movzx	 eax, BYTE PTR [edx+48]
  0337b	8b 55 fc	 mov	 edx, DWORD PTR _this$[ebp]
  0337e	66 89 4c 42 32	 mov	 WORD PTR [edx+eax*2+50], cx

; 1698 : 			this->m_SetAddStat = SOptionStatValue * 5;

  03383	8b 45 e8	 mov	 eax, DWORD PTR _SOptionStatValue$[ebp]
  03386	6b c0 05	 imul	 eax, 5
  03389	8b 4d fc	 mov	 ecx, DWORD PTR _this$[ebp]
  0338c	88 81 af 00 00
	00		 mov	 BYTE PTR [ecx+175], al

; 1699 : 			this->m_SpecialNum++;

  03392	8b 45 fc	 mov	 eax, DWORD PTR _this$[ebp]
  03395	8a 48 30	 mov	 cl, BYTE PTR [eax+48]
  03398	80 c1 01	 add	 cl, 1
  0339b	8b 55 fc	 mov	 edx, DWORD PTR _this$[ebp]
  0339e	88 4a 30	 mov	 BYTE PTR [edx+48], cl
$LN4@Convert:

; 1700 : 		}
; 1701 : 	}
; 1702 : 
; 1703 : 	this->m_Part = p->ItemSlot;

  033a1	8b 45 fc	 mov	 eax, DWORD PTR _this$[ebp]
  033a4	8b 4d f0	 mov	 ecx, DWORD PTR _p$[ebp]
  033a7	8a 51 64	 mov	 dl, BYTE PTR [ecx+100]
  033aa	88 50 0a	 mov	 BYTE PTR [eax+10], dl

; 1704 : 	this->Value();

  033ad	8b 4d fc	 mov	 ecx, DWORD PTR _this$[ebp]
  033b0	e8 00 00 00 00	 call	 ?Value@CItem@@QAEXXZ	; CItem::Value

; 1705 : 
; 1706 : 	if ( this->m_Type != ITEMGET(4,7) && this->m_Type != ITEMGET(4,15) ) // arrow and bolts

  033b5	8b 45 fc	 mov	 eax, DWORD PTR _this$[ebp]
  033b8	0f bf 48 06	 movsx	 ecx, WORD PTR [eax+6]
  033bc	81 f9 07 08 00
	00		 cmp	 ecx, 2055		; 00000807H
  033c2	0f 84 f4 00 00
	00		 je	 $LN2@Convert
  033c8	8b 45 fc	 mov	 eax, DWORD PTR _this$[ebp]
  033cb	0f bf 48 06	 movsx	 ecx, WORD PTR [eax+6]
  033cf	81 f9 0f 08 00
	00		 cmp	 ecx, 2063		; 0000080fH
  033d5	0f 84 e1 00 00
	00		 je	 $LN2@Convert

; 1707 : 	{
; 1708 : 		this->m_DamageMinOrigin = this->m_DamageMin;

  033db	8b 45 fc	 mov	 eax, DWORD PTR _this$[ebp]
  033de	8b 4d fc	 mov	 ecx, DWORD PTR _this$[ebp]
  033e1	66 8b 51 10	 mov	 dx, WORD PTR [ecx+16]
  033e5	66 89 50 1c	 mov	 WORD PTR [eax+28], dx

; 1709 : 		this->m_DefenseOrigin = this->m_Defense;

  033e9	8b 45 fc	 mov	 eax, DWORD PTR _this$[ebp]
  033ec	8b 4d fc	 mov	 ecx, DWORD PTR _this$[ebp]
  033ef	66 8b 51 16	 mov	 dx, WORD PTR [ecx+22]
  033f3	66 89 50 1e	 mov	 WORD PTR [eax+30], dx

; 1710 : 		this->m_DamageMin -= (int)(this->m_DamageMin * this->m_CurrentDurabilityState);

  033f7	8b 45 fc	 mov	 eax, DWORD PTR _this$[ebp]
  033fa	0f b7 48 10	 movzx	 ecx, WORD PTR [eax+16]
  033fe	89 4d 8c	 mov	 DWORD PTR tv4452[ebp], ecx
  03401	db 45 8c	 fild	 DWORD PTR tv4452[ebp]
  03404	8b 55 fc	 mov	 edx, DWORD PTR _this$[ebp]
  03407	d8 8a a8 00 00
	00		 fmul	 DWORD PTR [edx+168]
  0340d	e8 00 00 00 00	 call	 __ftol2_sse
  03412	8b 4d fc	 mov	 ecx, DWORD PTR _this$[ebp]
  03415	0f b7 51 10	 movzx	 edx, WORD PTR [ecx+16]
  03419	2b d0		 sub	 edx, eax
  0341b	8b 45 fc	 mov	 eax, DWORD PTR _this$[ebp]
  0341e	66 89 50 10	 mov	 WORD PTR [eax+16], dx

; 1711 : 		this->m_DamageMax -= (int)(this->m_DamageMax * this->m_CurrentDurabilityState);

  03422	8b 45 fc	 mov	 eax, DWORD PTR _this$[ebp]
  03425	0f b7 48 12	 movzx	 ecx, WORD PTR [eax+18]
  03429	89 4d 8c	 mov	 DWORD PTR tv4461[ebp], ecx
  0342c	db 45 8c	 fild	 DWORD PTR tv4461[ebp]
  0342f	8b 55 fc	 mov	 edx, DWORD PTR _this$[ebp]
  03432	d8 8a a8 00 00
	00		 fmul	 DWORD PTR [edx+168]
  03438	e8 00 00 00 00	 call	 __ftol2_sse
  0343d	8b 4d fc	 mov	 ecx, DWORD PTR _this$[ebp]
  03440	0f b7 51 12	 movzx	 edx, WORD PTR [ecx+18]
  03444	2b d0		 sub	 edx, eax
  03446	8b 45 fc	 mov	 eax, DWORD PTR _this$[ebp]
  03449	66 89 50 12	 mov	 WORD PTR [eax+18], dx

; 1712 : 		this->m_Defense -= (int)(this->m_Defense * this->m_CurrentDurabilityState);

  0344d	8b 45 fc	 mov	 eax, DWORD PTR _this$[ebp]
  03450	0f b7 48 16	 movzx	 ecx, WORD PTR [eax+22]
  03454	89 4d 8c	 mov	 DWORD PTR tv4470[ebp], ecx
  03457	db 45 8c	 fild	 DWORD PTR tv4470[ebp]
  0345a	8b 55 fc	 mov	 edx, DWORD PTR _this$[ebp]
  0345d	d8 8a a8 00 00
	00		 fmul	 DWORD PTR [edx+168]
  03463	e8 00 00 00 00	 call	 __ftol2_sse
  03468	8b 4d fc	 mov	 ecx, DWORD PTR _this$[ebp]
  0346b	0f b7 51 16	 movzx	 edx, WORD PTR [ecx+22]
  0346f	2b d0		 sub	 edx, eax
  03471	8b 45 fc	 mov	 eax, DWORD PTR _this$[ebp]
  03474	66 89 50 16	 mov	 WORD PTR [eax+22], dx

; 1713 : 		this->m_SuccessfulBlocking -= (int)(this->m_SuccessfulBlocking * this->m_CurrentDurabilityState);

  03478	8b 45 fc	 mov	 eax, DWORD PTR _this$[ebp]
  0347b	0f b6 48 14	 movzx	 ecx, BYTE PTR [eax+20]
  0347f	89 4d 8c	 mov	 DWORD PTR tv4479[ebp], ecx
  03482	db 45 8c	 fild	 DWORD PTR tv4479[ebp]
  03485	8b 55 fc	 mov	 edx, DWORD PTR _this$[ebp]
  03488	d8 8a a8 00 00
	00		 fmul	 DWORD PTR [edx+168]
  0348e	e8 00 00 00 00	 call	 __ftol2_sse
  03493	8b 4d fc	 mov	 ecx, DWORD PTR _this$[ebp]
  03496	0f b6 51 14	 movzx	 edx, BYTE PTR [ecx+20]
  0349a	2b d0		 sub	 edx, eax
  0349c	8b 45 fc	 mov	 eax, DWORD PTR _this$[ebp]
  0349f	88 50 14	 mov	 BYTE PTR [eax+20], dl

; 1714 : 
; 1715 : 		if ( this->m_Durability < 1.0f )

  034a2	8b 45 fc	 mov	 eax, DWORD PTR _this$[ebp]
  034a5	d9 40 24	 fld	 DWORD PTR [eax+36]
  034a8	dc 1d 00 00 00
	00		 fcomp	 QWORD PTR __real@3ff0000000000000
  034ae	df e0		 fnstsw	 ax
  034b0	f6 c4 05	 test	 ah, 5
  034b3	7a 07		 jp	 SHORT $LN2@Convert

; 1716 : 		{
; 1717 : 			this->m_AttackSpeed = 0;

  034b5	8b 45 fc	 mov	 eax, DWORD PTR _this$[ebp]
  034b8	c6 40 0d 00	 mov	 BYTE PTR [eax+13], 0
$LN2@Convert:

; 1718 : 		}
; 1719 : 	}
; 1720 : 	
; 1721 : 	if ( this->m_Durability == 0.0f )

  034bc	8b 45 fc	 mov	 eax, DWORD PTR _this$[ebp]
  034bf	d9 40 24	 fld	 DWORD PTR [eax+36]
  034c2	d9 ee		 fldz
  034c4	da e9		 fucompp
  034c6	df e0		 fnstsw	 ax
  034c8	f6 c4 44	 test	 ah, 68			; 00000044H
  034cb	7a 13		 jp	 SHORT $LN1@Convert

; 1722 : 	{
; 1723 : 		memset(this->m_Resistance , 0, sizeof(this->m_Resistance));

  034cd	6a 07		 push	 7
  034cf	6a 00		 push	 0
  034d1	8b 45 fc	 mov	 eax, DWORD PTR _this$[ebp]
  034d4	83 c0 5f	 add	 eax, 95			; 0000005fH
  034d7	50		 push	 eax
  034d8	e8 00 00 00 00	 call	 _memset
  034dd	83 c4 0c	 add	 esp, 12			; 0000000cH
$LN1@Convert:

; 1724 : 	}
; 1725 : }

  034e0	5f		 pop	 edi
  034e1	5e		 pop	 esi
  034e2	5b		 pop	 ebx
  034e3	8b e5		 mov	 esp, ebp
  034e5	5d		 pop	 ebp
  034e6	c2 2c 00	 ret	 44			; 0000002cH
?Convert@CItem@@QAEXHEEEEEEPAEEEE@Z ENDP		; CItem::Convert
_TEXT	ENDS
